ARM GAS  /tmp/ccR7qmed.s 			page 1


   1              		.syntax unified
   2              		.cpu cortex-m4
   3              		.eabi_attribute 27, 3
   4              		.eabi_attribute 28, 1
   5              		.fpu fpv4-sp-d16
   6              		.eabi_attribute 20, 1
   7              		.eabi_attribute 21, 1
   8              		.eabi_attribute 23, 3
   9              		.eabi_attribute 24, 1
  10              		.eabi_attribute 25, 1
  11              		.eabi_attribute 26, 1
  12              		.eabi_attribute 30, 2
  13              		.eabi_attribute 34, 1
  14              		.eabi_attribute 18, 4
  15              		.thumb
  16              		.file	"chsys.c"
  17              		.text
  18              	.Ltext0:
  19              		.cfi_sections	.debug_frame
  20              		.section	.text._idle_thread,"ax",%progbits
  21              		.align	2
  22              		.p2align 4,,15
  23              		.global	_idle_thread
  24              		.thumb
  25              		.thumb_func
  26              		.type	_idle_thread, %function
  27              	_idle_thread:
  28              	.LFB7:
  29              		.file 1 "../../os/kernel/src/chsys.c"
  30              		.loc 1 54 0
  31              		.cfi_startproc
  32              		@ args = 0, pretend = 0, frame = 0
  33              		@ frame_needed = 0, uses_anonymous_args = 0
  34              		@ link register save eliminated.
  35              	.LVL0:
  36              		.loc 1 57 0
  37 0000 024B     		ldr	r3, .L4
  38 0002 034A     		ldr	r2, .L4+4
  39 0004 9869     		ldr	r0, [r3, #24]
  40              	.LVL1:
  41 0006 8261     		str	r2, [r0, #24]
  42              	.L2:
  43 0008 FEE7     		b	.L2
  44              	.L5:
  45 000a 00BF     		.align	2
  46              	.L4:
  47 000c 00000000 		.word	rlist
  48 0010 00000000 		.word	.LC0
  49              		.cfi_endproc
  50              	.LFE7:
  51              		.size	_idle_thread, .-_idle_thread
  52 0014 AFF30080 		.section	.text.chSysInit,"ax",%progbits
  52      AFF30080 
  52      AFF30080 
  53              		.align	2
  54              		.p2align 4,,15
  55              		.global	chSysInit
ARM GAS  /tmp/ccR7qmed.s 			page 2


  56              		.thumb
  57              		.thumb_func
  58              		.type	chSysInit, %function
  59              	chSysInit:
  60              	.LFB8:
  61              		.loc 1 77 0
  62              		.cfi_startproc
  63              		@ args = 0, pretend = 0, frame = 0
  64              		@ frame_needed = 0, uses_anonymous_args = 0
  65 0000 00B5     		push	{lr}
  66              	.LCFI0:
  67              		.cfi_def_cfa_offset 4
  68              		.cfi_offset 14, -4
  69 0002 83B0     		sub	sp, sp, #12
  70              	.LCFI1:
  71              		.cfi_def_cfa_offset 16
  72              		.loc 1 83 0
  73 0004 FFF7FEFF 		bl	_port_init
  74              	.LVL2:
  75              		.loc 1 84 0
  76 0008 FFF7FEFF 		bl	_scheduler_init
  77              	.LVL3:
  78              		.loc 1 85 0
  79 000c FFF7FEFF 		bl	_vt_init
  80              	.LVL4:
  81              		.loc 1 87 0
  82 0010 FFF7FEFF 		bl	_core_init
  83              	.LVL5:
  84              		.loc 1 90 0
  85 0014 FFF7FEFF 		bl	_heap_init
  86              	.LVL6:
  87              		.loc 1 97 0
  88 0018 40F20000 		movw	r0, #:lower16:.LANCHOR0
  89 001c 4021     		movs	r1, #64
  90 001e C0F20000 		movt	r0, #:upper16:.LANCHOR0
  91 0022 FFF7FEFF 		bl	_thread_init
  92              	.LVL7:
  93 0026 40F20001 		movw	r1, #:lower16:rlist
  94 002a C0F20001 		movt	r1, #:upper16:rlist
  95              		.loc 1 98 0
  96 002e 0122     		movs	r2, #1
  97              		.loc 1 97 0
  98 0030 8861     		str	r0, [r1, #24]
  99              		.loc 1 98 0
 100 0032 0277     		strb	r2, [r0, #28]
 101              	.LBB2:
 102              		.loc 1 104 0
 103 0034 0023     		movs	r3, #0
 104              	.LVL8:
 105              	@ 104 "../../os/kernel/src/chsys.c" 1
 106 0036 83F31188 		msr     BASEPRI, r3                    
 107 003a 62B6     		cpsie   i
 108              	@ 0 "" 2
 109              	.LVL9:
 110              		.thumb
 111              	.LBE2:
 112              		.loc 1 108 0
ARM GAS  /tmp/ccR7qmed.s 			page 3


 113 003c 40F20000 		movw	r0, #:lower16:ch_debug
 114 0040 8969     		ldr	r1, [r1, #24]
 115 0042 C0F20000 		movt	r0, #:upper16:ch_debug
 116 0046 8861     		str	r0, [r1, #24]
 117              		.loc 1 114 0
 118 0048 0093     		str	r3, [sp, #0]
 119 004a 40F20000 		movw	r0, #:lower16:.LANCHOR1
 120 004e 40F20003 		movw	r3, #:lower16:_idle_thread
 121              	.LVL10:
 122 0052 4FF4A471 		mov	r1, #328
 123 0056 C0F20003 		movt	r3, #:upper16:_idle_thread
 124 005a C0F20000 		movt	r0, #:upper16:.LANCHOR1
 125 005e FFF7FEFF 		bl	chThdCreateStatic
 126              	.LVL11:
 127              		.loc 1 117 0
 128 0062 03B0     		add	sp, sp, #12
 129 0064 00BD     		pop	{pc}
 130              		.cfi_endproc
 131              	.LFE8:
 132              		.size	chSysInit, .-chSysInit
 133 0066 00BFAFF3 		.section	.text.chSysTimerHandlerI,"ax",%progbits
 133      0080AFF3 
 133      0080
 134              		.align	2
 135              		.p2align 4,,15
 136              		.global	chSysTimerHandlerI
 137              		.thumb
 138              		.thumb_func
 139              		.type	chSysTimerHandlerI, %function
 140              	chSysTimerHandlerI:
 141              	.LFB9:
 142              		.loc 1 130 0
 143              		.cfi_startproc
 144              		@ args = 0, pretend = 0, frame = 0
 145              		@ frame_needed = 0, uses_anonymous_args = 0
 146 0000 38B5     		push	{r3, r4, r5, lr}
 147              	.LCFI2:
 148              		.cfi_def_cfa_offset 16
 149              		.cfi_offset 3, -16
 150              		.cfi_offset 4, -12
 151              		.cfi_offset 5, -8
 152              		.cfi_offset 14, -4
 153              		.loc 1 136 0
 154 0002 134B     		ldr	r3, .L20
 155 0004 9869     		ldr	r0, [r3, #24]
 156 0006 C27F     		ldrb	r2, [r0, #31]	@ zero_extendqisi2
 157 0008 0AB1     		cbz	r2, .L8
 158              		.loc 1 138 0
 159 000a 511E     		subs	r1, r2, #1
 160 000c C177     		strb	r1, [r0, #31]
 161              	.L8:
 162              		.loc 1 141 0
 163 000e 036A     		ldr	r3, [r0, #32]
 164              		.loc 1 143 0
 165 0010 104C     		ldr	r4, .L20+4
 166              		.loc 1 141 0
 167 0012 5A1C     		adds	r2, r3, #1
ARM GAS  /tmp/ccR7qmed.s 			page 4


 168 0014 0262     		str	r2, [r0, #32]
 169              		.loc 1 143 0
 170 0016 E068     		ldr	r0, [r4, #12]
 171 0018 2268     		ldr	r2, [r4, #0]
 172 001a 411C     		adds	r1, r0, #1
 173 001c A242     		cmp	r2, r4
 174 001e E160     		str	r1, [r4, #12]
 175 0020 14D0     		beq	.L7
 176              	.LBB3:
 177              		.loc 1 143 0 is_stmt 0 discriminator 1
 178 0022 9568     		ldr	r5, [r2, #8]
 179 0024 013D     		subs	r5, r5, #1
 180 0026 9560     		str	r5, [r2, #8]
 181              	.LVL12:
 182 0028 85B9     		cbnz	r5, .L7
 183              	.LVL13:
 184              	.L16:
 185              	.LBB4:
 186              		.loc 1 143 0 discriminator 3
 187 002a 1368     		ldr	r3, [r2, #0]
 188              	.LVL14:
 189 002c D168     		ldr	r1, [r2, #12]
 190              	.LVL15:
 191 002e 5C60     		str	r4, [r3, #4]
 192 0030 2360     		str	r3, [r4, #0]
 193 0032 D560     		str	r5, [r2, #12]
 194              	.LBB5:
 195 0034 0023     		movs	r3, #0
 196              	.LVL16:
 197              	@ 143 "../../os/kernel/src/chsys.c" 1
 198 0036 83F31188 		msr     BASEPRI, r3
 199              	@ 0 "" 2
 200              	.LVL17:
 201              		.thumb
 202              	.LBE5:
 203 003a 1069     		ldr	r0, [r2, #16]
 204 003c 8847     		blx	r1
 205              	.LVL18:
 206              	.LBB6:
 207 003e 2023     		movs	r3, #32
 208              	@ 143 "../../os/kernel/src/chsys.c" 1
 209 0040 83F31188 		msr     BASEPRI, r3
 210              	@ 0 "" 2
 211              	.LVL19:
 212              		.thumb
 213              	.LBE6:
 214              	.LBE4:
 215 0044 2268     		ldr	r2, [r4, #0]
 216              	.LVL20:
 217 0046 9068     		ldr	r0, [r2, #8]
 218 0048 0028     		cmp	r0, #0
 219 004a EED0     		beq	.L16
 220              	.LVL21:
 221              	.L7:
 222 004c 38BD     		pop	{r3, r4, r5, pc}
 223              	.L21:
 224 004e 00BF     		.align	2
ARM GAS  /tmp/ccR7qmed.s 			page 5


 225              	.L20:
 226 0050 00000000 		.word	rlist
 227 0054 00000000 		.word	vtlist
 228              	.LBE3:
 229              		.cfi_endproc
 230              	.LFE9:
 231              		.size	chSysTimerHandlerI, .-chSysTimerHandlerI
 232              		.global	_idle_thread_wa
 233 0058 AFF30080 		.section	.bss.mainthread.4810,"aw",%nobits
 233      AFF30080 
 234              		.align	2
 235              		.set	.LANCHOR0,. + 0
 236              		.type	mainthread.4810, %object
 237              		.size	mainthread.4810, 72
 238              	mainthread.4810:
 239 0000 00000000 		.space	72
 239      00000000 
 239      00000000 
 239      00000000 
 239      00000000 
 240              		.section	.rodata.str1.4,"aMS",%progbits,1
 241              		.align	2
 242              	.LC0:
 243 0000 69646C65 		.ascii	"idle\000"
 243      00
 244 0005 000000   		.section	.bss._idle_thread_wa,"aw",%nobits
 245              		.align	3
 246              		.set	.LANCHOR1,. + 0
 247              		.type	_idle_thread_wa, %object
 248              		.size	_idle_thread_wa, 328
 249              	_idle_thread_wa:
 250 0000 00000000 		.space	328
 250      00000000 
 250      00000000 
 250      00000000 
 250      00000000 
 251              		.text
 252              	.Letext0:
 253              		.file 2 "/usr/bin/../lib/gcc/arm-none-eabi/4.7.4/include/stddef.h"
 254              		.file 3 "/usr/bin/../lib/gcc/arm-none-eabi/4.7.4/../../../../arm-none-eabi/include/stdint.h"
 255              		.file 4 "../../os/ports/GCC/ARMCMx/chtypes.h"
 256              		.file 5 "../../os/kernel/include/chlists.h"
 257              		.file 6 "../../os/kernel/include/chthreads.h"
 258              		.file 7 "../../os/ports/GCC/ARMCMx/chcore_v7m.h"
 259              		.file 8 "../../os/kernel/include/chvt.h"
 260              		.file 9 "../../os/kernel/include/chschd.h"
 261              		.file 10 "../../os/kernel/include/chmtx.h"
 262              		.file 11 "../../os/kernel/include/chregistry.h"
 263              		.file 12 "../../os/kernel/include/chmemcore.h"
 264              		.file 13 "../../os/kernel/include/chheap.h"