ARM GAS  /tmp/ccLyr5SH.s 			page 1


   1              		.syntax unified
   2              		.cpu cortex-m4
   3              		.eabi_attribute 27, 3
   4              		.eabi_attribute 28, 1
   5              		.fpu fpv4-sp-d16
   6              		.eabi_attribute 20, 1
   7              		.eabi_attribute 21, 1
   8              		.eabi_attribute 23, 3
   9              		.eabi_attribute 24, 1
  10              		.eabi_attribute 25, 1
  11              		.eabi_attribute 26, 1
  12              		.eabi_attribute 30, 2
  13              		.eabi_attribute 34, 1
  14              		.eabi_attribute 18, 4
  15              		.thumb
  16              		.file	"gdisp.c"
  17              		.text
  18              	.Ltext0:
  19              		.cfi_sections	.debug_frame
  20              		.section	.text._gdispInit,"ax",%progbits
  21              		.align	2
  22              		.p2align 4,,15
  23              		.global	_gdispInit
  24              		.thumb
  25              		.thumb_func
  26              		.type	_gdispInit, %function
  27              	_gdispInit:
  28              	.LFB118:
  29              		.file 1 "../../ext/ugfx/src/gdisp/gdisp.c"
  30              		.loc 1 139 0
  31              		.cfi_startproc
  32              		@ args = 0, pretend = 0, frame = 0
  33              		@ frame_needed = 0, uses_anonymous_args = 0
  34              		@ link register save eliminated.
  35              		.loc 1 141 0
  36              		.loc 1 140 0
  37 0000 FFF7FEBF 		b	gdisp_lld_init
  38              	.LVL0:
  39              		.cfi_endproc
  40              	.LFE118:
  41              		.size	_gdispInit, .-_gdispInit
  42 0004 AFF30080 		.section	.text.gdispDrawBox,"ax",%progbits
  42      AFF30080 
  42      AFF30080 
  43              		.align	2
  44              		.p2align 4,,15
  45              		.global	gdispDrawBox
  46              		.thumb
  47              		.thumb_func
  48              		.type	gdispDrawBox, %function
  49              	gdispDrawBox:
  50              	.LFB119:
  51              		.loc 1 501 0
  52              		.cfi_startproc
  53              		@ args = 4, pretend = 0, frame = 0
  54              		@ frame_needed = 0, uses_anonymous_args = 0
  55              	.LVL1:
ARM GAS  /tmp/ccLyr5SH.s 			page 2


  56 0000 2DE9F04F 		push	{r4, r5, r6, r7, r8, r9, sl, fp, lr}
  57              	.LCFI0:
  58              		.cfi_def_cfa_offset 36
  59              		.cfi_offset 4, -36
  60              		.cfi_offset 5, -32
  61              		.cfi_offset 6, -28
  62              		.cfi_offset 7, -24
  63              		.cfi_offset 8, -20
  64              		.cfi_offset 9, -16
  65              		.cfi_offset 10, -12
  66              		.cfi_offset 11, -8
  67              		.cfi_offset 14, -4
  68              		.loc 1 506 0
  69 0004 1FFA81F8 		uxth	r8, r1
  70 0008 08EB0307 		add	r7, r8, r3
  71              		.loc 1 501 0
  72 000c 83B0     		sub	sp, sp, #12
  73              	.LCFI1:
  74              		.cfi_def_cfa_offset 48
  75              		.loc 1 505 0
  76 000e 00F1FF3C 		add	ip, r0, #-1
  77              		.loc 1 506 0
  78 0012 BFB2     		uxth	r7, r7
  79              		.loc 1 501 0
  80 0014 1C46     		mov	r4, r3
  81              		.loc 1 505 0
  82 0016 0CEB020A 		add	sl, ip, r2
  83              		.loc 1 506 0
  84 001a 7B1E     		subs	r3, r7, #1
  85              	.LVL2:
  86              		.loc 1 508 0
  87 001c 022A     		cmp	r2, #2
  88              		.loc 1 501 0
  89 001e 0E46     		mov	r6, r1
  90 0020 0546     		mov	r5, r0
  91 0022 BDF83090 		ldrh	r9, [sp, #48]
  92              		.loc 1 505 0
  93 0026 1FFA8AFA 		uxth	sl, sl
  94              	.LVL3:
  95              		.loc 1 506 0
  96 002a 1FFA83FB 		uxth	fp, r3
  97              	.LVL4:
  98              		.loc 1 508 0
  99 002e 19DD     		ble	.L3
 100              		.loc 1 509 0
 101 0030 002C     		cmp	r4, #0
 102 0032 14DD     		ble	.L2
 103              		.loc 1 510 0
 104 0034 0FFA8AFA 		sxth	sl, sl
 105              	.LVL5:
 106 0038 CDF80090 		str	r9, [sp, #0]
 107 003c 5246     		mov	r2, sl
 108              	.LVL6:
 109 003e 0B46     		mov	r3, r1
 110              	.LVL7:
 111 0040 FFF7FEFF 		bl	gdisp_lld_draw_line
 112              	.LVL8:
ARM GAS  /tmp/ccLyr5SH.s 			page 3


 113              		.loc 1 511 0
 114 0044 012C     		cmp	r4, #1
 115 0046 0AD0     		beq	.L2
 116              		.loc 1 512 0
 117 0048 0FFA8BF1 		sxth	r1, fp
 118 004c CDF80090 		str	r9, [sp, #0]
 119 0050 2846     		mov	r0, r5
 120 0052 5246     		mov	r2, sl
 121 0054 0B46     		mov	r3, r1
 122 0056 FFF7FEFF 		bl	gdisp_lld_draw_line
 123              	.LVL9:
 124              		.loc 1 513 0
 125 005a 022C     		cmp	r4, #2
 126 005c 0FD1     		bne	.L15
 127              	.L2:
 128              		.loc 1 525 0
 129 005e 03B0     		add	sp, sp, #12
 130 0060 BDE8F08F 		pop	{r4, r5, r6, r7, r8, r9, sl, fp, pc}
 131              	.LVL10:
 132              	.L3:
 133              		.loc 1 519 0
 134 0064 24D0     		beq	.L16
 135              		.loc 1 522 0
 136 0066 012A     		cmp	r2, #1
 137 0068 F9D1     		bne	.L2
 138              		.loc 1 523 0
 139 006a 0246     		mov	r2, r0
 140              	.LVL11:
 141 006c 0FFA8BF3 		sxth	r3, fp
 142              	.LVL12:
 143 0070 CDF83090 		str	r9, [sp, #48]
 144              		.loc 1 525 0
 145 0074 03B0     		add	sp, sp, #12
 146 0076 BDE8F04F 		pop	{r4, r5, r6, r7, r8, r9, sl, fp, lr}
 147              		.loc 1 523 0
 148 007a FFF7FEBF 		b	gdisp_lld_draw_line
 149              	.LVL13:
 150              	.L15:
 151              		.loc 1 514 0
 152 007e B81E     		subs	r0, r7, #2
 153 0080 08F10108 		add	r8, r8, #1
 154              	.LVL14:
 155 0084 07B2     		sxth	r7, r0
 156 0086 0FFA88F8 		sxth	r8, r8
 157              	.LVL15:
 158 008a 2846     		mov	r0, r5
 159 008c 2A46     		mov	r2, r5
 160 008e 4146     		mov	r1, r8
 161 0090 3B46     		mov	r3, r7
 162 0092 CDF80090 		str	r9, [sp, #0]
 163 0096 FFF7FEFF 		bl	gdisp_lld_draw_line
 164              	.LVL16:
 165              		.loc 1 515 0
 166 009a 5046     		mov	r0, sl
 167 009c 4146     		mov	r1, r8
 168 009e 5246     		mov	r2, sl
 169 00a0 3B46     		mov	r3, r7
ARM GAS  /tmp/ccLyr5SH.s 			page 4


 170 00a2 CDF83090 		str	r9, [sp, #48]
 171              		.loc 1 525 0
 172 00a6 03B0     		add	sp, sp, #12
 173 00a8 BDE8F04F 		pop	{r4, r5, r6, r7, r8, r9, sl, fp, lr}
 174              		.loc 1 515 0
 175 00ac FFF7FEBF 		b	gdisp_lld_draw_line
 176              	.LVL17:
 177              	.L16:
 178              		.loc 1 520 0
 179 00b0 0FFA8BFB 		sxth	fp, fp
 180 00b4 0246     		mov	r2, r0
 181              	.LVL18:
 182 00b6 5B46     		mov	r3, fp
 183              	.LVL19:
 184 00b8 CDF80090 		str	r9, [sp, #0]
 185 00bc FFF7FEFF 		bl	gdisp_lld_draw_line
 186              	.LVL20:
 187              		.loc 1 521 0
 188 00c0 0FFA8AF0 		sxth	r0, sl
 189 00c4 3146     		mov	r1, r6
 190 00c6 0246     		mov	r2, r0
 191 00c8 5B46     		mov	r3, fp
 192 00ca CDF83090 		str	r9, [sp, #48]
 193              		.loc 1 525 0
 194 00ce 03B0     		add	sp, sp, #12
 195 00d0 BDE8F04F 		pop	{r4, r5, r6, r7, r8, r9, sl, fp, lr}
 196              		.loc 1 521 0
 197 00d4 FFF7FEBF 		b	gdisp_lld_draw_line
 198              	.LVL21:
 199              		.cfi_endproc
 200              	.LFE119:
 201              		.size	gdispDrawBox, .-gdispDrawBox
 202 00d8 AFF30080 		.section	.text.gdispBlendColor,"ax",%progbits
 202      AFF30080 
 203              		.align	2
 204              		.p2align 4,,15
 205              		.global	gdispBlendColor
 206              		.thumb
 207              		.thumb_func
 208              		.type	gdispBlendColor, %function
 209              	gdispBlendColor:
 210              	.LFB120:
 211              		.loc 1 994 0
 212              		.cfi_startproc
 213              		@ args = 0, pretend = 0, frame = 0
 214              		@ frame_needed = 0, uses_anonymous_args = 0
 215              		@ link register save eliminated.
 216              	.LVL22:
 217 0000 F0B4     		push	{r4, r5, r6, r7}
 218              	.LCFI2:
 219              		.cfi_def_cfa_offset 16
 220              		.cfi_offset 4, -16
 221              		.cfi_offset 5, -12
 222              		.cfi_offset 6, -8
 223              		.cfi_offset 7, -4
 224              		.loc 1 1000 0
 225 0002 00F4FC67 		and	r7, r0, #2016
ARM GAS  /tmp/ccLyr5SH.s 			page 5


 226              		.loc 1 995 0
 227 0006 531C     		adds	r3, r2, #1
 228              	.LVL23:
 229              		.loc 1 1000 0
 230 0008 FC10     		asrs	r4, r7, #3
 231              		.loc 1 1004 0
 232 000a 01F4FC6C 		and	ip, r1, #2016
 233              		.loc 1 999 0
 234 000e 00F47845 		and	r5, r0, #63488
 235              		.loc 1 996 0
 236 0012 C2F58072 		rsb	r2, r2, #256
 237              	.LVL24:
 238              		.loc 1 1000 0
 239 0016 04FB03F7 		mul	r7, r4, r3
 240              		.loc 1 996 0
 241 001a 92B2     		uxth	r2, r2
 242              	.LVL25:
 243              		.loc 1 1001 0
 244 001c C600     		lsls	r6, r0, #3
 245              		.loc 1 999 0
 246 001e 2D12     		asrs	r5, r5, #8
 247              		.loc 1 1003 0
 248 0020 01F47844 		and	r4, r1, #63488
 249              		.loc 1 1004 0
 250 0024 4FEAEC00 		asr	r0, ip, #3
 251              	.LVL26:
 252              		.loc 1 999 0
 253 0028 05FB03F5 		mul	r5, r5, r3
 254              	.LVL27:
 255              		.loc 1 1004 0
 256 002c 00FB0270 		mla	r0, r0, r2, r7
 257              		.loc 1 1001 0
 258 0030 F6B2     		uxtb	r6, r6
 259              		.loc 1 1003 0
 260 0032 2412     		asrs	r4, r4, #8
 261              		.loc 1 1005 0
 262 0034 C900     		lsls	r1, r1, #3
 263              	.LVL28:
 264              		.loc 1 1001 0
 265 0036 06FB03F3 		mul	r3, r6, r3
 266              	.LVL29:
 267              		.loc 1 1003 0
 268 003a 04FB0254 		mla	r4, r4, r2, r5
 269              	.LVL30:
 270              		.loc 1 1005 0
 271 003e C9B2     		uxtb	r1, r1
 272              		.loc 1 1011 0
 273 0040 4009     		lsrs	r0, r0, #5
 274              	.LVL31:
 275              		.loc 1 1005 0
 276 0042 01FB0232 		mla	r2, r1, r2, r3
 277              	.LVL32:
 278              		.loc 1 1011 0
 279 0046 00F4FC60 		and	r0, r0, #2016
 280 004a 04F47843 		and	r3, r4, #63488
 281 004e 1843     		orrs	r0, r0, r3
 282 0050 C2F3C421 		ubfx	r1, r2, #11, #5
ARM GAS  /tmp/ccLyr5SH.s 			page 6


 283              		.loc 1 1012 0
 284 0054 0843     		orrs	r0, r0, r1
 285 0056 F0BC     		pop	{r4, r5, r6, r7}
 286 0058 7047     		bx	lr
 287              		.cfi_endproc
 288              	.LFE120:
 289              		.size	gdispBlendColor, .-gdispBlendColor
 290 005a 00BFAFF3 		.text
 290      0080
 291              	.Letext0:
 292              		.file 2 "/usr/bin/../lib/gcc/arm-none-eabi/4.7.4/../../../../arm-none-eabi/include/stdint.h"
 293              		.file 3 "../../os/ports/GCC/ARMCMx/chtypes.h"
 294              		.file 4 "../../ext/ugfx/include/gdisp/gdisp.h"
 295              		.file 5 "../../os/ports/common/ARMCMx/CMSIS/include/core_cm4.h"
 296              		.file 6 "../../ext/ugfx/include/gdisp/lld/gdisp_lld.h"