ARM GAS  /tmp/ccWhIN6f.s 			page 1


   1              		.syntax unified
   2              		.cpu cortex-m4
   3              		.eabi_attribute 27, 3
   4              		.eabi_attribute 28, 1
   5              		.fpu fpv4-sp-d16
   6              		.eabi_attribute 20, 1
   7              		.eabi_attribute 21, 1
   8              		.eabi_attribute 23, 3
   9              		.eabi_attribute 24, 1
  10              		.eabi_attribute 25, 1
  11              		.eabi_attribute 26, 1
  12              		.eabi_attribute 30, 2
  13              		.eabi_attribute 34, 1
  14              		.eabi_attribute 18, 4
  15              		.thumb
  16              		.file	"button.c"
  17              		.text
  18              	.Ltext0:
  19              		.cfi_sections	.debug_frame
  20              		.section	.text.MouseDown,"ax",%progbits
  21              		.align	2
  22              		.p2align 4,,15
  23              		.thumb
  24              		.thumb_func
  25              		.type	MouseDown, %function
  26              	MouseDown:
  27              	.LFB119:
  28              		.file 1 "../../ext/ugfx/src/gwin/button.c"
  29              		.loc 1 53 0
  30              		.cfi_startproc
  31              		@ args = 0, pretend = 0, frame = 0
  32              		@ frame_needed = 0, uses_anonymous_args = 0
  33              		@ link register save eliminated.
  34              	.LVL0:
  35              		.loc 1 55 0
  36 0000 828A     		ldrh	r2, [r0, #20]
  37              	.LVL1:
  38 0002 42F48051 		orr	r1, r2, #4096
  39              	.LVL2:
  40 0006 8182     		strh	r1, [r0, #20]	@ movhi
  41              		.loc 1 57 0
  42              		.loc 1 56 0
  43 0008 FFF7FEBF 		b	_gwidgetRedraw
  44              	.LVL3:
  45              		.cfi_endproc
  46              	.LFE119:
  47              		.size	MouseDown, .-MouseDown
  48 000c AFF30080 		.section	.text.MouseUp,"ax",%progbits
  49              		.align	2
  50              		.p2align 4,,15
  51              		.thumb
  52              		.thumb_func
  53              		.type	MouseUp, %function
  54              	MouseUp:
  55              	.LFB120:
  56              		.loc 1 60 0
  57              		.cfi_startproc
ARM GAS  /tmp/ccWhIN6f.s 			page 2


  58              		@ args = 0, pretend = 0, frame = 0
  59              		@ frame_needed = 0, uses_anonymous_args = 0
  60              	.LVL4:
  61              		.loc 1 62 0
  62 0000 838A     		ldrh	r3, [r0, #20]
  63              		.loc 1 60 0
  64 0002 70B5     		push	{r4, r5, r6, lr}
  65              	.LCFI0:
  66              		.cfi_def_cfa_offset 16
  67              		.cfi_offset 4, -16
  68              		.cfi_offset 5, -12
  69              		.cfi_offset 6, -8
  70              		.cfi_offset 14, -4
  71              		.loc 1 60 0
  72 0004 0C46     		mov	r4, r1
  73              		.loc 1 62 0
  74 0006 23F48051 		bic	r1, r3, #4096
  75              	.LVL5:
  76 000a 8182     		strh	r1, [r0, #20]	@ movhi
  77              		.loc 1 60 0
  78 000c 0546     		mov	r5, r0
  79 000e 1646     		mov	r6, r2
  80              		.loc 1 63 0
  81 0010 FFF7FEFF 		bl	_gwidgetRedraw
  82              	.LVL6:
  83              		.loc 1 67 0
  84 0014 002C     		cmp	r4, #0
  85 0016 09DB     		blt	.L2
  86              		.loc 1 67 0 is_stmt 0 discriminator 1
  87 0018 002E     		cmp	r6, #0
  88 001a 07DB     		blt	.L2
  89 001c B5F90C00 		ldrsh	r0, [r5, #12]
  90 0020 A042     		cmp	r0, r4
  91 0022 03DD     		ble	.L2
  92              	.LVL7:
  93              	.LBB20:
  94              	.LBB21:
  95              		.loc 1 67 0
  96 0024 B5F90E20 		ldrsh	r2, [r5, #14]
  97 0028 B242     		cmp	r2, r6
  98 002a 00DC     		bgt	.L15
  99              	.LVL8:
 100              	.L2:
 101 002c 70BD     		pop	{r4, r5, r6, pc}
 102              	.LVL9:
 103              	.L15:
 104 002e 0024     		movs	r4, #0
 105              	.LBB22:
 106              	.LBB23:
 107              		.loc 1 43 0 is_stmt 1
 108 0030 4FF40076 		mov	r6, #512
 109              	.LVL10:
 110              	.L13:
 111              		.loc 1 40 0
 112 0034 2146     		mov	r1, r4
 113 0036 0848     		ldr	r0, .L16
 114 0038 FFF7FEFF 		bl	geventGetSourceListener
ARM GAS  /tmp/ccWhIN6f.s 			page 3


 115              	.LVL11:
 116 003c 0446     		mov	r4, r0
 117 003e 0028     		cmp	r0, #0
 118 0040 F4D0     		beq	.L2
 119              		.loc 1 41 0
 120 0042 FFF7FEFF 		bl	geventGetEventBuffer
 121              	.LVL12:
 122 0046 0346     		mov	r3, r0
 123              		.loc 1 45 0
 124 0048 2046     		mov	r0, r4
 125              	.LVL13:
 126              		.loc 1 41 0
 127 004a 002B     		cmp	r3, #0
 128 004c F2D0     		beq	.L13
 129              		.loc 1 43 0
 130 004e 1E80     		strh	r6, [r3, #0]	@ movhi
 131              		.loc 1 44 0
 132 0050 5D60     		str	r5, [r3, #4]
 133              		.loc 1 45 0
 134 0052 FFF7FEFF 		bl	geventSendEvent
 135              	.LVL14:
 136 0056 EDE7     		b	.L13
 137              	.L17:
 138              		.align	2
 139              	.L16:
 140 0058 00000000 		.word	_gwidgetCreate
 141              	.LBE23:
 142              	.LBE22:
 143              	.LBE21:
 144              	.LBE20:
 145              		.cfi_endproc
 146              	.LFE120:
 147              		.size	MouseUp, .-MouseUp
 148 005c AFF30080 		.section	.text.gwinButtonDraw_3D,"ax",%progbits
 149              		.align	2
 150              		.p2align 4,,15
 151              		.global	gwinButtonDraw_3D
 152              		.thumb
 153              		.thumb_func
 154              		.type	gwinButtonDraw_3D, %function
 155              	gwinButtonDraw_3D:
 156              	.LFB124:
 157              		.loc 1 167 0
 158              		.cfi_startproc
 159              		@ args = 0, pretend = 0, frame = 0
 160              		@ frame_needed = 0, uses_anonymous_args = 0
 161              	.LVL15:
 162 0000 70B5     		push	{r4, r5, r6, lr}
 163              	.LCFI1:
 164              		.cfi_def_cfa_offset 16
 165              		.cfi_offset 4, -16
 166              		.cfi_offset 5, -12
 167              		.cfi_offset 6, -8
 168              		.cfi_offset 14, -4
 169              		.loc 1 171 0
 170 0002 4368     		ldr	r3, [r0, #4]
 171 0004 274A     		ldr	r2, .L25
ARM GAS  /tmp/ccWhIN6f.s 			page 4


 172 0006 9342     		cmp	r3, r2
 173              		.loc 1 167 0
 174 0008 86B0     		sub	sp, sp, #24
 175              	.LCFI2:
 176              		.cfi_def_cfa_offset 40
 177              		.loc 1 167 0
 178 000a 0446     		mov	r4, r0
 179              		.loc 1 171 0
 180 000c 01D0     		beq	.L23
 181              	.LVL16:
 182              	.L18:
 183              		.loc 1 177 0
 184 000e 06B0     		add	sp, sp, #24
 185 0010 70BD     		pop	{r4, r5, r6, pc}
 186              	.LVL17:
 187              	.L23:
 188              	.LBB28:
 189              	.LBB29:
 190              	.LBB30:
 191              	.LBB31:
 192              		.loc 1 162 0
 193 0012 808A     		ldrh	r0, [r0, #20]
 194              	.LVL18:
 195 0014 00F01001 		and	r1, r0, #16
 196              	.LVL19:
 197 0018 8DB2     		uxth	r5, r1
 198 001a 002D     		cmp	r5, #0
 199 001c 3DD0     		beq	.L24
 200              		.loc 1 163 0
 201 001e 00F48056 		and	r6, r0, #4096
 202 0022 B3B2     		uxth	r3, r6
 203 0024 A56A     		ldr	r5, [r4, #40]
 204 0026 002B     		cmp	r3, #0
 205 0028 3AD0     		beq	.L22
 206 002a 1235     		adds	r5, r5, #18
 207              	.L21:
 208              	.LBE31:
 209              	.LBE30:
 210              		.loc 1 174 0
 211 002c E069     		ldr	r0, [r4, #28]
 212 002e A269     		ldr	r2, [r4, #24]
 213 0030 0090     		str	r0, [sp, #0]
 214 0032 0192     		str	r2, [sp, #4]
 215 0034 2988     		ldrh	r1, [r5, #0]
 216 0036 A289     		ldrh	r2, [r4, #12]
 217 0038 E389     		ldrh	r3, [r4, #14]
 218 003a 0291     		str	r1, [sp, #8]
 219 003c AE88     		ldrh	r6, [r5, #4]
 220 003e B4F90800 		ldrsh	r0, [r4, #8]
 221 0042 B4F90A10 		ldrsh	r1, [r4, #10]
 222 0046 0396     		str	r6, [sp, #12]
 223 0048 013A     		subs	r2, r2, #1
 224 004a 0126     		movs	r6, #1
 225 004c 013B     		subs	r3, r3, #1
 226 004e 0496     		str	r6, [sp, #16]
 227 0050 12B2     		sxth	r2, r2
 228 0052 1BB2     		sxth	r3, r3
ARM GAS  /tmp/ccWhIN6f.s 			page 5


 229 0054 FFF7FEFF 		bl	gdispFillStringBox
 230              	.LVL20:
 231              		.loc 1 175 0
 232 0058 A289     		ldrh	r2, [r4, #12]
 233 005a 2089     		ldrh	r0, [r4, #8]
 234 005c 6189     		ldrh	r1, [r4, #10]
 235 005e E389     		ldrh	r3, [r4, #14]
 236 0060 6E88     		ldrh	r6, [r5, #2]
 237 0062 8018     		adds	r0, r0, r2
 238 0064 421E     		subs	r2, r0, #1
 239 0066 CB18     		adds	r3, r1, r3
 240 0068 10B2     		sxth	r0, r2
 241 006a 013B     		subs	r3, r3, #1
 242 006c 0246     		mov	r2, r0
 243 006e 0096     		str	r6, [sp, #0]
 244 0070 09B2     		sxth	r1, r1
 245 0072 1BB2     		sxth	r3, r3
 246 0074 FFF7FEFF 		bl	gdispDrawLine
 247              	.LVL21:
 248              		.loc 1 176 0
 249 0078 6689     		ldrh	r6, [r4, #10]
 250 007a E189     		ldrh	r1, [r4, #14]
 251 007c 2089     		ldrh	r0, [r4, #8]
 252 007e A289     		ldrh	r2, [r4, #12]
 253 0080 6B88     		ldrh	r3, [r5, #2]
 254 0082 7118     		adds	r1, r6, r1
 255 0084 0139     		subs	r1, r1, #1
 256 0086 8218     		adds	r2, r0, r2
 257 0088 09B2     		sxth	r1, r1
 258 008a 023A     		subs	r2, r2, #2
 259 008c 0093     		str	r3, [sp, #0]
 260 008e 00B2     		sxth	r0, r0
 261 0090 12B2     		sxth	r2, r2
 262 0092 0B46     		mov	r3, r1
 263 0094 FFF7FEFF 		bl	gdispDrawLine
 264              	.LVL22:
 265 0098 B9E7     		b	.L18
 266              	.L24:
 267              	.LBB33:
 268              	.LBB32:
 269              		.loc 1 162 0
 270 009a A56A     		ldr	r5, [r4, #40]
 271 009c 0A35     		adds	r5, r5, #10
 272 009e C5E7     		b	.L21
 273              	.L22:
 274              		.loc 1 164 0
 275 00a0 0235     		adds	r5, r5, #2
 276 00a2 C3E7     		b	.L21
 277              	.L26:
 278              		.align	2
 279              	.L25:
 280 00a4 00000000 		.word	.LANCHOR0
 281              	.LBE32:
 282              	.LBE33:
 283              	.LBE29:
 284              	.LBE28:
 285              		.cfi_endproc
ARM GAS  /tmp/ccWhIN6f.s 			page 6


 286              	.LFE124:
 287              		.size	gwinButtonDraw_3D, .-gwinButtonDraw_3D
 288 00a8 AFF30080 		.section	.text.gwinButtonCreate,"ax",%progbits
 288      AFF30080 
 289              		.align	2
 290              		.p2align 4,,15
 291              		.global	gwinButtonCreate
 292              		.thumb
 293              		.thumb_func
 294              		.type	gwinButtonCreate, %function
 295              	gwinButtonCreate:
 296              	.LFB121:
 297              		.loc 1 139 0
 298              		.cfi_startproc
 299              		@ args = 0, pretend = 0, frame = 0
 300              		@ frame_needed = 0, uses_anonymous_args = 0
 301              	.LVL23:
 302 0000 38B5     		push	{r3, r4, r5, lr}
 303              	.LCFI3:
 304              		.cfi_def_cfa_offset 16
 305              		.cfi_offset 3, -16
 306              		.cfi_offset 4, -12
 307              		.cfi_offset 5, -8
 308              		.cfi_offset 14, -4
 309              		.loc 1 140 0
 310 0002 054A     		ldr	r2, .L32
 311              		.loc 1 139 0
 312 0004 0D46     		mov	r5, r1
 313              		.loc 1 140 0
 314 0006 FFF7FEFF 		bl	_gwidgetCreate
 315              	.LVL24:
 316 000a 0446     		mov	r4, r0
 317 000c 10B1     		cbz	r0, .L28
 318              		.loc 1 146 0
 319 000e 297A     		ldrb	r1, [r5, #8]	@ zero_extendqisi2
 320 0010 FFF7FEFF 		bl	gwinSetVisible
 321              	.LVL25:
 322              	.L28:
 323              		.loc 1 148 0
 324 0014 2046     		mov	r0, r4
 325 0016 38BD     		pop	{r3, r4, r5, pc}
 326              	.L33:
 327              		.align	2
 328              	.L32:
 329 0018 00000000 		.word	.LANCHOR0
 330              		.cfi_endproc
 331              	.LFE121:
 332              		.size	gwinButtonCreate, .-gwinButtonCreate
 333 001c AFF30080 		.section	.text.gwinButtonIsPressed,"ax",%progbits
 334              		.align	2
 335              		.p2align 4,,15
 336              		.global	gwinButtonIsPressed
 337              		.thumb
 338              		.thumb_func
 339              		.type	gwinButtonIsPressed, %function
 340              	gwinButtonIsPressed:
 341              	.LFB122:
ARM GAS  /tmp/ccWhIN6f.s 			page 7


 342              		.loc 1 150 0
 343              		.cfi_startproc
 344              		@ args = 0, pretend = 0, frame = 0
 345              		@ frame_needed = 0, uses_anonymous_args = 0
 346              		@ link register save eliminated.
 347              	.LVL26:
 348              		.loc 1 151 0
 349 0000 4368     		ldr	r3, [r0, #4]
 350 0002 044A     		ldr	r2, .L38
 351 0004 9342     		cmp	r3, r2
 352 0006 01D0     		beq	.L37
 353              		.loc 1 152 0
 354 0008 0020     		movs	r0, #0
 355              	.LVL27:
 356              		.loc 1 155 0
 357 000a 7047     		bx	lr
 358              	.LVL28:
 359              	.L37:
 360              		.loc 1 154 0
 361 000c 808A     		ldrh	r0, [r0, #20]
 362              	.LVL29:
 363 000e C0F30030 		ubfx	r0, r0, #12, #1
 364 0012 7047     		bx	lr
 365              	.L39:
 366              		.align	2
 367              	.L38:
 368 0014 00000000 		.word	.LANCHOR0
 369              		.cfi_endproc
 370              	.LFE122:
 371              		.size	gwinButtonIsPressed, .-gwinButtonIsPressed
 372 0018 AFF30080 		.section	.text.gwinButtonDraw_ArrowUp,"ax",%progbits
 372      AFF30080 
 373              		.align	2
 374              		.p2align 4,,15
 375              		.global	gwinButtonDraw_ArrowUp
 376              		.thumb
 377              		.thumb_func
 378              		.type	gwinButtonDraw_ArrowUp, %function
 379              	gwinButtonDraw_ArrowUp:
 380              	.LFB125:
 381              		.loc 1 215 0
 382              		.cfi_startproc
 383              		@ args = 0, pretend = 0, frame = 32
 384              		@ frame_needed = 0, uses_anonymous_args = 0
 385              	.LVL30:
 386 0000 2DE9F041 		push	{r4, r5, r6, r7, r8, lr}
 387              	.LCFI4:
 388              		.cfi_def_cfa_offset 24
 389              		.cfi_offset 4, -24
 390              		.cfi_offset 5, -20
 391              		.cfi_offset 6, -16
 392              		.cfi_offset 7, -12
 393              		.cfi_offset 8, -8
 394              		.cfi_offset 14, -4
 395              		.loc 1 220 0
 396 0004 4368     		ldr	r3, [r0, #4]
 397 0006 4A4A     		ldr	r2, .L49
ARM GAS  /tmp/ccWhIN6f.s 			page 8


 398 0008 9342     		cmp	r3, r2
 399              		.loc 1 215 0
 400 000a 8CB0     		sub	sp, sp, #48
 401              	.LCFI5:
 402              		.cfi_def_cfa_offset 72
 403              		.loc 1 215 0
 404 000c 0446     		mov	r4, r0
 405              		.loc 1 220 0
 406 000e 02D0     		beq	.L48
 407              	.LVL31:
 408              	.L40:
 409              		.loc 1 235 0
 410 0010 0CB0     		add	sp, sp, #48
 411 0012 BDE8F081 		pop	{r4, r5, r6, r7, r8, pc}
 412              	.LVL32:
 413              	.L48:
 414              	.LBB34:
 415              	.LBB35:
 416              		.loc 1 162 0
 417 0016 808A     		ldrh	r0, [r0, #20]
 418              	.LVL33:
 419 0018 00F01001 		and	r1, r0, #16
 420              	.LVL34:
 421 001c 8DB2     		uxth	r5, r1
 422 001e 002D     		cmp	r5, #0
 423 0020 7AD1     		bne	.L42
 424 0022 D4F82880 		ldr	r8, [r4, #40]
 425 0026 08F10A06 		add	r6, r8, #10
 426              	.L43:
 427              	.LBE35:
 428              	.LBE34:
 429              		.loc 1 223 0
 430 002a A389     		ldrh	r3, [r4, #12]
 431              		.loc 1 224 0
 432 002c B4F80EE0 		ldrh	lr, [r4, #14]
 433              		.loc 1 231 0
 434 0030 B8F80080 		ldrh	r8, [r8, #0]
 435              		.loc 1 223 0
 436 0034 1AB2     		sxth	r2, r3
 437 0036 02EBD270 		add	r0, r2, r2, lsr #31
 438              		.loc 1 224 0
 439 003a 591E     		subs	r1, r3, #1
 440              		.loc 1 223 0
 441 003c 0027     		movs	r7, #0
 442              		.loc 1 224 0
 443 003e 0FFA8EF3 		sxth	r3, lr
 444              		.loc 1 223 0
 445 0042 4510     		asrs	r5, r0, #1
 446              		.loc 1 224 0
 447 0044 BB42     		cmp	r3, r7
 448 0046 1846     		mov	r0, r3
 449 0048 B8BF     		it	lt
 450 004a D81C     		addlt	r0, r3, #3
 451              		.loc 1 225 0
 452 004c 002A     		cmp	r2, #0
 453              		.loc 1 224 0
 454 004e ADF81810 		strh	r1, [sp, #24]	@ movhi
ARM GAS  /tmp/ccWhIN6f.s 			page 9


 455              		.loc 1 225 0
 456 0052 1146     		mov	r1, r2
 457 0054 B8BF     		it	lt
 458 0056 D11C     		addlt	r1, r2, #3
 459              		.loc 1 223 0
 460 0058 ADF81670 		strh	r7, [sp, #22]	@ movhi
 461              		.loc 1 225 0
 462 005c 8F10     		asrs	r7, r1, #2
 463 005e 02EB070C 		add	ip, r2, r7
 464              		.loc 1 227 0
 465 0062 D71B     		subs	r7, r2, r7
 466 0064 07EBD777 		add	r7, r7, r7, lsr #31
 467 0068 C7F34F07 		ubfx	r7, r7, #1, #16
 468              		.loc 1 225 0
 469 006c 0CEBDC7C 		add	ip, ip, ip, lsr #31
 470              		.loc 1 226 0
 471 0070 0EF1FF3E 		add	lr, lr, #-1
 472              		.loc 1 225 0
 473 0074 CCF34F0C 		ubfx	ip, ip, #1, #16
 474              		.loc 1 226 0
 475 0078 1FFA8EFE 		uxth	lr, lr
 476              		.loc 1 231 0
 477 007c B4F90A10 		ldrsh	r1, [r4, #10]
 478              		.loc 1 223 0
 479 0080 ADF81450 		strh	r5, [sp, #20]	@ movhi
 480              		.loc 1 227 0
 481 0084 ADF82470 		strh	r7, [sp, #36]	@ movhi
 482              		.loc 1 224 0
 483 0088 C0F38F05 		ubfx	r5, r0, #2, #16
 484              		.loc 1 228 0
 485 008c ADF82870 		strh	r7, [sp, #40]	@ movhi
 486              		.loc 1 231 0
 487 0090 B4F90800 		ldrsh	r0, [r4, #8]
 488 0094 CDF80080 		str	r8, [sp, #0]
 489              		.loc 1 229 0
 490 0098 0027     		movs	r7, #0
 491              		.loc 1 225 0
 492 009a ADF81CC0 		strh	ip, [sp, #28]	@ movhi
 493              		.loc 1 226 0
 494 009e ADF820C0 		strh	ip, [sp, #32]	@ movhi
 495 00a2 ADF822E0 		strh	lr, [sp, #34]	@ movhi
 496              		.loc 1 227 0
 497 00a6 ADF826E0 		strh	lr, [sp, #38]	@ movhi
 498              		.loc 1 224 0
 499 00aa ADF81A50 		strh	r5, [sp, #26]	@ movhi
 500              		.loc 1 225 0
 501 00ae ADF81E50 		strh	r5, [sp, #30]	@ movhi
 502              		.loc 1 228 0
 503 00b2 ADF82A50 		strh	r5, [sp, #42]	@ movhi
 504              		.loc 1 229 0
 505 00b6 ADF82C70 		strh	r7, [sp, #44]	@ movhi
 506 00ba ADF82E50 		strh	r5, [sp, #46]	@ movhi
 507              		.loc 1 231 0
 508 00be FFF7FEFF 		bl	gdispFillArea
 509              	.LVL35:
 510              		.loc 1 232 0
 511 00c2 B588     		ldrh	r5, [r6, #4]
ARM GAS  /tmp/ccWhIN6f.s 			page 10


 512 00c4 B4F90800 		ldrsh	r0, [r4, #8]
 513 00c8 B4F90A10 		ldrsh	r1, [r4, #10]
 514 00cc 0095     		str	r5, [sp, #0]
 515 00ce 05AA     		add	r2, sp, #20
 516 00d0 0723     		movs	r3, #7
 517 00d2 FFF7FEFF 		bl	gdispFillConvexPoly
 518              	.LVL36:
 519              		.loc 1 233 0
 520 00d6 7788     		ldrh	r7, [r6, #2]
 521 00d8 B4F90800 		ldrsh	r0, [r4, #8]
 522 00dc B4F90A10 		ldrsh	r1, [r4, #10]
 523 00e0 0097     		str	r7, [sp, #0]
 524 00e2 05AA     		add	r2, sp, #20
 525 00e4 0723     		movs	r3, #7
 526 00e6 FFF7FEFF 		bl	gdispDrawPoly
 527              	.LVL37:
 528              		.loc 1 234 0
 529 00ea E769     		ldr	r7, [r4, #28]
 530 00ec A569     		ldr	r5, [r4, #24]
 531 00ee 2089     		ldrh	r0, [r4, #8]
 532 00f0 6189     		ldrh	r1, [r4, #10]
 533 00f2 A289     		ldrh	r2, [r4, #12]
 534 00f4 E389     		ldrh	r3, [r4, #14]
 535 00f6 0097     		str	r7, [sp, #0]
 536 00f8 0195     		str	r5, [sp, #4]
 537 00fa 3488     		ldrh	r4, [r6, #0]
 538              	.LVL38:
 539 00fc 0130     		adds	r0, r0, #1
 540 00fe 0131     		adds	r1, r1, #1
 541 0100 023A     		subs	r2, r2, #2
 542 0102 023B     		subs	r3, r3, #2
 543 0104 0294     		str	r4, [sp, #8]
 544 0106 0124     		movs	r4, #1
 545 0108 0394     		str	r4, [sp, #12]
 546 010a 00B2     		sxth	r0, r0
 547 010c 09B2     		sxth	r1, r1
 548 010e 12B2     		sxth	r2, r2
 549 0110 1BB2     		sxth	r3, r3
 550 0112 FFF7FEFF 		bl	gdispDrawStringBox
 551              	.LVL39:
 552 0116 7BE7     		b	.L40
 553              	.LVL40:
 554              	.L42:
 555              	.LBB37:
 556              	.LBB36:
 557              		.loc 1 163 0
 558 0118 00F48056 		and	r6, r0, #4096
 559 011c B7B2     		uxth	r7, r6
 560 011e D4F82880 		ldr	r8, [r4, #40]
 561 0122 17B1     		cbz	r7, .L44
 562 0124 08F11206 		add	r6, r8, #18
 563 0128 7FE7     		b	.L43
 564              	.L44:
 565              		.loc 1 164 0
 566 012a 08F10206 		add	r6, r8, #2
 567 012e 7CE7     		b	.L43
 568              	.L50:
ARM GAS  /tmp/ccWhIN6f.s 			page 11


 569              		.align	2
 570              	.L49:
 571 0130 00000000 		.word	.LANCHOR0
 572              	.LBE36:
 573              	.LBE37:
 574              		.cfi_endproc
 575              	.LFE125:
 576              		.size	gwinButtonDraw_ArrowUp, .-gwinButtonDraw_ArrowUp
 577 0134 AFF30080 		.section	.text.gwinButtonDraw_ArrowDown,"ax",%progbits
 577      AFF30080 
 577      AFF30080 
 578              		.align	2
 579              		.p2align 4,,15
 580              		.global	gwinButtonDraw_ArrowDown
 581              		.thumb
 582              		.thumb_func
 583              		.type	gwinButtonDraw_ArrowDown, %function
 584              	gwinButtonDraw_ArrowDown:
 585              	.LFB126:
 586              		.loc 1 237 0
 587              		.cfi_startproc
 588              		@ args = 0, pretend = 0, frame = 32
 589              		@ frame_needed = 0, uses_anonymous_args = 0
 590              	.LVL41:
 591 0000 2DE9F041 		push	{r4, r5, r6, r7, r8, lr}
 592              	.LCFI6:
 593              		.cfi_def_cfa_offset 24
 594              		.cfi_offset 4, -24
 595              		.cfi_offset 5, -20
 596              		.cfi_offset 6, -16
 597              		.cfi_offset 7, -12
 598              		.cfi_offset 8, -8
 599              		.cfi_offset 14, -4
 600              		.loc 1 242 0
 601 0004 4368     		ldr	r3, [r0, #4]
 602 0006 494A     		ldr	r2, .L60
 603 0008 9342     		cmp	r3, r2
 604              		.loc 1 237 0
 605 000a 8CB0     		sub	sp, sp, #48
 606              	.LCFI7:
 607              		.cfi_def_cfa_offset 72
 608              		.loc 1 237 0
 609 000c 0446     		mov	r4, r0
 610              		.loc 1 242 0
 611 000e 02D0     		beq	.L59
 612              	.LVL42:
 613              	.L51:
 614              		.loc 1 257 0
 615 0010 0CB0     		add	sp, sp, #48
 616 0012 BDE8F081 		pop	{r4, r5, r6, r7, r8, pc}
 617              	.LVL43:
 618              	.L59:
 619              	.LBB38:
 620              	.LBB39:
 621              		.loc 1 162 0
 622 0016 808A     		ldrh	r0, [r0, #20]
 623              	.LVL44:
ARM GAS  /tmp/ccWhIN6f.s 			page 12


 624 0018 00F01001 		and	r1, r0, #16
 625              	.LVL45:
 626 001c 8DB2     		uxth	r5, r1
 627 001e 002D     		cmp	r5, #0
 628 0020 79D1     		bne	.L53
 629 0022 A66A     		ldr	r6, [r4, #40]
 630 0024 06F10A07 		add	r7, r6, #10
 631              	.L54:
 632              	.LBE39:
 633              	.LBE38:
 634              		.loc 1 245 0
 635 0028 A089     		ldrh	r0, [r4, #12]
 636 002a E389     		ldrh	r3, [r4, #14]
 637 002c 02B2     		sxth	r2, r0
 638 002e 02EBD27E 		add	lr, r2, r2, lsr #31
 639 0032 591E     		subs	r1, r3, #1
 640              		.loc 1 246 0
 641 0034 1BB2     		sxth	r3, r3
 642              		.loc 1 245 0
 643 0036 4FEA6E05 		asr	r5, lr, #1
 644              		.loc 1 246 0
 645 003a 0138     		subs	r0, r0, #1
 646 003c 002B     		cmp	r3, #0
 647              		.loc 1 245 0
 648 003e ADF81450 		strh	r5, [sp, #20]	@ movhi
 649              		.loc 1 246 0
 650 0042 1D46     		mov	r5, r3
 651 0044 B8BF     		it	lt
 652 0046 DD1C     		addlt	r5, r3, #3
 653              		.loc 1 247 0
 654 0048 002A     		cmp	r2, #0
 655 004a 9046     		mov	r8, r2
 656 004c B8BF     		it	lt
 657 004e 02F10308 		addlt	r8, r2, #3
 658 0052 4FEAA80E 		asr	lr, r8, #2
 659 0056 02EB0E0C 		add	ip, r2, lr
 660              		.loc 1 253 0
 661 005a B6F80080 		ldrh	r8, [r6, #0]
 662              		.loc 1 246 0
 663 005e ADF81800 		strh	r0, [sp, #24]	@ movhi
 664              		.loc 1 249 0
 665 0062 CEEB020E 		rsb	lr, lr, r2
 666              		.loc 1 245 0
 667 0066 89B2     		uxth	r1, r1
 668 0068 ADF81610 		strh	r1, [sp, #22]	@ movhi
 669              		.loc 1 247 0
 670 006c 0CEBDC76 		add	r6, ip, ip, lsr #31
 671              		.loc 1 246 0
 672 0070 A1EBA501 		sub	r1, r1, r5, asr #2
 673              		.loc 1 249 0
 674 0074 0EEBDE7E 		add	lr, lr, lr, lsr #31
 675              		.loc 1 247 0
 676 0078 C6F34F0C 		ubfx	ip, r6, #1, #16
 677              		.loc 1 246 0
 678 007c 8DB2     		uxth	r5, r1
 679              		.loc 1 249 0
 680 007e CEF34F0E 		ubfx	lr, lr, #1, #16
ARM GAS  /tmp/ccWhIN6f.s 			page 13


 681              		.loc 1 248 0
 682 0082 0026     		movs	r6, #0
 683              		.loc 1 253 0
 684 0084 B4F90800 		ldrsh	r0, [r4, #8]
 685 0088 B4F90A10 		ldrsh	r1, [r4, #10]
 686 008c CDF80080 		str	r8, [sp, #0]
 687              		.loc 1 247 0
 688 0090 ADF81CC0 		strh	ip, [sp, #28]	@ movhi
 689              		.loc 1 248 0
 690 0094 ADF820C0 		strh	ip, [sp, #32]	@ movhi
 691              		.loc 1 249 0
 692 0098 ADF824E0 		strh	lr, [sp, #36]	@ movhi
 693              		.loc 1 250 0
 694 009c ADF828E0 		strh	lr, [sp, #40]	@ movhi
 695              		.loc 1 246 0
 696 00a0 ADF81A50 		strh	r5, [sp, #26]	@ movhi
 697              		.loc 1 247 0
 698 00a4 ADF81E50 		strh	r5, [sp, #30]	@ movhi
 699              		.loc 1 248 0
 700 00a8 ADF82260 		strh	r6, [sp, #34]	@ movhi
 701              		.loc 1 249 0
 702 00ac ADF82660 		strh	r6, [sp, #38]	@ movhi
 703              		.loc 1 250 0
 704 00b0 ADF82A50 		strh	r5, [sp, #42]	@ movhi
 705              		.loc 1 251 0
 706 00b4 ADF82C60 		strh	r6, [sp, #44]	@ movhi
 707 00b8 ADF82E50 		strh	r5, [sp, #46]	@ movhi
 708              		.loc 1 253 0
 709 00bc FFF7FEFF 		bl	gdispFillArea
 710              	.LVL46:
 711              		.loc 1 254 0
 712 00c0 BD88     		ldrh	r5, [r7, #4]
 713 00c2 B4F90800 		ldrsh	r0, [r4, #8]
 714 00c6 B4F90A10 		ldrsh	r1, [r4, #10]
 715 00ca 0095     		str	r5, [sp, #0]
 716 00cc 05AA     		add	r2, sp, #20
 717 00ce 0723     		movs	r3, #7
 718 00d0 FFF7FEFF 		bl	gdispFillConvexPoly
 719              	.LVL47:
 720              		.loc 1 255 0
 721 00d4 7E88     		ldrh	r6, [r7, #2]
 722 00d6 B4F90800 		ldrsh	r0, [r4, #8]
 723 00da B4F90A10 		ldrsh	r1, [r4, #10]
 724 00de 0096     		str	r6, [sp, #0]
 725 00e0 05AA     		add	r2, sp, #20
 726 00e2 0723     		movs	r3, #7
 727 00e4 FFF7FEFF 		bl	gdispDrawPoly
 728              	.LVL48:
 729              		.loc 1 256 0
 730 00e8 E669     		ldr	r6, [r4, #28]
 731 00ea A569     		ldr	r5, [r4, #24]
 732 00ec 2089     		ldrh	r0, [r4, #8]
 733 00ee 6189     		ldrh	r1, [r4, #10]
 734 00f0 A289     		ldrh	r2, [r4, #12]
 735 00f2 E389     		ldrh	r3, [r4, #14]
 736 00f4 0096     		str	r6, [sp, #0]
 737 00f6 0195     		str	r5, [sp, #4]
ARM GAS  /tmp/ccWhIN6f.s 			page 14


 738 00f8 3C88     		ldrh	r4, [r7, #0]
 739              	.LVL49:
 740 00fa 0130     		adds	r0, r0, #1
 741 00fc 0131     		adds	r1, r1, #1
 742 00fe 023A     		subs	r2, r2, #2
 743 0100 023B     		subs	r3, r3, #2
 744 0102 0294     		str	r4, [sp, #8]
 745 0104 0124     		movs	r4, #1
 746 0106 0394     		str	r4, [sp, #12]
 747 0108 00B2     		sxth	r0, r0
 748 010a 09B2     		sxth	r1, r1
 749 010c 12B2     		sxth	r2, r2
 750 010e 1BB2     		sxth	r3, r3
 751 0110 FFF7FEFF 		bl	gdispDrawStringBox
 752              	.LVL50:
 753 0114 7CE7     		b	.L51
 754              	.LVL51:
 755              	.L53:
 756              	.LBB41:
 757              	.LBB40:
 758              		.loc 1 163 0
 759 0116 00F48056 		and	r6, r0, #4096
 760 011a B7B2     		uxth	r7, r6
 761 011c A66A     		ldr	r6, [r4, #40]
 762 011e 17B1     		cbz	r7, .L55
 763 0120 06F11207 		add	r7, r6, #18
 764 0124 80E7     		b	.L54
 765              	.L55:
 766              		.loc 1 164 0
 767 0126 B71C     		adds	r7, r6, #2
 768 0128 7EE7     		b	.L54
 769              	.L61:
 770 012a 00BF     		.align	2
 771              	.L60:
 772 012c 00000000 		.word	.LANCHOR0
 773              	.LBE40:
 774              	.LBE41:
 775              		.cfi_endproc
 776              	.LFE126:
 777              		.size	gwinButtonDraw_ArrowDown, .-gwinButtonDraw_ArrowDown
 778              		.section	.text.gwinButtonDraw_ArrowLeft,"ax",%progbits
 779              		.align	2
 780              		.p2align 4,,15
 781              		.global	gwinButtonDraw_ArrowLeft
 782              		.thumb
 783              		.thumb_func
 784              		.type	gwinButtonDraw_ArrowLeft, %function
 785              	gwinButtonDraw_ArrowLeft:
 786              	.LFB127:
 787              		.loc 1 259 0
 788              		.cfi_startproc
 789              		@ args = 0, pretend = 0, frame = 32
 790              		@ frame_needed = 0, uses_anonymous_args = 0
 791              	.LVL52:
 792 0000 2DE9F043 		push	{r4, r5, r6, r7, r8, r9, lr}
 793              	.LCFI8:
 794              		.cfi_def_cfa_offset 28
ARM GAS  /tmp/ccWhIN6f.s 			page 15


 795              		.cfi_offset 4, -28
 796              		.cfi_offset 5, -24
 797              		.cfi_offset 6, -20
 798              		.cfi_offset 7, -16
 799              		.cfi_offset 8, -12
 800              		.cfi_offset 9, -8
 801              		.cfi_offset 14, -4
 802              		.loc 1 264 0
 803 0004 4368     		ldr	r3, [r0, #4]
 804 0006 4C4A     		ldr	r2, .L71
 805 0008 9342     		cmp	r3, r2
 806              		.loc 1 259 0
 807 000a 8DB0     		sub	sp, sp, #52
 808              	.LCFI9:
 809              		.cfi_def_cfa_offset 80
 810              		.loc 1 259 0
 811 000c 0446     		mov	r4, r0
 812              		.loc 1 264 0
 813 000e 02D0     		beq	.L70
 814              	.LVL53:
 815              	.L62:
 816              		.loc 1 279 0
 817 0010 0DB0     		add	sp, sp, #52
 818 0012 BDE8F083 		pop	{r4, r5, r6, r7, r8, r9, pc}
 819              	.LVL54:
 820              	.L70:
 821              	.LBB42:
 822              	.LBB43:
 823              		.loc 1 162 0
 824 0016 808A     		ldrh	r0, [r0, #20]
 825              	.LVL55:
 826 0018 00F01001 		and	r1, r0, #16
 827              	.LVL56:
 828 001c 8DB2     		uxth	r5, r1
 829 001e 002D     		cmp	r5, #0
 830 0020 7DD1     		bne	.L64
 831 0022 D4F82890 		ldr	r9, [r4, #40]
 832 0026 09F10A06 		add	r6, r9, #10
 833              	.L65:
 834              	.LBE43:
 835              	.LBE42:
 836              		.loc 1 267 0
 837 002a B4F80E80 		ldrh	r8, [r4, #14]
 838              		.loc 1 268 0
 839 002e B4F80CE0 		ldrh	lr, [r4, #12]
 840              		.loc 1 275 0
 841 0032 B9F80090 		ldrh	r9, [r9, #0]
 842              		.loc 1 267 0
 843 0036 0FFA88F3 		sxth	r3, r8
 844 003a 03EBD372 		add	r2, r3, r3, lsr #31
 845 003e 5110     		asrs	r1, r2, #1
 846 0040 0020     		movs	r0, #0
 847              		.loc 1 268 0
 848 0042 0FFA8EF2 		sxth	r2, lr
 849 0046 8242     		cmp	r2, r0
 850 0048 1546     		mov	r5, r2
 851              		.loc 1 267 0
ARM GAS  /tmp/ccWhIN6f.s 			page 16


 852 004a ADF81610 		strh	r1, [sp, #22]	@ movhi
 853              		.loc 1 268 0
 854 004e B8BF     		it	lt
 855 0050 D51C     		addlt	r5, r2, #3
 856 0052 0021     		movs	r1, #0
 857              		.loc 1 269 0
 858 0054 8B42     		cmp	r3, r1
 859 0056 1F46     		mov	r7, r3
 860 0058 B8BF     		it	lt
 861 005a DF1C     		addlt	r7, r3, #3
 862              		.loc 1 267 0
 863 005c ADF81400 		strh	r0, [sp, #20]	@ movhi
 864              		.loc 1 269 0
 865 0060 B810     		asrs	r0, r7, #2
 866 0062 C0EB030C 		rsb	ip, r0, r3
 867              		.loc 1 271 0
 868 0066 1F18     		adds	r7, r3, r0
 869              		.loc 1 269 0
 870 0068 0CEBDC7C 		add	ip, ip, ip, lsr #31
 871              		.loc 1 270 0
 872 006c 0EF1FF3E 		add	lr, lr, #-1
 873              		.loc 1 271 0
 874 0070 07EBD777 		add	r7, r7, r7, lsr #31
 875              		.loc 1 269 0
 876 0074 CCF34F0C 		ubfx	ip, ip, #1, #16
 877              		.loc 1 270 0
 878 0078 1FFA8EFE 		uxth	lr, lr
 879              		.loc 1 268 0
 880 007c C5F38F05 		ubfx	r5, r5, #2, #16
 881              		.loc 1 275 0
 882 0080 B4F90800 		ldrsh	r0, [r4, #8]
 883              		.loc 1 268 0
 884 0084 ADF81A10 		strh	r1, [sp, #26]	@ movhi
 885              		.loc 1 271 0
 886 0088 C7F34F07 		ubfx	r7, r7, #1, #16
 887              		.loc 1 275 0
 888 008c B4F90A10 		ldrsh	r1, [r4, #10]
 889 0090 CDF80090 		str	r9, [sp, #0]
 890              		.loc 1 273 0
 891 0094 08F1FF38 		add	r8, r8, #-1
 892              		.loc 1 269 0
 893 0098 ADF81EC0 		strh	ip, [sp, #30]	@ movhi
 894              		.loc 1 270 0
 895 009c ADF820E0 		strh	lr, [sp, #32]	@ movhi
 896 00a0 ADF822C0 		strh	ip, [sp, #34]	@ movhi
 897              		.loc 1 271 0
 898 00a4 ADF824E0 		strh	lr, [sp, #36]	@ movhi
 899              		.loc 1 268 0
 900 00a8 ADF81850 		strh	r5, [sp, #24]	@ movhi
 901              		.loc 1 269 0
 902 00ac ADF81C50 		strh	r5, [sp, #28]	@ movhi
 903              		.loc 1 272 0
 904 00b0 ADF82850 		strh	r5, [sp, #40]	@ movhi
 905              		.loc 1 271 0
 906 00b4 ADF82670 		strh	r7, [sp, #38]	@ movhi
 907              		.loc 1 272 0
 908 00b8 ADF82A70 		strh	r7, [sp, #42]	@ movhi
ARM GAS  /tmp/ccWhIN6f.s 			page 17


 909              		.loc 1 273 0
 910 00bc ADF82C50 		strh	r5, [sp, #44]	@ movhi
 911 00c0 ADF82E80 		strh	r8, [sp, #46]	@ movhi
 912              		.loc 1 275 0
 913 00c4 FFF7FEFF 		bl	gdispFillArea
 914              	.LVL57:
 915              		.loc 1 276 0
 916 00c8 B588     		ldrh	r5, [r6, #4]
 917 00ca B4F90800 		ldrsh	r0, [r4, #8]
 918 00ce B4F90A10 		ldrsh	r1, [r4, #10]
 919 00d2 0095     		str	r5, [sp, #0]
 920 00d4 05AA     		add	r2, sp, #20
 921 00d6 0723     		movs	r3, #7
 922 00d8 FFF7FEFF 		bl	gdispFillConvexPoly
 923              	.LVL58:
 924              		.loc 1 277 0
 925 00dc 7788     		ldrh	r7, [r6, #2]
 926 00de B4F90800 		ldrsh	r0, [r4, #8]
 927 00e2 B4F90A10 		ldrsh	r1, [r4, #10]
 928 00e6 0097     		str	r7, [sp, #0]
 929 00e8 05AA     		add	r2, sp, #20
 930 00ea 0723     		movs	r3, #7
 931 00ec FFF7FEFF 		bl	gdispDrawPoly
 932              	.LVL59:
 933              		.loc 1 278 0
 934 00f0 E769     		ldr	r7, [r4, #28]
 935 00f2 A569     		ldr	r5, [r4, #24]
 936 00f4 2089     		ldrh	r0, [r4, #8]
 937 00f6 6189     		ldrh	r1, [r4, #10]
 938 00f8 A289     		ldrh	r2, [r4, #12]
 939 00fa E389     		ldrh	r3, [r4, #14]
 940 00fc 0097     		str	r7, [sp, #0]
 941 00fe 0195     		str	r5, [sp, #4]
 942 0100 3488     		ldrh	r4, [r6, #0]
 943              	.LVL60:
 944 0102 0130     		adds	r0, r0, #1
 945 0104 0131     		adds	r1, r1, #1
 946 0106 023A     		subs	r2, r2, #2
 947 0108 023B     		subs	r3, r3, #2
 948 010a 0294     		str	r4, [sp, #8]
 949 010c 0124     		movs	r4, #1
 950 010e 0394     		str	r4, [sp, #12]
 951 0110 00B2     		sxth	r0, r0
 952 0112 09B2     		sxth	r1, r1
 953 0114 12B2     		sxth	r2, r2
 954 0116 1BB2     		sxth	r3, r3
 955 0118 FFF7FEFF 		bl	gdispDrawStringBox
 956              	.LVL61:
 957 011c 78E7     		b	.L62
 958              	.LVL62:
 959              	.L64:
 960              	.LBB45:
 961              	.LBB44:
 962              		.loc 1 163 0
 963 011e 00F48056 		and	r6, r0, #4096
 964 0122 B7B2     		uxth	r7, r6
 965 0124 D4F82890 		ldr	r9, [r4, #40]
ARM GAS  /tmp/ccWhIN6f.s 			page 18


 966 0128 17B1     		cbz	r7, .L66
 967 012a 09F11206 		add	r6, r9, #18
 968 012e 7CE7     		b	.L65
 969              	.L66:
 970              		.loc 1 164 0
 971 0130 09F10206 		add	r6, r9, #2
 972 0134 79E7     		b	.L65
 973              	.L72:
 974 0136 00BF     		.align	2
 975              	.L71:
 976 0138 00000000 		.word	.LANCHOR0
 977              	.LBE44:
 978              	.LBE45:
 979              		.cfi_endproc
 980              	.LFE127:
 981              		.size	gwinButtonDraw_ArrowLeft, .-gwinButtonDraw_ArrowLeft
 982 013c AFF30080 		.section	.text.gwinButtonDraw_ArrowRight,"ax",%progbits
 983              		.align	2
 984              		.p2align 4,,15
 985              		.global	gwinButtonDraw_ArrowRight
 986              		.thumb
 987              		.thumb_func
 988              		.type	gwinButtonDraw_ArrowRight, %function
 989              	gwinButtonDraw_ArrowRight:
 990              	.LFB128:
 991              		.loc 1 281 0
 992              		.cfi_startproc
 993              		@ args = 0, pretend = 0, frame = 32
 994              		@ frame_needed = 0, uses_anonymous_args = 0
 995              	.LVL63:
 996 0000 2DE9F043 		push	{r4, r5, r6, r7, r8, r9, lr}
 997              	.LCFI10:
 998              		.cfi_def_cfa_offset 28
 999              		.cfi_offset 4, -28
 1000              		.cfi_offset 5, -24
 1001              		.cfi_offset 6, -20
 1002              		.cfi_offset 7, -16
 1003              		.cfi_offset 8, -12
 1004              		.cfi_offset 9, -8
 1005              		.cfi_offset 14, -4
 1006              		.loc 1 286 0
 1007 0004 4368     		ldr	r3, [r0, #4]
 1008 0006 4B4A     		ldr	r2, .L82
 1009 0008 9342     		cmp	r3, r2
 1010              		.loc 1 281 0
 1011 000a 8DB0     		sub	sp, sp, #52
 1012              	.LCFI11:
 1013              		.cfi_def_cfa_offset 80
 1014              		.loc 1 281 0
 1015 000c 0446     		mov	r4, r0
 1016              		.loc 1 286 0
 1017 000e 02D0     		beq	.L81
 1018              	.LVL64:
 1019              	.L73:
 1020              		.loc 1 301 0
 1021 0010 0DB0     		add	sp, sp, #52
 1022 0012 BDE8F083 		pop	{r4, r5, r6, r7, r8, r9, pc}
ARM GAS  /tmp/ccWhIN6f.s 			page 19


 1023              	.LVL65:
 1024              	.L81:
 1025              	.LBB46:
 1026              	.LBB47:
 1027              		.loc 1 162 0
 1028 0016 808A     		ldrh	r0, [r0, #20]
 1029              	.LVL66:
 1030 0018 00F01001 		and	r1, r0, #16
 1031              	.LVL67:
 1032 001c 8DB2     		uxth	r5, r1
 1033 001e 002D     		cmp	r5, #0
 1034 0020 7BD1     		bne	.L75
 1035 0022 D4F828E0 		ldr	lr, [r4, #40]
 1036 0026 0EF10A06 		add	r6, lr, #10
 1037              	.L76:
 1038              	.LBE47:
 1039              	.LBE46:
 1040              		.loc 1 289 0
 1041 002a B4F80E80 		ldrh	r8, [r4, #14]
 1042 002e A289     		ldrh	r2, [r4, #12]
 1043              		.loc 1 297 0
 1044 0030 BEF80090 		ldrh	r9, [lr, #0]
 1045              		.loc 1 289 0
 1046 0034 0FFA88F3 		sxth	r3, r8
 1047 0038 511E     		subs	r1, r2, #1
 1048 003a 03EBD370 		add	r0, r3, r3, lsr #31
 1049              		.loc 1 290 0
 1050 003e 12B2     		sxth	r2, r2
 1051              		.loc 1 289 0
 1052 0040 4510     		asrs	r5, r0, #1
 1053              		.loc 1 290 0
 1054 0042 002A     		cmp	r2, #0
 1055              		.loc 1 289 0
 1056 0044 8FB2     		uxth	r7, r1
 1057              		.loc 1 290 0
 1058 0046 1146     		mov	r1, r2
 1059 0048 B8BF     		it	lt
 1060 004a D11C     		addlt	r1, r2, #3
 1061 004c A7EBA100 		sub	r0, r7, r1, asr #2
 1062 0050 0021     		movs	r1, #0
 1063              		.loc 1 291 0
 1064 0052 8B42     		cmp	r3, r1
 1065              		.loc 1 289 0
 1066 0054 ADF81470 		strh	r7, [sp, #20]	@ movhi
 1067              		.loc 1 291 0
 1068 0058 1F46     		mov	r7, r3
 1069 005a B8BF     		it	lt
 1070 005c DF1C     		addlt	r7, r3, #3
 1071              		.loc 1 289 0
 1072 005e ADF81650 		strh	r5, [sp, #22]	@ movhi
 1073              		.loc 1 290 0
 1074 0062 85B2     		uxth	r5, r0
 1075              		.loc 1 291 0
 1076 0064 B810     		asrs	r0, r7, #2
 1077 0066 C0EB030C 		rsb	ip, r0, r3
 1078              		.loc 1 293 0
 1079 006a 1F18     		adds	r7, r3, r0
ARM GAS  /tmp/ccWhIN6f.s 			page 20


 1080              		.loc 1 291 0
 1081 006c 0CEBDC7E 		add	lr, ip, ip, lsr #31
 1082              		.loc 1 293 0
 1083 0070 07EBD777 		add	r7, r7, r7, lsr #31
 1084              		.loc 1 291 0
 1085 0074 CEF34F0C 		ubfx	ip, lr, #1, #16
 1086              		.loc 1 297 0
 1087 0078 B4F90800 		ldrsh	r0, [r4, #8]
 1088              		.loc 1 290 0
 1089 007c ADF81A10 		strh	r1, [sp, #26]	@ movhi
 1090              		.loc 1 292 0
 1091 0080 4FF0000E 		mov	lr, #0
 1092              		.loc 1 297 0
 1093 0084 B4F90A10 		ldrsh	r1, [r4, #10]
 1094 0088 CDF80090 		str	r9, [sp, #0]
 1095              		.loc 1 293 0
 1096 008c C7F34F07 		ubfx	r7, r7, #1, #16
 1097              		.loc 1 295 0
 1098 0090 08F1FF38 		add	r8, r8, #-1
 1099              		.loc 1 291 0
 1100 0094 ADF81EC0 		strh	ip, [sp, #30]	@ movhi
 1101              		.loc 1 292 0
 1102 0098 ADF820E0 		strh	lr, [sp, #32]	@ movhi
 1103 009c ADF822C0 		strh	ip, [sp, #34]	@ movhi
 1104              		.loc 1 293 0
 1105 00a0 ADF824E0 		strh	lr, [sp, #36]	@ movhi
 1106              		.loc 1 290 0
 1107 00a4 ADF81850 		strh	r5, [sp, #24]	@ movhi
 1108              		.loc 1 291 0
 1109 00a8 ADF81C50 		strh	r5, [sp, #28]	@ movhi
 1110              		.loc 1 294 0
 1111 00ac ADF82850 		strh	r5, [sp, #40]	@ movhi
 1112              		.loc 1 293 0
 1113 00b0 ADF82670 		strh	r7, [sp, #38]	@ movhi
 1114              		.loc 1 294 0
 1115 00b4 ADF82A70 		strh	r7, [sp, #42]	@ movhi
 1116              		.loc 1 295 0
 1117 00b8 ADF82C50 		strh	r5, [sp, #44]	@ movhi
 1118 00bc ADF82E80 		strh	r8, [sp, #46]	@ movhi
 1119              		.loc 1 297 0
 1120 00c0 FFF7FEFF 		bl	gdispFillArea
 1121              	.LVL68:
 1122              		.loc 1 298 0
 1123 00c4 B588     		ldrh	r5, [r6, #4]
 1124 00c6 B4F90800 		ldrsh	r0, [r4, #8]
 1125 00ca B4F90A10 		ldrsh	r1, [r4, #10]
 1126 00ce 0095     		str	r5, [sp, #0]
 1127 00d0 05AA     		add	r2, sp, #20
 1128 00d2 0723     		movs	r3, #7
 1129 00d4 FFF7FEFF 		bl	gdispFillConvexPoly
 1130              	.LVL69:
 1131              		.loc 1 299 0
 1132 00d8 7788     		ldrh	r7, [r6, #2]
 1133 00da B4F90800 		ldrsh	r0, [r4, #8]
 1134 00de B4F90A10 		ldrsh	r1, [r4, #10]
 1135 00e2 0097     		str	r7, [sp, #0]
 1136 00e4 05AA     		add	r2, sp, #20
ARM GAS  /tmp/ccWhIN6f.s 			page 21


 1137 00e6 0723     		movs	r3, #7
 1138 00e8 FFF7FEFF 		bl	gdispDrawPoly
 1139              	.LVL70:
 1140              		.loc 1 300 0
 1141 00ec E769     		ldr	r7, [r4, #28]
 1142 00ee A569     		ldr	r5, [r4, #24]
 1143 00f0 2089     		ldrh	r0, [r4, #8]
 1144 00f2 6189     		ldrh	r1, [r4, #10]
 1145 00f4 A289     		ldrh	r2, [r4, #12]
 1146 00f6 E389     		ldrh	r3, [r4, #14]
 1147 00f8 0097     		str	r7, [sp, #0]
 1148 00fa 0195     		str	r5, [sp, #4]
 1149 00fc 3488     		ldrh	r4, [r6, #0]
 1150              	.LVL71:
 1151 00fe 0130     		adds	r0, r0, #1
 1152 0100 0131     		adds	r1, r1, #1
 1153 0102 023A     		subs	r2, r2, #2
 1154 0104 023B     		subs	r3, r3, #2
 1155 0106 0294     		str	r4, [sp, #8]
 1156 0108 0124     		movs	r4, #1
 1157 010a 0394     		str	r4, [sp, #12]
 1158 010c 00B2     		sxth	r0, r0
 1159 010e 09B2     		sxth	r1, r1
 1160 0110 12B2     		sxth	r2, r2
 1161 0112 1BB2     		sxth	r3, r3
 1162 0114 FFF7FEFF 		bl	gdispDrawStringBox
 1163              	.LVL72:
 1164 0118 7AE7     		b	.L73
 1165              	.LVL73:
 1166              	.L75:
 1167              	.LBB49:
 1168              	.LBB48:
 1169              		.loc 1 163 0
 1170 011a 00F48056 		and	r6, r0, #4096
 1171 011e B7B2     		uxth	r7, r6
 1172 0120 D4F828E0 		ldr	lr, [r4, #40]
 1173 0124 17B1     		cbz	r7, .L77
 1174 0126 0EF11206 		add	r6, lr, #18
 1175 012a 7EE7     		b	.L76
 1176              	.L77:
 1177              		.loc 1 164 0
 1178 012c 0EF10206 		add	r6, lr, #2
 1179 0130 7BE7     		b	.L76
 1180              	.L83:
 1181 0132 00BF     		.align	2
 1182              	.L82:
 1183 0134 00000000 		.word	.LANCHOR0
 1184              	.LBE48:
 1185              	.LBE49:
 1186              		.cfi_endproc
 1187              	.LFE128:
 1188              		.size	gwinButtonDraw_ArrowRight, .-gwinButtonDraw_ArrowRight
 1189 0138 AFF30080 		.section	.text.gwinButtonDraw_Image,"ax",%progbits
 1189      AFF30080 
 1190              		.align	2
 1191              		.p2align 4,,15
 1192              		.global	gwinButtonDraw_Image
ARM GAS  /tmp/ccWhIN6f.s 			page 22


 1193              		.thumb
 1194              		.thumb_func
 1195              		.type	gwinButtonDraw_Image, %function
 1196              	gwinButtonDraw_Image:
 1197              	.LFB129:
 1198              		.loc 1 305 0
 1199              		.cfi_startproc
 1200              		@ args = 0, pretend = 0, frame = 0
 1201              		@ frame_needed = 0, uses_anonymous_args = 0
 1202              	.LVL74:
 1203 0000 F0B5     		push	{r4, r5, r6, r7, lr}
 1204              	.LCFI12:
 1205              		.cfi_def_cfa_offset 20
 1206              		.cfi_offset 4, -20
 1207              		.cfi_offset 5, -16
 1208              		.cfi_offset 6, -12
 1209              		.cfi_offset 7, -8
 1210              		.cfi_offset 14, -4
 1211              		.loc 1 309 0
 1212 0002 4368     		ldr	r3, [r0, #4]
 1213 0004 234A     		ldr	r2, .L91
 1214 0006 9342     		cmp	r3, r2
 1215              		.loc 1 305 0
 1216 0008 0446     		mov	r4, r0
 1217 000a 85B0     		sub	sp, sp, #20
 1218              	.LCFI13:
 1219              		.cfi_def_cfa_offset 40
 1220              		.loc 1 305 0
 1221 000c 0846     		mov	r0, r1
 1222              	.LVL75:
 1223              		.loc 1 309 0
 1224 000e 01D0     		beq	.L89
 1225              	.LVL76:
 1226              	.L84:
 1227              		.loc 1 322 0
 1228 0010 05B0     		add	sp, sp, #20
 1229 0012 F0BD     		pop	{r4, r5, r6, r7, pc}
 1230              	.LVL77:
 1231              	.L89:
 1232              	.LBB50:
 1233              	.LBB51:
 1234              		.loc 1 162 0
 1235 0014 A58A     		ldrh	r5, [r4, #20]
 1236 0016 05F01001 		and	r1, r5, #16
 1237 001a 8EB2     		uxth	r6, r1
 1238 001c 002E     		cmp	r6, #0
 1239 001e 2DD0     		beq	.L90
 1240              		.loc 1 163 0
 1241 0020 05F48057 		and	r7, r5, #4096
 1242 0024 BDB2     		uxth	r5, r7
 1243 0026 A76A     		ldr	r7, [r4, #40]
 1244 0028 002D     		cmp	r5, #0
 1245 002a 2FD0     		beq	.L88
 1246              	.LBE51:
 1247              	.LBE50:
 1248              		.loc 1 315 0
 1249 002c E589     		ldrh	r5, [r4, #14]
ARM GAS  /tmp/ccWhIN6f.s 			page 23


 1250              	.LBB56:
 1251              	.LBB52:
 1252              		.loc 1 163 0
 1253 002e 1237     		adds	r7, r7, #18
 1254              	.LVL78:
 1255              	.LBE52:
 1256              	.LBE56:
 1257              		.loc 1 315 0
 1258 0030 2E46     		mov	r6, r5
 1259              	.LVL79:
 1260              	.L87:
 1261              		.loc 1 320 0
 1262 0032 36B2     		sxth	r6, r6
 1263 0034 B4F90810 		ldrsh	r1, [r4, #8]
 1264 0038 B4F90A20 		ldrsh	r2, [r4, #10]
 1265 003c B4F90C30 		ldrsh	r3, [r4, #12]
 1266 0040 0096     		str	r6, [sp, #0]
 1267 0042 2DB2     		sxth	r5, r5
 1268              	.LVL80:
 1269 0044 0026     		movs	r6, #0
 1270 0046 0196     		str	r6, [sp, #4]
 1271 0048 0295     		str	r5, [sp, #8]
 1272 004a FFF7FEFF 		bl	gdispImageDraw
 1273              	.LVL81:
 1274              		.loc 1 321 0
 1275 004e E669     		ldr	r6, [r4, #28]
 1276 0050 A569     		ldr	r5, [r4, #24]
 1277 0052 2089     		ldrh	r0, [r4, #8]
 1278 0054 6189     		ldrh	r1, [r4, #10]
 1279 0056 A289     		ldrh	r2, [r4, #12]
 1280 0058 E389     		ldrh	r3, [r4, #14]
 1281 005a 0096     		str	r6, [sp, #0]
 1282 005c 0195     		str	r5, [sp, #4]
 1283 005e 3C88     		ldrh	r4, [r7, #0]
 1284              	.LVL82:
 1285 0060 0130     		adds	r0, r0, #1
 1286 0062 0131     		adds	r1, r1, #1
 1287 0064 023A     		subs	r2, r2, #2
 1288 0066 023B     		subs	r3, r3, #2
 1289 0068 0294     		str	r4, [sp, #8]
 1290 006a 0124     		movs	r4, #1
 1291 006c 0394     		str	r4, [sp, #12]
 1292 006e 00B2     		sxth	r0, r0
 1293 0070 09B2     		sxth	r1, r1
 1294 0072 12B2     		sxth	r2, r2
 1295 0074 1BB2     		sxth	r3, r3
 1296 0076 FFF7FEFF 		bl	gdispDrawStringBox
 1297              	.LVL83:
 1298 007a C9E7     		b	.L84
 1299              	.LVL84:
 1300              	.L90:
 1301              		.loc 1 313 0
 1302 007c E689     		ldrh	r6, [r4, #14]
 1303              	.LBB57:
 1304              	.LBB53:
 1305              		.loc 1 162 0
 1306 007e A76A     		ldr	r7, [r4, #40]
ARM GAS  /tmp/ccWhIN6f.s 			page 24


 1307              	.LBE53:
 1308              	.LBE57:
 1309              		.loc 1 313 0
 1310 0080 7300     		lsls	r3, r6, #1
 1311 0082 4FF6FE75 		movw	r5, #65534
 1312              	.LBB58:
 1313              	.LBB54:
 1314              		.loc 1 162 0
 1315 0086 0A37     		adds	r7, r7, #10
 1316              	.LBE54:
 1317              	.LBE58:
 1318              		.loc 1 313 0
 1319 0088 1D40     		ands	r5, r5, r3
 1320              	.LVL85:
 1321 008a D2E7     		b	.L87
 1322              	.LVL86:
 1323              	.L88:
 1324 008c E689     		ldrh	r6, [r4, #14]
 1325              	.LBB59:
 1326              	.LBB55:
 1327              		.loc 1 164 0
 1328 008e 0237     		adds	r7, r7, #2
 1329 0090 CFE7     		b	.L87
 1330              	.L92:
 1331 0092 00BF     		.align	2
 1332              	.L91:
 1333 0094 00000000 		.word	.LANCHOR0
 1334              	.LBE55:
 1335              	.LBE59:
 1336              		.cfi_endproc
 1337              	.LFE129:
 1338              		.size	gwinButtonDraw_Image, .-gwinButtonDraw_Image
 1339 0098 AFF30080 		.section	.rodata.buttonVMT,"a",%progbits
 1339      AFF30080 
 1340              		.align	2
 1341              		.set	.LANCHOR0,. + 0
 1342              		.type	buttonVMT, %object
 1343              		.size	buttonVMT, 36
 1344              	buttonVMT:
 1345 0000 00000000 		.word	.LC0
 1346 0004 2C000000 		.word	44
 1347 0008 00000000 		.word	_gwidgetDestroy
 1348 000c 00000000 		.word	_gwidgetRedraw
 1349 0010 00000000 		.word	0
 1350 0014 00000000 		.word	gwinButtonDraw_3D
 1351 0018 00000000 		.word	MouseDown
 1352 001c 00000000 		.word	MouseUp
 1353 0020 00000000 		.word	0
 1354              		.section	.rodata.str1.4,"aMS",%progbits,1
 1355              		.align	2
 1356              	.LC0:
 1357 0000 42757474 		.ascii	"Button\000"
 1357      6F6E00
 1358 0007 00       		.text
 1359              	.Letext0:
 1360              		.file 2 "/usr/bin/../lib/gcc/arm-none-eabi/4.7.4/include/stddef.h"
 1361              		.file 3 "/usr/bin/../lib/gcc/arm-none-eabi/4.7.4/../../../../arm-none-eabi/include/stdint.h"
ARM GAS  /tmp/ccWhIN6f.s 			page 25


 1362              		.file 4 "../../os/ports/GCC/ARMCMx/chtypes.h"
 1363              		.file 5 "../../os/kernel/include/chlists.h"
 1364              		.file 6 "../../os/kernel/include/chthreads.h"
 1365              		.file 7 "../../os/ports/GCC/ARMCMx/chcore_v7m.h"
 1366              		.file 8 "../../os/kernel/include/chsem.h"
 1367              		.file 9 "../../os/kernel/include/chmtx.h"
 1368              		.file 10 "../../ext/ugfx/include/gos/chibios.h"
 1369              		.file 11 "../../ext/ugfx/include/gqueue/gqueue.h"
 1370              		.file 12 "../../ext/ugfx/include/gevent/gevent.h"
 1371              		.file 13 "../../ext/ugfx/include/gdisp/gdisp.h"
 1372              		.file 14 "../../ext/ugfx/include/gdisp/image.h"
 1373              		.file 15 "../../ext/ugfx/include/gwin/gwin.h"
 1374              		.file 16 "../../ext/ugfx/include/gwin/class_gwin.h"
 1375              		.file 17 "../../ext/ugfx/include/gwin/gwidget.h"
 1376              		.file 18 "../../ext/ugfx/include/gwin/button.h"
 1377              		.file 19 "../../os/ports/common/ARMCMx/CMSIS/include/core_cm4.h"