ARM GAS  /tmp/ccgrWbgM.s 			page 1


   1              		.syntax unified
   2              		.cpu cortex-m4
   3              		.eabi_attribute 27, 3
   4              		.eabi_attribute 28, 1
   5              		.fpu fpv4-sp-d16
   6              		.eabi_attribute 20, 1
   7              		.eabi_attribute 21, 1
   8              		.eabi_attribute 23, 3
   9              		.eabi_attribute 24, 1
  10              		.eabi_attribute 25, 1
  11              		.eabi_attribute 26, 1
  12              		.eabi_attribute 30, 2
  13              		.eabi_attribute 34, 1
  14              		.eabi_attribute 18, 4
  15              		.thumb
  16              		.file	"checkbox.c"
  17              		.text
  18              	.Ltext0:
  19              		.cfi_sections	.debug_frame
  20              		.section	.text.SendCheckboxEvent,"ax",%progbits
  21              		.align	2
  22              		.p2align 4,,15
  23              		.thumb
  24              		.thumb_func
  25              		.type	SendCheckboxEvent, %function
  26              	SendCheckboxEvent:
  27              	.LFB118:
  28              		.file 1 "../../ext/ugfx/src/gwin/checkbox.c"
  29              		.loc 1 28 0
  30              		.cfi_startproc
  31              		@ args = 0, pretend = 0, frame = 0
  32              		@ frame_needed = 0, uses_anonymous_args = 0
  33              	.LVL0:
  34 0000 70B5     		push	{r4, r5, r6, lr}
  35              	.LCFI0:
  36              		.cfi_def_cfa_offset 16
  37              		.cfi_offset 4, -16
  38              		.cfi_offset 5, -12
  39              		.cfi_offset 6, -8
  40              		.cfi_offset 14, -4
  41              		.loc 1 28 0
  42 0002 0546     		mov	r5, r0
  43              		.loc 1 34 0
  44 0004 0024     		movs	r4, #0
  45              		.loc 1 38 0
  46 0006 40F20226 		movw	r6, #514
  47              	.LVL1:
  48              	.L10:
  49              		.loc 1 35 0 discriminator 1
  50 000a 2146     		mov	r1, r4
  51 000c 0A48     		ldr	r0, .L13
  52 000e FFF7FEFF 		bl	geventGetSourceListener
  53              	.LVL2:
  54 0012 0446     		mov	r4, r0
  55 0014 70B1     		cbz	r0, .L12
  56              		.loc 1 36 0
  57 0016 FFF7FEFF 		bl	geventGetEventBuffer
ARM GAS  /tmp/ccgrWbgM.s 			page 2


  58              	.LVL3:
  59 001a 0346     		mov	r3, r0
  60              		.loc 1 41 0
  61 001c 2046     		mov	r0, r4
  62              	.LVL4:
  63              		.loc 1 36 0
  64 001e 002B     		cmp	r3, #0
  65 0020 F3D0     		beq	.L10
  66              		.loc 1 40 0
  67 0022 AA8A     		ldrh	r2, [r5, #20]
  68              		.loc 1 38 0
  69 0024 1E80     		strh	r6, [r3, #0]	@ movhi
  70              		.loc 1 40 0
  71 0026 C2F30031 		ubfx	r1, r2, #12, #1
  72              		.loc 1 39 0
  73 002a 5D60     		str	r5, [r3, #4]
  74              		.loc 1 40 0
  75 002c 1972     		strb	r1, [r3, #8]
  76              		.loc 1 41 0
  77 002e FFF7FEFF 		bl	geventSendEvent
  78              	.LVL5:
  79 0032 EAE7     		b	.L10
  80              	.LVL6:
  81              	.L12:
  82              		.loc 1 45 0
  83 0034 70BD     		pop	{r4, r5, r6, pc}
  84              	.L14:
  85 0036 00BF     		.align	2
  86              	.L13:
  87 0038 00000000 		.word	_gwidgetCreate
  88              		.cfi_endproc
  89              	.LFE118:
  90              		.size	SendCheckboxEvent, .-SendCheckboxEvent
  91 003c AFF30080 		.section	.text.MouseDown,"ax",%progbits
  92              		.align	2
  93              		.p2align 4,,15
  94              		.thumb
  95              		.thumb_func
  96              		.type	MouseDown, %function
  97              	MouseDown:
  98              	.LFB119:
  99              		.loc 1 48 0
 100              		.cfi_startproc
 101              		@ args = 0, pretend = 0, frame = 0
 102              		@ frame_needed = 0, uses_anonymous_args = 0
 103              	.LVL7:
 104              		.loc 1 50 0
 105 0000 838A     		ldrh	r3, [r0, #20]
 106              		.loc 1 48 0
 107 0002 10B5     		push	{r4, lr}
 108              	.LCFI1:
 109              		.cfi_def_cfa_offset 8
 110              		.cfi_offset 4, -8
 111              		.cfi_offset 14, -4
 112              		.loc 1 50 0
 113 0004 83F48051 		eor	r1, r3, #4096
 114              	.LVL8:
ARM GAS  /tmp/ccgrWbgM.s 			page 3


 115 0008 8182     		strh	r1, [r0, #20]	@ movhi
 116              		.loc 1 48 0
 117 000a 0446     		mov	r4, r0
 118              		.loc 1 51 0
 119 000c FFF7FEFF 		bl	_gwidgetRedraw
 120              	.LVL9:
 121              		.loc 1 52 0
 122 0010 2046     		mov	r0, r4
 123              		.loc 1 53 0
 124 0012 BDE81040 		pop	{r4, lr}
 125              		.loc 1 52 0
 126 0016 FFF7FEBF 		b	SendCheckboxEvent
 127              	.LVL10:
 128              		.cfi_endproc
 129              	.LFE119:
 130              		.size	MouseDown, .-MouseDown
 131 001a 00BFAFF3 		.section	.text.gwinCheckboxDraw_CheckOnLeft,"ax",%progbits
 131      0080
 132              		.align	2
 133              		.p2align 4,,15
 134              		.global	gwinCheckboxDraw_CheckOnLeft
 135              		.thumb
 136              		.thumb_func
 137              		.type	gwinCheckboxDraw_CheckOnLeft, %function
 138              	gwinCheckboxDraw_CheckOnLeft:
 139              	.LFB124:
 140              		.loc 1 154 0
 141              		.cfi_startproc
 142              		@ args = 0, pretend = 0, frame = 0
 143              		@ frame_needed = 0, uses_anonymous_args = 0
 144              	.LVL11:
 145 0000 F0B5     		push	{r4, r5, r6, r7, lr}
 146              	.LCFI2:
 147              		.cfi_def_cfa_offset 20
 148              		.cfi_offset 4, -20
 149              		.cfi_offset 5, -16
 150              		.cfi_offset 6, -12
 151              		.cfi_offset 7, -8
 152              		.cfi_offset 14, -4
 153              		.loc 1 160 0
 154 0002 4368     		ldr	r3, [r0, #4]
 155 0004 394A     		ldr	r2, .L30
 156 0006 9342     		cmp	r3, r2
 157              		.loc 1 154 0
 158 0008 87B0     		sub	sp, sp, #28
 159              	.LCFI3:
 160              		.cfi_def_cfa_offset 48
 161              		.loc 1 154 0
 162 000a 0446     		mov	r4, r0
 163              		.loc 1 160 0
 164 000c 01D0     		beq	.L27
 165              	.LVL12:
 166              	.L16:
 167              		.loc 1 173 0
 168 000e 07B0     		add	sp, sp, #28
 169 0010 F0BD     		pop	{r4, r5, r6, r7, pc}
 170              	.LVL13:
ARM GAS  /tmp/ccgrWbgM.s 			page 4


 171              	.L27:
 172              	.LBB12:
 173              	.LBB13:
 174              	.LBB14:
 175              	.LBB15:
 176              		.loc 1 149 0
 177 0012 808A     		ldrh	r0, [r0, #20]
 178              	.LVL14:
 179 0014 00F01001 		and	r1, r0, #16
 180              	.LVL15:
 181 0018 8DB2     		uxth	r5, r1
 182 001a 002D     		cmp	r5, #0
 183 001c 4DD0     		beq	.L28
 184              		.loc 1 150 0
 185 001e 00F48056 		and	r6, r0, #4096
 186 0022 B7B2     		uxth	r7, r6
 187 0024 002F     		cmp	r7, #0
 188 0026 5ED0     		beq	.L20
 189 0028 A36A     		ldr	r3, [r4, #40]
 190 002a 03F11207 		add	r7, r3, #18
 191              	.L19:
 192              	.LBE15:
 193              	.LBE14:
 194              		.loc 1 163 0
 195 002e B4F90E20 		ldrsh	r2, [r4, #14]
 196 0032 B4F90C50 		ldrsh	r5, [r4, #12]
 197              		.loc 1 164 0
 198 0036 2089     		ldrh	r0, [r4, #8]
 199 0038 B3F800E0 		ldrh	lr, [r3, #0]
 200 003c 6189     		ldrh	r1, [r4, #10]
 201 003e CDF800E0 		str	lr, [sp, #0]
 202              		.loc 1 163 0
 203 0042 9542     		cmp	r5, r2
 204 0044 A8BF     		it	ge
 205 0046 1546     		movge	r5, r2
 206 0048 ABB2     		uxth	r3, r5
 207              	.LVL16:
 208              		.loc 1 164 0
 209 004a 9EB2     		uxth	r6, r3
 210 004c 1DB2     		sxth	r5, r3
 211              	.LVL17:
 212 004e 421C     		adds	r2, r0, #1
 213 0050 0131     		adds	r1, r1, #1
 214 0052 B31E     		subs	r3, r6, #2
 215              	.LVL18:
 216 0054 10B2     		sxth	r0, r2
 217 0056 09B2     		sxth	r1, r1
 218 0058 2A46     		mov	r2, r5
 219 005a 1BB2     		sxth	r3, r3
 220 005c FFF7FEFF 		bl	gdispFillArea
 221              	.LVL19:
 222              		.loc 1 165 0
 223 0060 7A88     		ldrh	r2, [r7, #2]
 224 0062 B4F90800 		ldrsh	r0, [r4, #8]
 225 0066 B4F90A10 		ldrsh	r1, [r4, #10]
 226 006a 0092     		str	r2, [sp, #0]
 227 006c 2B46     		mov	r3, r5
ARM GAS  /tmp/ccgrWbgM.s 			page 5


 228 006e 2A46     		mov	r2, r5
 229 0070 FFF7FEFF 		bl	gdispDrawBox
 230              	.LVL20:
 231              	.LBE13:
 232              		.loc 1 168 0
 233 0074 A08A     		ldrh	r0, [r4, #20]
 234              	.LBB20:
 235 0076 00F48051 		and	r1, r0, #4096
 236 007a 8BB2     		uxth	r3, r1
 237              		.loc 1 167 0
 238 007c 032D     		cmp	r5, #3
 239 007e CCBF     		ite	gt
 240 0080 0225     		movgt	r5, #2
 241 0082 0125     		movle	r5, #1
 242              	.LVL21:
 243              		.loc 1 168 0
 244 0084 EBB9     		cbnz	r3, .L29
 245              	.LVL22:
 246              	.L22:
 247              		.loc 1 171 0
 248 0086 E169     		ldr	r1, [r4, #28]
 249 0088 A269     		ldr	r2, [r4, #24]
 250 008a 0091     		str	r1, [sp, #0]
 251 008c 0192     		str	r2, [sp, #4]
 252 008e 3D88     		ldrh	r5, [r7, #0]
 253 0090 A36A     		ldr	r3, [r4, #40]
 254 0092 2089     		ldrh	r0, [r4, #8]
 255 0094 A289     		ldrh	r2, [r4, #12]
 256 0096 0295     		str	r5, [sp, #8]
 257 0098 1D88     		ldrh	r5, [r3, #0]
 258 009a B4F90A10 		ldrsh	r1, [r4, #10]
 259 009e B4F90E30 		ldrsh	r3, [r4, #14]
 260 00a2 0395     		str	r5, [sp, #12]
 261 00a4 013A     		subs	r2, r2, #1
 262 00a6 0130     		adds	r0, r0, #1
 263 00a8 3018     		adds	r0, r6, r0
 264 00aa 961B     		subs	r6, r2, r6
 265              	.LVL23:
 266 00ac 0022     		movs	r2, #0
 267 00ae 0492     		str	r2, [sp, #16]
 268 00b0 00B2     		sxth	r0, r0
 269 00b2 32B2     		sxth	r2, r6
 270 00b4 FFF7FEFF 		bl	gdispFillStringBox
 271              	.LVL24:
 272 00b8 A9E7     		b	.L16
 273              	.L28:
 274              	.LBB18:
 275              	.LBB16:
 276              		.loc 1 149 0
 277 00ba A36A     		ldr	r3, [r4, #40]
 278 00bc 03F10A07 		add	r7, r3, #10
 279 00c0 B5E7     		b	.L19
 280              	.LVL25:
 281              	.L29:
 282              	.LBE16:
 283              	.LBE18:
 284              		.loc 1 169 0
ARM GAS  /tmp/ccgrWbgM.s 			page 6


 285 00c2 ADB2     		uxth	r5, r5
 286              	.LVL26:
 287 00c4 6189     		ldrh	r1, [r4, #10]
 288 00c6 2089     		ldrh	r0, [r4, #8]
 289 00c8 BB88     		ldrh	r3, [r7, #4]
 290 00ca C5EBC532 		rsb	r2, r5, r5, lsl #15
 291 00ce 06EB4202 		add	r2, r6, r2, lsl #1
 292 00d2 12B2     		sxth	r2, r2
 293 00d4 2818     		adds	r0, r5, r0
 294 00d6 6D18     		adds	r5, r5, r1
 295 00d8 0093     		str	r3, [sp, #0]
 296 00da 00B2     		sxth	r0, r0
 297 00dc 29B2     		sxth	r1, r5
 298 00de 1346     		mov	r3, r2
 299 00e0 FFF7FEFF 		bl	gdispFillArea
 300              	.LVL27:
 301 00e4 CFE7     		b	.L22
 302              	.LVL28:
 303              	.L20:
 304              	.LBB19:
 305              	.LBB17:
 306              		.loc 1 151 0
 307 00e6 A36A     		ldr	r3, [r4, #40]
 308 00e8 9F1C     		adds	r7, r3, #2
 309 00ea A0E7     		b	.L19
 310              	.L31:
 311              		.align	2
 312              	.L30:
 313 00ec 00000000 		.word	.LANCHOR0
 314              	.LBE17:
 315              	.LBE19:
 316              	.LBE20:
 317              	.LBE12:
 318              		.cfi_endproc
 319              	.LFE124:
 320              		.size	gwinCheckboxDraw_CheckOnLeft, .-gwinCheckboxDraw_CheckOnLeft
 321              		.section	.text.gwinCheckboxCreate,"ax",%progbits
 322              		.align	2
 323              		.p2align 4,,15
 324              		.global	gwinCheckboxCreate
 325              		.thumb
 326              		.thumb_func
 327              		.type	gwinCheckboxCreate, %function
 328              	gwinCheckboxCreate:
 329              	.LFB120:
 330              		.loc 1 111 0
 331              		.cfi_startproc
 332              		@ args = 0, pretend = 0, frame = 0
 333              		@ frame_needed = 0, uses_anonymous_args = 0
 334              	.LVL29:
 335 0000 38B5     		push	{r3, r4, r5, lr}
 336              	.LCFI4:
 337              		.cfi_def_cfa_offset 16
 338              		.cfi_offset 3, -16
 339              		.cfi_offset 4, -12
 340              		.cfi_offset 5, -8
 341              		.cfi_offset 14, -4
ARM GAS  /tmp/ccgrWbgM.s 			page 7


 342              		.loc 1 112 0
 343 0002 054A     		ldr	r2, .L37
 344              		.loc 1 111 0
 345 0004 0D46     		mov	r5, r1
 346              		.loc 1 112 0
 347 0006 FFF7FEFF 		bl	_gwidgetCreate
 348              	.LVL30:
 349 000a 0446     		mov	r4, r0
 350 000c 10B1     		cbz	r0, .L33
 351              		.loc 1 118 0
 352 000e 297A     		ldrb	r1, [r5, #8]	@ zero_extendqisi2
 353 0010 FFF7FEFF 		bl	gwinSetVisible
 354              	.LVL31:
 355              	.L33:
 356              		.loc 1 120 0
 357 0014 2046     		mov	r0, r4
 358 0016 38BD     		pop	{r3, r4, r5, pc}
 359              	.L38:
 360              		.align	2
 361              	.L37:
 362 0018 00000000 		.word	.LANCHOR0
 363              		.cfi_endproc
 364              	.LFE120:
 365              		.size	gwinCheckboxCreate, .-gwinCheckboxCreate
 366 001c AFF30080 		.section	.text.gwinCheckboxCheck,"ax",%progbits
 367              		.align	2
 368              		.p2align 4,,15
 369              		.global	gwinCheckboxCheck
 370              		.thumb
 371              		.thumb_func
 372              		.type	gwinCheckboxCheck, %function
 373              	gwinCheckboxCheck:
 374              	.LFB121:
 375              		.loc 1 122 0
 376              		.cfi_startproc
 377              		@ args = 0, pretend = 0, frame = 0
 378              		@ frame_needed = 0, uses_anonymous_args = 0
 379              	.LVL32:
 380              		.loc 1 123 0
 381 0000 4368     		ldr	r3, [r0, #4]
 382 0002 0F4A     		ldr	r2, .L48
 383 0004 9342     		cmp	r3, r2
 384              		.loc 1 122 0
 385 0006 10B5     		push	{r4, lr}
 386              	.LCFI5:
 387              		.cfi_def_cfa_offset 8
 388              		.cfi_offset 4, -8
 389              		.cfi_offset 14, -4
 390              		.loc 1 122 0
 391 0008 0446     		mov	r4, r0
 392              		.loc 1 123 0
 393 000a 00D0     		beq	.L46
 394              	.LVL33:
 395              	.L39:
 396 000c 10BD     		pop	{r4, pc}
 397              	.LVL34:
 398              	.L46:
ARM GAS  /tmp/ccgrWbgM.s 			page 8


 399              		.loc 1 127 0
 400 000e 808A     		ldrh	r0, [r0, #20]
 401              	.LVL35:
 402 0010 00F48053 		and	r3, r0, #4096
 403 0014 9AB2     		uxth	r2, r3
 404              		.loc 1 126 0
 405 0016 61B9     		cbnz	r1, .L47
 406              		.loc 1 130 0
 407 0018 002A     		cmp	r2, #0
 408 001a F7D0     		beq	.L39
 409              		.loc 1 131 0
 410 001c 20F48051 		bic	r1, r0, #4096
 411              	.LVL36:
 412 0020 A182     		strh	r1, [r4, #20]	@ movhi
 413              	.L42:
 414              		.loc 1 133 0
 415 0022 2046     		mov	r0, r4
 416 0024 FFF7FEFF 		bl	_gwidgetRedraw
 417              	.LVL37:
 418              		.loc 1 134 0
 419 0028 2046     		mov	r0, r4
 420              		.loc 1 135 0
 421 002a BDE81040 		pop	{r4, lr}
 422              		.loc 1 134 0
 423 002e FFF7FEBF 		b	SendCheckboxEvent
 424              	.LVL38:
 425              	.L47:
 426              		.loc 1 127 0
 427 0032 002A     		cmp	r2, #0
 428 0034 EAD1     		bne	.L39
 429              		.loc 1 128 0
 430 0036 40F48050 		orr	r0, r0, #4096
 431 003a A082     		strh	r0, [r4, #20]	@ movhi
 432 003c F1E7     		b	.L42
 433              	.L49:
 434 003e 00BF     		.align	2
 435              	.L48:
 436 0040 00000000 		.word	.LANCHOR0
 437              		.cfi_endproc
 438              	.LFE121:
 439              		.size	gwinCheckboxCheck, .-gwinCheckboxCheck
 440 0044 AFF30080 		.section	.text.gwinCheckboxIsChecked,"ax",%progbits
 440      AFF30080 
 440      AFF30080 
 441              		.align	2
 442              		.p2align 4,,15
 443              		.global	gwinCheckboxIsChecked
 444              		.thumb
 445              		.thumb_func
 446              		.type	gwinCheckboxIsChecked, %function
 447              	gwinCheckboxIsChecked:
 448              	.LFB122:
 449              		.loc 1 137 0
 450              		.cfi_startproc
 451              		@ args = 0, pretend = 0, frame = 0
 452              		@ frame_needed = 0, uses_anonymous_args = 0
 453              		@ link register save eliminated.
ARM GAS  /tmp/ccgrWbgM.s 			page 9


 454              	.LVL39:
 455              		.loc 1 138 0
 456 0000 4368     		ldr	r3, [r0, #4]
 457 0002 044A     		ldr	r2, .L54
 458 0004 9342     		cmp	r3, r2
 459 0006 01D0     		beq	.L53
 460              		.loc 1 139 0
 461 0008 0020     		movs	r0, #0
 462              	.LVL40:
 463              		.loc 1 142 0
 464 000a 7047     		bx	lr
 465              	.LVL41:
 466              	.L53:
 467              		.loc 1 141 0
 468 000c 808A     		ldrh	r0, [r0, #20]
 469              	.LVL42:
 470 000e C0F30030 		ubfx	r0, r0, #12, #1
 471 0012 7047     		bx	lr
 472              	.L55:
 473              		.align	2
 474              	.L54:
 475 0014 00000000 		.word	.LANCHOR0
 476              		.cfi_endproc
 477              	.LFE122:
 478              		.size	gwinCheckboxIsChecked, .-gwinCheckboxIsChecked
 479 0018 AFF30080 		.section	.text.gwinCheckboxDraw_CheckOnRight,"ax",%progbits
 479      AFF30080 
 480              		.align	2
 481              		.p2align 4,,15
 482              		.global	gwinCheckboxDraw_CheckOnRight
 483              		.thumb
 484              		.thumb_func
 485              		.type	gwinCheckboxDraw_CheckOnRight, %function
 486              	gwinCheckboxDraw_CheckOnRight:
 487              	.LFB125:
 488              		.loc 1 175 0
 489              		.cfi_startproc
 490              		@ args = 0, pretend = 0, frame = 0
 491              		@ frame_needed = 0, uses_anonymous_args = 0
 492              	.LVL43:
 493 0000 2DE9F043 		push	{r4, r5, r6, r7, r8, r9, lr}
 494              	.LCFI6:
 495              		.cfi_def_cfa_offset 28
 496              		.cfi_offset 4, -28
 497              		.cfi_offset 5, -24
 498              		.cfi_offset 6, -20
 499              		.cfi_offset 7, -16
 500              		.cfi_offset 8, -12
 501              		.cfi_offset 9, -8
 502              		.cfi_offset 14, -4
 503              		.loc 1 181 0
 504 0004 4368     		ldr	r3, [r0, #4]
 505 0006 404A     		ldr	r2, .L70
 506 0008 9342     		cmp	r3, r2
 507              		.loc 1 175 0
 508 000a 87B0     		sub	sp, sp, #28
 509              	.LCFI7:
ARM GAS  /tmp/ccgrWbgM.s 			page 10


 510              		.cfi_def_cfa_offset 56
 511              		.loc 1 175 0
 512 000c 0446     		mov	r4, r0
 513              		.loc 1 181 0
 514 000e 02D0     		beq	.L67
 515              	.LVL44:
 516              	.L56:
 517              		.loc 1 195 0
 518 0010 07B0     		add	sp, sp, #28
 519 0012 BDE8F083 		pop	{r4, r5, r6, r7, r8, r9, pc}
 520              	.LVL45:
 521              	.L67:
 522              	.LBB21:
 523              	.LBB22:
 524              		.loc 1 149 0
 525 0016 808A     		ldrh	r0, [r0, #20]
 526              	.LVL46:
 527 0018 00F01001 		and	r1, r0, #16
 528              	.LVL47:
 529 001c 8DB2     		uxth	r5, r1
 530 001e 002D     		cmp	r5, #0
 531 0020 57D0     		beq	.L68
 532              		.loc 1 150 0
 533 0022 00F48056 		and	r6, r0, #4096
 534 0026 B7B2     		uxth	r7, r6
 535 0028 002F     		cmp	r7, #0
 536 002a 69D0     		beq	.L60
 537 002c A36A     		ldr	r3, [r4, #40]
 538 002e 03F11206 		add	r6, r3, #18
 539              	.L59:
 540              	.LBE22:
 541              	.LBE21:
 542              		.loc 1 184 0
 543 0032 B4F80C90 		ldrh	r9, [r4, #12]
 544 0036 B4F90E20 		ldrsh	r2, [r4, #14]
 545              		.loc 1 186 0
 546 003a B3F800E0 		ldrh	lr, [r3, #0]
 547 003e 2089     		ldrh	r0, [r4, #8]
 548 0040 6189     		ldrh	r1, [r4, #10]
 549 0042 CDF800E0 		str	lr, [sp, #0]
 550              		.loc 1 184 0
 551 0046 0FFA89F5 		sxth	r5, r9
 552 004a 9542     		cmp	r5, r2
 553 004c A8BF     		it	ge
 554 004e 1546     		movge	r5, r2
 555 0050 ABB2     		uxth	r3, r5
 556              	.LVL48:
 557              		.loc 1 185 0
 558 0052 1FFA83F8 		uxth	r8, r3
 559 0056 C8EB0907 		rsb	r7, r8, r9
 560 005a 1FFA87F9 		uxth	r9, r7
 561 005e 09F1FF32 		add	r2, r9, #-1
 562 0062 97B2     		uxth	r7, r2
 563              	.LVL49:
 564              		.loc 1 186 0
 565 0064 0138     		subs	r0, r0, #1
 566 0066 1DB2     		sxth	r5, r3
ARM GAS  /tmp/ccgrWbgM.s 			page 11


 567              	.LVL50:
 568 0068 3A18     		adds	r2, r7, r0
 569              	.LVL51:
 570 006a 0131     		adds	r1, r1, #1
 571 006c A8F10203 		sub	r3, r8, #2
 572              	.LVL52:
 573 0070 10B2     		sxth	r0, r2
 574 0072 09B2     		sxth	r1, r1
 575 0074 2A46     		mov	r2, r5
 576 0076 1BB2     		sxth	r3, r3
 577 0078 FFF7FEFF 		bl	gdispFillArea
 578              	.LVL53:
 579              		.loc 1 187 0
 580 007c 2089     		ldrh	r0, [r4, #8]
 581 007e 7288     		ldrh	r2, [r6, #2]
 582 0080 B4F90A10 		ldrsh	r1, [r4, #10]
 583 0084 0092     		str	r2, [sp, #0]
 584 0086 3B18     		adds	r3, r7, r0
 585 0088 18B2     		sxth	r0, r3
 586 008a 2A46     		mov	r2, r5
 587 008c 2B46     		mov	r3, r5
 588 008e FFF7FEFF 		bl	gdispDrawBox
 589              	.LVL54:
 590              		.loc 1 190 0
 591 0092 A18A     		ldrh	r1, [r4, #20]
 592 0094 01F48050 		and	r0, r1, #4096
 593 0098 82B2     		uxth	r2, r0
 594              		.loc 1 189 0
 595 009a 032D     		cmp	r5, #3
 596 009c CCBF     		ite	gt
 597 009e 0225     		movgt	r5, #2
 598 00a0 0125     		movle	r5, #1
 599              	.LVL55:
 600              		.loc 1 190 0
 601 00a2 D2B9     		cbnz	r2, .L69
 602              	.LVL56:
 603              	.L62:
 604              		.loc 1 193 0
 605 00a4 E369     		ldr	r3, [r4, #28]
 606 00a6 A269     		ldr	r2, [r4, #24]
 607 00a8 0093     		str	r3, [sp, #0]
 608 00aa 0192     		str	r2, [sp, #4]
 609 00ac 3088     		ldrh	r0, [r6, #0]
 610 00ae A16A     		ldr	r1, [r4, #40]
 611 00b0 0290     		str	r0, [sp, #8]
 612 00b2 0A88     		ldrh	r2, [r1, #0]
 613 00b4 B4F90800 		ldrsh	r0, [r4, #8]
 614 00b8 B4F90A10 		ldrsh	r1, [r4, #10]
 615 00bc B4F90E30 		ldrsh	r3, [r4, #14]
 616 00c0 0392     		str	r2, [sp, #12]
 617 00c2 0224     		movs	r4, #2
 618              	.LVL57:
 619 00c4 A9F10202 		sub	r2, r9, #2
 620 00c8 0494     		str	r4, [sp, #16]
 621 00ca 12B2     		sxth	r2, r2
 622 00cc FFF7FEFF 		bl	gdispFillStringBox
 623              	.LVL58:
ARM GAS  /tmp/ccgrWbgM.s 			page 12


 624 00d0 9EE7     		b	.L56
 625              	.LVL59:
 626              	.L68:
 627              	.LBB25:
 628              	.LBB23:
 629              		.loc 1 149 0
 630 00d2 A36A     		ldr	r3, [r4, #40]
 631 00d4 03F10A06 		add	r6, r3, #10
 632 00d8 ABE7     		b	.L59
 633              	.LVL60:
 634              	.L69:
 635              	.LBE23:
 636              	.LBE25:
 637              		.loc 1 191 0
 638 00da ADB2     		uxth	r5, r5
 639              	.LVL61:
 640 00dc 2089     		ldrh	r0, [r4, #8]
 641 00de 6189     		ldrh	r1, [r4, #10]
 642 00e0 B388     		ldrh	r3, [r6, #4]
 643 00e2 C5EBC532 		rsb	r2, r5, r5, lsl #15
 644 00e6 08EB4202 		add	r2, r8, r2, lsl #1
 645 00ea 3818     		adds	r0, r7, r0
 646 00ec 12B2     		sxth	r2, r2
 647 00ee 2818     		adds	r0, r5, r0
 648 00f0 6918     		adds	r1, r5, r1
 649 00f2 0093     		str	r3, [sp, #0]
 650 00f4 00B2     		sxth	r0, r0
 651 00f6 09B2     		sxth	r1, r1
 652 00f8 1346     		mov	r3, r2
 653 00fa FFF7FEFF 		bl	gdispFillArea
 654              	.LVL62:
 655 00fe D1E7     		b	.L62
 656              	.LVL63:
 657              	.L60:
 658              	.LBB26:
 659              	.LBB24:
 660              		.loc 1 151 0
 661 0100 A36A     		ldr	r3, [r4, #40]
 662 0102 9E1C     		adds	r6, r3, #2
 663 0104 95E7     		b	.L59
 664              	.L71:
 665 0106 00BF     		.align	2
 666              	.L70:
 667 0108 00000000 		.word	.LANCHOR0
 668              	.LBE24:
 669              	.LBE26:
 670              		.cfi_endproc
 671              	.LFE125:
 672              		.size	gwinCheckboxDraw_CheckOnRight, .-gwinCheckboxDraw_CheckOnRight
 673 010c AFF30080 		.section	.rodata.str1.4,"aMS",%progbits,1
 674              		.align	2
 675              	.LC0:
 676 0000 43686563 		.ascii	"Checkbox\000"
 676      6B626F78 
 676      00
 677 0009 000000   		.section	.rodata.checkboxVMT,"a",%progbits
 678              		.align	2
ARM GAS  /tmp/ccgrWbgM.s 			page 13


 679              		.set	.LANCHOR0,. + 0
 680              		.type	checkboxVMT, %object
 681              		.size	checkboxVMT, 36
 682              	checkboxVMT:
 683 0000 00000000 		.word	.LC0
 684 0004 2C000000 		.word	44
 685 0008 00000000 		.word	_gwidgetDestroy
 686 000c 00000000 		.word	_gwidgetRedraw
 687 0010 00000000 		.word	0
 688 0014 00000000 		.word	gwinCheckboxDraw_CheckOnLeft
 689 0018 00000000 		.word	MouseDown
 690 001c 00000000 		.word	0
 691 0020 00000000 		.word	0
 692              		.text
 693              	.Letext0:
 694              		.file 2 "/usr/bin/../lib/gcc/arm-none-eabi/4.7.4/include/stddef.h"
 695              		.file 3 "/usr/bin/../lib/gcc/arm-none-eabi/4.7.4/../../../../arm-none-eabi/include/stdint.h"
 696              		.file 4 "../../os/ports/GCC/ARMCMx/chtypes.h"
 697              		.file 5 "../../os/kernel/include/chlists.h"
 698              		.file 6 "../../os/kernel/include/chthreads.h"
 699              		.file 7 "../../os/ports/GCC/ARMCMx/chcore_v7m.h"
 700              		.file 8 "../../os/kernel/include/chsem.h"
 701              		.file 9 "../../os/kernel/include/chmtx.h"
 702              		.file 10 "../../ext/ugfx/include/gos/chibios.h"
 703              		.file 11 "../../ext/ugfx/include/gqueue/gqueue.h"
 704              		.file 12 "../../ext/ugfx/include/gevent/gevent.h"
 705              		.file 13 "../../ext/ugfx/include/gdisp/gdisp.h"
 706              		.file 14 "../../ext/ugfx/include/gwin/gwin.h"
 707              		.file 15 "../../ext/ugfx/include/gwin/class_gwin.h"
 708              		.file 16 "../../ext/ugfx/include/gwin/gwidget.h"
 709              		.file 17 "../../ext/ugfx/include/gwin/checkbox.h"
 710              		.file 18 "../../os/ports/common/ARMCMx/CMSIS/include/core_cm4.h"
 711              		.section	.debug_info,"",%progbits
 712              	.Ldebug_info0:
 713 0000 0E110000 		.4byte	0x110e
 714 0004 0200     		.2byte	0x2
 715 0006 00000000 		.4byte	.Ldebug_abbrev0
 716 000a 04       		.byte	0x4
 717 000b 01       		.uleb128 0x1
 718 000c EB020000 		.4byte	.LASF156
 719 0010 01       		.byte	0x1
 720 0011 E9010000 		.4byte	.LASF157
 721 0015 2D050000 		.4byte	.LASF158
 722 0019 58000000 		.4byte	.Ldebug_ranges0+0x58
 723 001d 00000000 		.4byte	0
 724 0021 00000000 		.4byte	0
 725 0025 00000000 		.4byte	.Ldebug_line0
 726 0029 02       		.uleb128 0x2
 727 002a 04       		.byte	0x4
 728 002b 05       		.byte	0x5
 729 002c 696E7400 		.ascii	"int\000"
 730 0030 03       		.uleb128 0x3
 731 0031 D9010000 		.4byte	.LASF2
 732 0035 02       		.byte	0x2
 733 0036 D5       		.byte	0xd5
 734 0037 3B000000 		.4byte	0x3b
 735 003b 04       		.uleb128 0x4
ARM GAS  /tmp/ccgrWbgM.s 			page 14


 736 003c 04       		.byte	0x4
 737 003d 07       		.byte	0x7
 738 003e 12020000 		.4byte	.LASF0
 739 0042 04       		.uleb128 0x4
 740 0043 01       		.byte	0x1
 741 0044 06       		.byte	0x6
 742 0045 21010000 		.4byte	.LASF1
 743 0049 03       		.uleb128 0x3
 744 004a 6C060000 		.4byte	.LASF3
 745 004e 03       		.byte	0x3
 746 004f 2A       		.byte	0x2a
 747 0050 54000000 		.4byte	0x54
 748 0054 04       		.uleb128 0x4
 749 0055 01       		.byte	0x1
 750 0056 08       		.byte	0x8
 751 0057 82040000 		.4byte	.LASF4
 752 005b 03       		.uleb128 0x3
 753 005c 0B010000 		.4byte	.LASF5
 754 0060 03       		.byte	0x3
 755 0061 35       		.byte	0x35
 756 0062 66000000 		.4byte	0x66
 757 0066 04       		.uleb128 0x4
 758 0067 02       		.byte	0x2
 759 0068 05       		.byte	0x5
 760 0069 AD040000 		.4byte	.LASF6
 761 006d 03       		.uleb128 0x3
 762 006e 29020000 		.4byte	.LASF7
 763 0072 03       		.byte	0x3
 764 0073 36       		.byte	0x36
 765 0074 78000000 		.4byte	0x78
 766 0078 04       		.uleb128 0x4
 767 0079 02       		.byte	0x2
 768 007a 07       		.byte	0x7
 769 007b 9C010000 		.4byte	.LASF8
 770 007f 03       		.uleb128 0x3
 771 0080 7A040000 		.4byte	.LASF9
 772 0084 03       		.byte	0x3
 773 0085 4F       		.byte	0x4f
 774 0086 8A000000 		.4byte	0x8a
 775 008a 04       		.uleb128 0x4
 776 008b 04       		.byte	0x4
 777 008c 05       		.byte	0x5
 778 008d 53010000 		.4byte	.LASF10
 779 0091 03       		.uleb128 0x3
 780 0092 75050000 		.4byte	.LASF11
 781 0096 03       		.byte	0x3
 782 0097 50       		.byte	0x50
 783 0098 9C000000 		.4byte	0x9c
 784 009c 04       		.uleb128 0x4
 785 009d 04       		.byte	0x4
 786 009e 07       		.byte	0x7
 787 009f 93050000 		.4byte	.LASF12
 788 00a3 04       		.uleb128 0x4
 789 00a4 08       		.byte	0x8
 790 00a5 05       		.byte	0x5
 791 00a6 13010000 		.4byte	.LASF13
 792 00aa 04       		.uleb128 0x4
ARM GAS  /tmp/ccgrWbgM.s 			page 15


 793 00ab 08       		.byte	0x8
 794 00ac 07       		.byte	0x7
 795 00ad 93000000 		.4byte	.LASF14
 796 00b1 03       		.uleb128 0x3
 797 00b2 3A010000 		.4byte	.LASF15
 798 00b6 04       		.byte	0x4
 799 00b7 24       		.byte	0x24
 800 00b8 BC000000 		.4byte	0xbc
 801 00bc 04       		.uleb128 0x4
 802 00bd 01       		.byte	0x1
 803 00be 02       		.byte	0x2
 804 00bf 74040000 		.4byte	.LASF16
 805 00c3 03       		.uleb128 0x3
 806 00c4 C2020000 		.4byte	.LASF17
 807 00c8 04       		.byte	0x4
 808 00c9 25       		.byte	0x25
 809 00ca 49000000 		.4byte	0x49
 810 00ce 03       		.uleb128 0x3
 811 00cf 6A010000 		.4byte	.LASF18
 812 00d3 04       		.byte	0x4
 813 00d4 26       		.byte	0x26
 814 00d5 49000000 		.4byte	0x49
 815 00d9 03       		.uleb128 0x3
 816 00da 24040000 		.4byte	.LASF19
 817 00de 04       		.byte	0x4
 818 00df 27       		.byte	0x27
 819 00e0 49000000 		.4byte	0x49
 820 00e4 03       		.uleb128 0x3
 821 00e5 49010000 		.4byte	.LASF20
 822 00e9 04       		.byte	0x4
 823 00ea 28       		.byte	0x28
 824 00eb 49000000 		.4byte	0x49
 825 00ef 03       		.uleb128 0x3
 826 00f0 4C040000 		.4byte	.LASF21
 827 00f4 04       		.byte	0x4
 828 00f5 29       		.byte	0x29
 829 00f6 91000000 		.4byte	0x91
 830 00fa 03       		.uleb128 0x3
 831 00fb AE020000 		.4byte	.LASF22
 832 00ff 04       		.byte	0x4
 833 0100 2A       		.byte	0x2a
 834 0101 7F000000 		.4byte	0x7f
 835 0105 03       		.uleb128 0x3
 836 0106 DF020000 		.4byte	.LASF23
 837 010a 04       		.byte	0x4
 838 010b 2C       		.byte	0x2c
 839 010c 91000000 		.4byte	0x91
 840 0110 03       		.uleb128 0x3
 841 0111 E0050000 		.4byte	.LASF24
 842 0115 04       		.byte	0x4
 843 0116 2E       		.byte	0x2e
 844 0117 91000000 		.4byte	0x91
 845 011b 03       		.uleb128 0x3
 846 011c 0C020000 		.4byte	.LASF25
 847 0120 04       		.byte	0x4
 848 0121 2F       		.byte	0x2f
 849 0122 7F000000 		.4byte	0x7f
ARM GAS  /tmp/ccgrWbgM.s 			page 16


 850 0126 03       		.uleb128 0x3
 851 0127 1F050000 		.4byte	.LASF26
 852 012b 05       		.byte	0x5
 853 012c 23       		.byte	0x23
 854 012d 31010000 		.4byte	0x131
 855 0131 05       		.uleb128 0x5
 856 0132 1F050000 		.4byte	.LASF26
 857 0136 48       		.byte	0x48
 858 0137 06       		.byte	0x6
 859 0138 57       		.byte	0x57
 860 0139 56020000 		.4byte	0x256
 861 013d 06       		.uleb128 0x6
 862 013e E3040000 		.4byte	.LASF27
 863 0142 06       		.byte	0x6
 864 0143 58       		.byte	0x58
 865 0144 7B020000 		.4byte	0x27b
 866 0148 02       		.byte	0x2
 867 0149 23       		.byte	0x23
 868 014a 00       		.uleb128 0
 869 014b 06       		.uleb128 0x6
 870 014c 45040000 		.4byte	.LASF28
 871 0150 06       		.byte	0x6
 872 0151 5A       		.byte	0x5a
 873 0152 7B020000 		.4byte	0x27b
 874 0156 02       		.byte	0x2
 875 0157 23       		.byte	0x23
 876 0158 04       		.uleb128 0x4
 877 0159 06       		.uleb128 0x6
 878 015a F5000000 		.4byte	.LASF29
 879 015e 06       		.byte	0x6
 880 015f 5C       		.byte	0x5c
 881 0160 EF000000 		.4byte	0xef
 882 0164 02       		.byte	0x2
 883 0165 23       		.byte	0x23
 884 0166 08       		.uleb128 0x8
 885 0167 06       		.uleb128 0x6
 886 0168 0B070000 		.4byte	.LASF30
 887 016c 06       		.byte	0x6
 888 016d 5D       		.byte	0x5d
 889 016e 39040000 		.4byte	0x439
 890 0172 02       		.byte	0x2
 891 0173 23       		.byte	0x23
 892 0174 0C       		.uleb128 0xc
 893 0175 06       		.uleb128 0x6
 894 0176 81010000 		.4byte	.LASF31
 895 017a 06       		.byte	0x6
 896 017b 5F       		.byte	0x5f
 897 017c 7B020000 		.4byte	0x27b
 898 0180 02       		.byte	0x2
 899 0181 23       		.byte	0x23
 900 0182 10       		.uleb128 0x10
 901 0183 06       		.uleb128 0x6
 902 0184 D4040000 		.4byte	.LASF32
 903 0188 06       		.byte	0x6
 904 0189 60       		.byte	0x60
 905 018a 7B020000 		.4byte	0x27b
 906 018e 02       		.byte	0x2
ARM GAS  /tmp/ccgrWbgM.s 			page 17


 907 018f 23       		.byte	0x23
 908 0190 14       		.uleb128 0x14
 909 0191 06       		.uleb128 0x6
 910 0192 FC050000 		.4byte	.LASF33
 911 0196 06       		.byte	0x6
 912 0197 67       		.byte	0x67
 913 0198 19050000 		.4byte	0x519
 914 019c 02       		.byte	0x2
 915 019d 23       		.byte	0x23
 916 019e 18       		.uleb128 0x18
 917 019f 06       		.uleb128 0x6
 918 01a0 B7040000 		.4byte	.LASF34
 919 01a4 06       		.byte	0x6
 920 01a5 72       		.byte	0x72
 921 01a6 CE000000 		.4byte	0xce
 922 01aa 02       		.byte	0x2
 923 01ab 23       		.byte	0x23
 924 01ac 1C       		.uleb128 0x1c
 925 01ad 06       		.uleb128 0x6
 926 01ae F4040000 		.4byte	.LASF35
 927 01b2 06       		.byte	0x6
 928 01b3 76       		.byte	0x76
 929 01b4 C3000000 		.4byte	0xc3
 930 01b8 02       		.byte	0x2
 931 01b9 23       		.byte	0x23
 932 01ba 1D       		.uleb128 0x1d
 933 01bb 06       		.uleb128 0x6
 934 01bc 4C060000 		.4byte	.LASF36
 935 01c0 06       		.byte	0x6
 936 01c1 7B       		.byte	0x7b
 937 01c2 D9000000 		.4byte	0xd9
 938 01c6 02       		.byte	0x2
 939 01c7 23       		.byte	0x23
 940 01c8 1E       		.uleb128 0x1e
 941 01c9 06       		.uleb128 0x6
 942 01ca CA040000 		.4byte	.LASF37
 943 01ce 06       		.byte	0x6
 944 01cf 81       		.byte	0x81
 945 01d0 E4000000 		.4byte	0xe4
 946 01d4 02       		.byte	0x2
 947 01d5 23       		.byte	0x23
 948 01d6 1F       		.uleb128 0x1f
 949 01d7 06       		.uleb128 0x6
 950 01d8 32020000 		.4byte	.LASF38
 951 01dc 06       		.byte	0x6
 952 01dd 88       		.byte	0x88
 953 01de 63040000 		.4byte	0x463
 954 01e2 02       		.byte	0x2
 955 01e3 23       		.byte	0x23
 956 01e4 20       		.uleb128 0x20
 957 01e5 07       		.uleb128 0x7
 958 01e6 705F7500 		.ascii	"p_u\000"
 959 01ea 06       		.byte	0x6
 960 01eb AD       		.byte	0xad
 961 01ec E4040000 		.4byte	0x4e4
 962 01f0 02       		.byte	0x2
 963 01f1 23       		.byte	0x23
ARM GAS  /tmp/ccgrWbgM.s 			page 18


 964 01f2 24       		.uleb128 0x24
 965 01f3 06       		.uleb128 0x6
 966 01f4 11070000 		.4byte	.LASF39
 967 01f8 06       		.byte	0x6
 968 01f9 B2       		.byte	0xb2
 969 01fa A3020000 		.4byte	0x2a3
 970 01fe 02       		.byte	0x2
 971 01ff 23       		.byte	0x23
 972 0200 28       		.uleb128 0x28
 973 0201 06       		.uleb128 0x6
 974 0202 6A020000 		.4byte	.LASF40
 975 0206 06       		.byte	0x6
 976 0207 B8       		.byte	0xb8
 977 0208 81020000 		.4byte	0x281
 978 020c 02       		.byte	0x2
 979 020d 23       		.byte	0x23
 980 020e 2C       		.uleb128 0x2c
 981 020f 06       		.uleb128 0x6
 982 0210 D9060000 		.4byte	.LASF41
 983 0214 06       		.byte	0x6
 984 0215 BC       		.byte	0xbc
 985 0216 FA000000 		.4byte	0xfa
 986 021a 02       		.byte	0x2
 987 021b 23       		.byte	0x23
 988 021c 34       		.uleb128 0x34
 989 021d 06       		.uleb128 0x6
 990 021e D6030000 		.4byte	.LASF42
 991 0222 06       		.byte	0x6
 992 0223 C2       		.byte	0xc2
 993 0224 05010000 		.4byte	0x105
 994 0228 02       		.byte	0x2
 995 0229 23       		.byte	0x23
 996 022a 38       		.uleb128 0x38
 997 022b 06       		.uleb128 0x6
 998 022c A3040000 		.4byte	.LASF43
 999 0230 06       		.byte	0x6
 1000 0231 C9       		.byte	0xc9
 1001 0232 2B050000 		.4byte	0x52b
 1002 0236 02       		.byte	0x2
 1003 0237 23       		.byte	0x23
 1004 0238 3C       		.uleb128 0x3c
 1005 0239 06       		.uleb128 0x6
 1006 023a EA050000 		.4byte	.LASF44
 1007 023e 06       		.byte	0x6
 1008 023f CD       		.byte	0xcd
 1009 0240 EF000000 		.4byte	0xef
 1010 0244 02       		.byte	0x2
 1011 0245 23       		.byte	0x23
 1012 0246 40       		.uleb128 0x40
 1013 0247 06       		.uleb128 0x6
 1014 0248 32010000 		.4byte	.LASF45
 1015 024c 06       		.byte	0x6
 1016 024d D3       		.byte	0xd3
 1017 024e B9020000 		.4byte	0x2b9
 1018 0252 02       		.byte	0x2
 1019 0253 23       		.byte	0x23
 1020 0254 44       		.uleb128 0x44
ARM GAS  /tmp/ccgrWbgM.s 			page 19


 1021 0255 00       		.byte	0
 1022 0256 08       		.uleb128 0x8
 1023 0257 08       		.byte	0x8
 1024 0258 05       		.byte	0x5
 1025 0259 5A       		.byte	0x5a
 1026 025a 7B020000 		.4byte	0x27b
 1027 025e 06       		.uleb128 0x6
 1028 025f E3040000 		.4byte	.LASF27
 1029 0263 05       		.byte	0x5
 1030 0264 5B       		.byte	0x5b
 1031 0265 7B020000 		.4byte	0x27b
 1032 0269 02       		.byte	0x2
 1033 026a 23       		.byte	0x23
 1034 026b 00       		.uleb128 0
 1035 026c 06       		.uleb128 0x6
 1036 026d 45040000 		.4byte	.LASF28
 1037 0271 05       		.byte	0x5
 1038 0272 5D       		.byte	0x5d
 1039 0273 7B020000 		.4byte	0x27b
 1040 0277 02       		.byte	0x2
 1041 0278 23       		.byte	0x23
 1042 0279 04       		.uleb128 0x4
 1043 027a 00       		.byte	0
 1044 027b 09       		.uleb128 0x9
 1045 027c 04       		.byte	0x4
 1046 027d 26010000 		.4byte	0x126
 1047 0281 03       		.uleb128 0x3
 1048 0282 E7030000 		.4byte	.LASF46
 1049 0286 05       		.byte	0x5
 1050 0287 5F       		.byte	0x5f
 1051 0288 56020000 		.4byte	0x256
 1052 028c 08       		.uleb128 0x8
 1053 028d 04       		.byte	0x4
 1054 028e 05       		.byte	0x5
 1055 028f 64       		.byte	0x64
 1056 0290 A3020000 		.4byte	0x2a3
 1057 0294 06       		.uleb128 0x6
 1058 0295 E3040000 		.4byte	.LASF27
 1059 0299 05       		.byte	0x5
 1060 029a 66       		.byte	0x66
 1061 029b 7B020000 		.4byte	0x27b
 1062 029f 02       		.byte	0x2
 1063 02a0 23       		.byte	0x23
 1064 02a1 00       		.uleb128 0
 1065 02a2 00       		.byte	0
 1066 02a3 03       		.uleb128 0x3
 1067 02a4 D3020000 		.4byte	.LASF47
 1068 02a8 05       		.byte	0x5
 1069 02a9 69       		.byte	0x69
 1070 02aa 8C020000 		.4byte	0x28c
 1071 02ae 03       		.uleb128 0x3
 1072 02af B7010000 		.4byte	.LASF48
 1073 02b3 07       		.byte	0x7
 1074 02b4 DE       		.byte	0xde
 1075 02b5 B9020000 		.4byte	0x2b9
 1076 02b9 0A       		.uleb128 0xa
 1077 02ba 04       		.byte	0x4
ARM GAS  /tmp/ccgrWbgM.s 			page 20


 1078 02bb 0B       		.uleb128 0xb
 1079 02bc 15060000 		.4byte	.LASF49
 1080 02c0 64       		.byte	0x64
 1081 02c1 07       		.byte	0x7
 1082 02c2 0501     		.2byte	0x105
 1083 02c4 39040000 		.4byte	0x439
 1084 02c8 0C       		.uleb128 0xc
 1085 02c9 73313600 		.ascii	"s16\000"
 1086 02cd 07       		.byte	0x7
 1087 02ce 0701     		.2byte	0x107
 1088 02d0 AE020000 		.4byte	0x2ae
 1089 02d4 02       		.byte	0x2
 1090 02d5 23       		.byte	0x23
 1091 02d6 00       		.uleb128 0
 1092 02d7 0C       		.uleb128 0xc
 1093 02d8 73313700 		.ascii	"s17\000"
 1094 02dc 07       		.byte	0x7
 1095 02dd 0801     		.2byte	0x108
 1096 02df AE020000 		.4byte	0x2ae
 1097 02e3 02       		.byte	0x2
 1098 02e4 23       		.byte	0x23
 1099 02e5 04       		.uleb128 0x4
 1100 02e6 0C       		.uleb128 0xc
 1101 02e7 73313800 		.ascii	"s18\000"
 1102 02eb 07       		.byte	0x7
 1103 02ec 0901     		.2byte	0x109
 1104 02ee AE020000 		.4byte	0x2ae
 1105 02f2 02       		.byte	0x2
 1106 02f3 23       		.byte	0x23
 1107 02f4 08       		.uleb128 0x8
 1108 02f5 0C       		.uleb128 0xc
 1109 02f6 73313900 		.ascii	"s19\000"
 1110 02fa 07       		.byte	0x7
 1111 02fb 0A01     		.2byte	0x10a
 1112 02fd AE020000 		.4byte	0x2ae
 1113 0301 02       		.byte	0x2
 1114 0302 23       		.byte	0x23
 1115 0303 0C       		.uleb128 0xc
 1116 0304 0C       		.uleb128 0xc
 1117 0305 73323000 		.ascii	"s20\000"
 1118 0309 07       		.byte	0x7
 1119 030a 0B01     		.2byte	0x10b
 1120 030c AE020000 		.4byte	0x2ae
 1121 0310 02       		.byte	0x2
 1122 0311 23       		.byte	0x23
 1123 0312 10       		.uleb128 0x10
 1124 0313 0C       		.uleb128 0xc
 1125 0314 73323100 		.ascii	"s21\000"
 1126 0318 07       		.byte	0x7
 1127 0319 0C01     		.2byte	0x10c
 1128 031b AE020000 		.4byte	0x2ae
 1129 031f 02       		.byte	0x2
 1130 0320 23       		.byte	0x23
 1131 0321 14       		.uleb128 0x14
 1132 0322 0C       		.uleb128 0xc
 1133 0323 73323200 		.ascii	"s22\000"
 1134 0327 07       		.byte	0x7
ARM GAS  /tmp/ccgrWbgM.s 			page 21


 1135 0328 0D01     		.2byte	0x10d
 1136 032a AE020000 		.4byte	0x2ae
 1137 032e 02       		.byte	0x2
 1138 032f 23       		.byte	0x23
 1139 0330 18       		.uleb128 0x18
 1140 0331 0C       		.uleb128 0xc
 1141 0332 73323300 		.ascii	"s23\000"
 1142 0336 07       		.byte	0x7
 1143 0337 0E01     		.2byte	0x10e
 1144 0339 AE020000 		.4byte	0x2ae
 1145 033d 02       		.byte	0x2
 1146 033e 23       		.byte	0x23
 1147 033f 1C       		.uleb128 0x1c
 1148 0340 0C       		.uleb128 0xc
 1149 0341 73323400 		.ascii	"s24\000"
 1150 0345 07       		.byte	0x7
 1151 0346 0F01     		.2byte	0x10f
 1152 0348 AE020000 		.4byte	0x2ae
 1153 034c 02       		.byte	0x2
 1154 034d 23       		.byte	0x23
 1155 034e 20       		.uleb128 0x20
 1156 034f 0C       		.uleb128 0xc
 1157 0350 73323500 		.ascii	"s25\000"
 1158 0354 07       		.byte	0x7
 1159 0355 1001     		.2byte	0x110
 1160 0357 AE020000 		.4byte	0x2ae
 1161 035b 02       		.byte	0x2
 1162 035c 23       		.byte	0x23
 1163 035d 24       		.uleb128 0x24
 1164 035e 0C       		.uleb128 0xc
 1165 035f 73323600 		.ascii	"s26\000"
 1166 0363 07       		.byte	0x7
 1167 0364 1101     		.2byte	0x111
 1168 0366 AE020000 		.4byte	0x2ae
 1169 036a 02       		.byte	0x2
 1170 036b 23       		.byte	0x23
 1171 036c 28       		.uleb128 0x28
 1172 036d 0C       		.uleb128 0xc
 1173 036e 73323700 		.ascii	"s27\000"
 1174 0372 07       		.byte	0x7
 1175 0373 1201     		.2byte	0x112
 1176 0375 AE020000 		.4byte	0x2ae
 1177 0379 02       		.byte	0x2
 1178 037a 23       		.byte	0x23
 1179 037b 2C       		.uleb128 0x2c
 1180 037c 0C       		.uleb128 0xc
 1181 037d 73323800 		.ascii	"s28\000"
 1182 0381 07       		.byte	0x7
 1183 0382 1301     		.2byte	0x113
 1184 0384 AE020000 		.4byte	0x2ae
 1185 0388 02       		.byte	0x2
 1186 0389 23       		.byte	0x23
 1187 038a 30       		.uleb128 0x30
 1188 038b 0C       		.uleb128 0xc
 1189 038c 73323900 		.ascii	"s29\000"
 1190 0390 07       		.byte	0x7
 1191 0391 1401     		.2byte	0x114
ARM GAS  /tmp/ccgrWbgM.s 			page 22


 1192 0393 AE020000 		.4byte	0x2ae
 1193 0397 02       		.byte	0x2
 1194 0398 23       		.byte	0x23
 1195 0399 34       		.uleb128 0x34
 1196 039a 0C       		.uleb128 0xc
 1197 039b 73333000 		.ascii	"s30\000"
 1198 039f 07       		.byte	0x7
 1199 03a0 1501     		.2byte	0x115
 1200 03a2 AE020000 		.4byte	0x2ae
 1201 03a6 02       		.byte	0x2
 1202 03a7 23       		.byte	0x23
 1203 03a8 38       		.uleb128 0x38
 1204 03a9 0C       		.uleb128 0xc
 1205 03aa 73333100 		.ascii	"s31\000"
 1206 03ae 07       		.byte	0x7
 1207 03af 1601     		.2byte	0x116
 1208 03b1 AE020000 		.4byte	0x2ae
 1209 03b5 02       		.byte	0x2
 1210 03b6 23       		.byte	0x23
 1211 03b7 3C       		.uleb128 0x3c
 1212 03b8 0C       		.uleb128 0xc
 1213 03b9 723400   		.ascii	"r4\000"
 1214 03bc 07       		.byte	0x7
 1215 03bd 1801     		.2byte	0x118
 1216 03bf AE020000 		.4byte	0x2ae
 1217 03c3 02       		.byte	0x2
 1218 03c4 23       		.byte	0x23
 1219 03c5 40       		.uleb128 0x40
 1220 03c6 0C       		.uleb128 0xc
 1221 03c7 723500   		.ascii	"r5\000"
 1222 03ca 07       		.byte	0x7
 1223 03cb 1901     		.2byte	0x119
 1224 03cd AE020000 		.4byte	0x2ae
 1225 03d1 02       		.byte	0x2
 1226 03d2 23       		.byte	0x23
 1227 03d3 44       		.uleb128 0x44
 1228 03d4 0C       		.uleb128 0xc
 1229 03d5 723600   		.ascii	"r6\000"
 1230 03d8 07       		.byte	0x7
 1231 03d9 1A01     		.2byte	0x11a
 1232 03db AE020000 		.4byte	0x2ae
 1233 03df 02       		.byte	0x2
 1234 03e0 23       		.byte	0x23
 1235 03e1 48       		.uleb128 0x48
 1236 03e2 0C       		.uleb128 0xc
 1237 03e3 723700   		.ascii	"r7\000"
 1238 03e6 07       		.byte	0x7
 1239 03e7 1B01     		.2byte	0x11b
 1240 03e9 AE020000 		.4byte	0x2ae
 1241 03ed 02       		.byte	0x2
 1242 03ee 23       		.byte	0x23
 1243 03ef 4C       		.uleb128 0x4c
 1244 03f0 0C       		.uleb128 0xc
 1245 03f1 723800   		.ascii	"r8\000"
 1246 03f4 07       		.byte	0x7
 1247 03f5 1C01     		.2byte	0x11c
 1248 03f7 AE020000 		.4byte	0x2ae
ARM GAS  /tmp/ccgrWbgM.s 			page 23


 1249 03fb 02       		.byte	0x2
 1250 03fc 23       		.byte	0x23
 1251 03fd 50       		.uleb128 0x50
 1252 03fe 0C       		.uleb128 0xc
 1253 03ff 723900   		.ascii	"r9\000"
 1254 0402 07       		.byte	0x7
 1255 0403 1D01     		.2byte	0x11d
 1256 0405 AE020000 		.4byte	0x2ae
 1257 0409 02       		.byte	0x2
 1258 040a 23       		.byte	0x23
 1259 040b 54       		.uleb128 0x54
 1260 040c 0C       		.uleb128 0xc
 1261 040d 72313000 		.ascii	"r10\000"
 1262 0411 07       		.byte	0x7
 1263 0412 1E01     		.2byte	0x11e
 1264 0414 AE020000 		.4byte	0x2ae
 1265 0418 02       		.byte	0x2
 1266 0419 23       		.byte	0x23
 1267 041a 58       		.uleb128 0x58
 1268 041b 0C       		.uleb128 0xc
 1269 041c 72313100 		.ascii	"r11\000"
 1270 0420 07       		.byte	0x7
 1271 0421 1F01     		.2byte	0x11f
 1272 0423 AE020000 		.4byte	0x2ae
 1273 0427 02       		.byte	0x2
 1274 0428 23       		.byte	0x23
 1275 0429 5C       		.uleb128 0x5c
 1276 042a 0C       		.uleb128 0xc
 1277 042b 6C7200   		.ascii	"lr\000"
 1278 042e 07       		.byte	0x7
 1279 042f 2001     		.2byte	0x120
 1280 0431 AE020000 		.4byte	0x2ae
 1281 0435 02       		.byte	0x2
 1282 0436 23       		.byte	0x23
 1283 0437 60       		.uleb128 0x60
 1284 0438 00       		.byte	0
 1285 0439 0B       		.uleb128 0xb
 1286 043a 03060000 		.4byte	.LASF50
 1287 043e 04       		.byte	0x4
 1288 043f 07       		.byte	0x7
 1289 0440 2A01     		.2byte	0x12a
 1290 0442 56040000 		.4byte	0x456
 1291 0446 0C       		.uleb128 0xc
 1292 0447 72313300 		.ascii	"r13\000"
 1293 044b 07       		.byte	0x7
 1294 044c 2B01     		.2byte	0x12b
 1295 044e 56040000 		.4byte	0x456
 1296 0452 02       		.byte	0x2
 1297 0453 23       		.byte	0x23
 1298 0454 00       		.uleb128 0
 1299 0455 00       		.byte	0
 1300 0456 09       		.uleb128 0x9
 1301 0457 04       		.byte	0x4
 1302 0458 BB020000 		.4byte	0x2bb
 1303 045c 04       		.uleb128 0x4
 1304 045d 04       		.byte	0x4
 1305 045e 07       		.byte	0x7
ARM GAS  /tmp/ccgrWbgM.s 			page 24


 1306 045f 9D030000 		.4byte	.LASF51
 1307 0463 0D       		.uleb128 0xd
 1308 0464 10010000 		.4byte	0x110
 1309 0468 05       		.uleb128 0x5
 1310 0469 28060000 		.4byte	.LASF52
 1311 046d 0C       		.byte	0xc
 1312 046e 08       		.byte	0x8
 1313 046f 25       		.byte	0x25
 1314 0470 91040000 		.4byte	0x491
 1315 0474 06       		.uleb128 0x6
 1316 0475 89010000 		.4byte	.LASF53
 1317 0479 08       		.byte	0x8
 1318 047a 26       		.byte	0x26
 1319 047b 81020000 		.4byte	0x281
 1320 047f 02       		.byte	0x2
 1321 0480 23       		.byte	0x23
 1322 0481 00       		.uleb128 0
 1323 0482 06       		.uleb128 0x6
 1324 0483 9D040000 		.4byte	.LASF54
 1325 0487 08       		.byte	0x8
 1326 0488 28       		.byte	0x28
 1327 0489 1B010000 		.4byte	0x11b
 1328 048d 02       		.byte	0x2
 1329 048e 23       		.byte	0x23
 1330 048f 08       		.uleb128 0x8
 1331 0490 00       		.byte	0
 1332 0491 03       		.uleb128 0x3
 1333 0492 28060000 		.4byte	.LASF52
 1334 0496 08       		.byte	0x8
 1335 0497 29       		.byte	0x29
 1336 0498 68040000 		.4byte	0x468
 1337 049c 05       		.uleb128 0x5
 1338 049d A6030000 		.4byte	.LASF55
 1339 04a1 10       		.byte	0x10
 1340 04a2 09       		.byte	0x9
 1341 04a3 25       		.byte	0x25
 1342 04a4 D3040000 		.4byte	0x4d3
 1343 04a8 06       		.uleb128 0x6
 1344 04a9 41010000 		.4byte	.LASF56
 1345 04ad 09       		.byte	0x9
 1346 04ae 26       		.byte	0x26
 1347 04af 81020000 		.4byte	0x281
 1348 04b3 02       		.byte	0x2
 1349 04b4 23       		.byte	0x23
 1350 04b5 00       		.uleb128 0
 1351 04b6 06       		.uleb128 0x6
 1352 04b7 03070000 		.4byte	.LASF57
 1353 04bb 09       		.byte	0x9
 1354 04bc 28       		.byte	0x28
 1355 04bd 7B020000 		.4byte	0x27b
 1356 04c1 02       		.byte	0x2
 1357 04c2 23       		.byte	0x23
 1358 04c3 08       		.uleb128 0x8
 1359 04c4 06       		.uleb128 0x6
 1360 04c5 D9050000 		.4byte	.LASF58
 1361 04c9 09       		.byte	0x9
 1362 04ca 2A       		.byte	0x2a
ARM GAS  /tmp/ccgrWbgM.s 			page 25


 1363 04cb D3040000 		.4byte	0x4d3
 1364 04cf 02       		.byte	0x2
 1365 04d0 23       		.byte	0x23
 1366 04d1 0C       		.uleb128 0xc
 1367 04d2 00       		.byte	0
 1368 04d3 09       		.uleb128 0x9
 1369 04d4 04       		.byte	0x4
 1370 04d5 9C040000 		.4byte	0x49c
 1371 04d9 03       		.uleb128 0x3
 1372 04da A6030000 		.4byte	.LASF55
 1373 04de 09       		.byte	0x9
 1374 04df 2C       		.byte	0x2c
 1375 04e0 9C040000 		.4byte	0x49c
 1376 04e4 0E       		.uleb128 0xe
 1377 04e5 04       		.byte	0x4
 1378 04e6 06       		.byte	0x6
 1379 04e7 8F       		.byte	0x8f
 1380 04e8 19050000 		.4byte	0x519
 1381 04ec 0F       		.uleb128 0xf
 1382 04ed 2B000000 		.4byte	.LASF59
 1383 04f1 06       		.byte	0x6
 1384 04f2 96       		.byte	0x96
 1385 04f3 FA000000 		.4byte	0xfa
 1386 04f7 0F       		.uleb128 0xf
 1387 04f8 B2000000 		.4byte	.LASF60
 1388 04fc 06       		.byte	0x6
 1389 04fd 9D       		.byte	0x9d
 1390 04fe FA000000 		.4byte	0xfa
 1391 0502 0F       		.uleb128 0xf
 1392 0503 96060000 		.4byte	.LASF61
 1393 0507 06       		.byte	0x6
 1394 0508 A4       		.byte	0xa4
 1395 0509 B9020000 		.4byte	0x2b9
 1396 050d 0F       		.uleb128 0xf
 1397 050e DC040000 		.4byte	.LASF62
 1398 0512 06       		.byte	0x6
 1399 0513 AB       		.byte	0xab
 1400 0514 05010000 		.4byte	0x105
 1401 0518 00       		.byte	0
 1402 0519 09       		.uleb128 0x9
 1403 051a 04       		.byte	0x4
 1404 051b 1F050000 		.4byte	0x51f
 1405 051f 10       		.uleb128 0x10
 1406 0520 24050000 		.4byte	0x524
 1407 0524 04       		.uleb128 0x4
 1408 0525 01       		.byte	0x1
 1409 0526 08       		.byte	0x8
 1410 0527 C3050000 		.4byte	.LASF63
 1411 052b 09       		.uleb128 0x9
 1412 052c 04       		.byte	0x4
 1413 052d D9040000 		.4byte	0x4d9
 1414 0531 0D       		.uleb128 0xd
 1415 0532 7F000000 		.4byte	0x7f
 1416 0536 03       		.uleb128 0x3
 1417 0537 08000000 		.4byte	.LASF64
 1418 053b 0A       		.byte	0xa
 1419 053c 26       		.byte	0x26
ARM GAS  /tmp/ccgrWbgM.s 			page 26


 1420 053d 1B010000 		.4byte	0x11b
 1421 0541 08       		.uleb128 0x8
 1422 0542 10       		.byte	0x10
 1423 0543 0A       		.byte	0xa
 1424 0544 32       		.byte	0x32
 1425 0545 66050000 		.4byte	0x566
 1426 0549 07       		.uleb128 0x7
 1427 054a 73656D00 		.ascii	"sem\000"
 1428 054e 0A       		.byte	0xa
 1429 054f 33       		.byte	0x33
 1430 0550 91040000 		.4byte	0x491
 1431 0554 02       		.byte	0x2
 1432 0555 23       		.byte	0x23
 1433 0556 00       		.uleb128 0
 1434 0557 06       		.uleb128 0x6
 1435 0558 BB000000 		.4byte	.LASF65
 1436 055c 0A       		.byte	0xa
 1437 055d 34       		.byte	0x34
 1438 055e 36050000 		.4byte	0x536
 1439 0562 02       		.byte	0x2
 1440 0563 23       		.byte	0x23
 1441 0564 0C       		.uleb128 0xc
 1442 0565 00       		.byte	0
 1443 0566 03       		.uleb128 0x3
 1444 0567 26050000 		.4byte	.LASF66
 1445 056b 0A       		.byte	0xa
 1446 056c 35       		.byte	0x35
 1447 056d 41050000 		.4byte	0x541
 1448 0571 05       		.uleb128 0x5
 1449 0572 1B070000 		.4byte	.LASF67
 1450 0576 04       		.byte	0x4
 1451 0577 0B       		.byte	0xb
 1452 0578 3A       		.byte	0x3a
 1453 0579 8C050000 		.4byte	0x58c
 1454 057d 06       		.uleb128 0x6
 1455 057e EA000000 		.4byte	.LASF68
 1456 0582 0B       		.byte	0xb
 1457 0583 3B       		.byte	0x3b
 1458 0584 8C050000 		.4byte	0x58c
 1459 0588 02       		.byte	0x2
 1460 0589 23       		.byte	0x23
 1461 058a 00       		.uleb128 0
 1462 058b 00       		.byte	0
 1463 058c 09       		.uleb128 0x9
 1464 058d 04       		.byte	0x4
 1465 058e 71050000 		.4byte	0x571
 1466 0592 03       		.uleb128 0x3
 1467 0593 1B070000 		.4byte	.LASF67
 1468 0597 0B       		.byte	0xb
 1469 0598 3C       		.byte	0x3c
 1470 0599 71050000 		.4byte	0x571
 1471 059d 03       		.uleb128 0x3
 1472 059e CE010000 		.4byte	.LASF69
 1473 05a2 0C       		.byte	0xc
 1474 05a3 21       		.byte	0x21
 1475 05a4 6D000000 		.4byte	0x6d
 1476 05a8 11       		.uleb128 0x11
ARM GAS  /tmp/ccgrWbgM.s 			page 27


 1477 05a9 CA020000 		.4byte	.LASF159
 1478 05ad 20       		.byte	0x20
 1479 05ae 0C       		.byte	0xc
 1480 05af 31       		.byte	0x31
 1481 05b0 CB050000 		.4byte	0x5cb
 1482 05b4 0F       		.uleb128 0xf
 1483 05b5 B4020000 		.4byte	.LASF70
 1484 05b9 0C       		.byte	0xc
 1485 05ba 32       		.byte	0x32
 1486 05bb 9D050000 		.4byte	0x59d
 1487 05bf 12       		.uleb128 0x12
 1488 05c0 70616400 		.ascii	"pad\000"
 1489 05c4 0C       		.byte	0xc
 1490 05c5 33       		.byte	0x33
 1491 05c6 CB050000 		.4byte	0x5cb
 1492 05ca 00       		.byte	0
 1493 05cb 13       		.uleb128 0x13
 1494 05cc 24050000 		.4byte	0x524
 1495 05d0 DB050000 		.4byte	0x5db
 1496 05d4 14       		.uleb128 0x14
 1497 05d5 5C040000 		.4byte	0x45c
 1498 05d9 1F       		.byte	0x1f
 1499 05da 00       		.byte	0
 1500 05db 03       		.uleb128 0x3
 1501 05dc 73010000 		.4byte	.LASF71
 1502 05e0 0C       		.byte	0xc
 1503 05e1 34       		.byte	0x34
 1504 05e2 A8050000 		.4byte	0x5a8
 1505 05e6 03       		.uleb128 0x3
 1506 05e7 FC030000 		.4byte	.LASF72
 1507 05eb 0C       		.byte	0xc
 1508 05ec 37       		.byte	0x37
 1509 05ed F1050000 		.4byte	0x5f1
 1510 05f1 09       		.uleb128 0x9
 1511 05f2 04       		.byte	0x4
 1512 05f3 F7050000 		.4byte	0x5f7
 1513 05f7 15       		.uleb128 0x15
 1514 05f8 01       		.byte	0x1
 1515 05f9 08060000 		.4byte	0x608
 1516 05fd 16       		.uleb128 0x16
 1517 05fe B9020000 		.4byte	0x2b9
 1518 0602 16       		.uleb128 0x16
 1519 0603 08060000 		.4byte	0x608
 1520 0607 00       		.byte	0
 1521 0608 09       		.uleb128 0x9
 1522 0609 04       		.byte	0x4
 1523 060a DB050000 		.4byte	0x5db
 1524 060e 05       		.uleb128 0x5
 1525 060f 15050000 		.4byte	.LASF73
 1526 0613 48       		.byte	0x48
 1527 0614 0C       		.byte	0xc
 1528 0615 3A       		.byte	0x3a
 1529 0616 61060000 		.4byte	0x661
 1530 061a 06       		.uleb128 0x6
 1531 061b 34040000 		.4byte	.LASF74
 1532 061f 0C       		.byte	0xc
 1533 0620 3B       		.byte	0x3b
ARM GAS  /tmp/ccgrWbgM.s 			page 28


 1534 0621 66050000 		.4byte	0x566
 1535 0625 02       		.byte	0x2
 1536 0626 23       		.byte	0x23
 1537 0627 00       		.uleb128 0
 1538 0628 06       		.uleb128 0x6
 1539 0629 7B030000 		.4byte	.LASF75
 1540 062d 0C       		.byte	0xc
 1541 062e 3C       		.byte	0x3c
 1542 062f 66050000 		.4byte	0x566
 1543 0633 02       		.byte	0x2
 1544 0634 23       		.byte	0x23
 1545 0635 10       		.uleb128 0x10
 1546 0636 06       		.uleb128 0x6
 1547 0637 B9020000 		.4byte	.LASF76
 1548 063b 0C       		.byte	0xc
 1549 063c 3D       		.byte	0x3d
 1550 063d E6050000 		.4byte	0x5e6
 1551 0641 02       		.byte	0x2
 1552 0642 23       		.byte	0x23
 1553 0643 20       		.uleb128 0x20
 1554 0644 06       		.uleb128 0x6
 1555 0645 E1030000 		.4byte	.LASF77
 1556 0649 0C       		.byte	0xc
 1557 064a 3E       		.byte	0x3e
 1558 064b B9020000 		.4byte	0x2b9
 1559 064f 02       		.byte	0x2
 1560 0650 23       		.byte	0x23
 1561 0651 24       		.uleb128 0x24
 1562 0652 06       		.uleb128 0x6
 1563 0653 EF000000 		.4byte	.LASF78
 1564 0657 0C       		.byte	0xc
 1565 0658 3F       		.byte	0x3f
 1566 0659 DB050000 		.4byte	0x5db
 1567 065d 02       		.byte	0x2
 1568 065e 23       		.byte	0x23
 1569 065f 28       		.uleb128 0x28
 1570 0660 00       		.byte	0
 1571 0661 03       		.uleb128 0x3
 1572 0662 15050000 		.4byte	.LASF73
 1573 0666 0C       		.byte	0xc
 1574 0667 40       		.byte	0x40
 1575 0668 0E060000 		.4byte	0x60e
 1576 066c 03       		.uleb128 0x3
 1577 066d 4E000000 		.4byte	.LASF79
 1578 0671 0C       		.byte	0xc
 1579 0672 43       		.byte	0x43
 1580 0673 77060000 		.4byte	0x677
 1581 0677 17       		.uleb128 0x17
 1582 0678 1F020000 		.4byte	.LASF93
 1583 067c 01       		.byte	0x1
 1584 067d 03       		.uleb128 0x3
 1585 067e 40000000 		.4byte	.LASF80
 1586 0682 0C       		.byte	0xc
 1587 0683 43       		.byte	0x43
 1588 0684 88060000 		.4byte	0x688
 1589 0688 09       		.uleb128 0x9
 1590 0689 04       		.byte	0x4
ARM GAS  /tmp/ccgrWbgM.s 			page 29


 1591 068a 77060000 		.4byte	0x677
 1592 068e 05       		.uleb128 0x5
 1593 068f E6060000 		.4byte	.LASF81
 1594 0693 10       		.byte	0x10
 1595 0694 0C       		.byte	0xc
 1596 0695 46       		.byte	0x46
 1597 0696 D3060000 		.4byte	0x6d3
 1598 069a 06       		.uleb128 0x6
 1599 069b 0B060000 		.4byte	.LASF82
 1600 069f 0C       		.byte	0xc
 1601 06a0 47       		.byte	0x47
 1602 06a1 D3060000 		.4byte	0x6d3
 1603 06a5 02       		.byte	0x2
 1604 06a6 23       		.byte	0x23
 1605 06a7 00       		.uleb128 0
 1606 06a8 06       		.uleb128 0x6
 1607 06a9 6A000000 		.4byte	.LASF83
 1608 06ad 0C       		.byte	0xc
 1609 06ae 48       		.byte	0x48
 1610 06af D9060000 		.4byte	0x6d9
 1611 06b3 02       		.byte	0x2
 1612 06b4 23       		.byte	0x23
 1613 06b5 04       		.uleb128 0x4
 1614 06b6 06       		.uleb128 0x6
 1615 06b7 60060000 		.4byte	.LASF84
 1616 06bb 0C       		.byte	0xc
 1617 06bc 49       		.byte	0x49
 1618 06bd 3B000000 		.4byte	0x3b
 1619 06c1 02       		.byte	0x2
 1620 06c2 23       		.byte	0x23
 1621 06c3 08       		.uleb128 0x8
 1622 06c4 06       		.uleb128 0x6
 1623 06c5 87060000 		.4byte	.LASF85
 1624 06c9 0C       		.byte	0xc
 1625 06ca 4A       		.byte	0x4a
 1626 06cb 3B000000 		.4byte	0x3b
 1627 06cf 02       		.byte	0x2
 1628 06d0 23       		.byte	0x23
 1629 06d1 0C       		.uleb128 0xc
 1630 06d2 00       		.byte	0
 1631 06d3 09       		.uleb128 0x9
 1632 06d4 04       		.byte	0x4
 1633 06d5 61060000 		.4byte	0x661
 1634 06d9 09       		.uleb128 0x9
 1635 06da 04       		.byte	0x4
 1636 06db 6C060000 		.4byte	0x66c
 1637 06df 03       		.uleb128 0x3
 1638 06e0 B3060000 		.4byte	.LASF86
 1639 06e4 0C       		.byte	0xc
 1640 06e5 4B       		.byte	0x4b
 1641 06e6 8E060000 		.4byte	0x68e
 1642 06ea 03       		.uleb128 0x3
 1643 06eb F4030000 		.4byte	.LASF87
 1644 06ef 0D       		.byte	0xd
 1645 06f0 23       		.byte	0x23
 1646 06f1 5B000000 		.4byte	0x5b
 1647 06f5 18       		.uleb128 0x18
ARM GAS  /tmp/ccgrWbgM.s 			page 30


 1648 06f6 00000000 		.4byte	.LASF160
 1649 06fa 01       		.byte	0x1
 1650 06fb 0D       		.byte	0xd
 1651 06fc 3A       		.byte	0x3a
 1652 06fd 14070000 		.4byte	0x714
 1653 0701 19       		.uleb128 0x19
 1654 0702 CD050000 		.4byte	.LASF88
 1655 0706 00       		.sleb128 0
 1656 0707 19       		.uleb128 0x19
 1657 0708 5C010000 		.4byte	.LASF89
 1658 070c 01       		.sleb128 1
 1659 070d 19       		.uleb128 0x19
 1660 070e 7E050000 		.4byte	.LASF90
 1661 0712 02       		.sleb128 2
 1662 0713 00       		.byte	0
 1663 0714 03       		.uleb128 0x3
 1664 0715 60000000 		.4byte	.LASF91
 1665 0719 0D       		.byte	0xd
 1666 071a 3A       		.byte	0x3a
 1667 071b F5060000 		.4byte	0x6f5
 1668 071f 03       		.uleb128 0x3
 1669 0720 3E040000 		.4byte	.LASF92
 1670 0724 0D       		.byte	0xd
 1671 0725 42       		.byte	0x42
 1672 0726 2A070000 		.4byte	0x72a
 1673 072a 09       		.uleb128 0x9
 1674 072b 04       		.byte	0x4
 1675 072c 30070000 		.4byte	0x730
 1676 0730 10       		.uleb128 0x10
 1677 0731 35070000 		.4byte	0x735
 1678 0735 17       		.uleb128 0x17
 1679 0736 5B060000 		.4byte	.LASF94
 1680 073a 01       		.byte	0x1
 1681 073b 03       		.uleb128 0x3
 1682 073c 67030000 		.4byte	.LASF95
 1683 0740 0D       		.byte	0xd
 1684 0741 DB       		.byte	0xdb
 1685 0742 6D000000 		.4byte	0x6d
 1686 0746 05       		.uleb128 0x5
 1687 0747 3E060000 		.4byte	.LASF96
 1688 074b 1C       		.byte	0x1c
 1689 074c 0E       		.byte	0xe
 1690 074d 23       		.byte	0x23
 1691 074e DB070000 		.4byte	0x7db
 1692 0752 07       		.uleb128 0x7
 1693 0753 776D7100 		.ascii	"wmq\000"
 1694 0757 0E       		.byte	0xe
 1695 0758 26       		.byte	0x26
 1696 0759 92050000 		.4byte	0x592
 1697 075d 02       		.byte	0x2
 1698 075e 23       		.byte	0x23
 1699 075f 00       		.uleb128 0
 1700 0760 07       		.uleb128 0x7
 1701 0761 766D7400 		.ascii	"vmt\000"
 1702 0765 0E       		.byte	0xe
 1703 0766 28       		.byte	0x28
 1704 0767 2E080000 		.4byte	0x82e
ARM GAS  /tmp/ccgrWbgM.s 			page 31


 1705 076b 02       		.byte	0x2
 1706 076c 23       		.byte	0x23
 1707 076d 04       		.uleb128 0x4
 1708 076e 07       		.uleb128 0x7
 1709 076f 7800     		.ascii	"x\000"
 1710 0771 0E       		.byte	0xe
 1711 0772 29       		.byte	0x29
 1712 0773 EA060000 		.4byte	0x6ea
 1713 0777 02       		.byte	0x2
 1714 0778 23       		.byte	0x23
 1715 0779 08       		.uleb128 0x8
 1716 077a 07       		.uleb128 0x7
 1717 077b 7900     		.ascii	"y\000"
 1718 077d 0E       		.byte	0xe
 1719 077e 29       		.byte	0x29
 1720 077f EA060000 		.4byte	0x6ea
 1721 0783 02       		.byte	0x2
 1722 0784 23       		.byte	0x23
 1723 0785 0A       		.uleb128 0xa
 1724 0786 06       		.uleb128 0x6
 1725 0787 89020000 		.4byte	.LASF97
 1726 078b 0E       		.byte	0xe
 1727 078c 2A       		.byte	0x2a
 1728 078d EA060000 		.4byte	0x6ea
 1729 0791 02       		.byte	0x2
 1730 0792 23       		.byte	0x23
 1731 0793 0C       		.uleb128 0xc
 1732 0794 06       		.uleb128 0x6
 1733 0795 DF060000 		.4byte	.LASF98
 1734 0799 0E       		.byte	0xe
 1735 079a 2A       		.byte	0x2a
 1736 079b EA060000 		.4byte	0x6ea
 1737 079f 02       		.byte	0x2
 1738 07a0 23       		.byte	0x23
 1739 07a1 0E       		.uleb128 0xe
 1740 07a2 06       		.uleb128 0x6
 1741 07a3 34030000 		.4byte	.LASF99
 1742 07a7 0E       		.byte	0xe
 1743 07a8 2B       		.byte	0x2b
 1744 07a9 3B070000 		.4byte	0x73b
 1745 07ad 02       		.byte	0x2
 1746 07ae 23       		.byte	0x23
 1747 07af 10       		.uleb128 0x10
 1748 07b0 06       		.uleb128 0x6
 1749 07b1 2C040000 		.4byte	.LASF100
 1750 07b5 0E       		.byte	0xe
 1751 07b6 2B       		.byte	0x2b
 1752 07b7 3B070000 		.4byte	0x73b
 1753 07bb 02       		.byte	0x2
 1754 07bc 23       		.byte	0x23
 1755 07bd 12       		.uleb128 0x12
 1756 07be 06       		.uleb128 0x6
 1757 07bf 90060000 		.4byte	.LASF101
 1758 07c3 0E       		.byte	0xe
 1759 07c4 2C       		.byte	0x2c
 1760 07c5 6D000000 		.4byte	0x6d
 1761 07c9 02       		.byte	0x2
ARM GAS  /tmp/ccgrWbgM.s 			page 32


 1762 07ca 23       		.byte	0x23
 1763 07cb 14       		.uleb128 0x14
 1764 07cc 06       		.uleb128 0x6
 1765 07cd 5B060000 		.4byte	.LASF94
 1766 07d1 0E       		.byte	0xe
 1767 07d2 2E       		.byte	0x2e
 1768 07d3 1F070000 		.4byte	0x71f
 1769 07d7 02       		.byte	0x2
 1770 07d8 23       		.byte	0x23
 1771 07d9 18       		.uleb128 0x18
 1772 07da 00       		.byte	0
 1773 07db 05       		.uleb128 0x5
 1774 07dc AF010000 		.4byte	.LASF102
 1775 07e0 14       		.byte	0x14
 1776 07e1 0F       		.byte	0xf
 1777 07e2 2E       		.byte	0x2e
 1778 07e3 2E080000 		.4byte	0x82e
 1779 07e7 06       		.uleb128 0x6
 1780 07e8 56000000 		.4byte	.LASF103
 1781 07ec 0F       		.byte	0xf
 1782 07ed 2F       		.byte	0x2f
 1783 07ee 19050000 		.4byte	0x519
 1784 07f2 02       		.byte	0x2
 1785 07f3 23       		.byte	0x23
 1786 07f4 00       		.uleb128 0
 1787 07f5 06       		.uleb128 0x6
 1788 07f6 9E020000 		.4byte	.LASF104
 1789 07fa 0F       		.byte	0xf
 1790 07fb 30       		.byte	0x30
 1791 07fc 30000000 		.4byte	0x30
 1792 0800 02       		.byte	0x2
 1793 0801 23       		.byte	0x23
 1794 0802 04       		.uleb128 0x4
 1795 0803 06       		.uleb128 0x6
 1796 0804 A5050000 		.4byte	.LASF105
 1797 0808 0F       		.byte	0xf
 1798 0809 31       		.byte	0x31
 1799 080a B20A0000 		.4byte	0xab2
 1800 080e 02       		.byte	0x2
 1801 080f 23       		.byte	0x23
 1802 0810 08       		.uleb128 0x8
 1803 0811 06       		.uleb128 0x6
 1804 0812 F5050000 		.4byte	.LASF106
 1805 0816 0F       		.byte	0xf
 1806 0817 32       		.byte	0x32
 1807 0818 B20A0000 		.4byte	0xab2
 1808 081c 02       		.byte	0x2
 1809 081d 23       		.byte	0x23
 1810 081e 0C       		.uleb128 0xc
 1811 081f 06       		.uleb128 0x6
 1812 0820 BF040000 		.4byte	.LASF107
 1813 0824 0F       		.byte	0xf
 1814 0825 33       		.byte	0x33
 1815 0826 B20A0000 		.4byte	0xab2
 1816 082a 02       		.byte	0x2
 1817 082b 23       		.byte	0x23
 1818 082c 10       		.uleb128 0x10
ARM GAS  /tmp/ccgrWbgM.s 			page 33


 1819 082d 00       		.byte	0
 1820 082e 09       		.uleb128 0x9
 1821 082f 04       		.byte	0x4
 1822 0830 34080000 		.4byte	0x834
 1823 0834 10       		.uleb128 0x10
 1824 0835 DB070000 		.4byte	0x7db
 1825 0839 03       		.uleb128 0x3
 1826 083a 3E060000 		.4byte	.LASF96
 1827 083e 0E       		.byte	0xe
 1828 083f 30       		.byte	0x30
 1829 0840 46070000 		.4byte	0x746
 1830 0844 03       		.uleb128 0x3
 1831 0845 D3000000 		.4byte	.LASF108
 1832 0849 0E       		.byte	0xe
 1833 084a 30       		.byte	0x30
 1834 084b 4F080000 		.4byte	0x84f
 1835 084f 09       		.uleb128 0x9
 1836 0850 04       		.byte	0x4
 1837 0851 46070000 		.4byte	0x746
 1838 0855 05       		.uleb128 0x5
 1839 0856 12040000 		.4byte	.LASF109
 1840 085a 0A       		.byte	0xa
 1841 085b 0E       		.byte	0xe
 1842 085c 3B       		.byte	0x3b
 1843 085d A4080000 		.4byte	0x8a4
 1844 0861 07       		.uleb128 0x7
 1845 0862 7800     		.ascii	"x\000"
 1846 0864 0E       		.byte	0xe
 1847 0865 3C       		.byte	0x3c
 1848 0866 EA060000 		.4byte	0x6ea
 1849 086a 02       		.byte	0x2
 1850 086b 23       		.byte	0x23
 1851 086c 00       		.uleb128 0
 1852 086d 07       		.uleb128 0x7
 1853 086e 7900     		.ascii	"y\000"
 1854 0870 0E       		.byte	0xe
 1855 0871 3C       		.byte	0x3c
 1856 0872 EA060000 		.4byte	0x6ea
 1857 0876 02       		.byte	0x2
 1858 0877 23       		.byte	0x23
 1859 0878 02       		.uleb128 0x2
 1860 0879 06       		.uleb128 0x6
 1861 087a 89020000 		.4byte	.LASF97
 1862 087e 0E       		.byte	0xe
 1863 087f 3D       		.byte	0x3d
 1864 0880 EA060000 		.4byte	0x6ea
 1865 0884 02       		.byte	0x2
 1866 0885 23       		.byte	0x23
 1867 0886 04       		.uleb128 0x4
 1868 0887 06       		.uleb128 0x6
 1869 0888 DF060000 		.4byte	.LASF98
 1870 088c 0E       		.byte	0xe
 1871 088d 3D       		.byte	0x3d
 1872 088e EA060000 		.4byte	0x6ea
 1873 0892 02       		.byte	0x2
 1874 0893 23       		.byte	0x23
 1875 0894 06       		.uleb128 0x6
ARM GAS  /tmp/ccgrWbgM.s 			page 34


 1876 0895 06       		.uleb128 0x6
 1877 0896 2D010000 		.4byte	.LASF110
 1878 089a 0E       		.byte	0xe
 1879 089b 3E       		.byte	0x3e
 1880 089c B1000000 		.4byte	0xb1
 1881 08a0 02       		.byte	0x2
 1882 08a1 23       		.byte	0x23
 1883 08a2 08       		.uleb128 0x8
 1884 08a3 00       		.byte	0
 1885 08a4 03       		.uleb128 0x3
 1886 08a5 12040000 		.4byte	.LASF109
 1887 08a9 0E       		.byte	0xe
 1888 08aa 3F       		.byte	0x3f
 1889 08ab 55080000 		.4byte	0x855
 1890 08af 05       		.uleb128 0x5
 1891 08b0 77000000 		.4byte	.LASF111
 1892 08b4 08       		.byte	0x8
 1893 08b5 10       		.byte	0x10
 1894 08b6 25       		.byte	0x25
 1895 08b7 F4080000 		.4byte	0x8f4
 1896 08bb 06       		.uleb128 0x6
 1897 08bc C8050000 		.4byte	.LASF112
 1898 08c0 10       		.byte	0x10
 1899 08c1 26       		.byte	0x26
 1900 08c2 3B070000 		.4byte	0x73b
 1901 08c6 02       		.byte	0x2
 1902 08c7 23       		.byte	0x23
 1903 08c8 00       		.uleb128 0
 1904 08c9 06       		.uleb128 0x6
 1905 08ca 13000000 		.4byte	.LASF113
 1906 08ce 10       		.byte	0x10
 1907 08cf 27       		.byte	0x27
 1908 08d0 3B070000 		.4byte	0x73b
 1909 08d4 02       		.byte	0x2
 1910 08d5 23       		.byte	0x23
 1911 08d6 02       		.uleb128 0x2
 1912 08d7 06       		.uleb128 0x6
 1913 08d8 0D040000 		.4byte	.LASF114
 1914 08dc 10       		.byte	0x10
 1915 08dd 28       		.byte	0x28
 1916 08de 3B070000 		.4byte	0x73b
 1917 08e2 02       		.byte	0x2
 1918 08e3 23       		.byte	0x23
 1919 08e4 04       		.uleb128 0x4
 1920 08e5 06       		.uleb128 0x6
 1921 08e6 E0010000 		.4byte	.LASF115
 1922 08ea 10       		.byte	0x10
 1923 08eb 29       		.byte	0x29
 1924 08ec 3B070000 		.4byte	0x73b
 1925 08f0 02       		.byte	0x2
 1926 08f1 23       		.byte	0x23
 1927 08f2 06       		.uleb128 0x6
 1928 08f3 00       		.byte	0
 1929 08f4 03       		.uleb128 0x3
 1930 08f5 77000000 		.4byte	.LASF111
 1931 08f9 10       		.byte	0x10
 1932 08fa 2A       		.byte	0x2a
ARM GAS  /tmp/ccgrWbgM.s 			page 35


 1933 08fb AF080000 		.4byte	0x8af
 1934 08ff 05       		.uleb128 0x5
 1935 0900 9D060000 		.4byte	.LASF116
 1936 0904 1A       		.byte	0x1a
 1937 0905 10       		.byte	0x10
 1938 0906 34       		.byte	0x34
 1939 0907 44090000 		.4byte	0x944
 1940 090b 06       		.uleb128 0x6
 1941 090c F8060000 		.4byte	.LASF117
 1942 0910 10       		.byte	0x10
 1943 0911 35       		.byte	0x35
 1944 0912 3B070000 		.4byte	0x73b
 1945 0916 02       		.byte	0x2
 1946 0917 23       		.byte	0x23
 1947 0918 00       		.uleb128 0
 1948 0919 06       		.uleb128 0x6
 1949 091a 8B050000 		.4byte	.LASF118
 1950 091e 10       		.byte	0x10
 1951 091f 36       		.byte	0x36
 1952 0920 F4080000 		.4byte	0x8f4
 1953 0924 02       		.byte	0x2
 1954 0925 23       		.byte	0x23
 1955 0926 02       		.uleb128 0x2
 1956 0927 06       		.uleb128 0x6
 1957 0928 AA060000 		.4byte	.LASF119
 1958 092c 10       		.byte	0x10
 1959 092d 37       		.byte	0x37
 1960 092e F4080000 		.4byte	0x8f4
 1961 0932 02       		.byte	0x2
 1962 0933 23       		.byte	0x23
 1963 0934 0A       		.uleb128 0xa
 1964 0935 06       		.uleb128 0x6
 1965 0936 53060000 		.4byte	.LASF120
 1966 093a 10       		.byte	0x10
 1967 093b 38       		.byte	0x38
 1968 093c F4080000 		.4byte	0x8f4
 1969 0940 02       		.byte	0x2
 1970 0941 23       		.byte	0x23
 1971 0942 12       		.uleb128 0x12
 1972 0943 00       		.byte	0
 1973 0944 03       		.uleb128 0x3
 1974 0945 9D060000 		.4byte	.LASF116
 1975 0949 10       		.byte	0x10
 1976 094a 39       		.byte	0x39
 1977 094b FF080000 		.4byte	0x8ff
 1978 094f 03       		.uleb128 0x3
 1979 0950 FC040000 		.4byte	.LASF121
 1980 0954 10       		.byte	0x10
 1981 0955 4B       		.byte	0x4b
 1982 0956 5A090000 		.4byte	0x95a
 1983 095a 09       		.uleb128 0x9
 1984 095b 04       		.byte	0x4
 1985 095c 60090000 		.4byte	0x960
 1986 0960 15       		.uleb128 0x15
 1987 0961 01       		.byte	0x1
 1988 0962 71090000 		.4byte	0x971
 1989 0966 16       		.uleb128 0x16
ARM GAS  /tmp/ccgrWbgM.s 			page 36


 1990 0967 71090000 		.4byte	0x971
 1991 096b 16       		.uleb128 0x16
 1992 096c B9020000 		.4byte	0x2b9
 1993 0970 00       		.byte	0
 1994 0971 09       		.uleb128 0x9
 1995 0972 04       		.byte	0x4
 1996 0973 77090000 		.4byte	0x977
 1997 0977 05       		.uleb128 0x5
 1998 0978 C0010000 		.4byte	.LASF122
 1999 097c 2C       		.byte	0x2c
 2000 097d 10       		.byte	0x10
 2001 097e 69       		.byte	0x69
 2002 097f C8090000 		.4byte	0x9c8
 2003 0983 07       		.uleb128 0x7
 2004 0984 6700     		.ascii	"g\000"
 2005 0986 10       		.byte	0x10
 2006 0987 6A       		.byte	0x6a
 2007 0988 39080000 		.4byte	0x839
 2008 098c 02       		.byte	0x2
 2009 098d 23       		.byte	0x23
 2010 098e 00       		.uleb128 0
 2011 098f 06       		.uleb128 0x6
 2012 0990 C8050000 		.4byte	.LASF112
 2013 0994 10       		.byte	0x10
 2014 0995 6B       		.byte	0x6b
 2015 0996 19050000 		.4byte	0x519
 2016 099a 02       		.byte	0x2
 2017 099b 23       		.byte	0x23
 2018 099c 1C       		.uleb128 0x1c
 2019 099d 06       		.uleb128 0x6
 2020 099e 7A010000 		.4byte	.LASF123
 2021 09a2 10       		.byte	0x10
 2022 09a3 6C       		.byte	0x6c
 2023 09a4 4F090000 		.4byte	0x94f
 2024 09a8 02       		.byte	0x2
 2025 09a9 23       		.byte	0x23
 2026 09aa 20       		.uleb128 0x20
 2027 09ab 06       		.uleb128 0x6
 2028 09ac 8B000000 		.4byte	.LASF124
 2029 09b0 10       		.byte	0x10
 2030 09b1 6D       		.byte	0x6d
 2031 09b2 B9020000 		.4byte	0x2b9
 2032 09b6 02       		.byte	0x2
 2033 09b7 23       		.byte	0x23
 2034 09b8 24       		.uleb128 0x24
 2035 09b9 06       		.uleb128 0x6
 2036 09ba 82020000 		.4byte	.LASF125
 2037 09be 10       		.byte	0x10
 2038 09bf 6E       		.byte	0x6e
 2039 09c0 190A0000 		.4byte	0xa19
 2040 09c4 02       		.byte	0x2
 2041 09c5 23       		.byte	0x23
 2042 09c6 28       		.uleb128 0x28
 2043 09c7 00       		.byte	0
 2044 09c8 05       		.uleb128 0x5
 2045 09c9 1C060000 		.4byte	.LASF126
 2046 09cd 1C       		.byte	0x1c
ARM GAS  /tmp/ccgrWbgM.s 			page 37


 2047 09ce 10       		.byte	0x10
 2048 09cf 57       		.byte	0x57
 2049 09d0 190A0000 		.4byte	0xa19
 2050 09d4 07       		.uleb128 0x7
 2051 09d5 6700     		.ascii	"g\000"
 2052 09d7 10       		.byte	0x10
 2053 09d8 58       		.byte	0x58
 2054 09d9 A4080000 		.4byte	0x8a4
 2055 09dd 02       		.byte	0x2
 2056 09de 23       		.byte	0x23
 2057 09df 00       		.uleb128 0
 2058 09e0 06       		.uleb128 0x6
 2059 09e1 C8050000 		.4byte	.LASF112
 2060 09e5 10       		.byte	0x10
 2061 09e6 59       		.byte	0x59
 2062 09e7 19050000 		.4byte	0x519
 2063 09eb 02       		.byte	0x2
 2064 09ec 23       		.byte	0x23
 2065 09ed 0C       		.uleb128 0xc
 2066 09ee 06       		.uleb128 0x6
 2067 09ef A3020000 		.4byte	.LASF127
 2068 09f3 10       		.byte	0x10
 2069 09f4 5A       		.byte	0x5a
 2070 09f5 4F090000 		.4byte	0x94f
 2071 09f9 02       		.byte	0x2
 2072 09fa 23       		.byte	0x23
 2073 09fb 10       		.uleb128 0x10
 2074 09fc 06       		.uleb128 0x6
 2075 09fd CA030000 		.4byte	.LASF128
 2076 0a01 10       		.byte	0x10
 2077 0a02 5B       		.byte	0x5b
 2078 0a03 B9020000 		.4byte	0x2b9
 2079 0a07 02       		.byte	0x2
 2080 0a08 23       		.byte	0x23
 2081 0a09 14       		.uleb128 0x14
 2082 0a0a 06       		.uleb128 0x6
 2083 0a0b 6F030000 		.4byte	.LASF129
 2084 0a0f 10       		.byte	0x10
 2085 0a10 5C       		.byte	0x5c
 2086 0a11 190A0000 		.4byte	0xa19
 2087 0a15 02       		.byte	0x2
 2088 0a16 23       		.byte	0x23
 2089 0a17 18       		.uleb128 0x18
 2090 0a18 00       		.byte	0
 2091 0a19 09       		.uleb128 0x9
 2092 0a1a 04       		.byte	0x4
 2093 0a1b 1F0A0000 		.4byte	0xa1f
 2094 0a1f 10       		.uleb128 0x10
 2095 0a20 44090000 		.4byte	0x944
 2096 0a24 03       		.uleb128 0x3
 2097 0a25 1C060000 		.4byte	.LASF126
 2098 0a29 10       		.byte	0x10
 2099 0a2a 5D       		.byte	0x5d
 2100 0a2b C8090000 		.4byte	0x9c8
 2101 0a2f 03       		.uleb128 0x3
 2102 0a30 C0010000 		.4byte	.LASF122
 2103 0a34 10       		.byte	0x10
ARM GAS  /tmp/ccgrWbgM.s 			page 38


 2104 0a35 6F       		.byte	0x6f
 2105 0a36 77090000 		.4byte	0x977
 2106 0a3a 05       		.uleb128 0x5
 2107 0a3b 39020000 		.4byte	.LASF130
 2108 0a3f 0C       		.byte	0xc
 2109 0a40 11       		.byte	0x11
 2110 0a41 25       		.byte	0x25
 2111 0a42 710A0000 		.4byte	0xa71
 2112 0a46 06       		.uleb128 0x6
 2113 0a47 B4020000 		.4byte	.LASF70
 2114 0a4b 11       		.byte	0x11
 2115 0a4c 26       		.byte	0x26
 2116 0a4d 9D050000 		.4byte	0x59d
 2117 0a51 02       		.byte	0x2
 2118 0a52 23       		.byte	0x23
 2119 0a53 00       		.uleb128 0
 2120 0a54 06       		.uleb128 0x6
 2121 0a55 4C020000 		.4byte	.LASF131
 2122 0a59 11       		.byte	0x11
 2123 0a5a 27       		.byte	0x27
 2124 0a5b 44080000 		.4byte	0x844
 2125 0a5f 02       		.byte	0x2
 2126 0a60 23       		.byte	0x23
 2127 0a61 04       		.uleb128 0x4
 2128 0a62 06       		.uleb128 0x6
 2129 0a63 EA040000 		.4byte	.LASF132
 2130 0a67 11       		.byte	0x11
 2131 0a68 28       		.byte	0x28
 2132 0a69 B1000000 		.4byte	0xb1
 2133 0a6d 02       		.byte	0x2
 2134 0a6e 23       		.byte	0x23
 2135 0a6f 08       		.uleb128 0x8
 2136 0a70 00       		.byte	0
 2137 0a71 03       		.uleb128 0x3
 2138 0a72 39020000 		.4byte	.LASF130
 2139 0a76 11       		.byte	0x11
 2140 0a77 29       		.byte	0x29
 2141 0a78 3A0A0000 		.4byte	0xa3a
 2142 0a7c 05       		.uleb128 0x5
 2143 0a7d 65050000 		.4byte	.LASF133
 2144 0a81 2C       		.byte	0x2c
 2145 0a82 11       		.byte	0x11
 2146 0a83 2C       		.byte	0x2c
 2147 0a84 950A0000 		.4byte	0xa95
 2148 0a88 07       		.uleb128 0x7
 2149 0a89 7700     		.ascii	"w\000"
 2150 0a8b 11       		.byte	0x11
 2151 0a8c 2D       		.byte	0x2d
 2152 0a8d 2F0A0000 		.4byte	0xa2f
 2153 0a91 02       		.byte	0x2
 2154 0a92 23       		.byte	0x23
 2155 0a93 00       		.uleb128 0
 2156 0a94 00       		.byte	0
 2157 0a95 03       		.uleb128 0x3
 2158 0a96 65050000 		.4byte	.LASF133
 2159 0a9a 11       		.byte	0x11
 2160 0a9b 31       		.byte	0x31
ARM GAS  /tmp/ccgrWbgM.s 			page 39


 2161 0a9c 7C0A0000 		.4byte	0xa7c
 2162 0aa0 15       		.uleb128 0x15
 2163 0aa1 01       		.byte	0x1
 2164 0aa2 AC0A0000 		.4byte	0xaac
 2165 0aa6 16       		.uleb128 0x16
 2166 0aa7 AC0A0000 		.4byte	0xaac
 2167 0aab 00       		.byte	0
 2168 0aac 09       		.uleb128 0x9
 2169 0aad 04       		.byte	0x4
 2170 0aae 39080000 		.4byte	0x839
 2171 0ab2 09       		.uleb128 0x9
 2172 0ab3 04       		.byte	0x4
 2173 0ab4 A00A0000 		.4byte	0xaa0
 2174 0ab8 03       		.uleb128 0x3
 2175 0ab9 AF010000 		.4byte	.LASF102
 2176 0abd 0F       		.byte	0xf
 2177 0abe 34       		.byte	0x34
 2178 0abf DB070000 		.4byte	0x7db
 2179 0ac3 08       		.uleb128 0x8
 2180 0ac4 0C       		.byte	0xc
 2181 0ac5 0F       		.byte	0xf
 2182 0ac6 50       		.byte	0x50
 2183 0ac7 F60A0000 		.4byte	0xaf6
 2184 0acb 06       		.uleb128 0x6
 2185 0acc 81000000 		.4byte	.LASF134
 2186 0ad0 0F       		.byte	0xf
 2187 0ad1 51       		.byte	0x51
 2188 0ad2 120B0000 		.4byte	0xb12
 2189 0ad6 02       		.byte	0x2
 2190 0ad7 23       		.byte	0x23
 2191 0ad8 00       		.uleb128 0
 2192 0ad9 06       		.uleb128 0x6
 2193 0ada AA000000 		.4byte	.LASF135
 2194 0ade 0F       		.byte	0xf
 2195 0adf 52       		.byte	0x52
 2196 0ae0 120B0000 		.4byte	0xb12
 2197 0ae4 02       		.byte	0x2
 2198 0ae5 23       		.byte	0x23
 2199 0ae6 04       		.uleb128 0x4
 2200 0ae7 06       		.uleb128 0x6
 2201 0ae8 C3060000 		.4byte	.LASF136
 2202 0aec 0F       		.byte	0xf
 2203 0aed 53       		.byte	0x53
 2204 0aee 120B0000 		.4byte	0xb12
 2205 0af2 02       		.byte	0x2
 2206 0af3 23       		.byte	0x23
 2207 0af4 08       		.uleb128 0x8
 2208 0af5 00       		.byte	0
 2209 0af6 15       		.uleb128 0x15
 2210 0af7 01       		.byte	0x1
 2211 0af8 0C0B0000 		.4byte	0xb0c
 2212 0afc 16       		.uleb128 0x16
 2213 0afd 0C0B0000 		.4byte	0xb0c
 2214 0b01 16       		.uleb128 0x16
 2215 0b02 EA060000 		.4byte	0x6ea
 2216 0b06 16       		.uleb128 0x16
 2217 0b07 EA060000 		.4byte	0x6ea
ARM GAS  /tmp/ccgrWbgM.s 			page 40


 2218 0b0b 00       		.byte	0
 2219 0b0c 09       		.uleb128 0x9
 2220 0b0d 04       		.byte	0x4
 2221 0b0e 2F0A0000 		.4byte	0xa2f
 2222 0b12 09       		.uleb128 0x9
 2223 0b13 04       		.byte	0x4
 2224 0b14 F60A0000 		.4byte	0xaf6
 2225 0b18 05       		.uleb128 0x5
 2226 0b19 91010000 		.4byte	.LASF137
 2227 0b1d 24       		.byte	0x24
 2228 0b1e 0F       		.byte	0xf
 2229 0b1f 4C       		.byte	0x4c
 2230 0b20 470B0000 		.4byte	0xb47
 2231 0b24 07       		.uleb128 0x7
 2232 0b25 6700     		.ascii	"g\000"
 2233 0b27 0F       		.byte	0xf
 2234 0b28 4D       		.byte	0x4d
 2235 0b29 DB070000 		.4byte	0x7db
 2236 0b2d 02       		.byte	0x2
 2237 0b2e 23       		.byte	0x23
 2238 0b2f 00       		.uleb128 0
 2239 0b30 06       		.uleb128 0x6
 2240 0b31 32060000 		.4byte	.LASF138
 2241 0b35 0F       		.byte	0xf
 2242 0b36 4E       		.byte	0x4e
 2243 0b37 580B0000 		.4byte	0xb58
 2244 0b3b 02       		.byte	0x2
 2245 0b3c 23       		.byte	0x23
 2246 0b3d 14       		.uleb128 0x14
 2247 0b3e 1A       		.uleb128 0x1a
 2248 0b3f C30A0000 		.4byte	0xac3
 2249 0b43 02       		.byte	0x2
 2250 0b44 23       		.byte	0x23
 2251 0b45 18       		.uleb128 0x18
 2252 0b46 00       		.byte	0
 2253 0b47 15       		.uleb128 0x15
 2254 0b48 01       		.byte	0x1
 2255 0b49 580B0000 		.4byte	0xb58
 2256 0b4d 16       		.uleb128 0x16
 2257 0b4e 0C0B0000 		.4byte	0xb0c
 2258 0b52 16       		.uleb128 0x16
 2259 0b53 B9020000 		.4byte	0x2b9
 2260 0b57 00       		.byte	0
 2261 0b58 09       		.uleb128 0x9
 2262 0b59 04       		.byte	0x4
 2263 0b5a 470B0000 		.4byte	0xb47
 2264 0b5e 03       		.uleb128 0x3
 2265 0b5f 91010000 		.4byte	.LASF137
 2266 0b63 0F       		.byte	0xf
 2267 0b64 67       		.byte	0x67
 2268 0b65 180B0000 		.4byte	0xb18
 2269 0b69 1B       		.uleb128 0x1b
 2270 0b6a 66040000 		.4byte	.LASF161
 2271 0b6e 01       		.byte	0x1
 2272 0b6f 94       		.byte	0x94
 2273 0b70 01       		.byte	0x1
 2274 0b71 850B0000 		.4byte	0xb85
ARM GAS  /tmp/ccgrWbgM.s 			page 41


 2275 0b75 01       		.byte	0x1
 2276 0b76 850B0000 		.4byte	0xb85
 2277 0b7a 1C       		.uleb128 0x1c
 2278 0b7b 677700   		.ascii	"gw\000"
 2279 0b7e 01       		.byte	0x1
 2280 0b7f 94       		.byte	0x94
 2281 0b80 0C0B0000 		.4byte	0xb0c
 2282 0b84 00       		.byte	0
 2283 0b85 09       		.uleb128 0x9
 2284 0b86 04       		.byte	0x4
 2285 0b87 8B0B0000 		.4byte	0xb8b
 2286 0b8b 10       		.uleb128 0x10
 2287 0b8c F4080000 		.4byte	0x8f4
 2288 0b90 1D       		.uleb128 0x1d
 2289 0b91 01       		.byte	0x1
 2290 0b92 4A030000 		.4byte	.LASF149
 2291 0b96 01       		.byte	0x1
 2292 0b97 9A       		.byte	0x9a
 2293 0b98 01       		.byte	0x1
 2294 0b99 01       		.byte	0x1
 2295 0b9a D30B0000 		.4byte	0xbd3
 2296 0b9e 1C       		.uleb128 0x1c
 2297 0b9f 677700   		.ascii	"gw\000"
 2298 0ba2 01       		.byte	0x1
 2299 0ba3 9A       		.byte	0x9a
 2300 0ba4 0C0B0000 		.4byte	0xb0c
 2301 0ba8 1E       		.uleb128 0x1e
 2302 0ba9 E1030000 		.4byte	.LASF77
 2303 0bad 01       		.byte	0x1
 2304 0bae 9A       		.byte	0x9a
 2305 0baf B9020000 		.4byte	0x2b9
 2306 0bb3 1F       		.uleb128 0x1f
 2307 0bb4 6C6400   		.ascii	"ld\000"
 2308 0bb7 01       		.byte	0x1
 2309 0bb8 9C       		.byte	0x9c
 2310 0bb9 EA060000 		.4byte	0x6ea
 2311 0bbd 1F       		.uleb128 0x1f
 2312 0bbe 646600   		.ascii	"df\000"
 2313 0bc1 01       		.byte	0x1
 2314 0bc2 9C       		.byte	0x9c
 2315 0bc3 EA060000 		.4byte	0x6ea
 2316 0bc7 20       		.uleb128 0x20
 2317 0bc8 72000000 		.4byte	.LASF139
 2318 0bcc 01       		.byte	0x1
 2319 0bcd 9D       		.byte	0x9d
 2320 0bce 850B0000 		.4byte	0xb85
 2321 0bd2 00       		.byte	0
 2322 0bd3 21       		.uleb128 0x21
 2323 0bd4 54040000 		.4byte	.LASF140
 2324 0bd8 01       		.byte	0x1
 2325 0bd9 1C       		.byte	0x1c
 2326 0bda 01       		.byte	0x1
 2327 0bdb 00000000 		.4byte	.LFB118
 2328 0bdf 3C000000 		.4byte	.LFE118
 2329 0be3 00000000 		.4byte	.LLST0
 2330 0be7 01       		.byte	0x1
 2331 0be8 500C0000 		.4byte	0xc50
ARM GAS  /tmp/ccgrWbgM.s 			page 42


 2332 0bec 22       		.uleb128 0x22
 2333 0bed 677700   		.ascii	"gw\000"
 2334 0bf0 01       		.byte	0x1
 2335 0bf1 1C       		.byte	0x1c
 2336 0bf2 0C0B0000 		.4byte	0xb0c
 2337 0bf6 20000000 		.4byte	.LLST1
 2338 0bfa 23       		.uleb128 0x23
 2339 0bfb 70736C00 		.ascii	"psl\000"
 2340 0bff 01       		.byte	0x1
 2341 0c00 1D       		.byte	0x1d
 2342 0c01 500C0000 		.4byte	0xc50
 2343 0c05 3E000000 		.4byte	.LLST2
 2344 0c09 23       		.uleb128 0x23
 2345 0c0a 706500   		.ascii	"pe\000"
 2346 0c0d 01       		.byte	0x1
 2347 0c0e 1E       		.byte	0x1e
 2348 0c0f 08060000 		.4byte	0x608
 2349 0c13 7E000000 		.4byte	.LLST3
 2350 0c17 24       		.uleb128 0x24
 2351 0c18 12000000 		.4byte	.LVL2
 2352 0c1c E70F0000 		.4byte	0xfe7
 2353 0c20 2B0C0000 		.4byte	0xc2b
 2354 0c24 25       		.uleb128 0x25
 2355 0c25 01       		.byte	0x1
 2356 0c26 51       		.byte	0x51
 2357 0c27 02       		.byte	0x2
 2358 0c28 74       		.byte	0x74
 2359 0c29 00       		.sleb128 0
 2360 0c2a 00       		.byte	0
 2361 0c2b 24       		.uleb128 0x24
 2362 0c2c 1A000000 		.4byte	.LVL3
 2363 0c30 04100000 		.4byte	0x1004
 2364 0c34 3F0C0000 		.4byte	0xc3f
 2365 0c38 25       		.uleb128 0x25
 2366 0c39 01       		.byte	0x1
 2367 0c3a 50       		.byte	0x50
 2368 0c3b 02       		.byte	0x2
 2369 0c3c 74       		.byte	0x74
 2370 0c3d 00       		.sleb128 0
 2371 0c3e 00       		.byte	0
 2372 0c3f 26       		.uleb128 0x26
 2373 0c40 32000000 		.4byte	.LVL5
 2374 0c44 1C100000 		.4byte	0x101c
 2375 0c48 25       		.uleb128 0x25
 2376 0c49 01       		.byte	0x1
 2377 0c4a 50       		.byte	0x50
 2378 0c4b 02       		.byte	0x2
 2379 0c4c 74       		.byte	0x74
 2380 0c4d 00       		.sleb128 0
 2381 0c4e 00       		.byte	0
 2382 0c4f 00       		.byte	0
 2383 0c50 09       		.uleb128 0x9
 2384 0c51 04       		.byte	0x4
 2385 0c52 DF060000 		.4byte	0x6df
 2386 0c56 21       		.uleb128 0x21
 2387 0c57 81000000 		.4byte	.LASF134
 2388 0c5b 01       		.byte	0x1
ARM GAS  /tmp/ccgrWbgM.s 			page 43


 2389 0c5c 30       		.byte	0x30
 2390 0c5d 01       		.byte	0x1
 2391 0c5e 00000000 		.4byte	.LFB119
 2392 0c62 1A000000 		.4byte	.LFE119
 2393 0c66 9C000000 		.4byte	.LLST4
 2394 0c6a 01       		.byte	0x1
 2395 0c6b BD0C0000 		.4byte	0xcbd
 2396 0c6f 22       		.uleb128 0x22
 2397 0c70 677700   		.ascii	"gw\000"
 2398 0c73 01       		.byte	0x1
 2399 0c74 30       		.byte	0x30
 2400 0c75 0C0B0000 		.4byte	0xb0c
 2401 0c79 BC000000 		.4byte	.LLST5
 2402 0c7d 22       		.uleb128 0x22
 2403 0c7e 7800     		.ascii	"x\000"
 2404 0c80 01       		.byte	0x1
 2405 0c81 30       		.byte	0x30
 2406 0c82 EA060000 		.4byte	0x6ea
 2407 0c86 DA000000 		.4byte	.LLST6
 2408 0c8a 22       		.uleb128 0x22
 2409 0c8b 7900     		.ascii	"y\000"
 2410 0c8d 01       		.byte	0x1
 2411 0c8e 30       		.byte	0x30
 2412 0c8f EA060000 		.4byte	0x6ea
 2413 0c93 FB000000 		.4byte	.LLST7
 2414 0c97 24       		.uleb128 0x24
 2415 0c98 10000000 		.4byte	.LVL9
 2416 0c9c 30100000 		.4byte	0x1030
 2417 0ca0 AB0C0000 		.4byte	0xcab
 2418 0ca4 25       		.uleb128 0x25
 2419 0ca5 01       		.byte	0x1
 2420 0ca6 50       		.byte	0x50
 2421 0ca7 02       		.byte	0x2
 2422 0ca8 74       		.byte	0x74
 2423 0ca9 00       		.sleb128 0
 2424 0caa 00       		.byte	0
 2425 0cab 27       		.uleb128 0x27
 2426 0cac 1A000000 		.4byte	.LVL10
 2427 0cb0 01       		.byte	0x1
 2428 0cb1 D30B0000 		.4byte	0xbd3
 2429 0cb5 25       		.uleb128 0x25
 2430 0cb6 01       		.byte	0x1
 2431 0cb7 50       		.byte	0x50
 2432 0cb8 02       		.byte	0x2
 2433 0cb9 74       		.byte	0x74
 2434 0cba 00       		.sleb128 0
 2435 0cbb 00       		.byte	0
 2436 0cbc 00       		.byte	0
 2437 0cbd 28       		.uleb128 0x28
 2438 0cbe 900B0000 		.4byte	0xb90
 2439 0cc2 00000000 		.4byte	.LFB124
 2440 0cc6 F0000000 		.4byte	.LFE124
 2441 0cca 1C010000 		.4byte	.LLST8
 2442 0cce 01       		.byte	0x1
 2443 0ccf B40D0000 		.4byte	0xdb4
 2444 0cd3 29       		.uleb128 0x29
 2445 0cd4 9E0B0000 		.4byte	0xb9e
ARM GAS  /tmp/ccgrWbgM.s 			page 44


 2446 0cd8 48010000 		.4byte	.LLST9
 2447 0cdc 29       		.uleb128 0x29
 2448 0cdd A80B0000 		.4byte	0xba8
 2449 0ce1 7C010000 		.4byte	.LLST10
 2450 0ce5 2A       		.uleb128 0x2a
 2451 0ce6 B30B0000 		.4byte	0xbb3
 2452 0cea 2A       		.uleb128 0x2a
 2453 0ceb BD0B0000 		.4byte	0xbbd
 2454 0cef 2A       		.uleb128 0x2a
 2455 0cf0 C70B0000 		.4byte	0xbc7
 2456 0cf4 2B       		.uleb128 0x2b
 2457 0cf5 900B0000 		.4byte	0xb90
 2458 0cf9 12000000 		.4byte	.LBB12
 2459 0cfd F0000000 		.4byte	.LBE12
 2460 0d01 01       		.byte	0x1
 2461 0d02 9A       		.byte	0x9a
 2462 0d03 29       		.uleb128 0x29
 2463 0d04 9E0B0000 		.4byte	0xb9e
 2464 0d08 B6010000 		.4byte	.LLST11
 2465 0d0c 2C       		.uleb128 0x2c
 2466 0d0d 00000000 		.4byte	.Ldebug_ranges0+0
 2467 0d11 2D       		.uleb128 0x2d
 2468 0d12 B30B0000 		.4byte	0xbb3
 2469 0d16 D4010000 		.4byte	.LLST12
 2470 0d1a 2D       		.uleb128 0x2d
 2471 0d1b BD0B0000 		.4byte	0xbbd
 2472 0d1f 16020000 		.4byte	.LLST13
 2473 0d23 2E       		.uleb128 0x2e
 2474 0d24 C70B0000 		.4byte	0xbc7
 2475 0d28 01       		.byte	0x1
 2476 0d29 57       		.byte	0x57
 2477 0d2a 2F       		.uleb128 0x2f
 2478 0d2b A80B0000 		.4byte	0xba8
 2479 0d2f 30       		.uleb128 0x30
 2480 0d30 690B0000 		.4byte	0xb69
 2481 0d34 12000000 		.4byte	.LBB14
 2482 0d38 18000000 		.4byte	.Ldebug_ranges0+0x18
 2483 0d3c 01       		.byte	0x1
 2484 0d3d A1       		.byte	0xa1
 2485 0d3e 4C0D0000 		.4byte	0xd4c
 2486 0d42 29       		.uleb128 0x29
 2487 0d43 7A0B0000 		.4byte	0xb7a
 2488 0d47 B6010000 		.4byte	.LLST11
 2489 0d4b 00       		.byte	0
 2490 0d4c 24       		.uleb128 0x24
 2491 0d4d 60000000 		.4byte	.LVL19
 2492 0d51 44100000 		.4byte	0x1044
 2493 0d55 660D0000 		.4byte	0xd66
 2494 0d59 25       		.uleb128 0x25
 2495 0d5a 01       		.byte	0x1
 2496 0d5b 53       		.byte	0x53
 2497 0d5c 02       		.byte	0x2
 2498 0d5d 76       		.byte	0x76
 2499 0d5e 7E       		.sleb128 -2
 2500 0d5f 25       		.uleb128 0x25
 2501 0d60 01       		.byte	0x1
 2502 0d61 52       		.byte	0x52
ARM GAS  /tmp/ccgrWbgM.s 			page 45


 2503 0d62 02       		.byte	0x2
 2504 0d63 75       		.byte	0x75
 2505 0d64 00       		.sleb128 0
 2506 0d65 00       		.byte	0
 2507 0d66 24       		.uleb128 0x24
 2508 0d67 74000000 		.4byte	.LVL20
 2509 0d6b 6D100000 		.4byte	0x106d
 2510 0d6f 800D0000 		.4byte	0xd80
 2511 0d73 25       		.uleb128 0x25
 2512 0d74 01       		.byte	0x1
 2513 0d75 53       		.byte	0x53
 2514 0d76 02       		.byte	0x2
 2515 0d77 75       		.byte	0x75
 2516 0d78 00       		.sleb128 0
 2517 0d79 25       		.uleb128 0x25
 2518 0d7a 01       		.byte	0x1
 2519 0d7b 52       		.byte	0x52
 2520 0d7c 02       		.byte	0x2
 2521 0d7d 75       		.byte	0x75
 2522 0d7e 00       		.sleb128 0
 2523 0d7f 00       		.byte	0
 2524 0d80 24       		.uleb128 0x24
 2525 0d81 B8000000 		.4byte	.LVL24
 2526 0d85 96100000 		.4byte	0x1096
 2527 0d89 A10D0000 		.4byte	0xda1
 2528 0d8d 25       		.uleb128 0x25
 2529 0d8e 01       		.byte	0x1
 2530 0d8f 52       		.byte	0x52
 2531 0d90 02       		.byte	0x2
 2532 0d91 76       		.byte	0x76
 2533 0d92 00       		.sleb128 0
 2534 0d93 25       		.uleb128 0x25
 2535 0d94 02       		.byte	0x2
 2536 0d95 7D       		.byte	0x7d
 2537 0d96 10       		.sleb128 16
 2538 0d97 01       		.byte	0x1
 2539 0d98 30       		.byte	0x30
 2540 0d99 25       		.uleb128 0x25
 2541 0d9a 02       		.byte	0x2
 2542 0d9b 7D       		.byte	0x7d
 2543 0d9c 0C       		.sleb128 12
 2544 0d9d 02       		.byte	0x2
 2545 0d9e 75       		.byte	0x75
 2546 0d9f 00       		.sleb128 0
 2547 0da0 00       		.byte	0
 2548 0da1 26       		.uleb128 0x26
 2549 0da2 E4000000 		.4byte	.LVL27
 2550 0da6 44100000 		.4byte	0x1044
 2551 0daa 25       		.uleb128 0x25
 2552 0dab 01       		.byte	0x1
 2553 0dac 51       		.byte	0x51
 2554 0dad 02       		.byte	0x2
 2555 0dae 75       		.byte	0x75
 2556 0daf 00       		.sleb128 0
 2557 0db0 00       		.byte	0
 2558 0db1 00       		.byte	0
 2559 0db2 00       		.byte	0
ARM GAS  /tmp/ccgrWbgM.s 			page 46


 2560 0db3 00       		.byte	0
 2561 0db4 31       		.uleb128 0x31
 2562 0db5 01       		.byte	0x1
 2563 0db6 18000000 		.4byte	.LASF142
 2564 0dba 01       		.byte	0x1
 2565 0dbb 6F       		.byte	0x6f
 2566 0dbc 01       		.byte	0x1
 2567 0dbd 44080000 		.4byte	0x844
 2568 0dc1 00000000 		.4byte	.LFB120
 2569 0dc5 1C000000 		.4byte	.LFE120
 2570 0dc9 68020000 		.4byte	.LLST15
 2571 0dcd 01       		.byte	0x1
 2572 0dce 240E0000 		.4byte	0xe24
 2573 0dd2 22       		.uleb128 0x22
 2574 0dd3 676200   		.ascii	"gb\000"
 2575 0dd6 01       		.byte	0x1
 2576 0dd7 6F       		.byte	0x6f
 2577 0dd8 240E0000 		.4byte	0xe24
 2578 0ddc 88020000 		.4byte	.LLST16
 2579 0de0 32       		.uleb128 0x32
 2580 0de1 1E040000 		.4byte	.LASF141
 2581 0de5 01       		.byte	0x1
 2582 0de6 6F       		.byte	0x6f
 2583 0de7 2A0E0000 		.4byte	0xe2a
 2584 0deb BF020000 		.4byte	.LLST17
 2585 0def 24       		.uleb128 0x24
 2586 0df0 0A000000 		.4byte	.LVL30
 2587 0df4 D3100000 		.4byte	0x10d3
 2588 0df8 130E0000 		.4byte	0xe13
 2589 0dfc 25       		.uleb128 0x25
 2590 0dfd 01       		.byte	0x1
 2591 0dfe 52       		.byte	0x52
 2592 0dff 05       		.byte	0x5
 2593 0e00 03       		.byte	0x3
 2594 0e01 00000000 		.4byte	.LANCHOR0
 2595 0e05 25       		.uleb128 0x25
 2596 0e06 01       		.byte	0x1
 2597 0e07 51       		.byte	0x51
 2598 0e08 02       		.byte	0x2
 2599 0e09 75       		.byte	0x75
 2600 0e0a 00       		.sleb128 0
 2601 0e0b 25       		.uleb128 0x25
 2602 0e0c 01       		.byte	0x1
 2603 0e0d 50       		.byte	0x50
 2604 0e0e 03       		.byte	0x3
 2605 0e0f F3       		.byte	0xf3
 2606 0e10 01       		.uleb128 0x1
 2607 0e11 50       		.byte	0x50
 2608 0e12 00       		.byte	0
 2609 0e13 26       		.uleb128 0x26
 2610 0e14 14000000 		.4byte	.LVL31
 2611 0e18 FB100000 		.4byte	0x10fb
 2612 0e1c 25       		.uleb128 0x25
 2613 0e1d 01       		.byte	0x1
 2614 0e1e 50       		.byte	0x50
 2615 0e1f 02       		.byte	0x2
 2616 0e20 74       		.byte	0x74
ARM GAS  /tmp/ccgrWbgM.s 			page 47


 2617 0e21 00       		.sleb128 0
 2618 0e22 00       		.byte	0
 2619 0e23 00       		.byte	0
 2620 0e24 09       		.uleb128 0x9
 2621 0e25 04       		.byte	0x4
 2622 0e26 950A0000 		.4byte	0xa95
 2623 0e2a 09       		.uleb128 0x9
 2624 0e2b 04       		.byte	0x4
 2625 0e2c 300E0000 		.4byte	0xe30
 2626 0e30 10       		.uleb128 0x10
 2627 0e31 240A0000 		.4byte	0xa24
 2628 0e35 33       		.uleb128 0x33
 2629 0e36 01       		.byte	0x1
 2630 0e37 C1000000 		.4byte	.LASF144
 2631 0e3b 01       		.byte	0x1
 2632 0e3c 7A       		.byte	0x7a
 2633 0e3d 01       		.byte	0x1
 2634 0e3e 00000000 		.4byte	.LFB121
 2635 0e42 44000000 		.4byte	.LFE121
 2636 0e46 DD020000 		.4byte	.LLST18
 2637 0e4a 01       		.byte	0x1
 2638 0e4b 920E0000 		.4byte	0xe92
 2639 0e4f 22       		.uleb128 0x22
 2640 0e50 676800   		.ascii	"gh\000"
 2641 0e53 01       		.byte	0x1
 2642 0e54 7A       		.byte	0x7a
 2643 0e55 44080000 		.4byte	0x844
 2644 0e59 FD020000 		.4byte	.LLST19
 2645 0e5d 32       		.uleb128 0x32
 2646 0e5e EA040000 		.4byte	.LASF132
 2647 0e62 01       		.byte	0x1
 2648 0e63 7A       		.byte	0x7a
 2649 0e64 B1000000 		.4byte	0xb1
 2650 0e68 31030000 		.4byte	.LLST20
 2651 0e6c 24       		.uleb128 0x24
 2652 0e6d 28000000 		.4byte	.LVL37
 2653 0e71 30100000 		.4byte	0x1030
 2654 0e75 800E0000 		.4byte	0xe80
 2655 0e79 25       		.uleb128 0x25
 2656 0e7a 01       		.byte	0x1
 2657 0e7b 50       		.byte	0x50
 2658 0e7c 02       		.byte	0x2
 2659 0e7d 74       		.byte	0x74
 2660 0e7e 00       		.sleb128 0
 2661 0e7f 00       		.byte	0
 2662 0e80 27       		.uleb128 0x27
 2663 0e81 32000000 		.4byte	.LVL38
 2664 0e85 01       		.byte	0x1
 2665 0e86 D30B0000 		.4byte	0xbd3
 2666 0e8a 25       		.uleb128 0x25
 2667 0e8b 01       		.byte	0x1
 2668 0e8c 50       		.byte	0x50
 2669 0e8d 02       		.byte	0x2
 2670 0e8e 74       		.byte	0x74
 2671 0e8f 00       		.sleb128 0
 2672 0e90 00       		.byte	0
 2673 0e91 00       		.byte	0
ARM GAS  /tmp/ccgrWbgM.s 			page 48


 2674 0e92 34       		.uleb128 0x34
 2675 0e93 01       		.byte	0x1
 2676 0e94 AD050000 		.4byte	.LASF143
 2677 0e98 01       		.byte	0x1
 2678 0e99 89       		.byte	0x89
 2679 0e9a 01       		.byte	0x1
 2680 0e9b B1000000 		.4byte	0xb1
 2681 0e9f 00000000 		.4byte	.LFB122
 2682 0ea3 18000000 		.4byte	.LFE122
 2683 0ea7 02       		.byte	0x2
 2684 0ea8 7D       		.byte	0x7d
 2685 0ea9 00       		.sleb128 0
 2686 0eaa 01       		.byte	0x1
 2687 0eab BE0E0000 		.4byte	0xebe
 2688 0eaf 22       		.uleb128 0x22
 2689 0eb0 676800   		.ascii	"gh\000"
 2690 0eb3 01       		.byte	0x1
 2691 0eb4 89       		.byte	0x89
 2692 0eb5 44080000 		.4byte	0x844
 2693 0eb9 5D030000 		.4byte	.LLST21
 2694 0ebd 00       		.byte	0
 2695 0ebe 33       		.uleb128 0x33
 2696 0ebf 01       		.byte	0x1
 2697 0ec0 AC030000 		.4byte	.LASF145
 2698 0ec4 01       		.byte	0x1
 2699 0ec5 AF       		.byte	0xaf
 2700 0ec6 01       		.byte	0x1
 2701 0ec7 00000000 		.4byte	.LFB125
 2702 0ecb 0C010000 		.4byte	.LFE125
 2703 0ecf 97030000 		.4byte	.LLST22
 2704 0ed3 01       		.byte	0x1
 2705 0ed4 C30F0000 		.4byte	0xfc3
 2706 0ed8 22       		.uleb128 0x22
 2707 0ed9 677700   		.ascii	"gw\000"
 2708 0edc 01       		.byte	0x1
 2709 0edd AF       		.byte	0xaf
 2710 0ede 0C0B0000 		.4byte	0xb0c
 2711 0ee2 C3030000 		.4byte	.LLST23
 2712 0ee6 32       		.uleb128 0x32
 2713 0ee7 E1030000 		.4byte	.LASF77
 2714 0eeb 01       		.byte	0x1
 2715 0eec AF       		.byte	0xaf
 2716 0eed B9020000 		.4byte	0x2b9
 2717 0ef1 13040000 		.4byte	.LLST24
 2718 0ef5 23       		.uleb128 0x23
 2719 0ef6 657000   		.ascii	"ep\000"
 2720 0ef9 01       		.byte	0x1
 2721 0efa B1       		.byte	0xb1
 2722 0efb EA060000 		.4byte	0x6ea
 2723 0eff 4D040000 		.4byte	.LLST25
 2724 0f03 23       		.uleb128 0x23
 2725 0f04 6C6400   		.ascii	"ld\000"
 2726 0f07 01       		.byte	0x1
 2727 0f08 B1       		.byte	0xb1
 2728 0f09 EA060000 		.4byte	0x6ea
 2729 0f0d 76040000 		.4byte	.LLST26
 2730 0f11 23       		.uleb128 0x23
ARM GAS  /tmp/ccgrWbgM.s 			page 49


 2731 0f12 646600   		.ascii	"df\000"
 2732 0f15 01       		.byte	0x1
 2733 0f16 B1       		.byte	0xb1
 2734 0f17 EA060000 		.4byte	0x6ea
 2735 0f1b B8040000 		.4byte	.LLST27
 2736 0f1f 35       		.uleb128 0x35
 2737 0f20 72000000 		.4byte	.LASF139
 2738 0f24 01       		.byte	0x1
 2739 0f25 B2       		.byte	0xb2
 2740 0f26 850B0000 		.4byte	0xb85
 2741 0f2a 01       		.byte	0x1
 2742 0f2b 56       		.byte	0x56
 2743 0f2c 30       		.uleb128 0x30
 2744 0f2d 690B0000 		.4byte	0xb69
 2745 0f31 16000000 		.4byte	.LBB21
 2746 0f35 38000000 		.4byte	.Ldebug_ranges0+0x38
 2747 0f39 01       		.byte	0x1
 2748 0f3a B6       		.byte	0xb6
 2749 0f3b 490F0000 		.4byte	0xf49
 2750 0f3f 29       		.uleb128 0x29
 2751 0f40 7A0B0000 		.4byte	0xb7a
 2752 0f44 0A050000 		.4byte	.LLST28
 2753 0f48 00       		.byte	0
 2754 0f49 24       		.uleb128 0x24
 2755 0f4a 7C000000 		.4byte	.LVL53
 2756 0f4e 44100000 		.4byte	0x1044
 2757 0f52 630F0000 		.4byte	0xf63
 2758 0f56 25       		.uleb128 0x25
 2759 0f57 01       		.byte	0x1
 2760 0f58 53       		.byte	0x53
 2761 0f59 02       		.byte	0x2
 2762 0f5a 78       		.byte	0x78
 2763 0f5b 7E       		.sleb128 -2
 2764 0f5c 25       		.uleb128 0x25
 2765 0f5d 01       		.byte	0x1
 2766 0f5e 52       		.byte	0x52
 2767 0f5f 02       		.byte	0x2
 2768 0f60 75       		.byte	0x75
 2769 0f61 00       		.sleb128 0
 2770 0f62 00       		.byte	0
 2771 0f63 24       		.uleb128 0x24
 2772 0f64 92000000 		.4byte	.LVL54
 2773 0f68 6D100000 		.4byte	0x106d
 2774 0f6c 7D0F0000 		.4byte	0xf7d
 2775 0f70 25       		.uleb128 0x25
 2776 0f71 01       		.byte	0x1
 2777 0f72 53       		.byte	0x53
 2778 0f73 02       		.byte	0x2
 2779 0f74 75       		.byte	0x75
 2780 0f75 00       		.sleb128 0
 2781 0f76 25       		.uleb128 0x25
 2782 0f77 01       		.byte	0x1
 2783 0f78 52       		.byte	0x52
 2784 0f79 02       		.byte	0x2
 2785 0f7a 75       		.byte	0x75
 2786 0f7b 00       		.sleb128 0
 2787 0f7c 00       		.byte	0
ARM GAS  /tmp/ccgrWbgM.s 			page 50


 2788 0f7d 24       		.uleb128 0x24
 2789 0f7e D0000000 		.4byte	.LVL58
 2790 0f82 96100000 		.4byte	0x1096
 2791 0f86 980F0000 		.4byte	0xf98
 2792 0f8a 25       		.uleb128 0x25
 2793 0f8b 01       		.byte	0x1
 2794 0f8c 52       		.byte	0x52
 2795 0f8d 02       		.byte	0x2
 2796 0f8e 79       		.byte	0x79
 2797 0f8f 7E       		.sleb128 -2
 2798 0f90 25       		.uleb128 0x25
 2799 0f91 02       		.byte	0x2
 2800 0f92 7D       		.byte	0x7d
 2801 0f93 10       		.sleb128 16
 2802 0f94 02       		.byte	0x2
 2803 0f95 74       		.byte	0x74
 2804 0f96 00       		.sleb128 0
 2805 0f97 00       		.byte	0
 2806 0f98 26       		.uleb128 0x26
 2807 0f99 FE000000 		.4byte	.LVL62
 2808 0f9d 44100000 		.4byte	0x1044
 2809 0fa1 25       		.uleb128 0x25
 2810 0fa2 01       		.byte	0x1
 2811 0fa3 53       		.byte	0x53
 2812 0fa4 0C       		.byte	0xc
 2813 0fa5 75       		.byte	0x75
 2814 0fa6 00       		.sleb128 0
 2815 0fa7 3F       		.byte	0x3f
 2816 0fa8 24       		.byte	0x24
 2817 0fa9 75       		.byte	0x75
 2818 0faa 00       		.sleb128 0
 2819 0fab 1C       		.byte	0x1c
 2820 0fac 31       		.byte	0x31
 2821 0fad 24       		.byte	0x24
 2822 0fae 78       		.byte	0x78
 2823 0faf 00       		.sleb128 0
 2824 0fb0 22       		.byte	0x22
 2825 0fb1 25       		.uleb128 0x25
 2826 0fb2 01       		.byte	0x1
 2827 0fb3 52       		.byte	0x52
 2828 0fb4 0C       		.byte	0xc
 2829 0fb5 75       		.byte	0x75
 2830 0fb6 00       		.sleb128 0
 2831 0fb7 3F       		.byte	0x3f
 2832 0fb8 24       		.byte	0x24
 2833 0fb9 75       		.byte	0x75
 2834 0fba 00       		.sleb128 0
 2835 0fbb 1C       		.byte	0x1c
 2836 0fbc 31       		.byte	0x31
 2837 0fbd 24       		.byte	0x24
 2838 0fbe 78       		.byte	0x78
 2839 0fbf 00       		.sleb128 0
 2840 0fc0 22       		.byte	0x22
 2841 0fc1 00       		.byte	0
 2842 0fc2 00       		.byte	0
 2843 0fc3 35       		.uleb128 0x35
 2844 0fc4 CD060000 		.4byte	.LASF146
ARM GAS  /tmp/ccgrWbgM.s 			page 51


 2845 0fc8 01       		.byte	0x1
 2846 0fc9 4C       		.byte	0x4c
 2847 0fca D40F0000 		.4byte	0xfd4
 2848 0fce 05       		.byte	0x5
 2849 0fcf 03       		.byte	0x3
 2850 0fd0 00000000 		.4byte	checkboxVMT
 2851 0fd4 10       		.uleb128 0x10
 2852 0fd5 5E0B0000 		.4byte	0xb5e
 2853 0fd9 36       		.uleb128 0x36
 2854 0fda 90040000 		.4byte	.LASF162
 2855 0fde 12       		.byte	0x12
 2856 0fdf 9806     		.2byte	0x698
 2857 0fe1 31050000 		.4byte	0x531
 2858 0fe5 01       		.byte	0x1
 2859 0fe6 01       		.byte	0x1
 2860 0fe7 37       		.uleb128 0x37
 2861 0fe8 01       		.byte	0x1
 2862 0fe9 85030000 		.4byte	.LASF147
 2863 0fed 0C       		.byte	0xc
 2864 0fee C4       		.byte	0xc4
 2865 0fef 01       		.byte	0x1
 2866 0ff0 500C0000 		.4byte	0xc50
 2867 0ff4 01       		.byte	0x1
 2868 0ff5 04100000 		.4byte	0x1004
 2869 0ff9 16       		.uleb128 0x16
 2870 0ffa 7D060000 		.4byte	0x67d
 2871 0ffe 16       		.uleb128 0x16
 2872 0fff 500C0000 		.4byte	0xc50
 2873 1003 00       		.byte	0
 2874 1004 37       		.uleb128 0x37
 2875 1005 01       		.byte	0x1
 2876 1006 55020000 		.4byte	.LASF148
 2877 100a 0C       		.byte	0xc
 2878 100b D1       		.byte	0xd1
 2879 100c 01       		.byte	0x1
 2880 100d 08060000 		.4byte	0x608
 2881 1011 01       		.byte	0x1
 2882 1012 1C100000 		.4byte	0x101c
 2883 1016 16       		.uleb128 0x16
 2884 1017 500C0000 		.4byte	0xc50
 2885 101b 00       		.byte	0
 2886 101c 38       		.uleb128 0x38
 2887 101d 01       		.byte	0x1
 2888 101e 3A030000 		.4byte	.LASF150
 2889 1022 0C       		.byte	0xc
 2890 1023 D9       		.byte	0xd9
 2891 1024 01       		.byte	0x1
 2892 1025 01       		.byte	0x1
 2893 1026 30100000 		.4byte	0x1030
 2894 102a 16       		.uleb128 0x16
 2895 102b 500C0000 		.4byte	0xc50
 2896 102f 00       		.byte	0
 2897 1030 38       		.uleb128 0x38
 2898 1031 01       		.byte	0x1
 2899 1032 DB000000 		.4byte	.LASF151
 2900 1036 0F       		.byte	0xf
 2901 1037 C2       		.byte	0xc2
ARM GAS  /tmp/ccgrWbgM.s 			page 52


 2902 1038 01       		.byte	0x1
 2903 1039 01       		.byte	0x1
 2904 103a 44100000 		.4byte	0x1044
 2905 103e 16       		.uleb128 0x16
 2906 103f 44080000 		.4byte	0x844
 2907 1043 00       		.byte	0
 2908 1044 39       		.uleb128 0x39
 2909 1045 01       		.byte	0x1
 2910 1046 32000000 		.4byte	.LASF152
 2911 104a 0D       		.byte	0xd
 2912 104b 6801     		.2byte	0x168
 2913 104d 01       		.byte	0x1
 2914 104e 01       		.byte	0x1
 2915 104f 6D100000 		.4byte	0x106d
 2916 1053 16       		.uleb128 0x16
 2917 1054 EA060000 		.4byte	0x6ea
 2918 1058 16       		.uleb128 0x16
 2919 1059 EA060000 		.4byte	0x6ea
 2920 105d 16       		.uleb128 0x16
 2921 105e EA060000 		.4byte	0x6ea
 2922 1062 16       		.uleb128 0x16
 2923 1063 EA060000 		.4byte	0x6ea
 2924 1067 16       		.uleb128 0x16
 2925 1068 3B070000 		.4byte	0x73b
 2926 106c 00       		.byte	0
 2927 106d 39       		.uleb128 0x39
 2928 106e 01       		.byte	0x1
 2929 106f 75020000 		.4byte	.LASF153
 2930 1073 0D       		.byte	0xd
 2931 1074 6602     		.2byte	0x266
 2932 1076 01       		.byte	0x1
 2933 1077 01       		.byte	0x1
 2934 1078 96100000 		.4byte	0x1096
 2935 107c 16       		.uleb128 0x16
 2936 107d EA060000 		.4byte	0x6ea
 2937 1081 16       		.uleb128 0x16
 2938 1082 EA060000 		.4byte	0x6ea
 2939 1086 16       		.uleb128 0x16
 2940 1087 EA060000 		.4byte	0x6ea
 2941 108b 16       		.uleb128 0x16
 2942 108c EA060000 		.4byte	0x6ea
 2943 1090 16       		.uleb128 0x16
 2944 1091 3B070000 		.4byte	0x73b
 2945 1095 00       		.byte	0
 2946 1096 39       		.uleb128 0x39
 2947 1097 01       		.byte	0x1
 2948 1098 74060000 		.4byte	.LASF154
 2949 109c 0D       		.byte	0xd
 2950 109d C302     		.2byte	0x2c3
 2951 109f 01       		.byte	0x1
 2952 10a0 01       		.byte	0x1
 2953 10a1 D3100000 		.4byte	0x10d3
 2954 10a5 16       		.uleb128 0x16
 2955 10a6 EA060000 		.4byte	0x6ea
 2956 10aa 16       		.uleb128 0x16
 2957 10ab EA060000 		.4byte	0x6ea
 2958 10af 16       		.uleb128 0x16
ARM GAS  /tmp/ccgrWbgM.s 			page 53


 2959 10b0 EA060000 		.4byte	0x6ea
 2960 10b4 16       		.uleb128 0x16
 2961 10b5 EA060000 		.4byte	0x6ea
 2962 10b9 16       		.uleb128 0x16
 2963 10ba 19050000 		.4byte	0x519
 2964 10be 16       		.uleb128 0x16
 2965 10bf 1F070000 		.4byte	0x71f
 2966 10c3 16       		.uleb128 0x16
 2967 10c4 3B070000 		.4byte	0x73b
 2968 10c8 16       		.uleb128 0x16
 2969 10c9 3B070000 		.4byte	0x73b
 2970 10cd 16       		.uleb128 0x16
 2971 10ce 14070000 		.4byte	0x714
 2972 10d2 00       		.byte	0
 2973 10d3 37       		.uleb128 0x37
 2974 10d4 01       		.byte	0x1
 2975 10d5 8F020000 		.4byte	.LASF155
 2976 10d9 0F       		.byte	0xf
 2977 10da B0       		.byte	0xb0
 2978 10db 01       		.byte	0x1
 2979 10dc 44080000 		.4byte	0x844
 2980 10e0 01       		.byte	0x1
 2981 10e1 F5100000 		.4byte	0x10f5
 2982 10e5 16       		.uleb128 0x16
 2983 10e6 0C0B0000 		.4byte	0xb0c
 2984 10ea 16       		.uleb128 0x16
 2985 10eb 2A0E0000 		.4byte	0xe2a
 2986 10ef 16       		.uleb128 0x16
 2987 10f0 F5100000 		.4byte	0x10f5
 2988 10f4 00       		.byte	0
 2989 10f5 09       		.uleb128 0x9
 2990 10f6 04       		.byte	0x4
 2991 10f7 D40F0000 		.4byte	0xfd4
 2992 10fb 3A       		.uleb128 0x3a
 2993 10fc 01       		.byte	0x1
 2994 10fd FC000000 		.4byte	.LASF163
 2995 1101 0E       		.byte	0xe
 2996 1102 2501     		.2byte	0x125
 2997 1104 01       		.byte	0x1
 2998 1105 01       		.byte	0x1
 2999 1106 16       		.uleb128 0x16
 3000 1107 44080000 		.4byte	0x844
 3001 110b 16       		.uleb128 0x16
 3002 110c B1000000 		.4byte	0xb1
 3003 1110 00       		.byte	0
 3004 1111 00       		.byte	0
 3005              		.section	.debug_abbrev,"",%progbits
 3006              	.Ldebug_abbrev0:
 3007 0000 01       		.uleb128 0x1
 3008 0001 11       		.uleb128 0x11
 3009 0002 01       		.byte	0x1
 3010 0003 25       		.uleb128 0x25
 3011 0004 0E       		.uleb128 0xe
 3012 0005 13       		.uleb128 0x13
 3013 0006 0B       		.uleb128 0xb
 3014 0007 03       		.uleb128 0x3
 3015 0008 0E       		.uleb128 0xe
ARM GAS  /tmp/ccgrWbgM.s 			page 54


 3016 0009 1B       		.uleb128 0x1b
 3017 000a 0E       		.uleb128 0xe
 3018 000b 55       		.uleb128 0x55
 3019 000c 06       		.uleb128 0x6
 3020 000d 11       		.uleb128 0x11
 3021 000e 01       		.uleb128 0x1
 3022 000f 52       		.uleb128 0x52
 3023 0010 01       		.uleb128 0x1
 3024 0011 10       		.uleb128 0x10
 3025 0012 06       		.uleb128 0x6
 3026 0013 00       		.byte	0
 3027 0014 00       		.byte	0
 3028 0015 02       		.uleb128 0x2
 3029 0016 24       		.uleb128 0x24
 3030 0017 00       		.byte	0
 3031 0018 0B       		.uleb128 0xb
 3032 0019 0B       		.uleb128 0xb
 3033 001a 3E       		.uleb128 0x3e
 3034 001b 0B       		.uleb128 0xb
 3035 001c 03       		.uleb128 0x3
 3036 001d 08       		.uleb128 0x8
 3037 001e 00       		.byte	0
 3038 001f 00       		.byte	0
 3039 0020 03       		.uleb128 0x3
 3040 0021 16       		.uleb128 0x16
 3041 0022 00       		.byte	0
 3042 0023 03       		.uleb128 0x3
 3043 0024 0E       		.uleb128 0xe
 3044 0025 3A       		.uleb128 0x3a
 3045 0026 0B       		.uleb128 0xb
 3046 0027 3B       		.uleb128 0x3b
 3047 0028 0B       		.uleb128 0xb
 3048 0029 49       		.uleb128 0x49
 3049 002a 13       		.uleb128 0x13
 3050 002b 00       		.byte	0
 3051 002c 00       		.byte	0
 3052 002d 04       		.uleb128 0x4
 3053 002e 24       		.uleb128 0x24
 3054 002f 00       		.byte	0
 3055 0030 0B       		.uleb128 0xb
 3056 0031 0B       		.uleb128 0xb
 3057 0032 3E       		.uleb128 0x3e
 3058 0033 0B       		.uleb128 0xb
 3059 0034 03       		.uleb128 0x3
 3060 0035 0E       		.uleb128 0xe
 3061 0036 00       		.byte	0
 3062 0037 00       		.byte	0
 3063 0038 05       		.uleb128 0x5
 3064 0039 13       		.uleb128 0x13
 3065 003a 01       		.byte	0x1
 3066 003b 03       		.uleb128 0x3
 3067 003c 0E       		.uleb128 0xe
 3068 003d 0B       		.uleb128 0xb
 3069 003e 0B       		.uleb128 0xb
 3070 003f 3A       		.uleb128 0x3a
 3071 0040 0B       		.uleb128 0xb
 3072 0041 3B       		.uleb128 0x3b
ARM GAS  /tmp/ccgrWbgM.s 			page 55


 3073 0042 0B       		.uleb128 0xb
 3074 0043 01       		.uleb128 0x1
 3075 0044 13       		.uleb128 0x13
 3076 0045 00       		.byte	0
 3077 0046 00       		.byte	0
 3078 0047 06       		.uleb128 0x6
 3079 0048 0D       		.uleb128 0xd
 3080 0049 00       		.byte	0
 3081 004a 03       		.uleb128 0x3
 3082 004b 0E       		.uleb128 0xe
 3083 004c 3A       		.uleb128 0x3a
 3084 004d 0B       		.uleb128 0xb
 3085 004e 3B       		.uleb128 0x3b
 3086 004f 0B       		.uleb128 0xb
 3087 0050 49       		.uleb128 0x49
 3088 0051 13       		.uleb128 0x13
 3089 0052 38       		.uleb128 0x38
 3090 0053 0A       		.uleb128 0xa
 3091 0054 00       		.byte	0
 3092 0055 00       		.byte	0
 3093 0056 07       		.uleb128 0x7
 3094 0057 0D       		.uleb128 0xd
 3095 0058 00       		.byte	0
 3096 0059 03       		.uleb128 0x3
 3097 005a 08       		.uleb128 0x8
 3098 005b 3A       		.uleb128 0x3a
 3099 005c 0B       		.uleb128 0xb
 3100 005d 3B       		.uleb128 0x3b
 3101 005e 0B       		.uleb128 0xb
 3102 005f 49       		.uleb128 0x49
 3103 0060 13       		.uleb128 0x13
 3104 0061 38       		.uleb128 0x38
 3105 0062 0A       		.uleb128 0xa
 3106 0063 00       		.byte	0
 3107 0064 00       		.byte	0
 3108 0065 08       		.uleb128 0x8
 3109 0066 13       		.uleb128 0x13
 3110 0067 01       		.byte	0x1
 3111 0068 0B       		.uleb128 0xb
 3112 0069 0B       		.uleb128 0xb
 3113 006a 3A       		.uleb128 0x3a
 3114 006b 0B       		.uleb128 0xb
 3115 006c 3B       		.uleb128 0x3b
 3116 006d 0B       		.uleb128 0xb
 3117 006e 01       		.uleb128 0x1
 3118 006f 13       		.uleb128 0x13
 3119 0070 00       		.byte	0
 3120 0071 00       		.byte	0
 3121 0072 09       		.uleb128 0x9
 3122 0073 0F       		.uleb128 0xf
 3123 0074 00       		.byte	0
 3124 0075 0B       		.uleb128 0xb
 3125 0076 0B       		.uleb128 0xb
 3126 0077 49       		.uleb128 0x49
 3127 0078 13       		.uleb128 0x13
 3128 0079 00       		.byte	0
 3129 007a 00       		.byte	0
ARM GAS  /tmp/ccgrWbgM.s 			page 56


 3130 007b 0A       		.uleb128 0xa
 3131 007c 0F       		.uleb128 0xf
 3132 007d 00       		.byte	0
 3133 007e 0B       		.uleb128 0xb
 3134 007f 0B       		.uleb128 0xb
 3135 0080 00       		.byte	0
 3136 0081 00       		.byte	0
 3137 0082 0B       		.uleb128 0xb
 3138 0083 13       		.uleb128 0x13
 3139 0084 01       		.byte	0x1
 3140 0085 03       		.uleb128 0x3
 3141 0086 0E       		.uleb128 0xe
 3142 0087 0B       		.uleb128 0xb
 3143 0088 0B       		.uleb128 0xb
 3144 0089 3A       		.uleb128 0x3a
 3145 008a 0B       		.uleb128 0xb
 3146 008b 3B       		.uleb128 0x3b
 3147 008c 05       		.uleb128 0x5
 3148 008d 01       		.uleb128 0x1
 3149 008e 13       		.uleb128 0x13
 3150 008f 00       		.byte	0
 3151 0090 00       		.byte	0
 3152 0091 0C       		.uleb128 0xc
 3153 0092 0D       		.uleb128 0xd
 3154 0093 00       		.byte	0
 3155 0094 03       		.uleb128 0x3
 3156 0095 08       		.uleb128 0x8
 3157 0096 3A       		.uleb128 0x3a
 3158 0097 0B       		.uleb128 0xb
 3159 0098 3B       		.uleb128 0x3b
 3160 0099 05       		.uleb128 0x5
 3161 009a 49       		.uleb128 0x49
 3162 009b 13       		.uleb128 0x13
 3163 009c 38       		.uleb128 0x38
 3164 009d 0A       		.uleb128 0xa
 3165 009e 00       		.byte	0
 3166 009f 00       		.byte	0
 3167 00a0 0D       		.uleb128 0xd
 3168 00a1 35       		.uleb128 0x35
 3169 00a2 00       		.byte	0
 3170 00a3 49       		.uleb128 0x49
 3171 00a4 13       		.uleb128 0x13
 3172 00a5 00       		.byte	0
 3173 00a6 00       		.byte	0
 3174 00a7 0E       		.uleb128 0xe
 3175 00a8 17       		.uleb128 0x17
 3176 00a9 01       		.byte	0x1
 3177 00aa 0B       		.uleb128 0xb
 3178 00ab 0B       		.uleb128 0xb
 3179 00ac 3A       		.uleb128 0x3a
 3180 00ad 0B       		.uleb128 0xb
 3181 00ae 3B       		.uleb128 0x3b
 3182 00af 0B       		.uleb128 0xb
 3183 00b0 01       		.uleb128 0x1
 3184 00b1 13       		.uleb128 0x13
 3185 00b2 00       		.byte	0
 3186 00b3 00       		.byte	0
ARM GAS  /tmp/ccgrWbgM.s 			page 57


 3187 00b4 0F       		.uleb128 0xf
 3188 00b5 0D       		.uleb128 0xd
 3189 00b6 00       		.byte	0
 3190 00b7 03       		.uleb128 0x3
 3191 00b8 0E       		.uleb128 0xe
 3192 00b9 3A       		.uleb128 0x3a
 3193 00ba 0B       		.uleb128 0xb
 3194 00bb 3B       		.uleb128 0x3b
 3195 00bc 0B       		.uleb128 0xb
 3196 00bd 49       		.uleb128 0x49
 3197 00be 13       		.uleb128 0x13
 3198 00bf 00       		.byte	0
 3199 00c0 00       		.byte	0
 3200 00c1 10       		.uleb128 0x10
 3201 00c2 26       		.uleb128 0x26
 3202 00c3 00       		.byte	0
 3203 00c4 49       		.uleb128 0x49
 3204 00c5 13       		.uleb128 0x13
 3205 00c6 00       		.byte	0
 3206 00c7 00       		.byte	0
 3207 00c8 11       		.uleb128 0x11
 3208 00c9 17       		.uleb128 0x17
 3209 00ca 01       		.byte	0x1
 3210 00cb 03       		.uleb128 0x3
 3211 00cc 0E       		.uleb128 0xe
 3212 00cd 0B       		.uleb128 0xb
 3213 00ce 0B       		.uleb128 0xb
 3214 00cf 3A       		.uleb128 0x3a
 3215 00d0 0B       		.uleb128 0xb
 3216 00d1 3B       		.uleb128 0x3b
 3217 00d2 0B       		.uleb128 0xb
 3218 00d3 01       		.uleb128 0x1
 3219 00d4 13       		.uleb128 0x13
 3220 00d5 00       		.byte	0
 3221 00d6 00       		.byte	0
 3222 00d7 12       		.uleb128 0x12
 3223 00d8 0D       		.uleb128 0xd
 3224 00d9 00       		.byte	0
 3225 00da 03       		.uleb128 0x3
 3226 00db 08       		.uleb128 0x8
 3227 00dc 3A       		.uleb128 0x3a
 3228 00dd 0B       		.uleb128 0xb
 3229 00de 3B       		.uleb128 0x3b
 3230 00df 0B       		.uleb128 0xb
 3231 00e0 49       		.uleb128 0x49
 3232 00e1 13       		.uleb128 0x13
 3233 00e2 00       		.byte	0
 3234 00e3 00       		.byte	0
 3235 00e4 13       		.uleb128 0x13
 3236 00e5 01       		.uleb128 0x1
 3237 00e6 01       		.byte	0x1
 3238 00e7 49       		.uleb128 0x49
 3239 00e8 13       		.uleb128 0x13
 3240 00e9 01       		.uleb128 0x1
 3241 00ea 13       		.uleb128 0x13
 3242 00eb 00       		.byte	0
 3243 00ec 00       		.byte	0
ARM GAS  /tmp/ccgrWbgM.s 			page 58


 3244 00ed 14       		.uleb128 0x14
 3245 00ee 21       		.uleb128 0x21
 3246 00ef 00       		.byte	0
 3247 00f0 49       		.uleb128 0x49
 3248 00f1 13       		.uleb128 0x13
 3249 00f2 2F       		.uleb128 0x2f
 3250 00f3 0B       		.uleb128 0xb
 3251 00f4 00       		.byte	0
 3252 00f5 00       		.byte	0
 3253 00f6 15       		.uleb128 0x15
 3254 00f7 15       		.uleb128 0x15
 3255 00f8 01       		.byte	0x1
 3256 00f9 27       		.uleb128 0x27
 3257 00fa 0C       		.uleb128 0xc
 3258 00fb 01       		.uleb128 0x1
 3259 00fc 13       		.uleb128 0x13
 3260 00fd 00       		.byte	0
 3261 00fe 00       		.byte	0
 3262 00ff 16       		.uleb128 0x16
 3263 0100 05       		.uleb128 0x5
 3264 0101 00       		.byte	0
 3265 0102 49       		.uleb128 0x49
 3266 0103 13       		.uleb128 0x13
 3267 0104 00       		.byte	0
 3268 0105 00       		.byte	0
 3269 0106 17       		.uleb128 0x17
 3270 0107 13       		.uleb128 0x13
 3271 0108 00       		.byte	0
 3272 0109 03       		.uleb128 0x3
 3273 010a 0E       		.uleb128 0xe
 3274 010b 3C       		.uleb128 0x3c
 3275 010c 0C       		.uleb128 0xc
 3276 010d 00       		.byte	0
 3277 010e 00       		.byte	0
 3278 010f 18       		.uleb128 0x18
 3279 0110 04       		.uleb128 0x4
 3280 0111 01       		.byte	0x1
 3281 0112 03       		.uleb128 0x3
 3282 0113 0E       		.uleb128 0xe
 3283 0114 0B       		.uleb128 0xb
 3284 0115 0B       		.uleb128 0xb
 3285 0116 3A       		.uleb128 0x3a
 3286 0117 0B       		.uleb128 0xb
 3287 0118 3B       		.uleb128 0x3b
 3288 0119 0B       		.uleb128 0xb
 3289 011a 01       		.uleb128 0x1
 3290 011b 13       		.uleb128 0x13
 3291 011c 00       		.byte	0
 3292 011d 00       		.byte	0
 3293 011e 19       		.uleb128 0x19
 3294 011f 28       		.uleb128 0x28
 3295 0120 00       		.byte	0
 3296 0121 03       		.uleb128 0x3
 3297 0122 0E       		.uleb128 0xe
 3298 0123 1C       		.uleb128 0x1c
 3299 0124 0D       		.uleb128 0xd
 3300 0125 00       		.byte	0
ARM GAS  /tmp/ccgrWbgM.s 			page 59


 3301 0126 00       		.byte	0
 3302 0127 1A       		.uleb128 0x1a
 3303 0128 0D       		.uleb128 0xd
 3304 0129 00       		.byte	0
 3305 012a 49       		.uleb128 0x49
 3306 012b 13       		.uleb128 0x13
 3307 012c 38       		.uleb128 0x38
 3308 012d 0A       		.uleb128 0xa
 3309 012e 00       		.byte	0
 3310 012f 00       		.byte	0
 3311 0130 1B       		.uleb128 0x1b
 3312 0131 2E       		.uleb128 0x2e
 3313 0132 01       		.byte	0x1
 3314 0133 03       		.uleb128 0x3
 3315 0134 0E       		.uleb128 0xe
 3316 0135 3A       		.uleb128 0x3a
 3317 0136 0B       		.uleb128 0xb
 3318 0137 3B       		.uleb128 0x3b
 3319 0138 0B       		.uleb128 0xb
 3320 0139 27       		.uleb128 0x27
 3321 013a 0C       		.uleb128 0xc
 3322 013b 49       		.uleb128 0x49
 3323 013c 13       		.uleb128 0x13
 3324 013d 20       		.uleb128 0x20
 3325 013e 0B       		.uleb128 0xb
 3326 013f 01       		.uleb128 0x1
 3327 0140 13       		.uleb128 0x13
 3328 0141 00       		.byte	0
 3329 0142 00       		.byte	0
 3330 0143 1C       		.uleb128 0x1c
 3331 0144 05       		.uleb128 0x5
 3332 0145 00       		.byte	0
 3333 0146 03       		.uleb128 0x3
 3334 0147 08       		.uleb128 0x8
 3335 0148 3A       		.uleb128 0x3a
 3336 0149 0B       		.uleb128 0xb
 3337 014a 3B       		.uleb128 0x3b
 3338 014b 0B       		.uleb128 0xb
 3339 014c 49       		.uleb128 0x49
 3340 014d 13       		.uleb128 0x13
 3341 014e 00       		.byte	0
 3342 014f 00       		.byte	0
 3343 0150 1D       		.uleb128 0x1d
 3344 0151 2E       		.uleb128 0x2e
 3345 0152 01       		.byte	0x1
 3346 0153 3F       		.uleb128 0x3f
 3347 0154 0C       		.uleb128 0xc
 3348 0155 03       		.uleb128 0x3
 3349 0156 0E       		.uleb128 0xe
 3350 0157 3A       		.uleb128 0x3a
 3351 0158 0B       		.uleb128 0xb
 3352 0159 3B       		.uleb128 0x3b
 3353 015a 0B       		.uleb128 0xb
 3354 015b 27       		.uleb128 0x27
 3355 015c 0C       		.uleb128 0xc
 3356 015d 20       		.uleb128 0x20
 3357 015e 0B       		.uleb128 0xb
ARM GAS  /tmp/ccgrWbgM.s 			page 60


 3358 015f 01       		.uleb128 0x1
 3359 0160 13       		.uleb128 0x13
 3360 0161 00       		.byte	0
 3361 0162 00       		.byte	0
 3362 0163 1E       		.uleb128 0x1e
 3363 0164 05       		.uleb128 0x5
 3364 0165 00       		.byte	0
 3365 0166 03       		.uleb128 0x3
 3366 0167 0E       		.uleb128 0xe
 3367 0168 3A       		.uleb128 0x3a
 3368 0169 0B       		.uleb128 0xb
 3369 016a 3B       		.uleb128 0x3b
 3370 016b 0B       		.uleb128 0xb
 3371 016c 49       		.uleb128 0x49
 3372 016d 13       		.uleb128 0x13
 3373 016e 00       		.byte	0
 3374 016f 00       		.byte	0
 3375 0170 1F       		.uleb128 0x1f
 3376 0171 34       		.uleb128 0x34
 3377 0172 00       		.byte	0
 3378 0173 03       		.uleb128 0x3
 3379 0174 08       		.uleb128 0x8
 3380 0175 3A       		.uleb128 0x3a
 3381 0176 0B       		.uleb128 0xb
 3382 0177 3B       		.uleb128 0x3b
 3383 0178 0B       		.uleb128 0xb
 3384 0179 49       		.uleb128 0x49
 3385 017a 13       		.uleb128 0x13
 3386 017b 00       		.byte	0
 3387 017c 00       		.byte	0
 3388 017d 20       		.uleb128 0x20
 3389 017e 34       		.uleb128 0x34
 3390 017f 00       		.byte	0
 3391 0180 03       		.uleb128 0x3
 3392 0181 0E       		.uleb128 0xe
 3393 0182 3A       		.uleb128 0x3a
 3394 0183 0B       		.uleb128 0xb
 3395 0184 3B       		.uleb128 0x3b
 3396 0185 0B       		.uleb128 0xb
 3397 0186 49       		.uleb128 0x49
 3398 0187 13       		.uleb128 0x13
 3399 0188 00       		.byte	0
 3400 0189 00       		.byte	0
 3401 018a 21       		.uleb128 0x21
 3402 018b 2E       		.uleb128 0x2e
 3403 018c 01       		.byte	0x1
 3404 018d 03       		.uleb128 0x3
 3405 018e 0E       		.uleb128 0xe
 3406 018f 3A       		.uleb128 0x3a
 3407 0190 0B       		.uleb128 0xb
 3408 0191 3B       		.uleb128 0x3b
 3409 0192 0B       		.uleb128 0xb
 3410 0193 27       		.uleb128 0x27
 3411 0194 0C       		.uleb128 0xc
 3412 0195 11       		.uleb128 0x11
 3413 0196 01       		.uleb128 0x1
 3414 0197 12       		.uleb128 0x12
ARM GAS  /tmp/ccgrWbgM.s 			page 61


 3415 0198 01       		.uleb128 0x1
 3416 0199 40       		.uleb128 0x40
 3417 019a 06       		.uleb128 0x6
 3418 019b 9742     		.uleb128 0x2117
 3419 019d 0C       		.uleb128 0xc
 3420 019e 01       		.uleb128 0x1
 3421 019f 13       		.uleb128 0x13
 3422 01a0 00       		.byte	0
 3423 01a1 00       		.byte	0
 3424 01a2 22       		.uleb128 0x22
 3425 01a3 05       		.uleb128 0x5
 3426 01a4 00       		.byte	0
 3427 01a5 03       		.uleb128 0x3
 3428 01a6 08       		.uleb128 0x8
 3429 01a7 3A       		.uleb128 0x3a
 3430 01a8 0B       		.uleb128 0xb
 3431 01a9 3B       		.uleb128 0x3b
 3432 01aa 0B       		.uleb128 0xb
 3433 01ab 49       		.uleb128 0x49
 3434 01ac 13       		.uleb128 0x13
 3435 01ad 02       		.uleb128 0x2
 3436 01ae 06       		.uleb128 0x6
 3437 01af 00       		.byte	0
 3438 01b0 00       		.byte	0
 3439 01b1 23       		.uleb128 0x23
 3440 01b2 34       		.uleb128 0x34
 3441 01b3 00       		.byte	0
 3442 01b4 03       		.uleb128 0x3
 3443 01b5 08       		.uleb128 0x8
 3444 01b6 3A       		.uleb128 0x3a
 3445 01b7 0B       		.uleb128 0xb
 3446 01b8 3B       		.uleb128 0x3b
 3447 01b9 0B       		.uleb128 0xb
 3448 01ba 49       		.uleb128 0x49
 3449 01bb 13       		.uleb128 0x13
 3450 01bc 02       		.uleb128 0x2
 3451 01bd 06       		.uleb128 0x6
 3452 01be 00       		.byte	0
 3453 01bf 00       		.byte	0
 3454 01c0 24       		.uleb128 0x24
 3455 01c1 898201   		.uleb128 0x4109
 3456 01c4 01       		.byte	0x1
 3457 01c5 11       		.uleb128 0x11
 3458 01c6 01       		.uleb128 0x1
 3459 01c7 31       		.uleb128 0x31
 3460 01c8 13       		.uleb128 0x13
 3461 01c9 01       		.uleb128 0x1
 3462 01ca 13       		.uleb128 0x13
 3463 01cb 00       		.byte	0
 3464 01cc 00       		.byte	0
 3465 01cd 25       		.uleb128 0x25
 3466 01ce 8A8201   		.uleb128 0x410a
 3467 01d1 00       		.byte	0
 3468 01d2 02       		.uleb128 0x2
 3469 01d3 0A       		.uleb128 0xa
 3470 01d4 9142     		.uleb128 0x2111
 3471 01d6 0A       		.uleb128 0xa
ARM GAS  /tmp/ccgrWbgM.s 			page 62


 3472 01d7 00       		.byte	0
 3473 01d8 00       		.byte	0
 3474 01d9 26       		.uleb128 0x26
 3475 01da 898201   		.uleb128 0x4109
 3476 01dd 01       		.byte	0x1
 3477 01de 11       		.uleb128 0x11
 3478 01df 01       		.uleb128 0x1
 3479 01e0 31       		.uleb128 0x31
 3480 01e1 13       		.uleb128 0x13
 3481 01e2 00       		.byte	0
 3482 01e3 00       		.byte	0
 3483 01e4 27       		.uleb128 0x27
 3484 01e5 898201   		.uleb128 0x4109
 3485 01e8 01       		.byte	0x1
 3486 01e9 11       		.uleb128 0x11
 3487 01ea 01       		.uleb128 0x1
 3488 01eb 9542     		.uleb128 0x2115
 3489 01ed 0C       		.uleb128 0xc
 3490 01ee 31       		.uleb128 0x31
 3491 01ef 13       		.uleb128 0x13
 3492 01f0 00       		.byte	0
 3493 01f1 00       		.byte	0
 3494 01f2 28       		.uleb128 0x28
 3495 01f3 2E       		.uleb128 0x2e
 3496 01f4 01       		.byte	0x1
 3497 01f5 31       		.uleb128 0x31
 3498 01f6 13       		.uleb128 0x13
 3499 01f7 11       		.uleb128 0x11
 3500 01f8 01       		.uleb128 0x1
 3501 01f9 12       		.uleb128 0x12
 3502 01fa 01       		.uleb128 0x1
 3503 01fb 40       		.uleb128 0x40
 3504 01fc 06       		.uleb128 0x6
 3505 01fd 9742     		.uleb128 0x2117
 3506 01ff 0C       		.uleb128 0xc
 3507 0200 01       		.uleb128 0x1
 3508 0201 13       		.uleb128 0x13
 3509 0202 00       		.byte	0
 3510 0203 00       		.byte	0
 3511 0204 29       		.uleb128 0x29
 3512 0205 05       		.uleb128 0x5
 3513 0206 00       		.byte	0
 3514 0207 31       		.uleb128 0x31
 3515 0208 13       		.uleb128 0x13
 3516 0209 02       		.uleb128 0x2
 3517 020a 06       		.uleb128 0x6
 3518 020b 00       		.byte	0
 3519 020c 00       		.byte	0
 3520 020d 2A       		.uleb128 0x2a
 3521 020e 34       		.uleb128 0x34
 3522 020f 00       		.byte	0
 3523 0210 31       		.uleb128 0x31
 3524 0211 13       		.uleb128 0x13
 3525 0212 00       		.byte	0
 3526 0213 00       		.byte	0
 3527 0214 2B       		.uleb128 0x2b
 3528 0215 1D       		.uleb128 0x1d
ARM GAS  /tmp/ccgrWbgM.s 			page 63


 3529 0216 01       		.byte	0x1
 3530 0217 31       		.uleb128 0x31
 3531 0218 13       		.uleb128 0x13
 3532 0219 11       		.uleb128 0x11
 3533 021a 01       		.uleb128 0x1
 3534 021b 12       		.uleb128 0x12
 3535 021c 01       		.uleb128 0x1
 3536 021d 58       		.uleb128 0x58
 3537 021e 0B       		.uleb128 0xb
 3538 021f 59       		.uleb128 0x59
 3539 0220 0B       		.uleb128 0xb
 3540 0221 00       		.byte	0
 3541 0222 00       		.byte	0
 3542 0223 2C       		.uleb128 0x2c
 3543 0224 0B       		.uleb128 0xb
 3544 0225 01       		.byte	0x1
 3545 0226 55       		.uleb128 0x55
 3546 0227 06       		.uleb128 0x6
 3547 0228 00       		.byte	0
 3548 0229 00       		.byte	0
 3549 022a 2D       		.uleb128 0x2d
 3550 022b 34       		.uleb128 0x34
 3551 022c 00       		.byte	0
 3552 022d 31       		.uleb128 0x31
 3553 022e 13       		.uleb128 0x13
 3554 022f 02       		.uleb128 0x2
 3555 0230 06       		.uleb128 0x6
 3556 0231 00       		.byte	0
 3557 0232 00       		.byte	0
 3558 0233 2E       		.uleb128 0x2e
 3559 0234 34       		.uleb128 0x34
 3560 0235 00       		.byte	0
 3561 0236 31       		.uleb128 0x31
 3562 0237 13       		.uleb128 0x13
 3563 0238 02       		.uleb128 0x2
 3564 0239 0A       		.uleb128 0xa
 3565 023a 00       		.byte	0
 3566 023b 00       		.byte	0
 3567 023c 2F       		.uleb128 0x2f
 3568 023d 05       		.uleb128 0x5
 3569 023e 00       		.byte	0
 3570 023f 31       		.uleb128 0x31
 3571 0240 13       		.uleb128 0x13
 3572 0241 00       		.byte	0
 3573 0242 00       		.byte	0
 3574 0243 30       		.uleb128 0x30
 3575 0244 1D       		.uleb128 0x1d
 3576 0245 01       		.byte	0x1
 3577 0246 31       		.uleb128 0x31
 3578 0247 13       		.uleb128 0x13
 3579 0248 52       		.uleb128 0x52
 3580 0249 01       		.uleb128 0x1
 3581 024a 55       		.uleb128 0x55
 3582 024b 06       		.uleb128 0x6
 3583 024c 58       		.uleb128 0x58
 3584 024d 0B       		.uleb128 0xb
 3585 024e 59       		.uleb128 0x59
ARM GAS  /tmp/ccgrWbgM.s 			page 64


 3586 024f 0B       		.uleb128 0xb
 3587 0250 01       		.uleb128 0x1
 3588 0251 13       		.uleb128 0x13
 3589 0252 00       		.byte	0
 3590 0253 00       		.byte	0
 3591 0254 31       		.uleb128 0x31
 3592 0255 2E       		.uleb128 0x2e
 3593 0256 01       		.byte	0x1
 3594 0257 3F       		.uleb128 0x3f
 3595 0258 0C       		.uleb128 0xc
 3596 0259 03       		.uleb128 0x3
 3597 025a 0E       		.uleb128 0xe
 3598 025b 3A       		.uleb128 0x3a
 3599 025c 0B       		.uleb128 0xb
 3600 025d 3B       		.uleb128 0x3b
 3601 025e 0B       		.uleb128 0xb
 3602 025f 27       		.uleb128 0x27
 3603 0260 0C       		.uleb128 0xc
 3604 0261 49       		.uleb128 0x49
 3605 0262 13       		.uleb128 0x13
 3606 0263 11       		.uleb128 0x11
 3607 0264 01       		.uleb128 0x1
 3608 0265 12       		.uleb128 0x12
 3609 0266 01       		.uleb128 0x1
 3610 0267 40       		.uleb128 0x40
 3611 0268 06       		.uleb128 0x6
 3612 0269 9742     		.uleb128 0x2117
 3613 026b 0C       		.uleb128 0xc
 3614 026c 01       		.uleb128 0x1
 3615 026d 13       		.uleb128 0x13
 3616 026e 00       		.byte	0
 3617 026f 00       		.byte	0
 3618 0270 32       		.uleb128 0x32
 3619 0271 05       		.uleb128 0x5
 3620 0272 00       		.byte	0
 3621 0273 03       		.uleb128 0x3
 3622 0274 0E       		.uleb128 0xe
 3623 0275 3A       		.uleb128 0x3a
 3624 0276 0B       		.uleb128 0xb
 3625 0277 3B       		.uleb128 0x3b
 3626 0278 0B       		.uleb128 0xb
 3627 0279 49       		.uleb128 0x49
 3628 027a 13       		.uleb128 0x13
 3629 027b 02       		.uleb128 0x2
 3630 027c 06       		.uleb128 0x6
 3631 027d 00       		.byte	0
 3632 027e 00       		.byte	0
 3633 027f 33       		.uleb128 0x33
 3634 0280 2E       		.uleb128 0x2e
 3635 0281 01       		.byte	0x1
 3636 0282 3F       		.uleb128 0x3f
 3637 0283 0C       		.uleb128 0xc
 3638 0284 03       		.uleb128 0x3
 3639 0285 0E       		.uleb128 0xe
 3640 0286 3A       		.uleb128 0x3a
 3641 0287 0B       		.uleb128 0xb
 3642 0288 3B       		.uleb128 0x3b
ARM GAS  /tmp/ccgrWbgM.s 			page 65


 3643 0289 0B       		.uleb128 0xb
 3644 028a 27       		.uleb128 0x27
 3645 028b 0C       		.uleb128 0xc
 3646 028c 11       		.uleb128 0x11
 3647 028d 01       		.uleb128 0x1
 3648 028e 12       		.uleb128 0x12
 3649 028f 01       		.uleb128 0x1
 3650 0290 40       		.uleb128 0x40
 3651 0291 06       		.uleb128 0x6
 3652 0292 9742     		.uleb128 0x2117
 3653 0294 0C       		.uleb128 0xc
 3654 0295 01       		.uleb128 0x1
 3655 0296 13       		.uleb128 0x13
 3656 0297 00       		.byte	0
 3657 0298 00       		.byte	0
 3658 0299 34       		.uleb128 0x34
 3659 029a 2E       		.uleb128 0x2e
 3660 029b 01       		.byte	0x1
 3661 029c 3F       		.uleb128 0x3f
 3662 029d 0C       		.uleb128 0xc
 3663 029e 03       		.uleb128 0x3
 3664 029f 0E       		.uleb128 0xe
 3665 02a0 3A       		.uleb128 0x3a
 3666 02a1 0B       		.uleb128 0xb
 3667 02a2 3B       		.uleb128 0x3b
 3668 02a3 0B       		.uleb128 0xb
 3669 02a4 27       		.uleb128 0x27
 3670 02a5 0C       		.uleb128 0xc
 3671 02a6 49       		.uleb128 0x49
 3672 02a7 13       		.uleb128 0x13
 3673 02a8 11       		.uleb128 0x11
 3674 02a9 01       		.uleb128 0x1
 3675 02aa 12       		.uleb128 0x12
 3676 02ab 01       		.uleb128 0x1
 3677 02ac 40       		.uleb128 0x40
 3678 02ad 0A       		.uleb128 0xa
 3679 02ae 9742     		.uleb128 0x2117
 3680 02b0 0C       		.uleb128 0xc
 3681 02b1 01       		.uleb128 0x1
 3682 02b2 13       		.uleb128 0x13
 3683 02b3 00       		.byte	0
 3684 02b4 00       		.byte	0
 3685 02b5 35       		.uleb128 0x35
 3686 02b6 34       		.uleb128 0x34
 3687 02b7 00       		.byte	0
 3688 02b8 03       		.uleb128 0x3
 3689 02b9 0E       		.uleb128 0xe
 3690 02ba 3A       		.uleb128 0x3a
 3691 02bb 0B       		.uleb128 0xb
 3692 02bc 3B       		.uleb128 0x3b
 3693 02bd 0B       		.uleb128 0xb
 3694 02be 49       		.uleb128 0x49
 3695 02bf 13       		.uleb128 0x13
 3696 02c0 02       		.uleb128 0x2
 3697 02c1 0A       		.uleb128 0xa
 3698 02c2 00       		.byte	0
 3699 02c3 00       		.byte	0
ARM GAS  /tmp/ccgrWbgM.s 			page 66


 3700 02c4 36       		.uleb128 0x36
 3701 02c5 34       		.uleb128 0x34
 3702 02c6 00       		.byte	0
 3703 02c7 03       		.uleb128 0x3
 3704 02c8 0E       		.uleb128 0xe
 3705 02c9 3A       		.uleb128 0x3a
 3706 02ca 0B       		.uleb128 0xb
 3707 02cb 3B       		.uleb128 0x3b
 3708 02cc 05       		.uleb128 0x5
 3709 02cd 49       		.uleb128 0x49
 3710 02ce 13       		.uleb128 0x13
 3711 02cf 3F       		.uleb128 0x3f
 3712 02d0 0C       		.uleb128 0xc
 3713 02d1 3C       		.uleb128 0x3c
 3714 02d2 0C       		.uleb128 0xc
 3715 02d3 00       		.byte	0
 3716 02d4 00       		.byte	0
 3717 02d5 37       		.uleb128 0x37
 3718 02d6 2E       		.uleb128 0x2e
 3719 02d7 01       		.byte	0x1
 3720 02d8 3F       		.uleb128 0x3f
 3721 02d9 0C       		.uleb128 0xc
 3722 02da 03       		.uleb128 0x3
 3723 02db 0E       		.uleb128 0xe
 3724 02dc 3A       		.uleb128 0x3a
 3725 02dd 0B       		.uleb128 0xb
 3726 02de 3B       		.uleb128 0x3b
 3727 02df 0B       		.uleb128 0xb
 3728 02e0 27       		.uleb128 0x27
 3729 02e1 0C       		.uleb128 0xc
 3730 02e2 49       		.uleb128 0x49
 3731 02e3 13       		.uleb128 0x13
 3732 02e4 3C       		.uleb128 0x3c
 3733 02e5 0C       		.uleb128 0xc
 3734 02e6 01       		.uleb128 0x1
 3735 02e7 13       		.uleb128 0x13
 3736 02e8 00       		.byte	0
 3737 02e9 00       		.byte	0
 3738 02ea 38       		.uleb128 0x38
 3739 02eb 2E       		.uleb128 0x2e
 3740 02ec 01       		.byte	0x1
 3741 02ed 3F       		.uleb128 0x3f
 3742 02ee 0C       		.uleb128 0xc
 3743 02ef 03       		.uleb128 0x3
 3744 02f0 0E       		.uleb128 0xe
 3745 02f1 3A       		.uleb128 0x3a
 3746 02f2 0B       		.uleb128 0xb
 3747 02f3 3B       		.uleb128 0x3b
 3748 02f4 0B       		.uleb128 0xb
 3749 02f5 27       		.uleb128 0x27
 3750 02f6 0C       		.uleb128 0xc
 3751 02f7 3C       		.uleb128 0x3c
 3752 02f8 0C       		.uleb128 0xc
 3753 02f9 01       		.uleb128 0x1
 3754 02fa 13       		.uleb128 0x13
 3755 02fb 00       		.byte	0
 3756 02fc 00       		.byte	0
ARM GAS  /tmp/ccgrWbgM.s 			page 67


 3757 02fd 39       		.uleb128 0x39
 3758 02fe 2E       		.uleb128 0x2e
 3759 02ff 01       		.byte	0x1
 3760 0300 3F       		.uleb128 0x3f
 3761 0301 0C       		.uleb128 0xc
 3762 0302 03       		.uleb128 0x3
 3763 0303 0E       		.uleb128 0xe
 3764 0304 3A       		.uleb128 0x3a
 3765 0305 0B       		.uleb128 0xb
 3766 0306 3B       		.uleb128 0x3b
 3767 0307 05       		.uleb128 0x5
 3768 0308 27       		.uleb128 0x27
 3769 0309 0C       		.uleb128 0xc
 3770 030a 3C       		.uleb128 0x3c
 3771 030b 0C       		.uleb128 0xc
 3772 030c 01       		.uleb128 0x1
 3773 030d 13       		.uleb128 0x13
 3774 030e 00       		.byte	0
 3775 030f 00       		.byte	0
 3776 0310 3A       		.uleb128 0x3a
 3777 0311 2E       		.uleb128 0x2e
 3778 0312 01       		.byte	0x1
 3779 0313 3F       		.uleb128 0x3f
 3780 0314 0C       		.uleb128 0xc
 3781 0315 03       		.uleb128 0x3
 3782 0316 0E       		.uleb128 0xe
 3783 0317 3A       		.uleb128 0x3a
 3784 0318 0B       		.uleb128 0xb
 3785 0319 3B       		.uleb128 0x3b
 3786 031a 05       		.uleb128 0x5
 3787 031b 27       		.uleb128 0x27
 3788 031c 0C       		.uleb128 0xc
 3789 031d 3C       		.uleb128 0x3c
 3790 031e 0C       		.uleb128 0xc
 3791 031f 00       		.byte	0
 3792 0320 00       		.byte	0
 3793 0321 00       		.byte	0
 3794              		.section	.debug_loc,"",%progbits
 3795              	.Ldebug_loc0:
 3796              	.LLST0:
 3797 0000 00000000 		.4byte	.LFB118
 3798 0004 02000000 		.4byte	.LCFI0
 3799 0008 0200     		.2byte	0x2
 3800 000a 7D       		.byte	0x7d
 3801 000b 00       		.sleb128 0
 3802 000c 02000000 		.4byte	.LCFI0
 3803 0010 3C000000 		.4byte	.LFE118
 3804 0014 0200     		.2byte	0x2
 3805 0016 7D       		.byte	0x7d
 3806 0017 10       		.sleb128 16
 3807 0018 00000000 		.4byte	0
 3808 001c 00000000 		.4byte	0
 3809              	.LLST1:
 3810 0020 00000000 		.4byte	.LVL0
 3811 0024 0A000000 		.4byte	.LVL1
 3812 0028 0100     		.2byte	0x1
 3813 002a 50       		.byte	0x50
ARM GAS  /tmp/ccgrWbgM.s 			page 68


 3814 002b 0A000000 		.4byte	.LVL1
 3815 002f 3C000000 		.4byte	.LFE118
 3816 0033 0100     		.2byte	0x1
 3817 0035 55       		.byte	0x55
 3818 0036 00000000 		.4byte	0
 3819 003a 00000000 		.4byte	0
 3820              	.LLST2:
 3821 003e 00000000 		.4byte	.LVL0
 3822 0042 0A000000 		.4byte	.LVL1
 3823 0046 0200     		.2byte	0x2
 3824 0048 30       		.byte	0x30
 3825 0049 9F       		.byte	0x9f
 3826 004a 0A000000 		.4byte	.LVL1
 3827 004e 12000000 		.4byte	.LVL2
 3828 0052 0100     		.2byte	0x1
 3829 0054 54       		.byte	0x54
 3830 0055 12000000 		.4byte	.LVL2
 3831 0059 19000000 		.4byte	.LVL3-1
 3832 005d 0100     		.2byte	0x1
 3833 005f 50       		.byte	0x50
 3834 0060 19000000 		.4byte	.LVL3-1
 3835 0064 34000000 		.4byte	.LVL6
 3836 0068 0100     		.2byte	0x1
 3837 006a 54       		.byte	0x54
 3838 006b 34000000 		.4byte	.LVL6
 3839 006f 3C000000 		.4byte	.LFE118
 3840 0073 0100     		.2byte	0x1
 3841 0075 50       		.byte	0x50
 3842 0076 00000000 		.4byte	0
 3843 007a 00000000 		.4byte	0
 3844              	.LLST3:
 3845 007e 1A000000 		.4byte	.LVL3
 3846 0082 1E000000 		.4byte	.LVL4
 3847 0086 0100     		.2byte	0x1
 3848 0088 50       		.byte	0x50
 3849 0089 1E000000 		.4byte	.LVL4
 3850 008d 31000000 		.4byte	.LVL5-1
 3851 0091 0100     		.2byte	0x1
 3852 0093 53       		.byte	0x53
 3853 0094 00000000 		.4byte	0
 3854 0098 00000000 		.4byte	0
 3855              	.LLST4:
 3856 009c 00000000 		.4byte	.LFB119
 3857 00a0 04000000 		.4byte	.LCFI1
 3858 00a4 0200     		.2byte	0x2
 3859 00a6 7D       		.byte	0x7d
 3860 00a7 00       		.sleb128 0
 3861 00a8 04000000 		.4byte	.LCFI1
 3862 00ac 1A000000 		.4byte	.LFE119
 3863 00b0 0200     		.2byte	0x2
 3864 00b2 7D       		.byte	0x7d
 3865 00b3 08       		.sleb128 8
 3866 00b4 00000000 		.4byte	0
 3867 00b8 00000000 		.4byte	0
 3868              	.LLST5:
 3869 00bc 00000000 		.4byte	.LVL7
 3870 00c0 0F000000 		.4byte	.LVL9-1
ARM GAS  /tmp/ccgrWbgM.s 			page 69


 3871 00c4 0100     		.2byte	0x1
 3872 00c6 50       		.byte	0x50
 3873 00c7 0F000000 		.4byte	.LVL9-1
 3874 00cb 1A000000 		.4byte	.LFE119
 3875 00cf 0100     		.2byte	0x1
 3876 00d1 54       		.byte	0x54
 3877 00d2 00000000 		.4byte	0
 3878 00d6 00000000 		.4byte	0
 3879              	.LLST6:
 3880 00da 00000000 		.4byte	.LVL7
 3881 00de 08000000 		.4byte	.LVL8
 3882 00e2 0100     		.2byte	0x1
 3883 00e4 51       		.byte	0x51
 3884 00e5 08000000 		.4byte	.LVL8
 3885 00e9 1A000000 		.4byte	.LFE119
 3886 00ed 0400     		.2byte	0x4
 3887 00ef F3       		.byte	0xf3
 3888 00f0 01       		.uleb128 0x1
 3889 00f1 51       		.byte	0x51
 3890 00f2 9F       		.byte	0x9f
 3891 00f3 00000000 		.4byte	0
 3892 00f7 00000000 		.4byte	0
 3893              	.LLST7:
 3894 00fb 00000000 		.4byte	.LVL7
 3895 00ff 0F000000 		.4byte	.LVL9-1
 3896 0103 0100     		.2byte	0x1
 3897 0105 52       		.byte	0x52
 3898 0106 0F000000 		.4byte	.LVL9-1
 3899 010a 1A000000 		.4byte	.LFE119
 3900 010e 0400     		.2byte	0x4
 3901 0110 F3       		.byte	0xf3
 3902 0111 01       		.uleb128 0x1
 3903 0112 52       		.byte	0x52
 3904 0113 9F       		.byte	0x9f
 3905 0114 00000000 		.4byte	0
 3906 0118 00000000 		.4byte	0
 3907              	.LLST8:
 3908 011c 00000000 		.4byte	.LFB124
 3909 0120 02000000 		.4byte	.LCFI2
 3910 0124 0200     		.2byte	0x2
 3911 0126 7D       		.byte	0x7d
 3912 0127 00       		.sleb128 0
 3913 0128 02000000 		.4byte	.LCFI2
 3914 012c 0A000000 		.4byte	.LCFI3
 3915 0130 0200     		.2byte	0x2
 3916 0132 7D       		.byte	0x7d
 3917 0133 14       		.sleb128 20
 3918 0134 0A000000 		.4byte	.LCFI3
 3919 0138 F0000000 		.4byte	.LFE124
 3920 013c 0200     		.2byte	0x2
 3921 013e 7D       		.byte	0x7d
 3922 013f 30       		.sleb128 48
 3923 0140 00000000 		.4byte	0
 3924 0144 00000000 		.4byte	0
 3925              	.LLST9:
 3926 0148 00000000 		.4byte	.LVL11
 3927 014c 0E000000 		.4byte	.LVL12
ARM GAS  /tmp/ccgrWbgM.s 			page 70


 3928 0150 0100     		.2byte	0x1
 3929 0152 50       		.byte	0x50
 3930 0153 0E000000 		.4byte	.LVL12
 3931 0157 12000000 		.4byte	.LVL13
 3932 015b 0100     		.2byte	0x1
 3933 015d 54       		.byte	0x54
 3934 015e 12000000 		.4byte	.LVL13
 3935 0162 14000000 		.4byte	.LVL14
 3936 0166 0100     		.2byte	0x1
 3937 0168 50       		.byte	0x50
 3938 0169 14000000 		.4byte	.LVL14
 3939 016d F0000000 		.4byte	.LFE124
 3940 0171 0100     		.2byte	0x1
 3941 0173 54       		.byte	0x54
 3942 0174 00000000 		.4byte	0
 3943 0178 00000000 		.4byte	0
 3944              	.LLST10:
 3945 017c 00000000 		.4byte	.LVL11
 3946 0180 0E000000 		.4byte	.LVL12
 3947 0184 0100     		.2byte	0x1
 3948 0186 51       		.byte	0x51
 3949 0187 0E000000 		.4byte	.LVL12
 3950 018b 12000000 		.4byte	.LVL13
 3951 018f 0400     		.2byte	0x4
 3952 0191 F3       		.byte	0xf3
 3953 0192 01       		.uleb128 0x1
 3954 0193 51       		.byte	0x51
 3955 0194 9F       		.byte	0x9f
 3956 0195 12000000 		.4byte	.LVL13
 3957 0199 18000000 		.4byte	.LVL15
 3958 019d 0100     		.2byte	0x1
 3959 019f 51       		.byte	0x51
 3960 01a0 18000000 		.4byte	.LVL15
 3961 01a4 F0000000 		.4byte	.LFE124
 3962 01a8 0400     		.2byte	0x4
 3963 01aa F3       		.byte	0xf3
 3964 01ab 01       		.uleb128 0x1
 3965 01ac 51       		.byte	0x51
 3966 01ad 9F       		.byte	0x9f
 3967 01ae 00000000 		.4byte	0
 3968 01b2 00000000 		.4byte	0
 3969              	.LLST11:
 3970 01b6 12000000 		.4byte	.LVL13
 3971 01ba 14000000 		.4byte	.LVL14
 3972 01be 0100     		.2byte	0x1
 3973 01c0 50       		.byte	0x50
 3974 01c1 14000000 		.4byte	.LVL14
 3975 01c5 F0000000 		.4byte	.LFE124
 3976 01c9 0100     		.2byte	0x1
 3977 01cb 54       		.byte	0x54
 3978 01cc 00000000 		.4byte	0
 3979 01d0 00000000 		.4byte	0
 3980              	.LLST12:
 3981 01d4 4A000000 		.4byte	.LVL16
 3982 01d8 4E000000 		.4byte	.LVL17
 3983 01dc 0100     		.2byte	0x1
 3984 01de 55       		.byte	0x55
ARM GAS  /tmp/ccgrWbgM.s 			page 71


 3985 01df 4E000000 		.4byte	.LVL17
 3986 01e3 54000000 		.4byte	.LVL18
 3987 01e7 0100     		.2byte	0x1
 3988 01e9 53       		.byte	0x53
 3989 01ea 54000000 		.4byte	.LVL18
 3990 01ee 5F000000 		.4byte	.LVL19-1
 3991 01f2 1A00     		.2byte	0x1a
 3992 01f4 74       		.byte	0x74
 3993 01f5 0C       		.sleb128 12
 3994 01f6 94       		.byte	0x94
 3995 01f7 02       		.byte	0x2
 3996 01f8 40       		.byte	0x40
 3997 01f9 24       		.byte	0x24
 3998 01fa 40       		.byte	0x40
 3999 01fb 26       		.byte	0x26
 4000 01fc 12       		.byte	0x12
 4001 01fd 74       		.byte	0x74
 4002 01fe 0E       		.sleb128 14
 4003 01ff 94       		.byte	0x94
 4004 0200 02       		.byte	0x2
 4005 0201 40       		.byte	0x40
 4006 0202 24       		.byte	0x24
 4007 0203 40       		.byte	0x40
 4008 0204 26       		.byte	0x26
 4009 0205 16       		.byte	0x16
 4010 0206 14       		.byte	0x14
 4011 0207 2D       		.byte	0x2d
 4012 0208 28       		.byte	0x28
 4013 0209 0100     		.2byte	0x1
 4014 020b 16       		.byte	0x16
 4015 020c 13       		.byte	0x13
 4016 020d 9F       		.byte	0x9f
 4017 020e 00000000 		.4byte	0
 4018 0212 00000000 		.4byte	0
 4019              	.LLST13:
 4020 0216 84000000 		.4byte	.LVL21
 4021 021a 86000000 		.4byte	.LVL22
 4022 021e 0100     		.2byte	0x1
 4023 0220 55       		.byte	0x55
 4024 0221 86000000 		.4byte	.LVL22
 4025 0225 AC000000 		.4byte	.LVL23
 4026 0229 1000     		.2byte	0x10
 4027 022b 32       		.byte	0x32
 4028 022c 31       		.byte	0x31
 4029 022d 76       		.byte	0x76
 4030 022e 00       		.sleb128 0
 4031 022f 40       		.byte	0x40
 4032 0230 24       		.byte	0x24
 4033 0231 40       		.byte	0x40
 4034 0232 26       		.byte	0x26
 4035 0233 33       		.byte	0x33
 4036 0234 2B       		.byte	0x2b
 4037 0235 28       		.byte	0x28
 4038 0236 0100     		.2byte	0x1
 4039 0238 16       		.byte	0x16
 4040 0239 13       		.byte	0x13
 4041 023a 9F       		.byte	0x9f
ARM GAS  /tmp/ccgrWbgM.s 			page 72


 4042 023b C2000000 		.4byte	.LVL25
 4043 023f C4000000 		.4byte	.LVL26
 4044 0243 0100     		.2byte	0x1
 4045 0245 55       		.byte	0x55
 4046 0246 C4000000 		.4byte	.LVL26
 4047 024a E6000000 		.4byte	.LVL28
 4048 024e 1000     		.2byte	0x10
 4049 0250 32       		.byte	0x32
 4050 0251 31       		.byte	0x31
 4051 0252 76       		.byte	0x76
 4052 0253 00       		.sleb128 0
 4053 0254 40       		.byte	0x40
 4054 0255 24       		.byte	0x24
 4055 0256 40       		.byte	0x40
 4056 0257 26       		.byte	0x26
 4057 0258 33       		.byte	0x33
 4058 0259 2B       		.byte	0x2b
 4059 025a 28       		.byte	0x28
 4060 025b 0100     		.2byte	0x1
 4061 025d 16       		.byte	0x16
 4062 025e 13       		.byte	0x13
 4063 025f 9F       		.byte	0x9f
 4064 0260 00000000 		.4byte	0
 4065 0264 00000000 		.4byte	0
 4066              	.LLST15:
 4067 0268 00000000 		.4byte	.LFB120
 4068 026c 02000000 		.4byte	.LCFI4
 4069 0270 0200     		.2byte	0x2
 4070 0272 7D       		.byte	0x7d
 4071 0273 00       		.sleb128 0
 4072 0274 02000000 		.4byte	.LCFI4
 4073 0278 1C000000 		.4byte	.LFE120
 4074 027c 0200     		.2byte	0x2
 4075 027e 7D       		.byte	0x7d
 4076 027f 10       		.sleb128 16
 4077 0280 00000000 		.4byte	0
 4078 0284 00000000 		.4byte	0
 4079              	.LLST16:
 4080 0288 00000000 		.4byte	.LVL29
 4081 028c 09000000 		.4byte	.LVL30-1
 4082 0290 0100     		.2byte	0x1
 4083 0292 50       		.byte	0x50
 4084 0293 09000000 		.4byte	.LVL30-1
 4085 0297 0A000000 		.4byte	.LVL30
 4086 029b 0400     		.2byte	0x4
 4087 029d F3       		.byte	0xf3
 4088 029e 01       		.uleb128 0x1
 4089 029f 50       		.byte	0x50
 4090 02a0 9F       		.byte	0x9f
 4091 02a1 0A000000 		.4byte	.LVL30
 4092 02a5 13000000 		.4byte	.LVL31-1
 4093 02a9 0100     		.2byte	0x1
 4094 02ab 50       		.byte	0x50
 4095 02ac 13000000 		.4byte	.LVL31-1
 4096 02b0 1C000000 		.4byte	.LFE120
 4097 02b4 0100     		.2byte	0x1
 4098 02b6 54       		.byte	0x54
ARM GAS  /tmp/ccgrWbgM.s 			page 73


 4099 02b7 00000000 		.4byte	0
 4100 02bb 00000000 		.4byte	0
 4101              	.LLST17:
 4102 02bf 00000000 		.4byte	.LVL29
 4103 02c3 09000000 		.4byte	.LVL30-1
 4104 02c7 0100     		.2byte	0x1
 4105 02c9 51       		.byte	0x51
 4106 02ca 09000000 		.4byte	.LVL30-1
 4107 02ce 1C000000 		.4byte	.LFE120
 4108 02d2 0100     		.2byte	0x1
 4109 02d4 55       		.byte	0x55
 4110 02d5 00000000 		.4byte	0
 4111 02d9 00000000 		.4byte	0
 4112              	.LLST18:
 4113 02dd 00000000 		.4byte	.LFB121
 4114 02e1 08000000 		.4byte	.LCFI5
 4115 02e5 0200     		.2byte	0x2
 4116 02e7 7D       		.byte	0x7d
 4117 02e8 00       		.sleb128 0
 4118 02e9 08000000 		.4byte	.LCFI5
 4119 02ed 44000000 		.4byte	.LFE121
 4120 02f1 0200     		.2byte	0x2
 4121 02f3 7D       		.byte	0x7d
 4122 02f4 08       		.sleb128 8
 4123 02f5 00000000 		.4byte	0
 4124 02f9 00000000 		.4byte	0
 4125              	.LLST19:
 4126 02fd 00000000 		.4byte	.LVL32
 4127 0301 0C000000 		.4byte	.LVL33
 4128 0305 0100     		.2byte	0x1
 4129 0307 50       		.byte	0x50
 4130 0308 0C000000 		.4byte	.LVL33
 4131 030c 0E000000 		.4byte	.LVL34
 4132 0310 0100     		.2byte	0x1
 4133 0312 54       		.byte	0x54
 4134 0313 0E000000 		.4byte	.LVL34
 4135 0317 10000000 		.4byte	.LVL35
 4136 031b 0100     		.2byte	0x1
 4137 031d 50       		.byte	0x50
 4138 031e 10000000 		.4byte	.LVL35
 4139 0322 44000000 		.4byte	.LFE121
 4140 0326 0100     		.2byte	0x1
 4141 0328 54       		.byte	0x54
 4142 0329 00000000 		.4byte	0
 4143 032d 00000000 		.4byte	0
 4144              	.LLST20:
 4145 0331 00000000 		.4byte	.LVL32
 4146 0335 20000000 		.4byte	.LVL36
 4147 0339 0100     		.2byte	0x1
 4148 033b 51       		.byte	0x51
 4149 033c 20000000 		.4byte	.LVL36
 4150 0340 32000000 		.4byte	.LVL38
 4151 0344 0400     		.2byte	0x4
 4152 0346 F3       		.byte	0xf3
 4153 0347 01       		.uleb128 0x1
 4154 0348 51       		.byte	0x51
 4155 0349 9F       		.byte	0x9f
ARM GAS  /tmp/ccgrWbgM.s 			page 74


 4156 034a 32000000 		.4byte	.LVL38
 4157 034e 44000000 		.4byte	.LFE121
 4158 0352 0100     		.2byte	0x1
 4159 0354 51       		.byte	0x51
 4160 0355 00000000 		.4byte	0
 4161 0359 00000000 		.4byte	0
 4162              	.LLST21:
 4163 035d 00000000 		.4byte	.LVL39
 4164 0361 0A000000 		.4byte	.LVL40
 4165 0365 0100     		.2byte	0x1
 4166 0367 50       		.byte	0x50
 4167 0368 0A000000 		.4byte	.LVL40
 4168 036c 0C000000 		.4byte	.LVL41
 4169 0370 0400     		.2byte	0x4
 4170 0372 F3       		.byte	0xf3
 4171 0373 01       		.uleb128 0x1
 4172 0374 50       		.byte	0x50
 4173 0375 9F       		.byte	0x9f
 4174 0376 0C000000 		.4byte	.LVL41
 4175 037a 0E000000 		.4byte	.LVL42
 4176 037e 0100     		.2byte	0x1
 4177 0380 50       		.byte	0x50
 4178 0381 0E000000 		.4byte	.LVL42
 4179 0385 18000000 		.4byte	.LFE122
 4180 0389 0400     		.2byte	0x4
 4181 038b F3       		.byte	0xf3
 4182 038c 01       		.uleb128 0x1
 4183 038d 50       		.byte	0x50
 4184 038e 9F       		.byte	0x9f
 4185 038f 00000000 		.4byte	0
 4186 0393 00000000 		.4byte	0
 4187              	.LLST22:
 4188 0397 00000000 		.4byte	.LFB125
 4189 039b 04000000 		.4byte	.LCFI6
 4190 039f 0200     		.2byte	0x2
 4191 03a1 7D       		.byte	0x7d
 4192 03a2 00       		.sleb128 0
 4193 03a3 04000000 		.4byte	.LCFI6
 4194 03a7 0C000000 		.4byte	.LCFI7
 4195 03ab 0200     		.2byte	0x2
 4196 03ad 7D       		.byte	0x7d
 4197 03ae 1C       		.sleb128 28
 4198 03af 0C000000 		.4byte	.LCFI7
 4199 03b3 0C010000 		.4byte	.LFE125
 4200 03b7 0200     		.2byte	0x2
 4201 03b9 7D       		.byte	0x7d
 4202 03ba 38       		.sleb128 56
 4203 03bb 00000000 		.4byte	0
 4204 03bf 00000000 		.4byte	0
 4205              	.LLST23:
 4206 03c3 00000000 		.4byte	.LVL43
 4207 03c7 10000000 		.4byte	.LVL44
 4208 03cb 0100     		.2byte	0x1
 4209 03cd 50       		.byte	0x50
 4210 03ce 10000000 		.4byte	.LVL44
 4211 03d2 16000000 		.4byte	.LVL45
 4212 03d6 0400     		.2byte	0x4
ARM GAS  /tmp/ccgrWbgM.s 			page 75


 4213 03d8 F3       		.byte	0xf3
 4214 03d9 01       		.uleb128 0x1
 4215 03da 50       		.byte	0x50
 4216 03db 9F       		.byte	0x9f
 4217 03dc 16000000 		.4byte	.LVL45
 4218 03e0 18000000 		.4byte	.LVL46
 4219 03e4 0100     		.2byte	0x1
 4220 03e6 50       		.byte	0x50
 4221 03e7 18000000 		.4byte	.LVL46
 4222 03eb C4000000 		.4byte	.LVL57
 4223 03ef 0100     		.2byte	0x1
 4224 03f1 54       		.byte	0x54
 4225 03f2 C4000000 		.4byte	.LVL57
 4226 03f6 D2000000 		.4byte	.LVL59
 4227 03fa 0400     		.2byte	0x4
 4228 03fc F3       		.byte	0xf3
 4229 03fd 01       		.uleb128 0x1
 4230 03fe 50       		.byte	0x50
 4231 03ff 9F       		.byte	0x9f
 4232 0400 D2000000 		.4byte	.LVL59
 4233 0404 0C010000 		.4byte	.LFE125
 4234 0408 0100     		.2byte	0x1
 4235 040a 54       		.byte	0x54
 4236 040b 00000000 		.4byte	0
 4237 040f 00000000 		.4byte	0
 4238              	.LLST24:
 4239 0413 00000000 		.4byte	.LVL43
 4240 0417 10000000 		.4byte	.LVL44
 4241 041b 0100     		.2byte	0x1
 4242 041d 51       		.byte	0x51
 4243 041e 10000000 		.4byte	.LVL44
 4244 0422 16000000 		.4byte	.LVL45
 4245 0426 0400     		.2byte	0x4
 4246 0428 F3       		.byte	0xf3
 4247 0429 01       		.uleb128 0x1
 4248 042a 51       		.byte	0x51
 4249 042b 9F       		.byte	0x9f
 4250 042c 16000000 		.4byte	.LVL45
 4251 0430 1C000000 		.4byte	.LVL47
 4252 0434 0100     		.2byte	0x1
 4253 0436 51       		.byte	0x51
 4254 0437 1C000000 		.4byte	.LVL47
 4255 043b 0C010000 		.4byte	.LFE125
 4256 043f 0400     		.2byte	0x4
 4257 0441 F3       		.byte	0xf3
 4258 0442 01       		.uleb128 0x1
 4259 0443 51       		.byte	0x51
 4260 0444 9F       		.byte	0x9f
 4261 0445 00000000 		.4byte	0
 4262 0449 00000000 		.4byte	0
 4263              	.LLST25:
 4264 044d 64000000 		.4byte	.LVL49
 4265 0451 6A000000 		.4byte	.LVL51
 4266 0455 0100     		.2byte	0x1
 4267 0457 52       		.byte	0x52
 4268 0458 6A000000 		.4byte	.LVL51
 4269 045c D2000000 		.4byte	.LVL59
ARM GAS  /tmp/ccgrWbgM.s 			page 76


 4270 0460 0100     		.2byte	0x1
 4271 0462 57       		.byte	0x57
 4272 0463 DA000000 		.4byte	.LVL60
 4273 0467 00010000 		.4byte	.LVL63
 4274 046b 0100     		.2byte	0x1
 4275 046d 57       		.byte	0x57
 4276 046e 00000000 		.4byte	0
 4277 0472 00000000 		.4byte	0
 4278              	.LLST26:
 4279 0476 52000000 		.4byte	.LVL48
 4280 047a 68000000 		.4byte	.LVL50
 4281 047e 0100     		.2byte	0x1
 4282 0480 55       		.byte	0x55
 4283 0481 68000000 		.4byte	.LVL50
 4284 0485 70000000 		.4byte	.LVL52
 4285 0489 0100     		.2byte	0x1
 4286 048b 53       		.byte	0x53
 4287 048c 70000000 		.4byte	.LVL52
 4288 0490 7B000000 		.4byte	.LVL53-1
 4289 0494 1A00     		.2byte	0x1a
 4290 0496 74       		.byte	0x74
 4291 0497 0C       		.sleb128 12
 4292 0498 94       		.byte	0x94
 4293 0499 02       		.byte	0x2
 4294 049a 40       		.byte	0x40
 4295 049b 24       		.byte	0x24
 4296 049c 40       		.byte	0x40
 4297 049d 26       		.byte	0x26
 4298 049e 12       		.byte	0x12
 4299 049f 74       		.byte	0x74
 4300 04a0 0E       		.sleb128 14
 4301 04a1 94       		.byte	0x94
 4302 04a2 02       		.byte	0x2
 4303 04a3 40       		.byte	0x40
 4304 04a4 24       		.byte	0x24
 4305 04a5 40       		.byte	0x40
 4306 04a6 26       		.byte	0x26
 4307 04a7 16       		.byte	0x16
 4308 04a8 14       		.byte	0x14
 4309 04a9 2D       		.byte	0x2d
 4310 04aa 28       		.byte	0x28
 4311 04ab 0100     		.2byte	0x1
 4312 04ad 16       		.byte	0x16
 4313 04ae 13       		.byte	0x13
 4314 04af 9F       		.byte	0x9f
 4315 04b0 00000000 		.4byte	0
 4316 04b4 00000000 		.4byte	0
 4317              	.LLST27:
 4318 04b8 A2000000 		.4byte	.LVL55
 4319 04bc A4000000 		.4byte	.LVL56
 4320 04c0 0100     		.2byte	0x1
 4321 04c2 55       		.byte	0x55
 4322 04c3 A4000000 		.4byte	.LVL56
 4323 04c7 D2000000 		.4byte	.LVL59
 4324 04cb 1000     		.2byte	0x10
 4325 04cd 32       		.byte	0x32
 4326 04ce 31       		.byte	0x31
ARM GAS  /tmp/ccgrWbgM.s 			page 77


 4327 04cf 78       		.byte	0x78
 4328 04d0 00       		.sleb128 0
 4329 04d1 40       		.byte	0x40
 4330 04d2 24       		.byte	0x24
 4331 04d3 40       		.byte	0x40
 4332 04d4 26       		.byte	0x26
 4333 04d5 33       		.byte	0x33
 4334 04d6 2B       		.byte	0x2b
 4335 04d7 28       		.byte	0x28
 4336 04d8 0100     		.2byte	0x1
 4337 04da 16       		.byte	0x16
 4338 04db 13       		.byte	0x13
 4339 04dc 9F       		.byte	0x9f
 4340 04dd DA000000 		.4byte	.LVL60
 4341 04e1 DC000000 		.4byte	.LVL61
 4342 04e5 0100     		.2byte	0x1
 4343 04e7 55       		.byte	0x55
 4344 04e8 DC000000 		.4byte	.LVL61
 4345 04ec 00010000 		.4byte	.LVL63
 4346 04f0 1000     		.2byte	0x10
 4347 04f2 32       		.byte	0x32
 4348 04f3 31       		.byte	0x31
 4349 04f4 78       		.byte	0x78
 4350 04f5 00       		.sleb128 0
 4351 04f6 40       		.byte	0x40
 4352 04f7 24       		.byte	0x24
 4353 04f8 40       		.byte	0x40
 4354 04f9 26       		.byte	0x26
 4355 04fa 33       		.byte	0x33
 4356 04fb 2B       		.byte	0x2b
 4357 04fc 28       		.byte	0x28
 4358 04fd 0100     		.2byte	0x1
 4359 04ff 16       		.byte	0x16
 4360 0500 13       		.byte	0x13
 4361 0501 9F       		.byte	0x9f
 4362 0502 00000000 		.4byte	0
 4363 0506 00000000 		.4byte	0
 4364              	.LLST28:
 4365 050a 16000000 		.4byte	.LVL45
 4366 050e 18000000 		.4byte	.LVL46
 4367 0512 0100     		.2byte	0x1
 4368 0514 50       		.byte	0x50
 4369 0515 18000000 		.4byte	.LVL46
 4370 0519 C4000000 		.4byte	.LVL57
 4371 051d 0100     		.2byte	0x1
 4372 051f 54       		.byte	0x54
 4373 0520 C4000000 		.4byte	.LVL57
 4374 0524 D2000000 		.4byte	.LVL59
 4375 0528 0400     		.2byte	0x4
 4376 052a F3       		.byte	0xf3
 4377 052b 01       		.uleb128 0x1
 4378 052c 50       		.byte	0x50
 4379 052d 9F       		.byte	0x9f
 4380 052e D2000000 		.4byte	.LVL59
 4381 0532 0C010000 		.4byte	.LFE125
 4382 0536 0100     		.2byte	0x1
 4383 0538 54       		.byte	0x54
ARM GAS  /tmp/ccgrWbgM.s 			page 78


 4384 0539 00000000 		.4byte	0
 4385 053d 00000000 		.4byte	0
 4386              		.section	.debug_aranges,"",%progbits
 4387 0000 4C000000 		.4byte	0x4c
 4388 0004 0200     		.2byte	0x2
 4389 0006 00000000 		.4byte	.Ldebug_info0
 4390 000a 04       		.byte	0x4
 4391 000b 00       		.byte	0
 4392 000c 0000     		.2byte	0
 4393 000e 0000     		.2byte	0
 4394 0010 00000000 		.4byte	.LFB118
 4395 0014 3C000000 		.4byte	.LFE118-.LFB118
 4396 0018 00000000 		.4byte	.LFB119
 4397 001c 1A000000 		.4byte	.LFE119-.LFB119
 4398 0020 00000000 		.4byte	.LFB124
 4399 0024 F0000000 		.4byte	.LFE124-.LFB124
 4400 0028 00000000 		.4byte	.LFB120
 4401 002c 1C000000 		.4byte	.LFE120-.LFB120
 4402 0030 00000000 		.4byte	.LFB121
 4403 0034 44000000 		.4byte	.LFE121-.LFB121
 4404 0038 00000000 		.4byte	.LFB122
 4405 003c 18000000 		.4byte	.LFE122-.LFB122
 4406 0040 00000000 		.4byte	.LFB125
 4407 0044 0C010000 		.4byte	.LFE125-.LFB125
 4408 0048 00000000 		.4byte	0
 4409 004c 00000000 		.4byte	0
 4410              		.section	.debug_ranges,"",%progbits
 4411              	.Ldebug_ranges0:
 4412 0000 12000000 		.4byte	.LBB13
 4413 0004 74000000 		.4byte	.LBE13
 4414 0008 76000000 		.4byte	.LBB20
 4415 000c F0000000 		.4byte	.LBE20
 4416 0010 00000000 		.4byte	0
 4417 0014 00000000 		.4byte	0
 4418 0018 12000000 		.4byte	.LBB14
 4419 001c 2E000000 		.4byte	.LBE14
 4420 0020 BA000000 		.4byte	.LBB18
 4421 0024 C2000000 		.4byte	.LBE18
 4422 0028 E6000000 		.4byte	.LBB19
 4423 002c F0000000 		.4byte	.LBE19
 4424 0030 00000000 		.4byte	0
 4425 0034 00000000 		.4byte	0
 4426 0038 16000000 		.4byte	.LBB21
 4427 003c 32000000 		.4byte	.LBE21
 4428 0040 D2000000 		.4byte	.LBB25
 4429 0044 DA000000 		.4byte	.LBE25
 4430 0048 00010000 		.4byte	.LBB26
 4431 004c 0C010000 		.4byte	.LBE26
 4432 0050 00000000 		.4byte	0
 4433 0054 00000000 		.4byte	0
 4434 0058 00000000 		.4byte	.LFB118
 4435 005c 3C000000 		.4byte	.LFE118
 4436 0060 00000000 		.4byte	.LFB119
 4437 0064 1A000000 		.4byte	.LFE119
 4438 0068 00000000 		.4byte	.LFB124
 4439 006c F0000000 		.4byte	.LFE124
 4440 0070 00000000 		.4byte	.LFB120
ARM GAS  /tmp/ccgrWbgM.s 			page 79


 4441 0074 1C000000 		.4byte	.LFE120
 4442 0078 00000000 		.4byte	.LFB121
 4443 007c 44000000 		.4byte	.LFE121
 4444 0080 00000000 		.4byte	.LFB122
 4445 0084 18000000 		.4byte	.LFE122
 4446 0088 00000000 		.4byte	.LFB125
 4447 008c 0C010000 		.4byte	.LFE125
 4448 0090 00000000 		.4byte	0
 4449 0094 00000000 		.4byte	0
 4450              		.section	.debug_line,"",%progbits
 4451              	.Ldebug_line0:
 4452 0000 68030000 		.section	.debug_str,"MS",%progbits,1
 4452      02007A02 
 4452      00000201 
 4452      FB0E0D00 
 4452      01010101 
 4453              	.LASF160:
 4454 0000 6A757374 		.ascii	"justify\000"
 4454      69667900 
 4455              	.LASF64:
 4456 0008 73656D63 		.ascii	"semcount_t\000"
 4456      6F756E74 
 4456      5F7400
 4457              	.LASF113:
 4458 0013 65646765 		.ascii	"edge\000"
 4458      00
 4459              	.LASF142:
 4460 0018 6777696E 		.ascii	"gwinCheckboxCreate\000"
 4460      43686563 
 4460      6B626F78 
 4460      43726561 
 4460      746500
 4461              	.LASF59:
 4462 002b 7264796D 		.ascii	"rdymsg\000"
 4462      736700
 4463              	.LASF152:
 4464 0032 67646973 		.ascii	"gdispFillArea\000"
 4464      7046696C 
 4464      6C417265 
 4464      6100
 4465              	.LASF80:
 4466 0040 47536F75 		.ascii	"GSourceHandle\000"
 4466      72636548 
 4466      616E646C 
 4466      6500
 4467              	.LASF79:
 4468 004e 47536F75 		.ascii	"GSource\000"
 4468      72636500 
 4469              	.LASF103:
 4470 0056 636C6173 		.ascii	"classname\000"
 4470      736E616D 
 4470      6500
 4471              	.LASF91:
 4472 0060 6A757374 		.ascii	"justify_t\000"
 4472      6966795F 
 4472      7400
 4473              	.LASF83:
ARM GAS  /tmp/ccgrWbgM.s 			page 80


 4474 006a 70536F75 		.ascii	"pSource\000"
 4474      72636500 
 4475              	.LASF139:
 4476 0072 70636F6C 		.ascii	"pcol\000"
 4476      00
 4477              	.LASF111:
 4478 0077 47436F6C 		.ascii	"GColorSet\000"
 4478      6F725365 
 4478      7400
 4479              	.LASF134:
 4480 0081 4D6F7573 		.ascii	"MouseDown\000"
 4480      65446F77 
 4480      6E00
 4481              	.LASF124:
 4482 008b 666E5061 		.ascii	"fnParam\000"
 4482      72616D00 
 4483              	.LASF14:
 4484 0093 6C6F6E67 		.ascii	"long long unsigned int\000"
 4484      206C6F6E 
 4484      6720756E 
 4484      7369676E 
 4484      65642069 
 4485              	.LASF135:
 4486 00aa 4D6F7573 		.ascii	"MouseUp\000"
 4486      65557000 
 4487              	.LASF60:
 4488 00b2 65786974 		.ascii	"exitcode\000"
 4488      636F6465 
 4488      00
 4489              	.LASF65:
 4490 00bb 6C696D69 		.ascii	"limit\000"
 4490      7400
 4491              	.LASF144:
 4492 00c1 6777696E 		.ascii	"gwinCheckboxCheck\000"
 4492      43686563 
 4492      6B626F78 
 4492      43686563 
 4492      6B00
 4493              	.LASF108:
 4494 00d3 4748616E 		.ascii	"GHandle\000"
 4494      646C6500 
 4495              	.LASF151:
 4496 00db 5F677769 		.ascii	"_gwidgetRedraw\000"
 4496      64676574 
 4496      52656472 
 4496      617700
 4497              	.LASF68:
 4498 00ea 6E657874 		.ascii	"next\000"
 4498      00
 4499              	.LASF78:
 4500 00ef 6576656E 		.ascii	"event\000"
 4500      7400
 4501              	.LASF29:
 4502 00f5 705F7072 		.ascii	"p_prio\000"
 4502      696F00
 4503              	.LASF163:
 4504 00fc 6777696E 		.ascii	"gwinSetVisible\000"
ARM GAS  /tmp/ccgrWbgM.s 			page 81


 4504      53657456 
 4504      69736962 
 4504      6C6500
 4505              	.LASF5:
 4506 010b 696E7431 		.ascii	"int16_t\000"
 4506      365F7400 
 4507              	.LASF13:
 4508 0113 6C6F6E67 		.ascii	"long long int\000"
 4508      206C6F6E 
 4508      6720696E 
 4508      7400
 4509              	.LASF1:
 4510 0121 7369676E 		.ascii	"signed char\000"
 4510      65642063 
 4510      68617200 
 4511              	.LASF110:
 4512 012d 73686F77 		.ascii	"show\000"
 4512      00
 4513              	.LASF45:
 4514 0132 705F6D70 		.ascii	"p_mpool\000"
 4514      6F6F6C00 
 4515              	.LASF15:
 4516 013a 626F6F6C 		.ascii	"bool_t\000"
 4516      5F7400
 4517              	.LASF56:
 4518 0141 6D5F7175 		.ascii	"m_queue\000"
 4518      65756500 
 4519              	.LASF20:
 4520 0149 74736C69 		.ascii	"tslices_t\000"
 4520      6365735F 
 4520      7400
 4521              	.LASF10:
 4522 0153 6C6F6E67 		.ascii	"long int\000"
 4522      20696E74 
 4522      00
 4523              	.LASF89:
 4524 015c 6A757374 		.ascii	"justifyCenter\000"
 4524      69667943 
 4524      656E7465 
 4524      7200
 4525              	.LASF18:
 4526 016a 74737461 		.ascii	"tstate_t\000"
 4526      74655F74 
 4526      00
 4527              	.LASF71:
 4528 0173 47457665 		.ascii	"GEvent\000"
 4528      6E7400
 4529              	.LASF123:
 4530 017a 666E4472 		.ascii	"fnDraw\000"
 4530      617700
 4531              	.LASF31:
 4532 0181 705F6E65 		.ascii	"p_newer\000"
 4532      77657200 
 4533              	.LASF53:
 4534 0189 735F7175 		.ascii	"s_queue\000"
 4534      65756500 
 4535              	.LASF137:
ARM GAS  /tmp/ccgrWbgM.s 			page 82


 4536 0191 67776964 		.ascii	"gwidgetVMT\000"
 4536      67657456 
 4536      4D5400
 4537              	.LASF8:
 4538 019c 73686F72 		.ascii	"short unsigned int\000"
 4538      7420756E 
 4538      7369676E 
 4538      65642069 
 4538      6E7400
 4539              	.LASF102:
 4540 01af 6777696E 		.ascii	"gwinVMT\000"
 4540      564D5400 
 4541              	.LASF48:
 4542 01b7 72656761 		.ascii	"regarm_t\000"
 4542      726D5F74 
 4542      00
 4543              	.LASF122:
 4544 01c0 47576964 		.ascii	"GWidgetObject\000"
 4544      6765744F 
 4544      626A6563 
 4544      7400
 4545              	.LASF69:
 4546 01ce 47457665 		.ascii	"GEventType\000"
 4546      6E745479 
 4546      706500
 4547              	.LASF2:
 4548 01d9 73697A65 		.ascii	"size_t\000"
 4548      5F7400
 4549              	.LASF115:
 4550 01e0 70726F67 		.ascii	"progress\000"
 4550      72657373 
 4550      00
 4551              	.LASF157:
 4552 01e9 2E2E2F2E 		.ascii	"../../ext/ugfx/src/gwin/checkbox.c\000"
 4552      2E2F6578 
 4552      742F7567 
 4552      66782F73 
 4552      72632F67 
 4553              	.LASF25:
 4554 020c 636E745F 		.ascii	"cnt_t\000"
 4554      7400
 4555              	.LASF0:
 4556 0212 756E7369 		.ascii	"unsigned int\000"
 4556      676E6564 
 4556      20696E74 
 4556      00
 4557              	.LASF93:
 4558 021f 47536F75 		.ascii	"GSource_t\000"
 4558      7263655F 
 4558      7400
 4559              	.LASF7:
 4560 0229 75696E74 		.ascii	"uint16_t\000"
 4560      31365F74 
 4560      00
 4561              	.LASF38:
 4562 0232 705F7469 		.ascii	"p_time\000"
 4562      6D6500
ARM GAS  /tmp/ccgrWbgM.s 			page 83


 4563              	.LASF130:
 4564 0239 47457665 		.ascii	"GEventGWinCheckbox\000"
 4564      6E744757 
 4564      696E4368 
 4564      65636B62 
 4564      6F7800
 4565              	.LASF131:
 4566 024c 63686563 		.ascii	"checkbox\000"
 4566      6B626F78 
 4566      00
 4567              	.LASF148:
 4568 0255 67657665 		.ascii	"geventGetEventBuffer\000"
 4568      6E744765 
 4568      74457665 
 4568      6E744275 
 4568      66666572 
 4569              	.LASF40:
 4570 026a 705F6D73 		.ascii	"p_msgqueue\000"
 4570      67717565 
 4570      756500
 4571              	.LASF153:
 4572 0275 67646973 		.ascii	"gdispDrawBox\000"
 4572      70447261 
 4572      77426F78 
 4572      00
 4573              	.LASF125:
 4574 0282 70737479 		.ascii	"pstyle\000"
 4574      6C6500
 4575              	.LASF97:
 4576 0289 77696474 		.ascii	"width\000"
 4576      6800
 4577              	.LASF155:
 4578 028f 5F677769 		.ascii	"_gwidgetCreate\000"
 4578      64676574 
 4578      43726561 
 4578      746500
 4579              	.LASF104:
 4580 029e 73697A65 		.ascii	"size\000"
 4580      00
 4581              	.LASF127:
 4582 02a3 63757374 		.ascii	"customDraw\000"
 4582      6F6D4472 
 4582      617700
 4583              	.LASF22:
 4584 02ae 6D73675F 		.ascii	"msg_t\000"
 4584      7400
 4585              	.LASF70:
 4586 02b4 74797065 		.ascii	"type\000"
 4586      00
 4587              	.LASF76:
 4588 02b9 63616C6C 		.ascii	"callback\000"
 4588      6261636B 
 4588      00
 4589              	.LASF17:
 4590 02c2 746D6F64 		.ascii	"tmode_t\000"
 4590      655F7400 
 4591              	.LASF159:
ARM GAS  /tmp/ccgrWbgM.s 			page 84


 4592 02ca 47457665 		.ascii	"GEvent_u\000"
 4592      6E745F75 
 4592      00
 4593              	.LASF47:
 4594 02d3 54687265 		.ascii	"ThreadsList\000"
 4594      6164734C 
 4594      69737400 
 4595              	.LASF23:
 4596 02df 6576656E 		.ascii	"eventmask_t\000"
 4596      746D6173 
 4596      6B5F7400 
 4597              	.LASF156:
 4598 02eb 474E5520 		.ascii	"GNU C 4.7.4 20130613 (release) [ARM/embedded-4_7-br"
 4598      4320342E 
 4598      372E3420 
 4598      32303133 
 4598      30363133 
 4599 031e 616E6368 		.ascii	"anch revision 200083]\000"
 4599      20726576 
 4599      6973696F 
 4599      6E203230 
 4599      30303833 
 4600              	.LASF99:
 4601 0334 636F6C6F 		.ascii	"color\000"
 4601      7200
 4602              	.LASF150:
 4603 033a 67657665 		.ascii	"geventSendEvent\000"
 4603      6E745365 
 4603      6E644576 
 4603      656E7400 
 4604              	.LASF149:
 4605 034a 6777696E 		.ascii	"gwinCheckboxDraw_CheckOnLeft\000"
 4605      43686563 
 4605      6B626F78 
 4605      44726177 
 4605      5F436865 
 4606              	.LASF95:
 4607 0367 636F6C6F 		.ascii	"color_t\000"
 4607      725F7400 
 4608              	.LASF129:
 4609 036f 63757374 		.ascii	"customStyle\000"
 4609      6F6D5374 
 4609      796C6500 
 4610              	.LASF75:
 4611 037b 6576656E 		.ascii	"eventlock\000"
 4611      746C6F63 
 4611      6B00
 4612              	.LASF147:
 4613 0385 67657665 		.ascii	"geventGetSourceListener\000"
 4613      6E744765 
 4613      74536F75 
 4613      7263654C 
 4613      69737465 
 4614              	.LASF51:
 4615 039d 73697A65 		.ascii	"sizetype\000"
 4615      74797065 
 4615      00
ARM GAS  /tmp/ccgrWbgM.s 			page 85


 4616              	.LASF55:
 4617 03a6 4D757465 		.ascii	"Mutex\000"
 4617      7800
 4618              	.LASF145:
 4619 03ac 6777696E 		.ascii	"gwinCheckboxDraw_CheckOnRight\000"
 4619      43686563 
 4619      6B626F78 
 4619      44726177 
 4619      5F436865 
 4620              	.LASF128:
 4621 03ca 63757374 		.ascii	"customParam\000"
 4621      6F6D5061 
 4621      72616D00 
 4622              	.LASF42:
 4623 03d6 705F6570 		.ascii	"p_epending\000"
 4623      656E6469 
 4623      6E6700
 4624              	.LASF77:
 4625 03e1 70617261 		.ascii	"param\000"
 4625      6D00
 4626              	.LASF46:
 4627 03e7 54687265 		.ascii	"ThreadsQueue\000"
 4627      61647351 
 4627      75657565 
 4627      00
 4628              	.LASF87:
 4629 03f4 636F6F72 		.ascii	"coord_t\000"
 4629      645F7400 
 4630              	.LASF72:
 4631 03fc 47457665 		.ascii	"GEventCallbackFn\000"
 4631      6E744361 
 4631      6C6C6261 
 4631      636B466E 
 4631      00
 4632              	.LASF114:
 4633 040d 66696C6C 		.ascii	"fill\000"
 4633      00
 4634              	.LASF109:
 4635 0412 4757696E 		.ascii	"GWindowInit\000"
 4635      646F7749 
 4635      6E697400 
 4636              	.LASF141:
 4637 041e 70496E69 		.ascii	"pInit\000"
 4637      7400
 4638              	.LASF19:
 4639 0424 74726566 		.ascii	"trefs_t\000"
 4639      735F7400 
 4640              	.LASF100:
 4641 042c 6267636F 		.ascii	"bgcolor\000"
 4641      6C6F7200 
 4642              	.LASF74:
 4643 0434 77616974 		.ascii	"waitqueue\000"
 4643      71756575 
 4643      6500
 4644              	.LASF92:
 4645 043e 666F6E74 		.ascii	"font_t\000"
 4645      5F7400
ARM GAS  /tmp/ccgrWbgM.s 			page 86


 4646              	.LASF28:
 4647 0445 705F7072 		.ascii	"p_prev\000"
 4647      657600
 4648              	.LASF21:
 4649 044c 74707269 		.ascii	"tprio_t\000"
 4649      6F5F7400 
 4650              	.LASF140:
 4651 0454 53656E64 		.ascii	"SendCheckboxEvent\000"
 4651      43686563 
 4651      6B626F78 
 4651      4576656E 
 4651      7400
 4652              	.LASF161:
 4653 0466 67657444 		.ascii	"getDrawColors\000"
 4653      72617743 
 4653      6F6C6F72 
 4653      7300
 4654              	.LASF16:
 4655 0474 5F426F6F 		.ascii	"_Bool\000"
 4655      6C00
 4656              	.LASF9:
 4657 047a 696E7433 		.ascii	"int32_t\000"
 4657      325F7400 
 4658              	.LASF4:
 4659 0482 756E7369 		.ascii	"unsigned char\000"
 4659      676E6564 
 4659      20636861 
 4659      7200
 4660              	.LASF162:
 4661 0490 49544D5F 		.ascii	"ITM_RxBuffer\000"
 4661      52784275 
 4661      66666572 
 4661      00
 4662              	.LASF54:
 4663 049d 735F636E 		.ascii	"s_cnt\000"
 4663      7400
 4664              	.LASF43:
 4665 04a3 705F6D74 		.ascii	"p_mtxlist\000"
 4665      786C6973 
 4665      7400
 4666              	.LASF6:
 4667 04ad 73686F72 		.ascii	"short int\000"
 4667      7420696E 
 4667      7400
 4668              	.LASF34:
 4669 04b7 705F7374 		.ascii	"p_state\000"
 4669      61746500 
 4670              	.LASF107:
 4671 04bf 41667465 		.ascii	"AfterClear\000"
 4671      72436C65 
 4671      617200
 4672              	.LASF37:
 4673 04ca 705F7072 		.ascii	"p_preempt\000"
 4673      65656D70 
 4673      7400
 4674              	.LASF32:
 4675 04d4 705F6F6C 		.ascii	"p_older\000"
ARM GAS  /tmp/ccgrWbgM.s 			page 87


 4675      64657200 
 4676              	.LASF62:
 4677 04dc 65776D61 		.ascii	"ewmask\000"
 4677      736B00
 4678              	.LASF27:
 4679 04e3 705F6E65 		.ascii	"p_next\000"
 4679      787400
 4680              	.LASF132:
 4681 04ea 69734368 		.ascii	"isChecked\000"
 4681      65636B65 
 4681      6400
 4682              	.LASF35:
 4683 04f4 705F666C 		.ascii	"p_flags\000"
 4683      61677300 
 4684              	.LASF121:
 4685 04fc 43757374 		.ascii	"CustomWidgetDrawFunction\000"
 4685      6F6D5769 
 4685      64676574 
 4685      44726177 
 4685      46756E63 
 4686              	.LASF73:
 4687 0515 474C6973 		.ascii	"GListener\000"
 4687      74656E65 
 4687      7200
 4688              	.LASF26:
 4689 051f 54687265 		.ascii	"Thread\000"
 4689      616400
 4690              	.LASF66:
 4691 0526 67667853 		.ascii	"gfxSem\000"
 4691      656D00
 4692              	.LASF158:
 4693 052d 2F686F6D 		.ascii	"/home/witold/Dokumenty/arm/ChibiOS-master/demos/wid"
 4693      652F7769 
 4693      746F6C64 
 4693      2F446F6B 
 4693      756D656E 
 4694 0560 67657473 		.ascii	"gets\000"
 4694      00
 4695              	.LASF133:
 4696 0565 47436865 		.ascii	"GCheckboxObject\000"
 4696      636B626F 
 4696      784F626A 
 4696      65637400 
 4697              	.LASF11:
 4698 0575 75696E74 		.ascii	"uint32_t\000"
 4698      33325F74 
 4698      00
 4699              	.LASF90:
 4700 057e 6A757374 		.ascii	"justifyRight\000"
 4700      69667952 
 4700      69676874 
 4700      00
 4701              	.LASF118:
 4702 058b 656E6162 		.ascii	"enabled\000"
 4702      6C656400 
 4703              	.LASF12:
 4704 0593 6C6F6E67 		.ascii	"long unsigned int\000"
ARM GAS  /tmp/ccgrWbgM.s 			page 88


 4704      20756E73 
 4704      69676E65 
 4704      6420696E 
 4704      7400
 4705              	.LASF105:
 4706 05a5 44657374 		.ascii	"Destroy\000"
 4706      726F7900 
 4707              	.LASF143:
 4708 05ad 6777696E 		.ascii	"gwinCheckboxIsChecked\000"
 4708      43686563 
 4708      6B626F78 
 4708      49734368 
 4708      65636B65 
 4709              	.LASF63:
 4710 05c3 63686172 		.ascii	"char\000"
 4710      00
 4711              	.LASF112:
 4712 05c8 74657874 		.ascii	"text\000"
 4712      00
 4713              	.LASF88:
 4714 05cd 6A757374 		.ascii	"justifyLeft\000"
 4714      6966794C 
 4714      65667400 
 4715              	.LASF58:
 4716 05d9 6D5F6E65 		.ascii	"m_next\000"
 4716      787400
 4717              	.LASF24:
 4718 05e0 73797374 		.ascii	"systime_t\000"
 4718      696D655F 
 4718      7400
 4719              	.LASF44:
 4720 05ea 705F7265 		.ascii	"p_realprio\000"
 4720      616C7072 
 4720      696F00
 4721              	.LASF106:
 4722 05f5 52656472 		.ascii	"Redraw\000"
 4722      617700
 4723              	.LASF33:
 4724 05fc 705F6E61 		.ascii	"p_name\000"
 4724      6D6500
 4725              	.LASF50:
 4726 0603 636F6E74 		.ascii	"context\000"
 4726      65787400 
 4727              	.LASF82:
 4728 060b 704C6973 		.ascii	"pListener\000"
 4728      74656E65 
 4728      7200
 4729              	.LASF49:
 4730 0615 696E7463 		.ascii	"intctx\000"
 4730      747800
 4731              	.LASF126:
 4732 061c 47576964 		.ascii	"GWidgetInit\000"
 4732      67657449 
 4732      6E697400 
 4733              	.LASF52:
 4734 0628 53656D61 		.ascii	"Semaphore\000"
 4734      70686F72 
ARM GAS  /tmp/ccgrWbgM.s 			page 89


 4734      6500
 4735              	.LASF138:
 4736 0632 44656661 		.ascii	"DefaultDraw\000"
 4736      756C7444 
 4736      72617700 
 4737              	.LASF96:
 4738 063e 4757696E 		.ascii	"GWindowObject\000"
 4738      646F774F 
 4738      626A6563 
 4738      7400
 4739              	.LASF36:
 4740 064c 705F7265 		.ascii	"p_refs\000"
 4740      667300
 4741              	.LASF120:
 4742 0653 70726573 		.ascii	"pressed\000"
 4742      73656400 
 4743              	.LASF94:
 4744 065b 666F6E74 		.ascii	"font\000"
 4744      00
 4745              	.LASF84:
 4746 0660 6C697374 		.ascii	"listenflags\000"
 4746      656E666C 
 4746      61677300 
 4747              	.LASF3:
 4748 066c 75696E74 		.ascii	"uint8_t\000"
 4748      385F7400 
 4749              	.LASF154:
 4750 0674 67646973 		.ascii	"gdispFillStringBox\000"
 4750      7046696C 
 4750      6C537472 
 4750      696E6742 
 4750      6F7800
 4751              	.LASF85:
 4752 0687 73726366 		.ascii	"srcflags\000"
 4752      6C616773 
 4752      00
 4753              	.LASF101:
 4754 0690 666C6167 		.ascii	"flags\000"
 4754      7300
 4755              	.LASF61:
 4756 0696 77746F62 		.ascii	"wtobjp\000"
 4756      6A7000
 4757              	.LASF116:
 4758 069d 47576964 		.ascii	"GWidgetStyle\000"
 4758      67657453 
 4758      74796C65 
 4758      00
 4759              	.LASF119:
 4760 06aa 64697361 		.ascii	"disabled\000"
 4760      626C6564 
 4760      00
 4761              	.LASF86:
 4762 06b3 47536F75 		.ascii	"GSourceListener\000"
 4762      7263654C 
 4762      69737465 
 4762      6E657200 
 4763              	.LASF136:
ARM GAS  /tmp/ccgrWbgM.s 			page 90


 4764 06c3 4D6F7573 		.ascii	"MouseMove\000"
 4764      654D6F76 
 4764      6500
 4765              	.LASF146:
 4766 06cd 63686563 		.ascii	"checkboxVMT\000"
 4766      6B626F78 
 4766      564D5400 
 4767              	.LASF41:
 4768 06d9 705F6D73 		.ascii	"p_msg\000"
 4768      6700
 4769              	.LASF98:
 4770 06df 68656967 		.ascii	"height\000"
 4770      687400
 4771              	.LASF81:
 4772 06e6 47536F75 		.ascii	"GSourceListener_t\000"
 4772      7263654C 
 4772      69737465 
 4772      6E65725F 
 4772      7400
 4773              	.LASF117:
 4774 06f8 6261636B 		.ascii	"background\000"
 4774      67726F75 
 4774      6E6400
 4775              	.LASF57:
 4776 0703 6D5F6F77 		.ascii	"m_owner\000"
 4776      6E657200 
 4777              	.LASF30:
 4778 070b 705F6374 		.ascii	"p_ctx\000"
 4778      7800
 4779              	.LASF39:
 4780 0711 705F7761 		.ascii	"p_waiting\000"
 4780      6974696E 
 4780      6700
 4781              	.LASF67:
 4782 071b 67667851 		.ascii	"gfxQueueASyncItem\000"
 4782      75657565 
 4782      4153796E 
 4782      63497465 
 4782      6D00
 4783              		.ident	"GCC: (GNU Tools for ARM Embedded Processors) 4.7.4 20130613 (release) [ARM/embedded-4_7-br
ARM GAS  /tmp/ccgrWbgM.s 			page 91


DEFINED SYMBOLS
                            *ABS*:00000000 checkbox.c
     /tmp/ccgrWbgM.s:21     .text.SendCheckboxEvent:00000000 $t
     /tmp/ccgrWbgM.s:26     .text.SendCheckboxEvent:00000000 SendCheckboxEvent
     /tmp/ccgrWbgM.s:87     .text.SendCheckboxEvent:00000038 $d
     /tmp/ccgrWbgM.s:92     .text.MouseDown:00000000 $t
     /tmp/ccgrWbgM.s:97     .text.MouseDown:00000000 MouseDown
     /tmp/ccgrWbgM.s:132    .text.gwinCheckboxDraw_CheckOnLeft:00000000 $t
     /tmp/ccgrWbgM.s:138    .text.gwinCheckboxDraw_CheckOnLeft:00000000 gwinCheckboxDraw_CheckOnLeft
     /tmp/ccgrWbgM.s:313    .text.gwinCheckboxDraw_CheckOnLeft:000000ec $d
     /tmp/ccgrWbgM.s:322    .text.gwinCheckboxCreate:00000000 $t
     /tmp/ccgrWbgM.s:328    .text.gwinCheckboxCreate:00000000 gwinCheckboxCreate
     /tmp/ccgrWbgM.s:362    .text.gwinCheckboxCreate:00000018 $d
     /tmp/ccgrWbgM.s:367    .text.gwinCheckboxCheck:00000000 $t
     /tmp/ccgrWbgM.s:373    .text.gwinCheckboxCheck:00000000 gwinCheckboxCheck
     /tmp/ccgrWbgM.s:436    .text.gwinCheckboxCheck:00000040 $d
     /tmp/ccgrWbgM.s:441    .text.gwinCheckboxIsChecked:00000000 $t
     /tmp/ccgrWbgM.s:447    .text.gwinCheckboxIsChecked:00000000 gwinCheckboxIsChecked
     /tmp/ccgrWbgM.s:475    .text.gwinCheckboxIsChecked:00000014 $d
     /tmp/ccgrWbgM.s:480    .text.gwinCheckboxDraw_CheckOnRight:00000000 $t
     /tmp/ccgrWbgM.s:486    .text.gwinCheckboxDraw_CheckOnRight:00000000 gwinCheckboxDraw_CheckOnRight
     /tmp/ccgrWbgM.s:667    .text.gwinCheckboxDraw_CheckOnRight:00000108 $d
     /tmp/ccgrWbgM.s:674    .rodata.str1.4:00000000 $d
     /tmp/ccgrWbgM.s:678    .rodata.checkboxVMT:00000000 $d
     /tmp/ccgrWbgM.s:682    .rodata.checkboxVMT:00000000 checkboxVMT
                     .debug_frame:00000010 $d
     /tmp/ccgrWbgM.s:91     .text.SendCheckboxEvent:0000003c $t
     /tmp/ccgrWbgM.s:366    .text.gwinCheckboxCreate:0000001c $t
     /tmp/ccgrWbgM.s:440    .text.gwinCheckboxCheck:00000044 $t
     /tmp/ccgrWbgM.s:479    .text.gwinCheckboxIsChecked:00000018 $t
     /tmp/ccgrWbgM.s:673    .text.gwinCheckboxDraw_CheckOnRight:0000010c $t

UNDEFINED SYMBOLS
geventGetSourceListener
geventGetEventBuffer
geventSendEvent
_gwidgetCreate
_gwidgetRedraw
gdispFillArea
gdispDrawBox
gdispFillStringBox
gwinSetVisible
_gwidgetDestroy
