ARM GAS  /tmp/ccgrWbgM.s 			page 1


   1              		.syntax unified
   2              		.cpu cortex-m4
   3              		.eabi_attribute 27, 3
   4              		.eabi_attribute 28, 1
   5              		.fpu fpv4-sp-d16
   6              		.eabi_attribute 20, 1
   7              		.eabi_attribute 21, 1
   8              		.eabi_attribute 23, 3
   9              		.eabi_attribute 24, 1
  10              		.eabi_attribute 25, 1
  11              		.eabi_attribute 26, 1
  12              		.eabi_attribute 30, 2
  13              		.eabi_attribute 34, 1
  14              		.eabi_attribute 18, 4
  15              		.thumb
  16              		.file	"checkbox.c"
  17              		.text
  18              	.Ltext0:
  19              		.cfi_sections	.debug_frame
  20              		.section	.text.SendCheckboxEvent,"ax",%progbits
  21              		.align	2
  22              		.p2align 4,,15
  23              		.thumb
  24              		.thumb_func
  25              		.type	SendCheckboxEvent, %function
  26              	SendCheckboxEvent:
  27              	.LFB118:
  28              		.file 1 "../../ext/ugfx/src/gwin/checkbox.c"
  29              		.loc 1 28 0
  30              		.cfi_startproc
  31              		@ args = 0, pretend = 0, frame = 0
  32              		@ frame_needed = 0, uses_anonymous_args = 0
  33              	.LVL0:
  34 0000 70B5     		push	{r4, r5, r6, lr}
  35              	.LCFI0:
  36              		.cfi_def_cfa_offset 16
  37              		.cfi_offset 4, -16
  38              		.cfi_offset 5, -12
  39              		.cfi_offset 6, -8
  40              		.cfi_offset 14, -4
  41              		.loc 1 28 0
  42 0002 0546     		mov	r5, r0
  43              		.loc 1 34 0
  44 0004 0024     		movs	r4, #0
  45              		.loc 1 38 0
  46 0006 40F20226 		movw	r6, #514
  47              	.LVL1:
  48              	.L10:
  49              		.loc 1 35 0 discriminator 1
  50 000a 2146     		mov	r1, r4
  51 000c 0A48     		ldr	r0, .L13
  52 000e FFF7FEFF 		bl	geventGetSourceListener
  53              	.LVL2:
  54 0012 0446     		mov	r4, r0
  55 0014 70B1     		cbz	r0, .L12
  56              		.loc 1 36 0
  57 0016 FFF7FEFF 		bl	geventGetEventBuffer
ARM GAS  /tmp/ccgrWbgM.s 			page 2


  58              	.LVL3:
  59 001a 0346     		mov	r3, r0
  60              		.loc 1 41 0
  61 001c 2046     		mov	r0, r4
  62              	.LVL4:
  63              		.loc 1 36 0
  64 001e 002B     		cmp	r3, #0
  65 0020 F3D0     		beq	.L10
  66              		.loc 1 40 0
  67 0022 AA8A     		ldrh	r2, [r5, #20]
  68              		.loc 1 38 0
  69 0024 1E80     		strh	r6, [r3, #0]	@ movhi
  70              		.loc 1 40 0
  71 0026 C2F30031 		ubfx	r1, r2, #12, #1
  72              		.loc 1 39 0
  73 002a 5D60     		str	r5, [r3, #4]
  74              		.loc 1 40 0
  75 002c 1972     		strb	r1, [r3, #8]
  76              		.loc 1 41 0
  77 002e FFF7FEFF 		bl	geventSendEvent
  78              	.LVL5:
  79 0032 EAE7     		b	.L10
  80              	.LVL6:
  81              	.L12:
  82              		.loc 1 45 0
  83 0034 70BD     		pop	{r4, r5, r6, pc}
  84              	.L14:
  85 0036 00BF     		.align	2
  86              	.L13:
  87 0038 00000000 		.word	_gwidgetCreate
  88              		.cfi_endproc
  89              	.LFE118:
  90              		.size	SendCheckboxEvent, .-SendCheckboxEvent
  91 003c AFF30080 		.section	.text.MouseDown,"ax",%progbits
  92              		.align	2
  93              		.p2align 4,,15
  94              		.thumb
  95              		.thumb_func
  96              		.type	MouseDown, %function
  97              	MouseDown:
  98              	.LFB119:
  99              		.loc 1 48 0
 100              		.cfi_startproc
 101              		@ args = 0, pretend = 0, frame = 0
 102              		@ frame_needed = 0, uses_anonymous_args = 0
 103              	.LVL7:
 104              		.loc 1 50 0
 105 0000 838A     		ldrh	r3, [r0, #20]
 106              		.loc 1 48 0
 107 0002 10B5     		push	{r4, lr}
 108              	.LCFI1:
 109              		.cfi_def_cfa_offset 8
 110              		.cfi_offset 4, -8
 111              		.cfi_offset 14, -4
 112              		.loc 1 50 0
 113 0004 83F48051 		eor	r1, r3, #4096
 114              	.LVL8:
ARM GAS  /tmp/ccgrWbgM.s 			page 3


 115 0008 8182     		strh	r1, [r0, #20]	@ movhi
 116              		.loc 1 48 0
 117 000a 0446     		mov	r4, r0
 118              		.loc 1 51 0
 119 000c FFF7FEFF 		bl	_gwidgetRedraw
 120              	.LVL9:
 121              		.loc 1 52 0
 122 0010 2046     		mov	r0, r4
 123              		.loc 1 53 0
 124 0012 BDE81040 		pop	{r4, lr}
 125              		.loc 1 52 0
 126 0016 FFF7FEBF 		b	SendCheckboxEvent
 127              	.LVL10:
 128              		.cfi_endproc
 129              	.LFE119:
 130              		.size	MouseDown, .-MouseDown
 131 001a 00BFAFF3 		.section	.text.gwinCheckboxDraw_CheckOnLeft,"ax",%progbits
 131      0080
 132              		.align	2
 133              		.p2align 4,,15
 134              		.global	gwinCheckboxDraw_CheckOnLeft
 135              		.thumb
 136              		.thumb_func
 137              		.type	gwinCheckboxDraw_CheckOnLeft, %function
 138              	gwinCheckboxDraw_CheckOnLeft:
 139              	.LFB124:
 140              		.loc 1 154 0
 141              		.cfi_startproc
 142              		@ args = 0, pretend = 0, frame = 0
 143              		@ frame_needed = 0, uses_anonymous_args = 0
 144              	.LVL11:
 145 0000 F0B5     		push	{r4, r5, r6, r7, lr}
 146              	.LCFI2:
 147              		.cfi_def_cfa_offset 20
 148              		.cfi_offset 4, -20
 149              		.cfi_offset 5, -16
 150              		.cfi_offset 6, -12
 151              		.cfi_offset 7, -8
 152              		.cfi_offset 14, -4
 153              		.loc 1 160 0
 154 0002 4368     		ldr	r3, [r0, #4]
 155 0004 394A     		ldr	r2, .L30
 156 0006 9342     		cmp	r3, r2
 157              		.loc 1 154 0
 158 0008 87B0     		sub	sp, sp, #28
 159              	.LCFI3:
 160              		.cfi_def_cfa_offset 48
 161              		.loc 1 154 0
 162 000a 0446     		mov	r4, r0
 163              		.loc 1 160 0
 164 000c 01D0     		beq	.L27
 165              	.LVL12:
 166              	.L16:
 167              		.loc 1 173 0
 168 000e 07B0     		add	sp, sp, #28
 169 0010 F0BD     		pop	{r4, r5, r6, r7, pc}
 170              	.LVL13:
ARM GAS  /tmp/ccgrWbgM.s 			page 4


 171              	.L27:
 172              	.LBB12:
 173              	.LBB13:
 174              	.LBB14:
 175              	.LBB15:
 176              		.loc 1 149 0
 177 0012 808A     		ldrh	r0, [r0, #20]
 178              	.LVL14:
 179 0014 00F01001 		and	r1, r0, #16
 180              	.LVL15:
 181 0018 8DB2     		uxth	r5, r1
 182 001a 002D     		cmp	r5, #0
 183 001c 4DD0     		beq	.L28
 184              		.loc 1 150 0
 185 001e 00F48056 		and	r6, r0, #4096
 186 0022 B7B2     		uxth	r7, r6
 187 0024 002F     		cmp	r7, #0
 188 0026 5ED0     		beq	.L20
 189 0028 A36A     		ldr	r3, [r4, #40]
 190 002a 03F11207 		add	r7, r3, #18
 191              	.L19:
 192              	.LBE15:
 193              	.LBE14:
 194              		.loc 1 163 0
 195 002e B4F90E20 		ldrsh	r2, [r4, #14]
 196 0032 B4F90C50 		ldrsh	r5, [r4, #12]
 197              		.loc 1 164 0
 198 0036 2089     		ldrh	r0, [r4, #8]
 199 0038 B3F800E0 		ldrh	lr, [r3, #0]
 200 003c 6189     		ldrh	r1, [r4, #10]
 201 003e CDF800E0 		str	lr, [sp, #0]
 202              		.loc 1 163 0
 203 0042 9542     		cmp	r5, r2
 204 0044 A8BF     		it	ge
 205 0046 1546     		movge	r5, r2
 206 0048 ABB2     		uxth	r3, r5
 207              	.LVL16:
 208              		.loc 1 164 0
 209 004a 9EB2     		uxth	r6, r3
 210 004c 1DB2     		sxth	r5, r3
 211              	.LVL17:
 212 004e 421C     		adds	r2, r0, #1
 213 0050 0131     		adds	r1, r1, #1
 214 0052 B31E     		subs	r3, r6, #2
 215              	.LVL18:
 216 0054 10B2     		sxth	r0, r2
 217 0056 09B2     		sxth	r1, r1
 218 0058 2A46     		mov	r2, r5
 219 005a 1BB2     		sxth	r3, r3
 220 005c FFF7FEFF 		bl	gdispFillArea
 221              	.LVL19:
 222              		.loc 1 165 0
 223 0060 7A88     		ldrh	r2, [r7, #2]
 224 0062 B4F90800 		ldrsh	r0, [r4, #8]
 225 0066 B4F90A10 		ldrsh	r1, [r4, #10]
 226 006a 0092     		str	r2, [sp, #0]
 227 006c 2B46     		mov	r3, r5
ARM GAS  /tmp/ccgrWbgM.s 			page 5


 228 006e 2A46     		mov	r2, r5
 229 0070 FFF7FEFF 		bl	gdispDrawBox
 230              	.LVL20:
 231              	.LBE13:
 232              		.loc 1 168 0
 233 0074 A08A     		ldrh	r0, [r4, #20]
 234              	.LBB20:
 235 0076 00F48051 		and	r1, r0, #4096
 236 007a 8BB2     		uxth	r3, r1
 237              		.loc 1 167 0
 238 007c 032D     		cmp	r5, #3
 239 007e CCBF     		ite	gt
 240 0080 0225     		movgt	r5, #2
 241 0082 0125     		movle	r5, #1
 242              	.LVL21:
 243              		.loc 1 168 0
 244 0084 EBB9     		cbnz	r3, .L29
 245              	.LVL22:
 246              	.L22:
 247              		.loc 1 171 0
 248 0086 E169     		ldr	r1, [r4, #28]
 249 0088 A269     		ldr	r2, [r4, #24]
 250 008a 0091     		str	r1, [sp, #0]
 251 008c 0192     		str	r2, [sp, #4]
 252 008e 3D88     		ldrh	r5, [r7, #0]
 253 0090 A36A     		ldr	r3, [r4, #40]
 254 0092 2089     		ldrh	r0, [r4, #8]
 255 0094 A289     		ldrh	r2, [r4, #12]
 256 0096 0295     		str	r5, [sp, #8]
 257 0098 1D88     		ldrh	r5, [r3, #0]
 258 009a B4F90A10 		ldrsh	r1, [r4, #10]
 259 009e B4F90E30 		ldrsh	r3, [r4, #14]
 260 00a2 0395     		str	r5, [sp, #12]
 261 00a4 013A     		subs	r2, r2, #1
 262 00a6 0130     		adds	r0, r0, #1
 263 00a8 3018     		adds	r0, r6, r0
 264 00aa 961B     		subs	r6, r2, r6
 265              	.LVL23:
 266 00ac 0022     		movs	r2, #0
 267 00ae 0492     		str	r2, [sp, #16]
 268 00b0 00B2     		sxth	r0, r0
 269 00b2 32B2     		sxth	r2, r6
 270 00b4 FFF7FEFF 		bl	gdispFillStringBox
 271              	.LVL24:
 272 00b8 A9E7     		b	.L16
 273              	.L28:
 274              	.LBB18:
 275              	.LBB16:
 276              		.loc 1 149 0
 277 00ba A36A     		ldr	r3, [r4, #40]
 278 00bc 03F10A07 		add	r7, r3, #10
 279 00c0 B5E7     		b	.L19
 280              	.LVL25:
 281              	.L29:
 282              	.LBE16:
 283              	.LBE18:
 284              		.loc 1 169 0
ARM GAS  /tmp/ccgrWbgM.s 			page 6


 285 00c2 ADB2     		uxth	r5, r5
 286              	.LVL26:
 287 00c4 6189     		ldrh	r1, [r4, #10]
 288 00c6 2089     		ldrh	r0, [r4, #8]
 289 00c8 BB88     		ldrh	r3, [r7, #4]
 290 00ca C5EBC532 		rsb	r2, r5, r5, lsl #15
 291 00ce 06EB4202 		add	r2, r6, r2, lsl #1
 292 00d2 12B2     		sxth	r2, r2
 293 00d4 2818     		adds	r0, r5, r0
 294 00d6 6D18     		adds	r5, r5, r1
 295 00d8 0093     		str	r3, [sp, #0]
 296 00da 00B2     		sxth	r0, r0
 297 00dc 29B2     		sxth	r1, r5
 298 00de 1346     		mov	r3, r2
 299 00e0 FFF7FEFF 		bl	gdispFillArea
 300              	.LVL27:
 301 00e4 CFE7     		b	.L22
 302              	.LVL28:
 303              	.L20:
 304              	.LBB19:
 305              	.LBB17:
 306              		.loc 1 151 0
 307 00e6 A36A     		ldr	r3, [r4, #40]
 308 00e8 9F1C     		adds	r7, r3, #2
 309 00ea A0E7     		b	.L19
 310              	.L31:
 311              		.align	2
 312              	.L30:
 313 00ec 00000000 		.word	.LANCHOR0
 314              	.LBE17:
 315              	.LBE19:
 316              	.LBE20:
 317              	.LBE12:
 318              		.cfi_endproc
 319              	.LFE124:
 320              		.size	gwinCheckboxDraw_CheckOnLeft, .-gwinCheckboxDraw_CheckOnLeft
 321              		.section	.text.gwinCheckboxCreate,"ax",%progbits
 322              		.align	2
 323              		.p2align 4,,15
 324              		.global	gwinCheckboxCreate
 325              		.thumb
 326              		.thumb_func
 327              		.type	gwinCheckboxCreate, %function
 328              	gwinCheckboxCreate:
 329              	.LFB120:
 330              		.loc 1 111 0
 331              		.cfi_startproc
 332              		@ args = 0, pretend = 0, frame = 0
 333              		@ frame_needed = 0, uses_anonymous_args = 0
 334              	.LVL29:
 335 0000 38B5     		push	{r3, r4, r5, lr}
 336              	.LCFI4:
 337              		.cfi_def_cfa_offset 16
 338              		.cfi_offset 3, -16
 339              		.cfi_offset 4, -12
 340              		.cfi_offset 5, -8
 341              		.cfi_offset 14, -4
ARM GAS  /tmp/ccgrWbgM.s 			page 7


 342              		.loc 1 112 0
 343 0002 054A     		ldr	r2, .L37
 344              		.loc 1 111 0
 345 0004 0D46     		mov	r5, r1
 346              		.loc 1 112 0
 347 0006 FFF7FEFF 		bl	_gwidgetCreate
 348              	.LVL30:
 349 000a 0446     		mov	r4, r0
 350 000c 10B1     		cbz	r0, .L33
 351              		.loc 1 118 0
 352 000e 297A     		ldrb	r1, [r5, #8]	@ zero_extendqisi2
 353 0010 FFF7FEFF 		bl	gwinSetVisible
 354              	.LVL31:
 355              	.L33:
 356              		.loc 1 120 0
 357 0014 2046     		mov	r0, r4
 358 0016 38BD     		pop	{r3, r4, r5, pc}
 359              	.L38:
 360              		.align	2
 361              	.L37:
 362 0018 00000000 		.word	.LANCHOR0
 363              		.cfi_endproc
 364              	.LFE120:
 365              		.size	gwinCheckboxCreate, .-gwinCheckboxCreate
 366 001c AFF30080 		.section	.text.gwinCheckboxCheck,"ax",%progbits
 367              		.align	2
 368              		.p2align 4,,15
 369              		.global	gwinCheckboxCheck
 370              		.thumb
 371              		.thumb_func
 372              		.type	gwinCheckboxCheck, %function
 373              	gwinCheckboxCheck:
 374              	.LFB121:
 375              		.loc 1 122 0
 376              		.cfi_startproc
 377              		@ args = 0, pretend = 0, frame = 0
 378              		@ frame_needed = 0, uses_anonymous_args = 0
 379              	.LVL32:
 380              		.loc 1 123 0
 381 0000 4368     		ldr	r3, [r0, #4]
 382 0002 0F4A     		ldr	r2, .L48
 383 0004 9342     		cmp	r3, r2
 384              		.loc 1 122 0
 385 0006 10B5     		push	{r4, lr}
 386              	.LCFI5:
 387              		.cfi_def_cfa_offset 8
 388              		.cfi_offset 4, -8
 389              		.cfi_offset 14, -4
 390              		.loc 1 122 0
 391 0008 0446     		mov	r4, r0
 392              		.loc 1 123 0
 393 000a 00D0     		beq	.L46
 394              	.LVL33:
 395              	.L39:
 396 000c 10BD     		pop	{r4, pc}
 397              	.LVL34:
 398              	.L46:
ARM GAS  /tmp/ccgrWbgM.s 			page 8


 399              		.loc 1 127 0
 400 000e 808A     		ldrh	r0, [r0, #20]
 401              	.LVL35:
 402 0010 00F48053 		and	r3, r0, #4096
 403 0014 9AB2     		uxth	r2, r3
 404              		.loc 1 126 0
 405 0016 61B9     		cbnz	r1, .L47
 406              		.loc 1 130 0
 407 0018 002A     		cmp	r2, #0
 408 001a F7D0     		beq	.L39
 409              		.loc 1 131 0
 410 001c 20F48051 		bic	r1, r0, #4096
 411              	.LVL36:
 412 0020 A182     		strh	r1, [r4, #20]	@ movhi
 413              	.L42:
 414              		.loc 1 133 0
 415 0022 2046     		mov	r0, r4
 416 0024 FFF7FEFF 		bl	_gwidgetRedraw
 417              	.LVL37:
 418              		.loc 1 134 0
 419 0028 2046     		mov	r0, r4
 420              		.loc 1 135 0
 421 002a BDE81040 		pop	{r4, lr}
 422              		.loc 1 134 0
 423 002e FFF7FEBF 		b	SendCheckboxEvent
 424              	.LVL38:
 425              	.L47:
 426              		.loc 1 127 0
 427 0032 002A     		cmp	r2, #0
 428 0034 EAD1     		bne	.L39
 429              		.loc 1 128 0
 430 0036 40F48050 		orr	r0, r0, #4096
 431 003a A082     		strh	r0, [r4, #20]	@ movhi
 432 003c F1E7     		b	.L42
 433              	.L49:
 434 003e 00BF     		.align	2
 435              	.L48:
 436 0040 00000000 		.word	.LANCHOR0
 437              		.cfi_endproc
 438              	.LFE121:
 439              		.size	gwinCheckboxCheck, .-gwinCheckboxCheck
 440 0044 AFF30080 		.section	.text.gwinCheckboxIsChecked,"ax",%progbits
 440      AFF30080 
 440      AFF30080 
 441              		.align	2
 442              		.p2align 4,,15
 443              		.global	gwinCheckboxIsChecked
 444              		.thumb
 445              		.thumb_func
 446              		.type	gwinCheckboxIsChecked, %function
 447              	gwinCheckboxIsChecked:
 448              	.LFB122:
 449              		.loc 1 137 0
 450              		.cfi_startproc
 451              		@ args = 0, pretend = 0, frame = 0
 452              		@ frame_needed = 0, uses_anonymous_args = 0
 453              		@ link register save eliminated.
ARM GAS  /tmp/ccgrWbgM.s 			page 9


 454              	.LVL39:
 455              		.loc 1 138 0
 456 0000 4368     		ldr	r3, [r0, #4]
 457 0002 044A     		ldr	r2, .L54
 458 0004 9342     		cmp	r3, r2
 459 0006 01D0     		beq	.L53
 460              		.loc 1 139 0
 461 0008 0020     		movs	r0, #0
 462              	.LVL40:
 463              		.loc 1 142 0
 464 000a 7047     		bx	lr
 465              	.LVL41:
 466              	.L53:
 467              		.loc 1 141 0
 468 000c 808A     		ldrh	r0, [r0, #20]
 469              	.LVL42:
 470 000e C0F30030 		ubfx	r0, r0, #12, #1
 471 0012 7047     		bx	lr
 472              	.L55:
 473              		.align	2
 474              	.L54:
 475 0014 00000000 		.word	.LANCHOR0
 476              		.cfi_endproc
 477              	.LFE122:
 478              		.size	gwinCheckboxIsChecked, .-gwinCheckboxIsChecked
 479 0018 AFF30080 		.section	.text.gwinCheckboxDraw_CheckOnRight,"ax",%progbits
 479      AFF30080 
 480              		.align	2
 481              		.p2align 4,,15
 482              		.global	gwinCheckboxDraw_CheckOnRight
 483              		.thumb
 484              		.thumb_func
 485              		.type	gwinCheckboxDraw_CheckOnRight, %function
 486              	gwinCheckboxDraw_CheckOnRight:
 487              	.LFB125:
 488              		.loc 1 175 0
 489              		.cfi_startproc
 490              		@ args = 0, pretend = 0, frame = 0
 491              		@ frame_needed = 0, uses_anonymous_args = 0
 492              	.LVL43:
 493 0000 2DE9F043 		push	{r4, r5, r6, r7, r8, r9, lr}
 494              	.LCFI6:
 495              		.cfi_def_cfa_offset 28
 496              		.cfi_offset 4, -28
 497              		.cfi_offset 5, -24
 498              		.cfi_offset 6, -20
 499              		.cfi_offset 7, -16
 500              		.cfi_offset 8, -12
 501              		.cfi_offset 9, -8
 502              		.cfi_offset 14, -4
 503              		.loc 1 181 0
 504 0004 4368     		ldr	r3, [r0, #4]
 505 0006 404A     		ldr	r2, .L70
 506 0008 9342     		cmp	r3, r2
 507              		.loc 1 175 0
 508 000a 87B0     		sub	sp, sp, #28
 509              	.LCFI7:
ARM GAS  /tmp/ccgrWbgM.s 			page 10


 510              		.cfi_def_cfa_offset 56
 511              		.loc 1 175 0
 512 000c 0446     		mov	r4, r0
 513              		.loc 1 181 0
 514 000e 02D0     		beq	.L67
 515              	.LVL44:
 516              	.L56:
 517              		.loc 1 195 0
 518 0010 07B0     		add	sp, sp, #28
 519 0012 BDE8F083 		pop	{r4, r5, r6, r7, r8, r9, pc}
 520              	.LVL45:
 521              	.L67:
 522              	.LBB21:
 523              	.LBB22:
 524              		.loc 1 149 0
 525 0016 808A     		ldrh	r0, [r0, #20]
 526              	.LVL46:
 527 0018 00F01001 		and	r1, r0, #16
 528              	.LVL47:
 529 001c 8DB2     		uxth	r5, r1
 530 001e 002D     		cmp	r5, #0
 531 0020 57D0     		beq	.L68
 532              		.loc 1 150 0
 533 0022 00F48056 		and	r6, r0, #4096
 534 0026 B7B2     		uxth	r7, r6
 535 0028 002F     		cmp	r7, #0
 536 002a 69D0     		beq	.L60
 537 002c A36A     		ldr	r3, [r4, #40]
 538 002e 03F11206 		add	r6, r3, #18
 539              	.L59:
 540              	.LBE22:
 541              	.LBE21:
 542              		.loc 1 184 0
 543 0032 B4F80C90 		ldrh	r9, [r4, #12]
 544 0036 B4F90E20 		ldrsh	r2, [r4, #14]
 545              		.loc 1 186 0
 546 003a B3F800E0 		ldrh	lr, [r3, #0]
 547 003e 2089     		ldrh	r0, [r4, #8]
 548 0040 6189     		ldrh	r1, [r4, #10]
 549 0042 CDF800E0 		str	lr, [sp, #0]
 550              		.loc 1 184 0
 551 0046 0FFA89F5 		sxth	r5, r9
 552 004a 9542     		cmp	r5, r2
 553 004c A8BF     		it	ge
 554 004e 1546     		movge	r5, r2
 555 0050 ABB2     		uxth	r3, r5
 556              	.LVL48:
 557              		.loc 1 185 0
 558 0052 1FFA83F8 		uxth	r8, r3
 559 0056 C8EB0907 		rsb	r7, r8, r9
 560 005a 1FFA87F9 		uxth	r9, r7
 561 005e 09F1FF32 		add	r2, r9, #-1
 562 0062 97B2     		uxth	r7, r2
 563              	.LVL49:
 564              		.loc 1 186 0
 565 0064 0138     		subs	r0, r0, #1
 566 0066 1DB2     		sxth	r5, r3
ARM GAS  /tmp/ccgrWbgM.s 			page 11


 567              	.LVL50:
 568 0068 3A18     		adds	r2, r7, r0
 569              	.LVL51:
 570 006a 0131     		adds	r1, r1, #1
 571 006c A8F10203 		sub	r3, r8, #2
 572              	.LVL52:
 573 0070 10B2     		sxth	r0, r2
 574 0072 09B2     		sxth	r1, r1
 575 0074 2A46     		mov	r2, r5
 576 0076 1BB2     		sxth	r3, r3
 577 0078 FFF7FEFF 		bl	gdispFillArea
 578              	.LVL53:
 579              		.loc 1 187 0
 580 007c 2089     		ldrh	r0, [r4, #8]
 581 007e 7288     		ldrh	r2, [r6, #2]
 582 0080 B4F90A10 		ldrsh	r1, [r4, #10]
 583 0084 0092     		str	r2, [sp, #0]
 584 0086 3B18     		adds	r3, r7, r0
 585 0088 18B2     		sxth	r0, r3
 586 008a 2A46     		mov	r2, r5
 587 008c 2B46     		mov	r3, r5
 588 008e FFF7FEFF 		bl	gdispDrawBox
 589              	.LVL54:
 590              		.loc 1 190 0
 591 0092 A18A     		ldrh	r1, [r4, #20]
 592 0094 01F48050 		and	r0, r1, #4096
 593 0098 82B2     		uxth	r2, r0
 594              		.loc 1 189 0
 595 009a 032D     		cmp	r5, #3
 596 009c CCBF     		ite	gt
 597 009e 0225     		movgt	r5, #2
 598 00a0 0125     		movle	r5, #1
 599              	.LVL55:
 600              		.loc 1 190 0
 601 00a2 D2B9     		cbnz	r2, .L69
 602              	.LVL56:
 603              	.L62:
 604              		.loc 1 193 0
 605 00a4 E369     		ldr	r3, [r4, #28]
 606 00a6 A269     		ldr	r2, [r4, #24]
 607 00a8 0093     		str	r3, [sp, #0]
 608 00aa 0192     		str	r2, [sp, #4]
 609 00ac 3088     		ldrh	r0, [r6, #0]
 610 00ae A16A     		ldr	r1, [r4, #40]
 611 00b0 0290     		str	r0, [sp, #8]
 612 00b2 0A88     		ldrh	r2, [r1, #0]
 613 00b4 B4F90800 		ldrsh	r0, [r4, #8]
 614 00b8 B4F90A10 		ldrsh	r1, [r4, #10]
 615 00bc B4F90E30 		ldrsh	r3, [r4, #14]
 616 00c0 0392     		str	r2, [sp, #12]
 617 00c2 0224     		movs	r4, #2
 618              	.LVL57:
 619 00c4 A9F10202 		sub	r2, r9, #2
 620 00c8 0494     		str	r4, [sp, #16]
 621 00ca 12B2     		sxth	r2, r2
 622 00cc FFF7FEFF 		bl	gdispFillStringBox
 623              	.LVL58:
ARM GAS  /tmp/ccgrWbgM.s 			page 12


 624 00d0 9EE7     		b	.L56
 625              	.LVL59:
 626              	.L68:
 627              	.LBB25:
 628              	.LBB23:
 629              		.loc 1 149 0
 630 00d2 A36A     		ldr	r3, [r4, #40]
 631 00d4 03F10A06 		add	r6, r3, #10
 632 00d8 ABE7     		b	.L59
 633              	.LVL60:
 634              	.L69:
 635              	.LBE23:
 636              	.LBE25:
 637              		.loc 1 191 0
 638 00da ADB2     		uxth	r5, r5
 639              	.LVL61:
 640 00dc 2089     		ldrh	r0, [r4, #8]
 641 00de 6189     		ldrh	r1, [r4, #10]
 642 00e0 B388     		ldrh	r3, [r6, #4]
 643 00e2 C5EBC532 		rsb	r2, r5, r5, lsl #15
 644 00e6 08EB4202 		add	r2, r8, r2, lsl #1
 645 00ea 3818     		adds	r0, r7, r0
 646 00ec 12B2     		sxth	r2, r2
 647 00ee 2818     		adds	r0, r5, r0
 648 00f0 6918     		adds	r1, r5, r1
 649 00f2 0093     		str	r3, [sp, #0]
 650 00f4 00B2     		sxth	r0, r0
 651 00f6 09B2     		sxth	r1, r1
 652 00f8 1346     		mov	r3, r2
 653 00fa FFF7FEFF 		bl	gdispFillArea
 654              	.LVL62:
 655 00fe D1E7     		b	.L62
 656              	.LVL63:
 657              	.L60:
 658              	.LBB26:
 659              	.LBB24:
 660              		.loc 1 151 0
 661 0100 A36A     		ldr	r3, [r4, #40]
 662 0102 9E1C     		adds	r6, r3, #2
 663 0104 95E7     		b	.L59
 664              	.L71:
 665 0106 00BF     		.align	2
 666              	.L70:
 667 0108 00000000 		.word	.LANCHOR0
 668              	.LBE24:
 669              	.LBE26:
 670              		.cfi_endproc
 671              	.LFE125:
 672              		.size	gwinCheckboxDraw_CheckOnRight, .-gwinCheckboxDraw_CheckOnRight
 673 010c AFF30080 		.section	.rodata.str1.4,"aMS",%progbits,1
 674              		.align	2
 675              	.LC0:
 676 0000 43686563 		.ascii	"Checkbox\000"
 676      6B626F78 
 676      00
 677 0009 000000   		.section	.rodata.checkboxVMT,"a",%progbits
 678              		.align	2
ARM GAS  /tmp/ccgrWbgM.s 			page 13


 679              		.set	.LANCHOR0,. + 0
 680              		.type	checkboxVMT, %object
 681              		.size	checkboxVMT, 36
 682              	checkboxVMT:
 683 0000 00000000 		.word	.LC0
 684 0004 2C000000 		.word	44
 685 0008 00000000 		.word	_gwidgetDestroy
 686 000c 00000000 		.word	_gwidgetRedraw
 687 0010 00000000 		.word	0
 688 0014 00000000 		.word	gwinCheckboxDraw_CheckOnLeft
 689 0018 00000000 		.word	MouseDown
 690 001c 00000000 		.word	0
 691 0020 00000000 		.word	0
 692              		.text
 693              	.Letext0:
 694              		.file 2 "/usr/bin/../lib/gcc/arm-none-eabi/4.7.4/include/stddef.h"
 695              		.file 3 "/usr/bin/../lib/gcc/arm-none-eabi/4.7.4/../../../../arm-none-eabi/include/stdint.h"
 696              		.file 4 "../../os/ports/GCC/ARMCMx/chtypes.h"
 697              		.file 5 "../../os/kernel/include/chlists.h"
 698              		.file 6 "../../os/kernel/include/chthreads.h"
 699              		.file 7 "../../os/ports/GCC/ARMCMx/chcore_v7m.h"
 700              		.file 8 "../../os/kernel/include/chsem.h"
 701              		.file 9 "../../os/kernel/include/chmtx.h"
 702              		.file 10 "../../ext/ugfx/include/gos/chibios.h"
 703              		.file 11 "../../ext/ugfx/include/gqueue/gqueue.h"
 704              		.file 12 "../../ext/ugfx/include/gevent/gevent.h"
 705              		.file 13 "../../ext/ugfx/include/gdisp/gdisp.h"
 706              		.file 14 "../../ext/ugfx/include/gwin/gwin.h"
 707              		.file 15 "../../ext/ugfx/include/gwin/class_gwin.h"
 708              		.file 16 "../../ext/ugfx/include/gwin/gwidget.h"
 709              		.file 17 "../../ext/ugfx/include/gwin/checkbox.h"
 710              		.file 18 "../../os/ports/common/ARMCMx/CMSIS/include/core_cm4.h"