ARM GAS  /tmp/ccfro8fl.s 			page 1


   1              		.syntax unified
   2              		.cpu cortex-m4
   3              		.eabi_attribute 27, 3
   4              		.eabi_attribute 28, 1
   5              		.fpu fpv4-sp-d16
   6              		.eabi_attribute 20, 1
   7              		.eabi_attribute 21, 1
   8              		.eabi_attribute 23, 3
   9              		.eabi_attribute 24, 1
  10              		.eabi_attribute 25, 1
  11              		.eabi_attribute 26, 1
  12              		.eabi_attribute 30, 2
  13              		.eabi_attribute 34, 1
  14              		.eabi_attribute 18, 4
  15              		.thumb
  16              		.file	"console.c"
  17              		.text
  18              	.Ltext0:
  19              		.cfi_sections	.debug_frame
  20              		.section	.text.AfterClear,"ax",%progbits
  21              		.align	2
  22              		.p2align 4,,15
  23              		.thumb
  24              		.thumb_func
  25              		.type	AfterClear, %function
  26              	AfterClear:
  27              	.LFB118:
  28              		.file 1 "../../ext/ugfx/src/gwin/console.c"
  29              		.loc 1 56 0
  30              		.cfi_startproc
  31              		@ args = 0, pretend = 0, frame = 0
  32              		@ frame_needed = 0, uses_anonymous_args = 0
  33              		@ link register save eliminated.
  34              	.LVL0:
  35              		.loc 1 57 0
  36 0000 0023     		movs	r3, #0
  37 0002 8383     		strh	r3, [r0, #28]	@ movhi
  38              		.loc 1 58 0
  39 0004 C383     		strh	r3, [r0, #30]	@ movhi
  40 0006 7047     		bx	lr
  41              		.cfi_endproc
  42              	.LFE118:
  43              		.size	AfterClear, .-AfterClear
  44 0008 AFF30080 		.section	.text.ltoa_wd.constprop.1,"ax",%progbits
  44      AFF30080 
  45              		.align	2
  46              		.p2align 4,,15
  47              		.thumb
  48              		.thumb_func
  49              		.type	ltoa_wd.constprop.1, %function
  50              	ltoa_wd.constprop.1:
  51              	.LFB126:
  52              		.loc 1 164 0
  53              		.cfi_startproc
  54              		@ args = 0, pretend = 0, frame = 0
  55              		@ frame_needed = 0, uses_anonymous_args = 0
  56              		@ link register save eliminated.
ARM GAS  /tmp/ccfro8fl.s 			page 2


  57              	.LVL1:
  58 0000 F0B4     		push	{r4, r5, r6, r7}
  59              	.LCFI0:
  60              		.cfi_def_cfa_offset 16
  61              		.cfi_offset 4, -16
  62              		.cfi_offset 5, -12
  63              		.cfi_offset 6, -8
  64              		.cfi_offset 7, -4
  65              		.loc 1 170 0
  66 0002 00F10B0C 		add	ip, r0, #11
  67              		.loc 1 164 0
  68 0006 0746     		mov	r7, r0
  69              	.LVL2:
  70 0008 00F10A05 		add	r5, r0, #10
  71 000c 0C46     		mov	r4, r1
  72              	.LVL3:
  73              	.L4:
  74              		.loc 1 172 0
  75 000e B1FBF2F6 		udiv	r6, r1, r2
  76 0012 02FB1611 		mls	r1, r2, r6, r1
  77              	.LVL4:
  78              		.loc 1 173 0
  79 0016 01F13003 		add	r3, r1, #48
  80              	.LVL5:
  81              		.loc 1 174 0
  82 001a 392B     		cmp	r3, #57
  83              		.loc 1 175 0
  84 001c C8BF     		it	gt
  85 001e 01F13703 		addgt	r3, r1, #55
  86              	.LVL6:
  87              		.loc 1 176 0
  88 0022 DBB2     		uxtb	r3, r3
  89              	.LVL7:
  90              		.loc 1 178 0
  91 0024 B4FBF2F4 		udiv	r4, r4, r2
  92              	.LVL8:
  93              		.loc 1 176 0
  94 0028 2846     		mov	r0, r5
  95              	.LVL9:
  96              		.loc 1 177 0
  97 002a 3146     		mov	r1, r6
  98              	.LVL10:
  99              		.loc 1 176 0
 100 002c 05F80139 		strb	r3, [r5], #-1
 101              	.LVL11:
 102              		.loc 1 178 0
 103 0030 002C     		cmp	r4, #0
 104 0032 ECD1     		bne	.L4
 105              	.LVL12:
 106              		.loc 1 180 0
 107 0034 C0EB0C02 		rsb	r2, r0, ip
 108              	.LVL13:
 109 0038 0146     		mov	r1, r0
 110              	.LVL14:
 111              		.loc 1 164 0
 112 003a B818     		adds	r0, r7, r2
 113              	.LVL15:
ARM GAS  /tmp/ccfro8fl.s 			page 3


 114 003c FA43     		mvns	r2, r7
 115              	.LVL16:
 116 003e 8218     		adds	r2, r0, r2
 117 0040 D207     		lsls	r2, r2, #31
 118 0042 0AD5     		bpl	.L6
 119              	.LVL17:
 120              		.loc 1 182 0
 121 0044 07F8013B 		strb	r3, [r7], #1
 122              	.LVL18:
 123 0048 11F8013F 		ldrb	r3, [r1, #1]!	@ zero_extendqisi2
 124 004c 05E0     		b	.L6
 125              	.L16:
 126 004e 11F8013F 		ldrb	r3, [r1, #1]!	@ zero_extendqisi2
 127              	.LVL19:
 128 0052 7B70     		strb	r3, [r7, #1]
 129 0054 11F8013F 		ldrb	r3, [r1, #1]!	@ zero_extendqisi2
 130 0058 571C     		adds	r7, r2, #1
 131              	.LVL20:
 132              	.L6:
 133 005a 3A46     		mov	r2, r7
 134 005c 02F8013B 		strb	r3, [r2], #1
 135              		.loc 1 183 0
 136 0060 8242     		cmp	r2, r0
 137 0062 F4D1     		bne	.L16
 138              		.loc 1 186 0
 139 0064 F0BC     		pop	{r4, r5, r6, r7}
 140 0066 7047     		bx	lr
 141              		.cfi_endproc
 142              	.LFE126:
 143              		.size	ltoa_wd.constprop.1, .-ltoa_wd.constprop.1
 144 0068 AFF30080 		.section	.text.gwinConsoleCreate,"ax",%progbits
 144      AFF30080 
 145              		.align	2
 146              		.p2align 4,,15
 147              		.global	gwinConsoleCreate
 148              		.thumb
 149              		.thumb_func
 150              		.type	gwinConsoleCreate, %function
 151              	gwinConsoleCreate:
 152              	.LFB119:
 153              		.loc 1 69 0
 154              		.cfi_startproc
 155              		@ args = 0, pretend = 0, frame = 0
 156              		@ frame_needed = 0, uses_anonymous_args = 0
 157              	.LVL21:
 158 0000 38B5     		push	{r3, r4, r5, lr}
 159              	.LCFI1:
 160              		.cfi_def_cfa_offset 16
 161              		.cfi_offset 3, -16
 162              		.cfi_offset 4, -12
 163              		.cfi_offset 5, -8
 164              		.cfi_offset 14, -4
 165              		.loc 1 70 0
 166 0002 074A     		ldr	r2, .L22
 167 0004 0023     		movs	r3, #0
 168              		.loc 1 69 0
 169 0006 0D46     		mov	r5, r1
ARM GAS  /tmp/ccfro8fl.s 			page 4


 170              		.loc 1 70 0
 171 0008 FFF7FEFF 		bl	_gwindowCreate
 172              	.LVL22:
 173 000c 0446     		mov	r4, r0
 174 000e 28B1     		cbz	r0, .L18
 175              		.loc 1 75 0
 176 0010 0023     		movs	r3, #0
 177 0012 8383     		strh	r3, [r0, #28]	@ movhi
 178              		.loc 1 76 0
 179 0014 C383     		strh	r3, [r0, #30]	@ movhi
 180              		.loc 1 77 0
 181 0016 297A     		ldrb	r1, [r5, #8]	@ zero_extendqisi2
 182 0018 FFF7FEFF 		bl	gwinSetVisible
 183              	.LVL23:
 184              	.L18:
 185              		.loc 1 79 0
 186 001c 2046     		mov	r0, r4
 187 001e 38BD     		pop	{r3, r4, r5, pc}
 188              	.L23:
 189              		.align	2
 190              	.L22:
 191 0020 00000000 		.word	.LANCHOR0
 192              		.cfi_endproc
 193              	.LFE119:
 194              		.size	gwinConsoleCreate, .-gwinConsoleCreate
 195 0024 AFF30080 		.section	.text.gwinPutChar,"ax",%progbits
 195      AFF30080 
 195      AFF30080 
 196              		.align	2
 197              		.p2align 4,,15
 198              		.global	gwinPutChar
 199              		.thumb
 200              		.thumb_func
 201              		.type	gwinPutChar, %function
 202              	gwinPutChar:
 203              	.LFB120:
 204              		.loc 1 89 0
 205              		.cfi_startproc
 206              		@ args = 0, pretend = 0, frame = 0
 207              		@ frame_needed = 0, uses_anonymous_args = 0
 208              	.LVL24:
 209 0000 F0B5     		push	{r4, r5, r6, r7, lr}
 210              	.LCFI2:
 211              		.cfi_def_cfa_offset 20
 212              		.cfi_offset 4, -20
 213              		.cfi_offset 5, -16
 214              		.cfi_offset 6, -12
 215              		.cfi_offset 7, -8
 216              		.cfi_offset 14, -4
 217              		.loc 1 93 0
 218 0002 4368     		ldr	r3, [r0, #4]
 219 0004 3A4D     		ldr	r5, .L45
 220 0006 AB42     		cmp	r3, r5
 221              		.loc 1 89 0
 222 0008 83B0     		sub	sp, sp, #12
 223              	.LCFI3:
 224              		.cfi_def_cfa_offset 32
ARM GAS  /tmp/ccfro8fl.s 			page 5


 225              		.loc 1 89 0
 226 000a 0446     		mov	r4, r0
 227 000c 0E46     		mov	r6, r1
 228              		.loc 1 93 0
 229 000e 01D0     		beq	.L43
 230              	.LVL25:
 231              	.L24:
 232              		.loc 1 147 0
 233 0010 03B0     		add	sp, sp, #12
 234 0012 F0BD     		pop	{r4, r5, r6, r7, pc}
 235              	.LVL26:
 236              	.L43:
 237              	.LBB4:
 238              	.LBB5:
 239              		.loc 1 93 0
 240 0014 8069     		ldr	r0, [r0, #24]
 241              	.LVL27:
 242 0016 0028     		cmp	r0, #0
 243 0018 FAD0     		beq	.L24
 244              		.loc 1 96 0
 245 001a 0021     		movs	r1, #0
 246              	.LVL28:
 247 001c FFF7FEFF 		bl	gdispGetFontMetric
 248              	.LVL29:
 249              		.loc 1 97 0
 250 0020 0321     		movs	r1, #3
 251              		.loc 1 96 0
 252 0022 0546     		mov	r5, r0
 253              	.LVL30:
 254              		.loc 1 97 0
 255 0024 A069     		ldr	r0, [r4, #24]
 256              	.LVL31:
 257 0026 FFF7FEFF 		bl	gdispGetFontMetric
 258              	.LVL32:
 259              		.loc 1 100 0
 260 002a B4F90A10 		ldrsh	r1, [r4, #10]
 261 002e B4F90C20 		ldrsh	r2, [r4, #12]
 262 0032 B4F90E30 		ldrsh	r3, [r4, #14]
 263              		.loc 1 97 0
 264 0036 0746     		mov	r7, r0
 265              	.LVL33:
 266              		.loc 1 100 0
 267 0038 B4F90800 		ldrsh	r0, [r4, #8]
 268              	.LVL34:
 269 003c FFF7FEFF 		bl	gdispSetClip
 270              	.LVL35:
 271              		.loc 1 103 0
 272 0040 0A2E     		cmp	r6, #10
 273 0042 30D0     		beq	.L44
 274              		.loc 1 107 0
 275 0044 0D2E     		cmp	r6, #13
 276 0046 E3D0     		beq	.L24
 277              		.loc 1 110 0
 278 0048 A169     		ldr	r1, [r4, #24]
 279 004a 3046     		mov	r0, r6
 280 004c FFF7FEFF 		bl	gdispGetCharWidth
 281              	.LVL36:
ARM GAS  /tmp/ccfro8fl.s 			page 6


 282              		.loc 1 111 0
 283 0050 B4F91C10 		ldrsh	r1, [r4, #28]
 284 0054 B4F90C20 		ldrsh	r2, [r4, #12]
 285              		.loc 1 110 0
 286 0058 C019     		adds	r0, r0, r7
 287 005a C7B2     		uxtb	r7, r0
 288              	.LVL37:
 289              		.loc 1 111 0
 290 005c CB19     		adds	r3, r1, r7
 291 005e 9342     		cmp	r3, r2
 292              		.loc 1 113 0
 293 0060 E18B     		ldrh	r1, [r4, #30]
 294              	.LBE5:
 295              		.loc 1 355 0
 296 0062 EDB2     		uxtb	r5, r5
 297              	.LVL38:
 298              	.LBB6:
 299              		.loc 1 111 0
 300 0064 19DA     		bge	.L29
 301              	.LVL39:
 302              	.L30:
 303              		.loc 1 116 0
 304 0066 B4F90E30 		ldrsh	r3, [r4, #14]
 305 006a 05FA81F0 		sxtah	r0, r5, r1
 306 006e 9842     		cmp	r0, r3
 307 0070 20DC     		bgt	.L31
 308 0072 A28B     		ldrh	r2, [r4, #28]
 309 0074 89B2     		uxth	r1, r1
 310              		.loc 1 134 0
 311 0076 52B3     		cbz	r2, .L32
 312              	.L33:
 313              		.loc 1 140 0
 314 0078 B4F808E0 		ldrh	lr, [r4, #8]
 315 007c 6589     		ldrh	r5, [r4, #10]
 316 007e 208A     		ldrh	r0, [r4, #16]
 317 0080 A369     		ldr	r3, [r4, #24]
 318 0082 0090     		str	r0, [sp, #0]
 319 0084 7244     		add	r2, r2, lr
 320 0086 4919     		adds	r1, r1, r5
 321 0088 10B2     		sxth	r0, r2
 322 008a 09B2     		sxth	r1, r1
 323 008c 3246     		mov	r2, r6
 324 008e FFF7FEFF 		bl	gdispDrawChar
 325              	.LVL40:
 326              		.loc 1 144 0
 327 0092 A38B     		ldrh	r3, [r4, #28]
 328 0094 FF18     		adds	r7, r7, r3
 329              	.LVL41:
 330 0096 A783     		strh	r7, [r4, #28]	@ movhi
 331 0098 BAE7     		b	.L24
 332              	.LVL42:
 333              	.L29:
 334              		.loc 1 113 0
 335 009a 6918     		adds	r1, r5, r1
 336 009c 89B2     		uxth	r1, r1
 337              		.loc 1 112 0
 338 009e 0020     		movs	r0, #0
ARM GAS  /tmp/ccfro8fl.s 			page 7


 339              	.LVL43:
 340 00a0 A083     		strh	r0, [r4, #28]	@ movhi
 341              		.loc 1 113 0
 342 00a2 E183     		strh	r1, [r4, #30]	@ movhi
 343 00a4 DFE7     		b	.L30
 344              	.LVL44:
 345              	.L44:
 346              		.loc 1 105 0
 347 00a6 E08B     		ldrh	r0, [r4, #30]
 348              		.loc 1 104 0
 349 00a8 0022     		movs	r2, #0
 350              		.loc 1 105 0
 351 00aa 50FA85F5 		uxtab	r5, r0, r5
 352              	.LVL45:
 353              		.loc 1 104 0
 354 00ae A283     		strh	r2, [r4, #28]	@ movhi
 355              		.loc 1 105 0
 356 00b0 E583     		strh	r5, [r4, #30]	@ movhi
 357 00b2 ADE7     		b	.L24
 358              	.LVL46:
 359              	.L31:
 360              		.loc 1 125 0
 361 00b4 B4F812E0 		ldrh	lr, [r4, #18]
 362 00b8 B4F90A10 		ldrsh	r1, [r4, #10]
 363 00bc B4F90800 		ldrsh	r0, [r4, #8]
 364 00c0 CDF800E0 		str	lr, [sp, #0]
 365 00c4 FFF7FEFF 		bl	gdispFillArea
 366              	.LVL47:
 367              		.loc 1 127 0
 368 00c8 0021     		movs	r1, #0
 369 00ca A183     		strh	r1, [r4, #28]	@ movhi
 370              		.loc 1 128 0
 371 00cc E183     		strh	r1, [r4, #30]	@ movhi
 372              	.L32:
 373              		.loc 1 135 0
 374 00ce B4F80AC0 		ldrh	ip, [r4, #10]
 375 00d2 638A     		ldrh	r3, [r4, #18]
 376 00d4 B4F90C20 		ldrsh	r2, [r4, #12]
 377 00d8 B4F90800 		ldrsh	r0, [r4, #8]
 378 00dc 0093     		str	r3, [sp, #0]
 379 00de 6144     		add	r1, r1, ip
 380 00e0 09B2     		sxth	r1, r1
 381 00e2 2B46     		mov	r3, r5
 382 00e4 FFF7FEFF 		bl	gdispFillArea
 383              	.LVL48:
 384 00e8 A28B     		ldrh	r2, [r4, #28]
 385 00ea E18B     		ldrh	r1, [r4, #30]
 386 00ec C4E7     		b	.L33
 387              	.L46:
 388 00ee 00BF     		.align	2
 389              	.L45:
 390 00f0 00000000 		.word	.LANCHOR0
 391              	.LBE6:
 392              	.LBE4:
 393              		.cfi_endproc
 394              	.LFE120:
 395              		.size	gwinPutChar, .-gwinPutChar
ARM GAS  /tmp/ccfro8fl.s 			page 8


 396 00f4 AFF30080 		.section	.text.gwinPutString,"ax",%progbits
 396      AFF30080 
 396      AFF30080 
 397              		.align	2
 398              		.p2align 4,,15
 399              		.global	gwinPutString
 400              		.thumb
 401              		.thumb_func
 402              		.type	gwinPutString, %function
 403              	gwinPutString:
 404              	.LFB121:
 405              		.loc 1 149 0
 406              		.cfi_startproc
 407              		@ args = 0, pretend = 0, frame = 0
 408              		@ frame_needed = 0, uses_anonymous_args = 0
 409              	.LVL49:
 410 0000 38B5     		push	{r3, r4, r5, lr}
 411              	.LCFI4:
 412              		.cfi_def_cfa_offset 16
 413              		.cfi_offset 3, -16
 414              		.cfi_offset 4, -12
 415              		.cfi_offset 5, -8
 416              		.cfi_offset 14, -4
 417              		.loc 1 149 0
 418 0002 0C46     		mov	r4, r1
 419              		.loc 1 150 0
 420 0004 0978     		ldrb	r1, [r1, #0]	@ zero_extendqisi2
 421              	.LVL50:
 422              		.loc 1 149 0
 423 0006 0546     		mov	r5, r0
 424              		.loc 1 150 0
 425 0008 31B1     		cbz	r1, .L47
 426              	.LVL51:
 427              	.L49:
 428              		.loc 1 151 0
 429 000a 2846     		mov	r0, r5
 430 000c FFF7FEFF 		bl	gwinPutChar
 431              	.LVL52:
 432              		.loc 1 150 0
 433 0010 14F8011F 		ldrb	r1, [r4, #1]!	@ zero_extendqisi2
 434 0014 0029     		cmp	r1, #0
 435 0016 F8D1     		bne	.L49
 436              	.L47:
 437 0018 38BD     		pop	{r3, r4, r5, pc}
 438              		.cfi_endproc
 439              	.LFE121:
 440              		.size	gwinPutString, .-gwinPutString
 441 001a 00BFAFF3 		.section	.text.gwinPutCharArray,"ax",%progbits
 441      0080
 442              		.align	2
 443              		.p2align 4,,15
 444              		.global	gwinPutCharArray
 445              		.thumb
 446              		.thumb_func
 447              		.type	gwinPutCharArray, %function
 448              	gwinPutCharArray:
 449              	.LFB122:
ARM GAS  /tmp/ccfro8fl.s 			page 9


 450              		.loc 1 154 0
 451              		.cfi_startproc
 452              		@ args = 0, pretend = 0, frame = 0
 453              		@ frame_needed = 0, uses_anonymous_args = 0
 454              	.LVL53:
 455 0000 F8B5     		push	{r3, r4, r5, r6, r7, lr}
 456              	.LCFI5:
 457              		.cfi_def_cfa_offset 24
 458              		.cfi_offset 3, -24
 459              		.cfi_offset 4, -20
 460              		.cfi_offset 5, -16
 461              		.cfi_offset 6, -12
 462              		.cfi_offset 7, -8
 463              		.cfi_offset 14, -4
 464              		.loc 1 154 0
 465 0002 0746     		mov	r7, r0
 466              	.LVL54:
 467              		.loc 1 155 0
 468 0004 FAB1     		cbz	r2, .L52
 469              		.loc 1 156 0
 470 0006 0C46     		mov	r4, r1
 471 0008 013A     		subs	r2, r2, #1
 472              	.LVL55:
 473              		.loc 1 155 0
 474 000a 1646     		mov	r6, r2
 475              		.loc 1 156 0
 476 000c 14F8011B 		ldrb	r1, [r4], #1	@ zero_extendqisi2
 477              	.LVL56:
 478 0010 02F00105 		and	r5, r2, #1
 479 0014 FFF7FEFF 		bl	gwinPutChar
 480              	.LVL57:
 481              		.loc 1 155 0
 482 0018 B6B1     		cbz	r6, .L65
 483 001a 35B1     		cbz	r5, .L56
 484              	.LVL58:
 485              		.loc 1 156 0
 486 001c 3846     		mov	r0, r7
 487 001e 14F8011B 		ldrb	r1, [r4], #1	@ zero_extendqisi2
 488 0022 FFF7FEFF 		bl	gwinPutChar
 489              	.LVL59:
 490              		.loc 1 155 0
 491 0026 013E     		subs	r6, r6, #1
 492 0028 0FD0     		beq	.L66
 493              	.L56:
 494              		.loc 1 156 0
 495 002a 2546     		mov	r5, r4
 496 002c 3846     		mov	r0, r7
 497 002e 15F8011B 		ldrb	r1, [r5], #1	@ zero_extendqisi2
 498 0032 FFF7FEFF 		bl	gwinPutChar
 499              	.LVL60:
 500 0036 013E     		subs	r6, r6, #1
 501 0038 6178     		ldrb	r1, [r4, #1]	@ zero_extendqisi2
 502 003a 3846     		mov	r0, r7
 503 003c 6C1C     		adds	r4, r5, #1
 504 003e FFF7FEFF 		bl	gwinPutChar
 505              	.LVL61:
 506              		.loc 1 155 0
ARM GAS  /tmp/ccfro8fl.s 			page 10


 507 0042 013E     		subs	r6, r6, #1
 508 0044 F1D1     		bne	.L56
 509              	.L52:
 510 0046 F8BD     		pop	{r3, r4, r5, r6, r7, pc}
 511              	.LVL62:
 512              	.L65:
 513 0048 F8BD     		pop	{r3, r4, r5, r6, r7, pc}
 514              	.LVL63:
 515              	.L66:
 516 004a F8BD     		pop	{r3, r4, r5, r6, r7, pc}
 517              		.cfi_endproc
 518              	.LFE122:
 519              		.size	gwinPutCharArray, .-gwinPutCharArray
 520 004c AFF30080 		.section	.text.gwinPrintf,"ax",%progbits
 521              		.align	2
 522              		.p2align 4,,15
 523              		.global	gwinPrintf
 524              		.thumb
 525              		.thumb_func
 526              		.type	gwinPrintf, %function
 527              	gwinPrintf:
 528              	.LFB124:
 529              		.loc 1 201 0
 530              		.cfi_startproc
 531              		@ args = 4, pretend = 12, frame = 24
 532              		@ frame_needed = 0, uses_anonymous_args = 1
 533              	.LVL64:
 534 0000 0EB4     		push	{r1, r2, r3}
 535              	.LCFI6:
 536              		.cfi_def_cfa_offset 12
 537              		.cfi_offset 1, -12
 538              		.cfi_offset 2, -8
 539              		.cfi_offset 3, -4
 540 0002 2DE9F04F 		push	{r4, r5, r6, r7, r8, r9, sl, fp, lr}
 541              	.LCFI7:
 542              		.cfi_def_cfa_offset 48
 543              		.cfi_offset 4, -48
 544              		.cfi_offset 5, -44
 545              		.cfi_offset 6, -40
 546              		.cfi_offset 7, -36
 547              		.cfi_offset 8, -32
 548              		.cfi_offset 9, -28
 549              		.cfi_offset 10, -24
 550              		.cfi_offset 11, -20
 551              		.cfi_offset 14, -16
 552              		.loc 1 214 0
 553 0006 4268     		ldr	r2, [r0, #4]
 554 0008 7549     		ldr	r1, .L187
 555              		.loc 1 201 0
 556 000a 86B0     		sub	sp, sp, #24
 557              	.LCFI8:
 558              		.cfi_def_cfa_offset 72
 559              		.loc 1 214 0
 560 000c 8A42     		cmp	r2, r1
 561              		.loc 1 201 0
 562 000e 0446     		mov	r4, r0
 563 0010 DDF83CB0 		ldr	fp, [sp, #60]
ARM GAS  /tmp/ccfro8fl.s 			page 11


 564              		.loc 1 214 0
 565 0014 04D0     		beq	.L178
 566              	.LVL65:
 567              	.L67:
 568              		.loc 1 355 0
 569 0016 06B0     		add	sp, sp, #24
 570 0018 BDE8F04F 		pop	{r4, r5, r6, r7, r8, r9, sl, fp, lr}
 571 001c 03B0     		add	sp, sp, #12
 572 001e 7047     		bx	lr
 573              	.LVL66:
 574              	.L178:
 575              		.loc 1 214 0 discriminator 1
 576 0020 8069     		ldr	r0, [r0, #24]
 577              	.LVL67:
 578 0022 0028     		cmp	r0, #0
 579 0024 F7D0     		beq	.L67
 580              		.loc 1 330 0
 581 0026 0DF10D03 		add	r3, sp, #13
 582              		.loc 1 229 0
 583 002a 0DF10C0A 		add	sl, sp, #12
 584              		.loc 1 217 0
 585 002e 10AD     		add	r5, sp, #64
 586 0030 CAEB030C 		rsb	ip, sl, r3
 587              		.loc 1 330 0
 588 0034 0093     		str	r3, [sp, #0]
 589              		.loc 1 217 0
 590 0036 0295     		str	r5, [sp, #8]
 591 0038 CDF804C0 		str	ip, [sp, #4]
 592              	.LVL68:
 593              	.L164:
 594              		.loc 1 219 0
 595 003c 5D46     		mov	r5, fp
 596 003e 15F8011B 		ldrb	r1, [r5], #1	@ zero_extendqisi2
 597              	.LVL69:
 598              		.loc 1 220 0
 599 0042 0029     		cmp	r1, #0
 600 0044 E7D0     		beq	.L67
 601              		.loc 1 224 0
 602 0046 2529     		cmp	r1, #37
 603 0048 0AD0     		beq	.L71
 604              	.LVL70:
 605              	.L179:
 606              		.loc 1 219 0
 607 004a AB46     		mov	fp, r5
 608 004c 5D46     		mov	r5, fp
 609              		.loc 1 225 0
 610 004e 2046     		mov	r0, r4
 611 0050 FFF7FEFF 		bl	gwinPutChar
 612              	.LVL71:
 613              		.loc 1 219 0
 614 0054 15F8011B 		ldrb	r1, [r5], #1	@ zero_extendqisi2
 615              	.LVL72:
 616              		.loc 1 220 0
 617 0058 0029     		cmp	r1, #0
 618 005a DCD0     		beq	.L67
 619              		.loc 1 224 0
 620 005c 2529     		cmp	r1, #37
ARM GAS  /tmp/ccfro8fl.s 			page 12


 621 005e F4D1     		bne	.L179
 622              	.LVL73:
 623              	.L71:
 624              		.loc 1 232 0
 625 0060 9BF80130 		ldrb	r3, [fp, #1]	@ zero_extendqisi2
 626 0064 2D2B     		cmp	r3, #45
 627 0066 00F06381 		beq	.L180
 628              		.loc 1 231 0
 629 006a 0027     		movs	r7, #0
 630              	.LVL74:
 631              	.L73:
 632              		.loc 1 237 0
 633 006c 2E2B     		cmp	r3, #46
 634 006e 00F05B81 		beq	.L181
 635              		.loc 1 236 0
 636 0072 2026     		movs	r6, #32
 637              	.LVL75:
 638              	.L74:
 639              		.loc 1 239 0
 640 0074 AB46     		mov	fp, r5
 641 0076 0299     		ldr	r1, [sp, #8]
 642              		.loc 1 241 0
 643 0078 0025     		movs	r5, #0
 644              	.LVL76:
 645 007a 07E0     		b	.L77
 646              	.LVL77:
 647              	.L182:
 648              		.loc 1 248 0
 649 007c 0A78     		ldrb	r2, [r1, #0]	@ zero_extendqisi2
 650              	.LVL78:
 651 007e 0431     		adds	r1, r1, #4
 652              	.LVL79:
 653              	.L75:
 654              		.loc 1 251 0
 655 0080 05EB8503 		add	r3, r5, r5, lsl #2
 656 0084 02EB4305 		add	r5, r2, r3, lsl #1
 657              	.LVL80:
 658 0088 9BF80030 		ldrb	r3, [fp, #0]	@ zero_extendqisi2
 659              	.LVL81:
 660              	.L77:
 661              		.loc 1 245 0
 662 008c A3F13002 		sub	r2, r3, #48
 663 0090 D2B2     		uxtb	r2, r2
 664 0092 092A     		cmp	r2, #9
 665              		.loc 1 244 0
 666 0094 0BF1010B 		add	fp, fp, #1
 667              	.LVL82:
 668              		.loc 1 245 0
 669 0098 F2D9     		bls	.L75
 670              		.loc 1 247 0
 671 009a 2A2B     		cmp	r3, #42
 672 009c EED0     		beq	.L182
 673              		.loc 1 254 0
 674 009e 0020     		movs	r0, #0
 675 00a0 2E2B     		cmp	r3, #46
 676 00a2 0291     		str	r1, [sp, #8]
 677              	.LVL83:
ARM GAS  /tmp/ccfro8fl.s 			page 13


 678 00a4 4BD0     		beq	.L81
 679              	.LVL84:
 680              		.loc 1 267 0
 681 00a6 6C2B     		cmp	r3, #108
 682 00a8 55D0     		beq	.L82
 683              	.LVL85:
 684              	.L183:
 685              		.loc 1 267 0 is_stmt 0 discriminator 1
 686 00aa 4C2B     		cmp	r3, #76
 687 00ac 53D0     		beq	.L82
 688              		.loc 1 273 0 is_stmt 1
 689 00ae A3F14101 		sub	r1, r3, #65
 690 00b2 1929     		cmp	r1, #25
 691 00b4 8CBF     		ite	hi
 692 00b6 0021     		movhi	r1, #0
 693 00b8 0121     		movls	r1, #1
 694              	.LVL86:
 695              	.L84:
 696              		.loc 1 276 0
 697 00ba A3F14402 		sub	r2, r3, #68
 698 00be 342A     		cmp	r2, #52
 699 00c0 00F22C81 		bhi	.L85
 700 00c4 DFE812F0 		tbh	[pc, r2, lsl #1]
 701              	.L92:
 702 00c8 1B01     		.2byte	(.L86-.L92)/2
 703 00ca 2A01     		.2byte	(.L85-.L92)/2
 704 00cc 2A01     		.2byte	(.L85-.L92)/2
 705 00ce 2A01     		.2byte	(.L85-.L92)/2
 706 00d0 2A01     		.2byte	(.L85-.L92)/2
 707 00d2 2A01     		.2byte	(.L85-.L92)/2
 708 00d4 2A01     		.2byte	(.L85-.L92)/2
 709 00d6 2A01     		.2byte	(.L85-.L92)/2
 710 00d8 2A01     		.2byte	(.L85-.L92)/2
 711 00da 2A01     		.2byte	(.L85-.L92)/2
 712 00dc 2A01     		.2byte	(.L85-.L92)/2
 713 00de 1901     		.2byte	(.L87-.L92)/2
 714 00e0 2A01     		.2byte	(.L85-.L92)/2
 715 00e2 2A01     		.2byte	(.L85-.L92)/2
 716 00e4 2A01     		.2byte	(.L85-.L92)/2
 717 00e6 2A01     		.2byte	(.L85-.L92)/2
 718 00e8 2A01     		.2byte	(.L85-.L92)/2
 719 00ea 1101     		.2byte	(.L115-.L92)/2
 720 00ec 2A01     		.2byte	(.L85-.L92)/2
 721 00ee 2A01     		.2byte	(.L85-.L92)/2
 722 00f0 0401     		.2byte	(.L89-.L92)/2
 723 00f2 2A01     		.2byte	(.L85-.L92)/2
 724 00f4 2A01     		.2byte	(.L85-.L92)/2
 725 00f6 2A01     		.2byte	(.L85-.L92)/2
 726 00f8 2A01     		.2byte	(.L85-.L92)/2
 727 00fa 2A01     		.2byte	(.L85-.L92)/2
 728 00fc 2A01     		.2byte	(.L85-.L92)/2
 729 00fe 2A01     		.2byte	(.L85-.L92)/2
 730 0100 2A01     		.2byte	(.L85-.L92)/2
 731 0102 2A01     		.2byte	(.L85-.L92)/2
 732 0104 2A01     		.2byte	(.L85-.L92)/2
 733 0106 8E00     		.2byte	(.L90-.L92)/2
 734 0108 1B01     		.2byte	(.L86-.L92)/2
ARM GAS  /tmp/ccfro8fl.s 			page 14


 735 010a 2A01     		.2byte	(.L85-.L92)/2
 736 010c 2A01     		.2byte	(.L85-.L92)/2
 737 010e 2A01     		.2byte	(.L85-.L92)/2
 738 0110 2A01     		.2byte	(.L85-.L92)/2
 739 0112 2A01     		.2byte	(.L85-.L92)/2
 740 0114 2A01     		.2byte	(.L85-.L92)/2
 741 0116 2A01     		.2byte	(.L85-.L92)/2
 742 0118 2A01     		.2byte	(.L85-.L92)/2
 743 011a 2A01     		.2byte	(.L85-.L92)/2
 744 011c 2A01     		.2byte	(.L85-.L92)/2
 745 011e 1901     		.2byte	(.L87-.L92)/2
 746 0120 2A01     		.2byte	(.L85-.L92)/2
 747 0122 2A01     		.2byte	(.L85-.L92)/2
 748 0124 2A01     		.2byte	(.L85-.L92)/2
 749 0126 5100     		.2byte	(.L91-.L92)/2
 750 0128 2A01     		.2byte	(.L85-.L92)/2
 751 012a 1101     		.2byte	(.L115-.L92)/2
 752 012c 2A01     		.2byte	(.L85-.L92)/2
 753 012e 2A01     		.2byte	(.L85-.L92)/2
 754 0130 0401     		.2byte	(.L89-.L92)/2
 755              	.LVL87:
 756              	.L80:
 757              		.loc 1 260 0
 758 0132 0A78     		ldrb	r2, [r1, #0]	@ zero_extendqisi2
 759              	.LVL88:
 760 0134 0431     		adds	r1, r1, #4
 761              	.LVL89:
 762              	.L79:
 763              		.loc 1 263 0
 764 0136 00EB8000 		add	r0, r0, r0, lsl #2
 765              	.LVL90:
 766 013a 02EB4000 		add	r0, r2, r0, lsl #1
 767              	.LVL91:
 768              	.L81:
 769              		.loc 1 256 0
 770 013e 1BF8013B 		ldrb	r3, [fp], #1	@ zero_extendqisi2
 771              	.LVL92:
 772              		.loc 1 257 0
 773 0142 A3F13002 		sub	r2, r3, #48
 774 0146 D2B2     		uxtb	r2, r2
 775 0148 092A     		cmp	r2, #9
 776 014a F4D9     		bls	.L79
 777              		.loc 1 259 0
 778 014c 2A2B     		cmp	r3, #42
 779 014e F0D0     		beq	.L80
 780              		.loc 1 267 0
 781 0150 6C2B     		cmp	r3, #108
 782 0152 0291     		str	r1, [sp, #8]
 783 0154 A9D1     		bne	.L183
 784              	.LVL93:
 785              	.L82:
 786              		.loc 1 269 0
 787 0156 9BF80010 		ldrb	r1, [fp, #0]	@ zero_extendqisi2
 788 015a 0029     		cmp	r1, #0
 789 015c 00F0EE80 		beq	.L114
 790              	.LVL94:
 791              		.loc 1 270 0
ARM GAS  /tmp/ccfro8fl.s 			page 15


 792 0160 0B46     		mov	r3, r1
 793 0162 0BF1010B 		add	fp, fp, #1
 794              	.LVL95:
 795              		.loc 1 268 0
 796 0166 0121     		movs	r1, #1
 797 0168 A7E7     		b	.L84
 798              	.LVL96:
 799              	.L91:
 800              		.loc 1 283 0
 801 016a 029E     		ldr	r6, [sp, #8]
 802              		.loc 1 284 0
 803 016c 40F20008 		movw	r8, #:lower16:.LC0
 804              		.loc 1 283 0
 805 0170 3368     		ldr	r3, [r6, #0]
 806              	.LVL97:
 807              		.loc 1 284 0
 808 0172 C0F20008 		movt	r8, #:upper16:.LC0
 809 0176 002B     		cmp	r3, #0
 810 0178 18BF     		it	ne
 811 017a 9846     		movne	r8, r3
 812              	.LVL98:
 813              		.loc 1 283 0
 814 017c 311D     		adds	r1, r6, #4
 815              	.LVL99:
 816              		.loc 1 287 0
 817 017e 98F80020 		ldrb	r2, [r8, #0]	@ zero_extendqisi2
 818              	.LVL100:
 819              		.loc 1 283 0
 820 0182 0291     		str	r1, [sp, #8]
 821              		.loc 1 286 0
 822 0184 47F6FF76 		movw	r6, #32767
 823 0188 0028     		cmp	r0, #0
 824 018a 08BF     		it	eq
 825 018c 3046     		moveq	r0, r6
 826              	.LVL101:
 827              		.loc 1 287 0
 828 018e 002A     		cmp	r2, #0
 829 0190 00F0EF80 		beq	.L118
 830 0194 98F80130 		ldrb	r3, [r8, #1]	@ zero_extendqisi2
 831 0198 411E     		subs	r1, r0, #1
 832 019a 08EB0009 		add	r9, r8, r0
 833              		.loc 1 201 0
 834 019e 08F10102 		add	r2, r8, #1
 835              	.LVL102:
 836 01a2 01F00100 		and	r0, r1, #1
 837              		.loc 1 287 0
 838 01a6 B3B1     		cbz	r3, .L165
 839 01a8 9145     		cmp	r9, r2
 840 01aa 1346     		mov	r3, r2
 841 01ac 00F0D680 		beq	.L166
 842 01b0 60B1     		cbz	r0, .L97
 843 01b2 5678     		ldrb	r6, [r2, #1]	@ zero_extendqisi2
 844              		.loc 1 201 0
 845 01b4 0132     		adds	r2, r2, #1
 846              	.LVL103:
 847              		.loc 1 287 0
 848 01b6 76B1     		cbz	r6, .L165
ARM GAS  /tmp/ccfro8fl.s 			page 16


 849 01b8 9145     		cmp	r9, r2
 850 01ba 1346     		mov	r3, r2
 851 01bc 06D1     		bne	.L97
 852 01be CDE0     		b	.L166
 853              	.L96:
 854              		.loc 1 287 0 is_stmt 0 discriminator 2
 855 01c0 5678     		ldrb	r6, [r2, #1]	@ zero_extendqisi2
 856              		.loc 1 201 0 is_stmt 1 discriminator 2
 857 01c2 0132     		adds	r2, r2, #1
 858              	.LVL104:
 859              		.loc 1 287 0 discriminator 2
 860 01c4 3EB1     		cbz	r6, .L165
 861              		.loc 1 287 0 is_stmt 0
 862 01c6 9945     		cmp	r9, r3
 863 01c8 00F0C880 		beq	.L166
 864              	.L97:
 865              		.loc 1 287 0 discriminator 1
 866 01cc 5878     		ldrb	r0, [r3, #1]	@ zero_extendqisi2
 867              		.loc 1 201 0 is_stmt 1 discriminator 1
 868 01ce 5A1C     		adds	r2, r3, #1
 869              	.LVL105:
 870 01d0 531C     		adds	r3, r2, #1
 871              		.loc 1 287 0 discriminator 1
 872 01d2 0028     		cmp	r0, #0
 873 01d4 F4D1     		bne	.L96
 874              	.LVL106:
 875              	.L165:
 876 01d6 C8EB0209 		rsb	r9, r8, r2
 877              		.loc 1 282 0
 878 01da 2026     		movs	r6, #32
 879 01dc 0CE0     		b	.L93
 880              	.L188:
 881 01de 00BF     		.align	2
 882              	.L187:
 883 01e0 00000000 		.word	.LANCHOR0
 884              	.LVL107:
 885              	.L90:
 886              		.loc 1 279 0
 887 01e4 0298     		ldr	r0, [sp, #8]
 888              	.LVL108:
 889 01e6 DDF80490 		ldr	r9, [sp, #4]
 890 01ea 0268     		ldr	r2, [r0, #0]
 891 01ec 011D     		adds	r1, r0, #4
 892              	.LVL109:
 893 01ee 0291     		str	r1, [sp, #8]
 894 01f0 8DF80C20 		strb	r2, [sp, #12]
 895              	.LVL110:
 896              		.loc 1 278 0
 897 01f4 2026     		movs	r6, #32
 898              		.loc 1 230 0
 899 01f6 D046     		mov	r8, sl
 900              	.LVL111:
 901              	.L93:
 902              		.loc 1 335 0
 903 01f8 C9EB0505 		rsb	r5, r9, r5
 904              	.LVL112:
 905 01fc 25EAE575 		bic	r5, r5, r5, asr #31
ARM GAS  /tmp/ccfro8fl.s 			page 17


 906              	.LVL113:
 907              		.loc 1 337 0
 908 0200 0FBB     		cbnz	r7, .L103
 909              		.loc 1 338 0
 910 0202 6D42     		negs	r5, r5
 911              	.LVL114:
 912              		.loc 1 339 0
 913 0204 FDB1     		cbz	r5, .L103
 914              		.loc 1 340 0
 915 0206 98F80010 		ldrb	r1, [r8, #0]	@ zero_extendqisi2
 916 020a 2D29     		cmp	r1, #45
 917 020c 00F09880 		beq	.L184
 918              	.L151:
 919              		.loc 1 345 0
 920 0210 2046     		mov	r0, r4
 921 0212 3146     		mov	r1, r6
 922 0214 EF43     		mvns	r7, r5
 923              	.LVL115:
 924 0216 FFF7FEFF 		bl	gwinPutChar
 925              	.LVL116:
 926              		.loc 1 346 0
 927 021a 0135     		adds	r5, r5, #1
 928              	.LVL117:
 929 021c 07F00107 		and	r7, r7, #1
 930              	.LVL118:
 931 0220 11D0     		beq	.L103
 932 0222 2FB1     		cbz	r7, .L127
 933              	.LVL119:
 934              		.loc 1 345 0
 935 0224 2046     		mov	r0, r4
 936 0226 3146     		mov	r1, r6
 937 0228 FFF7FEFF 		bl	gwinPutChar
 938              	.LVL120:
 939              		.loc 1 346 0
 940 022c 0135     		adds	r5, r5, #1
 941              	.LVL121:
 942 022e 0AD0     		beq	.L103
 943              	.LVL122:
 944              	.L127:
 945              		.loc 1 345 0 discriminator 1
 946 0230 2046     		mov	r0, r4
 947 0232 3146     		mov	r1, r6
 948 0234 FFF7FEFF 		bl	gwinPutChar
 949              	.LVL123:
 950              		.loc 1 346 0 discriminator 1
 951 0238 0135     		adds	r5, r5, #1
 952              	.LVL124:
 953              		.loc 1 345 0 discriminator 1
 954 023a 2046     		mov	r0, r4
 955 023c 3146     		mov	r1, r6
 956 023e FFF7FEFF 		bl	gwinPutChar
 957              	.LVL125:
 958              		.loc 1 346 0 discriminator 1
 959 0242 0135     		adds	r5, r5, #1
 960              	.LVL126:
 961 0244 F4D1     		bne	.L127
 962              	.LVL127:
ARM GAS  /tmp/ccfro8fl.s 			page 18


 963              	.L103:
 964              		.loc 1 348 0 discriminator 1
 965 0246 B9F1000F 		cmp	r9, #0
 966 024a 26DD     		ble	.L109
 967              		.loc 1 349 0
 968 024c 4746     		mov	r7, r8
 969              		.loc 1 201 0
 970 024e C144     		add	r9, r8, r9
 971              	.LVL128:
 972              		.loc 1 349 0
 973 0250 17F8011B 		ldrb	r1, [r7], #1	@ zero_extendqisi2
 974 0254 6FEA0808 		mvn	r8, r8
 975              	.LVL129:
 976 0258 09EB0803 		add	r3, r9, r8
 977 025c 2046     		mov	r0, r4
 978 025e 03F00108 		and	r8, r3, #1
 979              	.LVL130:
 980 0262 FFF7FEFF 		bl	gwinPutChar
 981              	.LVL131:
 982              		.loc 1 348 0
 983 0266 4F45     		cmp	r7, r9
 984 0268 17D0     		beq	.L109
 985 026a B8F1000F 		cmp	r8, #0
 986 026e 06D0     		beq	.L108
 987              	.LVL132:
 988              		.loc 1 349 0
 989 0270 17F8011B 		ldrb	r1, [r7], #1	@ zero_extendqisi2
 990 0274 2046     		mov	r0, r4
 991 0276 FFF7FEFF 		bl	gwinPutChar
 992              	.LVL133:
 993              		.loc 1 348 0
 994 027a 4F45     		cmp	r7, r9
 995 027c 0DD0     		beq	.L109
 996              	.L108:
 997              		.loc 1 349 0
 998 027e B846     		mov	r8, r7
 999 0280 2046     		mov	r0, r4
 1000 0282 18F8011B 		ldrb	r1, [r8], #1	@ zero_extendqisi2
 1001 0286 FFF7FEFF 		bl	gwinPutChar
 1002              	.LVL134:
 1003 028a 7978     		ldrb	r1, [r7, #1]	@ zero_extendqisi2
 1004 028c 2046     		mov	r0, r4
 1005 028e 08F10107 		add	r7, r8, #1
 1006 0292 FFF7FEFF 		bl	gwinPutChar
 1007              	.LVL135:
 1008              		.loc 1 348 0
 1009 0296 4F45     		cmp	r7, r9
 1010 0298 F1D1     		bne	.L108
 1011              	.L109:
 1012              	.LVL136:
 1013              		.loc 1 350 0
 1014 029a 002D     		cmp	r5, #0
 1015 029c 3FF4CEAE 		beq	.L164
 1016 02a0 6A1E     		subs	r2, r5, #1
 1017 02a2 1546     		mov	r5, r2
 1018              	.LVL137:
 1019              		.loc 1 351 0
ARM GAS  /tmp/ccfro8fl.s 			page 19


 1020 02a4 2046     		mov	r0, r4
 1021 02a6 3146     		mov	r1, r6
 1022 02a8 02F00107 		and	r7, r2, #1
 1023 02ac FFF7FEFF 		bl	gwinPutChar
 1024              	.LVL138:
 1025              		.loc 1 350 0
 1026 02b0 002D     		cmp	r5, #0
 1027 02b2 3FF4C3AE 		beq	.L164
 1028 02b6 27B9     		cbnz	r7, .L176
 1029              	.LVL139:
 1030              	.L126:
 1031              		.loc 1 351 0
 1032 02b8 2046     		mov	r0, r4
 1033 02ba 3146     		mov	r1, r6
 1034 02bc FFF7FEFF 		bl	gwinPutChar
 1035              	.LVL140:
 1036              		.loc 1 352 0
 1037 02c0 013D     		subs	r5, r5, #1
 1038              	.L176:
 1039              		.loc 1 351 0
 1040 02c2 2046     		mov	r0, r4
 1041 02c4 3146     		mov	r1, r6
 1042 02c6 FFF7FEFF 		bl	gwinPutChar
 1043              	.LVL141:
 1044              		.loc 1 350 0
 1045 02ca 013D     		subs	r5, r5, #1
 1046 02cc F4D1     		bne	.L126
 1047 02ce B5E6     		b	.L164
 1048              	.LVL142:
 1049              	.L89:
 1050              		.loc 1 276 0
 1051 02d0 1022     		movs	r2, #16
 1052              	.LVL143:
 1053              	.L88:
 1054              		.loc 1 324 0
 1055 02d2 029B     		ldr	r3, [sp, #8]
 1056              		.loc 1 323 0
 1057 02d4 69B1     		cbz	r1, .L101
 1058              	.L185:
 1059              		.loc 1 324 0
 1060 02d6 191D     		adds	r1, r3, #4
 1061              	.LVL144:
 1062 02d8 0291     		str	r1, [sp, #8]
 1063 02da 1968     		ldr	r1, [r3, #0]
 1064              	.LVL145:
 1065              	.L102:
 1066              		.loc 1 327 0
 1067 02dc 5046     		mov	r0, sl
 1068 02de FFF7FEFF 		bl	ltoa_wd.constprop.1
 1069              	.LVL146:
 1070              		.loc 1 230 0
 1071 02e2 D046     		mov	r8, sl
 1072 02e4 CAEB0009 		rsb	r9, sl, r0
 1073              		.loc 1 328 0
 1074 02e8 86E7     		b	.L93
 1075              	.LVL147:
 1076              	.L115:
ARM GAS  /tmp/ccfro8fl.s 			page 20


 1077              		.loc 1 276 0
 1078 02ea 0A22     		movs	r2, #10
 1079              	.LVL148:
 1080              		.loc 1 324 0
 1081 02ec 029B     		ldr	r3, [sp, #8]
 1082              		.loc 1 323 0
 1083 02ee 0029     		cmp	r1, #0
 1084 02f0 F1D1     		bne	.L185
 1085              	.L101:
 1086              		.loc 1 326 0
 1087 02f2 181D     		adds	r0, r3, #4
 1088              	.LVL149:
 1089 02f4 1968     		ldr	r1, [r3, #0]
 1090              	.LVL150:
 1091 02f6 0290     		str	r0, [sp, #8]
 1092 02f8 F0E7     		b	.L102
 1093              	.LVL151:
 1094              	.L87:
 1095 02fa 0822     		movs	r2, #8
 1096 02fc E9E7     		b	.L88
 1097              	.LVL152:
 1098              	.L86:
 1099              		.loc 1 292 0
 1100 02fe 029B     		ldr	r3, [sp, #8]
 1101              	.LVL153:
 1102 0300 1A1D     		adds	r2, r3, #4
 1103              	.LVL154:
 1104              		.loc 1 291 0
 1105 0302 41B3     		cbz	r1, .L98
 1106              		.loc 1 292 0
 1107 0304 1968     		ldr	r1, [r3, #0]
 1108              	.LVL155:
 1109 0306 0292     		str	r2, [sp, #8]
 1110              	.L99:
 1111              		.loc 1 295 0
 1112 0308 0029     		cmp	r1, #0
 1113 030a 2BDB     		blt	.L186
 1114              		.loc 1 229 0
 1115 030c 5046     		mov	r0, sl
 1116              	.LVL156:
 1117              	.L100:
 1118              		.loc 1 299 0
 1119 030e 0A22     		movs	r2, #10
 1120 0310 FFF7FEFF 		bl	ltoa_wd.constprop.1
 1121              	.LVL157:
 1122              		.loc 1 230 0
 1123 0314 D046     		mov	r8, sl
 1124 0316 CAEB0009 		rsb	r9, sl, r0
 1125              		.loc 1 300 0
 1126 031a 6DE7     		b	.L93
 1127              	.LVL158:
 1128              	.L85:
 1129              		.loc 1 330 0
 1130 031c 8DF80C30 		strb	r3, [sp, #12]
 1131              	.LVL159:
 1132 0320 DDF80490 		ldr	r9, [sp, #4]
 1133              		.loc 1 230 0
ARM GAS  /tmp/ccfro8fl.s 			page 21


 1134 0324 D046     		mov	r8, sl
 1135              		.loc 1 331 0
 1136 0326 67E7     		b	.L93
 1137              	.LVL160:
 1138              	.L181:
 1139 0328 6B78     		ldrb	r3, [r5, #1]	@ zero_extendqisi2
 1140              		.loc 1 239 0
 1141 032a 3026     		movs	r6, #48
 1142              		.loc 1 238 0
 1143 032c 0135     		adds	r5, r5, #1
 1144              	.LVL161:
 1145 032e A1E6     		b	.L74
 1146              	.LVL162:
 1147              	.L180:
 1148              		.loc 1 233 0
 1149 0330 0BF10205 		add	r5, fp, #2
 1150              	.LVL163:
 1151 0334 9BF80230 		ldrb	r3, [fp, #2]	@ zero_extendqisi2
 1152              		.loc 1 234 0
 1153 0338 0127     		movs	r7, #1
 1154 033a 97E6     		b	.L73
 1155              	.LVL164:
 1156              	.L114:
 1157              		.loc 1 268 0
 1158 033c 0121     		movs	r1, #1
 1159 033e BCE6     		b	.L84
 1160              	.LVL165:
 1161              	.L184:
 1162              		.loc 1 340 0 discriminator 1
 1163 0340 302E     		cmp	r6, #48
 1164 0342 7FF465AF 		bne	.L151
 1165              		.loc 1 341 0
 1166 0346 2046     		mov	r0, r4
 1167 0348 FFF7FEFF 		bl	gwinPutChar
 1168              	.LVL166:
 1169 034c 08F10108 		add	r8, r8, #1
 1170              	.LVL167:
 1171              		.loc 1 342 0
 1172 0350 09F1FF39 		add	r9, r9, #-1
 1173              	.LVL168:
 1174 0354 5CE7     		b	.L151
 1175              	.LVL169:
 1176              	.L98:
 1177              		.loc 1 294 0
 1178 0356 1968     		ldr	r1, [r3, #0]
 1179              	.LVL170:
 1180 0358 0292     		str	r2, [sp, #8]
 1181 035a D5E7     		b	.L99
 1182              	.LVL171:
 1183              	.L166:
 1184 035c C8EB0909 		rsb	r9, r8, r9
 1185              		.loc 1 282 0
 1186 0360 2026     		movs	r6, #32
 1187 0362 49E7     		b	.L93
 1188              	.LVL172:
 1189              	.L186:
 1190              		.loc 1 296 0
ARM GAS  /tmp/ccfro8fl.s 			page 22


 1191 0364 2D20     		movs	r0, #45
 1192              	.LVL173:
 1193 0366 8DF80C00 		strb	r0, [sp, #12]
 1194              	.LVL174:
 1195              		.loc 1 297 0
 1196 036a 4942     		negs	r1, r1
 1197              	.LVL175:
 1198              		.loc 1 296 0
 1199 036c 0DF10D00 		add	r0, sp, #13
 1200 0370 CDE7     		b	.L100
 1201              	.LVL176:
 1202              	.L118:
 1203              		.loc 1 287 0
 1204 0372 9146     		mov	r9, r2
 1205              		.loc 1 282 0
 1206 0374 2026     		movs	r6, #32
 1207 0376 3FE7     		b	.L93
 1208              		.cfi_endproc
 1209              	.LFE124:
 1210              		.size	gwinPrintf, .-gwinPrintf
 1211 0378 AFF30080 		.section	.rodata.str1.4,"aMS",%progbits,1
 1211      AFF30080 
 1212              		.align	2
 1213              	.LC0:
 1214 0000 286E756C 		.ascii	"(null)\000"
 1214      6C2900
 1215 0007 00       		.space	1
 1216              	.LC1:
 1217 0008 436F6E73 		.ascii	"Console\000"
 1217      6F6C6500 
 1218              		.section	.rodata.consoleVMT,"a",%progbits
 1219              		.align	2
 1220              		.set	.LANCHOR0,. + 0
 1221              		.type	consoleVMT, %object
 1222              		.size	consoleVMT, 20
 1223              	consoleVMT:
 1224 0000 08000000 		.word	.LC1
 1225 0004 20000000 		.word	32
 1226 0008 00000000 		.word	0
 1227 000c 00000000 		.word	0
 1228 0010 00000000 		.word	AfterClear
 1229              		.text
 1230              	.Letext0:
 1231              		.file 2 "/usr/bin/../lib/gcc/arm-none-eabi/4.7.4/include/stddef.h"
 1232              		.file 3 "/usr/bin/../lib/gcc/arm-none-eabi/4.7.4/../../../../arm-none-eabi/include/stdint.h"
 1233              		.file 4 "../../os/ports/GCC/ARMCMx/chtypes.h"
 1234              		.file 5 "../../ext/ugfx/include/gqueue/gqueue.h"
 1235              		.file 6 "../../ext/ugfx/include/gdisp/gdisp.h"
 1236              		.file 7 "../../ext/ugfx/include/gwin/gwin.h"
 1237              		.file 8 "../../ext/ugfx/include/gwin/class_gwin.h"
 1238              		.file 9 "../../ext/ugfx/include/gwin/console.h"
 1239              		.file 10 "/usr/bin/../lib/gcc/arm-none-eabi/4.7.4/include/stdarg.h"
 1240              		.file 11 "<built-in>"
 1241              		.file 12 "../../os/ports/common/ARMCMx/CMSIS/include/core_cm4.h"