ARM GAS  /tmp/ccVxBZiF.s 			page 1


   1              		.syntax unified
   2              		.cpu cortex-m4
   3              		.eabi_attribute 27, 3
   4              		.eabi_attribute 28, 1
   5              		.fpu fpv4-sp-d16
   6              		.eabi_attribute 20, 1
   7              		.eabi_attribute 21, 1
   8              		.eabi_attribute 23, 3
   9              		.eabi_attribute 24, 1
  10              		.eabi_attribute 25, 1
  11              		.eabi_attribute 26, 1
  12              		.eabi_attribute 30, 2
  13              		.eabi_attribute 34, 1
  14              		.eabi_attribute 18, 4
  15              		.thumb
  16              		.file	"gdisp_lld.c"
  17              		.text
  18              	.Ltext0:
  19              		.cfi_sections	.debug_frame
  20              		.section	.text.set_viewport,"ax",%progbits
  21              		.align	2
  22              		.p2align 4,,15
  23              		.thumb
  24              		.thumb_func
  25              		.type	set_viewport, %function
  26              	set_viewport:
  27              	.LFB133:
  28              		.file 1 "../../ext/ugfx/drivers/gdisp/SSD1289/gdisp_lld.c"
  29              		.loc 1 75 0
  30              		.cfi_startproc
  31              		@ args = 0, pretend = 0, frame = 0
  32              		@ frame_needed = 0, uses_anonymous_args = 0
  33              		@ link register save eliminated.
  34              	.LVL0:
  35 0000 70B4     		push	{r4, r5, r6}
  36              	.LCFI0:
  37              		.cfi_def_cfa_offset 12
  38              		.cfi_offset 4, -12
  39              		.cfi_offset 5, -8
  40              		.cfi_offset 6, -4
  41              		.loc 1 88 0
  42 0002 6D4C     		ldr	r4, .L19
  43 0004 2479     		ldrb	r4, [r4, #4]	@ zero_extendqisi2
  44 0006 032C     		cmp	r4, #3
  45 0008 00F2B780 		bhi	.L2
  46 000c DFE804F0 		tbb	[pc, r4]
  47              	.L7:
  48 0010 8E       		.byte	(.L3-.L7)/2
  49 0011 5C       		.byte	(.L4-.L7)/2
  50 0012 2A       		.byte	(.L5-.L7)/2
  51 0013 02       		.byte	(.L6-.L7)/2
  52              		.align	1
  53              	.L6:
  54              	.LVL1:
  55              		.loc 1 95 0
  56 0014 8518     		adds	r5, r0, r2
  57              		.loc 1 97 0
ARM GAS  /tmp/ccVxBZiF.s 			page 2


  58 0016 461E     		subs	r6, r0, #1
  59              		.loc 1 95 0
  60 0018 013D     		subs	r5, r5, #1
  61 001a C9B2     		uxtb	r1, r1
  62              	.LVL2:
  63              	.LBB432:
  64              	.LBB433:
  65              		.file 2 "./gdisp_lld_board.h"
  66              		.loc 2 153 0
  67 001c 0023     		movs	r3, #0
  68              	.LVL3:
  69              	.LBE433:
  70              	.LBE432:
  71              	.LBB436:
  72              	.LBB437:
  73              		.loc 2 144 0
  74 001e 4FF0C044 		mov	r4, #1610612736
  75              	.LBE437:
  76              	.LBE436:
  77              	.LBB439:
  78              	.LBB434:
  79              		.loc 2 153 0
  80 0022 C6F20203 		movt	r3, 24578
  81              	.LBE434:
  82              	.LBE439:
  83              		.loc 1 97 0
  84 0026 B218     		adds	r2, r6, r2
  85              	.LVL4:
  86              		.loc 1 95 0
  87 0028 41EA0526 		orr	r6, r1, r5, lsl #8
  88 002c B5B2     		uxth	r5, r6
  89              	.LBB440:
  90              	.LBB438:
  91              		.loc 2 144 0
  92 002e 4426     		movs	r6, #68
  93 0030 2680     		strh	r6, [r4, #0]	@ movhi
  94              	.LVL5:
  95              	.LBE438:
  96              	.LBE440:
  97              		.loc 1 96 0
  98 0032 C005     		lsls	r0, r0, #23
  99              	.LVL6:
 100              	.LBB441:
 101              	.LBB435:
 102              		.loc 2 153 0
 103 0034 1D80     		strh	r5, [r3, #0]	@ movhi
 104              	.LVL7:
 105              	.LBE435:
 106              	.LBE441:
 107              		.loc 1 97 0
 108 0036 D205     		lsls	r2, r2, #23
 109              	.LBB442:
 110              	.LBB443:
 111              		.loc 2 144 0
 112 0038 4525     		movs	r5, #69
 113              	.LVL8:
 114 003a 2580     		strh	r5, [r4, #0]	@ movhi
ARM GAS  /tmp/ccVxBZiF.s 			page 3


 115              	.LBE443:
 116              	.LBE442:
 117              		.loc 1 96 0
 118 003c C00D     		lsrs	r0, r0, #23
 119              	.LVL9:
 120              		.loc 1 97 0
 121 003e D20D     		lsrs	r2, r2, #23
 122              	.LBB444:
 123              	.LBB445:
 124              		.loc 2 144 0
 125 0040 4625     		movs	r5, #70
 126              	.LBE445:
 127              	.LBE444:
 128              	.LBB447:
 129              	.LBB448:
 130              		.loc 2 153 0
 131 0042 1880     		strh	r0, [r3, #0]	@ movhi
 132              	.LVL10:
 133              	.LBE448:
 134              	.LBE447:
 135              	.LBB449:
 136              	.LBB446:
 137              		.loc 2 144 0
 138 0044 2580     		strh	r5, [r4, #0]	@ movhi
 139              	.LVL11:
 140              	.LBE446:
 141              	.LBE449:
 142              	.LBB450:
 143              	.LBB451:
 144              		.loc 2 153 0
 145 0046 1A80     		strh	r2, [r3, #0]	@ movhi
 146              	.LVL12:
 147              	.L9:
 148              	.LBE451:
 149              	.LBE450:
 150              	.LBB452:
 151              	.LBB453:
 152              	.LBB454:
 153              	.LBB455:
 154 0048 0023     		movs	r3, #0
 155              	.LBE455:
 156              	.LBE454:
 157              	.LBB458:
 158              	.LBB459:
 159              		.loc 2 144 0
 160 004a 4FF0C042 		mov	r2, #1610612736
 161              	.LBE459:
 162              	.LBE458:
 163              	.LBB461:
 164              	.LBB456:
 165              		.loc 2 153 0
 166 004e C6F20203 		movt	r3, 24578
 167              	.LBE456:
 168              	.LBE461:
 169              		.loc 1 65 0
 170 0052 89B2     		uxth	r1, r1
 171              	.LVL13:
ARM GAS  /tmp/ccVxBZiF.s 			page 4


 172              	.LBB462:
 173              	.LBB460:
 174              		.loc 2 144 0
 175 0054 4E24     		movs	r4, #78
 176 0056 1480     		strh	r4, [r2, #0]	@ movhi
 177              	.LBE460:
 178              	.LBE462:
 179              	.LBB463:
 180              	.LBB457:
 181              		.loc 2 153 0
 182 0058 1980     		strh	r1, [r3, #0]	@ movhi
 183              	.LVL14:
 184              	.LBE457:
 185              	.LBE463:
 186              	.LBB464:
 187              	.LBB465:
 188              		.loc 2 144 0
 189 005a 4F21     		movs	r1, #79
 190              	.LVL15:
 191 005c 1180     		strh	r1, [r2, #0]	@ movhi
 192              	.LVL16:
 193              	.LBE465:
 194              	.LBE464:
 195              	.LBB466:
 196              	.LBB467:
 197              		.loc 2 153 0
 198 005e 1880     		strh	r0, [r3, #0]	@ movhi
 199              	.LVL17:
 200              	.L1:
 201              	.LBE467:
 202              	.LBE466:
 203              	.LBE453:
 204              	.LBE452:
 205              		.loc 1 112 0
 206 0060 70BC     		pop	{r4, r5, r6}
 207 0062 7047     		bx	lr
 208              	.LVL18:
 209              	.L5:
 210              		.loc 1 100 0
 211 0064 86B2     		uxth	r6, r0
 212 0066 C6F1F004 		rsb	r4, r6, #240
 213              		.loc 1 101 0
 214 006a 89B2     		uxth	r1, r1
 215              		.loc 1 100 0
 216 006c A21A     		subs	r2, r4, r2
 217              	.LVL19:
 218              		.loc 1 101 0
 219 006e C1F5A075 		rsb	r5, r1, #320
 220              		.loc 1 100 0
 221 0072 C0F1EF00 		rsb	r0, r0, #239
 222              	.LVL20:
 223 0076 D2B2     		uxtb	r2, r2
 224              	.LBB515:
 225              	.LBB516:
 226              		.loc 2 153 0
 227 0078 0024     		movs	r4, #0
 228 007a C6F20204 		movt	r4, 24578
ARM GAS  /tmp/ccVxBZiF.s 			page 5


 229              	.LBE516:
 230              	.LBE515:
 231              		.loc 1 101 0
 232 007e EB1A     		subs	r3, r5, r3
 233              	.LVL21:
 234              		.loc 1 100 0
 235 0080 42EA0022 		orr	r2, r2, r0, lsl #8
 236              	.LBB518:
 237              	.LBB519:
 238              		.loc 2 144 0
 239 0084 4FF0C045 		mov	r5, #1610612736
 240              	.LBE519:
 241              	.LBE518:
 242              		.loc 1 102 0
 243 0088 C1F59F71 		rsb	r1, r1, #318
 244              	.LVL22:
 245              		.loc 1 100 0
 246 008c 90B2     		uxth	r0, r2
 247              	.LVL23:
 248              		.loc 1 102 0
 249 008e 0131     		adds	r1, r1, #1
 250              		.loc 1 101 0
 251 0090 DB05     		lsls	r3, r3, #23
 252              	.LBB521:
 253              	.LBB520:
 254              		.loc 2 144 0
 255 0092 4422     		movs	r2, #68
 256              	.LVL24:
 257 0094 2A80     		strh	r2, [r5, #0]	@ movhi
 258              	.LBE520:
 259              	.LBE521:
 260              		.loc 1 101 0
 261 0096 DB0D     		lsrs	r3, r3, #23
 262              	.LBB522:
 263              	.LBB517:
 264              		.loc 2 153 0
 265 0098 2080     		strh	r0, [r4, #0]	@ movhi
 266              	.LVL25:
 267              	.LBE517:
 268              	.LBE522:
 269              		.loc 1 102 0
 270 009a C905     		lsls	r1, r1, #23
 271              	.LBB523:
 272              	.LBB524:
 273              		.loc 2 144 0
 274 009c 4520     		movs	r0, #69
 275              	.LVL26:
 276 009e 2880     		strh	r0, [r5, #0]	@ movhi
 277              	.LVL27:
 278              	.LBE524:
 279              	.LBE523:
 280              		.loc 1 102 0
 281 00a0 C90D     		lsrs	r1, r1, #23
 282              	.LBB525:
 283              	.LBB526:
 284              		.loc 2 153 0
 285 00a2 2380     		strh	r3, [r4, #0]	@ movhi
ARM GAS  /tmp/ccVxBZiF.s 			page 6


 286              	.LVL28:
 287              	.LBE526:
 288              	.LBE525:
 289              	.LBB527:
 290              	.LBB528:
 291              		.loc 2 144 0
 292 00a4 4623     		movs	r3, #70
 293              	.LVL29:
 294 00a6 2B80     		strh	r3, [r5, #0]	@ movhi
 295              	.LBE528:
 296              	.LBE527:
 297              	.LBB529:
 298              	.LBB530:
 299              		.loc 2 153 0
 300 00a8 2180     		strh	r1, [r4, #0]	@ movhi
 301              	.LVL30:
 302              	.L10:
 303              	.LBE530:
 304              	.LBE529:
 305              	.LBB531:
 306              	.LBB512:
 307              	.LBB468:
 308              	.LBB469:
 309              		.loc 2 144 0
 310 00aa 4FF0C042 		mov	r2, #1610612736
 311              	.LBE469:
 312              	.LBE468:
 313              		.loc 1 57 0
 314 00ae C6F1EF00 		rsb	r0, r6, #239
 315              	.LBB471:
 316              	.LBB472:
 317              		.loc 2 153 0
 318 00b2 0023     		movs	r3, #0
 319 00b4 C6F20203 		movt	r3, 24578
 320              	.LBE472:
 321              	.LBE471:
 322              		.loc 1 57 0
 323 00b8 C6B2     		uxtb	r6, r0
 324              	.LVL31:
 325              	.LBB474:
 326              	.LBB470:
 327              		.loc 2 144 0
 328 00ba 4E20     		movs	r0, #78
 329 00bc 1080     		strh	r0, [r2, #0]	@ movhi
 330              	.LBE470:
 331              	.LBE474:
 332              	.LBB475:
 333              	.LBB476:
 334 00be 4F20     		movs	r0, #79
 335              	.LBE476:
 336              	.LBE475:
 337              	.LBB478:
 338              	.LBB473:
 339              		.loc 2 153 0
 340 00c0 1E80     		strh	r6, [r3, #0]	@ movhi
 341              	.LVL32:
 342              	.LBE473:
ARM GAS  /tmp/ccVxBZiF.s 			page 7


 343              	.LBE478:
 344              	.LBB479:
 345              	.LBB477:
 346              		.loc 2 144 0
 347 00c2 1080     		strh	r0, [r2, #0]	@ movhi
 348              	.LVL33:
 349              	.LBE477:
 350              	.LBE479:
 351              	.LBB480:
 352              	.LBB481:
 353              		.loc 2 153 0
 354 00c4 1980     		strh	r1, [r3, #0]	@ movhi
 355 00c6 CBE7     		b	.L1
 356              	.LVL34:
 357              	.L4:
 358              	.LBE481:
 359              	.LBE480:
 360              	.LBE512:
 361              	.LBE531:
 362              		.loc 1 105 0
 363 00c8 8EB2     		uxth	r6, r1
 364 00ca C6F1F004 		rsb	r4, r6, #240
 365              		.loc 1 106 0
 366 00ce 80B2     		uxth	r0, r0
 367              		.loc 1 105 0
 368 00d0 E31A     		subs	r3, r4, r3
 369              	.LVL35:
 370              		.loc 1 106 0
 371 00d2 C0F5A075 		rsb	r5, r0, #320
 372              		.loc 1 105 0
 373 00d6 C1F1EF01 		rsb	r1, r1, #239
 374              	.LVL36:
 375 00da DBB2     		uxtb	r3, r3
 376              	.LBB532:
 377              	.LBB533:
 378              		.loc 2 153 0
 379 00dc 0024     		movs	r4, #0
 380 00de C6F20204 		movt	r4, 24578
 381              	.LBE533:
 382              	.LBE532:
 383              		.loc 1 106 0
 384 00e2 AA1A     		subs	r2, r5, r2
 385              	.LVL37:
 386              		.loc 1 105 0
 387 00e4 43EA0123 		orr	r3, r3, r1, lsl #8
 388              	.LBB535:
 389              	.LBB536:
 390              		.loc 2 144 0
 391 00e8 4FF0C045 		mov	r5, #1610612736
 392              	.LBE536:
 393              	.LBE535:
 394              		.loc 1 107 0
 395 00ec C0F59F70 		rsb	r0, r0, #318
 396              	.LVL38:
 397              		.loc 1 105 0
 398 00f0 99B2     		uxth	r1, r3
 399              	.LVL39:
ARM GAS  /tmp/ccVxBZiF.s 			page 8


 400              		.loc 1 107 0
 401 00f2 0130     		adds	r0, r0, #1
 402              		.loc 1 106 0
 403 00f4 D205     		lsls	r2, r2, #23
 404              	.LBB538:
 405              	.LBB537:
 406              		.loc 2 144 0
 407 00f6 4423     		movs	r3, #68
 408              	.LVL40:
 409 00f8 2B80     		strh	r3, [r5, #0]	@ movhi
 410              	.LBE537:
 411              	.LBE538:
 412              		.loc 1 106 0
 413 00fa D20D     		lsrs	r2, r2, #23
 414              	.LBB539:
 415              	.LBB534:
 416              		.loc 2 153 0
 417 00fc 2180     		strh	r1, [r4, #0]	@ movhi
 418              	.LVL41:
 419              	.LBE534:
 420              	.LBE539:
 421              		.loc 1 107 0
 422 00fe C005     		lsls	r0, r0, #23
 423              	.LBB540:
 424              	.LBB541:
 425              		.loc 2 144 0
 426 0100 4521     		movs	r1, #69
 427              	.LVL42:
 428 0102 2980     		strh	r1, [r5, #0]	@ movhi
 429              	.LVL43:
 430              	.LBE541:
 431              	.LBE540:
 432              		.loc 1 107 0
 433 0104 C00D     		lsrs	r0, r0, #23
 434              	.LBB542:
 435              	.LBB543:
 436              		.loc 2 153 0
 437 0106 2280     		strh	r2, [r4, #0]	@ movhi
 438              	.LVL44:
 439              	.LBE543:
 440              	.LBE542:
 441              	.LBB544:
 442              	.LBB545:
 443              		.loc 2 144 0
 444 0108 4622     		movs	r2, #70
 445              	.LVL45:
 446 010a 2A80     		strh	r2, [r5, #0]	@ movhi
 447              	.LBE545:
 448              	.LBE544:
 449              	.LBB546:
 450              	.LBB547:
 451              		.loc 2 153 0
 452 010c 2080     		strh	r0, [r4, #0]	@ movhi
 453              	.LVL46:
 454              	.L11:
 455              	.LBE547:
 456              	.LBE546:
ARM GAS  /tmp/ccVxBZiF.s 			page 9


 457              	.LBB548:
 458              	.LBB513:
 459              	.LBB482:
 460              	.LBB483:
 461              	.LBB484:
 462              	.LBB485:
 463              		.loc 2 144 0
 464 010e 4FF0C042 		mov	r2, #1610612736
 465              	.LBE485:
 466              	.LBE484:
 467              		.loc 1 69 0
 468 0112 C6F1EF01 		rsb	r1, r6, #239
 469              	.LBB487:
 470              	.LBB488:
 471              		.loc 2 153 0
 472 0116 0023     		movs	r3, #0
 473 0118 C6F20203 		movt	r3, 24578
 474              	.LBE488:
 475              	.LBE487:
 476              		.loc 1 69 0
 477 011c CEB2     		uxtb	r6, r1
 478              	.LVL47:
 479              	.LBB490:
 480              	.LBB486:
 481              		.loc 2 144 0
 482 011e 4E21     		movs	r1, #78
 483 0120 1180     		strh	r1, [r2, #0]	@ movhi
 484              	.LBE486:
 485              	.LBE490:
 486              	.LBB491:
 487              	.LBB492:
 488 0122 4F21     		movs	r1, #79
 489              	.LBE492:
 490              	.LBE491:
 491              	.LBB494:
 492              	.LBB489:
 493              		.loc 2 153 0
 494 0124 1E80     		strh	r6, [r3, #0]	@ movhi
 495              	.LVL48:
 496              	.LBE489:
 497              	.LBE494:
 498              	.LBB495:
 499              	.LBB493:
 500              		.loc 2 144 0
 501 0126 1180     		strh	r1, [r2, #0]	@ movhi
 502              	.LVL49:
 503              	.LBE493:
 504              	.LBE495:
 505              	.LBB496:
 506              	.LBB497:
 507              		.loc 2 153 0
 508 0128 1880     		strh	r0, [r3, #0]	@ movhi
 509 012a 99E7     		b	.L1
 510              	.LVL50:
 511              	.L3:
 512              	.LBE497:
 513              	.LBE496:
ARM GAS  /tmp/ccVxBZiF.s 			page 10


 514              	.LBE483:
 515              	.LBE482:
 516              	.LBE513:
 517              	.LBE548:
 518              		.loc 1 90 0
 519 012c 8618     		adds	r6, r0, r2
 520              		.loc 1 92 0
 521 012e 4D1E     		subs	r5, r1, #1
 522              		.loc 1 90 0
 523 0130 721E     		subs	r2, r6, #1
 524              	.LVL51:
 525 0132 C0B2     		uxtb	r0, r0
 526              	.LVL52:
 527              	.LBB549:
 528              	.LBB550:
 529              		.loc 2 153 0
 530 0134 0024     		movs	r4, #0
 531 0136 C6F20204 		movt	r4, 24578
 532              	.LBE550:
 533              	.LBE549:
 534              		.loc 1 92 0
 535 013a EB18     		adds	r3, r5, r3
 536              	.LVL53:
 537              		.loc 1 90 0
 538 013c 40EA0226 		orr	r6, r0, r2, lsl #8
 539              	.LBB552:
 540              	.LBB553:
 541              		.loc 2 144 0
 542 0140 4FF0C045 		mov	r5, #1610612736
 543              	.LBE553:
 544              	.LBE552:
 545              		.loc 1 90 0
 546 0144 B2B2     		uxth	r2, r6
 547              	.LVL54:
 548              	.LBB555:
 549              	.LBB554:
 550              		.loc 2 144 0
 551 0146 4426     		movs	r6, #68
 552              	.LVL55:
 553 0148 2E80     		strh	r6, [r5, #0]	@ movhi
 554              	.LBE554:
 555              	.LBE555:
 556              		.loc 1 91 0
 557 014a C905     		lsls	r1, r1, #23
 558              	.LVL56:
 559              	.LBB556:
 560              	.LBB551:
 561              		.loc 2 153 0
 562 014c 2280     		strh	r2, [r4, #0]	@ movhi
 563              	.LVL57:
 564              	.LBE551:
 565              	.LBE556:
 566              		.loc 1 92 0
 567 014e DB05     		lsls	r3, r3, #23
 568              	.LBB557:
 569              	.LBB558:
 570              		.loc 2 144 0
ARM GAS  /tmp/ccVxBZiF.s 			page 11


 571 0150 4522     		movs	r2, #69
 572              	.LVL58:
 573 0152 2A80     		strh	r2, [r5, #0]	@ movhi
 574              	.LBE558:
 575              	.LBE557:
 576              		.loc 1 91 0
 577 0154 C90D     		lsrs	r1, r1, #23
 578              	.LVL59:
 579              		.loc 1 92 0
 580 0156 DB0D     		lsrs	r3, r3, #23
 581              	.LBB559:
 582              	.LBB560:
 583              		.loc 2 144 0
 584 0158 4622     		movs	r2, #70
 585              	.LBE560:
 586              	.LBE559:
 587              	.LBB562:
 588              	.LBB563:
 589              		.loc 2 153 0
 590 015a 2180     		strh	r1, [r4, #0]	@ movhi
 591              	.LVL60:
 592              	.LBE563:
 593              	.LBE562:
 594              	.LBB564:
 595              	.LBB561:
 596              		.loc 2 144 0
 597 015c 2A80     		strh	r2, [r5, #0]	@ movhi
 598              	.LVL61:
 599              	.LBE561:
 600              	.LBE564:
 601              	.LBB565:
 602              	.LBB566:
 603              		.loc 2 153 0
 604 015e 2380     		strh	r3, [r4, #0]	@ movhi
 605              	.LVL62:
 606              	.L8:
 607              	.LBE566:
 608              	.LBE565:
 609              	.LBB567:
 610              	.LBB514:
 611              	.LBB498:
 612              	.LBB499:
 613 0160 0023     		movs	r3, #0
 614              	.LBE499:
 615              	.LBE498:
 616              	.LBB502:
 617              	.LBB503:
 618              		.loc 2 144 0
 619 0162 4FF0C042 		mov	r2, #1610612736
 620              	.LBE503:
 621              	.LBE502:
 622              	.LBB505:
 623              	.LBB500:
 624              		.loc 2 153 0
 625 0166 C6F20203 		movt	r3, 24578
 626              	.LBE500:
 627              	.LBE505:
ARM GAS  /tmp/ccVxBZiF.s 			page 12


 628              		.loc 1 61 0
 629 016a 80B2     		uxth	r0, r0
 630              	.LVL63:
 631              	.LBB506:
 632              	.LBB504:
 633              		.loc 2 144 0
 634 016c 4E24     		movs	r4, #78
 635 016e 1480     		strh	r4, [r2, #0]	@ movhi
 636              	.LBE504:
 637              	.LBE506:
 638              	.LBB507:
 639              	.LBB501:
 640              		.loc 2 153 0
 641 0170 1880     		strh	r0, [r3, #0]	@ movhi
 642              	.LVL64:
 643              	.LBE501:
 644              	.LBE507:
 645              	.LBB508:
 646              	.LBB509:
 647              		.loc 2 144 0
 648 0172 4F20     		movs	r0, #79
 649              	.LVL65:
 650 0174 1080     		strh	r0, [r2, #0]	@ movhi
 651              	.LVL66:
 652              	.LBE509:
 653              	.LBE508:
 654              	.LBB510:
 655              	.LBB511:
 656              		.loc 2 153 0
 657 0176 1980     		strh	r1, [r3, #0]	@ movhi
 658 0178 72E7     		b	.L1
 659              	.LVL67:
 660              	.L2:
 661              	.LBE511:
 662              	.LBE510:
 663              		.loc 1 55 0
 664 017a 032C     		cmp	r4, #3
 665 017c 3FF670AF 		bhi	.L1
 666 0180 DFE804F0 		tbb	[pc, r4]
 667              	.LVL68:
 668              	.L17:
 669 0184 06       		.byte	(.L13-.L17)/2
 670 0185 0A       		.byte	(.L14-.L17)/2
 671 0186 12       		.byte	(.L15-.L17)/2
 672 0187 02       		.byte	(.L16-.L17)/2
 673              		.align	1
 674              	.L16:
 675 0188 C005     		lsls	r0, r0, #23
 676              	.LVL69:
 677 018a C9B2     		uxtb	r1, r1
 678              	.LVL70:
 679 018c C00D     		lsrs	r0, r0, #23
 680 018e 5BE7     		b	.L9
 681              	.LVL71:
 682              	.L13:
 683 0190 CC05     		lsls	r4, r1, #23
 684 0192 C0B2     		uxtb	r0, r0
ARM GAS  /tmp/ccVxBZiF.s 			page 13


 685              	.LVL72:
 686 0194 E10D     		lsrs	r1, r4, #23
 687              	.LVL73:
 688 0196 E3E7     		b	.L8
 689              	.LVL74:
 690              	.L14:
 691 0198 85B2     		uxth	r5, r0
 692 019a C5F59F76 		rsb	r6, r5, #318
 693 019e 731C     		adds	r3, r6, #1
 694 01a0 DA05     		lsls	r2, r3, #23
 695              	.LVL75:
 696 01a2 8EB2     		uxth	r6, r1
 697 01a4 D00D     		lsrs	r0, r2, #23
 698              	.LVL76:
 699 01a6 B2E7     		b	.L11
 700              	.LVL77:
 701              	.L15:
 702 01a8 8DB2     		uxth	r5, r1
 703 01aa C5F59F76 		rsb	r6, r5, #318
 704 01ae 731C     		adds	r3, r6, #1
 705 01b0 DA05     		lsls	r2, r3, #23
 706              	.LVL78:
 707 01b2 86B2     		uxth	r6, r0
 708 01b4 D10D     		lsrs	r1, r2, #23
 709              	.LVL79:
 710 01b6 78E7     		b	.L10
 711              	.L20:
 712              		.align	2
 713              	.L19:
 714 01b8 00000000 		.word	.LANCHOR0
 715              	.LBE514:
 716              	.LBE567:
 717              		.cfi_endproc
 718              	.LFE133:
 719              		.size	set_viewport, .-set_viewport
 720 01bc AFF30080 		.section	.text.gdisp_lld_set_clip,"ax",%progbits
 721              		.align	2
 722              		.p2align 4,,15
 723              		.global	gdisp_lld_set_clip
 724              		.thumb
 725              		.thumb_func
 726              		.type	gdisp_lld_set_clip, %function
 727              	gdisp_lld_set_clip:
 728              	.LFB119:
 729              		.file 3 "../../ext/ugfx/include/gdisp/lld/emulation.c"
 730              		.loc 3 153 0
 731              		.cfi_startproc
 732              		@ args = 0, pretend = 0, frame = 0
 733              		@ frame_needed = 0, uses_anonymous_args = 0
 734              		@ link register save eliminated.
 735              	.LVL80:
 736 0000 2DE9F001 		push	{r4, r5, r6, r7, r8}
 737              	.LCFI1:
 738              		.cfi_def_cfa_offset 20
 739              		.cfi_offset 4, -20
 740              		.cfi_offset 5, -16
 741              		.cfi_offset 6, -12
ARM GAS  /tmp/ccVxBZiF.s 			page 14


 742              		.cfi_offset 7, -8
 743              		.cfi_offset 8, -4
 744              		.loc 3 155 0
 745 0004 164C     		ldr	r4, .L27
 746 0006 2688     		ldrh	r6, [r4, #0]
 747 0008 35B2     		sxth	r5, r6
 748 000a 8542     		cmp	r5, r0
 749 000c 24DD     		ble	.L21
 750              		.loc 3 155 0 is_stmt 0 discriminator 1
 751 000e B4F802C0 		ldrh	ip, [r4, #2]
 752 0012 0FFA8CF7 		sxth	r7, ip
 753 0016 8F42     		cmp	r7, r1
 754 0018 1EDD     		ble	.L21
 755 001a 002A     		cmp	r2, #0
 756 001c 1CDB     		blt	.L21
 757 001e 002B     		cmp	r3, #0
 758 0020 1ADB     		blt	.L21
 759 0022 20EAE070 		bic	r0, r0, r0, asr #31
 760              	.LVL81:
 761              		.loc 3 159 0 is_stmt 1
 762 0026 00EB0208 		add	r8, r0, r2
 763 002a A845     		cmp	r8, r5
 764 002c 21EAE171 		bic	r1, r1, r1, asr #31
 765              	.LVL82:
 766 0030 1FFA80F8 		uxth	r8, r0
 767              		.loc 3 160 0
 768 0034 01EB0305 		add	r5, r1, r3
 769              		.loc 3 159 0
 770 0038 C4BF     		itt	gt
 771 003a C8EB0606 		rsbgt	r6, r8, r6
 772 003e 32B2     		sxthgt	r2, r6
 773              	.LVL83:
 774              		.loc 3 160 0
 775 0040 BD42     		cmp	r5, r7
 776 0042 8DB2     		uxth	r5, r1
 777 0044 C4BF     		itt	gt
 778 0046 C5EB0C03 		rsbgt	r3, r5, ip
 779              	.LVL84:
 780 004a 1BB2     		sxthgt	r3, r3
 781              	.LVL85:
 782              		.loc 3 164 0
 783 004c 4244     		add	r2, r8, r2
 784              	.LVL86:
 785              		.loc 3 165 0
 786 004e EB18     		adds	r3, r5, r3
 787              	.LVL87:
 788              		.loc 3 162 0
 789 0050 2081     		strh	r0, [r4, #8]	@ movhi
 790              		.loc 3 163 0
 791 0052 6181     		strh	r1, [r4, #10]	@ movhi
 792              		.loc 3 164 0
 793 0054 A281     		strh	r2, [r4, #12]	@ movhi
 794              		.loc 3 165 0
 795 0056 E381     		strh	r3, [r4, #14]	@ movhi
 796              	.LVL88:
 797              	.L21:
 798              		.loc 3 166 0
ARM GAS  /tmp/ccVxBZiF.s 			page 15


 799 0058 BDE8F001 		pop	{r4, r5, r6, r7, r8}
 800 005c 7047     		bx	lr
 801              	.L28:
 802 005e 00BF     		.align	2
 803              	.L27:
 804 0060 00000000 		.word	.LANCHOR0
 805              		.cfi_endproc
 806              	.LFE119:
 807              		.size	gdisp_lld_set_clip, .-gdisp_lld_set_clip
 808 0064 AFF30080 		.section	.text.gdisp_lld_init,"ax",%progbits
 808      AFF30080 
 808      AFF30080 
 809              		.align	2
 810              		.p2align 4,,15
 811              		.global	gdisp_lld_init
 812              		.thumb
 813              		.thumb_func
 814              		.type	gdisp_lld_init, %function
 815              	gdisp_lld_init:
 816              	.LFB135:
 817              		.loc 1 137 0
 818              		.cfi_startproc
 819              		@ args = 0, pretend = 0, frame = 32
 820              		@ frame_needed = 0, uses_anonymous_args = 0
 821 0000 2DE9F04F 		push	{r4, r5, r6, r7, r8, r9, sl, fp, lr}
 822              	.LCFI2:
 823              		.cfi_def_cfa_offset 36
 824              		.cfi_offset 4, -36
 825              		.cfi_offset 5, -32
 826              		.cfi_offset 6, -28
 827              		.cfi_offset 7, -24
 828              		.cfi_offset 8, -20
 829              		.cfi_offset 9, -16
 830              		.cfi_offset 10, -12
 831              		.cfi_offset 11, -8
 832              		.cfi_offset 14, -4
 833              	.LBB738:
 834              	.LBB739:
 835              		.loc 2 72 0
 836 0004 40F20003 		movw	r3, #:lower16:.LANCHOR1
 837              		.loc 2 60 0
 838 0008 4FF46054 		mov	r4, #14336
 839 000c C4F20204 		movt	r4, 16386
 840              		.loc 2 72 0
 841 0010 C0F20003 		movt	r3, #:upper16:.LANCHOR1
 842 0014 93E80700 		ldmia	r3, {r0, r1, r2}
 843              		.loc 2 60 0
 844 0018 A66B     		ldr	r6, [r4, #56]
 845              	.LBE739:
 846              	.LBE738:
 847              		.loc 1 137 0
 848 001a 89B0     		sub	sp, sp, #36
 849              	.LCFI3:
 850              		.cfi_def_cfa_offset 72
 851              	.LBB743:
 852              	.LBB740:
 853              		.loc 2 75 0
ARM GAS  /tmp/ccVxBZiF.s 			page 16


 854 001c 0C33     		adds	r3, r3, #12
 855              		.loc 2 72 0
 856 001e 02AD     		add	r5, sp, #8
 857              		.loc 2 60 0
 858 0020 46F00107 		orr	r7, r6, #1
 859 0024 A763     		str	r7, [r4, #56]
 860              		.loc 2 72 0
 861 0026 85E80700 		stmia	r5, {r0, r1, r2}
 862              		.loc 2 75 0
 863 002a 93E80700 		ldmia	r3, {r0, r1, r2}
 864 002e 05AC     		add	r4, sp, #20
 865 0030 84E80700 		stmia	r4, {r0, r1, r2}
 866              		.loc 2 78 0
 867 0034 2846     		mov	r0, r5
 868 0036 40F20261 		movw	r1, #1538
 869 003a FFF7FEFF 		bl	palSetBusMode
 870              	.LVL89:
 871              		.loc 2 79 0
 872 003e 2046     		mov	r0, r4
 873 0040 40F20261 		movw	r1, #1538
 874 0044 FFF7FEFF 		bl	palSetBusMode
 875              	.LVL90:
 876              		.loc 2 82 0
 877 0048 40F60A27 		movw	r7, #2570
 878 004c 4FF02043 		mov	r3, #-1610612736
 879              		.loc 2 90 0
 880 0050 0026     		movs	r6, #0
 881              		.loc 2 82 0
 882 0052 C0F20A07 		movt	r7, 10
 883 0056 5F60     		str	r7, [r3, #4]
 884              		.loc 2 90 0
 885 0058 4FF48061 		mov	r1, #1024
 886 005c C4F20206 		movt	r6, 16386
 887              		.loc 2 88 0
 888 0060 41F21107 		movw	r7, #4113
 889 0064 1F60     		str	r7, [r3, #0]
 890              		.loc 2 90 0
 891 0066 1922     		movs	r2, #25
 892              	.LBE740:
 893              	.LBE743:
 894              	.LBB744:
 895              	.LBB745:
 896              		.loc 2 102 0
 897 0068 8846     		mov	r8, r1
 898              	.LBE745:
 899              	.LBE744:
 900              	.LBB747:
 901              	.LBB741:
 902              		.loc 2 90 0
 903 006a 3046     		mov	r0, r6
 904              	.LBE741:
 905              	.LBE747:
 906              	.LBB748:
 907              	.LBB749:
 908              		.loc 2 153 0
 909 006c 0024     		movs	r4, #0
 910              	.LBE749:
ARM GAS  /tmp/ccVxBZiF.s 			page 17


 911              	.LBE748:
 912              	.LBB753:
 913              	.LBB754:
 914              		.loc 2 144 0
 915 006e 4FF0C045 		mov	r5, #1610612736
 916              	.LBE754:
 917              	.LBE753:
 918              	.LBB757:
 919              	.LBB750:
 920              		.loc 2 153 0
 921 0072 C6F20204 		movt	r4, 24578
 922              	.LBE750:
 923              	.LBE757:
 924              	.LBB758:
 925              	.LBB742:
 926              		.loc 2 90 0
 927 0076 FFF7FEFF 		bl	_pal_lld_setgroupmode
 928              	.LVL91:
 929              	.LBE742:
 930              	.LBE758:
 931              		.loc 1 143 0
 932 007a 1420     		movs	r0, #20
 933              	.LBB759:
 934              	.LBB746:
 935              		.loc 2 102 0
 936 007c A6F81A80 		strh	r8, [r6, #26]	@ movhi
 937              	.LBE746:
 938              	.LBE759:
 939              	.LBB760:
 940              	.LBB755:
 941              		.loc 2 144 0
 942 0080 0027     		movs	r7, #0
 943              	.LBE755:
 944              	.LBE760:
 945              		.loc 1 143 0
 946 0082 FFF7FEFF 		bl	gfxSleepMilliseconds
 947              	.LVL92:
 948              	.LBB761:
 949              	.LBB751:
 950              		.loc 2 153 0
 951 0086 4FF00109 		mov	r9, #1
 952              	.LBE751:
 953              	.LBE761:
 954              		.loc 1 145 0
 955 008a 1420     		movs	r0, #20
 956              	.LBB762:
 957              	.LBB763:
 958              		.loc 2 104 0
 959 008c A6F81880 		strh	r8, [r6, #24]	@ movhi
 960              	.LBE763:
 961              	.LBE762:
 962              		.loc 1 145 0
 963 0090 FFF7FEFF 		bl	gfxSleepMilliseconds
 964              	.LVL93:
 965              	.LBB764:
 966              	.LBB756:
 967              		.loc 2 144 0
ARM GAS  /tmp/ccVxBZiF.s 			page 18


 968 0094 2F80     		strh	r7, [r5, #0]	@ movhi
 969              	.LVL94:
 970              	.LBE756:
 971              	.LBE764:
 972              		.loc 1 150 0
 973 0096 0520     		movs	r0, #5
 974              	.LBB765:
 975              	.LBB752:
 976              		.loc 2 153 0
 977 0098 A4F80090 		strh	r9, [r4, #0]	@ movhi
 978              	.LBE752:
 979              	.LBE765:
 980              		.loc 1 150 0
 981 009c FFF7FEFF 		bl	gfxSleepMicroseconds
 982              	.LVL95:
 983              	.LBB766:
 984              	.LBB767:
 985              		.loc 2 144 0
 986 00a0 4FF0030A 		mov	sl, #3
 987              	.LBE767:
 988              	.LBE766:
 989              	.LBB769:
 990              	.LBB770:
 991              		.loc 2 153 0
 992 00a4 4AF6A401 		movw	r1, #43172
 993              	.LBE770:
 994              	.LBE769:
 995              	.LBB772:
 996              	.LBB768:
 997              		.loc 2 144 0
 998 00a8 A5F800A0 		strh	sl, [r5, #0]	@ movhi
 999              	.LVL96:
 1000              	.LBE768:
 1001              	.LBE772:
 1002              		.loc 1 151 0
 1003 00ac 0520     		movs	r0, #5
 1004              	.LBB773:
 1005              	.LBB771:
 1006              		.loc 2 153 0
 1007 00ae 2180     		strh	r1, [r4, #0]	@ movhi
 1008              	.LBE771:
 1009              	.LBE773:
 1010              		.loc 1 151 0
 1011 00b0 FFF7FEFF 		bl	gfxSleepMicroseconds
 1012              	.LVL97:
 1013              	.LBB774:
 1014              	.LBB775:
 1015              		.loc 2 144 0
 1016 00b4 0C20     		movs	r0, #12
 1017 00b6 2880     		strh	r0, [r5, #0]	@ movhi
 1018              	.LVL98:
 1019              	.LBE775:
 1020              	.LBE774:
 1021              		.loc 1 152 0
 1022 00b8 0520     		movs	r0, #5
 1023              	.LBB776:
 1024              	.LBB777:
ARM GAS  /tmp/ccVxBZiF.s 			page 19


 1025              		.loc 2 153 0
 1026 00ba 2780     		strh	r7, [r4, #0]	@ movhi
 1027              	.LBE777:
 1028              	.LBE776:
 1029              		.loc 1 152 0
 1030 00bc FFF7FEFF 		bl	gfxSleepMicroseconds
 1031              	.LVL99:
 1032              	.LBB778:
 1033              	.LBB779:
 1034              		.loc 2 153 0
 1035 00c0 40F60C06 		movw	r6, #2060
 1036              	.LBE779:
 1037              	.LBE778:
 1038              	.LBB781:
 1039              	.LBB782:
 1040              		.loc 2 144 0
 1041 00c4 0D22     		movs	r2, #13
 1042 00c6 2A80     		strh	r2, [r5, #0]	@ movhi
 1043              	.LVL100:
 1044              	.LBE782:
 1045              	.LBE781:
 1046              		.loc 1 153 0
 1047 00c8 0520     		movs	r0, #5
 1048              	.LBB783:
 1049              	.LBB780:
 1050              		.loc 2 153 0
 1051 00ca 2680     		strh	r6, [r4, #0]	@ movhi
 1052              	.LBE780:
 1053              	.LBE783:
 1054              		.loc 1 153 0
 1055 00cc FFF7FEFF 		bl	gfxSleepMicroseconds
 1056              	.LVL101:
 1057              	.LBB784:
 1058              	.LBB785:
 1059              		.loc 2 144 0
 1060 00d0 0E23     		movs	r3, #14
 1061              	.LBE785:
 1062              	.LBE784:
 1063              	.LBB787:
 1064              	.LBB788:
 1065              		.loc 2 153 0
 1066 00d2 4FF42C51 		mov	r1, #11008
 1067              	.LBE788:
 1068              	.LBE787:
 1069              	.LBB790:
 1070              	.LBB786:
 1071              		.loc 2 144 0
 1072 00d6 2B80     		strh	r3, [r5, #0]	@ movhi
 1073              	.LVL102:
 1074              	.LBE786:
 1075              	.LBE790:
 1076              		.loc 1 154 0
 1077 00d8 0520     		movs	r0, #5
 1078              	.LBB791:
 1079              	.LBB789:
 1080              		.loc 2 153 0
 1081 00da 2180     		strh	r1, [r4, #0]	@ movhi
ARM GAS  /tmp/ccVxBZiF.s 			page 20


 1082              	.LBE789:
 1083              	.LBE791:
 1084              		.loc 1 154 0
 1085 00dc FFF7FEFF 		bl	gfxSleepMicroseconds
 1086              	.LVL103:
 1087              	.LBB792:
 1088              	.LBB793:
 1089              		.loc 2 153 0
 1090 00e0 B022     		movs	r2, #176
 1091              	.LBE793:
 1092              	.LBE792:
 1093              	.LBB795:
 1094              	.LBB796:
 1095              		.loc 2 144 0
 1096 00e2 1E20     		movs	r0, #30
 1097 00e4 2880     		strh	r0, [r5, #0]	@ movhi
 1098              	.LVL104:
 1099              	.LBE796:
 1100              	.LBE795:
 1101              	.LBB797:
 1102              	.LBB798:
 1103              		.loc 2 153 0
 1104 00e6 42F63F36 		movw	r6, #11071
 1105              	.LBE798:
 1106              	.LBE797:
 1107              	.LBB800:
 1108              	.LBB794:
 1109 00ea 2280     		strh	r2, [r4, #0]	@ movhi
 1110              	.LBE794:
 1111              	.LBE800:
 1112              		.loc 1 155 0
 1113 00ec 0520     		movs	r0, #5
 1114 00ee FFF7FEFF 		bl	gfxSleepMicroseconds
 1115              	.LVL105:
 1116              	.LBB801:
 1117              	.LBB802:
 1118              		.loc 2 144 0
 1119 00f2 A5F80090 		strh	r9, [r5, #0]	@ movhi
 1120              	.LVL106:
 1121              	.LBE802:
 1122              	.LBE801:
 1123              		.loc 1 156 0
 1124 00f6 0520     		movs	r0, #5
 1125              	.LBB803:
 1126              	.LBB799:
 1127              		.loc 2 153 0
 1128 00f8 2680     		strh	r6, [r4, #0]	@ movhi
 1129              	.LBE799:
 1130              	.LBE803:
 1131              		.loc 1 156 0
 1132 00fa FFF7FEFF 		bl	gfxSleepMicroseconds
 1133              	.LVL107:
 1134              	.LBB804:
 1135              	.LBB805:
 1136              		.loc 2 153 0
 1137 00fe 4FF4C061 		mov	r1, #1536
 1138              	.LBE805:
ARM GAS  /tmp/ccVxBZiF.s 			page 21


 1139              	.LBE804:
 1140              	.LBB807:
 1141              	.LBB808:
 1142              		.loc 2 144 0
 1143 0102 0223     		movs	r3, #2
 1144 0104 2B80     		strh	r3, [r5, #0]	@ movhi
 1145              	.LVL108:
 1146              	.LBE808:
 1147              	.LBE807:
 1148              		.loc 1 157 0
 1149 0106 0520     		movs	r0, #5
 1150              	.LBB809:
 1151              	.LBB806:
 1152              		.loc 2 153 0
 1153 0108 2180     		strh	r1, [r4, #0]	@ movhi
 1154              	.LBE806:
 1155              	.LBE809:
 1156              		.loc 1 157 0
 1157 010a FFF7FEFF 		bl	gfxSleepMicroseconds
 1158              	.LVL109:
 1159              	.LBB810:
 1160              	.LBB811:
 1161              		.loc 2 144 0
 1162 010e 1020     		movs	r0, #16
 1163 0110 2880     		strh	r0, [r5, #0]	@ movhi
 1164              	.LVL110:
 1165              	.LBE811:
 1166              	.LBE810:
 1167              		.loc 1 158 0
 1168 0112 0520     		movs	r0, #5
 1169              	.LBB812:
 1170              	.LBB813:
 1171              		.loc 2 153 0
 1172 0114 2780     		strh	r7, [r4, #0]	@ movhi
 1173              	.LBE813:
 1174              	.LBE812:
 1175              	.LBB814:
 1176              	.LBB815:
 1177              		.loc 2 144 0
 1178 0116 0526     		movs	r6, #5
 1179              	.LBE815:
 1180              	.LBE814:
 1181              		.loc 1 158 0
 1182 0118 FFF7FEFF 		bl	gfxSleepMicroseconds
 1183              	.LVL111:
 1184              	.LBB817:
 1185              	.LBB818:
 1186              		.loc 2 144 0
 1187 011c 1122     		movs	r2, #17
 1188              	.LBE818:
 1189              	.LBE817:
 1190              	.LBB820:
 1191              	.LBB821:
 1192              		.loc 2 153 0
 1193 011e 46F27003 		movw	r3, #24688
 1194              	.LBE821:
 1195              	.LBE820:
ARM GAS  /tmp/ccVxBZiF.s 			page 22


 1196              	.LBB823:
 1197              	.LBB819:
 1198              		.loc 2 144 0
 1199 0122 2A80     		strh	r2, [r5, #0]	@ movhi
 1200              	.LVL112:
 1201              	.LBE819:
 1202              	.LBE823:
 1203              		.loc 1 159 0
 1204 0124 3046     		mov	r0, r6
 1205              	.LBB824:
 1206              	.LBB822:
 1207              		.loc 2 153 0
 1208 0126 2380     		strh	r3, [r4, #0]	@ movhi
 1209              	.LBE822:
 1210              	.LBE824:
 1211              		.loc 1 159 0
 1212 0128 FFF7FEFF 		bl	gfxSleepMicroseconds
 1213              	.LVL113:
 1214              	.LBB825:
 1215              	.LBB816:
 1216              		.loc 2 144 0
 1217 012c 2E80     		strh	r6, [r5, #0]	@ movhi
 1218              	.LVL114:
 1219              	.LBE816:
 1220              	.LBE825:
 1221              		.loc 1 160 0
 1222 012e 3046     		mov	r0, r6
 1223              	.LBB826:
 1224              	.LBB827:
 1225              		.loc 2 153 0
 1226 0130 2780     		strh	r7, [r4, #0]	@ movhi
 1227              	.LBE827:
 1228              	.LBE826:
 1229              		.loc 1 160 0
 1230 0132 FFF7FEFF 		bl	gfxSleepMicroseconds
 1231              	.LVL115:
 1232              	.LBB828:
 1233              	.LBB829:
 1234              		.loc 2 144 0
 1235 0136 0621     		movs	r1, #6
 1236 0138 2980     		strh	r1, [r5, #0]	@ movhi
 1237              	.LVL116:
 1238              	.LBE829:
 1239              	.LBE828:
 1240              		.loc 1 161 0
 1241 013a 3046     		mov	r0, r6
 1242              	.LBB830:
 1243              	.LBB831:
 1244              		.loc 2 153 0
 1245 013c 2780     		strh	r7, [r4, #0]	@ movhi
 1246              	.LBE831:
 1247              	.LBE830:
 1248              		.loc 1 161 0
 1249 013e FFF7FEFF 		bl	gfxSleepMicroseconds
 1250              	.LVL117:
 1251              	.LBB832:
 1252              	.LBB833:
ARM GAS  /tmp/ccVxBZiF.s 			page 23


 1253              		.loc 2 153 0
 1254 0142 4EF61C72 		movw	r2, #61212
 1255              	.LBE833:
 1256              	.LBE832:
 1257              	.LBB835:
 1258              	.LBB836:
 1259              		.loc 2 144 0
 1260 0146 1620     		movs	r0, #22
 1261 0148 2880     		strh	r0, [r5, #0]	@ movhi
 1262              	.LVL118:
 1263              	.LBE836:
 1264              	.LBE835:
 1265              	.LBB837:
 1266              	.LBB834:
 1267              		.loc 2 153 0
 1268 014a 2280     		strh	r2, [r4, #0]	@ movhi
 1269              	.LBE834:
 1270              	.LBE837:
 1271              		.loc 1 162 0
 1272 014c 3046     		mov	r0, r6
 1273 014e FFF7FEFF 		bl	gfxSleepMicroseconds
 1274              	.LVL119:
 1275              	.LBB838:
 1276              	.LBB839:
 1277              		.loc 2 144 0
 1278 0152 1723     		movs	r3, #23
 1279 0154 2B80     		strh	r3, [r5, #0]	@ movhi
 1280              	.LVL120:
 1281              	.LBE839:
 1282              	.LBE838:
 1283              		.loc 1 163 0
 1284 0156 3046     		mov	r0, r6
 1285              	.LBB840:
 1286              	.LBB841:
 1287              		.loc 2 153 0
 1288 0158 A4F800A0 		strh	sl, [r4, #0]	@ movhi
 1289              	.LBE841:
 1290              	.LBE840:
 1291              		.loc 1 163 0
 1292 015c FFF7FEFF 		bl	gfxSleepMicroseconds
 1293              	.LVL121:
 1294              	.LBB842:
 1295              	.LBB843:
 1296              		.loc 2 144 0
 1297 0160 0721     		movs	r1, #7
 1298              	.LBE843:
 1299              	.LBE842:
 1300              	.LBB845:
 1301              	.LBB846:
 1302              		.loc 2 153 0
 1303 0162 01F59672 		add	r2, r1, #300
 1304              	.LBE846:
 1305              	.LBE845:
 1306              	.LBB848:
 1307              	.LBB844:
 1308              		.loc 2 144 0
 1309 0166 2980     		strh	r1, [r5, #0]	@ movhi
ARM GAS  /tmp/ccVxBZiF.s 			page 24


 1310              	.LVL122:
 1311              	.LBE844:
 1312              	.LBE848:
 1313              		.loc 1 164 0
 1314 0168 3046     		mov	r0, r6
 1315              	.LBB849:
 1316              	.LBB847:
 1317              		.loc 2 153 0
 1318 016a 2280     		strh	r2, [r4, #0]	@ movhi
 1319              	.LBE847:
 1320              	.LBE849:
 1321              		.loc 1 164 0
 1322 016c FFF7FEFF 		bl	gfxSleepMicroseconds
 1323              	.LVL123:
 1324              	.LBB850:
 1325              	.LBB851:
 1326              		.loc 2 144 0
 1327 0170 0B20     		movs	r0, #11
 1328 0172 2880     		strh	r0, [r5, #0]	@ movhi
 1329              	.LVL124:
 1330              	.LBE851:
 1331              	.LBE850:
 1332              		.loc 1 165 0
 1333 0174 3046     		mov	r0, r6
 1334              	.LBB852:
 1335              	.LBB853:
 1336              		.loc 2 153 0
 1337 0176 2780     		strh	r7, [r4, #0]	@ movhi
 1338              	.LBE853:
 1339              	.LBE852:
 1340              		.loc 1 165 0
 1341 0178 FFF7FEFF 		bl	gfxSleepMicroseconds
 1342              	.LVL125:
 1343              	.LBB854:
 1344              	.LBB855:
 1345              		.loc 2 144 0
 1346 017c 0F23     		movs	r3, #15
 1347 017e 2B80     		strh	r3, [r5, #0]	@ movhi
 1348              	.LVL126:
 1349              	.LBE855:
 1350              	.LBE854:
 1351              		.loc 1 166 0
 1352 0180 3046     		mov	r0, r6
 1353              	.LBB856:
 1354              	.LBB857:
 1355              		.loc 2 153 0
 1356 0182 2780     		strh	r7, [r4, #0]	@ movhi
 1357              	.LBE857:
 1358              	.LBE856:
 1359              		.loc 1 166 0
 1360 0184 FFF7FEFF 		bl	gfxSleepMicroseconds
 1361              	.LVL127:
 1362              	.LBB858:
 1363              	.LBB859:
 1364              		.loc 2 144 0
 1365 0188 4121     		movs	r1, #65
 1366 018a 2980     		strh	r1, [r5, #0]	@ movhi
ARM GAS  /tmp/ccVxBZiF.s 			page 25


 1367              	.LVL128:
 1368              	.LBE859:
 1369              	.LBE858:
 1370              		.loc 1 167 0
 1371 018c 3046     		mov	r0, r6
 1372              	.LBB860:
 1373              	.LBB861:
 1374              		.loc 2 153 0
 1375 018e 2780     		strh	r7, [r4, #0]	@ movhi
 1376              	.LBE861:
 1377              	.LBE860:
 1378              		.loc 1 167 0
 1379 0190 FFF7FEFF 		bl	gfxSleepMicroseconds
 1380              	.LVL129:
 1381              	.LBB862:
 1382              	.LBB863:
 1383              		.loc 2 144 0
 1384 0194 4222     		movs	r2, #66
 1385 0196 2A80     		strh	r2, [r5, #0]	@ movhi
 1386              	.LVL130:
 1387              	.LBE863:
 1388              	.LBE862:
 1389              		.loc 1 168 0
 1390 0198 3046     		mov	r0, r6
 1391              	.LBB864:
 1392              	.LBB865:
 1393              		.loc 2 153 0
 1394 019a 2780     		strh	r7, [r4, #0]	@ movhi
 1395              	.LBE865:
 1396              	.LBE864:
 1397              		.loc 1 168 0
 1398 019c FFF7FEFF 		bl	gfxSleepMicroseconds
 1399              	.LVL131:
 1400              	.LBB866:
 1401              	.LBB867:
 1402              		.loc 2 144 0
 1403 01a0 4820     		movs	r0, #72
 1404 01a2 2880     		strh	r0, [r5, #0]	@ movhi
 1405              	.LVL132:
 1406              	.LBE867:
 1407              	.LBE866:
 1408              		.loc 1 169 0
 1409 01a4 3046     		mov	r0, r6
 1410              	.LBB868:
 1411              	.LBB869:
 1412              		.loc 2 153 0
 1413 01a6 2780     		strh	r7, [r4, #0]	@ movhi
 1414              	.LBE869:
 1415              	.LBE868:
 1416              		.loc 1 169 0
 1417 01a8 FFF7FEFF 		bl	gfxSleepMicroseconds
 1418              	.LVL133:
 1419              	.LBB870:
 1420              	.LBB871:
 1421              		.loc 2 153 0
 1422 01ac 40F23F1B 		movw	fp, #319
 1423              	.LBE871:
ARM GAS  /tmp/ccVxBZiF.s 			page 26


 1424              	.LBE870:
 1425              	.LBB873:
 1426              	.LBB874:
 1427              		.loc 2 144 0
 1428 01b0 4923     		movs	r3, #73
 1429 01b2 2B80     		strh	r3, [r5, #0]	@ movhi
 1430              	.LVL134:
 1431              	.LBE874:
 1432              	.LBE873:
 1433              		.loc 1 170 0
 1434 01b4 3046     		mov	r0, r6
 1435              	.LBB875:
 1436              	.LBB872:
 1437              		.loc 2 153 0
 1438 01b6 A4F800B0 		strh	fp, [r4, #0]	@ movhi
 1439              	.LBE872:
 1440              	.LBE875:
 1441              		.loc 1 170 0
 1442 01ba FFF7FEFF 		bl	gfxSleepMicroseconds
 1443              	.LVL135:
 1444              	.LBB876:
 1445              	.LBB877:
 1446              		.loc 2 144 0
 1447 01be 4A21     		movs	r1, #74
 1448 01c0 2980     		strh	r1, [r5, #0]	@ movhi
 1449              	.LVL136:
 1450              	.LBE877:
 1451              	.LBE876:
 1452              		.loc 1 171 0
 1453 01c2 3046     		mov	r0, r6
 1454              	.LBB878:
 1455              	.LBB879:
 1456              		.loc 2 153 0
 1457 01c4 2780     		strh	r7, [r4, #0]	@ movhi
 1458              	.LBE879:
 1459              	.LBE878:
 1460              		.loc 1 171 0
 1461 01c6 FFF7FEFF 		bl	gfxSleepMicroseconds
 1462              	.LVL137:
 1463              	.LBB880:
 1464              	.LBB881:
 1465              		.loc 2 144 0
 1466 01ca 4B22     		movs	r2, #75
 1467 01cc 2A80     		strh	r2, [r5, #0]	@ movhi
 1468              	.LVL138:
 1469              	.LBE881:
 1470              	.LBE880:
 1471              		.loc 1 172 0
 1472 01ce 3046     		mov	r0, r6
 1473              	.LBB882:
 1474              	.LBB883:
 1475              		.loc 2 153 0
 1476 01d0 2780     		strh	r7, [r4, #0]	@ movhi
 1477              	.LBE883:
 1478              	.LBE882:
 1479              		.loc 1 172 0
 1480 01d2 FFF7FEFF 		bl	gfxSleepMicroseconds
ARM GAS  /tmp/ccVxBZiF.s 			page 27


 1481              	.LVL139:
 1482              	.LBB884:
 1483              	.LBB885:
 1484              		.loc 2 153 0
 1485 01d6 4FF46F43 		mov	r3, #61184
 1486              	.LBE885:
 1487              	.LBE884:
 1488              	.LBB887:
 1489              	.LBB888:
 1490              		.loc 2 144 0
 1491 01da 4420     		movs	r0, #68
 1492 01dc 2880     		strh	r0, [r5, #0]	@ movhi
 1493              	.LVL140:
 1494              	.LBE888:
 1495              	.LBE887:
 1496              	.LBB889:
 1497              	.LBB886:
 1498              		.loc 2 153 0
 1499 01de 2380     		strh	r3, [r4, #0]	@ movhi
 1500              	.LBE886:
 1501              	.LBE889:
 1502              		.loc 1 173 0
 1503 01e0 3046     		mov	r0, r6
 1504 01e2 FFF7FEFF 		bl	gfxSleepMicroseconds
 1505              	.LVL141:
 1506              	.LBB890:
 1507              	.LBB891:
 1508              		.loc 2 144 0
 1509 01e6 4521     		movs	r1, #69
 1510 01e8 2980     		strh	r1, [r5, #0]	@ movhi
 1511              	.LVL142:
 1512              	.LBE891:
 1513              	.LBE890:
 1514              		.loc 1 174 0
 1515 01ea 3046     		mov	r0, r6
 1516              	.LBB892:
 1517              	.LBB893:
 1518              		.loc 2 153 0
 1519 01ec 2780     		strh	r7, [r4, #0]	@ movhi
 1520              	.LBE893:
 1521              	.LBE892:
 1522              		.loc 1 174 0
 1523 01ee FFF7FEFF 		bl	gfxSleepMicroseconds
 1524              	.LVL143:
 1525              	.LBB894:
 1526              	.LBB895:
 1527              		.loc 2 144 0
 1528 01f2 4622     		movs	r2, #70
 1529 01f4 2A80     		strh	r2, [r5, #0]	@ movhi
 1530              	.LVL144:
 1531              	.LBE895:
 1532              	.LBE894:
 1533              		.loc 1 175 0
 1534 01f6 3046     		mov	r0, r6
 1535              	.LBB896:
 1536              	.LBB897:
 1537              		.loc 2 153 0
ARM GAS  /tmp/ccVxBZiF.s 			page 28


 1538 01f8 A4F800B0 		strh	fp, [r4, #0]	@ movhi
 1539              	.LBE897:
 1540              	.LBE896:
 1541              		.loc 1 175 0
 1542 01fc FFF7FEFF 		bl	gfxSleepMicroseconds
 1543              	.LVL145:
 1544              	.LBB898:
 1545              	.LBB899:
 1546              		.loc 2 153 0
 1547 0200 40F20773 		movw	r3, #1799
 1548              	.LBE899:
 1549              	.LBE898:
 1550              	.LBB901:
 1551              	.LBB902:
 1552              		.loc 2 144 0
 1553 0204 3020     		movs	r0, #48
 1554 0206 2880     		strh	r0, [r5, #0]	@ movhi
 1555              	.LVL146:
 1556              	.LBE902:
 1557              	.LBE901:
 1558              	.LBB903:
 1559              	.LBB900:
 1560              		.loc 2 153 0
 1561 0208 2380     		strh	r3, [r4, #0]	@ movhi
 1562              	.LBE900:
 1563              	.LBE903:
 1564              		.loc 1 176 0
 1565 020a 3046     		mov	r0, r6
 1566 020c FFF7FEFF 		bl	gfxSleepMicroseconds
 1567              	.LVL147:
 1568              	.LBB904:
 1569              	.LBB905:
 1570              		.loc 2 153 0
 1571 0210 4FF40178 		mov	r8, #516
 1572              	.LBE905:
 1573              	.LBE904:
 1574              	.LBB907:
 1575              	.LBB908:
 1576              		.loc 2 144 0
 1577 0214 3121     		movs	r1, #49
 1578 0216 2980     		strh	r1, [r5, #0]	@ movhi
 1579              	.LVL148:
 1580              	.LBE908:
 1581              	.LBE907:
 1582              		.loc 1 177 0
 1583 0218 3046     		mov	r0, r6
 1584              	.LBB909:
 1585              	.LBB906:
 1586              		.loc 2 153 0
 1587 021a A4F80080 		strh	r8, [r4, #0]	@ movhi
 1588              	.LBE906:
 1589              	.LBE909:
 1590              		.loc 1 177 0
 1591 021e FFF7FEFF 		bl	gfxSleepMicroseconds
 1592              	.LVL149:
 1593              	.LBB910:
 1594              	.LBB911:
ARM GAS  /tmp/ccVxBZiF.s 			page 29


 1595              		.loc 2 144 0
 1596 0222 3222     		movs	r2, #50
 1597 0224 2A80     		strh	r2, [r5, #0]	@ movhi
 1598              	.LVL150:
 1599              	.LBE911:
 1600              	.LBE910:
 1601              		.loc 1 178 0
 1602 0226 3046     		mov	r0, r6
 1603              	.LBB912:
 1604              	.LBB913:
 1605              		.loc 2 153 0
 1606 0228 A4F80080 		strh	r8, [r4, #0]	@ movhi
 1607              	.LBE913:
 1608              	.LBE912:
 1609              	.LBB914:
 1610              	.LBB915:
 1611 022c 40F2025B 		movw	fp, #1282
 1612              	.LBE915:
 1613              	.LBE914:
 1614              		.loc 1 178 0
 1615 0230 0192     		str	r2, [sp, #4]
 1616 0232 FFF7FEFF 		bl	gfxSleepMicroseconds
 1617              	.LVL151:
 1618              	.LBB917:
 1619              	.LBB918:
 1620              		.loc 2 144 0
 1621 0236 3320     		movs	r0, #51
 1622 0238 2880     		strh	r0, [r5, #0]	@ movhi
 1623              	.LVL152:
 1624              	.LBE918:
 1625              	.LBE917:
 1626              		.loc 1 179 0
 1627 023a 3046     		mov	r0, r6
 1628              	.LBB919:
 1629              	.LBB916:
 1630              		.loc 2 153 0
 1631 023c A4F800B0 		strh	fp, [r4, #0]	@ movhi
 1632              	.LBE916:
 1633              	.LBE919:
 1634              		.loc 1 179 0
 1635 0240 FFF7FEFF 		bl	gfxSleepMicroseconds
 1636              	.LVL153:
 1637              	.LBB920:
 1638              	.LBB921:
 1639              		.loc 2 144 0
 1640 0244 3423     		movs	r3, #52
 1641              	.LBE921:
 1642              	.LBE920:
 1643              	.LBB923:
 1644              	.LBB924:
 1645              		.loc 2 153 0
 1646 0246 40F20751 		movw	r1, #1287
 1647              	.LBE924:
 1648              	.LBE923:
 1649              	.LBB926:
 1650              	.LBB922:
 1651              		.loc 2 144 0
ARM GAS  /tmp/ccVxBZiF.s 			page 30


 1652 024a 2B80     		strh	r3, [r5, #0]	@ movhi
 1653              	.LVL154:
 1654              	.LBE922:
 1655              	.LBE926:
 1656              		.loc 1 180 0
 1657 024c 3046     		mov	r0, r6
 1658              	.LBB927:
 1659              	.LBB925:
 1660              		.loc 2 153 0
 1661 024e 2180     		strh	r1, [r4, #0]	@ movhi
 1662              	.LBE925:
 1663              	.LBE927:
 1664              		.loc 1 180 0
 1665 0250 FFF7FEFF 		bl	gfxSleepMicroseconds
 1666              	.LVL155:
 1667              	.LBB928:
 1668              	.LBB929:
 1669              		.loc 2 144 0
 1670 0254 3522     		movs	r2, #53
 1671 0256 2A80     		strh	r2, [r5, #0]	@ movhi
 1672              	.LVL156:
 1673              	.LBE929:
 1674              	.LBE928:
 1675              		.loc 1 181 0
 1676 0258 3046     		mov	r0, r6
 1677              	.LBB930:
 1678              	.LBB931:
 1679              		.loc 2 153 0
 1680 025a A4F80080 		strh	r8, [r4, #0]	@ movhi
 1681              	.LBE931:
 1682              	.LBE930:
 1683              		.loc 1 181 0
 1684 025e FFF7FEFF 		bl	gfxSleepMicroseconds
 1685              	.LVL157:
 1686              	.LBB932:
 1687              	.LBB933:
 1688              		.loc 2 144 0
 1689 0262 3620     		movs	r0, #54
 1690 0264 2880     		strh	r0, [r5, #0]	@ movhi
 1691              	.LVL158:
 1692              	.LBE933:
 1693              	.LBE932:
 1694              		.loc 1 182 0
 1695 0266 3046     		mov	r0, r6
 1696              	.LBB934:
 1697              	.LBB935:
 1698              		.loc 2 153 0
 1699 0268 A4F80080 		strh	r8, [r4, #0]	@ movhi
 1700              	.LBE935:
 1701              	.LBE934:
 1702              		.loc 1 182 0
 1703 026c FFF7FEFF 		bl	gfxSleepMicroseconds
 1704              	.LVL159:
 1705              	.LBB936:
 1706              	.LBB937:
 1707              		.loc 2 144 0
 1708 0270 3723     		movs	r3, #55
ARM GAS  /tmp/ccVxBZiF.s 			page 31


 1709 0272 2B80     		strh	r3, [r5, #0]	@ movhi
 1710              	.LVL160:
 1711              	.LBE937:
 1712              	.LBE936:
 1713              		.loc 1 183 0
 1714 0274 3046     		mov	r0, r6
 1715              	.LBB938:
 1716              	.LBB939:
 1717              		.loc 2 153 0
 1718 0276 A4F800B0 		strh	fp, [r4, #0]	@ movhi
 1719              	.LBE939:
 1720              	.LBE938:
 1721              		.loc 1 183 0
 1722 027a FFF7FEFF 		bl	gfxSleepMicroseconds
 1723              	.LVL161:
 1724              	.LBB940:
 1725              	.LBB941:
 1726              		.loc 2 153 0
 1727 027e 08F1FE08 		add	r8, r8, #254
 1728              	.LBE941:
 1729              	.LBE940:
 1730              	.LBB943:
 1731              	.LBB944:
 1732              		.loc 2 144 0
 1733 0282 3A21     		movs	r1, #58
 1734 0284 2980     		strh	r1, [r5, #0]	@ movhi
 1735              	.LVL162:
 1736              	.LBE944:
 1737              	.LBE943:
 1738              		.loc 1 184 0
 1739 0286 3046     		mov	r0, r6
 1740              	.LBB945:
 1741              	.LBB942:
 1742              		.loc 2 153 0
 1743 0288 A4F80080 		strh	r8, [r4, #0]	@ movhi
 1744              	.LBE942:
 1745              	.LBE945:
 1746              		.loc 1 184 0
 1747 028c FFF7FEFF 		bl	gfxSleepMicroseconds
 1748              	.LVL163:
 1749              	.LBB946:
 1750              	.LBB947:
 1751              		.loc 2 144 0
 1752 0290 3B22     		movs	r2, #59
 1753 0292 2A80     		strh	r2, [r5, #0]	@ movhi
 1754              	.LVL164:
 1755              	.LBE947:
 1756              	.LBE946:
 1757              		.loc 1 185 0
 1758 0294 3046     		mov	r0, r6
 1759              	.LBB948:
 1760              	.LBB949:
 1761              		.loc 2 153 0
 1762 0296 A4F80080 		strh	r8, [r4, #0]	@ movhi
 1763              	.LBE949:
 1764              	.LBE948:
 1765              		.loc 1 185 0
ARM GAS  /tmp/ccVxBZiF.s 			page 32


 1766 029a FFF7FEFF 		bl	gfxSleepMicroseconds
 1767              	.LVL165:
 1768              	.LBB950:
 1769              	.LBB951:
 1770              		.loc 2 144 0
 1771 029e 2320     		movs	r0, #35
 1772 02a0 2880     		strh	r0, [r5, #0]	@ movhi
 1773              	.LVL166:
 1774              	.LBE951:
 1775              	.LBE950:
 1776              		.loc 1 186 0
 1777 02a2 3046     		mov	r0, r6
 1778              	.LBB952:
 1779              	.LBB953:
 1780              		.loc 2 153 0
 1781 02a4 2780     		strh	r7, [r4, #0]	@ movhi
 1782              	.LBE953:
 1783              	.LBE952:
 1784              		.loc 1 186 0
 1785 02a6 FFF7FEFF 		bl	gfxSleepMicroseconds
 1786              	.LVL167:
 1787              	.LBB954:
 1788              	.LBB955:
 1789              		.loc 2 144 0
 1790 02aa 2423     		movs	r3, #36
 1791 02ac 2B80     		strh	r3, [r5, #0]	@ movhi
 1792              	.LVL168:
 1793              	.LBE955:
 1794              	.LBE954:
 1795              		.loc 1 187 0
 1796 02ae 3046     		mov	r0, r6
 1797              	.LBB956:
 1798              	.LBB957:
 1799              		.loc 2 153 0
 1800 02b0 2780     		strh	r7, [r4, #0]	@ movhi
 1801              	.LBE957:
 1802              	.LBE956:
 1803              		.loc 1 187 0
 1804 02b2 FFF7FEFF 		bl	gfxSleepMicroseconds
 1805              	.LVL169:
 1806              	.LBB958:
 1807              	.LBB959:
 1808              		.loc 2 144 0
 1809 02b6 2521     		movs	r1, #37
 1810              	.LBE959:
 1811              	.LBE958:
 1812              	.LBB961:
 1813              	.LBB962:
 1814              		.loc 2 153 0
 1815 02b8 4FF40042 		mov	r2, #32768
 1816              	.LBE962:
 1817              	.LBE961:
 1818              	.LBB964:
 1819              	.LBB960:
 1820              		.loc 2 144 0
 1821 02bc 2980     		strh	r1, [r5, #0]	@ movhi
 1822              	.LVL170:
ARM GAS  /tmp/ccVxBZiF.s 			page 33


 1823              	.LBE960:
 1824              	.LBE964:
 1825              		.loc 1 188 0
 1826 02be 3046     		mov	r0, r6
 1827              	.LBB965:
 1828              	.LBB963:
 1829              		.loc 2 153 0
 1830 02c0 2280     		strh	r2, [r4, #0]	@ movhi
 1831              	.LBE963:
 1832              	.LBE965:
 1833              		.loc 1 188 0
 1834 02c2 FFF7FEFF 		bl	gfxSleepMicroseconds
 1835              	.LVL171:
 1836              	.LBB966:
 1837              	.LBB967:
 1838              		.loc 2 144 0
 1839 02c6 4F20     		movs	r0, #79
 1840 02c8 2880     		strh	r0, [r5, #0]	@ movhi
 1841              	.LVL172:
 1842              	.LBE967:
 1843              	.LBE966:
 1844              		.loc 1 189 0
 1845 02ca 3046     		mov	r0, r6
 1846              	.LBB968:
 1847              	.LBB969:
 1848              		.loc 2 153 0
 1849 02cc 2780     		strh	r7, [r4, #0]	@ movhi
 1850              	.LBE969:
 1851              	.LBE968:
 1852              		.loc 1 189 0
 1853 02ce FFF7FEFF 		bl	gfxSleepMicroseconds
 1854              	.LVL173:
 1855              	.LBB970:
 1856              	.LBB971:
 1857              		.loc 2 144 0
 1858 02d2 4E23     		movs	r3, #78
 1859 02d4 2B80     		strh	r3, [r5, #0]	@ movhi
 1860              	.LVL174:
 1861              	.LBE971:
 1862              	.LBE970:
 1863              		.loc 1 190 0
 1864 02d6 3046     		mov	r0, r6
 1865              	.LBB972:
 1866              	.LBB973:
 1867              		.loc 2 153 0
 1868 02d8 2780     		strh	r7, [r4, #0]	@ movhi
 1869              	.LBE973:
 1870              	.LBE972:
 1871              		.loc 1 190 0
 1872 02da FFF7FEFF 		bl	gfxSleepMicroseconds
 1873              	.LVL175:
 1874              		.loc 1 199 0
 1875 02de 40F20003 		movw	r3, #:lower16:.LANCHOR0
 1876 02e2 C0F20003 		movt	r3, #:upper16:.LANCHOR0
 1877              		.loc 1 203 0
 1878 02e6 6424     		movs	r4, #100
 1879 02e8 9C71     		strb	r4, [r3, #6]
ARM GAS  /tmp/ccVxBZiF.s 			page 34


 1880              		.loc 1 204 0
 1881 02ea 0199     		ldr	r1, [sp, #4]
 1882              		.loc 1 201 0
 1883 02ec 1F71     		strb	r7, [r3, #4]
 1884              		.loc 1 199 0
 1885 02ee F020     		movs	r0, #240
 1886              		.loc 1 200 0
 1887 02f0 4FF4A072 		mov	r2, #320
 1888              		.loc 1 199 0
 1889 02f4 1880     		strh	r0, [r3, #0]	@ movhi
 1890              		.loc 1 208 0
 1891 02f6 9881     		strh	r0, [r3, #12]	@ movhi
 1892              		.loc 1 200 0
 1893 02f8 5A80     		strh	r2, [r3, #2]	@ movhi
 1894              		.loc 1 202 0
 1895 02fa 83F805A0 		strb	sl, [r3, #5]
 1896              		.loc 1 204 0
 1897 02fe D971     		strb	r1, [r3, #7]
 1898              		.loc 1 206 0
 1899 0300 1F81     		strh	r7, [r3, #8]	@ movhi
 1900              		.loc 1 207 0
 1901 0302 5F81     		strh	r7, [r3, #10]	@ movhi
 1902              		.loc 1 209 0
 1903 0304 DA81     		strh	r2, [r3, #14]	@ movhi
 1904              		.loc 1 212 0
 1905 0306 4846     		mov	r0, r9
 1906 0308 09B0     		add	sp, sp, #36
 1907 030a BDE8F08F 		pop	{r4, r5, r6, r7, r8, r9, sl, fp, pc}
 1908              		.cfi_endproc
 1909              	.LFE135:
 1910              		.size	gdisp_lld_init, .-gdisp_lld_init
 1911 030e 00BF     		.section	.text.gdisp_lld_draw_pixel,"ax",%progbits
 1912              		.align	2
 1913              		.p2align 4,,15
 1914              		.global	gdisp_lld_draw_pixel
 1915              		.thumb
 1916              		.thumb_func
 1917              		.type	gdisp_lld_draw_pixel, %function
 1918              	gdisp_lld_draw_pixel:
 1919              	.LFB136:
 1920              		.loc 1 223 0
 1921              		.cfi_startproc
 1922              		@ args = 0, pretend = 0, frame = 0
 1923              		@ frame_needed = 0, uses_anonymous_args = 0
 1924              		@ link register save eliminated.
 1925              	.LVL176:
 1926              		.loc 1 225 0
 1927 0000 2B4B     		ldr	r3, .L41
 1928              		.loc 1 223 0
 1929 0002 30B4     		push	{r4, r5}
 1930              	.LCFI4:
 1931              		.cfi_def_cfa_offset 8
 1932              		.cfi_offset 4, -8
 1933              		.cfi_offset 5, -4
 1934              		.loc 1 225 0
 1935 0004 B3F90840 		ldrsh	r4, [r3, #8]
 1936 0008 8442     		cmp	r4, r0
ARM GAS  /tmp/ccVxBZiF.s 			page 35


 1937 000a 0BDC     		bgt	.L30
 1938              		.loc 1 225 0 is_stmt 0 discriminator 2
 1939 000c B3F90A40 		ldrsh	r4, [r3, #10]
 1940 0010 8C42     		cmp	r4, r1
 1941 0012 07DC     		bgt	.L30
 1942              		.loc 1 225 0 discriminator 1
 1943 0014 B3F90C40 		ldrsh	r4, [r3, #12]
 1944 0018 8442     		cmp	r4, r0
 1945 001a 03DD     		ble	.L30
 1946              	.LVL177:
 1947              	.LBB1040:
 1948              	.LBB1041:
 1949              		.loc 1 225 0
 1950 001c B3F90E40 		ldrsh	r4, [r3, #14]
 1951 0020 8C42     		cmp	r4, r1
 1952 0022 01DC     		bgt	.L40
 1953              	.LVL178:
 1954              	.L30:
 1955              	.LBE1041:
 1956              	.LBE1040:
 1957              		.loc 1 232 0 is_stmt 1
 1958 0024 30BC     		pop	{r4, r5}
 1959 0026 7047     		bx	lr
 1960              	.LVL179:
 1961              	.L40:
 1962              	.LBB1095:
 1963              	.LBB1094:
 1964              	.LBB1042:
 1965              	.LBB1043:
 1966              		.loc 1 55 0
 1967 0028 1B79     		ldrb	r3, [r3, #4]	@ zero_extendqisi2
 1968 002a 032B     		cmp	r3, #3
 1969 002c 16D8     		bhi	.L32
 1970 002e DFE803F0 		tbb	[pc, r3]
 1971              	.L37:
 1972 0032 38       		.byte	(.L33-.L37)/2
 1973 0033 2D       		.byte	(.L34-.L37)/2
 1974 0034 02       		.byte	(.L35-.L37)/2
 1975 0035 1E       		.byte	(.L36-.L37)/2
 1976              		.align	1
 1977              	.L35:
 1978              	.LVL180:
 1979              		.loc 1 58 0
 1980 0036 C1F59F71 		rsb	r1, r1, #318
 1981              	.LVL181:
 1982              	.LBB1044:
 1983              	.LBB1045:
 1984              		.loc 2 153 0
 1985 003a 0023     		movs	r3, #0
 1986              	.LBE1045:
 1987              	.LBE1044:
 1988              		.loc 1 58 0
 1989 003c 0131     		adds	r1, r1, #1
 1990              	.LBB1047:
 1991              	.LBB1048:
 1992              		.loc 2 144 0
 1993 003e 4FF0C044 		mov	r4, #1610612736
ARM GAS  /tmp/ccVxBZiF.s 			page 36


 1994              	.LBE1048:
 1995              	.LBE1047:
 1996              	.LBB1049:
 1997              	.LBB1046:
 1998              		.loc 2 153 0
 1999 0042 C6F20203 		movt	r3, 24578
 2000              	.LBE1046:
 2001              	.LBE1049:
 2002              		.loc 1 57 0
 2003 0046 C0F1EF00 		rsb	r0, r0, #239
 2004              	.LVL182:
 2005              	.L38:
 2006              		.loc 1 62 0
 2007 004a CD05     		lsls	r5, r1, #23
 2008              		.loc 1 61 0
 2009 004c C0B2     		uxtb	r0, r0
 2010              	.LVL183:
 2011              		.loc 1 62 0
 2012 004e E90D     		lsrs	r1, r5, #23
 2013              	.LBB1050:
 2014              	.LBB1051:
 2015              		.loc 2 144 0
 2016 0050 4E25     		movs	r5, #78
 2017 0052 2580     		strh	r5, [r4, #0]	@ movhi
 2018              	.LBE1051:
 2019              	.LBE1050:
 2020              	.LBB1053:
 2021              	.LBB1054:
 2022              		.loc 2 153 0
 2023 0054 1880     		strh	r0, [r3, #0]	@ movhi
 2024              	.LVL184:
 2025              	.LBE1054:
 2026              	.LBE1053:
 2027              	.LBB1057:
 2028              	.LBB1058:
 2029              		.loc 2 144 0
 2030 0056 4F20     		movs	r0, #79
 2031              	.LVL185:
 2032 0058 2080     		strh	r0, [r4, #0]	@ movhi
 2033              	.LBE1058:
 2034              	.LBE1057:
 2035              	.LBB1059:
 2036              	.LBB1060:
 2037              		.loc 2 153 0
 2038 005a 1980     		strh	r1, [r3, #0]	@ movhi
 2039              	.LVL186:
 2040              	.L32:
 2041              	.LBE1060:
 2042              	.LBE1059:
 2043              	.LBE1043:
 2044              	.LBE1042:
 2045              	.LBB1087:
 2046              	.LBB1088:
 2047 005c 0023     		movs	r3, #0
 2048 005e C6F20203 		movt	r3, 24578
 2049              	.LBE1088:
 2050              	.LBE1087:
ARM GAS  /tmp/ccVxBZiF.s 			page 37


 2051              	.LBB1090:
 2052              	.LBB1091:
 2053              		.loc 2 144 0
 2054 0062 4FF0C041 		mov	r1, #1610612736
 2055 0066 2220     		movs	r0, #34
 2056 0068 0880     		strh	r0, [r1, #0]	@ movhi
 2057              	.LVL187:
 2058              	.LBE1091:
 2059              	.LBE1090:
 2060              	.LBB1092:
 2061              	.LBB1089:
 2062              		.loc 2 153 0
 2063 006a 1A80     		strh	r2, [r3, #0]	@ movhi
 2064 006c DAE7     		b	.L30
 2065              	.LVL188:
 2066              	.L36:
 2067              	.LBE1089:
 2068              	.LBE1092:
 2069              	.LBB1093:
 2070              	.LBB1086:
 2071              	.LBB1061:
 2072              	.LBB1062:
 2073 006e 0023     		movs	r3, #0
 2074              	.LBE1062:
 2075              	.LBE1061:
 2076              	.LBB1064:
 2077              	.LBB1065:
 2078              		.loc 2 144 0
 2079 0070 4FF0C044 		mov	r4, #1610612736
 2080              	.LBE1065:
 2081              	.LBE1064:
 2082              	.LBB1066:
 2083              	.LBB1063:
 2084              		.loc 2 153 0
 2085 0074 C6F20203 		movt	r3, 24578
 2086              	.LVL189:
 2087              	.L39:
 2088              	.LBE1063:
 2089              	.LBE1066:
 2090              	.LBB1067:
 2091              	.LBB1068:
 2092              		.loc 1 70 0
 2093 0078 C505     		lsls	r5, r0, #23
 2094              		.loc 1 69 0
 2095 007a C9B2     		uxtb	r1, r1
 2096              	.LVL190:
 2097              		.loc 1 70 0
 2098 007c E80D     		lsrs	r0, r5, #23
 2099              	.LBB1069:
 2100              	.LBB1070:
 2101              		.loc 2 144 0
 2102 007e 4E25     		movs	r5, #78
 2103 0080 2580     		strh	r5, [r4, #0]	@ movhi
 2104              	.LBE1070:
 2105              	.LBE1069:
 2106              	.LBB1072:
 2107              	.LBB1073:
ARM GAS  /tmp/ccVxBZiF.s 			page 38


 2108              		.loc 2 153 0
 2109 0082 1980     		strh	r1, [r3, #0]	@ movhi
 2110              	.LVL191:
 2111              	.LBE1073:
 2112              	.LBE1072:
 2113              	.LBB1076:
 2114              	.LBB1077:
 2115              		.loc 2 144 0
 2116 0084 4F21     		movs	r1, #79
 2117              	.LVL192:
 2118 0086 2180     		strh	r1, [r4, #0]	@ movhi
 2119              	.LBE1077:
 2120              	.LBE1076:
 2121              	.LBB1078:
 2122              	.LBB1079:
 2123              		.loc 2 153 0
 2124 0088 1880     		strh	r0, [r3, #0]	@ movhi
 2125 008a E7E7     		b	.L32
 2126              	.LVL193:
 2127              	.L34:
 2128              	.LBE1079:
 2129              	.LBE1078:
 2130              		.loc 1 70 0
 2131 008c C0F59F70 		rsb	r0, r0, #318
 2132              	.LVL194:
 2133              	.LBB1080:
 2134              	.LBB1074:
 2135              		.loc 2 153 0
 2136 0090 0023     		movs	r3, #0
 2137              	.LBE1074:
 2138              	.LBE1080:
 2139              		.loc 1 70 0
 2140 0092 0130     		adds	r0, r0, #1
 2141              	.LBB1081:
 2142              	.LBB1071:
 2143              		.loc 2 144 0
 2144 0094 4FF0C044 		mov	r4, #1610612736
 2145              	.LBE1071:
 2146              	.LBE1081:
 2147              	.LBB1082:
 2148              	.LBB1075:
 2149              		.loc 2 153 0
 2150 0098 C6F20203 		movt	r3, 24578
 2151              	.LBE1075:
 2152              	.LBE1082:
 2153              		.loc 1 69 0
 2154 009c C1F1EF01 		rsb	r1, r1, #239
 2155              	.LVL195:
 2156 00a0 EAE7     		b	.L39
 2157              	.LVL196:
 2158              	.L33:
 2159              	.LBE1068:
 2160              	.LBE1067:
 2161              	.LBB1083:
 2162              	.LBB1055:
 2163              		.loc 2 153 0
 2164 00a2 0023     		movs	r3, #0
ARM GAS  /tmp/ccVxBZiF.s 			page 39


 2165              	.LBE1055:
 2166              	.LBE1083:
 2167              	.LBB1084:
 2168              	.LBB1052:
 2169              		.loc 2 144 0
 2170 00a4 4FF0C044 		mov	r4, #1610612736
 2171              	.LBE1052:
 2172              	.LBE1084:
 2173              	.LBB1085:
 2174              	.LBB1056:
 2175              		.loc 2 153 0
 2176 00a8 C6F20203 		movt	r3, 24578
 2177 00ac CDE7     		b	.L38
 2178              	.L42:
 2179 00ae 00BF     		.align	2
 2180              	.L41:
 2181 00b0 00000000 		.word	.LANCHOR0
 2182              	.LBE1056:
 2183              	.LBE1085:
 2184              	.LBE1086:
 2185              	.LBE1093:
 2186              	.LBE1094:
 2187              	.LBE1095:
 2188              		.cfi_endproc
 2189              	.LFE136:
 2190              		.size	gdisp_lld_draw_pixel, .-gdisp_lld_draw_pixel
 2191 00b4 AFF30080 		.section	.text.gdisp_lld_draw_char,"ax",%progbits
 2191      AFF30080 
 2191      AFF30080 
 2192              		.align	2
 2193              		.p2align 4,,15
 2194              		.global	gdisp_lld_draw_char
 2195              		.thumb
 2196              		.thumb_func
 2197              		.type	gdisp_lld_draw_char, %function
 2198              	gdisp_lld_draw_char:
 2199              	.LFB122:
 2200              		.loc 3 469 0
 2201              		.cfi_startproc
 2202              		@ args = 4, pretend = 0, frame = 48
 2203              		@ frame_needed = 0, uses_anonymous_args = 0
 2204              	.LVL197:
 2205 0000 2DE9F04F 		push	{r4, r5, r6, r7, r8, r9, sl, fp, lr}
 2206              	.LCFI5:
 2207              		.cfi_def_cfa_offset 36
 2208              		.cfi_offset 4, -36
 2209              		.cfi_offset 5, -32
 2210              		.cfi_offset 6, -28
 2211              		.cfi_offset 7, -24
 2212              		.cfi_offset 8, -20
 2213              		.cfi_offset 9, -16
 2214              		.cfi_offset 10, -12
 2215              		.cfi_offset 11, -8
 2216              		.cfi_offset 14, -4
 2217              		.loc 3 476 0
 2218 0004 9C7A     		ldrb	r4, [r3, #10]	@ zero_extendqisi2
 2219              		.loc 3 469 0
ARM GAS  /tmp/ccVxBZiF.s 			page 40


 2220 0006 8DB0     		sub	sp, sp, #52
 2221              	.LCFI6:
 2222              		.cfi_def_cfa_offset 88
 2223              		.loc 3 476 0
 2224 0008 9442     		cmp	r4, r2
 2225              		.loc 3 469 0
 2226 000a BDF85860 		ldrh	r6, [sp, #88]
 2227 000e 0591     		str	r1, [sp, #20]
 2228              		.loc 3 476 0
 2229 0010 00F2A380 		bhi	.L43
 2230              		.loc 3 476 0 is_stmt 0 discriminator 1
 2231 0014 D97A     		ldrb	r1, [r3, #11]	@ zero_extendqisi2
 2232              	.LVL198:
 2233 0016 9142     		cmp	r1, r2
 2234 0018 C0F09F80 		bcc	.L43
 2235 001c 121B     		subs	r2, r2, r4
 2236              	.LVL199:
 2237 001e 1969     		ldr	r1, [r3, #16]
 2238 0020 895C     		ldrb	r1, [r1, r2]	@ zero_extendqisi2
 2239              	.LVL200:
 2240              		.loc 3 477 0 is_stmt 1 discriminator 1
 2241 0022 0029     		cmp	r1, #0
 2242 0024 00F09980 		beq	.L43
 2243              		.loc 3 479 0
 2244 0028 1C7B     		ldrb	r4, [r3, #12]	@ zero_extendqisi2
 2245              		.loc 3 480 0
 2246 002a 5F7B     		ldrb	r7, [r3, #13]	@ zero_extendqisi2
 2247              		.loc 3 484 0
 2248 002c 5D69     		ldr	r5, [r3, #20]
 2249              		.loc 3 479 0
 2250 002e 0494     		str	r4, [sp, #16]
 2251              	.LVL201:
 2252              		.loc 3 480 0
 2253 0030 0097     		str	r7, [sp, #0]
 2254              	.LVL202:
 2255              		.loc 3 484 0
 2256 0032 35F81240 		ldrh	r4, [r5, r2, lsl #1]
 2257              		.loc 3 481 0
 2258 0036 1F79     		ldrb	r7, [r3, #4]	@ zero_extendqisi2
 2259              		.loc 3 484 0
 2260 0038 9A69     		ldr	r2, [r3, #24]
 2261              		.loc 3 482 0
 2262 003a 049B     		ldr	r3, [sp, #16]
 2263              	.LVL203:
 2264 003c 03FB01F1 		mul	r1, r3, r1
 2265              	.LVL204:
 2266              		.loc 3 487 0
 2267 0040 09B2     		sxth	r1, r1
 2268              		.loc 3 481 0
 2269 0042 009B     		ldr	r3, [sp, #0]
 2270              		.loc 3 487 0
 2271 0044 0B91     		str	r1, [sp, #44]
 2272              		.loc 3 484 0
 2273 0046 02EB4402 		add	r2, r2, r4, lsl #1
 2274              		.loc 3 487 0
 2275 004a 0029     		cmp	r1, #0
 2276              		.loc 3 481 0
ARM GAS  /tmp/ccVxBZiF.s 			page 41


 2277 004c 07FB03F3 		mul	r3, r7, r3
 2278              	.LVL205:
 2279              		.loc 3 484 0
 2280 0050 0892     		str	r2, [sp, #32]
 2281              	.LVL206:
 2282              		.loc 3 487 0
 2283 0052 40F38280 		ble	.L43
 2284 0056 049C     		ldr	r4, [sp, #16]
 2285              		.loc 3 469 0
 2286 0058 80B2     		uxth	r0, r0
 2287 005a 2118     		adds	r1, r4, r0
 2288 005c 009C     		ldr	r4, [sp, #0]
 2289 005e 0A90     		str	r0, [sp, #40]
 2290 0060 8AB2     		uxth	r2, r1
 2291              	.LVL207:
 2292 0062 0020     		movs	r0, #0
 2293              	.LVL208:
 2294 0064 1BB2     		sxth	r3, r3
 2295              	.LVL209:
 2296 0066 0992     		str	r2, [sp, #36]
 2297 0068 9146     		mov	r9, r2
 2298 006a 0790     		str	r0, [sp, #28]
 2299 006c 0393     		str	r3, [sp, #12]
 2300 006e 0FFA84FB 		sxth	fp, r4
 2301              	.LVL210:
 2302              	.L52:
 2303              		.loc 3 489 0
 2304 0072 0899     		ldr	r1, [sp, #32]
 2305              		.loc 3 492 0
 2306 0074 0398     		ldr	r0, [sp, #12]
 2307              		.loc 3 489 0
 2308 0076 31F8022B 		ldrh	r2, [r1], #2
 2309              		.loc 3 492 0
 2310 007a 0028     		cmp	r0, #0
 2311              		.loc 3 489 0
 2312 007c 0891     		str	r1, [sp, #32]
 2313 007e 0192     		str	r2, [sp, #4]
 2314              	.LVL211:
 2315              		.loc 3 492 0
 2316 0080 5BDD     		ble	.L46
 2317              		.loc 3 469 0
 2318 0082 0A9B     		ldr	r3, [sp, #40]
 2319 0084 079C     		ldr	r4, [sp, #28]
 2320 0086 1919     		adds	r1, r3, r4
 2321              	.LVL212:
 2322              		.loc 3 492 0
 2323 0088 0022     		movs	r2, #0
 2324              		.loc 3 469 0
 2325 008a 88B2     		uxth	r0, r1
 2326              		.loc 3 492 0
 2327 008c 0292     		str	r2, [sp, #8]
 2328              		.loc 3 469 0
 2329 008e 0690     		str	r0, [sp, #24]
 2330              	.LVL213:
 2331              	.L51:
 2332              		.loc 3 493 0
 2333 0090 019B     		ldr	r3, [sp, #4]
ARM GAS  /tmp/ccVxBZiF.s 			page 42


 2334 0092 DB07     		lsls	r3, r3, #31
 2335 0094 44D5     		bpl	.L47
 2336              	.LVL214:
 2337              		.loc 3 494 0 discriminator 1
 2338 0096 049C     		ldr	r4, [sp, #16]
 2339 0098 002C     		cmp	r4, #0
 2340 009a 41D0     		beq	.L47
 2341              		.loc 3 469 0
 2342 009c 029D     		ldr	r5, [sp, #8]
 2343 009e 059F     		ldr	r7, [sp, #20]
 2344 00a0 E919     		adds	r1, r5, r7
 2345 00a2 069F     		ldr	r7, [sp, #24]
 2346 00a4 8DB2     		uxth	r5, r1
 2347              	.LVL215:
 2348              	.L48:
 2349              		.loc 3 495 0 discriminator 1
 2350 00a6 009A     		ldr	r2, [sp, #0]
 2351 00a8 002A     		cmp	r2, #0
 2352 00aa 35D0     		beq	.L50
 2353 00ac 3CB2     		sxth	r4, r7
 2354              		.loc 3 495 0 is_stmt 0
 2355 00ae 4FF0010A 		mov	sl, #1
 2356              		.loc 3 496 0 is_stmt 1
 2357 00b2 2046     		mov	r0, r4
 2358 00b4 29B2     		sxth	r1, r5
 2359 00b6 3246     		mov	r2, r6
 2360 00b8 0BF1FF38 		add	r8, fp, #-1
 2361 00bc FFF7FEFF 		bl	gdisp_lld_draw_pixel
 2362              	.LVL216:
 2363              		.loc 3 495 0
 2364 00c0 D345     		cmp	fp, sl
 2365 00c2 08EA0A08 		and	r8, r8, sl
 2366 00c6 27DD     		ble	.L50
 2367 00c8 B8F1000F 		cmp	r8, #0
 2368 00cc 0AD0     		beq	.L49
 2369              		.loc 3 469 0
 2370 00ce 05EB0A03 		add	r3, r5, sl
 2371              		.loc 3 496 0
 2372 00d2 2046     		mov	r0, r4
 2373 00d4 19B2     		sxth	r1, r3
 2374 00d6 3246     		mov	r2, r6
 2375              		.loc 3 495 0
 2376 00d8 4FF0020A 		mov	sl, #2
 2377              	.LVL217:
 2378              		.loc 3 496 0
 2379 00dc FFF7FEFF 		bl	gdisp_lld_draw_pixel
 2380              	.LVL218:
 2381              		.loc 3 495 0
 2382 00e0 D345     		cmp	fp, sl
 2383 00e2 19DD     		ble	.L50
 2384              	.LVL219:
 2385              	.L49:
 2386              		.loc 3 469 0 discriminator 2
 2387 00e4 05EB0A01 		add	r1, r5, sl
 2388              		.loc 3 495 0 discriminator 2
 2389 00e8 0AF1010A 		add	sl, sl, #1
 2390 00ec 1FFA8AFA 		uxth	sl, sl
ARM GAS  /tmp/ccVxBZiF.s 			page 43


 2391              		.loc 3 496 0 discriminator 2
 2392 00f0 2046     		mov	r0, r4
 2393 00f2 09B2     		sxth	r1, r1
 2394 00f4 3246     		mov	r2, r6
 2395 00f6 FFF7FEFF 		bl	gdisp_lld_draw_pixel
 2396              	.LVL220:
 2397              		.loc 3 469 0 discriminator 2
 2398 00fa 05EB0A02 		add	r2, r5, sl
 2399              		.loc 3 496 0 discriminator 2
 2400 00fe 2046     		mov	r0, r4
 2401 0100 11B2     		sxth	r1, r2
 2402 0102 3246     		mov	r2, r6
 2403 0104 FFF7FEFF 		bl	gdisp_lld_draw_pixel
 2404              	.LVL221:
 2405              		.loc 3 495 0 discriminator 2
 2406 0108 0AF10100 		add	r0, sl, #1
 2407 010c 1FFA80FA 		uxth	sl, r0
 2408              	.LVL222:
 2409 0110 0FFA8AF3 		sxth	r3, sl
 2410 0114 9B45     		cmp	fp, r3
 2411 0116 E5DC     		bgt	.L49
 2412              	.LVL223:
 2413              	.L50:
 2414 0118 0137     		adds	r7, r7, #1
 2415 011a BFB2     		uxth	r7, r7
 2416              		.loc 3 494 0
 2417 011c 4F45     		cmp	r7, r9
 2418 011e C2D1     		bne	.L48
 2419              	.L47:
 2420              		.loc 3 469 0
 2421 0120 0299     		ldr	r1, [sp, #8]
 2422 0122 009C     		ldr	r4, [sp, #0]
 2423 0124 6218     		adds	r2, r4, r1
 2424 0126 90B2     		uxth	r0, r2
 2425              		.loc 3 492 0
 2426 0128 01B2     		sxth	r1, r0
 2427              		.loc 3 469 0
 2428 012a 83B2     		uxth	r3, r0
 2429              		.loc 3 492 0
 2430 012c 019C     		ldr	r4, [sp, #4]
 2431 012e 0398     		ldr	r0, [sp, #12]
 2432              		.loc 3 469 0
 2433 0130 0293     		str	r3, [sp, #8]
 2434              	.LVL224:
 2435              		.loc 3 492 0
 2436 0132 6208     		lsrs	r2, r4, #1
 2437 0134 8842     		cmp	r0, r1
 2438 0136 0192     		str	r2, [sp, #4]
 2439 0138 AADC     		bgt	.L51
 2440              	.LVL225:
 2441              	.L46:
 2442 013a 0499     		ldr	r1, [sp, #16]
 2443              		.loc 3 469 0
 2444 013c 099B     		ldr	r3, [sp, #36]
 2445 013e 049C     		ldr	r4, [sp, #16]
 2446 0140 079A     		ldr	r2, [sp, #28]
 2447 0142 8944     		add	r9, r9, r1
ARM GAS  /tmp/ccVxBZiF.s 			page 44


 2448 0144 1FFA89F9 		uxth	r9, r9
 2449 0148 C3EB0901 		rsb	r1, r3, r9
 2450 014c A018     		adds	r0, r4, r2
 2451              		.loc 3 487 0
 2452 014e 0B9C     		ldr	r4, [sp, #44]
 2453 0150 0BB2     		sxth	r3, r1
 2454 0152 9C42     		cmp	r4, r3
 2455              		.loc 3 469 0
 2456 0154 81B2     		uxth	r1, r0
 2457 0156 0791     		str	r1, [sp, #28]
 2458              	.LVL226:
 2459              		.loc 3 487 0
 2460 0158 8BDC     		bgt	.L52
 2461              	.LVL227:
 2462              	.L43:
 2463              		.loc 3 500 0
 2464 015a 0DB0     		add	sp, sp, #52
 2465 015c BDE8F08F 		pop	{r4, r5, r6, r7, r8, r9, sl, fp, pc}
 2466              		.cfi_endproc
 2467              	.LFE122:
 2468              		.size	gdisp_lld_draw_char, .-gdisp_lld_draw_char
 2469              		.section	.text.gdisp_lld_draw_circle,"ax",%progbits
 2470              		.align	2
 2471              		.p2align 4,,15
 2472              		.global	gdisp_lld_draw_circle
 2473              		.thumb
 2474              		.thumb_func
 2475              		.type	gdisp_lld_draw_circle, %function
 2476              	gdisp_lld_draw_circle:
 2477              	.LFB120:
 2478              		.loc 3 170 0
 2479              		.cfi_startproc
 2480              		@ args = 0, pretend = 0, frame = 24
 2481              		@ frame_needed = 0, uses_anonymous_args = 0
 2482              	.LVL228:
 2483 0000 2DE9F04F 		push	{r4, r5, r6, r7, r8, r9, sl, fp, lr}
 2484              	.LCFI7:
 2485              		.cfi_def_cfa_offset 36
 2486              		.cfi_offset 4, -36
 2487              		.cfi_offset 5, -32
 2488              		.cfi_offset 6, -28
 2489              		.cfi_offset 7, -24
 2490              		.cfi_offset 8, -20
 2491              		.cfi_offset 9, -16
 2492              		.cfi_offset 10, -12
 2493              		.cfi_offset 11, -8
 2494              		.cfi_offset 14, -4
 2495              		.loc 3 175 0
 2496 0004 C2F10105 		rsb	r5, r2, #1
 2497              		.loc 3 170 0
 2498 0008 87B0     		sub	sp, sp, #28
 2499              	.LCFI8:
 2500              		.cfi_def_cfa_offset 64
 2501              		.loc 3 170 0
 2502 000a 1C46     		mov	r4, r3
 2503 000c 1FFA80F8 		uxth	r8, r0
 2504              		.loc 3 175 0
ARM GAS  /tmp/ccVxBZiF.s 			page 45


 2505 0010 ABB2     		uxth	r3, r5
 2506              	.LVL229:
 2507 0012 8FB2     		uxth	r7, r1
 2508 0014 0020     		movs	r0, #0
 2509              	.LVL230:
 2510 0016 11B2     		sxth	r1, r2
 2511              	.LVL231:
 2512              		.loc 3 174 0
 2513 0018 0392     		str	r2, [sp, #12]
 2514              		.loc 3 175 0
 2515 001a 0493     		str	r3, [sp, #16]
 2516              	.LVL232:
 2517 001c 0290     		str	r0, [sp, #8]
 2518 001e 0591     		str	r1, [sp, #20]
 2519 0020 17E0     		b	.L80
 2520              	.LVL233:
 2521              	.L78:
 2522              		.loc 3 189 0
 2523 0022 059A     		ldr	r2, [sp, #20]
 2524 0024 0398     		ldr	r0, [sp, #12]
 2525 0026 049B     		ldr	r3, [sp, #16]
 2526 0028 0299     		ldr	r1, [sp, #8]
 2527 002a 0533     		adds	r3, r3, #5
 2528 002c 891A     		subs	r1, r1, r2
 2529 002e 421E     		subs	r2, r0, #1
 2530 0030 03EB4101 		add	r1, r3, r1, lsl #1
 2531 0034 93B2     		uxth	r3, r2
 2532              		.loc 3 170 0
 2533 0036 0135     		adds	r5, r5, #1
 2534 0038 1AB2     		sxth	r2, r3
 2535              		.loc 3 189 0
 2536 003a 89B2     		uxth	r1, r1
 2537 003c 0393     		str	r3, [sp, #12]
 2538              		.loc 3 170 0
 2539 003e A8B2     		uxth	r0, r5
 2540 0040 0592     		str	r2, [sp, #20]
 2541              		.loc 3 189 0
 2542 0042 0491     		str	r1, [sp, #16]
 2543              	.LVL234:
 2544              	.L79:
 2545              		.loc 3 190 0
 2546 0044 05B2     		sxth	r5, r0
 2547 0046 0299     		ldr	r1, [sp, #8]
 2548 0048 0598     		ldr	r0, [sp, #20]
 2549              	.LVL235:
 2550 004a 4B1C     		adds	r3, r1, #1
 2551 004c 8542     		cmp	r5, r0
 2552 004e 0293     		str	r3, [sp, #8]
 2553 0050 58DC     		bgt	.L82
 2554              	.LVL236:
 2555              	.L80:
 2556              		.loc 3 170 0
 2557 0052 029A     		ldr	r2, [sp, #8]
 2558              		.loc 3 178 0
 2559 0054 039E     		ldr	r6, [sp, #12]
 2560              		.loc 3 170 0
 2561 0056 95B2     		uxth	r5, r2
ARM GAS  /tmp/ccVxBZiF.s 			page 46


 2562              		.loc 3 178 0
 2563 0058 B6B2     		uxth	r6, r6
 2564 005a 06EB070A 		add	sl, r6, r7
 2565              		.loc 3 170 0
 2566 005e 08EB0503 		add	r3, r8, r5
 2567              		.loc 3 178 0
 2568 0062 1BB2     		sxth	r3, r3
 2569 0064 0FFA8AFA 		sxth	sl, sl
 2570 0068 1846     		mov	r0, r3
 2571 006a 5146     		mov	r1, sl
 2572 006c 2246     		mov	r2, r4
 2573 006e 0093     		str	r3, [sp, #0]
 2574              		.loc 3 170 0
 2575 0070 07EB0509 		add	r9, r7, r5
 2576              		.loc 3 178 0
 2577 0074 FFF7FEFF 		bl	gdisp_lld_draw_pixel
 2578              	.LVL237:
 2579              		.loc 3 179 0
 2580 0078 06EB080C 		add	ip, r6, r8
 2581 007c 0FFA8CFB 		sxth	fp, ip
 2582 0080 0FFA89F9 		sxth	r9, r9
 2583 0084 5846     		mov	r0, fp
 2584 0086 4946     		mov	r1, r9
 2585 0088 2246     		mov	r2, r4
 2586 008a CDF804B0 		str	fp, [sp, #4]
 2587 008e FFF7FEFF 		bl	gdisp_lld_draw_pixel
 2588              	.LVL238:
 2589              		.loc 3 170 0
 2590 0092 C5EB0800 		rsb	r0, r5, r8
 2591              		.loc 3 180 0
 2592 0096 0FFA80FB 		sxth	fp, r0
 2593 009a 5146     		mov	r1, sl
 2594 009c 5846     		mov	r0, fp
 2595 009e 2246     		mov	r2, r4
 2596 00a0 FFF7FEFF 		bl	gdisp_lld_draw_pixel
 2597              	.LVL239:
 2598              		.loc 3 181 0
 2599 00a4 C6EB0801 		rsb	r1, r6, r8
 2600 00a8 0FFA81FA 		sxth	sl, r1
 2601 00ac 5046     		mov	r0, sl
 2602 00ae 4946     		mov	r1, r9
 2603 00b0 2246     		mov	r2, r4
 2604 00b2 FFF7FEFF 		bl	gdisp_lld_draw_pixel
 2605              	.LVL240:
 2606              		.loc 3 182 0
 2607 00b6 DDF804C0 		ldr	ip, [sp, #4]
 2608              		.loc 3 170 0
 2609 00ba 7A1B     		subs	r2, r7, r5
 2610              		.loc 3 182 0
 2611 00bc 0FFA82F9 		sxth	r9, r2
 2612 00c0 6046     		mov	r0, ip
 2613 00c2 4946     		mov	r1, r9
 2614 00c4 2246     		mov	r2, r4
 2615 00c6 FFF7FEFF 		bl	gdisp_lld_draw_pixel
 2616              	.LVL241:
 2617              		.loc 3 183 0
 2618 00ca BE1B     		subs	r6, r7, r6
ARM GAS  /tmp/ccVxBZiF.s 			page 47


 2619 00cc 009B     		ldr	r3, [sp, #0]
 2620 00ce 36B2     		sxth	r6, r6
 2621 00d0 1846     		mov	r0, r3
 2622 00d2 3146     		mov	r1, r6
 2623 00d4 2246     		mov	r2, r4
 2624 00d6 FFF7FEFF 		bl	gdisp_lld_draw_pixel
 2625              	.LVL242:
 2626              		.loc 3 184 0
 2627 00da 5846     		mov	r0, fp
 2628 00dc 3146     		mov	r1, r6
 2629 00de 2246     		mov	r2, r4
 2630 00e0 FFF7FEFF 		bl	gdisp_lld_draw_pixel
 2631              	.LVL243:
 2632              		.loc 3 185 0
 2633 00e4 5046     		mov	r0, sl
 2634 00e6 2246     		mov	r2, r4
 2635 00e8 4946     		mov	r1, r9
 2636 00ea FFF7FEFF 		bl	gdisp_lld_draw_pixel
 2637              	.LVL244:
 2638              		.loc 3 186 0
 2639 00ee 0498     		ldr	r0, [sp, #16]
 2640 00f0 0204     		lsls	r2, r0, #16
 2641 00f2 96D5     		bpl	.L78
 2642              		.loc 3 187 0
 2643 00f4 C31C     		adds	r3, r0, #3
 2644 00f6 03EB4500 		add	r0, r3, r5, lsl #1
 2645 00fa 82B2     		uxth	r2, r0
 2646              		.loc 3 170 0
 2647 00fc 0135     		adds	r5, r5, #1
 2648              		.loc 3 187 0
 2649 00fe 0492     		str	r2, [sp, #16]
 2650              		.loc 3 170 0
 2651 0100 A8B2     		uxth	r0, r5
 2652              	.LVL245:
 2653 0102 9FE7     		b	.L79
 2654              	.LVL246:
 2655              	.L82:
 2656              		.loc 3 191 0
 2657 0104 07B0     		add	sp, sp, #28
 2658 0106 BDE8F08F 		pop	{r4, r5, r6, r7, r8, r9, sl, fp, pc}
 2659              		.cfi_endproc
 2660              	.LFE120:
 2661              		.size	gdisp_lld_draw_circle, .-gdisp_lld_draw_circle
 2662 010a 00BFAFF3 		.section	.text.gdisp_lld_clear,"ax",%progbits
 2662      0080
 2663              		.align	2
 2664              		.p2align 4,,15
 2665              		.global	gdisp_lld_clear
 2666              		.thumb
 2667              		.thumb_func
 2668              		.type	gdisp_lld_clear, %function
 2669              	gdisp_lld_clear:
 2670              	.LFB137:
 2671              		.loc 1 260 0
 2672              		.cfi_startproc
 2673              		@ args = 0, pretend = 0, frame = 0
 2674              		@ frame_needed = 0, uses_anonymous_args = 0
ARM GAS  /tmp/ccVxBZiF.s 			page 48


 2675              	.LVL247:
 2676 0000 38B5     		push	{r3, r4, r5, lr}
 2677              	.LCFI9:
 2678              		.cfi_def_cfa_offset 16
 2679              		.cfi_offset 3, -16
 2680              		.cfi_offset 4, -12
 2681              		.cfi_offset 5, -8
 2682              		.cfi_offset 14, -4
 2683              	.LBB1162:
 2684              	.LBB1163:
 2685              		.loc 1 115 0
 2686 0002 1D4D     		ldr	r5, .L93
 2687              	.LBE1163:
 2688              	.LBE1162:
 2689              		.loc 1 260 0
 2690 0004 0446     		mov	r4, r0
 2691              	.LBB1165:
 2692              	.LBB1164:
 2693              		.loc 1 115 0
 2694 0006 0020     		movs	r0, #0
 2695              	.LVL248:
 2696 0008 B5F90230 		ldrsh	r3, [r5, #2]
 2697 000c B5F90020 		ldrsh	r2, [r5, #0]
 2698 0010 0146     		mov	r1, r0
 2699 0012 FFF7FEFF 		bl	set_viewport
 2700              	.LVL249:
 2701              	.LBE1164:
 2702              	.LBE1165:
 2703              	.LBB1166:
 2704              	.LBB1167:
 2705              		.loc 1 55 0
 2706 0016 2B79     		ldrb	r3, [r5, #4]	@ zero_extendqisi2
 2707 0018 032B     		cmp	r3, #3
 2708 001a 0FD8     		bhi	.L84
 2709 001c DFE803F0 		tbb	[pc, r3]
 2710              	.L89:
 2711 0020 02       		.byte	(.L88-.L89)/2
 2712 0021 1C       		.byte	(.L86-.L89)/2
 2713 0022 1C       		.byte	(.L86-.L89)/2
 2714 0023 02       		.byte	(.L88-.L89)/2
 2715              		.align	1
 2716              	.L88:
 2717              	.LVL250:
 2718              	.LBB1168:
 2719              	.LBB1169:
 2720              		.loc 2 144 0
 2721 0024 4FF0C041 		mov	r1, #1610612736
 2722              	.LBE1169:
 2723              	.LBE1168:
 2724              	.LBB1171:
 2725              	.LBB1172:
 2726              		.loc 2 153 0
 2727 0028 0023     		movs	r3, #0
 2728 002a C6F20203 		movt	r3, 24578
 2729              	.LBE1172:
 2730              	.LBE1171:
 2731              	.LBB1175:
ARM GAS  /tmp/ccVxBZiF.s 			page 49


 2732              	.LBB1170:
 2733              		.loc 2 144 0
 2734 002e 4E20     		movs	r0, #78
 2735 0030 0880     		strh	r0, [r1, #0]	@ movhi
 2736              	.LVL251:
 2737              	.LBE1170:
 2738              	.LBE1175:
 2739              	.LBB1176:
 2740              	.LBB1173:
 2741              		.loc 2 153 0
 2742 0032 0022     		movs	r2, #0
 2743              	.LBE1173:
 2744              	.LBE1176:
 2745              	.LBB1177:
 2746              	.LBB1178:
 2747              		.loc 2 144 0
 2748 0034 4F20     		movs	r0, #79
 2749              	.LBE1178:
 2750              	.LBE1177:
 2751              	.LBB1180:
 2752              	.LBB1174:
 2753              		.loc 2 153 0
 2754 0036 1A80     		strh	r2, [r3, #0]	@ movhi
 2755              	.LVL252:
 2756              	.LBE1174:
 2757              	.LBE1180:
 2758              	.LBB1181:
 2759              	.LBB1179:
 2760              		.loc 2 144 0
 2761 0038 0880     		strh	r0, [r1, #0]	@ movhi
 2762              	.LVL253:
 2763              	.LBE1179:
 2764              	.LBE1181:
 2765              	.LBB1182:
 2766              	.LBB1183:
 2767              		.loc 2 153 0
 2768 003a 1A80     		strh	r2, [r3, #0]	@ movhi
 2769              	.LVL254:
 2770              	.L84:
 2771              	.LBE1183:
 2772              	.LBE1182:
 2773              	.LBE1167:
 2774              	.LBE1166:
 2775              	.LBB1202:
 2776              	.LBB1203:
 2777              		.loc 2 144 0
 2778 003c 4FF0C043 		mov	r3, #1610612736
 2779              	.LBE1203:
 2780              	.LBE1202:
 2781              	.LBB1205:
 2782              	.LBB1206:
 2783              		.loc 2 153 0
 2784 0040 0022     		movs	r2, #0
 2785              	.LBE1206:
 2786              	.LBE1205:
 2787              	.LBB1209:
 2788              	.LBB1204:
ARM GAS  /tmp/ccVxBZiF.s 			page 50


 2789              		.loc 2 144 0
 2790 0042 2221     		movs	r1, #34
 2791 0044 1980     		strh	r1, [r3, #0]	@ movhi
 2792              	.LVL255:
 2793 0046 4FF49630 		mov	r0, #76800
 2794              	.LBE1204:
 2795              	.LBE1209:
 2796              	.LBB1210:
 2797              	.LBB1207:
 2798              		.loc 2 153 0
 2799 004a C6F20202 		movt	r2, 24578
 2800              	.LVL256:
 2801              	.L90:
 2802              	.LBE1207:
 2803              	.LBE1210:
 2804              		.loc 1 285 0
 2805 004e 0238     		subs	r0, r0, #2
 2806              	.LBB1211:
 2807              	.LBB1208:
 2808              		.loc 2 153 0
 2809 0050 1480     		strh	r4, [r2, #0]	@ movhi
 2810 0052 1480     		strh	r4, [r2, #0]	@ movhi
 2811              	.LBE1208:
 2812              	.LBE1211:
 2813              		.loc 1 285 0
 2814 0054 FBD1     		bne	.L90
 2815              		.loc 1 291 0
 2816 0056 38BD     		pop	{r3, r4, r5, pc}
 2817              	.LVL257:
 2818              	.L86:
 2819              	.LBB1212:
 2820              	.LBB1201:
 2821              	.LBB1184:
 2822              	.LBB1185:
 2823              	.LBB1186:
 2824              		.loc 2 144 0
 2825 0058 4FF0C042 		mov	r2, #1610612736
 2826              	.LBE1186:
 2827              	.LBE1185:
 2828              	.LBB1188:
 2829              	.LBB1189:
 2830              		.loc 2 153 0
 2831 005c 0020     		movs	r0, #0
 2832 005e C6F20200 		movt	r0, 24578
 2833              	.LBE1189:
 2834              	.LBE1188:
 2835              	.LBB1192:
 2836              	.LBB1187:
 2837              		.loc 2 144 0
 2838 0062 4E21     		movs	r1, #78
 2839 0064 1180     		strh	r1, [r2, #0]	@ movhi
 2840              	.LVL258:
 2841              	.LBE1187:
 2842              	.LBE1192:
 2843              	.LBB1193:
 2844              	.LBB1190:
 2845              		.loc 2 153 0
ARM GAS  /tmp/ccVxBZiF.s 			page 51


 2846 0066 EF23     		movs	r3, #239
 2847              	.LBE1190:
 2848              	.LBE1193:
 2849              	.LBB1194:
 2850              	.LBB1195:
 2851              		.loc 2 144 0
 2852 0068 4F21     		movs	r1, #79
 2853              	.LBE1195:
 2854              	.LBE1194:
 2855              	.LBB1197:
 2856              	.LBB1191:
 2857              		.loc 2 153 0
 2858 006a 0380     		strh	r3, [r0, #0]	@ movhi
 2859              	.LVL259:
 2860              	.LBE1191:
 2861              	.LBE1197:
 2862              	.LBB1198:
 2863              	.LBB1196:
 2864              		.loc 2 144 0
 2865 006c 1180     		strh	r1, [r2, #0]	@ movhi
 2866              	.LVL260:
 2867              	.LBE1196:
 2868              	.LBE1198:
 2869              	.LBB1199:
 2870              	.LBB1200:
 2871              		.loc 2 153 0
 2872 006e 40F23F12 		movw	r2, #319
 2873 0072 0280     		strh	r2, [r0, #0]	@ movhi
 2874 0074 E2E7     		b	.L84
 2875              	.L94:
 2876 0076 00BF     		.align	2
 2877              	.L93:
 2878 0078 00000000 		.word	.LANCHOR0
 2879              	.LBE1200:
 2880              	.LBE1199:
 2881              	.LBE1184:
 2882              	.LBE1201:
 2883              	.LBE1212:
 2884              		.cfi_endproc
 2885              	.LFE137:
 2886              		.size	gdisp_lld_clear, .-gdisp_lld_clear
 2887 007c AFF30080 		.section	.text.gdisp_lld_fill_area,"ax",%progbits
 2888              		.align	2
 2889              		.p2align 4,,15
 2890              		.global	gdisp_lld_fill_area
 2891              		.thumb
 2892              		.thumb_func
 2893              		.type	gdisp_lld_fill_area, %function
 2894              	gdisp_lld_fill_area:
 2895              	.LFB138:
 2896              		.loc 1 305 0
 2897              		.cfi_startproc
 2898              		@ args = 4, pretend = 0, frame = 0
 2899              		@ frame_needed = 0, uses_anonymous_args = 0
 2900              	.LVL261:
 2901 0000 F8B5     		push	{r3, r4, r5, r6, r7, lr}
 2902              	.LCFI10:
ARM GAS  /tmp/ccVxBZiF.s 			page 52


 2903              		.cfi_def_cfa_offset 24
 2904              		.cfi_offset 3, -24
 2905              		.cfi_offset 4, -20
 2906              		.cfi_offset 5, -16
 2907              		.cfi_offset 6, -12
 2908              		.cfi_offset 7, -8
 2909              		.cfi_offset 14, -4
 2910              		.loc 1 309 0
 2911 0002 2A4E     		ldr	r6, .L115
 2912              		.loc 1 305 0
 2913 0004 BDF81870 		ldrh	r7, [sp, #24]
 2914              		.loc 1 309 0
 2915 0008 B6F908C0 		ldrsh	ip, [r6, #8]
 2916 000c 8445     		cmp	ip, r0
 2917              		.loc 1 305 0
 2918 000e 1446     		mov	r4, r2
 2919 0010 1D46     		mov	r5, r3
 2920              		.loc 1 309 0
 2921 0012 04DD     		ble	.L96
 2922              		.loc 1 309 0 is_stmt 0 discriminator 1
 2923 0014 CCEB0000 		rsb	r0, ip, r0
 2924              	.LVL262:
 2925 0018 8418     		adds	r4, r0, r2
 2926 001a 24B2     		sxth	r4, r4
 2927              	.LVL263:
 2928 001c 6046     		mov	r0, ip
 2929              	.LVL264:
 2930              	.L96:
 2931              		.loc 1 310 0 is_stmt 1
 2932 001e B6F90A30 		ldrsh	r3, [r6, #10]
 2933              	.LVL265:
 2934 0022 8B42     		cmp	r3, r1
 2935 0024 03DD     		ble	.L97
 2936              		.loc 1 310 0 is_stmt 0 discriminator 1
 2937 0026 C91A     		subs	r1, r1, r3
 2938              	.LVL266:
 2939 0028 4D19     		adds	r5, r1, r5
 2940 002a 2DB2     		sxth	r5, r5
 2941              	.LVL267:
 2942 002c 1946     		mov	r1, r3
 2943              	.LVL268:
 2944              	.L97:
 2945              		.loc 1 311 0 is_stmt 1
 2946 002e 002C     		cmp	r4, #0
 2947 0030 38DD     		ble	.L95
 2948              		.loc 1 311 0 is_stmt 0 discriminator 2
 2949 0032 002D     		cmp	r5, #0
 2950 0034 36DD     		ble	.L95
 2951              		.loc 1 311 0 discriminator 1
 2952 0036 B289     		ldrh	r2, [r6, #12]
 2953 0038 13B2     		sxth	r3, r2
 2954 003a 9842     		cmp	r0, r3
 2955 003c 32DA     		bge	.L95
 2956 003e 1B4E     		ldr	r6, .L115
 2957 0040 B6F80EC0 		ldrh	ip, [r6, #14]
 2958 0044 0FFA8CF6 		sxth	r6, ip
 2959 0048 B142     		cmp	r1, r6
ARM GAS  /tmp/ccVxBZiF.s 			page 53


 2960 004a 2BDA     		bge	.L95
 2961              		.loc 1 312 0 is_stmt 1
 2962 004c 00EB040E 		add	lr, r0, r4
 2963 0050 9E45     		cmp	lr, r3
 2964 0052 C4BF     		itt	gt
 2965 0054 C0EB0202 		rsbgt	r2, r0, r2
 2966 0058 14B2     		sxthgt	r4, r2
 2967              	.LVL269:
 2968              		.loc 1 313 0
 2969 005a 4A19     		adds	r2, r1, r5
 2970 005c B242     		cmp	r2, r6
 2971 005e C4BF     		itt	gt
 2972 0060 C1EB0C05 		rsbgt	r5, r1, ip
 2973              	.LVL270:
 2974 0064 2DB2     		sxthgt	r5, r5
 2975              	.LVL271:
 2976              		.loc 1 319 0
 2977 0066 2246     		mov	r2, r4
 2978 0068 2B46     		mov	r3, r5
 2979 006a FFF7FEFF 		bl	set_viewport
 2980              	.LVL272:
 2981              	.LBB1213:
 2982              	.LBB1214:
 2983              		.loc 2 144 0
 2984 006e 4FF0C041 		mov	r1, #1610612736
 2985 0072 2220     		movs	r0, #34
 2986              	.LBE1214:
 2987              	.LBE1213:
 2988              		.loc 1 316 0
 2989 0074 05FB04F4 		mul	r4, r5, r4
 2990              	.LVL273:
 2991              	.LBB1216:
 2992              	.LBB1215:
 2993              		.loc 2 144 0
 2994 0078 0880     		strh	r0, [r1, #0]	@ movhi
 2995              	.LVL274:
 2996              	.LBE1215:
 2997              	.LBE1216:
 2998              		.loc 1 336 0
 2999 007a 9CB1     		cbz	r4, .L95
 3000              	.LBB1217:
 3001              	.LBB1218:
 3002              		.loc 2 153 0
 3003 007c 0023     		movs	r3, #0
 3004 007e C6F20203 		movt	r3, 24578
 3005              	.LBE1218:
 3006              	.LBE1217:
 3007              		.loc 1 336 0
 3008 0082 0121     		movs	r1, #1
 3009 0084 621E     		subs	r2, r4, #1
 3010 0086 8C42     		cmp	r4, r1
 3011              	.LBB1222:
 3012              	.LBB1219:
 3013              		.loc 2 153 0
 3014 0088 1F80     		strh	r7, [r3, #0]	@ movhi
 3015 008a 02F00100 		and	r0, r2, #1
 3016              	.LVL275:
ARM GAS  /tmp/ccVxBZiF.s 			page 54


 3017              	.LBE1219:
 3018              	.LBE1222:
 3019              		.loc 1 336 0
 3020 008e 0BD0     		beq	.L113
 3021 0090 18B1     		cbz	r0, .L102
 3022 0092 0221     		movs	r1, #2
 3023 0094 8C42     		cmp	r4, r1
 3024              	.LBB1223:
 3025              	.LBB1220:
 3026              		.loc 2 153 0
 3027 0096 1F80     		strh	r7, [r3, #0]	@ movhi
 3028              	.LBE1220:
 3029              	.LBE1223:
 3030              		.loc 1 336 0
 3031 0098 05D0     		beq	.L114
 3032              	.LVL276:
 3033              	.L102:
 3034 009a 0231     		adds	r1, r1, #2
 3035 009c 8C42     		cmp	r4, r1
 3036              	.LBB1224:
 3037              	.LBB1221:
 3038              		.loc 2 153 0
 3039 009e 1F80     		strh	r7, [r3, #0]	@ movhi
 3040 00a0 1F80     		strh	r7, [r3, #0]	@ movhi
 3041              	.LBE1221:
 3042              	.LBE1224:
 3043              		.loc 1 336 0
 3044 00a2 FAD1     		bne	.L102
 3045              	.LVL277:
 3046              	.L95:
 3047 00a4 F8BD     		pop	{r3, r4, r5, r6, r7, pc}
 3048              	.LVL278:
 3049              	.L114:
 3050 00a6 F8BD     		pop	{r3, r4, r5, r6, r7, pc}
 3051              	.L113:
 3052 00a8 F8BD     		pop	{r3, r4, r5, r6, r7, pc}
 3053              	.L116:
 3054 00aa 00BF     		.align	2
 3055              	.L115:
 3056 00ac 00000000 		.word	.LANCHOR0
 3057              		.cfi_endproc
 3058              	.LFE138:
 3059              		.size	gdisp_lld_fill_area, .-gdisp_lld_fill_area
 3060              		.section	.text.gdisp_lld_draw_line,"ax",%progbits
 3061              		.align	2
 3062              		.p2align 4,,15
 3063              		.global	gdisp_lld_draw_line
 3064              		.thumb
 3065              		.thumb_func
 3066              		.type	gdisp_lld_draw_line, %function
 3067              	gdisp_lld_draw_line:
 3068              	.LFB118:
 3069              		.loc 3 39 0
 3070              		.cfi_startproc
 3071              		@ args = 4, pretend = 0, frame = 16
 3072              		@ frame_needed = 0, uses_anonymous_args = 0
 3073              	.LVL279:
ARM GAS  /tmp/ccVxBZiF.s 			page 55


 3074 0000 2DE9F04F 		push	{r4, r5, r6, r7, r8, r9, sl, fp, lr}
 3075              	.LCFI11:
 3076              		.cfi_def_cfa_offset 36
 3077              		.cfi_offset 4, -36
 3078              		.cfi_offset 5, -32
 3079              		.cfi_offset 6, -28
 3080              		.cfi_offset 7, -24
 3081              		.cfi_offset 8, -20
 3082              		.cfi_offset 9, -16
 3083              		.cfi_offset 10, -12
 3084              		.cfi_offset 11, -8
 3085              		.cfi_offset 14, -4
 3086 0004 85B0     		sub	sp, sp, #20
 3087              	.LCFI12:
 3088              		.cfi_def_cfa_offset 56
 3089              		.loc 3 46 0
 3090 0006 9042     		cmp	r0, r2
 3091              		.loc 3 39 0
 3092 0008 8146     		mov	r9, r0
 3093 000a 0C46     		mov	r4, r1
 3094 000c BDF83850 		ldrh	r5, [sp, #56]
 3095              		.loc 3 46 0
 3096 0010 00F00A81 		beq	.L168
 3097              		.loc 3 53 0
 3098 0014 9942     		cmp	r1, r3
 3099 0016 00F01481 		beq	.L169
 3100              		.loc 3 62 0
 3101 001a 9042     		cmp	r0, r2
 3102 001c 40F38380 		ble	.L170
 3103              		.loc 3 66 0
 3104 0020 821A     		subs	r2, r0, r2
 3105              	.LVL280:
 3106              		.loc 3 69 0
 3107 0022 A342     		cmp	r3, r4
 3108              		.loc 3 66 0
 3109 0024 90B2     		uxth	r0, r2
 3110              	.LVL281:
 3111              		.loc 3 67 0
 3112 0026 4FF6FF76 		movw	r6, #65535
 3113              	.LVL282:
 3114              		.loc 3 69 0
 3115 002a C0F28280 		blt	.L124
 3116              	.LVL283:
 3117              	.L172:
 3118              		.loc 3 70 0
 3119 002e 1F1B     		subs	r7, r3, r4
 3120 0030 B9B2     		uxth	r1, r7
 3121              	.LVL284:
 3122              		.loc 3 77 0
 3123 0032 0FFA81FB 		sxth	fp, r1
 3124 0036 0FFA80FA 		sxth	sl, r0
 3125              		.loc 3 71 0
 3126 003a 0127     		movs	r7, #1
 3127              	.LVL285:
 3128              		.loc 3 77 0
 3129 003c D345     		cmp	fp, sl
 3130 003e 00F38380 		bgt	.L126
ARM GAS  /tmp/ccVxBZiF.s 			page 56


 3131              	.LVL286:
 3132              	.L173:
 3133              		.loc 3 78 0
 3134 0042 4B00     		lsls	r3, r1, #1
 3135              		.loc 3 79 0
 3136 0044 82B2     		uxth	r2, r0
 3137              		.loc 3 78 0
 3138 0046 98B2     		uxth	r0, r3
 3139              		.loc 3 79 0
 3140 0048 811A     		subs	r1, r0, r2
 3141 004a 8BB2     		uxth	r3, r1
 3142              		.loc 3 80 0
 3143 004c 9A1A     		subs	r2, r3, r2
 3144              		.loc 3 78 0
 3145 004e 0290     		str	r0, [sp, #8]
 3146              	.LVL287:
 3147              		.loc 3 82 0
 3148 0050 BAF1000F 		cmp	sl, #0
 3149              		.loc 3 80 0
 3150 0054 90B2     		uxth	r0, r2
 3151              		.loc 3 79 0
 3152 0056 1FFA83F8 		uxth	r8, r3
 3153              	.LVL288:
 3154              		.loc 3 80 0
 3155 005a 0190     		str	r0, [sp, #4]
 3156              	.LVL289:
 3157              		.loc 3 82 0
 3158 005c C0F2E180 		blt	.L117
 3159 0060 0AF00103 		and	r3, sl, #1
 3160              	.LVL290:
 3161              		.loc 3 83 0
 3162 0064 4846     		mov	r0, r9
 3163 0066 2146     		mov	r1, r4
 3164 0068 2A46     		mov	r2, r5
 3165 006a 0393     		str	r3, [sp, #12]
 3166 006c FFF7FEFF 		bl	gdisp_lld_draw_pixel
 3167              	.LVL291:
 3168              		.loc 3 84 0
 3169 0070 18F4004F 		tst	r8, #32768
 3170 0074 40F02581 		bne	.L171
 3171              		.loc 3 88 0
 3172 0078 0199     		ldr	r1, [sp, #4]
 3173              		.loc 3 89 0
 3174 007a B144     		add	r9, r9, r6
 3175              	.LVL292:
 3176              		.loc 3 88 0
 3177 007c 01EB0802 		add	r2, r1, r8
 3178              		.loc 3 90 0
 3179 0080 E419     		adds	r4, r4, r7
 3180              	.LVL293:
 3181              		.loc 3 88 0
 3182 0082 1FFA82FB 		uxth	fp, r2
 3183              		.loc 3 89 0
 3184 0086 0FFA89F9 		sxth	r9, r9
 3185              		.loc 3 90 0
 3186 008a 24B2     		sxth	r4, r4
 3187              	.LVL294:
ARM GAS  /tmp/ccVxBZiF.s 			page 57


 3188              	.L160:
 3189              		.loc 3 82 0
 3190 008c 4FF00108 		mov	r8, #1
 3191              	.LVL295:
 3192 0090 C245     		cmp	sl, r8
 3193 0092 C0F2C680 		blt	.L117
 3194 0096 039A     		ldr	r2, [sp, #12]
 3195 0098 A2B3     		cbz	r2, .L127
 3196              		.loc 3 83 0
 3197 009a 4846     		mov	r0, r9
 3198 009c 2146     		mov	r1, r4
 3199 009e 2A46     		mov	r2, r5
 3200 00a0 FFF7FEFF 		bl	gdisp_lld_draw_pixel
 3201              	.LVL296:
 3202              		.loc 3 84 0
 3203 00a4 1BF4004F 		tst	fp, #32768
 3204 00a8 18D0     		beq	.L143
 3205 00aa DFE0     		b	.L157
 3206              	.LVL297:
 3207              	.L129:
 3208              		.loc 3 88 0
 3209 00ac 019A     		ldr	r2, [sp, #4]
 3210              		.loc 3 89 0
 3211 00ae 09EB060E 		add	lr, r9, r6
 3212              		.loc 3 88 0
 3213 00b2 02EB0B00 		add	r0, r2, fp
 3214              		.loc 3 90 0
 3215 00b6 E419     		adds	r4, r4, r7
 3216 00b8 24B2     		sxth	r4, r4
 3217              		.loc 3 88 0
 3218 00ba 1FFA80FB 		uxth	fp, r0
 3219              		.loc 3 89 0
 3220 00be 0FFA8EF9 		sxth	r9, lr
 3221              	.LVL298:
 3222              	.L130:
 3223              		.loc 3 82 0
 3224 00c2 08F1010C 		add	ip, r8, #1
 3225              		.loc 3 83 0
 3226 00c6 2146     		mov	r1, r4
 3227 00c8 4846     		mov	r0, r9
 3228 00ca 2A46     		mov	r2, r5
 3229              		.loc 3 82 0
 3230 00cc 1FFA8CF8 		uxth	r8, ip
 3231              		.loc 3 83 0
 3232 00d0 FFF7FEFF 		bl	gdisp_lld_draw_pixel
 3233              	.LVL299:
 3234              		.loc 3 84 0
 3235 00d4 1BF4004F 		tst	fp, #32768
 3236 00d8 40F0C880 		bne	.L157
 3237              	.LVL300:
 3238              	.L143:
 3239              		.loc 3 88 0
 3240 00dc 019A     		ldr	r2, [sp, #4]
 3241              		.loc 3 89 0
 3242 00de 09EB0603 		add	r3, r9, r6
 3243              		.loc 3 88 0
 3244 00e2 02EB0B00 		add	r0, r2, fp
ARM GAS  /tmp/ccVxBZiF.s 			page 58


 3245              		.loc 3 90 0
 3246 00e6 E419     		adds	r4, r4, r7
 3247              		.loc 3 88 0
 3248 00e8 1FFA80FB 		uxth	fp, r0
 3249              		.loc 3 89 0
 3250 00ec 0FFA83F9 		sxth	r9, r3
 3251              		.loc 3 90 0
 3252 00f0 24B2     		sxth	r4, r4
 3253              	.LVL301:
 3254              	.L163:
 3255              		.loc 3 82 0
 3256 00f2 08F10108 		add	r8, r8, #1
 3257 00f6 1FFA88F8 		uxth	r8, r8
 3258 00fa 0FFA88F1 		sxth	r1, r8
 3259 00fe 8A45     		cmp	sl, r1
 3260 0100 C0F28F80 		blt	.L117
 3261              	.LVL302:
 3262              	.L127:
 3263              		.loc 3 83 0
 3264 0104 4846     		mov	r0, r9
 3265 0106 2A46     		mov	r2, r5
 3266 0108 2146     		mov	r1, r4
 3267 010a FFF7FEFF 		bl	gdisp_lld_draw_pixel
 3268              	.LVL303:
 3269              		.loc 3 84 0
 3270 010e 1BF4004F 		tst	fp, #32768
 3271 0112 CBD0     		beq	.L129
 3272              		.loc 3 85 0
 3273 0114 029B     		ldr	r3, [sp, #8]
 3274              		.loc 3 86 0
 3275 0116 B144     		add	r9, r9, r6
 3276              		.loc 3 85 0
 3277 0118 03EB0B01 		add	r1, r3, fp
 3278 011c 1FFA81FB 		uxth	fp, r1
 3279              		.loc 3 86 0
 3280 0120 0FFA89F9 		sxth	r9, r9
 3281 0124 CDE7     		b	.L130
 3282              	.LVL304:
 3283              	.L170:
 3284              		.loc 3 63 0
 3285 0126 111A     		subs	r1, r2, r0
 3286              	.LVL305:
 3287              		.loc 3 64 0
 3288 0128 0126     		movs	r6, #1
 3289              		.loc 3 69 0
 3290 012a A342     		cmp	r3, r4
 3291              		.loc 3 63 0
 3292 012c 88B2     		uxth	r0, r1
 3293              	.LVL306:
 3294              		.loc 3 69 0
 3295 012e BFF67EAF 		bge	.L172
 3296              	.LVL307:
 3297              	.L124:
 3298              		.loc 3 73 0
 3299 0132 E31A     		subs	r3, r4, r3
 3300              	.LVL308:
 3301 0134 99B2     		uxth	r1, r3
ARM GAS  /tmp/ccVxBZiF.s 			page 59


 3302              	.LVL309:
 3303              		.loc 3 77 0
 3304 0136 0FFA81FB 		sxth	fp, r1
 3305 013a 0FFA80FA 		sxth	sl, r0
 3306 013e D345     		cmp	fp, sl
 3307              		.loc 3 74 0
 3308 0140 4FF6FF77 		movw	r7, #65535
 3309              	.LVL310:
 3310              		.loc 3 77 0
 3311 0144 7FF77DAF 		ble	.L173
 3312              	.LVL311:
 3313              	.L126:
 3314              		.loc 3 94 0
 3315 0148 4200     		lsls	r2, r0, #1
 3316 014a 93B2     		uxth	r3, r2
 3317              		.loc 3 95 0
 3318 014c 88B2     		uxth	r0, r1
 3319 014e 191A     		subs	r1, r3, r0
 3320 0150 8AB2     		uxth	r2, r1
 3321              		.loc 3 96 0
 3322 0152 101A     		subs	r0, r2, r0
 3323              		.loc 3 94 0
 3324 0154 0293     		str	r3, [sp, #8]
 3325              	.LVL312:
 3326              		.loc 3 98 0
 3327 0156 BBF1000F 		cmp	fp, #0
 3328              		.loc 3 96 0
 3329 015a 83B2     		uxth	r3, r0
 3330              		.loc 3 95 0
 3331 015c 1FFA82F8 		uxth	r8, r2
 3332              	.LVL313:
 3333              		.loc 3 96 0
 3334 0160 0193     		str	r3, [sp, #4]
 3335              	.LVL314:
 3336              		.loc 3 98 0
 3337 0162 5EDB     		blt	.L117
 3338 0164 0BF00103 		and	r3, fp, #1
 3339              		.loc 3 99 0
 3340 0168 4846     		mov	r0, r9
 3341 016a 2146     		mov	r1, r4
 3342 016c 2A46     		mov	r2, r5
 3343              	.LVL315:
 3344 016e 0393     		str	r3, [sp, #12]
 3345 0170 FFF7FEFF 		bl	gdisp_lld_draw_pixel
 3346              	.LVL316:
 3347              		.loc 3 100 0
 3348 0174 18F4004F 		tst	r8, #32768
 3349 0178 40F09B80 		bne	.L174
 3350              		.loc 3 104 0
 3351 017c 0199     		ldr	r1, [sp, #4]
 3352              		.loc 3 105 0
 3353 017e B144     		add	r9, r9, r6
 3354              	.LVL317:
 3355              		.loc 3 104 0
 3356 0180 01EB0802 		add	r2, r1, r8
 3357              		.loc 3 106 0
 3358 0184 E419     		adds	r4, r4, r7
ARM GAS  /tmp/ccVxBZiF.s 			page 60


 3359              	.LVL318:
 3360              		.loc 3 104 0
 3361 0186 1FFA82FA 		uxth	sl, r2
 3362              		.loc 3 105 0
 3363 018a 0FFA89F9 		sxth	r9, r9
 3364              	.LVL319:
 3365              		.loc 3 106 0
 3366 018e 24B2     		sxth	r4, r4
 3367              	.LVL320:
 3368              	.L164:
 3369              		.loc 3 98 0
 3370 0190 4FF00108 		mov	r8, #1
 3371              	.LVL321:
 3372 0194 C345     		cmp	fp, r8
 3373 0196 44DB     		blt	.L117
 3374 0198 039A     		ldr	r2, [sp, #12]
 3375 019a 92B3     		cbz	r2, .L134
 3376              		.loc 3 99 0
 3377 019c 4846     		mov	r0, r9
 3378 019e 2146     		mov	r1, r4
 3379 01a0 2A46     		mov	r2, r5
 3380 01a2 FFF7FEFF 		bl	gdisp_lld_draw_pixel
 3381              	.LVL322:
 3382              		.loc 3 100 0
 3383 01a6 1AF4004F 		tst	sl, #32768
 3384 01aa 17D0     		beq	.L150
 3385 01ac 56E0     		b	.L159
 3386              	.LVL323:
 3387              	.L132:
 3388              		.loc 3 104 0
 3389 01ae 019A     		ldr	r2, [sp, #4]
 3390              		.loc 3 106 0
 3391 01b0 E319     		adds	r3, r4, r7
 3392              		.loc 3 104 0
 3393 01b2 02EB0A00 		add	r0, r2, sl
 3394              		.loc 3 105 0
 3395 01b6 09EB060A 		add	sl, r9, r6
 3396 01ba 0FFA8AF9 		sxth	r9, sl
 3397              		.loc 3 106 0
 3398 01be 1CB2     		sxth	r4, r3
 3399              		.loc 3 104 0
 3400 01c0 1FFA80FA 		uxth	sl, r0
 3401              	.LVL324:
 3402              	.L133:
 3403              		.loc 3 98 0
 3404 01c4 08F1010C 		add	ip, r8, #1
 3405              		.loc 3 99 0
 3406 01c8 4846     		mov	r0, r9
 3407 01ca 2146     		mov	r1, r4
 3408 01cc 2A46     		mov	r2, r5
 3409              		.loc 3 98 0
 3410 01ce 1FFA8CF8 		uxth	r8, ip
 3411              		.loc 3 99 0
 3412 01d2 FFF7FEFF 		bl	gdisp_lld_draw_pixel
 3413              	.LVL325:
 3414              		.loc 3 100 0
 3415 01d6 1AF4004F 		tst	sl, #32768
ARM GAS  /tmp/ccVxBZiF.s 			page 61


 3416 01da 3FD1     		bne	.L159
 3417              	.LVL326:
 3418              	.L150:
 3419              		.loc 3 104 0
 3420 01dc 0198     		ldr	r0, [sp, #4]
 3421              		.loc 3 105 0
 3422 01de 09EB060E 		add	lr, r9, r6
 3423              		.loc 3 104 0
 3424 01e2 00EB0A03 		add	r3, r0, sl
 3425              		.loc 3 106 0
 3426 01e6 E119     		adds	r1, r4, r7
 3427              		.loc 3 104 0
 3428 01e8 1FFA83FA 		uxth	sl, r3
 3429              		.loc 3 105 0
 3430 01ec 0FFA8EF9 		sxth	r9, lr
 3431              	.LVL327:
 3432              		.loc 3 106 0
 3433 01f0 0CB2     		sxth	r4, r1
 3434              	.LVL328:
 3435              	.L167:
 3436              		.loc 3 98 0
 3437 01f2 08F10108 		add	r8, r8, #1
 3438 01f6 1FFA88F8 		uxth	r8, r8
 3439 01fa 0FFA88F1 		sxth	r1, r8
 3440 01fe 8B45     		cmp	fp, r1
 3441 0200 0FDB     		blt	.L117
 3442              	.LVL329:
 3443              	.L134:
 3444              		.loc 3 99 0
 3445 0202 2146     		mov	r1, r4
 3446 0204 2A46     		mov	r2, r5
 3447 0206 4846     		mov	r0, r9
 3448 0208 FFF7FEFF 		bl	gdisp_lld_draw_pixel
 3449              	.LVL330:
 3450              		.loc 3 100 0
 3451 020c 1AF4004F 		tst	sl, #32768
 3452 0210 CDD0     		beq	.L132
 3453              		.loc 3 101 0
 3454 0212 0299     		ldr	r1, [sp, #8]
 3455              		.loc 3 102 0
 3456 0214 E419     		adds	r4, r4, r7
 3457              		.loc 3 101 0
 3458 0216 01EB0A02 		add	r2, r1, sl
 3459 021a 1FFA82FA 		uxth	sl, r2
 3460              		.loc 3 102 0
 3461 021e 24B2     		sxth	r4, r4
 3462 0220 D0E7     		b	.L133
 3463              	.LVL331:
 3464              	.L117:
 3465              		.loc 3 110 0
 3466 0222 05B0     		add	sp, sp, #20
 3467 0224 BDE8F08F 		pop	{r4, r5, r6, r7, r8, r9, sl, fp, pc}
 3468              	.LVL332:
 3469              	.L168:
 3470              		.loc 3 47 0
 3471 0228 8B42     		cmp	r3, r1
 3472 022a 29DD     		ble	.L119
ARM GAS  /tmp/ccVxBZiF.s 			page 62


 3473              		.loc 3 48 0
 3474 022c C1F10104 		rsb	r4, r1, #1
 3475 0230 E318     		adds	r3, r4, r3
 3476              	.LVL333:
 3477 0232 0122     		movs	r2, #1
 3478              	.LVL334:
 3479 0234 1BB2     		sxth	r3, r3
 3480 0236 0E95     		str	r5, [sp, #56]
 3481              		.loc 3 110 0
 3482 0238 05B0     		add	sp, sp, #20
 3483 023a BDE8F04F 		pop	{r4, r5, r6, r7, r8, r9, sl, fp, lr}
 3484              		.loc 3 48 0
 3485 023e FFF7FEBF 		b	gdisp_lld_fill_area
 3486              	.LVL335:
 3487              	.L169:
 3488              		.loc 3 54 0
 3489 0242 9042     		cmp	r0, r2
 3490 0244 27DA     		bge	.L121
 3491              		.loc 3 55 0
 3492 0246 C0F10109 		rsb	r9, r0, #1
 3493 024a 4A44     		add	r2, r9, r2
 3494              	.LVL336:
 3495 024c 12B2     		sxth	r2, r2
 3496 024e 0123     		movs	r3, #1
 3497              	.LVL337:
 3498 0250 0E95     		str	r5, [sp, #56]
 3499              		.loc 3 110 0
 3500 0252 05B0     		add	sp, sp, #20
 3501 0254 BDE8F04F 		pop	{r4, r5, r6, r7, r8, r9, sl, fp, lr}
 3502              		.loc 3 55 0
 3503 0258 FFF7FEBF 		b	gdisp_lld_fill_area
 3504              	.LVL338:
 3505              	.L159:
 3506              		.loc 3 101 0
 3507 025c 0298     		ldr	r0, [sp, #8]
 3508              		.loc 3 102 0
 3509 025e E419     		adds	r4, r4, r7
 3510              		.loc 3 101 0
 3511 0260 00EB0A03 		add	r3, r0, sl
 3512 0264 1FFA83FA 		uxth	sl, r3
 3513              		.loc 3 102 0
 3514 0268 24B2     		sxth	r4, r4
 3515 026a C2E7     		b	.L167
 3516              	.LVL339:
 3517              	.L157:
 3518              		.loc 3 85 0
 3519 026c 0298     		ldr	r0, [sp, #8]
 3520              		.loc 3 86 0
 3521 026e 09EB060C 		add	ip, r9, r6
 3522              		.loc 3 85 0
 3523 0272 00EB0B03 		add	r3, r0, fp
 3524 0276 1FFA83FB 		uxth	fp, r3
 3525              		.loc 3 86 0
 3526 027a 0FFA8CF9 		sxth	r9, ip
 3527 027e 38E7     		b	.L163
 3528              	.LVL340:
 3529              	.L119:
ARM GAS  /tmp/ccVxBZiF.s 			page 63


 3530              		.loc 3 50 0
 3531 0280 0131     		adds	r1, r1, #1
 3532              	.LVL341:
 3533 0282 CC1A     		subs	r4, r1, r3
 3534 0284 0122     		movs	r2, #1
 3535              	.LVL342:
 3536 0286 1946     		mov	r1, r3
 3537 0288 23B2     		sxth	r3, r4
 3538              	.LVL343:
 3539 028a 0E95     		str	r5, [sp, #56]
 3540              		.loc 3 110 0
 3541 028c 05B0     		add	sp, sp, #20
 3542 028e BDE8F04F 		pop	{r4, r5, r6, r7, r8, r9, sl, fp, lr}
 3543              		.loc 3 50 0
 3544 0292 FFF7FEBF 		b	gdisp_lld_fill_area
 3545              	.LVL344:
 3546              	.L121:
 3547              		.loc 3 57 0
 3548 0296 00F10109 		add	r9, r0, #1
 3549 029a C2EB0909 		rsb	r9, r2, r9
 3550 029e 1046     		mov	r0, r2
 3551              	.LVL345:
 3552 02a0 0123     		movs	r3, #1
 3553              	.LVL346:
 3554 02a2 0FFA89F2 		sxth	r2, r9
 3555              	.LVL347:
 3556 02a6 0E95     		str	r5, [sp, #56]
 3557              		.loc 3 110 0
 3558 02a8 05B0     		add	sp, sp, #20
 3559 02aa BDE8F04F 		pop	{r4, r5, r6, r7, r8, r9, sl, fp, lr}
 3560              		.loc 3 57 0
 3561 02ae FFF7FEBF 		b	gdisp_lld_fill_area
 3562              	.LVL348:
 3563              	.L174:
 3564              		.loc 3 101 0
 3565 02b2 0298     		ldr	r0, [sp, #8]
 3566              		.loc 3 102 0
 3567 02b4 E119     		adds	r1, r4, r7
 3568              		.loc 3 101 0
 3569 02b6 00EB0803 		add	r3, r0, r8
 3570 02ba 1FFA83FA 		uxth	sl, r3
 3571              		.loc 3 102 0
 3572 02be 0CB2     		sxth	r4, r1
 3573              	.LVL349:
 3574 02c0 66E7     		b	.L164
 3575              	.LVL350:
 3576              	.L171:
 3577              		.loc 3 85 0
 3578 02c2 0298     		ldr	r0, [sp, #8]
 3579              		.loc 3 86 0
 3580 02c4 09EB0601 		add	r1, r9, r6
 3581              		.loc 3 85 0
 3582 02c8 00EB0803 		add	r3, r0, r8
 3583 02cc 1FFA83FB 		uxth	fp, r3
 3584              		.loc 3 86 0
 3585 02d0 0FFA81F9 		sxth	r9, r1
 3586              	.LVL351:
ARM GAS  /tmp/ccVxBZiF.s 			page 64


 3587 02d4 DAE6     		b	.L160
 3588              		.cfi_endproc
 3589              	.LFE118:
 3590              		.size	gdisp_lld_draw_line, .-gdisp_lld_draw_line
 3591 02d6 00BFAFF3 		.section	.text.gdisp_lld_fill_circle,"ax",%progbits
 3591      0080AFF3 
 3591      0080
 3592              		.align	2
 3593              		.p2align 4,,15
 3594              		.global	gdisp_lld_fill_circle
 3595              		.thumb
 3596              		.thumb_func
 3597              		.type	gdisp_lld_fill_circle, %function
 3598              	gdisp_lld_fill_circle:
 3599              	.LFB121:
 3600              		.loc 3 195 0
 3601              		.cfi_startproc
 3602              		@ args = 0, pretend = 0, frame = 16
 3603              		@ frame_needed = 0, uses_anonymous_args = 0
 3604              	.LVL352:
 3605 0000 2DE9F04F 		push	{r4, r5, r6, r7, r8, r9, sl, fp, lr}
 3606              	.LCFI13:
 3607              		.cfi_def_cfa_offset 36
 3608              		.cfi_offset 4, -36
 3609              		.cfi_offset 5, -32
 3610              		.cfi_offset 6, -28
 3611              		.cfi_offset 7, -24
 3612              		.cfi_offset 8, -20
 3613              		.cfi_offset 9, -16
 3614              		.cfi_offset 10, -12
 3615              		.cfi_offset 11, -8
 3616              		.cfi_offset 14, -4
 3617              		.loc 3 199 0
 3618 0004 9246     		mov	sl, r2
 3619              		.loc 3 195 0
 3620 0006 87B0     		sub	sp, sp, #28
 3621              	.LCFI14:
 3622              		.cfi_def_cfa_offset 64
 3623              		.loc 3 200 0
 3624 0008 C2F10104 		rsb	r4, r2, #1
 3625 000c A2B2     		uxth	r2, r4
 3626              	.LVL353:
 3627 000e 1FFA80F8 		uxth	r8, r0
 3628 0012 0FFA8AF0 		sxth	r0, sl
 3629              	.LVL354:
 3630              		.loc 3 195 0
 3631 0016 1F46     		mov	r7, r3
 3632              		.loc 3 200 0
 3633 0018 0492     		str	r2, [sp, #16]
 3634              	.LVL355:
 3635 001a 8EB2     		uxth	r6, r1
 3636 001c 4FF00009 		mov	r9, #0
 3637 0020 0590     		str	r0, [sp, #20]
 3638 0022 17E0     		b	.L178
 3639              	.LVL356:
 3640              	.L176:
 3641              		.loc 3 210 0
ARM GAS  /tmp/ccVxBZiF.s 			page 65


 3642 0024 059A     		ldr	r2, [sp, #20]
 3643 0026 0499     		ldr	r1, [sp, #16]
 3644 0028 0AF1FF3A 		add	sl, sl, #-1
 3645              	.LVL357:
 3646 002c 4B1D     		adds	r3, r1, #5
 3647 002e C2EB0900 		rsb	r0, r2, r9
 3648 0032 1FFA8AFA 		uxth	sl, sl
 3649              	.LVL358:
 3650 0036 03EB4000 		add	r0, r3, r0, lsl #1
 3651 003a 0FFA8AF2 		sxth	r2, sl
 3652              		.loc 3 195 0
 3653 003e 0134     		adds	r4, r4, #1
 3654              		.loc 3 210 0
 3655 0040 83B2     		uxth	r3, r0
 3656 0042 0592     		str	r2, [sp, #20]
 3657              		.loc 3 195 0
 3658 0044 A1B2     		uxth	r1, r4
 3659              		.loc 3 210 0
 3660 0046 0493     		str	r3, [sp, #16]
 3661              	.LVL359:
 3662              		.loc 3 211 0
 3663 0048 059B     		ldr	r3, [sp, #20]
 3664 004a 0CB2     		sxth	r4, r1
 3665              	.LVL360:
 3666 004c 9C42     		cmp	r4, r3
 3667 004e 09F10109 		add	r9, r9, #1
 3668 0052 45DC     		bgt	.L180
 3669              	.LVL361:
 3670              	.L178:
 3671              		.loc 3 203 0
 3672 0054 1FFA8AF5 		uxth	r5, sl
 3673              		.loc 3 195 0
 3674 0058 1FFA89F4 		uxth	r4, r9
 3675 005c C4EB080C 		rsb	ip, r4, r8
 3676              		.loc 3 203 0
 3677 0060 A919     		adds	r1, r5, r6
 3678              		.loc 3 195 0
 3679 0062 08EB040B 		add	fp, r8, r4
 3680              		.loc 3 203 0
 3681 0066 0FFA8CFE 		sxth	lr, ip
 3682 006a 09B2     		sxth	r1, r1
 3683 006c 0FFA8BFB 		sxth	fp, fp
 3684 0070 7046     		mov	r0, lr
 3685 0072 5A46     		mov	r2, fp
 3686 0074 0B46     		mov	r3, r1
 3687 0076 0097     		str	r7, [sp, #0]
 3688 0078 CDF80CE0 		str	lr, [sp, #12]
 3689 007c FFF7FEFF 		bl	gdisp_lld_draw_line
 3690              	.LVL362:
 3691              		.loc 3 204 0
 3692 0080 DDF80CC0 		ldr	ip, [sp, #12]
 3693 0084 0097     		str	r7, [sp, #0]
 3694 0086 731B     		subs	r3, r6, r5
 3695 0088 19B2     		sxth	r1, r3
 3696 008a 6046     		mov	r0, ip
 3697 008c 5A46     		mov	r2, fp
 3698 008e 0B46     		mov	r3, r1
ARM GAS  /tmp/ccVxBZiF.s 			page 66


 3699 0090 FFF7FEFF 		bl	gdisp_lld_draw_line
 3700              	.LVL363:
 3701              		.loc 3 205 0
 3702 0094 C5EB0800 		rsb	r0, r5, r8
 3703              		.loc 3 195 0
 3704 0098 3219     		adds	r2, r6, r4
 3705              		.loc 3 205 0
 3706 009a 4544     		add	r5, r5, r8
 3707 009c 11B2     		sxth	r1, r2
 3708 009e 0FFA80FB 		sxth	fp, r0
 3709 00a2 2DB2     		sxth	r5, r5
 3710 00a4 0B46     		mov	r3, r1
 3711 00a6 5846     		mov	r0, fp
 3712 00a8 2A46     		mov	r2, r5
 3713 00aa 0097     		str	r7, [sp, #0]
 3714 00ac FFF7FEFF 		bl	gdisp_lld_draw_line
 3715              	.LVL364:
 3716              		.loc 3 195 0
 3717 00b0 311B     		subs	r1, r6, r4
 3718              		.loc 3 206 0
 3719 00b2 09B2     		sxth	r1, r1
 3720 00b4 0B46     		mov	r3, r1
 3721 00b6 0097     		str	r7, [sp, #0]
 3722 00b8 5846     		mov	r0, fp
 3723 00ba 2A46     		mov	r2, r5
 3724 00bc FFF7FEFF 		bl	gdisp_lld_draw_line
 3725              	.LVL365:
 3726              		.loc 3 207 0
 3727 00c0 049B     		ldr	r3, [sp, #16]
 3728 00c2 1904     		lsls	r1, r3, #16
 3729 00c4 AED5     		bpl	.L176
 3730              		.loc 3 208 0
 3731 00c6 D81C     		adds	r0, r3, #3
 3732 00c8 00EB4401 		add	r1, r0, r4, lsl #1
 3733              		.loc 3 195 0
 3734 00cc 0134     		adds	r4, r4, #1
 3735              		.loc 3 208 0
 3736 00ce 8AB2     		uxth	r2, r1
 3737              		.loc 3 211 0
 3738 00d0 059B     		ldr	r3, [sp, #20]
 3739              		.loc 3 208 0
 3740 00d2 0492     		str	r2, [sp, #16]
 3741              		.loc 3 195 0
 3742 00d4 A1B2     		uxth	r1, r4
 3743              	.LVL366:
 3744              		.loc 3 211 0
 3745 00d6 0CB2     		sxth	r4, r1
 3746              	.LVL367:
 3747 00d8 9C42     		cmp	r4, r3
 3748 00da 09F10109 		add	r9, r9, #1
 3749 00de B9DD     		ble	.L178
 3750              	.LVL368:
 3751              	.L180:
 3752              		.loc 3 212 0
 3753 00e0 07B0     		add	sp, sp, #28
 3754 00e2 BDE8F08F 		pop	{r4, r5, r6, r7, r8, r9, sl, fp, pc}
 3755              		.cfi_endproc
ARM GAS  /tmp/ccVxBZiF.s 			page 67


 3756              	.LFE121:
 3757              		.size	gdisp_lld_fill_circle, .-gdisp_lld_fill_circle
 3758 00e6 00BFAFF3 		.section	.text.gdisp_lld_blit_area_ex,"ax",%progbits
 3758      0080AFF3 
 3758      0080
 3759              		.align	2
 3760              		.p2align 4,,15
 3761              		.global	gdisp_lld_blit_area_ex
 3762              		.thumb
 3763              		.thumb_func
 3764              		.type	gdisp_lld_blit_area_ex, %function
 3765              	gdisp_lld_blit_area_ex:
 3766              	.LFB139:
 3767              		.loc 1 358 0
 3768              		.cfi_startproc
 3769              		@ args = 16, pretend = 0, frame = 0
 3770              		@ frame_needed = 0, uses_anonymous_args = 0
 3771              	.LVL369:
 3772 0000 2DE9F047 		push	{r4, r5, r6, r7, r8, r9, sl, lr}
 3773              	.LCFI15:
 3774              		.cfi_def_cfa_offset 32
 3775              		.cfi_offset 4, -32
 3776              		.cfi_offset 5, -28
 3777              		.cfi_offset 6, -24
 3778              		.cfi_offset 7, -20
 3779              		.cfi_offset 8, -16
 3780              		.cfi_offset 9, -12
 3781              		.cfi_offset 10, -8
 3782              		.cfi_offset 14, -4
 3783              		.loc 1 361 0
 3784 0004 4E4D     		ldr	r5, .L201
 3785              		.loc 1 358 0
 3786 0006 BDF92070 		ldrsh	r7, [sp, #32]
 3787              		.loc 1 361 0
 3788 000a B5F908A0 		ldrsh	sl, [r5, #8]
 3789              		.loc 1 358 0
 3790 000e BDF924C0 		ldrsh	ip, [sp, #36]
 3791 0012 BDF92880 		ldrsh	r8, [sp, #40]
 3792              		.loc 1 361 0
 3793 0016 8245     		cmp	sl, r0
 3794              		.loc 1 358 0
 3795 0018 0E46     		mov	r6, r1
 3796 001a 1446     		mov	r4, r2
 3797 001c 9946     		mov	r9, r3
 3798              		.loc 1 361 0
 3799 001e 09DD     		ble	.L182
 3800              		.loc 1 361 0 is_stmt 0 discriminator 1
 3801 0020 80B2     		uxth	r0, r0
 3802 0022 1FFA8AF3 		uxth	r3, sl
 3803              	.LVL370:
 3804 0026 C21A     		subs	r2, r0, r3
 3805              	.LVL371:
 3806 0028 191A     		subs	r1, r3, r0
 3807              	.LVL372:
 3808 002a 1419     		adds	r4, r2, r4
 3809 002c CF19     		adds	r7, r1, r7
 3810 002e 24B2     		sxth	r4, r4
ARM GAS  /tmp/ccVxBZiF.s 			page 68


 3811              	.LVL373:
 3812 0030 3FB2     		sxth	r7, r7
 3813              	.LVL374:
 3814 0032 5046     		mov	r0, sl
 3815              	.LVL375:
 3816              	.L182:
 3817              		.loc 1 362 0 is_stmt 1
 3818 0034 B5F90A30 		ldrsh	r3, [r5, #10]
 3819 0038 B342     		cmp	r3, r6
 3820 003a 0ADD     		ble	.L183
 3821              		.loc 1 362 0 is_stmt 0 discriminator 1
 3822 003c B6B2     		uxth	r6, r6
 3823 003e 9AB2     		uxth	r2, r3
 3824 0040 B11A     		subs	r1, r6, r2
 3825 0042 961B     		subs	r6, r2, r6
 3826 0044 B444     		add	ip, r6, ip
 3827 0046 8944     		add	r9, r1, r9
 3828 0048 0FFA89F9 		sxth	r9, r9
 3829              	.LVL376:
 3830 004c 0FFA8CFC 		sxth	ip, ip
 3831              	.LVL377:
 3832 0050 1E46     		mov	r6, r3
 3833              	.LVL378:
 3834              	.L183:
 3835              		.loc 1 363 0 is_stmt 1
 3836 0052 3B19     		adds	r3, r7, r4
 3837 0054 4345     		cmp	r3, r8
 3838 0056 C4BF     		itt	gt
 3839 0058 C7EB0804 		rsbgt	r4, r7, r8
 3840              	.LVL379:
 3841 005c 24B2     		sxthgt	r4, r4
 3842              	.LVL380:
 3843              		.loc 1 364 0
 3844 005e 002C     		cmp	r4, #0
 3845 0060 6CDD     		ble	.L181
 3846              		.loc 1 364 0 is_stmt 0 discriminator 2
 3847 0062 B9F1000F 		cmp	r9, #0
 3848 0066 69DD     		ble	.L181
 3849              		.loc 1 364 0 discriminator 1
 3850 0068 AA89     		ldrh	r2, [r5, #12]
 3851 006a 13B2     		sxth	r3, r2
 3852 006c 9842     		cmp	r0, r3
 3853 006e 65DA     		bge	.L181
 3854 0070 334D     		ldr	r5, .L201
 3855 0072 ED89     		ldrh	r5, [r5, #14]
 3856 0074 29B2     		sxth	r1, r5
 3857 0076 8E42     		cmp	r6, r1
 3858 0078 60DA     		bge	.L181
 3859              		.loc 1 365 0 is_stmt 1
 3860 007a 00EB040E 		add	lr, r0, r4
 3861 007e 9E45     		cmp	lr, r3
 3862 0080 C4BF     		itt	gt
 3863 0082 C0EB0202 		rsbgt	r2, r0, r2
 3864 0086 14B2     		sxthgt	r4, r2
 3865              	.LVL381:
 3866              		.loc 1 366 0
 3867 0088 06EB0902 		add	r2, r6, r9
ARM GAS  /tmp/ccVxBZiF.s 			page 69


 3868 008c 8A42     		cmp	r2, r1
 3869 008e 1FFA86FA 		uxth	sl, r6
 3870 0092 C4BF     		itt	gt
 3871 0094 CAEB0505 		rsbgt	r5, sl, r5
 3872 0098 0FFA85F9 		sxthgt	r9, r5
 3873              	.LVL382:
 3874              		.loc 1 369 0
 3875 009c 0B9D     		ldr	r5, [sp, #44]
 3876 009e 08FB0C7C 		mla	ip, r8, ip, r7
 3877              	.LVL383:
 3878              		.loc 1 372 0
 3879 00a2 3146     		mov	r1, r6
 3880 00a4 2246     		mov	r2, r4
 3881 00a6 4B46     		mov	r3, r9
 3882              		.loc 1 369 0
 3883 00a8 05EB4C05 		add	r5, r5, ip, lsl #1
 3884              	.LVL384:
 3885              		.loc 1 372 0
 3886 00ac FFF7FEFF 		bl	set_viewport
 3887              	.LVL385:
 3888              		.loc 1 392 0
 3889 00b0 0AEB0901 		add	r1, sl, r9
 3890              		.loc 1 391 0
 3891 00b4 E019     		adds	r0, r4, r7
 3892              		.loc 1 394 0
 3893 00b6 0FFA81FC 		sxth	ip, r1
 3894              	.LBB1225:
 3895              	.LBB1226:
 3896              		.loc 2 144 0
 3897 00ba 4FF0C042 		mov	r2, #1610612736
 3898              	.LBE1226:
 3899              	.LBE1225:
 3900              		.loc 1 391 0
 3901 00be 83B2     		uxth	r3, r0
 3902              	.LBB1229:
 3903              	.LBB1227:
 3904              		.loc 2 144 0
 3905 00c0 2220     		movs	r0, #34
 3906              	.LBE1227:
 3907              	.LBE1229:
 3908              		.loc 1 394 0
 3909 00c2 6645     		cmp	r6, ip
 3910              	.LBB1230:
 3911              	.LBB1228:
 3912              		.loc 2 144 0
 3913 00c4 1080     		strh	r0, [r2, #0]	@ movhi
 3914              	.LBE1228:
 3915              	.LBE1230:
 3916              		.loc 1 391 0
 3917 00c6 99B2     		uxth	r1, r3
 3918              	.LVL386:
 3919              		.loc 1 393 0
 3920 00c8 C4EB0808 		rsb	r8, r4, r8
 3921              	.LVL387:
 3922              		.loc 1 394 0
 3923 00cc 36DA     		bge	.L181
 3924              		.loc 1 358 0
ARM GAS  /tmp/ccVxBZiF.s 			page 70


 3925 00ce FC43     		mvns	r4, r7
 3926              	.LVL388:
 3927 00d0 1B19     		adds	r3, r3, r4
 3928              	.LVL389:
 3929 00d2 1FFA83F9 		uxth	r9, r3
 3930              	.LVL390:
 3931 00d6 09F10100 		add	r0, r9, #1
 3932              	.LBB1231:
 3933              	.LBB1232:
 3934              		.loc 2 153 0
 3935 00da 0024     		movs	r4, #0
 3936 00dc 4FEA4808 		lsl	r8, r8, #1
 3937              	.LVL391:
 3938              	.LBE1232:
 3939              	.LBE1231:
 3940              		.loc 1 358 0
 3941 00e0 4FEA4009 		lsl	r9, r0, #1
 3942 00e4 09B2     		sxth	r1, r1
 3943              	.LVL392:
 3944              	.LBB1238:
 3945              	.LBB1233:
 3946              		.loc 2 153 0
 3947 00e6 C6F20204 		movt	r4, 24578
 3948              	.LVL393:
 3949              	.L189:
 3950              	.LBE1233:
 3951              	.LBE1238:
 3952              		.loc 1 395 0 discriminator 1
 3953 00ea 8F42     		cmp	r7, r1
 3954 00ec 21DA     		bge	.L191
 3955              		.loc 1 396 0
 3956 00ee 2B46     		mov	r3, r5
 3957              		.loc 1 395 0
 3958 00f0 7A1C     		adds	r2, r7, #1
 3959 00f2 781A     		subs	r0, r7, r1
 3960              		.loc 1 396 0
 3961 00f4 33F802AB 		ldrh	sl, [r3], #2
 3962              	.LVL394:
 3963              		.loc 1 395 0
 3964 00f8 12B2     		sxth	r2, r2
 3965 00fa C043     		mvns	r0, r0
 3966 00fc 9142     		cmp	r1, r2
 3967              	.LBB1239:
 3968              	.LBB1234:
 3969              		.loc 2 153 0
 3970 00fe A4F800A0 		strh	sl, [r4, #0]	@ movhi
 3971 0102 00F00100 		and	r0, r0, #1
 3972              	.LBE1234:
 3973              	.LBE1239:
 3974              		.loc 1 395 0
 3975 0106 13D0     		beq	.L200
 3976 0108 30B1     		cbz	r0, .L190
 3977 010a 0132     		adds	r2, r2, #1
 3978              		.loc 1 396 0
 3979 010c 33F8020B 		ldrh	r0, [r3], #2
 3980              	.LVL395:
 3981              		.loc 1 395 0
ARM GAS  /tmp/ccVxBZiF.s 			page 71


 3982 0110 12B2     		sxth	r2, r2
 3983              	.LVL396:
 3984 0112 9142     		cmp	r1, r2
 3985              	.LBB1240:
 3986              	.LBB1235:
 3987              		.loc 2 153 0
 3988 0114 2080     		strh	r0, [r4, #0]	@ movhi
 3989              	.LBE1235:
 3990              	.LBE1240:
 3991              		.loc 1 395 0
 3992 0116 0BD0     		beq	.L200
 3993              	.L190:
 3994              		.loc 1 396 0 discriminator 2
 3995 0118 1846     		mov	r0, r3
 3996              		.loc 1 395 0 discriminator 2
 3997 011a 0232     		adds	r2, r2, #2
 3998              		.loc 1 396 0 discriminator 2
 3999 011c 30F802AB 		ldrh	sl, [r0], #2
 4000              	.LBB1241:
 4001              	.LBB1236:
 4002              		.loc 2 153 0 discriminator 2
 4003 0120 A4F800A0 		strh	sl, [r4, #0]	@ movhi
 4004              	.LBE1236:
 4005              	.LBE1241:
 4006              		.loc 1 396 0 discriminator 2
 4007 0124 5B88     		ldrh	r3, [r3, #2]
 4008              		.loc 1 395 0 discriminator 2
 4009 0126 12B2     		sxth	r2, r2
 4010              	.LBB1242:
 4011              	.LBB1237:
 4012              		.loc 2 153 0 discriminator 2
 4013 0128 2380     		strh	r3, [r4, #0]	@ movhi
 4014              	.LBE1237:
 4015              	.LBE1242:
 4016              		.loc 1 396 0 discriminator 2
 4017 012a 831C     		adds	r3, r0, #2
 4018              		.loc 1 395 0 discriminator 2
 4019 012c 9142     		cmp	r1, r2
 4020 012e F3D1     		bne	.L190
 4021              	.L200:
 4022 0130 4D44     		add	r5, r5, r9
 4023              	.L191:
 4024              		.loc 1 394 0
 4025 0132 0136     		adds	r6, r6, #1
 4026 0134 36B2     		sxth	r6, r6
 4027              	.LVL397:
 4028 0136 B445     		cmp	ip, r6
 4029 0138 4544     		add	r5, r5, r8
 4030              	.LVL398:
 4031 013a D6D1     		bne	.L189
 4032              	.LVL399:
 4033              	.L181:
 4034 013c BDE8F087 		pop	{r4, r5, r6, r7, r8, r9, sl, pc}
 4035              	.L202:
 4036              		.align	2
 4037              	.L201:
 4038 0140 00000000 		.word	.LANCHOR0
ARM GAS  /tmp/ccVxBZiF.s 			page 72


 4039              		.cfi_endproc
 4040              	.LFE139:
 4041              		.size	gdisp_lld_blit_area_ex, .-gdisp_lld_blit_area_ex
 4042 0144 AFF30080 		.section	.text.gdisp_lld_fill_char,"ax",%progbits
 4042      AFF30080 
 4042      AFF30080 
 4043              		.align	2
 4044              		.p2align 4,,15
 4045              		.global	gdisp_lld_fill_char
 4046              		.thumb
 4047              		.thumb_func
 4048              		.type	gdisp_lld_fill_char, %function
 4049              	gdisp_lld_fill_char:
 4050              	.LFB123:
 4051              		.loc 3 504 0
 4052              		.cfi_startproc
 4053              		@ args = 8, pretend = 0, frame = 40
 4054              		@ frame_needed = 0, uses_anonymous_args = 0
 4055              	.LVL400:
 4056 0000 2DE9F04F 		push	{r4, r5, r6, r7, r8, r9, sl, fp, lr}
 4057              	.LCFI16:
 4058              		.cfi_def_cfa_offset 36
 4059              		.cfi_offset 4, -36
 4060              		.cfi_offset 5, -32
 4061              		.cfi_offset 6, -28
 4062              		.cfi_offset 7, -24
 4063              		.cfi_offset 8, -20
 4064              		.cfi_offset 9, -16
 4065              		.cfi_offset 10, -12
 4066              		.cfi_offset 11, -8
 4067              		.cfi_offset 14, -4
 4068              		.loc 3 509 0
 4069 0004 9C7A     		ldrb	r4, [r3, #10]	@ zero_extendqisi2
 4070              		.loc 3 504 0
 4071 0006 8FB0     		sub	sp, sp, #60
 4072              	.LCFI17:
 4073              		.cfi_def_cfa_offset 96
 4074              		.loc 3 509 0
 4075 0008 9442     		cmp	r4, r2
 4076              		.loc 3 504 0
 4077 000a BDF86050 		ldrh	r5, [sp, #96]
 4078 000e BDF86460 		ldrh	r6, [sp, #100]
 4079 0012 0C90     		str	r0, [sp, #48]
 4080 0014 0D91     		str	r1, [sp, #52]
 4081              		.loc 3 509 0
 4082 0016 00F29280 		bhi	.L203
 4083              		.loc 3 509 0 is_stmt 0 discriminator 1
 4084 001a D97A     		ldrb	r1, [r3, #11]	@ zero_extendqisi2
 4085              	.LVL401:
 4086 001c 9142     		cmp	r1, r2
 4087 001e C0F08E80 		bcc	.L203
 4088 0022 141B     		subs	r4, r2, r4
 4089 0024 1A69     		ldr	r2, [r3, #16]
 4090              	.LVL402:
 4091 0026 115D     		ldrb	r1, [r2, r4]	@ zero_extendqisi2
 4092              	.LVL403:
 4093              		.loc 3 510 0 is_stmt 1 discriminator 1
ARM GAS  /tmp/ccVxBZiF.s 			page 73


 4094 0028 0029     		cmp	r1, #0
 4095 002a 00F08880 		beq	.L203
 4096              		.loc 3 512 0
 4097 002e 187B     		ldrb	r0, [r3, #12]	@ zero_extendqisi2
 4098              	.LVL404:
 4099              		.loc 3 513 0
 4100 0030 5F7B     		ldrb	r7, [r3, #13]	@ zero_extendqisi2
 4101              		.loc 3 514 0
 4102 0032 1A79     		ldrb	r2, [r3, #4]	@ zero_extendqisi2
 4103              		.loc 3 512 0
 4104 0034 0590     		str	r0, [sp, #20]
 4105              	.LVL405:
 4106              		.loc 3 515 0
 4107 0036 00FB01F1 		mul	r1, r0, r1
 4108              	.LVL406:
 4109              		.loc 3 514 0
 4110 003a 02FB07F2 		mul	r2, r2, r7
 4111              	.LVL407:
 4112              		.loc 3 515 0
 4113 003e 0691     		str	r1, [sp, #24]
 4114              	.LBB1243:
 4115              		.loc 3 582 0
 4116 0040 11FB02F1 		smulbb	r1, r1, r2
 4117 0044 B1F5207F 		cmp	r1, #640
 4118 0048 79D8     		bhi	.L203
 4119              		.loc 3 585 0
 4120 004a 5869     		ldr	r0, [r3, #20]
 4121 004c 9B69     		ldr	r3, [r3, #24]
 4122              	.LVL408:
 4123 004e 30F81410 		ldrh	r1, [r0, r4, lsl #1]
 4124              		.loc 3 588 0
 4125 0052 069C     		ldr	r4, [sp, #24]
 4126 0054 24B2     		sxth	r4, r4
 4127              		.loc 3 585 0
 4128 0056 03EB4100 		add	r0, r3, r1, lsl #1
 4129              		.loc 3 588 0
 4130 005a 002C     		cmp	r4, #0
 4131 005c 0994     		str	r4, [sp, #36]
 4132              		.loc 3 585 0
 4133 005e 0B90     		str	r0, [sp, #44]
 4134              	.LVL409:
 4135              		.loc 3 588 0
 4136 0060 40F3A580 		ble	.L252
 4137 0064 5449     		ldr	r1, .L253
 4138              	.LBE1243:
 4139              		.loc 3 504 0
 4140 0066 099C     		ldr	r4, [sp, #36]
 4141 0068 0791     		str	r1, [sp, #28]
 4142 006a 0599     		ldr	r1, [sp, #20]
 4143              		.loc 3 588 0
 4144 006c 0020     		movs	r0, #0
 4145              	.LVL410:
 4146 006e 12B2     		sxth	r2, r2
 4147              	.LVL411:
 4148 0070 0A90     		str	r0, [sp, #40]
 4149              		.loc 3 504 0
 4150 0072 6300     		lsls	r3, r4, #1
ARM GAS  /tmp/ccVxBZiF.s 			page 74


 4151 0074 0492     		str	r2, [sp, #16]
 4152 0076 0FFA81F8 		sxth	r8, r1
 4153 007a 38B2     		sxth	r0, r7
 4154              	.LVL412:
 4155              	.L207:
 4156              	.LBB1244:
 4157              		.loc 3 590 0
 4158 007c 0B9C     		ldr	r4, [sp, #44]
 4159              		.loc 3 593 0
 4160 007e 049A     		ldr	r2, [sp, #16]
 4161              		.loc 3 590 0
 4162 0080 34F802EB 		ldrh	lr, [r4], #2
 4163              		.loc 3 593 0
 4164 0084 002A     		cmp	r2, #0
 4165              		.loc 3 590 0
 4166 0086 0B94     		str	r4, [sp, #44]
 4167              	.LVL413:
 4168              		.loc 3 593 0
 4169 0088 43DD     		ble	.L217
 4170              		.loc 3 504 0
 4171 008a 0A99     		ldr	r1, [sp, #40]
 4172 008c 0CB2     		sxth	r4, r1
 4173              	.LVL414:
 4174              		.loc 3 593 0
 4175 008e 4FF0000C 		mov	ip, #0
 4176              		.loc 3 504 0
 4177 0092 0894     		str	r4, [sp, #32]
 4178              	.LVL415:
 4179              	.L206:
 4180              		.loc 3 594 0
 4181 0094 1EF0010B 		ands	fp, lr, #1
 4182 0098 54D1     		bne	.L209
 4183              	.LVL416:
 4184              		.loc 3 599 0 discriminator 1
 4185 009a 059A     		ldr	r2, [sp, #20]
 4186 009c 72B3     		cbz	r2, .L210
 4187              		.loc 3 504 0
 4188 009e 0699     		ldr	r1, [sp, #24]
 4189 00a0 089C     		ldr	r4, [sp, #32]
 4190 00a2 079A     		ldr	r2, [sp, #28]
 4191 00a4 11FB0C49 		smlabb	r9, r1, ip, r4
 4192 00a8 02EB4909 		add	r9, r2, r9, lsl #1
 4193              	.LVL417:
 4194              	.L211:
 4195              		.loc 3 600 0 discriminator 1
 4196 00ac E7B1     		cbz	r7, .L216
 4197              		.loc 3 600 0 is_stmt 0
 4198 00ae 0122     		movs	r2, #1
 4199              	.LVL418:
 4200 00b0 411E     		subs	r1, r0, #1
 4201 00b2 9042     		cmp	r0, r2
 4202 00b4 01EA0204 		and	r4, r1, r2
 4203              		.loc 3 601 0 is_stmt 1
 4204 00b8 A9F80060 		strh	r6, [r9, #0]	@ movhi
 4205 00bc 1946     		mov	r1, r3
 4206              		.loc 3 600 0
 4207 00be 13DD     		ble	.L216
ARM GAS  /tmp/ccVxBZiF.s 			page 75


 4208 00c0 2CB1     		cbz	r4, .L215
 4209 00c2 0222     		movs	r2, #2
 4210 00c4 5900     		lsls	r1, r3, #1
 4211 00c6 9042     		cmp	r0, r2
 4212              		.loc 3 601 0
 4213 00c8 29F80360 		strh	r6, [r9, r3]	@ movhi
 4214              		.loc 3 600 0
 4215 00cc 0CDD     		ble	.L216
 4216              	.L215:
 4217              		.loc 3 600 0 is_stmt 0 discriminator 2
 4218 00ce 0232     		adds	r2, r2, #2
 4219 00d0 92B2     		uxth	r2, r2
 4220 00d2 CC18     		adds	r4, r1, r3
 4221 00d4 0FFA82FA 		sxth	sl, r2
 4222 00d8 5045     		cmp	r0, sl
 4223              		.loc 3 601 0 is_stmt 1 discriminator 2
 4224 00da 29F80160 		strh	r6, [r9, r1]	@ movhi
 4225 00de 29F80460 		strh	r6, [r9, r4]	@ movhi
 4226 00e2 04EB0301 		add	r1, r4, r3
 4227              		.loc 3 600 0 discriminator 2
 4228 00e6 F2DC     		bgt	.L215
 4229              	.L216:
 4230              		.loc 3 599 0
 4231 00e8 0BF1010B 		add	fp, fp, #1
 4232 00ec 1FFA8BFB 		uxth	fp, fp
 4233              	.LVL419:
 4234 00f0 0FFA8BF1 		sxth	r1, fp
 4235 00f4 8845     		cmp	r8, r1
 4236 00f6 09F10209 		add	r9, r9, #2
 4237 00fa D7DC     		bgt	.L211
 4238              	.LVL420:
 4239              	.L210:
 4240              		.loc 3 504 0
 4241 00fc BC44     		add	ip, r7, ip
 4242 00fe 1FFA8CF4 		uxth	r4, ip
 4243              		.loc 3 593 0
 4244 0102 0499     		ldr	r1, [sp, #16]
 4245 0104 22B2     		sxth	r2, r4
 4246 0106 9142     		cmp	r1, r2
 4247              		.loc 3 504 0
 4248 0108 1FFA84FC 		uxth	ip, r4
 4249              	.LVL421:
 4250              		.loc 3 593 0
 4251 010c 4FEA5E0E 		lsr	lr, lr, #1
 4252              	.LVL422:
 4253 0110 C0DC     		bgt	.L206
 4254              	.LVL423:
 4255              	.L217:
 4256              		.loc 3 504 0
 4257 0112 059A     		ldr	r2, [sp, #20]
 4258 0114 0A9C     		ldr	r4, [sp, #40]
 4259 0116 1119     		adds	r1, r2, r4
 4260 0118 8AB2     		uxth	r2, r1
 4261              		.loc 3 588 0
 4262 011a 11B2     		sxth	r1, r2
 4263              		.loc 3 504 0
 4264 011c 92B2     		uxth	r2, r2
ARM GAS  /tmp/ccVxBZiF.s 			page 76


 4265 011e 0A92     		str	r2, [sp, #40]
 4266              	.LVL424:
 4267              		.loc 3 588 0
 4268 0120 099A     		ldr	r2, [sp, #36]
 4269 0122 8A42     		cmp	r2, r1
 4270 0124 AADC     		bgt	.L207
 4271              	.LVL425:
 4272              	.L208:
 4273              		.loc 3 607 0
 4274 0126 079B     		ldr	r3, [sp, #28]
 4275 0128 099A     		ldr	r2, [sp, #36]
 4276 012a 0393     		str	r3, [sp, #12]
 4277 012c 0020     		movs	r0, #0
 4278 012e 0090     		str	r0, [sp, #0]
 4279 0130 0190     		str	r0, [sp, #4]
 4280 0132 0292     		str	r2, [sp, #8]
 4281 0134 0C98     		ldr	r0, [sp, #48]
 4282 0136 0D99     		ldr	r1, [sp, #52]
 4283 0138 049B     		ldr	r3, [sp, #16]
 4284 013a FFF7FEFF 		bl	gdisp_lld_blit_area_ex
 4285              	.LVL426:
 4286              	.L203:
 4287              	.LBE1244:
 4288              		.loc 3 639 0
 4289 013e 0FB0     		add	sp, sp, #60
 4290 0140 BDE8F08F 		pop	{r4, r5, r6, r7, r8, r9, sl, fp, pc}
 4291              	.LVL427:
 4292              	.L209:
 4293              	.LBB1245:
 4294              		.loc 3 595 0 discriminator 1
 4295 0144 059A     		ldr	r2, [sp, #20]
 4296 0146 002A     		cmp	r2, #0
 4297 0148 D8D0     		beq	.L210
 4298              		.loc 3 504 0
 4299 014a 069C     		ldr	r4, [sp, #24]
 4300 014c 0899     		ldr	r1, [sp, #32]
 4301 014e 079A     		ldr	r2, [sp, #28]
 4302 0150 14FB0C19 		smlabb	r9, r4, ip, r1
 4303 0154 02EB4909 		add	r9, r2, r9, lsl #1
 4304 0158 4FF0000B 		mov	fp, #0
 4305              	.LVL428:
 4306              	.L212:
 4307              		.loc 3 596 0 discriminator 1
 4308 015c E7B1     		cbz	r7, .L214
 4309              		.loc 3 596 0 is_stmt 0
 4310 015e 0122     		movs	r2, #1
 4311              	.LVL429:
 4312 0160 441E     		subs	r4, r0, #1
 4313 0162 9042     		cmp	r0, r2
 4314              		.loc 3 597 0 is_stmt 1
 4315 0164 A9F80050 		strh	r5, [r9, #0]	@ movhi
 4316 0168 04EA0204 		and	r4, r4, r2
 4317 016c 1946     		mov	r1, r3
 4318              		.loc 3 596 0
 4319 016e 13DD     		ble	.L214
 4320 0170 2CB1     		cbz	r4, .L213
 4321 0172 0222     		movs	r2, #2
ARM GAS  /tmp/ccVxBZiF.s 			page 77


 4322 0174 5900     		lsls	r1, r3, #1
 4323 0176 9042     		cmp	r0, r2
 4324              		.loc 3 597 0
 4325 0178 29F80350 		strh	r5, [r9, r3]	@ movhi
 4326              		.loc 3 596 0
 4327 017c 0CDD     		ble	.L214
 4328              	.L213:
 4329              		.loc 3 596 0 is_stmt 0 discriminator 2
 4330 017e 0232     		adds	r2, r2, #2
 4331 0180 92B2     		uxth	r2, r2
 4332 0182 CC18     		adds	r4, r1, r3
 4333 0184 0FFA82FA 		sxth	sl, r2
 4334 0188 5045     		cmp	r0, sl
 4335              		.loc 3 597 0 is_stmt 1 discriminator 2
 4336 018a 29F80150 		strh	r5, [r9, r1]	@ movhi
 4337 018e 29F80450 		strh	r5, [r9, r4]	@ movhi
 4338 0192 04EB0301 		add	r1, r4, r3
 4339              		.loc 3 596 0 discriminator 2
 4340 0196 F2DC     		bgt	.L213
 4341              	.L214:
 4342              		.loc 3 595 0
 4343 0198 0BF1010B 		add	fp, fp, #1
 4344 019c 1FFA8BFB 		uxth	fp, fp
 4345              	.LVL430:
 4346 01a0 0FFA8BF1 		sxth	r1, fp
 4347 01a4 8845     		cmp	r8, r1
 4348 01a6 09F10209 		add	r9, r9, #2
 4349 01aa D7DC     		bgt	.L212
 4350 01ac A6E7     		b	.L210
 4351              	.LVL431:
 4352              	.L252:
 4353 01ae 024B     		ldr	r3, .L253
 4354 01b0 12B2     		sxth	r2, r2
 4355              	.LVL432:
 4356 01b2 0793     		str	r3, [sp, #28]
 4357 01b4 0492     		str	r2, [sp, #16]
 4358 01b6 B6E7     		b	.L208
 4359              	.L254:
 4360              		.align	2
 4361              	.L253:
 4362 01b8 00000000 		.word	.LANCHOR2
 4363              	.LBE1245:
 4364              		.cfi_endproc
 4365              	.LFE123:
 4366              		.size	gdisp_lld_fill_char, .-gdisp_lld_fill_char
 4367              		.global	GDISP
 4368 01bc AFF30080 		.section	.rodata
 4369              		.align	2
 4370              		.set	.LANCHOR1,. + 0
 4371              	.LC0:
 4372 0000 000C0240 		.word	1073875968
 4373 0004 B3CF0000 		.word	53171
 4374 0008 00000000 		.word	0
 4375              	.LC1:
 4376 000c 00100240 		.word	1073876992
 4377 0010 80FF0000 		.word	65408
 4378 0014 00000000 		.word	0
ARM GAS  /tmp/ccVxBZiF.s 			page 78


 4379              		.section	.bss.buf.8094,"aw",%nobits
 4380              		.align	2
 4381              		.set	.LANCHOR2,. + 0
 4382              		.type	buf.8094, %object
 4383              		.size	buf.8094, 1280
 4384              	buf.8094:
 4385 0000 00000000 		.space	1280
 4385      00000000 
 4385      00000000 
 4385      00000000 
 4385      00000000 
 4386              		.section	.bss.GDISP,"aw",%nobits
 4387              		.align	2
 4388              		.set	.LANCHOR0,. + 0
 4389              		.type	GDISP, %object
 4390              		.size	GDISP, 16
 4391              	GDISP:
 4392 0000 00000000 		.space	16
 4392      00000000 
 4392      00000000 
 4392      00000000 
 4393              		.text
 4394              	.Letext0:
 4395              		.file 4 "/usr/bin/../lib/gcc/arm-none-eabi/4.7.4/../../../../arm-none-eabi/include/stdint.h"
 4396              		.file 5 "../../os/ports/GCC/ARMCMx/chtypes.h"
 4397              		.file 6 "../../os/hal/platforms/STM32F4xx/stm32f4xx.h"
 4398              		.file 7 "../../os/hal/platforms/STM32/GPIOv2/pal_lld.h"
 4399              		.file 8 "../../os/hal/include/pal.h"
 4400              		.file 9 "../../ext/ugfx/include/gos/chibios.h"
 4401              		.file 10 "../../ext/ugfx/include/gdisp/gdisp.h"
 4402              		.file 11 "../../ext/ugfx/include/gdisp/fonts.h"
 4403              		.file 12 "../../os/ports/common/ARMCMx/CMSIS/include/core_cm4.h"
 4404              		.section	.debug_info,"",%progbits
 4405              	.Ldebug_info0:
 4406 0000 B8270000 		.4byte	0x27b8
 4407 0004 0200     		.2byte	0x2
 4408 0006 00000000 		.4byte	.Ldebug_abbrev0
 4409 000a 04       		.byte	0x4
 4410 000b 01       		.uleb128 0x1
 4411 000c 2B030000 		.4byte	.LASF157
 4412 0010 01       		.byte	0x1
 4413 0011 5B010000 		.4byte	.LASF158
 4414 0015 41050000 		.4byte	.LASF159
 4415 0019 B8070000 		.4byte	.Ldebug_ranges0+0x7b8
 4416 001d 00000000 		.4byte	0
 4417 0021 00000000 		.4byte	0
 4418 0025 00000000 		.4byte	.Ldebug_line0
 4419 0029 02       		.uleb128 0x2
 4420 002a 04       		.byte	0x4
 4421 002b 05       		.byte	0x5
 4422 002c 696E7400 		.ascii	"int\000"
 4423 0030 03       		.uleb128 0x3
 4424 0031 04       		.byte	0x4
 4425 0032 07       		.byte	0x7
 4426 0033 15020000 		.4byte	.LASF0
 4427 0037 03       		.uleb128 0x3
 4428 0038 01       		.byte	0x1
ARM GAS  /tmp/ccVxBZiF.s 			page 79


 4429 0039 06       		.byte	0x6
 4430 003a F2000000 		.4byte	.LASF1
 4431 003e 04       		.uleb128 0x4
 4432 003f 94060000 		.4byte	.LASF3
 4433 0043 04       		.byte	0x4
 4434 0044 2A       		.byte	0x2a
 4435 0045 49000000 		.4byte	0x49
 4436 0049 03       		.uleb128 0x3
 4437 004a 01       		.byte	0x1
 4438 004b 08       		.byte	0x8
 4439 004c C6040000 		.4byte	.LASF2
 4440 0050 04       		.uleb128 0x4
 4441 0051 DC000000 		.4byte	.LASF4
 4442 0055 04       		.byte	0x4
 4443 0056 35       		.byte	0x35
 4444 0057 5B000000 		.4byte	0x5b
 4445 005b 03       		.uleb128 0x3
 4446 005c 02       		.byte	0x2
 4447 005d 05       		.byte	0x5
 4448 005e 21030000 		.4byte	.LASF5
 4449 0062 04       		.uleb128 0x4
 4450 0063 3F020000 		.4byte	.LASF6
 4451 0067 04       		.byte	0x4
 4452 0068 36       		.byte	0x36
 4453 0069 6D000000 		.4byte	0x6d
 4454 006d 03       		.uleb128 0x3
 4455 006e 02       		.byte	0x2
 4456 006f 07       		.byte	0x7
 4457 0070 BE020000 		.4byte	.LASF7
 4458 0074 04       		.uleb128 0x4
 4459 0075 BE040000 		.4byte	.LASF8
 4460 0079 04       		.byte	0x4
 4461 007a 4F       		.byte	0x4f
 4462 007b 7F000000 		.4byte	0x7f
 4463 007f 03       		.uleb128 0x3
 4464 0080 04       		.byte	0x4
 4465 0081 05       		.byte	0x5
 4466 0082 63000000 		.4byte	.LASF9
 4467 0086 04       		.uleb128 0x4
 4468 0087 8C050000 		.4byte	.LASF10
 4469 008b 04       		.byte	0x4
 4470 008c 50       		.byte	0x50
 4471 008d 91000000 		.4byte	0x91
 4472 0091 03       		.uleb128 0x3
 4473 0092 04       		.byte	0x4
 4474 0093 07       		.byte	0x7
 4475 0094 5D020000 		.4byte	.LASF11
 4476 0098 03       		.uleb128 0x3
 4477 0099 08       		.byte	0x8
 4478 009a 05       		.byte	0x5
 4479 009b E4000000 		.4byte	.LASF12
 4480 009f 03       		.uleb128 0x3
 4481 00a0 08       		.byte	0x8
 4482 00a1 07       		.byte	0x7
 4483 00a2 84000000 		.4byte	.LASF13
 4484 00a6 04       		.uleb128 0x4
 4485 00a7 0F050000 		.4byte	.LASF14
ARM GAS  /tmp/ccVxBZiF.s 			page 80


 4486 00ab 04       		.byte	0x4
 4487 00ac A0       		.byte	0xa0
 4488 00ad 30000000 		.4byte	0x30
 4489 00b1 04       		.uleb128 0x4
 4490 00b2 14010000 		.4byte	.LASF15
 4491 00b6 05       		.byte	0x5
 4492 00b7 24       		.byte	0x24
 4493 00b8 BC000000 		.4byte	0xbc
 4494 00bc 03       		.uleb128 0x3
 4495 00bd 01       		.byte	0x1
 4496 00be 02       		.byte	0x2
 4497 00bf B8040000 		.4byte	.LASF16
 4498 00c3 04       		.uleb128 0x4
 4499 00c4 EF050000 		.4byte	.LASF17
 4500 00c8 05       		.byte	0x5
 4501 00c9 2E       		.byte	0x2e
 4502 00ca 86000000 		.4byte	0x86
 4503 00ce 05       		.uleb128 0x5
 4504 00cf 86000000 		.4byte	0x86
 4505 00d3 03       		.uleb128 0x3
 4506 00d4 04       		.byte	0x4
 4507 00d5 07       		.byte	0x7
 4508 00d6 B3030000 		.4byte	.LASF18
 4509 00da 06       		.uleb128 0x6
 4510 00db 04       		.byte	0x4
 4511 00dc E0000000 		.4byte	0xe0
 4512 00e0 07       		.uleb128 0x7
 4513 00e1 E5000000 		.4byte	0xe5
 4514 00e5 03       		.uleb128 0x3
 4515 00e6 01       		.byte	0x1
 4516 00e7 08       		.byte	0x8
 4517 00e8 BF050000 		.4byte	.LASF19
 4518 00ec 06       		.uleb128 0x6
 4519 00ed 04       		.byte	0x4
 4520 00ee F2000000 		.4byte	0xf2
 4521 00f2 07       		.uleb128 0x7
 4522 00f3 3E000000 		.4byte	0x3e
 4523 00f7 08       		.uleb128 0x8
 4524 00f8 86000000 		.4byte	0x86
 4525 00fc 07010000 		.4byte	0x107
 4526 0100 09       		.uleb128 0x9
 4527 0101 D3000000 		.4byte	0xd3
 4528 0105 07       		.byte	0x7
 4529 0106 00       		.byte	0
 4530 0107 08       		.uleb128 0x8
 4531 0108 86000000 		.4byte	0x86
 4532 010c 17010000 		.4byte	0x117
 4533 0110 09       		.uleb128 0x9
 4534 0111 D3000000 		.4byte	0xd3
 4535 0115 01       		.byte	0x1
 4536 0116 00       		.byte	0
 4537 0117 05       		.uleb128 0x5
 4538 0118 74000000 		.4byte	0x74
 4539 011c 07       		.uleb128 0x7
 4540 011d 62000000 		.4byte	0x62
 4541 0121 0A       		.uleb128 0xa
 4542 0122 20       		.byte	0x20
ARM GAS  /tmp/ccVxBZiF.s 			page 81


 4543 0123 06       		.byte	0x6
 4544 0124 4F02     		.2byte	0x24f
 4545 0126 3A010000 		.4byte	0x13a
 4546 012a 0B       		.uleb128 0xb
 4547 012b 24070000 		.4byte	.LASF21
 4548 012f 06       		.byte	0x6
 4549 0130 5102     		.2byte	0x251
 4550 0132 3A010000 		.4byte	0x13a
 4551 0136 02       		.byte	0x2
 4552 0137 23       		.byte	0x23
 4553 0138 00       		.uleb128 0
 4554 0139 00       		.byte	0
 4555 013a 05       		.uleb128 0x5
 4556 013b F7000000 		.4byte	0xf7
 4557 013f 0C       		.uleb128 0xc
 4558 0140 79050000 		.4byte	.LASF20
 4559 0144 06       		.byte	0x6
 4560 0145 5202     		.2byte	0x252
 4561 0147 21010000 		.4byte	0x121
 4562 014b 0A       		.uleb128 0xa
 4563 014c 88       		.byte	0x88
 4564 014d 06       		.byte	0x6
 4565 014e DB02     		.2byte	0x2db
 4566 0150 18030000 		.4byte	0x318
 4567 0154 0D       		.uleb128 0xd
 4568 0155 435200   		.ascii	"CR\000"
 4569 0158 06       		.byte	0x6
 4570 0159 DD02     		.2byte	0x2dd
 4571 015b CE000000 		.4byte	0xce
 4572 015f 02       		.byte	0x2
 4573 0160 23       		.byte	0x23
 4574 0161 00       		.uleb128 0
 4575 0162 0B       		.uleb128 0xb
 4576 0163 99010000 		.4byte	.LASF22
 4577 0167 06       		.byte	0x6
 4578 0168 DE02     		.2byte	0x2de
 4579 016a CE000000 		.4byte	0xce
 4580 016e 02       		.byte	0x2
 4581 016f 23       		.byte	0x23
 4582 0170 04       		.uleb128 0x4
 4583 0171 0B       		.uleb128 0xb
 4584 0172 F8060000 		.4byte	.LASF23
 4585 0176 06       		.byte	0x6
 4586 0177 DF02     		.2byte	0x2df
 4587 0179 CE000000 		.4byte	0xce
 4588 017d 02       		.byte	0x2
 4589 017e 23       		.byte	0x23
 4590 017f 08       		.uleb128 0x8
 4591 0180 0D       		.uleb128 0xd
 4592 0181 43495200 		.ascii	"CIR\000"
 4593 0185 06       		.byte	0x6
 4594 0186 E002     		.2byte	0x2e0
 4595 0188 CE000000 		.4byte	0xce
 4596 018c 02       		.byte	0x2
 4597 018d 23       		.byte	0x23
 4598 018e 0C       		.uleb128 0xc
 4599 018f 0B       		.uleb128 0xb
ARM GAS  /tmp/ccVxBZiF.s 			page 82


 4600 0190 03010000 		.4byte	.LASF24
 4601 0194 06       		.byte	0x6
 4602 0195 E102     		.2byte	0x2e1
 4603 0197 CE000000 		.4byte	0xce
 4604 019b 02       		.byte	0x2
 4605 019c 23       		.byte	0x23
 4606 019d 10       		.uleb128 0x10
 4607 019e 0B       		.uleb128 0xb
 4608 019f D6050000 		.4byte	.LASF25
 4609 01a3 06       		.byte	0x6
 4610 01a4 E202     		.2byte	0x2e2
 4611 01a6 CE000000 		.4byte	0xce
 4612 01aa 02       		.byte	0x2
 4613 01ab 23       		.byte	0x23
 4614 01ac 14       		.uleb128 0x14
 4615 01ad 0B       		.uleb128 0xb
 4616 01ae F8020000 		.4byte	.LASF26
 4617 01b2 06       		.byte	0x6
 4618 01b3 E302     		.2byte	0x2e3
 4619 01b5 CE000000 		.4byte	0xce
 4620 01b9 02       		.byte	0x2
 4621 01ba 23       		.byte	0x23
 4622 01bb 18       		.uleb128 0x18
 4623 01bc 0B       		.uleb128 0xb
 4624 01bd 2B050000 		.4byte	.LASF27
 4625 01c1 06       		.byte	0x6
 4626 01c2 E402     		.2byte	0x2e4
 4627 01c4 86000000 		.4byte	0x86
 4628 01c8 02       		.byte	0x2
 4629 01c9 23       		.byte	0x23
 4630 01ca 1C       		.uleb128 0x1c
 4631 01cb 0B       		.uleb128 0xb
 4632 01cc 2A040000 		.4byte	.LASF28
 4633 01d0 06       		.byte	0x6
 4634 01d1 E502     		.2byte	0x2e5
 4635 01d3 CE000000 		.4byte	0xce
 4636 01d7 02       		.byte	0x2
 4637 01d8 23       		.byte	0x23
 4638 01d9 20       		.uleb128 0x20
 4639 01da 0B       		.uleb128 0xb
 4640 01db 3C010000 		.4byte	.LASF29
 4641 01df 06       		.byte	0x6
 4642 01e0 E602     		.2byte	0x2e6
 4643 01e2 CE000000 		.4byte	0xce
 4644 01e6 02       		.byte	0x2
 4645 01e7 23       		.byte	0x23
 4646 01e8 24       		.uleb128 0x24
 4647 01e9 0B       		.uleb128 0xb
 4648 01ea 6E040000 		.4byte	.LASF30
 4649 01ee 06       		.byte	0x6
 4650 01ef E702     		.2byte	0x2e7
 4651 01f1 07010000 		.4byte	0x107
 4652 01f5 02       		.byte	0x2
 4653 01f6 23       		.byte	0x23
 4654 01f7 28       		.uleb128 0x28
 4655 01f8 0B       		.uleb128 0xb
 4656 01f9 D2060000 		.4byte	.LASF31
ARM GAS  /tmp/ccVxBZiF.s 			page 83


 4657 01fd 06       		.byte	0x6
 4658 01fe E802     		.2byte	0x2e8
 4659 0200 CE000000 		.4byte	0xce
 4660 0204 02       		.byte	0x2
 4661 0205 23       		.byte	0x23
 4662 0206 30       		.uleb128 0x30
 4663 0207 0B       		.uleb128 0xb
 4664 0208 38060000 		.4byte	.LASF32
 4665 020c 06       		.byte	0x6
 4666 020d E902     		.2byte	0x2e9
 4667 020f CE000000 		.4byte	0xce
 4668 0213 02       		.byte	0x2
 4669 0214 23       		.byte	0x23
 4670 0215 34       		.uleb128 0x34
 4671 0216 0B       		.uleb128 0xb
 4672 0217 7C020000 		.4byte	.LASF33
 4673 021b 06       		.byte	0x6
 4674 021c EA02     		.2byte	0x2ea
 4675 021e CE000000 		.4byte	0xce
 4676 0222 02       		.byte	0x2
 4677 0223 23       		.byte	0x23
 4678 0224 38       		.uleb128 0x38
 4679 0225 0B       		.uleb128 0xb
 4680 0226 78040000 		.4byte	.LASF34
 4681 022a 06       		.byte	0x6
 4682 022b EB02     		.2byte	0x2eb
 4683 022d 86000000 		.4byte	0x86
 4684 0231 02       		.byte	0x2
 4685 0232 23       		.byte	0x23
 4686 0233 3C       		.uleb128 0x3c
 4687 0234 0B       		.uleb128 0xb
 4688 0235 1E060000 		.4byte	.LASF35
 4689 0239 06       		.byte	0x6
 4690 023a EC02     		.2byte	0x2ec
 4691 023c CE000000 		.4byte	0xce
 4692 0240 02       		.byte	0x2
 4693 0241 23       		.byte	0x23
 4694 0242 40       		.uleb128 0x40
 4695 0243 0B       		.uleb128 0xb
 4696 0244 23050000 		.4byte	.LASF36
 4697 0248 06       		.byte	0x6
 4698 0249 ED02     		.2byte	0x2ed
 4699 024b CE000000 		.4byte	0xce
 4700 024f 02       		.byte	0x2
 4701 0250 23       		.byte	0x23
 4702 0251 44       		.uleb128 0x44
 4703 0252 0B       		.uleb128 0xb
 4704 0253 82040000 		.4byte	.LASF37
 4705 0257 06       		.byte	0x6
 4706 0258 EE02     		.2byte	0x2ee
 4707 025a 07010000 		.4byte	0x107
 4708 025e 02       		.byte	0x2
 4709 025f 23       		.byte	0x23
 4710 0260 48       		.uleb128 0x48
 4711 0261 0B       		.uleb128 0xb
 4712 0262 D2000000 		.4byte	.LASF38
 4713 0266 06       		.byte	0x6
ARM GAS  /tmp/ccVxBZiF.s 			page 84


 4714 0267 EF02     		.2byte	0x2ef
 4715 0269 CE000000 		.4byte	0xce
 4716 026d 02       		.byte	0x2
 4717 026e 23       		.byte	0x23
 4718 026f 50       		.uleb128 0x50
 4719 0270 0B       		.uleb128 0xb
 4720 0271 EB030000 		.4byte	.LASF39
 4721 0275 06       		.byte	0x6
 4722 0276 F002     		.2byte	0x2f0
 4723 0278 CE000000 		.4byte	0xce
 4724 027c 02       		.byte	0x2
 4725 027d 23       		.byte	0x23
 4726 027e 54       		.uleb128 0x54
 4727 027f 0B       		.uleb128 0xb
 4728 0280 05050000 		.4byte	.LASF40
 4729 0284 06       		.byte	0x6
 4730 0285 F102     		.2byte	0x2f1
 4731 0287 CE000000 		.4byte	0xce
 4732 028b 02       		.byte	0x2
 4733 028c 23       		.byte	0x23
 4734 028d 58       		.uleb128 0x58
 4735 028e 0B       		.uleb128 0xb
 4736 028f 8C040000 		.4byte	.LASF41
 4737 0293 06       		.byte	0x6
 4738 0294 F202     		.2byte	0x2f2
 4739 0296 86000000 		.4byte	0x86
 4740 029a 02       		.byte	0x2
 4741 029b 23       		.byte	0x23
 4742 029c 5C       		.uleb128 0x5c
 4743 029d 0B       		.uleb128 0xb
 4744 029e D1020000 		.4byte	.LASF42
 4745 02a2 06       		.byte	0x6
 4746 02a3 F302     		.2byte	0x2f3
 4747 02a5 CE000000 		.4byte	0xce
 4748 02a9 02       		.byte	0x2
 4749 02aa 23       		.byte	0x23
 4750 02ab 60       		.uleb128 0x60
 4751 02ac 0B       		.uleb128 0xb
 4752 02ad 17030000 		.4byte	.LASF43
 4753 02b1 06       		.byte	0x6
 4754 02b2 F402     		.2byte	0x2f4
 4755 02b4 CE000000 		.4byte	0xce
 4756 02b8 02       		.byte	0x2
 4757 02b9 23       		.byte	0x23
 4758 02ba 64       		.uleb128 0x64
 4759 02bb 0B       		.uleb128 0xb
 4760 02bc 96040000 		.4byte	.LASF44
 4761 02c0 06       		.byte	0x6
 4762 02c1 F502     		.2byte	0x2f5
 4763 02c3 07010000 		.4byte	0x107
 4764 02c7 02       		.byte	0x2
 4765 02c8 23       		.byte	0x23
 4766 02c9 68       		.uleb128 0x68
 4767 02ca 0B       		.uleb128 0xb
 4768 02cb AC050000 		.4byte	.LASF45
 4769 02cf 06       		.byte	0x6
 4770 02d0 F602     		.2byte	0x2f6
ARM GAS  /tmp/ccVxBZiF.s 			page 85


 4771 02d2 CE000000 		.4byte	0xce
 4772 02d6 02       		.byte	0x2
 4773 02d7 23       		.byte	0x23
 4774 02d8 70       		.uleb128 0x70
 4775 02d9 0D       		.uleb128 0xd
 4776 02da 43535200 		.ascii	"CSR\000"
 4777 02de 06       		.byte	0x6
 4778 02df F702     		.2byte	0x2f7
 4779 02e1 CE000000 		.4byte	0xce
 4780 02e5 02       		.byte	0x2
 4781 02e6 23       		.byte	0x23
 4782 02e7 74       		.uleb128 0x74
 4783 02e8 0B       		.uleb128 0xb
 4784 02e9 A0040000 		.4byte	.LASF46
 4785 02ed 06       		.byte	0x6
 4786 02ee F802     		.2byte	0x2f8
 4787 02f0 07010000 		.4byte	0x107
 4788 02f4 02       		.byte	0x2
 4789 02f5 23       		.byte	0x23
 4790 02f6 78       		.uleb128 0x78
 4791 02f7 0B       		.uleb128 0xb
 4792 02f8 72060000 		.4byte	.LASF47
 4793 02fc 06       		.byte	0x6
 4794 02fd F902     		.2byte	0x2f9
 4795 02ff CE000000 		.4byte	0xce
 4796 0303 03       		.byte	0x3
 4797 0304 23       		.byte	0x23
 4798 0305 8001     		.uleb128 0x80
 4799 0307 0B       		.uleb128 0xb
 4800 0308 DB020000 		.4byte	.LASF48
 4801 030c 06       		.byte	0x6
 4802 030d FA02     		.2byte	0x2fa
 4803 030f CE000000 		.4byte	0xce
 4804 0313 03       		.byte	0x3
 4805 0314 23       		.byte	0x23
 4806 0315 8401     		.uleb128 0x84
 4807 0317 00       		.byte	0
 4808 0318 0C       		.uleb128 0xc
 4809 0319 84020000 		.4byte	.LASF49
 4810 031d 06       		.byte	0x6
 4811 031e FB02     		.2byte	0x2fb
 4812 0320 4B010000 		.4byte	0x14b
 4813 0324 0E       		.uleb128 0xe
 4814 0325 04       		.byte	0x4
 4815 0326 07       		.byte	0x7
 4816 0327 96       		.byte	0x96
 4817 0328 49030000 		.4byte	0x349
 4818 032c 0F       		.uleb128 0xf
 4819 032d 73657400 		.ascii	"set\000"
 4820 0331 07       		.byte	0x7
 4821 0332 97       		.byte	0x97
 4822 0333 62000000 		.4byte	0x62
 4823 0337 02       		.byte	0x2
 4824 0338 23       		.byte	0x23
 4825 0339 00       		.uleb128 0
 4826 033a 10       		.uleb128 0x10
 4827 033b BC030000 		.4byte	.LASF50
ARM GAS  /tmp/ccVxBZiF.s 			page 86


 4828 033f 07       		.byte	0x7
 4829 0340 98       		.byte	0x98
 4830 0341 62000000 		.4byte	0x62
 4831 0345 02       		.byte	0x2
 4832 0346 23       		.byte	0x23
 4833 0347 02       		.uleb128 0x2
 4834 0348 00       		.byte	0
 4835 0349 11       		.uleb128 0x11
 4836 034a 04       		.byte	0x4
 4837 034b 07       		.byte	0x7
 4838 034c 94       		.byte	0x94
 4839 034d 64030000 		.4byte	0x364
 4840 0351 12       		.uleb128 0x12
 4841 0352 5700     		.ascii	"W\000"
 4842 0354 07       		.byte	0x7
 4843 0355 95       		.byte	0x95
 4844 0356 86000000 		.4byte	0x86
 4845 035a 12       		.uleb128 0x12
 4846 035b 4800     		.ascii	"H\000"
 4847 035d 07       		.byte	0x7
 4848 035e 99       		.byte	0x99
 4849 035f 24030000 		.4byte	0x324
 4850 0363 00       		.byte	0
 4851 0364 0E       		.uleb128 0xe
 4852 0365 28       		.byte	0x28
 4853 0366 07       		.byte	0x7
 4854 0367 8C       		.byte	0x8c
 4855 0368 F9030000 		.4byte	0x3f9
 4856 036c 10       		.uleb128 0x10
 4857 036d 75000000 		.4byte	.LASF51
 4858 0371 07       		.byte	0x7
 4859 0372 8E       		.byte	0x8e
 4860 0373 CE000000 		.4byte	0xce
 4861 0377 02       		.byte	0x2
 4862 0378 23       		.byte	0x23
 4863 0379 00       		.uleb128 0
 4864 037a 10       		.uleb128 0x10
 4865 037b 48000000 		.4byte	.LASF52
 4866 037f 07       		.byte	0x7
 4867 0380 8F       		.byte	0x8f
 4868 0381 CE000000 		.4byte	0xce
 4869 0385 02       		.byte	0x2
 4870 0386 23       		.byte	0x23
 4871 0387 04       		.uleb128 0x4
 4872 0388 10       		.uleb128 0x10
 4873 0389 CA010000 		.4byte	.LASF53
 4874 038d 07       		.byte	0x7
 4875 038e 90       		.byte	0x90
 4876 038f CE000000 		.4byte	0xce
 4877 0393 02       		.byte	0x2
 4878 0394 23       		.byte	0x23
 4879 0395 08       		.uleb128 0x8
 4880 0396 10       		.uleb128 0x10
 4881 0397 1E000000 		.4byte	.LASF54
 4882 039b 07       		.byte	0x7
 4883 039c 91       		.byte	0x91
 4884 039d CE000000 		.4byte	0xce
ARM GAS  /tmp/ccVxBZiF.s 			page 87


 4885 03a1 02       		.byte	0x2
 4886 03a2 23       		.byte	0x23
 4887 03a3 0C       		.uleb128 0xc
 4888 03a4 0F       		.uleb128 0xf
 4889 03a5 49445200 		.ascii	"IDR\000"
 4890 03a9 07       		.byte	0x7
 4891 03aa 92       		.byte	0x92
 4892 03ab CE000000 		.4byte	0xce
 4893 03af 02       		.byte	0x2
 4894 03b0 23       		.byte	0x23
 4895 03b1 10       		.uleb128 0x10
 4896 03b2 0F       		.uleb128 0xf
 4897 03b3 4F445200 		.ascii	"ODR\000"
 4898 03b7 07       		.byte	0x7
 4899 03b8 93       		.byte	0x93
 4900 03b9 CE000000 		.4byte	0xce
 4901 03bd 02       		.byte	0x2
 4902 03be 23       		.byte	0x23
 4903 03bf 14       		.uleb128 0x14
 4904 03c0 10       		.uleb128 0x10
 4905 03c1 FE000000 		.4byte	.LASF55
 4906 03c5 07       		.byte	0x7
 4907 03c6 9A       		.byte	0x9a
 4908 03c7 F9030000 		.4byte	0x3f9
 4909 03cb 02       		.byte	0x2
 4910 03cc 23       		.byte	0x23
 4911 03cd 18       		.uleb128 0x18
 4912 03ce 10       		.uleb128 0x10
 4913 03cf 24000000 		.4byte	.LASF56
 4914 03d3 07       		.byte	0x7
 4915 03d4 9B       		.byte	0x9b
 4916 03d5 CE000000 		.4byte	0xce
 4917 03d9 02       		.byte	0x2
 4918 03da 23       		.byte	0x23
 4919 03db 1C       		.uleb128 0x1c
 4920 03dc 10       		.uleb128 0x10
 4921 03dd 4D040000 		.4byte	.LASF57
 4922 03e1 07       		.byte	0x7
 4923 03e2 9C       		.byte	0x9c
 4924 03e3 CE000000 		.4byte	0xce
 4925 03e7 02       		.byte	0x2
 4926 03e8 23       		.byte	0x23
 4927 03e9 20       		.uleb128 0x20
 4928 03ea 10       		.uleb128 0x10
 4929 03eb 3A040000 		.4byte	.LASF58
 4930 03ef 07       		.byte	0x7
 4931 03f0 9D       		.byte	0x9d
 4932 03f1 CE000000 		.4byte	0xce
 4933 03f5 02       		.byte	0x2
 4934 03f6 23       		.byte	0x23
 4935 03f7 24       		.uleb128 0x24
 4936 03f8 00       		.byte	0
 4937 03f9 05       		.uleb128 0x5
 4938 03fa 49030000 		.4byte	0x349
 4939 03fe 04       		.uleb128 0x4
 4940 03ff 6F020000 		.4byte	.LASF59
 4941 0403 07       		.byte	0x7
ARM GAS  /tmp/ccVxBZiF.s 			page 88


 4942 0404 9E       		.byte	0x9e
 4943 0405 64030000 		.4byte	0x364
 4944 0409 04       		.uleb128 0x4
 4945 040a C2030000 		.4byte	.LASF60
 4946 040e 07       		.byte	0x7
 4947 040f E8       		.byte	0xe8
 4948 0410 86000000 		.4byte	0x86
 4949 0414 04       		.uleb128 0x4
 4950 0415 1B070000 		.4byte	.LASF61
 4951 0419 07       		.byte	0x7
 4952 041a ED       		.byte	0xed
 4953 041b 86000000 		.4byte	0x86
 4954 041f 04       		.uleb128 0x4
 4955 0420 26060000 		.4byte	.LASF62
 4956 0424 07       		.byte	0x7
 4957 0425 F5       		.byte	0xf5
 4958 0426 2A040000 		.4byte	0x42a
 4959 042a 06       		.uleb128 0x6
 4960 042b 04       		.byte	0x4
 4961 042c FE030000 		.4byte	0x3fe
 4962 0430 0E       		.uleb128 0xe
 4963 0431 0C       		.byte	0xc
 4964 0432 08       		.byte	0x8
 4965 0433 7E       		.byte	0x7e
 4966 0434 63040000 		.4byte	0x463
 4967 0438 10       		.uleb128 0x10
 4968 0439 33040000 		.4byte	.LASF63
 4969 043d 08       		.byte	0x8
 4970 043e 82       		.byte	0x82
 4971 043f 1F040000 		.4byte	0x41f
 4972 0443 02       		.byte	0x2
 4973 0444 23       		.byte	0x23
 4974 0445 00       		.uleb128 0
 4975 0446 10       		.uleb128 0x10
 4976 0447 D2010000 		.4byte	.LASF64
 4977 044b 08       		.byte	0x8
 4978 044c 88       		.byte	0x88
 4979 044d 09040000 		.4byte	0x409
 4980 0451 02       		.byte	0x2
 4981 0452 23       		.byte	0x23
 4982 0453 04       		.uleb128 0x4
 4983 0454 10       		.uleb128 0x10
 4984 0455 17060000 		.4byte	.LASF65
 4985 0459 08       		.byte	0x8
 4986 045a 8C       		.byte	0x8c
 4987 045b A6000000 		.4byte	0xa6
 4988 045f 02       		.byte	0x2
 4989 0460 23       		.byte	0x23
 4990 0461 08       		.uleb128 0x8
 4991 0462 00       		.byte	0
 4992 0463 04       		.uleb128 0x4
 4993 0464 03020000 		.4byte	.LASF66
 4994 0468 08       		.byte	0x8
 4995 0469 8D       		.byte	0x8d
 4996 046a 30040000 		.4byte	0x430
 4997 046e 04       		.uleb128 0x4
 4998 046f 35050000 		.4byte	.LASF67
ARM GAS  /tmp/ccVxBZiF.s 			page 89


 4999 0473 09       		.byte	0x9
 5000 0474 24       		.byte	0x24
 5001 0475 C3000000 		.4byte	0xc3
 5002 0479 04       		.uleb128 0x4
 5003 047a 01040000 		.4byte	.LASF68
 5004 047e 0A       		.byte	0xa
 5005 047f 23       		.byte	0x23
 5006 0480 50000000 		.4byte	0x50
 5007 0484 04       		.uleb128 0x4
 5008 0485 CB060000 		.4byte	.LASF69
 5009 0489 0A       		.byte	0xa
 5010 048a 42       		.byte	0x42
 5011 048b 8F040000 		.4byte	0x48f
 5012 048f 06       		.uleb128 0x6
 5013 0490 04       		.byte	0x4
 5014 0491 95040000 		.4byte	0x495
 5015 0495 07       		.uleb128 0x7
 5016 0496 9A040000 		.4byte	0x49a
 5017 049a 13       		.uleb128 0x13
 5018 049b 80060000 		.4byte	.LASF96
 5019 049f 1C       		.byte	0x1c
 5020 04a0 0B       		.byte	0xb
 5021 04a1 2C       		.byte	0x2c
 5022 04a2 6B050000 		.4byte	0x56b
 5023 04a6 10       		.uleb128 0x10
 5024 04a7 B4020000 		.4byte	.LASF70
 5025 04ab 0B       		.byte	0xb
 5026 04ac 2D       		.byte	0x2d
 5027 04ad DA000000 		.4byte	0xda
 5028 04b1 02       		.byte	0x2
 5029 04b2 23       		.byte	0x23
 5030 04b3 00       		.uleb128 0
 5031 04b4 10       		.uleb128 0x10
 5032 04b5 03070000 		.4byte	.LASF71
 5033 04b9 0B       		.byte	0xb
 5034 04ba 2E       		.byte	0x2e
 5035 04bb 3E000000 		.4byte	0x3e
 5036 04bf 02       		.byte	0x2
 5037 04c0 23       		.byte	0x23
 5038 04c1 04       		.uleb128 0x4
 5039 04c2 10       		.uleb128 0x10
 5040 04c3 29000000 		.4byte	.LASF72
 5041 04c7 0B       		.byte	0xb
 5042 04c8 2F       		.byte	0x2f
 5043 04c9 3E000000 		.4byte	0x3e
 5044 04cd 02       		.byte	0x2
 5045 04ce 23       		.byte	0x23
 5046 04cf 05       		.uleb128 0x5
 5047 04d0 10       		.uleb128 0x10
 5048 04d1 51020000 		.4byte	.LASF73
 5049 04d5 0B       		.byte	0xb
 5050 04d6 30       		.byte	0x30
 5051 04d7 3E000000 		.4byte	0x3e
 5052 04db 02       		.byte	0x2
 5053 04dc 23       		.byte	0x23
 5054 04dd 06       		.uleb128 0x6
 5055 04de 10       		.uleb128 0x10
ARM GAS  /tmp/ccVxBZiF.s 			page 90


 5056 04df 9B000000 		.4byte	.LASF74
 5057 04e3 0B       		.byte	0xb
 5058 04e4 31       		.byte	0x31
 5059 04e5 3E000000 		.4byte	0x3e
 5060 04e9 02       		.byte	0x2
 5061 04ea 23       		.byte	0x23
 5062 04eb 07       		.uleb128 0x7
 5063 04ec 10       		.uleb128 0x10
 5064 04ed 6C000000 		.4byte	.LASF75
 5065 04f1 0B       		.byte	0xb
 5066 04f2 32       		.byte	0x32
 5067 04f3 3E000000 		.4byte	0x3e
 5068 04f7 02       		.byte	0x2
 5069 04f8 23       		.byte	0x23
 5070 04f9 08       		.uleb128 0x8
 5071 04fa 10       		.uleb128 0x10
 5072 04fb 7B000000 		.4byte	.LASF76
 5073 04ff 0B       		.byte	0xb
 5074 0500 33       		.byte	0x33
 5075 0501 3E000000 		.4byte	0x3e
 5076 0505 02       		.byte	0x2
 5077 0506 23       		.byte	0x23
 5078 0507 09       		.uleb128 0x9
 5079 0508 10       		.uleb128 0x10
 5080 0509 B1050000 		.4byte	.LASF77
 5081 050d 0B       		.byte	0xb
 5082 050e 34       		.byte	0x34
 5083 050f E5000000 		.4byte	0xe5
 5084 0513 02       		.byte	0x2
 5085 0514 23       		.byte	0x23
 5086 0515 0A       		.uleb128 0xa
 5087 0516 10       		.uleb128 0x10
 5088 0517 0C010000 		.4byte	.LASF78
 5089 051b 0B       		.byte	0xb
 5090 051c 35       		.byte	0x35
 5091 051d E5000000 		.4byte	0xe5
 5092 0521 02       		.byte	0x2
 5093 0522 23       		.byte	0x23
 5094 0523 0B       		.uleb128 0xb
 5095 0524 10       		.uleb128 0x10
 5096 0525 7A030000 		.4byte	.LASF79
 5097 0529 0B       		.byte	0xb
 5098 052a 36       		.byte	0x36
 5099 052b 3E000000 		.4byte	0x3e
 5100 052f 02       		.byte	0x2
 5101 0530 23       		.byte	0x23
 5102 0531 0C       		.uleb128 0xc
 5103 0532 10       		.uleb128 0x10
 5104 0533 52040000 		.4byte	.LASF80
 5105 0537 0B       		.byte	0xb
 5106 0538 37       		.byte	0x37
 5107 0539 3E000000 		.4byte	0x3e
 5108 053d 02       		.byte	0x2
 5109 053e 23       		.byte	0x23
 5110 053f 0D       		.uleb128 0xd
 5111 0540 10       		.uleb128 0x10
 5112 0541 A1010000 		.4byte	.LASF81
ARM GAS  /tmp/ccVxBZiF.s 			page 91


 5113 0545 0B       		.byte	0xb
 5114 0546 38       		.byte	0x38
 5115 0547 EC000000 		.4byte	0xec
 5116 054b 02       		.byte	0x2
 5117 054c 23       		.byte	0x23
 5118 054d 10       		.uleb128 0x10
 5119 054e 10       		.uleb128 0x10
 5120 054f F5030000 		.4byte	.LASF82
 5121 0553 0B       		.byte	0xb
 5122 0554 39       		.byte	0x39
 5123 0555 91060000 		.4byte	0x691
 5124 0559 02       		.byte	0x2
 5125 055a 23       		.byte	0x23
 5126 055b 14       		.uleb128 0x14
 5127 055c 10       		.uleb128 0x10
 5128 055d DA060000 		.4byte	.LASF83
 5129 0561 0B       		.byte	0xb
 5130 0562 3A       		.byte	0x3a
 5131 0563 97060000 		.4byte	0x697
 5132 0567 02       		.byte	0x2
 5133 0568 23       		.byte	0x23
 5134 0569 18       		.uleb128 0x18
 5135 056a 00       		.byte	0
 5136 056b 14       		.uleb128 0x14
 5137 056c DF030000 		.4byte	.LASF89
 5138 0570 01       		.byte	0x1
 5139 0571 0A       		.byte	0xa
 5140 0572 46       		.byte	0x46
 5141 0573 90050000 		.4byte	0x590
 5142 0577 15       		.uleb128 0x15
 5143 0578 85060000 		.4byte	.LASF84
 5144 057c 00       		.sleb128 0
 5145 057d 15       		.uleb128 0x15
 5146 057e 00000000 		.4byte	.LASF85
 5147 0582 01       		.sleb128 1
 5148 0583 15       		.uleb128 0x15
 5149 0584 0A070000 		.4byte	.LASF86
 5150 0588 02       		.sleb128 2
 5151 0589 15       		.uleb128 0x15
 5152 058a E3040000 		.4byte	.LASF87
 5153 058e 03       		.sleb128 3
 5154 058f 00       		.byte	0
 5155 0590 04       		.uleb128 0x4
 5156 0591 E4060000 		.4byte	.LASF88
 5157 0595 0A       		.byte	0xa
 5158 0596 46       		.byte	0x46
 5159 0597 6B050000 		.4byte	0x56b
 5160 059b 14       		.uleb128 0x14
 5161 059c 09040000 		.4byte	.LASF90
 5162 05a0 01       		.byte	0x1
 5163 05a1 0A       		.byte	0xa
 5164 05a2 4A       		.byte	0x4a
 5165 05a3 C0050000 		.4byte	0x5c0
 5166 05a7 15       		.uleb128 0x15
 5167 05a8 22020000 		.4byte	.LASF91
 5168 05ac 00       		.sleb128 0
 5169 05ad 15       		.uleb128 0x15
ARM GAS  /tmp/ccVxBZiF.s 			page 92


 5170 05ae C0060000 		.4byte	.LASF92
 5171 05b2 01       		.sleb128 1
 5172 05b3 15       		.uleb128 0x15
 5173 05b4 D4040000 		.4byte	.LASF93
 5174 05b8 02       		.sleb128 2
 5175 05b9 15       		.uleb128 0x15
 5176 05ba 90020000 		.4byte	.LASF94
 5177 05be 03       		.sleb128 3
 5178 05bf 00       		.byte	0
 5179 05c0 04       		.uleb128 0x4
 5180 05c1 E6020000 		.4byte	.LASF95
 5181 05c5 0A       		.byte	0xa
 5182 05c6 4A       		.byte	0x4a
 5183 05c7 9B050000 		.4byte	0x59b
 5184 05cb 13       		.uleb128 0x13
 5185 05cc 10000000 		.4byte	.LASF97
 5186 05d0 10       		.byte	0x10
 5187 05d1 0A       		.byte	0xa
 5188 05d2 51       		.byte	0x51
 5189 05d3 64060000 		.4byte	0x664
 5190 05d7 10       		.uleb128 0x10
 5191 05d8 FD060000 		.4byte	.LASF98
 5192 05dc 0A       		.byte	0xa
 5193 05dd 52       		.byte	0x52
 5194 05de 79040000 		.4byte	0x479
 5195 05e2 02       		.byte	0x2
 5196 05e3 23       		.byte	0x23
 5197 05e4 00       		.uleb128 0
 5198 05e5 10       		.uleb128 0x10
 5199 05e6 35000000 		.4byte	.LASF99
 5200 05ea 0A       		.byte	0xa
 5201 05eb 53       		.byte	0x53
 5202 05ec 79040000 		.4byte	0x479
 5203 05f0 02       		.byte	0x2
 5204 05f1 23       		.byte	0x23
 5205 05f2 02       		.uleb128 0x2
 5206 05f3 10       		.uleb128 0x10
 5207 05f4 1B010000 		.4byte	.LASF100
 5208 05f8 0A       		.byte	0xa
 5209 05f9 54       		.byte	0x54
 5210 05fa 90050000 		.4byte	0x590
 5211 05fe 02       		.byte	0x2
 5212 05ff 23       		.byte	0x23
 5213 0600 04       		.uleb128 0x4
 5214 0601 10       		.uleb128 0x10
 5215 0602 E5050000 		.4byte	.LASF101
 5216 0606 0A       		.byte	0xa
 5217 0607 55       		.byte	0x55
 5218 0608 C0050000 		.4byte	0x5c0
 5219 060c 02       		.byte	0x2
 5220 060d 23       		.byte	0x23
 5221 060e 05       		.uleb128 0x5
 5222 060f 10       		.uleb128 0x10
 5223 0610 95050000 		.4byte	.LASF102
 5224 0614 0A       		.byte	0xa
 5225 0615 56       		.byte	0x56
 5226 0616 3E000000 		.4byte	0x3e
ARM GAS  /tmp/ccVxBZiF.s 			page 93


 5227 061a 02       		.byte	0x2
 5228 061b 23       		.byte	0x23
 5229 061c 06       		.uleb128 0x6
 5230 061d 10       		.uleb128 0x10
 5231 061e 48020000 		.4byte	.LASF103
 5232 0622 0A       		.byte	0xa
 5233 0623 57       		.byte	0x57
 5234 0624 3E000000 		.4byte	0x3e
 5235 0628 02       		.byte	0x2
 5236 0629 23       		.byte	0x23
 5237 062a 07       		.uleb128 0x7
 5238 062b 10       		.uleb128 0x10
 5239 062c 90030000 		.4byte	.LASF104
 5240 0630 0A       		.byte	0xa
 5241 0631 59       		.byte	0x59
 5242 0632 79040000 		.4byte	0x479
 5243 0636 02       		.byte	0x2
 5244 0637 23       		.byte	0x23
 5245 0638 08       		.uleb128 0x8
 5246 0639 10       		.uleb128 0x10
 5247 063a AA040000 		.4byte	.LASF105
 5248 063e 0A       		.byte	0xa
 5249 063f 59       		.byte	0x59
 5250 0640 79040000 		.4byte	0x479
 5251 0644 02       		.byte	0x2
 5252 0645 23       		.byte	0x23
 5253 0646 0A       		.uleb128 0xa
 5254 0647 10       		.uleb128 0x10
 5255 0648 97030000 		.4byte	.LASF106
 5256 064c 0A       		.byte	0xa
 5257 064d 5A       		.byte	0x5a
 5258 064e 79040000 		.4byte	0x479
 5259 0652 02       		.byte	0x2
 5260 0653 23       		.byte	0x23
 5261 0654 0C       		.uleb128 0xc
 5262 0655 10       		.uleb128 0x10
 5263 0656 B1040000 		.4byte	.LASF107
 5264 065a 0A       		.byte	0xa
 5265 065b 5A       		.byte	0x5a
 5266 065c 79040000 		.4byte	0x479
 5267 0660 02       		.byte	0x2
 5268 0661 23       		.byte	0x23
 5269 0662 0E       		.uleb128 0xe
 5270 0663 00       		.byte	0
 5271 0664 04       		.uleb128 0x4
 5272 0665 09020000 		.4byte	.LASF108
 5273 0669 0A       		.byte	0xa
 5274 066a 5C       		.byte	0x5c
 5275 066b CB050000 		.4byte	0x5cb
 5276 066f 04       		.uleb128 0x4
 5277 0670 88030000 		.4byte	.LASF109
 5278 0674 0A       		.byte	0xa
 5279 0675 DB       		.byte	0xdb
 5280 0676 62000000 		.4byte	0x62
 5281 067a 0C       		.uleb128 0xc
 5282 067b 78060000 		.4byte	.LASF110
 5283 067f 0A       		.byte	0xa
ARM GAS  /tmp/ccVxBZiF.s 			page 94


 5284 0680 2701     		.2byte	0x127
 5285 0682 6F060000 		.4byte	0x66f
 5286 0686 04       		.uleb128 0x4
 5287 0687 9F050000 		.4byte	.LASF111
 5288 068b 0B       		.byte	0xb
 5289 068c 1C       		.byte	0x1c
 5290 068d 62000000 		.4byte	0x62
 5291 0691 06       		.uleb128 0x6
 5292 0692 04       		.byte	0x4
 5293 0693 1C010000 		.4byte	0x11c
 5294 0697 06       		.uleb128 0x6
 5295 0698 04       		.byte	0x4
 5296 0699 9D060000 		.4byte	0x69d
 5297 069d 07       		.uleb128 0x7
 5298 069e 86060000 		.4byte	0x686
 5299 06a2 16       		.uleb128 0x16
 5300 06a3 01030000 		.4byte	.LASF112
 5301 06a7 02       		.byte	0x2
 5302 06a8 72       		.byte	0x72
 5303 06a9 01       		.byte	0x1
 5304 06aa 03       		.byte	0x3
 5305 06ab BB060000 		.4byte	0x6bb
 5306 06af 17       		.uleb128 0x17
 5307 06b0 C4050000 		.4byte	.LASF114
 5308 06b4 02       		.byte	0x2
 5309 06b5 72       		.byte	0x72
 5310 06b6 3E000000 		.4byte	0x3e
 5311 06ba 00       		.byte	0
 5312 06bb 16       		.uleb128 0x16
 5313 06bc 60060000 		.4byte	.LASF113
 5314 06c0 02       		.byte	0x2
 5315 06c1 90       		.byte	0x90
 5316 06c2 01       		.byte	0x1
 5317 06c3 03       		.byte	0x3
 5318 06c4 D4060000 		.4byte	0x6d4
 5319 06c8 17       		.uleb128 0x17
 5320 06c9 DF050000 		.4byte	.LASF115
 5321 06cd 02       		.byte	0x2
 5322 06ce 90       		.byte	0x90
 5323 06cf 62000000 		.4byte	0x62
 5324 06d3 00       		.byte	0
 5325 06d4 16       		.uleb128 0x16
 5326 06d5 C7000000 		.4byte	.LASF116
 5327 06d9 02       		.byte	0x2
 5328 06da 99       		.byte	0x99
 5329 06db 01       		.byte	0x1
 5330 06dc 03       		.byte	0x3
 5331 06dd ED060000 		.4byte	0x6ed
 5332 06e1 17       		.uleb128 0x17
 5333 06e2 B9020000 		.4byte	.LASF117
 5334 06e6 02       		.byte	0x2
 5335 06e7 99       		.byte	0x99
 5336 06e8 62000000 		.4byte	0x62
 5337 06ec 00       		.byte	0
 5338 06ed 16       		.uleb128 0x16
 5339 06ee F8010000 		.4byte	.LASF118
 5340 06f2 01       		.byte	0x1
ARM GAS  /tmp/ccVxBZiF.s 			page 95


 5341 06f3 32       		.byte	0x32
 5342 06f4 01       		.byte	0x1
 5343 06f5 03       		.byte	0x3
 5344 06f6 0D070000 		.4byte	0x70d
 5345 06fa 18       		.uleb128 0x18
 5346 06fb 7800     		.ascii	"x\000"
 5347 06fd 01       		.byte	0x1
 5348 06fe 32       		.byte	0x32
 5349 06ff 79040000 		.4byte	0x479
 5350 0703 18       		.uleb128 0x18
 5351 0704 7900     		.ascii	"y\000"
 5352 0706 01       		.byte	0x1
 5353 0707 32       		.byte	0x32
 5354 0708 79040000 		.4byte	0x479
 5355 070c 00       		.byte	0
 5356 070d 16       		.uleb128 0x16
 5357 070e D7010000 		.4byte	.LASF119
 5358 0712 02       		.byte	0x2
 5359 0713 64       		.byte	0x64
 5360 0714 01       		.byte	0x1
 5361 0715 03       		.byte	0x3
 5362 0716 26070000 		.4byte	0x726
 5363 071a 17       		.uleb128 0x17
 5364 071b 27010000 		.4byte	.LASF120
 5365 071f 02       		.byte	0x2
 5366 0720 64       		.byte	0x64
 5367 0721 B1000000 		.4byte	0xb1
 5368 0725 00       		.byte	0
 5369 0726 19       		.uleb128 0x19
 5370 0727 3C000000 		.4byte	.LASF121
 5371 072b 02       		.byte	0x2
 5372 072c 7C       		.byte	0x7c
 5373 072d 01       		.byte	0x1
 5374 072e 03       		.byte	0x3
 5375 072f 19       		.uleb128 0x19
 5376 0730 F9040000 		.4byte	.LASF122
 5377 0734 02       		.byte	0x2
 5378 0735 85       		.byte	0x85
 5379 0736 01       		.byte	0x1
 5380 0737 03       		.byte	0x3
 5381 0738 1A       		.uleb128 0x1a
 5382 0739 01       		.byte	0x1
 5383 073a 59040000 		.4byte	.LASF153
 5384 073e 01       		.byte	0x1
 5385 073f DF       		.byte	0xdf
 5386 0740 01       		.byte	0x1
 5387 0741 01       		.byte	0x1
 5388 0742 64070000 		.4byte	0x764
 5389 0746 18       		.uleb128 0x18
 5390 0747 7800     		.ascii	"x\000"
 5391 0749 01       		.byte	0x1
 5392 074a DF       		.byte	0xdf
 5393 074b 79040000 		.4byte	0x479
 5394 074f 18       		.uleb128 0x18
 5395 0750 7900     		.ascii	"y\000"
 5396 0752 01       		.byte	0x1
 5397 0753 DF       		.byte	0xdf
ARM GAS  /tmp/ccVxBZiF.s 			page 96


 5398 0754 79040000 		.4byte	0x479
 5399 0758 17       		.uleb128 0x17
 5400 0759 B9050000 		.4byte	.LASF123
 5401 075d 01       		.byte	0x1
 5402 075e DF       		.byte	0xdf
 5403 075f 6F060000 		.4byte	0x66f
 5404 0763 00       		.byte	0
 5405 0764 1B       		.uleb128 0x1b
 5406 0765 8C010000 		.4byte	.LASF160
 5407 0769 01       		.byte	0x1
 5408 076a 4B       		.byte	0x4b
 5409 076b 01       		.byte	0x1
 5410 076c 00000000 		.4byte	.LFB133
 5411 0770 BC010000 		.4byte	.LFE133
 5412 0774 00000000 		.4byte	.LLST0
 5413 0778 01       		.byte	0x1
 5414 0779 740C0000 		.4byte	0xc74
 5415 077d 1C       		.uleb128 0x1c
 5416 077e 7800     		.ascii	"x\000"
 5417 0780 01       		.byte	0x1
 5418 0781 4B       		.byte	0x4b
 5419 0782 79040000 		.4byte	0x479
 5420 0786 20000000 		.4byte	.LLST1
 5421 078a 1C       		.uleb128 0x1c
 5422 078b 7900     		.ascii	"y\000"
 5423 078d 01       		.byte	0x1
 5424 078e 4B       		.byte	0x4b
 5425 078f 79040000 		.4byte	0x479
 5426 0793 EA000000 		.4byte	.LLST2
 5427 0797 1C       		.uleb128 0x1c
 5428 0798 637800   		.ascii	"cx\000"
 5429 079b 01       		.byte	0x1
 5430 079c 4B       		.byte	0x4b
 5431 079d 79040000 		.4byte	0x479
 5432 07a1 A9010000 		.4byte	.LLST3
 5433 07a5 1C       		.uleb128 0x1c
 5434 07a6 637900   		.ascii	"cy\000"
 5435 07a9 01       		.byte	0x1
 5436 07aa 4B       		.byte	0x4b
 5437 07ab 79040000 		.4byte	0x479
 5438 07af 47020000 		.4byte	.LLST4
 5439 07b3 1D       		.uleb128 0x1d
 5440 07b4 D4060000 		.4byte	0x6d4
 5441 07b8 1C000000 		.4byte	.LBB432
 5442 07bc 00000000 		.4byte	.Ldebug_ranges0+0
 5443 07c0 01       		.byte	0x1
 5444 07c1 5F       		.byte	0x5f
 5445 07c2 D0070000 		.4byte	0x7d0
 5446 07c6 1E       		.uleb128 0x1e
 5447 07c7 E1060000 		.4byte	0x6e1
 5448 07cb CC020000 		.4byte	.LLST5
 5449 07cf 00       		.byte	0
 5450 07d0 1D       		.uleb128 0x1d
 5451 07d1 BB060000 		.4byte	0x6bb
 5452 07d5 1E000000 		.4byte	.LBB436
 5453 07d9 20000000 		.4byte	.Ldebug_ranges0+0x20
 5454 07dd 01       		.byte	0x1
ARM GAS  /tmp/ccVxBZiF.s 			page 97


 5455 07de 5F       		.byte	0x5f
 5456 07df ED070000 		.4byte	0x7ed
 5457 07e3 1E       		.uleb128 0x1e
 5458 07e4 C8060000 		.4byte	0x6c8
 5459 07e8 DF020000 		.4byte	.LLST6
 5460 07ec 00       		.byte	0
 5461 07ed 1F       		.uleb128 0x1f
 5462 07ee BB060000 		.4byte	0x6bb
 5463 07f2 38000000 		.4byte	.LBB442
 5464 07f6 3C000000 		.4byte	.LBE442
 5465 07fa 01       		.byte	0x1
 5466 07fb 60       		.byte	0x60
 5467 07fc 0A080000 		.4byte	0x80a
 5468 0800 1E       		.uleb128 0x1e
 5469 0801 C8060000 		.4byte	0x6c8
 5470 0805 F4020000 		.4byte	.LLST7
 5471 0809 00       		.byte	0
 5472 080a 1D       		.uleb128 0x1d
 5473 080b BB060000 		.4byte	0x6bb
 5474 080f 40000000 		.4byte	.LBB444
 5475 0813 38000000 		.4byte	.Ldebug_ranges0+0x38
 5476 0817 01       		.byte	0x1
 5477 0818 61       		.byte	0x61
 5478 0819 27080000 		.4byte	0x827
 5479 081d 1E       		.uleb128 0x1e
 5480 081e C8060000 		.4byte	0x6c8
 5481 0822 09030000 		.4byte	.LLST8
 5482 0826 00       		.byte	0
 5483 0827 1F       		.uleb128 0x1f
 5484 0828 D4060000 		.4byte	0x6d4
 5485 082c 42000000 		.4byte	.LBB447
 5486 0830 44000000 		.4byte	.LBE447
 5487 0834 01       		.byte	0x1
 5488 0835 60       		.byte	0x60
 5489 0836 44080000 		.4byte	0x844
 5490 083a 1E       		.uleb128 0x1e
 5491 083b E1060000 		.4byte	0x6e1
 5492 083f 1E030000 		.4byte	.LLST9
 5493 0843 00       		.byte	0
 5494 0844 1F       		.uleb128 0x1f
 5495 0845 D4060000 		.4byte	0x6d4
 5496 0849 46000000 		.4byte	.LBB450
 5497 084d 48000000 		.4byte	.LBE450
 5498 0851 01       		.byte	0x1
 5499 0852 61       		.byte	0x61
 5500 0853 61080000 		.4byte	0x861
 5501 0857 1E       		.uleb128 0x1e
 5502 0858 E1060000 		.4byte	0x6e1
 5503 085c 31030000 		.4byte	.LLST10
 5504 0860 00       		.byte	0
 5505 0861 1D       		.uleb128 0x1d
 5506 0862 ED060000 		.4byte	0x6ed
 5507 0866 48000000 		.4byte	.LBB452
 5508 086a 50000000 		.4byte	.Ldebug_ranges0+0x50
 5509 086e 01       		.byte	0x1
 5510 086f 6F       		.byte	0x6f
 5511 0870 6D0A0000 		.4byte	0xa6d
ARM GAS  /tmp/ccVxBZiF.s 			page 98


 5512 0874 1E       		.uleb128 0x1e
 5513 0875 03070000 		.4byte	0x703
 5514 0879 44030000 		.4byte	.LLST11
 5515 087d 1E       		.uleb128 0x1e
 5516 087e FA060000 		.4byte	0x6fa
 5517 0882 6D030000 		.4byte	.LLST12
 5518 0886 1D       		.uleb128 0x1d
 5519 0887 D4060000 		.4byte	0x6d4
 5520 088b 48000000 		.4byte	.LBB454
 5521 088f 78000000 		.4byte	.Ldebug_ranges0+0x78
 5522 0893 01       		.byte	0x1
 5523 0894 41       		.byte	0x41
 5524 0895 A3080000 		.4byte	0x8a3
 5525 0899 1E       		.uleb128 0x1e
 5526 089a E1060000 		.4byte	0x6e1
 5527 089e A1030000 		.4byte	.LLST13
 5528 08a2 00       		.byte	0
 5529 08a3 1D       		.uleb128 0x1d
 5530 08a4 BB060000 		.4byte	0x6bb
 5531 08a8 4A000000 		.4byte	.LBB458
 5532 08ac 98000000 		.4byte	.Ldebug_ranges0+0x98
 5533 08b0 01       		.byte	0x1
 5534 08b1 41       		.byte	0x41
 5535 08b2 C0080000 		.4byte	0x8c0
 5536 08b6 1E       		.uleb128 0x1e
 5537 08b7 C8060000 		.4byte	0x6c8
 5538 08bb B4030000 		.4byte	.LLST14
 5539 08bf 00       		.byte	0
 5540 08c0 1F       		.uleb128 0x1f
 5541 08c1 BB060000 		.4byte	0x6bb
 5542 08c5 5A000000 		.4byte	.LBB464
 5543 08c9 5E000000 		.4byte	.LBE464
 5544 08cd 01       		.byte	0x1
 5545 08ce 42       		.byte	0x42
 5546 08cf DD080000 		.4byte	0x8dd
 5547 08d3 1E       		.uleb128 0x1e
 5548 08d4 C8060000 		.4byte	0x6c8
 5549 08d8 C9030000 		.4byte	.LLST15
 5550 08dc 00       		.byte	0
 5551 08dd 1F       		.uleb128 0x1f
 5552 08de D4060000 		.4byte	0x6d4
 5553 08e2 5E000000 		.4byte	.LBB466
 5554 08e6 60000000 		.4byte	.LBE466
 5555 08ea 01       		.byte	0x1
 5556 08eb 42       		.byte	0x42
 5557 08ec FA080000 		.4byte	0x8fa
 5558 08f0 1E       		.uleb128 0x1e
 5559 08f1 E1060000 		.4byte	0x6e1
 5560 08f5 DE030000 		.4byte	.LLST16
 5561 08f9 00       		.byte	0
 5562 08fa 1D       		.uleb128 0x1d
 5563 08fb BB060000 		.4byte	0x6bb
 5564 08ff AA000000 		.4byte	.LBB468
 5565 0903 B0000000 		.4byte	.Ldebug_ranges0+0xb0
 5566 0907 01       		.byte	0x1
 5567 0908 39       		.byte	0x39
 5568 0909 17090000 		.4byte	0x917
ARM GAS  /tmp/ccVxBZiF.s 			page 99


 5569 090d 1E       		.uleb128 0x1e
 5570 090e C8060000 		.4byte	0x6c8
 5571 0912 F1030000 		.4byte	.LLST17
 5572 0916 00       		.byte	0
 5573 0917 1D       		.uleb128 0x1d
 5574 0918 D4060000 		.4byte	0x6d4
 5575 091c B2000000 		.4byte	.LBB471
 5576 0920 C8000000 		.4byte	.Ldebug_ranges0+0xc8
 5577 0924 01       		.byte	0x1
 5578 0925 39       		.byte	0x39
 5579 0926 34090000 		.4byte	0x934
 5580 092a 1E       		.uleb128 0x1e
 5581 092b E1060000 		.4byte	0x6e1
 5582 092f 06040000 		.4byte	.LLST18
 5583 0933 00       		.byte	0
 5584 0934 1D       		.uleb128 0x1d
 5585 0935 BB060000 		.4byte	0x6bb
 5586 0939 BE000000 		.4byte	.LBB475
 5587 093d E0000000 		.4byte	.Ldebug_ranges0+0xe0
 5588 0941 01       		.byte	0x1
 5589 0942 3A       		.byte	0x3a
 5590 0943 51090000 		.4byte	0x951
 5591 0947 1E       		.uleb128 0x1e
 5592 0948 C8060000 		.4byte	0x6c8
 5593 094c 19040000 		.4byte	.LLST19
 5594 0950 00       		.byte	0
 5595 0951 1F       		.uleb128 0x1f
 5596 0952 D4060000 		.4byte	0x6d4
 5597 0956 C4000000 		.4byte	.LBB480
 5598 095a C8000000 		.4byte	.LBE480
 5599 095e 01       		.byte	0x1
 5600 095f 3A       		.byte	0x3a
 5601 0960 6E090000 		.4byte	0x96e
 5602 0964 1E       		.uleb128 0x1e
 5603 0965 E1060000 		.4byte	0x6e1
 5604 0969 2E040000 		.4byte	.LLST20
 5605 096d 00       		.byte	0
 5606 096e 1F       		.uleb128 0x1f
 5607 096f ED060000 		.4byte	0x6ed
 5608 0973 0E010000 		.4byte	.LBB482
 5609 0977 2C010000 		.4byte	.LBE482
 5610 097b 01       		.byte	0x1
 5611 097c 4B       		.byte	0x4b
 5612 097d FC090000 		.4byte	0x9fc
 5613 0981 20       		.uleb128 0x20
 5614 0982 03070000 		.4byte	0x703
 5615 0986 20       		.uleb128 0x20
 5616 0987 FA060000 		.4byte	0x6fa
 5617 098b 1D       		.uleb128 0x1d
 5618 098c BB060000 		.4byte	0x6bb
 5619 0990 0E010000 		.4byte	.LBB484
 5620 0994 F8000000 		.4byte	.Ldebug_ranges0+0xf8
 5621 0998 01       		.byte	0x1
 5622 0999 45       		.byte	0x45
 5623 099a A8090000 		.4byte	0x9a8
 5624 099e 1E       		.uleb128 0x1e
 5625 099f C8060000 		.4byte	0x6c8
ARM GAS  /tmp/ccVxBZiF.s 			page 100


 5626 09a3 41040000 		.4byte	.LLST21
 5627 09a7 00       		.byte	0
 5628 09a8 1D       		.uleb128 0x1d
 5629 09a9 D4060000 		.4byte	0x6d4
 5630 09ad 16010000 		.4byte	.LBB487
 5631 09b1 10010000 		.4byte	.Ldebug_ranges0+0x110
 5632 09b5 01       		.byte	0x1
 5633 09b6 45       		.byte	0x45
 5634 09b7 C5090000 		.4byte	0x9c5
 5635 09bb 1E       		.uleb128 0x1e
 5636 09bc E1060000 		.4byte	0x6e1
 5637 09c0 56040000 		.4byte	.LLST22
 5638 09c4 00       		.byte	0
 5639 09c5 1D       		.uleb128 0x1d
 5640 09c6 BB060000 		.4byte	0x6bb
 5641 09ca 22010000 		.4byte	.LBB491
 5642 09ce 28010000 		.4byte	.Ldebug_ranges0+0x128
 5643 09d2 01       		.byte	0x1
 5644 09d3 46       		.byte	0x46
 5645 09d4 E2090000 		.4byte	0x9e2
 5646 09d8 1E       		.uleb128 0x1e
 5647 09d9 C8060000 		.4byte	0x6c8
 5648 09dd 69040000 		.4byte	.LLST23
 5649 09e1 00       		.byte	0
 5650 09e2 21       		.uleb128 0x21
 5651 09e3 D4060000 		.4byte	0x6d4
 5652 09e7 28010000 		.4byte	.LBB496
 5653 09eb 2C010000 		.4byte	.LBE496
 5654 09ef 01       		.byte	0x1
 5655 09f0 46       		.byte	0x46
 5656 09f1 1E       		.uleb128 0x1e
 5657 09f2 E1060000 		.4byte	0x6e1
 5658 09f6 7E040000 		.4byte	.LLST24
 5659 09fa 00       		.byte	0
 5660 09fb 00       		.byte	0
 5661 09fc 1D       		.uleb128 0x1d
 5662 09fd D4060000 		.4byte	0x6d4
 5663 0a01 60010000 		.4byte	.LBB498
 5664 0a05 40010000 		.4byte	.Ldebug_ranges0+0x140
 5665 0a09 01       		.byte	0x1
 5666 0a0a 3D       		.byte	0x3d
 5667 0a0b 190A0000 		.4byte	0xa19
 5668 0a0f 1E       		.uleb128 0x1e
 5669 0a10 E1060000 		.4byte	0x6e1
 5670 0a14 91040000 		.4byte	.LLST25
 5671 0a18 00       		.byte	0
 5672 0a19 1D       		.uleb128 0x1d
 5673 0a1a BB060000 		.4byte	0x6bb
 5674 0a1e 62010000 		.4byte	.LBB502
 5675 0a22 60010000 		.4byte	.Ldebug_ranges0+0x160
 5676 0a26 01       		.byte	0x1
 5677 0a27 3D       		.byte	0x3d
 5678 0a28 360A0000 		.4byte	0xa36
 5679 0a2c 1E       		.uleb128 0x1e
 5680 0a2d C8060000 		.4byte	0x6c8
 5681 0a31 A4040000 		.4byte	.LLST26
 5682 0a35 00       		.byte	0
ARM GAS  /tmp/ccVxBZiF.s 			page 101


 5683 0a36 1F       		.uleb128 0x1f
 5684 0a37 BB060000 		.4byte	0x6bb
 5685 0a3b 72010000 		.4byte	.LBB508
 5686 0a3f 76010000 		.4byte	.LBE508
 5687 0a43 01       		.byte	0x1
 5688 0a44 3E       		.byte	0x3e
 5689 0a45 530A0000 		.4byte	0xa53
 5690 0a49 1E       		.uleb128 0x1e
 5691 0a4a C8060000 		.4byte	0x6c8
 5692 0a4e B9040000 		.4byte	.LLST27
 5693 0a52 00       		.byte	0
 5694 0a53 21       		.uleb128 0x21
 5695 0a54 D4060000 		.4byte	0x6d4
 5696 0a58 76010000 		.4byte	.LBB510
 5697 0a5c 7A010000 		.4byte	.LBE510
 5698 0a60 01       		.byte	0x1
 5699 0a61 3E       		.byte	0x3e
 5700 0a62 1E       		.uleb128 0x1e
 5701 0a63 E1060000 		.4byte	0x6e1
 5702 0a67 CE040000 		.4byte	.LLST28
 5703 0a6b 00       		.byte	0
 5704 0a6c 00       		.byte	0
 5705 0a6d 1D       		.uleb128 0x1d
 5706 0a6e D4060000 		.4byte	0x6d4
 5707 0a72 78000000 		.4byte	.LBB515
 5708 0a76 78010000 		.4byte	.Ldebug_ranges0+0x178
 5709 0a7a 01       		.byte	0x1
 5710 0a7b 64       		.byte	0x64
 5711 0a7c 8A0A0000 		.4byte	0xa8a
 5712 0a80 1E       		.uleb128 0x1e
 5713 0a81 E1060000 		.4byte	0x6e1
 5714 0a85 E1040000 		.4byte	.LLST29
 5715 0a89 00       		.byte	0
 5716 0a8a 1D       		.uleb128 0x1d
 5717 0a8b BB060000 		.4byte	0x6bb
 5718 0a8f 84000000 		.4byte	.LBB518
 5719 0a93 90010000 		.4byte	.Ldebug_ranges0+0x190
 5720 0a97 01       		.byte	0x1
 5721 0a98 64       		.byte	0x64
 5722 0a99 A70A0000 		.4byte	0xaa7
 5723 0a9d 1E       		.uleb128 0x1e
 5724 0a9e C8060000 		.4byte	0x6c8
 5725 0aa2 FF040000 		.4byte	.LLST30
 5726 0aa6 00       		.byte	0
 5727 0aa7 1F       		.uleb128 0x1f
 5728 0aa8 BB060000 		.4byte	0x6bb
 5729 0aac 9C000000 		.4byte	.LBB523
 5730 0ab0 A0000000 		.4byte	.LBE523
 5731 0ab4 01       		.byte	0x1
 5732 0ab5 65       		.byte	0x65
 5733 0ab6 C40A0000 		.4byte	0xac4
 5734 0aba 1E       		.uleb128 0x1e
 5735 0abb C8060000 		.4byte	0x6c8
 5736 0abf 14050000 		.4byte	.LLST31
 5737 0ac3 00       		.byte	0
 5738 0ac4 1F       		.uleb128 0x1f
 5739 0ac5 D4060000 		.4byte	0x6d4
ARM GAS  /tmp/ccVxBZiF.s 			page 102


 5740 0ac9 A2000000 		.4byte	.LBB525
 5741 0acd A4000000 		.4byte	.LBE525
 5742 0ad1 01       		.byte	0x1
 5743 0ad2 65       		.byte	0x65
 5744 0ad3 E10A0000 		.4byte	0xae1
 5745 0ad7 1E       		.uleb128 0x1e
 5746 0ad8 E1060000 		.4byte	0x6e1
 5747 0adc 29050000 		.4byte	.LLST32
 5748 0ae0 00       		.byte	0
 5749 0ae1 1F       		.uleb128 0x1f
 5750 0ae2 BB060000 		.4byte	0x6bb
 5751 0ae6 A4000000 		.4byte	.LBB527
 5752 0aea A8000000 		.4byte	.LBE527
 5753 0aee 01       		.byte	0x1
 5754 0aef 66       		.byte	0x66
 5755 0af0 FE0A0000 		.4byte	0xafe
 5756 0af4 1E       		.uleb128 0x1e
 5757 0af5 C8060000 		.4byte	0x6c8
 5758 0af9 3C050000 		.4byte	.LLST33
 5759 0afd 00       		.byte	0
 5760 0afe 1F       		.uleb128 0x1f
 5761 0aff D4060000 		.4byte	0x6d4
 5762 0b03 A8000000 		.4byte	.LBB529
 5763 0b07 AA000000 		.4byte	.LBE529
 5764 0b0b 01       		.byte	0x1
 5765 0b0c 66       		.byte	0x66
 5766 0b0d 1B0B0000 		.4byte	0xb1b
 5767 0b11 1E       		.uleb128 0x1e
 5768 0b12 E1060000 		.4byte	0x6e1
 5769 0b16 51050000 		.4byte	.LLST34
 5770 0b1a 00       		.byte	0
 5771 0b1b 1D       		.uleb128 0x1d
 5772 0b1c D4060000 		.4byte	0x6d4
 5773 0b20 DC000000 		.4byte	.LBB532
 5774 0b24 A8010000 		.4byte	.Ldebug_ranges0+0x1a8
 5775 0b28 01       		.byte	0x1
 5776 0b29 69       		.byte	0x69
 5777 0b2a 380B0000 		.4byte	0xb38
 5778 0b2e 1E       		.uleb128 0x1e
 5779 0b2f E1060000 		.4byte	0x6e1
 5780 0b33 64050000 		.4byte	.LLST35
 5781 0b37 00       		.byte	0
 5782 0b38 1D       		.uleb128 0x1d
 5783 0b39 BB060000 		.4byte	0x6bb
 5784 0b3d E8000000 		.4byte	.LBB535
 5785 0b41 C0010000 		.4byte	.Ldebug_ranges0+0x1c0
 5786 0b45 01       		.byte	0x1
 5787 0b46 69       		.byte	0x69
 5788 0b47 550B0000 		.4byte	0xb55
 5789 0b4b 1E       		.uleb128 0x1e
 5790 0b4c C8060000 		.4byte	0x6c8
 5791 0b50 82050000 		.4byte	.LLST36
 5792 0b54 00       		.byte	0
 5793 0b55 1F       		.uleb128 0x1f
 5794 0b56 BB060000 		.4byte	0x6bb
 5795 0b5a 00010000 		.4byte	.LBB540
 5796 0b5e 04010000 		.4byte	.LBE540
ARM GAS  /tmp/ccVxBZiF.s 			page 103


 5797 0b62 01       		.byte	0x1
 5798 0b63 6A       		.byte	0x6a
 5799 0b64 720B0000 		.4byte	0xb72
 5800 0b68 1E       		.uleb128 0x1e
 5801 0b69 C8060000 		.4byte	0x6c8
 5802 0b6d 97050000 		.4byte	.LLST37
 5803 0b71 00       		.byte	0
 5804 0b72 1F       		.uleb128 0x1f
 5805 0b73 D4060000 		.4byte	0x6d4
 5806 0b77 06010000 		.4byte	.LBB542
 5807 0b7b 08010000 		.4byte	.LBE542
 5808 0b7f 01       		.byte	0x1
 5809 0b80 6A       		.byte	0x6a
 5810 0b81 8F0B0000 		.4byte	0xb8f
 5811 0b85 1E       		.uleb128 0x1e
 5812 0b86 E1060000 		.4byte	0x6e1
 5813 0b8a AC050000 		.4byte	.LLST38
 5814 0b8e 00       		.byte	0
 5815 0b8f 1F       		.uleb128 0x1f
 5816 0b90 BB060000 		.4byte	0x6bb
 5817 0b94 08010000 		.4byte	.LBB544
 5818 0b98 0C010000 		.4byte	.LBE544
 5819 0b9c 01       		.byte	0x1
 5820 0b9d 6B       		.byte	0x6b
 5821 0b9e AC0B0000 		.4byte	0xbac
 5822 0ba2 1E       		.uleb128 0x1e
 5823 0ba3 C8060000 		.4byte	0x6c8
 5824 0ba7 BF050000 		.4byte	.LLST39
 5825 0bab 00       		.byte	0
 5826 0bac 1F       		.uleb128 0x1f
 5827 0bad D4060000 		.4byte	0x6d4
 5828 0bb1 0C010000 		.4byte	.LBB546
 5829 0bb5 0E010000 		.4byte	.LBE546
 5830 0bb9 01       		.byte	0x1
 5831 0bba 6B       		.byte	0x6b
 5832 0bbb C90B0000 		.4byte	0xbc9
 5833 0bbf 1E       		.uleb128 0x1e
 5834 0bc0 E1060000 		.4byte	0x6e1
 5835 0bc4 D4050000 		.4byte	.LLST40
 5836 0bc8 00       		.byte	0
 5837 0bc9 1D       		.uleb128 0x1d
 5838 0bca D4060000 		.4byte	0x6d4
 5839 0bce 34010000 		.4byte	.LBB549
 5840 0bd2 D8010000 		.4byte	.Ldebug_ranges0+0x1d8
 5841 0bd6 01       		.byte	0x1
 5842 0bd7 5A       		.byte	0x5a
 5843 0bd8 E60B0000 		.4byte	0xbe6
 5844 0bdc 1E       		.uleb128 0x1e
 5845 0bdd E1060000 		.4byte	0x6e1
 5846 0be1 E7050000 		.4byte	.LLST41
 5847 0be5 00       		.byte	0
 5848 0be6 1D       		.uleb128 0x1d
 5849 0be7 BB060000 		.4byte	0x6bb
 5850 0beb 40010000 		.4byte	.LBB552
 5851 0bef F0010000 		.4byte	.Ldebug_ranges0+0x1f0
 5852 0bf3 01       		.byte	0x1
 5853 0bf4 5A       		.byte	0x5a
ARM GAS  /tmp/ccVxBZiF.s 			page 104


 5854 0bf5 030C0000 		.4byte	0xc03
 5855 0bf9 1E       		.uleb128 0x1e
 5856 0bfa C8060000 		.4byte	0x6c8
 5857 0bfe 05060000 		.4byte	.LLST42
 5858 0c02 00       		.byte	0
 5859 0c03 1F       		.uleb128 0x1f
 5860 0c04 BB060000 		.4byte	0x6bb
 5861 0c08 50010000 		.4byte	.LBB557
 5862 0c0c 54010000 		.4byte	.LBE557
 5863 0c10 01       		.byte	0x1
 5864 0c11 5B       		.byte	0x5b
 5865 0c12 200C0000 		.4byte	0xc20
 5866 0c16 1E       		.uleb128 0x1e
 5867 0c17 C8060000 		.4byte	0x6c8
 5868 0c1b 1A060000 		.4byte	.LLST43
 5869 0c1f 00       		.byte	0
 5870 0c20 1D       		.uleb128 0x1d
 5871 0c21 BB060000 		.4byte	0x6bb
 5872 0c25 58010000 		.4byte	.LBB559
 5873 0c29 08020000 		.4byte	.Ldebug_ranges0+0x208
 5874 0c2d 01       		.byte	0x1
 5875 0c2e 5C       		.byte	0x5c
 5876 0c2f 3D0C0000 		.4byte	0xc3d
 5877 0c33 1E       		.uleb128 0x1e
 5878 0c34 C8060000 		.4byte	0x6c8
 5879 0c38 2F060000 		.4byte	.LLST44
 5880 0c3c 00       		.byte	0
 5881 0c3d 1F       		.uleb128 0x1f
 5882 0c3e D4060000 		.4byte	0x6d4
 5883 0c42 5A010000 		.4byte	.LBB562
 5884 0c46 5C010000 		.4byte	.LBE562
 5885 0c4a 01       		.byte	0x1
 5886 0c4b 5B       		.byte	0x5b
 5887 0c4c 5A0C0000 		.4byte	0xc5a
 5888 0c50 1E       		.uleb128 0x1e
 5889 0c51 E1060000 		.4byte	0x6e1
 5890 0c55 44060000 		.4byte	.LLST45
 5891 0c59 00       		.byte	0
 5892 0c5a 21       		.uleb128 0x21
 5893 0c5b D4060000 		.4byte	0x6d4
 5894 0c5f 5E010000 		.4byte	.LBB565
 5895 0c63 60010000 		.4byte	.LBE565
 5896 0c67 01       		.byte	0x1
 5897 0c68 5C       		.byte	0x5c
 5898 0c69 1E       		.uleb128 0x1e
 5899 0c6a E1060000 		.4byte	0x6e1
 5900 0c6e 57060000 		.4byte	.LLST46
 5901 0c72 00       		.byte	0
 5902 0c73 00       		.byte	0
 5903 0c74 22       		.uleb128 0x22
 5904 0c75 01       		.byte	0x1
 5905 0c76 B7010000 		.4byte	.LASF127
 5906 0c7a 03       		.byte	0x3
 5907 0c7b 99       		.byte	0x99
 5908 0c7c 01       		.byte	0x1
 5909 0c7d 00000000 		.4byte	.LFB119
 5910 0c81 64000000 		.4byte	.LFE119
ARM GAS  /tmp/ccVxBZiF.s 			page 105


 5911 0c85 6A060000 		.4byte	.LLST47
 5912 0c89 01       		.byte	0x1
 5913 0c8a C50C0000 		.4byte	0xcc5
 5914 0c8e 1C       		.uleb128 0x1c
 5915 0c8f 7800     		.ascii	"x\000"
 5916 0c91 03       		.byte	0x3
 5917 0c92 99       		.byte	0x99
 5918 0c93 79040000 		.4byte	0x479
 5919 0c97 8A060000 		.4byte	.LLST48
 5920 0c9b 1C       		.uleb128 0x1c
 5921 0c9c 7900     		.ascii	"y\000"
 5922 0c9e 03       		.byte	0x3
 5923 0c9f 99       		.byte	0x99
 5924 0ca0 79040000 		.4byte	0x479
 5925 0ca4 A8060000 		.4byte	.LLST49
 5926 0ca8 1C       		.uleb128 0x1c
 5927 0ca9 637800   		.ascii	"cx\000"
 5928 0cac 03       		.byte	0x3
 5929 0cad 99       		.byte	0x99
 5930 0cae 79040000 		.4byte	0x479
 5931 0cb2 C6060000 		.4byte	.LLST50
 5932 0cb6 1C       		.uleb128 0x1c
 5933 0cb7 637900   		.ascii	"cy\000"
 5934 0cba 03       		.byte	0x3
 5935 0cbb 99       		.byte	0x99
 5936 0cbc 79040000 		.4byte	0x479
 5937 0cc0 E4060000 		.4byte	.LLST51
 5938 0cc4 00       		.byte	0
 5939 0cc5 16       		.uleb128 0x16
 5940 0cc6 AC010000 		.4byte	.LASF124
 5941 0cca 02       		.byte	0x2
 5942 0ccb 30       		.byte	0x30
 5943 0ccc 01       		.byte	0x1
 5944 0ccd 03       		.byte	0x3
 5945 0cce E90C0000 		.4byte	0xce9
 5946 0cd2 23       		.uleb128 0x23
 5947 0cd3 F9050000 		.4byte	.LASF125
 5948 0cd7 02       		.byte	0x2
 5949 0cd8 48       		.byte	0x48
 5950 0cd9 63040000 		.4byte	0x463
 5951 0cdd 23       		.uleb128 0x23
 5952 0cde FE050000 		.4byte	.LASF126
 5953 0ce2 02       		.byte	0x2
 5954 0ce3 4B       		.byte	0x4b
 5955 0ce4 63040000 		.4byte	0x463
 5956 0ce8 00       		.byte	0
 5957 0ce9 24       		.uleb128 0x24
 5958 0cea 01       		.byte	0x1
 5959 0ceb 2D010000 		.4byte	.LASF161
 5960 0cef 01       		.byte	0x1
 5961 0cf0 89       		.byte	0x89
 5962 0cf1 01       		.byte	0x1
 5963 0cf2 B1000000 		.4byte	0xb1
 5964 0cf6 00000000 		.4byte	.LFB135
 5965 0cfa 0E030000 		.4byte	.LFE135
 5966 0cfe 10070000 		.4byte	.LLST52
 5967 0d02 01       		.byte	0x1
ARM GAS  /tmp/ccVxBZiF.s 			page 106


 5968 0d03 71190000 		.4byte	0x1971
 5969 0d07 1D       		.uleb128 0x1d
 5970 0d08 C50C0000 		.4byte	0xcc5
 5971 0d0c 04000000 		.4byte	.LBB738
 5972 0d10 20020000 		.4byte	.Ldebug_ranges0+0x220
 5973 0d14 01       		.byte	0x1
 5974 0d15 8B       		.byte	0x8b
 5975 0d16 820D0000 		.4byte	0xd82
 5976 0d1a 25       		.uleb128 0x25
 5977 0d1b 48020000 		.4byte	.Ldebug_ranges0+0x248
 5978 0d1f 26       		.uleb128 0x26
 5979 0d20 D20C0000 		.4byte	0xcd2
 5980 0d24 02       		.byte	0x2
 5981 0d25 91       		.byte	0x91
 5982 0d26 40       		.sleb128 -64
 5983 0d27 26       		.uleb128 0x26
 5984 0d28 DD0C0000 		.4byte	0xcdd
 5985 0d2c 02       		.byte	0x2
 5986 0d2d 91       		.byte	0x91
 5987 0d2e 4C       		.sleb128 -52
 5988 0d2f 27       		.uleb128 0x27
 5989 0d30 3E000000 		.4byte	.LVL89
 5990 0d34 58270000 		.4byte	0x2758
 5991 0d38 4A0D0000 		.4byte	0xd4a
 5992 0d3c 28       		.uleb128 0x28
 5993 0d3d 01       		.byte	0x1
 5994 0d3e 51       		.byte	0x51
 5995 0d3f 03       		.byte	0x3
 5996 0d40 0A       		.byte	0xa
 5997 0d41 0206     		.2byte	0x602
 5998 0d43 28       		.uleb128 0x28
 5999 0d44 01       		.byte	0x1
 6000 0d45 50       		.byte	0x50
 6001 0d46 02       		.byte	0x2
 6002 0d47 75       		.byte	0x75
 6003 0d48 00       		.sleb128 0
 6004 0d49 00       		.byte	0
 6005 0d4a 27       		.uleb128 0x27
 6006 0d4b 48000000 		.4byte	.LVL90
 6007 0d4f 58270000 		.4byte	0x2758
 6008 0d53 650D0000 		.4byte	0xd65
 6009 0d57 28       		.uleb128 0x28
 6010 0d58 01       		.byte	0x1
 6011 0d59 51       		.byte	0x51
 6012 0d5a 03       		.byte	0x3
 6013 0d5b 0A       		.byte	0xa
 6014 0d5c 0206     		.2byte	0x602
 6015 0d5e 28       		.uleb128 0x28
 6016 0d5f 01       		.byte	0x1
 6017 0d60 50       		.byte	0x50
 6018 0d61 02       		.byte	0x2
 6019 0d62 74       		.byte	0x74
 6020 0d63 00       		.sleb128 0
 6021 0d64 00       		.byte	0
 6022 0d65 29       		.uleb128 0x29
 6023 0d66 7A000000 		.4byte	.LVL91
 6024 0d6a 78270000 		.4byte	0x2778
ARM GAS  /tmp/ccVxBZiF.s 			page 107


 6025 0d6e 28       		.uleb128 0x28
 6026 0d6f 01       		.byte	0x1
 6027 0d70 52       		.byte	0x52
 6028 0d71 01       		.byte	0x1
 6029 0d72 49       		.byte	0x49
 6030 0d73 28       		.uleb128 0x28
 6031 0d74 01       		.byte	0x1
 6032 0d75 51       		.byte	0x51
 6033 0d76 02       		.byte	0x2
 6034 0d77 78       		.byte	0x78
 6035 0d78 00       		.sleb128 0
 6036 0d79 28       		.uleb128 0x28
 6037 0d7a 01       		.byte	0x1
 6038 0d7b 50       		.byte	0x50
 6039 0d7c 02       		.byte	0x2
 6040 0d7d 76       		.byte	0x76
 6041 0d7e 00       		.sleb128 0
 6042 0d7f 00       		.byte	0
 6043 0d80 00       		.byte	0
 6044 0d81 00       		.byte	0
 6045 0d82 1D       		.uleb128 0x1d
 6046 0d83 0D070000 		.4byte	0x70d
 6047 0d87 68000000 		.4byte	.LBB744
 6048 0d8b 70020000 		.4byte	.Ldebug_ranges0+0x270
 6049 0d8f 01       		.byte	0x1
 6050 0d90 8E       		.byte	0x8e
 6051 0d91 9C0D0000 		.4byte	0xd9c
 6052 0d95 2A       		.uleb128 0x2a
 6053 0d96 1A070000 		.4byte	0x71a
 6054 0d9a 01       		.byte	0x1
 6055 0d9b 00       		.byte	0
 6056 0d9c 1D       		.uleb128 0x1d
 6057 0d9d D4060000 		.4byte	0x6d4
 6058 0da1 6C000000 		.4byte	.LBB748
 6059 0da5 88020000 		.4byte	.Ldebug_ranges0+0x288
 6060 0da9 01       		.byte	0x1
 6061 0daa 96       		.byte	0x96
 6062 0dab B60D0000 		.4byte	0xdb6
 6063 0daf 2A       		.uleb128 0x2a
 6064 0db0 E1060000 		.4byte	0x6e1
 6065 0db4 01       		.byte	0x1
 6066 0db5 00       		.byte	0
 6067 0db6 1D       		.uleb128 0x1d
 6068 0db7 BB060000 		.4byte	0x6bb
 6069 0dbb 6E000000 		.4byte	.LBB753
 6070 0dbf B0020000 		.4byte	.Ldebug_ranges0+0x2b0
 6071 0dc3 01       		.byte	0x1
 6072 0dc4 96       		.byte	0x96
 6073 0dc5 D00D0000 		.4byte	0xdd0
 6074 0dc9 2A       		.uleb128 0x2a
 6075 0dca C8060000 		.4byte	0x6c8
 6076 0dce 00       		.byte	0
 6077 0dcf 00       		.byte	0
 6078 0dd0 1F       		.uleb128 0x1f
 6079 0dd1 0D070000 		.4byte	0x70d
 6080 0dd5 8C000000 		.4byte	.LBB762
 6081 0dd9 90000000 		.4byte	.LBE762
ARM GAS  /tmp/ccVxBZiF.s 			page 108


 6082 0ddd 01       		.byte	0x1
 6083 0dde 90       		.byte	0x90
 6084 0ddf EA0D0000 		.4byte	0xdea
 6085 0de3 2A       		.uleb128 0x2a
 6086 0de4 1A070000 		.4byte	0x71a
 6087 0de8 00       		.byte	0
 6088 0de9 00       		.byte	0
 6089 0dea 1D       		.uleb128 0x1d
 6090 0deb BB060000 		.4byte	0x6bb
 6091 0def A0000000 		.4byte	.LBB766
 6092 0df3 D0020000 		.4byte	.Ldebug_ranges0+0x2d0
 6093 0df7 01       		.byte	0x1
 6094 0df8 97       		.byte	0x97
 6095 0df9 040E0000 		.4byte	0xe04
 6096 0dfd 2A       		.uleb128 0x2a
 6097 0dfe C8060000 		.4byte	0x6c8
 6098 0e02 03       		.byte	0x3
 6099 0e03 00       		.byte	0
 6100 0e04 1D       		.uleb128 0x1d
 6101 0e05 D4060000 		.4byte	0x6d4
 6102 0e09 A4000000 		.4byte	.LBB769
 6103 0e0d E8020000 		.4byte	.Ldebug_ranges0+0x2e8
 6104 0e11 01       		.byte	0x1
 6105 0e12 97       		.byte	0x97
 6106 0e13 200E0000 		.4byte	0xe20
 6107 0e17 2B       		.uleb128 0x2b
 6108 0e18 E1060000 		.4byte	0x6e1
 6109 0e1c A4D17E   		.sleb128 -22364
 6110 0e1f 00       		.byte	0
 6111 0e20 1F       		.uleb128 0x1f
 6112 0e21 BB060000 		.4byte	0x6bb
 6113 0e25 B4000000 		.4byte	.LBB774
 6114 0e29 B8000000 		.4byte	.LBE774
 6115 0e2d 01       		.byte	0x1
 6116 0e2e 98       		.byte	0x98
 6117 0e2f 3A0E0000 		.4byte	0xe3a
 6118 0e33 2A       		.uleb128 0x2a
 6119 0e34 C8060000 		.4byte	0x6c8
 6120 0e38 0C       		.byte	0xc
 6121 0e39 00       		.byte	0
 6122 0e3a 1F       		.uleb128 0x1f
 6123 0e3b D4060000 		.4byte	0x6d4
 6124 0e3f BA000000 		.4byte	.LBB776
 6125 0e43 BC000000 		.4byte	.LBE776
 6126 0e47 01       		.byte	0x1
 6127 0e48 98       		.byte	0x98
 6128 0e49 540E0000 		.4byte	0xe54
 6129 0e4d 2A       		.uleb128 0x2a
 6130 0e4e E1060000 		.4byte	0x6e1
 6131 0e52 00       		.byte	0
 6132 0e53 00       		.byte	0
 6133 0e54 1D       		.uleb128 0x1d
 6134 0e55 D4060000 		.4byte	0x6d4
 6135 0e59 C0000000 		.4byte	.LBB778
 6136 0e5d 00030000 		.4byte	.Ldebug_ranges0+0x300
 6137 0e61 01       		.byte	0x1
 6138 0e62 99       		.byte	0x99
ARM GAS  /tmp/ccVxBZiF.s 			page 109


 6139 0e63 6F0E0000 		.4byte	0xe6f
 6140 0e67 2C       		.uleb128 0x2c
 6141 0e68 E1060000 		.4byte	0x6e1
 6142 0e6c 0C08     		.2byte	0x80c
 6143 0e6e 00       		.byte	0
 6144 0e6f 1F       		.uleb128 0x1f
 6145 0e70 BB060000 		.4byte	0x6bb
 6146 0e74 C4000000 		.4byte	.LBB781
 6147 0e78 C8000000 		.4byte	.LBE781
 6148 0e7c 01       		.byte	0x1
 6149 0e7d 99       		.byte	0x99
 6150 0e7e 890E0000 		.4byte	0xe89
 6151 0e82 2A       		.uleb128 0x2a
 6152 0e83 C8060000 		.4byte	0x6c8
 6153 0e87 0D       		.byte	0xd
 6154 0e88 00       		.byte	0
 6155 0e89 1D       		.uleb128 0x1d
 6156 0e8a BB060000 		.4byte	0x6bb
 6157 0e8e D0000000 		.4byte	.LBB784
 6158 0e92 18030000 		.4byte	.Ldebug_ranges0+0x318
 6159 0e96 01       		.byte	0x1
 6160 0e97 9A       		.byte	0x9a
 6161 0e98 A30E0000 		.4byte	0xea3
 6162 0e9c 2A       		.uleb128 0x2a
 6163 0e9d C8060000 		.4byte	0x6c8
 6164 0ea1 0E       		.byte	0xe
 6165 0ea2 00       		.byte	0
 6166 0ea3 1D       		.uleb128 0x1d
 6167 0ea4 D4060000 		.4byte	0x6d4
 6168 0ea8 D2000000 		.4byte	.LBB787
 6169 0eac 30030000 		.4byte	.Ldebug_ranges0+0x330
 6170 0eb0 01       		.byte	0x1
 6171 0eb1 9A       		.byte	0x9a
 6172 0eb2 BE0E0000 		.4byte	0xebe
 6173 0eb6 2C       		.uleb128 0x2c
 6174 0eb7 E1060000 		.4byte	0x6e1
 6175 0ebb 002B     		.2byte	0x2b00
 6176 0ebd 00       		.byte	0
 6177 0ebe 1D       		.uleb128 0x1d
 6178 0ebf D4060000 		.4byte	0x6d4
 6179 0ec3 E0000000 		.4byte	.LBB792
 6180 0ec7 48030000 		.4byte	.Ldebug_ranges0+0x348
 6181 0ecb 01       		.byte	0x1
 6182 0ecc 9B       		.byte	0x9b
 6183 0ecd D80E0000 		.4byte	0xed8
 6184 0ed1 2A       		.uleb128 0x2a
 6185 0ed2 E1060000 		.4byte	0x6e1
 6186 0ed6 B0       		.byte	0xb0
 6187 0ed7 00       		.byte	0
 6188 0ed8 1F       		.uleb128 0x1f
 6189 0ed9 BB060000 		.4byte	0x6bb
 6190 0edd E2000000 		.4byte	.LBB795
 6191 0ee1 E6000000 		.4byte	.LBE795
 6192 0ee5 01       		.byte	0x1
 6193 0ee6 9B       		.byte	0x9b
 6194 0ee7 F20E0000 		.4byte	0xef2
 6195 0eeb 2A       		.uleb128 0x2a
ARM GAS  /tmp/ccVxBZiF.s 			page 110


 6196 0eec C8060000 		.4byte	0x6c8
 6197 0ef0 1E       		.byte	0x1e
 6198 0ef1 00       		.byte	0
 6199 0ef2 1D       		.uleb128 0x1d
 6200 0ef3 D4060000 		.4byte	0x6d4
 6201 0ef7 E6000000 		.4byte	.LBB797
 6202 0efb 60030000 		.4byte	.Ldebug_ranges0+0x360
 6203 0eff 01       		.byte	0x1
 6204 0f00 9C       		.byte	0x9c
 6205 0f01 0D0F0000 		.4byte	0xf0d
 6206 0f05 2C       		.uleb128 0x2c
 6207 0f06 E1060000 		.4byte	0x6e1
 6208 0f0a 3F2B     		.2byte	0x2b3f
 6209 0f0c 00       		.byte	0
 6210 0f0d 1F       		.uleb128 0x1f
 6211 0f0e BB060000 		.4byte	0x6bb
 6212 0f12 F2000000 		.4byte	.LBB801
 6213 0f16 F6000000 		.4byte	.LBE801
 6214 0f1a 01       		.byte	0x1
 6215 0f1b 9C       		.byte	0x9c
 6216 0f1c 270F0000 		.4byte	0xf27
 6217 0f20 2A       		.uleb128 0x2a
 6218 0f21 C8060000 		.4byte	0x6c8
 6219 0f25 01       		.byte	0x1
 6220 0f26 00       		.byte	0
 6221 0f27 1D       		.uleb128 0x1d
 6222 0f28 D4060000 		.4byte	0x6d4
 6223 0f2c FE000000 		.4byte	.LBB804
 6224 0f30 78030000 		.4byte	.Ldebug_ranges0+0x378
 6225 0f34 01       		.byte	0x1
 6226 0f35 9D       		.byte	0x9d
 6227 0f36 420F0000 		.4byte	0xf42
 6228 0f3a 2C       		.uleb128 0x2c
 6229 0f3b E1060000 		.4byte	0x6e1
 6230 0f3f 0006     		.2byte	0x600
 6231 0f41 00       		.byte	0
 6232 0f42 1F       		.uleb128 0x1f
 6233 0f43 BB060000 		.4byte	0x6bb
 6234 0f47 02010000 		.4byte	.LBB807
 6235 0f4b 06010000 		.4byte	.LBE807
 6236 0f4f 01       		.byte	0x1
 6237 0f50 9D       		.byte	0x9d
 6238 0f51 5C0F0000 		.4byte	0xf5c
 6239 0f55 2A       		.uleb128 0x2a
 6240 0f56 C8060000 		.4byte	0x6c8
 6241 0f5a 02       		.byte	0x2
 6242 0f5b 00       		.byte	0
 6243 0f5c 1F       		.uleb128 0x1f
 6244 0f5d BB060000 		.4byte	0x6bb
 6245 0f61 0E010000 		.4byte	.LBB810
 6246 0f65 12010000 		.4byte	.LBE810
 6247 0f69 01       		.byte	0x1
 6248 0f6a 9E       		.byte	0x9e
 6249 0f6b 760F0000 		.4byte	0xf76
 6250 0f6f 2A       		.uleb128 0x2a
 6251 0f70 C8060000 		.4byte	0x6c8
 6252 0f74 10       		.byte	0x10
ARM GAS  /tmp/ccVxBZiF.s 			page 111


 6253 0f75 00       		.byte	0
 6254 0f76 1F       		.uleb128 0x1f
 6255 0f77 D4060000 		.4byte	0x6d4
 6256 0f7b 14010000 		.4byte	.LBB812
 6257 0f7f 16010000 		.4byte	.LBE812
 6258 0f83 01       		.byte	0x1
 6259 0f84 9E       		.byte	0x9e
 6260 0f85 900F0000 		.4byte	0xf90
 6261 0f89 2A       		.uleb128 0x2a
 6262 0f8a E1060000 		.4byte	0x6e1
 6263 0f8e 00       		.byte	0
 6264 0f8f 00       		.byte	0
 6265 0f90 1D       		.uleb128 0x1d
 6266 0f91 BB060000 		.4byte	0x6bb
 6267 0f95 16010000 		.4byte	.LBB814
 6268 0f99 90030000 		.4byte	.Ldebug_ranges0+0x390
 6269 0f9d 01       		.byte	0x1
 6270 0f9e A0       		.byte	0xa0
 6271 0f9f AA0F0000 		.4byte	0xfaa
 6272 0fa3 2A       		.uleb128 0x2a
 6273 0fa4 C8060000 		.4byte	0x6c8
 6274 0fa8 05       		.byte	0x5
 6275 0fa9 00       		.byte	0
 6276 0faa 1D       		.uleb128 0x1d
 6277 0fab BB060000 		.4byte	0x6bb
 6278 0faf 1C010000 		.4byte	.LBB817
 6279 0fb3 A8030000 		.4byte	.Ldebug_ranges0+0x3a8
 6280 0fb7 01       		.byte	0x1
 6281 0fb8 9F       		.byte	0x9f
 6282 0fb9 C40F0000 		.4byte	0xfc4
 6283 0fbd 2A       		.uleb128 0x2a
 6284 0fbe C8060000 		.4byte	0x6c8
 6285 0fc2 11       		.byte	0x11
 6286 0fc3 00       		.byte	0
 6287 0fc4 1D       		.uleb128 0x1d
 6288 0fc5 D4060000 		.4byte	0x6d4
 6289 0fc9 1E010000 		.4byte	.LBB820
 6290 0fcd C0030000 		.4byte	.Ldebug_ranges0+0x3c0
 6291 0fd1 01       		.byte	0x1
 6292 0fd2 9F       		.byte	0x9f
 6293 0fd3 DF0F0000 		.4byte	0xfdf
 6294 0fd7 2C       		.uleb128 0x2c
 6295 0fd8 E1060000 		.4byte	0x6e1
 6296 0fdc 7060     		.2byte	0x6070
 6297 0fde 00       		.byte	0
 6298 0fdf 1F       		.uleb128 0x1f
 6299 0fe0 D4060000 		.4byte	0x6d4
 6300 0fe4 30010000 		.4byte	.LBB826
 6301 0fe8 32010000 		.4byte	.LBE826
 6302 0fec 01       		.byte	0x1
 6303 0fed A0       		.byte	0xa0
 6304 0fee F90F0000 		.4byte	0xff9
 6305 0ff2 2A       		.uleb128 0x2a
 6306 0ff3 E1060000 		.4byte	0x6e1
 6307 0ff7 00       		.byte	0
 6308 0ff8 00       		.byte	0
 6309 0ff9 1F       		.uleb128 0x1f
ARM GAS  /tmp/ccVxBZiF.s 			page 112


 6310 0ffa BB060000 		.4byte	0x6bb
 6311 0ffe 36010000 		.4byte	.LBB828
 6312 1002 3A010000 		.4byte	.LBE828
 6313 1006 01       		.byte	0x1
 6314 1007 A1       		.byte	0xa1
 6315 1008 13100000 		.4byte	0x1013
 6316 100c 2A       		.uleb128 0x2a
 6317 100d C8060000 		.4byte	0x6c8
 6318 1011 06       		.byte	0x6
 6319 1012 00       		.byte	0
 6320 1013 1F       		.uleb128 0x1f
 6321 1014 D4060000 		.4byte	0x6d4
 6322 1018 3C010000 		.4byte	.LBB830
 6323 101c 3E010000 		.4byte	.LBE830
 6324 1020 01       		.byte	0x1
 6325 1021 A1       		.byte	0xa1
 6326 1022 2D100000 		.4byte	0x102d
 6327 1026 2A       		.uleb128 0x2a
 6328 1027 E1060000 		.4byte	0x6e1
 6329 102b 00       		.byte	0
 6330 102c 00       		.byte	0
 6331 102d 1D       		.uleb128 0x1d
 6332 102e D4060000 		.4byte	0x6d4
 6333 1032 42010000 		.4byte	.LBB832
 6334 1036 D8030000 		.4byte	.Ldebug_ranges0+0x3d8
 6335 103a 01       		.byte	0x1
 6336 103b A2       		.byte	0xa2
 6337 103c 48100000 		.4byte	0x1048
 6338 1040 2B       		.uleb128 0x2b
 6339 1041 E1060000 		.4byte	0x6e1
 6340 1045 9C5E     		.sleb128 -4324
 6341 1047 00       		.byte	0
 6342 1048 1F       		.uleb128 0x1f
 6343 1049 BB060000 		.4byte	0x6bb
 6344 104d 46010000 		.4byte	.LBB835
 6345 1051 4A010000 		.4byte	.LBE835
 6346 1055 01       		.byte	0x1
 6347 1056 A2       		.byte	0xa2
 6348 1057 62100000 		.4byte	0x1062
 6349 105b 2A       		.uleb128 0x2a
 6350 105c C8060000 		.4byte	0x6c8
 6351 1060 16       		.byte	0x16
 6352 1061 00       		.byte	0
 6353 1062 1F       		.uleb128 0x1f
 6354 1063 BB060000 		.4byte	0x6bb
 6355 1067 52010000 		.4byte	.LBB838
 6356 106b 56010000 		.4byte	.LBE838
 6357 106f 01       		.byte	0x1
 6358 1070 A3       		.byte	0xa3
 6359 1071 7C100000 		.4byte	0x107c
 6360 1075 2A       		.uleb128 0x2a
 6361 1076 C8060000 		.4byte	0x6c8
 6362 107a 17       		.byte	0x17
 6363 107b 00       		.byte	0
 6364 107c 1F       		.uleb128 0x1f
 6365 107d D4060000 		.4byte	0x6d4
 6366 1081 58010000 		.4byte	.LBB840
ARM GAS  /tmp/ccVxBZiF.s 			page 113


 6367 1085 5C010000 		.4byte	.LBE840
 6368 1089 01       		.byte	0x1
 6369 108a A3       		.byte	0xa3
 6370 108b 96100000 		.4byte	0x1096
 6371 108f 2A       		.uleb128 0x2a
 6372 1090 E1060000 		.4byte	0x6e1
 6373 1094 03       		.byte	0x3
 6374 1095 00       		.byte	0
 6375 1096 1D       		.uleb128 0x1d
 6376 1097 BB060000 		.4byte	0x6bb
 6377 109b 60010000 		.4byte	.LBB842
 6378 109f F0030000 		.4byte	.Ldebug_ranges0+0x3f0
 6379 10a3 01       		.byte	0x1
 6380 10a4 A4       		.byte	0xa4
 6381 10a5 B0100000 		.4byte	0x10b0
 6382 10a9 2A       		.uleb128 0x2a
 6383 10aa C8060000 		.4byte	0x6c8
 6384 10ae 07       		.byte	0x7
 6385 10af 00       		.byte	0
 6386 10b0 1D       		.uleb128 0x1d
 6387 10b1 D4060000 		.4byte	0x6d4
 6388 10b5 62010000 		.4byte	.LBB845
 6389 10b9 08040000 		.4byte	.Ldebug_ranges0+0x408
 6390 10bd 01       		.byte	0x1
 6391 10be A4       		.byte	0xa4
 6392 10bf CB100000 		.4byte	0x10cb
 6393 10c3 2C       		.uleb128 0x2c
 6394 10c4 E1060000 		.4byte	0x6e1
 6395 10c8 3301     		.2byte	0x133
 6396 10ca 00       		.byte	0
 6397 10cb 1F       		.uleb128 0x1f
 6398 10cc BB060000 		.4byte	0x6bb
 6399 10d0 70010000 		.4byte	.LBB850
 6400 10d4 74010000 		.4byte	.LBE850
 6401 10d8 01       		.byte	0x1
 6402 10d9 A5       		.byte	0xa5
 6403 10da E5100000 		.4byte	0x10e5
 6404 10de 2A       		.uleb128 0x2a
 6405 10df C8060000 		.4byte	0x6c8
 6406 10e3 0B       		.byte	0xb
 6407 10e4 00       		.byte	0
 6408 10e5 1F       		.uleb128 0x1f
 6409 10e6 D4060000 		.4byte	0x6d4
 6410 10ea 76010000 		.4byte	.LBB852
 6411 10ee 78010000 		.4byte	.LBE852
 6412 10f2 01       		.byte	0x1
 6413 10f3 A5       		.byte	0xa5
 6414 10f4 FF100000 		.4byte	0x10ff
 6415 10f8 2A       		.uleb128 0x2a
 6416 10f9 E1060000 		.4byte	0x6e1
 6417 10fd 00       		.byte	0
 6418 10fe 00       		.byte	0
 6419 10ff 1F       		.uleb128 0x1f
 6420 1100 BB060000 		.4byte	0x6bb
 6421 1104 7C010000 		.4byte	.LBB854
 6422 1108 80010000 		.4byte	.LBE854
 6423 110c 01       		.byte	0x1
ARM GAS  /tmp/ccVxBZiF.s 			page 114


 6424 110d A6       		.byte	0xa6
 6425 110e 19110000 		.4byte	0x1119
 6426 1112 2A       		.uleb128 0x2a
 6427 1113 C8060000 		.4byte	0x6c8
 6428 1117 0F       		.byte	0xf
 6429 1118 00       		.byte	0
 6430 1119 1F       		.uleb128 0x1f
 6431 111a D4060000 		.4byte	0x6d4
 6432 111e 82010000 		.4byte	.LBB856
 6433 1122 84010000 		.4byte	.LBE856
 6434 1126 01       		.byte	0x1
 6435 1127 A6       		.byte	0xa6
 6436 1128 33110000 		.4byte	0x1133
 6437 112c 2A       		.uleb128 0x2a
 6438 112d E1060000 		.4byte	0x6e1
 6439 1131 00       		.byte	0
 6440 1132 00       		.byte	0
 6441 1133 1F       		.uleb128 0x1f
 6442 1134 BB060000 		.4byte	0x6bb
 6443 1138 88010000 		.4byte	.LBB858
 6444 113c 8C010000 		.4byte	.LBE858
 6445 1140 01       		.byte	0x1
 6446 1141 A7       		.byte	0xa7
 6447 1142 4D110000 		.4byte	0x114d
 6448 1146 2A       		.uleb128 0x2a
 6449 1147 C8060000 		.4byte	0x6c8
 6450 114b 41       		.byte	0x41
 6451 114c 00       		.byte	0
 6452 114d 1F       		.uleb128 0x1f
 6453 114e D4060000 		.4byte	0x6d4
 6454 1152 8E010000 		.4byte	.LBB860
 6455 1156 90010000 		.4byte	.LBE860
 6456 115a 01       		.byte	0x1
 6457 115b A7       		.byte	0xa7
 6458 115c 67110000 		.4byte	0x1167
 6459 1160 2A       		.uleb128 0x2a
 6460 1161 E1060000 		.4byte	0x6e1
 6461 1165 00       		.byte	0
 6462 1166 00       		.byte	0
 6463 1167 1F       		.uleb128 0x1f
 6464 1168 BB060000 		.4byte	0x6bb
 6465 116c 94010000 		.4byte	.LBB862
 6466 1170 98010000 		.4byte	.LBE862
 6467 1174 01       		.byte	0x1
 6468 1175 A8       		.byte	0xa8
 6469 1176 81110000 		.4byte	0x1181
 6470 117a 2A       		.uleb128 0x2a
 6471 117b C8060000 		.4byte	0x6c8
 6472 117f 42       		.byte	0x42
 6473 1180 00       		.byte	0
 6474 1181 1F       		.uleb128 0x1f
 6475 1182 D4060000 		.4byte	0x6d4
 6476 1186 9A010000 		.4byte	.LBB864
 6477 118a 9C010000 		.4byte	.LBE864
 6478 118e 01       		.byte	0x1
 6479 118f A8       		.byte	0xa8
 6480 1190 9B110000 		.4byte	0x119b
ARM GAS  /tmp/ccVxBZiF.s 			page 115


 6481 1194 2A       		.uleb128 0x2a
 6482 1195 E1060000 		.4byte	0x6e1
 6483 1199 00       		.byte	0
 6484 119a 00       		.byte	0
 6485 119b 1F       		.uleb128 0x1f
 6486 119c BB060000 		.4byte	0x6bb
 6487 11a0 A0010000 		.4byte	.LBB866
 6488 11a4 A4010000 		.4byte	.LBE866
 6489 11a8 01       		.byte	0x1
 6490 11a9 A9       		.byte	0xa9
 6491 11aa B5110000 		.4byte	0x11b5
 6492 11ae 2A       		.uleb128 0x2a
 6493 11af C8060000 		.4byte	0x6c8
 6494 11b3 48       		.byte	0x48
 6495 11b4 00       		.byte	0
 6496 11b5 1F       		.uleb128 0x1f
 6497 11b6 D4060000 		.4byte	0x6d4
 6498 11ba A6010000 		.4byte	.LBB868
 6499 11be A8010000 		.4byte	.LBE868
 6500 11c2 01       		.byte	0x1
 6501 11c3 A9       		.byte	0xa9
 6502 11c4 CF110000 		.4byte	0x11cf
 6503 11c8 2A       		.uleb128 0x2a
 6504 11c9 E1060000 		.4byte	0x6e1
 6505 11cd 00       		.byte	0
 6506 11ce 00       		.byte	0
 6507 11cf 1D       		.uleb128 0x1d
 6508 11d0 D4060000 		.4byte	0x6d4
 6509 11d4 AC010000 		.4byte	.LBB870
 6510 11d8 20040000 		.4byte	.Ldebug_ranges0+0x420
 6511 11dc 01       		.byte	0x1
 6512 11dd AA       		.byte	0xaa
 6513 11de EA110000 		.4byte	0x11ea
 6514 11e2 2C       		.uleb128 0x2c
 6515 11e3 E1060000 		.4byte	0x6e1
 6516 11e7 3F01     		.2byte	0x13f
 6517 11e9 00       		.byte	0
 6518 11ea 1F       		.uleb128 0x1f
 6519 11eb BB060000 		.4byte	0x6bb
 6520 11ef B0010000 		.4byte	.LBB873
 6521 11f3 B4010000 		.4byte	.LBE873
 6522 11f7 01       		.byte	0x1
 6523 11f8 AA       		.byte	0xaa
 6524 11f9 04120000 		.4byte	0x1204
 6525 11fd 2A       		.uleb128 0x2a
 6526 11fe C8060000 		.4byte	0x6c8
 6527 1202 49       		.byte	0x49
 6528 1203 00       		.byte	0
 6529 1204 1F       		.uleb128 0x1f
 6530 1205 BB060000 		.4byte	0x6bb
 6531 1209 BE010000 		.4byte	.LBB876
 6532 120d C2010000 		.4byte	.LBE876
 6533 1211 01       		.byte	0x1
 6534 1212 AB       		.byte	0xab
 6535 1213 1E120000 		.4byte	0x121e
 6536 1217 2A       		.uleb128 0x2a
 6537 1218 C8060000 		.4byte	0x6c8
ARM GAS  /tmp/ccVxBZiF.s 			page 116


 6538 121c 4A       		.byte	0x4a
 6539 121d 00       		.byte	0
 6540 121e 1F       		.uleb128 0x1f
 6541 121f D4060000 		.4byte	0x6d4
 6542 1223 C4010000 		.4byte	.LBB878
 6543 1227 C6010000 		.4byte	.LBE878
 6544 122b 01       		.byte	0x1
 6545 122c AB       		.byte	0xab
 6546 122d 38120000 		.4byte	0x1238
 6547 1231 2A       		.uleb128 0x2a
 6548 1232 E1060000 		.4byte	0x6e1
 6549 1236 00       		.byte	0
 6550 1237 00       		.byte	0
 6551 1238 1F       		.uleb128 0x1f
 6552 1239 BB060000 		.4byte	0x6bb
 6553 123d CA010000 		.4byte	.LBB880
 6554 1241 CE010000 		.4byte	.LBE880
 6555 1245 01       		.byte	0x1
 6556 1246 AC       		.byte	0xac
 6557 1247 52120000 		.4byte	0x1252
 6558 124b 2A       		.uleb128 0x2a
 6559 124c C8060000 		.4byte	0x6c8
 6560 1250 4B       		.byte	0x4b
 6561 1251 00       		.byte	0
 6562 1252 1F       		.uleb128 0x1f
 6563 1253 D4060000 		.4byte	0x6d4
 6564 1257 D0010000 		.4byte	.LBB882
 6565 125b D2010000 		.4byte	.LBE882
 6566 125f 01       		.byte	0x1
 6567 1260 AC       		.byte	0xac
 6568 1261 6C120000 		.4byte	0x126c
 6569 1265 2A       		.uleb128 0x2a
 6570 1266 E1060000 		.4byte	0x6e1
 6571 126a 00       		.byte	0
 6572 126b 00       		.byte	0
 6573 126c 1D       		.uleb128 0x1d
 6574 126d D4060000 		.4byte	0x6d4
 6575 1271 D6010000 		.4byte	.LBB884
 6576 1275 38040000 		.4byte	.Ldebug_ranges0+0x438
 6577 1279 01       		.byte	0x1
 6578 127a AD       		.byte	0xad
 6579 127b 87120000 		.4byte	0x1287
 6580 127f 2B       		.uleb128 0x2b
 6581 1280 E1060000 		.4byte	0x6e1
 6582 1284 805E     		.sleb128 -4352
 6583 1286 00       		.byte	0
 6584 1287 1F       		.uleb128 0x1f
 6585 1288 BB060000 		.4byte	0x6bb
 6586 128c DA010000 		.4byte	.LBB887
 6587 1290 DE010000 		.4byte	.LBE887
 6588 1294 01       		.byte	0x1
 6589 1295 AD       		.byte	0xad
 6590 1296 A1120000 		.4byte	0x12a1
 6591 129a 2A       		.uleb128 0x2a
 6592 129b C8060000 		.4byte	0x6c8
 6593 129f 44       		.byte	0x44
 6594 12a0 00       		.byte	0
ARM GAS  /tmp/ccVxBZiF.s 			page 117


 6595 12a1 1F       		.uleb128 0x1f
 6596 12a2 BB060000 		.4byte	0x6bb
 6597 12a6 E6010000 		.4byte	.LBB890
 6598 12aa EA010000 		.4byte	.LBE890
 6599 12ae 01       		.byte	0x1
 6600 12af AE       		.byte	0xae
 6601 12b0 BB120000 		.4byte	0x12bb
 6602 12b4 2A       		.uleb128 0x2a
 6603 12b5 C8060000 		.4byte	0x6c8
 6604 12b9 45       		.byte	0x45
 6605 12ba 00       		.byte	0
 6606 12bb 1F       		.uleb128 0x1f
 6607 12bc D4060000 		.4byte	0x6d4
 6608 12c0 EC010000 		.4byte	.LBB892
 6609 12c4 EE010000 		.4byte	.LBE892
 6610 12c8 01       		.byte	0x1
 6611 12c9 AE       		.byte	0xae
 6612 12ca D5120000 		.4byte	0x12d5
 6613 12ce 2A       		.uleb128 0x2a
 6614 12cf E1060000 		.4byte	0x6e1
 6615 12d3 00       		.byte	0
 6616 12d4 00       		.byte	0
 6617 12d5 1F       		.uleb128 0x1f
 6618 12d6 BB060000 		.4byte	0x6bb
 6619 12da F2010000 		.4byte	.LBB894
 6620 12de F6010000 		.4byte	.LBE894
 6621 12e2 01       		.byte	0x1
 6622 12e3 AF       		.byte	0xaf
 6623 12e4 EF120000 		.4byte	0x12ef
 6624 12e8 2A       		.uleb128 0x2a
 6625 12e9 C8060000 		.4byte	0x6c8
 6626 12ed 46       		.byte	0x46
 6627 12ee 00       		.byte	0
 6628 12ef 1F       		.uleb128 0x1f
 6629 12f0 D4060000 		.4byte	0x6d4
 6630 12f4 F8010000 		.4byte	.LBB896
 6631 12f8 FC010000 		.4byte	.LBE896
 6632 12fc 01       		.byte	0x1
 6633 12fd AF       		.byte	0xaf
 6634 12fe 0A130000 		.4byte	0x130a
 6635 1302 2C       		.uleb128 0x2c
 6636 1303 E1060000 		.4byte	0x6e1
 6637 1307 3F01     		.2byte	0x13f
 6638 1309 00       		.byte	0
 6639 130a 1D       		.uleb128 0x1d
 6640 130b D4060000 		.4byte	0x6d4
 6641 130f 00020000 		.4byte	.LBB898
 6642 1313 50040000 		.4byte	.Ldebug_ranges0+0x450
 6643 1317 01       		.byte	0x1
 6644 1318 B0       		.byte	0xb0
 6645 1319 25130000 		.4byte	0x1325
 6646 131d 2C       		.uleb128 0x2c
 6647 131e E1060000 		.4byte	0x6e1
 6648 1322 0707     		.2byte	0x707
 6649 1324 00       		.byte	0
 6650 1325 1F       		.uleb128 0x1f
 6651 1326 BB060000 		.4byte	0x6bb
ARM GAS  /tmp/ccVxBZiF.s 			page 118


 6652 132a 04020000 		.4byte	.LBB901
 6653 132e 08020000 		.4byte	.LBE901
 6654 1332 01       		.byte	0x1
 6655 1333 B0       		.byte	0xb0
 6656 1334 3F130000 		.4byte	0x133f
 6657 1338 2A       		.uleb128 0x2a
 6658 1339 C8060000 		.4byte	0x6c8
 6659 133d 30       		.byte	0x30
 6660 133e 00       		.byte	0
 6661 133f 1D       		.uleb128 0x1d
 6662 1340 D4060000 		.4byte	0x6d4
 6663 1344 10020000 		.4byte	.LBB904
 6664 1348 68040000 		.4byte	.Ldebug_ranges0+0x468
 6665 134c 01       		.byte	0x1
 6666 134d B1       		.byte	0xb1
 6667 134e 5A130000 		.4byte	0x135a
 6668 1352 2C       		.uleb128 0x2c
 6669 1353 E1060000 		.4byte	0x6e1
 6670 1357 0402     		.2byte	0x204
 6671 1359 00       		.byte	0
 6672 135a 1F       		.uleb128 0x1f
 6673 135b BB060000 		.4byte	0x6bb
 6674 135f 14020000 		.4byte	.LBB907
 6675 1363 18020000 		.4byte	.LBE907
 6676 1367 01       		.byte	0x1
 6677 1368 B1       		.byte	0xb1
 6678 1369 74130000 		.4byte	0x1374
 6679 136d 2A       		.uleb128 0x2a
 6680 136e C8060000 		.4byte	0x6c8
 6681 1372 31       		.byte	0x31
 6682 1373 00       		.byte	0
 6683 1374 1F       		.uleb128 0x1f
 6684 1375 BB060000 		.4byte	0x6bb
 6685 1379 22020000 		.4byte	.LBB910
 6686 137d 26020000 		.4byte	.LBE910
 6687 1381 01       		.byte	0x1
 6688 1382 B2       		.byte	0xb2
 6689 1383 8E130000 		.4byte	0x138e
 6690 1387 2A       		.uleb128 0x2a
 6691 1388 C8060000 		.4byte	0x6c8
 6692 138c 32       		.byte	0x32
 6693 138d 00       		.byte	0
 6694 138e 1F       		.uleb128 0x1f
 6695 138f D4060000 		.4byte	0x6d4
 6696 1393 28020000 		.4byte	.LBB912
 6697 1397 2C020000 		.4byte	.LBE912
 6698 139b 01       		.byte	0x1
 6699 139c B2       		.byte	0xb2
 6700 139d A9130000 		.4byte	0x13a9
 6701 13a1 2C       		.uleb128 0x2c
 6702 13a2 E1060000 		.4byte	0x6e1
 6703 13a6 0402     		.2byte	0x204
 6704 13a8 00       		.byte	0
 6705 13a9 1D       		.uleb128 0x1d
 6706 13aa D4060000 		.4byte	0x6d4
 6707 13ae 2C020000 		.4byte	.LBB914
 6708 13b2 80040000 		.4byte	.Ldebug_ranges0+0x480
ARM GAS  /tmp/ccVxBZiF.s 			page 119


 6709 13b6 01       		.byte	0x1
 6710 13b7 B3       		.byte	0xb3
 6711 13b8 C4130000 		.4byte	0x13c4
 6712 13bc 2C       		.uleb128 0x2c
 6713 13bd E1060000 		.4byte	0x6e1
 6714 13c1 0205     		.2byte	0x502
 6715 13c3 00       		.byte	0
 6716 13c4 1F       		.uleb128 0x1f
 6717 13c5 BB060000 		.4byte	0x6bb
 6718 13c9 36020000 		.4byte	.LBB917
 6719 13cd 3A020000 		.4byte	.LBE917
 6720 13d1 01       		.byte	0x1
 6721 13d2 B3       		.byte	0xb3
 6722 13d3 DE130000 		.4byte	0x13de
 6723 13d7 2A       		.uleb128 0x2a
 6724 13d8 C8060000 		.4byte	0x6c8
 6725 13dc 33       		.byte	0x33
 6726 13dd 00       		.byte	0
 6727 13de 1D       		.uleb128 0x1d
 6728 13df BB060000 		.4byte	0x6bb
 6729 13e3 44020000 		.4byte	.LBB920
 6730 13e7 98040000 		.4byte	.Ldebug_ranges0+0x498
 6731 13eb 01       		.byte	0x1
 6732 13ec B4       		.byte	0xb4
 6733 13ed F8130000 		.4byte	0x13f8
 6734 13f1 2A       		.uleb128 0x2a
 6735 13f2 C8060000 		.4byte	0x6c8
 6736 13f6 34       		.byte	0x34
 6737 13f7 00       		.byte	0
 6738 13f8 1D       		.uleb128 0x1d
 6739 13f9 D4060000 		.4byte	0x6d4
 6740 13fd 46020000 		.4byte	.LBB923
 6741 1401 B0040000 		.4byte	.Ldebug_ranges0+0x4b0
 6742 1405 01       		.byte	0x1
 6743 1406 B4       		.byte	0xb4
 6744 1407 13140000 		.4byte	0x1413
 6745 140b 2C       		.uleb128 0x2c
 6746 140c E1060000 		.4byte	0x6e1
 6747 1410 0705     		.2byte	0x507
 6748 1412 00       		.byte	0
 6749 1413 1F       		.uleb128 0x1f
 6750 1414 BB060000 		.4byte	0x6bb
 6751 1418 54020000 		.4byte	.LBB928
 6752 141c 58020000 		.4byte	.LBE928
 6753 1420 01       		.byte	0x1
 6754 1421 B5       		.byte	0xb5
 6755 1422 2D140000 		.4byte	0x142d
 6756 1426 2A       		.uleb128 0x2a
 6757 1427 C8060000 		.4byte	0x6c8
 6758 142b 35       		.byte	0x35
 6759 142c 00       		.byte	0
 6760 142d 1F       		.uleb128 0x1f
 6761 142e D4060000 		.4byte	0x6d4
 6762 1432 5A020000 		.4byte	.LBB930
 6763 1436 5E020000 		.4byte	.LBE930
 6764 143a 01       		.byte	0x1
 6765 143b B5       		.byte	0xb5
ARM GAS  /tmp/ccVxBZiF.s 			page 120


 6766 143c 48140000 		.4byte	0x1448
 6767 1440 2C       		.uleb128 0x2c
 6768 1441 E1060000 		.4byte	0x6e1
 6769 1445 0402     		.2byte	0x204
 6770 1447 00       		.byte	0
 6771 1448 1F       		.uleb128 0x1f
 6772 1449 BB060000 		.4byte	0x6bb
 6773 144d 62020000 		.4byte	.LBB932
 6774 1451 66020000 		.4byte	.LBE932
 6775 1455 01       		.byte	0x1
 6776 1456 B6       		.byte	0xb6
 6777 1457 62140000 		.4byte	0x1462
 6778 145b 2A       		.uleb128 0x2a
 6779 145c C8060000 		.4byte	0x6c8
 6780 1460 36       		.byte	0x36
 6781 1461 00       		.byte	0
 6782 1462 1F       		.uleb128 0x1f
 6783 1463 D4060000 		.4byte	0x6d4
 6784 1467 68020000 		.4byte	.LBB934
 6785 146b 6C020000 		.4byte	.LBE934
 6786 146f 01       		.byte	0x1
 6787 1470 B6       		.byte	0xb6
 6788 1471 7D140000 		.4byte	0x147d
 6789 1475 2C       		.uleb128 0x2c
 6790 1476 E1060000 		.4byte	0x6e1
 6791 147a 0402     		.2byte	0x204
 6792 147c 00       		.byte	0
 6793 147d 1F       		.uleb128 0x1f
 6794 147e BB060000 		.4byte	0x6bb
 6795 1482 70020000 		.4byte	.LBB936
 6796 1486 74020000 		.4byte	.LBE936
 6797 148a 01       		.byte	0x1
 6798 148b B7       		.byte	0xb7
 6799 148c 97140000 		.4byte	0x1497
 6800 1490 2A       		.uleb128 0x2a
 6801 1491 C8060000 		.4byte	0x6c8
 6802 1495 37       		.byte	0x37
 6803 1496 00       		.byte	0
 6804 1497 1F       		.uleb128 0x1f
 6805 1498 D4060000 		.4byte	0x6d4
 6806 149c 76020000 		.4byte	.LBB938
 6807 14a0 7A020000 		.4byte	.LBE938
 6808 14a4 01       		.byte	0x1
 6809 14a5 B7       		.byte	0xb7
 6810 14a6 B2140000 		.4byte	0x14b2
 6811 14aa 2C       		.uleb128 0x2c
 6812 14ab E1060000 		.4byte	0x6e1
 6813 14af 0205     		.2byte	0x502
 6814 14b1 00       		.byte	0
 6815 14b2 1D       		.uleb128 0x1d
 6816 14b3 D4060000 		.4byte	0x6d4
 6817 14b7 7E020000 		.4byte	.LBB940
 6818 14bb C8040000 		.4byte	.Ldebug_ranges0+0x4c8
 6819 14bf 01       		.byte	0x1
 6820 14c0 B8       		.byte	0xb8
 6821 14c1 CD140000 		.4byte	0x14cd
 6822 14c5 2C       		.uleb128 0x2c
ARM GAS  /tmp/ccVxBZiF.s 			page 121


 6823 14c6 E1060000 		.4byte	0x6e1
 6824 14ca 0203     		.2byte	0x302
 6825 14cc 00       		.byte	0
 6826 14cd 1F       		.uleb128 0x1f
 6827 14ce BB060000 		.4byte	0x6bb
 6828 14d2 82020000 		.4byte	.LBB943
 6829 14d6 86020000 		.4byte	.LBE943
 6830 14da 01       		.byte	0x1
 6831 14db B8       		.byte	0xb8
 6832 14dc E7140000 		.4byte	0x14e7
 6833 14e0 2A       		.uleb128 0x2a
 6834 14e1 C8060000 		.4byte	0x6c8
 6835 14e5 3A       		.byte	0x3a
 6836 14e6 00       		.byte	0
 6837 14e7 1F       		.uleb128 0x1f
 6838 14e8 BB060000 		.4byte	0x6bb
 6839 14ec 90020000 		.4byte	.LBB946
 6840 14f0 94020000 		.4byte	.LBE946
 6841 14f4 01       		.byte	0x1
 6842 14f5 B9       		.byte	0xb9
 6843 14f6 01150000 		.4byte	0x1501
 6844 14fa 2A       		.uleb128 0x2a
 6845 14fb C8060000 		.4byte	0x6c8
 6846 14ff 3B       		.byte	0x3b
 6847 1500 00       		.byte	0
 6848 1501 1F       		.uleb128 0x1f
 6849 1502 D4060000 		.4byte	0x6d4
 6850 1506 96020000 		.4byte	.LBB948
 6851 150a 9A020000 		.4byte	.LBE948
 6852 150e 01       		.byte	0x1
 6853 150f B9       		.byte	0xb9
 6854 1510 1C150000 		.4byte	0x151c
 6855 1514 2C       		.uleb128 0x2c
 6856 1515 E1060000 		.4byte	0x6e1
 6857 1519 0203     		.2byte	0x302
 6858 151b 00       		.byte	0
 6859 151c 1F       		.uleb128 0x1f
 6860 151d BB060000 		.4byte	0x6bb
 6861 1521 9E020000 		.4byte	.LBB950
 6862 1525 A2020000 		.4byte	.LBE950
 6863 1529 01       		.byte	0x1
 6864 152a BA       		.byte	0xba
 6865 152b 36150000 		.4byte	0x1536
 6866 152f 2A       		.uleb128 0x2a
 6867 1530 C8060000 		.4byte	0x6c8
 6868 1534 23       		.byte	0x23
 6869 1535 00       		.byte	0
 6870 1536 1F       		.uleb128 0x1f
 6871 1537 D4060000 		.4byte	0x6d4
 6872 153b A4020000 		.4byte	.LBB952
 6873 153f A6020000 		.4byte	.LBE952
 6874 1543 01       		.byte	0x1
 6875 1544 BA       		.byte	0xba
 6876 1545 50150000 		.4byte	0x1550
 6877 1549 2A       		.uleb128 0x2a
 6878 154a E1060000 		.4byte	0x6e1
 6879 154e 00       		.byte	0
ARM GAS  /tmp/ccVxBZiF.s 			page 122


 6880 154f 00       		.byte	0
 6881 1550 1F       		.uleb128 0x1f
 6882 1551 BB060000 		.4byte	0x6bb
 6883 1555 AA020000 		.4byte	.LBB954
 6884 1559 AE020000 		.4byte	.LBE954
 6885 155d 01       		.byte	0x1
 6886 155e BB       		.byte	0xbb
 6887 155f 6A150000 		.4byte	0x156a
 6888 1563 2A       		.uleb128 0x2a
 6889 1564 C8060000 		.4byte	0x6c8
 6890 1568 24       		.byte	0x24
 6891 1569 00       		.byte	0
 6892 156a 1F       		.uleb128 0x1f
 6893 156b D4060000 		.4byte	0x6d4
 6894 156f B0020000 		.4byte	.LBB956
 6895 1573 B2020000 		.4byte	.LBE956
 6896 1577 01       		.byte	0x1
 6897 1578 BB       		.byte	0xbb
 6898 1579 84150000 		.4byte	0x1584
 6899 157d 2A       		.uleb128 0x2a
 6900 157e E1060000 		.4byte	0x6e1
 6901 1582 00       		.byte	0
 6902 1583 00       		.byte	0
 6903 1584 1D       		.uleb128 0x1d
 6904 1585 BB060000 		.4byte	0x6bb
 6905 1589 B6020000 		.4byte	.LBB958
 6906 158d E0040000 		.4byte	.Ldebug_ranges0+0x4e0
 6907 1591 01       		.byte	0x1
 6908 1592 BC       		.byte	0xbc
 6909 1593 9E150000 		.4byte	0x159e
 6910 1597 2A       		.uleb128 0x2a
 6911 1598 C8060000 		.4byte	0x6c8
 6912 159c 25       		.byte	0x25
 6913 159d 00       		.byte	0
 6914 159e 1D       		.uleb128 0x1d
 6915 159f D4060000 		.4byte	0x6d4
 6916 15a3 B8020000 		.4byte	.LBB961
 6917 15a7 F8040000 		.4byte	.Ldebug_ranges0+0x4f8
 6918 15ab 01       		.byte	0x1
 6919 15ac BC       		.byte	0xbc
 6920 15ad BA150000 		.4byte	0x15ba
 6921 15b1 2B       		.uleb128 0x2b
 6922 15b2 E1060000 		.4byte	0x6e1
 6923 15b6 80807E   		.sleb128 -32768
 6924 15b9 00       		.byte	0
 6925 15ba 1F       		.uleb128 0x1f
 6926 15bb BB060000 		.4byte	0x6bb
 6927 15bf C6020000 		.4byte	.LBB966
 6928 15c3 CA020000 		.4byte	.LBE966
 6929 15c7 01       		.byte	0x1
 6930 15c8 BD       		.byte	0xbd
 6931 15c9 D4150000 		.4byte	0x15d4
 6932 15cd 2A       		.uleb128 0x2a
 6933 15ce C8060000 		.4byte	0x6c8
 6934 15d2 4F       		.byte	0x4f
 6935 15d3 00       		.byte	0
 6936 15d4 1F       		.uleb128 0x1f
ARM GAS  /tmp/ccVxBZiF.s 			page 123


 6937 15d5 D4060000 		.4byte	0x6d4
 6938 15d9 CC020000 		.4byte	.LBB968
 6939 15dd CE020000 		.4byte	.LBE968
 6940 15e1 01       		.byte	0x1
 6941 15e2 BD       		.byte	0xbd
 6942 15e3 EE150000 		.4byte	0x15ee
 6943 15e7 2A       		.uleb128 0x2a
 6944 15e8 E1060000 		.4byte	0x6e1
 6945 15ec 00       		.byte	0
 6946 15ed 00       		.byte	0
 6947 15ee 1F       		.uleb128 0x1f
 6948 15ef BB060000 		.4byte	0x6bb
 6949 15f3 D2020000 		.4byte	.LBB970
 6950 15f7 D6020000 		.4byte	.LBE970
 6951 15fb 01       		.byte	0x1
 6952 15fc BE       		.byte	0xbe
 6953 15fd 08160000 		.4byte	0x1608
 6954 1601 2A       		.uleb128 0x2a
 6955 1602 C8060000 		.4byte	0x6c8
 6956 1606 4E       		.byte	0x4e
 6957 1607 00       		.byte	0
 6958 1608 1F       		.uleb128 0x1f
 6959 1609 D4060000 		.4byte	0x6d4
 6960 160d D8020000 		.4byte	.LBB972
 6961 1611 DA020000 		.4byte	.LBE972
 6962 1615 01       		.byte	0x1
 6963 1616 BE       		.byte	0xbe
 6964 1617 22160000 		.4byte	0x1622
 6965 161b 2A       		.uleb128 0x2a
 6966 161c E1060000 		.4byte	0x6e1
 6967 1620 00       		.byte	0
 6968 1621 00       		.byte	0
 6969 1622 27       		.uleb128 0x27
 6970 1623 86000000 		.4byte	.LVL92
 6971 1627 97270000 		.4byte	0x2797
 6972 162b 35160000 		.4byte	0x1635
 6973 162f 28       		.uleb128 0x28
 6974 1630 01       		.byte	0x1
 6975 1631 50       		.byte	0x50
 6976 1632 01       		.byte	0x1
 6977 1633 44       		.byte	0x44
 6978 1634 00       		.byte	0
 6979 1635 27       		.uleb128 0x27
 6980 1636 94000000 		.4byte	.LVL93
 6981 163a 97270000 		.4byte	0x2797
 6982 163e 48160000 		.4byte	0x1648
 6983 1642 28       		.uleb128 0x28
 6984 1643 01       		.byte	0x1
 6985 1644 50       		.byte	0x50
 6986 1645 01       		.byte	0x1
 6987 1646 44       		.byte	0x44
 6988 1647 00       		.byte	0
 6989 1648 27       		.uleb128 0x27
 6990 1649 A0000000 		.4byte	.LVL95
 6991 164d AB270000 		.4byte	0x27ab
 6992 1651 5B160000 		.4byte	0x165b
 6993 1655 28       		.uleb128 0x28
ARM GAS  /tmp/ccVxBZiF.s 			page 124


 6994 1656 01       		.byte	0x1
 6995 1657 50       		.byte	0x50
 6996 1658 01       		.byte	0x1
 6997 1659 35       		.byte	0x35
 6998 165a 00       		.byte	0
 6999 165b 27       		.uleb128 0x27
 7000 165c B4000000 		.4byte	.LVL97
 7001 1660 AB270000 		.4byte	0x27ab
 7002 1664 6E160000 		.4byte	0x166e
 7003 1668 28       		.uleb128 0x28
 7004 1669 01       		.byte	0x1
 7005 166a 50       		.byte	0x50
 7006 166b 01       		.byte	0x1
 7007 166c 35       		.byte	0x35
 7008 166d 00       		.byte	0
 7009 166e 27       		.uleb128 0x27
 7010 166f C0000000 		.4byte	.LVL99
 7011 1673 AB270000 		.4byte	0x27ab
 7012 1677 81160000 		.4byte	0x1681
 7013 167b 28       		.uleb128 0x28
 7014 167c 01       		.byte	0x1
 7015 167d 50       		.byte	0x50
 7016 167e 01       		.byte	0x1
 7017 167f 35       		.byte	0x35
 7018 1680 00       		.byte	0
 7019 1681 27       		.uleb128 0x27
 7020 1682 D0000000 		.4byte	.LVL101
 7021 1686 AB270000 		.4byte	0x27ab
 7022 168a 94160000 		.4byte	0x1694
 7023 168e 28       		.uleb128 0x28
 7024 168f 01       		.byte	0x1
 7025 1690 50       		.byte	0x50
 7026 1691 01       		.byte	0x1
 7027 1692 35       		.byte	0x35
 7028 1693 00       		.byte	0
 7029 1694 27       		.uleb128 0x27
 7030 1695 E0000000 		.4byte	.LVL103
 7031 1699 AB270000 		.4byte	0x27ab
 7032 169d A7160000 		.4byte	0x16a7
 7033 16a1 28       		.uleb128 0x28
 7034 16a2 01       		.byte	0x1
 7035 16a3 50       		.byte	0x50
 7036 16a4 01       		.byte	0x1
 7037 16a5 35       		.byte	0x35
 7038 16a6 00       		.byte	0
 7039 16a7 27       		.uleb128 0x27
 7040 16a8 F2000000 		.4byte	.LVL105
 7041 16ac AB270000 		.4byte	0x27ab
 7042 16b0 BA160000 		.4byte	0x16ba
 7043 16b4 28       		.uleb128 0x28
 7044 16b5 01       		.byte	0x1
 7045 16b6 50       		.byte	0x50
 7046 16b7 01       		.byte	0x1
 7047 16b8 35       		.byte	0x35
 7048 16b9 00       		.byte	0
 7049 16ba 27       		.uleb128 0x27
 7050 16bb FE000000 		.4byte	.LVL107
ARM GAS  /tmp/ccVxBZiF.s 			page 125


 7051 16bf AB270000 		.4byte	0x27ab
 7052 16c3 CD160000 		.4byte	0x16cd
 7053 16c7 28       		.uleb128 0x28
 7054 16c8 01       		.byte	0x1
 7055 16c9 50       		.byte	0x50
 7056 16ca 01       		.byte	0x1
 7057 16cb 35       		.byte	0x35
 7058 16cc 00       		.byte	0
 7059 16cd 27       		.uleb128 0x27
 7060 16ce 0E010000 		.4byte	.LVL109
 7061 16d2 AB270000 		.4byte	0x27ab
 7062 16d6 E0160000 		.4byte	0x16e0
 7063 16da 28       		.uleb128 0x28
 7064 16db 01       		.byte	0x1
 7065 16dc 50       		.byte	0x50
 7066 16dd 01       		.byte	0x1
 7067 16de 35       		.byte	0x35
 7068 16df 00       		.byte	0
 7069 16e0 27       		.uleb128 0x27
 7070 16e1 1C010000 		.4byte	.LVL111
 7071 16e5 AB270000 		.4byte	0x27ab
 7072 16e9 F4160000 		.4byte	0x16f4
 7073 16ed 28       		.uleb128 0x28
 7074 16ee 01       		.byte	0x1
 7075 16ef 50       		.byte	0x50
 7076 16f0 02       		.byte	0x2
 7077 16f1 76       		.byte	0x76
 7078 16f2 00       		.sleb128 0
 7079 16f3 00       		.byte	0
 7080 16f4 27       		.uleb128 0x27
 7081 16f5 2C010000 		.4byte	.LVL113
 7082 16f9 AB270000 		.4byte	0x27ab
 7083 16fd 08170000 		.4byte	0x1708
 7084 1701 28       		.uleb128 0x28
 7085 1702 01       		.byte	0x1
 7086 1703 50       		.byte	0x50
 7087 1704 02       		.byte	0x2
 7088 1705 76       		.byte	0x76
 7089 1706 00       		.sleb128 0
 7090 1707 00       		.byte	0
 7091 1708 27       		.uleb128 0x27
 7092 1709 36010000 		.4byte	.LVL115
 7093 170d AB270000 		.4byte	0x27ab
 7094 1711 1C170000 		.4byte	0x171c
 7095 1715 28       		.uleb128 0x28
 7096 1716 01       		.byte	0x1
 7097 1717 50       		.byte	0x50
 7098 1718 02       		.byte	0x2
 7099 1719 76       		.byte	0x76
 7100 171a 00       		.sleb128 0
 7101 171b 00       		.byte	0
 7102 171c 27       		.uleb128 0x27
 7103 171d 42010000 		.4byte	.LVL117
 7104 1721 AB270000 		.4byte	0x27ab
 7105 1725 30170000 		.4byte	0x1730
 7106 1729 28       		.uleb128 0x28
 7107 172a 01       		.byte	0x1
ARM GAS  /tmp/ccVxBZiF.s 			page 126


 7108 172b 50       		.byte	0x50
 7109 172c 02       		.byte	0x2
 7110 172d 76       		.byte	0x76
 7111 172e 00       		.sleb128 0
 7112 172f 00       		.byte	0
 7113 1730 27       		.uleb128 0x27
 7114 1731 52010000 		.4byte	.LVL119
 7115 1735 AB270000 		.4byte	0x27ab
 7116 1739 44170000 		.4byte	0x1744
 7117 173d 28       		.uleb128 0x28
 7118 173e 01       		.byte	0x1
 7119 173f 50       		.byte	0x50
 7120 1740 02       		.byte	0x2
 7121 1741 76       		.byte	0x76
 7122 1742 00       		.sleb128 0
 7123 1743 00       		.byte	0
 7124 1744 27       		.uleb128 0x27
 7125 1745 60010000 		.4byte	.LVL121
 7126 1749 AB270000 		.4byte	0x27ab
 7127 174d 58170000 		.4byte	0x1758
 7128 1751 28       		.uleb128 0x28
 7129 1752 01       		.byte	0x1
 7130 1753 50       		.byte	0x50
 7131 1754 02       		.byte	0x2
 7132 1755 76       		.byte	0x76
 7133 1756 00       		.sleb128 0
 7134 1757 00       		.byte	0
 7135 1758 27       		.uleb128 0x27
 7136 1759 70010000 		.4byte	.LVL123
 7137 175d AB270000 		.4byte	0x27ab
 7138 1761 6C170000 		.4byte	0x176c
 7139 1765 28       		.uleb128 0x28
 7140 1766 01       		.byte	0x1
 7141 1767 50       		.byte	0x50
 7142 1768 02       		.byte	0x2
 7143 1769 76       		.byte	0x76
 7144 176a 00       		.sleb128 0
 7145 176b 00       		.byte	0
 7146 176c 27       		.uleb128 0x27
 7147 176d 7C010000 		.4byte	.LVL125
 7148 1771 AB270000 		.4byte	0x27ab
 7149 1775 80170000 		.4byte	0x1780
 7150 1779 28       		.uleb128 0x28
 7151 177a 01       		.byte	0x1
 7152 177b 50       		.byte	0x50
 7153 177c 02       		.byte	0x2
 7154 177d 76       		.byte	0x76
 7155 177e 00       		.sleb128 0
 7156 177f 00       		.byte	0
 7157 1780 27       		.uleb128 0x27
 7158 1781 88010000 		.4byte	.LVL127
 7159 1785 AB270000 		.4byte	0x27ab
 7160 1789 94170000 		.4byte	0x1794
 7161 178d 28       		.uleb128 0x28
 7162 178e 01       		.byte	0x1
 7163 178f 50       		.byte	0x50
 7164 1790 02       		.byte	0x2
ARM GAS  /tmp/ccVxBZiF.s 			page 127


 7165 1791 76       		.byte	0x76
 7166 1792 00       		.sleb128 0
 7167 1793 00       		.byte	0
 7168 1794 27       		.uleb128 0x27
 7169 1795 94010000 		.4byte	.LVL129
 7170 1799 AB270000 		.4byte	0x27ab
 7171 179d A8170000 		.4byte	0x17a8
 7172 17a1 28       		.uleb128 0x28
 7173 17a2 01       		.byte	0x1
 7174 17a3 50       		.byte	0x50
 7175 17a4 02       		.byte	0x2
 7176 17a5 76       		.byte	0x76
 7177 17a6 00       		.sleb128 0
 7178 17a7 00       		.byte	0
 7179 17a8 27       		.uleb128 0x27
 7180 17a9 A0010000 		.4byte	.LVL131
 7181 17ad AB270000 		.4byte	0x27ab
 7182 17b1 BC170000 		.4byte	0x17bc
 7183 17b5 28       		.uleb128 0x28
 7184 17b6 01       		.byte	0x1
 7185 17b7 50       		.byte	0x50
 7186 17b8 02       		.byte	0x2
 7187 17b9 76       		.byte	0x76
 7188 17ba 00       		.sleb128 0
 7189 17bb 00       		.byte	0
 7190 17bc 27       		.uleb128 0x27
 7191 17bd AC010000 		.4byte	.LVL133
 7192 17c1 AB270000 		.4byte	0x27ab
 7193 17c5 D0170000 		.4byte	0x17d0
 7194 17c9 28       		.uleb128 0x28
 7195 17ca 01       		.byte	0x1
 7196 17cb 50       		.byte	0x50
 7197 17cc 02       		.byte	0x2
 7198 17cd 76       		.byte	0x76
 7199 17ce 00       		.sleb128 0
 7200 17cf 00       		.byte	0
 7201 17d0 27       		.uleb128 0x27
 7202 17d1 BE010000 		.4byte	.LVL135
 7203 17d5 AB270000 		.4byte	0x27ab
 7204 17d9 E4170000 		.4byte	0x17e4
 7205 17dd 28       		.uleb128 0x28
 7206 17de 01       		.byte	0x1
 7207 17df 50       		.byte	0x50
 7208 17e0 02       		.byte	0x2
 7209 17e1 76       		.byte	0x76
 7210 17e2 00       		.sleb128 0
 7211 17e3 00       		.byte	0
 7212 17e4 27       		.uleb128 0x27
 7213 17e5 CA010000 		.4byte	.LVL137
 7214 17e9 AB270000 		.4byte	0x27ab
 7215 17ed F8170000 		.4byte	0x17f8
 7216 17f1 28       		.uleb128 0x28
 7217 17f2 01       		.byte	0x1
 7218 17f3 50       		.byte	0x50
 7219 17f4 02       		.byte	0x2
 7220 17f5 76       		.byte	0x76
 7221 17f6 00       		.sleb128 0
ARM GAS  /tmp/ccVxBZiF.s 			page 128


 7222 17f7 00       		.byte	0
 7223 17f8 27       		.uleb128 0x27
 7224 17f9 D6010000 		.4byte	.LVL139
 7225 17fd AB270000 		.4byte	0x27ab
 7226 1801 0C180000 		.4byte	0x180c
 7227 1805 28       		.uleb128 0x28
 7228 1806 01       		.byte	0x1
 7229 1807 50       		.byte	0x50
 7230 1808 02       		.byte	0x2
 7231 1809 76       		.byte	0x76
 7232 180a 00       		.sleb128 0
 7233 180b 00       		.byte	0
 7234 180c 27       		.uleb128 0x27
 7235 180d E6010000 		.4byte	.LVL141
 7236 1811 AB270000 		.4byte	0x27ab
 7237 1815 20180000 		.4byte	0x1820
 7238 1819 28       		.uleb128 0x28
 7239 181a 01       		.byte	0x1
 7240 181b 50       		.byte	0x50
 7241 181c 02       		.byte	0x2
 7242 181d 76       		.byte	0x76
 7243 181e 00       		.sleb128 0
 7244 181f 00       		.byte	0
 7245 1820 27       		.uleb128 0x27
 7246 1821 F2010000 		.4byte	.LVL143
 7247 1825 AB270000 		.4byte	0x27ab
 7248 1829 34180000 		.4byte	0x1834
 7249 182d 28       		.uleb128 0x28
 7250 182e 01       		.byte	0x1
 7251 182f 50       		.byte	0x50
 7252 1830 02       		.byte	0x2
 7253 1831 76       		.byte	0x76
 7254 1832 00       		.sleb128 0
 7255 1833 00       		.byte	0
 7256 1834 27       		.uleb128 0x27
 7257 1835 00020000 		.4byte	.LVL145
 7258 1839 AB270000 		.4byte	0x27ab
 7259 183d 48180000 		.4byte	0x1848
 7260 1841 28       		.uleb128 0x28
 7261 1842 01       		.byte	0x1
 7262 1843 50       		.byte	0x50
 7263 1844 02       		.byte	0x2
 7264 1845 76       		.byte	0x76
 7265 1846 00       		.sleb128 0
 7266 1847 00       		.byte	0
 7267 1848 27       		.uleb128 0x27
 7268 1849 10020000 		.4byte	.LVL147
 7269 184d AB270000 		.4byte	0x27ab
 7270 1851 5C180000 		.4byte	0x185c
 7271 1855 28       		.uleb128 0x28
 7272 1856 01       		.byte	0x1
 7273 1857 50       		.byte	0x50
 7274 1858 02       		.byte	0x2
 7275 1859 76       		.byte	0x76
 7276 185a 00       		.sleb128 0
 7277 185b 00       		.byte	0
 7278 185c 27       		.uleb128 0x27
ARM GAS  /tmp/ccVxBZiF.s 			page 129


 7279 185d 22020000 		.4byte	.LVL149
 7280 1861 AB270000 		.4byte	0x27ab
 7281 1865 70180000 		.4byte	0x1870
 7282 1869 28       		.uleb128 0x28
 7283 186a 01       		.byte	0x1
 7284 186b 50       		.byte	0x50
 7285 186c 02       		.byte	0x2
 7286 186d 76       		.byte	0x76
 7287 186e 00       		.sleb128 0
 7288 186f 00       		.byte	0
 7289 1870 27       		.uleb128 0x27
 7290 1871 36020000 		.4byte	.LVL151
 7291 1875 AB270000 		.4byte	0x27ab
 7292 1879 84180000 		.4byte	0x1884
 7293 187d 28       		.uleb128 0x28
 7294 187e 01       		.byte	0x1
 7295 187f 50       		.byte	0x50
 7296 1880 02       		.byte	0x2
 7297 1881 76       		.byte	0x76
 7298 1882 00       		.sleb128 0
 7299 1883 00       		.byte	0
 7300 1884 27       		.uleb128 0x27
 7301 1885 44020000 		.4byte	.LVL153
 7302 1889 AB270000 		.4byte	0x27ab
 7303 188d 98180000 		.4byte	0x1898
 7304 1891 28       		.uleb128 0x28
 7305 1892 01       		.byte	0x1
 7306 1893 50       		.byte	0x50
 7307 1894 02       		.byte	0x2
 7308 1895 76       		.byte	0x76
 7309 1896 00       		.sleb128 0
 7310 1897 00       		.byte	0
 7311 1898 27       		.uleb128 0x27
 7312 1899 54020000 		.4byte	.LVL155
 7313 189d AB270000 		.4byte	0x27ab
 7314 18a1 AC180000 		.4byte	0x18ac
 7315 18a5 28       		.uleb128 0x28
 7316 18a6 01       		.byte	0x1
 7317 18a7 50       		.byte	0x50
 7318 18a8 02       		.byte	0x2
 7319 18a9 76       		.byte	0x76
 7320 18aa 00       		.sleb128 0
 7321 18ab 00       		.byte	0
 7322 18ac 27       		.uleb128 0x27
 7323 18ad 62020000 		.4byte	.LVL157
 7324 18b1 AB270000 		.4byte	0x27ab
 7325 18b5 C0180000 		.4byte	0x18c0
 7326 18b9 28       		.uleb128 0x28
 7327 18ba 01       		.byte	0x1
 7328 18bb 50       		.byte	0x50
 7329 18bc 02       		.byte	0x2
 7330 18bd 76       		.byte	0x76
 7331 18be 00       		.sleb128 0
 7332 18bf 00       		.byte	0
 7333 18c0 27       		.uleb128 0x27
 7334 18c1 70020000 		.4byte	.LVL159
 7335 18c5 AB270000 		.4byte	0x27ab
ARM GAS  /tmp/ccVxBZiF.s 			page 130


 7336 18c9 D4180000 		.4byte	0x18d4
 7337 18cd 28       		.uleb128 0x28
 7338 18ce 01       		.byte	0x1
 7339 18cf 50       		.byte	0x50
 7340 18d0 02       		.byte	0x2
 7341 18d1 76       		.byte	0x76
 7342 18d2 00       		.sleb128 0
 7343 18d3 00       		.byte	0
 7344 18d4 27       		.uleb128 0x27
 7345 18d5 7E020000 		.4byte	.LVL161
 7346 18d9 AB270000 		.4byte	0x27ab
 7347 18dd E8180000 		.4byte	0x18e8
 7348 18e1 28       		.uleb128 0x28
 7349 18e2 01       		.byte	0x1
 7350 18e3 50       		.byte	0x50
 7351 18e4 02       		.byte	0x2
 7352 18e5 76       		.byte	0x76
 7353 18e6 00       		.sleb128 0
 7354 18e7 00       		.byte	0
 7355 18e8 27       		.uleb128 0x27
 7356 18e9 90020000 		.4byte	.LVL163
 7357 18ed AB270000 		.4byte	0x27ab
 7358 18f1 FC180000 		.4byte	0x18fc
 7359 18f5 28       		.uleb128 0x28
 7360 18f6 01       		.byte	0x1
 7361 18f7 50       		.byte	0x50
 7362 18f8 02       		.byte	0x2
 7363 18f9 76       		.byte	0x76
 7364 18fa 00       		.sleb128 0
 7365 18fb 00       		.byte	0
 7366 18fc 27       		.uleb128 0x27
 7367 18fd 9E020000 		.4byte	.LVL165
 7368 1901 AB270000 		.4byte	0x27ab
 7369 1905 10190000 		.4byte	0x1910
 7370 1909 28       		.uleb128 0x28
 7371 190a 01       		.byte	0x1
 7372 190b 50       		.byte	0x50
 7373 190c 02       		.byte	0x2
 7374 190d 76       		.byte	0x76
 7375 190e 00       		.sleb128 0
 7376 190f 00       		.byte	0
 7377 1910 27       		.uleb128 0x27
 7378 1911 AA020000 		.4byte	.LVL167
 7379 1915 AB270000 		.4byte	0x27ab
 7380 1919 24190000 		.4byte	0x1924
 7381 191d 28       		.uleb128 0x28
 7382 191e 01       		.byte	0x1
 7383 191f 50       		.byte	0x50
 7384 1920 02       		.byte	0x2
 7385 1921 76       		.byte	0x76
 7386 1922 00       		.sleb128 0
 7387 1923 00       		.byte	0
 7388 1924 27       		.uleb128 0x27
 7389 1925 B6020000 		.4byte	.LVL169
 7390 1929 AB270000 		.4byte	0x27ab
 7391 192d 38190000 		.4byte	0x1938
 7392 1931 28       		.uleb128 0x28
ARM GAS  /tmp/ccVxBZiF.s 			page 131


 7393 1932 01       		.byte	0x1
 7394 1933 50       		.byte	0x50
 7395 1934 02       		.byte	0x2
 7396 1935 76       		.byte	0x76
 7397 1936 00       		.sleb128 0
 7398 1937 00       		.byte	0
 7399 1938 27       		.uleb128 0x27
 7400 1939 C6020000 		.4byte	.LVL171
 7401 193d AB270000 		.4byte	0x27ab
 7402 1941 4C190000 		.4byte	0x194c
 7403 1945 28       		.uleb128 0x28
 7404 1946 01       		.byte	0x1
 7405 1947 50       		.byte	0x50
 7406 1948 02       		.byte	0x2
 7407 1949 76       		.byte	0x76
 7408 194a 00       		.sleb128 0
 7409 194b 00       		.byte	0
 7410 194c 27       		.uleb128 0x27
 7411 194d D2020000 		.4byte	.LVL173
 7412 1951 AB270000 		.4byte	0x27ab
 7413 1955 60190000 		.4byte	0x1960
 7414 1959 28       		.uleb128 0x28
 7415 195a 01       		.byte	0x1
 7416 195b 50       		.byte	0x50
 7417 195c 02       		.byte	0x2
 7418 195d 76       		.byte	0x76
 7419 195e 00       		.sleb128 0
 7420 195f 00       		.byte	0
 7421 1960 29       		.uleb128 0x29
 7422 1961 DE020000 		.4byte	.LVL175
 7423 1965 AB270000 		.4byte	0x27ab
 7424 1969 28       		.uleb128 0x28
 7425 196a 01       		.byte	0x1
 7426 196b 50       		.byte	0x50
 7427 196c 02       		.byte	0x2
 7428 196d 76       		.byte	0x76
 7429 196e 00       		.sleb128 0
 7430 196f 00       		.byte	0
 7431 1970 00       		.byte	0
 7432 1971 2D       		.uleb128 0x2d
 7433 1972 38070000 		.4byte	0x738
 7434 1976 00000000 		.4byte	.LFB136
 7435 197a B4000000 		.4byte	.LFE136
 7436 197e 3D070000 		.4byte	.LLST53
 7437 1982 01       		.byte	0x1
 7438 1983 971B0000 		.4byte	0x1b97
 7439 1987 1E       		.uleb128 0x1e
 7440 1988 46070000 		.4byte	0x746
 7441 198c 5D070000 		.4byte	.LLST54
 7442 1990 1E       		.uleb128 0x1e
 7443 1991 4F070000 		.4byte	0x74f
 7444 1995 D4070000 		.4byte	.LLST55
 7445 1999 2E       		.uleb128 0x2e
 7446 199a 58070000 		.4byte	0x758
 7447 199e 01       		.byte	0x1
 7448 199f 52       		.byte	0x52
 7449 19a0 2F       		.uleb128 0x2f
ARM GAS  /tmp/ccVxBZiF.s 			page 132


 7450 19a1 38070000 		.4byte	0x738
 7451 19a5 1C000000 		.4byte	.LBB1040
 7452 19a9 10050000 		.4byte	.Ldebug_ranges0+0x510
 7453 19ad 01       		.byte	0x1
 7454 19ae DF       		.byte	0xdf
 7455 19af 1E       		.uleb128 0x1e
 7456 19b0 58070000 		.4byte	0x758
 7457 19b4 4B080000 		.4byte	.LLST56
 7458 19b8 1E       		.uleb128 0x1e
 7459 19b9 4F070000 		.4byte	0x74f
 7460 19bd 69080000 		.4byte	.LLST57
 7461 19c1 1E       		.uleb128 0x1e
 7462 19c2 46070000 		.4byte	0x746
 7463 19c6 A8080000 		.4byte	.LLST58
 7464 19ca 1D       		.uleb128 0x1d
 7465 19cb ED060000 		.4byte	0x6ed
 7466 19cf 28000000 		.4byte	.LBB1042
 7467 19d3 28050000 		.4byte	.Ldebug_ranges0+0x528
 7468 19d7 01       		.byte	0x1
 7469 19d8 E5       		.byte	0xe5
 7470 19d9 5F1B0000 		.4byte	0x1b5f
 7471 19dd 1E       		.uleb128 0x1e
 7472 19de 03070000 		.4byte	0x703
 7473 19e2 E7080000 		.4byte	.LLST59
 7474 19e6 1E       		.uleb128 0x1e
 7475 19e7 FA060000 		.4byte	0x6fa
 7476 19eb 1B090000 		.4byte	.LLST60
 7477 19ef 1D       		.uleb128 0x1d
 7478 19f0 D4060000 		.4byte	0x6d4
 7479 19f4 3A000000 		.4byte	.LBB1044
 7480 19f8 40050000 		.4byte	.Ldebug_ranges0+0x540
 7481 19fc 01       		.byte	0x1
 7482 19fd 39       		.byte	0x39
 7483 19fe 081A0000 		.4byte	0x1a08
 7484 1a02 20       		.uleb128 0x20
 7485 1a03 E1060000 		.4byte	0x6e1
 7486 1a07 00       		.byte	0
 7487 1a08 1F       		.uleb128 0x1f
 7488 1a09 BB060000 		.4byte	0x6bb
 7489 1a0d 3E000000 		.4byte	.LBB1047
 7490 1a11 42000000 		.4byte	.LBE1047
 7491 1a15 01       		.byte	0x1
 7492 1a16 39       		.byte	0x39
 7493 1a17 251A0000 		.4byte	0x1a25
 7494 1a1b 1E       		.uleb128 0x1e
 7495 1a1c C8060000 		.4byte	0x6c8
 7496 1a20 4F090000 		.4byte	.LLST61
 7497 1a24 00       		.byte	0
 7498 1a25 1D       		.uleb128 0x1d
 7499 1a26 BB060000 		.4byte	0x6bb
 7500 1a2a 50000000 		.4byte	.LBB1050
 7501 1a2e 58050000 		.4byte	.Ldebug_ranges0+0x558
 7502 1a32 01       		.byte	0x1
 7503 1a33 3D       		.byte	0x3d
 7504 1a34 3F1A0000 		.4byte	0x1a3f
 7505 1a38 2A       		.uleb128 0x2a
 7506 1a39 C8060000 		.4byte	0x6c8
ARM GAS  /tmp/ccVxBZiF.s 			page 133


 7507 1a3d 4E       		.byte	0x4e
 7508 1a3e 00       		.byte	0
 7509 1a3f 1D       		.uleb128 0x1d
 7510 1a40 D4060000 		.4byte	0x6d4
 7511 1a44 54000000 		.4byte	.LBB1053
 7512 1a48 70050000 		.4byte	.Ldebug_ranges0+0x570
 7513 1a4c 01       		.byte	0x1
 7514 1a4d 3D       		.byte	0x3d
 7515 1a4e 5C1A0000 		.4byte	0x1a5c
 7516 1a52 1E       		.uleb128 0x1e
 7517 1a53 E1060000 		.4byte	0x6e1
 7518 1a57 64090000 		.4byte	.LLST62
 7519 1a5b 00       		.byte	0
 7520 1a5c 1F       		.uleb128 0x1f
 7521 1a5d BB060000 		.4byte	0x6bb
 7522 1a61 56000000 		.4byte	.LBB1057
 7523 1a65 5A000000 		.4byte	.LBE1057
 7524 1a69 01       		.byte	0x1
 7525 1a6a 3E       		.byte	0x3e
 7526 1a6b 791A0000 		.4byte	0x1a79
 7527 1a6f 1E       		.uleb128 0x1e
 7528 1a70 C8060000 		.4byte	0x6c8
 7529 1a74 77090000 		.4byte	.LLST63
 7530 1a78 00       		.byte	0
 7531 1a79 1F       		.uleb128 0x1f
 7532 1a7a D4060000 		.4byte	0x6d4
 7533 1a7e 5A000000 		.4byte	.LBB1059
 7534 1a82 5C000000 		.4byte	.LBE1059
 7535 1a86 01       		.byte	0x1
 7536 1a87 3E       		.byte	0x3e
 7537 1a88 961A0000 		.4byte	0x1a96
 7538 1a8c 1E       		.uleb128 0x1e
 7539 1a8d E1060000 		.4byte	0x6e1
 7540 1a91 8C090000 		.4byte	.LLST64
 7541 1a95 00       		.byte	0
 7542 1a96 1D       		.uleb128 0x1d
 7543 1a97 D4060000 		.4byte	0x6d4
 7544 1a9b 6E000000 		.4byte	.LBB1061
 7545 1a9f 90050000 		.4byte	.Ldebug_ranges0+0x590
 7546 1aa3 01       		.byte	0x1
 7547 1aa4 41       		.byte	0x41
 7548 1aa5 AF1A0000 		.4byte	0x1aaf
 7549 1aa9 20       		.uleb128 0x20
 7550 1aaa E1060000 		.4byte	0x6e1
 7551 1aae 00       		.byte	0
 7552 1aaf 1F       		.uleb128 0x1f
 7553 1ab0 BB060000 		.4byte	0x6bb
 7554 1ab4 70000000 		.4byte	.LBB1064
 7555 1ab8 74000000 		.4byte	.LBE1064
 7556 1abc 01       		.byte	0x1
 7557 1abd 41       		.byte	0x41
 7558 1abe CC1A0000 		.4byte	0x1acc
 7559 1ac2 1E       		.uleb128 0x1e
 7560 1ac3 C8060000 		.4byte	0x6c8
 7561 1ac7 9F090000 		.4byte	.LLST65
 7562 1acb 00       		.byte	0
 7563 1acc 21       		.uleb128 0x21
ARM GAS  /tmp/ccVxBZiF.s 			page 134


 7564 1acd ED060000 		.4byte	0x6ed
 7565 1ad1 78000000 		.4byte	.LBB1067
 7566 1ad5 A2000000 		.4byte	.LBE1067
 7567 1ad9 01       		.byte	0x1
 7568 1ada DF       		.byte	0xdf
 7569 1adb 1E       		.uleb128 0x1e
 7570 1adc 03070000 		.4byte	0x703
 7571 1ae0 B4090000 		.4byte	.LLST66
 7572 1ae4 1E       		.uleb128 0x1e
 7573 1ae5 FA060000 		.4byte	0x6fa
 7574 1ae9 C7090000 		.4byte	.LLST67
 7575 1aed 1D       		.uleb128 0x1d
 7576 1aee BB060000 		.4byte	0x6bb
 7577 1af2 7E000000 		.4byte	.LBB1069
 7578 1af6 A8050000 		.4byte	.Ldebug_ranges0+0x5a8
 7579 1afa 01       		.byte	0x1
 7580 1afb 45       		.byte	0x45
 7581 1afc 0A1B0000 		.4byte	0x1b0a
 7582 1b00 1E       		.uleb128 0x1e
 7583 1b01 C8060000 		.4byte	0x6c8
 7584 1b05 DA090000 		.4byte	.LLST68
 7585 1b09 00       		.byte	0
 7586 1b0a 1D       		.uleb128 0x1d
 7587 1b0b D4060000 		.4byte	0x6d4
 7588 1b0f 82000000 		.4byte	.LBB1072
 7589 1b13 C0050000 		.4byte	.Ldebug_ranges0+0x5c0
 7590 1b17 01       		.byte	0x1
 7591 1b18 45       		.byte	0x45
 7592 1b19 271B0000 		.4byte	0x1b27
 7593 1b1d 1E       		.uleb128 0x1e
 7594 1b1e E1060000 		.4byte	0x6e1
 7595 1b22 EF090000 		.4byte	.LLST69
 7596 1b26 00       		.byte	0
 7597 1b27 1F       		.uleb128 0x1f
 7598 1b28 BB060000 		.4byte	0x6bb
 7599 1b2c 84000000 		.4byte	.LBB1076
 7600 1b30 88000000 		.4byte	.LBE1076
 7601 1b34 01       		.byte	0x1
 7602 1b35 46       		.byte	0x46
 7603 1b36 441B0000 		.4byte	0x1b44
 7604 1b3a 1E       		.uleb128 0x1e
 7605 1b3b C8060000 		.4byte	0x6c8
 7606 1b3f 020A0000 		.4byte	.LLST70
 7607 1b43 00       		.byte	0
 7608 1b44 21       		.uleb128 0x21
 7609 1b45 D4060000 		.4byte	0x6d4
 7610 1b49 88000000 		.4byte	.LBB1078
 7611 1b4d 8C000000 		.4byte	.LBE1078
 7612 1b51 01       		.byte	0x1
 7613 1b52 46       		.byte	0x46
 7614 1b53 1E       		.uleb128 0x1e
 7615 1b54 E1060000 		.4byte	0x6e1
 7616 1b58 170A0000 		.4byte	.LLST71
 7617 1b5c 00       		.byte	0
 7618 1b5d 00       		.byte	0
 7619 1b5e 00       		.byte	0
 7620 1b5f 1D       		.uleb128 0x1d
ARM GAS  /tmp/ccVxBZiF.s 			page 135


 7621 1b60 D4060000 		.4byte	0x6d4
 7622 1b64 5C000000 		.4byte	.LBB1087
 7623 1b68 E0050000 		.4byte	.Ldebug_ranges0+0x5e0
 7624 1b6c 01       		.byte	0x1
 7625 1b6d E6       		.byte	0xe6
 7626 1b6e 7C1B0000 		.4byte	0x1b7c
 7627 1b72 1E       		.uleb128 0x1e
 7628 1b73 E1060000 		.4byte	0x6e1
 7629 1b77 2A0A0000 		.4byte	.LLST72
 7630 1b7b 00       		.byte	0
 7631 1b7c 21       		.uleb128 0x21
 7632 1b7d BB060000 		.4byte	0x6bb
 7633 1b81 62000000 		.4byte	.LBB1090
 7634 1b85 6A000000 		.4byte	.LBE1090
 7635 1b89 01       		.byte	0x1
 7636 1b8a E6       		.byte	0xe6
 7637 1b8b 1E       		.uleb128 0x1e
 7638 1b8c C8060000 		.4byte	0x6c8
 7639 1b90 3D0A0000 		.4byte	.LLST73
 7640 1b94 00       		.byte	0
 7641 1b95 00       		.byte	0
 7642 1b96 00       		.byte	0
 7643 1b97 30       		.uleb128 0x30
 7644 1b98 01       		.byte	0x1
 7645 1b99 E4010000 		.4byte	.LASF128
 7646 1b9d 03       		.byte	0x3
 7647 1b9e D501     		.2byte	0x1d5
 7648 1ba0 01       		.byte	0x1
 7649 1ba1 00000000 		.4byte	.LFB122
 7650 1ba5 60010000 		.4byte	.LFE122
 7651 1ba9 520A0000 		.4byte	.LLST74
 7652 1bad 01       		.byte	0x1
 7653 1bae 0F1D0000 		.4byte	0x1d0f
 7654 1bb2 31       		.uleb128 0x31
 7655 1bb3 7800     		.ascii	"x\000"
 7656 1bb5 03       		.byte	0x3
 7657 1bb6 D501     		.2byte	0x1d5
 7658 1bb8 79040000 		.4byte	0x479
 7659 1bbc 7F0A0000 		.4byte	.LLST75
 7660 1bc0 31       		.uleb128 0x31
 7661 1bc1 7900     		.ascii	"y\000"
 7662 1bc3 03       		.byte	0x3
 7663 1bc4 D501     		.2byte	0x1d5
 7664 1bc6 79040000 		.4byte	0x479
 7665 1bca AC0A0000 		.4byte	.LLST76
 7666 1bce 31       		.uleb128 0x31
 7667 1bcf 6300     		.ascii	"c\000"
 7668 1bd1 03       		.byte	0x3
 7669 1bd2 D501     		.2byte	0x1d5
 7670 1bd4 E5000000 		.4byte	0xe5
 7671 1bd8 CD0A0000 		.4byte	.LLST77
 7672 1bdc 32       		.uleb128 0x32
 7673 1bdd 80060000 		.4byte	.LASF96
 7674 1be1 03       		.byte	0x3
 7675 1be2 D501     		.2byte	0x1d5
 7676 1be4 84040000 		.4byte	0x484
 7677 1be8 EE0A0000 		.4byte	.LLST78
ARM GAS  /tmp/ccVxBZiF.s 			page 136


 7678 1bec 33       		.uleb128 0x33
 7679 1bed B9050000 		.4byte	.LASF123
 7680 1bf1 03       		.byte	0x3
 7681 1bf2 D501     		.2byte	0x1d5
 7682 1bf4 6F060000 		.4byte	0x66f
 7683 1bf8 02       		.byte	0x2
 7684 1bf9 91       		.byte	0x91
 7685 1bfa 00       		.sleb128 0
 7686 1bfb 34       		.uleb128 0x34
 7687 1bfc 70747200 		.ascii	"ptr\000"
 7688 1c00 03       		.byte	0x3
 7689 1c01 D601     		.2byte	0x1d6
 7690 1c03 97060000 		.4byte	0x697
 7691 1c07 0F0B0000 		.4byte	.LLST79
 7692 1c0b 35       		.uleb128 0x35
 7693 1c0c 31060000 		.4byte	.LASF129
 7694 1c10 03       		.byte	0x3
 7695 1c11 D701     		.2byte	0x1d7
 7696 1c13 86060000 		.4byte	0x686
 7697 1c17 450B0000 		.4byte	.LLST80
 7698 1c1b 35       		.uleb128 0x35
 7699 1c1c AE020000 		.4byte	.LASF130
 7700 1c20 03       		.byte	0x3
 7701 1c21 D801     		.2byte	0x1d8
 7702 1c23 79040000 		.4byte	0x479
 7703 1c27 5A0B0000 		.4byte	.LLST81
 7704 1c2b 35       		.uleb128 0x35
 7705 1c2c 03070000 		.4byte	.LASF71
 7706 1c30 03       		.byte	0x3
 7707 1c31 D801     		.2byte	0x1d8
 7708 1c33 79040000 		.4byte	0x479
 7709 1c37 720B0000 		.4byte	.LLST82
 7710 1c3b 35       		.uleb128 0x35
 7711 1c3c 7A030000 		.4byte	.LASF79
 7712 1c40 03       		.byte	0x3
 7713 1c41 D801     		.2byte	0x1d8
 7714 1c43 79040000 		.4byte	0x479
 7715 1c47 950B0000 		.4byte	.LLST83
 7716 1c4b 35       		.uleb128 0x35
 7717 1c4c 52040000 		.4byte	.LASF80
 7718 1c50 03       		.byte	0x3
 7719 1c51 D801     		.2byte	0x1d8
 7720 1c53 79040000 		.4byte	0x479
 7721 1c57 B00B0000 		.4byte	.LLST84
 7722 1c5b 34       		.uleb128 0x34
 7723 1c5c 6900     		.ascii	"i\000"
 7724 1c5e 03       		.byte	0x3
 7725 1c5f D901     		.2byte	0x1d9
 7726 1c61 79040000 		.4byte	0x479
 7727 1c65 C40B0000 		.4byte	.LLST85
 7728 1c69 34       		.uleb128 0x34
 7729 1c6a 6A00     		.ascii	"j\000"
 7730 1c6c 03       		.byte	0x3
 7731 1c6d D901     		.2byte	0x1d9
 7732 1c6f 79040000 		.4byte	0x479
 7733 1c73 E40B0000 		.4byte	.LLST86
 7734 1c77 34       		.uleb128 0x34
ARM GAS  /tmp/ccVxBZiF.s 			page 137


 7735 1c78 787300   		.ascii	"xs\000"
 7736 1c7b 03       		.byte	0x3
 7737 1c7c D901     		.2byte	0x1d9
 7738 1c7e 79040000 		.4byte	0x479
 7739 1c82 050C0000 		.4byte	.LLST87
 7740 1c86 34       		.uleb128 0x34
 7741 1c87 797300   		.ascii	"ys\000"
 7742 1c8a 03       		.byte	0x3
 7743 1c8b D901     		.2byte	0x1d9
 7744 1c8d 79040000 		.4byte	0x479
 7745 1c91 190C0000 		.4byte	.LLST88
 7746 1c95 27       		.uleb128 0x27
 7747 1c96 C0000000 		.4byte	.LVL216
 7748 1c9a 38070000 		.4byte	0x738
 7749 1c9e B51C0000 		.4byte	0x1cb5
 7750 1ca2 28       		.uleb128 0x28
 7751 1ca3 01       		.byte	0x1
 7752 1ca4 52       		.byte	0x52
 7753 1ca5 02       		.byte	0x2
 7754 1ca6 76       		.byte	0x76
 7755 1ca7 00       		.sleb128 0
 7756 1ca8 28       		.uleb128 0x28
 7757 1ca9 01       		.byte	0x1
 7758 1caa 51       		.byte	0x51
 7759 1cab 02       		.byte	0x2
 7760 1cac 75       		.byte	0x75
 7761 1cad 00       		.sleb128 0
 7762 1cae 28       		.uleb128 0x28
 7763 1caf 01       		.byte	0x1
 7764 1cb0 50       		.byte	0x50
 7765 1cb1 02       		.byte	0x2
 7766 1cb2 74       		.byte	0x74
 7767 1cb3 00       		.sleb128 0
 7768 1cb4 00       		.byte	0
 7769 1cb5 27       		.uleb128 0x27
 7770 1cb6 E0000000 		.4byte	.LVL218
 7771 1cba 38070000 		.4byte	0x738
 7772 1cbe D51C0000 		.4byte	0x1cd5
 7773 1cc2 28       		.uleb128 0x28
 7774 1cc3 01       		.byte	0x1
 7775 1cc4 52       		.byte	0x52
 7776 1cc5 02       		.byte	0x2
 7777 1cc6 76       		.byte	0x76
 7778 1cc7 00       		.sleb128 0
 7779 1cc8 28       		.uleb128 0x28
 7780 1cc9 01       		.byte	0x1
 7781 1cca 51       		.byte	0x51
 7782 1ccb 02       		.byte	0x2
 7783 1ccc 75       		.byte	0x75
 7784 1ccd 01       		.sleb128 1
 7785 1cce 28       		.uleb128 0x28
 7786 1ccf 01       		.byte	0x1
 7787 1cd0 50       		.byte	0x50
 7788 1cd1 02       		.byte	0x2
 7789 1cd2 74       		.byte	0x74
 7790 1cd3 00       		.sleb128 0
 7791 1cd4 00       		.byte	0
ARM GAS  /tmp/ccVxBZiF.s 			page 138


 7792 1cd5 27       		.uleb128 0x27
 7793 1cd6 FA000000 		.4byte	.LVL220
 7794 1cda 38070000 		.4byte	0x738
 7795 1cde EF1C0000 		.4byte	0x1cef
 7796 1ce2 28       		.uleb128 0x28
 7797 1ce3 01       		.byte	0x1
 7798 1ce4 52       		.byte	0x52
 7799 1ce5 02       		.byte	0x2
 7800 1ce6 76       		.byte	0x76
 7801 1ce7 00       		.sleb128 0
 7802 1ce8 28       		.uleb128 0x28
 7803 1ce9 01       		.byte	0x1
 7804 1cea 50       		.byte	0x50
 7805 1ceb 02       		.byte	0x2
 7806 1cec 74       		.byte	0x74
 7807 1ced 00       		.sleb128 0
 7808 1cee 00       		.byte	0
 7809 1cef 29       		.uleb128 0x29
 7810 1cf0 08010000 		.4byte	.LVL221
 7811 1cf4 38070000 		.4byte	0x738
 7812 1cf8 28       		.uleb128 0x28
 7813 1cf9 01       		.byte	0x1
 7814 1cfa 52       		.byte	0x52
 7815 1cfb 02       		.byte	0x2
 7816 1cfc 76       		.byte	0x76
 7817 1cfd 00       		.sleb128 0
 7818 1cfe 28       		.uleb128 0x28
 7819 1cff 01       		.byte	0x1
 7820 1d00 51       		.byte	0x51
 7821 1d01 05       		.byte	0x5
 7822 1d02 75       		.byte	0x75
 7823 1d03 00       		.sleb128 0
 7824 1d04 7A       		.byte	0x7a
 7825 1d05 00       		.sleb128 0
 7826 1d06 22       		.byte	0x22
 7827 1d07 28       		.uleb128 0x28
 7828 1d08 01       		.byte	0x1
 7829 1d09 50       		.byte	0x50
 7830 1d0a 02       		.byte	0x2
 7831 1d0b 74       		.byte	0x74
 7832 1d0c 00       		.sleb128 0
 7833 1d0d 00       		.byte	0
 7834 1d0e 00       		.byte	0
 7835 1d0f 22       		.uleb128 0x22
 7836 1d10 01       		.byte	0x1
 7837 1d11 98020000 		.4byte	.LASF131
 7838 1d15 03       		.byte	0x3
 7839 1d16 AA       		.byte	0xaa
 7840 1d17 01       		.byte	0x1
 7841 1d18 00000000 		.4byte	.LFB120
 7842 1d1c 0A010000 		.4byte	.LFE120
 7843 1d20 5A0C0000 		.4byte	.LLST89
 7844 1d24 01       		.byte	0x1
 7845 1d25 7B1E0000 		.4byte	0x1e7b
 7846 1d29 1C       		.uleb128 0x1c
 7847 1d2a 7800     		.ascii	"x\000"
 7848 1d2c 03       		.byte	0x3
ARM GAS  /tmp/ccVxBZiF.s 			page 139


 7849 1d2d AA       		.byte	0xaa
 7850 1d2e 79040000 		.4byte	0x479
 7851 1d32 870C0000 		.4byte	.LLST90
 7852 1d36 1C       		.uleb128 0x1c
 7853 1d37 7900     		.ascii	"y\000"
 7854 1d39 03       		.byte	0x3
 7855 1d3a AA       		.byte	0xaa
 7856 1d3b 79040000 		.4byte	0x479
 7857 1d3f A50C0000 		.4byte	.LLST91
 7858 1d43 36       		.uleb128 0x36
 7859 1d44 81030000 		.4byte	.LASF132
 7860 1d48 03       		.byte	0x3
 7861 1d49 AA       		.byte	0xaa
 7862 1d4a 79040000 		.4byte	0x479
 7863 1d4e C30C0000 		.4byte	.LLST92
 7864 1d52 36       		.uleb128 0x36
 7865 1d53 B9050000 		.4byte	.LASF123
 7866 1d57 03       		.byte	0x3
 7867 1d58 AA       		.byte	0xaa
 7868 1d59 6F060000 		.4byte	0x66f
 7869 1d5d E20C0000 		.4byte	.LLST93
 7870 1d61 37       		.uleb128 0x37
 7871 1d62 6100     		.ascii	"a\000"
 7872 1d64 03       		.byte	0x3
 7873 1d65 AB       		.byte	0xab
 7874 1d66 79040000 		.4byte	0x479
 7875 1d6a 030D0000 		.4byte	.LLST94
 7876 1d6e 37       		.uleb128 0x37
 7877 1d6f 6200     		.ascii	"b\000"
 7878 1d71 03       		.byte	0x3
 7879 1d72 AB       		.byte	0xab
 7880 1d73 79040000 		.4byte	0x479
 7881 1d77 2D0D0000 		.4byte	.LLST95
 7882 1d7b 38       		.uleb128 0x38
 7883 1d7c 5000     		.ascii	"P\000"
 7884 1d7e 03       		.byte	0x3
 7885 1d7f AB       		.byte	0xab
 7886 1d80 79040000 		.4byte	0x479
 7887 1d84 02       		.byte	0x2
 7888 1d85 91       		.byte	0x91
 7889 1d86 50       		.sleb128 -48
 7890 1d87 27       		.uleb128 0x27
 7891 1d88 78000000 		.4byte	.LVL237
 7892 1d8c 38070000 		.4byte	0x738
 7893 1d90 AA1D0000 		.4byte	0x1daa
 7894 1d94 28       		.uleb128 0x28
 7895 1d95 01       		.byte	0x1
 7896 1d96 52       		.byte	0x52
 7897 1d97 02       		.byte	0x2
 7898 1d98 74       		.byte	0x74
 7899 1d99 00       		.sleb128 0
 7900 1d9a 28       		.uleb128 0x28
 7901 1d9b 01       		.byte	0x1
 7902 1d9c 51       		.byte	0x51
 7903 1d9d 02       		.byte	0x2
 7904 1d9e 7A       		.byte	0x7a
 7905 1d9f 00       		.sleb128 0
ARM GAS  /tmp/ccVxBZiF.s 			page 140


 7906 1da0 28       		.uleb128 0x28
 7907 1da1 01       		.byte	0x1
 7908 1da2 50       		.byte	0x50
 7909 1da3 05       		.byte	0x5
 7910 1da4 78       		.byte	0x78
 7911 1da5 00       		.sleb128 0
 7912 1da6 75       		.byte	0x75
 7913 1da7 00       		.sleb128 0
 7914 1da8 22       		.byte	0x22
 7915 1da9 00       		.byte	0
 7916 1daa 27       		.uleb128 0x27
 7917 1dab 92000000 		.4byte	.LVL238
 7918 1daf 38070000 		.4byte	0x738
 7919 1db3 CA1D0000 		.4byte	0x1dca
 7920 1db7 28       		.uleb128 0x28
 7921 1db8 01       		.byte	0x1
 7922 1db9 52       		.byte	0x52
 7923 1dba 02       		.byte	0x2
 7924 1dbb 74       		.byte	0x74
 7925 1dbc 00       		.sleb128 0
 7926 1dbd 28       		.uleb128 0x28
 7927 1dbe 01       		.byte	0x1
 7928 1dbf 51       		.byte	0x51
 7929 1dc0 02       		.byte	0x2
 7930 1dc1 79       		.byte	0x79
 7931 1dc2 00       		.sleb128 0
 7932 1dc3 28       		.uleb128 0x28
 7933 1dc4 01       		.byte	0x1
 7934 1dc5 50       		.byte	0x50
 7935 1dc6 02       		.byte	0x2
 7936 1dc7 7B       		.byte	0x7b
 7937 1dc8 00       		.sleb128 0
 7938 1dc9 00       		.byte	0
 7939 1dca 27       		.uleb128 0x27
 7940 1dcb A4000000 		.4byte	.LVL239
 7941 1dcf 38070000 		.4byte	0x738
 7942 1dd3 EA1D0000 		.4byte	0x1dea
 7943 1dd7 28       		.uleb128 0x28
 7944 1dd8 01       		.byte	0x1
 7945 1dd9 52       		.byte	0x52
 7946 1dda 02       		.byte	0x2
 7947 1ddb 74       		.byte	0x74
 7948 1ddc 00       		.sleb128 0
 7949 1ddd 28       		.uleb128 0x28
 7950 1dde 01       		.byte	0x1
 7951 1ddf 51       		.byte	0x51
 7952 1de0 02       		.byte	0x2
 7953 1de1 7A       		.byte	0x7a
 7954 1de2 00       		.sleb128 0
 7955 1de3 28       		.uleb128 0x28
 7956 1de4 01       		.byte	0x1
 7957 1de5 50       		.byte	0x50
 7958 1de6 02       		.byte	0x2
 7959 1de7 7B       		.byte	0x7b
 7960 1de8 00       		.sleb128 0
 7961 1de9 00       		.byte	0
 7962 1dea 27       		.uleb128 0x27
ARM GAS  /tmp/ccVxBZiF.s 			page 141


 7963 1deb B6000000 		.4byte	.LVL240
 7964 1def 38070000 		.4byte	0x738
 7965 1df3 0A1E0000 		.4byte	0x1e0a
 7966 1df7 28       		.uleb128 0x28
 7967 1df8 01       		.byte	0x1
 7968 1df9 52       		.byte	0x52
 7969 1dfa 02       		.byte	0x2
 7970 1dfb 74       		.byte	0x74
 7971 1dfc 00       		.sleb128 0
 7972 1dfd 28       		.uleb128 0x28
 7973 1dfe 01       		.byte	0x1
 7974 1dff 51       		.byte	0x51
 7975 1e00 02       		.byte	0x2
 7976 1e01 79       		.byte	0x79
 7977 1e02 00       		.sleb128 0
 7978 1e03 28       		.uleb128 0x28
 7979 1e04 01       		.byte	0x1
 7980 1e05 50       		.byte	0x50
 7981 1e06 02       		.byte	0x2
 7982 1e07 7A       		.byte	0x7a
 7983 1e08 00       		.sleb128 0
 7984 1e09 00       		.byte	0
 7985 1e0a 27       		.uleb128 0x27
 7986 1e0b CA000000 		.4byte	.LVL241
 7987 1e0f 38070000 		.4byte	0x738
 7988 1e13 241E0000 		.4byte	0x1e24
 7989 1e17 28       		.uleb128 0x28
 7990 1e18 01       		.byte	0x1
 7991 1e19 52       		.byte	0x52
 7992 1e1a 02       		.byte	0x2
 7993 1e1b 74       		.byte	0x74
 7994 1e1c 00       		.sleb128 0
 7995 1e1d 28       		.uleb128 0x28
 7996 1e1e 01       		.byte	0x1
 7997 1e1f 51       		.byte	0x51
 7998 1e20 02       		.byte	0x2
 7999 1e21 79       		.byte	0x79
 8000 1e22 00       		.sleb128 0
 8001 1e23 00       		.byte	0
 8002 1e24 27       		.uleb128 0x27
 8003 1e25 DA000000 		.4byte	.LVL242
 8004 1e29 38070000 		.4byte	0x738
 8005 1e2d 3E1E0000 		.4byte	0x1e3e
 8006 1e31 28       		.uleb128 0x28
 8007 1e32 01       		.byte	0x1
 8008 1e33 52       		.byte	0x52
 8009 1e34 02       		.byte	0x2
 8010 1e35 74       		.byte	0x74
 8011 1e36 00       		.sleb128 0
 8012 1e37 28       		.uleb128 0x28
 8013 1e38 01       		.byte	0x1
 8014 1e39 51       		.byte	0x51
 8015 1e3a 02       		.byte	0x2
 8016 1e3b 76       		.byte	0x76
 8017 1e3c 00       		.sleb128 0
 8018 1e3d 00       		.byte	0
 8019 1e3e 27       		.uleb128 0x27
ARM GAS  /tmp/ccVxBZiF.s 			page 142


 8020 1e3f E4000000 		.4byte	.LVL243
 8021 1e43 38070000 		.4byte	0x738
 8022 1e47 5E1E0000 		.4byte	0x1e5e
 8023 1e4b 28       		.uleb128 0x28
 8024 1e4c 01       		.byte	0x1
 8025 1e4d 52       		.byte	0x52
 8026 1e4e 02       		.byte	0x2
 8027 1e4f 74       		.byte	0x74
 8028 1e50 00       		.sleb128 0
 8029 1e51 28       		.uleb128 0x28
 8030 1e52 01       		.byte	0x1
 8031 1e53 51       		.byte	0x51
 8032 1e54 02       		.byte	0x2
 8033 1e55 76       		.byte	0x76
 8034 1e56 00       		.sleb128 0
 8035 1e57 28       		.uleb128 0x28
 8036 1e58 01       		.byte	0x1
 8037 1e59 50       		.byte	0x50
 8038 1e5a 02       		.byte	0x2
 8039 1e5b 7B       		.byte	0x7b
 8040 1e5c 00       		.sleb128 0
 8041 1e5d 00       		.byte	0
 8042 1e5e 29       		.uleb128 0x29
 8043 1e5f EE000000 		.4byte	.LVL244
 8044 1e63 38070000 		.4byte	0x738
 8045 1e67 28       		.uleb128 0x28
 8046 1e68 01       		.byte	0x1
 8047 1e69 52       		.byte	0x52
 8048 1e6a 02       		.byte	0x2
 8049 1e6b 74       		.byte	0x74
 8050 1e6c 00       		.sleb128 0
 8051 1e6d 28       		.uleb128 0x28
 8052 1e6e 01       		.byte	0x1
 8053 1e6f 51       		.byte	0x51
 8054 1e70 02       		.byte	0x2
 8055 1e71 79       		.byte	0x79
 8056 1e72 00       		.sleb128 0
 8057 1e73 28       		.uleb128 0x28
 8058 1e74 01       		.byte	0x1
 8059 1e75 50       		.byte	0x50
 8060 1e76 02       		.byte	0x2
 8061 1e77 7A       		.byte	0x7a
 8062 1e78 00       		.sleb128 0
 8063 1e79 00       		.byte	0
 8064 1e7a 00       		.byte	0
 8065 1e7b 19       		.uleb128 0x19
 8066 1e7c B1060000 		.4byte	.LASF133
 8067 1e80 01       		.byte	0x1
 8068 1e81 72       		.byte	0x72
 8069 1e82 01       		.byte	0x1
 8070 1e83 03       		.byte	0x3
 8071 1e84 30       		.uleb128 0x30
 8072 1e85 01       		.byte	0x1
 8073 1e86 CF030000 		.4byte	.LASF134
 8074 1e8a 01       		.byte	0x1
 8075 1e8b 0401     		.2byte	0x104
 8076 1e8d 01       		.byte	0x1
ARM GAS  /tmp/ccVxBZiF.s 			page 143


 8077 1e8e 00000000 		.4byte	.LFB137
 8078 1e92 7C000000 		.4byte	.LFE137
 8079 1e96 4C0D0000 		.4byte	.LLST96
 8080 1e9a 01       		.byte	0x1
 8081 1e9b 48200000 		.4byte	0x2048
 8082 1e9f 32       		.uleb128 0x32
 8083 1ea0 B9050000 		.4byte	.LASF123
 8084 1ea4 01       		.byte	0x1
 8085 1ea5 0401     		.2byte	0x104
 8086 1ea7 6F060000 		.4byte	0x66f
 8087 1eab 6C0D0000 		.4byte	.LLST97
 8088 1eaf 39       		.uleb128 0x39
 8089 1eb0 F4040000 		.4byte	.LASF135
 8090 1eb4 01       		.byte	0x1
 8091 1eb5 0501     		.2byte	0x105
 8092 1eb7 30000000 		.4byte	0x30
 8093 1ebb 002C0100 		.4byte	0x12c00
 8094 1ebf 35       		.uleb128 0x35
 8095 1ec0 DF050000 		.4byte	.LASF115
 8096 1ec4 01       		.byte	0x1
 8097 1ec5 1C01     		.2byte	0x11c
 8098 1ec7 86000000 		.4byte	0x86
 8099 1ecb 8D0D0000 		.4byte	.LLST98
 8100 1ecf 3A       		.uleb128 0x3a
 8101 1ed0 7B1E0000 		.4byte	0x1e7b
 8102 1ed4 02000000 		.4byte	.LBB1162
 8103 1ed8 F8050000 		.4byte	.Ldebug_ranges0+0x5f8
 8104 1edc 01       		.byte	0x1
 8105 1edd 0A01     		.2byte	0x10a
 8106 1edf F81E0000 		.4byte	0x1ef8
 8107 1ee3 29       		.uleb128 0x29
 8108 1ee4 16000000 		.4byte	.LVL249
 8109 1ee8 64070000 		.4byte	0x764
 8110 1eec 28       		.uleb128 0x28
 8111 1eed 01       		.byte	0x1
 8112 1eee 51       		.byte	0x51
 8113 1eef 01       		.byte	0x1
 8114 1ef0 30       		.byte	0x30
 8115 1ef1 28       		.uleb128 0x28
 8116 1ef2 01       		.byte	0x1
 8117 1ef3 50       		.byte	0x50
 8118 1ef4 01       		.byte	0x1
 8119 1ef5 30       		.byte	0x30
 8120 1ef6 00       		.byte	0
 8121 1ef7 00       		.byte	0
 8122 1ef8 3A       		.uleb128 0x3a
 8123 1ef9 ED060000 		.4byte	0x6ed
 8124 1efd 16000000 		.4byte	.LBB1166
 8125 1f01 10060000 		.4byte	.Ldebug_ranges0+0x610
 8126 1f05 01       		.byte	0x1
 8127 1f06 0B01     		.2byte	0x10b
 8128 1f08 0F200000 		.4byte	0x200f
 8129 1f0c 2A       		.uleb128 0x2a
 8130 1f0d 03070000 		.4byte	0x703
 8131 1f11 00       		.byte	0
 8132 1f12 2A       		.uleb128 0x2a
 8133 1f13 FA060000 		.4byte	0x6fa
ARM GAS  /tmp/ccVxBZiF.s 			page 144


 8134 1f17 00       		.byte	0
 8135 1f18 1D       		.uleb128 0x1d
 8136 1f19 BB060000 		.4byte	0x6bb
 8137 1f1d 24000000 		.4byte	.LBB1168
 8138 1f21 28060000 		.4byte	.Ldebug_ranges0+0x628
 8139 1f25 01       		.byte	0x1
 8140 1f26 41       		.byte	0x41
 8141 1f27 351F0000 		.4byte	0x1f35
 8142 1f2b 1E       		.uleb128 0x1e
 8143 1f2c C8060000 		.4byte	0x6c8
 8144 1f30 A10D0000 		.4byte	.LLST99
 8145 1f34 00       		.byte	0
 8146 1f35 1D       		.uleb128 0x1d
 8147 1f36 D4060000 		.4byte	0x6d4
 8148 1f3a 28000000 		.4byte	.LBB1171
 8149 1f3e 40060000 		.4byte	.Ldebug_ranges0+0x640
 8150 1f42 01       		.byte	0x1
 8151 1f43 41       		.byte	0x41
 8152 1f44 521F0000 		.4byte	0x1f52
 8153 1f48 1E       		.uleb128 0x1e
 8154 1f49 E1060000 		.4byte	0x6e1
 8155 1f4d B60D0000 		.4byte	.LLST100
 8156 1f51 00       		.byte	0
 8157 1f52 1D       		.uleb128 0x1d
 8158 1f53 BB060000 		.4byte	0x6bb
 8159 1f57 34000000 		.4byte	.LBB1177
 8160 1f5b 60060000 		.4byte	.Ldebug_ranges0+0x660
 8161 1f5f 01       		.byte	0x1
 8162 1f60 42       		.byte	0x42
 8163 1f61 6F1F0000 		.4byte	0x1f6f
 8164 1f65 1E       		.uleb128 0x1e
 8165 1f66 C8060000 		.4byte	0x6c8
 8166 1f6a CA0D0000 		.4byte	.LLST101
 8167 1f6e 00       		.byte	0
 8168 1f6f 1F       		.uleb128 0x1f
 8169 1f70 D4060000 		.4byte	0x6d4
 8170 1f74 3A000000 		.4byte	.LBB1182
 8171 1f78 3C000000 		.4byte	.LBE1182
 8172 1f7c 01       		.byte	0x1
 8173 1f7d 42       		.byte	0x42
 8174 1f7e 8C1F0000 		.4byte	0x1f8c
 8175 1f82 1E       		.uleb128 0x1e
 8176 1f83 E1060000 		.4byte	0x6e1
 8177 1f87 DF0D0000 		.4byte	.LLST102
 8178 1f8b 00       		.byte	0
 8179 1f8c 3B       		.uleb128 0x3b
 8180 1f8d ED060000 		.4byte	0x6ed
 8181 1f91 58000000 		.4byte	.LBB1184
 8182 1f95 7C000000 		.4byte	.LBE1184
 8183 1f99 01       		.byte	0x1
 8184 1f9a 0401     		.2byte	0x104
 8185 1f9c 2A       		.uleb128 0x2a
 8186 1f9d 03070000 		.4byte	0x703
 8187 1fa1 00       		.byte	0
 8188 1fa2 2A       		.uleb128 0x2a
 8189 1fa3 FA060000 		.4byte	0x6fa
 8190 1fa7 00       		.byte	0
ARM GAS  /tmp/ccVxBZiF.s 			page 145


 8191 1fa8 1D       		.uleb128 0x1d
 8192 1fa9 BB060000 		.4byte	0x6bb
 8193 1fad 58000000 		.4byte	.LBB1185
 8194 1fb1 78060000 		.4byte	.Ldebug_ranges0+0x678
 8195 1fb5 01       		.byte	0x1
 8196 1fb6 45       		.byte	0x45
 8197 1fb7 C21F0000 		.4byte	0x1fc2
 8198 1fbb 2A       		.uleb128 0x2a
 8199 1fbc C8060000 		.4byte	0x6c8
 8200 1fc0 4E       		.byte	0x4e
 8201 1fc1 00       		.byte	0
 8202 1fc2 1D       		.uleb128 0x1d
 8203 1fc3 D4060000 		.4byte	0x6d4
 8204 1fc7 5C000000 		.4byte	.LBB1188
 8205 1fcb 90060000 		.4byte	.Ldebug_ranges0+0x690
 8206 1fcf 01       		.byte	0x1
 8207 1fd0 45       		.byte	0x45
 8208 1fd1 DC1F0000 		.4byte	0x1fdc
 8209 1fd5 2A       		.uleb128 0x2a
 8210 1fd6 E1060000 		.4byte	0x6e1
 8211 1fda EF       		.byte	0xef
 8212 1fdb 00       		.byte	0
 8213 1fdc 1D       		.uleb128 0x1d
 8214 1fdd BB060000 		.4byte	0x6bb
 8215 1fe1 68000000 		.4byte	.LBB1194
 8216 1fe5 B0060000 		.4byte	.Ldebug_ranges0+0x6b0
 8217 1fe9 01       		.byte	0x1
 8218 1fea 46       		.byte	0x46
 8219 1feb F61F0000 		.4byte	0x1ff6
 8220 1fef 2A       		.uleb128 0x2a
 8221 1ff0 C8060000 		.4byte	0x6c8
 8222 1ff4 4F       		.byte	0x4f
 8223 1ff5 00       		.byte	0
 8224 1ff6 21       		.uleb128 0x21
 8225 1ff7 D4060000 		.4byte	0x6d4
 8226 1ffb 6E000000 		.4byte	.LBB1199
 8227 1fff 7C000000 		.4byte	.LBE1199
 8228 2003 01       		.byte	0x1
 8229 2004 46       		.byte	0x46
 8230 2005 2C       		.uleb128 0x2c
 8231 2006 E1060000 		.4byte	0x6e1
 8232 200a 3F01     		.2byte	0x13f
 8233 200c 00       		.byte	0
 8234 200d 00       		.byte	0
 8235 200e 00       		.byte	0
 8236 200f 3A       		.uleb128 0x3a
 8237 2010 BB060000 		.4byte	0x6bb
 8238 2014 3C000000 		.4byte	.LBB1202
 8239 2018 C8060000 		.4byte	.Ldebug_ranges0+0x6c8
 8240 201c 01       		.byte	0x1
 8241 201d 0D01     		.2byte	0x10d
 8242 201f 2D200000 		.4byte	0x202d
 8243 2023 1E       		.uleb128 0x1e
 8244 2024 C8060000 		.4byte	0x6c8
 8245 2028 F30D0000 		.4byte	.LLST103
 8246 202c 00       		.byte	0
 8247 202d 3C       		.uleb128 0x3c
ARM GAS  /tmp/ccVxBZiF.s 			page 146


 8248 202e D4060000 		.4byte	0x6d4
 8249 2032 40000000 		.4byte	.LBB1205
 8250 2036 E0060000 		.4byte	.Ldebug_ranges0+0x6e0
 8251 203a 01       		.byte	0x1
 8252 203b 1E01     		.2byte	0x11e
 8253 203d 1E       		.uleb128 0x1e
 8254 203e E1060000 		.4byte	0x6e1
 8255 2042 080E0000 		.4byte	.LLST104
 8256 2046 00       		.byte	0
 8257 2047 00       		.byte	0
 8258 2048 30       		.uleb128 0x30
 8259 2049 01       		.byte	0x1
 8260 204a 2B020000 		.4byte	.LASF136
 8261 204e 01       		.byte	0x1
 8262 204f 3101     		.2byte	0x131
 8263 2051 01       		.byte	0x1
 8264 2052 00000000 		.4byte	.LFB138
 8265 2056 B0000000 		.4byte	.LFE138
 8266 205a 1B0E0000 		.4byte	.LLST105
 8267 205e 01       		.byte	0x1
 8268 205f 1F210000 		.4byte	0x211f
 8269 2063 31       		.uleb128 0x31
 8270 2064 7800     		.ascii	"x\000"
 8271 2066 01       		.byte	0x1
 8272 2067 3101     		.2byte	0x131
 8273 2069 79040000 		.4byte	0x479
 8274 206d 3B0E0000 		.4byte	.LLST106
 8275 2071 31       		.uleb128 0x31
 8276 2072 7900     		.ascii	"y\000"
 8277 2074 01       		.byte	0x1
 8278 2075 3101     		.2byte	0x131
 8279 2077 79040000 		.4byte	0x479
 8280 207b 760E0000 		.4byte	.LLST107
 8281 207f 31       		.uleb128 0x31
 8282 2080 637800   		.ascii	"cx\000"
 8283 2083 01       		.byte	0x1
 8284 2084 3101     		.2byte	0x131
 8285 2086 79040000 		.4byte	0x479
 8286 208a B10E0000 		.4byte	.LLST108
 8287 208e 31       		.uleb128 0x31
 8288 208f 637900   		.ascii	"cy\000"
 8289 2092 01       		.byte	0x1
 8290 2093 3101     		.2byte	0x131
 8291 2095 79040000 		.4byte	0x479
 8292 2099 CF0E0000 		.4byte	.LLST109
 8293 209d 33       		.uleb128 0x33
 8294 209e B9050000 		.4byte	.LASF123
 8295 20a2 01       		.byte	0x1
 8296 20a3 3101     		.2byte	0x131
 8297 20a5 6F060000 		.4byte	0x66f
 8298 20a9 02       		.byte	0x2
 8299 20aa 91       		.byte	0x91
 8300 20ab 00       		.sleb128 0
 8301 20ac 35       		.uleb128 0x35
 8302 20ad F4040000 		.4byte	.LASF135
 8303 20b1 01       		.byte	0x1
 8304 20b2 3201     		.2byte	0x132
ARM GAS  /tmp/ccVxBZiF.s 			page 147


 8305 20b4 30000000 		.4byte	0x30
 8306 20b8 110F0000 		.4byte	.LLST110
 8307 20bc 35       		.uleb128 0x35
 8308 20bd DF050000 		.4byte	.LASF115
 8309 20c1 01       		.byte	0x1
 8310 20c2 4F01     		.2byte	0x14f
 8311 20c4 86000000 		.4byte	0x86
 8312 20c8 2F0F0000 		.4byte	.LLST111
 8313 20cc 3A       		.uleb128 0x3a
 8314 20cd BB060000 		.4byte	0x6bb
 8315 20d1 6E000000 		.4byte	.LBB1213
 8316 20d5 00070000 		.4byte	.Ldebug_ranges0+0x700
 8317 20d9 01       		.byte	0x1
 8318 20da 4001     		.2byte	0x140
 8319 20dc EA200000 		.4byte	0x20ea
 8320 20e0 1E       		.uleb128 0x1e
 8321 20e1 C8060000 		.4byte	0x6c8
 8322 20e5 430F0000 		.4byte	.LLST112
 8323 20e9 00       		.byte	0
 8324 20ea 3A       		.uleb128 0x3a
 8325 20eb D4060000 		.4byte	0x6d4
 8326 20ef 7C000000 		.4byte	.LBB1217
 8327 20f3 18070000 		.4byte	.Ldebug_ranges0+0x718
 8328 20f7 01       		.byte	0x1
 8329 20f8 5101     		.2byte	0x151
 8330 20fa 08210000 		.4byte	0x2108
 8331 20fe 1E       		.uleb128 0x1e
 8332 20ff E1060000 		.4byte	0x6e1
 8333 2103 650F0000 		.4byte	.LLST113
 8334 2107 00       		.byte	0
 8335 2108 29       		.uleb128 0x29
 8336 2109 6E000000 		.4byte	.LVL272
 8337 210d 64070000 		.4byte	0x764
 8338 2111 28       		.uleb128 0x28
 8339 2112 01       		.byte	0x1
 8340 2113 53       		.byte	0x53
 8341 2114 02       		.byte	0x2
 8342 2115 75       		.byte	0x75
 8343 2116 00       		.sleb128 0
 8344 2117 28       		.uleb128 0x28
 8345 2118 01       		.byte	0x1
 8346 2119 52       		.byte	0x52
 8347 211a 02       		.byte	0x2
 8348 211b 74       		.byte	0x74
 8349 211c 00       		.sleb128 0
 8350 211d 00       		.byte	0
 8351 211e 00       		.byte	0
 8352 211f 22       		.uleb128 0x22
 8353 2120 01       		.byte	0x1
 8354 2121 03060000 		.4byte	.LASF137
 8355 2125 03       		.byte	0x3
 8356 2126 27       		.byte	0x27
 8357 2127 01       		.byte	0x1
 8358 2128 00000000 		.4byte	.LFB118
 8359 212c D6020000 		.4byte	.LFE118
 8360 2130 830F0000 		.4byte	.LLST114
 8361 2134 01       		.byte	0x1
ARM GAS  /tmp/ccVxBZiF.s 			page 148


 8362 2135 57230000 		.4byte	0x2357
 8363 2139 1C       		.uleb128 0x1c
 8364 213a 783000   		.ascii	"x0\000"
 8365 213d 03       		.byte	0x3
 8366 213e 27       		.byte	0x27
 8367 213f 79040000 		.4byte	0x479
 8368 2143 AF0F0000 		.4byte	.LLST115
 8369 2147 1C       		.uleb128 0x1c
 8370 2148 793000   		.ascii	"y0\000"
 8371 214b 03       		.byte	0x3
 8372 214c 27       		.byte	0x27
 8373 214d 79040000 		.4byte	0x479
 8374 2151 9A100000 		.4byte	.LLST116
 8375 2155 1C       		.uleb128 0x1c
 8376 2156 783100   		.ascii	"x1\000"
 8377 2159 03       		.byte	0x3
 8378 215a 27       		.byte	0x27
 8379 215b 79040000 		.4byte	0x479
 8380 215f 85110000 		.4byte	.LLST117
 8381 2163 1C       		.uleb128 0x1c
 8382 2164 793100   		.ascii	"y1\000"
 8383 2167 03       		.byte	0x3
 8384 2168 27       		.byte	0x27
 8385 2169 79040000 		.4byte	0x479
 8386 216d 23120000 		.4byte	.LLST118
 8387 2171 3D       		.uleb128 0x3d
 8388 2172 B9050000 		.4byte	.LASF123
 8389 2176 03       		.byte	0x3
 8390 2177 27       		.byte	0x27
 8391 2178 6F060000 		.4byte	0x66f
 8392 217c 02       		.byte	0x2
 8393 217d 91       		.byte	0x91
 8394 217e 00       		.sleb128 0
 8395 217f 37       		.uleb128 0x37
 8396 2180 647900   		.ascii	"dy\000"
 8397 2183 03       		.byte	0x3
 8398 2184 28       		.byte	0x28
 8399 2185 50000000 		.4byte	0x50
 8400 2189 C1120000 		.4byte	.LLST119
 8401 218d 37       		.uleb128 0x37
 8402 218e 647800   		.ascii	"dx\000"
 8403 2191 03       		.byte	0x3
 8404 2192 28       		.byte	0x28
 8405 2193 50000000 		.4byte	0x50
 8406 2197 0E130000 		.4byte	.LLST120
 8407 219b 3E       		.uleb128 0x3e
 8408 219c B0000000 		.4byte	.LASF138
 8409 21a0 03       		.byte	0x3
 8410 21a1 29       		.byte	0x29
 8411 21a2 50000000 		.4byte	0x50
 8412 21a6 50130000 		.4byte	.LLST121
 8413 21aa 3E       		.uleb128 0x3e
 8414 21ab B5000000 		.4byte	.LASF139
 8415 21af 03       		.byte	0x3
 8416 21b0 29       		.byte	0x29
 8417 21b1 50000000 		.4byte	0x50
 8418 21b5 7B130000 		.4byte	.LLST122
ARM GAS  /tmp/ccVxBZiF.s 			page 149


 8419 21b9 37       		.uleb128 0x37
 8420 21ba 5000     		.ascii	"P\000"
 8421 21bc 03       		.byte	0x3
 8422 21bd 2A       		.byte	0x2a
 8423 21be 50000000 		.4byte	0x50
 8424 21c2 B2130000 		.4byte	.LLST123
 8425 21c6 3E       		.uleb128 0x3e
 8426 21c7 AB000000 		.4byte	.LASF140
 8427 21cb 03       		.byte	0x3
 8428 21cc 2A       		.byte	0x2a
 8429 21cd 50000000 		.4byte	0x50
 8430 21d1 F1130000 		.4byte	.LLST124
 8431 21d5 37       		.uleb128 0x37
 8432 21d6 6900     		.ascii	"i\000"
 8433 21d8 03       		.byte	0x3
 8434 21d9 2A       		.byte	0x2a
 8435 21da 50000000 		.4byte	0x50
 8436 21de 29140000 		.4byte	.LLST125
 8437 21e2 27       		.uleb128 0x27
 8438 21e3 70000000 		.4byte	.LVL291
 8439 21e7 38070000 		.4byte	0x738
 8440 21eb 02220000 		.4byte	0x2202
 8441 21ef 28       		.uleb128 0x28
 8442 21f0 01       		.byte	0x1
 8443 21f1 52       		.byte	0x52
 8444 21f2 02       		.byte	0x2
 8445 21f3 75       		.byte	0x75
 8446 21f4 00       		.sleb128 0
 8447 21f5 28       		.uleb128 0x28
 8448 21f6 01       		.byte	0x1
 8449 21f7 51       		.byte	0x51
 8450 21f8 02       		.byte	0x2
 8451 21f9 74       		.byte	0x74
 8452 21fa 00       		.sleb128 0
 8453 21fb 28       		.uleb128 0x28
 8454 21fc 01       		.byte	0x1
 8455 21fd 50       		.byte	0x50
 8456 21fe 02       		.byte	0x2
 8457 21ff 79       		.byte	0x79
 8458 2200 00       		.sleb128 0
 8459 2201 00       		.byte	0
 8460 2202 27       		.uleb128 0x27
 8461 2203 A4000000 		.4byte	.LVL296
 8462 2207 38070000 		.4byte	0x738
 8463 220b 22220000 		.4byte	0x2222
 8464 220f 28       		.uleb128 0x28
 8465 2210 01       		.byte	0x1
 8466 2211 52       		.byte	0x52
 8467 2212 02       		.byte	0x2
 8468 2213 75       		.byte	0x75
 8469 2214 00       		.sleb128 0
 8470 2215 28       		.uleb128 0x28
 8471 2216 01       		.byte	0x1
 8472 2217 51       		.byte	0x51
 8473 2218 02       		.byte	0x2
 8474 2219 74       		.byte	0x74
 8475 221a 00       		.sleb128 0
ARM GAS  /tmp/ccVxBZiF.s 			page 150


 8476 221b 28       		.uleb128 0x28
 8477 221c 01       		.byte	0x1
 8478 221d 50       		.byte	0x50
 8479 221e 02       		.byte	0x2
 8480 221f 79       		.byte	0x79
 8481 2220 00       		.sleb128 0
 8482 2221 00       		.byte	0
 8483 2222 27       		.uleb128 0x27
 8484 2223 D4000000 		.4byte	.LVL299
 8485 2227 38070000 		.4byte	0x738
 8486 222b 42220000 		.4byte	0x2242
 8487 222f 28       		.uleb128 0x28
 8488 2230 01       		.byte	0x1
 8489 2231 52       		.byte	0x52
 8490 2232 02       		.byte	0x2
 8491 2233 75       		.byte	0x75
 8492 2234 00       		.sleb128 0
 8493 2235 28       		.uleb128 0x28
 8494 2236 01       		.byte	0x1
 8495 2237 51       		.byte	0x51
 8496 2238 02       		.byte	0x2
 8497 2239 74       		.byte	0x74
 8498 223a 00       		.sleb128 0
 8499 223b 28       		.uleb128 0x28
 8500 223c 01       		.byte	0x1
 8501 223d 50       		.byte	0x50
 8502 223e 02       		.byte	0x2
 8503 223f 79       		.byte	0x79
 8504 2240 00       		.sleb128 0
 8505 2241 00       		.byte	0
 8506 2242 27       		.uleb128 0x27
 8507 2243 0E010000 		.4byte	.LVL303
 8508 2247 38070000 		.4byte	0x738
 8509 224b 62220000 		.4byte	0x2262
 8510 224f 28       		.uleb128 0x28
 8511 2250 01       		.byte	0x1
 8512 2251 52       		.byte	0x52
 8513 2252 02       		.byte	0x2
 8514 2253 75       		.byte	0x75
 8515 2254 00       		.sleb128 0
 8516 2255 28       		.uleb128 0x28
 8517 2256 01       		.byte	0x1
 8518 2257 51       		.byte	0x51
 8519 2258 02       		.byte	0x2
 8520 2259 74       		.byte	0x74
 8521 225a 00       		.sleb128 0
 8522 225b 28       		.uleb128 0x28
 8523 225c 01       		.byte	0x1
 8524 225d 50       		.byte	0x50
 8525 225e 02       		.byte	0x2
 8526 225f 79       		.byte	0x79
 8527 2260 00       		.sleb128 0
 8528 2261 00       		.byte	0
 8529 2262 27       		.uleb128 0x27
 8530 2263 74010000 		.4byte	.LVL316
 8531 2267 38070000 		.4byte	0x738
 8532 226b 82220000 		.4byte	0x2282
ARM GAS  /tmp/ccVxBZiF.s 			page 151


 8533 226f 28       		.uleb128 0x28
 8534 2270 01       		.byte	0x1
 8535 2271 52       		.byte	0x52
 8536 2272 02       		.byte	0x2
 8537 2273 75       		.byte	0x75
 8538 2274 00       		.sleb128 0
 8539 2275 28       		.uleb128 0x28
 8540 2276 01       		.byte	0x1
 8541 2277 51       		.byte	0x51
 8542 2278 02       		.byte	0x2
 8543 2279 74       		.byte	0x74
 8544 227a 00       		.sleb128 0
 8545 227b 28       		.uleb128 0x28
 8546 227c 01       		.byte	0x1
 8547 227d 50       		.byte	0x50
 8548 227e 02       		.byte	0x2
 8549 227f 79       		.byte	0x79
 8550 2280 00       		.sleb128 0
 8551 2281 00       		.byte	0
 8552 2282 27       		.uleb128 0x27
 8553 2283 A6010000 		.4byte	.LVL322
 8554 2287 38070000 		.4byte	0x738
 8555 228b A2220000 		.4byte	0x22a2
 8556 228f 28       		.uleb128 0x28
 8557 2290 01       		.byte	0x1
 8558 2291 52       		.byte	0x52
 8559 2292 02       		.byte	0x2
 8560 2293 75       		.byte	0x75
 8561 2294 00       		.sleb128 0
 8562 2295 28       		.uleb128 0x28
 8563 2296 01       		.byte	0x1
 8564 2297 51       		.byte	0x51
 8565 2298 02       		.byte	0x2
 8566 2299 74       		.byte	0x74
 8567 229a 00       		.sleb128 0
 8568 229b 28       		.uleb128 0x28
 8569 229c 01       		.byte	0x1
 8570 229d 50       		.byte	0x50
 8571 229e 02       		.byte	0x2
 8572 229f 79       		.byte	0x79
 8573 22a0 00       		.sleb128 0
 8574 22a1 00       		.byte	0
 8575 22a2 27       		.uleb128 0x27
 8576 22a3 D6010000 		.4byte	.LVL325
 8577 22a7 38070000 		.4byte	0x738
 8578 22ab C2220000 		.4byte	0x22c2
 8579 22af 28       		.uleb128 0x28
 8580 22b0 01       		.byte	0x1
 8581 22b1 52       		.byte	0x52
 8582 22b2 02       		.byte	0x2
 8583 22b3 75       		.byte	0x75
 8584 22b4 00       		.sleb128 0
 8585 22b5 28       		.uleb128 0x28
 8586 22b6 01       		.byte	0x1
 8587 22b7 51       		.byte	0x51
 8588 22b8 02       		.byte	0x2
 8589 22b9 74       		.byte	0x74
ARM GAS  /tmp/ccVxBZiF.s 			page 152


 8590 22ba 00       		.sleb128 0
 8591 22bb 28       		.uleb128 0x28
 8592 22bc 01       		.byte	0x1
 8593 22bd 50       		.byte	0x50
 8594 22be 02       		.byte	0x2
 8595 22bf 79       		.byte	0x79
 8596 22c0 00       		.sleb128 0
 8597 22c1 00       		.byte	0
 8598 22c2 27       		.uleb128 0x27
 8599 22c3 0C020000 		.4byte	.LVL330
 8600 22c7 38070000 		.4byte	0x738
 8601 22cb E2220000 		.4byte	0x22e2
 8602 22cf 28       		.uleb128 0x28
 8603 22d0 01       		.byte	0x1
 8604 22d1 52       		.byte	0x52
 8605 22d2 02       		.byte	0x2
 8606 22d3 75       		.byte	0x75
 8607 22d4 00       		.sleb128 0
 8608 22d5 28       		.uleb128 0x28
 8609 22d6 01       		.byte	0x1
 8610 22d7 51       		.byte	0x51
 8611 22d8 02       		.byte	0x2
 8612 22d9 74       		.byte	0x74
 8613 22da 00       		.sleb128 0
 8614 22db 28       		.uleb128 0x28
 8615 22dc 01       		.byte	0x1
 8616 22dd 50       		.byte	0x50
 8617 22de 02       		.byte	0x2
 8618 22df 79       		.byte	0x79
 8619 22e0 00       		.sleb128 0
 8620 22e1 00       		.byte	0
 8621 22e2 3F       		.uleb128 0x3f
 8622 22e3 42020000 		.4byte	.LVL335
 8623 22e7 01       		.byte	0x1
 8624 22e8 48200000 		.4byte	0x2048
 8625 22ec FD220000 		.4byte	0x22fd
 8626 22f0 28       		.uleb128 0x28
 8627 22f1 01       		.byte	0x1
 8628 22f2 52       		.byte	0x52
 8629 22f3 01       		.byte	0x1
 8630 22f4 31       		.byte	0x31
 8631 22f5 28       		.uleb128 0x28
 8632 22f6 02       		.byte	0x2
 8633 22f7 91       		.byte	0x91
 8634 22f8 00       		.sleb128 0
 8635 22f9 02       		.byte	0x2
 8636 22fa 75       		.byte	0x75
 8637 22fb 00       		.sleb128 0
 8638 22fc 00       		.byte	0
 8639 22fd 3F       		.uleb128 0x3f
 8640 22fe 5C020000 		.4byte	.LVL338
 8641 2302 01       		.byte	0x1
 8642 2303 48200000 		.4byte	0x2048
 8643 2307 18230000 		.4byte	0x2318
 8644 230b 28       		.uleb128 0x28
 8645 230c 01       		.byte	0x1
 8646 230d 53       		.byte	0x53
ARM GAS  /tmp/ccVxBZiF.s 			page 153


 8647 230e 01       		.byte	0x1
 8648 230f 31       		.byte	0x31
 8649 2310 28       		.uleb128 0x28
 8650 2311 02       		.byte	0x2
 8651 2312 91       		.byte	0x91
 8652 2313 00       		.sleb128 0
 8653 2314 02       		.byte	0x2
 8654 2315 75       		.byte	0x75
 8655 2316 00       		.sleb128 0
 8656 2317 00       		.byte	0
 8657 2318 3F       		.uleb128 0x3f
 8658 2319 96020000 		.4byte	.LVL344
 8659 231d 01       		.byte	0x1
 8660 231e 48200000 		.4byte	0x2048
 8661 2322 39230000 		.4byte	0x2339
 8662 2326 28       		.uleb128 0x28
 8663 2327 01       		.byte	0x1
 8664 2328 53       		.byte	0x53
 8665 2329 02       		.byte	0x2
 8666 232a 74       		.byte	0x74
 8667 232b 00       		.sleb128 0
 8668 232c 28       		.uleb128 0x28
 8669 232d 01       		.byte	0x1
 8670 232e 52       		.byte	0x52
 8671 232f 01       		.byte	0x1
 8672 2330 31       		.byte	0x31
 8673 2331 28       		.uleb128 0x28
 8674 2332 02       		.byte	0x2
 8675 2333 91       		.byte	0x91
 8676 2334 00       		.sleb128 0
 8677 2335 02       		.byte	0x2
 8678 2336 75       		.byte	0x75
 8679 2337 00       		.sleb128 0
 8680 2338 00       		.byte	0
 8681 2339 40       		.uleb128 0x40
 8682 233a B2020000 		.4byte	.LVL348
 8683 233e 01       		.byte	0x1
 8684 233f 48200000 		.4byte	0x2048
 8685 2343 28       		.uleb128 0x28
 8686 2344 01       		.byte	0x1
 8687 2345 53       		.byte	0x53
 8688 2346 01       		.byte	0x1
 8689 2347 31       		.byte	0x31
 8690 2348 28       		.uleb128 0x28
 8691 2349 01       		.byte	0x1
 8692 234a 52       		.byte	0x52
 8693 234b 02       		.byte	0x2
 8694 234c 79       		.byte	0x79
 8695 234d 00       		.sleb128 0
 8696 234e 28       		.uleb128 0x28
 8697 234f 02       		.byte	0x2
 8698 2350 91       		.byte	0x91
 8699 2351 00       		.sleb128 0
 8700 2352 02       		.byte	0x2
 8701 2353 75       		.byte	0x75
 8702 2354 00       		.sleb128 0
 8703 2355 00       		.byte	0
ARM GAS  /tmp/ccVxBZiF.s 			page 154


 8704 2356 00       		.byte	0
 8705 2357 22       		.uleb128 0x22
 8706 2358 01       		.byte	0x1
 8707 2359 45010000 		.4byte	.LASF141
 8708 235d 03       		.byte	0x3
 8709 235e C3       		.byte	0xc3
 8710 235f 01       		.byte	0x1
 8711 2360 00000000 		.4byte	.LFB121
 8712 2364 E6000000 		.4byte	.LFE121
 8713 2368 55140000 		.4byte	.LLST126
 8714 236c 01       		.byte	0x1
 8715 236d 95240000 		.4byte	0x2495
 8716 2371 1C       		.uleb128 0x1c
 8717 2372 7800     		.ascii	"x\000"
 8718 2374 03       		.byte	0x3
 8719 2375 C3       		.byte	0xc3
 8720 2376 79040000 		.4byte	0x479
 8721 237a 82140000 		.4byte	.LLST127
 8722 237e 1C       		.uleb128 0x1c
 8723 237f 7900     		.ascii	"y\000"
 8724 2381 03       		.byte	0x3
 8725 2382 C3       		.byte	0xc3
 8726 2383 79040000 		.4byte	0x479
 8727 2387 A0140000 		.4byte	.LLST128
 8728 238b 36       		.uleb128 0x36
 8729 238c 81030000 		.4byte	.LASF132
 8730 2390 03       		.byte	0x3
 8731 2391 C3       		.byte	0xc3
 8732 2392 79040000 		.4byte	0x479
 8733 2396 BE140000 		.4byte	.LLST129
 8734 239a 36       		.uleb128 0x36
 8735 239b B9050000 		.4byte	.LASF123
 8736 239f 03       		.byte	0x3
 8737 23a0 C3       		.byte	0xc3
 8738 23a1 6F060000 		.4byte	0x66f
 8739 23a5 DF140000 		.4byte	.LLST130
 8740 23a9 37       		.uleb128 0x37
 8741 23aa 6100     		.ascii	"a\000"
 8742 23ac 03       		.byte	0x3
 8743 23ad C4       		.byte	0xc4
 8744 23ae 79040000 		.4byte	0x479
 8745 23b2 00150000 		.4byte	.LLST131
 8746 23b6 37       		.uleb128 0x37
 8747 23b7 6200     		.ascii	"b\000"
 8748 23b9 03       		.byte	0x3
 8749 23ba C4       		.byte	0xc4
 8750 23bb 79040000 		.4byte	0x479
 8751 23bf 40150000 		.4byte	.LLST132
 8752 23c3 38       		.uleb128 0x38
 8753 23c4 5000     		.ascii	"P\000"
 8754 23c6 03       		.byte	0x3
 8755 23c7 C4       		.byte	0xc4
 8756 23c8 79040000 		.4byte	0x479
 8757 23cc 02       		.byte	0x2
 8758 23cd 91       		.byte	0x91
 8759 23ce 50       		.sleb128 -48
 8760 23cf 27       		.uleb128 0x27
ARM GAS  /tmp/ccVxBZiF.s 			page 155


 8761 23d0 80000000 		.4byte	.LVL362
 8762 23d4 1F210000 		.4byte	0x211f
 8763 23d8 05240000 		.4byte	0x2405
 8764 23dc 28       		.uleb128 0x28
 8765 23dd 01       		.byte	0x1
 8766 23de 53       		.byte	0x53
 8767 23df 05       		.byte	0x5
 8768 23e0 75       		.byte	0x75
 8769 23e1 00       		.sleb128 0
 8770 23e2 76       		.byte	0x76
 8771 23e3 00       		.sleb128 0
 8772 23e4 22       		.byte	0x22
 8773 23e5 28       		.uleb128 0x28
 8774 23e6 01       		.byte	0x1
 8775 23e7 52       		.byte	0x52
 8776 23e8 02       		.byte	0x2
 8777 23e9 7B       		.byte	0x7b
 8778 23ea 00       		.sleb128 0
 8779 23eb 28       		.uleb128 0x28
 8780 23ec 01       		.byte	0x1
 8781 23ed 51       		.byte	0x51
 8782 23ee 05       		.byte	0x5
 8783 23ef 75       		.byte	0x75
 8784 23f0 00       		.sleb128 0
 8785 23f1 76       		.byte	0x76
 8786 23f2 00       		.sleb128 0
 8787 23f3 22       		.byte	0x22
 8788 23f4 28       		.uleb128 0x28
 8789 23f5 01       		.byte	0x1
 8790 23f6 50       		.byte	0x50
 8791 23f7 05       		.byte	0x5
 8792 23f8 78       		.byte	0x78
 8793 23f9 00       		.sleb128 0
 8794 23fa 74       		.byte	0x74
 8795 23fb 00       		.sleb128 0
 8796 23fc 1C       		.byte	0x1c
 8797 23fd 28       		.uleb128 0x28
 8798 23fe 02       		.byte	0x2
 8799 23ff 7D       		.byte	0x7d
 8800 2400 00       		.sleb128 0
 8801 2401 02       		.byte	0x2
 8802 2402 77       		.byte	0x77
 8803 2403 00       		.sleb128 0
 8804 2404 00       		.byte	0
 8805 2405 27       		.uleb128 0x27
 8806 2406 94000000 		.4byte	.LVL363
 8807 240a 1F210000 		.4byte	0x211f
 8808 240e 32240000 		.4byte	0x2432
 8809 2412 28       		.uleb128 0x28
 8810 2413 01       		.byte	0x1
 8811 2414 53       		.byte	0x53
 8812 2415 05       		.byte	0x5
 8813 2416 76       		.byte	0x76
 8814 2417 00       		.sleb128 0
 8815 2418 75       		.byte	0x75
 8816 2419 00       		.sleb128 0
 8817 241a 1C       		.byte	0x1c
ARM GAS  /tmp/ccVxBZiF.s 			page 156


 8818 241b 28       		.uleb128 0x28
 8819 241c 01       		.byte	0x1
 8820 241d 52       		.byte	0x52
 8821 241e 02       		.byte	0x2
 8822 241f 7B       		.byte	0x7b
 8823 2420 00       		.sleb128 0
 8824 2421 28       		.uleb128 0x28
 8825 2422 01       		.byte	0x1
 8826 2423 51       		.byte	0x51
 8827 2424 05       		.byte	0x5
 8828 2425 76       		.byte	0x76
 8829 2426 00       		.sleb128 0
 8830 2427 75       		.byte	0x75
 8831 2428 00       		.sleb128 0
 8832 2429 1C       		.byte	0x1c
 8833 242a 28       		.uleb128 0x28
 8834 242b 02       		.byte	0x2
 8835 242c 7D       		.byte	0x7d
 8836 242d 00       		.sleb128 0
 8837 242e 02       		.byte	0x2
 8838 242f 77       		.byte	0x77
 8839 2430 00       		.sleb128 0
 8840 2431 00       		.byte	0
 8841 2432 27       		.uleb128 0x27
 8842 2433 B0000000 		.4byte	.LVL364
 8843 2437 1F210000 		.4byte	0x211f
 8844 243b 65240000 		.4byte	0x2465
 8845 243f 28       		.uleb128 0x28
 8846 2440 01       		.byte	0x1
 8847 2441 53       		.byte	0x53
 8848 2442 05       		.byte	0x5
 8849 2443 76       		.byte	0x76
 8850 2444 00       		.sleb128 0
 8851 2445 74       		.byte	0x74
 8852 2446 00       		.sleb128 0
 8853 2447 22       		.byte	0x22
 8854 2448 28       		.uleb128 0x28
 8855 2449 01       		.byte	0x1
 8856 244a 52       		.byte	0x52
 8857 244b 02       		.byte	0x2
 8858 244c 75       		.byte	0x75
 8859 244d 00       		.sleb128 0
 8860 244e 28       		.uleb128 0x28
 8861 244f 01       		.byte	0x1
 8862 2450 51       		.byte	0x51
 8863 2451 05       		.byte	0x5
 8864 2452 76       		.byte	0x76
 8865 2453 00       		.sleb128 0
 8866 2454 74       		.byte	0x74
 8867 2455 00       		.sleb128 0
 8868 2456 22       		.byte	0x22
 8869 2457 28       		.uleb128 0x28
 8870 2458 01       		.byte	0x1
 8871 2459 50       		.byte	0x50
 8872 245a 02       		.byte	0x2
 8873 245b 7B       		.byte	0x7b
 8874 245c 00       		.sleb128 0
ARM GAS  /tmp/ccVxBZiF.s 			page 157


 8875 245d 28       		.uleb128 0x28
 8876 245e 02       		.byte	0x2
 8877 245f 7D       		.byte	0x7d
 8878 2460 00       		.sleb128 0
 8879 2461 02       		.byte	0x2
 8880 2462 77       		.byte	0x77
 8881 2463 00       		.sleb128 0
 8882 2464 00       		.byte	0
 8883 2465 29       		.uleb128 0x29
 8884 2466 C0000000 		.4byte	.LVL365
 8885 246a 1F210000 		.4byte	0x211f
 8886 246e 28       		.uleb128 0x28
 8887 246f 01       		.byte	0x1
 8888 2470 53       		.byte	0x53
 8889 2471 05       		.byte	0x5
 8890 2472 76       		.byte	0x76
 8891 2473 00       		.sleb128 0
 8892 2474 74       		.byte	0x74
 8893 2475 00       		.sleb128 0
 8894 2476 1C       		.byte	0x1c
 8895 2477 28       		.uleb128 0x28
 8896 2478 01       		.byte	0x1
 8897 2479 52       		.byte	0x52
 8898 247a 02       		.byte	0x2
 8899 247b 75       		.byte	0x75
 8900 247c 00       		.sleb128 0
 8901 247d 28       		.uleb128 0x28
 8902 247e 01       		.byte	0x1
 8903 247f 51       		.byte	0x51
 8904 2480 05       		.byte	0x5
 8905 2481 76       		.byte	0x76
 8906 2482 00       		.sleb128 0
 8907 2483 74       		.byte	0x74
 8908 2484 00       		.sleb128 0
 8909 2485 1C       		.byte	0x1c
 8910 2486 28       		.uleb128 0x28
 8911 2487 01       		.byte	0x1
 8912 2488 50       		.byte	0x50
 8913 2489 02       		.byte	0x2
 8914 248a 7B       		.byte	0x7b
 8915 248b 00       		.sleb128 0
 8916 248c 28       		.uleb128 0x28
 8917 248d 02       		.byte	0x2
 8918 248e 7D       		.byte	0x7d
 8919 248f 00       		.sleb128 0
 8920 2490 02       		.byte	0x2
 8921 2491 77       		.byte	0x77
 8922 2492 00       		.sleb128 0
 8923 2493 00       		.byte	0
 8924 2494 00       		.byte	0
 8925 2495 30       		.uleb128 0x30
 8926 2496 01       		.byte	0x1
 8927 2497 13040000 		.4byte	.LASF142
 8928 249b 01       		.byte	0x1
 8929 249c 6601     		.2byte	0x166
 8930 249e 01       		.byte	0x1
 8931 249f 00000000 		.4byte	.LFB139
ARM GAS  /tmp/ccVxBZiF.s 			page 158


 8932 24a3 44010000 		.4byte	.LFE139
 8933 24a7 76150000 		.4byte	.LLST133
 8934 24ab 01       		.byte	0x1
 8935 24ac B1250000 		.4byte	0x25b1
 8936 24b0 31       		.uleb128 0x31
 8937 24b1 7800     		.ascii	"x\000"
 8938 24b3 01       		.byte	0x1
 8939 24b4 6601     		.2byte	0x166
 8940 24b6 79040000 		.4byte	0x479
 8941 24ba 96150000 		.4byte	.LLST134
 8942 24be 31       		.uleb128 0x31
 8943 24bf 7900     		.ascii	"y\000"
 8944 24c1 01       		.byte	0x1
 8945 24c2 6601     		.2byte	0x166
 8946 24c4 79040000 		.4byte	0x479
 8947 24c8 CE150000 		.4byte	.LLST135
 8948 24cc 31       		.uleb128 0x31
 8949 24cd 637800   		.ascii	"cx\000"
 8950 24d0 01       		.byte	0x1
 8951 24d1 6601     		.2byte	0x166
 8952 24d3 79040000 		.4byte	0x479
 8953 24d7 14160000 		.4byte	.LLST136
 8954 24db 31       		.uleb128 0x31
 8955 24dc 637900   		.ascii	"cy\000"
 8956 24df 01       		.byte	0x1
 8957 24e0 6601     		.2byte	0x166
 8958 24e2 79040000 		.4byte	0x479
 8959 24e6 4B160000 		.4byte	.LLST137
 8960 24ea 32       		.uleb128 0x32
 8961 24eb CC050000 		.4byte	.LASF143
 8962 24ef 01       		.byte	0x1
 8963 24f0 6601     		.2byte	0x166
 8964 24f2 79040000 		.4byte	0x479
 8965 24f6 77160000 		.4byte	.LLST138
 8966 24fa 32       		.uleb128 0x32
 8967 24fb D1050000 		.4byte	.LASF144
 8968 24ff 01       		.byte	0x1
 8969 2500 6601     		.2byte	0x166
 8970 2502 79040000 		.4byte	0x479
 8971 2506 96160000 		.4byte	.LLST139
 8972 250a 33       		.uleb128 0x33
 8973 250b 6C060000 		.4byte	.LASF145
 8974 250f 01       		.byte	0x1
 8975 2510 6601     		.2byte	0x166
 8976 2512 79040000 		.4byte	0x479
 8977 2516 02       		.byte	0x2
 8978 2517 91       		.byte	0x91
 8979 2518 08       		.sleb128 8
 8980 2519 32       		.uleb128 0x32
 8981 251a 1C050000 		.4byte	.LASF146
 8982 251e 01       		.byte	0x1
 8983 251f 6601     		.2byte	0x166
 8984 2521 B1250000 		.4byte	0x25b1
 8985 2525 B5160000 		.4byte	.LLST140
 8986 2529 35       		.uleb128 0x35
 8987 252a 56060000 		.4byte	.LASF147
 8988 252e 01       		.byte	0x1
ARM GAS  /tmp/ccVxBZiF.s 			page 159


 8989 252f 8501     		.2byte	0x185
 8990 2531 79040000 		.4byte	0x479
 8991 2535 DF160000 		.4byte	.LLST141
 8992 2539 35       		.uleb128 0x35
 8993 253a 5B060000 		.4byte	.LASF148
 8994 253e 01       		.byte	0x1
 8995 253f 8501     		.2byte	0x185
 8996 2541 79040000 		.4byte	0x479
 8997 2545 FD160000 		.4byte	.LLST142
 8998 2549 34       		.uleb128 0x34
 8999 254a 6C6700   		.ascii	"lg\000"
 9000 254d 01       		.byte	0x1
 9001 254e 8601     		.2byte	0x186
 9002 2550 86000000 		.4byte	0x86
 9003 2554 15170000 		.4byte	.LLST143
 9004 2558 3A       		.uleb128 0x3a
 9005 2559 BB060000 		.4byte	0x6bb
 9006 255d BA000000 		.4byte	.LBB1225
 9007 2561 40070000 		.4byte	.Ldebug_ranges0+0x740
 9008 2565 01       		.byte	0x1
 9009 2566 7501     		.2byte	0x175
 9010 2568 76250000 		.4byte	0x2576
 9011 256c 1E       		.uleb128 0x1e
 9012 256d C8060000 		.4byte	0x6c8
 9013 2571 28170000 		.4byte	.LLST144
 9014 2575 00       		.byte	0
 9015 2576 3A       		.uleb128 0x3a
 9016 2577 D4060000 		.4byte	0x6d4
 9017 257b DA000000 		.4byte	.LBB1231
 9018 257f 60070000 		.4byte	.Ldebug_ranges0+0x760
 9019 2583 01       		.byte	0x1
 9020 2584 8C01     		.2byte	0x18c
 9021 2586 94250000 		.4byte	0x2594
 9022 258a 1E       		.uleb128 0x1e
 9023 258b E1060000 		.4byte	0x6e1
 9024 258f 3D170000 		.4byte	.LLST145
 9025 2593 00       		.byte	0
 9026 2594 29       		.uleb128 0x29
 9027 2595 B0000000 		.4byte	.LVL385
 9028 2599 64070000 		.4byte	0x764
 9029 259d 28       		.uleb128 0x28
 9030 259e 01       		.byte	0x1
 9031 259f 53       		.byte	0x53
 9032 25a0 02       		.byte	0x2
 9033 25a1 79       		.byte	0x79
 9034 25a2 00       		.sleb128 0
 9035 25a3 28       		.uleb128 0x28
 9036 25a4 01       		.byte	0x1
 9037 25a5 52       		.byte	0x52
 9038 25a6 02       		.byte	0x2
 9039 25a7 74       		.byte	0x74
 9040 25a8 00       		.sleb128 0
 9041 25a9 28       		.uleb128 0x28
 9042 25aa 01       		.byte	0x1
 9043 25ab 51       		.byte	0x51
 9044 25ac 02       		.byte	0x2
 9045 25ad 76       		.byte	0x76
ARM GAS  /tmp/ccVxBZiF.s 			page 160


 9046 25ae 00       		.sleb128 0
 9047 25af 00       		.byte	0
 9048 25b0 00       		.byte	0
 9049 25b1 06       		.uleb128 0x6
 9050 25b2 04       		.byte	0x4
 9051 25b3 B7250000 		.4byte	0x25b7
 9052 25b7 07       		.uleb128 0x7
 9053 25b8 7A060000 		.4byte	0x67a
 9054 25bc 30       		.uleb128 0x30
 9055 25bd 01       		.byte	0x1
 9056 25be 4F000000 		.4byte	.LASF149
 9057 25c2 03       		.byte	0x3
 9058 25c3 F801     		.2byte	0x1f8
 9059 25c5 01       		.byte	0x1
 9060 25c6 00000000 		.4byte	.LFB123
 9061 25ca BC010000 		.4byte	.LFE123
 9062 25ce 51170000 		.4byte	.LLST146
 9063 25d2 01       		.byte	0x1
 9064 25d3 27270000 		.4byte	0x2727
 9065 25d7 31       		.uleb128 0x31
 9066 25d8 7800     		.ascii	"x\000"
 9067 25da 03       		.byte	0x3
 9068 25db F801     		.2byte	0x1f8
 9069 25dd 79040000 		.4byte	0x479
 9070 25e1 7E170000 		.4byte	.LLST147
 9071 25e5 31       		.uleb128 0x31
 9072 25e6 7900     		.ascii	"y\000"
 9073 25e8 03       		.byte	0x3
 9074 25e9 F801     		.2byte	0x1f8
 9075 25eb 79040000 		.4byte	0x479
 9076 25ef 9F170000 		.4byte	.LLST148
 9077 25f3 31       		.uleb128 0x31
 9078 25f4 6300     		.ascii	"c\000"
 9079 25f6 03       		.byte	0x3
 9080 25f7 F801     		.2byte	0x1f8
 9081 25f9 E5000000 		.4byte	0xe5
 9082 25fd C0170000 		.4byte	.LLST149
 9083 2601 32       		.uleb128 0x32
 9084 2602 80060000 		.4byte	.LASF96
 9085 2606 03       		.byte	0x3
 9086 2607 F801     		.2byte	0x1f8
 9087 2609 84040000 		.4byte	0x484
 9088 260d E1170000 		.4byte	.LLST150
 9089 2611 33       		.uleb128 0x33
 9090 2612 B9050000 		.4byte	.LASF123
 9091 2616 03       		.byte	0x3
 9092 2617 F801     		.2byte	0x1f8
 9093 2619 6F060000 		.4byte	0x66f
 9094 261d 02       		.byte	0x2
 9095 261e 91       		.byte	0x91
 9096 261f 00       		.sleb128 0
 9097 2620 33       		.uleb128 0x33
 9098 2621 0F030000 		.4byte	.LASF150
 9099 2625 03       		.byte	0x3
 9100 2626 F801     		.2byte	0x1f8
 9101 2628 6F060000 		.4byte	0x66f
 9102 262c 02       		.byte	0x2
ARM GAS  /tmp/ccVxBZiF.s 			page 161


 9103 262d 91       		.byte	0x91
 9104 262e 04       		.sleb128 4
 9105 262f 35       		.uleb128 0x35
 9106 2630 AE020000 		.4byte	.LASF130
 9107 2634 03       		.byte	0x3
 9108 2635 F901     		.2byte	0x1f9
 9109 2637 79040000 		.4byte	0x479
 9110 263b 02180000 		.4byte	.LLST151
 9111 263f 35       		.uleb128 0x35
 9112 2640 03070000 		.4byte	.LASF71
 9113 2644 03       		.byte	0x3
 9114 2645 F901     		.2byte	0x1f9
 9115 2647 79040000 		.4byte	0x479
 9116 264b 4A180000 		.4byte	.LLST152
 9117 264f 35       		.uleb128 0x35
 9118 2650 7A030000 		.4byte	.LASF79
 9119 2654 03       		.byte	0x3
 9120 2655 FA01     		.2byte	0x1fa
 9121 2657 79040000 		.4byte	0x479
 9122 265b B0180000 		.4byte	.LLST153
 9123 265f 41       		.uleb128 0x41
 9124 2660 52040000 		.4byte	.LASF80
 9125 2664 03       		.byte	0x3
 9126 2665 FA01     		.2byte	0x1fa
 9127 2667 79040000 		.4byte	0x479
 9128 266b 25       		.uleb128 0x25
 9129 266c 98070000 		.4byte	.Ldebug_ranges0+0x798
 9130 2670 34       		.uleb128 0x34
 9131 2671 70747200 		.ascii	"ptr\000"
 9132 2675 03       		.byte	0x3
 9133 2676 3A02     		.2byte	0x23a
 9134 2678 97060000 		.4byte	0x697
 9135 267c DE180000 		.4byte	.LLST154
 9136 2680 35       		.uleb128 0x35
 9137 2681 31060000 		.4byte	.LASF129
 9138 2685 03       		.byte	0x3
 9139 2686 3B02     		.2byte	0x23b
 9140 2688 86060000 		.4byte	0x686
 9141 268c 2B190000 		.4byte	.LLST155
 9142 2690 34       		.uleb128 0x34
 9143 2691 6900     		.ascii	"i\000"
 9144 2693 03       		.byte	0x3
 9145 2694 3C02     		.2byte	0x23c
 9146 2696 79040000 		.4byte	0x479
 9147 269a 4B190000 		.4byte	.LLST156
 9148 269e 34       		.uleb128 0x34
 9149 269f 6A00     		.ascii	"j\000"
 9150 26a1 03       		.byte	0x3
 9151 26a2 3C02     		.2byte	0x23c
 9152 26a4 79040000 		.4byte	0x479
 9153 26a8 77190000 		.4byte	.LLST157
 9154 26ac 34       		.uleb128 0x34
 9155 26ad 787300   		.ascii	"xs\000"
 9156 26b0 03       		.byte	0x3
 9157 26b1 3C02     		.2byte	0x23c
 9158 26b3 79040000 		.4byte	0x479
 9159 26b7 96190000 		.4byte	.LLST158
ARM GAS  /tmp/ccVxBZiF.s 			page 162


 9160 26bb 34       		.uleb128 0x34
 9161 26bc 797300   		.ascii	"ys\000"
 9162 26bf 03       		.byte	0x3
 9163 26c0 3C02     		.2byte	0x23c
 9164 26c2 79040000 		.4byte	0x479
 9165 26c6 CC190000 		.4byte	.LLST159
 9166 26ca 42       		.uleb128 0x42
 9167 26cb 62756600 		.ascii	"buf\000"
 9168 26cf 03       		.byte	0x3
 9169 26d0 4202     		.2byte	0x242
 9170 26d2 27270000 		.4byte	0x2727
 9171 26d6 05       		.byte	0x5
 9172 26d7 03       		.byte	0x3
 9173 26d8 00000000 		.4byte	buf.8094
 9174 26dc 29       		.uleb128 0x29
 9175 26dd 3E010000 		.4byte	.LVL426
 9176 26e1 95240000 		.4byte	0x2495
 9177 26e5 28       		.uleb128 0x28
 9178 26e6 01       		.byte	0x1
 9179 26e7 53       		.byte	0x53
 9180 26e8 05       		.byte	0x5
 9181 26e9 91       		.byte	0x91
 9182 26ea B07F     		.sleb128 -80
 9183 26ec 94       		.byte	0x94
 9184 26ed 02       		.byte	0x2
 9185 26ee 28       		.uleb128 0x28
 9186 26ef 01       		.byte	0x1
 9187 26f0 52       		.byte	0x52
 9188 26f1 04       		.byte	0x4
 9189 26f2 91       		.byte	0x91
 9190 26f3 44       		.sleb128 -60
 9191 26f4 94       		.byte	0x94
 9192 26f5 02       		.byte	0x2
 9193 26f6 28       		.uleb128 0x28
 9194 26f7 01       		.byte	0x1
 9195 26f8 51       		.byte	0x51
 9196 26f9 04       		.byte	0x4
 9197 26fa 91       		.byte	0x91
 9198 26fb 54       		.sleb128 -44
 9199 26fc 94       		.byte	0x94
 9200 26fd 02       		.byte	0x2
 9201 26fe 28       		.uleb128 0x28
 9202 26ff 01       		.byte	0x1
 9203 2700 50       		.byte	0x50
 9204 2701 04       		.byte	0x4
 9205 2702 91       		.byte	0x91
 9206 2703 50       		.sleb128 -48
 9207 2704 94       		.byte	0x94
 9208 2705 02       		.byte	0x2
 9209 2706 28       		.uleb128 0x28
 9210 2707 02       		.byte	0x2
 9211 2708 7D       		.byte	0x7d
 9212 2709 0C       		.sleb128 12
 9213 270a 04       		.byte	0x4
 9214 270b 91       		.byte	0x91
 9215 270c BC7F     		.sleb128 -68
 9216 270e 06       		.byte	0x6
ARM GAS  /tmp/ccVxBZiF.s 			page 163


 9217 270f 28       		.uleb128 0x28
 9218 2710 02       		.byte	0x2
 9219 2711 7D       		.byte	0x7d
 9220 2712 08       		.sleb128 8
 9221 2713 04       		.byte	0x4
 9222 2714 91       		.byte	0x91
 9223 2715 44       		.sleb128 -60
 9224 2716 94       		.byte	0x94
 9225 2717 02       		.byte	0x2
 9226 2718 28       		.uleb128 0x28
 9227 2719 02       		.byte	0x2
 9228 271a 7D       		.byte	0x7d
 9229 271b 04       		.sleb128 4
 9230 271c 01       		.byte	0x1
 9231 271d 30       		.byte	0x30
 9232 271e 28       		.uleb128 0x28
 9233 271f 02       		.byte	0x2
 9234 2720 7D       		.byte	0x7d
 9235 2721 00       		.sleb128 0
 9236 2722 01       		.byte	0x1
 9237 2723 30       		.byte	0x30
 9238 2724 00       		.byte	0
 9239 2725 00       		.byte	0
 9240 2726 00       		.byte	0
 9241 2727 08       		.uleb128 0x8
 9242 2728 7A060000 		.4byte	0x67a
 9243 272c 38270000 		.4byte	0x2738
 9244 2730 43       		.uleb128 0x43
 9245 2731 D3000000 		.4byte	0xd3
 9246 2735 7F02     		.2byte	0x27f
 9247 2737 00       		.byte	0
 9248 2738 44       		.uleb128 0x44
 9249 2739 BA000000 		.4byte	.LASF151
 9250 273d 0C       		.byte	0xc
 9251 273e 9806     		.2byte	0x698
 9252 2740 17010000 		.4byte	0x117
 9253 2744 01       		.byte	0x1
 9254 2745 01       		.byte	0x1
 9255 2746 45       		.uleb128 0x45
 9256 2747 74030000 		.4byte	.LASF152
 9257 274b 03       		.byte	0x3
 9258 274c 1E       		.byte	0x1e
 9259 274d 64060000 		.4byte	0x664
 9260 2751 01       		.byte	0x1
 9261 2752 05       		.byte	0x5
 9262 2753 03       		.byte	0x3
 9263 2754 00000000 		.4byte	GDISP
 9264 2758 46       		.uleb128 0x46
 9265 2759 01       		.byte	0x1
 9266 275a 3F040000 		.4byte	.LASF154
 9267 275e 08       		.byte	0x8
 9268 275f 1302     		.2byte	0x213
 9269 2761 01       		.byte	0x1
 9270 2762 01       		.byte	0x1
 9271 2763 72270000 		.4byte	0x2772
 9272 2767 47       		.uleb128 0x47
 9273 2768 72270000 		.4byte	0x2772
ARM GAS  /tmp/ccVxBZiF.s 			page 164


 9274 276c 47       		.uleb128 0x47
 9275 276d 14040000 		.4byte	0x414
 9276 2771 00       		.byte	0
 9277 2772 06       		.uleb128 0x6
 9278 2773 04       		.byte	0x4
 9279 2774 63040000 		.4byte	0x463
 9280 2778 46       		.uleb128 0x46
 9281 2779 01       		.byte	0x1
 9282 277a 40060000 		.4byte	.LASF155
 9283 277e 07       		.byte	0x7
 9284 277f BA01     		.2byte	0x1ba
 9285 2781 01       		.byte	0x1
 9286 2782 01       		.byte	0x1
 9287 2783 97270000 		.4byte	0x2797
 9288 2787 47       		.uleb128 0x47
 9289 2788 1F040000 		.4byte	0x41f
 9290 278c 47       		.uleb128 0x47
 9291 278d 09040000 		.4byte	0x409
 9292 2791 47       		.uleb128 0x47
 9293 2792 14040000 		.4byte	0x414
 9294 2796 00       		.byte	0
 9295 2797 48       		.uleb128 0x48
 9296 2798 01       		.byte	0x1
 9297 2799 9C060000 		.4byte	.LASF156
 9298 279d 09       		.byte	0x9
 9299 279e 50       		.byte	0x50
 9300 279f 01       		.byte	0x1
 9301 27a0 01       		.byte	0x1
 9302 27a1 AB270000 		.4byte	0x27ab
 9303 27a5 47       		.uleb128 0x47
 9304 27a6 6E040000 		.4byte	0x46e
 9305 27aa 00       		.byte	0
 9306 27ab 49       		.uleb128 0x49
 9307 27ac 01       		.byte	0x1
 9308 27ad 9E030000 		.4byte	.LASF162
 9309 27b1 09       		.byte	0x9
 9310 27b2 51       		.byte	0x51
 9311 27b3 01       		.byte	0x1
 9312 27b4 01       		.byte	0x1
 9313 27b5 47       		.uleb128 0x47
 9314 27b6 6E040000 		.4byte	0x46e
 9315 27ba 00       		.byte	0
 9316 27bb 00       		.byte	0
 9317              		.section	.debug_abbrev,"",%progbits
 9318              	.Ldebug_abbrev0:
 9319 0000 01       		.uleb128 0x1
 9320 0001 11       		.uleb128 0x11
 9321 0002 01       		.byte	0x1
 9322 0003 25       		.uleb128 0x25
 9323 0004 0E       		.uleb128 0xe
 9324 0005 13       		.uleb128 0x13
 9325 0006 0B       		.uleb128 0xb
 9326 0007 03       		.uleb128 0x3
 9327 0008 0E       		.uleb128 0xe
 9328 0009 1B       		.uleb128 0x1b
 9329 000a 0E       		.uleb128 0xe
 9330 000b 55       		.uleb128 0x55
ARM GAS  /tmp/ccVxBZiF.s 			page 165


 9331 000c 06       		.uleb128 0x6
 9332 000d 11       		.uleb128 0x11
 9333 000e 01       		.uleb128 0x1
 9334 000f 52       		.uleb128 0x52
 9335 0010 01       		.uleb128 0x1
 9336 0011 10       		.uleb128 0x10
 9337 0012 06       		.uleb128 0x6
 9338 0013 00       		.byte	0
 9339 0014 00       		.byte	0
 9340 0015 02       		.uleb128 0x2
 9341 0016 24       		.uleb128 0x24
 9342 0017 00       		.byte	0
 9343 0018 0B       		.uleb128 0xb
 9344 0019 0B       		.uleb128 0xb
 9345 001a 3E       		.uleb128 0x3e
 9346 001b 0B       		.uleb128 0xb
 9347 001c 03       		.uleb128 0x3
 9348 001d 08       		.uleb128 0x8
 9349 001e 00       		.byte	0
 9350 001f 00       		.byte	0
 9351 0020 03       		.uleb128 0x3
 9352 0021 24       		.uleb128 0x24
 9353 0022 00       		.byte	0
 9354 0023 0B       		.uleb128 0xb
 9355 0024 0B       		.uleb128 0xb
 9356 0025 3E       		.uleb128 0x3e
 9357 0026 0B       		.uleb128 0xb
 9358 0027 03       		.uleb128 0x3
 9359 0028 0E       		.uleb128 0xe
 9360 0029 00       		.byte	0
 9361 002a 00       		.byte	0
 9362 002b 04       		.uleb128 0x4
 9363 002c 16       		.uleb128 0x16
 9364 002d 00       		.byte	0
 9365 002e 03       		.uleb128 0x3
 9366 002f 0E       		.uleb128 0xe
 9367 0030 3A       		.uleb128 0x3a
 9368 0031 0B       		.uleb128 0xb
 9369 0032 3B       		.uleb128 0x3b
 9370 0033 0B       		.uleb128 0xb
 9371 0034 49       		.uleb128 0x49
 9372 0035 13       		.uleb128 0x13
 9373 0036 00       		.byte	0
 9374 0037 00       		.byte	0
 9375 0038 05       		.uleb128 0x5
 9376 0039 35       		.uleb128 0x35
 9377 003a 00       		.byte	0
 9378 003b 49       		.uleb128 0x49
 9379 003c 13       		.uleb128 0x13
 9380 003d 00       		.byte	0
 9381 003e 00       		.byte	0
 9382 003f 06       		.uleb128 0x6
 9383 0040 0F       		.uleb128 0xf
 9384 0041 00       		.byte	0
 9385 0042 0B       		.uleb128 0xb
 9386 0043 0B       		.uleb128 0xb
 9387 0044 49       		.uleb128 0x49
ARM GAS  /tmp/ccVxBZiF.s 			page 166


 9388 0045 13       		.uleb128 0x13
 9389 0046 00       		.byte	0
 9390 0047 00       		.byte	0
 9391 0048 07       		.uleb128 0x7
 9392 0049 26       		.uleb128 0x26
 9393 004a 00       		.byte	0
 9394 004b 49       		.uleb128 0x49
 9395 004c 13       		.uleb128 0x13
 9396 004d 00       		.byte	0
 9397 004e 00       		.byte	0
 9398 004f 08       		.uleb128 0x8
 9399 0050 01       		.uleb128 0x1
 9400 0051 01       		.byte	0x1
 9401 0052 49       		.uleb128 0x49
 9402 0053 13       		.uleb128 0x13
 9403 0054 01       		.uleb128 0x1
 9404 0055 13       		.uleb128 0x13
 9405 0056 00       		.byte	0
 9406 0057 00       		.byte	0
 9407 0058 09       		.uleb128 0x9
 9408 0059 21       		.uleb128 0x21
 9409 005a 00       		.byte	0
 9410 005b 49       		.uleb128 0x49
 9411 005c 13       		.uleb128 0x13
 9412 005d 2F       		.uleb128 0x2f
 9413 005e 0B       		.uleb128 0xb
 9414 005f 00       		.byte	0
 9415 0060 00       		.byte	0
 9416 0061 0A       		.uleb128 0xa
 9417 0062 13       		.uleb128 0x13
 9418 0063 01       		.byte	0x1
 9419 0064 0B       		.uleb128 0xb
 9420 0065 0B       		.uleb128 0xb
 9421 0066 3A       		.uleb128 0x3a
 9422 0067 0B       		.uleb128 0xb
 9423 0068 3B       		.uleb128 0x3b
 9424 0069 05       		.uleb128 0x5
 9425 006a 01       		.uleb128 0x1
 9426 006b 13       		.uleb128 0x13
 9427 006c 00       		.byte	0
 9428 006d 00       		.byte	0
 9429 006e 0B       		.uleb128 0xb
 9430 006f 0D       		.uleb128 0xd
 9431 0070 00       		.byte	0
 9432 0071 03       		.uleb128 0x3
 9433 0072 0E       		.uleb128 0xe
 9434 0073 3A       		.uleb128 0x3a
 9435 0074 0B       		.uleb128 0xb
 9436 0075 3B       		.uleb128 0x3b
 9437 0076 05       		.uleb128 0x5
 9438 0077 49       		.uleb128 0x49
 9439 0078 13       		.uleb128 0x13
 9440 0079 38       		.uleb128 0x38
 9441 007a 0A       		.uleb128 0xa
 9442 007b 00       		.byte	0
 9443 007c 00       		.byte	0
 9444 007d 0C       		.uleb128 0xc
ARM GAS  /tmp/ccVxBZiF.s 			page 167


 9445 007e 16       		.uleb128 0x16
 9446 007f 00       		.byte	0
 9447 0080 03       		.uleb128 0x3
 9448 0081 0E       		.uleb128 0xe
 9449 0082 3A       		.uleb128 0x3a
 9450 0083 0B       		.uleb128 0xb
 9451 0084 3B       		.uleb128 0x3b
 9452 0085 05       		.uleb128 0x5
 9453 0086 49       		.uleb128 0x49
 9454 0087 13       		.uleb128 0x13
 9455 0088 00       		.byte	0
 9456 0089 00       		.byte	0
 9457 008a 0D       		.uleb128 0xd
 9458 008b 0D       		.uleb128 0xd
 9459 008c 00       		.byte	0
 9460 008d 03       		.uleb128 0x3
 9461 008e 08       		.uleb128 0x8
 9462 008f 3A       		.uleb128 0x3a
 9463 0090 0B       		.uleb128 0xb
 9464 0091 3B       		.uleb128 0x3b
 9465 0092 05       		.uleb128 0x5
 9466 0093 49       		.uleb128 0x49
 9467 0094 13       		.uleb128 0x13
 9468 0095 38       		.uleb128 0x38
 9469 0096 0A       		.uleb128 0xa
 9470 0097 00       		.byte	0
 9471 0098 00       		.byte	0
 9472 0099 0E       		.uleb128 0xe
 9473 009a 13       		.uleb128 0x13
 9474 009b 01       		.byte	0x1
 9475 009c 0B       		.uleb128 0xb
 9476 009d 0B       		.uleb128 0xb
 9477 009e 3A       		.uleb128 0x3a
 9478 009f 0B       		.uleb128 0xb
 9479 00a0 3B       		.uleb128 0x3b
 9480 00a1 0B       		.uleb128 0xb
 9481 00a2 01       		.uleb128 0x1
 9482 00a3 13       		.uleb128 0x13
 9483 00a4 00       		.byte	0
 9484 00a5 00       		.byte	0
 9485 00a6 0F       		.uleb128 0xf
 9486 00a7 0D       		.uleb128 0xd
 9487 00a8 00       		.byte	0
 9488 00a9 03       		.uleb128 0x3
 9489 00aa 08       		.uleb128 0x8
 9490 00ab 3A       		.uleb128 0x3a
 9491 00ac 0B       		.uleb128 0xb
 9492 00ad 3B       		.uleb128 0x3b
 9493 00ae 0B       		.uleb128 0xb
 9494 00af 49       		.uleb128 0x49
 9495 00b0 13       		.uleb128 0x13
 9496 00b1 38       		.uleb128 0x38
 9497 00b2 0A       		.uleb128 0xa
 9498 00b3 00       		.byte	0
 9499 00b4 00       		.byte	0
 9500 00b5 10       		.uleb128 0x10
 9501 00b6 0D       		.uleb128 0xd
ARM GAS  /tmp/ccVxBZiF.s 			page 168


 9502 00b7 00       		.byte	0
 9503 00b8 03       		.uleb128 0x3
 9504 00b9 0E       		.uleb128 0xe
 9505 00ba 3A       		.uleb128 0x3a
 9506 00bb 0B       		.uleb128 0xb
 9507 00bc 3B       		.uleb128 0x3b
 9508 00bd 0B       		.uleb128 0xb
 9509 00be 49       		.uleb128 0x49
 9510 00bf 13       		.uleb128 0x13
 9511 00c0 38       		.uleb128 0x38
 9512 00c1 0A       		.uleb128 0xa
 9513 00c2 00       		.byte	0
 9514 00c3 00       		.byte	0
 9515 00c4 11       		.uleb128 0x11
 9516 00c5 17       		.uleb128 0x17
 9517 00c6 01       		.byte	0x1
 9518 00c7 0B       		.uleb128 0xb
 9519 00c8 0B       		.uleb128 0xb
 9520 00c9 3A       		.uleb128 0x3a
 9521 00ca 0B       		.uleb128 0xb
 9522 00cb 3B       		.uleb128 0x3b
 9523 00cc 0B       		.uleb128 0xb
 9524 00cd 01       		.uleb128 0x1
 9525 00ce 13       		.uleb128 0x13
 9526 00cf 00       		.byte	0
 9527 00d0 00       		.byte	0
 9528 00d1 12       		.uleb128 0x12
 9529 00d2 0D       		.uleb128 0xd
 9530 00d3 00       		.byte	0
 9531 00d4 03       		.uleb128 0x3
 9532 00d5 08       		.uleb128 0x8
 9533 00d6 3A       		.uleb128 0x3a
 9534 00d7 0B       		.uleb128 0xb
 9535 00d8 3B       		.uleb128 0x3b
 9536 00d9 0B       		.uleb128 0xb
 9537 00da 49       		.uleb128 0x49
 9538 00db 13       		.uleb128 0x13
 9539 00dc 00       		.byte	0
 9540 00dd 00       		.byte	0
 9541 00de 13       		.uleb128 0x13
 9542 00df 13       		.uleb128 0x13
 9543 00e0 01       		.byte	0x1
 9544 00e1 03       		.uleb128 0x3
 9545 00e2 0E       		.uleb128 0xe
 9546 00e3 0B       		.uleb128 0xb
 9547 00e4 0B       		.uleb128 0xb
 9548 00e5 3A       		.uleb128 0x3a
 9549 00e6 0B       		.uleb128 0xb
 9550 00e7 3B       		.uleb128 0x3b
 9551 00e8 0B       		.uleb128 0xb
 9552 00e9 01       		.uleb128 0x1
 9553 00ea 13       		.uleb128 0x13
 9554 00eb 00       		.byte	0
 9555 00ec 00       		.byte	0
 9556 00ed 14       		.uleb128 0x14
 9557 00ee 04       		.uleb128 0x4
 9558 00ef 01       		.byte	0x1
ARM GAS  /tmp/ccVxBZiF.s 			page 169


 9559 00f0 03       		.uleb128 0x3
 9560 00f1 0E       		.uleb128 0xe
 9561 00f2 0B       		.uleb128 0xb
 9562 00f3 0B       		.uleb128 0xb
 9563 00f4 3A       		.uleb128 0x3a
 9564 00f5 0B       		.uleb128 0xb
 9565 00f6 3B       		.uleb128 0x3b
 9566 00f7 0B       		.uleb128 0xb
 9567 00f8 01       		.uleb128 0x1
 9568 00f9 13       		.uleb128 0x13
 9569 00fa 00       		.byte	0
 9570 00fb 00       		.byte	0
 9571 00fc 15       		.uleb128 0x15
 9572 00fd 28       		.uleb128 0x28
 9573 00fe 00       		.byte	0
 9574 00ff 03       		.uleb128 0x3
 9575 0100 0E       		.uleb128 0xe
 9576 0101 1C       		.uleb128 0x1c
 9577 0102 0D       		.uleb128 0xd
 9578 0103 00       		.byte	0
 9579 0104 00       		.byte	0
 9580 0105 16       		.uleb128 0x16
 9581 0106 2E       		.uleb128 0x2e
 9582 0107 01       		.byte	0x1
 9583 0108 03       		.uleb128 0x3
 9584 0109 0E       		.uleb128 0xe
 9585 010a 3A       		.uleb128 0x3a
 9586 010b 0B       		.uleb128 0xb
 9587 010c 3B       		.uleb128 0x3b
 9588 010d 0B       		.uleb128 0xb
 9589 010e 27       		.uleb128 0x27
 9590 010f 0C       		.uleb128 0xc
 9591 0110 20       		.uleb128 0x20
 9592 0111 0B       		.uleb128 0xb
 9593 0112 01       		.uleb128 0x1
 9594 0113 13       		.uleb128 0x13
 9595 0114 00       		.byte	0
 9596 0115 00       		.byte	0
 9597 0116 17       		.uleb128 0x17
 9598 0117 05       		.uleb128 0x5
 9599 0118 00       		.byte	0
 9600 0119 03       		.uleb128 0x3
 9601 011a 0E       		.uleb128 0xe
 9602 011b 3A       		.uleb128 0x3a
 9603 011c 0B       		.uleb128 0xb
 9604 011d 3B       		.uleb128 0x3b
 9605 011e 0B       		.uleb128 0xb
 9606 011f 49       		.uleb128 0x49
 9607 0120 13       		.uleb128 0x13
 9608 0121 00       		.byte	0
 9609 0122 00       		.byte	0
 9610 0123 18       		.uleb128 0x18
 9611 0124 05       		.uleb128 0x5
 9612 0125 00       		.byte	0
 9613 0126 03       		.uleb128 0x3
 9614 0127 08       		.uleb128 0x8
 9615 0128 3A       		.uleb128 0x3a
ARM GAS  /tmp/ccVxBZiF.s 			page 170


 9616 0129 0B       		.uleb128 0xb
 9617 012a 3B       		.uleb128 0x3b
 9618 012b 0B       		.uleb128 0xb
 9619 012c 49       		.uleb128 0x49
 9620 012d 13       		.uleb128 0x13
 9621 012e 00       		.byte	0
 9622 012f 00       		.byte	0
 9623 0130 19       		.uleb128 0x19
 9624 0131 2E       		.uleb128 0x2e
 9625 0132 00       		.byte	0
 9626 0133 03       		.uleb128 0x3
 9627 0134 0E       		.uleb128 0xe
 9628 0135 3A       		.uleb128 0x3a
 9629 0136 0B       		.uleb128 0xb
 9630 0137 3B       		.uleb128 0x3b
 9631 0138 0B       		.uleb128 0xb
 9632 0139 27       		.uleb128 0x27
 9633 013a 0C       		.uleb128 0xc
 9634 013b 20       		.uleb128 0x20
 9635 013c 0B       		.uleb128 0xb
 9636 013d 00       		.byte	0
 9637 013e 00       		.byte	0
 9638 013f 1A       		.uleb128 0x1a
 9639 0140 2E       		.uleb128 0x2e
 9640 0141 01       		.byte	0x1
 9641 0142 3F       		.uleb128 0x3f
 9642 0143 0C       		.uleb128 0xc
 9643 0144 03       		.uleb128 0x3
 9644 0145 0E       		.uleb128 0xe
 9645 0146 3A       		.uleb128 0x3a
 9646 0147 0B       		.uleb128 0xb
 9647 0148 3B       		.uleb128 0x3b
 9648 0149 0B       		.uleb128 0xb
 9649 014a 27       		.uleb128 0x27
 9650 014b 0C       		.uleb128 0xc
 9651 014c 20       		.uleb128 0x20
 9652 014d 0B       		.uleb128 0xb
 9653 014e 01       		.uleb128 0x1
 9654 014f 13       		.uleb128 0x13
 9655 0150 00       		.byte	0
 9656 0151 00       		.byte	0
 9657 0152 1B       		.uleb128 0x1b
 9658 0153 2E       		.uleb128 0x2e
 9659 0154 01       		.byte	0x1
 9660 0155 03       		.uleb128 0x3
 9661 0156 0E       		.uleb128 0xe
 9662 0157 3A       		.uleb128 0x3a
 9663 0158 0B       		.uleb128 0xb
 9664 0159 3B       		.uleb128 0x3b
 9665 015a 0B       		.uleb128 0xb
 9666 015b 27       		.uleb128 0x27
 9667 015c 0C       		.uleb128 0xc
 9668 015d 11       		.uleb128 0x11
 9669 015e 01       		.uleb128 0x1
 9670 015f 12       		.uleb128 0x12
 9671 0160 01       		.uleb128 0x1
 9672 0161 40       		.uleb128 0x40
ARM GAS  /tmp/ccVxBZiF.s 			page 171


 9673 0162 06       		.uleb128 0x6
 9674 0163 9742     		.uleb128 0x2117
 9675 0165 0C       		.uleb128 0xc
 9676 0166 01       		.uleb128 0x1
 9677 0167 13       		.uleb128 0x13
 9678 0168 00       		.byte	0
 9679 0169 00       		.byte	0
 9680 016a 1C       		.uleb128 0x1c
 9681 016b 05       		.uleb128 0x5
 9682 016c 00       		.byte	0
 9683 016d 03       		.uleb128 0x3
 9684 016e 08       		.uleb128 0x8
 9685 016f 3A       		.uleb128 0x3a
 9686 0170 0B       		.uleb128 0xb
 9687 0171 3B       		.uleb128 0x3b
 9688 0172 0B       		.uleb128 0xb
 9689 0173 49       		.uleb128 0x49
 9690 0174 13       		.uleb128 0x13
 9691 0175 02       		.uleb128 0x2
 9692 0176 06       		.uleb128 0x6
 9693 0177 00       		.byte	0
 9694 0178 00       		.byte	0
 9695 0179 1D       		.uleb128 0x1d
 9696 017a 1D       		.uleb128 0x1d
 9697 017b 01       		.byte	0x1
 9698 017c 31       		.uleb128 0x31
 9699 017d 13       		.uleb128 0x13
 9700 017e 52       		.uleb128 0x52
 9701 017f 01       		.uleb128 0x1
 9702 0180 55       		.uleb128 0x55
 9703 0181 06       		.uleb128 0x6
 9704 0182 58       		.uleb128 0x58
 9705 0183 0B       		.uleb128 0xb
 9706 0184 59       		.uleb128 0x59
 9707 0185 0B       		.uleb128 0xb
 9708 0186 01       		.uleb128 0x1
 9709 0187 13       		.uleb128 0x13
 9710 0188 00       		.byte	0
 9711 0189 00       		.byte	0
 9712 018a 1E       		.uleb128 0x1e
 9713 018b 05       		.uleb128 0x5
 9714 018c 00       		.byte	0
 9715 018d 31       		.uleb128 0x31
 9716 018e 13       		.uleb128 0x13
 9717 018f 02       		.uleb128 0x2
 9718 0190 06       		.uleb128 0x6
 9719 0191 00       		.byte	0
 9720 0192 00       		.byte	0
 9721 0193 1F       		.uleb128 0x1f
 9722 0194 1D       		.uleb128 0x1d
 9723 0195 01       		.byte	0x1
 9724 0196 31       		.uleb128 0x31
 9725 0197 13       		.uleb128 0x13
 9726 0198 11       		.uleb128 0x11
 9727 0199 01       		.uleb128 0x1
 9728 019a 12       		.uleb128 0x12
 9729 019b 01       		.uleb128 0x1
ARM GAS  /tmp/ccVxBZiF.s 			page 172


 9730 019c 58       		.uleb128 0x58
 9731 019d 0B       		.uleb128 0xb
 9732 019e 59       		.uleb128 0x59
 9733 019f 0B       		.uleb128 0xb
 9734 01a0 01       		.uleb128 0x1
 9735 01a1 13       		.uleb128 0x13
 9736 01a2 00       		.byte	0
 9737 01a3 00       		.byte	0
 9738 01a4 20       		.uleb128 0x20
 9739 01a5 05       		.uleb128 0x5
 9740 01a6 00       		.byte	0
 9741 01a7 31       		.uleb128 0x31
 9742 01a8 13       		.uleb128 0x13
 9743 01a9 00       		.byte	0
 9744 01aa 00       		.byte	0
 9745 01ab 21       		.uleb128 0x21
 9746 01ac 1D       		.uleb128 0x1d
 9747 01ad 01       		.byte	0x1
 9748 01ae 31       		.uleb128 0x31
 9749 01af 13       		.uleb128 0x13
 9750 01b0 11       		.uleb128 0x11
 9751 01b1 01       		.uleb128 0x1
 9752 01b2 12       		.uleb128 0x12
 9753 01b3 01       		.uleb128 0x1
 9754 01b4 58       		.uleb128 0x58
 9755 01b5 0B       		.uleb128 0xb
 9756 01b6 59       		.uleb128 0x59
 9757 01b7 0B       		.uleb128 0xb
 9758 01b8 00       		.byte	0
 9759 01b9 00       		.byte	0
 9760 01ba 22       		.uleb128 0x22
 9761 01bb 2E       		.uleb128 0x2e
 9762 01bc 01       		.byte	0x1
 9763 01bd 3F       		.uleb128 0x3f
 9764 01be 0C       		.uleb128 0xc
 9765 01bf 03       		.uleb128 0x3
 9766 01c0 0E       		.uleb128 0xe
 9767 01c1 3A       		.uleb128 0x3a
 9768 01c2 0B       		.uleb128 0xb
 9769 01c3 3B       		.uleb128 0x3b
 9770 01c4 0B       		.uleb128 0xb
 9771 01c5 27       		.uleb128 0x27
 9772 01c6 0C       		.uleb128 0xc
 9773 01c7 11       		.uleb128 0x11
 9774 01c8 01       		.uleb128 0x1
 9775 01c9 12       		.uleb128 0x12
 9776 01ca 01       		.uleb128 0x1
 9777 01cb 40       		.uleb128 0x40
 9778 01cc 06       		.uleb128 0x6
 9779 01cd 9742     		.uleb128 0x2117
 9780 01cf 0C       		.uleb128 0xc
 9781 01d0 01       		.uleb128 0x1
 9782 01d1 13       		.uleb128 0x13
 9783 01d2 00       		.byte	0
 9784 01d3 00       		.byte	0
 9785 01d4 23       		.uleb128 0x23
 9786 01d5 34       		.uleb128 0x34
ARM GAS  /tmp/ccVxBZiF.s 			page 173


 9787 01d6 00       		.byte	0
 9788 01d7 03       		.uleb128 0x3
 9789 01d8 0E       		.uleb128 0xe
 9790 01d9 3A       		.uleb128 0x3a
 9791 01da 0B       		.uleb128 0xb
 9792 01db 3B       		.uleb128 0x3b
 9793 01dc 0B       		.uleb128 0xb
 9794 01dd 49       		.uleb128 0x49
 9795 01de 13       		.uleb128 0x13
 9796 01df 00       		.byte	0
 9797 01e0 00       		.byte	0
 9798 01e1 24       		.uleb128 0x24
 9799 01e2 2E       		.uleb128 0x2e
 9800 01e3 01       		.byte	0x1
 9801 01e4 3F       		.uleb128 0x3f
 9802 01e5 0C       		.uleb128 0xc
 9803 01e6 03       		.uleb128 0x3
 9804 01e7 0E       		.uleb128 0xe
 9805 01e8 3A       		.uleb128 0x3a
 9806 01e9 0B       		.uleb128 0xb
 9807 01ea 3B       		.uleb128 0x3b
 9808 01eb 0B       		.uleb128 0xb
 9809 01ec 27       		.uleb128 0x27
 9810 01ed 0C       		.uleb128 0xc
 9811 01ee 49       		.uleb128 0x49
 9812 01ef 13       		.uleb128 0x13
 9813 01f0 11       		.uleb128 0x11
 9814 01f1 01       		.uleb128 0x1
 9815 01f2 12       		.uleb128 0x12
 9816 01f3 01       		.uleb128 0x1
 9817 01f4 40       		.uleb128 0x40
 9818 01f5 06       		.uleb128 0x6
 9819 01f6 9742     		.uleb128 0x2117
 9820 01f8 0C       		.uleb128 0xc
 9821 01f9 01       		.uleb128 0x1
 9822 01fa 13       		.uleb128 0x13
 9823 01fb 00       		.byte	0
 9824 01fc 00       		.byte	0
 9825 01fd 25       		.uleb128 0x25
 9826 01fe 0B       		.uleb128 0xb
 9827 01ff 01       		.byte	0x1
 9828 0200 55       		.uleb128 0x55
 9829 0201 06       		.uleb128 0x6
 9830 0202 00       		.byte	0
 9831 0203 00       		.byte	0
 9832 0204 26       		.uleb128 0x26
 9833 0205 34       		.uleb128 0x34
 9834 0206 00       		.byte	0
 9835 0207 31       		.uleb128 0x31
 9836 0208 13       		.uleb128 0x13
 9837 0209 02       		.uleb128 0x2
 9838 020a 0A       		.uleb128 0xa
 9839 020b 00       		.byte	0
 9840 020c 00       		.byte	0
 9841 020d 27       		.uleb128 0x27
 9842 020e 898201   		.uleb128 0x4109
 9843 0211 01       		.byte	0x1
ARM GAS  /tmp/ccVxBZiF.s 			page 174


 9844 0212 11       		.uleb128 0x11
 9845 0213 01       		.uleb128 0x1
 9846 0214 31       		.uleb128 0x31
 9847 0215 13       		.uleb128 0x13
 9848 0216 01       		.uleb128 0x1
 9849 0217 13       		.uleb128 0x13
 9850 0218 00       		.byte	0
 9851 0219 00       		.byte	0
 9852 021a 28       		.uleb128 0x28
 9853 021b 8A8201   		.uleb128 0x410a
 9854 021e 00       		.byte	0
 9855 021f 02       		.uleb128 0x2
 9856 0220 0A       		.uleb128 0xa
 9857 0221 9142     		.uleb128 0x2111
 9858 0223 0A       		.uleb128 0xa
 9859 0224 00       		.byte	0
 9860 0225 00       		.byte	0
 9861 0226 29       		.uleb128 0x29
 9862 0227 898201   		.uleb128 0x4109
 9863 022a 01       		.byte	0x1
 9864 022b 11       		.uleb128 0x11
 9865 022c 01       		.uleb128 0x1
 9866 022d 31       		.uleb128 0x31
 9867 022e 13       		.uleb128 0x13
 9868 022f 00       		.byte	0
 9869 0230 00       		.byte	0
 9870 0231 2A       		.uleb128 0x2a
 9871 0232 05       		.uleb128 0x5
 9872 0233 00       		.byte	0
 9873 0234 31       		.uleb128 0x31
 9874 0235 13       		.uleb128 0x13
 9875 0236 1C       		.uleb128 0x1c
 9876 0237 0B       		.uleb128 0xb
 9877 0238 00       		.byte	0
 9878 0239 00       		.byte	0
 9879 023a 2B       		.uleb128 0x2b
 9880 023b 05       		.uleb128 0x5
 9881 023c 00       		.byte	0
 9882 023d 31       		.uleb128 0x31
 9883 023e 13       		.uleb128 0x13
 9884 023f 1C       		.uleb128 0x1c
 9885 0240 0D       		.uleb128 0xd
 9886 0241 00       		.byte	0
 9887 0242 00       		.byte	0
 9888 0243 2C       		.uleb128 0x2c
 9889 0244 05       		.uleb128 0x5
 9890 0245 00       		.byte	0
 9891 0246 31       		.uleb128 0x31
 9892 0247 13       		.uleb128 0x13
 9893 0248 1C       		.uleb128 0x1c
 9894 0249 05       		.uleb128 0x5
 9895 024a 00       		.byte	0
 9896 024b 00       		.byte	0
 9897 024c 2D       		.uleb128 0x2d
 9898 024d 2E       		.uleb128 0x2e
 9899 024e 01       		.byte	0x1
 9900 024f 31       		.uleb128 0x31
ARM GAS  /tmp/ccVxBZiF.s 			page 175


 9901 0250 13       		.uleb128 0x13
 9902 0251 11       		.uleb128 0x11
 9903 0252 01       		.uleb128 0x1
 9904 0253 12       		.uleb128 0x12
 9905 0254 01       		.uleb128 0x1
 9906 0255 40       		.uleb128 0x40
 9907 0256 06       		.uleb128 0x6
 9908 0257 9742     		.uleb128 0x2117
 9909 0259 0C       		.uleb128 0xc
 9910 025a 01       		.uleb128 0x1
 9911 025b 13       		.uleb128 0x13
 9912 025c 00       		.byte	0
 9913 025d 00       		.byte	0
 9914 025e 2E       		.uleb128 0x2e
 9915 025f 05       		.uleb128 0x5
 9916 0260 00       		.byte	0
 9917 0261 31       		.uleb128 0x31
 9918 0262 13       		.uleb128 0x13
 9919 0263 02       		.uleb128 0x2
 9920 0264 0A       		.uleb128 0xa
 9921 0265 00       		.byte	0
 9922 0266 00       		.byte	0
 9923 0267 2F       		.uleb128 0x2f
 9924 0268 1D       		.uleb128 0x1d
 9925 0269 01       		.byte	0x1
 9926 026a 31       		.uleb128 0x31
 9927 026b 13       		.uleb128 0x13
 9928 026c 52       		.uleb128 0x52
 9929 026d 01       		.uleb128 0x1
 9930 026e 55       		.uleb128 0x55
 9931 026f 06       		.uleb128 0x6
 9932 0270 58       		.uleb128 0x58
 9933 0271 0B       		.uleb128 0xb
 9934 0272 59       		.uleb128 0x59
 9935 0273 0B       		.uleb128 0xb
 9936 0274 00       		.byte	0
 9937 0275 00       		.byte	0
 9938 0276 30       		.uleb128 0x30
 9939 0277 2E       		.uleb128 0x2e
 9940 0278 01       		.byte	0x1
 9941 0279 3F       		.uleb128 0x3f
 9942 027a 0C       		.uleb128 0xc
 9943 027b 03       		.uleb128 0x3
 9944 027c 0E       		.uleb128 0xe
 9945 027d 3A       		.uleb128 0x3a
 9946 027e 0B       		.uleb128 0xb
 9947 027f 3B       		.uleb128 0x3b
 9948 0280 05       		.uleb128 0x5
 9949 0281 27       		.uleb128 0x27
 9950 0282 0C       		.uleb128 0xc
 9951 0283 11       		.uleb128 0x11
 9952 0284 01       		.uleb128 0x1
 9953 0285 12       		.uleb128 0x12
 9954 0286 01       		.uleb128 0x1
 9955 0287 40       		.uleb128 0x40
 9956 0288 06       		.uleb128 0x6
 9957 0289 9742     		.uleb128 0x2117
ARM GAS  /tmp/ccVxBZiF.s 			page 176


 9958 028b 0C       		.uleb128 0xc
 9959 028c 01       		.uleb128 0x1
 9960 028d 13       		.uleb128 0x13
 9961 028e 00       		.byte	0
 9962 028f 00       		.byte	0
 9963 0290 31       		.uleb128 0x31
 9964 0291 05       		.uleb128 0x5
 9965 0292 00       		.byte	0
 9966 0293 03       		.uleb128 0x3
 9967 0294 08       		.uleb128 0x8
 9968 0295 3A       		.uleb128 0x3a
 9969 0296 0B       		.uleb128 0xb
 9970 0297 3B       		.uleb128 0x3b
 9971 0298 05       		.uleb128 0x5
 9972 0299 49       		.uleb128 0x49
 9973 029a 13       		.uleb128 0x13
 9974 029b 02       		.uleb128 0x2
 9975 029c 06       		.uleb128 0x6
 9976 029d 00       		.byte	0
 9977 029e 00       		.byte	0
 9978 029f 32       		.uleb128 0x32
 9979 02a0 05       		.uleb128 0x5
 9980 02a1 00       		.byte	0
 9981 02a2 03       		.uleb128 0x3
 9982 02a3 0E       		.uleb128 0xe
 9983 02a4 3A       		.uleb128 0x3a
 9984 02a5 0B       		.uleb128 0xb
 9985 02a6 3B       		.uleb128 0x3b
 9986 02a7 05       		.uleb128 0x5
 9987 02a8 49       		.uleb128 0x49
 9988 02a9 13       		.uleb128 0x13
 9989 02aa 02       		.uleb128 0x2
 9990 02ab 06       		.uleb128 0x6
 9991 02ac 00       		.byte	0
 9992 02ad 00       		.byte	0
 9993 02ae 33       		.uleb128 0x33
 9994 02af 05       		.uleb128 0x5
 9995 02b0 00       		.byte	0
 9996 02b1 03       		.uleb128 0x3
 9997 02b2 0E       		.uleb128 0xe
 9998 02b3 3A       		.uleb128 0x3a
 9999 02b4 0B       		.uleb128 0xb
 10000 02b5 3B       		.uleb128 0x3b
 10001 02b6 05       		.uleb128 0x5
 10002 02b7 49       		.uleb128 0x49
 10003 02b8 13       		.uleb128 0x13
 10004 02b9 02       		.uleb128 0x2
 10005 02ba 0A       		.uleb128 0xa
 10006 02bb 00       		.byte	0
 10007 02bc 00       		.byte	0
 10008 02bd 34       		.uleb128 0x34
 10009 02be 34       		.uleb128 0x34
 10010 02bf 00       		.byte	0
 10011 02c0 03       		.uleb128 0x3
 10012 02c1 08       		.uleb128 0x8
 10013 02c2 3A       		.uleb128 0x3a
 10014 02c3 0B       		.uleb128 0xb
ARM GAS  /tmp/ccVxBZiF.s 			page 177


 10015 02c4 3B       		.uleb128 0x3b
 10016 02c5 05       		.uleb128 0x5
 10017 02c6 49       		.uleb128 0x49
 10018 02c7 13       		.uleb128 0x13
 10019 02c8 02       		.uleb128 0x2
 10020 02c9 06       		.uleb128 0x6
 10021 02ca 00       		.byte	0
 10022 02cb 00       		.byte	0
 10023 02cc 35       		.uleb128 0x35
 10024 02cd 34       		.uleb128 0x34
 10025 02ce 00       		.byte	0
 10026 02cf 03       		.uleb128 0x3
 10027 02d0 0E       		.uleb128 0xe
 10028 02d1 3A       		.uleb128 0x3a
 10029 02d2 0B       		.uleb128 0xb
 10030 02d3 3B       		.uleb128 0x3b
 10031 02d4 05       		.uleb128 0x5
 10032 02d5 49       		.uleb128 0x49
 10033 02d6 13       		.uleb128 0x13
 10034 02d7 02       		.uleb128 0x2
 10035 02d8 06       		.uleb128 0x6
 10036 02d9 00       		.byte	0
 10037 02da 00       		.byte	0
 10038 02db 36       		.uleb128 0x36
 10039 02dc 05       		.uleb128 0x5
 10040 02dd 00       		.byte	0
 10041 02de 03       		.uleb128 0x3
 10042 02df 0E       		.uleb128 0xe
 10043 02e0 3A       		.uleb128 0x3a
 10044 02e1 0B       		.uleb128 0xb
 10045 02e2 3B       		.uleb128 0x3b
 10046 02e3 0B       		.uleb128 0xb
 10047 02e4 49       		.uleb128 0x49
 10048 02e5 13       		.uleb128 0x13
 10049 02e6 02       		.uleb128 0x2
 10050 02e7 06       		.uleb128 0x6
 10051 02e8 00       		.byte	0
 10052 02e9 00       		.byte	0
 10053 02ea 37       		.uleb128 0x37
 10054 02eb 34       		.uleb128 0x34
 10055 02ec 00       		.byte	0
 10056 02ed 03       		.uleb128 0x3
 10057 02ee 08       		.uleb128 0x8
 10058 02ef 3A       		.uleb128 0x3a
 10059 02f0 0B       		.uleb128 0xb
 10060 02f1 3B       		.uleb128 0x3b
 10061 02f2 0B       		.uleb128 0xb
 10062 02f3 49       		.uleb128 0x49
 10063 02f4 13       		.uleb128 0x13
 10064 02f5 02       		.uleb128 0x2
 10065 02f6 06       		.uleb128 0x6
 10066 02f7 00       		.byte	0
 10067 02f8 00       		.byte	0
 10068 02f9 38       		.uleb128 0x38
 10069 02fa 34       		.uleb128 0x34
 10070 02fb 00       		.byte	0
 10071 02fc 03       		.uleb128 0x3
ARM GAS  /tmp/ccVxBZiF.s 			page 178


 10072 02fd 08       		.uleb128 0x8
 10073 02fe 3A       		.uleb128 0x3a
 10074 02ff 0B       		.uleb128 0xb
 10075 0300 3B       		.uleb128 0x3b
 10076 0301 0B       		.uleb128 0xb
 10077 0302 49       		.uleb128 0x49
 10078 0303 13       		.uleb128 0x13
 10079 0304 02       		.uleb128 0x2
 10080 0305 0A       		.uleb128 0xa
 10081 0306 00       		.byte	0
 10082 0307 00       		.byte	0
 10083 0308 39       		.uleb128 0x39
 10084 0309 34       		.uleb128 0x34
 10085 030a 00       		.byte	0
 10086 030b 03       		.uleb128 0x3
 10087 030c 0E       		.uleb128 0xe
 10088 030d 3A       		.uleb128 0x3a
 10089 030e 0B       		.uleb128 0xb
 10090 030f 3B       		.uleb128 0x3b
 10091 0310 05       		.uleb128 0x5
 10092 0311 49       		.uleb128 0x49
 10093 0312 13       		.uleb128 0x13
 10094 0313 1C       		.uleb128 0x1c
 10095 0314 06       		.uleb128 0x6
 10096 0315 00       		.byte	0
 10097 0316 00       		.byte	0
 10098 0317 3A       		.uleb128 0x3a
 10099 0318 1D       		.uleb128 0x1d
 10100 0319 01       		.byte	0x1
 10101 031a 31       		.uleb128 0x31
 10102 031b 13       		.uleb128 0x13
 10103 031c 52       		.uleb128 0x52
 10104 031d 01       		.uleb128 0x1
 10105 031e 55       		.uleb128 0x55
 10106 031f 06       		.uleb128 0x6
 10107 0320 58       		.uleb128 0x58
 10108 0321 0B       		.uleb128 0xb
 10109 0322 59       		.uleb128 0x59
 10110 0323 05       		.uleb128 0x5
 10111 0324 01       		.uleb128 0x1
 10112 0325 13       		.uleb128 0x13
 10113 0326 00       		.byte	0
 10114 0327 00       		.byte	0
 10115 0328 3B       		.uleb128 0x3b
 10116 0329 1D       		.uleb128 0x1d
 10117 032a 01       		.byte	0x1
 10118 032b 31       		.uleb128 0x31
 10119 032c 13       		.uleb128 0x13
 10120 032d 11       		.uleb128 0x11
 10121 032e 01       		.uleb128 0x1
 10122 032f 12       		.uleb128 0x12
 10123 0330 01       		.uleb128 0x1
 10124 0331 58       		.uleb128 0x58
 10125 0332 0B       		.uleb128 0xb
 10126 0333 59       		.uleb128 0x59
 10127 0334 05       		.uleb128 0x5
 10128 0335 00       		.byte	0
ARM GAS  /tmp/ccVxBZiF.s 			page 179


 10129 0336 00       		.byte	0
 10130 0337 3C       		.uleb128 0x3c
 10131 0338 1D       		.uleb128 0x1d
 10132 0339 01       		.byte	0x1
 10133 033a 31       		.uleb128 0x31
 10134 033b 13       		.uleb128 0x13
 10135 033c 52       		.uleb128 0x52
 10136 033d 01       		.uleb128 0x1
 10137 033e 55       		.uleb128 0x55
 10138 033f 06       		.uleb128 0x6
 10139 0340 58       		.uleb128 0x58
 10140 0341 0B       		.uleb128 0xb
 10141 0342 59       		.uleb128 0x59
 10142 0343 05       		.uleb128 0x5
 10143 0344 00       		.byte	0
 10144 0345 00       		.byte	0
 10145 0346 3D       		.uleb128 0x3d
 10146 0347 05       		.uleb128 0x5
 10147 0348 00       		.byte	0
 10148 0349 03       		.uleb128 0x3
 10149 034a 0E       		.uleb128 0xe
 10150 034b 3A       		.uleb128 0x3a
 10151 034c 0B       		.uleb128 0xb
 10152 034d 3B       		.uleb128 0x3b
 10153 034e 0B       		.uleb128 0xb
 10154 034f 49       		.uleb128 0x49
 10155 0350 13       		.uleb128 0x13
 10156 0351 02       		.uleb128 0x2
 10157 0352 0A       		.uleb128 0xa
 10158 0353 00       		.byte	0
 10159 0354 00       		.byte	0
 10160 0355 3E       		.uleb128 0x3e
 10161 0356 34       		.uleb128 0x34
 10162 0357 00       		.byte	0
 10163 0358 03       		.uleb128 0x3
 10164 0359 0E       		.uleb128 0xe
 10165 035a 3A       		.uleb128 0x3a
 10166 035b 0B       		.uleb128 0xb
 10167 035c 3B       		.uleb128 0x3b
 10168 035d 0B       		.uleb128 0xb
 10169 035e 49       		.uleb128 0x49
 10170 035f 13       		.uleb128 0x13
 10171 0360 02       		.uleb128 0x2
 10172 0361 06       		.uleb128 0x6
 10173 0362 00       		.byte	0
 10174 0363 00       		.byte	0
 10175 0364 3F       		.uleb128 0x3f
 10176 0365 898201   		.uleb128 0x4109
 10177 0368 01       		.byte	0x1
 10178 0369 11       		.uleb128 0x11
 10179 036a 01       		.uleb128 0x1
 10180 036b 9542     		.uleb128 0x2115
 10181 036d 0C       		.uleb128 0xc
 10182 036e 31       		.uleb128 0x31
 10183 036f 13       		.uleb128 0x13
 10184 0370 01       		.uleb128 0x1
 10185 0371 13       		.uleb128 0x13
ARM GAS  /tmp/ccVxBZiF.s 			page 180


 10186 0372 00       		.byte	0
 10187 0373 00       		.byte	0
 10188 0374 40       		.uleb128 0x40
 10189 0375 898201   		.uleb128 0x4109
 10190 0378 01       		.byte	0x1
 10191 0379 11       		.uleb128 0x11
 10192 037a 01       		.uleb128 0x1
 10193 037b 9542     		.uleb128 0x2115
 10194 037d 0C       		.uleb128 0xc
 10195 037e 31       		.uleb128 0x31
 10196 037f 13       		.uleb128 0x13
 10197 0380 00       		.byte	0
 10198 0381 00       		.byte	0
 10199 0382 41       		.uleb128 0x41
 10200 0383 34       		.uleb128 0x34
 10201 0384 00       		.byte	0
 10202 0385 03       		.uleb128 0x3
 10203 0386 0E       		.uleb128 0xe
 10204 0387 3A       		.uleb128 0x3a
 10205 0388 0B       		.uleb128 0xb
 10206 0389 3B       		.uleb128 0x3b
 10207 038a 05       		.uleb128 0x5
 10208 038b 49       		.uleb128 0x49
 10209 038c 13       		.uleb128 0x13
 10210 038d 00       		.byte	0
 10211 038e 00       		.byte	0
 10212 038f 42       		.uleb128 0x42
 10213 0390 34       		.uleb128 0x34
 10214 0391 00       		.byte	0
 10215 0392 03       		.uleb128 0x3
 10216 0393 08       		.uleb128 0x8
 10217 0394 3A       		.uleb128 0x3a
 10218 0395 0B       		.uleb128 0xb
 10219 0396 3B       		.uleb128 0x3b
 10220 0397 05       		.uleb128 0x5
 10221 0398 49       		.uleb128 0x49
 10222 0399 13       		.uleb128 0x13
 10223 039a 02       		.uleb128 0x2
 10224 039b 0A       		.uleb128 0xa
 10225 039c 00       		.byte	0
 10226 039d 00       		.byte	0
 10227 039e 43       		.uleb128 0x43
 10228 039f 21       		.uleb128 0x21
 10229 03a0 00       		.byte	0
 10230 03a1 49       		.uleb128 0x49
 10231 03a2 13       		.uleb128 0x13
 10232 03a3 2F       		.uleb128 0x2f
 10233 03a4 05       		.uleb128 0x5
 10234 03a5 00       		.byte	0
 10235 03a6 00       		.byte	0
 10236 03a7 44       		.uleb128 0x44
 10237 03a8 34       		.uleb128 0x34
 10238 03a9 00       		.byte	0
 10239 03aa 03       		.uleb128 0x3
 10240 03ab 0E       		.uleb128 0xe
 10241 03ac 3A       		.uleb128 0x3a
 10242 03ad 0B       		.uleb128 0xb
ARM GAS  /tmp/ccVxBZiF.s 			page 181


 10243 03ae 3B       		.uleb128 0x3b
 10244 03af 05       		.uleb128 0x5
 10245 03b0 49       		.uleb128 0x49
 10246 03b1 13       		.uleb128 0x13
 10247 03b2 3F       		.uleb128 0x3f
 10248 03b3 0C       		.uleb128 0xc
 10249 03b4 3C       		.uleb128 0x3c
 10250 03b5 0C       		.uleb128 0xc
 10251 03b6 00       		.byte	0
 10252 03b7 00       		.byte	0
 10253 03b8 45       		.uleb128 0x45
 10254 03b9 34       		.uleb128 0x34
 10255 03ba 00       		.byte	0
 10256 03bb 03       		.uleb128 0x3
 10257 03bc 0E       		.uleb128 0xe
 10258 03bd 3A       		.uleb128 0x3a
 10259 03be 0B       		.uleb128 0xb
 10260 03bf 3B       		.uleb128 0x3b
 10261 03c0 0B       		.uleb128 0xb
 10262 03c1 49       		.uleb128 0x49
 10263 03c2 13       		.uleb128 0x13
 10264 03c3 3F       		.uleb128 0x3f
 10265 03c4 0C       		.uleb128 0xc
 10266 03c5 02       		.uleb128 0x2
 10267 03c6 0A       		.uleb128 0xa
 10268 03c7 00       		.byte	0
 10269 03c8 00       		.byte	0
 10270 03c9 46       		.uleb128 0x46
 10271 03ca 2E       		.uleb128 0x2e
 10272 03cb 01       		.byte	0x1
 10273 03cc 3F       		.uleb128 0x3f
 10274 03cd 0C       		.uleb128 0xc
 10275 03ce 03       		.uleb128 0x3
 10276 03cf 0E       		.uleb128 0xe
 10277 03d0 3A       		.uleb128 0x3a
 10278 03d1 0B       		.uleb128 0xb
 10279 03d2 3B       		.uleb128 0x3b
 10280 03d3 05       		.uleb128 0x5
 10281 03d4 27       		.uleb128 0x27
 10282 03d5 0C       		.uleb128 0xc
 10283 03d6 3C       		.uleb128 0x3c
 10284 03d7 0C       		.uleb128 0xc
 10285 03d8 01       		.uleb128 0x1
 10286 03d9 13       		.uleb128 0x13
 10287 03da 00       		.byte	0
 10288 03db 00       		.byte	0
 10289 03dc 47       		.uleb128 0x47
 10290 03dd 05       		.uleb128 0x5
 10291 03de 00       		.byte	0
 10292 03df 49       		.uleb128 0x49
 10293 03e0 13       		.uleb128 0x13
 10294 03e1 00       		.byte	0
 10295 03e2 00       		.byte	0
 10296 03e3 48       		.uleb128 0x48
 10297 03e4 2E       		.uleb128 0x2e
 10298 03e5 01       		.byte	0x1
 10299 03e6 3F       		.uleb128 0x3f
ARM GAS  /tmp/ccVxBZiF.s 			page 182


 10300 03e7 0C       		.uleb128 0xc
 10301 03e8 03       		.uleb128 0x3
 10302 03e9 0E       		.uleb128 0xe
 10303 03ea 3A       		.uleb128 0x3a
 10304 03eb 0B       		.uleb128 0xb
 10305 03ec 3B       		.uleb128 0x3b
 10306 03ed 0B       		.uleb128 0xb
 10307 03ee 27       		.uleb128 0x27
 10308 03ef 0C       		.uleb128 0xc
 10309 03f0 3C       		.uleb128 0x3c
 10310 03f1 0C       		.uleb128 0xc
 10311 03f2 01       		.uleb128 0x1
 10312 03f3 13       		.uleb128 0x13
 10313 03f4 00       		.byte	0
 10314 03f5 00       		.byte	0
 10315 03f6 49       		.uleb128 0x49
 10316 03f7 2E       		.uleb128 0x2e
 10317 03f8 01       		.byte	0x1
 10318 03f9 3F       		.uleb128 0x3f
 10319 03fa 0C       		.uleb128 0xc
 10320 03fb 03       		.uleb128 0x3
 10321 03fc 0E       		.uleb128 0xe
 10322 03fd 3A       		.uleb128 0x3a
 10323 03fe 0B       		.uleb128 0xb
 10324 03ff 3B       		.uleb128 0x3b
 10325 0400 0B       		.uleb128 0xb
 10326 0401 27       		.uleb128 0x27
 10327 0402 0C       		.uleb128 0xc
 10328 0403 3C       		.uleb128 0x3c
 10329 0404 0C       		.uleb128 0xc
 10330 0405 00       		.byte	0
 10331 0406 00       		.byte	0
 10332 0407 00       		.byte	0
 10333              		.section	.debug_loc,"",%progbits
 10334              	.Ldebug_loc0:
 10335              	.LLST0:
 10336 0000 00000000 		.4byte	.LFB133
 10337 0004 02000000 		.4byte	.LCFI0
 10338 0008 0200     		.2byte	0x2
 10339 000a 7D       		.byte	0x7d
 10340 000b 00       		.sleb128 0
 10341 000c 02000000 		.4byte	.LCFI0
 10342 0010 BC010000 		.4byte	.LFE133
 10343 0014 0200     		.2byte	0x2
 10344 0016 7D       		.byte	0x7d
 10345 0017 0C       		.sleb128 12
 10346 0018 00000000 		.4byte	0
 10347 001c 00000000 		.4byte	0
 10348              	.LLST1:
 10349 0020 00000000 		.4byte	.LVL0
 10350 0024 34000000 		.4byte	.LVL6
 10351 0028 0100     		.2byte	0x1
 10352 002a 50       		.byte	0x50
 10353 002b 34000000 		.4byte	.LVL6
 10354 002f 64000000 		.4byte	.LVL18
 10355 0033 0400     		.2byte	0x4
 10356 0035 F3       		.byte	0xf3
ARM GAS  /tmp/ccVxBZiF.s 			page 183


 10357 0036 01       		.uleb128 0x1
 10358 0037 50       		.byte	0x50
 10359 0038 9F       		.byte	0x9f
 10360 0039 64000000 		.4byte	.LVL18
 10361 003d 76000000 		.4byte	.LVL20
 10362 0041 0100     		.2byte	0x1
 10363 0043 50       		.byte	0x50
 10364 0044 76000000 		.4byte	.LVL20
 10365 0048 AA000000 		.4byte	.LVL30
 10366 004c 0100     		.2byte	0x1
 10367 004e 56       		.byte	0x56
 10368 004f AA000000 		.4byte	.LVL30
 10369 0053 C8000000 		.4byte	.LVL34
 10370 0057 0400     		.2byte	0x4
 10371 0059 F3       		.byte	0xf3
 10372 005a 01       		.uleb128 0x1
 10373 005b 50       		.byte	0x50
 10374 005c 9F       		.byte	0x9f
 10375 005d C8000000 		.4byte	.LVL34
 10376 0061 F0000000 		.4byte	.LVL38
 10377 0065 0100     		.2byte	0x1
 10378 0067 50       		.byte	0x50
 10379 0068 F0000000 		.4byte	.LVL38
 10380 006c 2C010000 		.4byte	.LVL50
 10381 0070 0400     		.2byte	0x4
 10382 0072 F3       		.byte	0xf3
 10383 0073 01       		.uleb128 0x1
 10384 0074 50       		.byte	0x50
 10385 0075 9F       		.byte	0x9f
 10386 0076 2C010000 		.4byte	.LVL50
 10387 007a 34010000 		.4byte	.LVL52
 10388 007e 0100     		.2byte	0x1
 10389 0080 50       		.byte	0x50
 10390 0081 34010000 		.4byte	.LVL52
 10391 0085 7A010000 		.4byte	.LVL67
 10392 0089 0400     		.2byte	0x4
 10393 008b F3       		.byte	0xf3
 10394 008c 01       		.uleb128 0x1
 10395 008d 50       		.byte	0x50
 10396 008e 9F       		.byte	0x9f
 10397 008f 7A010000 		.4byte	.LVL67
 10398 0093 8A010000 		.4byte	.LVL69
 10399 0097 0100     		.2byte	0x1
 10400 0099 50       		.byte	0x50
 10401 009a 8A010000 		.4byte	.LVL69
 10402 009e 90010000 		.4byte	.LVL71
 10403 00a2 0400     		.2byte	0x4
 10404 00a4 F3       		.byte	0xf3
 10405 00a5 01       		.uleb128 0x1
 10406 00a6 50       		.byte	0x50
 10407 00a7 9F       		.byte	0x9f
 10408 00a8 90010000 		.4byte	.LVL71
 10409 00ac 94010000 		.4byte	.LVL72
 10410 00b0 0100     		.2byte	0x1
 10411 00b2 50       		.byte	0x50
 10412 00b3 94010000 		.4byte	.LVL72
 10413 00b7 98010000 		.4byte	.LVL74
ARM GAS  /tmp/ccVxBZiF.s 			page 184


 10414 00bb 0400     		.2byte	0x4
 10415 00bd F3       		.byte	0xf3
 10416 00be 01       		.uleb128 0x1
 10417 00bf 50       		.byte	0x50
 10418 00c0 9F       		.byte	0x9f
 10419 00c1 98010000 		.4byte	.LVL74
 10420 00c5 A6010000 		.4byte	.LVL76
 10421 00c9 0100     		.2byte	0x1
 10422 00cb 50       		.byte	0x50
 10423 00cc A6010000 		.4byte	.LVL76
 10424 00d0 A8010000 		.4byte	.LVL77
 10425 00d4 0100     		.2byte	0x1
 10426 00d6 55       		.byte	0x55
 10427 00d7 A8010000 		.4byte	.LVL77
 10428 00db BC010000 		.4byte	.LFE133
 10429 00df 0100     		.2byte	0x1
 10430 00e1 50       		.byte	0x50
 10431 00e2 00000000 		.4byte	0
 10432 00e6 00000000 		.4byte	0
 10433              	.LLST2:
 10434 00ea 00000000 		.4byte	.LVL0
 10435 00ee 1C000000 		.4byte	.LVL2
 10436 00f2 0100     		.2byte	0x1
 10437 00f4 51       		.byte	0x51
 10438 00f5 1C000000 		.4byte	.LVL2
 10439 00f9 64000000 		.4byte	.LVL18
 10440 00fd 0400     		.2byte	0x4
 10441 00ff F3       		.byte	0xf3
 10442 0100 01       		.uleb128 0x1
 10443 0101 51       		.byte	0x51
 10444 0102 9F       		.byte	0x9f
 10445 0103 64000000 		.4byte	.LVL18
 10446 0107 8C000000 		.4byte	.LVL22
 10447 010b 0100     		.2byte	0x1
 10448 010d 51       		.byte	0x51
 10449 010e 8C000000 		.4byte	.LVL22
 10450 0112 C8000000 		.4byte	.LVL34
 10451 0116 0400     		.2byte	0x4
 10452 0118 F3       		.byte	0xf3
 10453 0119 01       		.uleb128 0x1
 10454 011a 51       		.byte	0x51
 10455 011b 9F       		.byte	0x9f
 10456 011c C8000000 		.4byte	.LVL34
 10457 0120 DA000000 		.4byte	.LVL36
 10458 0124 0100     		.2byte	0x1
 10459 0126 51       		.byte	0x51
 10460 0127 DA000000 		.4byte	.LVL36
 10461 012b 0E010000 		.4byte	.LVL46
 10462 012f 0100     		.2byte	0x1
 10463 0131 56       		.byte	0x56
 10464 0132 0E010000 		.4byte	.LVL46
 10465 0136 2C010000 		.4byte	.LVL50
 10466 013a 0400     		.2byte	0x4
 10467 013c F3       		.byte	0xf3
 10468 013d 01       		.uleb128 0x1
 10469 013e 51       		.byte	0x51
 10470 013f 9F       		.byte	0x9f
ARM GAS  /tmp/ccVxBZiF.s 			page 185


 10471 0140 2C010000 		.4byte	.LVL50
 10472 0144 4C010000 		.4byte	.LVL56
 10473 0148 0100     		.2byte	0x1
 10474 014a 51       		.byte	0x51
 10475 014b 4C010000 		.4byte	.LVL56
 10476 014f 7A010000 		.4byte	.LVL67
 10477 0153 0400     		.2byte	0x4
 10478 0155 F3       		.byte	0xf3
 10479 0156 01       		.uleb128 0x1
 10480 0157 51       		.byte	0x51
 10481 0158 9F       		.byte	0x9f
 10482 0159 7A010000 		.4byte	.LVL67
 10483 015d 8C010000 		.4byte	.LVL70
 10484 0161 0100     		.2byte	0x1
 10485 0163 51       		.byte	0x51
 10486 0164 8C010000 		.4byte	.LVL70
 10487 0168 90010000 		.4byte	.LVL71
 10488 016c 0400     		.2byte	0x4
 10489 016e F3       		.byte	0xf3
 10490 016f 01       		.uleb128 0x1
 10491 0170 51       		.byte	0x51
 10492 0171 9F       		.byte	0x9f
 10493 0172 90010000 		.4byte	.LVL71
 10494 0176 96010000 		.4byte	.LVL73
 10495 017a 0100     		.2byte	0x1
 10496 017c 51       		.byte	0x51
 10497 017d 96010000 		.4byte	.LVL73
 10498 0181 98010000 		.4byte	.LVL74
 10499 0185 0400     		.2byte	0x4
 10500 0187 F3       		.byte	0xf3
 10501 0188 01       		.uleb128 0x1
 10502 0189 51       		.byte	0x51
 10503 018a 9F       		.byte	0x9f
 10504 018b 98010000 		.4byte	.LVL74
 10505 018f B6010000 		.4byte	.LVL79
 10506 0193 0100     		.2byte	0x1
 10507 0195 51       		.byte	0x51
 10508 0196 B6010000 		.4byte	.LVL79
 10509 019a BC010000 		.4byte	.LFE133
 10510 019e 0100     		.2byte	0x1
 10511 01a0 55       		.byte	0x55
 10512 01a1 00000000 		.4byte	0
 10513 01a5 00000000 		.4byte	0
 10514              	.LLST3:
 10515 01a9 00000000 		.4byte	.LVL0
 10516 01ad 28000000 		.4byte	.LVL4
 10517 01b1 0100     		.2byte	0x1
 10518 01b3 52       		.byte	0x52
 10519 01b4 28000000 		.4byte	.LVL4
 10520 01b8 64000000 		.4byte	.LVL18
 10521 01bc 0400     		.2byte	0x4
 10522 01be F3       		.byte	0xf3
 10523 01bf 01       		.uleb128 0x1
 10524 01c0 52       		.byte	0x52
 10525 01c1 9F       		.byte	0x9f
 10526 01c2 64000000 		.4byte	.LVL18
 10527 01c6 6E000000 		.4byte	.LVL19
ARM GAS  /tmp/ccVxBZiF.s 			page 186


 10528 01ca 0100     		.2byte	0x1
 10529 01cc 52       		.byte	0x52
 10530 01cd 6E000000 		.4byte	.LVL19
 10531 01d1 C8000000 		.4byte	.LVL34
 10532 01d5 0400     		.2byte	0x4
 10533 01d7 F3       		.byte	0xf3
 10534 01d8 01       		.uleb128 0x1
 10535 01d9 52       		.byte	0x52
 10536 01da 9F       		.byte	0x9f
 10537 01db C8000000 		.4byte	.LVL34
 10538 01df E4000000 		.4byte	.LVL37
 10539 01e3 0100     		.2byte	0x1
 10540 01e5 52       		.byte	0x52
 10541 01e6 E4000000 		.4byte	.LVL37
 10542 01ea 2C010000 		.4byte	.LVL50
 10543 01ee 0400     		.2byte	0x4
 10544 01f0 F3       		.byte	0xf3
 10545 01f1 01       		.uleb128 0x1
 10546 01f2 52       		.byte	0x52
 10547 01f3 9F       		.byte	0x9f
 10548 01f4 2C010000 		.4byte	.LVL50
 10549 01f8 32010000 		.4byte	.LVL51
 10550 01fc 0100     		.2byte	0x1
 10551 01fe 52       		.byte	0x52
 10552 01ff 32010000 		.4byte	.LVL51
 10553 0203 7A010000 		.4byte	.LVL67
 10554 0207 0400     		.2byte	0x4
 10555 0209 F3       		.byte	0xf3
 10556 020a 01       		.uleb128 0x1
 10557 020b 52       		.byte	0x52
 10558 020c 9F       		.byte	0x9f
 10559 020d 7A010000 		.4byte	.LVL67
 10560 0211 A2010000 		.4byte	.LVL75
 10561 0215 0100     		.2byte	0x1
 10562 0217 52       		.byte	0x52
 10563 0218 A2010000 		.4byte	.LVL75
 10564 021c A8010000 		.4byte	.LVL77
 10565 0220 0400     		.2byte	0x4
 10566 0222 F3       		.byte	0xf3
 10567 0223 01       		.uleb128 0x1
 10568 0224 52       		.byte	0x52
 10569 0225 9F       		.byte	0x9f
 10570 0226 A8010000 		.4byte	.LVL77
 10571 022a B2010000 		.4byte	.LVL78
 10572 022e 0100     		.2byte	0x1
 10573 0230 52       		.byte	0x52
 10574 0231 B2010000 		.4byte	.LVL78
 10575 0235 BC010000 		.4byte	.LFE133
 10576 0239 0400     		.2byte	0x4
 10577 023b F3       		.byte	0xf3
 10578 023c 01       		.uleb128 0x1
 10579 023d 52       		.byte	0x52
 10580 023e 9F       		.byte	0x9f
 10581 023f 00000000 		.4byte	0
 10582 0243 00000000 		.4byte	0
 10583              	.LLST4:
 10584 0247 00000000 		.4byte	.LVL0
ARM GAS  /tmp/ccVxBZiF.s 			page 187


 10585 024b 1E000000 		.4byte	.LVL3
 10586 024f 0100     		.2byte	0x1
 10587 0251 53       		.byte	0x53
 10588 0252 1E000000 		.4byte	.LVL3
 10589 0256 64000000 		.4byte	.LVL18
 10590 025a 0400     		.2byte	0x4
 10591 025c F3       		.byte	0xf3
 10592 025d 01       		.uleb128 0x1
 10593 025e 53       		.byte	0x53
 10594 025f 9F       		.byte	0x9f
 10595 0260 64000000 		.4byte	.LVL18
 10596 0264 80000000 		.4byte	.LVL21
 10597 0268 0100     		.2byte	0x1
 10598 026a 53       		.byte	0x53
 10599 026b 80000000 		.4byte	.LVL21
 10600 026f C8000000 		.4byte	.LVL34
 10601 0273 0400     		.2byte	0x4
 10602 0275 F3       		.byte	0xf3
 10603 0276 01       		.uleb128 0x1
 10604 0277 53       		.byte	0x53
 10605 0278 9F       		.byte	0x9f
 10606 0279 C8000000 		.4byte	.LVL34
 10607 027d D2000000 		.4byte	.LVL35
 10608 0281 0100     		.2byte	0x1
 10609 0283 53       		.byte	0x53
 10610 0284 D2000000 		.4byte	.LVL35
 10611 0288 2C010000 		.4byte	.LVL50
 10612 028c 0400     		.2byte	0x4
 10613 028e F3       		.byte	0xf3
 10614 028f 01       		.uleb128 0x1
 10615 0290 53       		.byte	0x53
 10616 0291 9F       		.byte	0x9f
 10617 0292 2C010000 		.4byte	.LVL50
 10618 0296 3C010000 		.4byte	.LVL53
 10619 029a 0100     		.2byte	0x1
 10620 029c 53       		.byte	0x53
 10621 029d 3C010000 		.4byte	.LVL53
 10622 02a1 7A010000 		.4byte	.LVL67
 10623 02a5 0400     		.2byte	0x4
 10624 02a7 F3       		.byte	0xf3
 10625 02a8 01       		.uleb128 0x1
 10626 02a9 53       		.byte	0x53
 10627 02aa 9F       		.byte	0x9f
 10628 02ab 7A010000 		.4byte	.LVL67
 10629 02af 84010000 		.4byte	.LVL68
 10630 02b3 0100     		.2byte	0x1
 10631 02b5 53       		.byte	0x53
 10632 02b6 84010000 		.4byte	.LVL68
 10633 02ba BC010000 		.4byte	.LFE133
 10634 02be 0400     		.2byte	0x4
 10635 02c0 F3       		.byte	0xf3
 10636 02c1 01       		.uleb128 0x1
 10637 02c2 53       		.byte	0x53
 10638 02c3 9F       		.byte	0x9f
 10639 02c4 00000000 		.4byte	0
 10640 02c8 00000000 		.4byte	0
 10641              	.LLST5:
ARM GAS  /tmp/ccVxBZiF.s 			page 188


 10642 02cc 32000000 		.4byte	.LVL5
 10643 02d0 3A000000 		.4byte	.LVL8
 10644 02d4 0100     		.2byte	0x1
 10645 02d6 55       		.byte	0x55
 10646 02d7 00000000 		.4byte	0
 10647 02db 00000000 		.4byte	0
 10648              	.LLST6:
 10649 02df 14000000 		.4byte	.LVL1
 10650 02e3 48000000 		.4byte	.LVL12
 10651 02e7 0300     		.2byte	0x3
 10652 02e9 08       		.byte	0x8
 10653 02ea 44       		.byte	0x44
 10654 02eb 9F       		.byte	0x9f
 10655 02ec 00000000 		.4byte	0
 10656 02f0 00000000 		.4byte	0
 10657              	.LLST7:
 10658 02f4 36000000 		.4byte	.LVL7
 10659 02f8 48000000 		.4byte	.LVL12
 10660 02fc 0300     		.2byte	0x3
 10661 02fe 08       		.byte	0x8
 10662 02ff 45       		.byte	0x45
 10663 0300 9F       		.byte	0x9f
 10664 0301 00000000 		.4byte	0
 10665 0305 00000000 		.4byte	0
 10666              	.LLST8:
 10667 0309 44000000 		.4byte	.LVL10
 10668 030d 48000000 		.4byte	.LVL12
 10669 0311 0300     		.2byte	0x3
 10670 0313 08       		.byte	0x8
 10671 0314 46       		.byte	0x46
 10672 0315 9F       		.byte	0x9f
 10673 0316 00000000 		.4byte	0
 10674 031a 00000000 		.4byte	0
 10675              	.LLST9:
 10676 031e 3E000000 		.4byte	.LVL9
 10677 0322 48000000 		.4byte	.LVL12
 10678 0326 0100     		.2byte	0x1
 10679 0328 50       		.byte	0x50
 10680 0329 00000000 		.4byte	0
 10681 032d 00000000 		.4byte	0
 10682              	.LLST10:
 10683 0331 46000000 		.4byte	.LVL11
 10684 0335 48000000 		.4byte	.LVL12
 10685 0339 0100     		.2byte	0x1
 10686 033b 52       		.byte	0x52
 10687 033c 00000000 		.4byte	0
 10688 0340 00000000 		.4byte	0
 10689              	.LLST11:
 10690 0344 7A010000 		.4byte	.LVL67
 10691 0348 8C010000 		.4byte	.LVL70
 10692 034c 0100     		.2byte	0x1
 10693 034e 51       		.byte	0x51
 10694 034f 90010000 		.4byte	.LVL71
 10695 0353 96010000 		.4byte	.LVL73
 10696 0357 0100     		.2byte	0x1
 10697 0359 51       		.byte	0x51
 10698 035a 98010000 		.4byte	.LVL74
ARM GAS  /tmp/ccVxBZiF.s 			page 189


 10699 035e B6010000 		.4byte	.LVL79
 10700 0362 0100     		.2byte	0x1
 10701 0364 51       		.byte	0x51
 10702 0365 00000000 		.4byte	0
 10703 0369 00000000 		.4byte	0
 10704              	.LLST12:
 10705 036d 7A010000 		.4byte	.LVL67
 10706 0371 8A010000 		.4byte	.LVL69
 10707 0375 0100     		.2byte	0x1
 10708 0377 50       		.byte	0x50
 10709 0378 90010000 		.4byte	.LVL71
 10710 037c 94010000 		.4byte	.LVL72
 10711 0380 0100     		.2byte	0x1
 10712 0382 50       		.byte	0x50
 10713 0383 98010000 		.4byte	.LVL74
 10714 0387 A6010000 		.4byte	.LVL76
 10715 038b 0100     		.2byte	0x1
 10716 038d 50       		.byte	0x50
 10717 038e A8010000 		.4byte	.LVL77
 10718 0392 BC010000 		.4byte	.LFE133
 10719 0396 0100     		.2byte	0x1
 10720 0398 50       		.byte	0x50
 10721 0399 00000000 		.4byte	0
 10722 039d 00000000 		.4byte	0
 10723              	.LLST13:
 10724 03a1 54000000 		.4byte	.LVL13
 10725 03a5 5C000000 		.4byte	.LVL15
 10726 03a9 0100     		.2byte	0x1
 10727 03ab 51       		.byte	0x51
 10728 03ac 00000000 		.4byte	0
 10729 03b0 00000000 		.4byte	0
 10730              	.LLST14:
 10731 03b4 48000000 		.4byte	.LVL12
 10732 03b8 60000000 		.4byte	.LVL17
 10733 03bc 0300     		.2byte	0x3
 10734 03be 08       		.byte	0x8
 10735 03bf 4E       		.byte	0x4e
 10736 03c0 9F       		.byte	0x9f
 10737 03c1 00000000 		.4byte	0
 10738 03c5 00000000 		.4byte	0
 10739              	.LLST15:
 10740 03c9 5A000000 		.4byte	.LVL14
 10741 03cd 60000000 		.4byte	.LVL17
 10742 03d1 0300     		.2byte	0x3
 10743 03d3 08       		.byte	0x8
 10744 03d4 4F       		.byte	0x4f
 10745 03d5 9F       		.byte	0x9f
 10746 03d6 00000000 		.4byte	0
 10747 03da 00000000 		.4byte	0
 10748              	.LLST16:
 10749 03de 5E000000 		.4byte	.LVL16
 10750 03e2 60000000 		.4byte	.LVL17
 10751 03e6 0100     		.2byte	0x1
 10752 03e8 50       		.byte	0x50
 10753 03e9 00000000 		.4byte	0
 10754 03ed 00000000 		.4byte	0
 10755              	.LLST17:
ARM GAS  /tmp/ccVxBZiF.s 			page 190


 10756 03f1 AA000000 		.4byte	.LVL30
 10757 03f5 C8000000 		.4byte	.LVL34
 10758 03f9 0300     		.2byte	0x3
 10759 03fb 08       		.byte	0x8
 10760 03fc 4E       		.byte	0x4e
 10761 03fd 9F       		.byte	0x9f
 10762 03fe 00000000 		.4byte	0
 10763 0402 00000000 		.4byte	0
 10764              	.LLST18:
 10765 0406 BA000000 		.4byte	.LVL31
 10766 040a C8000000 		.4byte	.LVL34
 10767 040e 0100     		.2byte	0x1
 10768 0410 56       		.byte	0x56
 10769 0411 00000000 		.4byte	0
 10770 0415 00000000 		.4byte	0
 10771              	.LLST19:
 10772 0419 C2000000 		.4byte	.LVL32
 10773 041d C8000000 		.4byte	.LVL34
 10774 0421 0300     		.2byte	0x3
 10775 0423 08       		.byte	0x8
 10776 0424 4F       		.byte	0x4f
 10777 0425 9F       		.byte	0x9f
 10778 0426 00000000 		.4byte	0
 10779 042a 00000000 		.4byte	0
 10780              	.LLST20:
 10781 042e C4000000 		.4byte	.LVL33
 10782 0432 C8000000 		.4byte	.LVL34
 10783 0436 0100     		.2byte	0x1
 10784 0438 51       		.byte	0x51
 10785 0439 00000000 		.4byte	0
 10786 043d 00000000 		.4byte	0
 10787              	.LLST21:
 10788 0441 0E010000 		.4byte	.LVL46
 10789 0445 2C010000 		.4byte	.LVL50
 10790 0449 0300     		.2byte	0x3
 10791 044b 08       		.byte	0x8
 10792 044c 4E       		.byte	0x4e
 10793 044d 9F       		.byte	0x9f
 10794 044e 00000000 		.4byte	0
 10795 0452 00000000 		.4byte	0
 10796              	.LLST22:
 10797 0456 1E010000 		.4byte	.LVL47
 10798 045a 2C010000 		.4byte	.LVL50
 10799 045e 0100     		.2byte	0x1
 10800 0460 56       		.byte	0x56
 10801 0461 00000000 		.4byte	0
 10802 0465 00000000 		.4byte	0
 10803              	.LLST23:
 10804 0469 26010000 		.4byte	.LVL48
 10805 046d 2C010000 		.4byte	.LVL50
 10806 0471 0300     		.2byte	0x3
 10807 0473 08       		.byte	0x8
 10808 0474 4F       		.byte	0x4f
 10809 0475 9F       		.byte	0x9f
 10810 0476 00000000 		.4byte	0
 10811 047a 00000000 		.4byte	0
 10812              	.LLST24:
ARM GAS  /tmp/ccVxBZiF.s 			page 191


 10813 047e 28010000 		.4byte	.LVL49
 10814 0482 2C010000 		.4byte	.LVL50
 10815 0486 0100     		.2byte	0x1
 10816 0488 50       		.byte	0x50
 10817 0489 00000000 		.4byte	0
 10818 048d 00000000 		.4byte	0
 10819              	.LLST25:
 10820 0491 6C010000 		.4byte	.LVL63
 10821 0495 74010000 		.4byte	.LVL65
 10822 0499 0100     		.2byte	0x1
 10823 049b 50       		.byte	0x50
 10824 049c 00000000 		.4byte	0
 10825 04a0 00000000 		.4byte	0
 10826              	.LLST26:
 10827 04a4 60010000 		.4byte	.LVL62
 10828 04a8 7A010000 		.4byte	.LVL67
 10829 04ac 0300     		.2byte	0x3
 10830 04ae 08       		.byte	0x8
 10831 04af 4E       		.byte	0x4e
 10832 04b0 9F       		.byte	0x9f
 10833 04b1 00000000 		.4byte	0
 10834 04b5 00000000 		.4byte	0
 10835              	.LLST27:
 10836 04b9 72010000 		.4byte	.LVL64
 10837 04bd 7A010000 		.4byte	.LVL67
 10838 04c1 0300     		.2byte	0x3
 10839 04c3 08       		.byte	0x8
 10840 04c4 4F       		.byte	0x4f
 10841 04c5 9F       		.byte	0x9f
 10842 04c6 00000000 		.4byte	0
 10843 04ca 00000000 		.4byte	0
 10844              	.LLST28:
 10845 04ce 76010000 		.4byte	.LVL66
 10846 04d2 7A010000 		.4byte	.LVL67
 10847 04d6 0100     		.2byte	0x1
 10848 04d8 51       		.byte	0x51
 10849 04d9 00000000 		.4byte	0
 10850 04dd 00000000 		.4byte	0
 10851              	.LLST29:
 10852 04e1 8E000000 		.4byte	.LVL23
 10853 04e5 94000000 		.4byte	.LVL24
 10854 04e9 0100     		.2byte	0x1
 10855 04eb 52       		.byte	0x52
 10856 04ec 94000000 		.4byte	.LVL24
 10857 04f0 9E000000 		.4byte	.LVL26
 10858 04f4 0100     		.2byte	0x1
 10859 04f6 50       		.byte	0x50
 10860 04f7 00000000 		.4byte	0
 10861 04fb 00000000 		.4byte	0
 10862              	.LLST30:
 10863 04ff 64000000 		.4byte	.LVL18
 10864 0503 AA000000 		.4byte	.LVL30
 10865 0507 0300     		.2byte	0x3
 10866 0509 08       		.byte	0x8
 10867 050a 44       		.byte	0x44
 10868 050b 9F       		.byte	0x9f
 10869 050c 00000000 		.4byte	0
ARM GAS  /tmp/ccVxBZiF.s 			page 192


 10870 0510 00000000 		.4byte	0
 10871              	.LLST31:
 10872 0514 9A000000 		.4byte	.LVL25
 10873 0518 AA000000 		.4byte	.LVL30
 10874 051c 0300     		.2byte	0x3
 10875 051e 08       		.byte	0x8
 10876 051f 45       		.byte	0x45
 10877 0520 9F       		.byte	0x9f
 10878 0521 00000000 		.4byte	0
 10879 0525 00000000 		.4byte	0
 10880              	.LLST32:
 10881 0529 A0000000 		.4byte	.LVL27
 10882 052d A6000000 		.4byte	.LVL29
 10883 0531 0100     		.2byte	0x1
 10884 0533 53       		.byte	0x53
 10885 0534 00000000 		.4byte	0
 10886 0538 00000000 		.4byte	0
 10887              	.LLST33:
 10888 053c A4000000 		.4byte	.LVL28
 10889 0540 AA000000 		.4byte	.LVL30
 10890 0544 0300     		.2byte	0x3
 10891 0546 08       		.byte	0x8
 10892 0547 46       		.byte	0x46
 10893 0548 9F       		.byte	0x9f
 10894 0549 00000000 		.4byte	0
 10895 054d 00000000 		.4byte	0
 10896              	.LLST34:
 10897 0551 A4000000 		.4byte	.LVL28
 10898 0555 AA000000 		.4byte	.LVL30
 10899 0559 0100     		.2byte	0x1
 10900 055b 51       		.byte	0x51
 10901 055c 00000000 		.4byte	0
 10902 0560 00000000 		.4byte	0
 10903              	.LLST35:
 10904 0564 F2000000 		.4byte	.LVL39
 10905 0568 F8000000 		.4byte	.LVL40
 10906 056c 0100     		.2byte	0x1
 10907 056e 53       		.byte	0x53
 10908 056f F8000000 		.4byte	.LVL40
 10909 0573 02010000 		.4byte	.LVL42
 10910 0577 0100     		.2byte	0x1
 10911 0579 51       		.byte	0x51
 10912 057a 00000000 		.4byte	0
 10913 057e 00000000 		.4byte	0
 10914              	.LLST36:
 10915 0582 C8000000 		.4byte	.LVL34
 10916 0586 0E010000 		.4byte	.LVL46
 10917 058a 0300     		.2byte	0x3
 10918 058c 08       		.byte	0x8
 10919 058d 44       		.byte	0x44
 10920 058e 9F       		.byte	0x9f
 10921 058f 00000000 		.4byte	0
 10922 0593 00000000 		.4byte	0
 10923              	.LLST37:
 10924 0597 FE000000 		.4byte	.LVL41
 10925 059b 0E010000 		.4byte	.LVL46
 10926 059f 0300     		.2byte	0x3
ARM GAS  /tmp/ccVxBZiF.s 			page 193


 10927 05a1 08       		.byte	0x8
 10928 05a2 45       		.byte	0x45
 10929 05a3 9F       		.byte	0x9f
 10930 05a4 00000000 		.4byte	0
 10931 05a8 00000000 		.4byte	0
 10932              	.LLST38:
 10933 05ac 04010000 		.4byte	.LVL43
 10934 05b0 0A010000 		.4byte	.LVL45
 10935 05b4 0100     		.2byte	0x1
 10936 05b6 52       		.byte	0x52
 10937 05b7 00000000 		.4byte	0
 10938 05bb 00000000 		.4byte	0
 10939              	.LLST39:
 10940 05bf 08010000 		.4byte	.LVL44
 10941 05c3 0E010000 		.4byte	.LVL46
 10942 05c7 0300     		.2byte	0x3
 10943 05c9 08       		.byte	0x8
 10944 05ca 46       		.byte	0x46
 10945 05cb 9F       		.byte	0x9f
 10946 05cc 00000000 		.4byte	0
 10947 05d0 00000000 		.4byte	0
 10948              	.LLST40:
 10949 05d4 08010000 		.4byte	.LVL44
 10950 05d8 0E010000 		.4byte	.LVL46
 10951 05dc 0100     		.2byte	0x1
 10952 05de 50       		.byte	0x50
 10953 05df 00000000 		.4byte	0
 10954 05e3 00000000 		.4byte	0
 10955              	.LLST41:
 10956 05e7 46010000 		.4byte	.LVL54
 10957 05eb 48010000 		.4byte	.LVL55
 10958 05ef 0100     		.2byte	0x1
 10959 05f1 56       		.byte	0x56
 10960 05f2 48010000 		.4byte	.LVL55
 10961 05f6 52010000 		.4byte	.LVL58
 10962 05fa 0100     		.2byte	0x1
 10963 05fc 52       		.byte	0x52
 10964 05fd 00000000 		.4byte	0
 10965 0601 00000000 		.4byte	0
 10966              	.LLST42:
 10967 0605 2C010000 		.4byte	.LVL50
 10968 0609 60010000 		.4byte	.LVL62
 10969 060d 0300     		.2byte	0x3
 10970 060f 08       		.byte	0x8
 10971 0610 44       		.byte	0x44
 10972 0611 9F       		.byte	0x9f
 10973 0612 00000000 		.4byte	0
 10974 0616 00000000 		.4byte	0
 10975              	.LLST43:
 10976 061a 4E010000 		.4byte	.LVL57
 10977 061e 60010000 		.4byte	.LVL62
 10978 0622 0300     		.2byte	0x3
 10979 0624 08       		.byte	0x8
 10980 0625 45       		.byte	0x45
 10981 0626 9F       		.byte	0x9f
 10982 0627 00000000 		.4byte	0
 10983 062b 00000000 		.4byte	0
ARM GAS  /tmp/ccVxBZiF.s 			page 194


 10984              	.LLST44:
 10985 062f 5C010000 		.4byte	.LVL60
 10986 0633 60010000 		.4byte	.LVL62
 10987 0637 0300     		.2byte	0x3
 10988 0639 08       		.byte	0x8
 10989 063a 46       		.byte	0x46
 10990 063b 9F       		.byte	0x9f
 10991 063c 00000000 		.4byte	0
 10992 0640 00000000 		.4byte	0
 10993              	.LLST45:
 10994 0644 56010000 		.4byte	.LVL59
 10995 0648 60010000 		.4byte	.LVL62
 10996 064c 0100     		.2byte	0x1
 10997 064e 51       		.byte	0x51
 10998 064f 00000000 		.4byte	0
 10999 0653 00000000 		.4byte	0
 11000              	.LLST46:
 11001 0657 5E010000 		.4byte	.LVL61
 11002 065b 60010000 		.4byte	.LVL62
 11003 065f 0100     		.2byte	0x1
 11004 0661 53       		.byte	0x53
 11005 0662 00000000 		.4byte	0
 11006 0666 00000000 		.4byte	0
 11007              	.LLST47:
 11008 066a 00000000 		.4byte	.LFB119
 11009 066e 04000000 		.4byte	.LCFI1
 11010 0672 0200     		.2byte	0x2
 11011 0674 7D       		.byte	0x7d
 11012 0675 00       		.sleb128 0
 11013 0676 04000000 		.4byte	.LCFI1
 11014 067a 64000000 		.4byte	.LFE119
 11015 067e 0200     		.2byte	0x2
 11016 0680 7D       		.byte	0x7d
 11017 0681 14       		.sleb128 20
 11018 0682 00000000 		.4byte	0
 11019 0686 00000000 		.4byte	0
 11020              	.LLST48:
 11021 068a 00000000 		.4byte	.LVL80
 11022 068e 26000000 		.4byte	.LVL81
 11023 0692 0100     		.2byte	0x1
 11024 0694 50       		.byte	0x50
 11025 0695 26000000 		.4byte	.LVL81
 11026 0699 58000000 		.4byte	.LVL88
 11027 069d 0100     		.2byte	0x1
 11028 069f 50       		.byte	0x50
 11029 06a0 00000000 		.4byte	0
 11030 06a4 00000000 		.4byte	0
 11031              	.LLST49:
 11032 06a8 00000000 		.4byte	.LVL80
 11033 06ac 30000000 		.4byte	.LVL82
 11034 06b0 0100     		.2byte	0x1
 11035 06b2 51       		.byte	0x51
 11036 06b3 30000000 		.4byte	.LVL82
 11037 06b7 58000000 		.4byte	.LVL88
 11038 06bb 0100     		.2byte	0x1
 11039 06bd 51       		.byte	0x51
 11040 06be 00000000 		.4byte	0
ARM GAS  /tmp/ccVxBZiF.s 			page 195


 11041 06c2 00000000 		.4byte	0
 11042              	.LLST50:
 11043 06c6 00000000 		.4byte	.LVL80
 11044 06ca 40000000 		.4byte	.LVL83
 11045 06ce 0100     		.2byte	0x1
 11046 06d0 52       		.byte	0x52
 11047 06d1 40000000 		.4byte	.LVL83
 11048 06d5 4E000000 		.4byte	.LVL86
 11049 06d9 0100     		.2byte	0x1
 11050 06db 52       		.byte	0x52
 11051 06dc 00000000 		.4byte	0
 11052 06e0 00000000 		.4byte	0
 11053              	.LLST51:
 11054 06e4 00000000 		.4byte	.LVL80
 11055 06e8 4A000000 		.4byte	.LVL84
 11056 06ec 0100     		.2byte	0x1
 11057 06ee 53       		.byte	0x53
 11058 06ef 4A000000 		.4byte	.LVL84
 11059 06f3 4C000000 		.4byte	.LVL85
 11060 06f7 0400     		.2byte	0x4
 11061 06f9 F3       		.byte	0xf3
 11062 06fa 01       		.uleb128 0x1
 11063 06fb 53       		.byte	0x53
 11064 06fc 9F       		.byte	0x9f
 11065 06fd 4C000000 		.4byte	.LVL85
 11066 0701 50000000 		.4byte	.LVL87
 11067 0705 0100     		.2byte	0x1
 11068 0707 53       		.byte	0x53
 11069 0708 00000000 		.4byte	0
 11070 070c 00000000 		.4byte	0
 11071              	.LLST52:
 11072 0710 00000000 		.4byte	.LFB135
 11073 0714 04000000 		.4byte	.LCFI2
 11074 0718 0200     		.2byte	0x2
 11075 071a 7D       		.byte	0x7d
 11076 071b 00       		.sleb128 0
 11077 071c 04000000 		.4byte	.LCFI2
 11078 0720 1C000000 		.4byte	.LCFI3
 11079 0724 0200     		.2byte	0x2
 11080 0726 7D       		.byte	0x7d
 11081 0727 24       		.sleb128 36
 11082 0728 1C000000 		.4byte	.LCFI3
 11083 072c 0E030000 		.4byte	.LFE135
 11084 0730 0300     		.2byte	0x3
 11085 0732 7D       		.byte	0x7d
 11086 0733 C800     		.sleb128 72
 11087 0735 00000000 		.4byte	0
 11088 0739 00000000 		.4byte	0
 11089              	.LLST53:
 11090 073d 00000000 		.4byte	.LFB136
 11091 0741 04000000 		.4byte	.LCFI4
 11092 0745 0200     		.2byte	0x2
 11093 0747 7D       		.byte	0x7d
 11094 0748 00       		.sleb128 0
 11095 0749 04000000 		.4byte	.LCFI4
 11096 074d B4000000 		.4byte	.LFE136
 11097 0751 0200     		.2byte	0x2
ARM GAS  /tmp/ccVxBZiF.s 			page 196


 11098 0753 7D       		.byte	0x7d
 11099 0754 08       		.sleb128 8
 11100 0755 00000000 		.4byte	0
 11101 0759 00000000 		.4byte	0
 11102              	.LLST54:
 11103 075d 00000000 		.4byte	.LVL176
 11104 0761 24000000 		.4byte	.LVL178
 11105 0765 0100     		.2byte	0x1
 11106 0767 50       		.byte	0x50
 11107 0768 24000000 		.4byte	.LVL178
 11108 076c 28000000 		.4byte	.LVL179
 11109 0770 0400     		.2byte	0x4
 11110 0772 F3       		.byte	0xf3
 11111 0773 01       		.uleb128 0x1
 11112 0774 50       		.byte	0x50
 11113 0775 9F       		.byte	0x9f
 11114 0776 28000000 		.4byte	.LVL179
 11115 077a 4A000000 		.4byte	.LVL182
 11116 077e 0100     		.2byte	0x1
 11117 0780 50       		.byte	0x50
 11118 0781 4A000000 		.4byte	.LVL182
 11119 0785 6E000000 		.4byte	.LVL188
 11120 0789 0400     		.2byte	0x4
 11121 078b F3       		.byte	0xf3
 11122 078c 01       		.uleb128 0x1
 11123 078d 50       		.byte	0x50
 11124 078e 9F       		.byte	0x9f
 11125 078f 6E000000 		.4byte	.LVL188
 11126 0793 78000000 		.4byte	.LVL189
 11127 0797 0100     		.2byte	0x1
 11128 0799 50       		.byte	0x50
 11129 079a 78000000 		.4byte	.LVL189
 11130 079e 8C000000 		.4byte	.LVL193
 11131 07a2 0400     		.2byte	0x4
 11132 07a4 F3       		.byte	0xf3
 11133 07a5 01       		.uleb128 0x1
 11134 07a6 50       		.byte	0x50
 11135 07a7 9F       		.byte	0x9f
 11136 07a8 8C000000 		.4byte	.LVL193
 11137 07ac 90000000 		.4byte	.LVL194
 11138 07b0 0100     		.2byte	0x1
 11139 07b2 50       		.byte	0x50
 11140 07b3 90000000 		.4byte	.LVL194
 11141 07b7 A2000000 		.4byte	.LVL196
 11142 07bb 0400     		.2byte	0x4
 11143 07bd F3       		.byte	0xf3
 11144 07be 01       		.uleb128 0x1
 11145 07bf 50       		.byte	0x50
 11146 07c0 9F       		.byte	0x9f
 11147 07c1 A2000000 		.4byte	.LVL196
 11148 07c5 B4000000 		.4byte	.LFE136
 11149 07c9 0100     		.2byte	0x1
 11150 07cb 50       		.byte	0x50
 11151 07cc 00000000 		.4byte	0
 11152 07d0 00000000 		.4byte	0
 11153              	.LLST55:
 11154 07d4 00000000 		.4byte	.LVL176
ARM GAS  /tmp/ccVxBZiF.s 			page 197


 11155 07d8 24000000 		.4byte	.LVL178
 11156 07dc 0100     		.2byte	0x1
 11157 07de 51       		.byte	0x51
 11158 07df 24000000 		.4byte	.LVL178
 11159 07e3 28000000 		.4byte	.LVL179
 11160 07e7 0400     		.2byte	0x4
 11161 07e9 F3       		.byte	0xf3
 11162 07ea 01       		.uleb128 0x1
 11163 07eb 51       		.byte	0x51
 11164 07ec 9F       		.byte	0x9f
 11165 07ed 28000000 		.4byte	.LVL179
 11166 07f1 3A000000 		.4byte	.LVL181
 11167 07f5 0100     		.2byte	0x1
 11168 07f7 51       		.byte	0x51
 11169 07f8 3A000000 		.4byte	.LVL181
 11170 07fc 6E000000 		.4byte	.LVL188
 11171 0800 0400     		.2byte	0x4
 11172 0802 F3       		.byte	0xf3
 11173 0803 01       		.uleb128 0x1
 11174 0804 51       		.byte	0x51
 11175 0805 9F       		.byte	0x9f
 11176 0806 6E000000 		.4byte	.LVL188
 11177 080a 78000000 		.4byte	.LVL189
 11178 080e 0100     		.2byte	0x1
 11179 0810 51       		.byte	0x51
 11180 0811 78000000 		.4byte	.LVL189
 11181 0815 8C000000 		.4byte	.LVL193
 11182 0819 0400     		.2byte	0x4
 11183 081b F3       		.byte	0xf3
 11184 081c 01       		.uleb128 0x1
 11185 081d 51       		.byte	0x51
 11186 081e 9F       		.byte	0x9f
 11187 081f 8C000000 		.4byte	.LVL193
 11188 0823 A0000000 		.4byte	.LVL195
 11189 0827 0100     		.2byte	0x1
 11190 0829 51       		.byte	0x51
 11191 082a A0000000 		.4byte	.LVL195
 11192 082e A2000000 		.4byte	.LVL196
 11193 0832 0400     		.2byte	0x4
 11194 0834 F3       		.byte	0xf3
 11195 0835 01       		.uleb128 0x1
 11196 0836 51       		.byte	0x51
 11197 0837 9F       		.byte	0x9f
 11198 0838 A2000000 		.4byte	.LVL196
 11199 083c B4000000 		.4byte	.LFE136
 11200 0840 0100     		.2byte	0x1
 11201 0842 51       		.byte	0x51
 11202 0843 00000000 		.4byte	0
 11203 0847 00000000 		.4byte	0
 11204              	.LLST56:
 11205 084b 1C000000 		.4byte	.LVL177
 11206 084f 24000000 		.4byte	.LVL178
 11207 0853 0100     		.2byte	0x1
 11208 0855 52       		.byte	0x52
 11209 0856 28000000 		.4byte	.LVL179
 11210 085a B4000000 		.4byte	.LFE136
 11211 085e 0100     		.2byte	0x1
ARM GAS  /tmp/ccVxBZiF.s 			page 198


 11212 0860 52       		.byte	0x52
 11213 0861 00000000 		.4byte	0
 11214 0865 00000000 		.4byte	0
 11215              	.LLST57:
 11216 0869 1C000000 		.4byte	.LVL177
 11217 086d 24000000 		.4byte	.LVL178
 11218 0871 0100     		.2byte	0x1
 11219 0873 51       		.byte	0x51
 11220 0874 28000000 		.4byte	.LVL179
 11221 0878 3A000000 		.4byte	.LVL181
 11222 087c 0100     		.2byte	0x1
 11223 087e 51       		.byte	0x51
 11224 087f 6E000000 		.4byte	.LVL188
 11225 0883 78000000 		.4byte	.LVL189
 11226 0887 0100     		.2byte	0x1
 11227 0889 51       		.byte	0x51
 11228 088a 8C000000 		.4byte	.LVL193
 11229 088e A0000000 		.4byte	.LVL195
 11230 0892 0100     		.2byte	0x1
 11231 0894 51       		.byte	0x51
 11232 0895 A2000000 		.4byte	.LVL196
 11233 0899 B4000000 		.4byte	.LFE136
 11234 089d 0100     		.2byte	0x1
 11235 089f 51       		.byte	0x51
 11236 08a0 00000000 		.4byte	0
 11237 08a4 00000000 		.4byte	0
 11238              	.LLST58:
 11239 08a8 1C000000 		.4byte	.LVL177
 11240 08ac 24000000 		.4byte	.LVL178
 11241 08b0 0100     		.2byte	0x1
 11242 08b2 50       		.byte	0x50
 11243 08b3 28000000 		.4byte	.LVL179
 11244 08b7 4A000000 		.4byte	.LVL182
 11245 08bb 0100     		.2byte	0x1
 11246 08bd 50       		.byte	0x50
 11247 08be 6E000000 		.4byte	.LVL188
 11248 08c2 78000000 		.4byte	.LVL189
 11249 08c6 0100     		.2byte	0x1
 11250 08c8 50       		.byte	0x50
 11251 08c9 8C000000 		.4byte	.LVL193
 11252 08cd 90000000 		.4byte	.LVL194
 11253 08d1 0100     		.2byte	0x1
 11254 08d3 50       		.byte	0x50
 11255 08d4 A2000000 		.4byte	.LVL196
 11256 08d8 B4000000 		.4byte	.LFE136
 11257 08dc 0100     		.2byte	0x1
 11258 08de 50       		.byte	0x50
 11259 08df 00000000 		.4byte	0
 11260 08e3 00000000 		.4byte	0
 11261              	.LLST59:
 11262 08e7 28000000 		.4byte	.LVL179
 11263 08eb 3A000000 		.4byte	.LVL181
 11264 08ef 0100     		.2byte	0x1
 11265 08f1 51       		.byte	0x51
 11266 08f2 6E000000 		.4byte	.LVL188
 11267 08f6 78000000 		.4byte	.LVL189
 11268 08fa 0100     		.2byte	0x1
ARM GAS  /tmp/ccVxBZiF.s 			page 199


 11269 08fc 51       		.byte	0x51
 11270 08fd 8C000000 		.4byte	.LVL193
 11271 0901 A0000000 		.4byte	.LVL195
 11272 0905 0100     		.2byte	0x1
 11273 0907 51       		.byte	0x51
 11274 0908 A2000000 		.4byte	.LVL196
 11275 090c B4000000 		.4byte	.LFE136
 11276 0910 0100     		.2byte	0x1
 11277 0912 51       		.byte	0x51
 11278 0913 00000000 		.4byte	0
 11279 0917 00000000 		.4byte	0
 11280              	.LLST60:
 11281 091b 28000000 		.4byte	.LVL179
 11282 091f 4A000000 		.4byte	.LVL182
 11283 0923 0100     		.2byte	0x1
 11284 0925 50       		.byte	0x50
 11285 0926 6E000000 		.4byte	.LVL188
 11286 092a 78000000 		.4byte	.LVL189
 11287 092e 0100     		.2byte	0x1
 11288 0930 50       		.byte	0x50
 11289 0931 8C000000 		.4byte	.LVL193
 11290 0935 90000000 		.4byte	.LVL194
 11291 0939 0100     		.2byte	0x1
 11292 093b 50       		.byte	0x50
 11293 093c A2000000 		.4byte	.LVL196
 11294 0940 B4000000 		.4byte	.LFE136
 11295 0944 0100     		.2byte	0x1
 11296 0946 50       		.byte	0x50
 11297 0947 00000000 		.4byte	0
 11298 094b 00000000 		.4byte	0
 11299              	.LLST61:
 11300 094f 36000000 		.4byte	.LVL180
 11301 0953 4A000000 		.4byte	.LVL182
 11302 0957 0300     		.2byte	0x3
 11303 0959 08       		.byte	0x8
 11304 095a 4E       		.byte	0x4e
 11305 095b 9F       		.byte	0x9f
 11306 095c 00000000 		.4byte	0
 11307 0960 00000000 		.4byte	0
 11308              	.LLST62:
 11309 0964 4E000000 		.4byte	.LVL183
 11310 0968 58000000 		.4byte	.LVL185
 11311 096c 0100     		.2byte	0x1
 11312 096e 50       		.byte	0x50
 11313 096f 00000000 		.4byte	0
 11314 0973 00000000 		.4byte	0
 11315              	.LLST63:
 11316 0977 56000000 		.4byte	.LVL184
 11317 097b 5C000000 		.4byte	.LVL186
 11318 097f 0300     		.2byte	0x3
 11319 0981 08       		.byte	0x8
 11320 0982 4F       		.byte	0x4f
 11321 0983 9F       		.byte	0x9f
 11322 0984 00000000 		.4byte	0
 11323 0988 00000000 		.4byte	0
 11324              	.LLST64:
 11325 098c 56000000 		.4byte	.LVL184
ARM GAS  /tmp/ccVxBZiF.s 			page 200


 11326 0990 5C000000 		.4byte	.LVL186
 11327 0994 0100     		.2byte	0x1
 11328 0996 51       		.byte	0x51
 11329 0997 00000000 		.4byte	0
 11330 099b 00000000 		.4byte	0
 11331              	.LLST65:
 11332 099f 6E000000 		.4byte	.LVL188
 11333 09a3 78000000 		.4byte	.LVL189
 11334 09a7 0300     		.2byte	0x3
 11335 09a9 08       		.byte	0x8
 11336 09aa 4E       		.byte	0x4e
 11337 09ab 9F       		.byte	0x9f
 11338 09ac 00000000 		.4byte	0
 11339 09b0 00000000 		.4byte	0
 11340              	.LLST66:
 11341 09b4 8C000000 		.4byte	.LVL193
 11342 09b8 A0000000 		.4byte	.LVL195
 11343 09bc 0100     		.2byte	0x1
 11344 09be 51       		.byte	0x51
 11345 09bf 00000000 		.4byte	0
 11346 09c3 00000000 		.4byte	0
 11347              	.LLST67:
 11348 09c7 8C000000 		.4byte	.LVL193
 11349 09cb 90000000 		.4byte	.LVL194
 11350 09cf 0100     		.2byte	0x1
 11351 09d1 50       		.byte	0x50
 11352 09d2 00000000 		.4byte	0
 11353 09d6 00000000 		.4byte	0
 11354              	.LLST68:
 11355 09da 8C000000 		.4byte	.LVL193
 11356 09de A2000000 		.4byte	.LVL196
 11357 09e2 0300     		.2byte	0x3
 11358 09e4 08       		.byte	0x8
 11359 09e5 4E       		.byte	0x4e
 11360 09e6 9F       		.byte	0x9f
 11361 09e7 00000000 		.4byte	0
 11362 09eb 00000000 		.4byte	0
 11363              	.LLST69:
 11364 09ef 7C000000 		.4byte	.LVL190
 11365 09f3 86000000 		.4byte	.LVL192
 11366 09f7 0100     		.2byte	0x1
 11367 09f9 51       		.byte	0x51
 11368 09fa 00000000 		.4byte	0
 11369 09fe 00000000 		.4byte	0
 11370              	.LLST70:
 11371 0a02 84000000 		.4byte	.LVL191
 11372 0a06 8C000000 		.4byte	.LVL193
 11373 0a0a 0300     		.2byte	0x3
 11374 0a0c 08       		.byte	0x8
 11375 0a0d 4F       		.byte	0x4f
 11376 0a0e 9F       		.byte	0x9f
 11377 0a0f 00000000 		.4byte	0
 11378 0a13 00000000 		.4byte	0
 11379              	.LLST71:
 11380 0a17 84000000 		.4byte	.LVL191
 11381 0a1b 8C000000 		.4byte	.LVL193
 11382 0a1f 0100     		.2byte	0x1
ARM GAS  /tmp/ccVxBZiF.s 			page 201


 11383 0a21 50       		.byte	0x50
 11384 0a22 00000000 		.4byte	0
 11385 0a26 00000000 		.4byte	0
 11386              	.LLST72:
 11387 0a2a 6A000000 		.4byte	.LVL187
 11388 0a2e 6E000000 		.4byte	.LVL188
 11389 0a32 0100     		.2byte	0x1
 11390 0a34 52       		.byte	0x52
 11391 0a35 00000000 		.4byte	0
 11392 0a39 00000000 		.4byte	0
 11393              	.LLST73:
 11394 0a3d 5C000000 		.4byte	.LVL186
 11395 0a41 6E000000 		.4byte	.LVL188
 11396 0a45 0300     		.2byte	0x3
 11397 0a47 08       		.byte	0x8
 11398 0a48 22       		.byte	0x22
 11399 0a49 9F       		.byte	0x9f
 11400 0a4a 00000000 		.4byte	0
 11401 0a4e 00000000 		.4byte	0
 11402              	.LLST74:
 11403 0a52 00000000 		.4byte	.LFB122
 11404 0a56 04000000 		.4byte	.LCFI5
 11405 0a5a 0200     		.2byte	0x2
 11406 0a5c 7D       		.byte	0x7d
 11407 0a5d 00       		.sleb128 0
 11408 0a5e 04000000 		.4byte	.LCFI5
 11409 0a62 08000000 		.4byte	.LCFI6
 11410 0a66 0200     		.2byte	0x2
 11411 0a68 7D       		.byte	0x7d
 11412 0a69 24       		.sleb128 36
 11413 0a6a 08000000 		.4byte	.LCFI6
 11414 0a6e 60010000 		.4byte	.LFE122
 11415 0a72 0300     		.2byte	0x3
 11416 0a74 7D       		.byte	0x7d
 11417 0a75 D800     		.sleb128 88
 11418 0a77 00000000 		.4byte	0
 11419 0a7b 00000000 		.4byte	0
 11420              	.LLST75:
 11421 0a7f 00000000 		.4byte	.LVL197
 11422 0a83 64000000 		.4byte	.LVL208
 11423 0a87 0100     		.2byte	0x1
 11424 0a89 50       		.byte	0x50
 11425 0a8a 64000000 		.4byte	.LVL208
 11426 0a8e 5A010000 		.4byte	.LVL227
 11427 0a92 0200     		.2byte	0x2
 11428 0a94 91       		.byte	0x91
 11429 0a95 50       		.sleb128 -48
 11430 0a96 5A010000 		.4byte	.LVL227
 11431 0a9a 60010000 		.4byte	.LFE122
 11432 0a9e 0400     		.2byte	0x4
 11433 0aa0 F3       		.byte	0xf3
 11434 0aa1 01       		.uleb128 0x1
 11435 0aa2 50       		.byte	0x50
 11436 0aa3 9F       		.byte	0x9f
 11437 0aa4 00000000 		.4byte	0
 11438 0aa8 00000000 		.4byte	0
 11439              	.LLST76:
ARM GAS  /tmp/ccVxBZiF.s 			page 202


 11440 0aac 00000000 		.4byte	.LVL197
 11441 0ab0 16000000 		.4byte	.LVL198
 11442 0ab4 0100     		.2byte	0x1
 11443 0ab6 51       		.byte	0x51
 11444 0ab7 16000000 		.4byte	.LVL198
 11445 0abb 60010000 		.4byte	.LFE122
 11446 0abf 0400     		.2byte	0x4
 11447 0ac1 F3       		.byte	0xf3
 11448 0ac2 01       		.uleb128 0x1
 11449 0ac3 51       		.byte	0x51
 11450 0ac4 9F       		.byte	0x9f
 11451 0ac5 00000000 		.4byte	0
 11452 0ac9 00000000 		.4byte	0
 11453              	.LLST77:
 11454 0acd 00000000 		.4byte	.LVL197
 11455 0ad1 1E000000 		.4byte	.LVL199
 11456 0ad5 0100     		.2byte	0x1
 11457 0ad7 52       		.byte	0x52
 11458 0ad8 1E000000 		.4byte	.LVL199
 11459 0adc 60010000 		.4byte	.LFE122
 11460 0ae0 0400     		.2byte	0x4
 11461 0ae2 F3       		.byte	0xf3
 11462 0ae3 01       		.uleb128 0x1
 11463 0ae4 52       		.byte	0x52
 11464 0ae5 9F       		.byte	0x9f
 11465 0ae6 00000000 		.4byte	0
 11466 0aea 00000000 		.4byte	0
 11467              	.LLST78:
 11468 0aee 00000000 		.4byte	.LVL197
 11469 0af2 3C000000 		.4byte	.LVL203
 11470 0af6 0100     		.2byte	0x1
 11471 0af8 53       		.byte	0x53
 11472 0af9 3C000000 		.4byte	.LVL203
 11473 0afd 60010000 		.4byte	.LFE122
 11474 0b01 0400     		.2byte	0x4
 11475 0b03 F3       		.byte	0xf3
 11476 0b04 01       		.uleb128 0x1
 11477 0b05 53       		.byte	0x53
 11478 0b06 9F       		.byte	0x9f
 11479 0b07 00000000 		.4byte	0
 11480 0b0b 00000000 		.4byte	0
 11481              	.LLST79:
 11482 0b0f 52000000 		.4byte	.LVL206
 11483 0b13 62000000 		.4byte	.LVL207
 11484 0b17 0100     		.2byte	0x1
 11485 0b19 52       		.byte	0x52
 11486 0b1a 62000000 		.4byte	.LVL207
 11487 0b1e 80000000 		.4byte	.LVL211
 11488 0b22 0200     		.2byte	0x2
 11489 0b24 91       		.byte	0x91
 11490 0b25 48       		.sleb128 -56
 11491 0b26 80000000 		.4byte	.LVL211
 11492 0b2a 88000000 		.4byte	.LVL212
 11493 0b2e 0100     		.2byte	0x1
 11494 0b30 51       		.byte	0x51
 11495 0b31 88000000 		.4byte	.LVL212
 11496 0b35 5A010000 		.4byte	.LVL227
ARM GAS  /tmp/ccVxBZiF.s 			page 203


 11497 0b39 0200     		.2byte	0x2
 11498 0b3b 91       		.byte	0x91
 11499 0b3c 48       		.sleb128 -56
 11500 0b3d 00000000 		.4byte	0
 11501 0b41 00000000 		.4byte	0
 11502              	.LLST80:
 11503 0b45 80000000 		.4byte	.LVL211
 11504 0b49 5A010000 		.4byte	.LVL227
 11505 0b4d 0300     		.2byte	0x3
 11506 0b4f 91       		.byte	0x91
 11507 0b50 AC7F     		.sleb128 -84
 11508 0b52 00000000 		.4byte	0
 11509 0b56 00000000 		.4byte	0
 11510              	.LLST81:
 11511 0b5a 22000000 		.4byte	.LVL200
 11512 0b5e 40000000 		.4byte	.LVL204
 11513 0b62 0600     		.2byte	0x6
 11514 0b64 71       		.byte	0x71
 11515 0b65 00       		.sleb128 0
 11516 0b66 08       		.byte	0x8
 11517 0b67 FF       		.byte	0xff
 11518 0b68 1A       		.byte	0x1a
 11519 0b69 9F       		.byte	0x9f
 11520 0b6a 00000000 		.4byte	0
 11521 0b6e 00000000 		.4byte	0
 11522              	.LLST82:
 11523 0b72 50000000 		.4byte	.LVL205
 11524 0b76 66000000 		.4byte	.LVL209
 11525 0b7a 0100     		.2byte	0x1
 11526 0b7c 53       		.byte	0x53
 11527 0b7d 66000000 		.4byte	.LVL209
 11528 0b81 72000000 		.4byte	.LVL210
 11529 0b85 0600     		.2byte	0x6
 11530 0b87 77       		.byte	0x77
 11531 0b88 00       		.sleb128 0
 11532 0b89 74       		.byte	0x74
 11533 0b8a 00       		.sleb128 0
 11534 0b8b 1E       		.byte	0x1e
 11535 0b8c 9F       		.byte	0x9f
 11536 0b8d 00000000 		.4byte	0
 11537 0b91 00000000 		.4byte	0
 11538              	.LLST83:
 11539 0b95 30000000 		.4byte	.LVL201
 11540 0b99 5A010000 		.4byte	.LVL227
 11541 0b9d 0900     		.2byte	0x9
 11542 0b9f 91       		.byte	0x91
 11543 0ba0 B87F     		.sleb128 -72
 11544 0ba2 94       		.byte	0x94
 11545 0ba3 01       		.byte	0x1
 11546 0ba4 08       		.byte	0x8
 11547 0ba5 FF       		.byte	0xff
 11548 0ba6 1A       		.byte	0x1a
 11549 0ba7 9F       		.byte	0x9f
 11550 0ba8 00000000 		.4byte	0
 11551 0bac 00000000 		.4byte	0
 11552              	.LLST84:
 11553 0bb0 32000000 		.4byte	.LVL202
ARM GAS  /tmp/ccVxBZiF.s 			page 204


 11554 0bb4 5A010000 		.4byte	.LVL227
 11555 0bb8 0200     		.2byte	0x2
 11556 0bba 7D       		.byte	0x7d
 11557 0bbb 00       		.sleb128 0
 11558 0bbc 00000000 		.4byte	0
 11559 0bc0 00000000 		.4byte	0
 11560              	.LLST85:
 11561 0bc4 52000000 		.4byte	.LVL206
 11562 0bc8 72000000 		.4byte	.LVL210
 11563 0bcc 0200     		.2byte	0x2
 11564 0bce 30       		.byte	0x30
 11565 0bcf 9F       		.byte	0x9f
 11566 0bd0 58010000 		.4byte	.LVL226
 11567 0bd4 5A010000 		.4byte	.LVL227
 11568 0bd8 0200     		.2byte	0x2
 11569 0bda 91       		.byte	0x91
 11570 0bdb 44       		.sleb128 -60
 11571 0bdc 00000000 		.4byte	0
 11572 0be0 00000000 		.4byte	0
 11573              	.LLST86:
 11574 0be4 80000000 		.4byte	.LVL211
 11575 0be8 90000000 		.4byte	.LVL213
 11576 0bec 0200     		.2byte	0x2
 11577 0bee 30       		.byte	0x30
 11578 0bef 9F       		.byte	0x9f
 11579 0bf0 32010000 		.4byte	.LVL224
 11580 0bf4 3A010000 		.4byte	.LVL225
 11581 0bf8 0300     		.2byte	0x3
 11582 0bfa 91       		.byte	0x91
 11583 0bfb B07F     		.sleb128 -80
 11584 0bfd 00000000 		.4byte	0
 11585 0c01 00000000 		.4byte	0
 11586              	.LLST87:
 11587 0c05 96000000 		.4byte	.LVL214
 11588 0c09 A6000000 		.4byte	.LVL215
 11589 0c0d 0200     		.2byte	0x2
 11590 0c0f 30       		.byte	0x30
 11591 0c10 9F       		.byte	0x9f
 11592 0c11 00000000 		.4byte	0
 11593 0c15 00000000 		.4byte	0
 11594              	.LLST88:
 11595 0c19 A6000000 		.4byte	.LVL215
 11596 0c1d C0000000 		.4byte	.LVL216
 11597 0c21 0200     		.2byte	0x2
 11598 0c23 30       		.byte	0x30
 11599 0c24 9F       		.byte	0x9f
 11600 0c25 C0000000 		.4byte	.LVL216
 11601 0c29 DC000000 		.4byte	.LVL217
 11602 0c2d 0100     		.2byte	0x1
 11603 0c2f 5A       		.byte	0x5a
 11604 0c30 DC000000 		.4byte	.LVL217
 11605 0c34 E0000000 		.4byte	.LVL218
 11606 0c38 0200     		.2byte	0x2
 11607 0c3a 31       		.byte	0x31
 11608 0c3b 9F       		.byte	0x9f
 11609 0c3c E0000000 		.4byte	.LVL218
 11610 0c40 E4000000 		.4byte	.LVL219
ARM GAS  /tmp/ccVxBZiF.s 			page 205


 11611 0c44 0100     		.2byte	0x1
 11612 0c46 5A       		.byte	0x5a
 11613 0c47 10010000 		.4byte	.LVL222
 11614 0c4b 18010000 		.4byte	.LVL223
 11615 0c4f 0100     		.2byte	0x1
 11616 0c51 50       		.byte	0x50
 11617 0c52 00000000 		.4byte	0
 11618 0c56 00000000 		.4byte	0
 11619              	.LLST89:
 11620 0c5a 00000000 		.4byte	.LFB120
 11621 0c5e 04000000 		.4byte	.LCFI7
 11622 0c62 0200     		.2byte	0x2
 11623 0c64 7D       		.byte	0x7d
 11624 0c65 00       		.sleb128 0
 11625 0c66 04000000 		.4byte	.LCFI7
 11626 0c6a 0A000000 		.4byte	.LCFI8
 11627 0c6e 0200     		.2byte	0x2
 11628 0c70 7D       		.byte	0x7d
 11629 0c71 24       		.sleb128 36
 11630 0c72 0A000000 		.4byte	.LCFI8
 11631 0c76 0A010000 		.4byte	.LFE120
 11632 0c7a 0300     		.2byte	0x3
 11633 0c7c 7D       		.byte	0x7d
 11634 0c7d C000     		.sleb128 64
 11635 0c7f 00000000 		.4byte	0
 11636 0c83 00000000 		.4byte	0
 11637              	.LLST90:
 11638 0c87 00000000 		.4byte	.LVL228
 11639 0c8b 16000000 		.4byte	.LVL230
 11640 0c8f 0100     		.2byte	0x1
 11641 0c91 50       		.byte	0x50
 11642 0c92 16000000 		.4byte	.LVL230
 11643 0c96 0A010000 		.4byte	.LFE120
 11644 0c9a 0100     		.2byte	0x1
 11645 0c9c 58       		.byte	0x58
 11646 0c9d 00000000 		.4byte	0
 11647 0ca1 00000000 		.4byte	0
 11648              	.LLST91:
 11649 0ca5 00000000 		.4byte	.LVL228
 11650 0ca9 18000000 		.4byte	.LVL231
 11651 0cad 0100     		.2byte	0x1
 11652 0caf 51       		.byte	0x51
 11653 0cb0 18000000 		.4byte	.LVL231
 11654 0cb4 0A010000 		.4byte	.LFE120
 11655 0cb8 0100     		.2byte	0x1
 11656 0cba 57       		.byte	0x57
 11657 0cbb 00000000 		.4byte	0
 11658 0cbf 00000000 		.4byte	0
 11659              	.LLST92:
 11660 0cc3 00000000 		.4byte	.LVL228
 11661 0cc7 22000000 		.4byte	.LVL233
 11662 0ccb 0100     		.2byte	0x1
 11663 0ccd 52       		.byte	0x52
 11664 0cce 22000000 		.4byte	.LVL233
 11665 0cd2 0A010000 		.4byte	.LFE120
 11666 0cd6 0200     		.2byte	0x2
 11667 0cd8 91       		.byte	0x91
ARM GAS  /tmp/ccVxBZiF.s 			page 206


 11668 0cd9 54       		.sleb128 -44
 11669 0cda 00000000 		.4byte	0
 11670 0cde 00000000 		.4byte	0
 11671              	.LLST93:
 11672 0ce2 00000000 		.4byte	.LVL228
 11673 0ce6 12000000 		.4byte	.LVL229
 11674 0cea 0100     		.2byte	0x1
 11675 0cec 53       		.byte	0x53
 11676 0ced 12000000 		.4byte	.LVL229
 11677 0cf1 0A010000 		.4byte	.LFE120
 11678 0cf5 0400     		.2byte	0x4
 11679 0cf7 F3       		.byte	0xf3
 11680 0cf8 01       		.uleb128 0x1
 11681 0cf9 53       		.byte	0x53
 11682 0cfa 9F       		.byte	0x9f
 11683 0cfb 00000000 		.4byte	0
 11684 0cff 00000000 		.4byte	0
 11685              	.LLST94:
 11686 0d03 00000000 		.4byte	.LVL228
 11687 0d07 22000000 		.4byte	.LVL233
 11688 0d0b 0200     		.2byte	0x2
 11689 0d0d 30       		.byte	0x30
 11690 0d0e 9F       		.byte	0x9f
 11691 0d0f 44000000 		.4byte	.LVL234
 11692 0d13 4A000000 		.4byte	.LVL235
 11693 0d17 0100     		.2byte	0x1
 11694 0d19 50       		.byte	0x50
 11695 0d1a 02010000 		.4byte	.LVL245
 11696 0d1e 04010000 		.4byte	.LVL246
 11697 0d22 0100     		.2byte	0x1
 11698 0d24 55       		.byte	0x55
 11699 0d25 00000000 		.4byte	0
 11700 0d29 00000000 		.4byte	0
 11701              	.LLST95:
 11702 0d2d 00000000 		.4byte	.LVL228
 11703 0d31 22000000 		.4byte	.LVL233
 11704 0d35 0100     		.2byte	0x1
 11705 0d37 52       		.byte	0x52
 11706 0d38 22000000 		.4byte	.LVL233
 11707 0d3c 0A010000 		.4byte	.LFE120
 11708 0d40 0200     		.2byte	0x2
 11709 0d42 91       		.byte	0x91
 11710 0d43 4C       		.sleb128 -52
 11711 0d44 00000000 		.4byte	0
 11712 0d48 00000000 		.4byte	0
 11713              	.LLST96:
 11714 0d4c 00000000 		.4byte	.LFB137
 11715 0d50 02000000 		.4byte	.LCFI9
 11716 0d54 0200     		.2byte	0x2
 11717 0d56 7D       		.byte	0x7d
 11718 0d57 00       		.sleb128 0
 11719 0d58 02000000 		.4byte	.LCFI9
 11720 0d5c 7C000000 		.4byte	.LFE137
 11721 0d60 0200     		.2byte	0x2
 11722 0d62 7D       		.byte	0x7d
 11723 0d63 10       		.sleb128 16
 11724 0d64 00000000 		.4byte	0
ARM GAS  /tmp/ccVxBZiF.s 			page 207


 11725 0d68 00000000 		.4byte	0
 11726              	.LLST97:
 11727 0d6c 00000000 		.4byte	.LVL247
 11728 0d70 08000000 		.4byte	.LVL248
 11729 0d74 0100     		.2byte	0x1
 11730 0d76 50       		.byte	0x50
 11731 0d77 08000000 		.4byte	.LVL248
 11732 0d7b 7C000000 		.4byte	.LFE137
 11733 0d7f 0400     		.2byte	0x4
 11734 0d81 F3       		.byte	0xf3
 11735 0d82 01       		.uleb128 0x1
 11736 0d83 50       		.byte	0x50
 11737 0d84 9F       		.byte	0x9f
 11738 0d85 00000000 		.4byte	0
 11739 0d89 00000000 		.4byte	0
 11740              	.LLST98:
 11741 0d8d 46000000 		.4byte	.LVL255
 11742 0d91 4E000000 		.4byte	.LVL256
 11743 0d95 0200     		.2byte	0x2
 11744 0d97 30       		.byte	0x30
 11745 0d98 9F       		.byte	0x9f
 11746 0d99 00000000 		.4byte	0
 11747 0d9d 00000000 		.4byte	0
 11748              	.LLST99:
 11749 0da1 24000000 		.4byte	.LVL250
 11750 0da5 3C000000 		.4byte	.LVL254
 11751 0da9 0300     		.2byte	0x3
 11752 0dab 08       		.byte	0x8
 11753 0dac 4E       		.byte	0x4e
 11754 0dad 9F       		.byte	0x9f
 11755 0dae 00000000 		.4byte	0
 11756 0db2 00000000 		.4byte	0
 11757              	.LLST100:
 11758 0db6 32000000 		.4byte	.LVL251
 11759 0dba 3C000000 		.4byte	.LVL254
 11760 0dbe 0200     		.2byte	0x2
 11761 0dc0 30       		.byte	0x30
 11762 0dc1 9F       		.byte	0x9f
 11763 0dc2 00000000 		.4byte	0
 11764 0dc6 00000000 		.4byte	0
 11765              	.LLST101:
 11766 0dca 38000000 		.4byte	.LVL252
 11767 0dce 3C000000 		.4byte	.LVL254
 11768 0dd2 0300     		.2byte	0x3
 11769 0dd4 08       		.byte	0x8
 11770 0dd5 4F       		.byte	0x4f
 11771 0dd6 9F       		.byte	0x9f
 11772 0dd7 00000000 		.4byte	0
 11773 0ddb 00000000 		.4byte	0
 11774              	.LLST102:
 11775 0ddf 3A000000 		.4byte	.LVL253
 11776 0de3 3C000000 		.4byte	.LVL254
 11777 0de7 0200     		.2byte	0x2
 11778 0de9 30       		.byte	0x30
 11779 0dea 9F       		.byte	0x9f
 11780 0deb 00000000 		.4byte	0
 11781 0def 00000000 		.4byte	0
ARM GAS  /tmp/ccVxBZiF.s 			page 208


 11782              	.LLST103:
 11783 0df3 3C000000 		.4byte	.LVL254
 11784 0df7 58000000 		.4byte	.LVL257
 11785 0dfb 0300     		.2byte	0x3
 11786 0dfd 08       		.byte	0x8
 11787 0dfe 22       		.byte	0x22
 11788 0dff 9F       		.byte	0x9f
 11789 0e00 00000000 		.4byte	0
 11790 0e04 00000000 		.4byte	0
 11791              	.LLST104:
 11792 0e08 4E000000 		.4byte	.LVL256
 11793 0e0c 58000000 		.4byte	.LVL257
 11794 0e10 0100     		.2byte	0x1
 11795 0e12 54       		.byte	0x54
 11796 0e13 00000000 		.4byte	0
 11797 0e17 00000000 		.4byte	0
 11798              	.LLST105:
 11799 0e1b 00000000 		.4byte	.LFB138
 11800 0e1f 02000000 		.4byte	.LCFI10
 11801 0e23 0200     		.2byte	0x2
 11802 0e25 7D       		.byte	0x7d
 11803 0e26 00       		.sleb128 0
 11804 0e27 02000000 		.4byte	.LCFI10
 11805 0e2b B0000000 		.4byte	.LFE138
 11806 0e2f 0200     		.2byte	0x2
 11807 0e31 7D       		.byte	0x7d
 11808 0e32 18       		.sleb128 24
 11809 0e33 00000000 		.4byte	0
 11810 0e37 00000000 		.4byte	0
 11811              	.LLST106:
 11812 0e3b 00000000 		.4byte	.LVL261
 11813 0e3f 18000000 		.4byte	.LVL262
 11814 0e43 0100     		.2byte	0x1
 11815 0e45 50       		.byte	0x50
 11816 0e46 18000000 		.4byte	.LVL262
 11817 0e4a 1C000000 		.4byte	.LVL263
 11818 0e4e 0400     		.2byte	0x4
 11819 0e50 F3       		.byte	0xf3
 11820 0e51 01       		.uleb128 0x1
 11821 0e52 50       		.byte	0x50
 11822 0e53 9F       		.byte	0x9f
 11823 0e54 1C000000 		.4byte	.LVL263
 11824 0e58 1E000000 		.4byte	.LVL264
 11825 0e5c 0500     		.2byte	0x5
 11826 0e5e 03       		.byte	0x3
 11827 0e5f 08000000 		.4byte	GDISP+8
 11828 0e63 1E000000 		.4byte	.LVL264
 11829 0e67 6D000000 		.4byte	.LVL272-1
 11830 0e6b 0100     		.2byte	0x1
 11831 0e6d 50       		.byte	0x50
 11832 0e6e 00000000 		.4byte	0
 11833 0e72 00000000 		.4byte	0
 11834              	.LLST107:
 11835 0e76 00000000 		.4byte	.LVL261
 11836 0e7a 28000000 		.4byte	.LVL266
 11837 0e7e 0100     		.2byte	0x1
 11838 0e80 51       		.byte	0x51
ARM GAS  /tmp/ccVxBZiF.s 			page 209


 11839 0e81 28000000 		.4byte	.LVL266
 11840 0e85 2C000000 		.4byte	.LVL267
 11841 0e89 0400     		.2byte	0x4
 11842 0e8b F3       		.byte	0xf3
 11843 0e8c 01       		.uleb128 0x1
 11844 0e8d 51       		.byte	0x51
 11845 0e8e 9F       		.byte	0x9f
 11846 0e8f 2C000000 		.4byte	.LVL267
 11847 0e93 2E000000 		.4byte	.LVL268
 11848 0e97 0500     		.2byte	0x5
 11849 0e99 03       		.byte	0x3
 11850 0e9a 0A000000 		.4byte	GDISP+10
 11851 0e9e 2E000000 		.4byte	.LVL268
 11852 0ea2 6D000000 		.4byte	.LVL272-1
 11853 0ea6 0100     		.2byte	0x1
 11854 0ea8 51       		.byte	0x51
 11855 0ea9 00000000 		.4byte	0
 11856 0ead 00000000 		.4byte	0
 11857              	.LLST108:
 11858 0eb1 00000000 		.4byte	.LVL261
 11859 0eb5 1C000000 		.4byte	.LVL263
 11860 0eb9 0100     		.2byte	0x1
 11861 0ebb 52       		.byte	0x52
 11862 0ebc 1C000000 		.4byte	.LVL263
 11863 0ec0 78000000 		.4byte	.LVL273
 11864 0ec4 0100     		.2byte	0x1
 11865 0ec6 54       		.byte	0x54
 11866 0ec7 00000000 		.4byte	0
 11867 0ecb 00000000 		.4byte	0
 11868              	.LLST109:
 11869 0ecf 00000000 		.4byte	.LVL261
 11870 0ed3 22000000 		.4byte	.LVL265
 11871 0ed7 0100     		.2byte	0x1
 11872 0ed9 53       		.byte	0x53
 11873 0eda 22000000 		.4byte	.LVL265
 11874 0ede 2C000000 		.4byte	.LVL267
 11875 0ee2 0400     		.2byte	0x4
 11876 0ee4 F3       		.byte	0xf3
 11877 0ee5 01       		.uleb128 0x1
 11878 0ee6 53       		.byte	0x53
 11879 0ee7 9F       		.byte	0x9f
 11880 0ee8 2C000000 		.4byte	.LVL267
 11881 0eec 64000000 		.4byte	.LVL270
 11882 0ef0 0100     		.2byte	0x1
 11883 0ef2 55       		.byte	0x55
 11884 0ef3 66000000 		.4byte	.LVL271
 11885 0ef7 A4000000 		.4byte	.LVL277
 11886 0efb 0100     		.2byte	0x1
 11887 0efd 55       		.byte	0x55
 11888 0efe A6000000 		.4byte	.LVL278
 11889 0f02 B0000000 		.4byte	.LFE138
 11890 0f06 0100     		.2byte	0x1
 11891 0f08 55       		.byte	0x55
 11892 0f09 00000000 		.4byte	0
 11893 0f0d 00000000 		.4byte	0
 11894              	.LLST110:
 11895 0f11 78000000 		.4byte	.LVL273
ARM GAS  /tmp/ccVxBZiF.s 			page 210


 11896 0f15 A4000000 		.4byte	.LVL277
 11897 0f19 0100     		.2byte	0x1
 11898 0f1b 54       		.byte	0x54
 11899 0f1c A6000000 		.4byte	.LVL278
 11900 0f20 B0000000 		.4byte	.LFE138
 11901 0f24 0100     		.2byte	0x1
 11902 0f26 54       		.byte	0x54
 11903 0f27 00000000 		.4byte	0
 11904 0f2b 00000000 		.4byte	0
 11905              	.LLST111:
 11906 0f2f 7A000000 		.4byte	.LVL274
 11907 0f33 8E000000 		.4byte	.LVL275
 11908 0f37 0200     		.2byte	0x2
 11909 0f39 30       		.byte	0x30
 11910 0f3a 9F       		.byte	0x9f
 11911 0f3b 00000000 		.4byte	0
 11912 0f3f 00000000 		.4byte	0
 11913              	.LLST112:
 11914 0f43 78000000 		.4byte	.LVL273
 11915 0f47 A4000000 		.4byte	.LVL277
 11916 0f4b 0300     		.2byte	0x3
 11917 0f4d 08       		.byte	0x8
 11918 0f4e 22       		.byte	0x22
 11919 0f4f 9F       		.byte	0x9f
 11920 0f50 A6000000 		.4byte	.LVL278
 11921 0f54 B0000000 		.4byte	.LFE138
 11922 0f58 0300     		.2byte	0x3
 11923 0f5a 08       		.byte	0x8
 11924 0f5b 22       		.byte	0x22
 11925 0f5c 9F       		.byte	0x9f
 11926 0f5d 00000000 		.4byte	0
 11927 0f61 00000000 		.4byte	0
 11928              	.LLST113:
 11929 0f65 8E000000 		.4byte	.LVL275
 11930 0f69 A4000000 		.4byte	.LVL277
 11931 0f6d 0100     		.2byte	0x1
 11932 0f6f 57       		.byte	0x57
 11933 0f70 A6000000 		.4byte	.LVL278
 11934 0f74 B0000000 		.4byte	.LFE138
 11935 0f78 0100     		.2byte	0x1
 11936 0f7a 57       		.byte	0x57
 11937 0f7b 00000000 		.4byte	0
 11938 0f7f 00000000 		.4byte	0
 11939              	.LLST114:
 11940 0f83 00000000 		.4byte	.LFB118
 11941 0f87 04000000 		.4byte	.LCFI11
 11942 0f8b 0200     		.2byte	0x2
 11943 0f8d 7D       		.byte	0x7d
 11944 0f8e 00       		.sleb128 0
 11945 0f8f 04000000 		.4byte	.LCFI11
 11946 0f93 06000000 		.4byte	.LCFI12
 11947 0f97 0200     		.2byte	0x2
 11948 0f99 7D       		.byte	0x7d
 11949 0f9a 24       		.sleb128 36
 11950 0f9b 06000000 		.4byte	.LCFI12
 11951 0f9f D6020000 		.4byte	.LFE118
 11952 0fa3 0200     		.2byte	0x2
ARM GAS  /tmp/ccVxBZiF.s 			page 211


 11953 0fa5 7D       		.byte	0x7d
 11954 0fa6 38       		.sleb128 56
 11955 0fa7 00000000 		.4byte	0
 11956 0fab 00000000 		.4byte	0
 11957              	.LLST115:
 11958 0faf 00000000 		.4byte	.LVL279
 11959 0fb3 26000000 		.4byte	.LVL281
 11960 0fb7 0100     		.2byte	0x1
 11961 0fb9 50       		.byte	0x50
 11962 0fba 26000000 		.4byte	.LVL281
 11963 0fbe 5C000000 		.4byte	.LVL289
 11964 0fc2 0400     		.2byte	0x4
 11965 0fc4 F3       		.byte	0xf3
 11966 0fc5 01       		.uleb128 0x1
 11967 0fc6 50       		.byte	0x50
 11968 0fc7 9F       		.byte	0x9f
 11969 0fc8 5C000000 		.4byte	.LVL289
 11970 0fcc 7C000000 		.4byte	.LVL292
 11971 0fd0 0100     		.2byte	0x1
 11972 0fd2 59       		.byte	0x59
 11973 0fd3 26010000 		.4byte	.LVL304
 11974 0fd7 2E010000 		.4byte	.LVL306
 11975 0fdb 0100     		.2byte	0x1
 11976 0fdd 50       		.byte	0x50
 11977 0fde 2E010000 		.4byte	.LVL306
 11978 0fe2 62010000 		.4byte	.LVL314
 11979 0fe6 0400     		.2byte	0x4
 11980 0fe8 F3       		.byte	0xf3
 11981 0fe9 01       		.uleb128 0x1
 11982 0fea 50       		.byte	0x50
 11983 0feb 9F       		.byte	0x9f
 11984 0fec 62010000 		.4byte	.LVL314
 11985 0ff0 80010000 		.4byte	.LVL317
 11986 0ff4 0100     		.2byte	0x1
 11987 0ff6 59       		.byte	0x59
 11988 0ff7 8E010000 		.4byte	.LVL319
 11989 0ffb AE010000 		.4byte	.LVL323
 11990 0fff 0100     		.2byte	0x1
 11991 1001 59       		.byte	0x59
 11992 1002 C4010000 		.4byte	.LVL324
 11993 1006 DC010000 		.4byte	.LVL326
 11994 100a 0100     		.2byte	0x1
 11995 100c 59       		.byte	0x59
 11996 100d F0010000 		.4byte	.LVL327
 11997 1011 F2010000 		.4byte	.LVL328
 11998 1015 0100     		.2byte	0x1
 11999 1017 5E       		.byte	0x5e
 12000 1018 F2010000 		.4byte	.LVL328
 12001 101c 02020000 		.4byte	.LVL329
 12002 1020 0100     		.2byte	0x1
 12003 1022 59       		.byte	0x59
 12004 1023 28020000 		.4byte	.LVL332
 12005 1027 41020000 		.4byte	.LVL335-1
 12006 102b 0100     		.2byte	0x1
 12007 102d 50       		.byte	0x50
 12008 102e 41020000 		.4byte	.LVL335-1
 12009 1032 42020000 		.4byte	.LVL335
ARM GAS  /tmp/ccVxBZiF.s 			page 212


 12010 1036 0400     		.2byte	0x4
 12011 1038 F3       		.byte	0xf3
 12012 1039 01       		.uleb128 0x1
 12013 103a 50       		.byte	0x50
 12014 103b 9F       		.byte	0x9f
 12015 103c 42020000 		.4byte	.LVL335
 12016 1040 5B020000 		.4byte	.LVL338-1
 12017 1044 0100     		.2byte	0x1
 12018 1046 50       		.byte	0x50
 12019 1047 5B020000 		.4byte	.LVL338-1
 12020 104b 5C020000 		.4byte	.LVL338
 12021 104f 0400     		.2byte	0x4
 12022 1051 F3       		.byte	0xf3
 12023 1052 01       		.uleb128 0x1
 12024 1053 50       		.byte	0x50
 12025 1054 9F       		.byte	0x9f
 12026 1055 80020000 		.4byte	.LVL340
 12027 1059 95020000 		.4byte	.LVL344-1
 12028 105d 0100     		.2byte	0x1
 12029 105f 50       		.byte	0x50
 12030 1060 95020000 		.4byte	.LVL344-1
 12031 1064 96020000 		.4byte	.LVL344
 12032 1068 0400     		.2byte	0x4
 12033 106a F3       		.byte	0xf3
 12034 106b 01       		.uleb128 0x1
 12035 106c 50       		.byte	0x50
 12036 106d 9F       		.byte	0x9f
 12037 106e 96020000 		.4byte	.LVL344
 12038 1072 A0020000 		.4byte	.LVL345
 12039 1076 0100     		.2byte	0x1
 12040 1078 50       		.byte	0x50
 12041 1079 A0020000 		.4byte	.LVL345
 12042 107d B2020000 		.4byte	.LVL348
 12043 1081 0400     		.2byte	0x4
 12044 1083 F3       		.byte	0xf3
 12045 1084 01       		.uleb128 0x1
 12046 1085 50       		.byte	0x50
 12047 1086 9F       		.byte	0x9f
 12048 1087 B2020000 		.4byte	.LVL348
 12049 108b D4020000 		.4byte	.LVL351
 12050 108f 0100     		.2byte	0x1
 12051 1091 59       		.byte	0x59
 12052 1092 00000000 		.4byte	0
 12053 1096 00000000 		.4byte	0
 12054              	.LLST116:
 12055 109a 00000000 		.4byte	.LVL279
 12056 109e 2E000000 		.4byte	.LVL283
 12057 10a2 0100     		.2byte	0x1
 12058 10a4 51       		.byte	0x51
 12059 10a5 2E000000 		.4byte	.LVL283
 12060 10a9 5C000000 		.4byte	.LVL289
 12061 10ad 0400     		.2byte	0x4
 12062 10af F3       		.byte	0xf3
 12063 10b0 01       		.uleb128 0x1
 12064 10b1 51       		.byte	0x51
 12065 10b2 9F       		.byte	0x9f
 12066 10b3 5C000000 		.4byte	.LVL289
ARM GAS  /tmp/ccVxBZiF.s 			page 213


 12067 10b7 82000000 		.4byte	.LVL293
 12068 10bb 0100     		.2byte	0x1
 12069 10bd 54       		.byte	0x54
 12070 10be 8C000000 		.4byte	.LVL294
 12071 10c2 AC000000 		.4byte	.LVL297
 12072 10c6 0100     		.2byte	0x1
 12073 10c8 54       		.byte	0x54
 12074 10c9 C2000000 		.4byte	.LVL298
 12075 10cd DC000000 		.4byte	.LVL300
 12076 10d1 0100     		.2byte	0x1
 12077 10d3 54       		.byte	0x54
 12078 10d4 F2000000 		.4byte	.LVL301
 12079 10d8 04010000 		.4byte	.LVL302
 12080 10dc 0100     		.2byte	0x1
 12081 10de 54       		.byte	0x54
 12082 10df 26010000 		.4byte	.LVL304
 12083 10e3 28010000 		.4byte	.LVL305
 12084 10e7 0100     		.2byte	0x1
 12085 10e9 51       		.byte	0x51
 12086 10ea 28010000 		.4byte	.LVL305
 12087 10ee 62010000 		.4byte	.LVL314
 12088 10f2 0400     		.2byte	0x4
 12089 10f4 F3       		.byte	0xf3
 12090 10f5 01       		.uleb128 0x1
 12091 10f6 51       		.byte	0x51
 12092 10f7 9F       		.byte	0x9f
 12093 10f8 62010000 		.4byte	.LVL314
 12094 10fc 86010000 		.4byte	.LVL318
 12095 1100 0100     		.2byte	0x1
 12096 1102 54       		.byte	0x54
 12097 1103 28020000 		.4byte	.LVL332
 12098 1107 41020000 		.4byte	.LVL335-1
 12099 110b 0100     		.2byte	0x1
 12100 110d 51       		.byte	0x51
 12101 110e 41020000 		.4byte	.LVL335-1
 12102 1112 42020000 		.4byte	.LVL335
 12103 1116 0400     		.2byte	0x4
 12104 1118 F3       		.byte	0xf3
 12105 1119 01       		.uleb128 0x1
 12106 111a 51       		.byte	0x51
 12107 111b 9F       		.byte	0x9f
 12108 111c 42020000 		.4byte	.LVL335
 12109 1120 5B020000 		.4byte	.LVL338-1
 12110 1124 0100     		.2byte	0x1
 12111 1126 51       		.byte	0x51
 12112 1127 5B020000 		.4byte	.LVL338-1
 12113 112b 5C020000 		.4byte	.LVL338
 12114 112f 0400     		.2byte	0x4
 12115 1131 F3       		.byte	0xf3
 12116 1132 01       		.uleb128 0x1
 12117 1133 51       		.byte	0x51
 12118 1134 9F       		.byte	0x9f
 12119 1135 80020000 		.4byte	.LVL340
 12120 1139 82020000 		.4byte	.LVL341
 12121 113d 0100     		.2byte	0x1
 12122 113f 51       		.byte	0x51
 12123 1140 82020000 		.4byte	.LVL341
ARM GAS  /tmp/ccVxBZiF.s 			page 214


 12124 1144 96020000 		.4byte	.LVL344
 12125 1148 0400     		.2byte	0x4
 12126 114a F3       		.byte	0xf3
 12127 114b 01       		.uleb128 0x1
 12128 114c 51       		.byte	0x51
 12129 114d 9F       		.byte	0x9f
 12130 114e 96020000 		.4byte	.LVL344
 12131 1152 B1020000 		.4byte	.LVL348-1
 12132 1156 0100     		.2byte	0x1
 12133 1158 51       		.byte	0x51
 12134 1159 B1020000 		.4byte	.LVL348-1
 12135 115d B2020000 		.4byte	.LVL348
 12136 1161 0400     		.2byte	0x4
 12137 1163 F3       		.byte	0xf3
 12138 1164 01       		.uleb128 0x1
 12139 1165 51       		.byte	0x51
 12140 1166 9F       		.byte	0x9f
 12141 1167 B2020000 		.4byte	.LVL348
 12142 116b C0020000 		.4byte	.LVL349
 12143 116f 0100     		.2byte	0x1
 12144 1171 54       		.byte	0x54
 12145 1172 C2020000 		.4byte	.LVL350
 12146 1176 D6020000 		.4byte	.LFE118
 12147 117a 0100     		.2byte	0x1
 12148 117c 54       		.byte	0x54
 12149 117d 00000000 		.4byte	0
 12150 1181 00000000 		.4byte	0
 12151              	.LLST117:
 12152 1185 00000000 		.4byte	.LVL279
 12153 1189 22000000 		.4byte	.LVL280
 12154 118d 0100     		.2byte	0x1
 12155 118f 52       		.byte	0x52
 12156 1190 22000000 		.4byte	.LVL280
 12157 1194 26010000 		.4byte	.LVL304
 12158 1198 0400     		.2byte	0x4
 12159 119a F3       		.byte	0xf3
 12160 119b 01       		.uleb128 0x1
 12161 119c 52       		.byte	0x52
 12162 119d 9F       		.byte	0x9f
 12163 119e 26010000 		.4byte	.LVL304
 12164 11a2 32010000 		.4byte	.LVL307
 12165 11a6 0100     		.2byte	0x1
 12166 11a8 52       		.byte	0x52
 12167 11a9 32010000 		.4byte	.LVL307
 12168 11ad 28020000 		.4byte	.LVL332
 12169 11b1 0400     		.2byte	0x4
 12170 11b3 F3       		.byte	0xf3
 12171 11b4 01       		.uleb128 0x1
 12172 11b5 52       		.byte	0x52
 12173 11b6 9F       		.byte	0x9f
 12174 11b7 28020000 		.4byte	.LVL332
 12175 11bb 34020000 		.4byte	.LVL334
 12176 11bf 0100     		.2byte	0x1
 12177 11c1 52       		.byte	0x52
 12178 11c2 34020000 		.4byte	.LVL334
 12179 11c6 42020000 		.4byte	.LVL335
 12180 11ca 0400     		.2byte	0x4
ARM GAS  /tmp/ccVxBZiF.s 			page 215


 12181 11cc F3       		.byte	0xf3
 12182 11cd 01       		.uleb128 0x1
 12183 11ce 52       		.byte	0x52
 12184 11cf 9F       		.byte	0x9f
 12185 11d0 42020000 		.4byte	.LVL335
 12186 11d4 4C020000 		.4byte	.LVL336
 12187 11d8 0100     		.2byte	0x1
 12188 11da 52       		.byte	0x52
 12189 11db 4C020000 		.4byte	.LVL336
 12190 11df 80020000 		.4byte	.LVL340
 12191 11e3 0400     		.2byte	0x4
 12192 11e5 F3       		.byte	0xf3
 12193 11e6 01       		.uleb128 0x1
 12194 11e7 52       		.byte	0x52
 12195 11e8 9F       		.byte	0x9f
 12196 11e9 80020000 		.4byte	.LVL340
 12197 11ed 86020000 		.4byte	.LVL342
 12198 11f1 0100     		.2byte	0x1
 12199 11f3 52       		.byte	0x52
 12200 11f4 86020000 		.4byte	.LVL342
 12201 11f8 96020000 		.4byte	.LVL344
 12202 11fc 0400     		.2byte	0x4
 12203 11fe F3       		.byte	0xf3
 12204 11ff 01       		.uleb128 0x1
 12205 1200 52       		.byte	0x52
 12206 1201 9F       		.byte	0x9f
 12207 1202 96020000 		.4byte	.LVL344
 12208 1206 A6020000 		.4byte	.LVL347
 12209 120a 0100     		.2byte	0x1
 12210 120c 52       		.byte	0x52
 12211 120d A6020000 		.4byte	.LVL347
 12212 1211 D6020000 		.4byte	.LFE118
 12213 1215 0400     		.2byte	0x4
 12214 1217 F3       		.byte	0xf3
 12215 1218 01       		.uleb128 0x1
 12216 1219 52       		.byte	0x52
 12217 121a 9F       		.byte	0x9f
 12218 121b 00000000 		.4byte	0
 12219 121f 00000000 		.4byte	0
 12220              	.LLST118:
 12221 1223 00000000 		.4byte	.LVL279
 12222 1227 42000000 		.4byte	.LVL286
 12223 122b 0100     		.2byte	0x1
 12224 122d 53       		.byte	0x53
 12225 122e 42000000 		.4byte	.LVL286
 12226 1232 26010000 		.4byte	.LVL304
 12227 1236 0400     		.2byte	0x4
 12228 1238 F3       		.byte	0xf3
 12229 1239 01       		.uleb128 0x1
 12230 123a 53       		.byte	0x53
 12231 123b 9F       		.byte	0x9f
 12232 123c 26010000 		.4byte	.LVL304
 12233 1240 34010000 		.4byte	.LVL308
 12234 1244 0100     		.2byte	0x1
 12235 1246 53       		.byte	0x53
 12236 1247 34010000 		.4byte	.LVL308
 12237 124b 28020000 		.4byte	.LVL332
ARM GAS  /tmp/ccVxBZiF.s 			page 216


 12238 124f 0400     		.2byte	0x4
 12239 1251 F3       		.byte	0xf3
 12240 1252 01       		.uleb128 0x1
 12241 1253 53       		.byte	0x53
 12242 1254 9F       		.byte	0x9f
 12243 1255 28020000 		.4byte	.LVL332
 12244 1259 32020000 		.4byte	.LVL333
 12245 125d 0100     		.2byte	0x1
 12246 125f 53       		.byte	0x53
 12247 1260 32020000 		.4byte	.LVL333
 12248 1264 42020000 		.4byte	.LVL335
 12249 1268 0400     		.2byte	0x4
 12250 126a F3       		.byte	0xf3
 12251 126b 01       		.uleb128 0x1
 12252 126c 53       		.byte	0x53
 12253 126d 9F       		.byte	0x9f
 12254 126e 42020000 		.4byte	.LVL335
 12255 1272 50020000 		.4byte	.LVL337
 12256 1276 0100     		.2byte	0x1
 12257 1278 53       		.byte	0x53
 12258 1279 50020000 		.4byte	.LVL337
 12259 127d 80020000 		.4byte	.LVL340
 12260 1281 0400     		.2byte	0x4
 12261 1283 F3       		.byte	0xf3
 12262 1284 01       		.uleb128 0x1
 12263 1285 53       		.byte	0x53
 12264 1286 9F       		.byte	0x9f
 12265 1287 80020000 		.4byte	.LVL340
 12266 128b 8A020000 		.4byte	.LVL343
 12267 128f 0100     		.2byte	0x1
 12268 1291 53       		.byte	0x53
 12269 1292 8A020000 		.4byte	.LVL343
 12270 1296 96020000 		.4byte	.LVL344
 12271 129a 0400     		.2byte	0x4
 12272 129c F3       		.byte	0xf3
 12273 129d 01       		.uleb128 0x1
 12274 129e 53       		.byte	0x53
 12275 129f 9F       		.byte	0x9f
 12276 12a0 96020000 		.4byte	.LVL344
 12277 12a4 A2020000 		.4byte	.LVL346
 12278 12a8 0100     		.2byte	0x1
 12279 12aa 53       		.byte	0x53
 12280 12ab A2020000 		.4byte	.LVL346
 12281 12af D6020000 		.4byte	.LFE118
 12282 12b3 0400     		.2byte	0x4
 12283 12b5 F3       		.byte	0xf3
 12284 12b6 01       		.uleb128 0x1
 12285 12b7 53       		.byte	0x53
 12286 12b8 9F       		.byte	0x9f
 12287 12b9 00000000 		.4byte	0
 12288 12bd 00000000 		.4byte	0
 12289              	.LLST119:
 12290 12c1 32000000 		.4byte	.LVL284
 12291 12c5 3C000000 		.4byte	.LVL285
 12292 12c9 0100     		.2byte	0x1
 12293 12cb 57       		.byte	0x57
 12294 12cc 3C000000 		.4byte	.LVL285
ARM GAS  /tmp/ccVxBZiF.s 			page 217


 12295 12d0 42000000 		.4byte	.LVL286
 12296 12d4 0100     		.2byte	0x1
 12297 12d6 51       		.byte	0x51
 12298 12d7 50000000 		.4byte	.LVL287
 12299 12db 26010000 		.4byte	.LVL304
 12300 12df 0200     		.2byte	0x2
 12301 12e1 91       		.byte	0x91
 12302 12e2 50       		.sleb128 -48
 12303 12e3 36010000 		.4byte	.LVL309
 12304 12e7 48010000 		.4byte	.LVL311
 12305 12eb 0100     		.2byte	0x1
 12306 12ed 53       		.byte	0x53
 12307 12ee 6C020000 		.4byte	.LVL339
 12308 12f2 80020000 		.4byte	.LVL340
 12309 12f6 0200     		.2byte	0x2
 12310 12f8 91       		.byte	0x91
 12311 12f9 50       		.sleb128 -48
 12312 12fa C2020000 		.4byte	.LVL350
 12313 12fe D6020000 		.4byte	.LFE118
 12314 1302 0200     		.2byte	0x2
 12315 1304 91       		.byte	0x91
 12316 1305 50       		.sleb128 -48
 12317 1306 00000000 		.4byte	0
 12318 130a 00000000 		.4byte	0
 12319              	.LLST120:
 12320 130e 26000000 		.4byte	.LVL281
 12321 1312 2E000000 		.4byte	.LVL283
 12322 1316 0100     		.2byte	0x1
 12323 1318 52       		.byte	0x52
 12324 1319 2E010000 		.4byte	.LVL306
 12325 131d 32010000 		.4byte	.LVL307
 12326 1321 0100     		.2byte	0x1
 12327 1323 51       		.byte	0x51
 12328 1324 56010000 		.4byte	.LVL312
 12329 1328 22020000 		.4byte	.LVL331
 12330 132c 0200     		.2byte	0x2
 12331 132e 91       		.byte	0x91
 12332 132f 50       		.sleb128 -48
 12333 1330 5C020000 		.4byte	.LVL338
 12334 1334 6C020000 		.4byte	.LVL339
 12335 1338 0200     		.2byte	0x2
 12336 133a 91       		.byte	0x91
 12337 133b 50       		.sleb128 -48
 12338 133c B2020000 		.4byte	.LVL348
 12339 1340 C2020000 		.4byte	.LVL350
 12340 1344 0200     		.2byte	0x2
 12341 1346 91       		.byte	0x91
 12342 1347 50       		.sleb128 -48
 12343 1348 00000000 		.4byte	0
 12344 134c 00000000 		.4byte	0
 12345              	.LLST121:
 12346 1350 26000000 		.4byte	.LVL281
 12347 1354 2A000000 		.4byte	.LVL282
 12348 1358 0300     		.2byte	0x3
 12349 135a 09       		.byte	0x9
 12350 135b FF       		.byte	0xff
 12351 135c 9F       		.byte	0x9f
ARM GAS  /tmp/ccVxBZiF.s 			page 218


 12352 135d 2A000000 		.4byte	.LVL282
 12353 1361 2E000000 		.4byte	.LVL283
 12354 1365 0100     		.2byte	0x1
 12355 1367 56       		.byte	0x56
 12356 1368 2E010000 		.4byte	.LVL306
 12357 136c 32010000 		.4byte	.LVL307
 12358 1370 0100     		.2byte	0x1
 12359 1372 56       		.byte	0x56
 12360 1373 00000000 		.4byte	0
 12361 1377 00000000 		.4byte	0
 12362              	.LLST122:
 12363 137b 32000000 		.4byte	.LVL284
 12364 137f 3C000000 		.4byte	.LVL285
 12365 1383 0200     		.2byte	0x2
 12366 1385 31       		.byte	0x31
 12367 1386 9F       		.byte	0x9f
 12368 1387 3C000000 		.4byte	.LVL285
 12369 138b 42000000 		.4byte	.LVL286
 12370 138f 0100     		.2byte	0x1
 12371 1391 57       		.byte	0x57
 12372 1392 36010000 		.4byte	.LVL309
 12373 1396 44010000 		.4byte	.LVL310
 12374 139a 0300     		.2byte	0x3
 12375 139c 09       		.byte	0x9
 12376 139d FF       		.byte	0xff
 12377 139e 9F       		.byte	0x9f
 12378 139f 44010000 		.4byte	.LVL310
 12379 13a3 48010000 		.4byte	.LVL311
 12380 13a7 0100     		.2byte	0x1
 12381 13a9 57       		.byte	0x57
 12382 13aa 00000000 		.4byte	0
 12383 13ae 00000000 		.4byte	0
 12384              	.LLST123:
 12385 13b2 5A000000 		.4byte	.LVL288
 12386 13b6 64000000 		.4byte	.LVL290
 12387 13ba 0100     		.2byte	0x1
 12388 13bc 53       		.byte	0x53
 12389 13bd 64000000 		.4byte	.LVL290
 12390 13c1 8C000000 		.4byte	.LVL294
 12391 13c5 0100     		.2byte	0x1
 12392 13c7 58       		.byte	0x58
 12393 13c8 60010000 		.4byte	.LVL313
 12394 13cc 6E010000 		.4byte	.LVL315
 12395 13d0 0100     		.2byte	0x1
 12396 13d2 52       		.byte	0x52
 12397 13d3 6E010000 		.4byte	.LVL315
 12398 13d7 90010000 		.4byte	.LVL320
 12399 13db 0100     		.2byte	0x1
 12400 13dd 58       		.byte	0x58
 12401 13de B2020000 		.4byte	.LVL348
 12402 13e2 D6020000 		.4byte	.LFE118
 12403 13e6 0100     		.2byte	0x1
 12404 13e8 58       		.byte	0x58
 12405 13e9 00000000 		.4byte	0
 12406 13ed 00000000 		.4byte	0
 12407              	.LLST124:
 12408 13f1 5C000000 		.4byte	.LVL289
ARM GAS  /tmp/ccVxBZiF.s 			page 219


 12409 13f5 26010000 		.4byte	.LVL304
 12410 13f9 0200     		.2byte	0x2
 12411 13fb 91       		.byte	0x91
 12412 13fc 4C       		.sleb128 -52
 12413 13fd 62010000 		.4byte	.LVL314
 12414 1401 28020000 		.4byte	.LVL332
 12415 1405 0200     		.2byte	0x2
 12416 1407 91       		.byte	0x91
 12417 1408 4C       		.sleb128 -52
 12418 1409 5C020000 		.4byte	.LVL338
 12419 140d 80020000 		.4byte	.LVL340
 12420 1411 0200     		.2byte	0x2
 12421 1413 91       		.byte	0x91
 12422 1414 4C       		.sleb128 -52
 12423 1415 B2020000 		.4byte	.LVL348
 12424 1419 D6020000 		.4byte	.LFE118
 12425 141d 0200     		.2byte	0x2
 12426 141f 91       		.byte	0x91
 12427 1420 4C       		.sleb128 -52
 12428 1421 00000000 		.4byte	0
 12429 1425 00000000 		.4byte	0
 12430              	.LLST125:
 12431 1429 5C000000 		.4byte	.LVL289
 12432 142d 90000000 		.4byte	.LVL295
 12433 1431 0200     		.2byte	0x2
 12434 1433 30       		.byte	0x30
 12435 1434 9F       		.byte	0x9f
 12436 1435 62010000 		.4byte	.LVL314
 12437 1439 94010000 		.4byte	.LVL321
 12438 143d 0200     		.2byte	0x2
 12439 143f 30       		.byte	0x30
 12440 1440 9F       		.byte	0x9f
 12441 1441 B2020000 		.4byte	.LVL348
 12442 1445 D6020000 		.4byte	.LFE118
 12443 1449 0200     		.2byte	0x2
 12444 144b 30       		.byte	0x30
 12445 144c 9F       		.byte	0x9f
 12446 144d 00000000 		.4byte	0
 12447 1451 00000000 		.4byte	0
 12448              	.LLST126:
 12449 1455 00000000 		.4byte	.LFB121
 12450 1459 04000000 		.4byte	.LCFI13
 12451 145d 0200     		.2byte	0x2
 12452 145f 7D       		.byte	0x7d
 12453 1460 00       		.sleb128 0
 12454 1461 04000000 		.4byte	.LCFI13
 12455 1465 08000000 		.4byte	.LCFI14
 12456 1469 0200     		.2byte	0x2
 12457 146b 7D       		.byte	0x7d
 12458 146c 24       		.sleb128 36
 12459 146d 08000000 		.4byte	.LCFI14
 12460 1471 E6000000 		.4byte	.LFE121
 12461 1475 0300     		.2byte	0x3
 12462 1477 7D       		.byte	0x7d
 12463 1478 C000     		.sleb128 64
 12464 147a 00000000 		.4byte	0
 12465 147e 00000000 		.4byte	0
ARM GAS  /tmp/ccVxBZiF.s 			page 220


 12466              	.LLST127:
 12467 1482 00000000 		.4byte	.LVL352
 12468 1486 16000000 		.4byte	.LVL354
 12469 148a 0100     		.2byte	0x1
 12470 148c 50       		.byte	0x50
 12471 148d 16000000 		.4byte	.LVL354
 12472 1491 E6000000 		.4byte	.LFE121
 12473 1495 0100     		.2byte	0x1
 12474 1497 58       		.byte	0x58
 12475 1498 00000000 		.4byte	0
 12476 149c 00000000 		.4byte	0
 12477              	.LLST128:
 12478 14a0 00000000 		.4byte	.LVL352
 12479 14a4 24000000 		.4byte	.LVL356
 12480 14a8 0100     		.2byte	0x1
 12481 14aa 51       		.byte	0x51
 12482 14ab 24000000 		.4byte	.LVL356
 12483 14af E6000000 		.4byte	.LFE121
 12484 14b3 0100     		.2byte	0x1
 12485 14b5 56       		.byte	0x56
 12486 14b6 00000000 		.4byte	0
 12487 14ba 00000000 		.4byte	0
 12488              	.LLST129:
 12489 14be 00000000 		.4byte	.LVL352
 12490 14c2 0E000000 		.4byte	.LVL353
 12491 14c6 0100     		.2byte	0x1
 12492 14c8 52       		.byte	0x52
 12493 14c9 0E000000 		.4byte	.LVL353
 12494 14cd E6000000 		.4byte	.LFE121
 12495 14d1 0400     		.2byte	0x4
 12496 14d3 F3       		.byte	0xf3
 12497 14d4 01       		.uleb128 0x1
 12498 14d5 52       		.byte	0x52
 12499 14d6 9F       		.byte	0x9f
 12500 14d7 00000000 		.4byte	0
 12501 14db 00000000 		.4byte	0
 12502              	.LLST130:
 12503 14df 00000000 		.4byte	.LVL352
 12504 14e3 24000000 		.4byte	.LVL356
 12505 14e7 0100     		.2byte	0x1
 12506 14e9 53       		.byte	0x53
 12507 14ea 24000000 		.4byte	.LVL356
 12508 14ee E6000000 		.4byte	.LFE121
 12509 14f2 0400     		.2byte	0x4
 12510 14f4 F3       		.byte	0xf3
 12511 14f5 01       		.uleb128 0x1
 12512 14f6 53       		.byte	0x53
 12513 14f7 9F       		.byte	0x9f
 12514 14f8 00000000 		.4byte	0
 12515 14fc 00000000 		.4byte	0
 12516              	.LLST131:
 12517 1500 00000000 		.4byte	.LVL352
 12518 1504 24000000 		.4byte	.LVL356
 12519 1508 0200     		.2byte	0x2
 12520 150a 30       		.byte	0x30
 12521 150b 9F       		.byte	0x9f
 12522 150c 48000000 		.4byte	.LVL359
ARM GAS  /tmp/ccVxBZiF.s 			page 221


 12523 1510 4C000000 		.4byte	.LVL360
 12524 1514 0100     		.2byte	0x1
 12525 1516 54       		.byte	0x54
 12526 1517 4C000000 		.4byte	.LVL360
 12527 151b 54000000 		.4byte	.LVL361
 12528 151f 0100     		.2byte	0x1
 12529 1521 51       		.byte	0x51
 12530 1522 D6000000 		.4byte	.LVL366
 12531 1526 D8000000 		.4byte	.LVL367
 12532 152a 0100     		.2byte	0x1
 12533 152c 54       		.byte	0x54
 12534 152d D8000000 		.4byte	.LVL367
 12535 1531 E0000000 		.4byte	.LVL368
 12536 1535 0100     		.2byte	0x1
 12537 1537 51       		.byte	0x51
 12538 1538 00000000 		.4byte	0
 12539 153c 00000000 		.4byte	0
 12540              	.LLST132:
 12541 1540 00000000 		.4byte	.LVL352
 12542 1544 0E000000 		.4byte	.LVL353
 12543 1548 0100     		.2byte	0x1
 12544 154a 52       		.byte	0x52
 12545 154b 0E000000 		.4byte	.LVL353
 12546 154f 2C000000 		.4byte	.LVL357
 12547 1553 0100     		.2byte	0x1
 12548 1555 5A       		.byte	0x5a
 12549 1556 2C000000 		.4byte	.LVL357
 12550 155a 36000000 		.4byte	.LVL358
 12551 155e 0300     		.2byte	0x3
 12552 1560 7A       		.byte	0x7a
 12553 1561 01       		.sleb128 1
 12554 1562 9F       		.byte	0x9f
 12555 1563 48000000 		.4byte	.LVL359
 12556 1567 E0000000 		.4byte	.LVL368
 12557 156b 0100     		.2byte	0x1
 12558 156d 5A       		.byte	0x5a
 12559 156e 00000000 		.4byte	0
 12560 1572 00000000 		.4byte	0
 12561              	.LLST133:
 12562 1576 00000000 		.4byte	.LFB139
 12563 157a 04000000 		.4byte	.LCFI15
 12564 157e 0200     		.2byte	0x2
 12565 1580 7D       		.byte	0x7d
 12566 1581 00       		.sleb128 0
 12567 1582 04000000 		.4byte	.LCFI15
 12568 1586 44010000 		.4byte	.LFE139
 12569 158a 0200     		.2byte	0x2
 12570 158c 7D       		.byte	0x7d
 12571 158d 20       		.sleb128 32
 12572 158e 00000000 		.4byte	0
 12573 1592 00000000 		.4byte	0
 12574              	.LLST134:
 12575 1596 00000000 		.4byte	.LVL369
 12576 159a 32000000 		.4byte	.LVL374
 12577 159e 0100     		.2byte	0x1
 12578 15a0 50       		.byte	0x50
 12579 15a1 32000000 		.4byte	.LVL374
ARM GAS  /tmp/ccVxBZiF.s 			page 222


 12580 15a5 34000000 		.4byte	.LVL375
 12581 15a9 0500     		.2byte	0x5
 12582 15ab 03       		.byte	0x3
 12583 15ac 08000000 		.4byte	GDISP+8
 12584 15b0 34000000 		.4byte	.LVL375
 12585 15b4 AF000000 		.4byte	.LVL385-1
 12586 15b8 0100     		.2byte	0x1
 12587 15ba 50       		.byte	0x50
 12588 15bb EA000000 		.4byte	.LVL393
 12589 15bf 12010000 		.4byte	.LVL396
 12590 15c3 0100     		.2byte	0x1
 12591 15c5 57       		.byte	0x57
 12592 15c6 00000000 		.4byte	0
 12593 15ca 00000000 		.4byte	0
 12594              	.LLST135:
 12595 15ce 00000000 		.4byte	.LVL369
 12596 15d2 2A000000 		.4byte	.LVL372
 12597 15d6 0100     		.2byte	0x1
 12598 15d8 51       		.byte	0x51
 12599 15d9 2A000000 		.4byte	.LVL372
 12600 15dd 50000000 		.4byte	.LVL377
 12601 15e1 0400     		.2byte	0x4
 12602 15e3 F3       		.byte	0xf3
 12603 15e4 01       		.uleb128 0x1
 12604 15e5 51       		.byte	0x51
 12605 15e6 9F       		.byte	0x9f
 12606 15e7 50000000 		.4byte	.LVL377
 12607 15eb 52000000 		.4byte	.LVL378
 12608 15ef 0500     		.2byte	0x5
 12609 15f1 03       		.byte	0x3
 12610 15f2 0A000000 		.4byte	GDISP+10
 12611 15f6 52000000 		.4byte	.LVL378
 12612 15fa EA000000 		.4byte	.LVL393
 12613 15fe 0100     		.2byte	0x1
 12614 1600 56       		.byte	0x56
 12615 1601 36010000 		.4byte	.LVL397
 12616 1605 3C010000 		.4byte	.LVL399
 12617 1609 0100     		.2byte	0x1
 12618 160b 56       		.byte	0x56
 12619 160c 00000000 		.4byte	0
 12620 1610 00000000 		.4byte	0
 12621              	.LLST136:
 12622 1614 00000000 		.4byte	.LVL369
 12623 1618 28000000 		.4byte	.LVL371
 12624 161c 0100     		.2byte	0x1
 12625 161e 52       		.byte	0x52
 12626 161f 28000000 		.4byte	.LVL371
 12627 1623 30000000 		.4byte	.LVL373
 12628 1627 0400     		.2byte	0x4
 12629 1629 F3       		.byte	0xf3
 12630 162a 01       		.uleb128 0x1
 12631 162b 52       		.byte	0x52
 12632 162c 9F       		.byte	0x9f
 12633 162d 30000000 		.4byte	.LVL373
 12634 1631 5C000000 		.4byte	.LVL379
 12635 1635 0100     		.2byte	0x1
 12636 1637 54       		.byte	0x54
ARM GAS  /tmp/ccVxBZiF.s 			page 223


 12637 1638 5E000000 		.4byte	.LVL380
 12638 163c D0000000 		.4byte	.LVL388
 12639 1640 0100     		.2byte	0x1
 12640 1642 54       		.byte	0x54
 12641 1643 00000000 		.4byte	0
 12642 1647 00000000 		.4byte	0
 12643              	.LLST137:
 12644 164b 00000000 		.4byte	.LVL369
 12645 164f 26000000 		.4byte	.LVL370
 12646 1653 0100     		.2byte	0x1
 12647 1655 53       		.byte	0x53
 12648 1656 26000000 		.4byte	.LVL370
 12649 165a 4C000000 		.4byte	.LVL376
 12650 165e 0400     		.2byte	0x4
 12651 1660 F3       		.byte	0xf3
 12652 1661 01       		.uleb128 0x1
 12653 1662 53       		.byte	0x53
 12654 1663 9F       		.byte	0x9f
 12655 1664 4C000000 		.4byte	.LVL376
 12656 1668 D6000000 		.4byte	.LVL390
 12657 166c 0100     		.2byte	0x1
 12658 166e 59       		.byte	0x59
 12659 166f 00000000 		.4byte	0
 12660 1673 00000000 		.4byte	0
 12661              	.LLST138:
 12662 1677 00000000 		.4byte	.LVL369
 12663 167b 32000000 		.4byte	.LVL374
 12664 167f 0200     		.2byte	0x2
 12665 1681 91       		.byte	0x91
 12666 1682 00       		.sleb128 0
 12667 1683 32000000 		.4byte	.LVL374
 12668 1687 44010000 		.4byte	.LFE139
 12669 168b 0100     		.2byte	0x1
 12670 168d 57       		.byte	0x57
 12671 168e 00000000 		.4byte	0
 12672 1692 00000000 		.4byte	0
 12673              	.LLST139:
 12674 1696 00000000 		.4byte	.LVL369
 12675 169a 50000000 		.4byte	.LVL377
 12676 169e 0200     		.2byte	0x2
 12677 16a0 91       		.byte	0x91
 12678 16a1 04       		.sleb128 4
 12679 16a2 50000000 		.4byte	.LVL377
 12680 16a6 A2000000 		.4byte	.LVL383
 12681 16aa 0100     		.2byte	0x1
 12682 16ac 5C       		.byte	0x5c
 12683 16ad 00000000 		.4byte	0
 12684 16b1 00000000 		.4byte	0
 12685              	.LLST140:
 12686 16b5 00000000 		.4byte	.LVL369
 12687 16b9 AC000000 		.4byte	.LVL384
 12688 16bd 0200     		.2byte	0x2
 12689 16bf 91       		.byte	0x91
 12690 16c0 0C       		.sleb128 12
 12691 16c1 AC000000 		.4byte	.LVL384
 12692 16c5 10010000 		.4byte	.LVL395
 12693 16c9 0100     		.2byte	0x1
ARM GAS  /tmp/ccVxBZiF.s 			page 224


 12694 16cb 55       		.byte	0x55
 12695 16cc 3A010000 		.4byte	.LVL398
 12696 16d0 3C010000 		.4byte	.LVL399
 12697 16d4 0100     		.2byte	0x1
 12698 16d6 55       		.byte	0x55
 12699 16d7 00000000 		.4byte	0
 12700 16db 00000000 		.4byte	0
 12701              	.LLST141:
 12702 16df C8000000 		.4byte	.LVL386
 12703 16e3 D2000000 		.4byte	.LVL389
 12704 16e7 0100     		.2byte	0x1
 12705 16e9 53       		.byte	0x53
 12706 16ea D2000000 		.4byte	.LVL389
 12707 16ee E6000000 		.4byte	.LVL392
 12708 16f2 0100     		.2byte	0x1
 12709 16f4 51       		.byte	0x51
 12710 16f5 00000000 		.4byte	0
 12711 16f9 00000000 		.4byte	0
 12712              	.LLST142:
 12713 16fd C8000000 		.4byte	.LVL386
 12714 1701 D6000000 		.4byte	.LVL390
 12715 1705 0600     		.2byte	0x6
 12716 1707 7A       		.byte	0x7a
 12717 1708 00       		.sleb128 0
 12718 1709 79       		.byte	0x79
 12719 170a 00       		.sleb128 0
 12720 170b 22       		.byte	0x22
 12721 170c 9F       		.byte	0x9f
 12722 170d 00000000 		.4byte	0
 12723 1711 00000000 		.4byte	0
 12724              	.LLST143:
 12725 1715 CC000000 		.4byte	.LVL387
 12726 1719 E0000000 		.4byte	.LVL391
 12727 171d 0100     		.2byte	0x1
 12728 171f 58       		.byte	0x58
 12729 1720 00000000 		.4byte	0
 12730 1724 00000000 		.4byte	0
 12731              	.LLST144:
 12732 1728 B0000000 		.4byte	.LVL385
 12733 172c 3C010000 		.4byte	.LVL399
 12734 1730 0300     		.2byte	0x3
 12735 1732 08       		.byte	0x8
 12736 1733 22       		.byte	0x22
 12737 1734 9F       		.byte	0x9f
 12738 1735 00000000 		.4byte	0
 12739 1739 00000000 		.4byte	0
 12740              	.LLST145:
 12741 173d F8000000 		.4byte	.LVL394
 12742 1741 10010000 		.4byte	.LVL395
 12743 1745 0200     		.2byte	0x2
 12744 1747 75       		.byte	0x75
 12745 1748 00       		.sleb128 0
 12746 1749 00000000 		.4byte	0
 12747 174d 00000000 		.4byte	0
 12748              	.LLST146:
 12749 1751 00000000 		.4byte	.LFB123
 12750 1755 04000000 		.4byte	.LCFI16
ARM GAS  /tmp/ccVxBZiF.s 			page 225


 12751 1759 0200     		.2byte	0x2
 12752 175b 7D       		.byte	0x7d
 12753 175c 00       		.sleb128 0
 12754 175d 04000000 		.4byte	.LCFI16
 12755 1761 08000000 		.4byte	.LCFI17
 12756 1765 0200     		.2byte	0x2
 12757 1767 7D       		.byte	0x7d
 12758 1768 24       		.sleb128 36
 12759 1769 08000000 		.4byte	.LCFI17
 12760 176d BC010000 		.4byte	.LFE123
 12761 1771 0300     		.2byte	0x3
 12762 1773 7D       		.byte	0x7d
 12763 1774 E000     		.sleb128 96
 12764 1776 00000000 		.4byte	0
 12765 177a 00000000 		.4byte	0
 12766              	.LLST147:
 12767 177e 00000000 		.4byte	.LVL400
 12768 1782 30000000 		.4byte	.LVL404
 12769 1786 0100     		.2byte	0x1
 12770 1788 50       		.byte	0x50
 12771 1789 30000000 		.4byte	.LVL404
 12772 178d BC010000 		.4byte	.LFE123
 12773 1791 0400     		.2byte	0x4
 12774 1793 F3       		.byte	0xf3
 12775 1794 01       		.uleb128 0x1
 12776 1795 50       		.byte	0x50
 12777 1796 9F       		.byte	0x9f
 12778 1797 00000000 		.4byte	0
 12779 179b 00000000 		.4byte	0
 12780              	.LLST148:
 12781 179f 00000000 		.4byte	.LVL400
 12782 17a3 1C000000 		.4byte	.LVL401
 12783 17a7 0100     		.2byte	0x1
 12784 17a9 51       		.byte	0x51
 12785 17aa 1C000000 		.4byte	.LVL401
 12786 17ae BC010000 		.4byte	.LFE123
 12787 17b2 0400     		.2byte	0x4
 12788 17b4 F3       		.byte	0xf3
 12789 17b5 01       		.uleb128 0x1
 12790 17b6 51       		.byte	0x51
 12791 17b7 9F       		.byte	0x9f
 12792 17b8 00000000 		.4byte	0
 12793 17bc 00000000 		.4byte	0
 12794              	.LLST149:
 12795 17c0 00000000 		.4byte	.LVL400
 12796 17c4 26000000 		.4byte	.LVL402
 12797 17c8 0100     		.2byte	0x1
 12798 17ca 52       		.byte	0x52
 12799 17cb 26000000 		.4byte	.LVL402
 12800 17cf BC010000 		.4byte	.LFE123
 12801 17d3 0400     		.2byte	0x4
 12802 17d5 F3       		.byte	0xf3
 12803 17d6 01       		.uleb128 0x1
 12804 17d7 52       		.byte	0x52
 12805 17d8 9F       		.byte	0x9f
 12806 17d9 00000000 		.4byte	0
 12807 17dd 00000000 		.4byte	0
ARM GAS  /tmp/ccVxBZiF.s 			page 226


 12808              	.LLST150:
 12809 17e1 00000000 		.4byte	.LVL400
 12810 17e5 4E000000 		.4byte	.LVL408
 12811 17e9 0100     		.2byte	0x1
 12812 17eb 53       		.byte	0x53
 12813 17ec 4E000000 		.4byte	.LVL408
 12814 17f0 BC010000 		.4byte	.LFE123
 12815 17f4 0400     		.2byte	0x4
 12816 17f6 F3       		.byte	0xf3
 12817 17f7 01       		.uleb128 0x1
 12818 17f8 53       		.byte	0x53
 12819 17f9 9F       		.byte	0x9f
 12820 17fa 00000000 		.4byte	0
 12821 17fe 00000000 		.4byte	0
 12822              	.LLST151:
 12823 1802 28000000 		.4byte	.LVL403
 12824 1806 3A000000 		.4byte	.LVL406
 12825 180a 0600     		.2byte	0x6
 12826 180c 71       		.byte	0x71
 12827 180d 00       		.sleb128 0
 12828 180e 08       		.byte	0x8
 12829 180f FF       		.byte	0xff
 12830 1810 1A       		.byte	0x1a
 12831 1811 9F       		.byte	0x9f
 12832 1812 3A000000 		.4byte	.LVL406
 12833 1816 3E000000 		.4byte	.LVL407
 12834 181a 0C00     		.2byte	0xc
 12835 181c 73       		.byte	0x73
 12836 181d 10       		.sleb128 16
 12837 181e 06       		.byte	0x6
 12838 181f 74       		.byte	0x74
 12839 1820 00       		.sleb128 0
 12840 1821 22       		.byte	0x22
 12841 1822 94       		.byte	0x94
 12842 1823 01       		.byte	0x1
 12843 1824 08       		.byte	0x8
 12844 1825 FF       		.byte	0xff
 12845 1826 1A       		.byte	0x1a
 12846 1827 9F       		.byte	0x9f
 12847 1828 3E000000 		.4byte	.LVL407
 12848 182c 3E010000 		.4byte	.LVL426
 12849 1830 0300     		.2byte	0x3
 12850 1832 91       		.byte	0x91
 12851 1833 B87F     		.sleb128 -72
 12852 1835 44010000 		.4byte	.LVL427
 12853 1839 BC010000 		.4byte	.LFE123
 12854 183d 0300     		.2byte	0x3
 12855 183f 91       		.byte	0x91
 12856 1840 B87F     		.sleb128 -72
 12857 1842 00000000 		.4byte	0
 12858 1846 00000000 		.4byte	0
 12859              	.LLST152:
 12860 184a 3E000000 		.4byte	.LVL407
 12861 184e 70000000 		.4byte	.LVL411
 12862 1852 0100     		.2byte	0x1
 12863 1854 52       		.byte	0x52
 12864 1855 70000000 		.4byte	.LVL411
ARM GAS  /tmp/ccVxBZiF.s 			page 227


 12865 1859 3D010000 		.4byte	.LVL426-1
 12866 185d 0E00     		.2byte	0xe
 12867 185f F3       		.byte	0xf3
 12868 1860 01       		.uleb128 0x1
 12869 1861 53       		.byte	0x53
 12870 1862 23       		.byte	0x23
 12871 1863 04       		.uleb128 0x4
 12872 1864 94       		.byte	0x94
 12873 1865 01       		.byte	0x1
 12874 1866 08       		.byte	0x8
 12875 1867 FF       		.byte	0xff
 12876 1868 1A       		.byte	0x1a
 12877 1869 77       		.byte	0x77
 12878 186a 00       		.sleb128 0
 12879 186b 1E       		.byte	0x1e
 12880 186c 9F       		.byte	0x9f
 12881 186d 44010000 		.4byte	.LVL427
 12882 1871 AE010000 		.4byte	.LVL431
 12883 1875 0E00     		.2byte	0xe
 12884 1877 F3       		.byte	0xf3
 12885 1878 01       		.uleb128 0x1
 12886 1879 53       		.byte	0x53
 12887 187a 23       		.byte	0x23
 12888 187b 04       		.uleb128 0x4
 12889 187c 94       		.byte	0x94
 12890 187d 01       		.byte	0x1
 12891 187e 08       		.byte	0x8
 12892 187f FF       		.byte	0xff
 12893 1880 1A       		.byte	0x1a
 12894 1881 77       		.byte	0x77
 12895 1882 00       		.sleb128 0
 12896 1883 1E       		.byte	0x1e
 12897 1884 9F       		.byte	0x9f
 12898 1885 AE010000 		.4byte	.LVL431
 12899 1889 B2010000 		.4byte	.LVL432
 12900 188d 0100     		.2byte	0x1
 12901 188f 52       		.byte	0x52
 12902 1890 B2010000 		.4byte	.LVL432
 12903 1894 BC010000 		.4byte	.LFE123
 12904 1898 0E00     		.2byte	0xe
 12905 189a F3       		.byte	0xf3
 12906 189b 01       		.uleb128 0x1
 12907 189c 53       		.byte	0x53
 12908 189d 23       		.byte	0x23
 12909 189e 04       		.uleb128 0x4
 12910 189f 94       		.byte	0x94
 12911 18a0 01       		.byte	0x1
 12912 18a1 08       		.byte	0x8
 12913 18a2 FF       		.byte	0xff
 12914 18a3 1A       		.byte	0x1a
 12915 18a4 77       		.byte	0x77
 12916 18a5 00       		.sleb128 0
 12917 18a6 1E       		.byte	0x1e
 12918 18a7 9F       		.byte	0x9f
 12919 18a8 00000000 		.4byte	0
 12920 18ac 00000000 		.4byte	0
 12921              	.LLST153:
ARM GAS  /tmp/ccVxBZiF.s 			page 228


 12922 18b0 36000000 		.4byte	.LVL405
 12923 18b4 3E010000 		.4byte	.LVL426
 12924 18b8 0900     		.2byte	0x9
 12925 18ba 91       		.byte	0x91
 12926 18bb B47F     		.sleb128 -76
 12927 18bd 94       		.byte	0x94
 12928 18be 01       		.byte	0x1
 12929 18bf 08       		.byte	0x8
 12930 18c0 FF       		.byte	0xff
 12931 18c1 1A       		.byte	0x1a
 12932 18c2 9F       		.byte	0x9f
 12933 18c3 44010000 		.4byte	.LVL427
 12934 18c7 BC010000 		.4byte	.LFE123
 12935 18cb 0900     		.2byte	0x9
 12936 18cd 91       		.byte	0x91
 12937 18ce B47F     		.sleb128 -76
 12938 18d0 94       		.byte	0x94
 12939 18d1 01       		.byte	0x1
 12940 18d2 08       		.byte	0x8
 12941 18d3 FF       		.byte	0xff
 12942 18d4 1A       		.byte	0x1a
 12943 18d5 9F       		.byte	0x9f
 12944 18d6 00000000 		.4byte	0
 12945 18da 00000000 		.4byte	0
 12946              	.LLST154:
 12947 18de 60000000 		.4byte	.LVL409
 12948 18e2 6E000000 		.4byte	.LVL410
 12949 18e6 0100     		.2byte	0x1
 12950 18e8 50       		.byte	0x50
 12951 18e9 6E000000 		.4byte	.LVL410
 12952 18ed 88000000 		.4byte	.LVL413
 12953 18f1 0200     		.2byte	0x2
 12954 18f3 91       		.byte	0x91
 12955 18f4 4C       		.sleb128 -52
 12956 18f5 88000000 		.4byte	.LVL413
 12957 18f9 8E000000 		.4byte	.LVL414
 12958 18fd 0100     		.2byte	0x1
 12959 18ff 54       		.byte	0x54
 12960 1900 8E000000 		.4byte	.LVL414
 12961 1904 3E010000 		.4byte	.LVL426
 12962 1908 0200     		.2byte	0x2
 12963 190a 91       		.byte	0x91
 12964 190b 4C       		.sleb128 -52
 12965 190c 44010000 		.4byte	.LVL427
 12966 1910 AE010000 		.4byte	.LVL431
 12967 1914 0200     		.2byte	0x2
 12968 1916 91       		.byte	0x91
 12969 1917 4C       		.sleb128 -52
 12970 1918 AE010000 		.4byte	.LVL431
 12971 191c BC010000 		.4byte	.LFE123
 12972 1920 0100     		.2byte	0x1
 12973 1922 50       		.byte	0x50
 12974 1923 00000000 		.4byte	0
 12975 1927 00000000 		.4byte	0
 12976              	.LLST155:
 12977 192b 88000000 		.4byte	.LVL413
 12978 192f 94000000 		.4byte	.LVL415
ARM GAS  /tmp/ccVxBZiF.s 			page 229


 12979 1933 0300     		.2byte	0x3
 12980 1935 91       		.byte	0x91
 12981 1936 4C       		.sleb128 -52
 12982 1937 06       		.byte	0x6
 12983 1938 10010000 		.4byte	.LVL422
 12984 193c 12010000 		.4byte	.LVL423
 12985 1940 0100     		.2byte	0x1
 12986 1942 5E       		.byte	0x5e
 12987 1943 00000000 		.4byte	0
 12988 1947 00000000 		.4byte	0
 12989              	.LLST156:
 12990 194b 60000000 		.4byte	.LVL409
 12991 194f 7C000000 		.4byte	.LVL412
 12992 1953 0200     		.2byte	0x2
 12993 1955 30       		.byte	0x30
 12994 1956 9F       		.byte	0x9f
 12995 1957 20010000 		.4byte	.LVL424
 12996 195b 26010000 		.4byte	.LVL425
 12997 195f 0200     		.2byte	0x2
 12998 1961 91       		.byte	0x91
 12999 1962 48       		.sleb128 -56
 13000 1963 AE010000 		.4byte	.LVL431
 13001 1967 BC010000 		.4byte	.LFE123
 13002 196b 0200     		.2byte	0x2
 13003 196d 30       		.byte	0x30
 13004 196e 9F       		.byte	0x9f
 13005 196f 00000000 		.4byte	0
 13006 1973 00000000 		.4byte	0
 13007              	.LLST157:
 13008 1977 88000000 		.4byte	.LVL413
 13009 197b 94000000 		.4byte	.LVL415
 13010 197f 0200     		.2byte	0x2
 13011 1981 30       		.byte	0x30
 13012 1982 9F       		.byte	0x9f
 13013 1983 0C010000 		.4byte	.LVL421
 13014 1987 12010000 		.4byte	.LVL423
 13015 198b 0100     		.2byte	0x1
 13016 198d 54       		.byte	0x54
 13017 198e 00000000 		.4byte	0
 13018 1992 00000000 		.4byte	0
 13019              	.LLST158:
 13020 1996 9A000000 		.4byte	.LVL416
 13021 199a AC000000 		.4byte	.LVL417
 13022 199e 0200     		.2byte	0x2
 13023 19a0 30       		.byte	0x30
 13024 19a1 9F       		.byte	0x9f
 13025 19a2 F0000000 		.4byte	.LVL419
 13026 19a6 FC000000 		.4byte	.LVL420
 13027 19aa 0100     		.2byte	0x1
 13028 19ac 5B       		.byte	0x5b
 13029 19ad 44010000 		.4byte	.LVL427
 13030 19b1 5C010000 		.4byte	.LVL428
 13031 19b5 0200     		.2byte	0x2
 13032 19b7 30       		.byte	0x30
 13033 19b8 9F       		.byte	0x9f
 13034 19b9 A0010000 		.4byte	.LVL430
 13035 19bd AE010000 		.4byte	.LVL431
ARM GAS  /tmp/ccVxBZiF.s 			page 230


 13036 19c1 0100     		.2byte	0x1
 13037 19c3 5B       		.byte	0x5b
 13038 19c4 00000000 		.4byte	0
 13039 19c8 00000000 		.4byte	0
 13040              	.LLST159:
 13041 19cc AC000000 		.4byte	.LVL417
 13042 19d0 B0000000 		.4byte	.LVL418
 13043 19d4 0200     		.2byte	0x2
 13044 19d6 30       		.byte	0x30
 13045 19d7 9F       		.byte	0x9f
 13046 19d8 5C010000 		.4byte	.LVL428
 13047 19dc 60010000 		.4byte	.LVL429
 13048 19e0 0200     		.2byte	0x2
 13049 19e2 30       		.byte	0x30
 13050 19e3 9F       		.byte	0x9f
 13051 19e4 00000000 		.4byte	0
 13052 19e8 00000000 		.4byte	0
 13053              		.section	.debug_aranges,"",%progbits
 13054 0000 74000000 		.4byte	0x74
 13055 0004 0200     		.2byte	0x2
 13056 0006 00000000 		.4byte	.Ldebug_info0
 13057 000a 04       		.byte	0x4
 13058 000b 00       		.byte	0
 13059 000c 0000     		.2byte	0
 13060 000e 0000     		.2byte	0
 13061 0010 00000000 		.4byte	.LFB133
 13062 0014 BC010000 		.4byte	.LFE133-.LFB133
 13063 0018 00000000 		.4byte	.LFB119
 13064 001c 64000000 		.4byte	.LFE119-.LFB119
 13065 0020 00000000 		.4byte	.LFB135
 13066 0024 0E030000 		.4byte	.LFE135-.LFB135
 13067 0028 00000000 		.4byte	.LFB136
 13068 002c B4000000 		.4byte	.LFE136-.LFB136
 13069 0030 00000000 		.4byte	.LFB122
 13070 0034 60010000 		.4byte	.LFE122-.LFB122
 13071 0038 00000000 		.4byte	.LFB120
 13072 003c 0A010000 		.4byte	.LFE120-.LFB120
 13073 0040 00000000 		.4byte	.LFB137
 13074 0044 7C000000 		.4byte	.LFE137-.LFB137
 13075 0048 00000000 		.4byte	.LFB138
 13076 004c B0000000 		.4byte	.LFE138-.LFB138
 13077 0050 00000000 		.4byte	.LFB118
 13078 0054 D6020000 		.4byte	.LFE118-.LFB118
 13079 0058 00000000 		.4byte	.LFB121
 13080 005c E6000000 		.4byte	.LFE121-.LFB121
 13081 0060 00000000 		.4byte	.LFB139
 13082 0064 44010000 		.4byte	.LFE139-.LFB139
 13083 0068 00000000 		.4byte	.LFB123
 13084 006c BC010000 		.4byte	.LFE123-.LFB123
 13085 0070 00000000 		.4byte	0
 13086 0074 00000000 		.4byte	0
 13087              		.section	.debug_ranges,"",%progbits
 13088              	.Ldebug_ranges0:
 13089 0000 1C000000 		.4byte	.LBB432
 13090 0004 1E000000 		.4byte	.LBE432
 13091 0008 22000000 		.4byte	.LBB439
 13092 000c 26000000 		.4byte	.LBE439
ARM GAS  /tmp/ccVxBZiF.s 			page 231


 13093 0010 34000000 		.4byte	.LBB441
 13094 0014 36000000 		.4byte	.LBE441
 13095 0018 00000000 		.4byte	0
 13096 001c 00000000 		.4byte	0
 13097 0020 1E000000 		.4byte	.LBB436
 13098 0024 22000000 		.4byte	.LBE436
 13099 0028 2E000000 		.4byte	.LBB440
 13100 002c 32000000 		.4byte	.LBE440
 13101 0030 00000000 		.4byte	0
 13102 0034 00000000 		.4byte	0
 13103 0038 40000000 		.4byte	.LBB444
 13104 003c 42000000 		.4byte	.LBE444
 13105 0040 44000000 		.4byte	.LBB449
 13106 0044 46000000 		.4byte	.LBE449
 13107 0048 00000000 		.4byte	0
 13108 004c 00000000 		.4byte	0
 13109 0050 48000000 		.4byte	.LBB452
 13110 0054 60000000 		.4byte	.LBE452
 13111 0058 AA000000 		.4byte	.LBB531
 13112 005c C8000000 		.4byte	.LBE531
 13113 0060 0E010000 		.4byte	.LBB548
 13114 0064 2C010000 		.4byte	.LBE548
 13115 0068 60010000 		.4byte	.LBB567
 13116 006c BC010000 		.4byte	.LBE567
 13117 0070 00000000 		.4byte	0
 13118 0074 00000000 		.4byte	0
 13119 0078 48000000 		.4byte	.LBB454
 13120 007c 4A000000 		.4byte	.LBE454
 13121 0080 4E000000 		.4byte	.LBB461
 13122 0084 52000000 		.4byte	.LBE461
 13123 0088 58000000 		.4byte	.LBB463
 13124 008c 5A000000 		.4byte	.LBE463
 13125 0090 00000000 		.4byte	0
 13126 0094 00000000 		.4byte	0
 13127 0098 4A000000 		.4byte	.LBB458
 13128 009c 4E000000 		.4byte	.LBE458
 13129 00a0 54000000 		.4byte	.LBB462
 13130 00a4 58000000 		.4byte	.LBE462
 13131 00a8 00000000 		.4byte	0
 13132 00ac 00000000 		.4byte	0
 13133 00b0 AA000000 		.4byte	.LBB468
 13134 00b4 AE000000 		.4byte	.LBE468
 13135 00b8 BA000000 		.4byte	.LBB474
 13136 00bc BE000000 		.4byte	.LBE474
 13137 00c0 00000000 		.4byte	0
 13138 00c4 00000000 		.4byte	0
 13139 00c8 B2000000 		.4byte	.LBB471
 13140 00cc B8000000 		.4byte	.LBE471
 13141 00d0 C0000000 		.4byte	.LBB478
 13142 00d4 C2000000 		.4byte	.LBE478
 13143 00d8 00000000 		.4byte	0
 13144 00dc 00000000 		.4byte	0
 13145 00e0 BE000000 		.4byte	.LBB475
 13146 00e4 C0000000 		.4byte	.LBE475
 13147 00e8 C2000000 		.4byte	.LBB479
 13148 00ec C4000000 		.4byte	.LBE479
 13149 00f0 00000000 		.4byte	0
ARM GAS  /tmp/ccVxBZiF.s 			page 232


 13150 00f4 00000000 		.4byte	0
 13151 00f8 0E010000 		.4byte	.LBB484
 13152 00fc 12010000 		.4byte	.LBE484
 13153 0100 1E010000 		.4byte	.LBB490
 13154 0104 22010000 		.4byte	.LBE490
 13155 0108 00000000 		.4byte	0
 13156 010c 00000000 		.4byte	0
 13157 0110 16010000 		.4byte	.LBB487
 13158 0114 1C010000 		.4byte	.LBE487
 13159 0118 24010000 		.4byte	.LBB494
 13160 011c 26010000 		.4byte	.LBE494
 13161 0120 00000000 		.4byte	0
 13162 0124 00000000 		.4byte	0
 13163 0128 22010000 		.4byte	.LBB491
 13164 012c 24010000 		.4byte	.LBE491
 13165 0130 26010000 		.4byte	.LBB495
 13166 0134 28010000 		.4byte	.LBE495
 13167 0138 00000000 		.4byte	0
 13168 013c 00000000 		.4byte	0
 13169 0140 60010000 		.4byte	.LBB498
 13170 0144 62010000 		.4byte	.LBE498
 13171 0148 66010000 		.4byte	.LBB505
 13172 014c 6A010000 		.4byte	.LBE505
 13173 0150 70010000 		.4byte	.LBB507
 13174 0154 72010000 		.4byte	.LBE507
 13175 0158 00000000 		.4byte	0
 13176 015c 00000000 		.4byte	0
 13177 0160 62010000 		.4byte	.LBB502
 13178 0164 66010000 		.4byte	.LBE502
 13179 0168 6C010000 		.4byte	.LBB506
 13180 016c 70010000 		.4byte	.LBE506
 13181 0170 00000000 		.4byte	0
 13182 0174 00000000 		.4byte	0
 13183 0178 78000000 		.4byte	.LBB515
 13184 017c 7E000000 		.4byte	.LBE515
 13185 0180 98000000 		.4byte	.LBB522
 13186 0184 9A000000 		.4byte	.LBE522
 13187 0188 00000000 		.4byte	0
 13188 018c 00000000 		.4byte	0
 13189 0190 84000000 		.4byte	.LBB518
 13190 0194 88000000 		.4byte	.LBE518
 13191 0198 92000000 		.4byte	.LBB521
 13192 019c 96000000 		.4byte	.LBE521
 13193 01a0 00000000 		.4byte	0
 13194 01a4 00000000 		.4byte	0
 13195 01a8 DC000000 		.4byte	.LBB532
 13196 01ac E2000000 		.4byte	.LBE532
 13197 01b0 FC000000 		.4byte	.LBB539
 13198 01b4 FE000000 		.4byte	.LBE539
 13199 01b8 00000000 		.4byte	0
 13200 01bc 00000000 		.4byte	0
 13201 01c0 E8000000 		.4byte	.LBB535
 13202 01c4 EC000000 		.4byte	.LBE535
 13203 01c8 F6000000 		.4byte	.LBB538
 13204 01cc FA000000 		.4byte	.LBE538
 13205 01d0 00000000 		.4byte	0
 13206 01d4 00000000 		.4byte	0
ARM GAS  /tmp/ccVxBZiF.s 			page 233


 13207 01d8 34010000 		.4byte	.LBB549
 13208 01dc 3A010000 		.4byte	.LBE549
 13209 01e0 4C010000 		.4byte	.LBB556
 13210 01e4 4E010000 		.4byte	.LBE556
 13211 01e8 00000000 		.4byte	0
 13212 01ec 00000000 		.4byte	0
 13213 01f0 40010000 		.4byte	.LBB552
 13214 01f4 44010000 		.4byte	.LBE552
 13215 01f8 46010000 		.4byte	.LBB555
 13216 01fc 4A010000 		.4byte	.LBE555
 13217 0200 00000000 		.4byte	0
 13218 0204 00000000 		.4byte	0
 13219 0208 58010000 		.4byte	.LBB559
 13220 020c 5A010000 		.4byte	.LBE559
 13221 0210 5C010000 		.4byte	.LBB564
 13222 0214 5E010000 		.4byte	.LBE564
 13223 0218 00000000 		.4byte	0
 13224 021c 00000000 		.4byte	0
 13225 0220 04000000 		.4byte	.LBB738
 13226 0224 1A000000 		.4byte	.LBE738
 13227 0228 1C000000 		.4byte	.LBB743
 13228 022c 68000000 		.4byte	.LBE743
 13229 0230 6A000000 		.4byte	.LBB747
 13230 0234 6C000000 		.4byte	.LBE747
 13231 0238 76000000 		.4byte	.LBB758
 13232 023c 7A000000 		.4byte	.LBE758
 13233 0240 00000000 		.4byte	0
 13234 0244 00000000 		.4byte	0
 13235 0248 04000000 		.4byte	.LBB739
 13236 024c 1A000000 		.4byte	.LBE739
 13237 0250 1C000000 		.4byte	.LBB740
 13238 0254 68000000 		.4byte	.LBE740
 13239 0258 6A000000 		.4byte	.LBB741
 13240 025c 6C000000 		.4byte	.LBE741
 13241 0260 76000000 		.4byte	.LBB742
 13242 0264 7A000000 		.4byte	.LBE742
 13243 0268 00000000 		.4byte	0
 13244 026c 00000000 		.4byte	0
 13245 0270 68000000 		.4byte	.LBB744
 13246 0274 6A000000 		.4byte	.LBE744
 13247 0278 7C000000 		.4byte	.LBB759
 13248 027c 80000000 		.4byte	.LBE759
 13249 0280 00000000 		.4byte	0
 13250 0284 00000000 		.4byte	0
 13251 0288 6C000000 		.4byte	.LBB748
 13252 028c 6E000000 		.4byte	.LBE748
 13253 0290 72000000 		.4byte	.LBB757
 13254 0294 76000000 		.4byte	.LBE757
 13255 0298 86000000 		.4byte	.LBB761
 13256 029c 8A000000 		.4byte	.LBE761
 13257 02a0 98000000 		.4byte	.LBB765
 13258 02a4 9C000000 		.4byte	.LBE765
 13259 02a8 00000000 		.4byte	0
 13260 02ac 00000000 		.4byte	0
 13261 02b0 6E000000 		.4byte	.LBB753
 13262 02b4 72000000 		.4byte	.LBE753
 13263 02b8 80000000 		.4byte	.LBB760
ARM GAS  /tmp/ccVxBZiF.s 			page 234


 13264 02bc 82000000 		.4byte	.LBE760
 13265 02c0 94000000 		.4byte	.LBB764
 13266 02c4 96000000 		.4byte	.LBE764
 13267 02c8 00000000 		.4byte	0
 13268 02cc 00000000 		.4byte	0
 13269 02d0 A0000000 		.4byte	.LBB766
 13270 02d4 A4000000 		.4byte	.LBE766
 13271 02d8 A8000000 		.4byte	.LBB772
 13272 02dc AC000000 		.4byte	.LBE772
 13273 02e0 00000000 		.4byte	0
 13274 02e4 00000000 		.4byte	0
 13275 02e8 A4000000 		.4byte	.LBB769
 13276 02ec A8000000 		.4byte	.LBE769
 13277 02f0 AE000000 		.4byte	.LBB773
 13278 02f4 B0000000 		.4byte	.LBE773
 13279 02f8 00000000 		.4byte	0
 13280 02fc 00000000 		.4byte	0
 13281 0300 C0000000 		.4byte	.LBB778
 13282 0304 C4000000 		.4byte	.LBE778
 13283 0308 CA000000 		.4byte	.LBB783
 13284 030c CC000000 		.4byte	.LBE783
 13285 0310 00000000 		.4byte	0
 13286 0314 00000000 		.4byte	0
 13287 0318 D0000000 		.4byte	.LBB784
 13288 031c D2000000 		.4byte	.LBE784
 13289 0320 D6000000 		.4byte	.LBB790
 13290 0324 D8000000 		.4byte	.LBE790
 13291 0328 00000000 		.4byte	0
 13292 032c 00000000 		.4byte	0
 13293 0330 D2000000 		.4byte	.LBB787
 13294 0334 D6000000 		.4byte	.LBE787
 13295 0338 DA000000 		.4byte	.LBB791
 13296 033c DC000000 		.4byte	.LBE791
 13297 0340 00000000 		.4byte	0
 13298 0344 00000000 		.4byte	0
 13299 0348 E0000000 		.4byte	.LBB792
 13300 034c E2000000 		.4byte	.LBE792
 13301 0350 EA000000 		.4byte	.LBB800
 13302 0354 EC000000 		.4byte	.LBE800
 13303 0358 00000000 		.4byte	0
 13304 035c 00000000 		.4byte	0
 13305 0360 E6000000 		.4byte	.LBB797
 13306 0364 EA000000 		.4byte	.LBE797
 13307 0368 F8000000 		.4byte	.LBB803
 13308 036c FA000000 		.4byte	.LBE803
 13309 0370 00000000 		.4byte	0
 13310 0374 00000000 		.4byte	0
 13311 0378 FE000000 		.4byte	.LBB804
 13312 037c 02010000 		.4byte	.LBE804
 13313 0380 08010000 		.4byte	.LBB809
 13314 0384 0A010000 		.4byte	.LBE809
 13315 0388 00000000 		.4byte	0
 13316 038c 00000000 		.4byte	0
 13317 0390 16010000 		.4byte	.LBB814
 13318 0394 18010000 		.4byte	.LBE814
 13319 0398 2C010000 		.4byte	.LBB825
 13320 039c 2E010000 		.4byte	.LBE825
ARM GAS  /tmp/ccVxBZiF.s 			page 235


 13321 03a0 00000000 		.4byte	0
 13322 03a4 00000000 		.4byte	0
 13323 03a8 1C010000 		.4byte	.LBB817
 13324 03ac 1E010000 		.4byte	.LBE817
 13325 03b0 22010000 		.4byte	.LBB823
 13326 03b4 24010000 		.4byte	.LBE823
 13327 03b8 00000000 		.4byte	0
 13328 03bc 00000000 		.4byte	0
 13329 03c0 1E010000 		.4byte	.LBB820
 13330 03c4 22010000 		.4byte	.LBE820
 13331 03c8 26010000 		.4byte	.LBB824
 13332 03cc 28010000 		.4byte	.LBE824
 13333 03d0 00000000 		.4byte	0
 13334 03d4 00000000 		.4byte	0
 13335 03d8 42010000 		.4byte	.LBB832
 13336 03dc 46010000 		.4byte	.LBE832
 13337 03e0 4A010000 		.4byte	.LBB837
 13338 03e4 4C010000 		.4byte	.LBE837
 13339 03e8 00000000 		.4byte	0
 13340 03ec 00000000 		.4byte	0
 13341 03f0 60010000 		.4byte	.LBB842
 13342 03f4 62010000 		.4byte	.LBE842
 13343 03f8 66010000 		.4byte	.LBB848
 13344 03fc 68010000 		.4byte	.LBE848
 13345 0400 00000000 		.4byte	0
 13346 0404 00000000 		.4byte	0
 13347 0408 62010000 		.4byte	.LBB845
 13348 040c 66010000 		.4byte	.LBE845
 13349 0410 6A010000 		.4byte	.LBB849
 13350 0414 6C010000 		.4byte	.LBE849
 13351 0418 00000000 		.4byte	0
 13352 041c 00000000 		.4byte	0
 13353 0420 AC010000 		.4byte	.LBB870
 13354 0424 B0010000 		.4byte	.LBE870
 13355 0428 B6010000 		.4byte	.LBB875
 13356 042c BA010000 		.4byte	.LBE875
 13357 0430 00000000 		.4byte	0
 13358 0434 00000000 		.4byte	0
 13359 0438 D6010000 		.4byte	.LBB884
 13360 043c DA010000 		.4byte	.LBE884
 13361 0440 DE010000 		.4byte	.LBB889
 13362 0444 E0010000 		.4byte	.LBE889
 13363 0448 00000000 		.4byte	0
 13364 044c 00000000 		.4byte	0
 13365 0450 00020000 		.4byte	.LBB898
 13366 0454 04020000 		.4byte	.LBE898
 13367 0458 08020000 		.4byte	.LBB903
 13368 045c 0A020000 		.4byte	.LBE903
 13369 0460 00000000 		.4byte	0
 13370 0464 00000000 		.4byte	0
 13371 0468 10020000 		.4byte	.LBB904
 13372 046c 14020000 		.4byte	.LBE904
 13373 0470 1A020000 		.4byte	.LBB909
 13374 0474 1E020000 		.4byte	.LBE909
 13375 0478 00000000 		.4byte	0
 13376 047c 00000000 		.4byte	0
 13377 0480 2C020000 		.4byte	.LBB914
ARM GAS  /tmp/ccVxBZiF.s 			page 236


 13378 0484 30020000 		.4byte	.LBE914
 13379 0488 3C020000 		.4byte	.LBB919
 13380 048c 40020000 		.4byte	.LBE919
 13381 0490 00000000 		.4byte	0
 13382 0494 00000000 		.4byte	0
 13383 0498 44020000 		.4byte	.LBB920
 13384 049c 46020000 		.4byte	.LBE920
 13385 04a0 4A020000 		.4byte	.LBB926
 13386 04a4 4C020000 		.4byte	.LBE926
 13387 04a8 00000000 		.4byte	0
 13388 04ac 00000000 		.4byte	0
 13389 04b0 46020000 		.4byte	.LBB923
 13390 04b4 4A020000 		.4byte	.LBE923
 13391 04b8 4E020000 		.4byte	.LBB927
 13392 04bc 50020000 		.4byte	.LBE927
 13393 04c0 00000000 		.4byte	0
 13394 04c4 00000000 		.4byte	0
 13395 04c8 7E020000 		.4byte	.LBB940
 13396 04cc 82020000 		.4byte	.LBE940
 13397 04d0 88020000 		.4byte	.LBB945
 13398 04d4 8C020000 		.4byte	.LBE945
 13399 04d8 00000000 		.4byte	0
 13400 04dc 00000000 		.4byte	0
 13401 04e0 B6020000 		.4byte	.LBB958
 13402 04e4 B8020000 		.4byte	.LBE958
 13403 04e8 BC020000 		.4byte	.LBB964
 13404 04ec BE020000 		.4byte	.LBE964
 13405 04f0 00000000 		.4byte	0
 13406 04f4 00000000 		.4byte	0
 13407 04f8 B8020000 		.4byte	.LBB961
 13408 04fc BC020000 		.4byte	.LBE961
 13409 0500 C0020000 		.4byte	.LBB965
 13410 0504 C2020000 		.4byte	.LBE965
 13411 0508 00000000 		.4byte	0
 13412 050c 00000000 		.4byte	0
 13413 0510 1C000000 		.4byte	.LBB1040
 13414 0514 24000000 		.4byte	.LBE1040
 13415 0518 28000000 		.4byte	.LBB1095
 13416 051c B4000000 		.4byte	.LBE1095
 13417 0520 00000000 		.4byte	0
 13418 0524 00000000 		.4byte	0
 13419 0528 28000000 		.4byte	.LBB1042
 13420 052c 5C000000 		.4byte	.LBE1042
 13421 0530 6E000000 		.4byte	.LBB1093
 13422 0534 B4000000 		.4byte	.LBE1093
 13423 0538 00000000 		.4byte	0
 13424 053c 00000000 		.4byte	0
 13425 0540 3A000000 		.4byte	.LBB1044
 13426 0544 3C000000 		.4byte	.LBE1044
 13427 0548 42000000 		.4byte	.LBB1049
 13428 054c 46000000 		.4byte	.LBE1049
 13429 0550 00000000 		.4byte	0
 13430 0554 00000000 		.4byte	0
 13431 0558 50000000 		.4byte	.LBB1050
 13432 055c 54000000 		.4byte	.LBE1050
 13433 0560 A4000000 		.4byte	.LBB1084
 13434 0564 A8000000 		.4byte	.LBE1084
ARM GAS  /tmp/ccVxBZiF.s 			page 237


 13435 0568 00000000 		.4byte	0
 13436 056c 00000000 		.4byte	0
 13437 0570 54000000 		.4byte	.LBB1053
 13438 0574 56000000 		.4byte	.LBE1053
 13439 0578 A2000000 		.4byte	.LBB1083
 13440 057c A4000000 		.4byte	.LBE1083
 13441 0580 A8000000 		.4byte	.LBB1085
 13442 0584 B4000000 		.4byte	.LBE1085
 13443 0588 00000000 		.4byte	0
 13444 058c 00000000 		.4byte	0
 13445 0590 6E000000 		.4byte	.LBB1061
 13446 0594 70000000 		.4byte	.LBE1061
 13447 0598 74000000 		.4byte	.LBB1066
 13448 059c 78000000 		.4byte	.LBE1066
 13449 05a0 00000000 		.4byte	0
 13450 05a4 00000000 		.4byte	0
 13451 05a8 7E000000 		.4byte	.LBB1069
 13452 05ac 82000000 		.4byte	.LBE1069
 13453 05b0 94000000 		.4byte	.LBB1081
 13454 05b4 98000000 		.4byte	.LBE1081
 13455 05b8 00000000 		.4byte	0
 13456 05bc 00000000 		.4byte	0
 13457 05c0 82000000 		.4byte	.LBB1072
 13458 05c4 84000000 		.4byte	.LBE1072
 13459 05c8 90000000 		.4byte	.LBB1080
 13460 05cc 92000000 		.4byte	.LBE1080
 13461 05d0 98000000 		.4byte	.LBB1082
 13462 05d4 9C000000 		.4byte	.LBE1082
 13463 05d8 00000000 		.4byte	0
 13464 05dc 00000000 		.4byte	0
 13465 05e0 5C000000 		.4byte	.LBB1087
 13466 05e4 62000000 		.4byte	.LBE1087
 13467 05e8 6A000000 		.4byte	.LBB1092
 13468 05ec 6E000000 		.4byte	.LBE1092
 13469 05f0 00000000 		.4byte	0
 13470 05f4 00000000 		.4byte	0
 13471 05f8 02000000 		.4byte	.LBB1162
 13472 05fc 04000000 		.4byte	.LBE1162
 13473 0600 06000000 		.4byte	.LBB1165
 13474 0604 16000000 		.4byte	.LBE1165
 13475 0608 00000000 		.4byte	0
 13476 060c 00000000 		.4byte	0
 13477 0610 16000000 		.4byte	.LBB1166
 13478 0614 3C000000 		.4byte	.LBE1166
 13479 0618 58000000 		.4byte	.LBB1212
 13480 061c 7C000000 		.4byte	.LBE1212
 13481 0620 00000000 		.4byte	0
 13482 0624 00000000 		.4byte	0
 13483 0628 24000000 		.4byte	.LBB1168
 13484 062c 28000000 		.4byte	.LBE1168
 13485 0630 2E000000 		.4byte	.LBB1175
 13486 0634 32000000 		.4byte	.LBE1175
 13487 0638 00000000 		.4byte	0
 13488 063c 00000000 		.4byte	0
 13489 0640 28000000 		.4byte	.LBB1171
 13490 0644 2E000000 		.4byte	.LBE1171
 13491 0648 32000000 		.4byte	.LBB1176
ARM GAS  /tmp/ccVxBZiF.s 			page 238


 13492 064c 34000000 		.4byte	.LBE1176
 13493 0650 36000000 		.4byte	.LBB1180
 13494 0654 38000000 		.4byte	.LBE1180
 13495 0658 00000000 		.4byte	0
 13496 065c 00000000 		.4byte	0
 13497 0660 34000000 		.4byte	.LBB1177
 13498 0664 36000000 		.4byte	.LBE1177
 13499 0668 38000000 		.4byte	.LBB1181
 13500 066c 3A000000 		.4byte	.LBE1181
 13501 0670 00000000 		.4byte	0
 13502 0674 00000000 		.4byte	0
 13503 0678 58000000 		.4byte	.LBB1185
 13504 067c 5C000000 		.4byte	.LBE1185
 13505 0680 62000000 		.4byte	.LBB1192
 13506 0684 66000000 		.4byte	.LBE1192
 13507 0688 00000000 		.4byte	0
 13508 068c 00000000 		.4byte	0
 13509 0690 5C000000 		.4byte	.LBB1188
 13510 0694 62000000 		.4byte	.LBE1188
 13511 0698 66000000 		.4byte	.LBB1193
 13512 069c 68000000 		.4byte	.LBE1193
 13513 06a0 6A000000 		.4byte	.LBB1197
 13514 06a4 6C000000 		.4byte	.LBE1197
 13515 06a8 00000000 		.4byte	0
 13516 06ac 00000000 		.4byte	0
 13517 06b0 68000000 		.4byte	.LBB1194
 13518 06b4 6A000000 		.4byte	.LBE1194
 13519 06b8 6C000000 		.4byte	.LBB1198
 13520 06bc 6E000000 		.4byte	.LBE1198
 13521 06c0 00000000 		.4byte	0
 13522 06c4 00000000 		.4byte	0
 13523 06c8 3C000000 		.4byte	.LBB1202
 13524 06cc 40000000 		.4byte	.LBE1202
 13525 06d0 42000000 		.4byte	.LBB1209
 13526 06d4 4A000000 		.4byte	.LBE1209
 13527 06d8 00000000 		.4byte	0
 13528 06dc 00000000 		.4byte	0
 13529 06e0 40000000 		.4byte	.LBB1205
 13530 06e4 42000000 		.4byte	.LBE1205
 13531 06e8 4A000000 		.4byte	.LBB1210
 13532 06ec 4E000000 		.4byte	.LBE1210
 13533 06f0 50000000 		.4byte	.LBB1211
 13534 06f4 54000000 		.4byte	.LBE1211
 13535 06f8 00000000 		.4byte	0
 13536 06fc 00000000 		.4byte	0
 13537 0700 6E000000 		.4byte	.LBB1213
 13538 0704 74000000 		.4byte	.LBE1213
 13539 0708 78000000 		.4byte	.LBB1216
 13540 070c 7A000000 		.4byte	.LBE1216
 13541 0710 00000000 		.4byte	0
 13542 0714 00000000 		.4byte	0
 13543 0718 7C000000 		.4byte	.LBB1217
 13544 071c 82000000 		.4byte	.LBE1217
 13545 0720 88000000 		.4byte	.LBB1222
 13546 0724 8E000000 		.4byte	.LBE1222
 13547 0728 96000000 		.4byte	.LBB1223
 13548 072c 98000000 		.4byte	.LBE1223
ARM GAS  /tmp/ccVxBZiF.s 			page 239


 13549 0730 9E000000 		.4byte	.LBB1224
 13550 0734 A2000000 		.4byte	.LBE1224
 13551 0738 00000000 		.4byte	0
 13552 073c 00000000 		.4byte	0
 13553 0740 BA000000 		.4byte	.LBB1225
 13554 0744 BE000000 		.4byte	.LBE1225
 13555 0748 C0000000 		.4byte	.LBB1229
 13556 074c C2000000 		.4byte	.LBE1229
 13557 0750 C4000000 		.4byte	.LBB1230
 13558 0754 C6000000 		.4byte	.LBE1230
 13559 0758 00000000 		.4byte	0
 13560 075c 00000000 		.4byte	0
 13561 0760 DA000000 		.4byte	.LBB1231
 13562 0764 E0000000 		.4byte	.LBE1231
 13563 0768 E6000000 		.4byte	.LBB1238
 13564 076c EA000000 		.4byte	.LBE1238
 13565 0770 FE000000 		.4byte	.LBB1239
 13566 0774 06010000 		.4byte	.LBE1239
 13567 0778 14010000 		.4byte	.LBB1240
 13568 077c 16010000 		.4byte	.LBE1240
 13569 0780 20010000 		.4byte	.LBB1241
 13570 0784 24010000 		.4byte	.LBE1241
 13571 0788 28010000 		.4byte	.LBB1242
 13572 078c 2A010000 		.4byte	.LBE1242
 13573 0790 00000000 		.4byte	0
 13574 0794 00000000 		.4byte	0
 13575 0798 40000000 		.4byte	.LBB1243
 13576 079c 66000000 		.4byte	.LBE1243
 13577 07a0 7C000000 		.4byte	.LBB1244
 13578 07a4 3E010000 		.4byte	.LBE1244
 13579 07a8 44010000 		.4byte	.LBB1245
 13580 07ac BC010000 		.4byte	.LBE1245
 13581 07b0 00000000 		.4byte	0
 13582 07b4 00000000 		.4byte	0
 13583 07b8 00000000 		.4byte	.LFB133
 13584 07bc BC010000 		.4byte	.LFE133
 13585 07c0 00000000 		.4byte	.LFB119
 13586 07c4 64000000 		.4byte	.LFE119
 13587 07c8 00000000 		.4byte	.LFB135
 13588 07cc 0E030000 		.4byte	.LFE135
 13589 07d0 00000000 		.4byte	.LFB136
 13590 07d4 B4000000 		.4byte	.LFE136
 13591 07d8 00000000 		.4byte	.LFB122
 13592 07dc 60010000 		.4byte	.LFE122
 13593 07e0 00000000 		.4byte	.LFB120
 13594 07e4 0A010000 		.4byte	.LFE120
 13595 07e8 00000000 		.4byte	.LFB137
 13596 07ec 7C000000 		.4byte	.LFE137
 13597 07f0 00000000 		.4byte	.LFB138
 13598 07f4 B0000000 		.4byte	.LFE138
 13599 07f8 00000000 		.4byte	.LFB118
 13600 07fc D6020000 		.4byte	.LFE118
 13601 0800 00000000 		.4byte	.LFB121
 13602 0804 E6000000 		.4byte	.LFE121
 13603 0808 00000000 		.4byte	.LFB139
 13604 080c 44010000 		.4byte	.LFE139
 13605 0810 00000000 		.4byte	.LFB123
ARM GAS  /tmp/ccVxBZiF.s 			page 240


 13606 0814 BC010000 		.4byte	.LFE123
 13607 0818 00000000 		.4byte	0
 13608 081c 00000000 		.4byte	0
 13609              		.section	.debug_line,"",%progbits
 13610              	.Ldebug_line0:
 13611 0000 3A0D0000 		.section	.debug_str,"MS",%progbits,1
 13611      02001E02 
 13611      00000201 
 13611      FB0E0D00 
 13611      01010101 
 13612              	.LASF85:
 13613 0000 47444953 		.ascii	"GDISP_ROTATE_90\000"
 13613      505F524F 
 13613      54415445 
 13613      5F393000 
 13614              	.LASF97:
 13615 0010 47444953 		.ascii	"GDISPDriver_t\000"
 13615      50447269 
 13615      7665725F 
 13615      7400
 13616              	.LASF54:
 13617 001e 50555044 		.ascii	"PUPDR\000"
 13617      5200
 13618              	.LASF56:
 13619 0024 4C434B52 		.ascii	"LCKR\000"
 13619      00
 13620              	.LASF72:
 13621 0029 63686172 		.ascii	"charPadding\000"
 13621      50616464 
 13621      696E6700 
 13622              	.LASF99:
 13623 0035 48656967 		.ascii	"Height\000"
 13623      687400
 13624              	.LASF121:
 13625 003c 61637175 		.ascii	"acquire_bus\000"
 13625      6972655F 
 13625      62757300 
 13626              	.LASF52:
 13627 0048 4F545950 		.ascii	"OTYPER\000"
 13627      455200
 13628              	.LASF149:
 13629 004f 67646973 		.ascii	"gdisp_lld_fill_char\000"
 13629      705F6C6C 
 13629      645F6669 
 13629      6C6C5F63 
 13629      68617200 
 13630              	.LASF9:
 13631 0063 6C6F6E67 		.ascii	"long int\000"
 13631      20696E74 
 13631      00
 13632              	.LASF75:
 13633 006c 6D696E57 		.ascii	"minWidth\000"
 13633      69647468 
 13633      00
 13634              	.LASF51:
 13635 0075 4D4F4445 		.ascii	"MODER\000"
 13635      5200
ARM GAS  /tmp/ccVxBZiF.s 			page 241


 13636              	.LASF76:
 13637 007b 6D617857 		.ascii	"maxWidth\000"
 13637      69647468 
 13637      00
 13638              	.LASF13:
 13639 0084 6C6F6E67 		.ascii	"long long unsigned int\000"
 13639      206C6F6E 
 13639      6720756E 
 13639      7369676E 
 13639      65642069 
 13640              	.LASF74:
 13641 009b 64657363 		.ascii	"descenderHeight\000"
 13641      656E6465 
 13641      72486569 
 13641      67687400 
 13642              	.LASF140:
 13643 00ab 64696666 		.ascii	"diff\000"
 13643      00
 13644              	.LASF138:
 13645 00b0 61646478 		.ascii	"addx\000"
 13645      00
 13646              	.LASF139:
 13647 00b5 61646479 		.ascii	"addy\000"
 13647      00
 13648              	.LASF151:
 13649 00ba 49544D5F 		.ascii	"ITM_RxBuffer\000"
 13649      52784275 
 13649      66666572 
 13649      00
 13650              	.LASF116:
 13651 00c7 77726974 		.ascii	"write_data\000"
 13651      655F6461 
 13651      746100
 13652              	.LASF38:
 13653 00d2 41484231 		.ascii	"AHB1LPENR\000"
 13653      4C50454E 
 13653      5200
 13654              	.LASF4:
 13655 00dc 696E7431 		.ascii	"int16_t\000"
 13655      365F7400 
 13656              	.LASF12:
 13657 00e4 6C6F6E67 		.ascii	"long long int\000"
 13657      206C6F6E 
 13657      6720696E 
 13657      7400
 13658              	.LASF1:
 13659 00f2 7369676E 		.ascii	"signed char\000"
 13659      65642063 
 13659      68617200 
 13660              	.LASF55:
 13661 00fe 42535252 		.ascii	"BSRR\000"
 13661      00
 13662              	.LASF24:
 13663 0103 41484231 		.ascii	"AHB1RSTR\000"
 13663      52535452 
 13663      00
 13664              	.LASF78:
ARM GAS  /tmp/ccVxBZiF.s 			page 242


 13665 010c 6D617843 		.ascii	"maxChar\000"
 13665      68617200 
 13666              	.LASF15:
 13667 0114 626F6F6C 		.ascii	"bool_t\000"
 13667      5F7400
 13668              	.LASF100:
 13669 011b 4F726965 		.ascii	"Orientation\000"
 13669      6E746174 
 13669      696F6E00 
 13670              	.LASF120:
 13671 0127 73746174 		.ascii	"state\000"
 13671      6500
 13672              	.LASF161:
 13673 012d 67646973 		.ascii	"gdisp_lld_init\000"
 13673      705F6C6C 
 13673      645F696E 
 13673      697400
 13674              	.LASF29:
 13675 013c 41504232 		.ascii	"APB2RSTR\000"
 13675      52535452 
 13675      00
 13676              	.LASF141:
 13677 0145 67646973 		.ascii	"gdisp_lld_fill_circle\000"
 13677      705F6C6C 
 13677      645F6669 
 13677      6C6C5F63 
 13677      6972636C 
 13678              	.LASF158:
 13679 015b 2E2E2F2E 		.ascii	"../../ext/ugfx/drivers/gdisp/SSD1289/gdisp_lld.c\000"
 13679      2E2F6578 
 13679      742F7567 
 13679      66782F64 
 13679      72697665 
 13680              	.LASF160:
 13681 018c 7365745F 		.ascii	"set_viewport\000"
 13681      76696577 
 13681      706F7274 
 13681      00
 13682              	.LASF22:
 13683 0199 504C4C43 		.ascii	"PLLCFGR\000"
 13683      46475200 
 13684              	.LASF81:
 13685 01a1 77696474 		.ascii	"widthTable\000"
 13685      68546162 
 13685      6C6500
 13686              	.LASF124:
 13687 01ac 696E6974 		.ascii	"init_board\000"
 13687      5F626F61 
 13687      726400
 13688              	.LASF127:
 13689 01b7 67646973 		.ascii	"gdisp_lld_set_clip\000"
 13689      705F6C6C 
 13689      645F7365 
 13689      745F636C 
 13689      697000
 13690              	.LASF53:
 13691 01ca 4F535045 		.ascii	"OSPEEDR\000"
ARM GAS  /tmp/ccVxBZiF.s 			page 243


 13691      45445200 
 13692              	.LASF64:
 13693 01d2 6D61736B 		.ascii	"mask\000"
 13693      00
 13694              	.LASF119:
 13695 01d7 73657470 		.ascii	"setpin_reset\000"
 13695      696E5F72 
 13695      65736574 
 13695      00
 13696              	.LASF128:
 13697 01e4 67646973 		.ascii	"gdisp_lld_draw_char\000"
 13697      705F6C6C 
 13697      645F6472 
 13697      61775F63 
 13697      68617200 
 13698              	.LASF118:
 13699 01f8 7365745F 		.ascii	"set_cursor\000"
 13699      63757273 
 13699      6F7200
 13700              	.LASF66:
 13701 0203 494F4275 		.ascii	"IOBus\000"
 13701      7300
 13702              	.LASF108:
 13703 0209 47444953 		.ascii	"GDISPDriver\000"
 13703      50447269 
 13703      76657200 
 13704              	.LASF0:
 13705 0215 756E7369 		.ascii	"unsigned int\000"
 13705      676E6564 
 13705      20696E74 
 13705      00
 13706              	.LASF91:
 13707 0222 706F7765 		.ascii	"powerOff\000"
 13707      724F6666 
 13707      00
 13708              	.LASF136:
 13709 022b 67646973 		.ascii	"gdisp_lld_fill_area\000"
 13709      705F6C6C 
 13709      645F6669 
 13709      6C6C5F61 
 13709      72656100 
 13710              	.LASF6:
 13711 023f 75696E74 		.ascii	"uint16_t\000"
 13711      31365F74 
 13711      00
 13712              	.LASF103:
 13713 0248 436F6E74 		.ascii	"Contrast\000"
 13713      72617374 
 13713      00
 13714              	.LASF73:
 13715 0251 6C696E65 		.ascii	"lineSpacing\000"
 13715      53706163 
 13715      696E6700 
 13716              	.LASF11:
 13717 025d 6C6F6E67 		.ascii	"long unsigned int\000"
 13717      20756E73 
 13717      69676E65 
ARM GAS  /tmp/ccVxBZiF.s 			page 244


 13717      6420696E 
 13717      7400
 13718              	.LASF59:
 13719 026f 4750494F 		.ascii	"GPIO_TypeDef\000"
 13719      5F547970 
 13719      65446566 
 13719      00
 13720              	.LASF33:
 13721 027c 41484233 		.ascii	"AHB3ENR\000"
 13721      454E5200 
 13722              	.LASF49:
 13723 0284 5243435F 		.ascii	"RCC_TypeDef\000"
 13723      54797065 
 13723      44656600 
 13724              	.LASF94:
 13725 0290 706F7765 		.ascii	"powerOn\000"
 13725      724F6E00 
 13726              	.LASF131:
 13727 0298 67646973 		.ascii	"gdisp_lld_draw_circle\000"
 13727      705F6C6C 
 13727      645F6472 
 13727      61775F63 
 13727      6972636C 
 13728              	.LASF130:
 13729 02ae 77696474 		.ascii	"width\000"
 13729      6800
 13730              	.LASF70:
 13731 02b4 6E616D65 		.ascii	"name\000"
 13731      00
 13732              	.LASF117:
 13733 02b9 64617461 		.ascii	"data\000"
 13733      00
 13734              	.LASF7:
 13735 02be 73686F72 		.ascii	"short unsigned int\000"
 13735      7420756E 
 13735      7369676E 
 13735      65642069 
 13735      6E7400
 13736              	.LASF42:
 13737 02d1 41504231 		.ascii	"APB1LPENR\000"
 13737      4C50454E 
 13737      5200
 13738              	.LASF48:
 13739 02db 504C4C49 		.ascii	"PLLI2SCFGR\000"
 13739      32534346 
 13739      475200
 13740              	.LASF95:
 13741 02e6 67646973 		.ascii	"gdisp_powermode_t\000"
 13741      705F706F 
 13741      7765726D 
 13741      6F64655F 
 13741      7400
 13742              	.LASF26:
 13743 02f8 41484233 		.ascii	"AHB3RSTR\000"
 13743      52535452 
 13743      00
 13744              	.LASF112:
ARM GAS  /tmp/ccVxBZiF.s 			page 245


 13745 0301 7365745F 		.ascii	"set_backlight\000"
 13745      6261636B 
 13745      6C696768 
 13745      7400
 13746              	.LASF150:
 13747 030f 6267636F 		.ascii	"bgcolor\000"
 13747      6C6F7200 
 13748              	.LASF43:
 13749 0317 41504232 		.ascii	"APB2LPENR\000"
 13749      4C50454E 
 13749      5200
 13750              	.LASF5:
 13751 0321 73686F72 		.ascii	"short int\000"
 13751      7420696E 
 13751      7400
 13752              	.LASF157:
 13753 032b 474E5520 		.ascii	"GNU C 4.7.4 20130613 (release) [ARM/embedded-4_7-br"
 13753      4320342E 
 13753      372E3420 
 13753      32303133 
 13753      30363133 
 13754 035e 616E6368 		.ascii	"anch revision 200083]\000"
 13754      20726576 
 13754      6973696F 
 13754      6E203230 
 13754      30303833 
 13755              	.LASF152:
 13756 0374 47444953 		.ascii	"GDISP\000"
 13756      5000
 13757              	.LASF79:
 13758 037a 78736361 		.ascii	"xscale\000"
 13758      6C6500
 13759              	.LASF132:
 13760 0381 72616469 		.ascii	"radius\000"
 13760      757300
 13761              	.LASF109:
 13762 0388 636F6C6F 		.ascii	"color_t\000"
 13762      725F7400 
 13763              	.LASF104:
 13764 0390 636C6970 		.ascii	"clipx0\000"
 13764      783000
 13765              	.LASF106:
 13766 0397 636C6970 		.ascii	"clipx1\000"
 13766      783100
 13767              	.LASF162:
 13768 039e 67667853 		.ascii	"gfxSleepMicroseconds\000"
 13768      6C656570 
 13768      4D696372 
 13768      6F736563 
 13768      6F6E6473 
 13769              	.LASF18:
 13770 03b3 73697A65 		.ascii	"sizetype\000"
 13770      74797065 
 13770      00
 13771              	.LASF50:
 13772 03bc 636C6561 		.ascii	"clear\000"
 13772      7200
ARM GAS  /tmp/ccVxBZiF.s 			page 246


 13773              	.LASF60:
 13774 03c2 696F706F 		.ascii	"ioportmask_t\000"
 13774      72746D61 
 13774      736B5F74 
 13774      00
 13775              	.LASF134:
 13776 03cf 67646973 		.ascii	"gdisp_lld_clear\000"
 13776      705F6C6C 
 13776      645F636C 
 13776      65617200 
 13777              	.LASF89:
 13778 03df 6F726965 		.ascii	"orientation\000"
 13778      6E746174 
 13778      696F6E00 
 13779              	.LASF39:
 13780 03eb 41484232 		.ascii	"AHB2LPENR\000"
 13780      4C50454E 
 13780      5200
 13781              	.LASF82:
 13782 03f5 6F666673 		.ascii	"offsetTable\000"
 13782      65745461 
 13782      626C6500 
 13783              	.LASF68:
 13784 0401 636F6F72 		.ascii	"coord_t\000"
 13784      645F7400 
 13785              	.LASF90:
 13786 0409 706F7765 		.ascii	"powermode\000"
 13786      726D6F64 
 13786      6500
 13787              	.LASF142:
 13788 0413 67646973 		.ascii	"gdisp_lld_blit_area_ex\000"
 13788      705F6C6C 
 13788      645F626C 
 13788      69745F61 
 13788      7265615F 
 13789              	.LASF28:
 13790 042a 41504231 		.ascii	"APB1RSTR\000"
 13790      52535452 
 13790      00
 13791              	.LASF63:
 13792 0433 706F7274 		.ascii	"portid\000"
 13792      696400
 13793              	.LASF58:
 13794 043a 41465248 		.ascii	"AFRH\000"
 13794      00
 13795              	.LASF154:
 13796 043f 70616C53 		.ascii	"palSetBusMode\000"
 13796      65744275 
 13796      734D6F64 
 13796      6500
 13797              	.LASF57:
 13798 044d 4146524C 		.ascii	"AFRL\000"
 13798      00
 13799              	.LASF80:
 13800 0452 79736361 		.ascii	"yscale\000"
 13800      6C6500
 13801              	.LASF153:
ARM GAS  /tmp/ccVxBZiF.s 			page 247


 13802 0459 67646973 		.ascii	"gdisp_lld_draw_pixel\000"
 13802      705F6C6C 
 13802      645F6472 
 13802      61775F70 
 13802      6978656C 
 13803              	.LASF30:
 13804 046e 52455345 		.ascii	"RESERVED1\000"
 13804      52564544 
 13804      3100
 13805              	.LASF34:
 13806 0478 52455345 		.ascii	"RESERVED2\000"
 13806      52564544 
 13806      3200
 13807              	.LASF37:
 13808 0482 52455345 		.ascii	"RESERVED3\000"
 13808      52564544 
 13808      3300
 13809              	.LASF41:
 13810 048c 52455345 		.ascii	"RESERVED4\000"
 13810      52564544 
 13810      3400
 13811              	.LASF44:
 13812 0496 52455345 		.ascii	"RESERVED5\000"
 13812      52564544 
 13812      3500
 13813              	.LASF46:
 13814 04a0 52455345 		.ascii	"RESERVED6\000"
 13814      52564544 
 13814      3600
 13815              	.LASF105:
 13816 04aa 636C6970 		.ascii	"clipy0\000"
 13816      793000
 13817              	.LASF107:
 13818 04b1 636C6970 		.ascii	"clipy1\000"
 13818      793100
 13819              	.LASF16:
 13820 04b8 5F426F6F 		.ascii	"_Bool\000"
 13820      6C00
 13821              	.LASF8:
 13822 04be 696E7433 		.ascii	"int32_t\000"
 13822      325F7400 
 13823              	.LASF2:
 13824 04c6 756E7369 		.ascii	"unsigned char\000"
 13824      676E6564 
 13824      20636861 
 13824      7200
 13825              	.LASF93:
 13826 04d4 706F7765 		.ascii	"powerDeepSleep\000"
 13826      72446565 
 13826      70536C65 
 13826      657000
 13827              	.LASF87:
 13828 04e3 47444953 		.ascii	"GDISP_ROTATE_270\000"
 13828      505F524F 
 13828      54415445 
 13828      5F323730 
 13828      00
ARM GAS  /tmp/ccVxBZiF.s 			page 248


 13829              	.LASF135:
 13830 04f4 61726561 		.ascii	"area\000"
 13830      00
 13831              	.LASF122:
 13832 04f9 72656C65 		.ascii	"release_bus\000"
 13832      6173655F 
 13832      62757300 
 13833              	.LASF40:
 13834 0505 41484233 		.ascii	"AHB3LPENR\000"
 13834      4C50454E 
 13834      5200
 13835              	.LASF14:
 13836 050f 75696E74 		.ascii	"uint_fast8_t\000"
 13836      5F666173 
 13836      74385F74 
 13836      00
 13837              	.LASF146:
 13838 051c 62756666 		.ascii	"buffer\000"
 13838      657200
 13839              	.LASF36:
 13840 0523 41504232 		.ascii	"APB2ENR\000"
 13840      454E5200 
 13841              	.LASF27:
 13842 052b 52455345 		.ascii	"RESERVED0\000"
 13842      52564544 
 13842      3000
 13843              	.LASF67:
 13844 0535 64656C61 		.ascii	"delaytime_t\000"
 13844      7974696D 
 13844      655F7400 
 13845              	.LASF159:
 13846 0541 2F686F6D 		.ascii	"/home/witold/Dokumenty/arm/ChibiOS-master/demos/wid"
 13846      652F7769 
 13846      746F6C64 
 13846      2F446F6B 
 13846      756D656E 
 13847 0574 67657473 		.ascii	"gets\000"
 13847      00
 13848              	.LASF20:
 13849 0579 46534D43 		.ascii	"FSMC_Bank1_TypeDef\000"
 13849      5F42616E 
 13849      6B315F54 
 13849      79706544 
 13849      656600
 13850              	.LASF10:
 13851 058c 75696E74 		.ascii	"uint32_t\000"
 13851      33325F74 
 13851      00
 13852              	.LASF102:
 13853 0595 4261636B 		.ascii	"Backlight\000"
 13853      6C696768 
 13853      7400
 13854              	.LASF111:
 13855 059f 666F6E74 		.ascii	"fontcolumn_t\000"
 13855      636F6C75 
 13855      6D6E5F74 
 13855      00
ARM GAS  /tmp/ccVxBZiF.s 			page 249


 13856              	.LASF45:
 13857 05ac 42444352 		.ascii	"BDCR\000"
 13857      00
 13858              	.LASF77:
 13859 05b1 6D696E43 		.ascii	"minChar\000"
 13859      68617200 
 13860              	.LASF123:
 13861 05b9 636F6C6F 		.ascii	"color\000"
 13861      7200
 13862              	.LASF19:
 13863 05bf 63686172 		.ascii	"char\000"
 13863      00
 13864              	.LASF114:
 13865 05c4 70657263 		.ascii	"percent\000"
 13865      656E7400 
 13866              	.LASF143:
 13867 05cc 73726378 		.ascii	"srcx\000"
 13867      00
 13868              	.LASF144:
 13869 05d1 73726379 		.ascii	"srcy\000"
 13869      00
 13870              	.LASF25:
 13871 05d6 41484232 		.ascii	"AHB2RSTR\000"
 13871      52535452 
 13871      00
 13872              	.LASF115:
 13873 05df 696E6465 		.ascii	"index\000"
 13873      7800
 13874              	.LASF101:
 13875 05e5 506F7765 		.ascii	"Powermode\000"
 13875      726D6F64 
 13875      6500
 13876              	.LASF17:
 13877 05ef 73797374 		.ascii	"systime_t\000"
 13877      696D655F 
 13877      7400
 13878              	.LASF125:
 13879 05f9 62757344 		.ascii	"busD\000"
 13879      00
 13880              	.LASF126:
 13881 05fe 62757345 		.ascii	"busE\000"
 13881      00
 13882              	.LASF137:
 13883 0603 67646973 		.ascii	"gdisp_lld_draw_line\000"
 13883      705F6C6C 
 13883      645F6472 
 13883      61775F6C 
 13883      696E6500 
 13884              	.LASF65:
 13885 0617 6F666673 		.ascii	"offset\000"
 13885      657400
 13886              	.LASF35:
 13887 061e 41504231 		.ascii	"APB1ENR\000"
 13887      454E5200 
 13888              	.LASF62:
 13889 0626 696F706F 		.ascii	"ioportid_t\000"
 13889      72746964 
ARM GAS  /tmp/ccVxBZiF.s 			page 250


 13889      5F7400
 13890              	.LASF129:
 13891 0631 636F6C75 		.ascii	"column\000"
 13891      6D6E00
 13892              	.LASF32:
 13893 0638 41484232 		.ascii	"AHB2ENR\000"
 13893      454E5200 
 13894              	.LASF155:
 13895 0640 5F70616C 		.ascii	"_pal_lld_setgroupmode\000"
 13895      5F6C6C64 
 13895      5F736574 
 13895      67726F75 
 13895      706D6F64 
 13896              	.LASF147:
 13897 0656 656E6478 		.ascii	"endx\000"
 13897      00
 13898              	.LASF148:
 13899 065b 656E6479 		.ascii	"endy\000"
 13899      00
 13900              	.LASF113:
 13901 0660 77726974 		.ascii	"write_index\000"
 13901      655F696E 
 13901      64657800 
 13902              	.LASF145:
 13903 066c 73726363 		.ascii	"srccx\000"
 13903      7800
 13904              	.LASF47:
 13905 0672 53534347 		.ascii	"SSCGR\000"
 13905      5200
 13906              	.LASF110:
 13907 0678 70697865 		.ascii	"pixel_t\000"
 13907      6C5F7400 
 13908              	.LASF96:
 13909 0680 666F6E74 		.ascii	"font\000"
 13909      00
 13910              	.LASF84:
 13911 0685 47444953 		.ascii	"GDISP_ROTATE_0\000"
 13911      505F524F 
 13911      54415445 
 13911      5F3000
 13912              	.LASF3:
 13913 0694 75696E74 		.ascii	"uint8_t\000"
 13913      385F7400 
 13914              	.LASF156:
 13915 069c 67667853 		.ascii	"gfxSleepMilliseconds\000"
 13915      6C656570 
 13915      4D696C6C 
 13915      69736563 
 13915      6F6E6473 
 13916              	.LASF133:
 13917 06b1 72657365 		.ascii	"reset_viewport\000"
 13917      745F7669 
 13917      6577706F 
 13917      727400
 13918              	.LASF92:
 13919 06c0 706F7765 		.ascii	"powerSleep\000"
 13919      72536C65 
ARM GAS  /tmp/ccVxBZiF.s 			page 251


 13919      657000
 13920              	.LASF69:
 13921 06cb 666F6E74 		.ascii	"font_t\000"
 13921      5F7400
 13922              	.LASF31:
 13923 06d2 41484231 		.ascii	"AHB1ENR\000"
 13923      454E5200 
 13924              	.LASF83:
 13925 06da 64617461 		.ascii	"dataTable\000"
 13925      5461626C 
 13925      6500
 13926              	.LASF88:
 13927 06e4 67646973 		.ascii	"gdisp_orientation_t\000"
 13927      705F6F72 
 13927      69656E74 
 13927      6174696F 
 13927      6E5F7400 
 13928              	.LASF23:
 13929 06f8 43464752 		.ascii	"CFGR\000"
 13929      00
 13930              	.LASF98:
 13931 06fd 57696474 		.ascii	"Width\000"
 13931      6800
 13932              	.LASF71:
 13933 0703 68656967 		.ascii	"height\000"
 13933      687400
 13934              	.LASF86:
 13935 070a 47444953 		.ascii	"GDISP_ROTATE_180\000"
 13935      505F524F 
 13935      54415445 
 13935      5F313830 
 13935      00
 13936              	.LASF61:
 13937 071b 696F6D6F 		.ascii	"iomode_t\000"
 13937      64655F74 
 13937      00
 13938              	.LASF21:
 13939 0724 42544352 		.ascii	"BTCR\000"
 13939      00
 13940              		.ident	"GCC: (GNU Tools for ARM Embedded Processors) 4.7.4 20130613 (release) [ARM/embedded-4_7-br
ARM GAS  /tmp/ccVxBZiF.s 			page 252


DEFINED SYMBOLS
                            *ABS*:00000000 gdisp_lld.c
     /tmp/ccVxBZiF.s:21     .text.set_viewport:00000000 $t
     /tmp/ccVxBZiF.s:26     .text.set_viewport:00000000 set_viewport
     /tmp/ccVxBZiF.s:48     .text.set_viewport:00000010 $d
     /tmp/ccVxBZiF.s:52     .text.set_viewport:00000014 $t
     /tmp/ccVxBZiF.s:669    .text.set_viewport:00000184 $d
     /tmp/ccVxBZiF.s:673    .text.set_viewport:00000188 $t
     /tmp/ccVxBZiF.s:714    .text.set_viewport:000001b8 $d
     /tmp/ccVxBZiF.s:721    .text.gdisp_lld_set_clip:00000000 $t
     /tmp/ccVxBZiF.s:727    .text.gdisp_lld_set_clip:00000000 gdisp_lld_set_clip
     /tmp/ccVxBZiF.s:804    .text.gdisp_lld_set_clip:00000060 $d
     /tmp/ccVxBZiF.s:809    .text.gdisp_lld_init:00000000 $t
     /tmp/ccVxBZiF.s:815    .text.gdisp_lld_init:00000000 gdisp_lld_init
     /tmp/ccVxBZiF.s:4370   .rodata:00000000 .LANCHOR1
     /tmp/ccVxBZiF.s:4388   .bss.GDISP:00000000 .LANCHOR0
     /tmp/ccVxBZiF.s:1912   .text.gdisp_lld_draw_pixel:00000000 $t
     /tmp/ccVxBZiF.s:1918   .text.gdisp_lld_draw_pixel:00000000 gdisp_lld_draw_pixel
     /tmp/ccVxBZiF.s:1972   .text.gdisp_lld_draw_pixel:00000032 $d
     /tmp/ccVxBZiF.s:1976   .text.gdisp_lld_draw_pixel:00000036 $t
     /tmp/ccVxBZiF.s:2181   .text.gdisp_lld_draw_pixel:000000b0 $d
     /tmp/ccVxBZiF.s:2192   .text.gdisp_lld_draw_char:00000000 $t
     /tmp/ccVxBZiF.s:2198   .text.gdisp_lld_draw_char:00000000 gdisp_lld_draw_char
     /tmp/ccVxBZiF.s:2470   .text.gdisp_lld_draw_circle:00000000 $t
     /tmp/ccVxBZiF.s:2476   .text.gdisp_lld_draw_circle:00000000 gdisp_lld_draw_circle
     /tmp/ccVxBZiF.s:2663   .text.gdisp_lld_clear:00000000 $t
     /tmp/ccVxBZiF.s:2669   .text.gdisp_lld_clear:00000000 gdisp_lld_clear
     /tmp/ccVxBZiF.s:2711   .text.gdisp_lld_clear:00000020 $d
     /tmp/ccVxBZiF.s:2715   .text.gdisp_lld_clear:00000024 $t
     /tmp/ccVxBZiF.s:2878   .text.gdisp_lld_clear:00000078 $d
     /tmp/ccVxBZiF.s:2888   .text.gdisp_lld_fill_area:00000000 $t
     /tmp/ccVxBZiF.s:2894   .text.gdisp_lld_fill_area:00000000 gdisp_lld_fill_area
     /tmp/ccVxBZiF.s:3056   .text.gdisp_lld_fill_area:000000ac $d
     /tmp/ccVxBZiF.s:3061   .text.gdisp_lld_draw_line:00000000 $t
     /tmp/ccVxBZiF.s:3067   .text.gdisp_lld_draw_line:00000000 gdisp_lld_draw_line
     /tmp/ccVxBZiF.s:3592   .text.gdisp_lld_fill_circle:00000000 $t
     /tmp/ccVxBZiF.s:3598   .text.gdisp_lld_fill_circle:00000000 gdisp_lld_fill_circle
     /tmp/ccVxBZiF.s:3759   .text.gdisp_lld_blit_area_ex:00000000 $t
     /tmp/ccVxBZiF.s:3765   .text.gdisp_lld_blit_area_ex:00000000 gdisp_lld_blit_area_ex
     /tmp/ccVxBZiF.s:4038   .text.gdisp_lld_blit_area_ex:00000140 $d
     /tmp/ccVxBZiF.s:4043   .text.gdisp_lld_fill_char:00000000 $t
     /tmp/ccVxBZiF.s:4049   .text.gdisp_lld_fill_char:00000000 gdisp_lld_fill_char
     /tmp/ccVxBZiF.s:4362   .text.gdisp_lld_fill_char:000001b8 $d
     /tmp/ccVxBZiF.s:4391   .bss.GDISP:00000000 GDISP
     /tmp/ccVxBZiF.s:4369   .rodata:00000000 $d
     /tmp/ccVxBZiF.s:4380   .bss.buf.8094:00000000 $d
     /tmp/ccVxBZiF.s:4384   .bss.buf.8094:00000000 buf.8094
     /tmp/ccVxBZiF.s:4387   .bss.GDISP:00000000 $d
                     .debug_frame:00000010 $d
     /tmp/ccVxBZiF.s:720    .text.set_viewport:000001bc $t
     /tmp/ccVxBZiF.s:808    .text.gdisp_lld_set_clip:00000064 $t
     /tmp/ccVxBZiF.s:2191   .text.gdisp_lld_draw_pixel:000000b4 $t
     /tmp/ccVxBZiF.s:2887   .text.gdisp_lld_clear:0000007c $t
     /tmp/ccVxBZiF.s:4042   .text.gdisp_lld_blit_area_ex:00000144 $t
     /tmp/ccVxBZiF.s:4368   .text.gdisp_lld_fill_char:000001bc $t

UNDEFINED SYMBOLS
ARM GAS  /tmp/ccVxBZiF.s 			page 253


palSetBusMode
_pal_lld_setgroupmode
gfxSleepMilliseconds
gfxSleepMicroseconds
