ARM GAS  /tmp/ccAUe7jC.s 			page 1


   1              		.syntax unified
   2              		.cpu cortex-m4
   3              		.eabi_attribute 27, 3
   4              		.eabi_attribute 28, 1
   5              		.fpu fpv4-sp-d16
   6              		.eabi_attribute 20, 1
   7              		.eabi_attribute 21, 1
   8              		.eabi_attribute 23, 3
   9              		.eabi_attribute 24, 1
  10              		.eabi_attribute 25, 1
  11              		.eabi_attribute 26, 1
  12              		.eabi_attribute 30, 2
  13              		.eabi_attribute 34, 1
  14              		.eabi_attribute 18, 4
  15              		.thumb
  16              		.file	"gdisp.c"
  17              		.text
  18              	.Ltext0:
  19              		.cfi_sections	.debug_frame
  20              		.section	.text._gdispInit,"ax",%progbits
  21              		.align	2
  22              		.p2align 4,,15
  23              		.global	_gdispInit
  24              		.thumb
  25              		.thumb_func
  26              		.type	_gdispInit, %function
  27              	_gdispInit:
  28              	.LFB118:
  29              		.file 1 "../../ext/ugfx/src/gdisp/gdisp.c"
  30              		.loc 1 103 0
  31              		.cfi_startproc
  32              		@ args = 0, pretend = 0, frame = 0
  33              		@ frame_needed = 0, uses_anonymous_args = 0
  34 0000 10B5     		push	{r4, lr}
  35              	.LCFI0:
  36              		.cfi_def_cfa_offset 8
  37              		.cfi_offset 4, -8
  38              		.cfi_offset 14, -4
  39              		.loc 1 105 0
  40 0002 40F20004 		movw	r4, #:lower16:.LANCHOR0
  41 0006 C0F20004 		movt	r4, #:upper16:.LANCHOR0
  42 000a 2046     		mov	r0, r4
  43 000c FFF7FEFF 		bl	chMtxInit
  44              	.LVL0:
  45              		.loc 1 108 0
  46 0010 2046     		mov	r0, r4
  47 0012 FFF7FEFF 		bl	chMtxLock
  48              	.LVL1:
  49              		.loc 1 109 0
  50 0016 FFF7FEFF 		bl	gdisp_lld_init
  51              	.LVL2:
  52              		.loc 1 111 0
  53 001a BDE81040 		pop	{r4, lr}
  54              		.loc 1 110 0
  55 001e FFF7FEBF 		b	chMtxUnlock
  56              	.LVL3:
  57              		.cfi_endproc
ARM GAS  /tmp/ccAUe7jC.s 			page 2


  58              	.LFE118:
  59              		.size	_gdispInit, .-_gdispInit
  60 0022 00BFAFF3 		.section	.text.gdispIsBusy,"ax",%progbits
  60      0080AFF3 
  60      0080AFF3 
  60      0080
  61              		.align	2
  62              		.p2align 4,,15
  63              		.global	gdispIsBusy
  64              		.thumb
  65              		.thumb_func
  66              		.type	gdispIsBusy, %function
  67              	gdispIsBusy:
  68              	.LFB119:
  69              		.loc 1 145 0
  70              		.cfi_startproc
  71              		@ args = 0, pretend = 0, frame = 0
  72              		@ frame_needed = 0, uses_anonymous_args = 0
  73              		@ link register save eliminated.
  74              		.loc 1 147 0
  75 0000 0020     		movs	r0, #0
  76 0002 7047     		bx	lr
  77              		.cfi_endproc
  78              	.LFE119:
  79              		.size	gdispIsBusy, .-gdispIsBusy
  80 0004 AFF30080 		.section	.text.gdispClear,"ax",%progbits
  80      AFF30080 
  80      AFF30080 
  81              		.align	2
  82              		.p2align 4,,15
  83              		.global	gdispClear
  84              		.thumb
  85              		.thumb_func
  86              		.type	gdispClear, %function
  87              	gdispClear:
  88              	.LFB120:
  89              		.loc 1 155 0
  90              		.cfi_startproc
  91              		@ args = 0, pretend = 0, frame = 0
  92              		@ frame_needed = 0, uses_anonymous_args = 0
  93              	.LVL4:
  94 0000 10B5     		push	{r4, lr}
  95              	.LCFI1:
  96              		.cfi_def_cfa_offset 8
  97              		.cfi_offset 4, -8
  98              		.cfi_offset 14, -4
  99              		.loc 1 155 0
 100 0002 0446     		mov	r4, r0
 101              		.loc 1 156 0
 102 0004 40F20000 		movw	r0, #:lower16:.LANCHOR0
 103              	.LVL5:
 104 0008 C0F20000 		movt	r0, #:upper16:.LANCHOR0
 105 000c FFF7FEFF 		bl	chMtxLock
 106              	.LVL6:
 107              		.loc 1 157 0
 108 0010 2046     		mov	r0, r4
 109 0012 FFF7FEFF 		bl	gdisp_lld_clear
ARM GAS  /tmp/ccAUe7jC.s 			page 3


 110              	.LVL7:
 111              		.loc 1 159 0
 112 0016 BDE81040 		pop	{r4, lr}
 113              		.loc 1 158 0
 114 001a FFF7FEBF 		b	chMtxUnlock
 115              	.LVL8:
 116              		.cfi_endproc
 117              	.LFE120:
 118              		.size	gdispClear, .-gdispClear
 119 001e 00BF     		.section	.text.gdispDrawPixel,"ax",%progbits
 120              		.align	2
 121              		.p2align 4,,15
 122              		.global	gdispDrawPixel
 123              		.thumb
 124              		.thumb_func
 125              		.type	gdispDrawPixel, %function
 126              	gdispDrawPixel:
 127              	.LFB121:
 128              		.loc 1 169 0
 129              		.cfi_startproc
 130              		@ args = 0, pretend = 0, frame = 0
 131              		@ frame_needed = 0, uses_anonymous_args = 0
 132              	.LVL9:
 133 0000 70B5     		push	{r4, r5, r6, lr}
 134              	.LCFI2:
 135              		.cfi_def_cfa_offset 16
 136              		.cfi_offset 4, -16
 137              		.cfi_offset 5, -12
 138              		.cfi_offset 6, -8
 139              		.cfi_offset 14, -4
 140              		.loc 1 169 0
 141 0002 0446     		mov	r4, r0
 142              		.loc 1 170 0
 143 0004 40F20000 		movw	r0, #:lower16:.LANCHOR0
 144              	.LVL10:
 145              		.loc 1 169 0
 146 0008 0E46     		mov	r6, r1
 147 000a 1546     		mov	r5, r2
 148              		.loc 1 170 0
 149 000c C0F20000 		movt	r0, #:upper16:.LANCHOR0
 150 0010 FFF7FEFF 		bl	chMtxLock
 151              	.LVL11:
 152              		.loc 1 171 0
 153 0014 2046     		mov	r0, r4
 154 0016 3146     		mov	r1, r6
 155 0018 2A46     		mov	r2, r5
 156 001a FFF7FEFF 		bl	gdisp_lld_draw_pixel
 157              	.LVL12:
 158              		.loc 1 173 0
 159 001e BDE87040 		pop	{r4, r5, r6, lr}
 160              		.loc 1 172 0
 161 0022 FFF7FEBF 		b	chMtxUnlock
 162              	.LVL13:
 163              		.cfi_endproc
 164              	.LFE121:
 165              		.size	gdispDrawPixel, .-gdispDrawPixel
 166 0026 00BFAFF3 		.section	.text.gdispDrawLine,"ax",%progbits
ARM GAS  /tmp/ccAUe7jC.s 			page 4


 166      0080AFF3 
 166      0080
 167              		.align	2
 168              		.p2align 4,,15
 169              		.global	gdispDrawLine
 170              		.thumb
 171              		.thumb_func
 172              		.type	gdispDrawLine, %function
 173              	gdispDrawLine:
 174              	.LFB122:
 175              		.loc 1 185 0
 176              		.cfi_startproc
 177              		@ args = 4, pretend = 0, frame = 0
 178              		@ frame_needed = 0, uses_anonymous_args = 0
 179              	.LVL14:
 180 0000 2DE9F041 		push	{r4, r5, r6, r7, r8, lr}
 181              	.LCFI3:
 182              		.cfi_def_cfa_offset 24
 183              		.cfi_offset 4, -24
 184              		.cfi_offset 5, -20
 185              		.cfi_offset 6, -16
 186              		.cfi_offset 7, -12
 187              		.cfi_offset 8, -8
 188              		.cfi_offset 14, -4
 189 0004 82B0     		sub	sp, sp, #8
 190              	.LCFI4:
 191              		.cfi_def_cfa_offset 32
 192              		.loc 1 185 0
 193 0006 0546     		mov	r5, r0
 194 0008 BDF82040 		ldrh	r4, [sp, #32]
 195              		.loc 1 186 0
 196 000c 40F20000 		movw	r0, #:lower16:.LANCHOR0
 197              	.LVL15:
 198              		.loc 1 185 0
 199 0010 8846     		mov	r8, r1
 200 0012 1746     		mov	r7, r2
 201 0014 1E46     		mov	r6, r3
 202              		.loc 1 186 0
 203 0016 C0F20000 		movt	r0, #:upper16:.LANCHOR0
 204 001a FFF7FEFF 		bl	chMtxLock
 205              	.LVL16:
 206              		.loc 1 187 0
 207 001e 0094     		str	r4, [sp, #0]
 208 0020 2846     		mov	r0, r5
 209 0022 4146     		mov	r1, r8
 210 0024 3A46     		mov	r2, r7
 211 0026 3346     		mov	r3, r6
 212 0028 FFF7FEFF 		bl	gdisp_lld_draw_line
 213              	.LVL17:
 214              		.loc 1 189 0
 215 002c 02B0     		add	sp, sp, #8
 216 002e BDE8F041 		pop	{r4, r5, r6, r7, r8, lr}
 217              		.loc 1 188 0
 218 0032 FFF7FEBF 		b	chMtxUnlock
 219              	.LVL18:
 220              		.cfi_endproc
 221              	.LFE122:
ARM GAS  /tmp/ccAUe7jC.s 			page 5


 222              		.size	gdispDrawLine, .-gdispDrawLine
 223 0036 00BFAFF3 		.section	.text.gdispFillArea,"ax",%progbits
 223      0080AFF3 
 223      0080
 224              		.align	2
 225              		.p2align 4,,15
 226              		.global	gdispFillArea
 227              		.thumb
 228              		.thumb_func
 229              		.type	gdispFillArea, %function
 230              	gdispFillArea:
 231              	.LFB123:
 232              		.loc 1 203 0
 233              		.cfi_startproc
 234              		@ args = 4, pretend = 0, frame = 0
 235              		@ frame_needed = 0, uses_anonymous_args = 0
 236              	.LVL19:
 237 0000 2DE9F041 		push	{r4, r5, r6, r7, r8, lr}
 238              	.LCFI5:
 239              		.cfi_def_cfa_offset 24
 240              		.cfi_offset 4, -24
 241              		.cfi_offset 5, -20
 242              		.cfi_offset 6, -16
 243              		.cfi_offset 7, -12
 244              		.cfi_offset 8, -8
 245              		.cfi_offset 14, -4
 246 0004 82B0     		sub	sp, sp, #8
 247              	.LCFI6:
 248              		.cfi_def_cfa_offset 32
 249              		.loc 1 203 0
 250 0006 0546     		mov	r5, r0
 251 0008 BDF82040 		ldrh	r4, [sp, #32]
 252              		.loc 1 204 0
 253 000c 40F20000 		movw	r0, #:lower16:.LANCHOR0
 254              	.LVL20:
 255              		.loc 1 203 0
 256 0010 8846     		mov	r8, r1
 257 0012 1746     		mov	r7, r2
 258 0014 1E46     		mov	r6, r3
 259              		.loc 1 204 0
 260 0016 C0F20000 		movt	r0, #:upper16:.LANCHOR0
 261 001a FFF7FEFF 		bl	chMtxLock
 262              	.LVL21:
 263              		.loc 1 205 0
 264 001e 0094     		str	r4, [sp, #0]
 265 0020 2846     		mov	r0, r5
 266 0022 4146     		mov	r1, r8
 267 0024 3A46     		mov	r2, r7
 268 0026 3346     		mov	r3, r6
 269 0028 FFF7FEFF 		bl	gdisp_lld_fill_area
 270              	.LVL22:
 271              		.loc 1 207 0
 272 002c 02B0     		add	sp, sp, #8
 273 002e BDE8F041 		pop	{r4, r5, r6, r7, r8, lr}
 274              		.loc 1 206 0
 275 0032 FFF7FEBF 		b	chMtxUnlock
 276              	.LVL23:
ARM GAS  /tmp/ccAUe7jC.s 			page 6


 277              		.cfi_endproc
 278              	.LFE123:
 279              		.size	gdispFillArea, .-gdispFillArea
 280 0036 00BFAFF3 		.section	.text.gdispBlitAreaEx,"ax",%progbits
 280      0080AFF3 
 280      0080
 281              		.align	2
 282              		.p2align 4,,15
 283              		.global	gdispBlitAreaEx
 284              		.thumb
 285              		.thumb_func
 286              		.type	gdispBlitAreaEx, %function
 287              	gdispBlitAreaEx:
 288              	.LFB124:
 289              		.loc 1 221 0
 290              		.cfi_startproc
 291              		@ args = 16, pretend = 0, frame = 0
 292              		@ frame_needed = 0, uses_anonymous_args = 0
 293              	.LVL24:
 294 0000 2DE9F04F 		push	{r4, r5, r6, r7, r8, r9, sl, fp, lr}
 295              	.LCFI7:
 296              		.cfi_def_cfa_offset 36
 297              		.cfi_offset 4, -36
 298              		.cfi_offset 5, -32
 299              		.cfi_offset 6, -28
 300              		.cfi_offset 7, -24
 301              		.cfi_offset 8, -20
 302              		.cfi_offset 9, -16
 303              		.cfi_offset 10, -12
 304              		.cfi_offset 11, -8
 305              		.cfi_offset 14, -4
 306 0004 85B0     		sub	sp, sp, #20
 307              	.LCFI8:
 308              		.cfi_def_cfa_offset 56
 309              		.loc 1 221 0
 310 0006 8046     		mov	r8, r0
 311 0008 BDF93870 		ldrsh	r7, [sp, #56]
 312 000c BDF93C60 		ldrsh	r6, [sp, #60]
 313 0010 BDF94050 		ldrsh	r5, [sp, #64]
 314 0014 119C     		ldr	r4, [sp, #68]
 315              		.loc 1 222 0
 316 0016 40F20000 		movw	r0, #:lower16:.LANCHOR0
 317              	.LVL25:
 318              		.loc 1 221 0
 319 001a 8B46     		mov	fp, r1
 320 001c 9246     		mov	sl, r2
 321 001e 9946     		mov	r9, r3
 322              		.loc 1 222 0
 323 0020 C0F20000 		movt	r0, #:upper16:.LANCHOR0
 324 0024 FFF7FEFF 		bl	chMtxLock
 325              	.LVL26:
 326              		.loc 1 223 0
 327 0028 0097     		str	r7, [sp, #0]
 328 002a 0196     		str	r6, [sp, #4]
 329 002c 0295     		str	r5, [sp, #8]
 330 002e 0394     		str	r4, [sp, #12]
 331 0030 4046     		mov	r0, r8
ARM GAS  /tmp/ccAUe7jC.s 			page 7


 332 0032 5946     		mov	r1, fp
 333 0034 5246     		mov	r2, sl
 334 0036 4B46     		mov	r3, r9
 335 0038 FFF7FEFF 		bl	gdisp_lld_blit_area_ex
 336              	.LVL27:
 337              		.loc 1 225 0
 338 003c 05B0     		add	sp, sp, #20
 339 003e BDE8F04F 		pop	{r4, r5, r6, r7, r8, r9, sl, fp, lr}
 340              		.loc 1 224 0
 341 0042 FFF7FEBF 		b	chMtxUnlock
 342              	.LVL28:
 343              		.cfi_endproc
 344              	.LFE124:
 345              		.size	gdispBlitAreaEx, .-gdispBlitAreaEx
 346 0046 00BFAFF3 		.section	.text.gdispSetClip,"ax",%progbits
 346      0080AFF3 
 346      0080
 347              		.align	2
 348              		.p2align 4,,15
 349              		.global	gdispSetClip
 350              		.thumb
 351              		.thumb_func
 352              		.type	gdispSetClip, %function
 353              	gdispSetClip:
 354              	.LFB125:
 355              		.loc 1 242 0
 356              		.cfi_startproc
 357              		@ args = 0, pretend = 0, frame = 0
 358              		@ frame_needed = 0, uses_anonymous_args = 0
 359              	.LVL29:
 360 0000 F8B5     		push	{r3, r4, r5, r6, r7, lr}
 361              	.LCFI9:
 362              		.cfi_def_cfa_offset 24
 363              		.cfi_offset 3, -24
 364              		.cfi_offset 4, -20
 365              		.cfi_offset 5, -16
 366              		.cfi_offset 6, -12
 367              		.cfi_offset 7, -8
 368              		.cfi_offset 14, -4
 369              		.loc 1 242 0
 370 0002 0446     		mov	r4, r0
 371              		.loc 1 243 0
 372 0004 40F20000 		movw	r0, #:lower16:.LANCHOR0
 373              	.LVL30:
 374              		.loc 1 242 0
 375 0008 0F46     		mov	r7, r1
 376 000a 1646     		mov	r6, r2
 377 000c 1D46     		mov	r5, r3
 378              		.loc 1 243 0
 379 000e C0F20000 		movt	r0, #:upper16:.LANCHOR0
 380 0012 FFF7FEFF 		bl	chMtxLock
 381              	.LVL31:
 382              		.loc 1 244 0
 383 0016 2046     		mov	r0, r4
 384 0018 3946     		mov	r1, r7
 385 001a 3246     		mov	r2, r6
 386 001c 2B46     		mov	r3, r5
ARM GAS  /tmp/ccAUe7jC.s 			page 8


 387 001e FFF7FEFF 		bl	gdisp_lld_set_clip
 388              	.LVL32:
 389              		.loc 1 246 0
 390 0022 BDE8F840 		pop	{r3, r4, r5, r6, r7, lr}
 391              		.loc 1 245 0
 392 0026 FFF7FEBF 		b	chMtxUnlock
 393              	.LVL33:
 394              		.cfi_endproc
 395              	.LFE125:
 396              		.size	gdispSetClip, .-gdispSetClip
 397 002a 00BFAFF3 		.section	.text.gdispDrawCircle,"ax",%progbits
 397      0080
 398              		.align	2
 399              		.p2align 4,,15
 400              		.global	gdispDrawCircle
 401              		.thumb
 402              		.thumb_func
 403              		.type	gdispDrawCircle, %function
 404              	gdispDrawCircle:
 405              	.LFB126:
 406              		.loc 1 259 0
 407              		.cfi_startproc
 408              		@ args = 0, pretend = 0, frame = 0
 409              		@ frame_needed = 0, uses_anonymous_args = 0
 410              	.LVL34:
 411 0000 F8B5     		push	{r3, r4, r5, r6, r7, lr}
 412              	.LCFI10:
 413              		.cfi_def_cfa_offset 24
 414              		.cfi_offset 3, -24
 415              		.cfi_offset 4, -20
 416              		.cfi_offset 5, -16
 417              		.cfi_offset 6, -12
 418              		.cfi_offset 7, -8
 419              		.cfi_offset 14, -4
 420              		.loc 1 259 0
 421 0002 0446     		mov	r4, r0
 422              		.loc 1 260 0
 423 0004 40F20000 		movw	r0, #:lower16:.LANCHOR0
 424              	.LVL35:
 425              		.loc 1 259 0
 426 0008 0F46     		mov	r7, r1
 427 000a 1646     		mov	r6, r2
 428 000c 1D46     		mov	r5, r3
 429              		.loc 1 260 0
 430 000e C0F20000 		movt	r0, #:upper16:.LANCHOR0
 431 0012 FFF7FEFF 		bl	chMtxLock
 432              	.LVL36:
 433              		.loc 1 261 0
 434 0016 2046     		mov	r0, r4
 435 0018 3946     		mov	r1, r7
 436 001a 3246     		mov	r2, r6
 437 001c 2B46     		mov	r3, r5
 438 001e FFF7FEFF 		bl	gdisp_lld_draw_circle
 439              	.LVL37:
 440              		.loc 1 263 0
 441 0022 BDE8F840 		pop	{r3, r4, r5, r6, r7, lr}
 442              		.loc 1 262 0
ARM GAS  /tmp/ccAUe7jC.s 			page 9


 443 0026 FFF7FEBF 		b	chMtxUnlock
 444              	.LVL38:
 445              		.cfi_endproc
 446              	.LFE126:
 447              		.size	gdispDrawCircle, .-gdispDrawCircle
 448 002a 00BFAFF3 		.section	.text.gdispFillCircle,"ax",%progbits
 448      0080
 449              		.align	2
 450              		.p2align 4,,15
 451              		.global	gdispFillCircle
 452              		.thumb
 453              		.thumb_func
 454              		.type	gdispFillCircle, %function
 455              	gdispFillCircle:
 456              	.LFB127:
 457              		.loc 1 276 0
 458              		.cfi_startproc
 459              		@ args = 0, pretend = 0, frame = 0
 460              		@ frame_needed = 0, uses_anonymous_args = 0
 461              	.LVL39:
 462 0000 F8B5     		push	{r3, r4, r5, r6, r7, lr}
 463              	.LCFI11:
 464              		.cfi_def_cfa_offset 24
 465              		.cfi_offset 3, -24
 466              		.cfi_offset 4, -20
 467              		.cfi_offset 5, -16
 468              		.cfi_offset 6, -12
 469              		.cfi_offset 7, -8
 470              		.cfi_offset 14, -4
 471              		.loc 1 276 0
 472 0002 0446     		mov	r4, r0
 473              		.loc 1 277 0
 474 0004 40F20000 		movw	r0, #:lower16:.LANCHOR0
 475              	.LVL40:
 476              		.loc 1 276 0
 477 0008 0F46     		mov	r7, r1
 478 000a 1646     		mov	r6, r2
 479 000c 1D46     		mov	r5, r3
 480              		.loc 1 277 0
 481 000e C0F20000 		movt	r0, #:upper16:.LANCHOR0
 482 0012 FFF7FEFF 		bl	chMtxLock
 483              	.LVL41:
 484              		.loc 1 278 0
 485 0016 2046     		mov	r0, r4
 486 0018 3946     		mov	r1, r7
 487 001a 3246     		mov	r2, r6
 488 001c 2B46     		mov	r3, r5
 489 001e FFF7FEFF 		bl	gdisp_lld_fill_circle
 490              	.LVL42:
 491              		.loc 1 280 0
 492 0022 BDE8F840 		pop	{r3, r4, r5, r6, r7, lr}
 493              		.loc 1 279 0
 494 0026 FFF7FEBF 		b	chMtxUnlock
 495              	.LVL43:
 496              		.cfi_endproc
 497              	.LFE127:
 498              		.size	gdispFillCircle, .-gdispFillCircle
ARM GAS  /tmp/ccAUe7jC.s 			page 10


 499 002a 00BFAFF3 		.section	.text.gdispDrawChar,"ax",%progbits
 499      0080
 500              		.align	2
 501              		.p2align 4,,15
 502              		.global	gdispDrawChar
 503              		.thumb
 504              		.thumb_func
 505              		.type	gdispDrawChar, %function
 506              	gdispDrawChar:
 507              	.LFB128:
 508              		.loc 1 403 0
 509              		.cfi_startproc
 510              		@ args = 4, pretend = 0, frame = 0
 511              		@ frame_needed = 0, uses_anonymous_args = 0
 512              	.LVL44:
 513 0000 2DE9F041 		push	{r4, r5, r6, r7, r8, lr}
 514              	.LCFI12:
 515              		.cfi_def_cfa_offset 24
 516              		.cfi_offset 4, -24
 517              		.cfi_offset 5, -20
 518              		.cfi_offset 6, -16
 519              		.cfi_offset 7, -12
 520              		.cfi_offset 8, -8
 521              		.cfi_offset 14, -4
 522 0004 82B0     		sub	sp, sp, #8
 523              	.LCFI13:
 524              		.cfi_def_cfa_offset 32
 525              		.loc 1 403 0
 526 0006 0546     		mov	r5, r0
 527 0008 BDF82040 		ldrh	r4, [sp, #32]
 528              		.loc 1 404 0
 529 000c 40F20000 		movw	r0, #:lower16:.LANCHOR0
 530              	.LVL45:
 531              		.loc 1 403 0
 532 0010 8846     		mov	r8, r1
 533 0012 1746     		mov	r7, r2
 534 0014 1E46     		mov	r6, r3
 535              		.loc 1 404 0
 536 0016 C0F20000 		movt	r0, #:upper16:.LANCHOR0
 537 001a FFF7FEFF 		bl	chMtxLock
 538              	.LVL46:
 539              		.loc 1 405 0
 540 001e 0094     		str	r4, [sp, #0]
 541 0020 2846     		mov	r0, r5
 542 0022 4146     		mov	r1, r8
 543 0024 3A46     		mov	r2, r7
 544 0026 3346     		mov	r3, r6
 545 0028 FFF7FEFF 		bl	gdisp_lld_draw_char
 546              	.LVL47:
 547              		.loc 1 407 0
 548 002c 02B0     		add	sp, sp, #8
 549 002e BDE8F041 		pop	{r4, r5, r6, r7, r8, lr}
 550              		.loc 1 406 0
 551 0032 FFF7FEBF 		b	chMtxUnlock
 552              	.LVL48:
 553              		.cfi_endproc
 554              	.LFE128:
ARM GAS  /tmp/ccAUe7jC.s 			page 11


 555              		.size	gdispDrawChar, .-gdispDrawChar
 556 0036 00BFAFF3 		.section	.text.gdispFillChar,"ax",%progbits
 556      0080AFF3 
 556      0080
 557              		.align	2
 558              		.p2align 4,,15
 559              		.global	gdispFillChar
 560              		.thumb
 561              		.thumb_func
 562              		.type	gdispFillChar, %function
 563              	gdispFillChar:
 564              	.LFB129:
 565              		.loc 1 421 0
 566              		.cfi_startproc
 567              		@ args = 8, pretend = 0, frame = 0
 568              		@ frame_needed = 0, uses_anonymous_args = 0
 569              	.LVL49:
 570 0000 2DE9F043 		push	{r4, r5, r6, r7, r8, r9, lr}
 571              	.LCFI14:
 572              		.cfi_def_cfa_offset 28
 573              		.cfi_offset 4, -28
 574              		.cfi_offset 5, -24
 575              		.cfi_offset 6, -20
 576              		.cfi_offset 7, -16
 577              		.cfi_offset 8, -12
 578              		.cfi_offset 9, -8
 579              		.cfi_offset 14, -4
 580 0004 83B0     		sub	sp, sp, #12
 581              	.LCFI15:
 582              		.cfi_def_cfa_offset 40
 583              		.loc 1 421 0
 584 0006 0646     		mov	r6, r0
 585 0008 BDF82850 		ldrh	r5, [sp, #40]
 586 000c BDF82C40 		ldrh	r4, [sp, #44]
 587              		.loc 1 422 0
 588 0010 40F20000 		movw	r0, #:lower16:.LANCHOR0
 589              	.LVL50:
 590              		.loc 1 421 0
 591 0014 8946     		mov	r9, r1
 592 0016 9046     		mov	r8, r2
 593 0018 1F46     		mov	r7, r3
 594              		.loc 1 422 0
 595 001a C0F20000 		movt	r0, #:upper16:.LANCHOR0
 596 001e FFF7FEFF 		bl	chMtxLock
 597              	.LVL51:
 598              		.loc 1 423 0
 599 0022 0095     		str	r5, [sp, #0]
 600 0024 0194     		str	r4, [sp, #4]
 601 0026 3046     		mov	r0, r6
 602 0028 4946     		mov	r1, r9
 603 002a 4246     		mov	r2, r8
 604 002c 3B46     		mov	r3, r7
 605 002e FFF7FEFF 		bl	gdisp_lld_fill_char
 606              	.LVL52:
 607              		.loc 1 425 0
 608 0032 03B0     		add	sp, sp, #12
 609 0034 BDE8F043 		pop	{r4, r5, r6, r7, r8, r9, lr}
ARM GAS  /tmp/ccAUe7jC.s 			page 12


 610              		.loc 1 424 0
 611 0038 FFF7FEBF 		b	chMtxUnlock
 612              	.LVL53:
 613              		.cfi_endproc
 614              	.LFE129:
 615              		.size	gdispFillChar, .-gdispFillChar
 616 003c AFF30080 		.section	.text.gdispDrawBox,"ax",%progbits
 617              		.align	2
 618              		.p2align 4,,15
 619              		.global	gdispDrawBox
 620              		.thumb
 621              		.thumb_func
 622              		.type	gdispDrawBox, %function
 623              	gdispDrawBox:
 624              	.LFB130:
 625              		.loc 1 501 0
 626              		.cfi_startproc
 627              		@ args = 4, pretend = 0, frame = 0
 628              		@ frame_needed = 0, uses_anonymous_args = 0
 629              	.LVL54:
 630 0000 2DE9F04F 		push	{r4, r5, r6, r7, r8, r9, sl, fp, lr}
 631              	.LCFI16:
 632              		.cfi_def_cfa_offset 36
 633              		.cfi_offset 4, -36
 634              		.cfi_offset 5, -32
 635              		.cfi_offset 6, -28
 636              		.cfi_offset 7, -24
 637              		.cfi_offset 8, -20
 638              		.cfi_offset 9, -16
 639              		.cfi_offset 10, -12
 640              		.cfi_offset 11, -8
 641              		.cfi_offset 14, -4
 642              		.loc 1 506 0
 643 0004 1FFA81F8 		uxth	r8, r1
 644 0008 08EB0307 		add	r7, r8, r3
 645              		.loc 1 501 0
 646 000c 83B0     		sub	sp, sp, #12
 647              	.LCFI17:
 648              		.cfi_def_cfa_offset 48
 649              		.loc 1 505 0
 650 000e 00F1FF3C 		add	ip, r0, #-1
 651              		.loc 1 506 0
 652 0012 BFB2     		uxth	r7, r7
 653              		.loc 1 501 0
 654 0014 1C46     		mov	r4, r3
 655              		.loc 1 505 0
 656 0016 0CEB020A 		add	sl, ip, r2
 657              		.loc 1 506 0
 658 001a 7B1E     		subs	r3, r7, #1
 659              	.LVL55:
 660              		.loc 1 508 0
 661 001c 022A     		cmp	r2, #2
 662              		.loc 1 501 0
 663 001e 0E46     		mov	r6, r1
 664 0020 0546     		mov	r5, r0
 665 0022 BDF83090 		ldrh	r9, [sp, #48]
 666              		.loc 1 505 0
ARM GAS  /tmp/ccAUe7jC.s 			page 13


 667 0026 1FFA8AFA 		uxth	sl, sl
 668              	.LVL56:
 669              		.loc 1 506 0
 670 002a 1FFA83FB 		uxth	fp, r3
 671              	.LVL57:
 672              		.loc 1 508 0
 673 002e 19DD     		ble	.L14
 674              		.loc 1 509 0
 675 0030 002C     		cmp	r4, #0
 676 0032 14DD     		ble	.L13
 677              		.loc 1 510 0
 678 0034 0FFA8AFA 		sxth	sl, sl
 679              	.LVL58:
 680 0038 CDF80090 		str	r9, [sp, #0]
 681 003c 5246     		mov	r2, sl
 682              	.LVL59:
 683 003e 0B46     		mov	r3, r1
 684              	.LVL60:
 685 0040 FFF7FEFF 		bl	gdispDrawLine
 686              	.LVL61:
 687              		.loc 1 511 0
 688 0044 012C     		cmp	r4, #1
 689 0046 0AD0     		beq	.L13
 690              		.loc 1 512 0
 691 0048 0FFA8BF1 		sxth	r1, fp
 692 004c CDF80090 		str	r9, [sp, #0]
 693 0050 2846     		mov	r0, r5
 694 0052 5246     		mov	r2, sl
 695 0054 0B46     		mov	r3, r1
 696 0056 FFF7FEFF 		bl	gdispDrawLine
 697              	.LVL62:
 698              		.loc 1 513 0
 699 005a 022C     		cmp	r4, #2
 700 005c 0FD1     		bne	.L26
 701              	.L13:
 702              		.loc 1 525 0
 703 005e 03B0     		add	sp, sp, #12
 704 0060 BDE8F08F 		pop	{r4, r5, r6, r7, r8, r9, sl, fp, pc}
 705              	.LVL63:
 706              	.L14:
 707              		.loc 1 519 0
 708 0064 24D0     		beq	.L27
 709              		.loc 1 522 0
 710 0066 012A     		cmp	r2, #1
 711 0068 F9D1     		bne	.L13
 712              		.loc 1 523 0
 713 006a 0246     		mov	r2, r0
 714              	.LVL64:
 715 006c 0FFA8BF3 		sxth	r3, fp
 716              	.LVL65:
 717 0070 CDF83090 		str	r9, [sp, #48]
 718              		.loc 1 525 0
 719 0074 03B0     		add	sp, sp, #12
 720 0076 BDE8F04F 		pop	{r4, r5, r6, r7, r8, r9, sl, fp, lr}
 721              		.loc 1 523 0
 722 007a FFF7FEBF 		b	gdispDrawLine
 723              	.LVL66:
ARM GAS  /tmp/ccAUe7jC.s 			page 14


 724              	.L26:
 725              		.loc 1 514 0
 726 007e B81E     		subs	r0, r7, #2
 727 0080 08F10108 		add	r8, r8, #1
 728              	.LVL67:
 729 0084 07B2     		sxth	r7, r0
 730 0086 0FFA88F8 		sxth	r8, r8
 731              	.LVL68:
 732 008a 2846     		mov	r0, r5
 733 008c 2A46     		mov	r2, r5
 734 008e 4146     		mov	r1, r8
 735 0090 3B46     		mov	r3, r7
 736 0092 CDF80090 		str	r9, [sp, #0]
 737 0096 FFF7FEFF 		bl	gdispDrawLine
 738              	.LVL69:
 739              		.loc 1 515 0
 740 009a 5046     		mov	r0, sl
 741 009c 4146     		mov	r1, r8
 742 009e 5246     		mov	r2, sl
 743 00a0 3B46     		mov	r3, r7
 744 00a2 CDF83090 		str	r9, [sp, #48]
 745              		.loc 1 525 0
 746 00a6 03B0     		add	sp, sp, #12
 747 00a8 BDE8F04F 		pop	{r4, r5, r6, r7, r8, r9, sl, fp, lr}
 748              		.loc 1 515 0
 749 00ac FFF7FEBF 		b	gdispDrawLine
 750              	.LVL70:
 751              	.L27:
 752              		.loc 1 520 0
 753 00b0 0FFA8BFB 		sxth	fp, fp
 754 00b4 0246     		mov	r2, r0
 755              	.LVL71:
 756 00b6 5B46     		mov	r3, fp
 757              	.LVL72:
 758 00b8 CDF80090 		str	r9, [sp, #0]
 759 00bc FFF7FEFF 		bl	gdispDrawLine
 760              	.LVL73:
 761              		.loc 1 521 0
 762 00c0 0FFA8AF0 		sxth	r0, sl
 763 00c4 3146     		mov	r1, r6
 764 00c6 0246     		mov	r2, r0
 765 00c8 5B46     		mov	r3, fp
 766 00ca CDF83090 		str	r9, [sp, #48]
 767              		.loc 1 525 0
 768 00ce 03B0     		add	sp, sp, #12
 769 00d0 BDE8F04F 		pop	{r4, r5, r6, r7, r8, r9, sl, fp, lr}
 770              		.loc 1 521 0
 771 00d4 FFF7FEBF 		b	gdispDrawLine
 772              	.LVL74:
 773              		.cfi_endproc
 774              	.LFE130:
 775              		.size	gdispDrawBox, .-gdispDrawBox
 776 00d8 AFF30080 		.section	.text.gdispDrawPoly,"ax",%progbits
 776      AFF30080 
 777              		.align	2
 778              		.p2align 4,,15
 779              		.global	gdispDrawPoly
ARM GAS  /tmp/ccAUe7jC.s 			page 15


 780              		.thumb
 781              		.thumb_func
 782              		.type	gdispDrawPoly, %function
 783              	gdispDrawPoly:
 784              	.LFB131:
 785              		.loc 1 528 0
 786              		.cfi_startproc
 787              		@ args = 4, pretend = 0, frame = 8
 788              		@ frame_needed = 0, uses_anonymous_args = 0
 789              	.LVL75:
 790 0000 2DE9F04F 		push	{r4, r5, r6, r7, r8, r9, sl, fp, lr}
 791              	.LCFI18:
 792              		.cfi_def_cfa_offset 36
 793              		.cfi_offset 4, -36
 794              		.cfi_offset 5, -32
 795              		.cfi_offset 6, -28
 796              		.cfi_offset 7, -24
 797              		.cfi_offset 8, -20
 798              		.cfi_offset 9, -16
 799              		.cfi_offset 10, -12
 800              		.cfi_offset 11, -8
 801              		.cfi_offset 14, -4
 802              		.loc 1 531 0
 803 0004 013B     		subs	r3, r3, #1
 804              	.LVL76:
 805              		.loc 1 528 0
 806 0006 85B0     		sub	sp, sp, #20
 807              	.LCFI19:
 808              		.cfi_def_cfa_offset 56
 809              		.loc 1 531 0
 810 0008 02EB830A 		add	sl, r2, r3, lsl #2
 811              	.LVL77:
 812              		.loc 1 532 0
 813 000c 5245     		cmp	r2, sl
 814              		.loc 1 528 0
 815 000e 9046     		mov	r8, r2
 816 0010 BDF83890 		ldrh	r9, [sp, #56]
 817              		.loc 1 532 0
 818 0014 80F08C80 		bcs	.L40
 819              		.loc 1 528 0
 820 0018 1446     		mov	r4, r2
 821 001a 85B2     		uxth	r5, r0
 822              		.loc 1 533 0
 823 001c 34F8040B 		ldrh	r0, [r4], #4
 824              	.LVL78:
 825 0020 CDF80090 		str	r9, [sp, #0]
 826 0024 34F8027C 		ldrh	r7, [r4, #-2]
 827 0028 2288     		ldrh	r2, [r4, #0]
 828              	.LVL79:
 829 002a 6388     		ldrh	r3, [r4, #2]
 830              	.LVL80:
 831 002c 8EB2     		uxth	r6, r1
 832 002e 6FEA080B 		mvn	fp, r8
 833 0032 0AEB0B0C 		add	ip, sl, fp
 834 0036 F119     		adds	r1, r6, r7
 835              	.LVL81:
 836 0038 2818     		adds	r0, r5, r0
ARM GAS  /tmp/ccAUe7jC.s 			page 16


 837 003a AF18     		adds	r7, r5, r2
 838 003c F318     		adds	r3, r6, r3
 839 003e 3AB2     		sxth	r2, r7
 840 0040 00B2     		sxth	r0, r0
 841 0042 CCF38007 		ubfx	r7, ip, #2, #1
 842 0046 09B2     		sxth	r1, r1
 843 0048 1BB2     		sxth	r3, r3
 844 004a 0397     		str	r7, [sp, #12]
 845 004c FFF7FEFF 		bl	gdispDrawLine
 846              	.LVL82:
 847 0050 271D     		adds	r7, r4, #4
 848              		.loc 1 532 0
 849 0052 A245     		cmp	sl, r4
 850 0054 A346     		mov	fp, r4
 851 0056 4DD9     		bls	.L39
 852 0058 039A     		ldr	r2, [sp, #12]
 853 005a D2B1     		cbz	r2, .L31
 854              		.loc 1 528 0
 855 005c C8EB0403 		rsb	r3, r8, r4
 856 0060 1A19     		adds	r2, r3, r4
 857              		.loc 1 533 0
 858 0062 37F8040C 		ldrh	r0, [r7, #-4]
 859 0066 37F8021C 		ldrh	r1, [r7, #-2]
 860 006a B2F802E0 		ldrh	lr, [r2, #2]
 861 006e 1B5B     		ldrh	r3, [r3, r4]
 862 0070 CDF80090 		str	r9, [sp, #0]
 863 0074 EA18     		adds	r2, r5, r3
 864 0076 2818     		adds	r0, r5, r0
 865 0078 06EB0E03 		add	r3, r6, lr
 866 007c 7118     		adds	r1, r6, r1
 867              		.loc 1 532 0
 868 007e BB46     		mov	fp, r7
 869              		.loc 1 533 0
 870 0080 00B2     		sxth	r0, r0
 871 0082 09B2     		sxth	r1, r1
 872 0084 12B2     		sxth	r2, r2
 873 0086 1BB2     		sxth	r3, r3
 874 0088 FFF7FEFF 		bl	gdispDrawLine
 875              	.LVL83:
 876 008c 0437     		adds	r7, r7, #4
 877              		.loc 1 532 0
 878 008e DA45     		cmp	sl, fp
 879 0090 30D9     		bls	.L39
 880              	.L31:
 881              		.loc 1 528 0 discriminator 2
 882 0092 C8EB0B02 		rsb	r2, r8, fp
 883 0096 1319     		adds	r3, r2, r4
 884              		.loc 1 533 0 discriminator 2
 885 0098 37F8040C 		ldrh	r0, [r7, #-4]
 886 009c 37F8021C 		ldrh	r1, [r7, #-2]
 887 00a0 5B88     		ldrh	r3, [r3, #2]
 888 00a2 125B     		ldrh	r2, [r2, r4]
 889 00a4 CDF80090 		str	r9, [sp, #0]
 890 00a8 2818     		adds	r0, r5, r0
 891 00aa 7118     		adds	r1, r6, r1
 892 00ac AA18     		adds	r2, r5, r2
 893 00ae F318     		adds	r3, r6, r3
ARM GAS  /tmp/ccAUe7jC.s 			page 17


 894 00b0 00B2     		sxth	r0, r0
 895 00b2 09B2     		sxth	r1, r1
 896 00b4 12B2     		sxth	r2, r2
 897 00b6 1BB2     		sxth	r3, r3
 898              		.loc 1 532 0 discriminator 2
 899 00b8 0BF1040B 		add	fp, fp, #4
 900              		.loc 1 533 0 discriminator 2
 901 00bc FFF7FEFF 		bl	gdispDrawLine
 902              	.LVL84:
 903              		.loc 1 528 0 discriminator 2
 904 00c0 C8EB0B03 		rsb	r3, r8, fp
 905              		.loc 1 533 0 discriminator 2
 906 00c4 37F8040B 		ldrh	r0, [r7], #4
 907 00c8 1A5B     		ldrh	r2, [r3, r4]
 908 00ca 37F8021C 		ldrh	r1, [r7, #-2]
 909              		.loc 1 528 0 discriminator 2
 910 00ce 1B19     		adds	r3, r3, r4
 911              		.loc 1 533 0 discriminator 2
 912 00d0 2818     		adds	r0, r5, r0
 913 00d2 5B88     		ldrh	r3, [r3, #2]
 914 00d4 CDF80090 		str	r9, [sp, #0]
 915 00d8 7118     		adds	r1, r6, r1
 916 00da AA18     		adds	r2, r5, r2
 917 00dc F318     		adds	r3, r6, r3
 918 00de 00B2     		sxth	r0, r0
 919 00e0 09B2     		sxth	r1, r1
 920 00e2 12B2     		sxth	r2, r2
 921 00e4 1BB2     		sxth	r3, r3
 922              		.loc 1 532 0 discriminator 2
 923 00e6 0BF1040B 		add	fp, fp, #4
 924              		.loc 1 533 0 discriminator 2
 925 00ea FFF7FEFF 		bl	gdispDrawLine
 926              	.LVL85:
 927 00ee 0437     		adds	r7, r7, #4
 928              		.loc 1 532 0 discriminator 2
 929 00f0 DA45     		cmp	sl, fp
 930 00f2 CED8     		bhi	.L31
 931              	.L39:
 932              		.loc 1 528 0
 933 00f4 C4F10300 		rsb	r0, r4, #3
 934 00f8 0AEB0001 		add	r1, sl, r0
 935 00fc 21F00302 		bic	r2, r1, #3
 936 0100 131D     		adds	r3, r2, #4
 937 0102 08EB0301 		add	r1, r8, r3
 938              	.LVL86:
 939              	.L30:
 940              		.loc 1 534 0
 941 0106 0888     		ldrh	r0, [r1, #0]
 942 0108 B8F80020 		ldrh	r2, [r8, #0]
 943 010c 4988     		ldrh	r1, [r1, #2]
 944 010e B8F80230 		ldrh	r3, [r8, #2]
 945 0112 CDF83890 		str	r9, [sp, #56]
 946 0116 2818     		adds	r0, r5, r0
 947 0118 7118     		adds	r1, r6, r1
 948 011a AA18     		adds	r2, r5, r2
 949 011c F318     		adds	r3, r6, r3
 950 011e 00B2     		sxth	r0, r0
ARM GAS  /tmp/ccAUe7jC.s 			page 18


 951 0120 09B2     		sxth	r1, r1
 952 0122 12B2     		sxth	r2, r2
 953 0124 1BB2     		sxth	r3, r3
 954              		.loc 1 535 0
 955 0126 05B0     		add	sp, sp, #20
 956 0128 BDE8F04F 		pop	{r4, r5, r6, r7, r8, r9, sl, fp, lr}
 957              		.loc 1 534 0
 958 012c FFF7FEBF 		b	gdispDrawLine
 959              	.LVL87:
 960              	.L40:
 961 0130 8EB2     		uxth	r6, r1
 962 0132 85B2     		uxth	r5, r0
 963              		.loc 1 532 0
 964 0134 1146     		mov	r1, r2
 965              	.LVL88:
 966 0136 E6E7     		b	.L30
 967              		.cfi_endproc
 968              	.LFE131:
 969              		.size	gdispDrawPoly, .-gdispDrawPoly
 970 0138 AFF30080 		.section	.text.gdispFillConvexPoly,"ax",%progbits
 970      AFF30080 
 971              		.align	2
 972              		.p2align 4,,15
 973              		.global	gdispFillConvexPoly
 974              		.thumb
 975              		.thumb_func
 976              		.type	gdispFillConvexPoly, %function
 977              	gdispFillConvexPoly:
 978              	.LFB132:
 979              		.loc 1 537 0
 980              		.cfi_startproc
 981              		@ args = 4, pretend = 0, frame = 72
 982              		@ frame_needed = 0, uses_anonymous_args = 0
 983              	.LVL89:
 984 0000 2DE9F04F 		push	{r4, r5, r6, r7, r8, r9, sl, fp, lr}
 985              	.LCFI20:
 986              		.cfi_def_cfa_offset 36
 987              		.cfi_offset 4, -36
 988              		.cfi_offset 5, -32
 989              		.cfi_offset 6, -28
 990              		.cfi_offset 7, -24
 991              		.cfi_offset 8, -20
 992              		.cfi_offset 9, -16
 993              		.cfi_offset 10, -12
 994              		.cfi_offset 11, -8
 995              		.cfi_offset 14, -4
 996 0004 95B0     		sub	sp, sp, #84
 997              	.LCFI21:
 998              		.cfi_def_cfa_offset 120
 999              		.loc 1 542 0
 1000 0006 03F1FF35 		add	r5, r3, #-1
 1001 000a 02EB850A 		add	sl, r2, r5, lsl #2
 1002              	.LVL90:
 1003              		.loc 1 537 0
 1004 000e 9146     		mov	r9, r2
 1005 0010 BDF87860 		ldrh	r6, [sp, #120]
 1006 0014 0590     		str	r0, [sp, #20]
ARM GAS  /tmp/ccAUe7jC.s 			page 19


 1007              		.loc 1 546 0
 1008 0016 02F10402 		add	r2, r2, #4
 1009              	.LVL91:
 1010 001a 9245     		cmp	sl, r2
 1011              		.loc 1 537 0
 1012 001c 9846     		mov	r8, r3
 1013 001e 0696     		str	r6, [sp, #24]
 1014              		.loc 1 546 0
 1015 0020 6ED3     		bcc	.L42
 1016 0022 B9F802B0 		ldrh	fp, [r9, #2]
 1017              		.loc 1 547 0
 1018 0026 5488     		ldrh	r4, [r2, #2]
 1019 0028 0FFA8BF3 		sxth	r3, fp
 1020              	.LVL92:
 1021 002c 27B2     		sxth	r7, r4
 1022 002e C2EB0A06 		rsb	r6, r2, sl
 1023 0032 9F42     		cmp	r7, r3
 1024              		.loc 1 546 0
 1025 0034 4846     		mov	r0, r9
 1026              	.LVL93:
 1027 0036 C6F38006 		ubfx	r6, r6, #2, #1
 1028              		.loc 1 547 0
 1029 003a 55DB     		blt	.L179
 1030              	.L121:
 1031              	.LVL94:
 1032              		.loc 1 546 0
 1033 003c 0432     		adds	r2, r2, #4
 1034              	.LVL95:
 1035 003e 9245     		cmp	sl, r2
 1036 0040 1CD3     		bcc	.L171
 1037 0042 4EB1     		cbz	r6, .L44
 1038              		.loc 1 547 0
 1039 0044 5488     		ldrh	r4, [r2, #2]
 1040 0046 26B2     		sxth	r6, r4
 1041 0048 9E42     		cmp	r6, r3
 1042 004a 02DA     		bge	.L123
 1043 004c A346     		mov	fp, r4
 1044 004e 1046     		mov	r0, r2
 1045 0050 23B2     		sxth	r3, r4
 1046              	.L123:
 1047              		.loc 1 546 0
 1048 0052 0432     		adds	r2, r2, #4
 1049              	.LVL96:
 1050 0054 9245     		cmp	sl, r2
 1051 0056 11D3     		bcc	.L171
 1052              	.L44:
 1053              		.loc 1 547 0
 1054 0058 5688     		ldrh	r6, [r2, #2]
 1055 005a 37B2     		sxth	r7, r6
 1056              		.loc 1 546 0
 1057 005c 141D     		adds	r4, r2, #4
 1058              		.loc 1 547 0
 1059 005e 9F42     		cmp	r7, r3
 1060 0060 02DA     		bge	.L43
 1061 0062 B346     		mov	fp, r6
 1062 0064 1046     		mov	r0, r2
 1063 0066 33B2     		sxth	r3, r6
ARM GAS  /tmp/ccAUe7jC.s 			page 20


 1064              	.L43:
 1065 0068 6688     		ldrh	r6, [r4, #2]
 1066 006a 32B2     		sxth	r2, r6
 1067 006c 9A42     		cmp	r2, r3
 1068 006e 02DA     		bge	.L126
 1069 0070 B346     		mov	fp, r6
 1070 0072 2046     		mov	r0, r4
 1071 0074 1346     		mov	r3, r2
 1072              	.L126:
 1073              		.loc 1 546 0
 1074 0076 221D     		adds	r2, r4, #4
 1075 0078 9245     		cmp	sl, r2
 1076 007a EDD2     		bcs	.L44
 1077              	.L171:
 1078              		.loc 1 550 0
 1079 007c B0F90040 		ldrsh	r4, [r0, #0]
 1080 0080 2604     		lsls	r6, r4, #16
 1081              		.loc 1 554 0
 1082 0082 8145     		cmp	r9, r0
 1083              		.loc 1 550 0
 1084 0084 0496     		str	r6, [sp, #16]
 1085              	.LVL97:
 1086              		.loc 1 554 0
 1087 0086 33D2     		bcs	.L71
 1088              		.loc 1 554 0 is_stmt 0 discriminator 1
 1089 0088 041F     		subs	r4, r0, #4
 1090              	.LVL98:
 1091              	.L45:
 1092              		.loc 1 555 0 is_stmt 1 discriminator 1
 1093 008a B4F90220 		ldrsh	r2, [r4, #2]
 1094              		.loc 1 551 0 discriminator 1
 1095 008e DDF810C0 		ldr	ip, [sp, #16]
 1096              		.loc 1 555 0 discriminator 1
 1097 0092 9A42     		cmp	r2, r3
 1098              		.loc 1 551 0 discriminator 1
 1099 0094 4646     		mov	r6, r8
 1100              	.LVL99:
 1101              		.loc 1 555 0 discriminator 1
 1102 0096 0DD1     		bne	.L180
 1103              	.L49:
 1104              		.loc 1 556 0
 1105 0098 B4F90020 		ldrsh	r2, [r4, #0]
 1106              		.loc 1 557 0
 1107 009c 4C45     		cmp	r4, r9
 1108              		.loc 1 556 0
 1109 009e 4FEA024C 		lsl	ip, r2, #16
 1110              		.loc 1 557 0
 1111 00a2 1BD9     		bls	.L72
 1112              		.loc 1 557 0 is_stmt 0 discriminator 1
 1113 00a4 043C     		subs	r4, r4, #4
 1114              	.LVL100:
 1115              		.loc 1 558 0 is_stmt 1 discriminator 1
 1116 00a6 E6B1     		cbz	r6, .L41
 1117              	.L183:
 1118              		.loc 1 555 0
 1119 00a8 B4F90220 		ldrsh	r2, [r4, #2]
 1120              		.loc 1 558 0
ARM GAS  /tmp/ccAUe7jC.s 			page 21


 1121 00ac 2E46     		mov	r6, r5
 1122 00ae 013D     		subs	r5, r5, #1
 1123              	.LVL101:
 1124              		.loc 1 555 0
 1125 00b0 9A42     		cmp	r2, r3
 1126 00b2 F1D0     		beq	.L49
 1127              	.L180:
 1128              		.loc 1 560 0
 1129 00b4 8245     		cmp	sl, r0
 1130 00b6 1DD8     		bhi	.L181
 1131 00b8 DDF81080 		ldr	r8, [sp, #16]
 1132 00bc 4F46     		mov	r7, r9
 1133              	.LVL102:
 1134              	.L145:
 1135              		.loc 1 561 0 discriminator 1
 1136 00be B7F90200 		ldrsh	r0, [r7, #2]
 1137 00c2 9842     		cmp	r0, r3
 1138 00c4 27D1     		bne	.L182
 1139              		.loc 1 562 0
 1140 00c6 B7F90000 		ldrsh	r0, [r7, #0]
 1141              		.loc 1 563 0
 1142 00ca 5745     		cmp	r7, sl
 1143              		.loc 1 562 0
 1144 00cc 4FEA0048 		lsl	r8, r0, #16
 1145              		.loc 1 563 0
 1146 00d0 14D2     		bcs	.L74
 1147              		.loc 1 563 0 is_stmt 0 discriminator 1
 1148 00d2 0437     		adds	r7, r7, #4
 1149              	.LVL103:
 1150              	.L51:
 1151              		.loc 1 564 0 is_stmt 1 discriminator 3
 1152 00d4 2EB1     		cbz	r6, .L41
 1153              		.loc 1 564 0 is_stmt 0
 1154 00d6 2E46     		mov	r6, r5
 1155 00d8 013D     		subs	r5, r5, #1
 1156              	.LVL104:
 1157 00da F0E7     		b	.L145
 1158              	.LVL105:
 1159              	.L72:
 1160              		.loc 1 542 0 is_stmt 1
 1161 00dc 5446     		mov	r4, sl
 1162              	.LVL106:
 1163              		.loc 1 558 0
 1164 00de 002E     		cmp	r6, #0
 1165 00e0 E2D1     		bne	.L183
 1166              	.LVL107:
 1167              	.L41:
 1168              		.loc 1 619 0
 1169 00e2 15B0     		add	sp, sp, #84
 1170 00e4 BDE8F08F 		pop	{r4, r5, r6, r7, r8, r9, sl, fp, pc}
 1171              	.LVL108:
 1172              	.L179:
 1173              		.loc 1 547 0
 1174 00e8 A346     		mov	fp, r4
 1175 00ea 1046     		mov	r0, r2
 1176              	.LVL109:
 1177 00ec 23B2     		sxth	r3, r4
ARM GAS  /tmp/ccAUe7jC.s 			page 22


 1178 00ee A5E7     		b	.L121
 1179              	.LVL110:
 1180              	.L71:
 1181              		.loc 1 554 0
 1182 00f0 5446     		mov	r4, sl
 1183 00f2 CAE7     		b	.L45
 1184              	.LVL111:
 1185              	.L181:
 1186              		.loc 1 560 0 discriminator 1
 1187 00f4 071D     		adds	r7, r0, #4
 1188 00f6 DDF81080 		ldr	r8, [sp, #16]
 1189 00fa E0E7     		b	.L145
 1190              	.LVL112:
 1191              	.L74:
 1192              		.loc 1 563 0
 1193 00fc 4F46     		mov	r7, r9
 1194              	.LVL113:
 1195 00fe E9E7     		b	.L51
 1196              	.LVL114:
 1197              	.L42:
 1198              		.loc 1 550 0
 1199 0100 B9F90030 		ldrsh	r3, [r9, #0]
 1200              	.LVL115:
 1201              		.loc 1 551 0
 1202 0104 B9F802B0 		ldrh	fp, [r9, #2]
 1203              		.loc 1 550 0
 1204 0108 1804     		lsls	r0, r3, #16
 1205              	.LVL116:
 1206 010a 0490     		str	r0, [sp, #16]
 1207              	.LVL117:
 1208              		.loc 1 551 0
 1209 010c 5446     		mov	r4, sl
 1210 010e 4846     		mov	r0, r9
 1211              	.LVL118:
 1212 0110 0FFA8BF3 		sxth	r3, fp
 1213 0114 B9E7     		b	.L45
 1214              	.LVL119:
 1215              	.L182:
 1216 0116 0D90     		str	r0, [sp, #52]
 1217              		.loc 1 566 0
 1218 0118 B4F90000 		ldrsh	r0, [r4, #0]
 1219 011c CDF81080 		str	r8, [sp, #16]
 1220 0120 CCEB0040 		rsb	r0, ip, r0, lsl #16
 1221 0124 0790     		str	r0, [sp, #28]
 1222 0126 D01A     		subs	r0, r2, r3
 1223 0128 0890     		str	r0, [sp, #32]
 1224 012a B046     		mov	r8, r6
 1225              		.loc 1 567 0
 1226 012c 0498     		ldr	r0, [sp, #16]
 1227 012e B7F90060 		ldrsh	r6, [r7, #0]
 1228              	.LVL120:
 1229              		.loc 1 591 0
 1230 0132 CDF83890 		str	r9, [sp, #56]
 1231              		.loc 1 567 0
 1232 0136 C0EB0646 		rsb	r6, r0, r6, lsl #16
 1233 013a 0D98     		ldr	r0, [sp, #52]
 1234 013c 0996     		str	r6, [sp, #36]
ARM GAS  /tmp/ccAUe7jC.s 			page 23


 1235 013e C61A     		subs	r6, r0, r3
 1236              		.loc 1 591 0
 1237 0140 0598     		ldr	r0, [sp, #20]
 1238              		.loc 1 567 0
 1239 0142 0B96     		str	r6, [sp, #44]
 1240              		.loc 1 591 0
 1241 0144 86B2     		uxth	r6, r0
 1242 0146 0C96     		str	r6, [sp, #48]
 1243              		.loc 1 566 0
 1244 0148 0798     		ldr	r0, [sp, #28]
 1245 014a 089E     		ldr	r6, [sp, #32]
 1246              		.loc 1 591 0
 1247 014c CDF84480 		str	r8, [sp, #68]
 1248              		.loc 1 566 0
 1249 0150 90FBF6F0 		sdiv	r0, r0, r6
 1250 0154 0A90     		str	r0, [sp, #40]
 1251              	.LVL121:
 1252              		.loc 1 567 0
 1253 0156 0B9E     		ldr	r6, [sp, #44]
 1254 0158 0998     		ldr	r0, [sp, #36]
 1255              	.LVL122:
 1256              		.loc 1 591 0
 1257 015a CDF82CA0 		str	sl, [sp, #44]
 1258              		.loc 1 567 0
 1259 015e 90FBF6F0 		sdiv	r0, r0, r6
 1260              		.loc 1 591 0
 1261 0162 0C9E     		ldr	r6, [sp, #48]
 1262 0164 DDF82890 		ldr	r9, [sp, #40]
 1263              	.LVL123:
 1264 0168 CDF820C0 		str	ip, [sp, #32]
 1265              		.loc 1 537 0
 1266 016c 89B2     		uxth	r1, r1
 1267              		.loc 1 591 0
 1268 016e 013E     		subs	r6, r6, #1
 1269 0170 8246     		mov	sl, r0
 1270              	.LVL124:
 1271 0172 0D98     		ldr	r0, [sp, #52]
 1272              		.loc 1 537 0
 1273 0174 1091     		str	r1, [sp, #64]
 1274              		.loc 1 591 0
 1275 0176 0796     		str	r6, [sp, #28]
 1276 0178 CDF824B0 		str	fp, [sp, #36]
 1277 017c 0A95     		str	r5, [sp, #40]
 1278              	.LVL125:
 1279              	.L151:
 1280              		.loc 1 571 0
 1281 017e 9042     		cmp	r0, r2
 1282 0180 B8BF     		it	lt
 1283 0182 0246     		movlt	r2, r0
 1284 0184 92B2     		uxth	r2, r2
 1285              	.LVL126:
 1286              		.loc 1 574 0
 1287 0186 15B2     		sxth	r5, r2
 1288 0188 AB42     		cmp	r3, r5
 1289 018a 0D95     		str	r5, [sp, #52]
 1290 018c 80F2BC80 		bge	.L55
 1291 0190 109B     		ldr	r3, [sp, #64]
ARM GAS  /tmp/ccAUe7jC.s 			page 24


 1292 0192 0998     		ldr	r0, [sp, #36]
 1293              		.loc 1 537 0
 1294 0194 96B2     		uxth	r6, r2
 1295 0196 1918     		adds	r1, r3, r0
 1296              		.loc 1 575 0
 1297 0198 089A     		ldr	r2, [sp, #32]
 1298              	.LVL127:
 1299              		.loc 1 576 0
 1300 019a 0498     		ldr	r0, [sp, #16]
 1301              		.loc 1 537 0
 1302 019c 0F96     		str	r6, [sp, #60]
 1303 019e 03EB060B 		add	fp, r3, r6
 1304 01a2 8DB2     		uxth	r5, r1
 1305 01a4 6FEA050C 		mvn	ip, r5
 1306              		.loc 1 575 0
 1307 01a8 1314     		asrs	r3, r2, #16
 1308              	.LVL128:
 1309              		.loc 1 537 0
 1310 01aa 1FFA8BFB 		uxth	fp, fp
 1311              		.loc 1 576 0
 1312 01ae 0214     		asrs	r2, r0, #16
 1313              	.LVL129:
 1314 01b0 0CEB0B06 		add	r6, ip, fp
 1315              		.loc 1 582 0
 1316 01b4 9342     		cmp	r3, r2
 1317 01b6 06F0010C 		and	ip, r6, #1
 1318 01ba C0F2EA80 		blt	.L184
 1319              		.loc 1 587 0
 1320 01be 13DD     		ble	.L106
 1321              		.loc 1 588 0
 1322 01c0 9E1A     		subs	r6, r3, r2
 1323 01c2 012E     		cmp	r6, #1
 1324 01c4 00F0CF81 		beq	.L163
 1325              		.loc 1 591 0
 1326 01c8 0C98     		ldr	r0, [sp, #48]
 1327 01ca 079E     		ldr	r6, [sp, #28]
 1328 01cc CDF80CC0 		str	ip, [sp, #12]
 1329 01d0 8218     		adds	r2, r0, r2
 1330              	.LVL130:
 1331 01d2 0698     		ldr	r0, [sp, #24]
 1332 01d4 29B2     		sxth	r1, r5
 1333 01d6 F318     		adds	r3, r6, r3
 1334              	.LVL131:
 1335 01d8 0090     		str	r0, [sp, #0]
 1336 01da 10B2     		sxth	r0, r2
 1337 01dc 1AB2     		sxth	r2, r3
 1338 01de 0B46     		mov	r3, r1
 1339 01e0 FFF7FEFF 		bl	gdispDrawLine
 1340              	.LVL132:
 1341 01e4 DDF80CC0 		ldr	ip, [sp, #12]
 1342              	.L106:
 1343 01e8 0135     		adds	r5, r5, #1
 1344              		.loc 1 594 0
 1345 01ea 089E     		ldr	r6, [sp, #32]
 1346              		.loc 1 595 0
 1347 01ec 049A     		ldr	r2, [sp, #16]
 1348 01ee ADB2     		uxth	r5, r5
ARM GAS  /tmp/ccAUe7jC.s 			page 25


 1349              		.loc 1 574 0
 1350 01f0 5D45     		cmp	r5, fp
 1351              		.loc 1 594 0
 1352 01f2 06EB0908 		add	r8, r6, r9
 1353              	.LVL133:
 1354              		.loc 1 595 0
 1355 01f6 02EB0A06 		add	r6, r2, sl
 1356              	.LVL134:
 1357              		.loc 1 574 0
 1358 01fa 6FD0     		beq	.L165
 1359 01fc BCF1000F 		cmp	ip, #0
 1360 0200 1ED0     		beq	.L173
 1361              	.LVL135:
 1362              		.loc 1 575 0
 1363 0202 4FEA2843 		asr	r3, r8, #16
 1364              		.loc 1 576 0
 1365 0206 3214     		asrs	r2, r6, #16
 1366              	.LVL136:
 1367              		.loc 1 582 0
 1368 0208 9342     		cmp	r3, r2
 1369 020a C0F21981 		blt	.L166
 1370              		.loc 1 587 0
 1371 020e 11DD     		ble	.L111
 1372              		.loc 1 588 0
 1373 0210 991A     		subs	r1, r3, r2
 1374 0212 0129     		cmp	r1, #1
 1375 0214 00F0AA81 		beq	.L167
 1376              		.loc 1 591 0
 1377 0218 DDF830E0 		ldr	lr, [sp, #48]
 1378 021c 0EEB0200 		add	r0, lr, r2
 1379 0220 079A     		ldr	r2, [sp, #28]
 1380 0222 D318     		adds	r3, r2, r3
 1381 0224 069A     		ldr	r2, [sp, #24]
 1382 0226 29B2     		sxth	r1, r5
 1383 0228 0092     		str	r2, [sp, #0]
 1384 022a 00B2     		sxth	r0, r0
 1385 022c 1AB2     		sxth	r2, r3
 1386 022e 0B46     		mov	r3, r1
 1387 0230 FFF7FEFF 		bl	gdispDrawLine
 1388              	.LVL137:
 1389              	.L111:
 1390 0234 0135     		adds	r5, r5, #1
 1391 0236 ADB2     		uxth	r5, r5
 1392              		.loc 1 574 0
 1393 0238 5D45     		cmp	r5, fp
 1394              		.loc 1 594 0
 1395 023a C844     		add	r8, r8, r9
 1396              		.loc 1 595 0
 1397 023c 5644     		add	r6, r6, sl
 1398              		.loc 1 574 0
 1399 023e 4DD0     		beq	.L165
 1400              	.L173:
 1401 0240 1294     		str	r4, [sp, #72]
 1402 0242 1397     		str	r7, [sp, #76]
 1403 0244 069C     		ldr	r4, [sp, #24]
 1404              	.LVL138:
 1405 0246 0C9F     		ldr	r7, [sp, #48]
ARM GAS  /tmp/ccAUe7jC.s 			page 26


 1406              	.LVL139:
 1407 0248 2FE0     		b	.L60
 1408              	.L187:
 1409              		.loc 1 583 0
 1410 024a CCEB0002 		rsb	r2, ip, r0
 1411 024e 012A     		cmp	r2, #1
 1412 0250 00F0E280 		beq	.L185
 1413              		.loc 1 586 0
 1414 0254 079B     		ldr	r3, [sp, #28]
 1415 0256 0094     		str	r4, [sp, #0]
 1416 0258 1A18     		adds	r2, r3, r0
 1417 025a 29B2     		sxth	r1, r5
 1418 025c BC44     		add	ip, r7, ip
 1419 025e 0FFA8CF0 		sxth	r0, ip
 1420 0262 12B2     		sxth	r2, r2
 1421 0264 0B46     		mov	r3, r1
 1422 0266 FFF7FEFF 		bl	gdispDrawLine
 1423              	.LVL140:
 1424              	.L58:
 1425              		.loc 1 594 0
 1426 026a C844     		add	r8, r8, r9
 1427              		.loc 1 595 0
 1428 026c 5644     		add	r6, r6, sl
 1429              		.loc 1 575 0
 1430 026e 4FEA284C 		asr	ip, r8, #16
 1431              		.loc 1 576 0
 1432 0272 3014     		asrs	r0, r6, #16
 1433 0274 0135     		adds	r5, r5, #1
 1434              		.loc 1 582 0
 1435 0276 8445     		cmp	ip, r0
 1436 0278 ADB2     		uxth	r5, r5
 1437 027a 80F2A380 		bge	.L116
 1438              		.loc 1 583 0
 1439 027e CCEB0003 		rsb	r3, ip, r0
 1440 0282 012B     		cmp	r3, #1
 1441 0284 00F0D280 		beq	.L170
 1442              		.loc 1 586 0
 1443 0288 079A     		ldr	r2, [sp, #28]
 1444 028a 0094     		str	r4, [sp, #0]
 1445 028c 1318     		adds	r3, r2, r0
 1446 028e 29B2     		sxth	r1, r5
 1447 0290 BC44     		add	ip, r7, ip
 1448 0292 1AB2     		sxth	r2, r3
 1449 0294 0FFA8CF0 		sxth	r0, ip
 1450 0298 0B46     		mov	r3, r1
 1451 029a FFF7FEFF 		bl	gdispDrawLine
 1452              	.LVL141:
 1453              	.L117:
 1454 029e 0135     		adds	r5, r5, #1
 1455 02a0 ADB2     		uxth	r5, r5
 1456              		.loc 1 574 0
 1457 02a2 5D45     		cmp	r5, fp
 1458              		.loc 1 594 0
 1459 02a4 C844     		add	r8, r8, r9
 1460              		.loc 1 595 0
 1461 02a6 5644     		add	r6, r6, sl
 1462              		.loc 1 574 0
ARM GAS  /tmp/ccAUe7jC.s 			page 27


 1463 02a8 16D0     		beq	.L186
 1464              	.L60:
 1465              		.loc 1 575 0
 1466 02aa 4FEA284C 		asr	ip, r8, #16
 1467              		.loc 1 576 0
 1468 02ae 3014     		asrs	r0, r6, #16
 1469              		.loc 1 582 0
 1470 02b0 8445     		cmp	ip, r0
 1471 02b2 CADB     		blt	.L187
 1472              		.loc 1 587 0
 1473 02b4 D9DD     		ble	.L58
 1474              		.loc 1 588 0
 1475 02b6 C0EB0C01 		rsb	r1, r0, ip
 1476 02ba 0129     		cmp	r1, #1
 1477 02bc 00F0D380 		beq	.L188
 1478              		.loc 1 591 0
 1479 02c0 079A     		ldr	r2, [sp, #28]
 1480 02c2 0094     		str	r4, [sp, #0]
 1481 02c4 02EB0C03 		add	r3, r2, ip
 1482 02c8 29B2     		sxth	r1, r5
 1483 02ca 3818     		adds	r0, r7, r0
 1484 02cc 1AB2     		sxth	r2, r3
 1485 02ce 00B2     		sxth	r0, r0
 1486 02d0 0B46     		mov	r3, r1
 1487 02d2 FFF7FEFF 		bl	gdispDrawLine
 1488              	.LVL142:
 1489 02d6 C8E7     		b	.L58
 1490              	.L186:
 1491 02d8 129C     		ldr	r4, [sp, #72]
 1492 02da 139F     		ldr	r7, [sp, #76]
 1493              	.LVL143:
 1494              	.L165:
 1495              		.loc 1 537 0
 1496 02dc 0999     		ldr	r1, [sp, #36]
 1497 02de 0F9B     		ldr	r3, [sp, #60]
 1498 02e0 089E     		ldr	r6, [sp, #32]
 1499 02e2 CA43     		mvns	r2, r1
 1500 02e4 9818     		adds	r0, r3, r2
 1501 02e6 83B2     		uxth	r3, r0
 1502 02e8 06EB0900 		add	r0, r6, r9
 1503 02ec 049E     		ldr	r6, [sp, #16]
 1504 02ee 4A1C     		adds	r2, r1, #1
 1505 02f0 13FA82F5 		uxtah	r5, r3, r2
 1506 02f4 06EB0A01 		add	r1, r6, sl
 1507 02f8 09FB0302 		mla	r2, r9, r3, r0
 1508 02fc 03FB0A13 		mla	r3, r3, sl, r1
 1509 0300 A8B2     		uxth	r0, r5
 1510 0302 0892     		str	r2, [sp, #32]
 1511 0304 0493     		str	r3, [sp, #16]
 1512 0306 0990     		str	r0, [sp, #36]
 1513              	.L55:
 1514              		.loc 1 598 0
 1515 0308 119D     		ldr	r5, [sp, #68]
 1516 030a 0A99     		ldr	r1, [sp, #40]
 1517              	.LVL144:
 1518 030c 002D     		cmp	r5, #0
 1519 030e 3FF4E8AE 		beq	.L41
ARM GAS  /tmp/ccAUe7jC.s 			page 28


 1520              		.loc 1 601 0
 1521 0312 B4F90220 		ldrsh	r2, [r4, #2]
 1522 0316 0D9E     		ldr	r6, [sp, #52]
 1523 0318 B242     		cmp	r2, r6
 1524 031a 00F0B880 		beq	.L189
 1525              		.loc 1 610 0
 1526 031e 0B9D     		ldr	r5, [sp, #44]
 1527 0320 AF42     		cmp	r7, r5
 1528 0322 4BD3     		bcc	.L190
 1529 0324 099B     		ldr	r3, [sp, #36]
 1530 0326 0E9F     		ldr	r7, [sp, #56]
 1531 0328 1BB2     		sxth	r3, r3
 1532              	.L152:
 1533 032a 0A9E     		ldr	r6, [sp, #40]
 1534 032c F007     		lsls	r0, r6, #31
 1535 032e 5DD4     		bmi	.L154
 1536 0330 049E     		ldr	r6, [sp, #16]
 1537 0332 DDF82CC0 		ldr	ip, [sp, #44]
 1538 0336 DDF83880 		ldr	r8, [sp, #56]
 1539              	.LVL145:
 1540              	.L131:
 1541              		.loc 1 611 0 discriminator 1
 1542 033a B7F90200 		ldrsh	r0, [r7, #2]
 1543 033e 9842     		cmp	r0, r3
 1544 0340 1AD1     		bne	.L177
 1545              	.L70:
 1546              		.loc 1 612 0
 1547 0342 B7F90050 		ldrsh	r5, [r7, #0]
 1548 0346 2E04     		lsls	r6, r5, #16
 1549              		.loc 1 613 0
 1550 0348 6745     		cmp	r7, ip
 1551 034a 4DD2     		bcs	.L78
 1552              		.loc 1 613 0 is_stmt 0 discriminator 1
 1553 034c 0437     		adds	r7, r7, #4
 1554              	.LVL146:
 1555              	.L68:
 1556              		.loc 1 614 0 is_stmt 1 discriminator 3
 1557 034e 4D1E     		subs	r5, r1, #1
 1558              	.LVL147:
 1559 0350 0029     		cmp	r1, #0
 1560 0352 3FF4C6AE 		beq	.L41
 1561              		.loc 1 611 0
 1562 0356 B7F90200 		ldrsh	r0, [r7, #2]
 1563 035a 9842     		cmp	r0, r3
 1564              		.loc 1 614 0
 1565 035c 2946     		mov	r1, r5
 1566              		.loc 1 611 0
 1567 035e 0BD1     		bne	.L177
 1568              		.loc 1 612 0
 1569 0360 B7F90060 		ldrsh	r6, [r7, #0]
 1570 0364 3604     		lsls	r6, r6, #16
 1571              		.loc 1 613 0
 1572 0366 6745     		cmp	r7, ip
 1573 0368 2CBF     		ite	cs
 1574 036a 4746     		movcs	r7, r8
 1575              	.LVL148:
 1576 036c 0437     		addcc	r7, r7, #4
ARM GAS  /tmp/ccAUe7jC.s 			page 29


 1577              	.LVL149:
 1578              		.loc 1 614 0
 1579 036e 691E     		subs	r1, r5, #1
 1580              	.LVL150:
 1581              		.loc 1 611 0
 1582 0370 B7F90200 		ldrsh	r0, [r7, #2]
 1583 0374 9842     		cmp	r0, r3
 1584 0376 E4D0     		beq	.L70
 1585              	.L177:
 1586 0378 0496     		str	r6, [sp, #16]
 1587              	.LVL151:
 1588              	.L153:
 1589              		.loc 1 616 0
 1590 037a B7F900A0 		ldrsh	sl, [r7, #0]
 1591              	.LVL152:
 1592 037e 049E     		ldr	r6, [sp, #16]
 1593 0380 1191     		str	r1, [sp, #68]
 1594 0382 C51A     		subs	r5, r0, r3
 1595 0384 C6EB0A4C 		rsb	ip, r6, sl, lsl #16
 1596 0388 0139     		subs	r1, r1, #1
 1597 038a 9CFBF5FA 		sdiv	sl, ip, r5
 1598              	.LVL153:
 1599 038e 0A91     		str	r1, [sp, #40]
 1600 0390 F5E6     		b	.L151
 1601              	.LVL154:
 1602              	.L184:
 1603              		.loc 1 583 0
 1604 0392 D61A     		subs	r6, r2, r3
 1605 0394 012E     		cmp	r6, #1
 1606 0396 00F0D080 		beq	.L164
 1607              		.loc 1 586 0
 1608 039a 0C98     		ldr	r0, [sp, #48]
 1609              	.LVL155:
 1610 039c 079E     		ldr	r6, [sp, #28]
 1611 039e CDF80CC0 		str	ip, [sp, #12]
 1612 03a2 C318     		adds	r3, r0, r3
 1613              	.LVL156:
 1614 03a4 0698     		ldr	r0, [sp, #24]
 1615 03a6 29B2     		sxth	r1, r5
 1616 03a8 B218     		adds	r2, r6, r2
 1617              	.LVL157:
 1618 03aa 0090     		str	r0, [sp, #0]
 1619 03ac 12B2     		sxth	r2, r2
 1620 03ae 18B2     		sxth	r0, r3
 1621 03b0 0B46     		mov	r3, r1
 1622 03b2 FFF7FEFF 		bl	gdispDrawLine
 1623              	.LVL158:
 1624 03b6 DDF80CC0 		ldr	ip, [sp, #12]
 1625 03ba 15E7     		b	.L106
 1626              	.LVL159:
 1627              	.L190:
 1628 03bc 0998     		ldr	r0, [sp, #36]
 1629              		.loc 1 610 0 discriminator 1
 1630 03be 0437     		adds	r7, r7, #4
 1631 03c0 03B2     		sxth	r3, r0
 1632 03c2 B2E7     		b	.L152
 1633              	.LVL160:
ARM GAS  /tmp/ccAUe7jC.s 			page 30


 1634              	.L116:
 1635              		.loc 1 587 0
 1636 03c4 7FF76BAF 		ble	.L117
 1637              		.loc 1 588 0
 1638 03c8 C0EB0C02 		rsb	r2, r0, ip
 1639 03cc 012A     		cmp	r2, #1
 1640 03ce 54D0     		beq	.L169
 1641              		.loc 1 591 0
 1642 03d0 079B     		ldr	r3, [sp, #28]
 1643 03d2 0094     		str	r4, [sp, #0]
 1644 03d4 03EB0C02 		add	r2, r3, ip
 1645 03d8 29B2     		sxth	r1, r5
 1646 03da 3818     		adds	r0, r7, r0
 1647 03dc 00B2     		sxth	r0, r0
 1648 03de 12B2     		sxth	r2, r2
 1649 03e0 0B46     		mov	r3, r1
 1650 03e2 FFF7FEFF 		bl	gdispDrawLine
 1651              	.LVL161:
 1652 03e6 5AE7     		b	.L117
 1653              	.LVL162:
 1654              	.L78:
 1655              		.loc 1 613 0
 1656 03e8 4746     		mov	r7, r8
 1657              	.LVL163:
 1658 03ea B0E7     		b	.L68
 1659              	.LVL164:
 1660              	.L154:
 1661              		.loc 1 611 0
 1662 03ec B7F90200 		ldrsh	r0, [r7, #2]
 1663 03f0 9842     		cmp	r0, r3
 1664 03f2 C2D1     		bne	.L153
 1665              		.loc 1 612 0
 1666 03f4 B7F90010 		ldrsh	r1, [r7, #0]
 1667              		.loc 1 613 0
 1668 03f8 0B9E     		ldr	r6, [sp, #44]
 1669              		.loc 1 614 0
 1670 03fa 0A98     		ldr	r0, [sp, #40]
 1671 03fc DDF82CC0 		ldr	ip, [sp, #44]
 1672 0400 DDF83880 		ldr	r8, [sp, #56]
 1673              		.loc 1 612 0
 1674 0404 0D04     		lsls	r5, r1, #16
 1675              		.loc 1 613 0
 1676 0406 B742     		cmp	r7, r6
 1677 0408 28BF     		it	cs
 1678 040a 0E9F     		ldrcs	r7, [sp, #56]
 1679              	.LVL165:
 1680              		.loc 1 612 0
 1681 040c 0495     		str	r5, [sp, #16]
 1682              		.loc 1 613 0
 1683 040e 38BF     		it	cc
 1684 0410 0437     		addcc	r7, r7, #4
 1685              	.LVL166:
 1686 0412 049E     		ldr	r6, [sp, #16]
 1687              		.loc 1 614 0
 1688 0414 411E     		subs	r1, r0, #1
 1689              	.LVL167:
 1690 0416 90E7     		b	.L131
ARM GAS  /tmp/ccAUe7jC.s 			page 31


 1691              	.LVL168:
 1692              	.L185:
 1693              		.loc 1 584 0
 1694 0418 DDF814E0 		ldr	lr, [sp, #20]
 1695 041c 0CEB0E00 		add	r0, ip, lr
 1696 0420 00B2     		sxth	r0, r0
 1697 0422 29B2     		sxth	r1, r5
 1698 0424 2246     		mov	r2, r4
 1699 0426 FFF7FEFF 		bl	gdispDrawPixel
 1700              	.LVL169:
 1701 042a 1EE7     		b	.L58
 1702              	.L170:
 1703 042c DDF814E0 		ldr	lr, [sp, #20]
 1704 0430 0CEB0E00 		add	r0, ip, lr
 1705 0434 00B2     		sxth	r0, r0
 1706 0436 29B2     		sxth	r1, r5
 1707 0438 2246     		mov	r2, r4
 1708 043a FFF7FEFF 		bl	gdispDrawPixel
 1709              	.LVL170:
 1710 043e 2EE7     		b	.L117
 1711              	.LVL171:
 1712              	.L166:
 1713              		.loc 1 583 0
 1714 0440 D11A     		subs	r1, r2, r3
 1715 0442 0129     		cmp	r1, #1
 1716 0444 00F08580 		beq	.L168
 1717              		.loc 1 586 0
 1718 0448 DDF830C0 		ldr	ip, [sp, #48]
 1719 044c 0CEB0300 		add	r0, ip, r3
 1720 0450 079B     		ldr	r3, [sp, #28]
 1721 0452 9A18     		adds	r2, r3, r2
 1722 0454 069B     		ldr	r3, [sp, #24]
 1723 0456 29B2     		sxth	r1, r5
 1724 0458 0093     		str	r3, [sp, #0]
 1725 045a 00B2     		sxth	r0, r0
 1726 045c 12B2     		sxth	r2, r2
 1727 045e 0B46     		mov	r3, r1
 1728 0460 FFF7FEFF 		bl	gdispDrawLine
 1729              	.LVL172:
 1730 0464 E6E6     		b	.L111
 1731              	.LVL173:
 1732              	.L188:
 1733              		.loc 1 589 0
 1734 0466 DDF814E0 		ldr	lr, [sp, #20]
 1735 046a 00EB0E01 		add	r1, r0, lr
 1736 046e 08B2     		sxth	r0, r1
 1737 0470 2246     		mov	r2, r4
 1738 0472 29B2     		sxth	r1, r5
 1739 0474 FFF7FEFF 		bl	gdispDrawPixel
 1740              	.LVL174:
 1741 0478 F7E6     		b	.L58
 1742              	.L169:
 1743 047a DDF814E0 		ldr	lr, [sp, #20]
 1744 047e 00EB0E01 		add	r1, r0, lr
 1745 0482 08B2     		sxth	r0, r1
 1746 0484 2246     		mov	r2, r4
 1747 0486 29B2     		sxth	r1, r5
ARM GAS  /tmp/ccAUe7jC.s 			page 32


 1748 0488 FFF7FEFF 		bl	gdispDrawPixel
 1749              	.LVL175:
 1750 048c 07E7     		b	.L117
 1751              	.LVL176:
 1752              	.L189:
 1753              		.loc 1 602 0
 1754 048e 0E9A     		ldr	r2, [sp, #56]
 1755 0490 9442     		cmp	r4, r2
 1756 0492 4ED9     		bls	.L75
 1757 0494 0998     		ldr	r0, [sp, #36]
 1758              		.loc 1 602 0 is_stmt 0 discriminator 1
 1759 0496 043C     		subs	r4, r4, #4
 1760 0498 03B2     		sxth	r3, r0
 1761              	.L148:
 1762 049a 0A9D     		ldr	r5, [sp, #40]
 1763 049c ED07     		lsls	r5, r5, #31
 1764 049e 33D4     		bmi	.L150
 1765 04a0 089D     		ldr	r5, [sp, #32]
 1766 04a2 DDF82CC0 		ldr	ip, [sp, #44]
 1767 04a6 0E9E     		ldr	r6, [sp, #56]
 1768              	.LVL177:
 1769              	.L130:
 1770              		.loc 1 603 0 is_stmt 1 discriminator 1
 1771 04a8 B4F90220 		ldrsh	r2, [r4, #2]
 1772 04ac 9A42     		cmp	r2, r3
 1773 04ae 1AD1     		bne	.L176
 1774              	.L65:
 1775              		.loc 1 604 0
 1776 04b0 B4F90020 		ldrsh	r2, [r4, #0]
 1777 04b4 1504     		lsls	r5, r2, #16
 1778              		.loc 1 605 0
 1779 04b6 B442     		cmp	r4, r6
 1780 04b8 24D9     		bls	.L76
 1781              		.loc 1 605 0 is_stmt 0 discriminator 1
 1782 04ba 043C     		subs	r4, r4, #4
 1783              	.LVL178:
 1784              	.L63:
 1785              		.loc 1 606 0 is_stmt 1 discriminator 3
 1786 04bc 481E     		subs	r0, r1, #1
 1787              	.LVL179:
 1788 04be 0029     		cmp	r1, #0
 1789 04c0 3FF40FAE 		beq	.L41
 1790              		.loc 1 603 0
 1791 04c4 B4F90220 		ldrsh	r2, [r4, #2]
 1792 04c8 9A42     		cmp	r2, r3
 1793              		.loc 1 606 0
 1794 04ca 0146     		mov	r1, r0
 1795              		.loc 1 603 0
 1796 04cc 0BD1     		bne	.L176
 1797              		.loc 1 604 0
 1798 04ce B4F90010 		ldrsh	r1, [r4, #0]
 1799 04d2 0D04     		lsls	r5, r1, #16
 1800              		.loc 1 605 0
 1801 04d4 B442     		cmp	r4, r6
 1802              		.loc 1 542 0
 1803 04d6 94BF     		ite	ls
 1804 04d8 6446     		movls	r4, ip
ARM GAS  /tmp/ccAUe7jC.s 			page 33


 1805              	.LVL180:
 1806              		.loc 1 605 0
 1807 04da 043C     		subhi	r4, r4, #4
 1808              	.LVL181:
 1809              		.loc 1 606 0
 1810 04dc 411E     		subs	r1, r0, #1
 1811              	.LVL182:
 1812              		.loc 1 603 0
 1813 04de B4F90220 		ldrsh	r2, [r4, #2]
 1814 04e2 9A42     		cmp	r2, r3
 1815 04e4 E4D0     		beq	.L65
 1816              	.L176:
 1817 04e6 0895     		str	r5, [sp, #32]
 1818              	.LVL183:
 1819              	.L149:
 1820              		.loc 1 608 0
 1821 04e8 B4F90090 		ldrsh	r9, [r4, #0]
 1822              	.LVL184:
 1823 04ec 089E     		ldr	r6, [sp, #32]
 1824 04ee B7F90200 		ldrsh	r0, [r7, #2]
 1825 04f2 1191     		str	r1, [sp, #68]
 1826 04f4 C6EB094C 		rsb	ip, r6, r9, lsl #16
 1827 04f8 D51A     		subs	r5, r2, r3
 1828 04fa 4E1E     		subs	r6, r1, #1
 1829 04fc 9CFBF5F9 		sdiv	r9, ip, r5
 1830              	.LVL185:
 1831 0500 0A96     		str	r6, [sp, #40]
 1832 0502 3CE6     		b	.L151
 1833              	.LVL186:
 1834              	.L76:
 1835              		.loc 1 542 0
 1836 0504 6446     		mov	r4, ip
 1837              	.LVL187:
 1838 0506 D9E7     		b	.L63
 1839              	.LVL188:
 1840              	.L150:
 1841              		.loc 1 603 0
 1842 0508 B4F90220 		ldrsh	r2, [r4, #2]
 1843 050c 9A42     		cmp	r2, r3
 1844 050e EBD1     		bne	.L149
 1845              		.loc 1 604 0
 1846 0510 B4F90060 		ldrsh	r6, [r4, #0]
 1847              		.loc 1 605 0
 1848 0514 0E98     		ldr	r0, [sp, #56]
 1849              		.loc 1 606 0
 1850 0516 0A9D     		ldr	r5, [sp, #40]
 1851 0518 DDF82CC0 		ldr	ip, [sp, #44]
 1852              		.loc 1 604 0
 1853 051c 3104     		lsls	r1, r6, #16
 1854              		.loc 1 605 0
 1855 051e 8442     		cmp	r4, r0
 1856              		.loc 1 542 0
 1857 0520 98BF     		it	ls
 1858 0522 0B9C     		ldrls	r4, [sp, #44]
 1859              	.LVL189:
 1860              		.loc 1 604 0
 1861 0524 0891     		str	r1, [sp, #32]
ARM GAS  /tmp/ccAUe7jC.s 			page 34


 1862              		.loc 1 605 0
 1863 0526 88BF     		it	hi
 1864 0528 043C     		subhi	r4, r4, #4
 1865              	.LVL190:
 1866 052a 0E9E     		ldr	r6, [sp, #56]
 1867              		.loc 1 606 0
 1868 052c 691E     		subs	r1, r5, #1
 1869              	.LVL191:
 1870 052e 089D     		ldr	r5, [sp, #32]
 1871 0530 BAE7     		b	.L130
 1872              	.LVL192:
 1873              	.L75:
 1874 0532 099B     		ldr	r3, [sp, #36]
 1875              		.loc 1 542 0
 1876 0534 0B9C     		ldr	r4, [sp, #44]
 1877 0536 1BB2     		sxth	r3, r3
 1878 0538 AFE7     		b	.L148
 1879              	.LVL193:
 1880              	.L164:
 1881              		.loc 1 584 0
 1882 053a 0599     		ldr	r1, [sp, #20]
 1883 053c 5B18     		adds	r3, r3, r1
 1884              	.LVL194:
 1885              	.L178:
 1886 053e 18B2     		sxth	r0, r3
 1887              	.LVL195:
 1888 0540 29B2     		sxth	r1, r5
 1889 0542 069A     		ldr	r2, [sp, #24]
 1890              	.LVL196:
 1891 0544 CDF80CC0 		str	ip, [sp, #12]
 1892 0548 FFF7FEFF 		bl	gdispDrawPixel
 1893              	.LVL197:
 1894 054c DDF80CC0 		ldr	ip, [sp, #12]
 1895 0550 4AE6     		b	.L106
 1896              	.LVL198:
 1897              	.L168:
 1898 0552 DDF814E0 		ldr	lr, [sp, #20]
 1899 0556 069A     		ldr	r2, [sp, #24]
 1900 0558 03EB0E01 		add	r1, r3, lr
 1901 055c 08B2     		sxth	r0, r1
 1902 055e 29B2     		sxth	r1, r5
 1903 0560 FFF7FEFF 		bl	gdispDrawPixel
 1904              	.LVL199:
 1905 0564 66E6     		b	.L111
 1906              	.LVL200:
 1907              	.L163:
 1908              		.loc 1 589 0
 1909 0566 0599     		ldr	r1, [sp, #20]
 1910 0568 5318     		adds	r3, r2, r1
 1911              	.LVL201:
 1912 056a E8E7     		b	.L178
 1913              	.LVL202:
 1914              	.L167:
 1915 056c 0599     		ldr	r1, [sp, #20]
 1916 056e 5018     		adds	r0, r2, r1
 1917 0570 00B2     		sxth	r0, r0
 1918 0572 29B2     		sxth	r1, r5
ARM GAS  /tmp/ccAUe7jC.s 			page 35


 1919 0574 069A     		ldr	r2, [sp, #24]
 1920 0576 FFF7FEFF 		bl	gdispDrawPixel
 1921              	.LVL203:
 1922 057a 5BE6     		b	.L111
 1923              		.cfi_endproc
 1924              	.LFE132:
 1925              		.size	gdispFillConvexPoly, .-gdispFillConvexPoly
 1926 057c AFF30080 		.section	.text.gdispDrawString,"ax",%progbits
 1927              		.align	2
 1928              		.p2align 4,,15
 1929              		.global	gdispDrawString
 1930              		.thumb
 1931              		.thumb_func
 1932              		.type	gdispDrawString, %function
 1933              	gdispDrawString:
 1934              	.LFB133:
 1935              		.loc 1 623 0
 1936              		.cfi_startproc
 1937              		@ args = 4, pretend = 0, frame = 0
 1938              		@ frame_needed = 0, uses_anonymous_args = 0
 1939              	.LVL204:
 1940 0000 2DE9F04F 		push	{r4, r5, r6, r7, r8, r9, sl, fp, lr}
 1941              	.LCFI22:
 1942              		.cfi_def_cfa_offset 36
 1943              		.cfi_offset 4, -36
 1944              		.cfi_offset 5, -32
 1945              		.cfi_offset 6, -28
 1946              		.cfi_offset 7, -24
 1947              		.cfi_offset 8, -20
 1948              		.cfi_offset 9, -16
 1949              		.cfi_offset 10, -12
 1950              		.cfi_offset 11, -8
 1951              		.cfi_offset 14, -4
 1952 0004 83B0     		sub	sp, sp, #12
 1953              	.LCFI23:
 1954              		.cfi_def_cfa_offset 48
 1955              		.loc 1 623 0
 1956 0006 8346     		mov	fp, r0
 1957 0008 8846     		mov	r8, r1
 1958 000a 1C46     		mov	r4, r3
 1959 000c BDF83090 		ldrh	r9, [sp, #48]
 1960              		.loc 1 629 0
 1961 0010 72B3     		cbz	r2, .L191
 1962              	.LVL205:
 1963              		.loc 1 632 0
 1964 0012 1B7B     		ldrb	r3, [r3, #12]	@ zero_extendqisi2
 1965              	.LVL206:
 1966 0014 6779     		ldrb	r7, [r4, #5]	@ zero_extendqisi2
 1967              		.loc 1 623 0
 1968 0016 551E     		subs	r5, r2, #1
 1969              		.loc 1 632 0
 1970 0018 07FB03F7 		mul	r7, r7, r3
 1971              	.LVL207:
 1972              		.loc 1 631 0
 1973 001c 4FF0010A 		mov	sl, #1
 1974              	.LVL208:
 1975              	.L207:
ARM GAS  /tmp/ccAUe7jC.s 			page 36


 1976              		.loc 1 633 0 discriminator 1
 1977 0020 15F8012F 		ldrb	r2, [r5, #1]!	@ zero_extendqisi2
 1978              	.LVL209:
 1979 0024 22B3     		cbz	r2, .L191
 1980              	.LVL210:
 1981              	.L196:
 1982              		.loc 1 636 0
 1983 0026 A07A     		ldrb	r0, [r4, #10]	@ zero_extendqisi2
 1984 0028 8242     		cmp	r2, r0
 1985 002a F9D3     		bcc	.L207
 1986              		.loc 1 636 0 is_stmt 0 discriminator 1
 1987 002c E17A     		ldrb	r1, [r4, #11]	@ zero_extendqisi2
 1988 002e 9142     		cmp	r1, r2
 1989 0030 C0EB0203 		rsb	r3, r0, r2
 1990 0034 F4D3     		bcc	.L207
 1991 0036 2069     		ldr	r0, [r4, #16]
 1992 0038 267B     		ldrb	r6, [r4, #12]	@ zero_extendqisi2
 1993 003a C15C     		ldrb	r1, [r0, r3]	@ zero_extendqisi2
 1994 003c 06FB01F6 		mul	r6, r6, r1
 1995              	.LVL211:
 1996              		.loc 1 637 0 is_stmt 1 discriminator 1
 1997 0040 002E     		cmp	r6, #0
 1998 0042 EDD0     		beq	.L207
 1999              		.loc 1 640 0
 2000 0044 37B1     		cbz	r7, .L195
 2001              		.loc 1 642 0
 2002 0046 07EB0B03 		add	r3, r7, fp
 2003              		.loc 1 641 0
 2004 004a BAF1000F 		cmp	sl, #0
 2005 004e 12D1     		bne	.L198
 2006              		.loc 1 642 0
 2007 0050 0FFA83FB 		sxth	fp, r3
 2008              	.LVL212:
 2009              	.L195:
 2010              		.loc 1 648 0
 2011 0054 5846     		mov	r0, fp
 2012 0056 CDF80090 		str	r9, [sp, #0]
 2013 005a 4146     		mov	r1, r8
 2014 005c 2346     		mov	r3, r4
 2015 005e FFF7FEFF 		bl	gdispDrawChar
 2016              	.LVL213:
 2017              		.loc 1 633 0
 2018 0062 15F8012F 		ldrb	r2, [r5, #1]!	@ zero_extendqisi2
 2019              		.loc 1 649 0
 2020 0066 B344     		add	fp, r6, fp
 2021              	.LVL214:
 2022 0068 0FFA8BFB 		sxth	fp, fp
 2023              	.LVL215:
 2024              		.loc 1 633 0
 2025 006c 002A     		cmp	r2, #0
 2026 006e DAD1     		bne	.L196
 2027              	.LVL216:
 2028              	.L191:
 2029              		.loc 1 651 0
 2030 0070 03B0     		add	sp, sp, #12
 2031 0072 BDE8F08F 		pop	{r4, r5, r6, r7, r8, r9, sl, fp, pc}
 2032              	.LVL217:
ARM GAS  /tmp/ccAUe7jC.s 			page 37


 2033              	.L198:
 2034              		.loc 1 644 0
 2035 0076 4FF0000A 		mov	sl, #0
 2036              	.LVL218:
 2037 007a EBE7     		b	.L195
 2038              		.cfi_endproc
 2039              	.LFE133:
 2040              		.size	gdispDrawString, .-gdispDrawString
 2041 007c AFF30080 		.section	.text.gdispFillString,"ax",%progbits
 2042              		.align	2
 2043              		.p2align 4,,15
 2044              		.global	gdispFillString
 2045              		.thumb
 2046              		.thumb_func
 2047              		.type	gdispFillString, %function
 2048              	gdispFillString:
 2049              	.LFB134:
 2050              		.loc 1 655 0
 2051              		.cfi_startproc
 2052              		@ args = 8, pretend = 0, frame = 24
 2053              		@ frame_needed = 0, uses_anonymous_args = 0
 2054              	.LVL219:
 2055 0000 2DE9F04F 		push	{r4, r5, r6, r7, r8, r9, sl, fp, lr}
 2056              	.LCFI24:
 2057              		.cfi_def_cfa_offset 36
 2058              		.cfi_offset 4, -36
 2059              		.cfi_offset 5, -32
 2060              		.cfi_offset 6, -28
 2061              		.cfi_offset 7, -24
 2062              		.cfi_offset 8, -20
 2063              		.cfi_offset 9, -16
 2064              		.cfi_offset 10, -12
 2065              		.cfi_offset 11, -8
 2066              		.cfi_offset 14, -4
 2067 0004 89B0     		sub	sp, sp, #36
 2068              	.LCFI25:
 2069              		.cfi_def_cfa_offset 72
 2070              		.loc 1 655 0
 2071 0006 8946     		mov	r9, r1
 2072 0008 BDF84810 		ldrh	r1, [sp, #72]
 2073              	.LVL220:
 2074 000c BDF84CA0 		ldrh	sl, [sp, #76]
 2075 0010 0391     		str	r1, [sp, #12]
 2076 0012 8346     		mov	fp, r0
 2077 0014 1D46     		mov	r5, r3
 2078              		.loc 1 661 0
 2079 0016 002A     		cmp	r2, #0
 2080 0018 3CD0     		beq	.L208
 2081              	.LVL221:
 2082              		.loc 1 665 0
 2083 001a 187B     		ldrb	r0, [r3, #12]	@ zero_extendqisi2
 2084              	.LVL222:
 2085 001c 5C79     		ldrb	r4, [r3, #5]	@ zero_extendqisi2
 2086              		.loc 1 664 0
 2087 001e 2E79     		ldrb	r6, [r5, #4]	@ zero_extendqisi2
 2088 0020 5B7B     		ldrb	r3, [r3, #13]	@ zero_extendqisi2
 2089              	.LVL223:
ARM GAS  /tmp/ccAUe7jC.s 			page 38


 2090              		.loc 1 665 0
 2091 0022 04FB00F1 		mul	r1, r4, r0
 2092              		.loc 1 664 0
 2093 0026 06FB03F3 		mul	r3, r6, r3
 2094              	.LVL224:
 2095              		.loc 1 665 0
 2096 002a 1FFA81F8 		uxth	r8, r1
 2097              	.LVL225:
 2098              		.loc 1 655 0
 2099 002e 561E     		subs	r6, r2, #1
 2100              		.loc 1 675 0
 2101 0030 0FFA88F0 		sxth	r0, r8
 2102              		.loc 1 663 0
 2103 0034 0122     		movs	r2, #1
 2104              	.LVL226:
 2105              		.loc 1 675 0
 2106 0036 1CB2     		sxth	r4, r3
 2107              		.loc 1 665 0
 2108 0038 0591     		str	r1, [sp, #20]
 2109              		.loc 1 663 0
 2110 003a 0492     		str	r2, [sp, #16]
 2111              		.loc 1 675 0
 2112 003c 0690     		str	r0, [sp, #24]
 2113 003e 0794     		str	r4, [sp, #28]
 2114              	.LVL227:
 2115              	.L224:
 2116              		.loc 1 666 0 discriminator 1
 2117 0040 16F8014F 		ldrb	r4, [r6, #1]!	@ zero_extendqisi2
 2118              	.LVL228:
 2119 0044 34B3     		cbz	r4, .L208
 2120              	.LVL229:
 2121              	.L213:
 2122              		.loc 1 669 0
 2123 0046 A97A     		ldrb	r1, [r5, #10]	@ zero_extendqisi2
 2124 0048 8C42     		cmp	r4, r1
 2125 004a F9D3     		bcc	.L224
 2126              		.loc 1 669 0 is_stmt 0 discriminator 1
 2127 004c EB7A     		ldrb	r3, [r5, #11]	@ zero_extendqisi2
 2128 004e A342     		cmp	r3, r4
 2129 0050 C1EB0402 		rsb	r2, r1, r4
 2130 0054 F4D3     		bcc	.L224
 2131 0056 2869     		ldr	r0, [r5, #16]
 2132 0058 2F7B     		ldrb	r7, [r5, #12]	@ zero_extendqisi2
 2133 005a 815C     		ldrb	r1, [r0, r2]	@ zero_extendqisi2
 2134 005c 07FB01F7 		mul	r7, r7, r1
 2135              	.LVL230:
 2136              		.loc 1 670 0 is_stmt 1 discriminator 1
 2137 0060 002F     		cmp	r7, #0
 2138 0062 EDD0     		beq	.L224
 2139              		.loc 1 673 0
 2140 0064 B8F1000F 		cmp	r8, #0
 2141 0068 03D0     		beq	.L212
 2142              		.loc 1 674 0
 2143 006a 049B     		ldr	r3, [sp, #16]
 2144 006c ABB1     		cbz	r3, .L225
 2145              		.loc 1 678 0
 2146 006e 0022     		movs	r2, #0
ARM GAS  /tmp/ccAUe7jC.s 			page 39


 2147 0070 0492     		str	r2, [sp, #16]
 2148              	.L212:
 2149              	.LVL231:
 2150              		.loc 1 682 0
 2151 0072 039A     		ldr	r2, [sp, #12]
 2152 0074 5846     		mov	r0, fp
 2153 0076 8DE80404 		stmia	sp, {r2, sl}
 2154 007a 4946     		mov	r1, r9
 2155 007c 2246     		mov	r2, r4
 2156 007e 2B46     		mov	r3, r5
 2157              		.loc 1 683 0
 2158 0080 07EB0B04 		add	r4, r7, fp
 2159              		.loc 1 682 0
 2160 0084 FFF7FEFF 		bl	gdispFillChar
 2161              	.LVL232:
 2162              		.loc 1 683 0
 2163 0088 0FFA84FB 		sxth	fp, r4
 2164              	.LVL233:
 2165              		.loc 1 666 0
 2166 008c 16F8014F 		ldrb	r4, [r6, #1]!	@ zero_extendqisi2
 2167              	.LVL234:
 2168 0090 002C     		cmp	r4, #0
 2169 0092 D8D1     		bne	.L213
 2170              	.LVL235:
 2171              	.L208:
 2172              		.loc 1 685 0
 2173 0094 09B0     		add	sp, sp, #36
 2174 0096 BDE8F08F 		pop	{r4, r5, r6, r7, r8, r9, sl, fp, pc}
 2175              	.LVL236:
 2176              	.L225:
 2177              		.loc 1 675 0
 2178 009a 5846     		mov	r0, fp
 2179 009c CDF800A0 		str	sl, [sp, #0]
 2180 00a0 4946     		mov	r1, r9
 2181 00a2 069A     		ldr	r2, [sp, #24]
 2182 00a4 079B     		ldr	r3, [sp, #28]
 2183 00a6 FFF7FEFF 		bl	gdispFillArea
 2184              	.LVL237:
 2185              		.loc 1 676 0
 2186 00aa 0598     		ldr	r0, [sp, #20]
 2187 00ac 8344     		add	fp, r0, fp
 2188 00ae 0FFA8BFB 		sxth	fp, fp
 2189              	.LVL238:
 2190 00b2 DEE7     		b	.L212
 2191              		.cfi_endproc
 2192              	.LFE134:
 2193              		.size	gdispFillString, .-gdispFillString
 2194 00b4 AFF30080 		.section	.text.gdispGetFontMetric,"ax",%progbits
 2194      AFF30080 
 2194      AFF30080 
 2195              		.align	2
 2196              		.p2align 4,,15
 2197              		.global	gdispGetFontMetric
 2198              		.thumb
 2199              		.thumb_func
 2200              		.type	gdispGetFontMetric, %function
 2201              	gdispGetFontMetric:
ARM GAS  /tmp/ccAUe7jC.s 			page 40


 2202              	.LFB137:
 2203              		.loc 1 941 0
 2204              		.cfi_startproc
 2205              		@ args = 0, pretend = 0, frame = 0
 2206              		@ frame_needed = 0, uses_anonymous_args = 0
 2207              		@ link register save eliminated.
 2208              	.LVL239:
 2209              		.loc 1 943 0
 2210 0000 0529     		cmp	r1, #5
 2211 0002 0AD8     		bhi	.L235
 2212 0004 DFE801F0 		tbb	[pc, r1]
 2213              	.L234:
 2214 0008 0C       		.byte	(.L228-.L234)/2
 2215 0009 12       		.byte	(.L229-.L234)/2
 2216 000a 18       		.byte	(.L230-.L234)/2
 2217 000b 1E       		.byte	(.L231-.L234)/2
 2218 000c 24       		.byte	(.L232-.L234)/2
 2219 000d 03       		.byte	(.L233-.L234)/2
 2220              		.align	1
 2221              	.L233:
 2222              		.loc 1 949 0
 2223 000e 037B     		ldrb	r3, [r0, #12]	@ zero_extendqisi2
 2224 0010 407A     		ldrb	r0, [r0, #9]	@ zero_extendqisi2
 2225              	.LVL240:
 2226 0012 00FB03F3 		mul	r3, r0, r3
 2227              		.loc 1 952 0
 2228 0016 18B2     		sxth	r0, r3
 2229 0018 7047     		bx	lr
 2230              	.LVL241:
 2231              	.L235:
 2232              		.loc 1 951 0
 2233 001a 0023     		movs	r3, #0
 2234              		.loc 1 952 0
 2235 001c 18B2     		sxth	r0, r3
 2236              	.LVL242:
 2237 001e 7047     		bx	lr
 2238              	.LVL243:
 2239              	.L228:
 2240              		.loc 1 944 0
 2241 0020 417B     		ldrb	r1, [r0, #13]	@ zero_extendqisi2
 2242              	.LVL244:
 2243 0022 0279     		ldrb	r2, [r0, #4]	@ zero_extendqisi2
 2244 0024 02FB01F3 		mul	r3, r2, r1
 2245              		.loc 1 952 0
 2246 0028 18B2     		sxth	r0, r3
 2247              	.LVL245:
 2248 002a 7047     		bx	lr
 2249              	.LVL246:
 2250              	.L229:
 2251              		.loc 1 945 0
 2252 002c 437B     		ldrb	r3, [r0, #13]	@ zero_extendqisi2
 2253 002e C079     		ldrb	r0, [r0, #7]	@ zero_extendqisi2
 2254              	.LVL247:
 2255 0030 00FB03F3 		mul	r3, r0, r3
 2256              		.loc 1 952 0
 2257 0034 18B2     		sxth	r0, r3
 2258 0036 7047     		bx	lr
ARM GAS  /tmp/ccAUe7jC.s 			page 41


 2259              	.LVL248:
 2260              	.L230:
 2261              		.loc 1 946 0
 2262 0038 417B     		ldrb	r1, [r0, #13]	@ zero_extendqisi2
 2263              	.LVL249:
 2264 003a 8279     		ldrb	r2, [r0, #6]	@ zero_extendqisi2
 2265 003c 02FB01F3 		mul	r3, r2, r1
 2266              		.loc 1 952 0
 2267 0040 18B2     		sxth	r0, r3
 2268              	.LVL250:
 2269 0042 7047     		bx	lr
 2270              	.LVL251:
 2271              	.L231:
 2272              		.loc 1 947 0
 2273 0044 037B     		ldrb	r3, [r0, #12]	@ zero_extendqisi2
 2274 0046 4079     		ldrb	r0, [r0, #5]	@ zero_extendqisi2
 2275              	.LVL252:
 2276 0048 00FB03F3 		mul	r3, r0, r3
 2277              		.loc 1 952 0
 2278 004c 18B2     		sxth	r0, r3
 2279 004e 7047     		bx	lr
 2280              	.LVL253:
 2281              	.L232:
 2282              		.loc 1 948 0
 2283 0050 017B     		ldrb	r1, [r0, #12]	@ zero_extendqisi2
 2284              	.LVL254:
 2285 0052 027A     		ldrb	r2, [r0, #8]	@ zero_extendqisi2
 2286 0054 02FB01F3 		mul	r3, r2, r1
 2287              		.loc 1 952 0
 2288 0058 18B2     		sxth	r0, r3
 2289              	.LVL255:
 2290 005a 7047     		bx	lr
 2291              		.cfi_endproc
 2292              	.LFE137:
 2293              		.size	gdispGetFontMetric, .-gdispGetFontMetric
 2294 005c AFF30080 		.section	.text.gdispGetCharWidth,"ax",%progbits
 2295              		.align	2
 2296              		.p2align 4,,15
 2297              		.global	gdispGetCharWidth
 2298              		.thumb
 2299              		.thumb_func
 2300              		.type	gdispGetCharWidth, %function
 2301              	gdispGetCharWidth:
 2302              	.LFB138:
 2303              		.loc 1 956 0
 2304              		.cfi_startproc
 2305              		@ args = 0, pretend = 0, frame = 0
 2306              		@ frame_needed = 0, uses_anonymous_args = 0
 2307              		@ link register save eliminated.
 2308              	.LVL256:
 2309              		.loc 1 958 0
 2310 0000 8B7A     		ldrb	r3, [r1, #10]	@ zero_extendqisi2
 2311 0002 8342     		cmp	r3, r0
 2312 0004 0AD8     		bhi	.L239
 2313              		.loc 1 958 0 is_stmt 0 discriminator 1
 2314 0006 CA7A     		ldrb	r2, [r1, #11]	@ zero_extendqisi2
 2315 0008 8242     		cmp	r2, r0
ARM GAS  /tmp/ccAUe7jC.s 			page 42


 2316 000a 07D3     		bcc	.L239
 2317 000c C01A     		subs	r0, r0, r3
 2318              	.LVL257:
 2319 000e 0B69     		ldr	r3, [r1, #16]
 2320 0010 097B     		ldrb	r1, [r1, #12]	@ zero_extendqisi2
 2321              	.LVL258:
 2322 0012 1A5C     		ldrb	r2, [r3, r0]	@ zero_extendqisi2
 2323 0014 02FB01F0 		mul	r0, r2, r1
 2324              		.loc 1 959 0 is_stmt 1 discriminator 1
 2325 0018 00B2     		sxth	r0, r0
 2326 001a 7047     		bx	lr
 2327              	.LVL259:
 2328              	.L239:
 2329              		.loc 1 958 0
 2330 001c 0020     		movs	r0, #0
 2331              	.LVL260:
 2332              		.loc 1 959 0
 2333 001e 00B2     		sxth	r0, r0
 2334 0020 7047     		bx	lr
 2335              		.cfi_endproc
 2336              	.LFE138:
 2337              		.size	gdispGetCharWidth, .-gdispGetCharWidth
 2338 0022 00BFAFF3 		.section	.text.gdispGetStringWidth,"ax",%progbits
 2338      0080AFF3 
 2338      0080AFF3 
 2338      0080
 2339              		.align	2
 2340              		.p2align 4,,15
 2341              		.global	gdispGetStringWidth
 2342              		.thumb
 2343              		.thumb_func
 2344              		.type	gdispGetStringWidth, %function
 2345              	gdispGetStringWidth:
 2346              	.LFB139:
 2347              		.loc 1 963 0
 2348              		.cfi_startproc
 2349              		@ args = 0, pretend = 0, frame = 0
 2350              		@ frame_needed = 0, uses_anonymous_args = 0
 2351              		@ link register save eliminated.
 2352              	.LVL261:
 2353 0000 F0B4     		push	{r4, r5, r6, r7}
 2354              	.LCFI26:
 2355              		.cfi_def_cfa_offset 16
 2356              		.cfi_offset 4, -16
 2357              		.cfi_offset 5, -12
 2358              		.cfi_offset 6, -8
 2359              		.cfi_offset 7, -4
 2360              		.loc 1 971 0
 2361 0002 91F80CC0 		ldrb	ip, [r1, #12]	@ zero_extendqisi2
 2362 0006 4E79     		ldrb	r6, [r1, #5]	@ zero_extendqisi2
 2363              		.loc 1 963 0
 2364 0008 0138     		subs	r0, r0, #1
 2365              	.LVL262:
 2366              		.loc 1 969 0
 2367 000a 0127     		movs	r7, #1
 2368              		.loc 1 971 0
 2369 000c 06FB0CF6 		mul	r6, r6, ip
ARM GAS  /tmp/ccAUe7jC.s 			page 43


 2370              	.LVL263:
 2371              		.loc 1 970 0
 2372 0010 0024     		movs	r4, #0
 2373              	.LVL264:
 2374              	.L254:
 2375              		.loc 1 972 0 discriminator 1
 2376 0012 10F8013F 		ldrb	r3, [r0, #1]!	@ zero_extendqisi2
 2377              	.LVL265:
 2378 0016 BBB1     		cbz	r3, .L255
 2379              	.LVL266:
 2380              	.L244:
 2381              		.loc 1 975 0
 2382 0018 8A7A     		ldrb	r2, [r1, #10]	@ zero_extendqisi2
 2383 001a 9342     		cmp	r3, r2
 2384 001c F9D3     		bcc	.L254
 2385              		.loc 1 975 0 is_stmt 0 discriminator 1
 2386 001e CD7A     		ldrb	r5, [r1, #11]	@ zero_extendqisi2
 2387 0020 9D42     		cmp	r5, r3
 2388 0022 C2EB0302 		rsb	r2, r2, r3
 2389 0026 F4D3     		bcc	.L254
 2390 0028 0B69     		ldr	r3, [r1, #16]
 2391 002a 9A5C     		ldrb	r2, [r3, r2]	@ zero_extendqisi2
 2392 002c 02FB0CF3 		mul	r3, r2, ip
 2393              	.LVL267:
 2394              		.loc 1 976 0 is_stmt 1 discriminator 1
 2395 0030 002B     		cmp	r3, #0
 2396 0032 EED0     		beq	.L254
 2397              		.loc 1 979 0
 2398 0034 16B1     		cbz	r6, .L243
 2399              		.loc 1 981 0
 2400 0036 3219     		adds	r2, r6, r4
 2401              		.loc 1 980 0
 2402 0038 4FB9     		cbnz	r7, .L245
 2403              		.loc 1 981 0
 2404 003a 94B2     		uxth	r4, r2
 2405              	.LVL268:
 2406              	.L243:
 2407              		.loc 1 987 0
 2408 003c 1C19     		adds	r4, r3, r4
 2409              	.LVL269:
 2410              		.loc 1 972 0
 2411 003e 10F8013F 		ldrb	r3, [r0, #1]!	@ zero_extendqisi2
 2412              	.LVL270:
 2413              		.loc 1 987 0
 2414 0042 A4B2     		uxth	r4, r4
 2415              	.LVL271:
 2416              		.loc 1 972 0
 2417 0044 002B     		cmp	r3, #0
 2418 0046 E7D1     		bne	.L244
 2419              	.LVL272:
 2420              	.L255:
 2421              		.loc 1 990 0
 2422 0048 20B2     		sxth	r0, r4
 2423 004a F0BC     		pop	{r4, r5, r6, r7}
 2424 004c 7047     		bx	lr
 2425              	.LVL273:
 2426              	.L245:
ARM GAS  /tmp/ccAUe7jC.s 			page 44


 2427              		.loc 1 983 0
 2428 004e 0027     		movs	r7, #0
 2429              	.LVL274:
 2430 0050 F4E7     		b	.L243
 2431              		.cfi_endproc
 2432              	.LFE139:
 2433              		.size	gdispGetStringWidth, .-gdispGetStringWidth
 2434 0052 00BFAFF3 		.section	.text.gdispFillStringBox,"ax",%progbits
 2434      0080AFF3 
 2434      0080AFF3 
 2434      0080
 2435              		.align	2
 2436              		.p2align 4,,15
 2437              		.global	gdispFillStringBox
 2438              		.thumb
 2439              		.thumb_func
 2440              		.type	gdispFillStringBox, %function
 2441              	gdispFillStringBox:
 2442              	.LFB136:
 2443              		.loc 1 809 0
 2444              		.cfi_startproc
 2445              		@ args = 20, pretend = 0, frame = 40
 2446              		@ frame_needed = 0, uses_anonymous_args = 0
 2447              	.LVL275:
 2448 0000 2DE9F04F 		push	{r4, r5, r6, r7, r8, r9, sl, fp, lr}
 2449              	.LCFI27:
 2450              		.cfi_def_cfa_offset 36
 2451              		.cfi_offset 4, -36
 2452              		.cfi_offset 5, -32
 2453              		.cfi_offset 6, -28
 2454              		.cfi_offset 7, -24
 2455              		.cfi_offset 8, -20
 2456              		.cfi_offset 9, -16
 2457              		.cfi_offset 10, -12
 2458              		.cfi_offset 11, -8
 2459              		.cfi_offset 14, -4
 2460 0004 8DB0     		sub	sp, sp, #52
 2461              	.LCFI28:
 2462              		.cfi_def_cfa_offset 88
 2463              		.loc 1 816 0
 2464 0006 DFF8F083 		ldr	r8, .L359
 2465              		.loc 1 809 0
 2466 000a 179D     		ldr	r5, [sp, #92]
 2467 000c BDF86040 		ldrh	r4, [sp, #96]
 2468              		.loc 1 818 0
 2469 0010 2F79     		ldrb	r7, [r5, #4]	@ zero_extendqisi2
 2470 0012 6E7B     		ldrb	r6, [r5, #13]	@ zero_extendqisi2
 2471              		.loc 1 809 0
 2472 0014 0894     		str	r4, [sp, #32]
 2473              		.loc 1 818 0
 2474 0016 07FB06F6 		mul	r6, r7, r6
 2475              		.loc 1 809 0
 2476 001a BDF86440 		ldrh	r4, [sp, #100]
 2477 001e 0993     		str	r3, [sp, #36]
 2478              		.loc 1 818 0
 2479 0020 B7B2     		uxth	r7, r6
 2480              		.loc 1 822 0
ARM GAS  /tmp/ccAUe7jC.s 			page 45


 2481 0022 3BB2     		sxth	r3, r7
 2482              	.LVL276:
 2483              		.loc 1 809 0
 2484 0024 0694     		str	r4, [sp, #24]
 2485              		.loc 1 818 0
 2486 0026 0B97     		str	r7, [sp, #44]
 2487              		.loc 1 816 0
 2488 0028 169C     		ldr	r4, [sp, #88]
 2489              		.loc 1 822 0
 2490 002a 099F     		ldr	r7, [sp, #36]
 2491              		.loc 1 809 0
 2492 002c 9DF86890 		ldrb	r9, [sp, #104]	@ zero_extendqisi2
 2493              		.loc 1 819 0
 2494 0030 95F805B0 		ldrb	fp, [r5, #5]	@ zero_extendqisi2
 2495 0034 95F80CC0 		ldrb	ip, [r5, #12]	@ zero_extendqisi2
 2496              		.loc 1 809 0
 2497 0038 0591     		str	r1, [sp, #20]
 2498              		.loc 1 816 0
 2499 003a 002C     		cmp	r4, #0
 2500 003c 18BF     		it	ne
 2501 003e A046     		movne	r8, r4
 2502              	.LVL277:
 2503              		.loc 1 822 0
 2504 0040 BB42     		cmp	r3, r7
 2505              		.loc 1 809 0
 2506 0042 8246     		mov	sl, r0
 2507 0044 0792     		str	r2, [sp, #28]
 2508              		.loc 1 822 0
 2509 0046 00F39D80 		bgt	.L256
 2510              		.loc 1 825 0
 2511 004a FF1A     		subs	r7, r7, r3
 2512 004c 7B1C     		adds	r3, r7, #1
 2513 004e 03EBD374 		add	r4, r3, r3, lsr #31
 2514              	.LVL278:
 2515 0052 C4F34F04 		ubfx	r4, r4, #1, #16
 2516              	.LVL279:
 2517              		.loc 1 826 0
 2518 0056 27B2     		sxth	r7, r4
 2519 0058 002F     		cmp	r7, #0
 2520 005a 10DD     		ble	.L260
 2521              		.loc 1 827 0
 2522 005c 069B     		ldr	r3, [sp, #24]
 2523 005e CDF810C0 		str	ip, [sp, #16]
 2524 0062 0093     		str	r3, [sp, #0]
 2525 0064 3B46     		mov	r3, r7
 2526 0066 FFF7FEFF 		bl	gdispFillArea
 2527              	.LVL280:
 2528              		.loc 1 828 0
 2529 006a 0598     		ldr	r0, [sp, #20]
 2530              		.loc 1 829 0
 2531 006c 099A     		ldr	r2, [sp, #36]
 2532 006e DDF810C0 		ldr	ip, [sp, #16]
 2533              		.loc 1 828 0
 2534 0072 2118     		adds	r1, r4, r0
 2535              		.loc 1 829 0
 2536 0074 141B     		subs	r4, r2, r4
 2537              	.LVL281:
ARM GAS  /tmp/ccAUe7jC.s 			page 46


 2538              		.loc 1 828 0
 2539 0076 0FB2     		sxth	r7, r1
 2540              		.loc 1 829 0
 2541 0078 23B2     		sxth	r3, r4
 2542              		.loc 1 828 0
 2543 007a 0597     		str	r7, [sp, #20]
 2544              	.LVL282:
 2545              		.loc 1 829 0
 2546 007c 0993     		str	r3, [sp, #36]
 2547              	.LVL283:
 2548              	.L260:
 2549              		.loc 1 833 0
 2550 007e 0998     		ldr	r0, [sp, #36]
 2551 0080 81B2     		uxth	r1, r0
 2552 0082 8E1B     		subs	r6, r1, r6
 2553 0084 B4B2     		uxth	r4, r6
 2554              	.LVL284:
 2555              		.loc 1 834 0
 2556 0086 23B2     		sxth	r3, r4
 2557 0088 002B     		cmp	r3, #0
 2558 008a 0FDD     		ble	.L261
 2559              		.loc 1 835 0
 2560 008c 059A     		ldr	r2, [sp, #20]
 2561 008e 0698     		ldr	r0, [sp, #24]
 2562 0090 CDF810C0 		str	ip, [sp, #16]
 2563 0094 8F18     		adds	r7, r1, r2
 2564 0096 391B     		subs	r1, r7, r4
 2565 0098 0090     		str	r0, [sp, #0]
 2566 009a 09B2     		sxth	r1, r1
 2567 009c 5046     		mov	r0, sl
 2568 009e 079A     		ldr	r2, [sp, #28]
 2569 00a0 FFF7FEFF 		bl	gdispFillArea
 2570              	.LVL285:
 2571 00a4 0B9B     		ldr	r3, [sp, #44]
 2572 00a6 DDF810C0 		ldr	ip, [sp, #16]
 2573 00aa 0993     		str	r3, [sp, #36]
 2574              	.LVL286:
 2575              	.L261:
 2576              		.loc 1 819 0
 2577 00ac 0BFB0CFB 		mul	fp, fp, ip
 2578              		.loc 1 840 0
 2579 00b0 B9F1010F 		cmp	r9, #1
 2580              		.loc 1 819 0
 2581 00b4 CDF82CB0 		str	fp, [sp, #44]
 2582 00b8 1FFA8BFB 		uxth	fp, fp
 2583              	.LVL287:
 2584              		.loc 1 840 0
 2585 00bc 65D0     		beq	.L263
 2586 00be B9F1020F 		cmp	r9, #2
 2587 00c2 00F0B180 		beq	.L352
 2588              		.loc 1 902 0
 2589 00c6 0AF10106 		add	r6, sl, #1
 2590              	.LVL288:
 2591 00ca B6B2     		uxth	r6, r6
 2592              	.LVL289:
 2593 00cc 37B2     		sxth	r7, r6
 2594              	.LVL290:
ARM GAS  /tmp/ccAUe7jC.s 			page 47


 2595              	.L268:
 2596              		.loc 1 907 0
 2597 00ce 5745     		cmp	r7, sl
 2598 00d0 00F39C80 		bgt	.L353
 2599              	.LVL291:
 2600              	.L280:
 2601 00d4 0799     		ldr	r1, [sp, #28]
 2602              		.loc 1 809 0 discriminator 1
 2603 00d6 0123     		movs	r3, #1
 2604              		.loc 1 921 0 discriminator 1
 2605 00d8 0FFA8BF4 		sxth	r4, fp
 2606 00dc 8A44     		add	sl, r1, sl
 2607              		.loc 1 809 0 discriminator 1
 2608 00de 08F1FF38 		add	r8, r8, #-1
 2609 00e2 0793     		str	r3, [sp, #28]
 2610              		.loc 1 921 0 discriminator 1
 2611 00e4 0A94     		str	r4, [sp, #40]
 2612 00e6 3846     		mov	r0, r7
 2613              	.L336:
 2614              	.LVL292:
 2615              		.loc 1 912 0 discriminator 1
 2616 00e8 18F8014F 		ldrb	r4, [r8, #1]!	@ zero_extendqisi2
 2617 00ec 002C     		cmp	r4, #0
 2618 00ee 3AD0     		beq	.L284
 2619              	.LVL293:
 2620              	.L285:
 2621              		.loc 1 915 0
 2622 00f0 AF7A     		ldrb	r7, [r5, #10]	@ zero_extendqisi2
 2623 00f2 BC42     		cmp	r4, r7
 2624 00f4 F8D3     		bcc	.L336
 2625              		.loc 1 915 0 is_stmt 0 discriminator 1
 2626 00f6 EA7A     		ldrb	r2, [r5, #11]	@ zero_extendqisi2
 2627 00f8 A242     		cmp	r2, r4
 2628 00fa F5D3     		bcc	.L336
 2629 00fc E11B     		subs	r1, r4, r7
 2630 00fe 2B69     		ldr	r3, [r5, #16]
 2631 0100 95F80C90 		ldrb	r9, [r5, #12]	@ zero_extendqisi2
 2632 0104 5F5C     		ldrb	r7, [r3, r1]	@ zero_extendqisi2
 2633 0106 09FB07F9 		mul	r9, r9, r7
 2634 010a 1FFA89F7 		uxth	r7, r9
 2635              	.LVL294:
 2636              		.loc 1 916 0 is_stmt 1 discriminator 1
 2637 010e 002F     		cmp	r7, #0
 2638 0110 EAD0     		beq	.L336
 2639              		.loc 1 919 0
 2640 0112 BBF1000F 		cmp	fp, #0
 2641 0116 11D0     		beq	.L283
 2642              		.loc 1 920 0
 2643 0118 079A     		ldr	r2, [sp, #28]
 2644 011a 002A     		cmp	r2, #0
 2645 011c 40F08180 		bne	.L290
 2646              		.loc 1 921 0
 2647 0120 0A9A     		ldr	r2, [sp, #40]
 2648 0122 8318     		adds	r3, r0, r2
 2649 0124 5345     		cmp	r3, sl
 2650 0126 1EDC     		bgt	.L284
 2651              		.loc 1 922 0
ARM GAS  /tmp/ccAUe7jC.s 			page 48


 2652 0128 0699     		ldr	r1, [sp, #24]
 2653 012a 099B     		ldr	r3, [sp, #36]
 2654 012c 0091     		str	r1, [sp, #0]
 2655 012e 0599     		ldr	r1, [sp, #20]
 2656 0130 FFF7FEFF 		bl	gdispFillArea
 2657              	.LVL295:
 2658              		.loc 1 923 0
 2659 0134 0B98     		ldr	r0, [sp, #44]
 2660 0136 8619     		adds	r6, r0, r6
 2661 0138 B6B2     		uxth	r6, r6
 2662              	.LVL296:
 2663 013a 30B2     		sxth	r0, r6
 2664              	.LVL297:
 2665              	.L283:
 2666              		.loc 1 929 0
 2667 013c 00FA87FC 		sxtah	ip, r0, r7
 2668 0140 D445     		cmp	ip, sl
 2669 0142 10DC     		bgt	.L284
 2670              		.loc 1 930 0
 2671 0144 069A     		ldr	r2, [sp, #24]
 2672 0146 089F     		ldr	r7, [sp, #32]
 2673 0148 0192     		str	r2, [sp, #4]
 2674 014a 0097     		str	r7, [sp, #0]
 2675 014c 2246     		mov	r2, r4
 2676 014e 0599     		ldr	r1, [sp, #20]
 2677              		.loc 1 931 0
 2678 0150 09EB0604 		add	r4, r9, r6
 2679              	.LVL298:
 2680              		.loc 1 930 0
 2681 0154 2B46     		mov	r3, r5
 2682 0156 FFF7FEFF 		bl	gdispFillChar
 2683              	.LVL299:
 2684              		.loc 1 931 0
 2685 015a A6B2     		uxth	r6, r4
 2686              	.LVL300:
 2687              		.loc 1 912 0
 2688 015c 18F8014F 		ldrb	r4, [r8, #1]!	@ zero_extendqisi2
 2689              	.LVL301:
 2690 0160 30B2     		sxth	r0, r6
 2691 0162 002C     		cmp	r4, #0
 2692 0164 C4D1     		bne	.L285
 2693              	.LVL302:
 2694              	.L284:
 2695              		.loc 1 935 0
 2696 0166 5045     		cmp	r0, sl
 2697 0168 0746     		mov	r7, r0
 2698              	.LVL303:
 2699 016a 0BDA     		bge	.L256
 2700              		.loc 1 936 0
 2701 016c C6EB0A03 		rsb	r3, r6, sl
 2702 0170 069C     		ldr	r4, [sp, #24]
 2703 0172 0599     		ldr	r1, [sp, #20]
 2704 0174 1694     		str	r4, [sp, #88]
 2705 0176 1AB2     		sxth	r2, r3
 2706 0178 099B     		ldr	r3, [sp, #36]
 2707              		.loc 1 937 0
 2708 017a 0DB0     		add	sp, sp, #52
ARM GAS  /tmp/ccAUe7jC.s 			page 49


 2709 017c BDE8F04F 		pop	{r4, r5, r6, r7, r8, r9, sl, fp, lr}
 2710              		.loc 1 936 0
 2711 0180 FFF7FEBF 		b	gdispFillArea
 2712              	.LVL304:
 2713              	.L256:
 2714              		.loc 1 937 0
 2715 0184 0DB0     		add	sp, sp, #52
 2716 0186 BDE8F08F 		pop	{r4, r5, r6, r7, r8, r9, sl, fp, pc}
 2717              	.LVL305:
 2718              	.L263:
 2719              		.loc 1 843 0
 2720 018a 2946     		mov	r1, r5
 2721 018c 4046     		mov	r0, r8
 2722 018e FFF7FEFF 		bl	gdispGetStringWidth
 2723              	.LVL306:
 2724              		.loc 1 844 0
 2725 0192 0799     		ldr	r1, [sp, #28]
 2726 0194 8142     		cmp	r1, r0
 2727 0196 80F2EC80 		bge	.L354
 2728              		.loc 1 848 0
 2729 019a 079A     		ldr	r2, [sp, #28]
 2730 019c 801A     		subs	r0, r0, r2
 2731              	.LVL307:
 2732 019e 00EBD077 		add	r7, r0, r0, lsr #31
 2733 01a2 4FEA670E 		asr	lr, r7, #1
 2734              	.LVL308:
 2735 01a6 4346     		mov	r3, r8
 2736              		.loc 1 850 0
 2737 01a8 4F46     		mov	r7, r9
 2738              		.loc 1 849 0
 2739 01aa 0021     		movs	r1, #0
 2740 01ac 0FFA8EF4 		sxth	r4, lr
 2741              	.LVL309:
 2742              	.L335:
 2743 01b0 9846     		mov	r8, r3
 2744              	.LVL310:
 2745              		.loc 1 851 0 discriminator 1
 2746 01b2 13F8012B 		ldrb	r2, [r3], #1	@ zero_extendqisi2
 2747              	.LVL311:
 2748 01b6 02B3     		cbz	r2, .L272
 2749              		.loc 1 854 0
 2750 01b8 A87A     		ldrb	r0, [r5, #10]	@ zero_extendqisi2
 2751 01ba 8242     		cmp	r2, r0
 2752              		.loc 1 853 0
 2753 01bc 9846     		mov	r8, r3
 2754              	.LVL312:
 2755              		.loc 1 854 0
 2756 01be F7D3     		bcc	.L335
 2757              		.loc 1 854 0 is_stmt 0 discriminator 1
 2758 01c0 EE7A     		ldrb	r6, [r5, #11]	@ zero_extendqisi2
 2759 01c2 9642     		cmp	r6, r2
 2760 01c4 C0EB0200 		rsb	r0, r0, r2
 2761 01c8 F2D3     		bcc	.L335
 2762 01ca 2A69     		ldr	r2, [r5, #16]
 2763 01cc 2E7B     		ldrb	r6, [r5, #12]	@ zero_extendqisi2
 2764 01ce 125C     		ldrb	r2, [r2, r0]	@ zero_extendqisi2
 2765 01d0 06FB02F2 		mul	r2, r6, r2
ARM GAS  /tmp/ccAUe7jC.s 			page 50


 2766              	.LVL313:
 2767              		.loc 1 855 0 is_stmt 1 discriminator 1
 2768 01d4 002A     		cmp	r2, #0
 2769 01d6 EBD0     		beq	.L335
 2770              		.loc 1 858 0
 2771 01d8 BBF1000F 		cmp	fp, #0
 2772 01dc 08D0     		beq	.L271
 2773              		.loc 1 860 0
 2774 01de 0B98     		ldr	r0, [sp, #44]
 2775 01e0 4618     		adds	r6, r0, r1
 2776              		.loc 1 859 0
 2777 01e2 002F     		cmp	r7, #0
 2778 01e4 40F0D280 		bne	.L288
 2779              		.loc 1 860 0
 2780 01e8 B1B2     		uxth	r1, r6
 2781              	.LVL314:
 2782              		.loc 1 861 0
 2783 01ea 08B2     		sxth	r0, r1
 2784 01ec 8442     		cmp	r4, r0
 2785 01ee 04DB     		blt	.L272
 2786              	.LVL315:
 2787              	.L271:
 2788              		.loc 1 867 0
 2789 01f0 5118     		adds	r1, r2, r1
 2790              	.LVL316:
 2791 01f2 89B2     		uxth	r1, r1
 2792              	.LVL317:
 2793              		.loc 1 868 0
 2794 01f4 0AB2     		sxth	r2, r1
 2795              	.LVL318:
 2796 01f6 9442     		cmp	r4, r2
 2797 01f8 DADA     		bge	.L335
 2798              	.LVL319:
 2799              	.L272:
 2800              		.loc 1 870 0
 2801 01fa 0EEB0A0C 		add	ip, lr, sl
 2802 01fe C1EB0C03 		rsb	r3, r1, ip
 2803              	.LVL320:
 2804 0202 9EB2     		uxth	r6, r3
 2805              	.LVL321:
 2806 0204 37B2     		sxth	r7, r6
 2807              	.LVL322:
 2808              		.loc 1 907 0
 2809 0206 5745     		cmp	r7, sl
 2810 0208 7FF764AF 		ble	.L280
 2811              	.LVL323:
 2812              	.L353:
 2813              		.loc 1 908 0
 2814 020c 0698     		ldr	r0, [sp, #24]
 2815 020e 0599     		ldr	r1, [sp, #20]
 2816 0210 0090     		str	r0, [sp, #0]
 2817 0212 CAEB0602 		rsb	r2, sl, r6
 2818 0216 5046     		mov	r0, sl
 2819 0218 12B2     		sxth	r2, r2
 2820 021a 099B     		ldr	r3, [sp, #36]
 2821 021c FFF7FEFF 		bl	gdispFillArea
 2822              	.LVL324:
ARM GAS  /tmp/ccAUe7jC.s 			page 51


 2823 0220 58E7     		b	.L280
 2824              	.LVL325:
 2825              	.L290:
 2826              		.loc 1 925 0
 2827 0222 0021     		movs	r1, #0
 2828 0224 0791     		str	r1, [sp, #28]
 2829 0226 89E7     		b	.L283
 2830              	.LVL326:
 2831              	.L352:
 2832              		.loc 1 875 0 discriminator 1
 2833 0228 98F80040 		ldrb	r4, [r8, #0]	@ zero_extendqisi2
 2834              		.loc 1 809 0 discriminator 1
 2835 022c 08F10102 		add	r2, r8, #1
 2836              		.loc 1 875 0 discriminator 1
 2837 0230 002C     		cmp	r4, #0
 2838 0232 00F0D580 		beq	.L355
 2839              	.L274:
 2840              		.loc 1 875 0 is_stmt 0 discriminator 2
 2841 0236 1046     		mov	r0, r2
 2842              	.LVL327:
 2843 0238 0132     		adds	r2, r2, #1
 2844 023a 0778     		ldrb	r7, [r0, #0]	@ zero_extendqisi2
 2845 023c 002F     		cmp	r7, #0
 2846 023e FAD1     		bne	.L274
 2847              	.LVL328:
 2848              	.L266:
 2849              		.loc 1 876 0 is_stmt 1
 2850 0240 079B     		ldr	r3, [sp, #28]
 2851 0242 AAF10201 		sub	r1, sl, #2
 2852 0246 CE18     		adds	r6, r1, r3
 2853              	.LVL329:
 2854              		.loc 1 878 0
 2855 0248 431E     		subs	r3, r0, #1
 2856 024a 9845     		cmp	r8, r3
 2857              		.loc 1 876 0
 2858 024c B6B2     		uxth	r6, r6
 2859              	.LVL330:
 2860              		.loc 1 878 0
 2861 024e 00F29980 		bhi	.L340
 2862              		.loc 1 880 0
 2863 0252 1A46     		mov	r2, r3
 2864              		.loc 1 809 0
 2865 0254 08F1FF38 		add	r8, r8, #-1
 2866 0258 A97A     		ldrb	r1, [r5, #10]	@ zero_extendqisi2
 2867              		.loc 1 880 0
 2868 025a 12F80179 		ldrb	r7, [r2], #-1	@ zero_extendqisi2
 2869              	.LVL331:
 2870 025e C3EB0804 		rsb	r4, r3, r8
 2871 0262 E043     		mvns	r0, r4
 2872              		.loc 1 877 0
 2873 0264 4FF00109 		mov	r9, #1
 2874              		.loc 1 887 0
 2875 0268 0FFA8BF4 		sxth	r4, fp
 2876              		.loc 1 881 0
 2877 026c 8F42     		cmp	r7, r1
 2878              		.loc 1 887 0
 2879 026e 0A94     		str	r4, [sp, #40]
ARM GAS  /tmp/ccAUe7jC.s 			page 52


 2880 0270 00EA090C 		and	ip, r0, r9
 2881              		.loc 1 881 0
 2882 0274 17D3     		bcc	.L307
 2883 0276 E87A     		ldrb	r0, [r5, #11]	@ zero_extendqisi2
 2884 0278 B842     		cmp	r0, r7
 2885 027a 14D3     		bcc	.L307
 2886 027c 2869     		ldr	r0, [r5, #16]
 2887 027e 2C7B     		ldrb	r4, [r5, #12]	@ zero_extendqisi2
 2888 0280 7F1A     		subs	r7, r7, r1
 2889 0282 C75D     		ldrb	r7, [r0, r7]	@ zero_extendqisi2
 2890 0284 04FB07F4 		mul	r4, r4, r7
 2891 0288 A0B2     		uxth	r0, r4
 2892              		.loc 1 882 0
 2893 028a 60B1     		cbz	r0, .L307
 2894              		.loc 1 894 0
 2895 028c 37B2     		sxth	r7, r6
 2896 028e 00B2     		sxth	r0, r0
 2897              		.loc 1 890 0
 2898 0290 BBF1000F 		cmp	fp, #0
 2899              		.loc 1 894 0
 2900 0294 C0EB0700 		rsb	r0, r0, r7
 2901              		.loc 1 890 0
 2902 0298 18BF     		it	ne
 2903 029a 4FF00009 		movne	r9, #0
 2904              	.LVL332:
 2905              		.loc 1 894 0
 2906 029e 5045     		cmp	r0, sl
 2907 02a0 71DB     		blt	.L276
 2908              		.loc 1 895 0
 2909 02a2 331B     		subs	r3, r6, r4
 2910              	.LVL333:
 2911 02a4 9EB2     		uxth	r6, r3
 2912              	.LVL334:
 2913              	.L307:
 2914              		.loc 1 878 0
 2915 02a6 4245     		cmp	r2, r8
 2916 02a8 1346     		mov	r3, r2
 2917 02aa 6BD0     		beq	.L340
 2918 02ac BCF1000F 		cmp	ip, #0
 2919 02b0 09D0     		beq	.L349
 2920              		.loc 1 880 0
 2921 02b2 12F80179 		ldrb	r7, [r2], #-1	@ zero_extendqisi2
 2922              	.LVL335:
 2923              		.loc 1 881 0
 2924 02b6 8F42     		cmp	r7, r1
 2925 02b8 02D3     		bcc	.L311
 2926 02ba EC7A     		ldrb	r4, [r5, #11]	@ zero_extendqisi2
 2927 02bc BC42     		cmp	r4, r7
 2928 02be 74D2     		bcs	.L356
 2929              	.LVL336:
 2930              	.L311:
 2931              		.loc 1 878 0
 2932 02c0 4245     		cmp	r2, r8
 2933 02c2 1346     		mov	r3, r2
 2934 02c4 5ED0     		beq	.L340
 2935              	.LVL337:
 2936              	.L349:
ARM GAS  /tmp/ccAUe7jC.s 			page 53


 2937 02c6 5846     		mov	r0, fp
 2938 02c8 36E0     		b	.L279
 2939              	.LVL338:
 2940              	.L358:
 2941              		.loc 1 887 0
 2942 02ca DDF828B0 		ldr	fp, [sp, #40]
 2943 02ce 37B2     		sxth	r7, r6
 2944 02d0 CBEB070B 		rsb	fp, fp, r7
 2945 02d4 D345     		cmp	fp, sl
 2946 02d6 66DB     		blt	.L351
 2947              		.loc 1 888 0
 2948 02d8 0B9F     		ldr	r7, [sp, #44]
 2949 02da F61B     		subs	r6, r6, r7
 2950 02dc B6B2     		uxth	r6, r6
 2951              	.LVL339:
 2952              	.L278:
 2953              		.loc 1 894 0
 2954 02de 37B2     		sxth	r7, r6
 2955 02e0 24B2     		sxth	r4, r4
 2956 02e2 3C1B     		subs	r4, r7, r4
 2957 02e4 5445     		cmp	r4, sl
 2958 02e6 5EDB     		blt	.L351
 2959              		.loc 1 895 0
 2960 02e8 CCEB0603 		rsb	r3, ip, r6
 2961 02ec 9EB2     		uxth	r6, r3
 2962              	.LVL340:
 2963              	.L277:
 2964 02ee 1346     		mov	r3, r2
 2965 02f0 013A     		subs	r2, r2, #1
 2966              		.loc 1 880 0
 2967 02f2 93F800C0 		ldrb	ip, [r3, #0]	@ zero_extendqisi2
 2968              		.loc 1 881 0
 2969 02f6 8C45     		cmp	ip, r1
 2970 02f8 1BD3     		bcc	.L316
 2971 02fa EF7A     		ldrb	r7, [r5, #11]	@ zero_extendqisi2
 2972 02fc 6745     		cmp	r7, ip
 2973 02fe 18D3     		bcc	.L316
 2974 0300 2C69     		ldr	r4, [r5, #16]
 2975 0302 2F7B     		ldrb	r7, [r5, #12]	@ zero_extendqisi2
 2976 0304 C1EB0C0B 		rsb	fp, r1, ip
 2977 0308 14F80BC0 		ldrb	ip, [r4, fp]	@ zero_extendqisi2
 2978 030c 07FB0CFC 		mul	ip, r7, ip
 2979 0310 1FFA8CF4 		uxth	r4, ip
 2980              		.loc 1 882 0
 2981 0314 6CB1     		cbz	r4, .L316
 2982              		.loc 1 885 0
 2983 0316 20B1     		cbz	r0, .L317
 2984              		.loc 1 886 0
 2985 0318 B9F1000F 		cmp	r9, #0
 2986 031c 38D0     		beq	.L344
 2987              		.loc 1 890 0
 2988 031e 4FF00009 		mov	r9, #0
 2989              	.LVL341:
 2990              	.L317:
 2991              		.loc 1 894 0
 2992 0322 37B2     		sxth	r7, r6
 2993 0324 24B2     		sxth	r4, r4
ARM GAS  /tmp/ccAUe7jC.s 			page 54


 2994 0326 3C1B     		subs	r4, r7, r4
 2995 0328 5445     		cmp	r4, sl
 2996 032a 3CDB     		blt	.L351
 2997              		.loc 1 895 0
 2998 032c CCEB0603 		rsb	r3, ip, r6
 2999 0330 9EB2     		uxth	r6, r3
 3000              	.LVL342:
 3001              	.L316:
 3002              		.loc 1 878 0
 3003 0332 4245     		cmp	r2, r8
 3004 0334 1346     		mov	r3, r2
 3005 0336 24D0     		beq	.L357
 3006              	.LVL343:
 3007              	.L279:
 3008 0338 1346     		mov	r3, r2
 3009 033a 013A     		subs	r2, r2, #1
 3010              		.loc 1 880 0
 3011 033c 93F800B0 		ldrb	fp, [r3, #0]	@ zero_extendqisi2
 3012              		.loc 1 881 0
 3013 0340 8B45     		cmp	fp, r1
 3014 0342 D4D3     		bcc	.L277
 3015              		.loc 1 881 0 is_stmt 0 discriminator 1
 3016 0344 EF7A     		ldrb	r7, [r5, #11]	@ zero_extendqisi2
 3017 0346 5F45     		cmp	r7, fp
 3018 0348 D1D3     		bcc	.L277
 3019 034a C1EB0B0C 		rsb	ip, r1, fp
 3020 034e 2C69     		ldr	r4, [r5, #16]
 3021 0350 2F7B     		ldrb	r7, [r5, #12]	@ zero_extendqisi2
 3022 0352 14F80CB0 		ldrb	fp, [r4, ip]	@ zero_extendqisi2
 3023 0356 07FB0BFC 		mul	ip, r7, fp
 3024 035a 1FFA8CF4 		uxth	r4, ip
 3025              	.LVL344:
 3026              		.loc 1 882 0 is_stmt 1 discriminator 1
 3027 035e 002C     		cmp	r4, #0
 3028 0360 C5D0     		beq	.L277
 3029              		.loc 1 885 0
 3030 0362 0028     		cmp	r0, #0
 3031 0364 BBD0     		beq	.L278
 3032              		.loc 1 886 0
 3033 0366 B9F1000F 		cmp	r9, #0
 3034 036a AED0     		beq	.L358
 3035              		.loc 1 890 0
 3036 036c 4FF00009 		mov	r9, #0
 3037              	.LVL345:
 3038 0370 B5E7     		b	.L278
 3039              	.LVL346:
 3040              	.L354:
 3041              		.loc 1 845 0
 3042 0372 0C1A     		subs	r4, r1, r0
 3043 0374 04EBD476 		add	r6, r4, r4, lsr #31
 3044              	.LVL347:
 3045 0378 0AEB6607 		add	r7, sl, r6, asr #1
 3046 037c BEB2     		uxth	r6, r7
 3047              	.LVL348:
 3048 037e 37B2     		sxth	r7, r6
 3049              	.LVL349:
 3050 0380 A5E6     		b	.L268
ARM GAS  /tmp/ccAUe7jC.s 			page 55


 3051              	.LVL350:
 3052              	.L357:
 3053 0382 8346     		mov	fp, r0
 3054              	.LVL351:
 3055              	.L340:
 3056 0384 37B2     		sxth	r7, r6
 3057              	.L276:
 3058              	.LVL352:
 3059              		.loc 1 897 0
 3060 0386 03F10108 		add	r8, r3, #1
 3061              		.loc 1 898 0
 3062 038a A0E6     		b	.L268
 3063              	.LVL353:
 3064              	.L288:
 3065              		.loc 1 863 0
 3066 038c 0027     		movs	r7, #0
 3067              	.LVL354:
 3068 038e 2FE7     		b	.L271
 3069              	.LVL355:
 3070              	.L344:
 3071              		.loc 1 887 0
 3072 0390 DDF828B0 		ldr	fp, [sp, #40]
 3073 0394 37B2     		sxth	r7, r6
 3074 0396 CBEB070B 		rsb	fp, fp, r7
 3075 039a D345     		cmp	fp, sl
 3076 039c 03DB     		blt	.L351
 3077              		.loc 1 888 0
 3078 039e 0B9F     		ldr	r7, [sp, #44]
 3079 03a0 F61B     		subs	r6, r6, r7
 3080              	.LVL356:
 3081 03a2 B6B2     		uxth	r6, r6
 3082              	.LVL357:
 3083 03a4 BDE7     		b	.L317
 3084              	.LVL358:
 3085              	.L351:
 3086 03a6 8346     		mov	fp, r0
 3087 03a8 EDE7     		b	.L276
 3088              	.LVL359:
 3089              	.L356:
 3090              		.loc 1 881 0
 3091 03aa 7F1A     		subs	r7, r7, r1
 3092 03ac 2869     		ldr	r0, [r5, #16]
 3093 03ae 2C7B     		ldrb	r4, [r5, #12]	@ zero_extendqisi2
 3094 03b0 C75D     		ldrb	r7, [r0, r7]	@ zero_extendqisi2
 3095 03b2 04FB07FC 		mul	ip, r4, r7
 3096 03b6 1FFA8CF4 		uxth	r4, ip
 3097              		.loc 1 882 0
 3098 03ba 002C     		cmp	r4, #0
 3099 03bc 80D0     		beq	.L311
 3100              		.loc 1 885 0
 3101 03be BBF1000F 		cmp	fp, #0
 3102 03c2 04D0     		beq	.L312
 3103              		.loc 1 886 0
 3104 03c4 B9F1000F 		cmp	r9, #0
 3105 03c8 0CD0     		beq	.L342
 3106              		.loc 1 890 0
 3107 03ca 4FF00009 		mov	r9, #0
ARM GAS  /tmp/ccAUe7jC.s 			page 56


 3108              	.LVL360:
 3109              	.L312:
 3110              		.loc 1 894 0
 3111 03ce 37B2     		sxth	r7, r6
 3112 03d0 24B2     		sxth	r4, r4
 3113 03d2 381B     		subs	r0, r7, r4
 3114 03d4 5045     		cmp	r0, sl
 3115 03d6 D6DB     		blt	.L276
 3116              		.loc 1 895 0
 3117 03d8 CCEB0603 		rsb	r3, ip, r6
 3118              	.LVL361:
 3119 03dc 9EB2     		uxth	r6, r3
 3120              	.LVL362:
 3121 03de 6FE7     		b	.L311
 3122              	.LVL363:
 3123              	.L355:
 3124              		.loc 1 875 0
 3125 03e0 4046     		mov	r0, r8
 3126 03e2 2DE7     		b	.L266
 3127              	.LVL364:
 3128              	.L342:
 3129              		.loc 1 887 0
 3130 03e4 0A98     		ldr	r0, [sp, #40]
 3131 03e6 37B2     		sxth	r7, r6
 3132 03e8 381A     		subs	r0, r7, r0
 3133 03ea 5045     		cmp	r0, sl
 3134 03ec CBDB     		blt	.L276
 3135              		.loc 1 888 0
 3136 03ee 0B9F     		ldr	r7, [sp, #44]
 3137 03f0 F61B     		subs	r6, r6, r7
 3138              	.LVL365:
 3139 03f2 B6B2     		uxth	r6, r6
 3140              	.LVL366:
 3141 03f4 EBE7     		b	.L312
 3142              	.L360:
 3143 03f6 00BF     		.align	2
 3144              	.L359:
 3145 03f8 00000000 		.word	.LC0
 3146              		.cfi_endproc
 3147              	.LFE136:
 3148              		.size	gdispFillStringBox, .-gdispFillStringBox
 3149 03fc AFF30080 		.section	.text.gdispDrawStringBox,"ax",%progbits
 3150              		.align	2
 3151              		.p2align 4,,15
 3152              		.global	gdispDrawStringBox
 3153              		.thumb
 3154              		.thumb_func
 3155              		.type	gdispDrawStringBox, %function
 3156              	gdispDrawStringBox:
 3157              	.LFB135:
 3158              		.loc 1 689 0
 3159              		.cfi_startproc
 3160              		@ args = 16, pretend = 0, frame = 32
 3161              		@ frame_needed = 0, uses_anonymous_args = 0
 3162              	.LVL367:
 3163 0000 2DE9F04F 		push	{r4, r5, r6, r7, r8, r9, sl, fp, lr}
 3164              	.LCFI29:
ARM GAS  /tmp/ccAUe7jC.s 			page 57


 3165              		.cfi_def_cfa_offset 36
 3166              		.cfi_offset 4, -36
 3167              		.cfi_offset 5, -32
 3168              		.cfi_offset 6, -28
 3169              		.cfi_offset 7, -24
 3170              		.cfi_offset 8, -20
 3171              		.cfi_offset 9, -16
 3172              		.cfi_offset 10, -12
 3173              		.cfi_offset 11, -8
 3174              		.cfi_offset 14, -4
 3175 0004 8BB0     		sub	sp, sp, #44
 3176              	.LCFI30:
 3177              		.cfi_def_cfa_offset 80
 3178              		.loc 1 689 0
 3179 0006 8246     		mov	sl, r0
 3180 0008 159C     		ldr	r4, [sp, #84]
 3181 000a 149E     		ldr	r6, [sp, #80]
 3182              		.loc 1 698 0
 3183 000c 677B     		ldrb	r7, [r4, #13]	@ zero_extendqisi2
 3184 000e 94F80480 		ldrb	r8, [r4, #4]	@ zero_extendqisi2
 3185              		.loc 1 689 0
 3186 0012 0492     		str	r2, [sp, #16]
 3187              		.loc 1 698 0
 3188 0014 08FB07F7 		mul	r7, r8, r7
 3189              		.loc 1 696 0
 3190 0018 8B4A     		ldr	r2, .L456
 3191              	.LVL368:
 3192              		.loc 1 689 0
 3193 001a BDF85850 		ldrh	r5, [sp, #88]
 3194              		.loc 1 699 0
 3195 001e 94F805C0 		ldrb	ip, [r4, #5]	@ zero_extendqisi2
 3196              		.loc 1 689 0
 3197 0022 0395     		str	r5, [sp, #12]
 3198              		.loc 1 702 0
 3199 0024 3FB2     		sxth	r7, r7
 3200              		.loc 1 696 0
 3201 0026 002E     		cmp	r6, #0
 3202 0028 08BF     		it	eq
 3203 002a 1646     		moveq	r6, r2
 3204              	.LVL369:
 3205              		.loc 1 702 0
 3206 002c 9F42     		cmp	r7, r3
 3207              		.loc 1 689 0
 3208 002e 9DF85C50 		ldrb	r5, [sp, #92]	@ zero_extendqisi2
 3209              		.loc 1 699 0
 3210 0032 94F80C90 		ldrb	r9, [r4, #12]	@ zero_extendqisi2
 3211              	.LVL370:
 3212              		.loc 1 689 0
 3213 0036 8B46     		mov	fp, r1
 3214              		.loc 1 702 0
 3215 0038 4BDC     		bgt	.L361
 3216              		.loc 1 705 0
 3217 003a DB1B     		subs	r3, r3, r7
 3218              	.LVL371:
 3219 003c 581C     		adds	r0, r3, #1
 3220              	.LVL372:
 3221 003e 00EBD071 		add	r1, r0, r0, lsr #31
ARM GAS  /tmp/ccAUe7jC.s 			page 58


 3222              	.LVL373:
 3223 0042 4F10     		asrs	r7, r1, #1
 3224              	.LVL374:
 3225              		.loc 1 706 0
 3226 0044 3AB2     		sxth	r2, r7
 3227 0046 002A     		cmp	r2, #0
 3228              		.loc 1 707 0
 3229 0048 C4BF     		itt	gt
 3230 004a 5F44     		addgt	r7, r7, fp
 3231              	.LVL375:
 3232 004c 0FFA87FB 		sxthgt	fp, r7
 3233              	.LVL376:
 3234              		.loc 1 699 0
 3235 0050 0CFB09F8 		mul	r8, ip, r9
 3236              	.LVL377:
 3237              		.loc 1 717 0
 3238 0054 012D     		cmp	r5, #1
 3239              		.loc 1 699 0
 3240 0056 CDF81880 		str	r8, [sp, #24]
 3241 005a 1FFA88F7 		uxth	r7, r8
 3242              	.LVL378:
 3243              		.loc 1 717 0
 3244 005e 3BD0     		beq	.L366
 3245 0060 022D     		cmp	r5, #2
 3246 0062 00F08F80 		beq	.L450
 3247              		.loc 1 779 0
 3248 0066 0AF10105 		add	r5, sl, #1
 3249 006a 3278     		ldrb	r2, [r6, #0]	@ zero_extendqisi2
 3250 006c ADB2     		uxth	r5, r5
 3251              	.LVL379:
 3252              	.L371:
 3253              		.loc 1 794 0 discriminator 1
 3254 006e DDF81080 		ldr	r8, [sp, #16]
 3255 0072 0FFA87FC 		sxth	ip, r7
 3256 0076 C244     		add	sl, sl, r8
 3257 0078 CDF810A0 		str	sl, [sp, #16]
 3258              		.loc 1 797 0 discriminator 1
 3259 007c 4FF00109 		mov	r9, #1
 3260              	.LVL380:
 3261              		.loc 1 794 0 discriminator 1
 3262 0080 CDF814C0 		str	ip, [sp, #20]
 3263 0084 D046     		mov	r8, sl
 3264              		.loc 1 785 0 discriminator 1
 3265 0086 22B3     		cbz	r2, .L361
 3266              	.LVL381:
 3267              	.L393:
 3268              		.loc 1 788 0
 3269 0088 A37A     		ldrb	r3, [r4, #10]	@ zero_extendqisi2
 3270 008a 9342     		cmp	r3, r2
 3271 008c 1DD8     		bhi	.L388
 3272              		.loc 1 788 0 is_stmt 0 discriminator 1
 3273 008e E07A     		ldrb	r0, [r4, #11]	@ zero_extendqisi2
 3274 0090 9042     		cmp	r0, r2
 3275 0092 1AD3     		bcc	.L388
 3276 0094 2169     		ldr	r1, [r4, #16]
 3277 0096 94F80CA0 		ldrb	sl, [r4, #12]	@ zero_extendqisi2
 3278 009a D31A     		subs	r3, r2, r3
ARM GAS  /tmp/ccAUe7jC.s 			page 59


 3279 009c C85C     		ldrb	r0, [r1, r3]	@ zero_extendqisi2
 3280 009e 0AFB00FA 		mul	sl, sl, r0
 3281 00a2 1FFA8AF1 		uxth	r1, sl
 3282              	.LVL382:
 3283              		.loc 1 789 0 is_stmt 1 discriminator 1
 3284 00a6 81B1     		cbz	r1, .L388
 3285              		.loc 1 792 0
 3286 00a8 002F     		cmp	r7, #0
 3287 00aa 58D1     		bne	.L389
 3288 00ac 4346     		mov	r3, r8
 3289              	.LVL383:
 3290              	.L390:
 3291              		.loc 1 801 0
 3292 00ae 28B2     		sxth	r0, r5
 3293 00b0 00FA81F1 		sxtah	r1, r0, r1
 3294 00b4 9942     		cmp	r1, r3
 3295 00b6 0CDC     		bgt	.L361
 3296              		.loc 1 802 0
 3297 00b8 039B     		ldr	r3, [sp, #12]
 3298 00ba 5946     		mov	r1, fp
 3299 00bc 0093     		str	r3, [sp, #0]
 3300 00be 2346     		mov	r3, r4
 3301 00c0 FFF7FEFF 		bl	gdispDrawChar
 3302              	.LVL384:
 3303              		.loc 1 803 0
 3304 00c4 0AEB0502 		add	r2, sl, r5
 3305 00c8 95B2     		uxth	r5, r2
 3306              	.LVL385:
 3307              	.L388:
 3308 00ca 16F8012F 		ldrb	r2, [r6, #1]!	@ zero_extendqisi2
 3309              	.LVL386:
 3310              		.loc 1 785 0 discriminator 1
 3311 00ce 002A     		cmp	r2, #0
 3312 00d0 DAD1     		bne	.L393
 3313              	.LVL387:
 3314              	.L361:
 3315              		.loc 1 805 0
 3316 00d2 0BB0     		add	sp, sp, #44
 3317 00d4 BDE8F08F 		pop	{r4, r5, r6, r7, r8, r9, sl, fp, pc}
 3318              	.LVL388:
 3319              	.L366:
 3320              		.loc 1 720 0
 3321 00d8 3046     		mov	r0, r6
 3322 00da 2146     		mov	r1, r4
 3323 00dc FFF7FEFF 		bl	gdispGetStringWidth
 3324              	.LVL389:
 3325              		.loc 1 721 0
 3326 00e0 DDF810C0 		ldr	ip, [sp, #16]
 3327 00e4 6045     		cmp	r0, ip
 3328 00e6 40F31681 		ble	.L451
 3329              		.loc 1 725 0
 3330 00ea DDF810E0 		ldr	lr, [sp, #16]
 3331 00ee CEEB0002 		rsb	r2, lr, r0
 3332 00f2 02EBD270 		add	r0, r2, r2, lsr #31
 3333              	.LVL390:
 3334 00f6 4210     		asrs	r2, r0, #1
 3335              		.loc 1 727 0
ARM GAS  /tmp/ccAUe7jC.s 			page 60


 3336 00f8 AC46     		mov	ip, r5
 3337              		.loc 1 725 0
 3338 00fa 0592     		str	r2, [sp, #20]
 3339              	.LVL391:
 3340 00fc 3346     		mov	r3, r6
 3341              		.loc 1 726 0
 3342 00fe 0021     		movs	r1, #0
 3343 0100 15B2     		sxth	r5, r2
 3344              	.LVL392:
 3345              	.L435:
 3346 0102 1E46     		mov	r6, r3
 3347              	.LVL393:
 3348 0104 0133     		adds	r3, r3, #1
 3349              	.LVL394:
 3350              		.loc 1 728 0 discriminator 1
 3351 0106 3278     		ldrb	r2, [r6, #0]	@ zero_extendqisi2
 3352              	.LVL395:
 3353 0108 12B3     		cbz	r2, .L375
 3354              		.loc 1 731 0
 3355 010a A07A     		ldrb	r0, [r4, #10]	@ zero_extendqisi2
 3356 010c 8242     		cmp	r2, r0
 3357 010e F8D3     		bcc	.L435
 3358              		.loc 1 731 0 is_stmt 0 discriminator 1
 3359 0110 94F80B80 		ldrb	r8, [r4, #11]	@ zero_extendqisi2
 3360 0114 9045     		cmp	r8, r2
 3361 0116 C0EB0200 		rsb	r0, r0, r2
 3362 011a F2D3     		bcc	.L435
 3363 011c 2269     		ldr	r2, [r4, #16]
 3364 011e 105C     		ldrb	r0, [r2, r0]	@ zero_extendqisi2
 3365 0120 00FB09F2 		mul	r2, r0, r9
 3366              	.LVL396:
 3367              		.loc 1 732 0 is_stmt 1 discriminator 1
 3368 0124 002A     		cmp	r2, #0
 3369 0126 ECD0     		beq	.L435
 3370              		.loc 1 735 0
 3371 0128 5FB1     		cbz	r7, .L374
 3372              		.loc 1 737 0
 3373 012a DDF818E0 		ldr	lr, [sp, #24]
 3374 012e 0EEB0100 		add	r0, lr, r1
 3375              		.loc 1 736 0
 3376 0132 BCF1000F 		cmp	ip, #0
 3377 0136 40F0F780 		bne	.L395
 3378              		.loc 1 737 0
 3379 013a 81B2     		uxth	r1, r0
 3380              	.LVL397:
 3381              		.loc 1 738 0
 3382 013c 08B2     		sxth	r0, r1
 3383              	.LVL398:
 3384 013e 8542     		cmp	r5, r0
 3385 0140 04DB     		blt	.L449
 3386              	.LVL399:
 3387              	.L374:
 3388              		.loc 1 744 0
 3389 0142 5118     		adds	r1, r2, r1
 3390              	.LVL400:
 3391 0144 89B2     		uxth	r1, r1
 3392              	.LVL401:
ARM GAS  /tmp/ccAUe7jC.s 			page 61


 3393              		.loc 1 745 0
 3394 0146 0AB2     		sxth	r2, r1
 3395              	.LVL402:
 3396 0148 9542     		cmp	r5, r2
 3397 014a DADA     		bge	.L435
 3398              	.LVL403:
 3399              	.L449:
 3400 014c 7278     		ldrb	r2, [r6, #1]	@ zero_extendqisi2
 3401              		.loc 1 730 0
 3402 014e 1E46     		mov	r6, r3
 3403              	.LVL404:
 3404              	.L375:
 3405              		.loc 1 747 0
 3406 0150 DDF81490 		ldr	r9, [sp, #20]
 3407 0154 09EB0A03 		add	r3, r9, sl
 3408              	.LVL405:
 3409 0158 5D1A     		subs	r5, r3, r1
 3410 015a ADB2     		uxth	r5, r5
 3411              	.LVL406:
 3412 015c 87E7     		b	.L371
 3413              	.LVL407:
 3414              	.L389:
 3415              		.loc 1 793 0
 3416 015e B9F1000F 		cmp	r9, #0
 3417 0162 03D0     		beq	.L391
 3418 0164 4346     		mov	r3, r8
 3419              		.loc 1 797 0
 3420 0166 4FF00009 		mov	r9, #0
 3421              	.LVL408:
 3422 016a A0E7     		b	.L390
 3423              	.LVL409:
 3424              	.L391:
 3425              		.loc 1 794 0
 3426 016c DDF814C0 		ldr	ip, [sp, #20]
 3427 0170 049B     		ldr	r3, [sp, #16]
 3428 0172 0CFA85F0 		sxtah	r0, ip, r5
 3429 0176 9842     		cmp	r0, r3
 3430 0178 ABDC     		bgt	.L361
 3431              		.loc 1 795 0
 3432 017a DDF818C0 		ldr	ip, [sp, #24]
 3433 017e 6544     		add	r5, ip, r5
 3434 0180 ADB2     		uxth	r5, r5
 3435              	.LVL410:
 3436 0182 94E7     		b	.L390
 3437              	.LVL411:
 3438              	.L450:
 3439              		.loc 1 752 0 discriminator 1
 3440 0184 3378     		ldrb	r3, [r6, #0]	@ zero_extendqisi2
 3441 0186 3046     		mov	r0, r6
 3442 0188 2BB1     		cbz	r3, .L369
 3443              		.loc 1 689 0 discriminator 2
 3444 018a 721C     		adds	r2, r6, #1
 3445              	.L378:
 3446              		.loc 1 752 0 discriminator 2
 3447 018c 1046     		mov	r0, r2
 3448              	.LVL412:
 3449 018e 0132     		adds	r2, r2, #1
ARM GAS  /tmp/ccAUe7jC.s 			page 62


 3450 0190 0178     		ldrb	r1, [r0, #0]	@ zero_extendqisi2
 3451 0192 0029     		cmp	r1, #0
 3452 0194 FAD1     		bne	.L378
 3453              	.LVL413:
 3454              	.L369:
 3455              		.loc 1 753 0
 3456 0196 DDF810C0 		ldr	ip, [sp, #16]
 3457              	.LVL414:
 3458 019a AAF10205 		sub	r5, sl, #2
 3459              		.loc 1 755 0
 3460 019e 431E     		subs	r3, r0, #1
 3461              		.loc 1 753 0
 3462 01a0 05EB0C02 		add	r2, r5, ip
 3463              		.loc 1 755 0
 3464 01a4 9E42     		cmp	r6, r3
 3465              		.loc 1 753 0
 3466 01a6 95B2     		uxth	r5, r2
 3467              	.LVL415:
 3468              		.loc 1 755 0
 3469 01a8 00F2C480 		bhi	.L452
 3470              		.loc 1 757 0
 3471 01ac 1846     		mov	r0, r3
 3472              		.loc 1 689 0
 3473 01ae 013E     		subs	r6, r6, #1
 3474 01b0 F11A     		subs	r1, r6, r3
 3475 01b2 0796     		str	r6, [sp, #28]
 3476              		.loc 1 757 0
 3477 01b4 10F80129 		ldrb	r2, [r0], #-1	@ zero_extendqisi2
 3478              	.LVL416:
 3479 01b8 A67A     		ldrb	r6, [r4, #10]	@ zero_extendqisi2
 3480              	.LVL417:
 3481 01ba 6FEA0108 		mvn	r8, r1
 3482              		.loc 1 764 0
 3483 01be 0FFA87FC 		sxth	ip, r7
 3484              		.loc 1 754 0
 3485 01c2 0121     		movs	r1, #1
 3486              		.loc 1 758 0
 3487 01c4 B242     		cmp	r2, r6
 3488              		.loc 1 754 0
 3489 01c6 0591     		str	r1, [sp, #20]
 3490              		.loc 1 764 0
 3491 01c8 CDF820C0 		str	ip, [sp, #32]
 3492 01cc 08EA0108 		and	r8, r8, r1
 3493              		.loc 1 758 0
 3494 01d0 1CD3     		bcc	.L407
 3495 01d2 E17A     		ldrb	r1, [r4, #11]	@ zero_extendqisi2
 3496 01d4 9142     		cmp	r1, r2
 3497 01d6 19D3     		bcc	.L407
 3498 01d8 C6EB020C 		rsb	ip, r6, r2
 3499 01dc 2169     		ldr	r1, [r4, #16]
 3500 01de 11F80C10 		ldrb	r1, [r1, ip]	@ zero_extendqisi2
 3501 01e2 01FB09F1 		mul	r1, r1, r9
 3502 01e6 0991     		str	r1, [sp, #36]
 3503 01e8 89B2     		uxth	r1, r1
 3504              		.loc 1 759 0
 3505 01ea 79B1     		cbz	r1, .L407
 3506              		.loc 1 771 0
ARM GAS  /tmp/ccAUe7jC.s 			page 63


 3507 01ec 09B2     		sxth	r1, r1
 3508 01ee 0FFA85FC 		sxth	ip, r5
 3509 01f2 C1EB0C0C 		rsb	ip, r1, ip
 3510              		.loc 1 767 0
 3511 01f6 0599     		ldr	r1, [sp, #20]
 3512 01f8 002F     		cmp	r7, #0
 3513 01fa 18BF     		it	ne
 3514 01fc 0021     		movne	r1, #0
 3515              		.loc 1 771 0
 3516 01fe D445     		cmp	ip, sl
 3517              		.loc 1 767 0
 3518 0200 0591     		str	r1, [sp, #20]
 3519              	.LVL418:
 3520              		.loc 1 771 0
 3521 0202 C0F29C80 		blt	.L439
 3522              		.loc 1 772 0
 3523 0206 099B     		ldr	r3, [sp, #36]
 3524              	.LVL419:
 3525 0208 ED1A     		subs	r5, r5, r3
 3526              	.LVL420:
 3527 020a ADB2     		uxth	r5, r5
 3528              	.LVL421:
 3529              	.L407:
 3530              		.loc 1 755 0
 3531 020c DDF81CC0 		ldr	ip, [sp, #28]
 3532 0210 6045     		cmp	r0, ip
 3533 0212 0346     		mov	r3, r0
 3534 0214 00F08F80 		beq	.L380
 3535 0218 B8F1000F 		cmp	r8, #0
 3536 021c 0CD0     		beq	.L446
 3537              		.loc 1 757 0
 3538 021e 10F80129 		ldrb	r2, [r0], #-1	@ zero_extendqisi2
 3539              	.LVL422:
 3540              		.loc 1 758 0
 3541 0222 B242     		cmp	r2, r6
 3542 0224 03D3     		bcc	.L413
 3543 0226 E17A     		ldrb	r1, [r4, #11]	@ zero_extendqisi2
 3544 0228 9142     		cmp	r1, r2
 3545 022a 80F08F80 		bcs	.L453
 3546              	.LVL423:
 3547              	.L413:
 3548              		.loc 1 755 0
 3549 022e DDF81C80 		ldr	r8, [sp, #28]
 3550 0232 4045     		cmp	r0, r8
 3551 0234 0346     		mov	r3, r0
 3552 0236 7ED0     		beq	.L380
 3553              	.LVL424:
 3554              	.L446:
 3555 0238 DDF81CC0 		ldr	ip, [sp, #28]
 3556 023c CDF80890 		str	r9, [sp, #8]
 3557 0240 CDF81CB0 		str	fp, [sp, #28]
 3558 0244 42E0     		b	.L387
 3559              	.L457:
 3560 0246 00BF     		.align	2
 3561              	.L456:
 3562 0248 00000000 		.word	.LC0
 3563              	.LVL425:
ARM GAS  /tmp/ccAUe7jC.s 			page 64


 3564              	.L455:
 3565              		.loc 1 767 0
 3566 024c 0020     		movs	r0, #0
 3567 024e 0590     		str	r0, [sp, #20]
 3568              	.L383:
 3569              	.LVL426:
 3570              		.loc 1 771 0
 3571 0250 28B2     		sxth	r0, r5
 3572 0252 12B2     		sxth	r2, r2
 3573 0254 801A     		subs	r0, r0, r2
 3574 0256 5045     		cmp	r0, sl
 3575 0258 6FDB     		blt	.L447
 3576              		.loc 1 772 0
 3577 025a C8EB0503 		rsb	r3, r8, r5
 3578 025e 9DB2     		uxth	r5, r3
 3579              	.LVL427:
 3580              	.L381:
 3581              		.loc 1 757 0
 3582 0260 0A78     		ldrb	r2, [r1, #0]	@ zero_extendqisi2
 3583              	.LVL428:
 3584 0262 481E     		subs	r0, r1, #1
 3585              		.loc 1 758 0
 3586 0264 B242     		cmp	r2, r6
 3587 0266 0B46     		mov	r3, r1
 3588 0268 2DD3     		bcc	.L420
 3589 026a E17A     		ldrb	r1, [r4, #11]	@ zero_extendqisi2
 3590              	.LVL429:
 3591 026c 9142     		cmp	r1, r2
 3592 026e 2AD3     		bcc	.L420
 3593 0270 2169     		ldr	r1, [r4, #16]
 3594 0272 DDF80890 		ldr	r9, [sp, #8]
 3595 0276 C6EB0208 		rsb	r8, r6, r2
 3596 027a 11F808B0 		ldrb	fp, [r1, r8]	@ zero_extendqisi2
 3597 027e 0BFB09FB 		mul	fp, fp, r9
 3598 0282 1FFA8BF1 		uxth	r1, fp
 3599 0286 0991     		str	r1, [sp, #36]
 3600              		.loc 1 759 0
 3601 0288 E9B1     		cbz	r1, .L420
 3602              		.loc 1 762 0
 3603 028a 7FB1     		cbz	r7, .L444
 3604              		.loc 1 763 0
 3605 028c 0599     		ldr	r1, [sp, #20]
 3606 028e 0029     		cmp	r1, #0
 3607 0290 4DD1     		bne	.L443
 3608              		.loc 1 764 0
 3609 0292 DDF82090 		ldr	r9, [sp, #32]
 3610 0296 0FFA85F8 		sxth	r8, r5
 3611 029a C9EB0801 		rsb	r1, r9, r8
 3612 029e 5145     		cmp	r1, sl
 3613 02a0 4BDB     		blt	.L447
 3614              		.loc 1 765 0
 3615 02a2 DDF81880 		ldr	r8, [sp, #24]
 3616 02a6 C8EB0505 		rsb	r5, r8, r5
 3617              	.LVL430:
 3618 02aa ADB2     		uxth	r5, r5
 3619              	.LVL431:
 3620              	.L444:
ARM GAS  /tmp/ccAUe7jC.s 			page 65


 3621              		.loc 1 771 0
 3622 02ac DDF82490 		ldr	r9, [sp, #36]
 3623 02b0 0FFA85F8 		sxth	r8, r5
 3624 02b4 0FFA89F1 		sxth	r1, r9
 3625 02b8 C1EB0801 		rsb	r1, r1, r8
 3626 02bc 5145     		cmp	r1, sl
 3627 02be 3CDB     		blt	.L447
 3628              		.loc 1 772 0
 3629 02c0 CBEB0503 		rsb	r3, fp, r5
 3630              	.LVL432:
 3631 02c4 9DB2     		uxth	r5, r3
 3632              	.LVL433:
 3633              	.L420:
 3634              		.loc 1 755 0
 3635 02c6 6045     		cmp	r0, ip
 3636 02c8 0346     		mov	r3, r0
 3637 02ca 3BD0     		beq	.L454
 3638              	.LVL434:
 3639              	.L387:
 3640              		.loc 1 757 0
 3641 02cc 0278     		ldrb	r2, [r0, #0]	@ zero_extendqisi2
 3642 02ce 411E     		subs	r1, r0, #1
 3643              		.loc 1 758 0
 3644 02d0 B242     		cmp	r2, r6
 3645 02d2 0346     		mov	r3, r0
 3646 02d4 C4D3     		bcc	.L381
 3647              		.loc 1 758 0 is_stmt 0 discriminator 1
 3648 02d6 E07A     		ldrb	r0, [r4, #11]	@ zero_extendqisi2
 3649 02d8 9042     		cmp	r0, r2
 3650 02da C1D3     		bcc	.L381
 3651 02dc 901B     		subs	r0, r2, r6
 3652 02de 2269     		ldr	r2, [r4, #16]
 3653 02e0 12F80090 		ldrb	r9, [r2, r0]	@ zero_extendqisi2
 3654 02e4 0298     		ldr	r0, [sp, #8]
 3655 02e6 09FB00F8 		mul	r8, r9, r0
 3656 02ea 1FFA88F2 		uxth	r2, r8
 3657              	.LVL435:
 3658              		.loc 1 759 0 is_stmt 1 discriminator 1
 3659 02ee 002A     		cmp	r2, #0
 3660 02f0 B6D0     		beq	.L381
 3661              		.loc 1 762 0
 3662 02f2 002F     		cmp	r7, #0
 3663 02f4 ACD0     		beq	.L383
 3664              		.loc 1 763 0
 3665 02f6 0598     		ldr	r0, [sp, #20]
 3666 02f8 0028     		cmp	r0, #0
 3667 02fa A7D1     		bne	.L455
 3668              		.loc 1 764 0
 3669 02fc DDF820B0 		ldr	fp, [sp, #32]
 3670 0300 28B2     		sxth	r0, r5
 3671 0302 CBEB0000 		rsb	r0, fp, r0
 3672 0306 5045     		cmp	r0, sl
 3673 0308 17DB     		blt	.L447
 3674              		.loc 1 765 0
 3675 030a DDF81890 		ldr	r9, [sp, #24]
 3676 030e C9EB0505 		rsb	r5, r9, r5
 3677 0312 ADB2     		uxth	r5, r5
ARM GAS  /tmp/ccAUe7jC.s 			page 66


 3678              	.LVL436:
 3679 0314 9CE7     		b	.L383
 3680              	.LVL437:
 3681              	.L451:
 3682              		.loc 1 722 0
 3683 0316 C0EB0C00 		rsb	r0, r0, ip
 3684              	.LVL438:
 3685 031a 00EBD071 		add	r1, r0, r0, lsr #31
 3686 031e 0AEB6102 		add	r2, sl, r1, asr #1
 3687 0322 95B2     		uxth	r5, r2
 3688              	.LVL439:
 3689 0324 3278     		ldrb	r2, [r6, #0]	@ zero_extendqisi2
 3690              	.LVL440:
 3691 0326 A2E6     		b	.L371
 3692              	.LVL441:
 3693              	.L395:
 3694              		.loc 1 740 0
 3695 0328 4FF0000C 		mov	ip, #0
 3696              	.LVL442:
 3697 032c 09E7     		b	.L374
 3698              	.LVL443:
 3699              	.L443:
 3700              		.loc 1 767 0
 3701 032e 0021     		movs	r1, #0
 3702              	.LVL444:
 3703 0330 0591     		str	r1, [sp, #20]
 3704 0332 BBE7     		b	.L444
 3705              	.LVL445:
 3706              	.L452:
 3707 0334 0278     		ldrb	r2, [r0, #0]	@ zero_extendqisi2
 3708              	.LVL446:
 3709              	.L380:
 3710              		.loc 1 774 0
 3711 0336 5E1C     		adds	r6, r3, #1
 3712              		.loc 1 775 0
 3713 0338 99E6     		b	.L371
 3714              	.LVL447:
 3715              	.L447:
 3716 033a DDF81CB0 		ldr	fp, [sp, #28]
 3717              	.LVL448:
 3718              	.L439:
 3719 033e 5A78     		ldrb	r2, [r3, #1]	@ zero_extendqisi2
 3720              	.LVL449:
 3721              		.loc 1 774 0
 3722 0340 5E1C     		adds	r6, r3, #1
 3723 0342 94E6     		b	.L371
 3724              	.LVL450:
 3725              	.L454:
 3726 0344 DDF81CB0 		ldr	fp, [sp, #28]
 3727 0348 5E1C     		adds	r6, r3, #1
 3728 034a 90E6     		b	.L371
 3729              	.LVL451:
 3730              	.L453:
 3731              		.loc 1 758 0
 3732 034c C6EB0208 		rsb	r8, r6, r2
 3733 0350 2169     		ldr	r1, [r4, #16]
 3734 0352 11F80810 		ldrb	r1, [r1, r8]	@ zero_extendqisi2
ARM GAS  /tmp/ccAUe7jC.s 			page 67


 3735 0356 01FB09F1 		mul	r1, r1, r9
 3736 035a 0291     		str	r1, [sp, #8]
 3737 035c 89B2     		uxth	r1, r1
 3738 035e 0991     		str	r1, [sp, #36]
 3739              		.loc 1 759 0
 3740 0360 0029     		cmp	r1, #0
 3741 0362 3FF464AF 		beq	.L413
 3742              		.loc 1 762 0
 3743 0366 77B1     		cbz	r7, .L442
 3744              		.loc 1 763 0
 3745 0368 0599     		ldr	r1, [sp, #20]
 3746 036a E1B9     		cbnz	r1, .L440
 3747              		.loc 1 764 0
 3748 036c DDF82080 		ldr	r8, [sp, #32]
 3749 0370 0FFA85FC 		sxth	ip, r5
 3750 0374 C8EB0C01 		rsb	r1, r8, ip
 3751 0378 5145     		cmp	r1, sl
 3752 037a E0DB     		blt	.L439
 3753              		.loc 1 765 0
 3754 037c DDF818C0 		ldr	ip, [sp, #24]
 3755 0380 CCEB0505 		rsb	r5, ip, r5
 3756              	.LVL452:
 3757 0384 ADB2     		uxth	r5, r5
 3758              	.LVL453:
 3759              	.L442:
 3760              		.loc 1 771 0
 3761 0386 DDF82480 		ldr	r8, [sp, #36]
 3762 038a 0FFA85FC 		sxth	ip, r5
 3763 038e 0FFA88F1 		sxth	r1, r8
 3764 0392 C1EB0C01 		rsb	r1, r1, ip
 3765 0396 5145     		cmp	r1, sl
 3766 0398 D1DB     		blt	.L439
 3767              		.loc 1 772 0
 3768 039a DDF808C0 		ldr	ip, [sp, #8]
 3769 039e CCEB0503 		rsb	r3, ip, r5
 3770              	.LVL454:
 3771 03a2 9DB2     		uxth	r5, r3
 3772              	.LVL455:
 3773 03a4 43E7     		b	.L413
 3774              	.LVL456:
 3775              	.L440:
 3776              		.loc 1 767 0
 3777 03a6 0021     		movs	r1, #0
 3778 03a8 0591     		str	r1, [sp, #20]
 3779 03aa ECE7     		b	.L442
 3780              		.cfi_endproc
 3781              	.LFE135:
 3782              		.size	gdispDrawStringBox, .-gdispDrawStringBox
 3783 03ac AFF30080 		.section	.text.gdispBlendColor,"ax",%progbits
 3784              		.align	2
 3785              		.p2align 4,,15
 3786              		.global	gdispBlendColor
 3787              		.thumb
 3788              		.thumb_func
 3789              		.type	gdispBlendColor, %function
 3790              	gdispBlendColor:
 3791              	.LFB140:
ARM GAS  /tmp/ccAUe7jC.s 			page 68


 3792              		.loc 1 994 0
 3793              		.cfi_startproc
 3794              		@ args = 0, pretend = 0, frame = 0
 3795              		@ frame_needed = 0, uses_anonymous_args = 0
 3796              		@ link register save eliminated.
 3797              	.LVL457:
 3798 0000 F0B4     		push	{r4, r5, r6, r7}
 3799              	.LCFI31:
 3800              		.cfi_def_cfa_offset 16
 3801              		.cfi_offset 4, -16
 3802              		.cfi_offset 5, -12
 3803              		.cfi_offset 6, -8
 3804              		.cfi_offset 7, -4
 3805              		.loc 1 1000 0
 3806 0002 00F4FC67 		and	r7, r0, #2016
 3807              		.loc 1 995 0
 3808 0006 531C     		adds	r3, r2, #1
 3809              	.LVL458:
 3810              		.loc 1 1000 0
 3811 0008 FC10     		asrs	r4, r7, #3
 3812              		.loc 1 1004 0
 3813 000a 01F4FC6C 		and	ip, r1, #2016
 3814              		.loc 1 999 0
 3815 000e 00F47845 		and	r5, r0, #63488
 3816              		.loc 1 996 0
 3817 0012 C2F58072 		rsb	r2, r2, #256
 3818              	.LVL459:
 3819              		.loc 1 1000 0
 3820 0016 04FB03F7 		mul	r7, r4, r3
 3821              		.loc 1 996 0
 3822 001a 92B2     		uxth	r2, r2
 3823              	.LVL460:
 3824              		.loc 1 1001 0
 3825 001c C600     		lsls	r6, r0, #3
 3826              		.loc 1 999 0
 3827 001e 2D12     		asrs	r5, r5, #8
 3828              		.loc 1 1003 0
 3829 0020 01F47844 		and	r4, r1, #63488
 3830              		.loc 1 1004 0
 3831 0024 4FEAEC00 		asr	r0, ip, #3
 3832              	.LVL461:
 3833              		.loc 1 999 0
 3834 0028 05FB03F5 		mul	r5, r5, r3
 3835              	.LVL462:
 3836              		.loc 1 1004 0
 3837 002c 00FB0270 		mla	r0, r0, r2, r7
 3838              		.loc 1 1001 0
 3839 0030 F6B2     		uxtb	r6, r6
 3840              		.loc 1 1003 0
 3841 0032 2412     		asrs	r4, r4, #8
 3842              		.loc 1 1005 0
 3843 0034 C900     		lsls	r1, r1, #3
 3844              	.LVL463:
 3845              		.loc 1 1001 0
 3846 0036 06FB03F3 		mul	r3, r6, r3
 3847              	.LVL464:
 3848              		.loc 1 1003 0
ARM GAS  /tmp/ccAUe7jC.s 			page 69


 3849 003a 04FB0254 		mla	r4, r4, r2, r5
 3850              	.LVL465:
 3851              		.loc 1 1005 0
 3852 003e C9B2     		uxtb	r1, r1
 3853              		.loc 1 1011 0
 3854 0040 4009     		lsrs	r0, r0, #5
 3855              	.LVL466:
 3856              		.loc 1 1005 0
 3857 0042 01FB0232 		mla	r2, r1, r2, r3
 3858              	.LVL467:
 3859              		.loc 1 1011 0
 3860 0046 00F4FC60 		and	r0, r0, #2016
 3861 004a 04F47843 		and	r3, r4, #63488
 3862 004e 1843     		orrs	r0, r0, r3
 3863 0050 C2F3C421 		ubfx	r1, r2, #11, #5
 3864              		.loc 1 1012 0
 3865 0054 0843     		orrs	r0, r0, r1
 3866 0056 F0BC     		pop	{r4, r5, r6, r7}
 3867 0058 7047     		bx	lr
 3868              		.cfi_endproc
 3869              	.LFE140:
 3870              		.size	gdispBlendColor, .-gdispBlendColor
 3871 005a 00BFAFF3 		.section	.rodata.str1.4,"aMS",%progbits,1
 3871      0080
 3872              		.align	2
 3873              	.LC0:
 3874 0000 00       		.ascii	"\000"
 3875 0001 000000   		.section	.bss.gdispMutex,"aw",%nobits
 3876              		.align	2
 3877              		.set	.LANCHOR0,. + 0
 3878              		.type	gdispMutex, %object
 3879              		.size	gdispMutex, 16
 3880              	gdispMutex:
 3881 0000 00000000 		.space	16
 3881      00000000 
 3881      00000000 
 3881      00000000 
 3882              		.text
 3883              	.Letext0:
 3884              		.file 2 "/usr/bin/../lib/gcc/arm-none-eabi/4.7.4/../../../../arm-none-eabi/include/stdint.h"
 3885              		.file 3 "../../os/ports/GCC/ARMCMx/chtypes.h"
 3886              		.file 4 "../../os/kernel/include/chlists.h"
 3887              		.file 5 "../../os/kernel/include/chthreads.h"
 3888              		.file 6 "../../os/ports/GCC/ARMCMx/chcore_v7m.h"
 3889              		.file 7 "../../os/kernel/include/chmtx.h"
 3890              		.file 8 "../../ext/ugfx/include/gos/chibios.h"
 3891              		.file 9 "../../ext/ugfx/include/gmisc/gmisc.h"
 3892              		.file 10 "../../ext/ugfx/include/gdisp/gdisp.h"
 3893              		.file 11 "../../ext/ugfx/include/gdisp/fonts.h"
 3894              		.file 12 "../../ext/ugfx/include/gdisp/lld/gdisp_lld.h"
 3895              		.file 13 "../../os/ports/common/ARMCMx/CMSIS/include/core_cm4.h"
 3896              		.section	.debug_info,"",%progbits
 3897              	.Ldebug_info0:
 3898 0000 601D0000 		.4byte	0x1d60
 3899 0004 0200     		.2byte	0x2
 3900 0006 00000000 		.4byte	.Ldebug_abbrev0
 3901 000a 04       		.byte	0x4
ARM GAS  /tmp/ccAUe7jC.s 			page 70


 3902 000b 01       		.uleb128 0x1
 3903 000c 4F030000 		.4byte	.LASF153
 3904 0010 01       		.byte	0x1
 3905 0011 EB020000 		.4byte	.LASF154
 3906 0015 88050000 		.4byte	.LASF155
 3907 0019 00000000 		.4byte	.Ldebug_ranges0+0
 3908 001d 00000000 		.4byte	0
 3909 0021 00000000 		.4byte	0
 3910 0025 00000000 		.4byte	.Ldebug_line0
 3911 0029 02       		.uleb128 0x2
 3912 002a 04       		.byte	0x4
 3913 002b 05       		.byte	0x5
 3914 002c 696E7400 		.ascii	"int\000"
 3915 0030 03       		.uleb128 0x3
 3916 0031 04       		.byte	0x4
 3917 0032 07       		.byte	0x7
 3918 0033 07020000 		.4byte	.LASF0
 3919 0037 03       		.uleb128 0x3
 3920 0038 01       		.byte	0x1
 3921 0039 06       		.byte	0x6
 3922 003a 35000000 		.4byte	.LASF1
 3923 003e 04       		.uleb128 0x4
 3924 003f D2060000 		.4byte	.LASF3
 3925 0043 02       		.byte	0x2
 3926 0044 2A       		.byte	0x2a
 3927 0045 49000000 		.4byte	0x49
 3928 0049 03       		.uleb128 0x3
 3929 004a 01       		.byte	0x1
 3930 004b 08       		.byte	0x8
 3931 004c D4040000 		.4byte	.LASF2
 3932 0050 04       		.uleb128 0x4
 3933 0051 EA000000 		.4byte	.LASF4
 3934 0055 02       		.byte	0x2
 3935 0056 35       		.byte	0x35
 3936 0057 5B000000 		.4byte	0x5b
 3937 005b 03       		.uleb128 0x3
 3938 005c 02       		.byte	0x2
 3939 005d 05       		.byte	0x5
 3940 005e 15050000 		.4byte	.LASF5
 3941 0062 04       		.uleb128 0x4
 3942 0063 28020000 		.4byte	.LASF6
 3943 0067 02       		.byte	0x2
 3944 0068 36       		.byte	0x36
 3945 0069 6D000000 		.4byte	0x6d
 3946 006d 03       		.uleb128 0x3
 3947 006e 02       		.byte	0x2
 3948 006f 07       		.byte	0x7
 3949 0070 AC020000 		.4byte	.LASF7
 3950 0074 04       		.uleb128 0x4
 3951 0075 CC040000 		.4byte	.LASF8
 3952 0079 02       		.byte	0x2
 3953 007a 4F       		.byte	0x4f
 3954 007b 7F000000 		.4byte	0x7f
 3955 007f 03       		.uleb128 0x3
 3956 0080 04       		.byte	0x4
 3957 0081 05       		.byte	0x5
 3958 0082 55000000 		.4byte	.LASF9
ARM GAS  /tmp/ccAUe7jC.s 			page 71


 3959 0086 04       		.uleb128 0x4
 3960 0087 CC050000 		.4byte	.LASF10
 3961 008b 02       		.byte	0x2
 3962 008c 50       		.byte	0x50
 3963 008d 91000000 		.4byte	0x91
 3964 0091 03       		.uleb128 0x3
 3965 0092 04       		.byte	0x4
 3966 0093 07       		.byte	0x7
 3967 0094 E8050000 		.4byte	.LASF11
 3968 0098 03       		.uleb128 0x3
 3969 0099 08       		.byte	0x8
 3970 009a 05       		.byte	0x5
 3971 009b F9010000 		.4byte	.LASF12
 3972 009f 03       		.uleb128 0x3
 3973 00a0 08       		.byte	0x8
 3974 00a1 07       		.byte	0x7
 3975 00a2 79000000 		.4byte	.LASF13
 3976 00a6 04       		.uleb128 0x4
 3977 00a7 21010000 		.4byte	.LASF14
 3978 00ab 03       		.byte	0x3
 3979 00ac 24       		.byte	0x24
 3980 00ad B1000000 		.4byte	0xb1
 3981 00b1 03       		.uleb128 0x3
 3982 00b2 01       		.byte	0x1
 3983 00b3 02       		.byte	0x2
 3984 00b4 C6040000 		.4byte	.LASF15
 3985 00b8 04       		.uleb128 0x4
 3986 00b9 3C050000 		.4byte	.LASF16
 3987 00bd 03       		.byte	0x3
 3988 00be 25       		.byte	0x25
 3989 00bf 3E000000 		.4byte	0x3e
 3990 00c3 04       		.uleb128 0x4
 3991 00c4 98010000 		.4byte	.LASF17
 3992 00c8 03       		.byte	0x3
 3993 00c9 26       		.byte	0x26
 3994 00ca 3E000000 		.4byte	0x3e
 3995 00ce 04       		.uleb128 0x4
 3996 00cf 83040000 		.4byte	.LASF18
 3997 00d3 03       		.byte	0x3
 3998 00d4 27       		.byte	0x27
 3999 00d5 3E000000 		.4byte	0x3e
 4000 00d9 04       		.uleb128 0x4
 4001 00da 44010000 		.4byte	.LASF19
 4002 00de 03       		.byte	0x3
 4003 00df 28       		.byte	0x28
 4004 00e0 3E000000 		.4byte	0x3e
 4005 00e4 04       		.uleb128 0x4
 4006 00e5 BE040000 		.4byte	.LASF20
 4007 00e9 03       		.byte	0x3
 4008 00ea 29       		.byte	0x29
 4009 00eb 86000000 		.4byte	0x86
 4010 00ef 04       		.uleb128 0x4
 4011 00f0 BF020000 		.4byte	.LASF21
 4012 00f4 03       		.byte	0x3
 4013 00f5 2A       		.byte	0x2a
 4014 00f6 74000000 		.4byte	0x74
 4015 00fa 04       		.uleb128 0x4
ARM GAS  /tmp/ccAUe7jC.s 			page 72


 4016 00fb 33030000 		.4byte	.LASF22
 4017 00ff 03       		.byte	0x3
 4018 0100 2C       		.byte	0x2c
 4019 0101 86000000 		.4byte	0x86
 4020 0105 04       		.uleb128 0x4
 4021 0106 2B060000 		.4byte	.LASF23
 4022 010a 03       		.byte	0x3
 4023 010b 2E       		.byte	0x2e
 4024 010c 86000000 		.4byte	0x86
 4025 0110 04       		.uleb128 0x4
 4026 0111 5F050000 		.4byte	.LASF24
 4027 0115 04       		.byte	0x4
 4028 0116 23       		.byte	0x23
 4029 0117 1B010000 		.4byte	0x11b
 4030 011b 05       		.uleb128 0x5
 4031 011c 5F050000 		.4byte	.LASF24
 4032 0120 48       		.byte	0x48
 4033 0121 05       		.byte	0x5
 4034 0122 57       		.byte	0x57
 4035 0123 40020000 		.4byte	0x240
 4036 0127 06       		.uleb128 0x6
 4037 0128 35050000 		.4byte	.LASF25
 4038 012c 05       		.byte	0x5
 4039 012d 58       		.byte	0x58
 4040 012e 65020000 		.4byte	0x265
 4041 0132 02       		.byte	0x2
 4042 0133 23       		.byte	0x23
 4043 0134 00       		.uleb128 0
 4044 0135 06       		.uleb128 0x6
 4045 0136 A7040000 		.4byte	.LASF26
 4046 013a 05       		.byte	0x5
 4047 013b 5A       		.byte	0x5a
 4048 013c 65020000 		.4byte	0x265
 4049 0140 02       		.byte	0x2
 4050 0141 23       		.byte	0x23
 4051 0142 04       		.uleb128 0x4
 4052 0143 06       		.uleb128 0x6
 4053 0144 D5000000 		.4byte	.LASF27
 4054 0148 05       		.byte	0x5
 4055 0149 5C       		.byte	0x5c
 4056 014a E4000000 		.4byte	0xe4
 4057 014e 02       		.byte	0x2
 4058 014f 23       		.byte	0x23
 4059 0150 08       		.uleb128 0x8
 4060 0151 06       		.uleb128 0x6
 4061 0152 23070000 		.4byte	.LASF28
 4062 0156 05       		.byte	0x5
 4063 0157 5D       		.byte	0x5d
 4064 0158 23040000 		.4byte	0x423
 4065 015c 02       		.byte	0x2
 4066 015d 23       		.byte	0x23
 4067 015e 0C       		.uleb128 0xc
 4068 015f 06       		.uleb128 0x6
 4069 0160 A8010000 		.4byte	.LASF29
 4070 0164 05       		.byte	0x5
 4071 0165 5F       		.byte	0x5f
 4072 0166 65020000 		.4byte	0x265
ARM GAS  /tmp/ccAUe7jC.s 			page 73


 4073 016a 02       		.byte	0x2
 4074 016b 23       		.byte	0x23
 4075 016c 10       		.uleb128 0x10
 4076 016d 06       		.uleb128 0x6
 4077 016e 0B040000 		.4byte	.LASF30
 4078 0172 05       		.byte	0x5
 4079 0173 60       		.byte	0x60
 4080 0174 65020000 		.4byte	0x265
 4081 0178 02       		.byte	0x2
 4082 0179 23       		.byte	0x23
 4083 017a 14       		.uleb128 0x14
 4084 017b 06       		.uleb128 0x6
 4085 017c FD060000 		.4byte	.LASF31
 4086 0180 05       		.byte	0x5
 4087 0181 67       		.byte	0x67
 4088 0182 CF040000 		.4byte	0x4cf
 4089 0186 02       		.byte	0x2
 4090 0187 23       		.byte	0x23
 4091 0188 18       		.uleb128 0x18
 4092 0189 06       		.uleb128 0x6
 4093 018a 03050000 		.4byte	.LASF32
 4094 018e 05       		.byte	0x5
 4095 018f 72       		.byte	0x72
 4096 0190 C3000000 		.4byte	0xc3
 4097 0194 02       		.byte	0x2
 4098 0195 23       		.byte	0x23
 4099 0196 1C       		.uleb128 0x1c
 4100 0197 06       		.uleb128 0x6
 4101 0198 44050000 		.4byte	.LASF33
 4102 019c 05       		.byte	0x5
 4103 019d 76       		.byte	0x76
 4104 019e B8000000 		.4byte	0xb8
 4105 01a2 02       		.byte	0x2
 4106 01a3 23       		.byte	0x23
 4107 01a4 1D       		.uleb128 0x1d
 4108 01a5 06       		.uleb128 0x6
 4109 01a6 A9060000 		.4byte	.LASF34
 4110 01aa 05       		.byte	0x5
 4111 01ab 7B       		.byte	0x7b
 4112 01ac CE000000 		.4byte	0xce
 4113 01b0 02       		.byte	0x2
 4114 01b1 23       		.byte	0x23
 4115 01b2 1E       		.uleb128 0x1e
 4116 01b3 06       		.uleb128 0x6
 4117 01b4 1F050000 		.4byte	.LASF35
 4118 01b8 05       		.byte	0x5
 4119 01b9 81       		.byte	0x81
 4120 01ba D9000000 		.4byte	0xd9
 4121 01be 02       		.byte	0x2
 4122 01bf 23       		.byte	0x23
 4123 01c0 1F       		.uleb128 0x1f
 4124 01c1 06       		.uleb128 0x6
 4125 01c2 39020000 		.4byte	.LASF36
 4126 01c6 05       		.byte	0x5
 4127 01c7 88       		.byte	0x88
 4128 01c8 4D040000 		.4byte	0x44d
 4129 01cc 02       		.byte	0x2
ARM GAS  /tmp/ccAUe7jC.s 			page 74


 4130 01cd 23       		.byte	0x23
 4131 01ce 20       		.uleb128 0x20
 4132 01cf 07       		.uleb128 0x7
 4133 01d0 705F7500 		.ascii	"p_u\000"
 4134 01d4 05       		.byte	0x5
 4135 01d5 AD       		.byte	0xad
 4136 01d6 9A040000 		.4byte	0x49a
 4137 01da 02       		.byte	0x2
 4138 01db 23       		.byte	0x23
 4139 01dc 24       		.uleb128 0x24
 4140 01dd 06       		.uleb128 0x6
 4141 01de 29070000 		.4byte	.LASF37
 4142 01e2 05       		.byte	0x5
 4143 01e3 B2       		.byte	0xb2
 4144 01e4 8D020000 		.4byte	0x28d
 4145 01e8 02       		.byte	0x2
 4146 01e9 23       		.byte	0x23
 4147 01ea 28       		.uleb128 0x28
 4148 01eb 06       		.uleb128 0x6
 4149 01ec 60020000 		.4byte	.LASF38
 4150 01f0 05       		.byte	0x5
 4151 01f1 B8       		.byte	0xb8
 4152 01f2 6B020000 		.4byte	0x26b
 4153 01f6 02       		.byte	0x2
 4154 01f7 23       		.byte	0x23
 4155 01f8 2C       		.uleb128 0x2c
 4156 01f9 06       		.uleb128 0x6
 4157 01fa 0E070000 		.4byte	.LASF39
 4158 01fe 05       		.byte	0x5
 4159 01ff BC       		.byte	0xbc
 4160 0200 EF000000 		.4byte	0xef
 4161 0204 02       		.byte	0x2
 4162 0205 23       		.byte	0x23
 4163 0206 34       		.uleb128 0x34
 4164 0207 06       		.uleb128 0x6
 4165 0208 E2030000 		.4byte	.LASF40
 4166 020c 05       		.byte	0x5
 4167 020d C2       		.byte	0xc2
 4168 020e FA000000 		.4byte	0xfa
 4169 0212 02       		.byte	0x2
 4170 0213 23       		.byte	0x23
 4171 0214 38       		.uleb128 0x38
 4172 0215 06       		.uleb128 0x6
 4173 0216 0B050000 		.4byte	.LASF41
 4174 021a 05       		.byte	0x5
 4175 021b C9       		.byte	0xc9
 4176 021c E1040000 		.4byte	0x4e1
 4177 0220 02       		.byte	0x2
 4178 0221 23       		.byte	0x23
 4179 0222 3C       		.uleb128 0x3c
 4180 0223 06       		.uleb128 0x6
 4181 0224 C0010000 		.4byte	.LASF42
 4182 0228 05       		.byte	0x5
 4183 0229 CD       		.byte	0xcd
 4184 022a E4000000 		.4byte	0xe4
 4185 022e 02       		.byte	0x2
 4186 022f 23       		.byte	0x23
ARM GAS  /tmp/ccAUe7jC.s 			page 75


 4187 0230 40       		.uleb128 0x40
 4188 0231 06       		.uleb128 0x6
 4189 0232 D4010000 		.4byte	.LASF43
 4190 0236 05       		.byte	0x5
 4191 0237 D3       		.byte	0xd3
 4192 0238 A3020000 		.4byte	0x2a3
 4193 023c 02       		.byte	0x2
 4194 023d 23       		.byte	0x23
 4195 023e 44       		.uleb128 0x44
 4196 023f 00       		.byte	0
 4197 0240 08       		.uleb128 0x8
 4198 0241 08       		.byte	0x8
 4199 0242 04       		.byte	0x4
 4200 0243 5A       		.byte	0x5a
 4201 0244 65020000 		.4byte	0x265
 4202 0248 06       		.uleb128 0x6
 4203 0249 35050000 		.4byte	.LASF25
 4204 024d 04       		.byte	0x4
 4205 024e 5B       		.byte	0x5b
 4206 024f 65020000 		.4byte	0x265
 4207 0253 02       		.byte	0x2
 4208 0254 23       		.byte	0x23
 4209 0255 00       		.uleb128 0
 4210 0256 06       		.uleb128 0x6
 4211 0257 A7040000 		.4byte	.LASF26
 4212 025b 04       		.byte	0x4
 4213 025c 5D       		.byte	0x5d
 4214 025d 65020000 		.4byte	0x265
 4215 0261 02       		.byte	0x2
 4216 0262 23       		.byte	0x23
 4217 0263 04       		.uleb128 0x4
 4218 0264 00       		.byte	0
 4219 0265 09       		.uleb128 0x9
 4220 0266 04       		.byte	0x4
 4221 0267 10010000 		.4byte	0x110
 4222 026b 04       		.uleb128 0x4
 4223 026c 13040000 		.4byte	.LASF44
 4224 0270 04       		.byte	0x4
 4225 0271 5F       		.byte	0x5f
 4226 0272 40020000 		.4byte	0x240
 4227 0276 08       		.uleb128 0x8
 4228 0277 04       		.byte	0x4
 4229 0278 04       		.byte	0x4
 4230 0279 64       		.byte	0x64
 4231 027a 8D020000 		.4byte	0x28d
 4232 027e 06       		.uleb128 0x6
 4233 027f 35050000 		.4byte	.LASF25
 4234 0283 04       		.byte	0x4
 4235 0284 66       		.byte	0x66
 4236 0285 65020000 		.4byte	0x265
 4237 0289 02       		.byte	0x2
 4238 028a 23       		.byte	0x23
 4239 028b 00       		.uleb128 0
 4240 028c 00       		.byte	0
 4241 028d 04       		.uleb128 0x4
 4242 028e 27030000 		.4byte	.LASF45
 4243 0292 04       		.byte	0x4
ARM GAS  /tmp/ccAUe7jC.s 			page 76


 4244 0293 69       		.byte	0x69
 4245 0294 76020000 		.4byte	0x276
 4246 0298 04       		.uleb128 0x4
 4247 0299 DC010000 		.4byte	.LASF46
 4248 029d 06       		.byte	0x6
 4249 029e DE       		.byte	0xde
 4250 029f A3020000 		.4byte	0x2a3
 4251 02a3 0A       		.uleb128 0xa
 4252 02a4 04       		.byte	0x4
 4253 02a5 0B       		.uleb128 0xb
 4254 02a6 73060000 		.4byte	.LASF47
 4255 02aa 64       		.byte	0x64
 4256 02ab 06       		.byte	0x6
 4257 02ac 0501     		.2byte	0x105
 4258 02ae 23040000 		.4byte	0x423
 4259 02b2 0C       		.uleb128 0xc
 4260 02b3 73313600 		.ascii	"s16\000"
 4261 02b7 06       		.byte	0x6
 4262 02b8 0701     		.2byte	0x107
 4263 02ba 98020000 		.4byte	0x298
 4264 02be 02       		.byte	0x2
 4265 02bf 23       		.byte	0x23
 4266 02c0 00       		.uleb128 0
 4267 02c1 0C       		.uleb128 0xc
 4268 02c2 73313700 		.ascii	"s17\000"
 4269 02c6 06       		.byte	0x6
 4270 02c7 0801     		.2byte	0x108
 4271 02c9 98020000 		.4byte	0x298
 4272 02cd 02       		.byte	0x2
 4273 02ce 23       		.byte	0x23
 4274 02cf 04       		.uleb128 0x4
 4275 02d0 0C       		.uleb128 0xc
 4276 02d1 73313800 		.ascii	"s18\000"
 4277 02d5 06       		.byte	0x6
 4278 02d6 0901     		.2byte	0x109
 4279 02d8 98020000 		.4byte	0x298
 4280 02dc 02       		.byte	0x2
 4281 02dd 23       		.byte	0x23
 4282 02de 08       		.uleb128 0x8
 4283 02df 0C       		.uleb128 0xc
 4284 02e0 73313900 		.ascii	"s19\000"
 4285 02e4 06       		.byte	0x6
 4286 02e5 0A01     		.2byte	0x10a
 4287 02e7 98020000 		.4byte	0x298
 4288 02eb 02       		.byte	0x2
 4289 02ec 23       		.byte	0x23
 4290 02ed 0C       		.uleb128 0xc
 4291 02ee 0C       		.uleb128 0xc
 4292 02ef 73323000 		.ascii	"s20\000"
 4293 02f3 06       		.byte	0x6
 4294 02f4 0B01     		.2byte	0x10b
 4295 02f6 98020000 		.4byte	0x298
 4296 02fa 02       		.byte	0x2
 4297 02fb 23       		.byte	0x23
 4298 02fc 10       		.uleb128 0x10
 4299 02fd 0C       		.uleb128 0xc
 4300 02fe 73323100 		.ascii	"s21\000"
ARM GAS  /tmp/ccAUe7jC.s 			page 77


 4301 0302 06       		.byte	0x6
 4302 0303 0C01     		.2byte	0x10c
 4303 0305 98020000 		.4byte	0x298
 4304 0309 02       		.byte	0x2
 4305 030a 23       		.byte	0x23
 4306 030b 14       		.uleb128 0x14
 4307 030c 0C       		.uleb128 0xc
 4308 030d 73323200 		.ascii	"s22\000"
 4309 0311 06       		.byte	0x6
 4310 0312 0D01     		.2byte	0x10d
 4311 0314 98020000 		.4byte	0x298
 4312 0318 02       		.byte	0x2
 4313 0319 23       		.byte	0x23
 4314 031a 18       		.uleb128 0x18
 4315 031b 0C       		.uleb128 0xc
 4316 031c 73323300 		.ascii	"s23\000"
 4317 0320 06       		.byte	0x6
 4318 0321 0E01     		.2byte	0x10e
 4319 0323 98020000 		.4byte	0x298
 4320 0327 02       		.byte	0x2
 4321 0328 23       		.byte	0x23
 4322 0329 1C       		.uleb128 0x1c
 4323 032a 0C       		.uleb128 0xc
 4324 032b 73323400 		.ascii	"s24\000"
 4325 032f 06       		.byte	0x6
 4326 0330 0F01     		.2byte	0x10f
 4327 0332 98020000 		.4byte	0x298
 4328 0336 02       		.byte	0x2
 4329 0337 23       		.byte	0x23
 4330 0338 20       		.uleb128 0x20
 4331 0339 0C       		.uleb128 0xc
 4332 033a 73323500 		.ascii	"s25\000"
 4333 033e 06       		.byte	0x6
 4334 033f 1001     		.2byte	0x110
 4335 0341 98020000 		.4byte	0x298
 4336 0345 02       		.byte	0x2
 4337 0346 23       		.byte	0x23
 4338 0347 24       		.uleb128 0x24
 4339 0348 0C       		.uleb128 0xc
 4340 0349 73323600 		.ascii	"s26\000"
 4341 034d 06       		.byte	0x6
 4342 034e 1101     		.2byte	0x111
 4343 0350 98020000 		.4byte	0x298
 4344 0354 02       		.byte	0x2
 4345 0355 23       		.byte	0x23
 4346 0356 28       		.uleb128 0x28
 4347 0357 0C       		.uleb128 0xc
 4348 0358 73323700 		.ascii	"s27\000"
 4349 035c 06       		.byte	0x6
 4350 035d 1201     		.2byte	0x112
 4351 035f 98020000 		.4byte	0x298
 4352 0363 02       		.byte	0x2
 4353 0364 23       		.byte	0x23
 4354 0365 2C       		.uleb128 0x2c
 4355 0366 0C       		.uleb128 0xc
 4356 0367 73323800 		.ascii	"s28\000"
 4357 036b 06       		.byte	0x6
ARM GAS  /tmp/ccAUe7jC.s 			page 78


 4358 036c 1301     		.2byte	0x113
 4359 036e 98020000 		.4byte	0x298
 4360 0372 02       		.byte	0x2
 4361 0373 23       		.byte	0x23
 4362 0374 30       		.uleb128 0x30
 4363 0375 0C       		.uleb128 0xc
 4364 0376 73323900 		.ascii	"s29\000"
 4365 037a 06       		.byte	0x6
 4366 037b 1401     		.2byte	0x114
 4367 037d 98020000 		.4byte	0x298
 4368 0381 02       		.byte	0x2
 4369 0382 23       		.byte	0x23
 4370 0383 34       		.uleb128 0x34
 4371 0384 0C       		.uleb128 0xc
 4372 0385 73333000 		.ascii	"s30\000"
 4373 0389 06       		.byte	0x6
 4374 038a 1501     		.2byte	0x115
 4375 038c 98020000 		.4byte	0x298
 4376 0390 02       		.byte	0x2
 4377 0391 23       		.byte	0x23
 4378 0392 38       		.uleb128 0x38
 4379 0393 0C       		.uleb128 0xc
 4380 0394 73333100 		.ascii	"s31\000"
 4381 0398 06       		.byte	0x6
 4382 0399 1601     		.2byte	0x116
 4383 039b 98020000 		.4byte	0x298
 4384 039f 02       		.byte	0x2
 4385 03a0 23       		.byte	0x23
 4386 03a1 3C       		.uleb128 0x3c
 4387 03a2 0C       		.uleb128 0xc
 4388 03a3 723400   		.ascii	"r4\000"
 4389 03a6 06       		.byte	0x6
 4390 03a7 1801     		.2byte	0x118
 4391 03a9 98020000 		.4byte	0x298
 4392 03ad 02       		.byte	0x2
 4393 03ae 23       		.byte	0x23
 4394 03af 40       		.uleb128 0x40
 4395 03b0 0C       		.uleb128 0xc
 4396 03b1 723500   		.ascii	"r5\000"
 4397 03b4 06       		.byte	0x6
 4398 03b5 1901     		.2byte	0x119
 4399 03b7 98020000 		.4byte	0x298
 4400 03bb 02       		.byte	0x2
 4401 03bc 23       		.byte	0x23
 4402 03bd 44       		.uleb128 0x44
 4403 03be 0C       		.uleb128 0xc
 4404 03bf 723600   		.ascii	"r6\000"
 4405 03c2 06       		.byte	0x6
 4406 03c3 1A01     		.2byte	0x11a
 4407 03c5 98020000 		.4byte	0x298
 4408 03c9 02       		.byte	0x2
 4409 03ca 23       		.byte	0x23
 4410 03cb 48       		.uleb128 0x48
 4411 03cc 0C       		.uleb128 0xc
 4412 03cd 723700   		.ascii	"r7\000"
 4413 03d0 06       		.byte	0x6
 4414 03d1 1B01     		.2byte	0x11b
ARM GAS  /tmp/ccAUe7jC.s 			page 79


 4415 03d3 98020000 		.4byte	0x298
 4416 03d7 02       		.byte	0x2
 4417 03d8 23       		.byte	0x23
 4418 03d9 4C       		.uleb128 0x4c
 4419 03da 0C       		.uleb128 0xc
 4420 03db 723800   		.ascii	"r8\000"
 4421 03de 06       		.byte	0x6
 4422 03df 1C01     		.2byte	0x11c
 4423 03e1 98020000 		.4byte	0x298
 4424 03e5 02       		.byte	0x2
 4425 03e6 23       		.byte	0x23
 4426 03e7 50       		.uleb128 0x50
 4427 03e8 0C       		.uleb128 0xc
 4428 03e9 723900   		.ascii	"r9\000"
 4429 03ec 06       		.byte	0x6
 4430 03ed 1D01     		.2byte	0x11d
 4431 03ef 98020000 		.4byte	0x298
 4432 03f3 02       		.byte	0x2
 4433 03f4 23       		.byte	0x23
 4434 03f5 54       		.uleb128 0x54
 4435 03f6 0C       		.uleb128 0xc
 4436 03f7 72313000 		.ascii	"r10\000"
 4437 03fb 06       		.byte	0x6
 4438 03fc 1E01     		.2byte	0x11e
 4439 03fe 98020000 		.4byte	0x298
 4440 0402 02       		.byte	0x2
 4441 0403 23       		.byte	0x23
 4442 0404 58       		.uleb128 0x58
 4443 0405 0C       		.uleb128 0xc
 4444 0406 72313100 		.ascii	"r11\000"
 4445 040a 06       		.byte	0x6
 4446 040b 1F01     		.2byte	0x11f
 4447 040d 98020000 		.4byte	0x298
 4448 0411 02       		.byte	0x2
 4449 0412 23       		.byte	0x23
 4450 0413 5C       		.uleb128 0x5c
 4451 0414 0C       		.uleb128 0xc
 4452 0415 6C7200   		.ascii	"lr\000"
 4453 0418 06       		.byte	0x6
 4454 0419 2001     		.2byte	0x120
 4455 041b 98020000 		.4byte	0x298
 4456 041f 02       		.byte	0x2
 4457 0420 23       		.byte	0x23
 4458 0421 60       		.uleb128 0x60
 4459 0422 00       		.byte	0
 4460 0423 0B       		.uleb128 0xb
 4461 0424 58060000 		.4byte	.LASF48
 4462 0428 04       		.byte	0x4
 4463 0429 06       		.byte	0x6
 4464 042a 2A01     		.2byte	0x12a
 4465 042c 40040000 		.4byte	0x440
 4466 0430 0C       		.uleb128 0xc
 4467 0431 72313300 		.ascii	"r13\000"
 4468 0435 06       		.byte	0x6
 4469 0436 2B01     		.2byte	0x12b
 4470 0438 40040000 		.4byte	0x440
 4471 043c 02       		.byte	0x2
ARM GAS  /tmp/ccAUe7jC.s 			page 80


 4472 043d 23       		.byte	0x23
 4473 043e 00       		.uleb128 0
 4474 043f 00       		.byte	0
 4475 0440 09       		.uleb128 0x9
 4476 0441 04       		.byte	0x4
 4477 0442 A5020000 		.4byte	0x2a5
 4478 0446 03       		.uleb128 0x3
 4479 0447 04       		.byte	0x4
 4480 0448 07       		.byte	0x7
 4481 0449 C7030000 		.4byte	.LASF49
 4482 044d 0D       		.uleb128 0xd
 4483 044e 05010000 		.4byte	0x105
 4484 0452 05       		.uleb128 0x5
 4485 0453 D0030000 		.4byte	.LASF50
 4486 0457 10       		.byte	0x10
 4487 0458 07       		.byte	0x7
 4488 0459 25       		.byte	0x25
 4489 045a 89040000 		.4byte	0x489
 4490 045e 06       		.uleb128 0x6
 4491 045f 28010000 		.4byte	.LASF51
 4492 0463 07       		.byte	0x7
 4493 0464 26       		.byte	0x26
 4494 0465 6B020000 		.4byte	0x26b
 4495 0469 02       		.byte	0x2
 4496 046a 23       		.byte	0x23
 4497 046b 00       		.uleb128 0
 4498 046c 06       		.uleb128 0x6
 4499 046d 1B070000 		.4byte	.LASF52
 4500 0471 07       		.byte	0x7
 4501 0472 28       		.byte	0x28
 4502 0473 65020000 		.4byte	0x265
 4503 0477 02       		.byte	0x2
 4504 0478 23       		.byte	0x23
 4505 0479 08       		.uleb128 0x8
 4506 047a 06       		.uleb128 0x6
 4507 047b 24060000 		.4byte	.LASF53
 4508 047f 07       		.byte	0x7
 4509 0480 2A       		.byte	0x2a
 4510 0481 89040000 		.4byte	0x489
 4511 0485 02       		.byte	0x2
 4512 0486 23       		.byte	0x23
 4513 0487 0C       		.uleb128 0xc
 4514 0488 00       		.byte	0
 4515 0489 09       		.uleb128 0x9
 4516 048a 04       		.byte	0x4
 4517 048b 52040000 		.4byte	0x452
 4518 048f 04       		.uleb128 0x4
 4519 0490 D0030000 		.4byte	.LASF50
 4520 0494 07       		.byte	0x7
 4521 0495 2C       		.byte	0x2c
 4522 0496 52040000 		.4byte	0x452
 4523 049a 0E       		.uleb128 0xe
 4524 049b 04       		.byte	0x4
 4525 049c 05       		.byte	0x5
 4526 049d 8F       		.byte	0x8f
 4527 049e CF040000 		.4byte	0x4cf
 4528 04a2 0F       		.uleb128 0xf
ARM GAS  /tmp/ccAUe7jC.s 			page 81


 4529 04a3 A2060000 		.4byte	.LASF54
 4530 04a7 05       		.byte	0x5
 4531 04a8 96       		.byte	0x96
 4532 04a9 EF000000 		.4byte	0xef
 4533 04ad 0F       		.uleb128 0xf
 4534 04ae A5000000 		.4byte	.LASF55
 4535 04b2 05       		.byte	0x5
 4536 04b3 9D       		.byte	0x9d
 4537 04b4 EF000000 		.4byte	0xef
 4538 04b8 0F       		.uleb128 0xf
 4539 04b9 3D010000 		.4byte	.LASF56
 4540 04bd 05       		.byte	0x5
 4541 04be A4       		.byte	0xa4
 4542 04bf A3020000 		.4byte	0x2a3
 4543 04c3 0F       		.uleb128 0xf
 4544 04c4 2E050000 		.4byte	.LASF57
 4545 04c8 05       		.byte	0x5
 4546 04c9 AB       		.byte	0xab
 4547 04ca FA000000 		.4byte	0xfa
 4548 04ce 00       		.byte	0
 4549 04cf 09       		.uleb128 0x9
 4550 04d0 04       		.byte	0x4
 4551 04d1 D5040000 		.4byte	0x4d5
 4552 04d5 10       		.uleb128 0x10
 4553 04d6 DA040000 		.4byte	0x4da
 4554 04da 03       		.uleb128 0x3
 4555 04db 01       		.byte	0x1
 4556 04dc 08       		.byte	0x8
 4557 04dd 08060000 		.4byte	.LASF58
 4558 04e1 09       		.uleb128 0x9
 4559 04e2 04       		.byte	0x4
 4560 04e3 8F040000 		.4byte	0x48f
 4561 04e7 09       		.uleb128 0x9
 4562 04e8 04       		.byte	0x4
 4563 04e9 ED040000 		.4byte	0x4ed
 4564 04ed 10       		.uleb128 0x10
 4565 04ee 3E000000 		.4byte	0x3e
 4566 04f2 0D       		.uleb128 0xd
 4567 04f3 74000000 		.4byte	0x74
 4568 04f7 10       		.uleb128 0x10
 4569 04f8 62000000 		.4byte	0x62
 4570 04fc 04       		.uleb128 0x4
 4571 04fd 6A040000 		.4byte	.LASF59
 4572 0501 08       		.byte	0x8
 4573 0502 37       		.byte	0x37
 4574 0503 8F040000 		.4byte	0x48f
 4575 0507 04       		.uleb128 0x4
 4576 0508 B9030000 		.4byte	.LASF60
 4577 050c 09       		.byte	0x9
 4578 050d 2E       		.byte	0x2e
 4579 050e 74000000 		.4byte	0x74
 4580 0512 04       		.uleb128 0x4
 4581 0513 2C040000 		.4byte	.LASF61
 4582 0517 0A       		.byte	0xa
 4583 0518 23       		.byte	0x23
 4584 0519 50000000 		.4byte	0x50
 4585 051d 05       		.uleb128 0x5
ARM GAS  /tmp/ccAUe7jC.s 			page 82


 4586 051e 31020000 		.4byte	.LASF62
 4587 0522 04       		.byte	0x4
 4588 0523 0A       		.byte	0xa
 4589 0524 34       		.byte	0x34
 4590 0525 42050000 		.4byte	0x542
 4591 0529 07       		.uleb128 0x7
 4592 052a 7800     		.ascii	"x\000"
 4593 052c 0A       		.byte	0xa
 4594 052d 35       		.byte	0x35
 4595 052e 12050000 		.4byte	0x512
 4596 0532 02       		.byte	0x2
 4597 0533 23       		.byte	0x23
 4598 0534 00       		.uleb128 0
 4599 0535 07       		.uleb128 0x7
 4600 0536 7900     		.ascii	"y\000"
 4601 0538 0A       		.byte	0xa
 4602 0539 35       		.byte	0x35
 4603 053a 12050000 		.4byte	0x512
 4604 053e 02       		.byte	0x2
 4605 053f 23       		.byte	0x23
 4606 0540 02       		.uleb128 0x2
 4607 0541 00       		.byte	0
 4608 0542 04       		.uleb128 0x4
 4609 0543 40020000 		.4byte	.LASF63
 4610 0547 0A       		.byte	0xa
 4611 0548 36       		.byte	0x36
 4612 0549 1D050000 		.4byte	0x51d
 4613 054d 11       		.uleb128 0x11
 4614 054e 00000000 		.4byte	.LASF68
 4615 0552 01       		.byte	0x1
 4616 0553 0A       		.byte	0xa
 4617 0554 3A       		.byte	0x3a
 4618 0555 6C050000 		.4byte	0x56c
 4619 0559 12       		.uleb128 0x12
 4620 055a D6030000 		.4byte	.LASF64
 4621 055e 00       		.sleb128 0
 4622 055f 12       		.uleb128 0x12
 4623 0560 74010000 		.4byte	.LASF65
 4624 0564 01       		.sleb128 1
 4625 0565 12       		.uleb128 0x12
 4626 0566 BB000000 		.4byte	.LASF66
 4627 056a 02       		.sleb128 2
 4628 056b 00       		.byte	0
 4629 056c 04       		.uleb128 0x4
 4630 056d 4E060000 		.4byte	.LASF67
 4631 0571 0A       		.byte	0xa
 4632 0572 3A       		.byte	0x3a
 4633 0573 4D050000 		.4byte	0x54d
 4634 0577 11       		.uleb128 0x11
 4635 0578 4E010000 		.4byte	.LASF69
 4636 057c 01       		.byte	0x1
 4637 057d 0A       		.byte	0xa
 4638 057e 3E       		.byte	0x3e
 4639 057f A8050000 		.4byte	0x5a8
 4640 0583 12       		.uleb128 0x12
 4641 0584 FE000000 		.4byte	.LASF70
 4642 0588 00       		.sleb128 0
ARM GAS  /tmp/ccAUe7jC.s 			page 83


 4643 0589 12       		.uleb128 0x12
 4644 058a 90000000 		.4byte	.LASF71
 4645 058e 01       		.sleb128 1
 4646 058f 12       		.uleb128 0x12
 4647 0590 74020000 		.4byte	.LASF72
 4648 0594 02       		.sleb128 2
 4649 0595 12       		.uleb128 0x12
 4650 0596 25000000 		.4byte	.LASF73
 4651 059a 03       		.sleb128 3
 4652 059b 12       		.uleb128 0x12
 4653 059c E2040000 		.4byte	.LASF74
 4654 05a0 04       		.sleb128 4
 4655 05a1 12       		.uleb128 0x12
 4656 05a2 30010000 		.4byte	.LASF75
 4657 05a6 05       		.sleb128 5
 4658 05a7 00       		.byte	0
 4659 05a8 04       		.uleb128 0x4
 4660 05a9 C5060000 		.4byte	.LASF76
 4661 05ad 0A       		.byte	0xa
 4662 05ae 3E       		.byte	0x3e
 4663 05af 77050000 		.4byte	0x577
 4664 05b3 04       		.uleb128 0x4
 4665 05b4 A0040000 		.4byte	.LASF77
 4666 05b8 0A       		.byte	0xa
 4667 05b9 42       		.byte	0x42
 4668 05ba BE050000 		.4byte	0x5be
 4669 05be 09       		.uleb128 0x9
 4670 05bf 04       		.byte	0x4
 4671 05c0 C4050000 		.4byte	0x5c4
 4672 05c4 10       		.uleb128 0x10
 4673 05c5 C9050000 		.4byte	0x5c9
 4674 05c9 05       		.uleb128 0x5
 4675 05ca B0060000 		.4byte	.LASF78
 4676 05ce 1C       		.byte	0x1c
 4677 05cf 0B       		.byte	0xb
 4678 05d0 2C       		.byte	0x2c
 4679 05d1 9A060000 		.4byte	0x69a
 4680 05d5 06       		.uleb128 0x6
 4681 05d6 91020000 		.4byte	.LASF79
 4682 05da 0B       		.byte	0xb
 4683 05db 2D       		.byte	0x2d
 4684 05dc CF040000 		.4byte	0x4cf
 4685 05e0 02       		.byte	0x2
 4686 05e1 23       		.byte	0x23
 4687 05e2 00       		.uleb128 0
 4688 05e3 06       		.uleb128 0x6
 4689 05e4 14070000 		.4byte	.LASF80
 4690 05e8 0B       		.byte	0xb
 4691 05e9 2E       		.byte	0x2e
 4692 05ea 3E000000 		.4byte	0x3e
 4693 05ee 02       		.byte	0x2
 4694 05ef 23       		.byte	0x23
 4695 05f0 04       		.uleb128 0x4
 4696 05f1 06       		.uleb128 0x6
 4697 05f2 59010000 		.4byte	.LASF81
 4698 05f6 0B       		.byte	0xb
 4699 05f7 2F       		.byte	0x2f
ARM GAS  /tmp/ccAUe7jC.s 			page 84


 4700 05f8 3E000000 		.4byte	0x3e
 4701 05fc 02       		.byte	0x2
 4702 05fd 23       		.byte	0x23
 4703 05fe 05       		.uleb128 0x5
 4704 05ff 06       		.uleb128 0x6
 4705 0600 46020000 		.4byte	.LASF82
 4706 0604 0B       		.byte	0xb
 4707 0605 30       		.byte	0x30
 4708 0606 3E000000 		.4byte	0x3e
 4709 060a 02       		.byte	0x2
 4710 060b 23       		.byte	0x23
 4711 060c 06       		.uleb128 0x6
 4712 060d 06       		.uleb128 0x6
 4713 060e 73040000 		.4byte	.LASF83
 4714 0612 0B       		.byte	0xb
 4715 0613 31       		.byte	0x31
 4716 0614 3E000000 		.4byte	0x3e
 4717 0618 02       		.byte	0x2
 4718 0619 23       		.byte	0x23
 4719 061a 07       		.uleb128 0x7
 4720 061b 06       		.uleb128 0x6
 4721 061c 5E000000 		.4byte	.LASF84
 4722 0620 0B       		.byte	0xb
 4723 0621 32       		.byte	0x32
 4724 0622 3E000000 		.4byte	0x3e
 4725 0626 02       		.byte	0x2
 4726 0627 23       		.byte	0x23
 4727 0628 08       		.uleb128 0x8
 4728 0629 06       		.uleb128 0x6
 4729 062a 70000000 		.4byte	.LASF85
 4730 062e 0B       		.byte	0xb
 4731 062f 33       		.byte	0x33
 4732 0630 3E000000 		.4byte	0x3e
 4733 0634 02       		.byte	0x2
 4734 0635 23       		.byte	0x23
 4735 0636 09       		.uleb128 0x9
 4736 0637 06       		.uleb128 0x6
 4737 0638 FA050000 		.4byte	.LASF86
 4738 063c 0B       		.byte	0xb
 4739 063d 34       		.byte	0x34
 4740 063e DA040000 		.4byte	0x4da
 4741 0642 02       		.byte	0x2
 4742 0643 23       		.byte	0x23
 4743 0644 0A       		.uleb128 0xa
 4744 0645 06       		.uleb128 0x6
 4745 0646 19010000 		.4byte	.LASF87
 4746 064a 0B       		.byte	0xb
 4747 064b 35       		.byte	0x35
 4748 064c DA040000 		.4byte	0x4da
 4749 0650 02       		.byte	0x2
 4750 0651 23       		.byte	0x23
 4751 0652 0B       		.uleb128 0xb
 4752 0653 06       		.uleb128 0x6
 4753 0654 AB030000 		.4byte	.LASF88
 4754 0658 0B       		.byte	0xb
 4755 0659 36       		.byte	0x36
 4756 065a 3E000000 		.4byte	0x3e
ARM GAS  /tmp/ccAUe7jC.s 			page 85


 4757 065e 02       		.byte	0x2
 4758 065f 23       		.byte	0x23
 4759 0660 0C       		.uleb128 0xc
 4760 0661 06       		.uleb128 0x6
 4761 0662 63040000 		.4byte	.LASF89
 4762 0666 0B       		.byte	0xb
 4763 0667 37       		.byte	0x37
 4764 0668 3E000000 		.4byte	0x3e
 4765 066c 02       		.byte	0x2
 4766 066d 23       		.byte	0x23
 4767 066e 0D       		.uleb128 0xd
 4768 066f 06       		.uleb128 0x6
 4769 0670 B5010000 		.4byte	.LASF90
 4770 0674 0B       		.byte	0xb
 4771 0675 38       		.byte	0x38
 4772 0676 E7040000 		.4byte	0x4e7
 4773 067a 02       		.byte	0x2
 4774 067b 23       		.byte	0x23
 4775 067c 10       		.uleb128 0x10
 4776 067d 06       		.uleb128 0x6
 4777 067e 20040000 		.4byte	.LASF91
 4778 0682 0B       		.byte	0xb
 4779 0683 39       		.byte	0x39
 4780 0684 BC060000 		.4byte	0x6bc
 4781 0688 02       		.byte	0x2
 4782 0689 23       		.byte	0x23
 4783 068a 14       		.uleb128 0x14
 4784 068b 06       		.uleb128 0x6
 4785 068c 04070000 		.4byte	.LASF92
 4786 0690 0B       		.byte	0xb
 4787 0691 3A       		.byte	0x3a
 4788 0692 C2060000 		.4byte	0x6c2
 4789 0696 02       		.byte	0x2
 4790 0697 23       		.byte	0x23
 4791 0698 18       		.uleb128 0x18
 4792 0699 00       		.byte	0
 4793 069a 04       		.uleb128 0x4
 4794 069b BF030000 		.4byte	.LASF93
 4795 069f 0A       		.byte	0xa
 4796 06a0 DB       		.byte	0xdb
 4797 06a1 62000000 		.4byte	0x62
 4798 06a5 13       		.uleb128 0x13
 4799 06a6 9A060000 		.4byte	.LASF94
 4800 06aa 0A       		.byte	0xa
 4801 06ab 2701     		.2byte	0x127
 4802 06ad 9A060000 		.4byte	0x69a
 4803 06b1 04       		.uleb128 0x4
 4804 06b2 D5050000 		.4byte	.LASF95
 4805 06b6 0B       		.byte	0xb
 4806 06b7 1C       		.byte	0x1c
 4807 06b8 62000000 		.4byte	0x62
 4808 06bc 09       		.uleb128 0x9
 4809 06bd 04       		.byte	0x4
 4810 06be F7040000 		.4byte	0x4f7
 4811 06c2 09       		.uleb128 0x9
 4812 06c3 04       		.byte	0x4
 4813 06c4 C8060000 		.4byte	0x6c8
ARM GAS  /tmp/ccAUe7jC.s 			page 86


 4814 06c8 10       		.uleb128 0x10
 4815 06c9 B1060000 		.4byte	0x6b1
 4816 06cd 14       		.uleb128 0x14
 4817 06ce 01       		.byte	0x1
 4818 06cf 0D060000 		.4byte	.LASF96
 4819 06d3 01       		.byte	0x1
 4820 06d4 67       		.byte	0x67
 4821 06d5 01       		.byte	0x1
 4822 06d6 00000000 		.4byte	.LFB118
 4823 06da 22000000 		.4byte	.LFE118
 4824 06de 00000000 		.4byte	.LLST0
 4825 06e2 01       		.byte	0x1
 4826 06e3 23070000 		.4byte	0x723
 4827 06e7 15       		.uleb128 0x15
 4828 06e8 10000000 		.4byte	.LVL0
 4829 06ec A21B0000 		.4byte	0x1ba2
 4830 06f0 FB060000 		.4byte	0x6fb
 4831 06f4 16       		.uleb128 0x16
 4832 06f5 01       		.byte	0x1
 4833 06f6 50       		.byte	0x50
 4834 06f7 02       		.byte	0x2
 4835 06f8 74       		.byte	0x74
 4836 06f9 00       		.sleb128 0
 4837 06fa 00       		.byte	0
 4838 06fb 15       		.uleb128 0x15
 4839 06fc 16000000 		.4byte	.LVL1
 4840 0700 B61B0000 		.4byte	0x1bb6
 4841 0704 0F070000 		.4byte	0x70f
 4842 0708 16       		.uleb128 0x16
 4843 0709 01       		.byte	0x1
 4844 070a 50       		.byte	0x50
 4845 070b 02       		.byte	0x2
 4846 070c 74       		.byte	0x74
 4847 070d 00       		.sleb128 0
 4848 070e 00       		.byte	0
 4849 070f 17       		.uleb128 0x17
 4850 0710 1A000000 		.4byte	.LVL2
 4851 0714 CA1B0000 		.4byte	0x1bca
 4852 0718 18       		.uleb128 0x18
 4853 0719 22000000 		.4byte	.LVL3
 4854 071d 01       		.byte	0x1
 4855 071e D81B0000 		.4byte	0x1bd8
 4856 0722 00       		.byte	0
 4857 0723 19       		.uleb128 0x19
 4858 0724 01       		.byte	0x1
 4859 0725 C0050000 		.4byte	.LASF156
 4860 0729 01       		.byte	0x1
 4861 072a 91       		.byte	0x91
 4862 072b 01       		.byte	0x1
 4863 072c A6000000 		.4byte	0xa6
 4864 0730 00000000 		.4byte	.LFB119
 4865 0734 04000000 		.4byte	.LFE119
 4866 0738 02       		.byte	0x2
 4867 0739 7D       		.byte	0x7d
 4868 073a 00       		.sleb128 0
 4869 073b 01       		.byte	0x1
 4870 073c 14       		.uleb128 0x14
ARM GAS  /tmp/ccAUe7jC.s 			page 87


 4871 073d 01       		.byte	0x1
 4872 073e 1C030000 		.4byte	.LASF97
 4873 0742 01       		.byte	0x1
 4874 0743 9B       		.byte	0x9b
 4875 0744 01       		.byte	0x1
 4876 0745 00000000 		.4byte	.LFB120
 4877 0749 1E000000 		.4byte	.LFE120
 4878 074d 20000000 		.4byte	.LLST1
 4879 0751 01       		.byte	0x1
 4880 0752 9B070000 		.4byte	0x79b
 4881 0756 1A       		.uleb128 0x1a
 4882 0757 02060000 		.4byte	.LASF99
 4883 075b 01       		.byte	0x1
 4884 075c 9B       		.byte	0x9b
 4885 075d 9A060000 		.4byte	0x69a
 4886 0761 40000000 		.4byte	.LLST2
 4887 0765 15       		.uleb128 0x15
 4888 0766 10000000 		.4byte	.LVL6
 4889 076a B61B0000 		.4byte	0x1bb6
 4890 076e 7C070000 		.4byte	0x77c
 4891 0772 16       		.uleb128 0x16
 4892 0773 01       		.byte	0x1
 4893 0774 50       		.byte	0x50
 4894 0775 05       		.byte	0x5
 4895 0776 03       		.byte	0x3
 4896 0777 00000000 		.4byte	.LANCHOR0
 4897 077b 00       		.byte	0
 4898 077c 15       		.uleb128 0x15
 4899 077d 16000000 		.4byte	.LVL7
 4900 0781 E61B0000 		.4byte	0x1be6
 4901 0785 90070000 		.4byte	0x790
 4902 0789 16       		.uleb128 0x16
 4903 078a 01       		.byte	0x1
 4904 078b 50       		.byte	0x50
 4905 078c 02       		.byte	0x2
 4906 078d 74       		.byte	0x74
 4907 078e 00       		.sleb128 0
 4908 078f 00       		.byte	0
 4909 0790 18       		.uleb128 0x18
 4910 0791 1E000000 		.4byte	.LVL8
 4911 0795 01       		.byte	0x1
 4912 0796 D81B0000 		.4byte	0x1bd8
 4913 079a 00       		.byte	0
 4914 079b 14       		.uleb128 0x14
 4915 079c 01       		.byte	0x1
 4916 079d 08000000 		.4byte	.LASF98
 4917 07a1 01       		.byte	0x1
 4918 07a2 A9       		.byte	0xa9
 4919 07a3 01       		.byte	0x1
 4920 07a4 00000000 		.4byte	.LFB121
 4921 07a8 26000000 		.4byte	.LFE121
 4922 07ac 61000000 		.4byte	.LLST3
 4923 07b0 01       		.byte	0x1
 4924 07b1 20080000 		.4byte	0x820
 4925 07b5 1B       		.uleb128 0x1b
 4926 07b6 7800     		.ascii	"x\000"
 4927 07b8 01       		.byte	0x1
ARM GAS  /tmp/ccAUe7jC.s 			page 88


 4928 07b9 A9       		.byte	0xa9
 4929 07ba 12050000 		.4byte	0x512
 4930 07be 81000000 		.4byte	.LLST4
 4931 07c2 1B       		.uleb128 0x1b
 4932 07c3 7900     		.ascii	"y\000"
 4933 07c5 01       		.byte	0x1
 4934 07c6 A9       		.byte	0xa9
 4935 07c7 12050000 		.4byte	0x512
 4936 07cb A2000000 		.4byte	.LLST5
 4937 07cf 1A       		.uleb128 0x1a
 4938 07d0 02060000 		.4byte	.LASF99
 4939 07d4 01       		.byte	0x1
 4940 07d5 A9       		.byte	0xa9
 4941 07d6 9A060000 		.4byte	0x69a
 4942 07da C3000000 		.4byte	.LLST6
 4943 07de 15       		.uleb128 0x15
 4944 07df 14000000 		.4byte	.LVL11
 4945 07e3 B61B0000 		.4byte	0x1bb6
 4946 07e7 F5070000 		.4byte	0x7f5
 4947 07eb 16       		.uleb128 0x16
 4948 07ec 01       		.byte	0x1
 4949 07ed 50       		.byte	0x50
 4950 07ee 05       		.byte	0x5
 4951 07ef 03       		.byte	0x3
 4952 07f0 00000000 		.4byte	.LANCHOR0
 4953 07f4 00       		.byte	0
 4954 07f5 15       		.uleb128 0x15
 4955 07f6 1E000000 		.4byte	.LVL12
 4956 07fa FB1B0000 		.4byte	0x1bfb
 4957 07fe 15080000 		.4byte	0x815
 4958 0802 16       		.uleb128 0x16
 4959 0803 01       		.byte	0x1
 4960 0804 52       		.byte	0x52
 4961 0805 02       		.byte	0x2
 4962 0806 75       		.byte	0x75
 4963 0807 00       		.sleb128 0
 4964 0808 16       		.uleb128 0x16
 4965 0809 01       		.byte	0x1
 4966 080a 51       		.byte	0x51
 4967 080b 02       		.byte	0x2
 4968 080c 76       		.byte	0x76
 4969 080d 00       		.sleb128 0
 4970 080e 16       		.uleb128 0x16
 4971 080f 01       		.byte	0x1
 4972 0810 50       		.byte	0x50
 4973 0811 02       		.byte	0x2
 4974 0812 74       		.byte	0x74
 4975 0813 00       		.sleb128 0
 4976 0814 00       		.byte	0
 4977 0815 18       		.uleb128 0x18
 4978 0816 26000000 		.4byte	.LVL13
 4979 081a 01       		.byte	0x1
 4980 081b D81B0000 		.4byte	0x1bd8
 4981 081f 00       		.byte	0
 4982 0820 14       		.uleb128 0x14
 4983 0821 01       		.byte	0x1
 4984 0822 C5020000 		.4byte	.LASF100
ARM GAS  /tmp/ccAUe7jC.s 			page 89


 4985 0826 01       		.byte	0x1
 4986 0827 B9       		.byte	0xb9
 4987 0828 01       		.byte	0x1
 4988 0829 00000000 		.4byte	.LFB122
 4989 082d 36000000 		.4byte	.LFE122
 4990 0831 E4000000 		.4byte	.LLST7
 4991 0835 01       		.byte	0x1
 4992 0836 CF080000 		.4byte	0x8cf
 4993 083a 1B       		.uleb128 0x1b
 4994 083b 783000   		.ascii	"x0\000"
 4995 083e 01       		.byte	0x1
 4996 083f B9       		.byte	0xb9
 4997 0840 12050000 		.4byte	0x512
 4998 0844 10010000 		.4byte	.LLST8
 4999 0848 1B       		.uleb128 0x1b
 5000 0849 793000   		.ascii	"y0\000"
 5001 084c 01       		.byte	0x1
 5002 084d B9       		.byte	0xb9
 5003 084e 12050000 		.4byte	0x512
 5004 0852 31010000 		.4byte	.LLST9
 5005 0856 1B       		.uleb128 0x1b
 5006 0857 783100   		.ascii	"x1\000"
 5007 085a 01       		.byte	0x1
 5008 085b B9       		.byte	0xb9
 5009 085c 12050000 		.4byte	0x512
 5010 0860 52010000 		.4byte	.LLST10
 5011 0864 1B       		.uleb128 0x1b
 5012 0865 793100   		.ascii	"y1\000"
 5013 0868 01       		.byte	0x1
 5014 0869 B9       		.byte	0xb9
 5015 086a 12050000 		.4byte	0x512
 5016 086e 73010000 		.4byte	.LLST11
 5017 0872 1C       		.uleb128 0x1c
 5018 0873 02060000 		.4byte	.LASF99
 5019 0877 01       		.byte	0x1
 5020 0878 B9       		.byte	0xb9
 5021 0879 9A060000 		.4byte	0x69a
 5022 087d 02       		.byte	0x2
 5023 087e 91       		.byte	0x91
 5024 087f 00       		.sleb128 0
 5025 0880 15       		.uleb128 0x15
 5026 0881 1E000000 		.4byte	.LVL16
 5027 0885 B61B0000 		.4byte	0x1bb6
 5028 0889 97080000 		.4byte	0x897
 5029 088d 16       		.uleb128 0x16
 5030 088e 01       		.byte	0x1
 5031 088f 50       		.byte	0x50
 5032 0890 05       		.byte	0x5
 5033 0891 03       		.byte	0x3
 5034 0892 00000000 		.4byte	.LANCHOR0
 5035 0896 00       		.byte	0
 5036 0897 15       		.uleb128 0x15
 5037 0898 2C000000 		.4byte	.LVL17
 5038 089c 1A1C0000 		.4byte	0x1c1a
 5039 08a0 C4080000 		.4byte	0x8c4
 5040 08a4 16       		.uleb128 0x16
 5041 08a5 01       		.byte	0x1
ARM GAS  /tmp/ccAUe7jC.s 			page 90


 5042 08a6 53       		.byte	0x53
 5043 08a7 02       		.byte	0x2
 5044 08a8 76       		.byte	0x76
 5045 08a9 00       		.sleb128 0
 5046 08aa 16       		.uleb128 0x16
 5047 08ab 01       		.byte	0x1
 5048 08ac 52       		.byte	0x52
 5049 08ad 02       		.byte	0x2
 5050 08ae 77       		.byte	0x77
 5051 08af 00       		.sleb128 0
 5052 08b0 16       		.uleb128 0x16
 5053 08b1 01       		.byte	0x1
 5054 08b2 51       		.byte	0x51
 5055 08b3 02       		.byte	0x2
 5056 08b4 78       		.byte	0x78
 5057 08b5 00       		.sleb128 0
 5058 08b6 16       		.uleb128 0x16
 5059 08b7 01       		.byte	0x1
 5060 08b8 50       		.byte	0x50
 5061 08b9 02       		.byte	0x2
 5062 08ba 75       		.byte	0x75
 5063 08bb 00       		.sleb128 0
 5064 08bc 16       		.uleb128 0x16
 5065 08bd 02       		.byte	0x2
 5066 08be 7D       		.byte	0x7d
 5067 08bf 00       		.sleb128 0
 5068 08c0 02       		.byte	0x2
 5069 08c1 74       		.byte	0x74
 5070 08c2 00       		.sleb128 0
 5071 08c3 00       		.byte	0
 5072 08c4 18       		.uleb128 0x18
 5073 08c5 36000000 		.4byte	.LVL18
 5074 08c9 01       		.byte	0x1
 5075 08ca D81B0000 		.4byte	0x1bd8
 5076 08ce 00       		.byte	0
 5077 08cf 14       		.uleb128 0x14
 5078 08d0 01       		.byte	0x1
 5079 08d1 17000000 		.4byte	.LASF101
 5080 08d5 01       		.byte	0x1
 5081 08d6 CB       		.byte	0xcb
 5082 08d7 01       		.byte	0x1
 5083 08d8 00000000 		.4byte	.LFB123
 5084 08dc 36000000 		.4byte	.LFE123
 5085 08e0 94010000 		.4byte	.LLST12
 5086 08e4 01       		.byte	0x1
 5087 08e5 7C090000 		.4byte	0x97c
 5088 08e9 1B       		.uleb128 0x1b
 5089 08ea 7800     		.ascii	"x\000"
 5090 08ec 01       		.byte	0x1
 5091 08ed CB       		.byte	0xcb
 5092 08ee 12050000 		.4byte	0x512
 5093 08f2 C0010000 		.4byte	.LLST13
 5094 08f6 1B       		.uleb128 0x1b
 5095 08f7 7900     		.ascii	"y\000"
 5096 08f9 01       		.byte	0x1
 5097 08fa CB       		.byte	0xcb
 5098 08fb 12050000 		.4byte	0x512
ARM GAS  /tmp/ccAUe7jC.s 			page 91


 5099 08ff E1010000 		.4byte	.LLST14
 5100 0903 1B       		.uleb128 0x1b
 5101 0904 637800   		.ascii	"cx\000"
 5102 0907 01       		.byte	0x1
 5103 0908 CB       		.byte	0xcb
 5104 0909 12050000 		.4byte	0x512
 5105 090d 02020000 		.4byte	.LLST15
 5106 0911 1B       		.uleb128 0x1b
 5107 0912 637900   		.ascii	"cy\000"
 5108 0915 01       		.byte	0x1
 5109 0916 CB       		.byte	0xcb
 5110 0917 12050000 		.4byte	0x512
 5111 091b 23020000 		.4byte	.LLST16
 5112 091f 1C       		.uleb128 0x1c
 5113 0920 02060000 		.4byte	.LASF99
 5114 0924 01       		.byte	0x1
 5115 0925 CB       		.byte	0xcb
 5116 0926 9A060000 		.4byte	0x69a
 5117 092a 02       		.byte	0x2
 5118 092b 91       		.byte	0x91
 5119 092c 00       		.sleb128 0
 5120 092d 15       		.uleb128 0x15
 5121 092e 1E000000 		.4byte	.LVL21
 5122 0932 B61B0000 		.4byte	0x1bb6
 5123 0936 44090000 		.4byte	0x944
 5124 093a 16       		.uleb128 0x16
 5125 093b 01       		.byte	0x1
 5126 093c 50       		.byte	0x50
 5127 093d 05       		.byte	0x5
 5128 093e 03       		.byte	0x3
 5129 093f 00000000 		.4byte	.LANCHOR0
 5130 0943 00       		.byte	0
 5131 0944 15       		.uleb128 0x15
 5132 0945 2C000000 		.4byte	.LVL22
 5133 0949 431C0000 		.4byte	0x1c43
 5134 094d 71090000 		.4byte	0x971
 5135 0951 16       		.uleb128 0x16
 5136 0952 01       		.byte	0x1
 5137 0953 53       		.byte	0x53
 5138 0954 02       		.byte	0x2
 5139 0955 76       		.byte	0x76
 5140 0956 00       		.sleb128 0
 5141 0957 16       		.uleb128 0x16
 5142 0958 01       		.byte	0x1
 5143 0959 52       		.byte	0x52
 5144 095a 02       		.byte	0x2
 5145 095b 77       		.byte	0x77
 5146 095c 00       		.sleb128 0
 5147 095d 16       		.uleb128 0x16
 5148 095e 01       		.byte	0x1
 5149 095f 51       		.byte	0x51
 5150 0960 02       		.byte	0x2
 5151 0961 78       		.byte	0x78
 5152 0962 00       		.sleb128 0
 5153 0963 16       		.uleb128 0x16
 5154 0964 01       		.byte	0x1
 5155 0965 50       		.byte	0x50
ARM GAS  /tmp/ccAUe7jC.s 			page 92


 5156 0966 02       		.byte	0x2
 5157 0967 75       		.byte	0x75
 5158 0968 00       		.sleb128 0
 5159 0969 16       		.uleb128 0x16
 5160 096a 02       		.byte	0x2
 5161 096b 7D       		.byte	0x7d
 5162 096c 00       		.sleb128 0
 5163 096d 02       		.byte	0x2
 5164 096e 74       		.byte	0x74
 5165 096f 00       		.sleb128 0
 5166 0970 00       		.byte	0
 5167 0971 18       		.uleb128 0x18
 5168 0972 36000000 		.4byte	.LVL23
 5169 0976 01       		.byte	0x1
 5170 0977 D81B0000 		.4byte	0x1bd8
 5171 097b 00       		.byte	0
 5172 097c 14       		.uleb128 0x14
 5173 097d 01       		.byte	0x1
 5174 097e 0C030000 		.4byte	.LASF102
 5175 0982 01       		.byte	0x1
 5176 0983 DD       		.byte	0xdd
 5177 0984 01       		.byte	0x1
 5178 0985 00000000 		.4byte	.LFB124
 5179 0989 46000000 		.4byte	.LFE124
 5180 098d 44020000 		.4byte	.LLST17
 5181 0991 01       		.byte	0x1
 5182 0992 680A0000 		.4byte	0xa68
 5183 0996 1B       		.uleb128 0x1b
 5184 0997 7800     		.ascii	"x\000"
 5185 0999 01       		.byte	0x1
 5186 099a DD       		.byte	0xdd
 5187 099b 12050000 		.4byte	0x512
 5188 099f 70020000 		.4byte	.LLST18
 5189 09a3 1B       		.uleb128 0x1b
 5190 09a4 7900     		.ascii	"y\000"
 5191 09a6 01       		.byte	0x1
 5192 09a7 DD       		.byte	0xdd
 5193 09a8 12050000 		.4byte	0x512
 5194 09ac 91020000 		.4byte	.LLST19
 5195 09b0 1B       		.uleb128 0x1b
 5196 09b1 637800   		.ascii	"cx\000"
 5197 09b4 01       		.byte	0x1
 5198 09b5 DD       		.byte	0xdd
 5199 09b6 12050000 		.4byte	0x512
 5200 09ba B2020000 		.4byte	.LLST20
 5201 09be 1B       		.uleb128 0x1b
 5202 09bf 637900   		.ascii	"cy\000"
 5203 09c2 01       		.byte	0x1
 5204 09c3 DD       		.byte	0xdd
 5205 09c4 12050000 		.4byte	0x512
 5206 09c8 D3020000 		.4byte	.LLST21
 5207 09cc 1C       		.uleb128 0x1c
 5208 09cd 18060000 		.4byte	.LASF103
 5209 09d1 01       		.byte	0x1
 5210 09d2 DD       		.byte	0xdd
 5211 09d3 12050000 		.4byte	0x512
 5212 09d7 02       		.byte	0x2
ARM GAS  /tmp/ccAUe7jC.s 			page 93


 5213 09d8 91       		.byte	0x91
 5214 09d9 00       		.sleb128 0
 5215 09da 1C       		.uleb128 0x1c
 5216 09db 14010000 		.4byte	.LASF104
 5217 09df 01       		.byte	0x1
 5218 09e0 DD       		.byte	0xdd
 5219 09e1 12050000 		.4byte	0x512
 5220 09e5 02       		.byte	0x2
 5221 09e6 91       		.byte	0x91
 5222 09e7 04       		.sleb128 4
 5223 09e8 1C       		.uleb128 0x1c
 5224 09e9 7A060000 		.4byte	.LASF105
 5225 09ed 01       		.byte	0x1
 5226 09ee DD       		.byte	0xdd
 5227 09ef 12050000 		.4byte	0x512
 5228 09f3 02       		.byte	0x2
 5229 09f4 91       		.byte	0x91
 5230 09f5 08       		.sleb128 8
 5231 09f6 1C       		.uleb128 0x1c
 5232 09f7 A1010000 		.4byte	.LASF106
 5233 09fb 01       		.byte	0x1
 5234 09fc DD       		.byte	0xdd
 5235 09fd 680A0000 		.4byte	0xa68
 5236 0a01 02       		.byte	0x2
 5237 0a02 91       		.byte	0x91
 5238 0a03 0C       		.sleb128 12
 5239 0a04 15       		.uleb128 0x15
 5240 0a05 28000000 		.4byte	.LVL26
 5241 0a09 B61B0000 		.4byte	0x1bb6
 5242 0a0d 1B0A0000 		.4byte	0xa1b
 5243 0a11 16       		.uleb128 0x16
 5244 0a12 01       		.byte	0x1
 5245 0a13 50       		.byte	0x50
 5246 0a14 05       		.byte	0x5
 5247 0a15 03       		.byte	0x3
 5248 0a16 00000000 		.4byte	.LANCHOR0
 5249 0a1a 00       		.byte	0
 5250 0a1b 15       		.uleb128 0x15
 5251 0a1c 3C000000 		.4byte	.LVL27
 5252 0a20 6C1C0000 		.4byte	0x1c6c
 5253 0a24 5D0A0000 		.4byte	0xa5d
 5254 0a28 16       		.uleb128 0x16
 5255 0a29 01       		.byte	0x1
 5256 0a2a 53       		.byte	0x53
 5257 0a2b 02       		.byte	0x2
 5258 0a2c 79       		.byte	0x79
 5259 0a2d 00       		.sleb128 0
 5260 0a2e 16       		.uleb128 0x16
 5261 0a2f 01       		.byte	0x1
 5262 0a30 52       		.byte	0x52
 5263 0a31 02       		.byte	0x2
 5264 0a32 7A       		.byte	0x7a
 5265 0a33 00       		.sleb128 0
 5266 0a34 16       		.uleb128 0x16
 5267 0a35 01       		.byte	0x1
 5268 0a36 51       		.byte	0x51
 5269 0a37 02       		.byte	0x2
ARM GAS  /tmp/ccAUe7jC.s 			page 94


 5270 0a38 7B       		.byte	0x7b
 5271 0a39 00       		.sleb128 0
 5272 0a3a 16       		.uleb128 0x16
 5273 0a3b 01       		.byte	0x1
 5274 0a3c 50       		.byte	0x50
 5275 0a3d 02       		.byte	0x2
 5276 0a3e 78       		.byte	0x78
 5277 0a3f 00       		.sleb128 0
 5278 0a40 16       		.uleb128 0x16
 5279 0a41 02       		.byte	0x2
 5280 0a42 7D       		.byte	0x7d
 5281 0a43 0C       		.sleb128 12
 5282 0a44 02       		.byte	0x2
 5283 0a45 74       		.byte	0x74
 5284 0a46 00       		.sleb128 0
 5285 0a47 16       		.uleb128 0x16
 5286 0a48 02       		.byte	0x2
 5287 0a49 7D       		.byte	0x7d
 5288 0a4a 08       		.sleb128 8
 5289 0a4b 02       		.byte	0x2
 5290 0a4c 75       		.byte	0x75
 5291 0a4d 00       		.sleb128 0
 5292 0a4e 16       		.uleb128 0x16
 5293 0a4f 02       		.byte	0x2
 5294 0a50 7D       		.byte	0x7d
 5295 0a51 04       		.sleb128 4
 5296 0a52 02       		.byte	0x2
 5297 0a53 76       		.byte	0x76
 5298 0a54 00       		.sleb128 0
 5299 0a55 16       		.uleb128 0x16
 5300 0a56 02       		.byte	0x2
 5301 0a57 7D       		.byte	0x7d
 5302 0a58 00       		.sleb128 0
 5303 0a59 02       		.byte	0x2
 5304 0a5a 77       		.byte	0x77
 5305 0a5b 00       		.sleb128 0
 5306 0a5c 00       		.byte	0
 5307 0a5d 18       		.uleb128 0x18
 5308 0a5e 46000000 		.4byte	.LVL28
 5309 0a62 01       		.byte	0x1
 5310 0a63 D81B0000 		.4byte	0x1bd8
 5311 0a67 00       		.byte	0
 5312 0a68 09       		.uleb128 0x9
 5313 0a69 04       		.byte	0x4
 5314 0a6a 6E0A0000 		.4byte	0xa6e
 5315 0a6e 10       		.uleb128 0x10
 5316 0a6f A5060000 		.4byte	0x6a5
 5317 0a73 14       		.uleb128 0x14
 5318 0a74 01       		.byte	0x1
 5319 0a75 C8000000 		.4byte	.LASF107
 5320 0a79 01       		.byte	0x1
 5321 0a7a F2       		.byte	0xf2
 5322 0a7b 01       		.byte	0x1
 5323 0a7c 00000000 		.4byte	.LFB125
 5324 0a80 2A000000 		.4byte	.LFE125
 5325 0a84 F4020000 		.4byte	.LLST22
 5326 0a88 01       		.byte	0x1
ARM GAS  /tmp/ccAUe7jC.s 			page 95


 5327 0a89 0B0B0000 		.4byte	0xb0b
 5328 0a8d 1B       		.uleb128 0x1b
 5329 0a8e 7800     		.ascii	"x\000"
 5330 0a90 01       		.byte	0x1
 5331 0a91 F2       		.byte	0xf2
 5332 0a92 12050000 		.4byte	0x512
 5333 0a96 14030000 		.4byte	.LLST23
 5334 0a9a 1B       		.uleb128 0x1b
 5335 0a9b 7900     		.ascii	"y\000"
 5336 0a9d 01       		.byte	0x1
 5337 0a9e F2       		.byte	0xf2
 5338 0a9f 12050000 		.4byte	0x512
 5339 0aa3 35030000 		.4byte	.LLST24
 5340 0aa7 1B       		.uleb128 0x1b
 5341 0aa8 637800   		.ascii	"cx\000"
 5342 0aab 01       		.byte	0x1
 5343 0aac F2       		.byte	0xf2
 5344 0aad 12050000 		.4byte	0x512
 5345 0ab1 56030000 		.4byte	.LLST25
 5346 0ab5 1B       		.uleb128 0x1b
 5347 0ab6 637900   		.ascii	"cy\000"
 5348 0ab9 01       		.byte	0x1
 5349 0aba F2       		.byte	0xf2
 5350 0abb 12050000 		.4byte	0x512
 5351 0abf 77030000 		.4byte	.LLST26
 5352 0ac3 15       		.uleb128 0x15
 5353 0ac4 16000000 		.4byte	.LVL31
 5354 0ac8 B61B0000 		.4byte	0x1bb6
 5355 0acc DA0A0000 		.4byte	0xada
 5356 0ad0 16       		.uleb128 0x16
 5357 0ad1 01       		.byte	0x1
 5358 0ad2 50       		.byte	0x50
 5359 0ad3 05       		.byte	0x5
 5360 0ad4 03       		.byte	0x3
 5361 0ad5 00000000 		.4byte	.LANCHOR0
 5362 0ad9 00       		.byte	0
 5363 0ada 15       		.uleb128 0x15
 5364 0adb 22000000 		.4byte	.LVL32
 5365 0adf A41C0000 		.4byte	0x1ca4
 5366 0ae3 000B0000 		.4byte	0xb00
 5367 0ae7 16       		.uleb128 0x16
 5368 0ae8 01       		.byte	0x1
 5369 0ae9 53       		.byte	0x53
 5370 0aea 02       		.byte	0x2
 5371 0aeb 75       		.byte	0x75
 5372 0aec 00       		.sleb128 0
 5373 0aed 16       		.uleb128 0x16
 5374 0aee 01       		.byte	0x1
 5375 0aef 52       		.byte	0x52
 5376 0af0 02       		.byte	0x2
 5377 0af1 76       		.byte	0x76
 5378 0af2 00       		.sleb128 0
 5379 0af3 16       		.uleb128 0x16
 5380 0af4 01       		.byte	0x1
 5381 0af5 51       		.byte	0x51
 5382 0af6 02       		.byte	0x2
 5383 0af7 77       		.byte	0x77
ARM GAS  /tmp/ccAUe7jC.s 			page 96


 5384 0af8 00       		.sleb128 0
 5385 0af9 16       		.uleb128 0x16
 5386 0afa 01       		.byte	0x1
 5387 0afb 50       		.byte	0x50
 5388 0afc 02       		.byte	0x2
 5389 0afd 74       		.byte	0x74
 5390 0afe 00       		.sleb128 0
 5391 0aff 00       		.byte	0
 5392 0b00 18       		.uleb128 0x18
 5393 0b01 2A000000 		.4byte	.LVL33
 5394 0b05 01       		.byte	0x1
 5395 0b06 D81B0000 		.4byte	0x1bd8
 5396 0b0a 00       		.byte	0
 5397 0b0b 1D       		.uleb128 0x1d
 5398 0b0c 01       		.byte	0x1
 5399 0b0d B5060000 		.4byte	.LASF108
 5400 0b11 01       		.byte	0x1
 5401 0b12 0301     		.2byte	0x103
 5402 0b14 01       		.byte	0x1
 5403 0b15 00000000 		.4byte	.LFB126
 5404 0b19 2A000000 		.4byte	.LFE126
 5405 0b1d 98030000 		.4byte	.LLST27
 5406 0b21 01       		.byte	0x1
 5407 0b22 AA0B0000 		.4byte	0xbaa
 5408 0b26 1E       		.uleb128 0x1e
 5409 0b27 7800     		.ascii	"x\000"
 5410 0b29 01       		.byte	0x1
 5411 0b2a 0301     		.2byte	0x103
 5412 0b2c 12050000 		.4byte	0x512
 5413 0b30 B8030000 		.4byte	.LLST28
 5414 0b34 1E       		.uleb128 0x1e
 5415 0b35 7900     		.ascii	"y\000"
 5416 0b37 01       		.byte	0x1
 5417 0b38 0301     		.2byte	0x103
 5418 0b3a 12050000 		.4byte	0x512
 5419 0b3e D9030000 		.4byte	.LLST29
 5420 0b42 1F       		.uleb128 0x1f
 5421 0b43 B2030000 		.4byte	.LASF109
 5422 0b47 01       		.byte	0x1
 5423 0b48 0301     		.2byte	0x103
 5424 0b4a 12050000 		.4byte	0x512
 5425 0b4e FA030000 		.4byte	.LLST30
 5426 0b52 1F       		.uleb128 0x1f
 5427 0b53 02060000 		.4byte	.LASF99
 5428 0b57 01       		.byte	0x1
 5429 0b58 0301     		.2byte	0x103
 5430 0b5a 9A060000 		.4byte	0x69a
 5431 0b5e 1B040000 		.4byte	.LLST31
 5432 0b62 15       		.uleb128 0x15
 5433 0b63 16000000 		.4byte	.LVL36
 5434 0b67 B61B0000 		.4byte	0x1bb6
 5435 0b6b 790B0000 		.4byte	0xb79
 5436 0b6f 16       		.uleb128 0x16
 5437 0b70 01       		.byte	0x1
 5438 0b71 50       		.byte	0x50
 5439 0b72 05       		.byte	0x5
 5440 0b73 03       		.byte	0x3
ARM GAS  /tmp/ccAUe7jC.s 			page 97


 5441 0b74 00000000 		.4byte	.LANCHOR0
 5442 0b78 00       		.byte	0
 5443 0b79 15       		.uleb128 0x15
 5444 0b7a 22000000 		.4byte	.LVL37
 5445 0b7e C81C0000 		.4byte	0x1cc8
 5446 0b82 9F0B0000 		.4byte	0xb9f
 5447 0b86 16       		.uleb128 0x16
 5448 0b87 01       		.byte	0x1
 5449 0b88 53       		.byte	0x53
 5450 0b89 02       		.byte	0x2
 5451 0b8a 75       		.byte	0x75
 5452 0b8b 00       		.sleb128 0
 5453 0b8c 16       		.uleb128 0x16
 5454 0b8d 01       		.byte	0x1
 5455 0b8e 52       		.byte	0x52
 5456 0b8f 02       		.byte	0x2
 5457 0b90 76       		.byte	0x76
 5458 0b91 00       		.sleb128 0
 5459 0b92 16       		.uleb128 0x16
 5460 0b93 01       		.byte	0x1
 5461 0b94 51       		.byte	0x51
 5462 0b95 02       		.byte	0x2
 5463 0b96 77       		.byte	0x77
 5464 0b97 00       		.sleb128 0
 5465 0b98 16       		.uleb128 0x16
 5466 0b99 01       		.byte	0x1
 5467 0b9a 50       		.byte	0x50
 5468 0b9b 02       		.byte	0x2
 5469 0b9c 74       		.byte	0x74
 5470 0b9d 00       		.sleb128 0
 5471 0b9e 00       		.byte	0
 5472 0b9f 18       		.uleb128 0x18
 5473 0ba0 2A000000 		.4byte	.LVL38
 5474 0ba4 01       		.byte	0x1
 5475 0ba5 D81B0000 		.4byte	0x1bd8
 5476 0ba9 00       		.byte	0
 5477 0baa 1D       		.uleb128 0x1d
 5478 0bab 01       		.byte	0x1
 5479 0bac 8A060000 		.4byte	.LASF110
 5480 0bb0 01       		.byte	0x1
 5481 0bb1 1401     		.2byte	0x114
 5482 0bb3 01       		.byte	0x1
 5483 0bb4 00000000 		.4byte	.LFB127
 5484 0bb8 2A000000 		.4byte	.LFE127
 5485 0bbc 3C040000 		.4byte	.LLST32
 5486 0bc0 01       		.byte	0x1
 5487 0bc1 490C0000 		.4byte	0xc49
 5488 0bc5 1E       		.uleb128 0x1e
 5489 0bc6 7800     		.ascii	"x\000"
 5490 0bc8 01       		.byte	0x1
 5491 0bc9 1401     		.2byte	0x114
 5492 0bcb 12050000 		.4byte	0x512
 5493 0bcf 5C040000 		.4byte	.LLST33
 5494 0bd3 1E       		.uleb128 0x1e
 5495 0bd4 7900     		.ascii	"y\000"
 5496 0bd6 01       		.byte	0x1
 5497 0bd7 1401     		.2byte	0x114
ARM GAS  /tmp/ccAUe7jC.s 			page 98


 5498 0bd9 12050000 		.4byte	0x512
 5499 0bdd 7D040000 		.4byte	.LLST34
 5500 0be1 1F       		.uleb128 0x1f
 5501 0be2 B2030000 		.4byte	.LASF109
 5502 0be6 01       		.byte	0x1
 5503 0be7 1401     		.2byte	0x114
 5504 0be9 12050000 		.4byte	0x512
 5505 0bed 9E040000 		.4byte	.LLST35
 5506 0bf1 1F       		.uleb128 0x1f
 5507 0bf2 02060000 		.4byte	.LASF99
 5508 0bf6 01       		.byte	0x1
 5509 0bf7 1401     		.2byte	0x114
 5510 0bf9 9A060000 		.4byte	0x69a
 5511 0bfd BF040000 		.4byte	.LLST36
 5512 0c01 15       		.uleb128 0x15
 5513 0c02 16000000 		.4byte	.LVL41
 5514 0c06 B61B0000 		.4byte	0x1bb6
 5515 0c0a 180C0000 		.4byte	0xc18
 5516 0c0e 16       		.uleb128 0x16
 5517 0c0f 01       		.byte	0x1
 5518 0c10 50       		.byte	0x50
 5519 0c11 05       		.byte	0x5
 5520 0c12 03       		.byte	0x3
 5521 0c13 00000000 		.4byte	.LANCHOR0
 5522 0c17 00       		.byte	0
 5523 0c18 15       		.uleb128 0x15
 5524 0c19 22000000 		.4byte	.LVL42
 5525 0c1d EC1C0000 		.4byte	0x1cec
 5526 0c21 3E0C0000 		.4byte	0xc3e
 5527 0c25 16       		.uleb128 0x16
 5528 0c26 01       		.byte	0x1
 5529 0c27 53       		.byte	0x53
 5530 0c28 02       		.byte	0x2
 5531 0c29 75       		.byte	0x75
 5532 0c2a 00       		.sleb128 0
 5533 0c2b 16       		.uleb128 0x16
 5534 0c2c 01       		.byte	0x1
 5535 0c2d 52       		.byte	0x52
 5536 0c2e 02       		.byte	0x2
 5537 0c2f 76       		.byte	0x76
 5538 0c30 00       		.sleb128 0
 5539 0c31 16       		.uleb128 0x16
 5540 0c32 01       		.byte	0x1
 5541 0c33 51       		.byte	0x51
 5542 0c34 02       		.byte	0x2
 5543 0c35 77       		.byte	0x77
 5544 0c36 00       		.sleb128 0
 5545 0c37 16       		.uleb128 0x16
 5546 0c38 01       		.byte	0x1
 5547 0c39 50       		.byte	0x50
 5548 0c3a 02       		.byte	0x2
 5549 0c3b 74       		.byte	0x74
 5550 0c3c 00       		.sleb128 0
 5551 0c3d 00       		.byte	0
 5552 0c3e 18       		.uleb128 0x18
 5553 0c3f 2A000000 		.4byte	.LVL43
 5554 0c43 01       		.byte	0x1
ARM GAS  /tmp/ccAUe7jC.s 			page 99


 5555 0c44 D81B0000 		.4byte	0x1bd8
 5556 0c48 00       		.byte	0
 5557 0c49 1D       		.uleb128 0x1d
 5558 0c4a 01       		.byte	0x1
 5559 0c4b 52020000 		.4byte	.LASF111
 5560 0c4f 01       		.byte	0x1
 5561 0c50 9301     		.2byte	0x193
 5562 0c52 01       		.byte	0x1
 5563 0c53 00000000 		.4byte	.LFB128
 5564 0c57 36000000 		.4byte	.LFE128
 5565 0c5b E0040000 		.4byte	.LLST37
 5566 0c5f 01       		.byte	0x1
 5567 0c60 FC0C0000 		.4byte	0xcfc
 5568 0c64 1E       		.uleb128 0x1e
 5569 0c65 7800     		.ascii	"x\000"
 5570 0c67 01       		.byte	0x1
 5571 0c68 9301     		.2byte	0x193
 5572 0c6a 12050000 		.4byte	0x512
 5573 0c6e 0C050000 		.4byte	.LLST38
 5574 0c72 1E       		.uleb128 0x1e
 5575 0c73 7900     		.ascii	"y\000"
 5576 0c75 01       		.byte	0x1
 5577 0c76 9301     		.2byte	0x193
 5578 0c78 12050000 		.4byte	0x512
 5579 0c7c 2D050000 		.4byte	.LLST39
 5580 0c80 1E       		.uleb128 0x1e
 5581 0c81 6300     		.ascii	"c\000"
 5582 0c83 01       		.byte	0x1
 5583 0c84 9301     		.2byte	0x193
 5584 0c86 DA040000 		.4byte	0x4da
 5585 0c8a 4E050000 		.4byte	.LLST40
 5586 0c8e 1F       		.uleb128 0x1f
 5587 0c8f B0060000 		.4byte	.LASF78
 5588 0c93 01       		.byte	0x1
 5589 0c94 9301     		.2byte	0x193
 5590 0c96 B3050000 		.4byte	0x5b3
 5591 0c9a 6F050000 		.4byte	.LLST41
 5592 0c9e 20       		.uleb128 0x20
 5593 0c9f 02060000 		.4byte	.LASF99
 5594 0ca3 01       		.byte	0x1
 5595 0ca4 9301     		.2byte	0x193
 5596 0ca6 9A060000 		.4byte	0x69a
 5597 0caa 02       		.byte	0x2
 5598 0cab 91       		.byte	0x91
 5599 0cac 00       		.sleb128 0
 5600 0cad 15       		.uleb128 0x15
 5601 0cae 1E000000 		.4byte	.LVL46
 5602 0cb2 B61B0000 		.4byte	0x1bb6
 5603 0cb6 C40C0000 		.4byte	0xcc4
 5604 0cba 16       		.uleb128 0x16
 5605 0cbb 01       		.byte	0x1
 5606 0cbc 50       		.byte	0x50
 5607 0cbd 05       		.byte	0x5
 5608 0cbe 03       		.byte	0x3
 5609 0cbf 00000000 		.4byte	.LANCHOR0
 5610 0cc3 00       		.byte	0
 5611 0cc4 15       		.uleb128 0x15
ARM GAS  /tmp/ccAUe7jC.s 			page 100


 5612 0cc5 2C000000 		.4byte	.LVL47
 5613 0cc9 101D0000 		.4byte	0x1d10
 5614 0ccd F10C0000 		.4byte	0xcf1
 5615 0cd1 16       		.uleb128 0x16
 5616 0cd2 01       		.byte	0x1
 5617 0cd3 53       		.byte	0x53
 5618 0cd4 02       		.byte	0x2
 5619 0cd5 76       		.byte	0x76
 5620 0cd6 00       		.sleb128 0
 5621 0cd7 16       		.uleb128 0x16
 5622 0cd8 01       		.byte	0x1
 5623 0cd9 52       		.byte	0x52
 5624 0cda 02       		.byte	0x2
 5625 0cdb 77       		.byte	0x77
 5626 0cdc 00       		.sleb128 0
 5627 0cdd 16       		.uleb128 0x16
 5628 0cde 01       		.byte	0x1
 5629 0cdf 51       		.byte	0x51
 5630 0ce0 02       		.byte	0x2
 5631 0ce1 78       		.byte	0x78
 5632 0ce2 00       		.sleb128 0
 5633 0ce3 16       		.uleb128 0x16
 5634 0ce4 01       		.byte	0x1
 5635 0ce5 50       		.byte	0x50
 5636 0ce6 02       		.byte	0x2
 5637 0ce7 75       		.byte	0x75
 5638 0ce8 00       		.sleb128 0
 5639 0ce9 16       		.uleb128 0x16
 5640 0cea 02       		.byte	0x2
 5641 0ceb 7D       		.byte	0x7d
 5642 0cec 00       		.sleb128 0
 5643 0ced 02       		.byte	0x2
 5644 0cee 74       		.byte	0x74
 5645 0cef 00       		.sleb128 0
 5646 0cf0 00       		.byte	0
 5647 0cf1 18       		.uleb128 0x18
 5648 0cf2 36000000 		.4byte	.LVL48
 5649 0cf6 01       		.byte	0x1
 5650 0cf7 D81B0000 		.4byte	0x1bd8
 5651 0cfb 00       		.byte	0
 5652 0cfc 1D       		.uleb128 0x1d
 5653 0cfd 01       		.byte	0x1
 5654 0cfe 51050000 		.4byte	.LASF112
 5655 0d02 01       		.byte	0x1
 5656 0d03 A501     		.2byte	0x1a5
 5657 0d05 01       		.byte	0x1
 5658 0d06 00000000 		.4byte	.LFB129
 5659 0d0a 3C000000 		.4byte	.LFE129
 5660 0d0e 8D050000 		.4byte	.LLST42
 5661 0d12 01       		.byte	0x1
 5662 0d13 C50D0000 		.4byte	0xdc5
 5663 0d17 1E       		.uleb128 0x1e
 5664 0d18 7800     		.ascii	"x\000"
 5665 0d1a 01       		.byte	0x1
 5666 0d1b A501     		.2byte	0x1a5
 5667 0d1d 12050000 		.4byte	0x512
 5668 0d21 B9050000 		.4byte	.LLST43
ARM GAS  /tmp/ccAUe7jC.s 			page 101


 5669 0d25 1E       		.uleb128 0x1e
 5670 0d26 7900     		.ascii	"y\000"
 5671 0d28 01       		.byte	0x1
 5672 0d29 A501     		.2byte	0x1a5
 5673 0d2b 12050000 		.4byte	0x512
 5674 0d2f DA050000 		.4byte	.LLST44
 5675 0d33 1E       		.uleb128 0x1e
 5676 0d34 6300     		.ascii	"c\000"
 5677 0d36 01       		.byte	0x1
 5678 0d37 A501     		.2byte	0x1a5
 5679 0d39 DA040000 		.4byte	0x4da
 5680 0d3d FB050000 		.4byte	.LLST45
 5681 0d41 1F       		.uleb128 0x1f
 5682 0d42 B0060000 		.4byte	.LASF78
 5683 0d46 01       		.byte	0x1
 5684 0d47 A501     		.2byte	0x1a5
 5685 0d49 B3050000 		.4byte	0x5b3
 5686 0d4d 1C060000 		.4byte	.LLST46
 5687 0d51 20       		.uleb128 0x20
 5688 0d52 02060000 		.4byte	.LASF99
 5689 0d56 01       		.byte	0x1
 5690 0d57 A501     		.2byte	0x1a5
 5691 0d59 9A060000 		.4byte	0x69a
 5692 0d5d 02       		.byte	0x2
 5693 0d5e 91       		.byte	0x91
 5694 0d5f 00       		.sleb128 0
 5695 0d60 20       		.uleb128 0x20
 5696 0d61 E3020000 		.4byte	.LASF113
 5697 0d65 01       		.byte	0x1
 5698 0d66 A501     		.2byte	0x1a5
 5699 0d68 9A060000 		.4byte	0x69a
 5700 0d6c 02       		.byte	0x2
 5701 0d6d 91       		.byte	0x91
 5702 0d6e 04       		.sleb128 4
 5703 0d6f 15       		.uleb128 0x15
 5704 0d70 22000000 		.4byte	.LVL51
 5705 0d74 B61B0000 		.4byte	0x1bb6
 5706 0d78 860D0000 		.4byte	0xd86
 5707 0d7c 16       		.uleb128 0x16
 5708 0d7d 01       		.byte	0x1
 5709 0d7e 50       		.byte	0x50
 5710 0d7f 05       		.byte	0x5
 5711 0d80 03       		.byte	0x3
 5712 0d81 00000000 		.4byte	.LANCHOR0
 5713 0d85 00       		.byte	0
 5714 0d86 15       		.uleb128 0x15
 5715 0d87 32000000 		.4byte	.LVL52
 5716 0d8b 391D0000 		.4byte	0x1d39
 5717 0d8f BA0D0000 		.4byte	0xdba
 5718 0d93 16       		.uleb128 0x16
 5719 0d94 01       		.byte	0x1
 5720 0d95 53       		.byte	0x53
 5721 0d96 02       		.byte	0x2
 5722 0d97 77       		.byte	0x77
 5723 0d98 00       		.sleb128 0
 5724 0d99 16       		.uleb128 0x16
 5725 0d9a 01       		.byte	0x1
ARM GAS  /tmp/ccAUe7jC.s 			page 102


 5726 0d9b 52       		.byte	0x52
 5727 0d9c 02       		.byte	0x2
 5728 0d9d 78       		.byte	0x78
 5729 0d9e 00       		.sleb128 0
 5730 0d9f 16       		.uleb128 0x16
 5731 0da0 01       		.byte	0x1
 5732 0da1 51       		.byte	0x51
 5733 0da2 02       		.byte	0x2
 5734 0da3 79       		.byte	0x79
 5735 0da4 00       		.sleb128 0
 5736 0da5 16       		.uleb128 0x16
 5737 0da6 01       		.byte	0x1
 5738 0da7 50       		.byte	0x50
 5739 0da8 02       		.byte	0x2
 5740 0da9 76       		.byte	0x76
 5741 0daa 00       		.sleb128 0
 5742 0dab 16       		.uleb128 0x16
 5743 0dac 02       		.byte	0x2
 5744 0dad 7D       		.byte	0x7d
 5745 0dae 04       		.sleb128 4
 5746 0daf 02       		.byte	0x2
 5747 0db0 74       		.byte	0x74
 5748 0db1 00       		.sleb128 0
 5749 0db2 16       		.uleb128 0x16
 5750 0db3 02       		.byte	0x2
 5751 0db4 7D       		.byte	0x7d
 5752 0db5 00       		.sleb128 0
 5753 0db6 02       		.byte	0x2
 5754 0db7 75       		.byte	0x75
 5755 0db8 00       		.sleb128 0
 5756 0db9 00       		.byte	0
 5757 0dba 18       		.uleb128 0x18
 5758 0dbb 3C000000 		.4byte	.LVL53
 5759 0dbf 01       		.byte	0x1
 5760 0dc0 D81B0000 		.4byte	0x1bd8
 5761 0dc4 00       		.byte	0
 5762 0dc5 1D       		.uleb128 0x1d
 5763 0dc6 01       		.byte	0x1
 5764 0dc7 84020000 		.4byte	.LASF114
 5765 0dcb 01       		.byte	0x1
 5766 0dcc F501     		.2byte	0x1f5
 5767 0dce 01       		.byte	0x1
 5768 0dcf 00000000 		.4byte	.LFB130
 5769 0dd3 D8000000 		.4byte	.LFE130
 5770 0dd7 3A060000 		.4byte	.LLST47
 5771 0ddb 01       		.byte	0x1
 5772 0ddc 760F0000 		.4byte	0xf76
 5773 0de0 1E       		.uleb128 0x1e
 5774 0de1 7800     		.ascii	"x\000"
 5775 0de3 01       		.byte	0x1
 5776 0de4 F501     		.2byte	0x1f5
 5777 0de6 12050000 		.4byte	0x512
 5778 0dea 66060000 		.4byte	.LLST48
 5779 0dee 1E       		.uleb128 0x1e
 5780 0def 7900     		.ascii	"y\000"
 5781 0df1 01       		.byte	0x1
 5782 0df2 F501     		.2byte	0x1f5
ARM GAS  /tmp/ccAUe7jC.s 			page 103


 5783 0df4 12050000 		.4byte	0x512
 5784 0df8 B9060000 		.4byte	.LLST49
 5785 0dfc 1E       		.uleb128 0x1e
 5786 0dfd 637800   		.ascii	"cx\000"
 5787 0e00 01       		.byte	0x1
 5788 0e01 F501     		.2byte	0x1f5
 5789 0e03 12050000 		.4byte	0x512
 5790 0e07 1E070000 		.4byte	.LLST50
 5791 0e0b 1E       		.uleb128 0x1e
 5792 0e0c 637900   		.ascii	"cy\000"
 5793 0e0f 01       		.byte	0x1
 5794 0e10 F501     		.2byte	0x1f5
 5795 0e12 12050000 		.4byte	0x512
 5796 0e16 71070000 		.4byte	.LLST51
 5797 0e1a 20       		.uleb128 0x20
 5798 0e1b 02060000 		.4byte	.LASF99
 5799 0e1f 01       		.byte	0x1
 5800 0e20 F501     		.2byte	0x1f5
 5801 0e22 9A060000 		.4byte	0x69a
 5802 0e26 02       		.byte	0x2
 5803 0e27 91       		.byte	0x91
 5804 0e28 00       		.sleb128 0
 5805 0e29 21       		.uleb128 0x21
 5806 0e2a 783100   		.ascii	"x1\000"
 5807 0e2d 01       		.byte	0x1
 5808 0e2e F701     		.2byte	0x1f7
 5809 0e30 12050000 		.4byte	0x512
 5810 0e34 92070000 		.4byte	.LLST52
 5811 0e38 21       		.uleb128 0x21
 5812 0e39 793100   		.ascii	"y1\000"
 5813 0e3c 01       		.byte	0x1
 5814 0e3d F701     		.2byte	0x1f7
 5815 0e3f 12050000 		.4byte	0x512
 5816 0e43 CB070000 		.4byte	.LLST53
 5817 0e47 15       		.uleb128 0x15
 5818 0e48 44000000 		.4byte	.LVL61
 5819 0e4c 20080000 		.4byte	0x820
 5820 0e50 740E0000 		.4byte	0xe74
 5821 0e54 16       		.uleb128 0x16
 5822 0e55 01       		.byte	0x1
 5823 0e56 53       		.byte	0x53
 5824 0e57 02       		.byte	0x2
 5825 0e58 76       		.byte	0x76
 5826 0e59 00       		.sleb128 0
 5827 0e5a 16       		.uleb128 0x16
 5828 0e5b 01       		.byte	0x1
 5829 0e5c 52       		.byte	0x52
 5830 0e5d 02       		.byte	0x2
 5831 0e5e 7A       		.byte	0x7a
 5832 0e5f 00       		.sleb128 0
 5833 0e60 16       		.uleb128 0x16
 5834 0e61 01       		.byte	0x1
 5835 0e62 51       		.byte	0x51
 5836 0e63 02       		.byte	0x2
 5837 0e64 76       		.byte	0x76
 5838 0e65 00       		.sleb128 0
 5839 0e66 16       		.uleb128 0x16
ARM GAS  /tmp/ccAUe7jC.s 			page 104


 5840 0e67 01       		.byte	0x1
 5841 0e68 50       		.byte	0x50
 5842 0e69 02       		.byte	0x2
 5843 0e6a 75       		.byte	0x75
 5844 0e6b 00       		.sleb128 0
 5845 0e6c 16       		.uleb128 0x16
 5846 0e6d 02       		.byte	0x2
 5847 0e6e 7D       		.byte	0x7d
 5848 0e6f 00       		.sleb128 0
 5849 0e70 02       		.byte	0x2
 5850 0e71 79       		.byte	0x79
 5851 0e72 00       		.sleb128 0
 5852 0e73 00       		.byte	0
 5853 0e74 15       		.uleb128 0x15
 5854 0e75 5A000000 		.4byte	.LVL62
 5855 0e79 20080000 		.4byte	0x820
 5856 0e7d A10E0000 		.4byte	0xea1
 5857 0e81 16       		.uleb128 0x16
 5858 0e82 01       		.byte	0x1
 5859 0e83 53       		.byte	0x53
 5860 0e84 02       		.byte	0x2
 5861 0e85 7B       		.byte	0x7b
 5862 0e86 00       		.sleb128 0
 5863 0e87 16       		.uleb128 0x16
 5864 0e88 01       		.byte	0x1
 5865 0e89 52       		.byte	0x52
 5866 0e8a 02       		.byte	0x2
 5867 0e8b 7A       		.byte	0x7a
 5868 0e8c 00       		.sleb128 0
 5869 0e8d 16       		.uleb128 0x16
 5870 0e8e 01       		.byte	0x1
 5871 0e8f 51       		.byte	0x51
 5872 0e90 02       		.byte	0x2
 5873 0e91 7B       		.byte	0x7b
 5874 0e92 00       		.sleb128 0
 5875 0e93 16       		.uleb128 0x16
 5876 0e94 01       		.byte	0x1
 5877 0e95 50       		.byte	0x50
 5878 0e96 02       		.byte	0x2
 5879 0e97 75       		.byte	0x75
 5880 0e98 00       		.sleb128 0
 5881 0e99 16       		.uleb128 0x16
 5882 0e9a 02       		.byte	0x2
 5883 0e9b 7D       		.byte	0x7d
 5884 0e9c 00       		.sleb128 0
 5885 0e9d 02       		.byte	0x2
 5886 0e9e 79       		.byte	0x79
 5887 0e9f 00       		.sleb128 0
 5888 0ea0 00       		.byte	0
 5889 0ea1 22       		.uleb128 0x22
 5890 0ea2 7E000000 		.4byte	.LVL66
 5891 0ea6 01       		.byte	0x1
 5892 0ea7 20080000 		.4byte	0x820
 5893 0eab C90E0000 		.4byte	0xec9
 5894 0eaf 16       		.uleb128 0x16
 5895 0eb0 01       		.byte	0x1
 5896 0eb1 53       		.byte	0x53
ARM GAS  /tmp/ccAUe7jC.s 			page 105


 5897 0eb2 02       		.byte	0x2
 5898 0eb3 7B       		.byte	0x7b
 5899 0eb4 00       		.sleb128 0
 5900 0eb5 16       		.uleb128 0x16
 5901 0eb6 01       		.byte	0x1
 5902 0eb7 52       		.byte	0x52
 5903 0eb8 02       		.byte	0x2
 5904 0eb9 75       		.byte	0x75
 5905 0eba 00       		.sleb128 0
 5906 0ebb 16       		.uleb128 0x16
 5907 0ebc 01       		.byte	0x1
 5908 0ebd 50       		.byte	0x50
 5909 0ebe 02       		.byte	0x2
 5910 0ebf 75       		.byte	0x75
 5911 0ec0 00       		.sleb128 0
 5912 0ec1 16       		.uleb128 0x16
 5913 0ec2 02       		.byte	0x2
 5914 0ec3 91       		.byte	0x91
 5915 0ec4 00       		.sleb128 0
 5916 0ec5 02       		.byte	0x2
 5917 0ec6 79       		.byte	0x79
 5918 0ec7 00       		.sleb128 0
 5919 0ec8 00       		.byte	0
 5920 0ec9 15       		.uleb128 0x15
 5921 0eca 9A000000 		.4byte	.LVL69
 5922 0ece 20080000 		.4byte	0x820
 5923 0ed2 F60E0000 		.4byte	0xef6
 5924 0ed6 16       		.uleb128 0x16
 5925 0ed7 01       		.byte	0x1
 5926 0ed8 53       		.byte	0x53
 5927 0ed9 02       		.byte	0x2
 5928 0eda 77       		.byte	0x77
 5929 0edb 00       		.sleb128 0
 5930 0edc 16       		.uleb128 0x16
 5931 0edd 01       		.byte	0x1
 5932 0ede 52       		.byte	0x52
 5933 0edf 02       		.byte	0x2
 5934 0ee0 75       		.byte	0x75
 5935 0ee1 00       		.sleb128 0
 5936 0ee2 16       		.uleb128 0x16
 5937 0ee3 01       		.byte	0x1
 5938 0ee4 51       		.byte	0x51
 5939 0ee5 02       		.byte	0x2
 5940 0ee6 78       		.byte	0x78
 5941 0ee7 00       		.sleb128 0
 5942 0ee8 16       		.uleb128 0x16
 5943 0ee9 01       		.byte	0x1
 5944 0eea 50       		.byte	0x50
 5945 0eeb 02       		.byte	0x2
 5946 0eec 75       		.byte	0x75
 5947 0eed 00       		.sleb128 0
 5948 0eee 16       		.uleb128 0x16
 5949 0eef 02       		.byte	0x2
 5950 0ef0 7D       		.byte	0x7d
 5951 0ef1 00       		.sleb128 0
 5952 0ef2 02       		.byte	0x2
 5953 0ef3 79       		.byte	0x79
ARM GAS  /tmp/ccAUe7jC.s 			page 106


 5954 0ef4 00       		.sleb128 0
 5955 0ef5 00       		.byte	0
 5956 0ef6 22       		.uleb128 0x22
 5957 0ef7 B0000000 		.4byte	.LVL70
 5958 0efb 01       		.byte	0x1
 5959 0efc 20080000 		.4byte	0x820
 5960 0f00 240F0000 		.4byte	0xf24
 5961 0f04 16       		.uleb128 0x16
 5962 0f05 01       		.byte	0x1
 5963 0f06 53       		.byte	0x53
 5964 0f07 02       		.byte	0x2
 5965 0f08 77       		.byte	0x77
 5966 0f09 00       		.sleb128 0
 5967 0f0a 16       		.uleb128 0x16
 5968 0f0b 01       		.byte	0x1
 5969 0f0c 52       		.byte	0x52
 5970 0f0d 02       		.byte	0x2
 5971 0f0e 7A       		.byte	0x7a
 5972 0f0f 00       		.sleb128 0
 5973 0f10 16       		.uleb128 0x16
 5974 0f11 01       		.byte	0x1
 5975 0f12 51       		.byte	0x51
 5976 0f13 02       		.byte	0x2
 5977 0f14 78       		.byte	0x78
 5978 0f15 00       		.sleb128 0
 5979 0f16 16       		.uleb128 0x16
 5980 0f17 01       		.byte	0x1
 5981 0f18 50       		.byte	0x50
 5982 0f19 02       		.byte	0x2
 5983 0f1a 7A       		.byte	0x7a
 5984 0f1b 00       		.sleb128 0
 5985 0f1c 16       		.uleb128 0x16
 5986 0f1d 02       		.byte	0x2
 5987 0f1e 91       		.byte	0x91
 5988 0f1f 00       		.sleb128 0
 5989 0f20 02       		.byte	0x2
 5990 0f21 79       		.byte	0x79
 5991 0f22 00       		.sleb128 0
 5992 0f23 00       		.byte	0
 5993 0f24 15       		.uleb128 0x15
 5994 0f25 C0000000 		.4byte	.LVL73
 5995 0f29 20080000 		.4byte	0x820
 5996 0f2d 4B0F0000 		.4byte	0xf4b
 5997 0f31 16       		.uleb128 0x16
 5998 0f32 01       		.byte	0x1
 5999 0f33 53       		.byte	0x53
 6000 0f34 02       		.byte	0x2
 6001 0f35 7B       		.byte	0x7b
 6002 0f36 00       		.sleb128 0
 6003 0f37 16       		.uleb128 0x16
 6004 0f38 01       		.byte	0x1
 6005 0f39 52       		.byte	0x52
 6006 0f3a 02       		.byte	0x2
 6007 0f3b 75       		.byte	0x75
 6008 0f3c 00       		.sleb128 0
 6009 0f3d 16       		.uleb128 0x16
 6010 0f3e 01       		.byte	0x1
ARM GAS  /tmp/ccAUe7jC.s 			page 107


 6011 0f3f 50       		.byte	0x50
 6012 0f40 02       		.byte	0x2
 6013 0f41 75       		.byte	0x75
 6014 0f42 00       		.sleb128 0
 6015 0f43 16       		.uleb128 0x16
 6016 0f44 02       		.byte	0x2
 6017 0f45 7D       		.byte	0x7d
 6018 0f46 00       		.sleb128 0
 6019 0f47 02       		.byte	0x2
 6020 0f48 79       		.byte	0x79
 6021 0f49 00       		.sleb128 0
 6022 0f4a 00       		.byte	0
 6023 0f4b 23       		.uleb128 0x23
 6024 0f4c D8000000 		.4byte	.LVL74
 6025 0f50 01       		.byte	0x1
 6026 0f51 20080000 		.4byte	0x820
 6027 0f55 16       		.uleb128 0x16
 6028 0f56 01       		.byte	0x1
 6029 0f57 53       		.byte	0x53
 6030 0f58 02       		.byte	0x2
 6031 0f59 7B       		.byte	0x7b
 6032 0f5a 00       		.sleb128 0
 6033 0f5b 16       		.uleb128 0x16
 6034 0f5c 01       		.byte	0x1
 6035 0f5d 52       		.byte	0x52
 6036 0f5e 02       		.byte	0x2
 6037 0f5f 7A       		.byte	0x7a
 6038 0f60 00       		.sleb128 0
 6039 0f61 16       		.uleb128 0x16
 6040 0f62 01       		.byte	0x1
 6041 0f63 51       		.byte	0x51
 6042 0f64 02       		.byte	0x2
 6043 0f65 76       		.byte	0x76
 6044 0f66 00       		.sleb128 0
 6045 0f67 16       		.uleb128 0x16
 6046 0f68 01       		.byte	0x1
 6047 0f69 50       		.byte	0x50
 6048 0f6a 02       		.byte	0x2
 6049 0f6b 7A       		.byte	0x7a
 6050 0f6c 00       		.sleb128 0
 6051 0f6d 16       		.uleb128 0x16
 6052 0f6e 02       		.byte	0x2
 6053 0f6f 91       		.byte	0x91
 6054 0f70 00       		.sleb128 0
 6055 0f71 02       		.byte	0x2
 6056 0f72 79       		.byte	0x79
 6057 0f73 00       		.sleb128 0
 6058 0f74 00       		.byte	0
 6059 0f75 00       		.byte	0
 6060 0f76 1D       		.uleb128 0x1d
 6061 0f77 01       		.byte	0x1
 6062 0f78 DC000000 		.4byte	.LASF115
 6063 0f7c 01       		.byte	0x1
 6064 0f7d 1002     		.2byte	0x210
 6065 0f7f 01       		.byte	0x1
 6066 0f80 00000000 		.4byte	.LFB131
 6067 0f84 38010000 		.4byte	.LFE131
ARM GAS  /tmp/ccAUe7jC.s 			page 108


 6068 0f88 17080000 		.4byte	.LLST54
 6069 0f8c 01       		.byte	0x1
 6070 0f8d 61100000 		.4byte	0x1061
 6071 0f91 1E       		.uleb128 0x1e
 6072 0f92 747800   		.ascii	"tx\000"
 6073 0f95 01       		.byte	0x1
 6074 0f96 1002     		.2byte	0x210
 6075 0f98 12050000 		.4byte	0x512
 6076 0f9c 43080000 		.4byte	.LLST55
 6077 0fa0 1E       		.uleb128 0x1e
 6078 0fa1 747900   		.ascii	"ty\000"
 6079 0fa4 01       		.byte	0x1
 6080 0fa5 1002     		.2byte	0x210
 6081 0fa7 12050000 		.4byte	0x512
 6082 0fab 7A080000 		.4byte	.LLST56
 6083 0faf 1F       		.uleb128 0x1f
 6084 0fb0 67000000 		.4byte	.LASF116
 6085 0fb4 01       		.byte	0x1
 6086 0fb5 1002     		.2byte	0x210
 6087 0fb7 61100000 		.4byte	0x1061
 6088 0fbb BC080000 		.4byte	.LLST57
 6089 0fbf 1E       		.uleb128 0x1e
 6090 0fc0 636E7400 		.ascii	"cnt\000"
 6091 0fc4 01       		.byte	0x1
 6092 0fc5 1002     		.2byte	0x210
 6093 0fc7 30000000 		.4byte	0x30
 6094 0fcb E5080000 		.4byte	.LLST58
 6095 0fcf 20       		.uleb128 0x20
 6096 0fd0 02060000 		.4byte	.LASF99
 6097 0fd4 01       		.byte	0x1
 6098 0fd5 1002     		.2byte	0x210
 6099 0fd7 9A060000 		.4byte	0x69a
 6100 0fdb 02       		.byte	0x2
 6101 0fdc 91       		.byte	0x91
 6102 0fdd 00       		.sleb128 0
 6103 0fde 24       		.uleb128 0x24
 6104 0fdf 49060000 		.4byte	.LASF117
 6105 0fe3 01       		.byte	0x1
 6106 0fe4 1102     		.2byte	0x211
 6107 0fe6 61100000 		.4byte	0x1061
 6108 0fea 01       		.byte	0x1
 6109 0feb 5A       		.byte	0x5a
 6110 0fec 21       		.uleb128 0x21
 6111 0fed 7000     		.ascii	"p\000"
 6112 0fef 01       		.byte	0x1
 6113 0ff0 1102     		.2byte	0x211
 6114 0ff2 61100000 		.4byte	0x1061
 6115 0ff6 13090000 		.4byte	.LLST59
 6116 0ffa 15       		.uleb128 0x15
 6117 0ffb 50000000 		.4byte	.LVL82
 6118 0fff 20080000 		.4byte	0x820
 6119 1003 0F100000 		.4byte	0x100f
 6120 1007 16       		.uleb128 0x16
 6121 1008 02       		.byte	0x2
 6122 1009 7D       		.byte	0x7d
 6123 100a 00       		.sleb128 0
 6124 100b 02       		.byte	0x2
ARM GAS  /tmp/ccAUe7jC.s 			page 109


 6125 100c 79       		.byte	0x79
 6126 100d 00       		.sleb128 0
 6127 100e 00       		.byte	0
 6128 100f 15       		.uleb128 0x15
 6129 1010 8C000000 		.4byte	.LVL83
 6130 1014 20080000 		.4byte	0x820
 6131 1018 24100000 		.4byte	0x1024
 6132 101c 16       		.uleb128 0x16
 6133 101d 02       		.byte	0x2
 6134 101e 7D       		.byte	0x7d
 6135 101f 00       		.sleb128 0
 6136 1020 02       		.byte	0x2
 6137 1021 79       		.byte	0x79
 6138 1022 00       		.sleb128 0
 6139 1023 00       		.byte	0
 6140 1024 15       		.uleb128 0x15
 6141 1025 C0000000 		.4byte	.LVL84
 6142 1029 20080000 		.4byte	0x820
 6143 102d 39100000 		.4byte	0x1039
 6144 1031 16       		.uleb128 0x16
 6145 1032 02       		.byte	0x2
 6146 1033 7D       		.byte	0x7d
 6147 1034 00       		.sleb128 0
 6148 1035 02       		.byte	0x2
 6149 1036 79       		.byte	0x79
 6150 1037 00       		.sleb128 0
 6151 1038 00       		.byte	0
 6152 1039 15       		.uleb128 0x15
 6153 103a EE000000 		.4byte	.LVL85
 6154 103e 20080000 		.4byte	0x820
 6155 1042 4E100000 		.4byte	0x104e
 6156 1046 16       		.uleb128 0x16
 6157 1047 02       		.byte	0x2
 6158 1048 7D       		.byte	0x7d
 6159 1049 00       		.sleb128 0
 6160 104a 02       		.byte	0x2
 6161 104b 79       		.byte	0x79
 6162 104c 00       		.sleb128 0
 6163 104d 00       		.byte	0
 6164 104e 23       		.uleb128 0x23
 6165 104f 30010000 		.4byte	.LVL87
 6166 1053 01       		.byte	0x1
 6167 1054 20080000 		.4byte	0x820
 6168 1058 16       		.uleb128 0x16
 6169 1059 02       		.byte	0x2
 6170 105a 91       		.byte	0x91
 6171 105b 00       		.sleb128 0
 6172 105c 02       		.byte	0x2
 6173 105d 79       		.byte	0x79
 6174 105e 00       		.sleb128 0
 6175 105f 00       		.byte	0
 6176 1060 00       		.byte	0
 6177 1061 09       		.uleb128 0x9
 6178 1062 04       		.byte	0x4
 6179 1063 67100000 		.4byte	0x1067
 6180 1067 10       		.uleb128 0x10
 6181 1068 42050000 		.4byte	0x542
ARM GAS  /tmp/ccAUe7jC.s 			page 110


 6182 106c 1D       		.uleb128 0x1d
 6183 106d 01       		.byte	0x1
 6184 106e ED030000 		.4byte	.LASF118
 6185 1072 01       		.byte	0x1
 6186 1073 1902     		.2byte	0x219
 6187 1075 01       		.byte	0x1
 6188 1076 00000000 		.4byte	.LFB132
 6189 107a 7C050000 		.4byte	.LFE132
 6190 107e 3C090000 		.4byte	.LLST60
 6191 1082 01       		.byte	0x1
 6192 1083 68140000 		.4byte	0x1468
 6193 1087 1E       		.uleb128 0x1e
 6194 1088 747800   		.ascii	"tx\000"
 6195 108b 01       		.byte	0x1
 6196 108c 1902     		.2byte	0x219
 6197 108e 12050000 		.4byte	0x512
 6198 1092 69090000 		.4byte	.LLST61
 6199 1096 1E       		.uleb128 0x1e
 6200 1097 747900   		.ascii	"ty\000"
 6201 109a 01       		.byte	0x1
 6202 109b 1902     		.2byte	0x219
 6203 109d 12050000 		.4byte	0x512
 6204 10a1 A3090000 		.4byte	.LLST62
 6205 10a5 1F       		.uleb128 0x1f
 6206 10a6 67000000 		.4byte	.LASF116
 6207 10aa 01       		.byte	0x1
 6208 10ab 1902     		.2byte	0x219
 6209 10ad 61100000 		.4byte	0x1061
 6210 10b1 DB090000 		.4byte	.LLST63
 6211 10b5 1E       		.uleb128 0x1e
 6212 10b6 636E7400 		.ascii	"cnt\000"
 6213 10ba 01       		.byte	0x1
 6214 10bb 1902     		.2byte	0x219
 6215 10bd 30000000 		.4byte	0x30
 6216 10c1 290A0000 		.4byte	.LLST64
 6217 10c5 20       		.uleb128 0x20
 6218 10c6 02060000 		.4byte	.LASF99
 6219 10ca 01       		.byte	0x1
 6220 10cb 1902     		.2byte	0x219
 6221 10cd 9A060000 		.4byte	0x69a
 6222 10d1 02       		.byte	0x2
 6223 10d2 91       		.byte	0x91
 6224 10d3 00       		.sleb128 0
 6225 10d4 25       		.uleb128 0x25
 6226 10d5 4B040000 		.4byte	.LASF119
 6227 10d9 01       		.byte	0x1
 6228 10da 1A02     		.2byte	0x21a
 6229 10dc 61100000 		.4byte	0x1061
 6230 10e0 8F0B0000 		.4byte	.LLST65
 6231 10e4 25       		.uleb128 0x25
 6232 10e5 29050000 		.4byte	.LASF120
 6233 10e9 01       		.byte	0x1
 6234 10ea 1A02     		.2byte	0x21a
 6235 10ec 61100000 		.4byte	0x1061
 6236 10f0 630C0000 		.4byte	.LLST66
 6237 10f4 25       		.uleb128 0x25
 6238 10f5 33070000 		.4byte	.LASF121
ARM GAS  /tmp/ccAUe7jC.s 			page 111


 6239 10f9 01       		.byte	0x1
 6240 10fa 1A02     		.2byte	0x21a
 6241 10fc 61100000 		.4byte	0x1061
 6242 1100 400D0000 		.4byte	.LLST67
 6243 1104 21       		.uleb128 0x21
 6244 1105 6C7800   		.ascii	"lx\000"
 6245 1108 01       		.byte	0x1
 6246 1109 1B02     		.2byte	0x21b
 6247 110b 07050000 		.4byte	0x507
 6248 110f 810D0000 		.4byte	.LLST68
 6249 1113 21       		.uleb128 0x21
 6250 1114 727800   		.ascii	"rx\000"
 6251 1117 01       		.byte	0x1
 6252 1118 1B02     		.2byte	0x21b
 6253 111a 07050000 		.4byte	0x507
 6254 111e E90D0000 		.4byte	.LLST69
 6255 1122 21       		.uleb128 0x21
 6256 1123 6C6B00   		.ascii	"lk\000"
 6257 1126 01       		.byte	0x1
 6258 1127 1B02     		.2byte	0x21b
 6259 1129 07050000 		.4byte	0x507
 6260 112d C00E0000 		.4byte	.LLST70
 6261 1131 21       		.uleb128 0x21
 6262 1132 726B00   		.ascii	"rk\000"
 6263 1135 01       		.byte	0x1
 6264 1136 1B02     		.2byte	0x21b
 6265 1138 07050000 		.4byte	0x507
 6266 113c F60E0000 		.4byte	.LLST71
 6267 1140 21       		.uleb128 0x21
 6268 1141 7900     		.ascii	"y\000"
 6269 1143 01       		.byte	0x1
 6270 1144 1C02     		.2byte	0x21c
 6271 1146 12050000 		.4byte	0x512
 6272 114a 140F0000 		.4byte	.LLST72
 6273 114e 25       		.uleb128 0x25
 6274 114f B0010000 		.4byte	.LASF122
 6275 1153 01       		.byte	0x1
 6276 1154 1C02     		.2byte	0x21c
 6277 1156 12050000 		.4byte	0x512
 6278 115a 720F0000 		.4byte	.LLST73
 6279 115e 21       		.uleb128 0x21
 6280 115f 6C786300 		.ascii	"lxc\000"
 6281 1163 01       		.byte	0x1
 6282 1164 1C02     		.2byte	0x21c
 6283 1166 12050000 		.4byte	0x512
 6284 116a 850F0000 		.4byte	.LLST74
 6285 116e 21       		.uleb128 0x21
 6286 116f 72786300 		.ascii	"rxc\000"
 6287 1173 01       		.byte	0x1
 6288 1174 1C02     		.2byte	0x21c
 6289 1176 12050000 		.4byte	0x512
 6290 117a ED0F0000 		.4byte	.LLST75
 6291 117e 15       		.uleb128 0x15
 6292 117f E4010000 		.4byte	.LVL132
 6293 1183 20080000 		.4byte	0x820
 6294 1187 BE110000 		.4byte	0x11be
 6295 118b 16       		.uleb128 0x16
ARM GAS  /tmp/ccAUe7jC.s 			page 112


 6296 118c 01       		.byte	0x1
 6297 118d 53       		.byte	0x53
 6298 118e 02       		.byte	0x2
 6299 118f 75       		.byte	0x75
 6300 1190 00       		.sleb128 0
 6301 1191 16       		.uleb128 0x16
 6302 1192 01       		.byte	0x1
 6303 1193 52       		.byte	0x52
 6304 1194 09       		.byte	0x9
 6305 1195 91       		.byte	0x91
 6306 1196 A87F     		.sleb128 -88
 6307 1198 06       		.byte	0x6
 6308 1199 40       		.byte	0x40
 6309 119a 26       		.byte	0x26
 6310 119b 76       		.byte	0x76
 6311 119c 00       		.sleb128 0
 6312 119d 22       		.byte	0x22
 6313 119e 16       		.uleb128 0x16
 6314 119f 01       		.byte	0x1
 6315 11a0 51       		.byte	0x51
 6316 11a1 02       		.byte	0x2
 6317 11a2 75       		.byte	0x75
 6318 11a3 00       		.sleb128 0
 6319 11a4 16       		.uleb128 0x16
 6320 11a5 01       		.byte	0x1
 6321 11a6 50       		.byte	0x50
 6322 11a7 0B       		.byte	0xb
 6323 11a8 91       		.byte	0x91
 6324 11a9 987F     		.sleb128 -104
 6325 11ab 06       		.byte	0x6
 6326 11ac 40       		.byte	0x40
 6327 11ad 26       		.byte	0x26
 6328 11ae 91       		.byte	0x91
 6329 11af B87F     		.sleb128 -72
 6330 11b1 06       		.byte	0x6
 6331 11b2 22       		.byte	0x22
 6332 11b3 16       		.uleb128 0x16
 6333 11b4 02       		.byte	0x2
 6334 11b5 7D       		.byte	0x7d
 6335 11b6 00       		.sleb128 0
 6336 11b7 05       		.byte	0x5
 6337 11b8 91       		.byte	0x91
 6338 11b9 A07F     		.sleb128 -96
 6339 11bb 94       		.byte	0x94
 6340 11bc 02       		.byte	0x2
 6341 11bd 00       		.byte	0
 6342 11be 15       		.uleb128 0x15
 6343 11bf 34020000 		.4byte	.LVL137
 6344 11c3 20080000 		.4byte	0x820
 6345 11c7 FC110000 		.4byte	0x11fc
 6346 11cb 16       		.uleb128 0x16
 6347 11cc 01       		.byte	0x1
 6348 11cd 53       		.byte	0x53
 6349 11ce 02       		.byte	0x2
 6350 11cf 75       		.byte	0x75
 6351 11d0 00       		.sleb128 0
 6352 11d1 16       		.uleb128 0x16
ARM GAS  /tmp/ccAUe7jC.s 			page 113


 6353 11d2 01       		.byte	0x1
 6354 11d3 52       		.byte	0x52
 6355 11d4 09       		.byte	0x9
 6356 11d5 78       		.byte	0x78
 6357 11d6 00       		.sleb128 0
 6358 11d7 40       		.byte	0x40
 6359 11d8 26       		.byte	0x26
 6360 11d9 91       		.byte	0x91
 6361 11da A47F     		.sleb128 -92
 6362 11dc 06       		.byte	0x6
 6363 11dd 22       		.byte	0x22
 6364 11de 16       		.uleb128 0x16
 6365 11df 01       		.byte	0x1
 6366 11e0 51       		.byte	0x51
 6367 11e1 02       		.byte	0x2
 6368 11e2 75       		.byte	0x75
 6369 11e3 00       		.sleb128 0
 6370 11e4 16       		.uleb128 0x16
 6371 11e5 01       		.byte	0x1
 6372 11e6 50       		.byte	0x50
 6373 11e7 09       		.byte	0x9
 6374 11e8 76       		.byte	0x76
 6375 11e9 00       		.sleb128 0
 6376 11ea 40       		.byte	0x40
 6377 11eb 26       		.byte	0x26
 6378 11ec 91       		.byte	0x91
 6379 11ed B87F     		.sleb128 -72
 6380 11ef 06       		.byte	0x6
 6381 11f0 22       		.byte	0x22
 6382 11f1 16       		.uleb128 0x16
 6383 11f2 02       		.byte	0x2
 6384 11f3 7D       		.byte	0x7d
 6385 11f4 00       		.sleb128 0
 6386 11f5 05       		.byte	0x5
 6387 11f6 91       		.byte	0x91
 6388 11f7 A07F     		.sleb128 -96
 6389 11f9 94       		.byte	0x94
 6390 11fa 02       		.byte	0x2
 6391 11fb 00       		.byte	0
 6392 11fc 15       		.uleb128 0x15
 6393 11fd 6A020000 		.4byte	.LVL140
 6394 1201 20080000 		.4byte	0x820
 6395 1205 35120000 		.4byte	0x1235
 6396 1209 16       		.uleb128 0x16
 6397 120a 01       		.byte	0x1
 6398 120b 53       		.byte	0x53
 6399 120c 02       		.byte	0x2
 6400 120d 75       		.byte	0x75
 6401 120e 00       		.sleb128 0
 6402 120f 16       		.uleb128 0x16
 6403 1210 01       		.byte	0x1
 6404 1211 52       		.byte	0x52
 6405 1212 09       		.byte	0x9
 6406 1213 76       		.byte	0x76
 6407 1214 00       		.sleb128 0
 6408 1215 40       		.byte	0x40
 6409 1216 26       		.byte	0x26
ARM GAS  /tmp/ccAUe7jC.s 			page 114


 6410 1217 91       		.byte	0x91
 6411 1218 A47F     		.sleb128 -92
 6412 121a 06       		.byte	0x6
 6413 121b 22       		.byte	0x22
 6414 121c 16       		.uleb128 0x16
 6415 121d 01       		.byte	0x1
 6416 121e 51       		.byte	0x51
 6417 121f 02       		.byte	0x2
 6418 1220 75       		.byte	0x75
 6419 1221 00       		.sleb128 0
 6420 1222 16       		.uleb128 0x16
 6421 1223 01       		.byte	0x1
 6422 1224 50       		.byte	0x50
 6423 1225 07       		.byte	0x7
 6424 1226 78       		.byte	0x78
 6425 1227 00       		.sleb128 0
 6426 1228 40       		.byte	0x40
 6427 1229 26       		.byte	0x26
 6428 122a 77       		.byte	0x77
 6429 122b 00       		.sleb128 0
 6430 122c 22       		.byte	0x22
 6431 122d 16       		.uleb128 0x16
 6432 122e 02       		.byte	0x2
 6433 122f 7D       		.byte	0x7d
 6434 1230 00       		.sleb128 0
 6435 1231 02       		.byte	0x2
 6436 1232 74       		.byte	0x74
 6437 1233 00       		.sleb128 0
 6438 1234 00       		.byte	0
 6439 1235 15       		.uleb128 0x15
 6440 1236 9E020000 		.4byte	.LVL141
 6441 123a 20080000 		.4byte	0x820
 6442 123e 6E120000 		.4byte	0x126e
 6443 1242 16       		.uleb128 0x16
 6444 1243 01       		.byte	0x1
 6445 1244 53       		.byte	0x53
 6446 1245 02       		.byte	0x2
 6447 1246 75       		.byte	0x75
 6448 1247 00       		.sleb128 0
 6449 1248 16       		.uleb128 0x16
 6450 1249 01       		.byte	0x1
 6451 124a 52       		.byte	0x52
 6452 124b 09       		.byte	0x9
 6453 124c 76       		.byte	0x76
 6454 124d 00       		.sleb128 0
 6455 124e 40       		.byte	0x40
 6456 124f 26       		.byte	0x26
 6457 1250 91       		.byte	0x91
 6458 1251 A47F     		.sleb128 -92
 6459 1253 06       		.byte	0x6
 6460 1254 22       		.byte	0x22
 6461 1255 16       		.uleb128 0x16
 6462 1256 01       		.byte	0x1
 6463 1257 51       		.byte	0x51
 6464 1258 02       		.byte	0x2
 6465 1259 75       		.byte	0x75
 6466 125a 00       		.sleb128 0
ARM GAS  /tmp/ccAUe7jC.s 			page 115


 6467 125b 16       		.uleb128 0x16
 6468 125c 01       		.byte	0x1
 6469 125d 50       		.byte	0x50
 6470 125e 07       		.byte	0x7
 6471 125f 78       		.byte	0x78
 6472 1260 00       		.sleb128 0
 6473 1261 40       		.byte	0x40
 6474 1262 26       		.byte	0x26
 6475 1263 77       		.byte	0x77
 6476 1264 00       		.sleb128 0
 6477 1265 22       		.byte	0x22
 6478 1266 16       		.uleb128 0x16
 6479 1267 02       		.byte	0x2
 6480 1268 7D       		.byte	0x7d
 6481 1269 00       		.sleb128 0
 6482 126a 02       		.byte	0x2
 6483 126b 74       		.byte	0x74
 6484 126c 00       		.sleb128 0
 6485 126d 00       		.byte	0
 6486 126e 15       		.uleb128 0x15
 6487 126f D6020000 		.4byte	.LVL142
 6488 1273 20080000 		.4byte	0x820
 6489 1277 A7120000 		.4byte	0x12a7
 6490 127b 16       		.uleb128 0x16
 6491 127c 01       		.byte	0x1
 6492 127d 53       		.byte	0x53
 6493 127e 02       		.byte	0x2
 6494 127f 75       		.byte	0x75
 6495 1280 00       		.sleb128 0
 6496 1281 16       		.uleb128 0x16
 6497 1282 01       		.byte	0x1
 6498 1283 52       		.byte	0x52
 6499 1284 09       		.byte	0x9
 6500 1285 78       		.byte	0x78
 6501 1286 00       		.sleb128 0
 6502 1287 40       		.byte	0x40
 6503 1288 26       		.byte	0x26
 6504 1289 91       		.byte	0x91
 6505 128a A47F     		.sleb128 -92
 6506 128c 06       		.byte	0x6
 6507 128d 22       		.byte	0x22
 6508 128e 16       		.uleb128 0x16
 6509 128f 01       		.byte	0x1
 6510 1290 51       		.byte	0x51
 6511 1291 02       		.byte	0x2
 6512 1292 75       		.byte	0x75
 6513 1293 00       		.sleb128 0
 6514 1294 16       		.uleb128 0x16
 6515 1295 01       		.byte	0x1
 6516 1296 50       		.byte	0x50
 6517 1297 07       		.byte	0x7
 6518 1298 76       		.byte	0x76
 6519 1299 00       		.sleb128 0
 6520 129a 40       		.byte	0x40
 6521 129b 26       		.byte	0x26
 6522 129c 77       		.byte	0x77
 6523 129d 00       		.sleb128 0
ARM GAS  /tmp/ccAUe7jC.s 			page 116


 6524 129e 22       		.byte	0x22
 6525 129f 16       		.uleb128 0x16
 6526 12a0 02       		.byte	0x2
 6527 12a1 7D       		.byte	0x7d
 6528 12a2 00       		.sleb128 0
 6529 12a3 02       		.byte	0x2
 6530 12a4 74       		.byte	0x74
 6531 12a5 00       		.sleb128 0
 6532 12a6 00       		.byte	0
 6533 12a7 15       		.uleb128 0x15
 6534 12a8 B6030000 		.4byte	.LVL158
 6535 12ac 20080000 		.4byte	0x820
 6536 12b0 E7120000 		.4byte	0x12e7
 6537 12b4 16       		.uleb128 0x16
 6538 12b5 01       		.byte	0x1
 6539 12b6 53       		.byte	0x53
 6540 12b7 02       		.byte	0x2
 6541 12b8 75       		.byte	0x75
 6542 12b9 00       		.sleb128 0
 6543 12ba 16       		.uleb128 0x16
 6544 12bb 01       		.byte	0x1
 6545 12bc 52       		.byte	0x52
 6546 12bd 09       		.byte	0x9
 6547 12be 91       		.byte	0x91
 6548 12bf 987F     		.sleb128 -104
 6549 12c1 06       		.byte	0x6
 6550 12c2 40       		.byte	0x40
 6551 12c3 26       		.byte	0x26
 6552 12c4 76       		.byte	0x76
 6553 12c5 00       		.sleb128 0
 6554 12c6 22       		.byte	0x22
 6555 12c7 16       		.uleb128 0x16
 6556 12c8 01       		.byte	0x1
 6557 12c9 51       		.byte	0x51
 6558 12ca 02       		.byte	0x2
 6559 12cb 75       		.byte	0x75
 6560 12cc 00       		.sleb128 0
 6561 12cd 16       		.uleb128 0x16
 6562 12ce 01       		.byte	0x1
 6563 12cf 50       		.byte	0x50
 6564 12d0 0B       		.byte	0xb
 6565 12d1 91       		.byte	0x91
 6566 12d2 A87F     		.sleb128 -88
 6567 12d4 06       		.byte	0x6
 6568 12d5 40       		.byte	0x40
 6569 12d6 26       		.byte	0x26
 6570 12d7 91       		.byte	0x91
 6571 12d8 B87F     		.sleb128 -72
 6572 12da 06       		.byte	0x6
 6573 12db 22       		.byte	0x22
 6574 12dc 16       		.uleb128 0x16
 6575 12dd 02       		.byte	0x2
 6576 12de 7D       		.byte	0x7d
 6577 12df 00       		.sleb128 0
 6578 12e0 05       		.byte	0x5
 6579 12e1 91       		.byte	0x91
 6580 12e2 A07F     		.sleb128 -96
ARM GAS  /tmp/ccAUe7jC.s 			page 117


 6581 12e4 94       		.byte	0x94
 6582 12e5 02       		.byte	0x2
 6583 12e6 00       		.byte	0
 6584 12e7 15       		.uleb128 0x15
 6585 12e8 E6030000 		.4byte	.LVL161
 6586 12ec 20080000 		.4byte	0x820
 6587 12f0 20130000 		.4byte	0x1320
 6588 12f4 16       		.uleb128 0x16
 6589 12f5 01       		.byte	0x1
 6590 12f6 53       		.byte	0x53
 6591 12f7 02       		.byte	0x2
 6592 12f8 75       		.byte	0x75
 6593 12f9 00       		.sleb128 0
 6594 12fa 16       		.uleb128 0x16
 6595 12fb 01       		.byte	0x1
 6596 12fc 52       		.byte	0x52
 6597 12fd 09       		.byte	0x9
 6598 12fe 78       		.byte	0x78
 6599 12ff 00       		.sleb128 0
 6600 1300 40       		.byte	0x40
 6601 1301 26       		.byte	0x26
 6602 1302 91       		.byte	0x91
 6603 1303 A47F     		.sleb128 -92
 6604 1305 06       		.byte	0x6
 6605 1306 22       		.byte	0x22
 6606 1307 16       		.uleb128 0x16
 6607 1308 01       		.byte	0x1
 6608 1309 51       		.byte	0x51
 6609 130a 02       		.byte	0x2
 6610 130b 75       		.byte	0x75
 6611 130c 00       		.sleb128 0
 6612 130d 16       		.uleb128 0x16
 6613 130e 01       		.byte	0x1
 6614 130f 50       		.byte	0x50
 6615 1310 07       		.byte	0x7
 6616 1311 76       		.byte	0x76
 6617 1312 00       		.sleb128 0
 6618 1313 40       		.byte	0x40
 6619 1314 26       		.byte	0x26
 6620 1315 77       		.byte	0x77
 6621 1316 00       		.sleb128 0
 6622 1317 22       		.byte	0x22
 6623 1318 16       		.uleb128 0x16
 6624 1319 02       		.byte	0x2
 6625 131a 7D       		.byte	0x7d
 6626 131b 00       		.sleb128 0
 6627 131c 02       		.byte	0x2
 6628 131d 74       		.byte	0x74
 6629 131e 00       		.sleb128 0
 6630 131f 00       		.byte	0
 6631 1320 15       		.uleb128 0x15
 6632 1321 2A040000 		.4byte	.LVL169
 6633 1325 9B070000 		.4byte	0x79b
 6634 1329 47130000 		.4byte	0x1347
 6635 132d 16       		.uleb128 0x16
 6636 132e 01       		.byte	0x1
 6637 132f 52       		.byte	0x52
ARM GAS  /tmp/ccAUe7jC.s 			page 118


 6638 1330 02       		.byte	0x2
 6639 1331 74       		.byte	0x74
 6640 1332 00       		.sleb128 0
 6641 1333 16       		.uleb128 0x16
 6642 1334 01       		.byte	0x1
 6643 1335 51       		.byte	0x51
 6644 1336 02       		.byte	0x2
 6645 1337 75       		.byte	0x75
 6646 1338 00       		.sleb128 0
 6647 1339 16       		.uleb128 0x16
 6648 133a 01       		.byte	0x1
 6649 133b 50       		.byte	0x50
 6650 133c 09       		.byte	0x9
 6651 133d 78       		.byte	0x78
 6652 133e 00       		.sleb128 0
 6653 133f 40       		.byte	0x40
 6654 1340 26       		.byte	0x26
 6655 1341 91       		.byte	0x91
 6656 1342 9C7F     		.sleb128 -100
 6657 1344 06       		.byte	0x6
 6658 1345 22       		.byte	0x22
 6659 1346 00       		.byte	0
 6660 1347 15       		.uleb128 0x15
 6661 1348 3E040000 		.4byte	.LVL170
 6662 134c 9B070000 		.4byte	0x79b
 6663 1350 6E130000 		.4byte	0x136e
 6664 1354 16       		.uleb128 0x16
 6665 1355 01       		.byte	0x1
 6666 1356 52       		.byte	0x52
 6667 1357 02       		.byte	0x2
 6668 1358 74       		.byte	0x74
 6669 1359 00       		.sleb128 0
 6670 135a 16       		.uleb128 0x16
 6671 135b 01       		.byte	0x1
 6672 135c 51       		.byte	0x51
 6673 135d 02       		.byte	0x2
 6674 135e 75       		.byte	0x75
 6675 135f 00       		.sleb128 0
 6676 1360 16       		.uleb128 0x16
 6677 1361 01       		.byte	0x1
 6678 1362 50       		.byte	0x50
 6679 1363 09       		.byte	0x9
 6680 1364 78       		.byte	0x78
 6681 1365 00       		.sleb128 0
 6682 1366 40       		.byte	0x40
 6683 1367 26       		.byte	0x26
 6684 1368 91       		.byte	0x91
 6685 1369 9C7F     		.sleb128 -100
 6686 136b 06       		.byte	0x6
 6687 136c 22       		.byte	0x22
 6688 136d 00       		.byte	0
 6689 136e 15       		.uleb128 0x15
 6690 136f 64040000 		.4byte	.LVL172
 6691 1373 20080000 		.4byte	0x820
 6692 1377 AC130000 		.4byte	0x13ac
 6693 137b 16       		.uleb128 0x16
 6694 137c 01       		.byte	0x1
ARM GAS  /tmp/ccAUe7jC.s 			page 119


 6695 137d 53       		.byte	0x53
 6696 137e 02       		.byte	0x2
 6697 137f 75       		.byte	0x75
 6698 1380 00       		.sleb128 0
 6699 1381 16       		.uleb128 0x16
 6700 1382 01       		.byte	0x1
 6701 1383 52       		.byte	0x52
 6702 1384 09       		.byte	0x9
 6703 1385 76       		.byte	0x76
 6704 1386 00       		.sleb128 0
 6705 1387 40       		.byte	0x40
 6706 1388 26       		.byte	0x26
 6707 1389 91       		.byte	0x91
 6708 138a A47F     		.sleb128 -92
 6709 138c 06       		.byte	0x6
 6710 138d 22       		.byte	0x22
 6711 138e 16       		.uleb128 0x16
 6712 138f 01       		.byte	0x1
 6713 1390 51       		.byte	0x51
 6714 1391 02       		.byte	0x2
 6715 1392 75       		.byte	0x75
 6716 1393 00       		.sleb128 0
 6717 1394 16       		.uleb128 0x16
 6718 1395 01       		.byte	0x1
 6719 1396 50       		.byte	0x50
 6720 1397 09       		.byte	0x9
 6721 1398 78       		.byte	0x78
 6722 1399 00       		.sleb128 0
 6723 139a 40       		.byte	0x40
 6724 139b 26       		.byte	0x26
 6725 139c 91       		.byte	0x91
 6726 139d B87F     		.sleb128 -72
 6727 139f 06       		.byte	0x6
 6728 13a0 22       		.byte	0x22
 6729 13a1 16       		.uleb128 0x16
 6730 13a2 02       		.byte	0x2
 6731 13a3 7D       		.byte	0x7d
 6732 13a4 00       		.sleb128 0
 6733 13a5 05       		.byte	0x5
 6734 13a6 91       		.byte	0x91
 6735 13a7 A07F     		.sleb128 -96
 6736 13a9 94       		.byte	0x94
 6737 13aa 02       		.byte	0x2
 6738 13ab 00       		.byte	0
 6739 13ac 15       		.uleb128 0x15
 6740 13ad 78040000 		.4byte	.LVL174
 6741 13b1 9B070000 		.4byte	0x79b
 6742 13b5 D3130000 		.4byte	0x13d3
 6743 13b9 16       		.uleb128 0x16
 6744 13ba 01       		.byte	0x1
 6745 13bb 52       		.byte	0x52
 6746 13bc 02       		.byte	0x2
 6747 13bd 74       		.byte	0x74
 6748 13be 00       		.sleb128 0
 6749 13bf 16       		.uleb128 0x16
 6750 13c0 01       		.byte	0x1
 6751 13c1 51       		.byte	0x51
ARM GAS  /tmp/ccAUe7jC.s 			page 120


 6752 13c2 02       		.byte	0x2
 6753 13c3 75       		.byte	0x75
 6754 13c4 00       		.sleb128 0
 6755 13c5 16       		.uleb128 0x16
 6756 13c6 01       		.byte	0x1
 6757 13c7 50       		.byte	0x50
 6758 13c8 09       		.byte	0x9
 6759 13c9 76       		.byte	0x76
 6760 13ca 00       		.sleb128 0
 6761 13cb 40       		.byte	0x40
 6762 13cc 26       		.byte	0x26
 6763 13cd 91       		.byte	0x91
 6764 13ce 9C7F     		.sleb128 -100
 6765 13d0 06       		.byte	0x6
 6766 13d1 22       		.byte	0x22
 6767 13d2 00       		.byte	0
 6768 13d3 15       		.uleb128 0x15
 6769 13d4 8C040000 		.4byte	.LVL175
 6770 13d8 9B070000 		.4byte	0x79b
 6771 13dc FA130000 		.4byte	0x13fa
 6772 13e0 16       		.uleb128 0x16
 6773 13e1 01       		.byte	0x1
 6774 13e2 52       		.byte	0x52
 6775 13e3 02       		.byte	0x2
 6776 13e4 74       		.byte	0x74
 6777 13e5 00       		.sleb128 0
 6778 13e6 16       		.uleb128 0x16
 6779 13e7 01       		.byte	0x1
 6780 13e8 51       		.byte	0x51
 6781 13e9 02       		.byte	0x2
 6782 13ea 75       		.byte	0x75
 6783 13eb 00       		.sleb128 0
 6784 13ec 16       		.uleb128 0x16
 6785 13ed 01       		.byte	0x1
 6786 13ee 50       		.byte	0x50
 6787 13ef 09       		.byte	0x9
 6788 13f0 76       		.byte	0x76
 6789 13f1 00       		.sleb128 0
 6790 13f2 40       		.byte	0x40
 6791 13f3 26       		.byte	0x26
 6792 13f4 91       		.byte	0x91
 6793 13f5 9C7F     		.sleb128 -100
 6794 13f7 06       		.byte	0x6
 6795 13f8 22       		.byte	0x22
 6796 13f9 00       		.byte	0
 6797 13fa 15       		.uleb128 0x15
 6798 13fb 4C050000 		.4byte	.LVL197
 6799 13ff 9B070000 		.4byte	0x79b
 6800 1403 17140000 		.4byte	0x1417
 6801 1407 16       		.uleb128 0x16
 6802 1408 01       		.byte	0x1
 6803 1409 52       		.byte	0x52
 6804 140a 05       		.byte	0x5
 6805 140b 91       		.byte	0x91
 6806 140c A07F     		.sleb128 -96
 6807 140e 94       		.byte	0x94
 6808 140f 02       		.byte	0x2
ARM GAS  /tmp/ccAUe7jC.s 			page 121


 6809 1410 16       		.uleb128 0x16
 6810 1411 01       		.byte	0x1
 6811 1412 51       		.byte	0x51
 6812 1413 02       		.byte	0x2
 6813 1414 75       		.byte	0x75
 6814 1415 00       		.sleb128 0
 6815 1416 00       		.byte	0
 6816 1417 15       		.uleb128 0x15
 6817 1418 64050000 		.4byte	.LVL199
 6818 141c 9B070000 		.4byte	0x79b
 6819 1420 41140000 		.4byte	0x1441
 6820 1424 16       		.uleb128 0x16
 6821 1425 01       		.byte	0x1
 6822 1426 52       		.byte	0x52
 6823 1427 05       		.byte	0x5
 6824 1428 91       		.byte	0x91
 6825 1429 A07F     		.sleb128 -96
 6826 142b 94       		.byte	0x94
 6827 142c 02       		.byte	0x2
 6828 142d 16       		.uleb128 0x16
 6829 142e 01       		.byte	0x1
 6830 142f 51       		.byte	0x51
 6831 1430 02       		.byte	0x2
 6832 1431 75       		.byte	0x75
 6833 1432 00       		.sleb128 0
 6834 1433 16       		.uleb128 0x16
 6835 1434 01       		.byte	0x1
 6836 1435 50       		.byte	0x50
 6837 1436 09       		.byte	0x9
 6838 1437 78       		.byte	0x78
 6839 1438 00       		.sleb128 0
 6840 1439 40       		.byte	0x40
 6841 143a 26       		.byte	0x26
 6842 143b 91       		.byte	0x91
 6843 143c 9C7F     		.sleb128 -100
 6844 143e 06       		.byte	0x6
 6845 143f 22       		.byte	0x22
 6846 1440 00       		.byte	0
 6847 1441 26       		.uleb128 0x26
 6848 1442 7A050000 		.4byte	.LVL203
 6849 1446 9B070000 		.4byte	0x79b
 6850 144a 16       		.uleb128 0x16
 6851 144b 01       		.byte	0x1
 6852 144c 52       		.byte	0x52
 6853 144d 05       		.byte	0x5
 6854 144e 91       		.byte	0x91
 6855 144f A07F     		.sleb128 -96
 6856 1451 94       		.byte	0x94
 6857 1452 02       		.byte	0x2
 6858 1453 16       		.uleb128 0x16
 6859 1454 01       		.byte	0x1
 6860 1455 51       		.byte	0x51
 6861 1456 02       		.byte	0x2
 6862 1457 75       		.byte	0x75
 6863 1458 00       		.sleb128 0
 6864 1459 16       		.uleb128 0x16
 6865 145a 01       		.byte	0x1
ARM GAS  /tmp/ccAUe7jC.s 			page 122


 6866 145b 50       		.byte	0x50
 6867 145c 09       		.byte	0x9
 6868 145d 76       		.byte	0x76
 6869 145e 00       		.sleb128 0
 6870 145f 40       		.byte	0x40
 6871 1460 26       		.byte	0x26
 6872 1461 91       		.byte	0x91
 6873 1462 9C7F     		.sleb128 -100
 6874 1464 06       		.byte	0x6
 6875 1465 22       		.byte	0x22
 6876 1466 00       		.byte	0
 6877 1467 00       		.byte	0
 6878 1468 1D       		.uleb128 0x1d
 6879 1469 01       		.byte	0x1
 6880 146a 3F030000 		.4byte	.LASF123
 6881 146e 01       		.byte	0x1
 6882 146f 6F02     		.2byte	0x26f
 6883 1471 01       		.byte	0x1
 6884 1472 00000000 		.4byte	.LFB133
 6885 1476 7C000000 		.4byte	.LFE133
 6886 147a 48100000 		.4byte	.LLST76
 6887 147e 01       		.byte	0x1
 6888 147f 2C150000 		.4byte	0x152c
 6889 1483 1E       		.uleb128 0x1e
 6890 1484 7800     		.ascii	"x\000"
 6891 1486 01       		.byte	0x1
 6892 1487 6F02     		.2byte	0x26f
 6893 1489 12050000 		.4byte	0x512
 6894 148d 74100000 		.4byte	.LLST77
 6895 1491 1E       		.uleb128 0x1e
 6896 1492 7900     		.ascii	"y\000"
 6897 1494 01       		.byte	0x1
 6898 1495 6F02     		.2byte	0x26f
 6899 1497 12050000 		.4byte	0x512
 6900 149b A8100000 		.4byte	.LLST78
 6901 149f 1E       		.uleb128 0x1e
 6902 14a0 73747200 		.ascii	"str\000"
 6903 14a4 01       		.byte	0x1
 6904 14a5 6F02     		.2byte	0x26f
 6905 14a7 CF040000 		.4byte	0x4cf
 6906 14ab C9100000 		.4byte	.LLST79
 6907 14af 1F       		.uleb128 0x1f
 6908 14b0 B0060000 		.4byte	.LASF78
 6909 14b4 01       		.byte	0x1
 6910 14b5 6F02     		.2byte	0x26f
 6911 14b7 B3050000 		.4byte	0x5b3
 6912 14bb DC100000 		.4byte	.LLST80
 6913 14bf 20       		.uleb128 0x20
 6914 14c0 02060000 		.4byte	.LASF99
 6915 14c4 01       		.byte	0x1
 6916 14c5 6F02     		.2byte	0x26f
 6917 14c7 9A060000 		.4byte	0x69a
 6918 14cb 02       		.byte	0x2
 6919 14cc 91       		.byte	0x91
 6920 14cd 00       		.sleb128 0
 6921 14ce 21       		.uleb128 0x21
 6922 14cf 7700     		.ascii	"w\000"
ARM GAS  /tmp/ccAUe7jC.s 			page 123


 6923 14d1 01       		.byte	0x1
 6924 14d2 7102     		.2byte	0x271
 6925 14d4 12050000 		.4byte	0x512
 6926 14d8 FA100000 		.4byte	.LLST81
 6927 14dc 21       		.uleb128 0x21
 6928 14dd 7000     		.ascii	"p\000"
 6929 14df 01       		.byte	0x1
 6930 14e0 7102     		.2byte	0x271
 6931 14e2 12050000 		.4byte	0x512
 6932 14e6 18110000 		.4byte	.LLST82
 6933 14ea 21       		.uleb128 0x21
 6934 14eb 6300     		.ascii	"c\000"
 6935 14ed 01       		.byte	0x1
 6936 14ee 7202     		.2byte	0x272
 6937 14f0 DA040000 		.4byte	0x4da
 6938 14f4 36110000 		.4byte	.LLST83
 6939 14f8 25       		.uleb128 0x25
 6940 14f9 E2050000 		.4byte	.LASF124
 6941 14fd 01       		.byte	0x1
 6942 14fe 7302     		.2byte	0x273
 6943 1500 29000000 		.4byte	0x29
 6944 1504 56110000 		.4byte	.LLST84
 6945 1508 26       		.uleb128 0x26
 6946 1509 62000000 		.4byte	.LVL213
 6947 150d 490C0000 		.4byte	0xc49
 6948 1511 16       		.uleb128 0x16
 6949 1512 01       		.byte	0x1
 6950 1513 53       		.byte	0x53
 6951 1514 02       		.byte	0x2
 6952 1515 74       		.byte	0x74
 6953 1516 00       		.sleb128 0
 6954 1517 16       		.uleb128 0x16
 6955 1518 01       		.byte	0x1
 6956 1519 51       		.byte	0x51
 6957 151a 02       		.byte	0x2
 6958 151b 78       		.byte	0x78
 6959 151c 00       		.sleb128 0
 6960 151d 16       		.uleb128 0x16
 6961 151e 01       		.byte	0x1
 6962 151f 50       		.byte	0x50
 6963 1520 02       		.byte	0x2
 6964 1521 7B       		.byte	0x7b
 6965 1522 00       		.sleb128 0
 6966 1523 16       		.uleb128 0x16
 6967 1524 02       		.byte	0x2
 6968 1525 7D       		.byte	0x7d
 6969 1526 00       		.sleb128 0
 6970 1527 02       		.byte	0x2
 6971 1528 79       		.byte	0x79
 6972 1529 00       		.sleb128 0
 6973 152a 00       		.byte	0
 6974 152b 00       		.byte	0
 6975 152c 1D       		.uleb128 0x1d
 6976 152d 01       		.byte	0x1
 6977 152e D3020000 		.4byte	.LASF125
 6978 1532 01       		.byte	0x1
 6979 1533 8F02     		.2byte	0x28f
ARM GAS  /tmp/ccAUe7jC.s 			page 124


 6980 1535 01       		.byte	0x1
 6981 1536 00000000 		.4byte	.LFB134
 6982 153a B4000000 		.4byte	.LFE134
 6983 153e 80110000 		.4byte	.LLST85
 6984 1542 01       		.byte	0x1
 6985 1543 47160000 		.4byte	0x1647
 6986 1547 1E       		.uleb128 0x1e
 6987 1548 7800     		.ascii	"x\000"
 6988 154a 01       		.byte	0x1
 6989 154b 8F02     		.2byte	0x28f
 6990 154d 12050000 		.4byte	0x512
 6991 1551 AD110000 		.4byte	.LLST86
 6992 1555 1E       		.uleb128 0x1e
 6993 1556 7900     		.ascii	"y\000"
 6994 1558 01       		.byte	0x1
 6995 1559 8F02     		.2byte	0x28f
 6996 155b 12050000 		.4byte	0x512
 6997 155f 05120000 		.4byte	.LLST87
 6998 1563 1E       		.uleb128 0x1e
 6999 1564 73747200 		.ascii	"str\000"
 7000 1568 01       		.byte	0x1
 7001 1569 8F02     		.2byte	0x28f
 7002 156b CF040000 		.4byte	0x4cf
 7003 156f 26120000 		.4byte	.LLST88
 7004 1573 1F       		.uleb128 0x1f
 7005 1574 B0060000 		.4byte	.LASF78
 7006 1578 01       		.byte	0x1
 7007 1579 8F02     		.2byte	0x28f
 7008 157b B3050000 		.4byte	0x5b3
 7009 157f 46120000 		.4byte	.LLST89
 7010 1583 20       		.uleb128 0x20
 7011 1584 02060000 		.4byte	.LASF99
 7012 1588 01       		.byte	0x1
 7013 1589 8F02     		.2byte	0x28f
 7014 158b 9A060000 		.4byte	0x69a
 7015 158f 02       		.byte	0x2
 7016 1590 91       		.byte	0x91
 7017 1591 00       		.sleb128 0
 7018 1592 20       		.uleb128 0x20
 7019 1593 E3020000 		.4byte	.LASF113
 7020 1597 01       		.byte	0x1
 7021 1598 8F02     		.2byte	0x28f
 7022 159a 9A060000 		.4byte	0x69a
 7023 159e 02       		.byte	0x2
 7024 159f 91       		.byte	0x91
 7025 15a0 04       		.sleb128 4
 7026 15a1 21       		.uleb128 0x21
 7027 15a2 7700     		.ascii	"w\000"
 7028 15a4 01       		.byte	0x1
 7029 15a5 9102     		.2byte	0x291
 7030 15a7 12050000 		.4byte	0x512
 7031 15ab 64120000 		.4byte	.LLST90
 7032 15af 21       		.uleb128 0x21
 7033 15b0 6800     		.ascii	"h\000"
 7034 15b2 01       		.byte	0x1
 7035 15b3 9102     		.2byte	0x291
 7036 15b5 12050000 		.4byte	0x512
ARM GAS  /tmp/ccAUe7jC.s 			page 125


 7037 15b9 82120000 		.4byte	.LLST91
 7038 15bd 21       		.uleb128 0x21
 7039 15be 7000     		.ascii	"p\000"
 7040 15c0 01       		.byte	0x1
 7041 15c1 9102     		.2byte	0x291
 7042 15c3 12050000 		.4byte	0x512
 7043 15c7 95120000 		.4byte	.LLST92
 7044 15cb 21       		.uleb128 0x21
 7045 15cc 6300     		.ascii	"c\000"
 7046 15ce 01       		.byte	0x1
 7047 15cf 9202     		.2byte	0x292
 7048 15d1 DA040000 		.4byte	0x4da
 7049 15d5 BE120000 		.4byte	.LLST93
 7050 15d9 25       		.uleb128 0x25
 7051 15da E2050000 		.4byte	.LASF124
 7052 15de 01       		.byte	0x1
 7053 15df 9302     		.2byte	0x293
 7054 15e1 29000000 		.4byte	0x29
 7055 15e5 DE120000 		.4byte	.LLST94
 7056 15e9 15       		.uleb128 0x15
 7057 15ea 88000000 		.4byte	.LVL232
 7058 15ee FC0C0000 		.4byte	0xcfc
 7059 15f2 19160000 		.4byte	0x1619
 7060 15f6 16       		.uleb128 0x16
 7061 15f7 01       		.byte	0x1
 7062 15f8 53       		.byte	0x53
 7063 15f9 02       		.byte	0x2
 7064 15fa 75       		.byte	0x75
 7065 15fb 00       		.sleb128 0
 7066 15fc 16       		.uleb128 0x16
 7067 15fd 01       		.byte	0x1
 7068 15fe 51       		.byte	0x51
 7069 15ff 02       		.byte	0x2
 7070 1600 79       		.byte	0x79
 7071 1601 00       		.sleb128 0
 7072 1602 16       		.uleb128 0x16
 7073 1603 01       		.byte	0x1
 7074 1604 50       		.byte	0x50
 7075 1605 02       		.byte	0x2
 7076 1606 7B       		.byte	0x7b
 7077 1607 00       		.sleb128 0
 7078 1608 16       		.uleb128 0x16
 7079 1609 02       		.byte	0x2
 7080 160a 7D       		.byte	0x7d
 7081 160b 04       		.sleb128 4
 7082 160c 02       		.byte	0x2
 7083 160d 7A       		.byte	0x7a
 7084 160e 00       		.sleb128 0
 7085 160f 16       		.uleb128 0x16
 7086 1610 02       		.byte	0x2
 7087 1611 7D       		.byte	0x7d
 7088 1612 00       		.sleb128 0
 7089 1613 04       		.byte	0x4
 7090 1614 91       		.byte	0x91
 7091 1615 44       		.sleb128 -60
 7092 1616 94       		.byte	0x94
 7093 1617 02       		.byte	0x2
ARM GAS  /tmp/ccAUe7jC.s 			page 126


 7094 1618 00       		.byte	0
 7095 1619 26       		.uleb128 0x26
 7096 161a AA000000 		.4byte	.LVL237
 7097 161e CF080000 		.4byte	0x8cf
 7098 1622 16       		.uleb128 0x16
 7099 1623 01       		.byte	0x1
 7100 1624 53       		.byte	0x53
 7101 1625 04       		.byte	0x4
 7102 1626 91       		.byte	0x91
 7103 1627 54       		.sleb128 -44
 7104 1628 94       		.byte	0x94
 7105 1629 02       		.byte	0x2
 7106 162a 16       		.uleb128 0x16
 7107 162b 01       		.byte	0x1
 7108 162c 52       		.byte	0x52
 7109 162d 04       		.byte	0x4
 7110 162e 91       		.byte	0x91
 7111 162f 50       		.sleb128 -48
 7112 1630 94       		.byte	0x94
 7113 1631 02       		.byte	0x2
 7114 1632 16       		.uleb128 0x16
 7115 1633 01       		.byte	0x1
 7116 1634 51       		.byte	0x51
 7117 1635 02       		.byte	0x2
 7118 1636 79       		.byte	0x79
 7119 1637 00       		.sleb128 0
 7120 1638 16       		.uleb128 0x16
 7121 1639 01       		.byte	0x1
 7122 163a 50       		.byte	0x50
 7123 163b 02       		.byte	0x2
 7124 163c 7B       		.byte	0x7b
 7125 163d 00       		.sleb128 0
 7126 163e 16       		.uleb128 0x16
 7127 163f 02       		.byte	0x2
 7128 1640 7D       		.byte	0x7d
 7129 1641 00       		.sleb128 0
 7130 1642 02       		.byte	0x2
 7131 1643 7A       		.byte	0x7a
 7132 1644 00       		.sleb128 0
 7133 1645 00       		.byte	0
 7134 1646 00       		.byte	0
 7135 1647 27       		.uleb128 0x27
 7136 1648 01       		.byte	0x1
 7137 1649 98030000 		.4byte	.LASF127
 7138 164d 01       		.byte	0x1
 7139 164e AD03     		.2byte	0x3ad
 7140 1650 01       		.byte	0x1
 7141 1651 12050000 		.4byte	0x512
 7142 1655 00000000 		.4byte	.LFB137
 7143 1659 5C000000 		.4byte	.LFE137
 7144 165d 02       		.byte	0x2
 7145 165e 7D       		.byte	0x7d
 7146 165f 00       		.sleb128 0
 7147 1660 01       		.byte	0x1
 7148 1661 86160000 		.4byte	0x1686
 7149 1665 1F       		.uleb128 0x1f
 7150 1666 B0060000 		.4byte	.LASF78
ARM GAS  /tmp/ccAUe7jC.s 			page 127


 7151 166a 01       		.byte	0x1
 7152 166b AD03     		.2byte	0x3ad
 7153 166d B3050000 		.4byte	0x5b3
 7154 1671 0A130000 		.4byte	.LLST95
 7155 1675 1F       		.uleb128 0x1f
 7156 1676 1D060000 		.4byte	.LASF126
 7157 167a 01       		.byte	0x1
 7158 167b AD03     		.2byte	0x3ad
 7159 167d A8050000 		.4byte	0x5a8
 7160 1681 C1130000 		.4byte	.LLST96
 7161 1685 00       		.byte	0
 7162 1686 27       		.uleb128 0x27
 7163 1687 01       		.byte	0x1
 7164 1688 66050000 		.4byte	.LASF128
 7165 168c 01       		.byte	0x1
 7166 168d BC03     		.2byte	0x3bc
 7167 168f 01       		.byte	0x1
 7168 1690 12050000 		.4byte	0x512
 7169 1694 00000000 		.4byte	.LFB138
 7170 1698 22000000 		.4byte	.LFE138
 7171 169c 02       		.byte	0x2
 7172 169d 7D       		.byte	0x7d
 7173 169e 00       		.sleb128 0
 7174 169f 01       		.byte	0x1
 7175 16a0 C3160000 		.4byte	0x16c3
 7176 16a4 1E       		.uleb128 0x1e
 7177 16a5 6300     		.ascii	"c\000"
 7178 16a7 01       		.byte	0x1
 7179 16a8 BC03     		.2byte	0x3bc
 7180 16aa DA040000 		.4byte	0x4da
 7181 16ae 14140000 		.4byte	.LLST97
 7182 16b2 1F       		.uleb128 0x1f
 7183 16b3 B0060000 		.4byte	.LASF78
 7184 16b7 01       		.byte	0x1
 7185 16b8 BC03     		.2byte	0x3bc
 7186 16ba B3050000 		.4byte	0x5b3
 7187 16be 4E140000 		.4byte	.LLST98
 7188 16c2 00       		.byte	0
 7189 16c3 28       		.uleb128 0x28
 7190 16c4 01       		.byte	0x1
 7191 16c5 EF040000 		.4byte	.LASF129
 7192 16c9 01       		.byte	0x1
 7193 16ca C303     		.2byte	0x3c3
 7194 16cc 01       		.byte	0x1
 7195 16cd 12050000 		.4byte	0x512
 7196 16d1 00000000 		.4byte	.LFB139
 7197 16d5 52000000 		.4byte	.LFE139
 7198 16d9 7A140000 		.4byte	.LLST99
 7199 16dd 01       		.byte	0x1
 7200 16de 47170000 		.4byte	0x1747
 7201 16e2 1E       		.uleb128 0x1e
 7202 16e3 73747200 		.ascii	"str\000"
 7203 16e7 01       		.byte	0x1
 7204 16e8 C303     		.2byte	0x3c3
 7205 16ea CF040000 		.4byte	0x4cf
 7206 16ee 9A140000 		.4byte	.LLST100
 7207 16f2 20       		.uleb128 0x20
ARM GAS  /tmp/ccAUe7jC.s 			page 128


 7208 16f3 B0060000 		.4byte	.LASF78
 7209 16f7 01       		.byte	0x1
 7210 16f8 C303     		.2byte	0x3c3
 7211 16fa B3050000 		.4byte	0x5b3
 7212 16fe 01       		.byte	0x1
 7213 16ff 51       		.byte	0x51
 7214 1700 21       		.uleb128 0x21
 7215 1701 7700     		.ascii	"w\000"
 7216 1703 01       		.byte	0x1
 7217 1704 C503     		.2byte	0x3c5
 7218 1706 12050000 		.4byte	0x512
 7219 170a BA140000 		.4byte	.LLST101
 7220 170e 29       		.uleb128 0x29
 7221 170f 7000     		.ascii	"p\000"
 7222 1711 01       		.byte	0x1
 7223 1712 C503     		.2byte	0x3c5
 7224 1714 12050000 		.4byte	0x512
 7225 1718 01       		.byte	0x1
 7226 1719 56       		.byte	0x56
 7227 171a 21       		.uleb128 0x21
 7228 171b 7800     		.ascii	"x\000"
 7229 171d 01       		.byte	0x1
 7230 171e C503     		.2byte	0x3c5
 7231 1720 12050000 		.4byte	0x512
 7232 1724 D8140000 		.4byte	.LLST102
 7233 1728 21       		.uleb128 0x21
 7234 1729 6300     		.ascii	"c\000"
 7235 172b 01       		.byte	0x1
 7236 172c C603     		.2byte	0x3c6
 7237 172e DA040000 		.4byte	0x4da
 7238 1732 0D150000 		.4byte	.LLST103
 7239 1736 25       		.uleb128 0x25
 7240 1737 E2050000 		.4byte	.LASF124
 7241 173b 01       		.byte	0x1
 7242 173c C703     		.2byte	0x3c7
 7243 173e 29000000 		.4byte	0x29
 7244 1742 2D150000 		.4byte	.LLST104
 7245 1746 00       		.byte	0
 7246 1747 1D       		.uleb128 0x1d
 7247 1748 01       		.byte	0x1
 7248 1749 DA060000 		.4byte	.LASF130
 7249 174d 01       		.byte	0x1
 7250 174e 2903     		.2byte	0x329
 7251 1750 01       		.byte	0x1
 7252 1751 00000000 		.4byte	.LFB136
 7253 1755 FC030000 		.4byte	.LFE136
 7254 1759 4C150000 		.4byte	.LLST105
 7255 175d 01       		.byte	0x1
 7256 175e A4190000 		.4byte	0x19a4
 7257 1762 1E       		.uleb128 0x1e
 7258 1763 7800     		.ascii	"x\000"
 7259 1765 01       		.byte	0x1
 7260 1766 2903     		.2byte	0x329
 7261 1768 12050000 		.4byte	0x512
 7262 176c 79150000 		.4byte	.LLST106
 7263 1770 1E       		.uleb128 0x1e
 7264 1771 7900     		.ascii	"y\000"
ARM GAS  /tmp/ccAUe7jC.s 			page 129


 7265 1773 01       		.byte	0x1
 7266 1774 2903     		.2byte	0x329
 7267 1776 12050000 		.4byte	0x512
 7268 177a 9A150000 		.4byte	.LLST107
 7269 177e 1E       		.uleb128 0x1e
 7270 177f 637800   		.ascii	"cx\000"
 7271 1782 01       		.byte	0x1
 7272 1783 2903     		.2byte	0x329
 7273 1785 12050000 		.4byte	0x512
 7274 1789 D5150000 		.4byte	.LLST108
 7275 178d 1E       		.uleb128 0x1e
 7276 178e 637900   		.ascii	"cy\000"
 7277 1791 01       		.byte	0x1
 7278 1792 2903     		.2byte	0x329
 7279 1794 12050000 		.4byte	0x512
 7280 1798 F6150000 		.4byte	.LLST109
 7281 179c 1E       		.uleb128 0x1e
 7282 179d 73747200 		.ascii	"str\000"
 7283 17a1 01       		.byte	0x1
 7284 17a2 2903     		.2byte	0x329
 7285 17a4 CF040000 		.4byte	0x4cf
 7286 17a8 47160000 		.4byte	.LLST110
 7287 17ac 20       		.uleb128 0x20
 7288 17ad B0060000 		.4byte	.LASF78
 7289 17b1 01       		.byte	0x1
 7290 17b2 2903     		.2byte	0x329
 7291 17b4 B3050000 		.4byte	0x5b3
 7292 17b8 02       		.byte	0x2
 7293 17b9 91       		.byte	0x91
 7294 17ba 04       		.sleb128 4
 7295 17bb 20       		.uleb128 0x20
 7296 17bc 02060000 		.4byte	.LASF99
 7297 17c0 01       		.byte	0x1
 7298 17c1 2903     		.2byte	0x329
 7299 17c3 9A060000 		.4byte	0x69a
 7300 17c7 02       		.byte	0x2
 7301 17c8 91       		.byte	0x91
 7302 17c9 08       		.sleb128 8
 7303 17ca 20       		.uleb128 0x20
 7304 17cb E3020000 		.4byte	.LASF113
 7305 17cf 01       		.byte	0x1
 7306 17d0 2903     		.2byte	0x329
 7307 17d2 9A060000 		.4byte	0x69a
 7308 17d6 02       		.byte	0x2
 7309 17d7 91       		.byte	0x91
 7310 17d8 0C       		.sleb128 12
 7311 17d9 20       		.uleb128 0x20
 7312 17da 00000000 		.4byte	.LASF68
 7313 17de 01       		.byte	0x1
 7314 17df 2903     		.2byte	0x329
 7315 17e1 6C050000 		.4byte	0x56c
 7316 17e5 02       		.byte	0x2
 7317 17e6 91       		.byte	0x91
 7318 17e7 10       		.sleb128 16
 7319 17e8 21       		.uleb128 0x21
 7320 17e9 7700     		.ascii	"w\000"
 7321 17eb 01       		.byte	0x1
ARM GAS  /tmp/ccAUe7jC.s 			page 130


 7322 17ec 2B03     		.2byte	0x32b
 7323 17ee 12050000 		.4byte	0x512
 7324 17f2 1A170000 		.4byte	.LLST111
 7325 17f6 29       		.uleb128 0x29
 7326 17f7 6800     		.ascii	"h\000"
 7327 17f9 01       		.byte	0x1
 7328 17fa 2B03     		.2byte	0x32b
 7329 17fc 12050000 		.4byte	0x512
 7330 1800 02       		.byte	0x2
 7331 1801 91       		.byte	0x91
 7332 1802 54       		.sleb128 -44
 7333 1803 21       		.uleb128 0x21
 7334 1804 7000     		.ascii	"p\000"
 7335 1806 01       		.byte	0x1
 7336 1807 2B03     		.2byte	0x32b
 7337 1809 12050000 		.4byte	0x512
 7338 180d A5170000 		.4byte	.LLST112
 7339 1811 25       		.uleb128 0x25
 7340 1812 4C050000 		.4byte	.LASF131
 7341 1816 01       		.byte	0x1
 7342 1817 2B03     		.2byte	0x32b
 7343 1819 12050000 		.4byte	0x512
 7344 181d C3170000 		.4byte	.LLST113
 7345 1821 25       		.uleb128 0x25
 7346 1822 09010000 		.4byte	.LASF132
 7347 1826 01       		.byte	0x1
 7348 1827 2B03     		.2byte	0x32b
 7349 1829 12050000 		.4byte	0x512
 7350 182d 5E180000 		.4byte	.LLST114
 7351 1831 21       		.uleb128 0x21
 7352 1832 6300     		.ascii	"c\000"
 7353 1834 01       		.byte	0x1
 7354 1835 2C03     		.2byte	0x32c
 7355 1837 DA040000 		.4byte	0x4da
 7356 183b 6F190000 		.4byte	.LLST115
 7357 183f 25       		.uleb128 0x25
 7358 1840 E2050000 		.4byte	.LASF124
 7359 1844 01       		.byte	0x1
 7360 1845 2D03     		.2byte	0x32d
 7361 1847 29000000 		.4byte	0x29
 7362 184b D4190000 		.4byte	.LLST116
 7363 184f 2A       		.uleb128 0x2a
 7364 1850 F8060000 		.4byte	.LASF134
 7365 1854 01       		.byte	0x1
 7366 1855 2E03     		.2byte	0x32e
 7367 1857 CF040000 		.4byte	0x4cf
 7368 185b 15       		.uleb128 0x15
 7369 185c 6A000000 		.4byte	.LVL280
 7370 1860 CF080000 		.4byte	0x8cf
 7371 1864 8F180000 		.4byte	0x188f
 7372 1868 16       		.uleb128 0x16
 7373 1869 01       		.byte	0x1
 7374 186a 53       		.byte	0x53
 7375 186b 02       		.byte	0x2
 7376 186c 77       		.byte	0x77
 7377 186d 00       		.sleb128 0
 7378 186e 16       		.uleb128 0x16
ARM GAS  /tmp/ccAUe7jC.s 			page 131


 7379 186f 01       		.byte	0x1
 7380 1870 52       		.byte	0x52
 7381 1871 04       		.byte	0x4
 7382 1872 91       		.byte	0x91
 7383 1873 44       		.sleb128 -60
 7384 1874 94       		.byte	0x94
 7385 1875 02       		.byte	0x2
 7386 1876 16       		.uleb128 0x16
 7387 1877 01       		.byte	0x1
 7388 1878 51       		.byte	0x51
 7389 1879 05       		.byte	0x5
 7390 187a 91       		.byte	0x91
 7391 187b BC7F     		.sleb128 -68
 7392 187d 94       		.byte	0x94
 7393 187e 02       		.byte	0x2
 7394 187f 16       		.uleb128 0x16
 7395 1880 01       		.byte	0x1
 7396 1881 50       		.byte	0x50
 7397 1882 02       		.byte	0x2
 7398 1883 7A       		.byte	0x7a
 7399 1884 00       		.sleb128 0
 7400 1885 16       		.uleb128 0x16
 7401 1886 02       		.byte	0x2
 7402 1887 7D       		.byte	0x7d
 7403 1888 00       		.sleb128 0
 7404 1889 04       		.byte	0x4
 7405 188a 91       		.byte	0x91
 7406 188b 40       		.sleb128 -64
 7407 188c 94       		.byte	0x94
 7408 188d 02       		.byte	0x2
 7409 188e 00       		.byte	0
 7410 188f 15       		.uleb128 0x15
 7411 1890 A4000000 		.4byte	.LVL285
 7412 1894 CF080000 		.4byte	0x8cf
 7413 1898 C3180000 		.4byte	0x18c3
 7414 189c 16       		.uleb128 0x16
 7415 189d 01       		.byte	0x1
 7416 189e 53       		.byte	0x53
 7417 189f 02       		.byte	0x2
 7418 18a0 74       		.byte	0x74
 7419 18a1 00       		.sleb128 0
 7420 18a2 16       		.uleb128 0x16
 7421 18a3 01       		.byte	0x1
 7422 18a4 52       		.byte	0x52
 7423 18a5 04       		.byte	0x4
 7424 18a6 91       		.byte	0x91
 7425 18a7 44       		.sleb128 -60
 7426 18a8 94       		.byte	0x94
 7427 18a9 02       		.byte	0x2
 7428 18aa 16       		.uleb128 0x16
 7429 18ab 01       		.byte	0x1
 7430 18ac 51       		.byte	0x51
 7431 18ad 05       		.byte	0x5
 7432 18ae 77       		.byte	0x77
 7433 18af 00       		.sleb128 0
 7434 18b0 74       		.byte	0x74
 7435 18b1 00       		.sleb128 0
ARM GAS  /tmp/ccAUe7jC.s 			page 132


 7436 18b2 1C       		.byte	0x1c
 7437 18b3 16       		.uleb128 0x16
 7438 18b4 01       		.byte	0x1
 7439 18b5 50       		.byte	0x50
 7440 18b6 02       		.byte	0x2
 7441 18b7 7A       		.byte	0x7a
 7442 18b8 00       		.sleb128 0
 7443 18b9 16       		.uleb128 0x16
 7444 18ba 02       		.byte	0x2
 7445 18bb 7D       		.byte	0x7d
 7446 18bc 00       		.sleb128 0
 7447 18bd 04       		.byte	0x4
 7448 18be 91       		.byte	0x91
 7449 18bf 40       		.sleb128 -64
 7450 18c0 94       		.byte	0x94
 7451 18c1 02       		.byte	0x2
 7452 18c2 00       		.byte	0
 7453 18c3 15       		.uleb128 0x15
 7454 18c4 34010000 		.4byte	.LVL295
 7455 18c8 CF080000 		.4byte	0x8cf
 7456 18cc F3180000 		.4byte	0x18f3
 7457 18d0 16       		.uleb128 0x16
 7458 18d1 01       		.byte	0x1
 7459 18d2 53       		.byte	0x53
 7460 18d3 04       		.byte	0x4
 7461 18d4 91       		.byte	0x91
 7462 18d5 4C       		.sleb128 -52
 7463 18d6 94       		.byte	0x94
 7464 18d7 02       		.byte	0x2
 7465 18d8 16       		.uleb128 0x16
 7466 18d9 01       		.byte	0x1
 7467 18da 52       		.byte	0x52
 7468 18db 04       		.byte	0x4
 7469 18dc 91       		.byte	0x91
 7470 18dd 50       		.sleb128 -48
 7471 18de 94       		.byte	0x94
 7472 18df 02       		.byte	0x2
 7473 18e0 16       		.uleb128 0x16
 7474 18e1 01       		.byte	0x1
 7475 18e2 51       		.byte	0x51
 7476 18e3 05       		.byte	0x5
 7477 18e4 91       		.byte	0x91
 7478 18e5 BC7F     		.sleb128 -68
 7479 18e7 94       		.byte	0x94
 7480 18e8 02       		.byte	0x2
 7481 18e9 16       		.uleb128 0x16
 7482 18ea 02       		.byte	0x2
 7483 18eb 7D       		.byte	0x7d
 7484 18ec 00       		.sleb128 0
 7485 18ed 04       		.byte	0x4
 7486 18ee 91       		.byte	0x91
 7487 18ef 40       		.sleb128 -64
 7488 18f0 94       		.byte	0x94
 7489 18f1 02       		.byte	0x2
 7490 18f2 00       		.byte	0
 7491 18f3 15       		.uleb128 0x15
 7492 18f4 5A010000 		.4byte	.LVL299
ARM GAS  /tmp/ccAUe7jC.s 			page 133


 7493 18f8 FC0C0000 		.4byte	0xcfc
 7494 18fc 20190000 		.4byte	0x1920
 7495 1900 16       		.uleb128 0x16
 7496 1901 01       		.byte	0x1
 7497 1902 53       		.byte	0x53
 7498 1903 02       		.byte	0x2
 7499 1904 75       		.byte	0x75
 7500 1905 00       		.sleb128 0
 7501 1906 16       		.uleb128 0x16
 7502 1907 01       		.byte	0x1
 7503 1908 51       		.byte	0x51
 7504 1909 05       		.byte	0x5
 7505 190a 91       		.byte	0x91
 7506 190b BC7F     		.sleb128 -68
 7507 190d 94       		.byte	0x94
 7508 190e 02       		.byte	0x2
 7509 190f 16       		.uleb128 0x16
 7510 1910 02       		.byte	0x2
 7511 1911 7D       		.byte	0x7d
 7512 1912 04       		.sleb128 4
 7513 1913 04       		.byte	0x4
 7514 1914 91       		.byte	0x91
 7515 1915 40       		.sleb128 -64
 7516 1916 94       		.byte	0x94
 7517 1917 02       		.byte	0x2
 7518 1918 16       		.uleb128 0x16
 7519 1919 02       		.byte	0x2
 7520 191a 7D       		.byte	0x7d
 7521 191b 00       		.sleb128 0
 7522 191c 02       		.byte	0x2
 7523 191d 77       		.byte	0x77
 7524 191e 00       		.sleb128 0
 7525 191f 00       		.byte	0
 7526 1920 22       		.uleb128 0x22
 7527 1921 84010000 		.4byte	.LVL304
 7528 1925 01       		.byte	0x1
 7529 1926 CF080000 		.4byte	0x8cf
 7530 192a 56190000 		.4byte	0x1956
 7531 192e 16       		.uleb128 0x16
 7532 192f 01       		.byte	0x1
 7533 1930 53       		.byte	0x53
 7534 1931 04       		.byte	0x4
 7535 1932 91       		.byte	0x91
 7536 1933 4C       		.sleb128 -52
 7537 1934 94       		.byte	0x94
 7538 1935 02       		.byte	0x2
 7539 1936 16       		.uleb128 0x16
 7540 1937 01       		.byte	0x1
 7541 1938 52       		.byte	0x52
 7542 1939 05       		.byte	0x5
 7543 193a 7A       		.byte	0x7a
 7544 193b 00       		.sleb128 0
 7545 193c 76       		.byte	0x76
 7546 193d 00       		.sleb128 0
 7547 193e 1C       		.byte	0x1c
 7548 193f 16       		.uleb128 0x16
 7549 1940 01       		.byte	0x1
ARM GAS  /tmp/ccAUe7jC.s 			page 134


 7550 1941 51       		.byte	0x51
 7551 1942 05       		.byte	0x5
 7552 1943 91       		.byte	0x91
 7553 1944 BC7F     		.sleb128 -68
 7554 1946 94       		.byte	0x94
 7555 1947 02       		.byte	0x2
 7556 1948 16       		.uleb128 0x16
 7557 1949 01       		.byte	0x1
 7558 194a 50       		.byte	0x50
 7559 194b 02       		.byte	0x2
 7560 194c 77       		.byte	0x77
 7561 194d 00       		.sleb128 0
 7562 194e 16       		.uleb128 0x16
 7563 194f 02       		.byte	0x2
 7564 1950 91       		.byte	0x91
 7565 1951 00       		.sleb128 0
 7566 1952 02       		.byte	0x2
 7567 1953 74       		.byte	0x74
 7568 1954 00       		.sleb128 0
 7569 1955 00       		.byte	0
 7570 1956 15       		.uleb128 0x15
 7571 1957 92010000 		.4byte	.LVL306
 7572 195b C3160000 		.4byte	0x16c3
 7573 195f 70190000 		.4byte	0x1970
 7574 1963 16       		.uleb128 0x16
 7575 1964 01       		.byte	0x1
 7576 1965 51       		.byte	0x51
 7577 1966 02       		.byte	0x2
 7578 1967 75       		.byte	0x75
 7579 1968 00       		.sleb128 0
 7580 1969 16       		.uleb128 0x16
 7581 196a 01       		.byte	0x1
 7582 196b 50       		.byte	0x50
 7583 196c 02       		.byte	0x2
 7584 196d 78       		.byte	0x78
 7585 196e 00       		.sleb128 0
 7586 196f 00       		.byte	0
 7587 1970 26       		.uleb128 0x26
 7588 1971 20020000 		.4byte	.LVL324
 7589 1975 CF080000 		.4byte	0x8cf
 7590 1979 16       		.uleb128 0x16
 7591 197a 01       		.byte	0x1
 7592 197b 53       		.byte	0x53
 7593 197c 04       		.byte	0x4
 7594 197d 91       		.byte	0x91
 7595 197e 4C       		.sleb128 -52
 7596 197f 94       		.byte	0x94
 7597 1980 02       		.byte	0x2
 7598 1981 16       		.uleb128 0x16
 7599 1982 01       		.byte	0x1
 7600 1983 52       		.byte	0x52
 7601 1984 05       		.byte	0x5
 7602 1985 76       		.byte	0x76
 7603 1986 00       		.sleb128 0
 7604 1987 7A       		.byte	0x7a
 7605 1988 00       		.sleb128 0
 7606 1989 1C       		.byte	0x1c
ARM GAS  /tmp/ccAUe7jC.s 			page 135


 7607 198a 16       		.uleb128 0x16
 7608 198b 01       		.byte	0x1
 7609 198c 51       		.byte	0x51
 7610 198d 05       		.byte	0x5
 7611 198e 91       		.byte	0x91
 7612 198f BC7F     		.sleb128 -68
 7613 1991 94       		.byte	0x94
 7614 1992 02       		.byte	0x2
 7615 1993 16       		.uleb128 0x16
 7616 1994 01       		.byte	0x1
 7617 1995 50       		.byte	0x50
 7618 1996 02       		.byte	0x2
 7619 1997 7A       		.byte	0x7a
 7620 1998 00       		.sleb128 0
 7621 1999 16       		.uleb128 0x16
 7622 199a 02       		.byte	0x2
 7623 199b 7D       		.byte	0x7d
 7624 199c 00       		.sleb128 0
 7625 199d 04       		.byte	0x4
 7626 199e 91       		.byte	0x91
 7627 199f 40       		.sleb128 -64
 7628 19a0 94       		.byte	0x94
 7629 19a1 02       		.byte	0x2
 7630 19a2 00       		.byte	0
 7631 19a3 00       		.byte	0
 7632 19a4 1D       		.uleb128 0x1d
 7633 19a5 01       		.byte	0x1
 7634 19a6 50040000 		.4byte	.LASF133
 7635 19aa 01       		.byte	0x1
 7636 19ab B102     		.2byte	0x2b1
 7637 19ad 01       		.byte	0x1
 7638 19ae 00000000 		.4byte	.LFB135
 7639 19b2 AC030000 		.4byte	.LFE135
 7640 19b6 4E1A0000 		.4byte	.LLST117
 7641 19ba 01       		.byte	0x1
 7642 19bb EB1A0000 		.4byte	0x1aeb
 7643 19bf 1E       		.uleb128 0x1e
 7644 19c0 7800     		.ascii	"x\000"
 7645 19c2 01       		.byte	0x1
 7646 19c3 B102     		.2byte	0x2b1
 7647 19c5 12050000 		.4byte	0x512
 7648 19c9 7B1A0000 		.4byte	.LLST118
 7649 19cd 1E       		.uleb128 0x1e
 7650 19ce 7900     		.ascii	"y\000"
 7651 19d0 01       		.byte	0x1
 7652 19d1 B102     		.2byte	0x2b1
 7653 19d3 12050000 		.4byte	0x512
 7654 19d7 9C1A0000 		.4byte	.LLST119
 7655 19db 1E       		.uleb128 0x1e
 7656 19dc 637800   		.ascii	"cx\000"
 7657 19df 01       		.byte	0x1
 7658 19e0 B102     		.2byte	0x2b1
 7659 19e2 12050000 		.4byte	0x512
 7660 19e6 2F1B0000 		.4byte	.LLST120
 7661 19ea 1E       		.uleb128 0x1e
 7662 19eb 637900   		.ascii	"cy\000"
 7663 19ee 01       		.byte	0x1
ARM GAS  /tmp/ccAUe7jC.s 			page 136


 7664 19ef B102     		.2byte	0x2b1
 7665 19f1 12050000 		.4byte	0x512
 7666 19f5 501B0000 		.4byte	.LLST121
 7667 19f9 1E       		.uleb128 0x1e
 7668 19fa 73747200 		.ascii	"str\000"
 7669 19fe 01       		.byte	0x1
 7670 19ff B102     		.2byte	0x2b1
 7671 1a01 CF040000 		.4byte	0x4cf
 7672 1a05 711B0000 		.4byte	.LLST122
 7673 1a09 20       		.uleb128 0x20
 7674 1a0a B0060000 		.4byte	.LASF78
 7675 1a0e 01       		.byte	0x1
 7676 1a0f B102     		.2byte	0x2b1
 7677 1a11 B3050000 		.4byte	0x5b3
 7678 1a15 02       		.byte	0x2
 7679 1a16 91       		.byte	0x91
 7680 1a17 04       		.sleb128 4
 7681 1a18 20       		.uleb128 0x20
 7682 1a19 02060000 		.4byte	.LASF99
 7683 1a1d 01       		.byte	0x1
 7684 1a1e B102     		.2byte	0x2b1
 7685 1a20 9A060000 		.4byte	0x69a
 7686 1a24 02       		.byte	0x2
 7687 1a25 91       		.byte	0x91
 7688 1a26 08       		.sleb128 8
 7689 1a27 20       		.uleb128 0x20
 7690 1a28 00000000 		.4byte	.LASF68
 7691 1a2c 01       		.byte	0x1
 7692 1a2d B102     		.2byte	0x2b1
 7693 1a2f 6C050000 		.4byte	0x56c
 7694 1a33 02       		.byte	0x2
 7695 1a34 91       		.byte	0x91
 7696 1a35 0C       		.sleb128 12
 7697 1a36 21       		.uleb128 0x21
 7698 1a37 7700     		.ascii	"w\000"
 7699 1a39 01       		.byte	0x1
 7700 1a3a B302     		.2byte	0x2b3
 7701 1a3c 12050000 		.4byte	0x512
 7702 1a40 381C0000 		.4byte	.LLST123
 7703 1a44 21       		.uleb128 0x21
 7704 1a45 6800     		.ascii	"h\000"
 7705 1a47 01       		.byte	0x1
 7706 1a48 B302     		.2byte	0x2b3
 7707 1a4a 12050000 		.4byte	0x512
 7708 1a4e BE1C0000 		.4byte	.LLST124
 7709 1a52 21       		.uleb128 0x21
 7710 1a53 7000     		.ascii	"p\000"
 7711 1a55 01       		.byte	0x1
 7712 1a56 B302     		.2byte	0x2b3
 7713 1a58 12050000 		.4byte	0x512
 7714 1a5c 431D0000 		.4byte	.LLST125
 7715 1a60 25       		.uleb128 0x25
 7716 1a61 4C050000 		.4byte	.LASF131
 7717 1a65 01       		.byte	0x1
 7718 1a66 B302     		.2byte	0x2b3
 7719 1a68 12050000 		.4byte	0x512
 7720 1a6c 5B1E0000 		.4byte	.LLST126
ARM GAS  /tmp/ccAUe7jC.s 			page 137


 7721 1a70 25       		.uleb128 0x25
 7722 1a71 09010000 		.4byte	.LASF132
 7723 1a75 01       		.byte	0x1
 7724 1a76 B302     		.2byte	0x2b3
 7725 1a78 12050000 		.4byte	0x512
 7726 1a7c 951E0000 		.4byte	.LLST127
 7727 1a80 21       		.uleb128 0x21
 7728 1a81 6300     		.ascii	"c\000"
 7729 1a83 01       		.byte	0x1
 7730 1a84 B402     		.2byte	0x2b4
 7731 1a86 DA040000 		.4byte	0x4da
 7732 1a8a DA1F0000 		.4byte	.LLST128
 7733 1a8e 25       		.uleb128 0x25
 7734 1a8f E2050000 		.4byte	.LASF124
 7735 1a93 01       		.byte	0x1
 7736 1a94 B502     		.2byte	0x2b5
 7737 1a96 29000000 		.4byte	0x29
 7738 1a9a A0200000 		.4byte	.LLST129
 7739 1a9e 2A       		.uleb128 0x2a
 7740 1a9f F8060000 		.4byte	.LASF134
 7741 1aa3 01       		.byte	0x1
 7742 1aa4 B602     		.2byte	0x2b6
 7743 1aa6 CF040000 		.4byte	0x4cf
 7744 1aaa 15       		.uleb128 0x15
 7745 1aab C4000000 		.4byte	.LVL384
 7746 1aaf 490C0000 		.4byte	0xc49
 7747 1ab3 D41A0000 		.4byte	0x1ad4
 7748 1ab7 16       		.uleb128 0x16
 7749 1ab8 01       		.byte	0x1
 7750 1ab9 53       		.byte	0x53
 7751 1aba 02       		.byte	0x2
 7752 1abb 74       		.byte	0x74
 7753 1abc 00       		.sleb128 0
 7754 1abd 16       		.uleb128 0x16
 7755 1abe 01       		.byte	0x1
 7756 1abf 51       		.byte	0x51
 7757 1ac0 02       		.byte	0x2
 7758 1ac1 7B       		.byte	0x7b
 7759 1ac2 00       		.sleb128 0
 7760 1ac3 16       		.uleb128 0x16
 7761 1ac4 01       		.byte	0x1
 7762 1ac5 50       		.byte	0x50
 7763 1ac6 02       		.byte	0x2
 7764 1ac7 75       		.byte	0x75
 7765 1ac8 00       		.sleb128 0
 7766 1ac9 16       		.uleb128 0x16
 7767 1aca 02       		.byte	0x2
 7768 1acb 7D       		.byte	0x7d
 7769 1acc 00       		.sleb128 0
 7770 1acd 05       		.byte	0x5
 7771 1ace 91       		.byte	0x91
 7772 1acf BC7F     		.sleb128 -68
 7773 1ad1 94       		.byte	0x94
 7774 1ad2 02       		.byte	0x2
 7775 1ad3 00       		.byte	0
 7776 1ad4 26       		.uleb128 0x26
 7777 1ad5 E0000000 		.4byte	.LVL389
ARM GAS  /tmp/ccAUe7jC.s 			page 138


 7778 1ad9 C3160000 		.4byte	0x16c3
 7779 1add 16       		.uleb128 0x16
 7780 1ade 01       		.byte	0x1
 7781 1adf 51       		.byte	0x51
 7782 1ae0 02       		.byte	0x2
 7783 1ae1 74       		.byte	0x74
 7784 1ae2 00       		.sleb128 0
 7785 1ae3 16       		.uleb128 0x16
 7786 1ae4 01       		.byte	0x1
 7787 1ae5 50       		.byte	0x50
 7788 1ae6 02       		.byte	0x2
 7789 1ae7 76       		.byte	0x76
 7790 1ae8 00       		.sleb128 0
 7791 1ae9 00       		.byte	0
 7792 1aea 00       		.byte	0
 7793 1aeb 28       		.uleb128 0x28
 7794 1aec 01       		.byte	0x1
 7795 1aed 78050000 		.4byte	.LASF135
 7796 1af1 01       		.byte	0x1
 7797 1af2 E103     		.2byte	0x3e1
 7798 1af4 01       		.byte	0x1
 7799 1af5 9A060000 		.4byte	0x69a
 7800 1af9 00000000 		.4byte	.LFB140
 7801 1afd 5A000000 		.4byte	.LFE140
 7802 1b01 3D210000 		.4byte	.LLST130
 7803 1b05 01       		.byte	0x1
 7804 1b06 831B0000 		.4byte	0x1b83
 7805 1b0a 1E       		.uleb128 0x1e
 7806 1b0b 666700   		.ascii	"fg\000"
 7807 1b0e 01       		.byte	0x1
 7808 1b0f E103     		.2byte	0x3e1
 7809 1b11 9A060000 		.4byte	0x69a
 7810 1b15 5D210000 		.4byte	.LLST131
 7811 1b19 1E       		.uleb128 0x1e
 7812 1b1a 626700   		.ascii	"bg\000"
 7813 1b1d 01       		.byte	0x1
 7814 1b1e E103     		.2byte	0x3e1
 7815 1b20 9A060000 		.4byte	0x69a
 7816 1b24 7E210000 		.4byte	.LLST132
 7817 1b28 1F       		.uleb128 0x1f
 7818 1b29 0E010000 		.4byte	.LASF136
 7819 1b2d 01       		.byte	0x1
 7820 1b2e E103     		.2byte	0x3e1
 7821 1b30 3E000000 		.4byte	0x3e
 7822 1b34 9F210000 		.4byte	.LLST133
 7823 1b38 25       		.uleb128 0x25
 7824 1b39 6B020000 		.4byte	.LASF137
 7825 1b3d 01       		.byte	0x1
 7826 1b3e E303     		.2byte	0x3e3
 7827 1b40 62000000 		.4byte	0x62
 7828 1b44 C0210000 		.4byte	.LLST134
 7829 1b48 25       		.uleb128 0x25
 7830 1b49 CB010000 		.4byte	.LASF138
 7831 1b4d 01       		.byte	0x1
 7832 1b4e E403     		.2byte	0x3e4
 7833 1b50 62000000 		.4byte	0x62
 7834 1b54 D3210000 		.4byte	.LLST135
ARM GAS  /tmp/ccAUe7jC.s 			page 139


 7835 1b58 21       		.uleb128 0x21
 7836 1b59 7200     		.ascii	"r\000"
 7837 1b5b 01       		.byte	0x1
 7838 1b5c E503     		.2byte	0x3e5
 7839 1b5e 62000000 		.4byte	0x62
 7840 1b62 E6210000 		.4byte	.LLST136
 7841 1b66 21       		.uleb128 0x21
 7842 1b67 6700     		.ascii	"g\000"
 7843 1b69 01       		.byte	0x1
 7844 1b6a E503     		.2byte	0x3e5
 7845 1b6c 62000000 		.4byte	0x62
 7846 1b70 12220000 		.4byte	.LLST137
 7847 1b74 21       		.uleb128 0x21
 7848 1b75 6200     		.ascii	"b\000"
 7849 1b77 01       		.byte	0x1
 7850 1b78 E503     		.2byte	0x3e5
 7851 1b7a 62000000 		.4byte	0x62
 7852 1b7e 59220000 		.4byte	.LLST138
 7853 1b82 00       		.byte	0
 7854 1b83 2B       		.uleb128 0x2b
 7855 1b84 ED060000 		.4byte	.LASF139
 7856 1b88 01       		.byte	0x1
 7857 1b89 1F       		.byte	0x1f
 7858 1b8a FC040000 		.4byte	0x4fc
 7859 1b8e 05       		.byte	0x5
 7860 1b8f 03       		.byte	0x3
 7861 1b90 00000000 		.4byte	gdispMutex
 7862 1b94 2C       		.uleb128 0x2c
 7863 1b95 AE000000 		.4byte	.LASF157
 7864 1b99 0D       		.byte	0xd
 7865 1b9a 9806     		.2byte	0x698
 7866 1b9c F2040000 		.4byte	0x4f2
 7867 1ba0 01       		.byte	0x1
 7868 1ba1 01       		.byte	0x1
 7869 1ba2 2D       		.uleb128 0x2d
 7870 1ba3 01       		.byte	0x1
 7871 1ba4 80060000 		.4byte	.LASF140
 7872 1ba8 07       		.byte	0x7
 7873 1ba9 31       		.byte	0x31
 7874 1baa 01       		.byte	0x1
 7875 1bab 01       		.byte	0x1
 7876 1bac B61B0000 		.4byte	0x1bb6
 7877 1bb0 2E       		.uleb128 0x2e
 7878 1bb1 E1040000 		.4byte	0x4e1
 7879 1bb5 00       		.byte	0
 7880 1bb6 2D       		.uleb128 0x2d
 7881 1bb7 01       		.byte	0x1
 7882 1bb8 01040000 		.4byte	.LASF141
 7883 1bbc 07       		.byte	0x7
 7884 1bbd 32       		.byte	0x32
 7885 1bbe 01       		.byte	0x1
 7886 1bbf 01       		.byte	0x1
 7887 1bc0 CA1B0000 		.4byte	0x1bca
 7888 1bc4 2E       		.uleb128 0x2e
 7889 1bc5 E1040000 		.4byte	0x4e1
 7890 1bc9 00       		.byte	0
 7891 1bca 2F       		.uleb128 0x2f
ARM GAS  /tmp/ccAUe7jC.s 			page 140


 7892 1bcb 01       		.byte	0x1
 7893 1bcc 65010000 		.4byte	.LASF142
 7894 1bd0 0C       		.byte	0xc
 7895 1bd1 FC       		.byte	0xfc
 7896 1bd2 01       		.byte	0x1
 7897 1bd3 A6000000 		.4byte	0xa6
 7898 1bd7 01       		.byte	0x1
 7899 1bd8 2F       		.uleb128 0x2f
 7900 1bd9 01       		.byte	0x1
 7901 1bda F2000000 		.4byte	.LASF143
 7902 1bde 07       		.byte	0x7
 7903 1bdf 36       		.byte	0x36
 7904 1be0 01       		.byte	0x1
 7905 1be1 E1040000 		.4byte	0x4e1
 7906 1be5 01       		.byte	0x1
 7907 1be6 30       		.uleb128 0x30
 7908 1be7 01       		.byte	0x1
 7909 1be8 AE040000 		.4byte	.LASF144
 7910 1bec 0C       		.byte	0xc
 7911 1bed 0301     		.2byte	0x103
 7912 1bef 01       		.byte	0x1
 7913 1bf0 01       		.byte	0x1
 7914 1bf1 FB1B0000 		.4byte	0x1bfb
 7915 1bf5 2E       		.uleb128 0x2e
 7916 1bf6 9A060000 		.4byte	0x69a
 7917 1bfa 00       		.byte	0
 7918 1bfb 30       		.uleb128 0x30
 7919 1bfc 01       		.byte	0x1
 7920 1bfd 8B040000 		.4byte	.LASF145
 7921 1c01 0C       		.byte	0xc
 7922 1c02 0401     		.2byte	0x104
 7923 1c04 01       		.byte	0x1
 7924 1c05 01       		.byte	0x1
 7925 1c06 1A1C0000 		.4byte	0x1c1a
 7926 1c0a 2E       		.uleb128 0x2e
 7927 1c0b 12050000 		.4byte	0x512
 7928 1c0f 2E       		.uleb128 0x2e
 7929 1c10 12050000 		.4byte	0x512
 7930 1c14 2E       		.uleb128 0x2e
 7931 1c15 9A060000 		.4byte	0x69a
 7932 1c19 00       		.byte	0
 7933 1c1a 30       		.uleb128 0x30
 7934 1c1b 01       		.byte	0x1
 7935 1c1c 35060000 		.4byte	.LASF146
 7936 1c20 0C       		.byte	0xc
 7937 1c21 0701     		.2byte	0x107
 7938 1c23 01       		.byte	0x1
 7939 1c24 01       		.byte	0x1
 7940 1c25 431C0000 		.4byte	0x1c43
 7941 1c29 2E       		.uleb128 0x2e
 7942 1c2a 12050000 		.4byte	0x512
 7943 1c2e 2E       		.uleb128 0x2e
 7944 1c2f 12050000 		.4byte	0x512
 7945 1c33 2E       		.uleb128 0x2e
 7946 1c34 12050000 		.4byte	0x512
 7947 1c38 2E       		.uleb128 0x2e
 7948 1c39 12050000 		.4byte	0x512
ARM GAS  /tmp/ccAUe7jC.s 			page 141


 7949 1c3d 2E       		.uleb128 0x2e
 7950 1c3e 9A060000 		.4byte	0x69a
 7951 1c42 00       		.byte	0
 7952 1c43 30       		.uleb128 0x30
 7953 1c44 01       		.byte	0x1
 7954 1c45 14020000 		.4byte	.LASF147
 7955 1c49 0C       		.byte	0xc
 7956 1c4a 0501     		.2byte	0x105
 7957 1c4c 01       		.byte	0x1
 7958 1c4d 01       		.byte	0x1
 7959 1c4e 6C1C0000 		.4byte	0x1c6c
 7960 1c52 2E       		.uleb128 0x2e
 7961 1c53 12050000 		.4byte	0x512
 7962 1c57 2E       		.uleb128 0x2e
 7963 1c58 12050000 		.4byte	0x512
 7964 1c5c 2E       		.uleb128 0x2e
 7965 1c5d 12050000 		.4byte	0x512
 7966 1c61 2E       		.uleb128 0x2e
 7967 1c62 12050000 		.4byte	0x512
 7968 1c66 2E       		.uleb128 0x2e
 7969 1c67 9A060000 		.4byte	0x69a
 7970 1c6b 00       		.byte	0
 7971 1c6c 30       		.uleb128 0x30
 7972 1c6d 01       		.byte	0x1
 7973 1c6e 34040000 		.4byte	.LASF148
 7974 1c72 0C       		.byte	0xc
 7975 1c73 0601     		.2byte	0x106
 7976 1c75 01       		.byte	0x1
 7977 1c76 01       		.byte	0x1
 7978 1c77 A41C0000 		.4byte	0x1ca4
 7979 1c7b 2E       		.uleb128 0x2e
 7980 1c7c 12050000 		.4byte	0x512
 7981 1c80 2E       		.uleb128 0x2e
 7982 1c81 12050000 		.4byte	0x512
 7983 1c85 2E       		.uleb128 0x2e
 7984 1c86 12050000 		.4byte	0x512
 7985 1c8a 2E       		.uleb128 0x2e
 7986 1c8b 12050000 		.4byte	0x512
 7987 1c8f 2E       		.uleb128 0x2e
 7988 1c90 12050000 		.4byte	0x512
 7989 1c94 2E       		.uleb128 0x2e
 7990 1c95 12050000 		.4byte	0x512
 7991 1c99 2E       		.uleb128 0x2e
 7992 1c9a 12050000 		.4byte	0x512
 7993 1c9e 2E       		.uleb128 0x2e
 7994 1c9f 680A0000 		.4byte	0xa68
 7995 1ca3 00       		.byte	0
 7996 1ca4 30       		.uleb128 0x30
 7997 1ca5 01       		.byte	0x1
 7998 1ca6 60060000 		.4byte	.LASF149
 7999 1caa 0C       		.byte	0xc
 8000 1cab 3601     		.2byte	0x136
 8001 1cad 01       		.byte	0x1
 8002 1cae 01       		.byte	0x1
 8003 1caf C81C0000 		.4byte	0x1cc8
 8004 1cb3 2E       		.uleb128 0x2e
 8005 1cb4 12050000 		.4byte	0x512
ARM GAS  /tmp/ccAUe7jC.s 			page 142


 8006 1cb8 2E       		.uleb128 0x2e
 8007 1cb9 12050000 		.4byte	0x512
 8008 1cbd 2E       		.uleb128 0x2e
 8009 1cbe 12050000 		.4byte	0x512
 8010 1cc2 2E       		.uleb128 0x2e
 8011 1cc3 12050000 		.4byte	0x512
 8012 1cc7 00       		.byte	0
 8013 1cc8 30       		.uleb128 0x30
 8014 1cc9 01       		.byte	0x1
 8015 1cca 96020000 		.4byte	.LASF150
 8016 1cce 0C       		.byte	0xc
 8017 1ccf 0B01     		.2byte	0x10b
 8018 1cd1 01       		.byte	0x1
 8019 1cd2 01       		.byte	0x1
 8020 1cd3 EC1C0000 		.4byte	0x1cec
 8021 1cd7 2E       		.uleb128 0x2e
 8022 1cd8 12050000 		.4byte	0x512
 8023 1cdc 2E       		.uleb128 0x2e
 8024 1cdd 12050000 		.4byte	0x512
 8025 1ce1 2E       		.uleb128 0x2e
 8026 1ce2 12050000 		.4byte	0x512
 8027 1ce6 2E       		.uleb128 0x2e
 8028 1ce7 9A060000 		.4byte	0x69a
 8029 1ceb 00       		.byte	0
 8030 1cec 30       		.uleb128 0x30
 8031 1ced 01       		.byte	0x1
 8032 1cee 82010000 		.4byte	.LASF151
 8033 1cf2 0C       		.byte	0xc
 8034 1cf3 0C01     		.2byte	0x10c
 8035 1cf5 01       		.byte	0x1
 8036 1cf6 01       		.byte	0x1
 8037 1cf7 101D0000 		.4byte	0x1d10
 8038 1cfb 2E       		.uleb128 0x2e
 8039 1cfc 12050000 		.4byte	0x512
 8040 1d00 2E       		.uleb128 0x2e
 8041 1d01 12050000 		.4byte	0x512
 8042 1d05 2E       		.uleb128 0x2e
 8043 1d06 12050000 		.4byte	0x512
 8044 1d0a 2E       		.uleb128 0x2e
 8045 1d0b 9A060000 		.4byte	0x69a
 8046 1d0f 00       		.byte	0
 8047 1d10 30       		.uleb128 0x30
 8048 1d11 01       		.byte	0x1
 8049 1d12 E5010000 		.4byte	.LASF152
 8050 1d16 0C       		.byte	0xc
 8051 1d17 1C01     		.2byte	0x11c
 8052 1d19 01       		.byte	0x1
 8053 1d1a 01       		.byte	0x1
 8054 1d1b 391D0000 		.4byte	0x1d39
 8055 1d1f 2E       		.uleb128 0x2e
 8056 1d20 12050000 		.4byte	0x512
 8057 1d24 2E       		.uleb128 0x2e
 8058 1d25 12050000 		.4byte	0x512
 8059 1d29 2E       		.uleb128 0x2e
 8060 1d2a DA040000 		.4byte	0x4da
 8061 1d2e 2E       		.uleb128 0x2e
 8062 1d2f B3050000 		.4byte	0x5b3
ARM GAS  /tmp/ccAUe7jC.s 			page 143


 8063 1d33 2E       		.uleb128 0x2e
 8064 1d34 9A060000 		.4byte	0x69a
 8065 1d38 00       		.byte	0
 8066 1d39 31       		.uleb128 0x31
 8067 1d3a 01       		.byte	0x1
 8068 1d3b 41000000 		.4byte	.LASF158
 8069 1d3f 0C       		.byte	0xc
 8070 1d40 1D01     		.2byte	0x11d
 8071 1d42 01       		.byte	0x1
 8072 1d43 01       		.byte	0x1
 8073 1d44 2E       		.uleb128 0x2e
 8074 1d45 12050000 		.4byte	0x512
 8075 1d49 2E       		.uleb128 0x2e
 8076 1d4a 12050000 		.4byte	0x512
 8077 1d4e 2E       		.uleb128 0x2e
 8078 1d4f DA040000 		.4byte	0x4da
 8079 1d53 2E       		.uleb128 0x2e
 8080 1d54 B3050000 		.4byte	0x5b3
 8081 1d58 2E       		.uleb128 0x2e
 8082 1d59 9A060000 		.4byte	0x69a
 8083 1d5d 2E       		.uleb128 0x2e
 8084 1d5e 9A060000 		.4byte	0x69a
 8085 1d62 00       		.byte	0
 8086 1d63 00       		.byte	0
 8087              		.section	.debug_abbrev,"",%progbits
 8088              	.Ldebug_abbrev0:
 8089 0000 01       		.uleb128 0x1
 8090 0001 11       		.uleb128 0x11
 8091 0002 01       		.byte	0x1
 8092 0003 25       		.uleb128 0x25
 8093 0004 0E       		.uleb128 0xe
 8094 0005 13       		.uleb128 0x13
 8095 0006 0B       		.uleb128 0xb
 8096 0007 03       		.uleb128 0x3
 8097 0008 0E       		.uleb128 0xe
 8098 0009 1B       		.uleb128 0x1b
 8099 000a 0E       		.uleb128 0xe
 8100 000b 55       		.uleb128 0x55
 8101 000c 06       		.uleb128 0x6
 8102 000d 11       		.uleb128 0x11
 8103 000e 01       		.uleb128 0x1
 8104 000f 52       		.uleb128 0x52
 8105 0010 01       		.uleb128 0x1
 8106 0011 10       		.uleb128 0x10
 8107 0012 06       		.uleb128 0x6
 8108 0013 00       		.byte	0
 8109 0014 00       		.byte	0
 8110 0015 02       		.uleb128 0x2
 8111 0016 24       		.uleb128 0x24
 8112 0017 00       		.byte	0
 8113 0018 0B       		.uleb128 0xb
 8114 0019 0B       		.uleb128 0xb
 8115 001a 3E       		.uleb128 0x3e
 8116 001b 0B       		.uleb128 0xb
 8117 001c 03       		.uleb128 0x3
 8118 001d 08       		.uleb128 0x8
 8119 001e 00       		.byte	0
ARM GAS  /tmp/ccAUe7jC.s 			page 144


 8120 001f 00       		.byte	0
 8121 0020 03       		.uleb128 0x3
 8122 0021 24       		.uleb128 0x24
 8123 0022 00       		.byte	0
 8124 0023 0B       		.uleb128 0xb
 8125 0024 0B       		.uleb128 0xb
 8126 0025 3E       		.uleb128 0x3e
 8127 0026 0B       		.uleb128 0xb
 8128 0027 03       		.uleb128 0x3
 8129 0028 0E       		.uleb128 0xe
 8130 0029 00       		.byte	0
 8131 002a 00       		.byte	0
 8132 002b 04       		.uleb128 0x4
 8133 002c 16       		.uleb128 0x16
 8134 002d 00       		.byte	0
 8135 002e 03       		.uleb128 0x3
 8136 002f 0E       		.uleb128 0xe
 8137 0030 3A       		.uleb128 0x3a
 8138 0031 0B       		.uleb128 0xb
 8139 0032 3B       		.uleb128 0x3b
 8140 0033 0B       		.uleb128 0xb
 8141 0034 49       		.uleb128 0x49
 8142 0035 13       		.uleb128 0x13
 8143 0036 00       		.byte	0
 8144 0037 00       		.byte	0
 8145 0038 05       		.uleb128 0x5
 8146 0039 13       		.uleb128 0x13
 8147 003a 01       		.byte	0x1
 8148 003b 03       		.uleb128 0x3
 8149 003c 0E       		.uleb128 0xe
 8150 003d 0B       		.uleb128 0xb
 8151 003e 0B       		.uleb128 0xb
 8152 003f 3A       		.uleb128 0x3a
 8153 0040 0B       		.uleb128 0xb
 8154 0041 3B       		.uleb128 0x3b
 8155 0042 0B       		.uleb128 0xb
 8156 0043 01       		.uleb128 0x1
 8157 0044 13       		.uleb128 0x13
 8158 0045 00       		.byte	0
 8159 0046 00       		.byte	0
 8160 0047 06       		.uleb128 0x6
 8161 0048 0D       		.uleb128 0xd
 8162 0049 00       		.byte	0
 8163 004a 03       		.uleb128 0x3
 8164 004b 0E       		.uleb128 0xe
 8165 004c 3A       		.uleb128 0x3a
 8166 004d 0B       		.uleb128 0xb
 8167 004e 3B       		.uleb128 0x3b
 8168 004f 0B       		.uleb128 0xb
 8169 0050 49       		.uleb128 0x49
 8170 0051 13       		.uleb128 0x13
 8171 0052 38       		.uleb128 0x38
 8172 0053 0A       		.uleb128 0xa
 8173 0054 00       		.byte	0
 8174 0055 00       		.byte	0
 8175 0056 07       		.uleb128 0x7
 8176 0057 0D       		.uleb128 0xd
ARM GAS  /tmp/ccAUe7jC.s 			page 145


 8177 0058 00       		.byte	0
 8178 0059 03       		.uleb128 0x3
 8179 005a 08       		.uleb128 0x8
 8180 005b 3A       		.uleb128 0x3a
 8181 005c 0B       		.uleb128 0xb
 8182 005d 3B       		.uleb128 0x3b
 8183 005e 0B       		.uleb128 0xb
 8184 005f 49       		.uleb128 0x49
 8185 0060 13       		.uleb128 0x13
 8186 0061 38       		.uleb128 0x38
 8187 0062 0A       		.uleb128 0xa
 8188 0063 00       		.byte	0
 8189 0064 00       		.byte	0
 8190 0065 08       		.uleb128 0x8
 8191 0066 13       		.uleb128 0x13
 8192 0067 01       		.byte	0x1
 8193 0068 0B       		.uleb128 0xb
 8194 0069 0B       		.uleb128 0xb
 8195 006a 3A       		.uleb128 0x3a
 8196 006b 0B       		.uleb128 0xb
 8197 006c 3B       		.uleb128 0x3b
 8198 006d 0B       		.uleb128 0xb
 8199 006e 01       		.uleb128 0x1
 8200 006f 13       		.uleb128 0x13
 8201 0070 00       		.byte	0
 8202 0071 00       		.byte	0
 8203 0072 09       		.uleb128 0x9
 8204 0073 0F       		.uleb128 0xf
 8205 0074 00       		.byte	0
 8206 0075 0B       		.uleb128 0xb
 8207 0076 0B       		.uleb128 0xb
 8208 0077 49       		.uleb128 0x49
 8209 0078 13       		.uleb128 0x13
 8210 0079 00       		.byte	0
 8211 007a 00       		.byte	0
 8212 007b 0A       		.uleb128 0xa
 8213 007c 0F       		.uleb128 0xf
 8214 007d 00       		.byte	0
 8215 007e 0B       		.uleb128 0xb
 8216 007f 0B       		.uleb128 0xb
 8217 0080 00       		.byte	0
 8218 0081 00       		.byte	0
 8219 0082 0B       		.uleb128 0xb
 8220 0083 13       		.uleb128 0x13
 8221 0084 01       		.byte	0x1
 8222 0085 03       		.uleb128 0x3
 8223 0086 0E       		.uleb128 0xe
 8224 0087 0B       		.uleb128 0xb
 8225 0088 0B       		.uleb128 0xb
 8226 0089 3A       		.uleb128 0x3a
 8227 008a 0B       		.uleb128 0xb
 8228 008b 3B       		.uleb128 0x3b
 8229 008c 05       		.uleb128 0x5
 8230 008d 01       		.uleb128 0x1
 8231 008e 13       		.uleb128 0x13
 8232 008f 00       		.byte	0
 8233 0090 00       		.byte	0
ARM GAS  /tmp/ccAUe7jC.s 			page 146


 8234 0091 0C       		.uleb128 0xc
 8235 0092 0D       		.uleb128 0xd
 8236 0093 00       		.byte	0
 8237 0094 03       		.uleb128 0x3
 8238 0095 08       		.uleb128 0x8
 8239 0096 3A       		.uleb128 0x3a
 8240 0097 0B       		.uleb128 0xb
 8241 0098 3B       		.uleb128 0x3b
 8242 0099 05       		.uleb128 0x5
 8243 009a 49       		.uleb128 0x49
 8244 009b 13       		.uleb128 0x13
 8245 009c 38       		.uleb128 0x38
 8246 009d 0A       		.uleb128 0xa
 8247 009e 00       		.byte	0
 8248 009f 00       		.byte	0
 8249 00a0 0D       		.uleb128 0xd
 8250 00a1 35       		.uleb128 0x35
 8251 00a2 00       		.byte	0
 8252 00a3 49       		.uleb128 0x49
 8253 00a4 13       		.uleb128 0x13
 8254 00a5 00       		.byte	0
 8255 00a6 00       		.byte	0
 8256 00a7 0E       		.uleb128 0xe
 8257 00a8 17       		.uleb128 0x17
 8258 00a9 01       		.byte	0x1
 8259 00aa 0B       		.uleb128 0xb
 8260 00ab 0B       		.uleb128 0xb
 8261 00ac 3A       		.uleb128 0x3a
 8262 00ad 0B       		.uleb128 0xb
 8263 00ae 3B       		.uleb128 0x3b
 8264 00af 0B       		.uleb128 0xb
 8265 00b0 01       		.uleb128 0x1
 8266 00b1 13       		.uleb128 0x13
 8267 00b2 00       		.byte	0
 8268 00b3 00       		.byte	0
 8269 00b4 0F       		.uleb128 0xf
 8270 00b5 0D       		.uleb128 0xd
 8271 00b6 00       		.byte	0
 8272 00b7 03       		.uleb128 0x3
 8273 00b8 0E       		.uleb128 0xe
 8274 00b9 3A       		.uleb128 0x3a
 8275 00ba 0B       		.uleb128 0xb
 8276 00bb 3B       		.uleb128 0x3b
 8277 00bc 0B       		.uleb128 0xb
 8278 00bd 49       		.uleb128 0x49
 8279 00be 13       		.uleb128 0x13
 8280 00bf 00       		.byte	0
 8281 00c0 00       		.byte	0
 8282 00c1 10       		.uleb128 0x10
 8283 00c2 26       		.uleb128 0x26
 8284 00c3 00       		.byte	0
 8285 00c4 49       		.uleb128 0x49
 8286 00c5 13       		.uleb128 0x13
 8287 00c6 00       		.byte	0
 8288 00c7 00       		.byte	0
 8289 00c8 11       		.uleb128 0x11
 8290 00c9 04       		.uleb128 0x4
ARM GAS  /tmp/ccAUe7jC.s 			page 147


 8291 00ca 01       		.byte	0x1
 8292 00cb 03       		.uleb128 0x3
 8293 00cc 0E       		.uleb128 0xe
 8294 00cd 0B       		.uleb128 0xb
 8295 00ce 0B       		.uleb128 0xb
 8296 00cf 3A       		.uleb128 0x3a
 8297 00d0 0B       		.uleb128 0xb
 8298 00d1 3B       		.uleb128 0x3b
 8299 00d2 0B       		.uleb128 0xb
 8300 00d3 01       		.uleb128 0x1
 8301 00d4 13       		.uleb128 0x13
 8302 00d5 00       		.byte	0
 8303 00d6 00       		.byte	0
 8304 00d7 12       		.uleb128 0x12
 8305 00d8 28       		.uleb128 0x28
 8306 00d9 00       		.byte	0
 8307 00da 03       		.uleb128 0x3
 8308 00db 0E       		.uleb128 0xe
 8309 00dc 1C       		.uleb128 0x1c
 8310 00dd 0D       		.uleb128 0xd
 8311 00de 00       		.byte	0
 8312 00df 00       		.byte	0
 8313 00e0 13       		.uleb128 0x13
 8314 00e1 16       		.uleb128 0x16
 8315 00e2 00       		.byte	0
 8316 00e3 03       		.uleb128 0x3
 8317 00e4 0E       		.uleb128 0xe
 8318 00e5 3A       		.uleb128 0x3a
 8319 00e6 0B       		.uleb128 0xb
 8320 00e7 3B       		.uleb128 0x3b
 8321 00e8 05       		.uleb128 0x5
 8322 00e9 49       		.uleb128 0x49
 8323 00ea 13       		.uleb128 0x13
 8324 00eb 00       		.byte	0
 8325 00ec 00       		.byte	0
 8326 00ed 14       		.uleb128 0x14
 8327 00ee 2E       		.uleb128 0x2e
 8328 00ef 01       		.byte	0x1
 8329 00f0 3F       		.uleb128 0x3f
 8330 00f1 0C       		.uleb128 0xc
 8331 00f2 03       		.uleb128 0x3
 8332 00f3 0E       		.uleb128 0xe
 8333 00f4 3A       		.uleb128 0x3a
 8334 00f5 0B       		.uleb128 0xb
 8335 00f6 3B       		.uleb128 0x3b
 8336 00f7 0B       		.uleb128 0xb
 8337 00f8 27       		.uleb128 0x27
 8338 00f9 0C       		.uleb128 0xc
 8339 00fa 11       		.uleb128 0x11
 8340 00fb 01       		.uleb128 0x1
 8341 00fc 12       		.uleb128 0x12
 8342 00fd 01       		.uleb128 0x1
 8343 00fe 40       		.uleb128 0x40
 8344 00ff 06       		.uleb128 0x6
 8345 0100 9742     		.uleb128 0x2117
 8346 0102 0C       		.uleb128 0xc
 8347 0103 01       		.uleb128 0x1
ARM GAS  /tmp/ccAUe7jC.s 			page 148


 8348 0104 13       		.uleb128 0x13
 8349 0105 00       		.byte	0
 8350 0106 00       		.byte	0
 8351 0107 15       		.uleb128 0x15
 8352 0108 898201   		.uleb128 0x4109
 8353 010b 01       		.byte	0x1
 8354 010c 11       		.uleb128 0x11
 8355 010d 01       		.uleb128 0x1
 8356 010e 31       		.uleb128 0x31
 8357 010f 13       		.uleb128 0x13
 8358 0110 01       		.uleb128 0x1
 8359 0111 13       		.uleb128 0x13
 8360 0112 00       		.byte	0
 8361 0113 00       		.byte	0
 8362 0114 16       		.uleb128 0x16
 8363 0115 8A8201   		.uleb128 0x410a
 8364 0118 00       		.byte	0
 8365 0119 02       		.uleb128 0x2
 8366 011a 0A       		.uleb128 0xa
 8367 011b 9142     		.uleb128 0x2111
 8368 011d 0A       		.uleb128 0xa
 8369 011e 00       		.byte	0
 8370 011f 00       		.byte	0
 8371 0120 17       		.uleb128 0x17
 8372 0121 898201   		.uleb128 0x4109
 8373 0124 00       		.byte	0
 8374 0125 11       		.uleb128 0x11
 8375 0126 01       		.uleb128 0x1
 8376 0127 31       		.uleb128 0x31
 8377 0128 13       		.uleb128 0x13
 8378 0129 00       		.byte	0
 8379 012a 00       		.byte	0
 8380 012b 18       		.uleb128 0x18
 8381 012c 898201   		.uleb128 0x4109
 8382 012f 00       		.byte	0
 8383 0130 11       		.uleb128 0x11
 8384 0131 01       		.uleb128 0x1
 8385 0132 9542     		.uleb128 0x2115
 8386 0134 0C       		.uleb128 0xc
 8387 0135 31       		.uleb128 0x31
 8388 0136 13       		.uleb128 0x13
 8389 0137 00       		.byte	0
 8390 0138 00       		.byte	0
 8391 0139 19       		.uleb128 0x19
 8392 013a 2E       		.uleb128 0x2e
 8393 013b 00       		.byte	0
 8394 013c 3F       		.uleb128 0x3f
 8395 013d 0C       		.uleb128 0xc
 8396 013e 03       		.uleb128 0x3
 8397 013f 0E       		.uleb128 0xe
 8398 0140 3A       		.uleb128 0x3a
 8399 0141 0B       		.uleb128 0xb
 8400 0142 3B       		.uleb128 0x3b
 8401 0143 0B       		.uleb128 0xb
 8402 0144 27       		.uleb128 0x27
 8403 0145 0C       		.uleb128 0xc
 8404 0146 49       		.uleb128 0x49
ARM GAS  /tmp/ccAUe7jC.s 			page 149


 8405 0147 13       		.uleb128 0x13
 8406 0148 11       		.uleb128 0x11
 8407 0149 01       		.uleb128 0x1
 8408 014a 12       		.uleb128 0x12
 8409 014b 01       		.uleb128 0x1
 8410 014c 40       		.uleb128 0x40
 8411 014d 0A       		.uleb128 0xa
 8412 014e 9742     		.uleb128 0x2117
 8413 0150 0C       		.uleb128 0xc
 8414 0151 00       		.byte	0
 8415 0152 00       		.byte	0
 8416 0153 1A       		.uleb128 0x1a
 8417 0154 05       		.uleb128 0x5
 8418 0155 00       		.byte	0
 8419 0156 03       		.uleb128 0x3
 8420 0157 0E       		.uleb128 0xe
 8421 0158 3A       		.uleb128 0x3a
 8422 0159 0B       		.uleb128 0xb
 8423 015a 3B       		.uleb128 0x3b
 8424 015b 0B       		.uleb128 0xb
 8425 015c 49       		.uleb128 0x49
 8426 015d 13       		.uleb128 0x13
 8427 015e 02       		.uleb128 0x2
 8428 015f 06       		.uleb128 0x6
 8429 0160 00       		.byte	0
 8430 0161 00       		.byte	0
 8431 0162 1B       		.uleb128 0x1b
 8432 0163 05       		.uleb128 0x5
 8433 0164 00       		.byte	0
 8434 0165 03       		.uleb128 0x3
 8435 0166 08       		.uleb128 0x8
 8436 0167 3A       		.uleb128 0x3a
 8437 0168 0B       		.uleb128 0xb
 8438 0169 3B       		.uleb128 0x3b
 8439 016a 0B       		.uleb128 0xb
 8440 016b 49       		.uleb128 0x49
 8441 016c 13       		.uleb128 0x13
 8442 016d 02       		.uleb128 0x2
 8443 016e 06       		.uleb128 0x6
 8444 016f 00       		.byte	0
 8445 0170 00       		.byte	0
 8446 0171 1C       		.uleb128 0x1c
 8447 0172 05       		.uleb128 0x5
 8448 0173 00       		.byte	0
 8449 0174 03       		.uleb128 0x3
 8450 0175 0E       		.uleb128 0xe
 8451 0176 3A       		.uleb128 0x3a
 8452 0177 0B       		.uleb128 0xb
 8453 0178 3B       		.uleb128 0x3b
 8454 0179 0B       		.uleb128 0xb
 8455 017a 49       		.uleb128 0x49
 8456 017b 13       		.uleb128 0x13
 8457 017c 02       		.uleb128 0x2
 8458 017d 0A       		.uleb128 0xa
 8459 017e 00       		.byte	0
 8460 017f 00       		.byte	0
 8461 0180 1D       		.uleb128 0x1d
ARM GAS  /tmp/ccAUe7jC.s 			page 150


 8462 0181 2E       		.uleb128 0x2e
 8463 0182 01       		.byte	0x1
 8464 0183 3F       		.uleb128 0x3f
 8465 0184 0C       		.uleb128 0xc
 8466 0185 03       		.uleb128 0x3
 8467 0186 0E       		.uleb128 0xe
 8468 0187 3A       		.uleb128 0x3a
 8469 0188 0B       		.uleb128 0xb
 8470 0189 3B       		.uleb128 0x3b
 8471 018a 05       		.uleb128 0x5
 8472 018b 27       		.uleb128 0x27
 8473 018c 0C       		.uleb128 0xc
 8474 018d 11       		.uleb128 0x11
 8475 018e 01       		.uleb128 0x1
 8476 018f 12       		.uleb128 0x12
 8477 0190 01       		.uleb128 0x1
 8478 0191 40       		.uleb128 0x40
 8479 0192 06       		.uleb128 0x6
 8480 0193 9742     		.uleb128 0x2117
 8481 0195 0C       		.uleb128 0xc
 8482 0196 01       		.uleb128 0x1
 8483 0197 13       		.uleb128 0x13
 8484 0198 00       		.byte	0
 8485 0199 00       		.byte	0
 8486 019a 1E       		.uleb128 0x1e
 8487 019b 05       		.uleb128 0x5
 8488 019c 00       		.byte	0
 8489 019d 03       		.uleb128 0x3
 8490 019e 08       		.uleb128 0x8
 8491 019f 3A       		.uleb128 0x3a
 8492 01a0 0B       		.uleb128 0xb
 8493 01a1 3B       		.uleb128 0x3b
 8494 01a2 05       		.uleb128 0x5
 8495 01a3 49       		.uleb128 0x49
 8496 01a4 13       		.uleb128 0x13
 8497 01a5 02       		.uleb128 0x2
 8498 01a6 06       		.uleb128 0x6
 8499 01a7 00       		.byte	0
 8500 01a8 00       		.byte	0
 8501 01a9 1F       		.uleb128 0x1f
 8502 01aa 05       		.uleb128 0x5
 8503 01ab 00       		.byte	0
 8504 01ac 03       		.uleb128 0x3
 8505 01ad 0E       		.uleb128 0xe
 8506 01ae 3A       		.uleb128 0x3a
 8507 01af 0B       		.uleb128 0xb
 8508 01b0 3B       		.uleb128 0x3b
 8509 01b1 05       		.uleb128 0x5
 8510 01b2 49       		.uleb128 0x49
 8511 01b3 13       		.uleb128 0x13
 8512 01b4 02       		.uleb128 0x2
 8513 01b5 06       		.uleb128 0x6
 8514 01b6 00       		.byte	0
 8515 01b7 00       		.byte	0
 8516 01b8 20       		.uleb128 0x20
 8517 01b9 05       		.uleb128 0x5
 8518 01ba 00       		.byte	0
ARM GAS  /tmp/ccAUe7jC.s 			page 151


 8519 01bb 03       		.uleb128 0x3
 8520 01bc 0E       		.uleb128 0xe
 8521 01bd 3A       		.uleb128 0x3a
 8522 01be 0B       		.uleb128 0xb
 8523 01bf 3B       		.uleb128 0x3b
 8524 01c0 05       		.uleb128 0x5
 8525 01c1 49       		.uleb128 0x49
 8526 01c2 13       		.uleb128 0x13
 8527 01c3 02       		.uleb128 0x2
 8528 01c4 0A       		.uleb128 0xa
 8529 01c5 00       		.byte	0
 8530 01c6 00       		.byte	0
 8531 01c7 21       		.uleb128 0x21
 8532 01c8 34       		.uleb128 0x34
 8533 01c9 00       		.byte	0
 8534 01ca 03       		.uleb128 0x3
 8535 01cb 08       		.uleb128 0x8
 8536 01cc 3A       		.uleb128 0x3a
 8537 01cd 0B       		.uleb128 0xb
 8538 01ce 3B       		.uleb128 0x3b
 8539 01cf 05       		.uleb128 0x5
 8540 01d0 49       		.uleb128 0x49
 8541 01d1 13       		.uleb128 0x13
 8542 01d2 02       		.uleb128 0x2
 8543 01d3 06       		.uleb128 0x6
 8544 01d4 00       		.byte	0
 8545 01d5 00       		.byte	0
 8546 01d6 22       		.uleb128 0x22
 8547 01d7 898201   		.uleb128 0x4109
 8548 01da 01       		.byte	0x1
 8549 01db 11       		.uleb128 0x11
 8550 01dc 01       		.uleb128 0x1
 8551 01dd 9542     		.uleb128 0x2115
 8552 01df 0C       		.uleb128 0xc
 8553 01e0 31       		.uleb128 0x31
 8554 01e1 13       		.uleb128 0x13
 8555 01e2 01       		.uleb128 0x1
 8556 01e3 13       		.uleb128 0x13
 8557 01e4 00       		.byte	0
 8558 01e5 00       		.byte	0
 8559 01e6 23       		.uleb128 0x23
 8560 01e7 898201   		.uleb128 0x4109
 8561 01ea 01       		.byte	0x1
 8562 01eb 11       		.uleb128 0x11
 8563 01ec 01       		.uleb128 0x1
 8564 01ed 9542     		.uleb128 0x2115
 8565 01ef 0C       		.uleb128 0xc
 8566 01f0 31       		.uleb128 0x31
 8567 01f1 13       		.uleb128 0x13
 8568 01f2 00       		.byte	0
 8569 01f3 00       		.byte	0
 8570 01f4 24       		.uleb128 0x24
 8571 01f5 34       		.uleb128 0x34
 8572 01f6 00       		.byte	0
 8573 01f7 03       		.uleb128 0x3
 8574 01f8 0E       		.uleb128 0xe
 8575 01f9 3A       		.uleb128 0x3a
ARM GAS  /tmp/ccAUe7jC.s 			page 152


 8576 01fa 0B       		.uleb128 0xb
 8577 01fb 3B       		.uleb128 0x3b
 8578 01fc 05       		.uleb128 0x5
 8579 01fd 49       		.uleb128 0x49
 8580 01fe 13       		.uleb128 0x13
 8581 01ff 02       		.uleb128 0x2
 8582 0200 0A       		.uleb128 0xa
 8583 0201 00       		.byte	0
 8584 0202 00       		.byte	0
 8585 0203 25       		.uleb128 0x25
 8586 0204 34       		.uleb128 0x34
 8587 0205 00       		.byte	0
 8588 0206 03       		.uleb128 0x3
 8589 0207 0E       		.uleb128 0xe
 8590 0208 3A       		.uleb128 0x3a
 8591 0209 0B       		.uleb128 0xb
 8592 020a 3B       		.uleb128 0x3b
 8593 020b 05       		.uleb128 0x5
 8594 020c 49       		.uleb128 0x49
 8595 020d 13       		.uleb128 0x13
 8596 020e 02       		.uleb128 0x2
 8597 020f 06       		.uleb128 0x6
 8598 0210 00       		.byte	0
 8599 0211 00       		.byte	0
 8600 0212 26       		.uleb128 0x26
 8601 0213 898201   		.uleb128 0x4109
 8602 0216 01       		.byte	0x1
 8603 0217 11       		.uleb128 0x11
 8604 0218 01       		.uleb128 0x1
 8605 0219 31       		.uleb128 0x31
 8606 021a 13       		.uleb128 0x13
 8607 021b 00       		.byte	0
 8608 021c 00       		.byte	0
 8609 021d 27       		.uleb128 0x27
 8610 021e 2E       		.uleb128 0x2e
 8611 021f 01       		.byte	0x1
 8612 0220 3F       		.uleb128 0x3f
 8613 0221 0C       		.uleb128 0xc
 8614 0222 03       		.uleb128 0x3
 8615 0223 0E       		.uleb128 0xe
 8616 0224 3A       		.uleb128 0x3a
 8617 0225 0B       		.uleb128 0xb
 8618 0226 3B       		.uleb128 0x3b
 8619 0227 05       		.uleb128 0x5
 8620 0228 27       		.uleb128 0x27
 8621 0229 0C       		.uleb128 0xc
 8622 022a 49       		.uleb128 0x49
 8623 022b 13       		.uleb128 0x13
 8624 022c 11       		.uleb128 0x11
 8625 022d 01       		.uleb128 0x1
 8626 022e 12       		.uleb128 0x12
 8627 022f 01       		.uleb128 0x1
 8628 0230 40       		.uleb128 0x40
 8629 0231 0A       		.uleb128 0xa
 8630 0232 9742     		.uleb128 0x2117
 8631 0234 0C       		.uleb128 0xc
 8632 0235 01       		.uleb128 0x1
ARM GAS  /tmp/ccAUe7jC.s 			page 153


 8633 0236 13       		.uleb128 0x13
 8634 0237 00       		.byte	0
 8635 0238 00       		.byte	0
 8636 0239 28       		.uleb128 0x28
 8637 023a 2E       		.uleb128 0x2e
 8638 023b 01       		.byte	0x1
 8639 023c 3F       		.uleb128 0x3f
 8640 023d 0C       		.uleb128 0xc
 8641 023e 03       		.uleb128 0x3
 8642 023f 0E       		.uleb128 0xe
 8643 0240 3A       		.uleb128 0x3a
 8644 0241 0B       		.uleb128 0xb
 8645 0242 3B       		.uleb128 0x3b
 8646 0243 05       		.uleb128 0x5
 8647 0244 27       		.uleb128 0x27
 8648 0245 0C       		.uleb128 0xc
 8649 0246 49       		.uleb128 0x49
 8650 0247 13       		.uleb128 0x13
 8651 0248 11       		.uleb128 0x11
 8652 0249 01       		.uleb128 0x1
 8653 024a 12       		.uleb128 0x12
 8654 024b 01       		.uleb128 0x1
 8655 024c 40       		.uleb128 0x40
 8656 024d 06       		.uleb128 0x6
 8657 024e 9742     		.uleb128 0x2117
 8658 0250 0C       		.uleb128 0xc
 8659 0251 01       		.uleb128 0x1
 8660 0252 13       		.uleb128 0x13
 8661 0253 00       		.byte	0
 8662 0254 00       		.byte	0
 8663 0255 29       		.uleb128 0x29
 8664 0256 34       		.uleb128 0x34
 8665 0257 00       		.byte	0
 8666 0258 03       		.uleb128 0x3
 8667 0259 08       		.uleb128 0x8
 8668 025a 3A       		.uleb128 0x3a
 8669 025b 0B       		.uleb128 0xb
 8670 025c 3B       		.uleb128 0x3b
 8671 025d 05       		.uleb128 0x5
 8672 025e 49       		.uleb128 0x49
 8673 025f 13       		.uleb128 0x13
 8674 0260 02       		.uleb128 0x2
 8675 0261 0A       		.uleb128 0xa
 8676 0262 00       		.byte	0
 8677 0263 00       		.byte	0
 8678 0264 2A       		.uleb128 0x2a
 8679 0265 34       		.uleb128 0x34
 8680 0266 00       		.byte	0
 8681 0267 03       		.uleb128 0x3
 8682 0268 0E       		.uleb128 0xe
 8683 0269 3A       		.uleb128 0x3a
 8684 026a 0B       		.uleb128 0xb
 8685 026b 3B       		.uleb128 0x3b
 8686 026c 05       		.uleb128 0x5
 8687 026d 49       		.uleb128 0x49
 8688 026e 13       		.uleb128 0x13
 8689 026f 00       		.byte	0
ARM GAS  /tmp/ccAUe7jC.s 			page 154


 8690 0270 00       		.byte	0
 8691 0271 2B       		.uleb128 0x2b
 8692 0272 34       		.uleb128 0x34
 8693 0273 00       		.byte	0
 8694 0274 03       		.uleb128 0x3
 8695 0275 0E       		.uleb128 0xe
 8696 0276 3A       		.uleb128 0x3a
 8697 0277 0B       		.uleb128 0xb
 8698 0278 3B       		.uleb128 0x3b
 8699 0279 0B       		.uleb128 0xb
 8700 027a 49       		.uleb128 0x49
 8701 027b 13       		.uleb128 0x13
 8702 027c 02       		.uleb128 0x2
 8703 027d 0A       		.uleb128 0xa
 8704 027e 00       		.byte	0
 8705 027f 00       		.byte	0
 8706 0280 2C       		.uleb128 0x2c
 8707 0281 34       		.uleb128 0x34
 8708 0282 00       		.byte	0
 8709 0283 03       		.uleb128 0x3
 8710 0284 0E       		.uleb128 0xe
 8711 0285 3A       		.uleb128 0x3a
 8712 0286 0B       		.uleb128 0xb
 8713 0287 3B       		.uleb128 0x3b
 8714 0288 05       		.uleb128 0x5
 8715 0289 49       		.uleb128 0x49
 8716 028a 13       		.uleb128 0x13
 8717 028b 3F       		.uleb128 0x3f
 8718 028c 0C       		.uleb128 0xc
 8719 028d 3C       		.uleb128 0x3c
 8720 028e 0C       		.uleb128 0xc
 8721 028f 00       		.byte	0
 8722 0290 00       		.byte	0
 8723 0291 2D       		.uleb128 0x2d
 8724 0292 2E       		.uleb128 0x2e
 8725 0293 01       		.byte	0x1
 8726 0294 3F       		.uleb128 0x3f
 8727 0295 0C       		.uleb128 0xc
 8728 0296 03       		.uleb128 0x3
 8729 0297 0E       		.uleb128 0xe
 8730 0298 3A       		.uleb128 0x3a
 8731 0299 0B       		.uleb128 0xb
 8732 029a 3B       		.uleb128 0x3b
 8733 029b 0B       		.uleb128 0xb
 8734 029c 27       		.uleb128 0x27
 8735 029d 0C       		.uleb128 0xc
 8736 029e 3C       		.uleb128 0x3c
 8737 029f 0C       		.uleb128 0xc
 8738 02a0 01       		.uleb128 0x1
 8739 02a1 13       		.uleb128 0x13
 8740 02a2 00       		.byte	0
 8741 02a3 00       		.byte	0
 8742 02a4 2E       		.uleb128 0x2e
 8743 02a5 05       		.uleb128 0x5
 8744 02a6 00       		.byte	0
 8745 02a7 49       		.uleb128 0x49
 8746 02a8 13       		.uleb128 0x13
ARM GAS  /tmp/ccAUe7jC.s 			page 155


 8747 02a9 00       		.byte	0
 8748 02aa 00       		.byte	0
 8749 02ab 2F       		.uleb128 0x2f
 8750 02ac 2E       		.uleb128 0x2e
 8751 02ad 00       		.byte	0
 8752 02ae 3F       		.uleb128 0x3f
 8753 02af 0C       		.uleb128 0xc
 8754 02b0 03       		.uleb128 0x3
 8755 02b1 0E       		.uleb128 0xe
 8756 02b2 3A       		.uleb128 0x3a
 8757 02b3 0B       		.uleb128 0xb
 8758 02b4 3B       		.uleb128 0x3b
 8759 02b5 0B       		.uleb128 0xb
 8760 02b6 27       		.uleb128 0x27
 8761 02b7 0C       		.uleb128 0xc
 8762 02b8 49       		.uleb128 0x49
 8763 02b9 13       		.uleb128 0x13
 8764 02ba 3C       		.uleb128 0x3c
 8765 02bb 0C       		.uleb128 0xc
 8766 02bc 00       		.byte	0
 8767 02bd 00       		.byte	0
 8768 02be 30       		.uleb128 0x30
 8769 02bf 2E       		.uleb128 0x2e
 8770 02c0 01       		.byte	0x1
 8771 02c1 3F       		.uleb128 0x3f
 8772 02c2 0C       		.uleb128 0xc
 8773 02c3 03       		.uleb128 0x3
 8774 02c4 0E       		.uleb128 0xe
 8775 02c5 3A       		.uleb128 0x3a
 8776 02c6 0B       		.uleb128 0xb
 8777 02c7 3B       		.uleb128 0x3b
 8778 02c8 05       		.uleb128 0x5
 8779 02c9 27       		.uleb128 0x27
 8780 02ca 0C       		.uleb128 0xc
 8781 02cb 3C       		.uleb128 0x3c
 8782 02cc 0C       		.uleb128 0xc
 8783 02cd 01       		.uleb128 0x1
 8784 02ce 13       		.uleb128 0x13
 8785 02cf 00       		.byte	0
 8786 02d0 00       		.byte	0
 8787 02d1 31       		.uleb128 0x31
 8788 02d2 2E       		.uleb128 0x2e
 8789 02d3 01       		.byte	0x1
 8790 02d4 3F       		.uleb128 0x3f
 8791 02d5 0C       		.uleb128 0xc
 8792 02d6 03       		.uleb128 0x3
 8793 02d7 0E       		.uleb128 0xe
 8794 02d8 3A       		.uleb128 0x3a
 8795 02d9 0B       		.uleb128 0xb
 8796 02da 3B       		.uleb128 0x3b
 8797 02db 05       		.uleb128 0x5
 8798 02dc 27       		.uleb128 0x27
 8799 02dd 0C       		.uleb128 0xc
 8800 02de 3C       		.uleb128 0x3c
 8801 02df 0C       		.uleb128 0xc
 8802 02e0 00       		.byte	0
 8803 02e1 00       		.byte	0
ARM GAS  /tmp/ccAUe7jC.s 			page 156


 8804 02e2 00       		.byte	0
 8805              		.section	.debug_loc,"",%progbits
 8806              	.Ldebug_loc0:
 8807              	.LLST0:
 8808 0000 00000000 		.4byte	.LFB118
 8809 0004 02000000 		.4byte	.LCFI0
 8810 0008 0200     		.2byte	0x2
 8811 000a 7D       		.byte	0x7d
 8812 000b 00       		.sleb128 0
 8813 000c 02000000 		.4byte	.LCFI0
 8814 0010 22000000 		.4byte	.LFE118
 8815 0014 0200     		.2byte	0x2
 8816 0016 7D       		.byte	0x7d
 8817 0017 08       		.sleb128 8
 8818 0018 00000000 		.4byte	0
 8819 001c 00000000 		.4byte	0
 8820              	.LLST1:
 8821 0020 00000000 		.4byte	.LFB120
 8822 0024 02000000 		.4byte	.LCFI1
 8823 0028 0200     		.2byte	0x2
 8824 002a 7D       		.byte	0x7d
 8825 002b 00       		.sleb128 0
 8826 002c 02000000 		.4byte	.LCFI1
 8827 0030 1E000000 		.4byte	.LFE120
 8828 0034 0200     		.2byte	0x2
 8829 0036 7D       		.byte	0x7d
 8830 0037 08       		.sleb128 8
 8831 0038 00000000 		.4byte	0
 8832 003c 00000000 		.4byte	0
 8833              	.LLST2:
 8834 0040 00000000 		.4byte	.LVL4
 8835 0044 08000000 		.4byte	.LVL5
 8836 0048 0100     		.2byte	0x1
 8837 004a 50       		.byte	0x50
 8838 004b 08000000 		.4byte	.LVL5
 8839 004f 1E000000 		.4byte	.LFE120
 8840 0053 0400     		.2byte	0x4
 8841 0055 F3       		.byte	0xf3
 8842 0056 01       		.uleb128 0x1
 8843 0057 50       		.byte	0x50
 8844 0058 9F       		.byte	0x9f
 8845 0059 00000000 		.4byte	0
 8846 005d 00000000 		.4byte	0
 8847              	.LLST3:
 8848 0061 00000000 		.4byte	.LFB121
 8849 0065 02000000 		.4byte	.LCFI2
 8850 0069 0200     		.2byte	0x2
 8851 006b 7D       		.byte	0x7d
 8852 006c 00       		.sleb128 0
 8853 006d 02000000 		.4byte	.LCFI2
 8854 0071 26000000 		.4byte	.LFE121
 8855 0075 0200     		.2byte	0x2
 8856 0077 7D       		.byte	0x7d
 8857 0078 10       		.sleb128 16
 8858 0079 00000000 		.4byte	0
 8859 007d 00000000 		.4byte	0
 8860              	.LLST4:
ARM GAS  /tmp/ccAUe7jC.s 			page 157


 8861 0081 00000000 		.4byte	.LVL9
 8862 0085 08000000 		.4byte	.LVL10
 8863 0089 0100     		.2byte	0x1
 8864 008b 50       		.byte	0x50
 8865 008c 08000000 		.4byte	.LVL10
 8866 0090 26000000 		.4byte	.LFE121
 8867 0094 0400     		.2byte	0x4
 8868 0096 F3       		.byte	0xf3
 8869 0097 01       		.uleb128 0x1
 8870 0098 50       		.byte	0x50
 8871 0099 9F       		.byte	0x9f
 8872 009a 00000000 		.4byte	0
 8873 009e 00000000 		.4byte	0
 8874              	.LLST5:
 8875 00a2 00000000 		.4byte	.LVL9
 8876 00a6 13000000 		.4byte	.LVL11-1
 8877 00aa 0100     		.2byte	0x1
 8878 00ac 51       		.byte	0x51
 8879 00ad 13000000 		.4byte	.LVL11-1
 8880 00b1 26000000 		.4byte	.LFE121
 8881 00b5 0400     		.2byte	0x4
 8882 00b7 F3       		.byte	0xf3
 8883 00b8 01       		.uleb128 0x1
 8884 00b9 51       		.byte	0x51
 8885 00ba 9F       		.byte	0x9f
 8886 00bb 00000000 		.4byte	0
 8887 00bf 00000000 		.4byte	0
 8888              	.LLST6:
 8889 00c3 00000000 		.4byte	.LVL9
 8890 00c7 13000000 		.4byte	.LVL11-1
 8891 00cb 0100     		.2byte	0x1
 8892 00cd 52       		.byte	0x52
 8893 00ce 13000000 		.4byte	.LVL11-1
 8894 00d2 26000000 		.4byte	.LFE121
 8895 00d6 0400     		.2byte	0x4
 8896 00d8 F3       		.byte	0xf3
 8897 00d9 01       		.uleb128 0x1
 8898 00da 52       		.byte	0x52
 8899 00db 9F       		.byte	0x9f
 8900 00dc 00000000 		.4byte	0
 8901 00e0 00000000 		.4byte	0
 8902              	.LLST7:
 8903 00e4 00000000 		.4byte	.LFB122
 8904 00e8 04000000 		.4byte	.LCFI3
 8905 00ec 0200     		.2byte	0x2
 8906 00ee 7D       		.byte	0x7d
 8907 00ef 00       		.sleb128 0
 8908 00f0 04000000 		.4byte	.LCFI3
 8909 00f4 06000000 		.4byte	.LCFI4
 8910 00f8 0200     		.2byte	0x2
 8911 00fa 7D       		.byte	0x7d
 8912 00fb 18       		.sleb128 24
 8913 00fc 06000000 		.4byte	.LCFI4
 8914 0100 36000000 		.4byte	.LFE122
 8915 0104 0200     		.2byte	0x2
 8916 0106 7D       		.byte	0x7d
 8917 0107 20       		.sleb128 32
ARM GAS  /tmp/ccAUe7jC.s 			page 158


 8918 0108 00000000 		.4byte	0
 8919 010c 00000000 		.4byte	0
 8920              	.LLST8:
 8921 0110 00000000 		.4byte	.LVL14
 8922 0114 10000000 		.4byte	.LVL15
 8923 0118 0100     		.2byte	0x1
 8924 011a 50       		.byte	0x50
 8925 011b 10000000 		.4byte	.LVL15
 8926 011f 36000000 		.4byte	.LFE122
 8927 0123 0400     		.2byte	0x4
 8928 0125 F3       		.byte	0xf3
 8929 0126 01       		.uleb128 0x1
 8930 0127 50       		.byte	0x50
 8931 0128 9F       		.byte	0x9f
 8932 0129 00000000 		.4byte	0
 8933 012d 00000000 		.4byte	0
 8934              	.LLST9:
 8935 0131 00000000 		.4byte	.LVL14
 8936 0135 1D000000 		.4byte	.LVL16-1
 8937 0139 0100     		.2byte	0x1
 8938 013b 51       		.byte	0x51
 8939 013c 1D000000 		.4byte	.LVL16-1
 8940 0140 36000000 		.4byte	.LFE122
 8941 0144 0400     		.2byte	0x4
 8942 0146 F3       		.byte	0xf3
 8943 0147 01       		.uleb128 0x1
 8944 0148 51       		.byte	0x51
 8945 0149 9F       		.byte	0x9f
 8946 014a 00000000 		.4byte	0
 8947 014e 00000000 		.4byte	0
 8948              	.LLST10:
 8949 0152 00000000 		.4byte	.LVL14
 8950 0156 1D000000 		.4byte	.LVL16-1
 8951 015a 0100     		.2byte	0x1
 8952 015c 52       		.byte	0x52
 8953 015d 1D000000 		.4byte	.LVL16-1
 8954 0161 36000000 		.4byte	.LFE122
 8955 0165 0400     		.2byte	0x4
 8956 0167 F3       		.byte	0xf3
 8957 0168 01       		.uleb128 0x1
 8958 0169 52       		.byte	0x52
 8959 016a 9F       		.byte	0x9f
 8960 016b 00000000 		.4byte	0
 8961 016f 00000000 		.4byte	0
 8962              	.LLST11:
 8963 0173 00000000 		.4byte	.LVL14
 8964 0177 1D000000 		.4byte	.LVL16-1
 8965 017b 0100     		.2byte	0x1
 8966 017d 53       		.byte	0x53
 8967 017e 1D000000 		.4byte	.LVL16-1
 8968 0182 36000000 		.4byte	.LFE122
 8969 0186 0400     		.2byte	0x4
 8970 0188 F3       		.byte	0xf3
 8971 0189 01       		.uleb128 0x1
 8972 018a 53       		.byte	0x53
 8973 018b 9F       		.byte	0x9f
 8974 018c 00000000 		.4byte	0
ARM GAS  /tmp/ccAUe7jC.s 			page 159


 8975 0190 00000000 		.4byte	0
 8976              	.LLST12:
 8977 0194 00000000 		.4byte	.LFB123
 8978 0198 04000000 		.4byte	.LCFI5
 8979 019c 0200     		.2byte	0x2
 8980 019e 7D       		.byte	0x7d
 8981 019f 00       		.sleb128 0
 8982 01a0 04000000 		.4byte	.LCFI5
 8983 01a4 06000000 		.4byte	.LCFI6
 8984 01a8 0200     		.2byte	0x2
 8985 01aa 7D       		.byte	0x7d
 8986 01ab 18       		.sleb128 24
 8987 01ac 06000000 		.4byte	.LCFI6
 8988 01b0 36000000 		.4byte	.LFE123
 8989 01b4 0200     		.2byte	0x2
 8990 01b6 7D       		.byte	0x7d
 8991 01b7 20       		.sleb128 32
 8992 01b8 00000000 		.4byte	0
 8993 01bc 00000000 		.4byte	0
 8994              	.LLST13:
 8995 01c0 00000000 		.4byte	.LVL19
 8996 01c4 10000000 		.4byte	.LVL20
 8997 01c8 0100     		.2byte	0x1
 8998 01ca 50       		.byte	0x50
 8999 01cb 10000000 		.4byte	.LVL20
 9000 01cf 36000000 		.4byte	.LFE123
 9001 01d3 0400     		.2byte	0x4
 9002 01d5 F3       		.byte	0xf3
 9003 01d6 01       		.uleb128 0x1
 9004 01d7 50       		.byte	0x50
 9005 01d8 9F       		.byte	0x9f
 9006 01d9 00000000 		.4byte	0
 9007 01dd 00000000 		.4byte	0
 9008              	.LLST14:
 9009 01e1 00000000 		.4byte	.LVL19
 9010 01e5 1D000000 		.4byte	.LVL21-1
 9011 01e9 0100     		.2byte	0x1
 9012 01eb 51       		.byte	0x51
 9013 01ec 1D000000 		.4byte	.LVL21-1
 9014 01f0 36000000 		.4byte	.LFE123
 9015 01f4 0400     		.2byte	0x4
 9016 01f6 F3       		.byte	0xf3
 9017 01f7 01       		.uleb128 0x1
 9018 01f8 51       		.byte	0x51
 9019 01f9 9F       		.byte	0x9f
 9020 01fa 00000000 		.4byte	0
 9021 01fe 00000000 		.4byte	0
 9022              	.LLST15:
 9023 0202 00000000 		.4byte	.LVL19
 9024 0206 1D000000 		.4byte	.LVL21-1
 9025 020a 0100     		.2byte	0x1
 9026 020c 52       		.byte	0x52
 9027 020d 1D000000 		.4byte	.LVL21-1
 9028 0211 36000000 		.4byte	.LFE123
 9029 0215 0400     		.2byte	0x4
 9030 0217 F3       		.byte	0xf3
 9031 0218 01       		.uleb128 0x1
ARM GAS  /tmp/ccAUe7jC.s 			page 160


 9032 0219 52       		.byte	0x52
 9033 021a 9F       		.byte	0x9f
 9034 021b 00000000 		.4byte	0
 9035 021f 00000000 		.4byte	0
 9036              	.LLST16:
 9037 0223 00000000 		.4byte	.LVL19
 9038 0227 1D000000 		.4byte	.LVL21-1
 9039 022b 0100     		.2byte	0x1
 9040 022d 53       		.byte	0x53
 9041 022e 1D000000 		.4byte	.LVL21-1
 9042 0232 36000000 		.4byte	.LFE123
 9043 0236 0400     		.2byte	0x4
 9044 0238 F3       		.byte	0xf3
 9045 0239 01       		.uleb128 0x1
 9046 023a 53       		.byte	0x53
 9047 023b 9F       		.byte	0x9f
 9048 023c 00000000 		.4byte	0
 9049 0240 00000000 		.4byte	0
 9050              	.LLST17:
 9051 0244 00000000 		.4byte	.LFB124
 9052 0248 04000000 		.4byte	.LCFI7
 9053 024c 0200     		.2byte	0x2
 9054 024e 7D       		.byte	0x7d
 9055 024f 00       		.sleb128 0
 9056 0250 04000000 		.4byte	.LCFI7
 9057 0254 06000000 		.4byte	.LCFI8
 9058 0258 0200     		.2byte	0x2
 9059 025a 7D       		.byte	0x7d
 9060 025b 24       		.sleb128 36
 9061 025c 06000000 		.4byte	.LCFI8
 9062 0260 46000000 		.4byte	.LFE124
 9063 0264 0200     		.2byte	0x2
 9064 0266 7D       		.byte	0x7d
 9065 0267 38       		.sleb128 56
 9066 0268 00000000 		.4byte	0
 9067 026c 00000000 		.4byte	0
 9068              	.LLST18:
 9069 0270 00000000 		.4byte	.LVL24
 9070 0274 1A000000 		.4byte	.LVL25
 9071 0278 0100     		.2byte	0x1
 9072 027a 50       		.byte	0x50
 9073 027b 1A000000 		.4byte	.LVL25
 9074 027f 46000000 		.4byte	.LFE124
 9075 0283 0400     		.2byte	0x4
 9076 0285 F3       		.byte	0xf3
 9077 0286 01       		.uleb128 0x1
 9078 0287 50       		.byte	0x50
 9079 0288 9F       		.byte	0x9f
 9080 0289 00000000 		.4byte	0
 9081 028d 00000000 		.4byte	0
 9082              	.LLST19:
 9083 0291 00000000 		.4byte	.LVL24
 9084 0295 27000000 		.4byte	.LVL26-1
 9085 0299 0100     		.2byte	0x1
 9086 029b 51       		.byte	0x51
 9087 029c 27000000 		.4byte	.LVL26-1
 9088 02a0 46000000 		.4byte	.LFE124
ARM GAS  /tmp/ccAUe7jC.s 			page 161


 9089 02a4 0400     		.2byte	0x4
 9090 02a6 F3       		.byte	0xf3
 9091 02a7 01       		.uleb128 0x1
 9092 02a8 51       		.byte	0x51
 9093 02a9 9F       		.byte	0x9f
 9094 02aa 00000000 		.4byte	0
 9095 02ae 00000000 		.4byte	0
 9096              	.LLST20:
 9097 02b2 00000000 		.4byte	.LVL24
 9098 02b6 27000000 		.4byte	.LVL26-1
 9099 02ba 0100     		.2byte	0x1
 9100 02bc 52       		.byte	0x52
 9101 02bd 27000000 		.4byte	.LVL26-1
 9102 02c1 46000000 		.4byte	.LFE124
 9103 02c5 0400     		.2byte	0x4
 9104 02c7 F3       		.byte	0xf3
 9105 02c8 01       		.uleb128 0x1
 9106 02c9 52       		.byte	0x52
 9107 02ca 9F       		.byte	0x9f
 9108 02cb 00000000 		.4byte	0
 9109 02cf 00000000 		.4byte	0
 9110              	.LLST21:
 9111 02d3 00000000 		.4byte	.LVL24
 9112 02d7 27000000 		.4byte	.LVL26-1
 9113 02db 0100     		.2byte	0x1
 9114 02dd 53       		.byte	0x53
 9115 02de 27000000 		.4byte	.LVL26-1
 9116 02e2 46000000 		.4byte	.LFE124
 9117 02e6 0400     		.2byte	0x4
 9118 02e8 F3       		.byte	0xf3
 9119 02e9 01       		.uleb128 0x1
 9120 02ea 53       		.byte	0x53
 9121 02eb 9F       		.byte	0x9f
 9122 02ec 00000000 		.4byte	0
 9123 02f0 00000000 		.4byte	0
 9124              	.LLST22:
 9125 02f4 00000000 		.4byte	.LFB125
 9126 02f8 02000000 		.4byte	.LCFI9
 9127 02fc 0200     		.2byte	0x2
 9128 02fe 7D       		.byte	0x7d
 9129 02ff 00       		.sleb128 0
 9130 0300 02000000 		.4byte	.LCFI9
 9131 0304 2A000000 		.4byte	.LFE125
 9132 0308 0200     		.2byte	0x2
 9133 030a 7D       		.byte	0x7d
 9134 030b 18       		.sleb128 24
 9135 030c 00000000 		.4byte	0
 9136 0310 00000000 		.4byte	0
 9137              	.LLST23:
 9138 0314 00000000 		.4byte	.LVL29
 9139 0318 08000000 		.4byte	.LVL30
 9140 031c 0100     		.2byte	0x1
 9141 031e 50       		.byte	0x50
 9142 031f 08000000 		.4byte	.LVL30
 9143 0323 2A000000 		.4byte	.LFE125
 9144 0327 0400     		.2byte	0x4
 9145 0329 F3       		.byte	0xf3
ARM GAS  /tmp/ccAUe7jC.s 			page 162


 9146 032a 01       		.uleb128 0x1
 9147 032b 50       		.byte	0x50
 9148 032c 9F       		.byte	0x9f
 9149 032d 00000000 		.4byte	0
 9150 0331 00000000 		.4byte	0
 9151              	.LLST24:
 9152 0335 00000000 		.4byte	.LVL29
 9153 0339 15000000 		.4byte	.LVL31-1
 9154 033d 0100     		.2byte	0x1
 9155 033f 51       		.byte	0x51
 9156 0340 15000000 		.4byte	.LVL31-1
 9157 0344 2A000000 		.4byte	.LFE125
 9158 0348 0400     		.2byte	0x4
 9159 034a F3       		.byte	0xf3
 9160 034b 01       		.uleb128 0x1
 9161 034c 51       		.byte	0x51
 9162 034d 9F       		.byte	0x9f
 9163 034e 00000000 		.4byte	0
 9164 0352 00000000 		.4byte	0
 9165              	.LLST25:
 9166 0356 00000000 		.4byte	.LVL29
 9167 035a 15000000 		.4byte	.LVL31-1
 9168 035e 0100     		.2byte	0x1
 9169 0360 52       		.byte	0x52
 9170 0361 15000000 		.4byte	.LVL31-1
 9171 0365 2A000000 		.4byte	.LFE125
 9172 0369 0400     		.2byte	0x4
 9173 036b F3       		.byte	0xf3
 9174 036c 01       		.uleb128 0x1
 9175 036d 52       		.byte	0x52
 9176 036e 9F       		.byte	0x9f
 9177 036f 00000000 		.4byte	0
 9178 0373 00000000 		.4byte	0
 9179              	.LLST26:
 9180 0377 00000000 		.4byte	.LVL29
 9181 037b 15000000 		.4byte	.LVL31-1
 9182 037f 0100     		.2byte	0x1
 9183 0381 53       		.byte	0x53
 9184 0382 15000000 		.4byte	.LVL31-1
 9185 0386 2A000000 		.4byte	.LFE125
 9186 038a 0400     		.2byte	0x4
 9187 038c F3       		.byte	0xf3
 9188 038d 01       		.uleb128 0x1
 9189 038e 53       		.byte	0x53
 9190 038f 9F       		.byte	0x9f
 9191 0390 00000000 		.4byte	0
 9192 0394 00000000 		.4byte	0
 9193              	.LLST27:
 9194 0398 00000000 		.4byte	.LFB126
 9195 039c 02000000 		.4byte	.LCFI10
 9196 03a0 0200     		.2byte	0x2
 9197 03a2 7D       		.byte	0x7d
 9198 03a3 00       		.sleb128 0
 9199 03a4 02000000 		.4byte	.LCFI10
 9200 03a8 2A000000 		.4byte	.LFE126
 9201 03ac 0200     		.2byte	0x2
 9202 03ae 7D       		.byte	0x7d
ARM GAS  /tmp/ccAUe7jC.s 			page 163


 9203 03af 18       		.sleb128 24
 9204 03b0 00000000 		.4byte	0
 9205 03b4 00000000 		.4byte	0
 9206              	.LLST28:
 9207 03b8 00000000 		.4byte	.LVL34
 9208 03bc 08000000 		.4byte	.LVL35
 9209 03c0 0100     		.2byte	0x1
 9210 03c2 50       		.byte	0x50
 9211 03c3 08000000 		.4byte	.LVL35
 9212 03c7 2A000000 		.4byte	.LFE126
 9213 03cb 0400     		.2byte	0x4
 9214 03cd F3       		.byte	0xf3
 9215 03ce 01       		.uleb128 0x1
 9216 03cf 50       		.byte	0x50
 9217 03d0 9F       		.byte	0x9f
 9218 03d1 00000000 		.4byte	0
 9219 03d5 00000000 		.4byte	0
 9220              	.LLST29:
 9221 03d9 00000000 		.4byte	.LVL34
 9222 03dd 15000000 		.4byte	.LVL36-1
 9223 03e1 0100     		.2byte	0x1
 9224 03e3 51       		.byte	0x51
 9225 03e4 15000000 		.4byte	.LVL36-1
 9226 03e8 2A000000 		.4byte	.LFE126
 9227 03ec 0400     		.2byte	0x4
 9228 03ee F3       		.byte	0xf3
 9229 03ef 01       		.uleb128 0x1
 9230 03f0 51       		.byte	0x51
 9231 03f1 9F       		.byte	0x9f
 9232 03f2 00000000 		.4byte	0
 9233 03f6 00000000 		.4byte	0
 9234              	.LLST30:
 9235 03fa 00000000 		.4byte	.LVL34
 9236 03fe 15000000 		.4byte	.LVL36-1
 9237 0402 0100     		.2byte	0x1
 9238 0404 52       		.byte	0x52
 9239 0405 15000000 		.4byte	.LVL36-1
 9240 0409 2A000000 		.4byte	.LFE126
 9241 040d 0400     		.2byte	0x4
 9242 040f F3       		.byte	0xf3
 9243 0410 01       		.uleb128 0x1
 9244 0411 52       		.byte	0x52
 9245 0412 9F       		.byte	0x9f
 9246 0413 00000000 		.4byte	0
 9247 0417 00000000 		.4byte	0
 9248              	.LLST31:
 9249 041b 00000000 		.4byte	.LVL34
 9250 041f 15000000 		.4byte	.LVL36-1
 9251 0423 0100     		.2byte	0x1
 9252 0425 53       		.byte	0x53
 9253 0426 15000000 		.4byte	.LVL36-1
 9254 042a 2A000000 		.4byte	.LFE126
 9255 042e 0400     		.2byte	0x4
 9256 0430 F3       		.byte	0xf3
 9257 0431 01       		.uleb128 0x1
 9258 0432 53       		.byte	0x53
 9259 0433 9F       		.byte	0x9f
ARM GAS  /tmp/ccAUe7jC.s 			page 164


 9260 0434 00000000 		.4byte	0
 9261 0438 00000000 		.4byte	0
 9262              	.LLST32:
 9263 043c 00000000 		.4byte	.LFB127
 9264 0440 02000000 		.4byte	.LCFI11
 9265 0444 0200     		.2byte	0x2
 9266 0446 7D       		.byte	0x7d
 9267 0447 00       		.sleb128 0
 9268 0448 02000000 		.4byte	.LCFI11
 9269 044c 2A000000 		.4byte	.LFE127
 9270 0450 0200     		.2byte	0x2
 9271 0452 7D       		.byte	0x7d
 9272 0453 18       		.sleb128 24
 9273 0454 00000000 		.4byte	0
 9274 0458 00000000 		.4byte	0
 9275              	.LLST33:
 9276 045c 00000000 		.4byte	.LVL39
 9277 0460 08000000 		.4byte	.LVL40
 9278 0464 0100     		.2byte	0x1
 9279 0466 50       		.byte	0x50
 9280 0467 08000000 		.4byte	.LVL40
 9281 046b 2A000000 		.4byte	.LFE127
 9282 046f 0400     		.2byte	0x4
 9283 0471 F3       		.byte	0xf3
 9284 0472 01       		.uleb128 0x1
 9285 0473 50       		.byte	0x50
 9286 0474 9F       		.byte	0x9f
 9287 0475 00000000 		.4byte	0
 9288 0479 00000000 		.4byte	0
 9289              	.LLST34:
 9290 047d 00000000 		.4byte	.LVL39
 9291 0481 15000000 		.4byte	.LVL41-1
 9292 0485 0100     		.2byte	0x1
 9293 0487 51       		.byte	0x51
 9294 0488 15000000 		.4byte	.LVL41-1
 9295 048c 2A000000 		.4byte	.LFE127
 9296 0490 0400     		.2byte	0x4
 9297 0492 F3       		.byte	0xf3
 9298 0493 01       		.uleb128 0x1
 9299 0494 51       		.byte	0x51
 9300 0495 9F       		.byte	0x9f
 9301 0496 00000000 		.4byte	0
 9302 049a 00000000 		.4byte	0
 9303              	.LLST35:
 9304 049e 00000000 		.4byte	.LVL39
 9305 04a2 15000000 		.4byte	.LVL41-1
 9306 04a6 0100     		.2byte	0x1
 9307 04a8 52       		.byte	0x52
 9308 04a9 15000000 		.4byte	.LVL41-1
 9309 04ad 2A000000 		.4byte	.LFE127
 9310 04b1 0400     		.2byte	0x4
 9311 04b3 F3       		.byte	0xf3
 9312 04b4 01       		.uleb128 0x1
 9313 04b5 52       		.byte	0x52
 9314 04b6 9F       		.byte	0x9f
 9315 04b7 00000000 		.4byte	0
 9316 04bb 00000000 		.4byte	0
ARM GAS  /tmp/ccAUe7jC.s 			page 165


 9317              	.LLST36:
 9318 04bf 00000000 		.4byte	.LVL39
 9319 04c3 15000000 		.4byte	.LVL41-1
 9320 04c7 0100     		.2byte	0x1
 9321 04c9 53       		.byte	0x53
 9322 04ca 15000000 		.4byte	.LVL41-1
 9323 04ce 2A000000 		.4byte	.LFE127
 9324 04d2 0400     		.2byte	0x4
 9325 04d4 F3       		.byte	0xf3
 9326 04d5 01       		.uleb128 0x1
 9327 04d6 53       		.byte	0x53
 9328 04d7 9F       		.byte	0x9f
 9329 04d8 00000000 		.4byte	0
 9330 04dc 00000000 		.4byte	0
 9331              	.LLST37:
 9332 04e0 00000000 		.4byte	.LFB128
 9333 04e4 04000000 		.4byte	.LCFI12
 9334 04e8 0200     		.2byte	0x2
 9335 04ea 7D       		.byte	0x7d
 9336 04eb 00       		.sleb128 0
 9337 04ec 04000000 		.4byte	.LCFI12
 9338 04f0 06000000 		.4byte	.LCFI13
 9339 04f4 0200     		.2byte	0x2
 9340 04f6 7D       		.byte	0x7d
 9341 04f7 18       		.sleb128 24
 9342 04f8 06000000 		.4byte	.LCFI13
 9343 04fc 36000000 		.4byte	.LFE128
 9344 0500 0200     		.2byte	0x2
 9345 0502 7D       		.byte	0x7d
 9346 0503 20       		.sleb128 32
 9347 0504 00000000 		.4byte	0
 9348 0508 00000000 		.4byte	0
 9349              	.LLST38:
 9350 050c 00000000 		.4byte	.LVL44
 9351 0510 10000000 		.4byte	.LVL45
 9352 0514 0100     		.2byte	0x1
 9353 0516 50       		.byte	0x50
 9354 0517 10000000 		.4byte	.LVL45
 9355 051b 36000000 		.4byte	.LFE128
 9356 051f 0400     		.2byte	0x4
 9357 0521 F3       		.byte	0xf3
 9358 0522 01       		.uleb128 0x1
 9359 0523 50       		.byte	0x50
 9360 0524 9F       		.byte	0x9f
 9361 0525 00000000 		.4byte	0
 9362 0529 00000000 		.4byte	0
 9363              	.LLST39:
 9364 052d 00000000 		.4byte	.LVL44
 9365 0531 1D000000 		.4byte	.LVL46-1
 9366 0535 0100     		.2byte	0x1
 9367 0537 51       		.byte	0x51
 9368 0538 1D000000 		.4byte	.LVL46-1
 9369 053c 36000000 		.4byte	.LFE128
 9370 0540 0400     		.2byte	0x4
 9371 0542 F3       		.byte	0xf3
 9372 0543 01       		.uleb128 0x1
 9373 0544 51       		.byte	0x51
ARM GAS  /tmp/ccAUe7jC.s 			page 166


 9374 0545 9F       		.byte	0x9f
 9375 0546 00000000 		.4byte	0
 9376 054a 00000000 		.4byte	0
 9377              	.LLST40:
 9378 054e 00000000 		.4byte	.LVL44
 9379 0552 1D000000 		.4byte	.LVL46-1
 9380 0556 0100     		.2byte	0x1
 9381 0558 52       		.byte	0x52
 9382 0559 1D000000 		.4byte	.LVL46-1
 9383 055d 36000000 		.4byte	.LFE128
 9384 0561 0400     		.2byte	0x4
 9385 0563 F3       		.byte	0xf3
 9386 0564 01       		.uleb128 0x1
 9387 0565 52       		.byte	0x52
 9388 0566 9F       		.byte	0x9f
 9389 0567 00000000 		.4byte	0
 9390 056b 00000000 		.4byte	0
 9391              	.LLST41:
 9392 056f 00000000 		.4byte	.LVL44
 9393 0573 1D000000 		.4byte	.LVL46-1
 9394 0577 0100     		.2byte	0x1
 9395 0579 53       		.byte	0x53
 9396 057a 1D000000 		.4byte	.LVL46-1
 9397 057e 36000000 		.4byte	.LFE128
 9398 0582 0100     		.2byte	0x1
 9399 0584 56       		.byte	0x56
 9400 0585 00000000 		.4byte	0
 9401 0589 00000000 		.4byte	0
 9402              	.LLST42:
 9403 058d 00000000 		.4byte	.LFB129
 9404 0591 04000000 		.4byte	.LCFI14
 9405 0595 0200     		.2byte	0x2
 9406 0597 7D       		.byte	0x7d
 9407 0598 00       		.sleb128 0
 9408 0599 04000000 		.4byte	.LCFI14
 9409 059d 06000000 		.4byte	.LCFI15
 9410 05a1 0200     		.2byte	0x2
 9411 05a3 7D       		.byte	0x7d
 9412 05a4 1C       		.sleb128 28
 9413 05a5 06000000 		.4byte	.LCFI15
 9414 05a9 3C000000 		.4byte	.LFE129
 9415 05ad 0200     		.2byte	0x2
 9416 05af 7D       		.byte	0x7d
 9417 05b0 28       		.sleb128 40
 9418 05b1 00000000 		.4byte	0
 9419 05b5 00000000 		.4byte	0
 9420              	.LLST43:
 9421 05b9 00000000 		.4byte	.LVL49
 9422 05bd 14000000 		.4byte	.LVL50
 9423 05c1 0100     		.2byte	0x1
 9424 05c3 50       		.byte	0x50
 9425 05c4 14000000 		.4byte	.LVL50
 9426 05c8 3C000000 		.4byte	.LFE129
 9427 05cc 0400     		.2byte	0x4
 9428 05ce F3       		.byte	0xf3
 9429 05cf 01       		.uleb128 0x1
 9430 05d0 50       		.byte	0x50
ARM GAS  /tmp/ccAUe7jC.s 			page 167


 9431 05d1 9F       		.byte	0x9f
 9432 05d2 00000000 		.4byte	0
 9433 05d6 00000000 		.4byte	0
 9434              	.LLST44:
 9435 05da 00000000 		.4byte	.LVL49
 9436 05de 21000000 		.4byte	.LVL51-1
 9437 05e2 0100     		.2byte	0x1
 9438 05e4 51       		.byte	0x51
 9439 05e5 21000000 		.4byte	.LVL51-1
 9440 05e9 3C000000 		.4byte	.LFE129
 9441 05ed 0400     		.2byte	0x4
 9442 05ef F3       		.byte	0xf3
 9443 05f0 01       		.uleb128 0x1
 9444 05f1 51       		.byte	0x51
 9445 05f2 9F       		.byte	0x9f
 9446 05f3 00000000 		.4byte	0
 9447 05f7 00000000 		.4byte	0
 9448              	.LLST45:
 9449 05fb 00000000 		.4byte	.LVL49
 9450 05ff 21000000 		.4byte	.LVL51-1
 9451 0603 0100     		.2byte	0x1
 9452 0605 52       		.byte	0x52
 9453 0606 21000000 		.4byte	.LVL51-1
 9454 060a 3C000000 		.4byte	.LFE129
 9455 060e 0400     		.2byte	0x4
 9456 0610 F3       		.byte	0xf3
 9457 0611 01       		.uleb128 0x1
 9458 0612 52       		.byte	0x52
 9459 0613 9F       		.byte	0x9f
 9460 0614 00000000 		.4byte	0
 9461 0618 00000000 		.4byte	0
 9462              	.LLST46:
 9463 061c 00000000 		.4byte	.LVL49
 9464 0620 21000000 		.4byte	.LVL51-1
 9465 0624 0100     		.2byte	0x1
 9466 0626 53       		.byte	0x53
 9467 0627 21000000 		.4byte	.LVL51-1
 9468 062b 3C000000 		.4byte	.LFE129
 9469 062f 0100     		.2byte	0x1
 9470 0631 57       		.byte	0x57
 9471 0632 00000000 		.4byte	0
 9472 0636 00000000 		.4byte	0
 9473              	.LLST47:
 9474 063a 00000000 		.4byte	.LFB130
 9475 063e 04000000 		.4byte	.LCFI16
 9476 0642 0200     		.2byte	0x2
 9477 0644 7D       		.byte	0x7d
 9478 0645 00       		.sleb128 0
 9479 0646 04000000 		.4byte	.LCFI16
 9480 064a 0E000000 		.4byte	.LCFI17
 9481 064e 0200     		.2byte	0x2
 9482 0650 7D       		.byte	0x7d
 9483 0651 24       		.sleb128 36
 9484 0652 0E000000 		.4byte	.LCFI17
 9485 0656 D8000000 		.4byte	.LFE130
 9486 065a 0200     		.2byte	0x2
 9487 065c 7D       		.byte	0x7d
ARM GAS  /tmp/ccAUe7jC.s 			page 168


 9488 065d 30       		.sleb128 48
 9489 065e 00000000 		.4byte	0
 9490 0662 00000000 		.4byte	0
 9491              	.LLST48:
 9492 0666 00000000 		.4byte	.LVL54
 9493 066a 43000000 		.4byte	.LVL61-1
 9494 066e 0100     		.2byte	0x1
 9495 0670 50       		.byte	0x50
 9496 0671 43000000 		.4byte	.LVL61-1
 9497 0675 64000000 		.4byte	.LVL63
 9498 0679 0400     		.2byte	0x4
 9499 067b F3       		.byte	0xf3
 9500 067c 01       		.uleb128 0x1
 9501 067d 50       		.byte	0x50
 9502 067e 9F       		.byte	0x9f
 9503 067f 64000000 		.4byte	.LVL63
 9504 0683 7D000000 		.4byte	.LVL66-1
 9505 0687 0100     		.2byte	0x1
 9506 0689 50       		.byte	0x50
 9507 068a 7D000000 		.4byte	.LVL66-1
 9508 068e B0000000 		.4byte	.LVL70
 9509 0692 0400     		.2byte	0x4
 9510 0694 F3       		.byte	0xf3
 9511 0695 01       		.uleb128 0x1
 9512 0696 50       		.byte	0x50
 9513 0697 9F       		.byte	0x9f
 9514 0698 B0000000 		.4byte	.LVL70
 9515 069c BF000000 		.4byte	.LVL73-1
 9516 06a0 0100     		.2byte	0x1
 9517 06a2 50       		.byte	0x50
 9518 06a3 BF000000 		.4byte	.LVL73-1
 9519 06a7 D8000000 		.4byte	.LFE130
 9520 06ab 0400     		.2byte	0x4
 9521 06ad F3       		.byte	0xf3
 9522 06ae 01       		.uleb128 0x1
 9523 06af 50       		.byte	0x50
 9524 06b0 9F       		.byte	0x9f
 9525 06b1 00000000 		.4byte	0
 9526 06b5 00000000 		.4byte	0
 9527              	.LLST49:
 9528 06b9 00000000 		.4byte	.LVL54
 9529 06bd 43000000 		.4byte	.LVL61-1
 9530 06c1 0100     		.2byte	0x1
 9531 06c3 51       		.byte	0x51
 9532 06c4 43000000 		.4byte	.LVL61-1
 9533 06c8 64000000 		.4byte	.LVL63
 9534 06cc 0100     		.2byte	0x1
 9535 06ce 58       		.byte	0x58
 9536 06cf 64000000 		.4byte	.LVL63
 9537 06d3 7D000000 		.4byte	.LVL66-1
 9538 06d7 0100     		.2byte	0x1
 9539 06d9 51       		.byte	0x51
 9540 06da 7D000000 		.4byte	.LVL66-1
 9541 06de 84000000 		.4byte	.LVL67
 9542 06e2 0100     		.2byte	0x1
 9543 06e4 58       		.byte	0x58
 9544 06e5 84000000 		.4byte	.LVL67
ARM GAS  /tmp/ccAUe7jC.s 			page 169


 9545 06e9 8A000000 		.4byte	.LVL68
 9546 06ed 0300     		.2byte	0x3
 9547 06ef 78       		.byte	0x78
 9548 06f0 7F       		.sleb128 -1
 9549 06f1 9F       		.byte	0x9f
 9550 06f2 8A000000 		.4byte	.LVL68
 9551 06f6 B0000000 		.4byte	.LVL70
 9552 06fa 0400     		.2byte	0x4
 9553 06fc F3       		.byte	0xf3
 9554 06fd 01       		.uleb128 0x1
 9555 06fe 51       		.byte	0x51
 9556 06ff 9F       		.byte	0x9f
 9557 0700 B0000000 		.4byte	.LVL70
 9558 0704 BF000000 		.4byte	.LVL73-1
 9559 0708 0100     		.2byte	0x1
 9560 070a 51       		.byte	0x51
 9561 070b BF000000 		.4byte	.LVL73-1
 9562 070f D8000000 		.4byte	.LFE130
 9563 0713 0100     		.2byte	0x1
 9564 0715 58       		.byte	0x58
 9565 0716 00000000 		.4byte	0
 9566 071a 00000000 		.4byte	0
 9567              	.LLST50:
 9568 071e 00000000 		.4byte	.LVL54
 9569 0722 3E000000 		.4byte	.LVL59
 9570 0726 0100     		.2byte	0x1
 9571 0728 52       		.byte	0x52
 9572 0729 3E000000 		.4byte	.LVL59
 9573 072d 64000000 		.4byte	.LVL63
 9574 0731 0400     		.2byte	0x4
 9575 0733 F3       		.byte	0xf3
 9576 0734 01       		.uleb128 0x1
 9577 0735 52       		.byte	0x52
 9578 0736 9F       		.byte	0x9f
 9579 0737 64000000 		.4byte	.LVL63
 9580 073b 6C000000 		.4byte	.LVL64
 9581 073f 0100     		.2byte	0x1
 9582 0741 52       		.byte	0x52
 9583 0742 6C000000 		.4byte	.LVL64
 9584 0746 B0000000 		.4byte	.LVL70
 9585 074a 0400     		.2byte	0x4
 9586 074c F3       		.byte	0xf3
 9587 074d 01       		.uleb128 0x1
 9588 074e 52       		.byte	0x52
 9589 074f 9F       		.byte	0x9f
 9590 0750 B0000000 		.4byte	.LVL70
 9591 0754 B6000000 		.4byte	.LVL71
 9592 0758 0100     		.2byte	0x1
 9593 075a 52       		.byte	0x52
 9594 075b B6000000 		.4byte	.LVL71
 9595 075f D8000000 		.4byte	.LFE130
 9596 0763 0400     		.2byte	0x4
 9597 0765 F3       		.byte	0xf3
 9598 0766 01       		.uleb128 0x1
 9599 0767 52       		.byte	0x52
 9600 0768 9F       		.byte	0x9f
 9601 0769 00000000 		.4byte	0
ARM GAS  /tmp/ccAUe7jC.s 			page 170


 9602 076d 00000000 		.4byte	0
 9603              	.LLST51:
 9604 0771 00000000 		.4byte	.LVL54
 9605 0775 1C000000 		.4byte	.LVL55
 9606 0779 0100     		.2byte	0x1
 9607 077b 53       		.byte	0x53
 9608 077c 1C000000 		.4byte	.LVL55
 9609 0780 D8000000 		.4byte	.LFE130
 9610 0784 0400     		.2byte	0x4
 9611 0786 F3       		.byte	0xf3
 9612 0787 01       		.uleb128 0x1
 9613 0788 53       		.byte	0x53
 9614 0789 9F       		.byte	0x9f
 9615 078a 00000000 		.4byte	0
 9616 078e 00000000 		.4byte	0
 9617              	.LLST52:
 9618 0792 2A000000 		.4byte	.LVL56
 9619 0796 38000000 		.4byte	.LVL58
 9620 079a 0100     		.2byte	0x1
 9621 079c 5A       		.byte	0x5a
 9622 079d 38000000 		.4byte	.LVL58
 9623 07a1 3E000000 		.4byte	.LVL59
 9624 07a5 0600     		.2byte	0x6
 9625 07a7 7C       		.byte	0x7c
 9626 07a8 00       		.sleb128 0
 9627 07a9 72       		.byte	0x72
 9628 07aa 00       		.sleb128 0
 9629 07ab 22       		.byte	0x22
 9630 07ac 9F       		.byte	0x9f
 9631 07ad 64000000 		.4byte	.LVL63
 9632 07b1 7E000000 		.4byte	.LVL66
 9633 07b5 0100     		.2byte	0x1
 9634 07b7 5A       		.byte	0x5a
 9635 07b8 B0000000 		.4byte	.LVL70
 9636 07bc D8000000 		.4byte	.LFE130
 9637 07c0 0100     		.2byte	0x1
 9638 07c2 5A       		.byte	0x5a
 9639 07c3 00000000 		.4byte	0
 9640 07c7 00000000 		.4byte	0
 9641              	.LLST53:
 9642 07cb 2E000000 		.4byte	.LVL57
 9643 07cf 40000000 		.4byte	.LVL60
 9644 07d3 0100     		.2byte	0x1
 9645 07d5 53       		.byte	0x53
 9646 07d6 40000000 		.4byte	.LVL60
 9647 07da 64000000 		.4byte	.LVL63
 9648 07de 0100     		.2byte	0x1
 9649 07e0 5B       		.byte	0x5b
 9650 07e1 64000000 		.4byte	.LVL63
 9651 07e5 70000000 		.4byte	.LVL65
 9652 07e9 0100     		.2byte	0x1
 9653 07eb 53       		.byte	0x53
 9654 07ec 70000000 		.4byte	.LVL65
 9655 07f0 B0000000 		.4byte	.LVL70
 9656 07f4 0100     		.2byte	0x1
 9657 07f6 5B       		.byte	0x5b
 9658 07f7 B0000000 		.4byte	.LVL70
ARM GAS  /tmp/ccAUe7jC.s 			page 171


 9659 07fb B8000000 		.4byte	.LVL72
 9660 07ff 0100     		.2byte	0x1
 9661 0801 53       		.byte	0x53
 9662 0802 B8000000 		.4byte	.LVL72
 9663 0806 D8000000 		.4byte	.LFE130
 9664 080a 0300     		.2byte	0x3
 9665 080c 77       		.byte	0x77
 9666 080d 7F       		.sleb128 -1
 9667 080e 9F       		.byte	0x9f
 9668 080f 00000000 		.4byte	0
 9669 0813 00000000 		.4byte	0
 9670              	.LLST54:
 9671 0817 00000000 		.4byte	.LFB131
 9672 081b 04000000 		.4byte	.LCFI18
 9673 081f 0200     		.2byte	0x2
 9674 0821 7D       		.byte	0x7d
 9675 0822 00       		.sleb128 0
 9676 0823 04000000 		.4byte	.LCFI18
 9677 0827 08000000 		.4byte	.LCFI19
 9678 082b 0200     		.2byte	0x2
 9679 082d 7D       		.byte	0x7d
 9680 082e 24       		.sleb128 36
 9681 082f 08000000 		.4byte	.LCFI19
 9682 0833 38010000 		.4byte	.LFE131
 9683 0837 0200     		.2byte	0x2
 9684 0839 7D       		.byte	0x7d
 9685 083a 38       		.sleb128 56
 9686 083b 00000000 		.4byte	0
 9687 083f 00000000 		.4byte	0
 9688              	.LLST55:
 9689 0843 00000000 		.4byte	.LVL75
 9690 0847 20000000 		.4byte	.LVL78
 9691 084b 0100     		.2byte	0x1
 9692 084d 50       		.byte	0x50
 9693 084e 20000000 		.4byte	.LVL78
 9694 0852 06010000 		.4byte	.LVL86
 9695 0856 0100     		.2byte	0x1
 9696 0858 55       		.byte	0x55
 9697 0859 06010000 		.4byte	.LVL86
 9698 085d 30010000 		.4byte	.LVL87
 9699 0861 0400     		.2byte	0x4
 9700 0863 F3       		.byte	0xf3
 9701 0864 01       		.uleb128 0x1
 9702 0865 50       		.byte	0x50
 9703 0866 9F       		.byte	0x9f
 9704 0867 30010000 		.4byte	.LVL87
 9705 086b 38010000 		.4byte	.LFE131
 9706 086f 0100     		.2byte	0x1
 9707 0871 50       		.byte	0x50
 9708 0872 00000000 		.4byte	0
 9709 0876 00000000 		.4byte	0
 9710              	.LLST56:
 9711 087a 00000000 		.4byte	.LVL75
 9712 087e 38000000 		.4byte	.LVL81
 9713 0882 0100     		.2byte	0x1
 9714 0884 51       		.byte	0x51
 9715 0885 38000000 		.4byte	.LVL81
ARM GAS  /tmp/ccAUe7jC.s 			page 172


 9716 0889 06010000 		.4byte	.LVL86
 9717 088d 0100     		.2byte	0x1
 9718 088f 56       		.byte	0x56
 9719 0890 06010000 		.4byte	.LVL86
 9720 0894 30010000 		.4byte	.LVL87
 9721 0898 0400     		.2byte	0x4
 9722 089a F3       		.byte	0xf3
 9723 089b 01       		.uleb128 0x1
 9724 089c 51       		.byte	0x51
 9725 089d 9F       		.byte	0x9f
 9726 089e 30010000 		.4byte	.LVL87
 9727 08a2 36010000 		.4byte	.LVL88
 9728 08a6 0100     		.2byte	0x1
 9729 08a8 51       		.byte	0x51
 9730 08a9 36010000 		.4byte	.LVL88
 9731 08ad 38010000 		.4byte	.LFE131
 9732 08b1 0100     		.2byte	0x1
 9733 08b3 56       		.byte	0x56
 9734 08b4 00000000 		.4byte	0
 9735 08b8 00000000 		.4byte	0
 9736              	.LLST57:
 9737 08bc 00000000 		.4byte	.LVL75
 9738 08c0 2A000000 		.4byte	.LVL79
 9739 08c4 0100     		.2byte	0x1
 9740 08c6 52       		.byte	0x52
 9741 08c7 2A000000 		.4byte	.LVL79
 9742 08cb 30010000 		.4byte	.LVL87
 9743 08cf 0100     		.2byte	0x1
 9744 08d1 58       		.byte	0x58
 9745 08d2 30010000 		.4byte	.LVL87
 9746 08d6 38010000 		.4byte	.LFE131
 9747 08da 0100     		.2byte	0x1
 9748 08dc 52       		.byte	0x52
 9749 08dd 00000000 		.4byte	0
 9750 08e1 00000000 		.4byte	0
 9751              	.LLST58:
 9752 08e5 00000000 		.4byte	.LVL75
 9753 08e9 06000000 		.4byte	.LVL76
 9754 08ed 0100     		.2byte	0x1
 9755 08ef 53       		.byte	0x53
 9756 08f0 06000000 		.4byte	.LVL76
 9757 08f4 2C000000 		.4byte	.LVL80
 9758 08f8 0300     		.2byte	0x3
 9759 08fa 73       		.byte	0x73
 9760 08fb 01       		.sleb128 1
 9761 08fc 9F       		.byte	0x9f
 9762 08fd 2C000000 		.4byte	.LVL80
 9763 0901 38010000 		.4byte	.LFE131
 9764 0905 0400     		.2byte	0x4
 9765 0907 F3       		.byte	0xf3
 9766 0908 01       		.uleb128 0x1
 9767 0909 53       		.byte	0x53
 9768 090a 9F       		.byte	0x9f
 9769 090b 00000000 		.4byte	0
 9770 090f 00000000 		.4byte	0
 9771              	.LLST59:
 9772 0913 0C000000 		.4byte	.LVL77
ARM GAS  /tmp/ccAUe7jC.s 			page 173


 9773 0917 2A000000 		.4byte	.LVL79
 9774 091b 0100     		.2byte	0x1
 9775 091d 52       		.byte	0x52
 9776 091e 2A000000 		.4byte	.LVL79
 9777 0922 8C000000 		.4byte	.LVL83
 9778 0926 0100     		.2byte	0x1
 9779 0928 58       		.byte	0x58
 9780 0929 30010000 		.4byte	.LVL87
 9781 092d 38010000 		.4byte	.LFE131
 9782 0931 0100     		.2byte	0x1
 9783 0933 52       		.byte	0x52
 9784 0934 00000000 		.4byte	0
 9785 0938 00000000 		.4byte	0
 9786              	.LLST60:
 9787 093c 00000000 		.4byte	.LFB132
 9788 0940 04000000 		.4byte	.LCFI20
 9789 0944 0200     		.2byte	0x2
 9790 0946 7D       		.byte	0x7d
 9791 0947 00       		.sleb128 0
 9792 0948 04000000 		.4byte	.LCFI20
 9793 094c 06000000 		.4byte	.LCFI21
 9794 0950 0200     		.2byte	0x2
 9795 0952 7D       		.byte	0x7d
 9796 0953 24       		.sleb128 36
 9797 0954 06000000 		.4byte	.LCFI21
 9798 0958 7C050000 		.4byte	.LFE132
 9799 095c 0300     		.2byte	0x3
 9800 095e 7D       		.byte	0x7d
 9801 095f F800     		.sleb128 120
 9802 0961 00000000 		.4byte	0
 9803 0965 00000000 		.4byte	0
 9804              	.LLST61:
 9805 0969 00000000 		.4byte	.LVL89
 9806 096d 36000000 		.4byte	.LVL93
 9807 0971 0100     		.2byte	0x1
 9808 0973 50       		.byte	0x50
 9809 0974 36000000 		.4byte	.LVL93
 9810 0978 00010000 		.4byte	.LVL114
 9811 097c 0400     		.2byte	0x4
 9812 097e F3       		.byte	0xf3
 9813 097f 01       		.uleb128 0x1
 9814 0980 50       		.byte	0x50
 9815 0981 9F       		.byte	0x9f
 9816 0982 00010000 		.4byte	.LVL114
 9817 0986 0A010000 		.4byte	.LVL116
 9818 098a 0100     		.2byte	0x1
 9819 098c 50       		.byte	0x50
 9820 098d 0A010000 		.4byte	.LVL116
 9821 0991 7C050000 		.4byte	.LFE132
 9822 0995 0400     		.2byte	0x4
 9823 0997 F3       		.byte	0xf3
 9824 0998 01       		.uleb128 0x1
 9825 0999 50       		.byte	0x50
 9826 099a 9F       		.byte	0x9f
 9827 099b 00000000 		.4byte	0
 9828 099f 00000000 		.4byte	0
 9829              	.LLST62:
ARM GAS  /tmp/ccAUe7jC.s 			page 174


 9830 09a3 00000000 		.4byte	.LVL89
 9831 09a7 E2000000 		.4byte	.LVL107
 9832 09ab 0100     		.2byte	0x1
 9833 09ad 51       		.byte	0x51
 9834 09ae E2000000 		.4byte	.LVL107
 9835 09b2 E8000000 		.4byte	.LVL108
 9836 09b6 0400     		.2byte	0x4
 9837 09b8 F3       		.byte	0xf3
 9838 09b9 01       		.uleb128 0x1
 9839 09ba 51       		.byte	0x51
 9840 09bb 9F       		.byte	0x9f
 9841 09bc E8000000 		.4byte	.LVL108
 9842 09c0 7E010000 		.4byte	.LVL125
 9843 09c4 0100     		.2byte	0x1
 9844 09c6 51       		.byte	0x51
 9845 09c7 7E010000 		.4byte	.LVL125
 9846 09cb 7C050000 		.4byte	.LFE132
 9847 09cf 0200     		.2byte	0x2
 9848 09d1 91       		.byte	0x91
 9849 09d2 48       		.sleb128 -56
 9850 09d3 00000000 		.4byte	0
 9851 09d7 00000000 		.4byte	0
 9852              	.LLST63:
 9853 09db 00000000 		.4byte	.LVL89
 9854 09df 1A000000 		.4byte	.LVL91
 9855 09e3 0100     		.2byte	0x1
 9856 09e5 52       		.byte	0x52
 9857 09e6 1A000000 		.4byte	.LVL91
 9858 09ea E2000000 		.4byte	.LVL107
 9859 09ee 0100     		.2byte	0x1
 9860 09f0 59       		.byte	0x59
 9861 09f1 E2000000 		.4byte	.LVL107
 9862 09f5 E8000000 		.4byte	.LVL108
 9863 09f9 0400     		.2byte	0x4
 9864 09fb F3       		.byte	0xf3
 9865 09fc 01       		.uleb128 0x1
 9866 09fd 52       		.byte	0x52
 9867 09fe 9F       		.byte	0x9f
 9868 09ff E8000000 		.4byte	.LVL108
 9869 0a03 EC000000 		.4byte	.LVL109
 9870 0a07 0100     		.2byte	0x1
 9871 0a09 50       		.byte	0x50
 9872 0a0a EC000000 		.4byte	.LVL109
 9873 0a0e 68010000 		.4byte	.LVL123
 9874 0a12 0100     		.2byte	0x1
 9875 0a14 59       		.byte	0x59
 9876 0a15 68010000 		.4byte	.LVL123
 9877 0a19 7C050000 		.4byte	.LFE132
 9878 0a1d 0200     		.2byte	0x2
 9879 0a1f 91       		.byte	0x91
 9880 0a20 40       		.sleb128 -64
 9881 0a21 00000000 		.4byte	0
 9882 0a25 00000000 		.4byte	0
 9883              	.LLST64:
 9884 0a29 00000000 		.4byte	.LVL89
 9885 0a2d 2C000000 		.4byte	.LVL92
 9886 0a31 0100     		.2byte	0x1
ARM GAS  /tmp/ccAUe7jC.s 			page 175


 9887 0a33 53       		.byte	0x53
 9888 0a34 2C000000 		.4byte	.LVL92
 9889 0a38 96000000 		.4byte	.LVL99
 9890 0a3c 0100     		.2byte	0x1
 9891 0a3e 58       		.byte	0x58
 9892 0a3f 96000000 		.4byte	.LVL99
 9893 0a43 A6000000 		.4byte	.LVL100
 9894 0a47 0100     		.2byte	0x1
 9895 0a49 56       		.byte	0x56
 9896 0a4a A6000000 		.4byte	.LVL100
 9897 0a4e B0000000 		.4byte	.LVL101
 9898 0a52 0100     		.2byte	0x1
 9899 0a54 55       		.byte	0x55
 9900 0a55 B0000000 		.4byte	.LVL101
 9901 0a59 D4000000 		.4byte	.LVL103
 9902 0a5d 0100     		.2byte	0x1
 9903 0a5f 56       		.byte	0x56
 9904 0a60 D4000000 		.4byte	.LVL103
 9905 0a64 DA000000 		.4byte	.LVL104
 9906 0a68 0100     		.2byte	0x1
 9907 0a6a 55       		.byte	0x55
 9908 0a6b DA000000 		.4byte	.LVL104
 9909 0a6f DE000000 		.4byte	.LVL106
 9910 0a73 0100     		.2byte	0x1
 9911 0a75 56       		.byte	0x56
 9912 0a76 DE000000 		.4byte	.LVL106
 9913 0a7a E2000000 		.4byte	.LVL107
 9914 0a7e 0100     		.2byte	0x1
 9915 0a80 55       		.byte	0x55
 9916 0a81 E8000000 		.4byte	.LVL108
 9917 0a85 F4000000 		.4byte	.LVL111
 9918 0a89 0100     		.2byte	0x1
 9919 0a8b 58       		.byte	0x58
 9920 0a8c F4000000 		.4byte	.LVL111
 9921 0a90 00010000 		.4byte	.LVL114
 9922 0a94 0100     		.2byte	0x1
 9923 0a96 56       		.byte	0x56
 9924 0a97 00010000 		.4byte	.LVL114
 9925 0a9b 04010000 		.4byte	.LVL115
 9926 0a9f 0100     		.2byte	0x1
 9927 0aa1 53       		.byte	0x53
 9928 0aa2 04010000 		.4byte	.LVL115
 9929 0aa6 16010000 		.4byte	.LVL119
 9930 0aaa 0100     		.2byte	0x1
 9931 0aac 58       		.byte	0x58
 9932 0aad 16010000 		.4byte	.LVL119
 9933 0ab1 32010000 		.4byte	.LVL120
 9934 0ab5 0100     		.2byte	0x1
 9935 0ab7 56       		.byte	0x56
 9936 0ab8 32010000 		.4byte	.LVL120
 9937 0abc 7E010000 		.4byte	.LVL125
 9938 0ac0 0100     		.2byte	0x1
 9939 0ac2 58       		.byte	0x58
 9940 0ac3 7E010000 		.4byte	.LVL125
 9941 0ac7 0C030000 		.4byte	.LVL144
 9942 0acb 0200     		.2byte	0x2
 9943 0acd 91       		.byte	0x91
ARM GAS  /tmp/ccAUe7jC.s 			page 176


 9944 0ace 4C       		.sleb128 -52
 9945 0acf 0C030000 		.4byte	.LVL144
 9946 0ad3 50030000 		.4byte	.LVL147
 9947 0ad7 0100     		.2byte	0x1
 9948 0ad9 51       		.byte	0x51
 9949 0ada 50030000 		.4byte	.LVL147
 9950 0ade 6E030000 		.4byte	.LVL149
 9951 0ae2 0100     		.2byte	0x1
 9952 0ae4 55       		.byte	0x55
 9953 0ae5 70030000 		.4byte	.LVL150
 9954 0ae9 7A030000 		.4byte	.LVL151
 9955 0aed 0100     		.2byte	0x1
 9956 0aef 51       		.byte	0x51
 9957 0af0 92030000 		.4byte	.LVL154
 9958 0af4 BC030000 		.4byte	.LVL159
 9959 0af8 0200     		.2byte	0x2
 9960 0afa 91       		.byte	0x91
 9961 0afb 4C       		.sleb128 -52
 9962 0afc BC030000 		.4byte	.LVL159
 9963 0b00 C4030000 		.4byte	.LVL160
 9964 0b04 0100     		.2byte	0x1
 9965 0b06 51       		.byte	0x51
 9966 0b07 C4030000 		.4byte	.LVL160
 9967 0b0b E8030000 		.4byte	.LVL162
 9968 0b0f 0200     		.2byte	0x2
 9969 0b11 91       		.byte	0x91
 9970 0b12 4C       		.sleb128 -52
 9971 0b13 E8030000 		.4byte	.LVL162
 9972 0b17 EC030000 		.4byte	.LVL164
 9973 0b1b 0100     		.2byte	0x1
 9974 0b1d 51       		.byte	0x51
 9975 0b1e EC030000 		.4byte	.LVL164
 9976 0b22 16040000 		.4byte	.LVL167
 9977 0b26 0300     		.2byte	0x3
 9978 0b28 91       		.byte	0x91
 9979 0b29 B07F     		.sleb128 -80
 9980 0b2b 18040000 		.4byte	.LVL168
 9981 0b2f 8E040000 		.4byte	.LVL176
 9982 0b33 0200     		.2byte	0x2
 9983 0b35 91       		.byte	0x91
 9984 0b36 4C       		.sleb128 -52
 9985 0b37 8E040000 		.4byte	.LVL176
 9986 0b3b BE040000 		.4byte	.LVL179
 9987 0b3f 0100     		.2byte	0x1
 9988 0b41 51       		.byte	0x51
 9989 0b42 BE040000 		.4byte	.LVL179
 9990 0b46 DC040000 		.4byte	.LVL181
 9991 0b4a 0100     		.2byte	0x1
 9992 0b4c 50       		.byte	0x50
 9993 0b4d DE040000 		.4byte	.LVL182
 9994 0b51 E8040000 		.4byte	.LVL183
 9995 0b55 0100     		.2byte	0x1
 9996 0b57 51       		.byte	0x51
 9997 0b58 04050000 		.4byte	.LVL186
 9998 0b5c 08050000 		.4byte	.LVL188
 9999 0b60 0100     		.2byte	0x1
 10000 0b62 51       		.byte	0x51
ARM GAS  /tmp/ccAUe7jC.s 			page 177


 10001 0b63 08050000 		.4byte	.LVL188
 10002 0b67 2E050000 		.4byte	.LVL191
 10003 0b6b 0300     		.2byte	0x3
 10004 0b6d 91       		.byte	0x91
 10005 0b6e B07F     		.sleb128 -80
 10006 0b70 32050000 		.4byte	.LVL192
 10007 0b74 3A050000 		.4byte	.LVL193
 10008 0b78 0100     		.2byte	0x1
 10009 0b7a 51       		.byte	0x51
 10010 0b7b 3A050000 		.4byte	.LVL193
 10011 0b7f 7C050000 		.4byte	.LFE132
 10012 0b83 0200     		.2byte	0x2
 10013 0b85 91       		.byte	0x91
 10014 0b86 4C       		.sleb128 -52
 10015 0b87 00000000 		.4byte	0
 10016 0b8b 00000000 		.4byte	0
 10017              	.LLST65:
 10018 0b8f 1A000000 		.4byte	.LVL91
 10019 0b93 3E000000 		.4byte	.LVL95
 10020 0b97 0100     		.2byte	0x1
 10021 0b99 52       		.byte	0x52
 10022 0b9a 3E000000 		.4byte	.LVL95
 10023 0b9e 54000000 		.4byte	.LVL96
 10024 0ba2 0300     		.2byte	0x3
 10025 0ba4 72       		.byte	0x72
 10026 0ba5 7C       		.sleb128 -4
 10027 0ba6 9F       		.byte	0x9f
 10028 0ba7 8A000000 		.4byte	.LVL98
 10029 0bab E2000000 		.4byte	.LVL107
 10030 0baf 0100     		.2byte	0x1
 10031 0bb1 54       		.byte	0x54
 10032 0bb2 E8000000 		.4byte	.LVL108
 10033 0bb6 F0000000 		.4byte	.LVL110
 10034 0bba 0100     		.2byte	0x1
 10035 0bbc 52       		.byte	0x52
 10036 0bbd F4000000 		.4byte	.LVL111
 10037 0bc1 00010000 		.4byte	.LVL114
 10038 0bc5 0100     		.2byte	0x1
 10039 0bc7 54       		.byte	0x54
 10040 0bc8 00010000 		.4byte	.LVL114
 10041 0bcc 16010000 		.4byte	.LVL119
 10042 0bd0 0100     		.2byte	0x1
 10043 0bd2 52       		.byte	0x52
 10044 0bd3 16010000 		.4byte	.LVL119
 10045 0bd7 46020000 		.4byte	.LVL138
 10046 0bdb 0100     		.2byte	0x1
 10047 0bdd 54       		.byte	0x54
 10048 0bde 46020000 		.4byte	.LVL138
 10049 0be2 DC020000 		.4byte	.LVL143
 10050 0be6 0200     		.2byte	0x2
 10051 0be8 91       		.byte	0x91
 10052 0be9 50       		.sleb128 -48
 10053 0bea 92030000 		.4byte	.LVL154
 10054 0bee BC030000 		.4byte	.LVL159
 10055 0bf2 0100     		.2byte	0x1
 10056 0bf4 54       		.byte	0x54
 10057 0bf5 C4030000 		.4byte	.LVL160
ARM GAS  /tmp/ccAUe7jC.s 			page 178


 10058 0bf9 E8030000 		.4byte	.LVL162
 10059 0bfd 0200     		.2byte	0x2
 10060 0bff 91       		.byte	0x91
 10061 0c00 50       		.sleb128 -48
 10062 0c01 18040000 		.4byte	.LVL168
 10063 0c05 40040000 		.4byte	.LVL171
 10064 0c09 0200     		.2byte	0x2
 10065 0c0b 91       		.byte	0x91
 10066 0c0c 50       		.sleb128 -48
 10067 0c0d 40040000 		.4byte	.LVL171
 10068 0c11 66040000 		.4byte	.LVL173
 10069 0c15 0100     		.2byte	0x1
 10070 0c17 54       		.byte	0x54
 10071 0c18 66040000 		.4byte	.LVL173
 10072 0c1c 8E040000 		.4byte	.LVL176
 10073 0c20 0200     		.2byte	0x2
 10074 0c22 91       		.byte	0x91
 10075 0c23 50       		.sleb128 -48
 10076 0c24 A8040000 		.4byte	.LVL177
 10077 0c28 DA040000 		.4byte	.LVL180
 10078 0c2c 0100     		.2byte	0x1
 10079 0c2e 54       		.byte	0x54
 10080 0c2f DC040000 		.4byte	.LVL181
 10081 0c33 06050000 		.4byte	.LVL187
 10082 0c37 0100     		.2byte	0x1
 10083 0c39 54       		.byte	0x54
 10084 0c3a 08050000 		.4byte	.LVL188
 10085 0c3e 24050000 		.4byte	.LVL189
 10086 0c42 0100     		.2byte	0x1
 10087 0c44 54       		.byte	0x54
 10088 0c45 2A050000 		.4byte	.LVL190
 10089 0c49 32050000 		.4byte	.LVL192
 10090 0c4d 0100     		.2byte	0x1
 10091 0c4f 54       		.byte	0x54
 10092 0c50 3A050000 		.4byte	.LVL193
 10093 0c54 7C050000 		.4byte	.LFE132
 10094 0c58 0100     		.2byte	0x1
 10095 0c5a 54       		.byte	0x54
 10096 0c5b 00000000 		.4byte	0
 10097 0c5f 00000000 		.4byte	0
 10098              	.LLST66:
 10099 0c63 0E000000 		.4byte	.LVL90
 10100 0c67 1A000000 		.4byte	.LVL91
 10101 0c6b 0100     		.2byte	0x1
 10102 0c6d 52       		.byte	0x52
 10103 0c6e 1A000000 		.4byte	.LVL91
 10104 0c72 3C000000 		.4byte	.LVL94
 10105 0c76 0100     		.2byte	0x1
 10106 0c78 59       		.byte	0x59
 10107 0c79 BE000000 		.4byte	.LVL102
 10108 0c7d DC000000 		.4byte	.LVL105
 10109 0c81 0100     		.2byte	0x1
 10110 0c83 57       		.byte	0x57
 10111 0c84 E8000000 		.4byte	.LVL108
 10112 0c88 EC000000 		.4byte	.LVL109
 10113 0c8c 0100     		.2byte	0x1
 10114 0c8e 50       		.byte	0x50
ARM GAS  /tmp/ccAUe7jC.s 			page 179


 10115 0c8f EC000000 		.4byte	.LVL109
 10116 0c93 F0000000 		.4byte	.LVL110
 10117 0c97 0100     		.2byte	0x1
 10118 0c99 59       		.byte	0x59
 10119 0c9a FC000000 		.4byte	.LVL112
 10120 0c9e FE000000 		.4byte	.LVL113
 10121 0ca2 0100     		.2byte	0x1
 10122 0ca4 57       		.byte	0x57
 10123 0ca5 00010000 		.4byte	.LVL114
 10124 0ca9 16010000 		.4byte	.LVL119
 10125 0cad 0100     		.2byte	0x1
 10126 0caf 59       		.byte	0x59
 10127 0cb0 16010000 		.4byte	.LVL119
 10128 0cb4 48020000 		.4byte	.LVL139
 10129 0cb8 0100     		.2byte	0x1
 10130 0cba 57       		.byte	0x57
 10131 0cbb 48020000 		.4byte	.LVL139
 10132 0cbf DC020000 		.4byte	.LVL143
 10133 0cc3 0200     		.2byte	0x2
 10134 0cc5 91       		.byte	0x91
 10135 0cc6 54       		.sleb128 -44
 10136 0cc7 3A030000 		.4byte	.LVL145
 10137 0ccb 6C030000 		.4byte	.LVL148
 10138 0ccf 0100     		.2byte	0x1
 10139 0cd1 57       		.byte	0x57
 10140 0cd2 6E030000 		.4byte	.LVL149
 10141 0cd6 BC030000 		.4byte	.LVL159
 10142 0cda 0100     		.2byte	0x1
 10143 0cdc 57       		.byte	0x57
 10144 0cdd C4030000 		.4byte	.LVL160
 10145 0ce1 E8030000 		.4byte	.LVL162
 10146 0ce5 0200     		.2byte	0x2
 10147 0ce7 91       		.byte	0x91
 10148 0ce8 54       		.sleb128 -44
 10149 0ce9 E8030000 		.4byte	.LVL162
 10150 0ced EA030000 		.4byte	.LVL163
 10151 0cf1 0100     		.2byte	0x1
 10152 0cf3 57       		.byte	0x57
 10153 0cf4 EC030000 		.4byte	.LVL164
 10154 0cf8 0C040000 		.4byte	.LVL165
 10155 0cfc 0100     		.2byte	0x1
 10156 0cfe 57       		.byte	0x57
 10157 0cff 12040000 		.4byte	.LVL166
 10158 0d03 18040000 		.4byte	.LVL168
 10159 0d07 0100     		.2byte	0x1
 10160 0d09 57       		.byte	0x57
 10161 0d0a 18040000 		.4byte	.LVL168
 10162 0d0e 40040000 		.4byte	.LVL171
 10163 0d12 0200     		.2byte	0x2
 10164 0d14 91       		.byte	0x91
 10165 0d15 54       		.sleb128 -44
 10166 0d16 40040000 		.4byte	.LVL171
 10167 0d1a 66040000 		.4byte	.LVL173
 10168 0d1e 0100     		.2byte	0x1
 10169 0d20 57       		.byte	0x57
 10170 0d21 66040000 		.4byte	.LVL173
 10171 0d25 8E040000 		.4byte	.LVL176
ARM GAS  /tmp/ccAUe7jC.s 			page 180


 10172 0d29 0200     		.2byte	0x2
 10173 0d2b 91       		.byte	0x91
 10174 0d2c 54       		.sleb128 -44
 10175 0d2d 3A050000 		.4byte	.LVL193
 10176 0d31 7C050000 		.4byte	.LFE132
 10177 0d35 0100     		.2byte	0x1
 10178 0d37 57       		.byte	0x57
 10179 0d38 00000000 		.4byte	0
 10180 0d3c 00000000 		.4byte	0
 10181              	.LLST67:
 10182 0d40 0E000000 		.4byte	.LVL90
 10183 0d44 E2000000 		.4byte	.LVL107
 10184 0d48 0100     		.2byte	0x1
 10185 0d4a 5A       		.byte	0x5a
 10186 0d4b E2000000 		.4byte	.LVL107
 10187 0d4f E8000000 		.4byte	.LVL108
 10188 0d53 0C00     		.2byte	0xc
 10189 0d55 F3       		.byte	0xf3
 10190 0d56 01       		.uleb128 0x1
 10191 0d57 53       		.byte	0x53
 10192 0d58 31       		.byte	0x31
 10193 0d59 1C       		.byte	0x1c
 10194 0d5a 32       		.byte	0x32
 10195 0d5b 24       		.byte	0x24
 10196 0d5c F3       		.byte	0xf3
 10197 0d5d 01       		.uleb128 0x1
 10198 0d5e 52       		.byte	0x52
 10199 0d5f 22       		.byte	0x22
 10200 0d60 9F       		.byte	0x9f
 10201 0d61 E8000000 		.4byte	.LVL108
 10202 0d65 72010000 		.4byte	.LVL124
 10203 0d69 0100     		.2byte	0x1
 10204 0d6b 5A       		.byte	0x5a
 10205 0d6c 72010000 		.4byte	.LVL124
 10206 0d70 7C050000 		.4byte	.LFE132
 10207 0d74 0300     		.2byte	0x3
 10208 0d76 91       		.byte	0x91
 10209 0d77 B47F     		.sleb128 -76
 10210 0d79 00000000 		.4byte	0
 10211 0d7d 00000000 		.4byte	0
 10212              	.LLST68:
 10213 0d81 86000000 		.4byte	.LVL97
 10214 0d85 8A000000 		.4byte	.LVL98
 10215 0d89 0100     		.2byte	0x1
 10216 0d8b 56       		.byte	0x56
 10217 0d8c F0000000 		.4byte	.LVL110
 10218 0d90 F4000000 		.4byte	.LVL111
 10219 0d94 0100     		.2byte	0x1
 10220 0d96 56       		.byte	0x56
 10221 0d97 0C010000 		.4byte	.LVL117
 10222 0d9b 10010000 		.4byte	.LVL118
 10223 0d9f 0100     		.2byte	0x1
 10224 0da1 50       		.byte	0x50
 10225 0da2 10010000 		.4byte	.LVL118
 10226 0da6 16010000 		.4byte	.LVL119
 10227 0daa 0300     		.2byte	0x3
 10228 0dac 91       		.byte	0x91
ARM GAS  /tmp/ccAUe7jC.s 			page 181


 10229 0dad 987F     		.sleb128 -104
 10230 0daf 7E010000 		.4byte	.LVL125
 10231 0db3 F6010000 		.4byte	.LVL133
 10232 0db7 0300     		.2byte	0x3
 10233 0db9 91       		.byte	0x91
 10234 0dba A87F     		.sleb128 -88
 10235 0dbc F6010000 		.4byte	.LVL133
 10236 0dc0 FA010000 		.4byte	.LVL134
 10237 0dc4 0100     		.2byte	0x1
 10238 0dc6 56       		.byte	0x56
 10239 0dc7 FA010000 		.4byte	.LVL134
 10240 0dcb A8040000 		.4byte	.LVL177
 10241 0dcf 0300     		.2byte	0x3
 10242 0dd1 91       		.byte	0x91
 10243 0dd2 A87F     		.sleb128 -88
 10244 0dd4 32050000 		.4byte	.LVL192
 10245 0dd8 7C050000 		.4byte	.LFE132
 10246 0ddc 0300     		.2byte	0x3
 10247 0dde 91       		.byte	0x91
 10248 0ddf A87F     		.sleb128 -88
 10249 0de1 00000000 		.4byte	0
 10250 0de5 00000000 		.4byte	0
 10251              	.LLST69:
 10252 0de9 86000000 		.4byte	.LVL97
 10253 0ded 8A000000 		.4byte	.LVL98
 10254 0df1 0100     		.2byte	0x1
 10255 0df3 56       		.byte	0x56
 10256 0df4 8A000000 		.4byte	.LVL98
 10257 0df8 BE000000 		.4byte	.LVL102
 10258 0dfc 0300     		.2byte	0x3
 10259 0dfe 91       		.byte	0x91
 10260 0dff 987F     		.sleb128 -104
 10261 0e01 DC000000 		.4byte	.LVL105
 10262 0e05 E2000000 		.4byte	.LVL107
 10263 0e09 0300     		.2byte	0x3
 10264 0e0b 91       		.byte	0x91
 10265 0e0c 987F     		.sleb128 -104
 10266 0e0e F0000000 		.4byte	.LVL110
 10267 0e12 F4000000 		.4byte	.LVL111
 10268 0e16 0100     		.2byte	0x1
 10269 0e18 56       		.byte	0x56
 10270 0e19 F4000000 		.4byte	.LVL111
 10271 0e1d FC000000 		.4byte	.LVL112
 10272 0e21 0300     		.2byte	0x3
 10273 0e23 91       		.byte	0x91
 10274 0e24 987F     		.sleb128 -104
 10275 0e26 0C010000 		.4byte	.LVL117
 10276 0e2a 10010000 		.4byte	.LVL118
 10277 0e2e 0100     		.2byte	0x1
 10278 0e30 50       		.byte	0x50
 10279 0e31 10010000 		.4byte	.LVL118
 10280 0e35 16010000 		.4byte	.LVL119
 10281 0e39 0300     		.2byte	0x3
 10282 0e3b 91       		.byte	0x91
 10283 0e3c 987F     		.sleb128 -104
 10284 0e3e 7E010000 		.4byte	.LVL125
 10285 0e42 FA010000 		.4byte	.LVL134
ARM GAS  /tmp/ccAUe7jC.s 			page 182


 10286 0e46 0300     		.2byte	0x3
 10287 0e48 91       		.byte	0x91
 10288 0e49 987F     		.sleb128 -104
 10289 0e4b FA010000 		.4byte	.LVL134
 10290 0e4f 08020000 		.4byte	.LVL136
 10291 0e53 0100     		.2byte	0x1
 10292 0e55 52       		.byte	0x52
 10293 0e56 08020000 		.4byte	.LVL136
 10294 0e5a 3A030000 		.4byte	.LVL145
 10295 0e5e 0300     		.2byte	0x3
 10296 0e60 91       		.byte	0x91
 10297 0e61 987F     		.sleb128 -104
 10298 0e63 92030000 		.4byte	.LVL154
 10299 0e67 9C030000 		.4byte	.LVL155
 10300 0e6b 0100     		.2byte	0x1
 10301 0e6d 50       		.byte	0x50
 10302 0e6e 9C030000 		.4byte	.LVL155
 10303 0e72 E8030000 		.4byte	.LVL162
 10304 0e76 0300     		.2byte	0x3
 10305 0e78 91       		.byte	0x91
 10306 0e79 987F     		.sleb128 -104
 10307 0e7b 18040000 		.4byte	.LVL168
 10308 0e7f 3A050000 		.4byte	.LVL193
 10309 0e83 0300     		.2byte	0x3
 10310 0e85 91       		.byte	0x91
 10311 0e86 987F     		.sleb128 -104
 10312 0e88 3A050000 		.4byte	.LVL193
 10313 0e8c 40050000 		.4byte	.LVL195
 10314 0e90 0100     		.2byte	0x1
 10315 0e92 50       		.byte	0x50
 10316 0e93 40050000 		.4byte	.LVL195
 10317 0e97 66050000 		.4byte	.LVL200
 10318 0e9b 0300     		.2byte	0x3
 10319 0e9d 91       		.byte	0x91
 10320 0e9e 987F     		.sleb128 -104
 10321 0ea0 66050000 		.4byte	.LVL200
 10322 0ea4 6C050000 		.4byte	.LVL202
 10323 0ea8 0100     		.2byte	0x1
 10324 0eaa 50       		.byte	0x50
 10325 0eab 6C050000 		.4byte	.LVL202
 10326 0eaf 7C050000 		.4byte	.LFE132
 10327 0eb3 0300     		.2byte	0x3
 10328 0eb5 91       		.byte	0x91
 10329 0eb6 987F     		.sleb128 -104
 10330 0eb8 00000000 		.4byte	0
 10331 0ebc 00000000 		.4byte	0
 10332              	.LLST70:
 10333 0ec0 56010000 		.4byte	.LVL121
 10334 0ec4 5A010000 		.4byte	.LVL122
 10335 0ec8 0100     		.2byte	0x1
 10336 0eca 50       		.byte	0x50
 10337 0ecb 5A010000 		.4byte	.LVL122
 10338 0ecf 7E010000 		.4byte	.LVL125
 10339 0ed3 0300     		.2byte	0x3
 10340 0ed5 91       		.byte	0x91
 10341 0ed6 B07F     		.sleb128 -80
 10342 0ed8 7E010000 		.4byte	.LVL125
ARM GAS  /tmp/ccAUe7jC.s 			page 183


 10343 0edc EC040000 		.4byte	.LVL184
 10344 0ee0 0100     		.2byte	0x1
 10345 0ee2 59       		.byte	0x59
 10346 0ee3 00050000 		.4byte	.LVL185
 10347 0ee7 7C050000 		.4byte	.LFE132
 10348 0eeb 0100     		.2byte	0x1
 10349 0eed 59       		.byte	0x59
 10350 0eee 00000000 		.4byte	0
 10351 0ef2 00000000 		.4byte	0
 10352              	.LLST71:
 10353 0ef6 7E010000 		.4byte	.LVL125
 10354 0efa 7E030000 		.4byte	.LVL152
 10355 0efe 0100     		.2byte	0x1
 10356 0f00 5A       		.byte	0x5a
 10357 0f01 8E030000 		.4byte	.LVL153
 10358 0f05 7C050000 		.4byte	.LFE132
 10359 0f09 0100     		.2byte	0x1
 10360 0f0b 5A       		.byte	0x5a
 10361 0f0c 00000000 		.4byte	0
 10362 0f10 00000000 		.4byte	0
 10363              	.LLST72:
 10364 0f14 86000000 		.4byte	.LVL97
 10365 0f18 8A000000 		.4byte	.LVL98
 10366 0f1c 0100     		.2byte	0x1
 10367 0f1e 5B       		.byte	0x5b
 10368 0f1f F0000000 		.4byte	.LVL110
 10369 0f23 F4000000 		.4byte	.LVL111
 10370 0f27 0100     		.2byte	0x1
 10371 0f29 5B       		.byte	0x5b
 10372 0f2a 0C010000 		.4byte	.LVL117
 10373 0f2e 16010000 		.4byte	.LVL119
 10374 0f32 0200     		.2byte	0x2
 10375 0f34 79       		.byte	0x79
 10376 0f35 02       		.sleb128 2
 10377 0f36 7E010000 		.4byte	.LVL125
 10378 0f3a FA010000 		.4byte	.LVL134
 10379 0f3e 0300     		.2byte	0x3
 10380 0f40 91       		.byte	0x91
 10381 0f41 AC7F     		.sleb128 -84
 10382 0f43 92030000 		.4byte	.LVL154
 10383 0f47 BC030000 		.4byte	.LVL159
 10384 0f4b 0300     		.2byte	0x3
 10385 0f4d 91       		.byte	0x91
 10386 0f4e AC7F     		.sleb128 -84
 10387 0f50 3A050000 		.4byte	.LVL193
 10388 0f54 52050000 		.4byte	.LVL198
 10389 0f58 0300     		.2byte	0x3
 10390 0f5a 91       		.byte	0x91
 10391 0f5b AC7F     		.sleb128 -84
 10392 0f5d 66050000 		.4byte	.LVL200
 10393 0f61 6C050000 		.4byte	.LVL202
 10394 0f65 0300     		.2byte	0x3
 10395 0f67 91       		.byte	0x91
 10396 0f68 AC7F     		.sleb128 -84
 10397 0f6a 00000000 		.4byte	0
 10398 0f6e 00000000 		.4byte	0
 10399              	.LLST73:
ARM GAS  /tmp/ccAUe7jC.s 			page 184


 10400 0f72 86010000 		.4byte	.LVL126
 10401 0f76 9A010000 		.4byte	.LVL127
 10402 0f7a 0100     		.2byte	0x1
 10403 0f7c 52       		.byte	0x52
 10404 0f7d 00000000 		.4byte	0
 10405 0f81 00000000 		.4byte	0
 10406              	.LLST74:
 10407 0f85 AA010000 		.4byte	.LVL128
 10408 0f89 D8010000 		.4byte	.LVL131
 10409 0f8d 0100     		.2byte	0x1
 10410 0f8f 53       		.byte	0x53
 10411 0f90 D8010000 		.4byte	.LVL131
 10412 0f94 02020000 		.4byte	.LVL135
 10413 0f98 0300     		.2byte	0x3
 10414 0f9a 91       		.byte	0x91
 10415 0f9b AA7F     		.sleb128 -86
 10416 0f9d 92030000 		.4byte	.LVL154
 10417 0fa1 A4030000 		.4byte	.LVL156
 10418 0fa5 0100     		.2byte	0x1
 10419 0fa7 53       		.byte	0x53
 10420 0fa8 A4030000 		.4byte	.LVL156
 10421 0fac BC030000 		.4byte	.LVL159
 10422 0fb0 0300     		.2byte	0x3
 10423 0fb2 91       		.byte	0x91
 10424 0fb3 AA7F     		.sleb128 -86
 10425 0fb5 3A050000 		.4byte	.LVL193
 10426 0fb9 3E050000 		.4byte	.LVL194
 10427 0fbd 0100     		.2byte	0x1
 10428 0fbf 53       		.byte	0x53
 10429 0fc0 3E050000 		.4byte	.LVL194
 10430 0fc4 52050000 		.4byte	.LVL198
 10431 0fc8 0300     		.2byte	0x3
 10432 0fca 91       		.byte	0x91
 10433 0fcb AA7F     		.sleb128 -86
 10434 0fcd 66050000 		.4byte	.LVL200
 10435 0fd1 6A050000 		.4byte	.LVL201
 10436 0fd5 0100     		.2byte	0x1
 10437 0fd7 53       		.byte	0x53
 10438 0fd8 6A050000 		.4byte	.LVL201
 10439 0fdc 6C050000 		.4byte	.LVL202
 10440 0fe0 0300     		.2byte	0x3
 10441 0fe2 91       		.byte	0x91
 10442 0fe3 AA7F     		.sleb128 -86
 10443 0fe5 00000000 		.4byte	0
 10444 0fe9 00000000 		.4byte	0
 10445              	.LLST75:
 10446 0fed B0010000 		.4byte	.LVL129
 10447 0ff1 D2010000 		.4byte	.LVL130
 10448 0ff5 0100     		.2byte	0x1
 10449 0ff7 52       		.byte	0x52
 10450 0ff8 D2010000 		.4byte	.LVL130
 10451 0ffc 02020000 		.4byte	.LVL135
 10452 1000 0300     		.2byte	0x3
 10453 1002 91       		.byte	0x91
 10454 1003 9A7F     		.sleb128 -102
 10455 1005 92030000 		.4byte	.LVL154
 10456 1009 AA030000 		.4byte	.LVL157
ARM GAS  /tmp/ccAUe7jC.s 			page 185


 10457 100d 0100     		.2byte	0x1
 10458 100f 52       		.byte	0x52
 10459 1010 AA030000 		.4byte	.LVL157
 10460 1014 BC030000 		.4byte	.LVL159
 10461 1018 0300     		.2byte	0x3
 10462 101a 91       		.byte	0x91
 10463 101b 9A7F     		.sleb128 -102
 10464 101d 3A050000 		.4byte	.LVL193
 10465 1021 44050000 		.4byte	.LVL196
 10466 1025 0100     		.2byte	0x1
 10467 1027 52       		.byte	0x52
 10468 1028 44050000 		.4byte	.LVL196
 10469 102c 52050000 		.4byte	.LVL198
 10470 1030 0300     		.2byte	0x3
 10471 1032 91       		.byte	0x91
 10472 1033 9A7F     		.sleb128 -102
 10473 1035 66050000 		.4byte	.LVL200
 10474 1039 6C050000 		.4byte	.LVL202
 10475 103d 0100     		.2byte	0x1
 10476 103f 52       		.byte	0x52
 10477 1040 00000000 		.4byte	0
 10478 1044 00000000 		.4byte	0
 10479              	.LLST76:
 10480 1048 00000000 		.4byte	.LFB133
 10481 104c 04000000 		.4byte	.LCFI22
 10482 1050 0200     		.2byte	0x2
 10483 1052 7D       		.byte	0x7d
 10484 1053 00       		.sleb128 0
 10485 1054 04000000 		.4byte	.LCFI22
 10486 1058 06000000 		.4byte	.LCFI23
 10487 105c 0200     		.2byte	0x2
 10488 105e 7D       		.byte	0x7d
 10489 105f 24       		.sleb128 36
 10490 1060 06000000 		.4byte	.LCFI23
 10491 1064 7C000000 		.4byte	.LFE133
 10492 1068 0200     		.2byte	0x2
 10493 106a 7D       		.byte	0x7d
 10494 106b 30       		.sleb128 48
 10495 106c 00000000 		.4byte	0
 10496 1070 00000000 		.4byte	0
 10497              	.LLST77:
 10498 1074 00000000 		.4byte	.LVL204
 10499 1078 20000000 		.4byte	.LVL208
 10500 107c 0100     		.2byte	0x1
 10501 107e 50       		.byte	0x50
 10502 107f 20000000 		.4byte	.LVL208
 10503 1083 26000000 		.4byte	.LVL210
 10504 1087 0100     		.2byte	0x1
 10505 1089 5B       		.byte	0x5b
 10506 108a 54000000 		.4byte	.LVL212
 10507 108e 68000000 		.4byte	.LVL214
 10508 1092 0100     		.2byte	0x1
 10509 1094 5B       		.byte	0x5b
 10510 1095 6C000000 		.4byte	.LVL215
 10511 1099 70000000 		.4byte	.LVL216
 10512 109d 0100     		.2byte	0x1
 10513 109f 5B       		.byte	0x5b
ARM GAS  /tmp/ccAUe7jC.s 			page 186


 10514 10a0 00000000 		.4byte	0
 10515 10a4 00000000 		.4byte	0
 10516              	.LLST78:
 10517 10a8 00000000 		.4byte	.LVL204
 10518 10ac 20000000 		.4byte	.LVL208
 10519 10b0 0100     		.2byte	0x1
 10520 10b2 51       		.byte	0x51
 10521 10b3 20000000 		.4byte	.LVL208
 10522 10b7 7C000000 		.4byte	.LFE133
 10523 10bb 0400     		.2byte	0x4
 10524 10bd F3       		.byte	0xf3
 10525 10be 01       		.uleb128 0x1
 10526 10bf 51       		.byte	0x51
 10527 10c0 9F       		.byte	0x9f
 10528 10c1 00000000 		.4byte	0
 10529 10c5 00000000 		.4byte	0
 10530              	.LLST79:
 10531 10c9 00000000 		.4byte	.LVL204
 10532 10cd 20000000 		.4byte	.LVL208
 10533 10d1 0100     		.2byte	0x1
 10534 10d3 52       		.byte	0x52
 10535 10d4 00000000 		.4byte	0
 10536 10d8 00000000 		.4byte	0
 10537              	.LLST80:
 10538 10dc 00000000 		.4byte	.LVL204
 10539 10e0 14000000 		.4byte	.LVL206
 10540 10e4 0100     		.2byte	0x1
 10541 10e6 53       		.byte	0x53
 10542 10e7 14000000 		.4byte	.LVL206
 10543 10eb 7C000000 		.4byte	.LFE133
 10544 10ef 0100     		.2byte	0x1
 10545 10f1 54       		.byte	0x54
 10546 10f2 00000000 		.4byte	0
 10547 10f6 00000000 		.4byte	0
 10548              	.LLST81:
 10549 10fa 40000000 		.4byte	.LVL211
 10550 10fe 70000000 		.4byte	.LVL216
 10551 1102 0100     		.2byte	0x1
 10552 1104 56       		.byte	0x56
 10553 1105 76000000 		.4byte	.LVL217
 10554 1109 7C000000 		.4byte	.LFE133
 10555 110d 0100     		.2byte	0x1
 10556 110f 56       		.byte	0x56
 10557 1110 00000000 		.4byte	0
 10558 1114 00000000 		.4byte	0
 10559              	.LLST82:
 10560 1118 1C000000 		.4byte	.LVL207
 10561 111c 70000000 		.4byte	.LVL216
 10562 1120 0100     		.2byte	0x1
 10563 1122 57       		.byte	0x57
 10564 1123 76000000 		.4byte	.LVL217
 10565 1127 7C000000 		.4byte	.LFE133
 10566 112b 0100     		.2byte	0x1
 10567 112d 57       		.byte	0x57
 10568 112e 00000000 		.4byte	0
 10569 1132 00000000 		.4byte	0
 10570              	.LLST83:
ARM GAS  /tmp/ccAUe7jC.s 			page 187


 10571 1136 24000000 		.4byte	.LVL209
 10572 113a 26000000 		.4byte	.LVL210
 10573 113e 0200     		.2byte	0x2
 10574 1140 75       		.byte	0x75
 10575 1141 00       		.sleb128 0
 10576 1142 6C000000 		.4byte	.LVL215
 10577 1146 70000000 		.4byte	.LVL216
 10578 114a 0200     		.2byte	0x2
 10579 114c 75       		.byte	0x75
 10580 114d 00       		.sleb128 0
 10581 114e 00000000 		.4byte	0
 10582 1152 00000000 		.4byte	0
 10583              	.LLST84:
 10584 1156 12000000 		.4byte	.LVL205
 10585 115a 20000000 		.4byte	.LVL208
 10586 115e 0200     		.2byte	0x2
 10587 1160 31       		.byte	0x31
 10588 1161 9F       		.byte	0x9f
 10589 1162 20000000 		.4byte	.LVL208
 10590 1166 70000000 		.4byte	.LVL216
 10591 116a 0100     		.2byte	0x1
 10592 116c 5A       		.byte	0x5a
 10593 116d 76000000 		.4byte	.LVL217
 10594 1171 7A000000 		.4byte	.LVL218
 10595 1175 0100     		.2byte	0x1
 10596 1177 5A       		.byte	0x5a
 10597 1178 00000000 		.4byte	0
 10598 117c 00000000 		.4byte	0
 10599              	.LLST85:
 10600 1180 00000000 		.4byte	.LFB134
 10601 1184 04000000 		.4byte	.LCFI24
 10602 1188 0200     		.2byte	0x2
 10603 118a 7D       		.byte	0x7d
 10604 118b 00       		.sleb128 0
 10605 118c 04000000 		.4byte	.LCFI24
 10606 1190 06000000 		.4byte	.LCFI25
 10607 1194 0200     		.2byte	0x2
 10608 1196 7D       		.byte	0x7d
 10609 1197 24       		.sleb128 36
 10610 1198 06000000 		.4byte	.LCFI25
 10611 119c B4000000 		.4byte	.LFE134
 10612 11a0 0300     		.2byte	0x3
 10613 11a2 7D       		.byte	0x7d
 10614 11a3 C800     		.sleb128 72
 10615 11a5 00000000 		.4byte	0
 10616 11a9 00000000 		.4byte	0
 10617              	.LLST86:
 10618 11ad 00000000 		.4byte	.LVL219
 10619 11b1 1C000000 		.4byte	.LVL222
 10620 11b5 0100     		.2byte	0x1
 10621 11b7 50       		.byte	0x50
 10622 11b8 1C000000 		.4byte	.LVL222
 10623 11bc 40000000 		.4byte	.LVL227
 10624 11c0 0400     		.2byte	0x4
 10625 11c2 F3       		.byte	0xf3
 10626 11c3 01       		.uleb128 0x1
 10627 11c4 50       		.byte	0x50
ARM GAS  /tmp/ccAUe7jC.s 			page 188


 10628 11c5 9F       		.byte	0x9f
 10629 11c6 40000000 		.4byte	.LVL227
 10630 11ca 46000000 		.4byte	.LVL229
 10631 11ce 0100     		.2byte	0x1
 10632 11d0 5B       		.byte	0x5b
 10633 11d1 72000000 		.4byte	.LVL231
 10634 11d5 8C000000 		.4byte	.LVL233
 10635 11d9 0100     		.2byte	0x1
 10636 11db 5B       		.byte	0x5b
 10637 11dc 8C000000 		.4byte	.LVL233
 10638 11e0 90000000 		.4byte	.LVL234
 10639 11e4 0100     		.2byte	0x1
 10640 11e6 54       		.byte	0x54
 10641 11e7 90000000 		.4byte	.LVL234
 10642 11eb 94000000 		.4byte	.LVL235
 10643 11ef 0100     		.2byte	0x1
 10644 11f1 5B       		.byte	0x5b
 10645 11f2 B2000000 		.4byte	.LVL238
 10646 11f6 B4000000 		.4byte	.LFE134
 10647 11fa 0100     		.2byte	0x1
 10648 11fc 5B       		.byte	0x5b
 10649 11fd 00000000 		.4byte	0
 10650 1201 00000000 		.4byte	0
 10651              	.LLST87:
 10652 1205 00000000 		.4byte	.LVL219
 10653 1209 0C000000 		.4byte	.LVL220
 10654 120d 0100     		.2byte	0x1
 10655 120f 51       		.byte	0x51
 10656 1210 0C000000 		.4byte	.LVL220
 10657 1214 B4000000 		.4byte	.LFE134
 10658 1218 0400     		.2byte	0x4
 10659 121a F3       		.byte	0xf3
 10660 121b 01       		.uleb128 0x1
 10661 121c 51       		.byte	0x51
 10662 121d 9F       		.byte	0x9f
 10663 121e 00000000 		.4byte	0
 10664 1222 00000000 		.4byte	0
 10665              	.LLST88:
 10666 1226 00000000 		.4byte	.LVL219
 10667 122a 36000000 		.4byte	.LVL226
 10668 122e 0100     		.2byte	0x1
 10669 1230 52       		.byte	0x52
 10670 1231 36000000 		.4byte	.LVL226
 10671 1235 40000000 		.4byte	.LVL227
 10672 1239 0300     		.2byte	0x3
 10673 123b 76       		.byte	0x76
 10674 123c 01       		.sleb128 1
 10675 123d 9F       		.byte	0x9f
 10676 123e 00000000 		.4byte	0
 10677 1242 00000000 		.4byte	0
 10678              	.LLST89:
 10679 1246 00000000 		.4byte	.LVL219
 10680 124a 22000000 		.4byte	.LVL223
 10681 124e 0100     		.2byte	0x1
 10682 1250 53       		.byte	0x53
 10683 1251 22000000 		.4byte	.LVL223
 10684 1255 B4000000 		.4byte	.LFE134
ARM GAS  /tmp/ccAUe7jC.s 			page 189


 10685 1259 0100     		.2byte	0x1
 10686 125b 55       		.byte	0x55
 10687 125c 00000000 		.4byte	0
 10688 1260 00000000 		.4byte	0
 10689              	.LLST90:
 10690 1264 60000000 		.4byte	.LVL230
 10691 1268 94000000 		.4byte	.LVL235
 10692 126c 0100     		.2byte	0x1
 10693 126e 57       		.byte	0x57
 10694 126f 9A000000 		.4byte	.LVL236
 10695 1273 B4000000 		.4byte	.LFE134
 10696 1277 0100     		.2byte	0x1
 10697 1279 57       		.byte	0x57
 10698 127a 00000000 		.4byte	0
 10699 127e 00000000 		.4byte	0
 10700              	.LLST91:
 10701 1282 2A000000 		.4byte	.LVL224
 10702 1286 40000000 		.4byte	.LVL227
 10703 128a 0100     		.2byte	0x1
 10704 128c 53       		.byte	0x53
 10705 128d 00000000 		.4byte	0
 10706 1291 00000000 		.4byte	0
 10707              	.LLST92:
 10708 1295 2E000000 		.4byte	.LVL225
 10709 1299 40000000 		.4byte	.LVL227
 10710 129d 0100     		.2byte	0x1
 10711 129f 51       		.byte	0x51
 10712 12a0 40000000 		.4byte	.LVL227
 10713 12a4 94000000 		.4byte	.LVL235
 10714 12a8 0100     		.2byte	0x1
 10715 12aa 58       		.byte	0x58
 10716 12ab 9A000000 		.4byte	.LVL236
 10717 12af B4000000 		.4byte	.LFE134
 10718 12b3 0100     		.2byte	0x1
 10719 12b5 58       		.byte	0x58
 10720 12b6 00000000 		.4byte	0
 10721 12ba 00000000 		.4byte	0
 10722              	.LLST93:
 10723 12be 44000000 		.4byte	.LVL228
 10724 12c2 46000000 		.4byte	.LVL229
 10725 12c6 0200     		.2byte	0x2
 10726 12c8 76       		.byte	0x76
 10727 12c9 00       		.sleb128 0
 10728 12ca 90000000 		.4byte	.LVL234
 10729 12ce 94000000 		.4byte	.LVL235
 10730 12d2 0200     		.2byte	0x2
 10731 12d4 76       		.byte	0x76
 10732 12d5 00       		.sleb128 0
 10733 12d6 00000000 		.4byte	0
 10734 12da 00000000 		.4byte	0
 10735              	.LLST94:
 10736 12de 1A000000 		.4byte	.LVL221
 10737 12e2 40000000 		.4byte	.LVL227
 10738 12e6 0200     		.2byte	0x2
 10739 12e8 31       		.byte	0x31
 10740 12e9 9F       		.byte	0x9f
 10741 12ea 40000000 		.4byte	.LVL227
ARM GAS  /tmp/ccAUe7jC.s 			page 190


 10742 12ee 94000000 		.4byte	.LVL235
 10743 12f2 0200     		.2byte	0x2
 10744 12f4 91       		.byte	0x91
 10745 12f5 48       		.sleb128 -56
 10746 12f6 9A000000 		.4byte	.LVL236
 10747 12fa B4000000 		.4byte	.LFE134
 10748 12fe 0200     		.2byte	0x2
 10749 1300 91       		.byte	0x91
 10750 1301 48       		.sleb128 -56
 10751 1302 00000000 		.4byte	0
 10752 1306 00000000 		.4byte	0
 10753              	.LLST95:
 10754 130a 00000000 		.4byte	.LVL239
 10755 130e 12000000 		.4byte	.LVL240
 10756 1312 0100     		.2byte	0x1
 10757 1314 50       		.byte	0x50
 10758 1315 12000000 		.4byte	.LVL240
 10759 1319 1A000000 		.4byte	.LVL241
 10760 131d 0400     		.2byte	0x4
 10761 131f F3       		.byte	0xf3
 10762 1320 01       		.uleb128 0x1
 10763 1321 50       		.byte	0x50
 10764 1322 9F       		.byte	0x9f
 10765 1323 1A000000 		.4byte	.LVL241
 10766 1327 1E000000 		.4byte	.LVL242
 10767 132b 0100     		.2byte	0x1
 10768 132d 50       		.byte	0x50
 10769 132e 1E000000 		.4byte	.LVL242
 10770 1332 20000000 		.4byte	.LVL243
 10771 1336 0400     		.2byte	0x4
 10772 1338 F3       		.byte	0xf3
 10773 1339 01       		.uleb128 0x1
 10774 133a 50       		.byte	0x50
 10775 133b 9F       		.byte	0x9f
 10776 133c 20000000 		.4byte	.LVL243
 10777 1340 2A000000 		.4byte	.LVL245
 10778 1344 0100     		.2byte	0x1
 10779 1346 50       		.byte	0x50
 10780 1347 2A000000 		.4byte	.LVL245
 10781 134b 2C000000 		.4byte	.LVL246
 10782 134f 0400     		.2byte	0x4
 10783 1351 F3       		.byte	0xf3
 10784 1352 01       		.uleb128 0x1
 10785 1353 50       		.byte	0x50
 10786 1354 9F       		.byte	0x9f
 10787 1355 2C000000 		.4byte	.LVL246
 10788 1359 30000000 		.4byte	.LVL247
 10789 135d 0100     		.2byte	0x1
 10790 135f 50       		.byte	0x50
 10791 1360 30000000 		.4byte	.LVL247
 10792 1364 38000000 		.4byte	.LVL248
 10793 1368 0400     		.2byte	0x4
 10794 136a F3       		.byte	0xf3
 10795 136b 01       		.uleb128 0x1
 10796 136c 50       		.byte	0x50
 10797 136d 9F       		.byte	0x9f
 10798 136e 38000000 		.4byte	.LVL248
ARM GAS  /tmp/ccAUe7jC.s 			page 191


 10799 1372 42000000 		.4byte	.LVL250
 10800 1376 0100     		.2byte	0x1
 10801 1378 50       		.byte	0x50
 10802 1379 42000000 		.4byte	.LVL250
 10803 137d 44000000 		.4byte	.LVL251
 10804 1381 0400     		.2byte	0x4
 10805 1383 F3       		.byte	0xf3
 10806 1384 01       		.uleb128 0x1
 10807 1385 50       		.byte	0x50
 10808 1386 9F       		.byte	0x9f
 10809 1387 44000000 		.4byte	.LVL251
 10810 138b 48000000 		.4byte	.LVL252
 10811 138f 0100     		.2byte	0x1
 10812 1391 50       		.byte	0x50
 10813 1392 48000000 		.4byte	.LVL252
 10814 1396 50000000 		.4byte	.LVL253
 10815 139a 0400     		.2byte	0x4
 10816 139c F3       		.byte	0xf3
 10817 139d 01       		.uleb128 0x1
 10818 139e 50       		.byte	0x50
 10819 139f 9F       		.byte	0x9f
 10820 13a0 50000000 		.4byte	.LVL253
 10821 13a4 5A000000 		.4byte	.LVL255
 10822 13a8 0100     		.2byte	0x1
 10823 13aa 50       		.byte	0x50
 10824 13ab 5A000000 		.4byte	.LVL255
 10825 13af 5C000000 		.4byte	.LFE137
 10826 13b3 0400     		.2byte	0x4
 10827 13b5 F3       		.byte	0xf3
 10828 13b6 01       		.uleb128 0x1
 10829 13b7 50       		.byte	0x50
 10830 13b8 9F       		.byte	0x9f
 10831 13b9 00000000 		.4byte	0
 10832 13bd 00000000 		.4byte	0
 10833              	.LLST96:
 10834 13c1 00000000 		.4byte	.LVL239
 10835 13c5 22000000 		.4byte	.LVL244
 10836 13c9 0100     		.2byte	0x1
 10837 13cb 51       		.byte	0x51
 10838 13cc 22000000 		.4byte	.LVL244
 10839 13d0 2C000000 		.4byte	.LVL246
 10840 13d4 0400     		.2byte	0x4
 10841 13d6 F3       		.byte	0xf3
 10842 13d7 01       		.uleb128 0x1
 10843 13d8 51       		.byte	0x51
 10844 13d9 9F       		.byte	0x9f
 10845 13da 2C000000 		.4byte	.LVL246
 10846 13de 3A000000 		.4byte	.LVL249
 10847 13e2 0100     		.2byte	0x1
 10848 13e4 51       		.byte	0x51
 10849 13e5 3A000000 		.4byte	.LVL249
 10850 13e9 44000000 		.4byte	.LVL251
 10851 13ed 0400     		.2byte	0x4
 10852 13ef F3       		.byte	0xf3
 10853 13f0 01       		.uleb128 0x1
 10854 13f1 51       		.byte	0x51
 10855 13f2 9F       		.byte	0x9f
ARM GAS  /tmp/ccAUe7jC.s 			page 192


 10856 13f3 44000000 		.4byte	.LVL251
 10857 13f7 52000000 		.4byte	.LVL254
 10858 13fb 0100     		.2byte	0x1
 10859 13fd 51       		.byte	0x51
 10860 13fe 52000000 		.4byte	.LVL254
 10861 1402 5C000000 		.4byte	.LFE137
 10862 1406 0400     		.2byte	0x4
 10863 1408 F3       		.byte	0xf3
 10864 1409 01       		.uleb128 0x1
 10865 140a 51       		.byte	0x51
 10866 140b 9F       		.byte	0x9f
 10867 140c 00000000 		.4byte	0
 10868 1410 00000000 		.4byte	0
 10869              	.LLST97:
 10870 1414 00000000 		.4byte	.LVL256
 10871 1418 0E000000 		.4byte	.LVL257
 10872 141c 0100     		.2byte	0x1
 10873 141e 50       		.byte	0x50
 10874 141f 0E000000 		.4byte	.LVL257
 10875 1423 1C000000 		.4byte	.LVL259
 10876 1427 0400     		.2byte	0x4
 10877 1429 F3       		.byte	0xf3
 10878 142a 01       		.uleb128 0x1
 10879 142b 50       		.byte	0x50
 10880 142c 9F       		.byte	0x9f
 10881 142d 1C000000 		.4byte	.LVL259
 10882 1431 1E000000 		.4byte	.LVL260
 10883 1435 0100     		.2byte	0x1
 10884 1437 50       		.byte	0x50
 10885 1438 1E000000 		.4byte	.LVL260
 10886 143c 22000000 		.4byte	.LFE138
 10887 1440 0400     		.2byte	0x4
 10888 1442 F3       		.byte	0xf3
 10889 1443 01       		.uleb128 0x1
 10890 1444 50       		.byte	0x50
 10891 1445 9F       		.byte	0x9f
 10892 1446 00000000 		.4byte	0
 10893 144a 00000000 		.4byte	0
 10894              	.LLST98:
 10895 144e 00000000 		.4byte	.LVL256
 10896 1452 12000000 		.4byte	.LVL258
 10897 1456 0100     		.2byte	0x1
 10898 1458 51       		.byte	0x51
 10899 1459 12000000 		.4byte	.LVL258
 10900 145d 1C000000 		.4byte	.LVL259
 10901 1461 0400     		.2byte	0x4
 10902 1463 F3       		.byte	0xf3
 10903 1464 01       		.uleb128 0x1
 10904 1465 51       		.byte	0x51
 10905 1466 9F       		.byte	0x9f
 10906 1467 1C000000 		.4byte	.LVL259
 10907 146b 22000000 		.4byte	.LFE138
 10908 146f 0100     		.2byte	0x1
 10909 1471 51       		.byte	0x51
 10910 1472 00000000 		.4byte	0
 10911 1476 00000000 		.4byte	0
 10912              	.LLST99:
ARM GAS  /tmp/ccAUe7jC.s 			page 193


 10913 147a 00000000 		.4byte	.LFB139
 10914 147e 02000000 		.4byte	.LCFI26
 10915 1482 0200     		.2byte	0x2
 10916 1484 7D       		.byte	0x7d
 10917 1485 00       		.sleb128 0
 10918 1486 02000000 		.4byte	.LCFI26
 10919 148a 52000000 		.4byte	.LFE139
 10920 148e 0200     		.2byte	0x2
 10921 1490 7D       		.byte	0x7d
 10922 1491 10       		.sleb128 16
 10923 1492 00000000 		.4byte	0
 10924 1496 00000000 		.4byte	0
 10925              	.LLST100:
 10926 149a 00000000 		.4byte	.LVL261
 10927 149e 0A000000 		.4byte	.LVL262
 10928 14a2 0100     		.2byte	0x1
 10929 14a4 50       		.byte	0x50
 10930 14a5 0A000000 		.4byte	.LVL262
 10931 14a9 12000000 		.4byte	.LVL264
 10932 14ad 0300     		.2byte	0x3
 10933 14af 70       		.byte	0x70
 10934 14b0 01       		.sleb128 1
 10935 14b1 9F       		.byte	0x9f
 10936 14b2 00000000 		.4byte	0
 10937 14b6 00000000 		.4byte	0
 10938              	.LLST101:
 10939 14ba 30000000 		.4byte	.LVL267
 10940 14be 42000000 		.4byte	.LVL270
 10941 14c2 0100     		.2byte	0x1
 10942 14c4 53       		.byte	0x53
 10943 14c5 4E000000 		.4byte	.LVL273
 10944 14c9 52000000 		.4byte	.LFE139
 10945 14cd 0100     		.2byte	0x1
 10946 14cf 53       		.byte	0x53
 10947 14d0 00000000 		.4byte	0
 10948 14d4 00000000 		.4byte	0
 10949              	.LLST102:
 10950 14d8 00000000 		.4byte	.LVL261
 10951 14dc 12000000 		.4byte	.LVL264
 10952 14e0 0200     		.2byte	0x2
 10953 14e2 30       		.byte	0x30
 10954 14e3 9F       		.byte	0x9f
 10955 14e4 12000000 		.4byte	.LVL264
 10956 14e8 18000000 		.4byte	.LVL266
 10957 14ec 0100     		.2byte	0x1
 10958 14ee 54       		.byte	0x54
 10959 14ef 3C000000 		.4byte	.LVL268
 10960 14f3 3E000000 		.4byte	.LVL269
 10961 14f7 0100     		.2byte	0x1
 10962 14f9 54       		.byte	0x54
 10963 14fa 44000000 		.4byte	.LVL271
 10964 14fe 48000000 		.4byte	.LVL272
 10965 1502 0100     		.2byte	0x1
 10966 1504 54       		.byte	0x54
 10967 1505 00000000 		.4byte	0
 10968 1509 00000000 		.4byte	0
 10969              	.LLST103:
ARM GAS  /tmp/ccAUe7jC.s 			page 194


 10970 150d 16000000 		.4byte	.LVL265
 10971 1511 18000000 		.4byte	.LVL266
 10972 1515 0200     		.2byte	0x2
 10973 1517 70       		.byte	0x70
 10974 1518 00       		.sleb128 0
 10975 1519 44000000 		.4byte	.LVL271
 10976 151d 48000000 		.4byte	.LVL272
 10977 1521 0200     		.2byte	0x2
 10978 1523 70       		.byte	0x70
 10979 1524 00       		.sleb128 0
 10980 1525 00000000 		.4byte	0
 10981 1529 00000000 		.4byte	0
 10982              	.LLST104:
 10983 152d 00000000 		.4byte	.LVL261
 10984 1531 12000000 		.4byte	.LVL264
 10985 1535 0200     		.2byte	0x2
 10986 1537 31       		.byte	0x31
 10987 1538 9F       		.byte	0x9f
 10988 1539 12000000 		.4byte	.LVL264
 10989 153d 50000000 		.4byte	.LVL274
 10990 1541 0100     		.2byte	0x1
 10991 1543 57       		.byte	0x57
 10992 1544 00000000 		.4byte	0
 10993 1548 00000000 		.4byte	0
 10994              	.LLST105:
 10995 154c 00000000 		.4byte	.LFB136
 10996 1550 04000000 		.4byte	.LCFI27
 10997 1554 0200     		.2byte	0x2
 10998 1556 7D       		.byte	0x7d
 10999 1557 00       		.sleb128 0
 11000 1558 04000000 		.4byte	.LCFI27
 11001 155c 06000000 		.4byte	.LCFI28
 11002 1560 0200     		.2byte	0x2
 11003 1562 7D       		.byte	0x7d
 11004 1563 24       		.sleb128 36
 11005 1564 06000000 		.4byte	.LCFI28
 11006 1568 FC030000 		.4byte	.LFE136
 11007 156c 0300     		.2byte	0x3
 11008 156e 7D       		.byte	0x7d
 11009 156f D800     		.sleb128 88
 11010 1571 00000000 		.4byte	0
 11011 1575 00000000 		.4byte	0
 11012              	.LLST106:
 11013 1579 00000000 		.4byte	.LVL275
 11014 157d 69000000 		.4byte	.LVL280-1
 11015 1581 0100     		.2byte	0x1
 11016 1583 50       		.byte	0x50
 11017 1584 69000000 		.4byte	.LVL280-1
 11018 1588 FC030000 		.4byte	.LFE136
 11019 158c 0400     		.2byte	0x4
 11020 158e F3       		.byte	0xf3
 11021 158f 01       		.uleb128 0x1
 11022 1590 50       		.byte	0x50
 11023 1591 9F       		.byte	0x9f
 11024 1592 00000000 		.4byte	0
 11025 1596 00000000 		.4byte	0
 11026              	.LLST107:
ARM GAS  /tmp/ccAUe7jC.s 			page 195


 11027 159a 00000000 		.4byte	.LVL275
 11028 159e 69000000 		.4byte	.LVL280-1
 11029 15a2 0100     		.2byte	0x1
 11030 15a4 51       		.byte	0x51
 11031 15a5 69000000 		.4byte	.LVL280-1
 11032 15a9 7C000000 		.4byte	.LVL282
 11033 15ad 0400     		.2byte	0x4
 11034 15af F3       		.byte	0xf3
 11035 15b0 01       		.uleb128 0x1
 11036 15b1 51       		.byte	0x51
 11037 15b2 9F       		.byte	0x9f
 11038 15b3 7C000000 		.4byte	.LVL282
 11039 15b7 84010000 		.4byte	.LVL304
 11040 15bb 0300     		.2byte	0x3
 11041 15bd 91       		.byte	0x91
 11042 15be BC7F     		.sleb128 -68
 11043 15c0 8A010000 		.4byte	.LVL305
 11044 15c4 FC030000 		.4byte	.LFE136
 11045 15c8 0300     		.2byte	0x3
 11046 15ca 91       		.byte	0x91
 11047 15cb BC7F     		.sleb128 -68
 11048 15cd 00000000 		.4byte	0
 11049 15d1 00000000 		.4byte	0
 11050              	.LLST108:
 11051 15d5 00000000 		.4byte	.LVL275
 11052 15d9 69000000 		.4byte	.LVL280-1
 11053 15dd 0100     		.2byte	0x1
 11054 15df 52       		.byte	0x52
 11055 15e0 69000000 		.4byte	.LVL280-1
 11056 15e4 FC030000 		.4byte	.LFE136
 11057 15e8 0400     		.2byte	0x4
 11058 15ea F3       		.byte	0xf3
 11059 15eb 01       		.uleb128 0x1
 11060 15ec 52       		.byte	0x52
 11061 15ed 9F       		.byte	0x9f
 11062 15ee 00000000 		.4byte	0
 11063 15f2 00000000 		.4byte	0
 11064              	.LLST109:
 11065 15f6 00000000 		.4byte	.LVL275
 11066 15fa 24000000 		.4byte	.LVL276
 11067 15fe 0100     		.2byte	0x1
 11068 1600 53       		.byte	0x53
 11069 1601 24000000 		.4byte	.LVL276
 11070 1605 7E000000 		.4byte	.LVL283
 11071 1609 0400     		.2byte	0x4
 11072 160b F3       		.byte	0xf3
 11073 160c 01       		.uleb128 0x1
 11074 160d 53       		.byte	0x53
 11075 160e 9F       		.byte	0x9f
 11076 160f 7E000000 		.4byte	.LVL283
 11077 1613 A4000000 		.4byte	.LVL285
 11078 1617 0200     		.2byte	0x2
 11079 1619 91       		.byte	0x91
 11080 161a 4C       		.sleb128 -52
 11081 161b A4000000 		.4byte	.LVL285
 11082 161f AC000000 		.4byte	.LVL286
 11083 1623 0200     		.2byte	0x2
ARM GAS  /tmp/ccAUe7jC.s 			page 196


 11084 1625 91       		.byte	0x91
 11085 1626 54       		.sleb128 -44
 11086 1627 BC000000 		.4byte	.LVL287
 11087 162b 84010000 		.4byte	.LVL304
 11088 162f 0200     		.2byte	0x2
 11089 1631 91       		.byte	0x91
 11090 1632 4C       		.sleb128 -52
 11091 1633 8A010000 		.4byte	.LVL305
 11092 1637 FC030000 		.4byte	.LFE136
 11093 163b 0200     		.2byte	0x2
 11094 163d 91       		.byte	0x91
 11095 163e 4C       		.sleb128 -52
 11096 163f 00000000 		.4byte	0
 11097 1643 00000000 		.4byte	0
 11098              	.LLST110:
 11099 1647 00000000 		.4byte	.LVL275
 11100 164b 40000000 		.4byte	.LVL277
 11101 164f 0200     		.2byte	0x2
 11102 1651 91       		.byte	0x91
 11103 1652 00       		.sleb128 0
 11104 1653 40000000 		.4byte	.LVL277
 11105 1657 52000000 		.4byte	.LVL278
 11106 165b 0100     		.2byte	0x1
 11107 165d 54       		.byte	0x54
 11108 165e 52000000 		.4byte	.LVL278
 11109 1662 CE000000 		.4byte	.LVL290
 11110 1666 0200     		.2byte	0x2
 11111 1668 91       		.byte	0x91
 11112 1669 00       		.sleb128 0
 11113 166a 8A010000 		.4byte	.LVL305
 11114 166e B0010000 		.4byte	.LVL309
 11115 1672 0200     		.2byte	0x2
 11116 1674 91       		.byte	0x91
 11117 1675 00       		.sleb128 0
 11118 1676 B2010000 		.4byte	.LVL310
 11119 167a B6010000 		.4byte	.LVL311
 11120 167e 0100     		.2byte	0x1
 11121 1680 53       		.byte	0x53
 11122 1681 B6010000 		.4byte	.LVL311
 11123 1685 BE010000 		.4byte	.LVL312
 11124 1689 0100     		.2byte	0x1
 11125 168b 58       		.byte	0x58
 11126 168c BE010000 		.4byte	.LVL312
 11127 1690 FA010000 		.4byte	.LVL319
 11128 1694 0100     		.2byte	0x1
 11129 1696 53       		.byte	0x53
 11130 1697 38020000 		.4byte	.LVL327
 11131 169b 40020000 		.4byte	.LVL328
 11132 169f 0100     		.2byte	0x1
 11133 16a1 50       		.byte	0x50
 11134 16a2 4E020000 		.4byte	.LVL330
 11135 16a6 A4020000 		.4byte	.LVL333
 11136 16aa 0100     		.2byte	0x1
 11137 16ac 53       		.byte	0x53
 11138 16ad A4020000 		.4byte	.LVL333
 11139 16b1 B6020000 		.4byte	.LVL335
 11140 16b5 0300     		.2byte	0x3
ARM GAS  /tmp/ccAUe7jC.s 			page 197


 11141 16b7 72       		.byte	0x72
 11142 16b8 01       		.sleb128 1
 11143 16b9 9F       		.byte	0x9f
 11144 16ba B6020000 		.4byte	.LVL335
 11145 16be C0020000 		.4byte	.LVL336
 11146 16c2 0300     		.2byte	0x3
 11147 16c4 73       		.byte	0x73
 11148 16c5 01       		.sleb128 1
 11149 16c6 9F       		.byte	0x9f
 11150 16c7 C0020000 		.4byte	.LVL336
 11151 16cb C6020000 		.4byte	.LVL337
 11152 16cf 0300     		.2byte	0x3
 11153 16d1 72       		.byte	0x72
 11154 16d2 02       		.sleb128 2
 11155 16d3 9F       		.byte	0x9f
 11156 16d4 72030000 		.4byte	.LVL346
 11157 16d8 82030000 		.4byte	.LVL350
 11158 16dc 0200     		.2byte	0x2
 11159 16de 91       		.byte	0x91
 11160 16df 00       		.sleb128 0
 11161 16e0 8C030000 		.4byte	.LVL353
 11162 16e4 90030000 		.4byte	.LVL355
 11163 16e8 0100     		.2byte	0x1
 11164 16ea 53       		.byte	0x53
 11165 16eb AA030000 		.4byte	.LVL359
 11166 16ef DC030000 		.4byte	.LVL361
 11167 16f3 0300     		.2byte	0x3
 11168 16f5 73       		.byte	0x73
 11169 16f6 01       		.sleb128 1
 11170 16f7 9F       		.byte	0x9f
 11171 16f8 DC030000 		.4byte	.LVL361
 11172 16fc E0030000 		.4byte	.LVL363
 11173 1700 0300     		.2byte	0x3
 11174 1702 72       		.byte	0x72
 11175 1703 02       		.sleb128 2
 11176 1704 9F       		.byte	0x9f
 11177 1705 E4030000 		.4byte	.LVL364
 11178 1709 FC030000 		.4byte	.LFE136
 11179 170d 0300     		.2byte	0x3
 11180 170f 73       		.byte	0x73
 11181 1710 01       		.sleb128 1
 11182 1711 9F       		.byte	0x9f
 11183 1712 00000000 		.4byte	0
 11184 1716 00000000 		.4byte	0
 11185              	.LLST111:
 11186 171a 0E010000 		.4byte	.LVL294
 11187 171e 66010000 		.4byte	.LVL302
 11188 1722 0100     		.2byte	0x1
 11189 1724 59       		.byte	0x59
 11190 1725 92010000 		.4byte	.LVL306
 11191 1729 9E010000 		.4byte	.LVL307
 11192 172d 0100     		.2byte	0x1
 11193 172f 50       		.byte	0x50
 11194 1730 D4010000 		.4byte	.LVL313
 11195 1734 F6010000 		.4byte	.LVL318
 11196 1738 0100     		.2byte	0x1
 11197 173a 52       		.byte	0x52
ARM GAS  /tmp/ccAUe7jC.s 			page 198


 11198 173b F6010000 		.4byte	.LVL318
 11199 173f FA010000 		.4byte	.LVL319
 11200 1743 2100     		.2byte	0x21
 11201 1745 75       		.byte	0x75
 11202 1746 0C       		.sleb128 12
 11203 1747 94       		.byte	0x94
 11204 1748 01       		.byte	0x1
 11205 1749 08       		.byte	0x8
 11206 174a FF       		.byte	0xff
 11207 174b 1A       		.byte	0x1a
 11208 174c 73       		.byte	0x73
 11209 174d 7F       		.sleb128 -1
 11210 174e 94       		.byte	0x94
 11211 174f 01       		.byte	0x1
 11212 1750 08       		.byte	0x8
 11213 1751 FF       		.byte	0xff
 11214 1752 1A       		.byte	0x1a
 11215 1753 75       		.byte	0x75
 11216 1754 0A       		.sleb128 10
 11217 1755 94       		.byte	0x94
 11218 1756 01       		.byte	0x1
 11219 1757 08       		.byte	0x8
 11220 1758 FF       		.byte	0xff
 11221 1759 1A       		.byte	0x1a
 11222 175a 1C       		.byte	0x1c
 11223 175b 75       		.byte	0x75
 11224 175c 10       		.sleb128 16
 11225 175d 06       		.byte	0x6
 11226 175e 22       		.byte	0x22
 11227 175f 94       		.byte	0x94
 11228 1760 01       		.byte	0x1
 11229 1761 08       		.byte	0x8
 11230 1762 FF       		.byte	0xff
 11231 1763 1A       		.byte	0x1a
 11232 1764 1E       		.byte	0x1e
 11233 1765 9F       		.byte	0x9f
 11234 1766 22020000 		.4byte	.LVL325
 11235 176a 28020000 		.4byte	.LVL326
 11236 176e 0100     		.2byte	0x1
 11237 1770 59       		.byte	0x59
 11238 1771 CA020000 		.4byte	.LVL338
 11239 1775 EE020000 		.4byte	.LVL340
 11240 1779 0100     		.2byte	0x1
 11241 177b 5C       		.byte	0x5c
 11242 177c 5E030000 		.4byte	.LVL344
 11243 1780 72030000 		.4byte	.LVL346
 11244 1784 0100     		.2byte	0x1
 11245 1786 5C       		.byte	0x5c
 11246 1787 72030000 		.4byte	.LVL346
 11247 178b 82030000 		.4byte	.LVL350
 11248 178f 0100     		.2byte	0x1
 11249 1791 50       		.byte	0x50
 11250 1792 8C030000 		.4byte	.LVL353
 11251 1796 90030000 		.4byte	.LVL355
 11252 179a 0100     		.2byte	0x1
 11253 179c 52       		.byte	0x52
 11254 179d 00000000 		.4byte	0
ARM GAS  /tmp/ccAUe7jC.s 			page 199


 11255 17a1 00000000 		.4byte	0
 11256              	.LLST112:
 11257 17a5 40000000 		.4byte	.LVL277
 11258 17a9 69000000 		.4byte	.LVL280-1
 11259 17ad 0C00     		.2byte	0xc
 11260 17af 7C       		.byte	0x7c
 11261 17b0 00       		.sleb128 0
 11262 17b1 08       		.byte	0x8
 11263 17b2 FF       		.byte	0xff
 11264 17b3 1A       		.byte	0x1a
 11265 17b4 7B       		.byte	0x7b
 11266 17b5 00       		.sleb128 0
 11267 17b6 08       		.byte	0x8
 11268 17b7 FF       		.byte	0xff
 11269 17b8 1A       		.byte	0x1a
 11270 17b9 1E       		.byte	0x1e
 11271 17ba 9F       		.byte	0x9f
 11272 17bb 00000000 		.4byte	0
 11273 17bf 00000000 		.4byte	0
 11274              	.LLST113:
 11275 17c3 56000000 		.4byte	.LVL279
 11276 17c7 76000000 		.4byte	.LVL281
 11277 17cb 0100     		.2byte	0x1
 11278 17cd 54       		.byte	0x54
 11279 17ce 76000000 		.4byte	.LVL281
 11280 17d2 86000000 		.4byte	.LVL284
 11281 17d6 2600     		.2byte	0x26
 11282 17d8 91       		.byte	0x91
 11283 17d9 4C       		.sleb128 -52
 11284 17da 06       		.byte	0x6
 11285 17db 91       		.byte	0x91
 11286 17dc 54       		.sleb128 -44
 11287 17dd 94       		.byte	0x94
 11288 17de 02       		.byte	0x2
 11289 17df 40       		.byte	0x40
 11290 17e0 24       		.byte	0x24
 11291 17e1 40       		.byte	0x40
 11292 17e2 26       		.byte	0x26
 11293 17e3 1C       		.byte	0x1c
 11294 17e4 23       		.byte	0x23
 11295 17e5 01       		.uleb128 0x1
 11296 17e6 4F       		.byte	0x4f
 11297 17e7 25       		.byte	0x25
 11298 17e8 91       		.byte	0x91
 11299 17e9 54       		.sleb128 -44
 11300 17ea 94       		.byte	0x94
 11301 17eb 02       		.byte	0x2
 11302 17ec 40       		.byte	0x40
 11303 17ed 24       		.byte	0x24
 11304 17ee 40       		.byte	0x40
 11305 17ef 26       		.byte	0x26
 11306 17f0 1C       		.byte	0x1c
 11307 17f1 91       		.byte	0x91
 11308 17f2 4C       		.sleb128 -52
 11309 17f3 06       		.byte	0x6
 11310 17f4 22       		.byte	0x22
 11311 17f5 23       		.byte	0x23
ARM GAS  /tmp/ccAUe7jC.s 			page 200


 11312 17f6 01       		.uleb128 0x1
 11313 17f7 09       		.byte	0x9
 11314 17f8 F3       		.byte	0xf3
 11315 17f9 24       		.byte	0x24
 11316 17fa 09       		.byte	0x9
 11317 17fb F4       		.byte	0xf4
 11318 17fc 25       		.byte	0x25
 11319 17fd 9F       		.byte	0x9f
 11320 17fe 86000000 		.4byte	.LVL284
 11321 1802 CA000000 		.4byte	.LVL288
 11322 1806 0100     		.2byte	0x1
 11323 1808 56       		.byte	0x56
 11324 1809 CA000000 		.4byte	.LVL288
 11325 180d CE000000 		.4byte	.LVL290
 11326 1811 0100     		.2byte	0x1
 11327 1813 54       		.byte	0x54
 11328 1814 8A010000 		.4byte	.LVL305
 11329 1818 A6010000 		.4byte	.LVL308
 11330 181c 0100     		.2byte	0x1
 11331 181e 56       		.byte	0x56
 11332 181f A6010000 		.4byte	.LVL308
 11333 1823 0C020000 		.4byte	.LVL323
 11334 1827 0100     		.2byte	0x1
 11335 1829 5E       		.byte	0x5e
 11336 182a 28020000 		.4byte	.LVL326
 11337 182e 48020000 		.4byte	.LVL329
 11338 1832 0100     		.2byte	0x1
 11339 1834 56       		.byte	0x56
 11340 1835 72030000 		.4byte	.LVL346
 11341 1839 78030000 		.4byte	.LVL347
 11342 183d 0100     		.2byte	0x1
 11343 183f 56       		.byte	0x56
 11344 1840 8C030000 		.4byte	.LVL353
 11345 1844 90030000 		.4byte	.LVL355
 11346 1848 0100     		.2byte	0x1
 11347 184a 5E       		.byte	0x5e
 11348 184b E0030000 		.4byte	.LVL363
 11349 184f E4030000 		.4byte	.LVL364
 11350 1853 0100     		.2byte	0x1
 11351 1855 56       		.byte	0x56
 11352 1856 00000000 		.4byte	0
 11353 185a 00000000 		.4byte	0
 11354              	.LLST114:
 11355 185e CC000000 		.4byte	.LVL289
 11356 1862 D4000000 		.4byte	.LVL291
 11357 1866 0100     		.2byte	0x1
 11358 1868 56       		.byte	0x56
 11359 1869 E8000000 		.4byte	.LVL292
 11360 186d F0000000 		.4byte	.LVL293
 11361 1871 0100     		.2byte	0x1
 11362 1873 56       		.byte	0x56
 11363 1874 3A010000 		.4byte	.LVL296
 11364 1878 5C010000 		.4byte	.LVL300
 11365 187c 0100     		.2byte	0x1
 11366 187e 56       		.byte	0x56
 11367 187f 5C010000 		.4byte	.LVL300
 11368 1883 60010000 		.4byte	.LVL301
ARM GAS  /tmp/ccAUe7jC.s 			page 201


 11369 1887 0100     		.2byte	0x1
 11370 1889 54       		.byte	0x54
 11371 188a 60010000 		.4byte	.LVL301
 11372 188e 66010000 		.4byte	.LVL302
 11373 1892 0100     		.2byte	0x1
 11374 1894 56       		.byte	0x56
 11375 1895 6A010000 		.4byte	.LVL303
 11376 1899 84010000 		.4byte	.LVL304
 11377 189d 0100     		.2byte	0x1
 11378 189f 56       		.byte	0x56
 11379 18a0 A6010000 		.4byte	.LVL308
 11380 18a4 B0010000 		.4byte	.LVL309
 11381 18a8 0200     		.2byte	0x2
 11382 18aa 30       		.byte	0x30
 11383 18ab 9F       		.byte	0x9f
 11384 18ac B2010000 		.4byte	.LVL310
 11385 18b0 EA010000 		.4byte	.LVL314
 11386 18b4 0100     		.2byte	0x1
 11387 18b6 51       		.byte	0x51
 11388 18b7 EA010000 		.4byte	.LVL314
 11389 18bb F0010000 		.4byte	.LVL315
 11390 18bf 0100     		.2byte	0x1
 11391 18c1 56       		.byte	0x56
 11392 18c2 F0010000 		.4byte	.LVL315
 11393 18c6 F2010000 		.4byte	.LVL316
 11394 18ca 0100     		.2byte	0x1
 11395 18cc 51       		.byte	0x51
 11396 18cd F4010000 		.4byte	.LVL317
 11397 18d1 04020000 		.4byte	.LVL321
 11398 18d5 0100     		.2byte	0x1
 11399 18d7 51       		.byte	0x51
 11400 18d8 04020000 		.4byte	.LVL321
 11401 18dc 0C020000 		.4byte	.LVL323
 11402 18e0 0100     		.2byte	0x1
 11403 18e2 53       		.byte	0x53
 11404 18e3 4E020000 		.4byte	.LVL330
 11405 18e7 C6020000 		.4byte	.LVL337
 11406 18eb 0100     		.2byte	0x1
 11407 18ed 56       		.byte	0x56
 11408 18ee DE020000 		.4byte	.LVL339
 11409 18f2 38030000 		.4byte	.LVL343
 11410 18f6 0100     		.2byte	0x1
 11411 18f8 56       		.byte	0x56
 11412 18f9 7E030000 		.4byte	.LVL348
 11413 18fd 80030000 		.4byte	.LVL349
 11414 1901 0100     		.2byte	0x1
 11415 1903 57       		.byte	0x57
 11416 1904 80030000 		.4byte	.LVL349
 11417 1908 84030000 		.4byte	.LVL351
 11418 190c 0100     		.2byte	0x1
 11419 190e 56       		.byte	0x56
 11420 190f 86030000 		.4byte	.LVL352
 11421 1913 8C030000 		.4byte	.LVL353
 11422 1917 0100     		.2byte	0x1
 11423 1919 56       		.byte	0x56
 11424 191a 8C030000 		.4byte	.LVL353
 11425 191e 90030000 		.4byte	.LVL355
ARM GAS  /tmp/ccAUe7jC.s 			page 202


 11426 1922 0100     		.2byte	0x1
 11427 1924 51       		.byte	0x51
 11428 1925 90030000 		.4byte	.LVL355
 11429 1929 A2030000 		.4byte	.LVL356
 11430 192d 0100     		.2byte	0x1
 11431 192f 56       		.byte	0x56
 11432 1930 A4030000 		.4byte	.LVL357
 11433 1934 A6030000 		.4byte	.LVL358
 11434 1938 0100     		.2byte	0x1
 11435 193a 56       		.byte	0x56
 11436 193b AA030000 		.4byte	.LVL359
 11437 193f DE030000 		.4byte	.LVL362
 11438 1943 0100     		.2byte	0x1
 11439 1945 56       		.byte	0x56
 11440 1946 DE030000 		.4byte	.LVL362
 11441 194a E0030000 		.4byte	.LVL363
 11442 194e 0100     		.2byte	0x1
 11443 1950 53       		.byte	0x53
 11444 1951 E4030000 		.4byte	.LVL364
 11445 1955 F2030000 		.4byte	.LVL365
 11446 1959 0100     		.2byte	0x1
 11447 195b 56       		.byte	0x56
 11448 195c F4030000 		.4byte	.LVL366
 11449 1960 FC030000 		.4byte	.LFE136
 11450 1964 0100     		.2byte	0x1
 11451 1966 56       		.byte	0x56
 11452 1967 00000000 		.4byte	0
 11453 196b 00000000 		.4byte	0
 11454              	.LLST115:
 11455 196f F0000000 		.4byte	.LVL293
 11456 1973 54010000 		.4byte	.LVL298
 11457 1977 0100     		.2byte	0x1
 11458 1979 54       		.byte	0x54
 11459 197a 54010000 		.4byte	.LVL298
 11460 197e 59010000 		.4byte	.LVL299-1
 11461 1982 0100     		.2byte	0x1
 11462 1984 52       		.byte	0x52
 11463 1985 B6010000 		.4byte	.LVL311
 11464 1989 BE010000 		.4byte	.LVL312
 11465 198d 0200     		.2byte	0x2
 11466 198f 78       		.byte	0x78
 11467 1990 00       		.sleb128 0
 11468 1991 BE010000 		.4byte	.LVL312
 11469 1995 02020000 		.4byte	.LVL320
 11470 1999 0200     		.2byte	0x2
 11471 199b 73       		.byte	0x73
 11472 199c 7F       		.sleb128 -1
 11473 199d 22020000 		.4byte	.LVL325
 11474 19a1 28020000 		.4byte	.LVL326
 11475 19a5 0100     		.2byte	0x1
 11476 19a7 54       		.byte	0x54
 11477 19a8 5E020000 		.4byte	.LVL331
 11478 19ac A4020000 		.4byte	.LVL333
 11479 19b0 0200     		.2byte	0x2
 11480 19b2 73       		.byte	0x73
 11481 19b3 00       		.sleb128 0
 11482 19b4 A4020000 		.4byte	.LVL333
ARM GAS  /tmp/ccAUe7jC.s 			page 203


 11483 19b8 B6020000 		.4byte	.LVL335
 11484 19bc 0200     		.2byte	0x2
 11485 19be 72       		.byte	0x72
 11486 19bf 01       		.sleb128 1
 11487 19c0 8C030000 		.4byte	.LVL353
 11488 19c4 90030000 		.4byte	.LVL355
 11489 19c8 0200     		.2byte	0x2
 11490 19ca 73       		.byte	0x73
 11491 19cb 7F       		.sleb128 -1
 11492 19cc 00000000 		.4byte	0
 11493 19d0 00000000 		.4byte	0
 11494              	.LLST116:
 11495 19d4 E8000000 		.4byte	.LVL292
 11496 19d8 84010000 		.4byte	.LVL304
 11497 19dc 0200     		.2byte	0x2
 11498 19de 91       		.byte	0x91
 11499 19df 44       		.sleb128 -60
 11500 19e0 A6010000 		.4byte	.LVL308
 11501 19e4 B0010000 		.4byte	.LVL309
 11502 19e8 0200     		.2byte	0x2
 11503 19ea 31       		.byte	0x31
 11504 19eb 9F       		.byte	0x9f
 11505 19ec B2010000 		.4byte	.LVL310
 11506 19f0 06020000 		.4byte	.LVL322
 11507 19f4 0100     		.2byte	0x1
 11508 19f6 57       		.byte	0x57
 11509 19f7 22020000 		.4byte	.LVL325
 11510 19fb 28020000 		.4byte	.LVL326
 11511 19ff 0200     		.2byte	0x2
 11512 1a01 91       		.byte	0x91
 11513 1a02 44       		.sleb128 -60
 11514 1a03 4E020000 		.4byte	.LVL330
 11515 1a07 9E020000 		.4byte	.LVL332
 11516 1a0b 0200     		.2byte	0x2
 11517 1a0d 31       		.byte	0x31
 11518 1a0e 9F       		.byte	0x9f
 11519 1a0f 9E020000 		.4byte	.LVL332
 11520 1a13 70030000 		.4byte	.LVL345
 11521 1a17 0100     		.2byte	0x1
 11522 1a19 59       		.byte	0x59
 11523 1a1a 82030000 		.4byte	.LVL350
 11524 1a1e 84030000 		.4byte	.LVL351
 11525 1a22 0100     		.2byte	0x1
 11526 1a24 59       		.byte	0x59
 11527 1a25 8C030000 		.4byte	.LVL353
 11528 1a29 8E030000 		.4byte	.LVL354
 11529 1a2d 0100     		.2byte	0x1
 11530 1a2f 57       		.byte	0x57
 11531 1a30 90030000 		.4byte	.LVL355
 11532 1a34 E0030000 		.4byte	.LVL363
 11533 1a38 0100     		.2byte	0x1
 11534 1a3a 59       		.byte	0x59
 11535 1a3b E4030000 		.4byte	.LVL364
 11536 1a3f FC030000 		.4byte	.LFE136
 11537 1a43 0100     		.2byte	0x1
 11538 1a45 59       		.byte	0x59
 11539 1a46 00000000 		.4byte	0
ARM GAS  /tmp/ccAUe7jC.s 			page 204


 11540 1a4a 00000000 		.4byte	0
 11541              	.LLST117:
 11542 1a4e 00000000 		.4byte	.LFB135
 11543 1a52 04000000 		.4byte	.LCFI29
 11544 1a56 0200     		.2byte	0x2
 11545 1a58 7D       		.byte	0x7d
 11546 1a59 00       		.sleb128 0
 11547 1a5a 04000000 		.4byte	.LCFI29
 11548 1a5e 06000000 		.4byte	.LCFI30
 11549 1a62 0200     		.2byte	0x2
 11550 1a64 7D       		.byte	0x7d
 11551 1a65 24       		.sleb128 36
 11552 1a66 06000000 		.4byte	.LCFI30
 11553 1a6a AC030000 		.4byte	.LFE135
 11554 1a6e 0300     		.2byte	0x3
 11555 1a70 7D       		.byte	0x7d
 11556 1a71 D000     		.sleb128 80
 11557 1a73 00000000 		.4byte	0
 11558 1a77 00000000 		.4byte	0
 11559              	.LLST118:
 11560 1a7b 00000000 		.4byte	.LVL367
 11561 1a7f 3E000000 		.4byte	.LVL372
 11562 1a83 0100     		.2byte	0x1
 11563 1a85 50       		.byte	0x50
 11564 1a86 3E000000 		.4byte	.LVL372
 11565 1a8a AC030000 		.4byte	.LFE135
 11566 1a8e 0400     		.2byte	0x4
 11567 1a90 F3       		.byte	0xf3
 11568 1a91 01       		.uleb128 0x1
 11569 1a92 50       		.byte	0x50
 11570 1a93 9F       		.byte	0x9f
 11571 1a94 00000000 		.4byte	0
 11572 1a98 00000000 		.4byte	0
 11573              	.LLST119:
 11574 1a9c 00000000 		.4byte	.LVL367
 11575 1aa0 42000000 		.4byte	.LVL373
 11576 1aa4 0100     		.2byte	0x1
 11577 1aa6 51       		.byte	0x51
 11578 1aa7 42000000 		.4byte	.LVL373
 11579 1aab 50000000 		.4byte	.LVL376
 11580 1aaf 0400     		.2byte	0x4
 11581 1ab1 F3       		.byte	0xf3
 11582 1ab2 01       		.uleb128 0x1
 11583 1ab3 51       		.byte	0x51
 11584 1ab4 9F       		.byte	0x9f
 11585 1ab5 50000000 		.4byte	.LVL376
 11586 1ab9 6E000000 		.4byte	.LVL379
 11587 1abd 0100     		.2byte	0x1
 11588 1abf 5B       		.byte	0x5b
 11589 1ac0 D8000000 		.4byte	.LVL388
 11590 1ac4 5E010000 		.4byte	.LVL407
 11591 1ac8 0100     		.2byte	0x1
 11592 1aca 5B       		.byte	0x5b
 11593 1acb 84010000 		.4byte	.LVL411
 11594 1acf 4C020000 		.4byte	.LVL425
 11595 1ad3 0100     		.2byte	0x1
 11596 1ad5 5B       		.byte	0x5b
ARM GAS  /tmp/ccAUe7jC.s 			page 205


 11597 1ad6 4C020000 		.4byte	.LVL425
 11598 1ada 16030000 		.4byte	.LVL437
 11599 1ade 0200     		.2byte	0x2
 11600 1ae0 91       		.byte	0x91
 11601 1ae1 4C       		.sleb128 -52
 11602 1ae2 16030000 		.4byte	.LVL437
 11603 1ae6 2E030000 		.4byte	.LVL443
 11604 1aea 0100     		.2byte	0x1
 11605 1aec 5B       		.byte	0x5b
 11606 1aed 2E030000 		.4byte	.LVL443
 11607 1af1 34030000 		.4byte	.LVL445
 11608 1af5 0200     		.2byte	0x2
 11609 1af7 91       		.byte	0x91
 11610 1af8 4C       		.sleb128 -52
 11611 1af9 34030000 		.4byte	.LVL445
 11612 1afd 3A030000 		.4byte	.LVL447
 11613 1b01 0100     		.2byte	0x1
 11614 1b03 5B       		.byte	0x5b
 11615 1b04 3A030000 		.4byte	.LVL447
 11616 1b08 3E030000 		.4byte	.LVL448
 11617 1b0c 0200     		.2byte	0x2
 11618 1b0e 91       		.byte	0x91
 11619 1b0f 4C       		.sleb128 -52
 11620 1b10 44030000 		.4byte	.LVL450
 11621 1b14 4C030000 		.4byte	.LVL451
 11622 1b18 0200     		.2byte	0x2
 11623 1b1a 91       		.byte	0x91
 11624 1b1b 4C       		.sleb128 -52
 11625 1b1c 4C030000 		.4byte	.LVL451
 11626 1b20 AC030000 		.4byte	.LFE135
 11627 1b24 0100     		.2byte	0x1
 11628 1b26 5B       		.byte	0x5b
 11629 1b27 00000000 		.4byte	0
 11630 1b2b 00000000 		.4byte	0
 11631              	.LLST120:
 11632 1b2f 00000000 		.4byte	.LVL367
 11633 1b33 1A000000 		.4byte	.LVL368
 11634 1b37 0100     		.2byte	0x1
 11635 1b39 52       		.byte	0x52
 11636 1b3a 1A000000 		.4byte	.LVL368
 11637 1b3e AC030000 		.4byte	.LFE135
 11638 1b42 0400     		.2byte	0x4
 11639 1b44 F3       		.byte	0xf3
 11640 1b45 01       		.uleb128 0x1
 11641 1b46 52       		.byte	0x52
 11642 1b47 9F       		.byte	0x9f
 11643 1b48 00000000 		.4byte	0
 11644 1b4c 00000000 		.4byte	0
 11645              	.LLST121:
 11646 1b50 00000000 		.4byte	.LVL367
 11647 1b54 3C000000 		.4byte	.LVL371
 11648 1b58 0100     		.2byte	0x1
 11649 1b5a 53       		.byte	0x53
 11650 1b5b 3C000000 		.4byte	.LVL371
 11651 1b5f 50000000 		.4byte	.LVL376
 11652 1b63 0400     		.2byte	0x4
 11653 1b65 F3       		.byte	0xf3
ARM GAS  /tmp/ccAUe7jC.s 			page 206


 11654 1b66 01       		.uleb128 0x1
 11655 1b67 53       		.byte	0x53
 11656 1b68 9F       		.byte	0x9f
 11657 1b69 00000000 		.4byte	0
 11658 1b6d 00000000 		.4byte	0
 11659              	.LLST122:
 11660 1b71 00000000 		.4byte	.LVL367
 11661 1b75 6E000000 		.4byte	.LVL379
 11662 1b79 0200     		.2byte	0x2
 11663 1b7b 91       		.byte	0x91
 11664 1b7c 00       		.sleb128 0
 11665 1b7d D8000000 		.4byte	.LVL388
 11666 1b81 02010000 		.4byte	.LVL392
 11667 1b85 0200     		.2byte	0x2
 11668 1b87 91       		.byte	0x91
 11669 1b88 00       		.sleb128 0
 11670 1b89 04010000 		.4byte	.LVL393
 11671 1b8d 06010000 		.4byte	.LVL394
 11672 1b91 0100     		.2byte	0x1
 11673 1b93 53       		.byte	0x53
 11674 1b94 06010000 		.4byte	.LVL394
 11675 1b98 08010000 		.4byte	.LVL395
 11676 1b9c 0100     		.2byte	0x1
 11677 1b9e 56       		.byte	0x56
 11678 1b9f 08010000 		.4byte	.LVL395
 11679 1ba3 50010000 		.4byte	.LVL404
 11680 1ba7 0100     		.2byte	0x1
 11681 1ba9 53       		.byte	0x53
 11682 1baa 8E010000 		.4byte	.LVL412
 11683 1bae 96010000 		.4byte	.LVL413
 11684 1bb2 0100     		.2byte	0x1
 11685 1bb4 50       		.byte	0x50
 11686 1bb5 A8010000 		.4byte	.LVL415
 11687 1bb9 08020000 		.4byte	.LVL419
 11688 1bbd 0100     		.2byte	0x1
 11689 1bbf 53       		.byte	0x53
 11690 1bc0 08020000 		.4byte	.LVL419
 11691 1bc4 22020000 		.4byte	.LVL422
 11692 1bc8 0300     		.2byte	0x3
 11693 1bca 70       		.byte	0x70
 11694 1bcb 01       		.sleb128 1
 11695 1bcc 9F       		.byte	0x9f
 11696 1bcd 22020000 		.4byte	.LVL422
 11697 1bd1 2E020000 		.4byte	.LVL423
 11698 1bd5 0300     		.2byte	0x3
 11699 1bd7 73       		.byte	0x73
 11700 1bd8 01       		.sleb128 1
 11701 1bd9 9F       		.byte	0x9f
 11702 1bda 2E020000 		.4byte	.LVL423
 11703 1bde 38020000 		.4byte	.LVL424
 11704 1be2 0300     		.2byte	0x3
 11705 1be4 70       		.byte	0x70
 11706 1be5 02       		.sleb128 2
 11707 1be6 9F       		.byte	0x9f
 11708 1be7 16030000 		.4byte	.LVL437
 11709 1beb 28030000 		.4byte	.LVL441
 11710 1bef 0200     		.2byte	0x2
ARM GAS  /tmp/ccAUe7jC.s 			page 207


 11711 1bf1 91       		.byte	0x91
 11712 1bf2 00       		.sleb128 0
 11713 1bf3 28030000 		.4byte	.LVL441
 11714 1bf7 2E030000 		.4byte	.LVL443
 11715 1bfb 0100     		.2byte	0x1
 11716 1bfd 53       		.byte	0x53
 11717 1bfe 34030000 		.4byte	.LVL445
 11718 1c02 36030000 		.4byte	.LVL446
 11719 1c06 0100     		.2byte	0x1
 11720 1c08 53       		.byte	0x53
 11721 1c09 4C030000 		.4byte	.LVL451
 11722 1c0d A2030000 		.4byte	.LVL454
 11723 1c11 0300     		.2byte	0x3
 11724 1c13 73       		.byte	0x73
 11725 1c14 01       		.sleb128 1
 11726 1c15 9F       		.byte	0x9f
 11727 1c16 A2030000 		.4byte	.LVL454
 11728 1c1a A6030000 		.4byte	.LVL456
 11729 1c1e 0300     		.2byte	0x3
 11730 1c20 70       		.byte	0x70
 11731 1c21 02       		.sleb128 2
 11732 1c22 9F       		.byte	0x9f
 11733 1c23 A6030000 		.4byte	.LVL456
 11734 1c27 AC030000 		.4byte	.LFE135
 11735 1c2b 0300     		.2byte	0x3
 11736 1c2d 73       		.byte	0x73
 11737 1c2e 01       		.sleb128 1
 11738 1c2f 9F       		.byte	0x9f
 11739 1c30 00000000 		.4byte	0
 11740 1c34 00000000 		.4byte	0
 11741              	.LLST123:
 11742 1c38 A6000000 		.4byte	.LVL382
 11743 1c3c CA000000 		.4byte	.LVL385
 11744 1c40 0100     		.2byte	0x1
 11745 1c42 5A       		.byte	0x5a
 11746 1c43 E0000000 		.4byte	.LVL389
 11747 1c47 F6000000 		.4byte	.LVL390
 11748 1c4b 0100     		.2byte	0x1
 11749 1c4d 50       		.byte	0x50
 11750 1c4e 24010000 		.4byte	.LVL396
 11751 1c52 48010000 		.4byte	.LVL402
 11752 1c56 0100     		.2byte	0x1
 11753 1c58 52       		.byte	0x52
 11754 1c59 48010000 		.4byte	.LVL402
 11755 1c5d 50010000 		.4byte	.LVL404
 11756 1c61 1C00     		.2byte	0x1c
 11757 1c63 76       		.byte	0x76
 11758 1c64 00       		.sleb128 0
 11759 1c65 94       		.byte	0x94
 11760 1c66 01       		.byte	0x1
 11761 1c67 08       		.byte	0x8
 11762 1c68 FF       		.byte	0xff
 11763 1c69 1A       		.byte	0x1a
 11764 1c6a 74       		.byte	0x74
 11765 1c6b 0A       		.sleb128 10
 11766 1c6c 94       		.byte	0x94
 11767 1c6d 01       		.byte	0x1
ARM GAS  /tmp/ccAUe7jC.s 			page 208


 11768 1c6e 08       		.byte	0x8
 11769 1c6f FF       		.byte	0xff
 11770 1c70 1A       		.byte	0x1a
 11771 1c71 1C       		.byte	0x1c
 11772 1c72 74       		.byte	0x74
 11773 1c73 10       		.sleb128 16
 11774 1c74 06       		.byte	0x6
 11775 1c75 22       		.byte	0x22
 11776 1c76 94       		.byte	0x94
 11777 1c77 01       		.byte	0x1
 11778 1c78 08       		.byte	0x8
 11779 1c79 FF       		.byte	0xff
 11780 1c7a 1A       		.byte	0x1a
 11781 1c7b 79       		.byte	0x79
 11782 1c7c 00       		.sleb128 0
 11783 1c7d 1E       		.byte	0x1e
 11784 1c7e 9F       		.byte	0x9f
 11785 1c7f 5E010000 		.4byte	.LVL407
 11786 1c83 84010000 		.4byte	.LVL411
 11787 1c87 0100     		.2byte	0x1
 11788 1c89 5A       		.byte	0x5a
 11789 1c8a 4C020000 		.4byte	.LVL425
 11790 1c8e 60020000 		.4byte	.LVL427
 11791 1c92 0100     		.2byte	0x1
 11792 1c94 58       		.byte	0x58
 11793 1c95 EE020000 		.4byte	.LVL435
 11794 1c99 16030000 		.4byte	.LVL437
 11795 1c9d 0100     		.2byte	0x1
 11796 1c9f 58       		.byte	0x58
 11797 1ca0 16030000 		.4byte	.LVL437
 11798 1ca4 1A030000 		.4byte	.LVL438
 11799 1ca8 0100     		.2byte	0x1
 11800 1caa 50       		.byte	0x50
 11801 1cab 28030000 		.4byte	.LVL441
 11802 1caf 2E030000 		.4byte	.LVL443
 11803 1cb3 0100     		.2byte	0x1
 11804 1cb5 52       		.byte	0x52
 11805 1cb6 00000000 		.4byte	0
 11806 1cba 00000000 		.4byte	0
 11807              	.LLST124:
 11808 1cbe 2C000000 		.4byte	.LVL369
 11809 1cc2 54000000 		.4byte	.LVL377
 11810 1cc6 0B00     		.2byte	0xb
 11811 1cc8 74       		.byte	0x74
 11812 1cc9 0D       		.sleb128 13
 11813 1cca 94       		.byte	0x94
 11814 1ccb 01       		.byte	0x1
 11815 1ccc 08       		.byte	0x8
 11816 1ccd FF       		.byte	0xff
 11817 1cce 1A       		.byte	0x1a
 11818 1ccf 78       		.byte	0x78
 11819 1cd0 00       		.sleb128 0
 11820 1cd1 1E       		.byte	0x1e
 11821 1cd2 9F       		.byte	0x9f
 11822 1cd3 54000000 		.4byte	.LVL377
 11823 1cd7 6E000000 		.4byte	.LVL379
 11824 1cdb 1000     		.2byte	0x10
ARM GAS  /tmp/ccAUe7jC.s 			page 209


 11825 1cdd 74       		.byte	0x74
 11826 1cde 04       		.sleb128 4
 11827 1cdf 94       		.byte	0x94
 11828 1ce0 01       		.byte	0x1
 11829 1ce1 08       		.byte	0x8
 11830 1ce2 FF       		.byte	0xff
 11831 1ce3 1A       		.byte	0x1a
 11832 1ce4 74       		.byte	0x74
 11833 1ce5 0D       		.sleb128 13
 11834 1ce6 94       		.byte	0x94
 11835 1ce7 01       		.byte	0x1
 11836 1ce8 08       		.byte	0x8
 11837 1ce9 FF       		.byte	0xff
 11838 1cea 1A       		.byte	0x1a
 11839 1ceb 1E       		.byte	0x1e
 11840 1cec 9F       		.byte	0x9f
 11841 1ced D8000000 		.4byte	.LVL388
 11842 1cf1 DF000000 		.4byte	.LVL389-1
 11843 1cf5 1000     		.2byte	0x10
 11844 1cf7 74       		.byte	0x74
 11845 1cf8 04       		.sleb128 4
 11846 1cf9 94       		.byte	0x94
 11847 1cfa 01       		.byte	0x1
 11848 1cfb 08       		.byte	0x8
 11849 1cfc FF       		.byte	0xff
 11850 1cfd 1A       		.byte	0x1a
 11851 1cfe 74       		.byte	0x74
 11852 1cff 0D       		.sleb128 13
 11853 1d00 94       		.byte	0x94
 11854 1d01 01       		.byte	0x1
 11855 1d02 08       		.byte	0x8
 11856 1d03 FF       		.byte	0xff
 11857 1d04 1A       		.byte	0x1a
 11858 1d05 1E       		.byte	0x1e
 11859 1d06 9F       		.byte	0x9f
 11860 1d07 84010000 		.4byte	.LVL411
 11861 1d0b 16030000 		.4byte	.LVL437
 11862 1d0f 1000     		.2byte	0x10
 11863 1d11 74       		.byte	0x74
 11864 1d12 04       		.sleb128 4
 11865 1d13 94       		.byte	0x94
 11866 1d14 01       		.byte	0x1
 11867 1d15 08       		.byte	0x8
 11868 1d16 FF       		.byte	0xff
 11869 1d17 1A       		.byte	0x1a
 11870 1d18 74       		.byte	0x74
 11871 1d19 0D       		.sleb128 13
 11872 1d1a 94       		.byte	0x94
 11873 1d1b 01       		.byte	0x1
 11874 1d1c 08       		.byte	0x8
 11875 1d1d FF       		.byte	0xff
 11876 1d1e 1A       		.byte	0x1a
 11877 1d1f 1E       		.byte	0x1e
 11878 1d20 9F       		.byte	0x9f
 11879 1d21 2E030000 		.4byte	.LVL443
 11880 1d25 AC030000 		.4byte	.LFE135
 11881 1d29 1000     		.2byte	0x10
ARM GAS  /tmp/ccAUe7jC.s 			page 210


 11882 1d2b 74       		.byte	0x74
 11883 1d2c 04       		.sleb128 4
 11884 1d2d 94       		.byte	0x94
 11885 1d2e 01       		.byte	0x1
 11886 1d2f 08       		.byte	0x8
 11887 1d30 FF       		.byte	0xff
 11888 1d31 1A       		.byte	0x1a
 11889 1d32 74       		.byte	0x74
 11890 1d33 0D       		.sleb128 13
 11891 1d34 94       		.byte	0x94
 11892 1d35 01       		.byte	0x1
 11893 1d36 08       		.byte	0x8
 11894 1d37 FF       		.byte	0xff
 11895 1d38 1A       		.byte	0x1a
 11896 1d39 1E       		.byte	0x1e
 11897 1d3a 9F       		.byte	0x9f
 11898 1d3b 00000000 		.4byte	0
 11899 1d3f 00000000 		.4byte	0
 11900              	.LLST125:
 11901 1d43 36000000 		.4byte	.LVL370
 11902 1d47 6E000000 		.4byte	.LVL379
 11903 1d4b 0C00     		.2byte	0xc
 11904 1d4d 79       		.byte	0x79
 11905 1d4e 00       		.sleb128 0
 11906 1d4f 08       		.byte	0x8
 11907 1d50 FF       		.byte	0xff
 11908 1d51 1A       		.byte	0x1a
 11909 1d52 7C       		.byte	0x7c
 11910 1d53 00       		.sleb128 0
 11911 1d54 08       		.byte	0x8
 11912 1d55 FF       		.byte	0xff
 11913 1d56 1A       		.byte	0x1a
 11914 1d57 1E       		.byte	0x1e
 11915 1d58 9F       		.byte	0x9f
 11916 1d59 D8000000 		.4byte	.LVL388
 11917 1d5d DF000000 		.4byte	.LVL389-1
 11918 1d61 0C00     		.2byte	0xc
 11919 1d63 79       		.byte	0x79
 11920 1d64 00       		.sleb128 0
 11921 1d65 08       		.byte	0x8
 11922 1d66 FF       		.byte	0xff
 11923 1d67 1A       		.byte	0x1a
 11924 1d68 7C       		.byte	0x7c
 11925 1d69 00       		.sleb128 0
 11926 1d6a 08       		.byte	0x8
 11927 1d6b FF       		.byte	0xff
 11928 1d6c 1A       		.byte	0x1a
 11929 1d6d 1E       		.byte	0x1e
 11930 1d6e 9F       		.byte	0x9f
 11931 1d6f 84010000 		.4byte	.LVL411
 11932 1d73 9A010000 		.4byte	.LVL414
 11933 1d77 0C00     		.2byte	0xc
 11934 1d79 79       		.byte	0x79
 11935 1d7a 00       		.sleb128 0
 11936 1d7b 08       		.byte	0x8
 11937 1d7c FF       		.byte	0xff
 11938 1d7d 1A       		.byte	0x1a
ARM GAS  /tmp/ccAUe7jC.s 			page 211


 11939 1d7e 7C       		.byte	0x7c
 11940 1d7f 00       		.sleb128 0
 11941 1d80 08       		.byte	0x8
 11942 1d81 FF       		.byte	0xff
 11943 1d82 1A       		.byte	0x1a
 11944 1d83 1E       		.byte	0x1e
 11945 1d84 9F       		.byte	0x9f
 11946 1d85 9A010000 		.4byte	.LVL414
 11947 1d89 4C020000 		.4byte	.LVL425
 11948 1d8d 0E00     		.2byte	0xe
 11949 1d8f 79       		.byte	0x79
 11950 1d90 00       		.sleb128 0
 11951 1d91 08       		.byte	0x8
 11952 1d92 FF       		.byte	0xff
 11953 1d93 1A       		.byte	0x1a
 11954 1d94 74       		.byte	0x74
 11955 1d95 05       		.sleb128 5
 11956 1d96 94       		.byte	0x94
 11957 1d97 01       		.byte	0x1
 11958 1d98 08       		.byte	0x8
 11959 1d99 FF       		.byte	0xff
 11960 1d9a 1A       		.byte	0x1a
 11961 1d9b 1E       		.byte	0x1e
 11962 1d9c 9F       		.byte	0x9f
 11963 1d9d 4C020000 		.4byte	.LVL425
 11964 1da1 16030000 		.4byte	.LVL437
 11965 1da5 1100     		.2byte	0x11
 11966 1da7 91       		.byte	0x91
 11967 1da8 B87F     		.sleb128 -72
 11968 1daa 94       		.byte	0x94
 11969 1dab 01       		.byte	0x1
 11970 1dac 08       		.byte	0x8
 11971 1dad FF       		.byte	0xff
 11972 1dae 1A       		.byte	0x1a
 11973 1daf 74       		.byte	0x74
 11974 1db0 05       		.sleb128 5
 11975 1db1 94       		.byte	0x94
 11976 1db2 01       		.byte	0x1
 11977 1db3 08       		.byte	0x8
 11978 1db4 FF       		.byte	0xff
 11979 1db5 1A       		.byte	0x1a
 11980 1db6 1E       		.byte	0x1e
 11981 1db7 9F       		.byte	0x9f
 11982 1db8 2E030000 		.4byte	.LVL443
 11983 1dbc 34030000 		.4byte	.LVL445
 11984 1dc0 1100     		.2byte	0x11
 11985 1dc2 91       		.byte	0x91
 11986 1dc3 B87F     		.sleb128 -72
 11987 1dc5 94       		.byte	0x94
 11988 1dc6 01       		.byte	0x1
 11989 1dc7 08       		.byte	0x8
 11990 1dc8 FF       		.byte	0xff
 11991 1dc9 1A       		.byte	0x1a
 11992 1dca 74       		.byte	0x74
 11993 1dcb 05       		.sleb128 5
 11994 1dcc 94       		.byte	0x94
 11995 1dcd 01       		.byte	0x1
ARM GAS  /tmp/ccAUe7jC.s 			page 212


 11996 1dce 08       		.byte	0x8
 11997 1dcf FF       		.byte	0xff
 11998 1dd0 1A       		.byte	0x1a
 11999 1dd1 1E       		.byte	0x1e
 12000 1dd2 9F       		.byte	0x9f
 12001 1dd3 34030000 		.4byte	.LVL445
 12002 1dd7 3A030000 		.4byte	.LVL447
 12003 1ddb 0E00     		.2byte	0xe
 12004 1ddd 79       		.byte	0x79
 12005 1dde 00       		.sleb128 0
 12006 1ddf 08       		.byte	0x8
 12007 1de0 FF       		.byte	0xff
 12008 1de1 1A       		.byte	0x1a
 12009 1de2 74       		.byte	0x74
 12010 1de3 05       		.sleb128 5
 12011 1de4 94       		.byte	0x94
 12012 1de5 01       		.byte	0x1
 12013 1de6 08       		.byte	0x8
 12014 1de7 FF       		.byte	0xff
 12015 1de8 1A       		.byte	0x1a
 12016 1de9 1E       		.byte	0x1e
 12017 1dea 9F       		.byte	0x9f
 12018 1deb 3A030000 		.4byte	.LVL447
 12019 1def 3E030000 		.4byte	.LVL448
 12020 1df3 1100     		.2byte	0x11
 12021 1df5 91       		.byte	0x91
 12022 1df6 B87F     		.sleb128 -72
 12023 1df8 94       		.byte	0x94
 12024 1df9 01       		.byte	0x1
 12025 1dfa 08       		.byte	0x8
 12026 1dfb FF       		.byte	0xff
 12027 1dfc 1A       		.byte	0x1a
 12028 1dfd 74       		.byte	0x74
 12029 1dfe 05       		.sleb128 5
 12030 1dff 94       		.byte	0x94
 12031 1e00 01       		.byte	0x1
 12032 1e01 08       		.byte	0x8
 12033 1e02 FF       		.byte	0xff
 12034 1e03 1A       		.byte	0x1a
 12035 1e04 1E       		.byte	0x1e
 12036 1e05 9F       		.byte	0x9f
 12037 1e06 3E030000 		.4byte	.LVL448
 12038 1e0a 44030000 		.4byte	.LVL450
 12039 1e0e 1000     		.2byte	0x10
 12040 1e10 74       		.byte	0x74
 12041 1e11 0C       		.sleb128 12
 12042 1e12 94       		.byte	0x94
 12043 1e13 01       		.byte	0x1
 12044 1e14 08       		.byte	0x8
 12045 1e15 FF       		.byte	0xff
 12046 1e16 1A       		.byte	0x1a
 12047 1e17 74       		.byte	0x74
 12048 1e18 05       		.sleb128 5
 12049 1e19 94       		.byte	0x94
 12050 1e1a 01       		.byte	0x1
 12051 1e1b 08       		.byte	0x8
 12052 1e1c FF       		.byte	0xff
ARM GAS  /tmp/ccAUe7jC.s 			page 213


 12053 1e1d 1A       		.byte	0x1a
 12054 1e1e 1E       		.byte	0x1e
 12055 1e1f 9F       		.byte	0x9f
 12056 1e20 44030000 		.4byte	.LVL450
 12057 1e24 4C030000 		.4byte	.LVL451
 12058 1e28 1100     		.2byte	0x11
 12059 1e2a 91       		.byte	0x91
 12060 1e2b B87F     		.sleb128 -72
 12061 1e2d 94       		.byte	0x94
 12062 1e2e 01       		.byte	0x1
 12063 1e2f 08       		.byte	0x8
 12064 1e30 FF       		.byte	0xff
 12065 1e31 1A       		.byte	0x1a
 12066 1e32 74       		.byte	0x74
 12067 1e33 05       		.sleb128 5
 12068 1e34 94       		.byte	0x94
 12069 1e35 01       		.byte	0x1
 12070 1e36 08       		.byte	0x8
 12071 1e37 FF       		.byte	0xff
 12072 1e38 1A       		.byte	0x1a
 12073 1e39 1E       		.byte	0x1e
 12074 1e3a 9F       		.byte	0x9f
 12075 1e3b 4C030000 		.4byte	.LVL451
 12076 1e3f AC030000 		.4byte	.LFE135
 12077 1e43 0E00     		.2byte	0xe
 12078 1e45 79       		.byte	0x79
 12079 1e46 00       		.sleb128 0
 12080 1e47 08       		.byte	0x8
 12081 1e48 FF       		.byte	0xff
 12082 1e49 1A       		.byte	0x1a
 12083 1e4a 74       		.byte	0x74
 12084 1e4b 05       		.sleb128 5
 12085 1e4c 94       		.byte	0x94
 12086 1e4d 01       		.byte	0x1
 12087 1e4e 08       		.byte	0x8
 12088 1e4f FF       		.byte	0xff
 12089 1e50 1A       		.byte	0x1a
 12090 1e51 1E       		.byte	0x1e
 12091 1e52 9F       		.byte	0x9f
 12092 1e53 00000000 		.4byte	0
 12093 1e57 00000000 		.4byte	0
 12094              	.LLST126:
 12095 1e5b 44000000 		.4byte	.LVL374
 12096 1e5f 4C000000 		.4byte	.LVL375
 12097 1e63 0100     		.2byte	0x1
 12098 1e65 57       		.byte	0x57
 12099 1e66 4C000000 		.4byte	.LVL375
 12100 1e6a 5E000000 		.4byte	.LVL378
 12101 1e6e 0500     		.2byte	0x5
 12102 1e70 71       		.byte	0x71
 12103 1e71 00       		.sleb128 0
 12104 1e72 31       		.byte	0x31
 12105 1e73 26       		.byte	0x26
 12106 1e74 9F       		.byte	0x9f
 12107 1e75 FC000000 		.4byte	.LVL391
 12108 1e79 5E010000 		.4byte	.LVL407
 12109 1e7d 0200     		.2byte	0x2
ARM GAS  /tmp/ccAUe7jC.s 			page 214


 12110 1e7f 91       		.byte	0x91
 12111 1e80 44       		.sleb128 -60
 12112 1e81 28030000 		.4byte	.LVL441
 12113 1e85 2E030000 		.4byte	.LVL443
 12114 1e89 0200     		.2byte	0x2
 12115 1e8b 91       		.byte	0x91
 12116 1e8c 44       		.sleb128 -60
 12117 1e8d 00000000 		.4byte	0
 12118 1e91 00000000 		.4byte	0
 12119              	.LLST127:
 12120 1e95 80000000 		.4byte	.LVL380
 12121 1e99 88000000 		.4byte	.LVL381
 12122 1e9d 0100     		.2byte	0x1
 12123 1e9f 55       		.byte	0x55
 12124 1ea0 AE000000 		.4byte	.LVL383
 12125 1ea4 CA000000 		.4byte	.LVL385
 12126 1ea8 0100     		.2byte	0x1
 12127 1eaa 55       		.byte	0x55
 12128 1eab CE000000 		.4byte	.LVL386
 12129 1eaf D2000000 		.4byte	.LVL387
 12130 1eb3 0100     		.2byte	0x1
 12131 1eb5 55       		.byte	0x55
 12132 1eb6 FC000000 		.4byte	.LVL391
 12133 1eba 02010000 		.4byte	.LVL392
 12134 1ebe 0200     		.2byte	0x2
 12135 1ec0 30       		.byte	0x30
 12136 1ec1 9F       		.byte	0x9f
 12137 1ec2 04010000 		.4byte	.LVL393
 12138 1ec6 3C010000 		.4byte	.LVL397
 12139 1eca 0100     		.2byte	0x1
 12140 1ecc 51       		.byte	0x51
 12141 1ecd 3C010000 		.4byte	.LVL397
 12142 1ed1 3E010000 		.4byte	.LVL398
 12143 1ed5 0100     		.2byte	0x1
 12144 1ed7 50       		.byte	0x50
 12145 1ed8 3E010000 		.4byte	.LVL398
 12146 1edc 44010000 		.4byte	.LVL400
 12147 1ee0 0100     		.2byte	0x1
 12148 1ee2 51       		.byte	0x51
 12149 1ee3 46010000 		.4byte	.LVL401
 12150 1ee7 4C010000 		.4byte	.LVL403
 12151 1eeb 0100     		.2byte	0x1
 12152 1eed 51       		.byte	0x51
 12153 1eee 50010000 		.4byte	.LVL404
 12154 1ef2 5C010000 		.4byte	.LVL406
 12155 1ef6 0100     		.2byte	0x1
 12156 1ef8 51       		.byte	0x51
 12157 1ef9 5C010000 		.4byte	.LVL406
 12158 1efd 5E010000 		.4byte	.LVL407
 12159 1f01 0100     		.2byte	0x1
 12160 1f03 55       		.byte	0x55
 12161 1f04 82010000 		.4byte	.LVL410
 12162 1f08 84010000 		.4byte	.LVL411
 12163 1f0c 0100     		.2byte	0x1
 12164 1f0e 55       		.byte	0x55
 12165 1f0f A8010000 		.4byte	.LVL415
 12166 1f13 B8010000 		.4byte	.LVL416
ARM GAS  /tmp/ccAUe7jC.s 			page 215


 12167 1f17 0100     		.2byte	0x1
 12168 1f19 52       		.byte	0x52
 12169 1f1a B8010000 		.4byte	.LVL416
 12170 1f1e 0A020000 		.4byte	.LVL420
 12171 1f22 0100     		.2byte	0x1
 12172 1f24 55       		.byte	0x55
 12173 1f25 0A020000 		.4byte	.LVL420
 12174 1f29 0C020000 		.4byte	.LVL421
 12175 1f2d 0900     		.2byte	0x9
 12176 1f2f 7A       		.byte	0x7a
 12177 1f30 00       		.sleb128 0
 12178 1f31 91       		.byte	0x91
 12179 1f32 40       		.sleb128 -64
 12180 1f33 06       		.byte	0x6
 12181 1f34 22       		.byte	0x22
 12182 1f35 32       		.byte	0x32
 12183 1f36 1C       		.byte	0x1c
 12184 1f37 9F       		.byte	0x9f
 12185 1f38 0C020000 		.4byte	.LVL421
 12186 1f3c 38020000 		.4byte	.LVL424
 12187 1f40 0100     		.2byte	0x1
 12188 1f42 55       		.byte	0x55
 12189 1f43 50020000 		.4byte	.LVL426
 12190 1f47 AA020000 		.4byte	.LVL430
 12191 1f4b 0100     		.2byte	0x1
 12192 1f4d 55       		.byte	0x55
 12193 1f4e AC020000 		.4byte	.LVL431
 12194 1f52 CC020000 		.4byte	.LVL434
 12195 1f56 0100     		.2byte	0x1
 12196 1f58 55       		.byte	0x55
 12197 1f59 14030000 		.4byte	.LVL436
 12198 1f5d 16030000 		.4byte	.LVL437
 12199 1f61 0100     		.2byte	0x1
 12200 1f63 55       		.byte	0x55
 12201 1f64 24030000 		.4byte	.LVL439
 12202 1f68 26030000 		.4byte	.LVL440
 12203 1f6c 0100     		.2byte	0x1
 12204 1f6e 52       		.byte	0x52
 12205 1f6f 26030000 		.4byte	.LVL440
 12206 1f73 28030000 		.4byte	.LVL441
 12207 1f77 0100     		.2byte	0x1
 12208 1f79 55       		.byte	0x55
 12209 1f7a 28030000 		.4byte	.LVL441
 12210 1f7e 2E030000 		.4byte	.LVL443
 12211 1f82 0100     		.2byte	0x1
 12212 1f84 51       		.byte	0x51
 12213 1f85 2E030000 		.4byte	.LVL443
 12214 1f89 34030000 		.4byte	.LVL445
 12215 1f8d 0100     		.2byte	0x1
 12216 1f8f 55       		.byte	0x55
 12217 1f90 34030000 		.4byte	.LVL445
 12218 1f94 36030000 		.4byte	.LVL446
 12219 1f98 0100     		.2byte	0x1
 12220 1f9a 52       		.byte	0x52
 12221 1f9b 36030000 		.4byte	.LVL446
 12222 1f9f 3A030000 		.4byte	.LVL447
 12223 1fa3 0100     		.2byte	0x1
ARM GAS  /tmp/ccAUe7jC.s 			page 216


 12224 1fa5 55       		.byte	0x55
 12225 1fa6 40030000 		.4byte	.LVL449
 12226 1faa 84030000 		.4byte	.LVL452
 12227 1fae 0100     		.2byte	0x1
 12228 1fb0 55       		.byte	0x55
 12229 1fb1 86030000 		.4byte	.LVL453
 12230 1fb5 A4030000 		.4byte	.LVL455
 12231 1fb9 0100     		.2byte	0x1
 12232 1fbb 55       		.byte	0x55
 12233 1fbc A4030000 		.4byte	.LVL455
 12234 1fc0 A6030000 		.4byte	.LVL456
 12235 1fc4 0100     		.2byte	0x1
 12236 1fc6 53       		.byte	0x53
 12237 1fc7 A6030000 		.4byte	.LVL456
 12238 1fcb AC030000 		.4byte	.LFE135
 12239 1fcf 0100     		.2byte	0x1
 12240 1fd1 55       		.byte	0x55
 12241 1fd2 00000000 		.4byte	0
 12242 1fd6 00000000 		.4byte	0
 12243              	.LLST128:
 12244 1fda 88000000 		.4byte	.LVL381
 12245 1fde C3000000 		.4byte	.LVL384-1
 12246 1fe2 0100     		.2byte	0x1
 12247 1fe4 52       		.byte	0x52
 12248 1fe5 08010000 		.4byte	.LVL395
 12249 1fe9 50010000 		.4byte	.LVL404
 12250 1fed 0200     		.2byte	0x2
 12251 1fef 76       		.byte	0x76
 12252 1ff0 00       		.sleb128 0
 12253 1ff1 50010000 		.4byte	.LVL404
 12254 1ff5 58010000 		.4byte	.LVL405
 12255 1ff9 0200     		.2byte	0x2
 12256 1ffb 73       		.byte	0x73
 12257 1ffc 7F       		.sleb128 -1
 12258 1ffd 5E010000 		.4byte	.LVL407
 12259 2001 84010000 		.4byte	.LVL411
 12260 2005 0100     		.2byte	0x1
 12261 2007 52       		.byte	0x52
 12262 2008 BA010000 		.4byte	.LVL417
 12263 200c 08020000 		.4byte	.LVL419
 12264 2010 0200     		.2byte	0x2
 12265 2012 73       		.byte	0x73
 12266 2013 00       		.sleb128 0
 12267 2014 08020000 		.4byte	.LVL419
 12268 2018 22020000 		.4byte	.LVL422
 12269 201c 0200     		.2byte	0x2
 12270 201e 70       		.byte	0x70
 12271 201f 01       		.sleb128 1
 12272 2020 22020000 		.4byte	.LVL422
 12273 2024 2E020000 		.4byte	.LVL423
 12274 2028 0200     		.2byte	0x2
 12275 202a 73       		.byte	0x73
 12276 202b 00       		.sleb128 0
 12277 202c 2E020000 		.4byte	.LVL423
 12278 2030 38020000 		.4byte	.LVL424
 12279 2034 0200     		.2byte	0x2
 12280 2036 70       		.byte	0x70
ARM GAS  /tmp/ccAUe7jC.s 			page 217


 12281 2037 01       		.sleb128 1
 12282 2038 62020000 		.4byte	.LVL428
 12283 203c 6C020000 		.4byte	.LVL429
 12284 2040 0200     		.2byte	0x2
 12285 2042 71       		.byte	0x71
 12286 2043 00       		.sleb128 0
 12287 2044 6C020000 		.4byte	.LVL429
 12288 2048 C4020000 		.4byte	.LVL432
 12289 204c 0200     		.2byte	0x2
 12290 204e 73       		.byte	0x73
 12291 204f 00       		.sleb128 0
 12292 2050 C4020000 		.4byte	.LVL432
 12293 2054 CC020000 		.4byte	.LVL434
 12294 2058 0200     		.2byte	0x2
 12295 205a 70       		.byte	0x70
 12296 205b 01       		.sleb128 1
 12297 205c 28030000 		.4byte	.LVL441
 12298 2060 2E030000 		.4byte	.LVL443
 12299 2064 0200     		.2byte	0x2
 12300 2066 76       		.byte	0x76
 12301 2067 00       		.sleb128 0
 12302 2068 2E030000 		.4byte	.LVL443
 12303 206c 34030000 		.4byte	.LVL445
 12304 2070 0200     		.2byte	0x2
 12305 2072 73       		.byte	0x73
 12306 2073 00       		.sleb128 0
 12307 2074 44030000 		.4byte	.LVL450
 12308 2078 4C030000 		.4byte	.LVL451
 12309 207c 0200     		.2byte	0x2
 12310 207e 70       		.byte	0x70
 12311 207f 01       		.sleb128 1
 12312 2080 4C030000 		.4byte	.LVL451
 12313 2084 A2030000 		.4byte	.LVL454
 12314 2088 0200     		.2byte	0x2
 12315 208a 73       		.byte	0x73
 12316 208b 00       		.sleb128 0
 12317 208c A2030000 		.4byte	.LVL454
 12318 2090 AC030000 		.4byte	.LFE135
 12319 2094 0200     		.2byte	0x2
 12320 2096 70       		.byte	0x70
 12321 2097 01       		.sleb128 1
 12322 2098 00000000 		.4byte	0
 12323 209c 00000000 		.4byte	0
 12324              	.LLST129:
 12325 20a0 80000000 		.4byte	.LVL380
 12326 20a4 D2000000 		.4byte	.LVL387
 12327 20a8 0100     		.2byte	0x1
 12328 20aa 59       		.byte	0x59
 12329 20ab FC000000 		.4byte	.LVL391
 12330 20af 02010000 		.4byte	.LVL392
 12331 20b3 0200     		.2byte	0x2
 12332 20b5 31       		.byte	0x31
 12333 20b6 9F       		.byte	0x9f
 12334 20b7 04010000 		.4byte	.LVL393
 12335 20bb 5E010000 		.4byte	.LVL407
 12336 20bf 0100     		.2byte	0x1
 12337 20c1 5C       		.byte	0x5c
ARM GAS  /tmp/ccAUe7jC.s 			page 218


 12338 20c2 5E010000 		.4byte	.LVL407
 12339 20c6 6A010000 		.4byte	.LVL408
 12340 20ca 0100     		.2byte	0x1
 12341 20cc 59       		.byte	0x59
 12342 20cd 6C010000 		.4byte	.LVL409
 12343 20d1 84010000 		.4byte	.LVL411
 12344 20d5 0100     		.2byte	0x1
 12345 20d7 59       		.byte	0x59
 12346 20d8 A8010000 		.4byte	.LVL415
 12347 20dc 02020000 		.4byte	.LVL418
 12348 20e0 0200     		.2byte	0x2
 12349 20e2 31       		.byte	0x31
 12350 20e3 9F       		.byte	0x9f
 12351 20e4 02020000 		.4byte	.LVL418
 12352 20e8 0C020000 		.4byte	.LVL421
 12353 20ec 0100     		.2byte	0x1
 12354 20ee 51       		.byte	0x51
 12355 20ef 0C020000 		.4byte	.LVL421
 12356 20f3 16030000 		.4byte	.LVL437
 12357 20f7 0200     		.2byte	0x2
 12358 20f9 91       		.byte	0x91
 12359 20fa 44       		.sleb128 -60
 12360 20fb 28030000 		.4byte	.LVL441
 12361 20ff 2C030000 		.4byte	.LVL442
 12362 2103 0100     		.2byte	0x1
 12363 2105 5C       		.byte	0x5c
 12364 2106 2E030000 		.4byte	.LVL443
 12365 210a 30030000 		.4byte	.LVL444
 12366 210e 0100     		.2byte	0x1
 12367 2110 51       		.byte	0x51
 12368 2111 30030000 		.4byte	.LVL444
 12369 2115 34030000 		.4byte	.LVL445
 12370 2119 0200     		.2byte	0x2
 12371 211b 91       		.byte	0x91
 12372 211c 44       		.sleb128 -60
 12373 211d 34030000 		.4byte	.LVL445
 12374 2121 36030000 		.4byte	.LVL446
 12375 2125 0200     		.2byte	0x2
 12376 2127 31       		.byte	0x31
 12377 2128 9F       		.byte	0x9f
 12378 2129 3A030000 		.4byte	.LVL447
 12379 212d AC030000 		.4byte	.LFE135
 12380 2131 0200     		.2byte	0x2
 12381 2133 91       		.byte	0x91
 12382 2134 44       		.sleb128 -60
 12383 2135 00000000 		.4byte	0
 12384 2139 00000000 		.4byte	0
 12385              	.LLST130:
 12386 213d 00000000 		.4byte	.LFB140
 12387 2141 02000000 		.4byte	.LCFI31
 12388 2145 0200     		.2byte	0x2
 12389 2147 7D       		.byte	0x7d
 12390 2148 00       		.sleb128 0
 12391 2149 02000000 		.4byte	.LCFI31
 12392 214d 5A000000 		.4byte	.LFE140
 12393 2151 0200     		.2byte	0x2
 12394 2153 7D       		.byte	0x7d
ARM GAS  /tmp/ccAUe7jC.s 			page 219


 12395 2154 10       		.sleb128 16
 12396 2155 00000000 		.4byte	0
 12397 2159 00000000 		.4byte	0
 12398              	.LLST131:
 12399 215d 00000000 		.4byte	.LVL457
 12400 2161 28000000 		.4byte	.LVL461
 12401 2165 0100     		.2byte	0x1
 12402 2167 50       		.byte	0x50
 12403 2168 28000000 		.4byte	.LVL461
 12404 216c 5A000000 		.4byte	.LFE140
 12405 2170 0400     		.2byte	0x4
 12406 2172 F3       		.byte	0xf3
 12407 2173 01       		.uleb128 0x1
 12408 2174 50       		.byte	0x50
 12409 2175 9F       		.byte	0x9f
 12410 2176 00000000 		.4byte	0
 12411 217a 00000000 		.4byte	0
 12412              	.LLST132:
 12413 217e 00000000 		.4byte	.LVL457
 12414 2182 36000000 		.4byte	.LVL463
 12415 2186 0100     		.2byte	0x1
 12416 2188 51       		.byte	0x51
 12417 2189 36000000 		.4byte	.LVL463
 12418 218d 5A000000 		.4byte	.LFE140
 12419 2191 0400     		.2byte	0x4
 12420 2193 F3       		.byte	0xf3
 12421 2194 01       		.uleb128 0x1
 12422 2195 51       		.byte	0x51
 12423 2196 9F       		.byte	0x9f
 12424 2197 00000000 		.4byte	0
 12425 219b 00000000 		.4byte	0
 12426              	.LLST133:
 12427 219f 00000000 		.4byte	.LVL457
 12428 21a3 16000000 		.4byte	.LVL459
 12429 21a7 0100     		.2byte	0x1
 12430 21a9 52       		.byte	0x52
 12431 21aa 16000000 		.4byte	.LVL459
 12432 21ae 5A000000 		.4byte	.LFE140
 12433 21b2 0400     		.2byte	0x4
 12434 21b4 F3       		.byte	0xf3
 12435 21b5 01       		.uleb128 0x1
 12436 21b6 52       		.byte	0x52
 12437 21b7 9F       		.byte	0x9f
 12438 21b8 00000000 		.4byte	0
 12439 21bc 00000000 		.4byte	0
 12440              	.LLST134:
 12441 21c0 08000000 		.4byte	.LVL458
 12442 21c4 3A000000 		.4byte	.LVL464
 12443 21c8 0100     		.2byte	0x1
 12444 21ca 53       		.byte	0x53
 12445 21cb 00000000 		.4byte	0
 12446 21cf 00000000 		.4byte	0
 12447              	.LLST135:
 12448 21d3 1C000000 		.4byte	.LVL460
 12449 21d7 46000000 		.4byte	.LVL467
 12450 21db 0100     		.2byte	0x1
 12451 21dd 52       		.byte	0x52
ARM GAS  /tmp/ccAUe7jC.s 			page 220


 12452 21de 00000000 		.4byte	0
 12453 21e2 00000000 		.4byte	0
 12454              	.LLST136:
 12455 21e6 2C000000 		.4byte	.LVL462
 12456 21ea 3E000000 		.4byte	.LVL465
 12457 21ee 0700     		.2byte	0x7
 12458 21f0 75       		.byte	0x75
 12459 21f1 00       		.sleb128 0
 12460 21f2 0A       		.byte	0xa
 12461 21f3 F8FF     		.2byte	0xfff8
 12462 21f5 1A       		.byte	0x1a
 12463 21f6 9F       		.byte	0x9f
 12464 21f7 3E000000 		.4byte	.LVL465
 12465 21fb 5A000000 		.4byte	.LFE140
 12466 21ff 0900     		.2byte	0x9
 12467 2201 74       		.byte	0x74
 12468 2202 00       		.sleb128 0
 12469 2203 0A       		.byte	0xa
 12470 2204 F8FF     		.2byte	0xfff8
 12471 2206 1A       		.byte	0x1a
 12472 2207 38       		.byte	0x38
 12473 2208 25       		.byte	0x25
 12474 2209 9F       		.byte	0x9f
 12475 220a 00000000 		.4byte	0
 12476 220e 00000000 		.4byte	0
 12477              	.LLST137:
 12478 2212 2C000000 		.4byte	.LVL462
 12479 2216 3E000000 		.4byte	.LVL465
 12480 221a 0700     		.2byte	0x7
 12481 221c 77       		.byte	0x77
 12482 221d 00       		.sleb128 0
 12483 221e 0A       		.byte	0xa
 12484 221f FCFF     		.2byte	0xfffc
 12485 2221 1A       		.byte	0x1a
 12486 2222 9F       		.byte	0x9f
 12487 2223 3E000000 		.4byte	.LVL465
 12488 2227 42000000 		.4byte	.LVL466
 12489 222b 0900     		.2byte	0x9
 12490 222d 70       		.byte	0x70
 12491 222e 00       		.sleb128 0
 12492 222f 0A       		.byte	0xa
 12493 2230 FCFF     		.2byte	0xfffc
 12494 2232 1A       		.byte	0x1a
 12495 2233 38       		.byte	0x38
 12496 2234 25       		.byte	0x25
 12497 2235 9F       		.byte	0x9f
 12498 2236 42000000 		.4byte	.LVL466
 12499 223a 46000000 		.4byte	.LVL467
 12500 223e 1100     		.2byte	0x11
 12501 2240 7C       		.byte	0x7c
 12502 2241 00       		.sleb128 0
 12503 2242 33       		.byte	0x33
 12504 2243 26       		.byte	0x26
 12505 2244 72       		.byte	0x72
 12506 2245 00       		.sleb128 0
 12507 2246 1E       		.byte	0x1e
 12508 2247 77       		.byte	0x77
ARM GAS  /tmp/ccAUe7jC.s 			page 221


 12509 2248 00       		.sleb128 0
 12510 2249 22       		.byte	0x22
 12511 224a 0A       		.byte	0xa
 12512 224b FCFF     		.2byte	0xfffc
 12513 224d 1A       		.byte	0x1a
 12514 224e 38       		.byte	0x38
 12515 224f 25       		.byte	0x25
 12516 2250 9F       		.byte	0x9f
 12517 2251 00000000 		.4byte	0
 12518 2255 00000000 		.4byte	0
 12519              	.LLST138:
 12520 2259 3A000000 		.4byte	.LVL464
 12521 225d 46000000 		.4byte	.LVL467
 12522 2261 0700     		.2byte	0x7
 12523 2263 73       		.byte	0x73
 12524 2264 00       		.sleb128 0
 12525 2265 0A       		.byte	0xa
 12526 2266 F8FF     		.2byte	0xfff8
 12527 2268 1A       		.byte	0x1a
 12528 2269 9F       		.byte	0x9f
 12529 226a 46000000 		.4byte	.LVL467
 12530 226e 5A000000 		.4byte	.LFE140
 12531 2272 0900     		.2byte	0x9
 12532 2274 72       		.byte	0x72
 12533 2275 00       		.sleb128 0
 12534 2276 0A       		.byte	0xa
 12535 2277 F8FF     		.2byte	0xfff8
 12536 2279 1A       		.byte	0x1a
 12537 227a 38       		.byte	0x38
 12538 227b 25       		.byte	0x25
 12539 227c 9F       		.byte	0x9f
 12540 227d 00000000 		.4byte	0
 12541 2281 00000000 		.4byte	0
 12542              		.section	.debug_aranges,"",%progbits
 12543 0000 CC000000 		.4byte	0xcc
 12544 0004 0200     		.2byte	0x2
 12545 0006 00000000 		.4byte	.Ldebug_info0
 12546 000a 04       		.byte	0x4
 12547 000b 00       		.byte	0
 12548 000c 0000     		.2byte	0
 12549 000e 0000     		.2byte	0
 12550 0010 00000000 		.4byte	.LFB118
 12551 0014 22000000 		.4byte	.LFE118-.LFB118
 12552 0018 00000000 		.4byte	.LFB119
 12553 001c 04000000 		.4byte	.LFE119-.LFB119
 12554 0020 00000000 		.4byte	.LFB120
 12555 0024 1E000000 		.4byte	.LFE120-.LFB120
 12556 0028 00000000 		.4byte	.LFB121
 12557 002c 26000000 		.4byte	.LFE121-.LFB121
 12558 0030 00000000 		.4byte	.LFB122
 12559 0034 36000000 		.4byte	.LFE122-.LFB122
 12560 0038 00000000 		.4byte	.LFB123
 12561 003c 36000000 		.4byte	.LFE123-.LFB123
 12562 0040 00000000 		.4byte	.LFB124
 12563 0044 46000000 		.4byte	.LFE124-.LFB124
 12564 0048 00000000 		.4byte	.LFB125
 12565 004c 2A000000 		.4byte	.LFE125-.LFB125
ARM GAS  /tmp/ccAUe7jC.s 			page 222


 12566 0050 00000000 		.4byte	.LFB126
 12567 0054 2A000000 		.4byte	.LFE126-.LFB126
 12568 0058 00000000 		.4byte	.LFB127
 12569 005c 2A000000 		.4byte	.LFE127-.LFB127
 12570 0060 00000000 		.4byte	.LFB128
 12571 0064 36000000 		.4byte	.LFE128-.LFB128
 12572 0068 00000000 		.4byte	.LFB129
 12573 006c 3C000000 		.4byte	.LFE129-.LFB129
 12574 0070 00000000 		.4byte	.LFB130
 12575 0074 D8000000 		.4byte	.LFE130-.LFB130
 12576 0078 00000000 		.4byte	.LFB131
 12577 007c 38010000 		.4byte	.LFE131-.LFB131
 12578 0080 00000000 		.4byte	.LFB132
 12579 0084 7C050000 		.4byte	.LFE132-.LFB132
 12580 0088 00000000 		.4byte	.LFB133
 12581 008c 7C000000 		.4byte	.LFE133-.LFB133
 12582 0090 00000000 		.4byte	.LFB134
 12583 0094 B4000000 		.4byte	.LFE134-.LFB134
 12584 0098 00000000 		.4byte	.LFB137
 12585 009c 5C000000 		.4byte	.LFE137-.LFB137
 12586 00a0 00000000 		.4byte	.LFB138
 12587 00a4 22000000 		.4byte	.LFE138-.LFB138
 12588 00a8 00000000 		.4byte	.LFB139
 12589 00ac 52000000 		.4byte	.LFE139-.LFB139
 12590 00b0 00000000 		.4byte	.LFB136
 12591 00b4 FC030000 		.4byte	.LFE136-.LFB136
 12592 00b8 00000000 		.4byte	.LFB135
 12593 00bc AC030000 		.4byte	.LFE135-.LFB135
 12594 00c0 00000000 		.4byte	.LFB140
 12595 00c4 5A000000 		.4byte	.LFE140-.LFB140
 12596 00c8 00000000 		.4byte	0
 12597 00cc 00000000 		.4byte	0
 12598              		.section	.debug_ranges,"",%progbits
 12599              	.Ldebug_ranges0:
 12600 0000 00000000 		.4byte	.LFB118
 12601 0004 22000000 		.4byte	.LFE118
 12602 0008 00000000 		.4byte	.LFB119
 12603 000c 04000000 		.4byte	.LFE119
 12604 0010 00000000 		.4byte	.LFB120
 12605 0014 1E000000 		.4byte	.LFE120
 12606 0018 00000000 		.4byte	.LFB121
 12607 001c 26000000 		.4byte	.LFE121
 12608 0020 00000000 		.4byte	.LFB122
 12609 0024 36000000 		.4byte	.LFE122
 12610 0028 00000000 		.4byte	.LFB123
 12611 002c 36000000 		.4byte	.LFE123
 12612 0030 00000000 		.4byte	.LFB124
 12613 0034 46000000 		.4byte	.LFE124
 12614 0038 00000000 		.4byte	.LFB125
 12615 003c 2A000000 		.4byte	.LFE125
 12616 0040 00000000 		.4byte	.LFB126
 12617 0044 2A000000 		.4byte	.LFE126
 12618 0048 00000000 		.4byte	.LFB127
 12619 004c 2A000000 		.4byte	.LFE127
 12620 0050 00000000 		.4byte	.LFB128
 12621 0054 36000000 		.4byte	.LFE128
 12622 0058 00000000 		.4byte	.LFB129
ARM GAS  /tmp/ccAUe7jC.s 			page 223


 12623 005c 3C000000 		.4byte	.LFE129
 12624 0060 00000000 		.4byte	.LFB130
 12625 0064 D8000000 		.4byte	.LFE130
 12626 0068 00000000 		.4byte	.LFB131
 12627 006c 38010000 		.4byte	.LFE131
 12628 0070 00000000 		.4byte	.LFB132
 12629 0074 7C050000 		.4byte	.LFE132
 12630 0078 00000000 		.4byte	.LFB133
 12631 007c 7C000000 		.4byte	.LFE133
 12632 0080 00000000 		.4byte	.LFB134
 12633 0084 B4000000 		.4byte	.LFE134
 12634 0088 00000000 		.4byte	.LFB137
 12635 008c 5C000000 		.4byte	.LFE137
 12636 0090 00000000 		.4byte	.LFB138
 12637 0094 22000000 		.4byte	.LFE138
 12638 0098 00000000 		.4byte	.LFB139
 12639 009c 52000000 		.4byte	.LFE139
 12640 00a0 00000000 		.4byte	.LFB136
 12641 00a4 FC030000 		.4byte	.LFE136
 12642 00a8 00000000 		.4byte	.LFB135
 12643 00ac AC030000 		.4byte	.LFE135
 12644 00b0 00000000 		.4byte	.LFB140
 12645 00b4 5A000000 		.4byte	.LFE140
 12646 00b8 00000000 		.4byte	0
 12647 00bc 00000000 		.4byte	0
 12648              		.section	.debug_line,"",%progbits
 12649              	.Ldebug_line0:
 12650 0000 F4080000 		.section	.debug_str,"MS",%progbits,1
 12650      0200EF01 
 12650      00000201 
 12650      FB0E0D00 
 12650      01010101 
 12651              	.LASF68:
 12652 0000 6A757374 		.ascii	"justify\000"
 12652      69667900 
 12653              	.LASF98:
 12654 0008 67646973 		.ascii	"gdispDrawPixel\000"
 12654      70447261 
 12654      77506978 
 12654      656C00
 12655              	.LASF101:
 12656 0017 67646973 		.ascii	"gdispFillArea\000"
 12656      7046696C 
 12656      6C417265 
 12656      6100
 12657              	.LASF73:
 12658 0025 666F6E74 		.ascii	"fontCharPadding\000"
 12658      43686172 
 12658      50616464 
 12658      696E6700 
 12659              	.LASF1:
 12660 0035 7369676E 		.ascii	"signed char\000"
 12660      65642063 
 12660      68617200 
 12661              	.LASF158:
 12662 0041 67646973 		.ascii	"gdisp_lld_fill_char\000"
 12662      705F6C6C 
ARM GAS  /tmp/ccAUe7jC.s 			page 224


 12662      645F6669 
 12662      6C6C5F63 
 12662      68617200 
 12663              	.LASF9:
 12664 0055 6C6F6E67 		.ascii	"long int\000"
 12664      20696E74 
 12664      00
 12665              	.LASF84:
 12666 005e 6D696E57 		.ascii	"minWidth\000"
 12666      69647468 
 12666      00
 12667              	.LASF116:
 12668 0067 706E7461 		.ascii	"pntarray\000"
 12668      72726179 
 12668      00
 12669              	.LASF85:
 12670 0070 6D617857 		.ascii	"maxWidth\000"
 12670      69647468 
 12670      00
 12671              	.LASF13:
 12672 0079 6C6F6E67 		.ascii	"long long unsigned int\000"
 12672      206C6F6E 
 12672      6720756E 
 12672      7369676E 
 12672      65642069 
 12673              	.LASF71:
 12674 0090 666F6E74 		.ascii	"fontDescendersHeight\000"
 12674      44657363 
 12674      656E6465 
 12674      72734865 
 12674      69676874 
 12675              	.LASF55:
 12676 00a5 65786974 		.ascii	"exitcode\000"
 12676      636F6465 
 12676      00
 12677              	.LASF157:
 12678 00ae 49544D5F 		.ascii	"ITM_RxBuffer\000"
 12678      52784275 
 12678      66666572 
 12678      00
 12679              	.LASF66:
 12680 00bb 6A757374 		.ascii	"justifyRight\000"
 12680      69667952 
 12680      69676874 
 12680      00
 12681              	.LASF107:
 12682 00c8 67646973 		.ascii	"gdispSetClip\000"
 12682      70536574 
 12682      436C6970 
 12682      00
 12683              	.LASF27:
 12684 00d5 705F7072 		.ascii	"p_prio\000"
 12684      696F00
 12685              	.LASF115:
 12686 00dc 67646973 		.ascii	"gdispDrawPoly\000"
 12686      70447261 
 12686      77506F6C 
ARM GAS  /tmp/ccAUe7jC.s 			page 225


 12686      7900
 12687              	.LASF4:
 12688 00ea 696E7431 		.ascii	"int16_t\000"
 12688      365F7400 
 12689              	.LASF143:
 12690 00f2 63684D74 		.ascii	"chMtxUnlock\000"
 12690      78556E6C 
 12690      6F636B00 
 12691              	.LASF70:
 12692 00fe 666F6E74 		.ascii	"fontHeight\000"
 12692      48656967 
 12692      687400
 12693              	.LASF132:
 12694 0109 78706F73 		.ascii	"xpos\000"
 12694      00
 12695              	.LASF136:
 12696 010e 616C7068 		.ascii	"alpha\000"
 12696      6100
 12697              	.LASF104:
 12698 0114 73726379 		.ascii	"srcy\000"
 12698      00
 12699              	.LASF87:
 12700 0119 6D617843 		.ascii	"maxChar\000"
 12700      68617200 
 12701              	.LASF14:
 12702 0121 626F6F6C 		.ascii	"bool_t\000"
 12702      5F7400
 12703              	.LASF51:
 12704 0128 6D5F7175 		.ascii	"m_queue\000"
 12704      65756500 
 12705              	.LASF75:
 12706 0130 666F6E74 		.ascii	"fontMaxWidth\000"
 12706      4D617857 
 12706      69647468 
 12706      00
 12707              	.LASF56:
 12708 013d 77746F62 		.ascii	"wtobjp\000"
 12708      6A7000
 12709              	.LASF19:
 12710 0144 74736C69 		.ascii	"tslices_t\000"
 12710      6365735F 
 12710      7400
 12711              	.LASF69:
 12712 014e 666F6E74 		.ascii	"fontmetric\000"
 12712      6D657472 
 12712      696300
 12713              	.LASF81:
 12714 0159 63686172 		.ascii	"charPadding\000"
 12714      50616464 
 12714      696E6700 
 12715              	.LASF142:
 12716 0165 67646973 		.ascii	"gdisp_lld_init\000"
 12716      705F6C6C 
 12716      645F696E 
 12716      697400
 12717              	.LASF65:
 12718 0174 6A757374 		.ascii	"justifyCenter\000"
ARM GAS  /tmp/ccAUe7jC.s 			page 226


 12718      69667943 
 12718      656E7465 
 12718      7200
 12719              	.LASF151:
 12720 0182 67646973 		.ascii	"gdisp_lld_fill_circle\000"
 12720      705F6C6C 
 12720      645F6669 
 12720      6C6C5F63 
 12720      6972636C 
 12721              	.LASF17:
 12722 0198 74737461 		.ascii	"tstate_t\000"
 12722      74655F74 
 12722      00
 12723              	.LASF106:
 12724 01a1 62756666 		.ascii	"buffer\000"
 12724      657200
 12725              	.LASF29:
 12726 01a8 705F6E65 		.ascii	"p_newer\000"
 12726      77657200 
 12727              	.LASF122:
 12728 01b0 796D6178 		.ascii	"ymax\000"
 12728      00
 12729              	.LASF90:
 12730 01b5 77696474 		.ascii	"widthTable\000"
 12730      68546162 
 12730      6C6500
 12731              	.LASF42:
 12732 01c0 705F7265 		.ascii	"p_realprio\000"
 12732      616C7072 
 12732      696F00
 12733              	.LASF138:
 12734 01cb 62675F72 		.ascii	"bg_ratio\000"
 12734      6174696F 
 12734      00
 12735              	.LASF43:
 12736 01d4 705F6D70 		.ascii	"p_mpool\000"
 12736      6F6F6C00 
 12737              	.LASF46:
 12738 01dc 72656761 		.ascii	"regarm_t\000"
 12738      726D5F74 
 12738      00
 12739              	.LASF152:
 12740 01e5 67646973 		.ascii	"gdisp_lld_draw_char\000"
 12740      705F6C6C 
 12740      645F6472 
 12740      61775F63 
 12740      68617200 
 12741              	.LASF12:
 12742 01f9 6C6F6E67 		.ascii	"long long int\000"
 12742      206C6F6E 
 12742      6720696E 
 12742      7400
 12743              	.LASF0:
 12744 0207 756E7369 		.ascii	"unsigned int\000"
 12744      676E6564 
 12744      20696E74 
 12744      00
ARM GAS  /tmp/ccAUe7jC.s 			page 227


 12745              	.LASF147:
 12746 0214 67646973 		.ascii	"gdisp_lld_fill_area\000"
 12746      705F6C6C 
 12746      645F6669 
 12746      6C6C5F61 
 12746      72656100 
 12747              	.LASF6:
 12748 0228 75696E74 		.ascii	"uint16_t\000"
 12748      31365F74 
 12748      00
 12749              	.LASF62:
 12750 0231 706F696E 		.ascii	"point_t\000"
 12750      745F7400 
 12751              	.LASF36:
 12752 0239 705F7469 		.ascii	"p_time\000"
 12752      6D6500
 12753              	.LASF63:
 12754 0240 706F696E 		.ascii	"point\000"
 12754      7400
 12755              	.LASF82:
 12756 0246 6C696E65 		.ascii	"lineSpacing\000"
 12756      53706163 
 12756      696E6700 
 12757              	.LASF111:
 12758 0252 67646973 		.ascii	"gdispDrawChar\000"
 12758      70447261 
 12758      77436861 
 12758      7200
 12759              	.LASF38:
 12760 0260 705F6D73 		.ascii	"p_msgqueue\000"
 12760      67717565 
 12760      756500
 12761              	.LASF137:
 12762 026b 66675F72 		.ascii	"fg_ratio\000"
 12762      6174696F 
 12762      00
 12763              	.LASF72:
 12764 0274 666F6E74 		.ascii	"fontLineSpacing\000"
 12764      4C696E65 
 12764      53706163 
 12764      696E6700 
 12765              	.LASF114:
 12766 0284 67646973 		.ascii	"gdispDrawBox\000"
 12766      70447261 
 12766      77426F78 
 12766      00
 12767              	.LASF79:
 12768 0291 6E616D65 		.ascii	"name\000"
 12768      00
 12769              	.LASF150:
 12770 0296 67646973 		.ascii	"gdisp_lld_draw_circle\000"
 12770      705F6C6C 
 12770      645F6472 
 12770      61775F63 
 12770      6972636C 
 12771              	.LASF7:
 12772 02ac 73686F72 		.ascii	"short unsigned int\000"
ARM GAS  /tmp/ccAUe7jC.s 			page 228


 12772      7420756E 
 12772      7369676E 
 12772      65642069 
 12772      6E7400
 12773              	.LASF21:
 12774 02bf 6D73675F 		.ascii	"msg_t\000"
 12774      7400
 12775              	.LASF100:
 12776 02c5 67646973 		.ascii	"gdispDrawLine\000"
 12776      70447261 
 12776      774C696E 
 12776      6500
 12777              	.LASF125:
 12778 02d3 67646973 		.ascii	"gdispFillString\000"
 12778      7046696C 
 12778      6C537472 
 12778      696E6700 
 12779              	.LASF113:
 12780 02e3 6267636F 		.ascii	"bgcolor\000"
 12780      6C6F7200 
 12781              	.LASF154:
 12782 02eb 2E2E2F2E 		.ascii	"../../ext/ugfx/src/gdisp/gdisp.c\000"
 12782      2E2F6578 
 12782      742F7567 
 12782      66782F73 
 12782      72632F67 
 12783              	.LASF102:
 12784 030c 67646973 		.ascii	"gdispBlitAreaEx\000"
 12784      70426C69 
 12784      74417265 
 12784      61457800 
 12785              	.LASF97:
 12786 031c 67646973 		.ascii	"gdispClear\000"
 12786      70436C65 
 12786      617200
 12787              	.LASF45:
 12788 0327 54687265 		.ascii	"ThreadsList\000"
 12788      6164734C 
 12788      69737400 
 12789              	.LASF22:
 12790 0333 6576656E 		.ascii	"eventmask_t\000"
 12790      746D6173 
 12790      6B5F7400 
 12791              	.LASF123:
 12792 033f 67646973 		.ascii	"gdispDrawString\000"
 12792      70447261 
 12792      77537472 
 12792      696E6700 
 12793              	.LASF153:
 12794 034f 474E5520 		.ascii	"GNU C 4.7.4 20130613 (release) [ARM/embedded-4_7-br"
 12794      4320342E 
 12794      372E3420 
 12794      32303133 
 12794      30363133 
 12795 0382 616E6368 		.ascii	"anch revision 200083]\000"
 12795      20726576 
 12795      6973696F 
ARM GAS  /tmp/ccAUe7jC.s 			page 229


 12795      6E203230 
 12795      30303833 
 12796              	.LASF127:
 12797 0398 67646973 		.ascii	"gdispGetFontMetric\000"
 12797      70476574 
 12797      466F6E74 
 12797      4D657472 
 12797      696300
 12798              	.LASF88:
 12799 03ab 78736361 		.ascii	"xscale\000"
 12799      6C6500
 12800              	.LASF109:
 12801 03b2 72616469 		.ascii	"radius\000"
 12801      757300
 12802              	.LASF60:
 12803 03b9 66697865 		.ascii	"fixed\000"
 12803      6400
 12804              	.LASF93:
 12805 03bf 636F6C6F 		.ascii	"color_t\000"
 12805      725F7400 
 12806              	.LASF49:
 12807 03c7 73697A65 		.ascii	"sizetype\000"
 12807      74797065 
 12807      00
 12808              	.LASF50:
 12809 03d0 4D757465 		.ascii	"Mutex\000"
 12809      7800
 12810              	.LASF64:
 12811 03d6 6A757374 		.ascii	"justifyLeft\000"
 12811      6966794C 
 12811      65667400 
 12812              	.LASF40:
 12813 03e2 705F6570 		.ascii	"p_epending\000"
 12813      656E6469 
 12813      6E6700
 12814              	.LASF118:
 12815 03ed 67646973 		.ascii	"gdispFillConvexPoly\000"
 12815      7046696C 
 12815      6C436F6E 
 12815      76657850 
 12815      6F6C7900 
 12816              	.LASF141:
 12817 0401 63684D74 		.ascii	"chMtxLock\000"
 12817      784C6F63 
 12817      6B00
 12818              	.LASF30:
 12819 040b 705F6F6C 		.ascii	"p_older\000"
 12819      64657200 
 12820              	.LASF44:
 12821 0413 54687265 		.ascii	"ThreadsQueue\000"
 12821      61647351 
 12821      75657565 
 12821      00
 12822              	.LASF91:
 12823 0420 6F666673 		.ascii	"offsetTable\000"
 12823      65745461 
 12823      626C6500 
ARM GAS  /tmp/ccAUe7jC.s 			page 230


 12824              	.LASF61:
 12825 042c 636F6F72 		.ascii	"coord_t\000"
 12825      645F7400 
 12826              	.LASF148:
 12827 0434 67646973 		.ascii	"gdisp_lld_blit_area_ex\000"
 12827      705F6C6C 
 12827      645F626C 
 12827      69745F61 
 12827      7265615F 
 12828              	.LASF119:
 12829 044b 6C706E74 		.ascii	"lpnt\000"
 12829      00
 12830              	.LASF133:
 12831 0450 67646973 		.ascii	"gdispDrawStringBox\000"
 12831      70447261 
 12831      77537472 
 12831      696E6742 
 12831      6F7800
 12832              	.LASF89:
 12833 0463 79736361 		.ascii	"yscale\000"
 12833      6C6500
 12834              	.LASF59:
 12835 046a 6766784D 		.ascii	"gfxMutex\000"
 12835      75746578 
 12835      00
 12836              	.LASF83:
 12837 0473 64657363 		.ascii	"descenderHeight\000"
 12837      656E6465 
 12837      72486569 
 12837      67687400 
 12838              	.LASF18:
 12839 0483 74726566 		.ascii	"trefs_t\000"
 12839      735F7400 
 12840              	.LASF145:
 12841 048b 67646973 		.ascii	"gdisp_lld_draw_pixel\000"
 12841      705F6C6C 
 12841      645F6472 
 12841      61775F70 
 12841      6978656C 
 12842              	.LASF77:
 12843 04a0 666F6E74 		.ascii	"font_t\000"
 12843      5F7400
 12844              	.LASF26:
 12845 04a7 705F7072 		.ascii	"p_prev\000"
 12845      657600
 12846              	.LASF144:
 12847 04ae 67646973 		.ascii	"gdisp_lld_clear\000"
 12847      705F6C6C 
 12847      645F636C 
 12847      65617200 
 12848              	.LASF20:
 12849 04be 74707269 		.ascii	"tprio_t\000"
 12849      6F5F7400 
 12850              	.LASF15:
 12851 04c6 5F426F6F 		.ascii	"_Bool\000"
 12851      6C00
 12852              	.LASF8:
ARM GAS  /tmp/ccAUe7jC.s 			page 231


 12853 04cc 696E7433 		.ascii	"int32_t\000"
 12853      325F7400 
 12854              	.LASF2:
 12855 04d4 756E7369 		.ascii	"unsigned char\000"
 12855      676E6564 
 12855      20636861 
 12855      7200
 12856              	.LASF74:
 12857 04e2 666F6E74 		.ascii	"fontMinWidth\000"
 12857      4D696E57 
 12857      69647468 
 12857      00
 12858              	.LASF129:
 12859 04ef 67646973 		.ascii	"gdispGetStringWidth\000"
 12859      70476574 
 12859      53747269 
 12859      6E675769 
 12859      64746800 
 12860              	.LASF32:
 12861 0503 705F7374 		.ascii	"p_state\000"
 12861      61746500 
 12862              	.LASF41:
 12863 050b 705F6D74 		.ascii	"p_mtxlist\000"
 12863      786C6973 
 12863      7400
 12864              	.LASF5:
 12865 0515 73686F72 		.ascii	"short int\000"
 12865      7420696E 
 12865      7400
 12866              	.LASF35:
 12867 051f 705F7072 		.ascii	"p_preempt\000"
 12867      65656D70 
 12867      7400
 12868              	.LASF120:
 12869 0529 72706E74 		.ascii	"rpnt\000"
 12869      00
 12870              	.LASF57:
 12871 052e 65776D61 		.ascii	"ewmask\000"
 12871      736B00
 12872              	.LASF25:
 12873 0535 705F6E65 		.ascii	"p_next\000"
 12873      787400
 12874              	.LASF16:
 12875 053c 746D6F64 		.ascii	"tmode_t\000"
 12875      655F7400 
 12876              	.LASF33:
 12877 0544 705F666C 		.ascii	"p_flags\000"
 12877      61677300 
 12878              	.LASF131:
 12879 054c 79706F73 		.ascii	"ypos\000"
 12879      00
 12880              	.LASF112:
 12881 0551 67646973 		.ascii	"gdispFillChar\000"
 12881      7046696C 
 12881      6C436861 
 12881      7200
 12882              	.LASF24:
ARM GAS  /tmp/ccAUe7jC.s 			page 232


 12883 055f 54687265 		.ascii	"Thread\000"
 12883      616400
 12884              	.LASF128:
 12885 0566 67646973 		.ascii	"gdispGetCharWidth\000"
 12885      70476574 
 12885      43686172 
 12885      57696474 
 12885      6800
 12886              	.LASF135:
 12887 0578 67646973 		.ascii	"gdispBlendColor\000"
 12887      70426C65 
 12887      6E64436F 
 12887      6C6F7200 
 12888              	.LASF155:
 12889 0588 2F686F6D 		.ascii	"/home/witold/Dokumenty/arm/ChibiOS-master/demos/wid"
 12889      652F7769 
 12889      746F6C64 
 12889      2F446F6B 
 12889      756D656E 
 12890 05bb 67657473 		.ascii	"gets\000"
 12890      00
 12891              	.LASF156:
 12892 05c0 67646973 		.ascii	"gdispIsBusy\000"
 12892      70497342 
 12892      75737900 
 12893              	.LASF10:
 12894 05cc 75696E74 		.ascii	"uint32_t\000"
 12894      33325F74 
 12894      00
 12895              	.LASF95:
 12896 05d5 666F6E74 		.ascii	"fontcolumn_t\000"
 12896      636F6C75 
 12896      6D6E5F74 
 12896      00
 12897              	.LASF124:
 12898 05e2 66697273 		.ascii	"first\000"
 12898      7400
 12899              	.LASF11:
 12900 05e8 6C6F6E67 		.ascii	"long unsigned int\000"
 12900      20756E73 
 12900      69676E65 
 12900      6420696E 
 12900      7400
 12901              	.LASF86:
 12902 05fa 6D696E43 		.ascii	"minChar\000"
 12902      68617200 
 12903              	.LASF99:
 12904 0602 636F6C6F 		.ascii	"color\000"
 12904      7200
 12905              	.LASF58:
 12906 0608 63686172 		.ascii	"char\000"
 12906      00
 12907              	.LASF96:
 12908 060d 5F676469 		.ascii	"_gdispInit\000"
 12908      7370496E 
 12908      697400
 12909              	.LASF103:
ARM GAS  /tmp/ccAUe7jC.s 			page 233


 12910 0618 73726378 		.ascii	"srcx\000"
 12910      00
 12911              	.LASF126:
 12912 061d 6D657472 		.ascii	"metric\000"
 12912      696300
 12913              	.LASF53:
 12914 0624 6D5F6E65 		.ascii	"m_next\000"
 12914      787400
 12915              	.LASF23:
 12916 062b 73797374 		.ascii	"systime_t\000"
 12916      696D655F 
 12916      7400
 12917              	.LASF146:
 12918 0635 67646973 		.ascii	"gdisp_lld_draw_line\000"
 12918      705F6C6C 
 12918      645F6472 
 12918      61775F6C 
 12918      696E6500 
 12919              	.LASF117:
 12920 0649 65706E74 		.ascii	"epnt\000"
 12920      00
 12921              	.LASF67:
 12922 064e 6A757374 		.ascii	"justify_t\000"
 12922      6966795F 
 12922      7400
 12923              	.LASF48:
 12924 0658 636F6E74 		.ascii	"context\000"
 12924      65787400 
 12925              	.LASF149:
 12926 0660 67646973 		.ascii	"gdisp_lld_set_clip\000"
 12926      705F6C6C 
 12926      645F7365 
 12926      745F636C 
 12926      697000
 12927              	.LASF47:
 12928 0673 696E7463 		.ascii	"intctx\000"
 12928      747800
 12929              	.LASF105:
 12930 067a 73726363 		.ascii	"srccx\000"
 12930      7800
 12931              	.LASF140:
 12932 0680 63684D74 		.ascii	"chMtxInit\000"
 12932      78496E69 
 12932      7400
 12933              	.LASF110:
 12934 068a 67646973 		.ascii	"gdispFillCircle\000"
 12934      7046696C 
 12934      6C436972 
 12934      636C6500 
 12935              	.LASF94:
 12936 069a 70697865 		.ascii	"pixel_t\000"
 12936      6C5F7400 
 12937              	.LASF54:
 12938 06a2 7264796D 		.ascii	"rdymsg\000"
 12938      736700
 12939              	.LASF34:
 12940 06a9 705F7265 		.ascii	"p_refs\000"
ARM GAS  /tmp/ccAUe7jC.s 			page 234


 12940      667300
 12941              	.LASF78:
 12942 06b0 666F6E74 		.ascii	"font\000"
 12942      00
 12943              	.LASF108:
 12944 06b5 67646973 		.ascii	"gdispDrawCircle\000"
 12944      70447261 
 12944      77436972 
 12944      636C6500 
 12945              	.LASF76:
 12946 06c5 666F6E74 		.ascii	"fontmetric_t\000"
 12946      6D657472 
 12946      69635F74 
 12946      00
 12947              	.LASF3:
 12948 06d2 75696E74 		.ascii	"uint8_t\000"
 12948      385F7400 
 12949              	.LASF130:
 12950 06da 67646973 		.ascii	"gdispFillStringBox\000"
 12950      7046696C 
 12950      6C537472 
 12950      696E6742 
 12950      6F7800
 12951              	.LASF139:
 12952 06ed 67646973 		.ascii	"gdispMutex\000"
 12952      704D7574 
 12952      657800
 12953              	.LASF134:
 12954 06f8 72737472 		.ascii	"rstr\000"
 12954      00
 12955              	.LASF31:
 12956 06fd 705F6E61 		.ascii	"p_name\000"
 12956      6D6500
 12957              	.LASF92:
 12958 0704 64617461 		.ascii	"dataTable\000"
 12958      5461626C 
 12958      6500
 12959              	.LASF39:
 12960 070e 705F6D73 		.ascii	"p_msg\000"
 12960      6700
 12961              	.LASF80:
 12962 0714 68656967 		.ascii	"height\000"
 12962      687400
 12963              	.LASF52:
 12964 071b 6D5F6F77 		.ascii	"m_owner\000"
 12964      6E657200 
 12965              	.LASF28:
 12966 0723 705F6374 		.ascii	"p_ctx\000"
 12966      7800
 12967              	.LASF37:
 12968 0729 705F7761 		.ascii	"p_waiting\000"
 12968      6974696E 
 12968      6700
 12969              	.LASF121:
 12970 0733 65706E74 		.ascii	"epnts\000"
 12970      7300
 12971              		.ident	"GCC: (GNU Tools for ARM Embedded Processors) 4.7.4 20130613 (release) [ARM/embedded-4_7-br
ARM GAS  /tmp/ccAUe7jC.s 			page 235


ARM GAS  /tmp/ccAUe7jC.s 			page 236


DEFINED SYMBOLS
                            *ABS*:00000000 gdisp.c
     /tmp/ccAUe7jC.s:21     .text._gdispInit:00000000 $t
     /tmp/ccAUe7jC.s:27     .text._gdispInit:00000000 _gdispInit
     /tmp/ccAUe7jC.s:3877   .bss.gdispMutex:00000000 .LANCHOR0
     /tmp/ccAUe7jC.s:61     .text.gdispIsBusy:00000000 $t
     /tmp/ccAUe7jC.s:67     .text.gdispIsBusy:00000000 gdispIsBusy
     /tmp/ccAUe7jC.s:81     .text.gdispClear:00000000 $t
     /tmp/ccAUe7jC.s:87     .text.gdispClear:00000000 gdispClear
     /tmp/ccAUe7jC.s:120    .text.gdispDrawPixel:00000000 $t
     /tmp/ccAUe7jC.s:126    .text.gdispDrawPixel:00000000 gdispDrawPixel
     /tmp/ccAUe7jC.s:167    .text.gdispDrawLine:00000000 $t
     /tmp/ccAUe7jC.s:173    .text.gdispDrawLine:00000000 gdispDrawLine
     /tmp/ccAUe7jC.s:224    .text.gdispFillArea:00000000 $t
     /tmp/ccAUe7jC.s:230    .text.gdispFillArea:00000000 gdispFillArea
     /tmp/ccAUe7jC.s:281    .text.gdispBlitAreaEx:00000000 $t
     /tmp/ccAUe7jC.s:287    .text.gdispBlitAreaEx:00000000 gdispBlitAreaEx
     /tmp/ccAUe7jC.s:347    .text.gdispSetClip:00000000 $t
     /tmp/ccAUe7jC.s:353    .text.gdispSetClip:00000000 gdispSetClip
     /tmp/ccAUe7jC.s:398    .text.gdispDrawCircle:00000000 $t
     /tmp/ccAUe7jC.s:404    .text.gdispDrawCircle:00000000 gdispDrawCircle
     /tmp/ccAUe7jC.s:449    .text.gdispFillCircle:00000000 $t
     /tmp/ccAUe7jC.s:455    .text.gdispFillCircle:00000000 gdispFillCircle
     /tmp/ccAUe7jC.s:500    .text.gdispDrawChar:00000000 $t
     /tmp/ccAUe7jC.s:506    .text.gdispDrawChar:00000000 gdispDrawChar
     /tmp/ccAUe7jC.s:557    .text.gdispFillChar:00000000 $t
     /tmp/ccAUe7jC.s:563    .text.gdispFillChar:00000000 gdispFillChar
     /tmp/ccAUe7jC.s:617    .text.gdispDrawBox:00000000 $t
     /tmp/ccAUe7jC.s:623    .text.gdispDrawBox:00000000 gdispDrawBox
     /tmp/ccAUe7jC.s:777    .text.gdispDrawPoly:00000000 $t
     /tmp/ccAUe7jC.s:783    .text.gdispDrawPoly:00000000 gdispDrawPoly
     /tmp/ccAUe7jC.s:971    .text.gdispFillConvexPoly:00000000 $t
     /tmp/ccAUe7jC.s:977    .text.gdispFillConvexPoly:00000000 gdispFillConvexPoly
     /tmp/ccAUe7jC.s:1927   .text.gdispDrawString:00000000 $t
     /tmp/ccAUe7jC.s:1933   .text.gdispDrawString:00000000 gdispDrawString
     /tmp/ccAUe7jC.s:2042   .text.gdispFillString:00000000 $t
     /tmp/ccAUe7jC.s:2048   .text.gdispFillString:00000000 gdispFillString
     /tmp/ccAUe7jC.s:2195   .text.gdispGetFontMetric:00000000 $t
     /tmp/ccAUe7jC.s:2201   .text.gdispGetFontMetric:00000000 gdispGetFontMetric
     /tmp/ccAUe7jC.s:2214   .text.gdispGetFontMetric:00000008 $d
     /tmp/ccAUe7jC.s:2220   .text.gdispGetFontMetric:0000000e $t
     /tmp/ccAUe7jC.s:2295   .text.gdispGetCharWidth:00000000 $t
     /tmp/ccAUe7jC.s:2301   .text.gdispGetCharWidth:00000000 gdispGetCharWidth
     /tmp/ccAUe7jC.s:2339   .text.gdispGetStringWidth:00000000 $t
     /tmp/ccAUe7jC.s:2345   .text.gdispGetStringWidth:00000000 gdispGetStringWidth
     /tmp/ccAUe7jC.s:2435   .text.gdispFillStringBox:00000000 $t
     /tmp/ccAUe7jC.s:2441   .text.gdispFillStringBox:00000000 gdispFillStringBox
     /tmp/ccAUe7jC.s:3145   .text.gdispFillStringBox:000003f8 $d
     /tmp/ccAUe7jC.s:3150   .text.gdispDrawStringBox:00000000 $t
     /tmp/ccAUe7jC.s:3156   .text.gdispDrawStringBox:00000000 gdispDrawStringBox
     /tmp/ccAUe7jC.s:3562   .text.gdispDrawStringBox:00000248 $d
     /tmp/ccAUe7jC.s:3566   .text.gdispDrawStringBox:0000024c $t
     /tmp/ccAUe7jC.s:3784   .text.gdispBlendColor:00000000 $t
     /tmp/ccAUe7jC.s:3790   .text.gdispBlendColor:00000000 gdispBlendColor
     /tmp/ccAUe7jC.s:3872   .rodata.str1.4:00000000 $d
     /tmp/ccAUe7jC.s:3876   .bss.gdispMutex:00000000 $d
     /tmp/ccAUe7jC.s:3880   .bss.gdispMutex:00000000 gdispMutex
ARM GAS  /tmp/ccAUe7jC.s 			page 237


                     .debug_frame:00000010 $d
     /tmp/ccAUe7jC.s:3149   .text.gdispFillStringBox:000003fc $t

UNDEFINED SYMBOLS
chMtxInit
chMtxLock
gdisp_lld_init
chMtxUnlock
gdisp_lld_clear
gdisp_lld_draw_pixel
gdisp_lld_draw_line
gdisp_lld_fill_area
gdisp_lld_blit_area_ex
gdisp_lld_set_clip
gdisp_lld_draw_circle
gdisp_lld_fill_circle
gdisp_lld_draw_char
gdisp_lld_fill_char
