ARM GAS  /tmp/ccAUe7jC.s 			page 1


   1              		.syntax unified
   2              		.cpu cortex-m4
   3              		.eabi_attribute 27, 3
   4              		.eabi_attribute 28, 1
   5              		.fpu fpv4-sp-d16
   6              		.eabi_attribute 20, 1
   7              		.eabi_attribute 21, 1
   8              		.eabi_attribute 23, 3
   9              		.eabi_attribute 24, 1
  10              		.eabi_attribute 25, 1
  11              		.eabi_attribute 26, 1
  12              		.eabi_attribute 30, 2
  13              		.eabi_attribute 34, 1
  14              		.eabi_attribute 18, 4
  15              		.thumb
  16              		.file	"gdisp.c"
  17              		.text
  18              	.Ltext0:
  19              		.cfi_sections	.debug_frame
  20              		.section	.text._gdispInit,"ax",%progbits
  21              		.align	2
  22              		.p2align 4,,15
  23              		.global	_gdispInit
  24              		.thumb
  25              		.thumb_func
  26              		.type	_gdispInit, %function
  27              	_gdispInit:
  28              	.LFB118:
  29              		.file 1 "../../ext/ugfx/src/gdisp/gdisp.c"
  30              		.loc 1 103 0
  31              		.cfi_startproc
  32              		@ args = 0, pretend = 0, frame = 0
  33              		@ frame_needed = 0, uses_anonymous_args = 0
  34 0000 10B5     		push	{r4, lr}
  35              	.LCFI0:
  36              		.cfi_def_cfa_offset 8
  37              		.cfi_offset 4, -8
  38              		.cfi_offset 14, -4
  39              		.loc 1 105 0
  40 0002 40F20004 		movw	r4, #:lower16:.LANCHOR0
  41 0006 C0F20004 		movt	r4, #:upper16:.LANCHOR0
  42 000a 2046     		mov	r0, r4
  43 000c FFF7FEFF 		bl	chMtxInit
  44              	.LVL0:
  45              		.loc 1 108 0
  46 0010 2046     		mov	r0, r4
  47 0012 FFF7FEFF 		bl	chMtxLock
  48              	.LVL1:
  49              		.loc 1 109 0
  50 0016 FFF7FEFF 		bl	gdisp_lld_init
  51              	.LVL2:
  52              		.loc 1 111 0
  53 001a BDE81040 		pop	{r4, lr}
  54              		.loc 1 110 0
  55 001e FFF7FEBF 		b	chMtxUnlock
  56              	.LVL3:
  57              		.cfi_endproc
ARM GAS  /tmp/ccAUe7jC.s 			page 2


  58              	.LFE118:
  59              		.size	_gdispInit, .-_gdispInit
  60 0022 00BFAFF3 		.section	.text.gdispIsBusy,"ax",%progbits
  60      0080AFF3 
  60      0080AFF3 
  60      0080
  61              		.align	2
  62              		.p2align 4,,15
  63              		.global	gdispIsBusy
  64              		.thumb
  65              		.thumb_func
  66              		.type	gdispIsBusy, %function
  67              	gdispIsBusy:
  68              	.LFB119:
  69              		.loc 1 145 0
  70              		.cfi_startproc
  71              		@ args = 0, pretend = 0, frame = 0
  72              		@ frame_needed = 0, uses_anonymous_args = 0
  73              		@ link register save eliminated.
  74              		.loc 1 147 0
  75 0000 0020     		movs	r0, #0
  76 0002 7047     		bx	lr
  77              		.cfi_endproc
  78              	.LFE119:
  79              		.size	gdispIsBusy, .-gdispIsBusy
  80 0004 AFF30080 		.section	.text.gdispClear,"ax",%progbits
  80      AFF30080 
  80      AFF30080 
  81              		.align	2
  82              		.p2align 4,,15
  83              		.global	gdispClear
  84              		.thumb
  85              		.thumb_func
  86              		.type	gdispClear, %function
  87              	gdispClear:
  88              	.LFB120:
  89              		.loc 1 155 0
  90              		.cfi_startproc
  91              		@ args = 0, pretend = 0, frame = 0
  92              		@ frame_needed = 0, uses_anonymous_args = 0
  93              	.LVL4:
  94 0000 10B5     		push	{r4, lr}
  95              	.LCFI1:
  96              		.cfi_def_cfa_offset 8
  97              		.cfi_offset 4, -8
  98              		.cfi_offset 14, -4
  99              		.loc 1 155 0
 100 0002 0446     		mov	r4, r0
 101              		.loc 1 156 0
 102 0004 40F20000 		movw	r0, #:lower16:.LANCHOR0
 103              	.LVL5:
 104 0008 C0F20000 		movt	r0, #:upper16:.LANCHOR0
 105 000c FFF7FEFF 		bl	chMtxLock
 106              	.LVL6:
 107              		.loc 1 157 0
 108 0010 2046     		mov	r0, r4
 109 0012 FFF7FEFF 		bl	gdisp_lld_clear
ARM GAS  /tmp/ccAUe7jC.s 			page 3


 110              	.LVL7:
 111              		.loc 1 159 0
 112 0016 BDE81040 		pop	{r4, lr}
 113              		.loc 1 158 0
 114 001a FFF7FEBF 		b	chMtxUnlock
 115              	.LVL8:
 116              		.cfi_endproc
 117              	.LFE120:
 118              		.size	gdispClear, .-gdispClear
 119 001e 00BF     		.section	.text.gdispDrawPixel,"ax",%progbits
 120              		.align	2
 121              		.p2align 4,,15
 122              		.global	gdispDrawPixel
 123              		.thumb
 124              		.thumb_func
 125              		.type	gdispDrawPixel, %function
 126              	gdispDrawPixel:
 127              	.LFB121:
 128              		.loc 1 169 0
 129              		.cfi_startproc
 130              		@ args = 0, pretend = 0, frame = 0
 131              		@ frame_needed = 0, uses_anonymous_args = 0
 132              	.LVL9:
 133 0000 70B5     		push	{r4, r5, r6, lr}
 134              	.LCFI2:
 135              		.cfi_def_cfa_offset 16
 136              		.cfi_offset 4, -16
 137              		.cfi_offset 5, -12
 138              		.cfi_offset 6, -8
 139              		.cfi_offset 14, -4
 140              		.loc 1 169 0
 141 0002 0446     		mov	r4, r0
 142              		.loc 1 170 0
 143 0004 40F20000 		movw	r0, #:lower16:.LANCHOR0
 144              	.LVL10:
 145              		.loc 1 169 0
 146 0008 0E46     		mov	r6, r1
 147 000a 1546     		mov	r5, r2
 148              		.loc 1 170 0
 149 000c C0F20000 		movt	r0, #:upper16:.LANCHOR0
 150 0010 FFF7FEFF 		bl	chMtxLock
 151              	.LVL11:
 152              		.loc 1 171 0
 153 0014 2046     		mov	r0, r4
 154 0016 3146     		mov	r1, r6
 155 0018 2A46     		mov	r2, r5
 156 001a FFF7FEFF 		bl	gdisp_lld_draw_pixel
 157              	.LVL12:
 158              		.loc 1 173 0
 159 001e BDE87040 		pop	{r4, r5, r6, lr}
 160              		.loc 1 172 0
 161 0022 FFF7FEBF 		b	chMtxUnlock
 162              	.LVL13:
 163              		.cfi_endproc
 164              	.LFE121:
 165              		.size	gdispDrawPixel, .-gdispDrawPixel
 166 0026 00BFAFF3 		.section	.text.gdispDrawLine,"ax",%progbits
ARM GAS  /tmp/ccAUe7jC.s 			page 4


 166      0080AFF3 
 166      0080
 167              		.align	2
 168              		.p2align 4,,15
 169              		.global	gdispDrawLine
 170              		.thumb
 171              		.thumb_func
 172              		.type	gdispDrawLine, %function
 173              	gdispDrawLine:
 174              	.LFB122:
 175              		.loc 1 185 0
 176              		.cfi_startproc
 177              		@ args = 4, pretend = 0, frame = 0
 178              		@ frame_needed = 0, uses_anonymous_args = 0
 179              	.LVL14:
 180 0000 2DE9F041 		push	{r4, r5, r6, r7, r8, lr}
 181              	.LCFI3:
 182              		.cfi_def_cfa_offset 24
 183              		.cfi_offset 4, -24
 184              		.cfi_offset 5, -20
 185              		.cfi_offset 6, -16
 186              		.cfi_offset 7, -12
 187              		.cfi_offset 8, -8
 188              		.cfi_offset 14, -4
 189 0004 82B0     		sub	sp, sp, #8
 190              	.LCFI4:
 191              		.cfi_def_cfa_offset 32
 192              		.loc 1 185 0
 193 0006 0546     		mov	r5, r0
 194 0008 BDF82040 		ldrh	r4, [sp, #32]
 195              		.loc 1 186 0
 196 000c 40F20000 		movw	r0, #:lower16:.LANCHOR0
 197              	.LVL15:
 198              		.loc 1 185 0
 199 0010 8846     		mov	r8, r1
 200 0012 1746     		mov	r7, r2
 201 0014 1E46     		mov	r6, r3
 202              		.loc 1 186 0
 203 0016 C0F20000 		movt	r0, #:upper16:.LANCHOR0
 204 001a FFF7FEFF 		bl	chMtxLock
 205              	.LVL16:
 206              		.loc 1 187 0
 207 001e 0094     		str	r4, [sp, #0]
 208 0020 2846     		mov	r0, r5
 209 0022 4146     		mov	r1, r8
 210 0024 3A46     		mov	r2, r7
 211 0026 3346     		mov	r3, r6
 212 0028 FFF7FEFF 		bl	gdisp_lld_draw_line
 213              	.LVL17:
 214              		.loc 1 189 0
 215 002c 02B0     		add	sp, sp, #8
 216 002e BDE8F041 		pop	{r4, r5, r6, r7, r8, lr}
 217              		.loc 1 188 0
 218 0032 FFF7FEBF 		b	chMtxUnlock
 219              	.LVL18:
 220              		.cfi_endproc
 221              	.LFE122:
ARM GAS  /tmp/ccAUe7jC.s 			page 5


 222              		.size	gdispDrawLine, .-gdispDrawLine
 223 0036 00BFAFF3 		.section	.text.gdispFillArea,"ax",%progbits
 223      0080AFF3 
 223      0080
 224              		.align	2
 225              		.p2align 4,,15
 226              		.global	gdispFillArea
 227              		.thumb
 228              		.thumb_func
 229              		.type	gdispFillArea, %function
 230              	gdispFillArea:
 231              	.LFB123:
 232              		.loc 1 203 0
 233              		.cfi_startproc
 234              		@ args = 4, pretend = 0, frame = 0
 235              		@ frame_needed = 0, uses_anonymous_args = 0
 236              	.LVL19:
 237 0000 2DE9F041 		push	{r4, r5, r6, r7, r8, lr}
 238              	.LCFI5:
 239              		.cfi_def_cfa_offset 24
 240              		.cfi_offset 4, -24
 241              		.cfi_offset 5, -20
 242              		.cfi_offset 6, -16
 243              		.cfi_offset 7, -12
 244              		.cfi_offset 8, -8
 245              		.cfi_offset 14, -4
 246 0004 82B0     		sub	sp, sp, #8
 247              	.LCFI6:
 248              		.cfi_def_cfa_offset 32
 249              		.loc 1 203 0
 250 0006 0546     		mov	r5, r0
 251 0008 BDF82040 		ldrh	r4, [sp, #32]
 252              		.loc 1 204 0
 253 000c 40F20000 		movw	r0, #:lower16:.LANCHOR0
 254              	.LVL20:
 255              		.loc 1 203 0
 256 0010 8846     		mov	r8, r1
 257 0012 1746     		mov	r7, r2
 258 0014 1E46     		mov	r6, r3
 259              		.loc 1 204 0
 260 0016 C0F20000 		movt	r0, #:upper16:.LANCHOR0
 261 001a FFF7FEFF 		bl	chMtxLock
 262              	.LVL21:
 263              		.loc 1 205 0
 264 001e 0094     		str	r4, [sp, #0]
 265 0020 2846     		mov	r0, r5
 266 0022 4146     		mov	r1, r8
 267 0024 3A46     		mov	r2, r7
 268 0026 3346     		mov	r3, r6
 269 0028 FFF7FEFF 		bl	gdisp_lld_fill_area
 270              	.LVL22:
 271              		.loc 1 207 0
 272 002c 02B0     		add	sp, sp, #8
 273 002e BDE8F041 		pop	{r4, r5, r6, r7, r8, lr}
 274              		.loc 1 206 0
 275 0032 FFF7FEBF 		b	chMtxUnlock
 276              	.LVL23:
ARM GAS  /tmp/ccAUe7jC.s 			page 6


 277              		.cfi_endproc
 278              	.LFE123:
 279              		.size	gdispFillArea, .-gdispFillArea
 280 0036 00BFAFF3 		.section	.text.gdispBlitAreaEx,"ax",%progbits
 280      0080AFF3 
 280      0080
 281              		.align	2
 282              		.p2align 4,,15
 283              		.global	gdispBlitAreaEx
 284              		.thumb
 285              		.thumb_func
 286              		.type	gdispBlitAreaEx, %function
 287              	gdispBlitAreaEx:
 288              	.LFB124:
 289              		.loc 1 221 0
 290              		.cfi_startproc
 291              		@ args = 16, pretend = 0, frame = 0
 292              		@ frame_needed = 0, uses_anonymous_args = 0
 293              	.LVL24:
 294 0000 2DE9F04F 		push	{r4, r5, r6, r7, r8, r9, sl, fp, lr}
 295              	.LCFI7:
 296              		.cfi_def_cfa_offset 36
 297              		.cfi_offset 4, -36
 298              		.cfi_offset 5, -32
 299              		.cfi_offset 6, -28
 300              		.cfi_offset 7, -24
 301              		.cfi_offset 8, -20
 302              		.cfi_offset 9, -16
 303              		.cfi_offset 10, -12
 304              		.cfi_offset 11, -8
 305              		.cfi_offset 14, -4
 306 0004 85B0     		sub	sp, sp, #20
 307              	.LCFI8:
 308              		.cfi_def_cfa_offset 56
 309              		.loc 1 221 0
 310 0006 8046     		mov	r8, r0
 311 0008 BDF93870 		ldrsh	r7, [sp, #56]
 312 000c BDF93C60 		ldrsh	r6, [sp, #60]
 313 0010 BDF94050 		ldrsh	r5, [sp, #64]
 314 0014 119C     		ldr	r4, [sp, #68]
 315              		.loc 1 222 0
 316 0016 40F20000 		movw	r0, #:lower16:.LANCHOR0
 317              	.LVL25:
 318              		.loc 1 221 0
 319 001a 8B46     		mov	fp, r1
 320 001c 9246     		mov	sl, r2
 321 001e 9946     		mov	r9, r3
 322              		.loc 1 222 0
 323 0020 C0F20000 		movt	r0, #:upper16:.LANCHOR0
 324 0024 FFF7FEFF 		bl	chMtxLock
 325              	.LVL26:
 326              		.loc 1 223 0
 327 0028 0097     		str	r7, [sp, #0]
 328 002a 0196     		str	r6, [sp, #4]
 329 002c 0295     		str	r5, [sp, #8]
 330 002e 0394     		str	r4, [sp, #12]
 331 0030 4046     		mov	r0, r8
ARM GAS  /tmp/ccAUe7jC.s 			page 7


 332 0032 5946     		mov	r1, fp
 333 0034 5246     		mov	r2, sl
 334 0036 4B46     		mov	r3, r9
 335 0038 FFF7FEFF 		bl	gdisp_lld_blit_area_ex
 336              	.LVL27:
 337              		.loc 1 225 0
 338 003c 05B0     		add	sp, sp, #20
 339 003e BDE8F04F 		pop	{r4, r5, r6, r7, r8, r9, sl, fp, lr}
 340              		.loc 1 224 0
 341 0042 FFF7FEBF 		b	chMtxUnlock
 342              	.LVL28:
 343              		.cfi_endproc
 344              	.LFE124:
 345              		.size	gdispBlitAreaEx, .-gdispBlitAreaEx
 346 0046 00BFAFF3 		.section	.text.gdispSetClip,"ax",%progbits
 346      0080AFF3 
 346      0080
 347              		.align	2
 348              		.p2align 4,,15
 349              		.global	gdispSetClip
 350              		.thumb
 351              		.thumb_func
 352              		.type	gdispSetClip, %function
 353              	gdispSetClip:
 354              	.LFB125:
 355              		.loc 1 242 0
 356              		.cfi_startproc
 357              		@ args = 0, pretend = 0, frame = 0
 358              		@ frame_needed = 0, uses_anonymous_args = 0
 359              	.LVL29:
 360 0000 F8B5     		push	{r3, r4, r5, r6, r7, lr}
 361              	.LCFI9:
 362              		.cfi_def_cfa_offset 24
 363              		.cfi_offset 3, -24
 364              		.cfi_offset 4, -20
 365              		.cfi_offset 5, -16
 366              		.cfi_offset 6, -12
 367              		.cfi_offset 7, -8
 368              		.cfi_offset 14, -4
 369              		.loc 1 242 0
 370 0002 0446     		mov	r4, r0
 371              		.loc 1 243 0
 372 0004 40F20000 		movw	r0, #:lower16:.LANCHOR0
 373              	.LVL30:
 374              		.loc 1 242 0
 375 0008 0F46     		mov	r7, r1
 376 000a 1646     		mov	r6, r2
 377 000c 1D46     		mov	r5, r3
 378              		.loc 1 243 0
 379 000e C0F20000 		movt	r0, #:upper16:.LANCHOR0
 380 0012 FFF7FEFF 		bl	chMtxLock
 381              	.LVL31:
 382              		.loc 1 244 0
 383 0016 2046     		mov	r0, r4
 384 0018 3946     		mov	r1, r7
 385 001a 3246     		mov	r2, r6
 386 001c 2B46     		mov	r3, r5
ARM GAS  /tmp/ccAUe7jC.s 			page 8


 387 001e FFF7FEFF 		bl	gdisp_lld_set_clip
 388              	.LVL32:
 389              		.loc 1 246 0
 390 0022 BDE8F840 		pop	{r3, r4, r5, r6, r7, lr}
 391              		.loc 1 245 0
 392 0026 FFF7FEBF 		b	chMtxUnlock
 393              	.LVL33:
 394              		.cfi_endproc
 395              	.LFE125:
 396              		.size	gdispSetClip, .-gdispSetClip
 397 002a 00BFAFF3 		.section	.text.gdispDrawCircle,"ax",%progbits
 397      0080
 398              		.align	2
 399              		.p2align 4,,15
 400              		.global	gdispDrawCircle
 401              		.thumb
 402              		.thumb_func
 403              		.type	gdispDrawCircle, %function
 404              	gdispDrawCircle:
 405              	.LFB126:
 406              		.loc 1 259 0
 407              		.cfi_startproc
 408              		@ args = 0, pretend = 0, frame = 0
 409              		@ frame_needed = 0, uses_anonymous_args = 0
 410              	.LVL34:
 411 0000 F8B5     		push	{r3, r4, r5, r6, r7, lr}
 412              	.LCFI10:
 413              		.cfi_def_cfa_offset 24
 414              		.cfi_offset 3, -24
 415              		.cfi_offset 4, -20
 416              		.cfi_offset 5, -16
 417              		.cfi_offset 6, -12
 418              		.cfi_offset 7, -8
 419              		.cfi_offset 14, -4
 420              		.loc 1 259 0
 421 0002 0446     		mov	r4, r0
 422              		.loc 1 260 0
 423 0004 40F20000 		movw	r0, #:lower16:.LANCHOR0
 424              	.LVL35:
 425              		.loc 1 259 0
 426 0008 0F46     		mov	r7, r1
 427 000a 1646     		mov	r6, r2
 428 000c 1D46     		mov	r5, r3
 429              		.loc 1 260 0
 430 000e C0F20000 		movt	r0, #:upper16:.LANCHOR0
 431 0012 FFF7FEFF 		bl	chMtxLock
 432              	.LVL36:
 433              		.loc 1 261 0
 434 0016 2046     		mov	r0, r4
 435 0018 3946     		mov	r1, r7
 436 001a 3246     		mov	r2, r6
 437 001c 2B46     		mov	r3, r5
 438 001e FFF7FEFF 		bl	gdisp_lld_draw_circle
 439              	.LVL37:
 440              		.loc 1 263 0
 441 0022 BDE8F840 		pop	{r3, r4, r5, r6, r7, lr}
 442              		.loc 1 262 0
ARM GAS  /tmp/ccAUe7jC.s 			page 9


 443 0026 FFF7FEBF 		b	chMtxUnlock
 444              	.LVL38:
 445              		.cfi_endproc
 446              	.LFE126:
 447              		.size	gdispDrawCircle, .-gdispDrawCircle
 448 002a 00BFAFF3 		.section	.text.gdispFillCircle,"ax",%progbits
 448      0080
 449              		.align	2
 450              		.p2align 4,,15
 451              		.global	gdispFillCircle
 452              		.thumb
 453              		.thumb_func
 454              		.type	gdispFillCircle, %function
 455              	gdispFillCircle:
 456              	.LFB127:
 457              		.loc 1 276 0
 458              		.cfi_startproc
 459              		@ args = 0, pretend = 0, frame = 0
 460              		@ frame_needed = 0, uses_anonymous_args = 0
 461              	.LVL39:
 462 0000 F8B5     		push	{r3, r4, r5, r6, r7, lr}
 463              	.LCFI11:
 464              		.cfi_def_cfa_offset 24
 465              		.cfi_offset 3, -24
 466              		.cfi_offset 4, -20
 467              		.cfi_offset 5, -16
 468              		.cfi_offset 6, -12
 469              		.cfi_offset 7, -8
 470              		.cfi_offset 14, -4
 471              		.loc 1 276 0
 472 0002 0446     		mov	r4, r0
 473              		.loc 1 277 0
 474 0004 40F20000 		movw	r0, #:lower16:.LANCHOR0
 475              	.LVL40:
 476              		.loc 1 276 0
 477 0008 0F46     		mov	r7, r1
 478 000a 1646     		mov	r6, r2
 479 000c 1D46     		mov	r5, r3
 480              		.loc 1 277 0
 481 000e C0F20000 		movt	r0, #:upper16:.LANCHOR0
 482 0012 FFF7FEFF 		bl	chMtxLock
 483              	.LVL41:
 484              		.loc 1 278 0
 485 0016 2046     		mov	r0, r4
 486 0018 3946     		mov	r1, r7
 487 001a 3246     		mov	r2, r6
 488 001c 2B46     		mov	r3, r5
 489 001e FFF7FEFF 		bl	gdisp_lld_fill_circle
 490              	.LVL42:
 491              		.loc 1 280 0
 492 0022 BDE8F840 		pop	{r3, r4, r5, r6, r7, lr}
 493              		.loc 1 279 0
 494 0026 FFF7FEBF 		b	chMtxUnlock
 495              	.LVL43:
 496              		.cfi_endproc
 497              	.LFE127:
 498              		.size	gdispFillCircle, .-gdispFillCircle
ARM GAS  /tmp/ccAUe7jC.s 			page 10


 499 002a 00BFAFF3 		.section	.text.gdispDrawChar,"ax",%progbits
 499      0080
 500              		.align	2
 501              		.p2align 4,,15
 502              		.global	gdispDrawChar
 503              		.thumb
 504              		.thumb_func
 505              		.type	gdispDrawChar, %function
 506              	gdispDrawChar:
 507              	.LFB128:
 508              		.loc 1 403 0
 509              		.cfi_startproc
 510              		@ args = 4, pretend = 0, frame = 0
 511              		@ frame_needed = 0, uses_anonymous_args = 0
 512              	.LVL44:
 513 0000 2DE9F041 		push	{r4, r5, r6, r7, r8, lr}
 514              	.LCFI12:
 515              		.cfi_def_cfa_offset 24
 516              		.cfi_offset 4, -24
 517              		.cfi_offset 5, -20
 518              		.cfi_offset 6, -16
 519              		.cfi_offset 7, -12
 520              		.cfi_offset 8, -8
 521              		.cfi_offset 14, -4
 522 0004 82B0     		sub	sp, sp, #8
 523              	.LCFI13:
 524              		.cfi_def_cfa_offset 32
 525              		.loc 1 403 0
 526 0006 0546     		mov	r5, r0
 527 0008 BDF82040 		ldrh	r4, [sp, #32]
 528              		.loc 1 404 0
 529 000c 40F20000 		movw	r0, #:lower16:.LANCHOR0
 530              	.LVL45:
 531              		.loc 1 403 0
 532 0010 8846     		mov	r8, r1
 533 0012 1746     		mov	r7, r2
 534 0014 1E46     		mov	r6, r3
 535              		.loc 1 404 0
 536 0016 C0F20000 		movt	r0, #:upper16:.LANCHOR0
 537 001a FFF7FEFF 		bl	chMtxLock
 538              	.LVL46:
 539              		.loc 1 405 0
 540 001e 0094     		str	r4, [sp, #0]
 541 0020 2846     		mov	r0, r5
 542 0022 4146     		mov	r1, r8
 543 0024 3A46     		mov	r2, r7
 544 0026 3346     		mov	r3, r6
 545 0028 FFF7FEFF 		bl	gdisp_lld_draw_char
 546              	.LVL47:
 547              		.loc 1 407 0
 548 002c 02B0     		add	sp, sp, #8
 549 002e BDE8F041 		pop	{r4, r5, r6, r7, r8, lr}
 550              		.loc 1 406 0
 551 0032 FFF7FEBF 		b	chMtxUnlock
 552              	.LVL48:
 553              		.cfi_endproc
 554              	.LFE128:
ARM GAS  /tmp/ccAUe7jC.s 			page 11


 555              		.size	gdispDrawChar, .-gdispDrawChar
 556 0036 00BFAFF3 		.section	.text.gdispFillChar,"ax",%progbits
 556      0080AFF3 
 556      0080
 557              		.align	2
 558              		.p2align 4,,15
 559              		.global	gdispFillChar
 560              		.thumb
 561              		.thumb_func
 562              		.type	gdispFillChar, %function
 563              	gdispFillChar:
 564              	.LFB129:
 565              		.loc 1 421 0
 566              		.cfi_startproc
 567              		@ args = 8, pretend = 0, frame = 0
 568              		@ frame_needed = 0, uses_anonymous_args = 0
 569              	.LVL49:
 570 0000 2DE9F043 		push	{r4, r5, r6, r7, r8, r9, lr}
 571              	.LCFI14:
 572              		.cfi_def_cfa_offset 28
 573              		.cfi_offset 4, -28
 574              		.cfi_offset 5, -24
 575              		.cfi_offset 6, -20
 576              		.cfi_offset 7, -16
 577              		.cfi_offset 8, -12
 578              		.cfi_offset 9, -8
 579              		.cfi_offset 14, -4
 580 0004 83B0     		sub	sp, sp, #12
 581              	.LCFI15:
 582              		.cfi_def_cfa_offset 40
 583              		.loc 1 421 0
 584 0006 0646     		mov	r6, r0
 585 0008 BDF82850 		ldrh	r5, [sp, #40]
 586 000c BDF82C40 		ldrh	r4, [sp, #44]
 587              		.loc 1 422 0
 588 0010 40F20000 		movw	r0, #:lower16:.LANCHOR0
 589              	.LVL50:
 590              		.loc 1 421 0
 591 0014 8946     		mov	r9, r1
 592 0016 9046     		mov	r8, r2
 593 0018 1F46     		mov	r7, r3
 594              		.loc 1 422 0
 595 001a C0F20000 		movt	r0, #:upper16:.LANCHOR0
 596 001e FFF7FEFF 		bl	chMtxLock
 597              	.LVL51:
 598              		.loc 1 423 0
 599 0022 0095     		str	r5, [sp, #0]
 600 0024 0194     		str	r4, [sp, #4]
 601 0026 3046     		mov	r0, r6
 602 0028 4946     		mov	r1, r9
 603 002a 4246     		mov	r2, r8
 604 002c 3B46     		mov	r3, r7
 605 002e FFF7FEFF 		bl	gdisp_lld_fill_char
 606              	.LVL52:
 607              		.loc 1 425 0
 608 0032 03B0     		add	sp, sp, #12
 609 0034 BDE8F043 		pop	{r4, r5, r6, r7, r8, r9, lr}
ARM GAS  /tmp/ccAUe7jC.s 			page 12


 610              		.loc 1 424 0
 611 0038 FFF7FEBF 		b	chMtxUnlock
 612              	.LVL53:
 613              		.cfi_endproc
 614              	.LFE129:
 615              		.size	gdispFillChar, .-gdispFillChar
 616 003c AFF30080 		.section	.text.gdispDrawBox,"ax",%progbits
 617              		.align	2
 618              		.p2align 4,,15
 619              		.global	gdispDrawBox
 620              		.thumb
 621              		.thumb_func
 622              		.type	gdispDrawBox, %function
 623              	gdispDrawBox:
 624              	.LFB130:
 625              		.loc 1 501 0
 626              		.cfi_startproc
 627              		@ args = 4, pretend = 0, frame = 0
 628              		@ frame_needed = 0, uses_anonymous_args = 0
 629              	.LVL54:
 630 0000 2DE9F04F 		push	{r4, r5, r6, r7, r8, r9, sl, fp, lr}
 631              	.LCFI16:
 632              		.cfi_def_cfa_offset 36
 633              		.cfi_offset 4, -36
 634              		.cfi_offset 5, -32
 635              		.cfi_offset 6, -28
 636              		.cfi_offset 7, -24
 637              		.cfi_offset 8, -20
 638              		.cfi_offset 9, -16
 639              		.cfi_offset 10, -12
 640              		.cfi_offset 11, -8
 641              		.cfi_offset 14, -4
 642              		.loc 1 506 0
 643 0004 1FFA81F8 		uxth	r8, r1
 644 0008 08EB0307 		add	r7, r8, r3
 645              		.loc 1 501 0
 646 000c 83B0     		sub	sp, sp, #12
 647              	.LCFI17:
 648              		.cfi_def_cfa_offset 48
 649              		.loc 1 505 0
 650 000e 00F1FF3C 		add	ip, r0, #-1
 651              		.loc 1 506 0
 652 0012 BFB2     		uxth	r7, r7
 653              		.loc 1 501 0
 654 0014 1C46     		mov	r4, r3
 655              		.loc 1 505 0
 656 0016 0CEB020A 		add	sl, ip, r2
 657              		.loc 1 506 0
 658 001a 7B1E     		subs	r3, r7, #1
 659              	.LVL55:
 660              		.loc 1 508 0
 661 001c 022A     		cmp	r2, #2
 662              		.loc 1 501 0
 663 001e 0E46     		mov	r6, r1
 664 0020 0546     		mov	r5, r0
 665 0022 BDF83090 		ldrh	r9, [sp, #48]
 666              		.loc 1 505 0
ARM GAS  /tmp/ccAUe7jC.s 			page 13


 667 0026 1FFA8AFA 		uxth	sl, sl
 668              	.LVL56:
 669              		.loc 1 506 0
 670 002a 1FFA83FB 		uxth	fp, r3
 671              	.LVL57:
 672              		.loc 1 508 0
 673 002e 19DD     		ble	.L14
 674              		.loc 1 509 0
 675 0030 002C     		cmp	r4, #0
 676 0032 14DD     		ble	.L13
 677              		.loc 1 510 0
 678 0034 0FFA8AFA 		sxth	sl, sl
 679              	.LVL58:
 680 0038 CDF80090 		str	r9, [sp, #0]
 681 003c 5246     		mov	r2, sl
 682              	.LVL59:
 683 003e 0B46     		mov	r3, r1
 684              	.LVL60:
 685 0040 FFF7FEFF 		bl	gdispDrawLine
 686              	.LVL61:
 687              		.loc 1 511 0
 688 0044 012C     		cmp	r4, #1
 689 0046 0AD0     		beq	.L13
 690              		.loc 1 512 0
 691 0048 0FFA8BF1 		sxth	r1, fp
 692 004c CDF80090 		str	r9, [sp, #0]
 693 0050 2846     		mov	r0, r5
 694 0052 5246     		mov	r2, sl
 695 0054 0B46     		mov	r3, r1
 696 0056 FFF7FEFF 		bl	gdispDrawLine
 697              	.LVL62:
 698              		.loc 1 513 0
 699 005a 022C     		cmp	r4, #2
 700 005c 0FD1     		bne	.L26
 701              	.L13:
 702              		.loc 1 525 0
 703 005e 03B0     		add	sp, sp, #12
 704 0060 BDE8F08F 		pop	{r4, r5, r6, r7, r8, r9, sl, fp, pc}
 705              	.LVL63:
 706              	.L14:
 707              		.loc 1 519 0
 708 0064 24D0     		beq	.L27
 709              		.loc 1 522 0
 710 0066 012A     		cmp	r2, #1
 711 0068 F9D1     		bne	.L13
 712              		.loc 1 523 0
 713 006a 0246     		mov	r2, r0
 714              	.LVL64:
 715 006c 0FFA8BF3 		sxth	r3, fp
 716              	.LVL65:
 717 0070 CDF83090 		str	r9, [sp, #48]
 718              		.loc 1 525 0
 719 0074 03B0     		add	sp, sp, #12
 720 0076 BDE8F04F 		pop	{r4, r5, r6, r7, r8, r9, sl, fp, lr}
 721              		.loc 1 523 0
 722 007a FFF7FEBF 		b	gdispDrawLine
 723              	.LVL66:
ARM GAS  /tmp/ccAUe7jC.s 			page 14


 724              	.L26:
 725              		.loc 1 514 0
 726 007e B81E     		subs	r0, r7, #2
 727 0080 08F10108 		add	r8, r8, #1
 728              	.LVL67:
 729 0084 07B2     		sxth	r7, r0
 730 0086 0FFA88F8 		sxth	r8, r8
 731              	.LVL68:
 732 008a 2846     		mov	r0, r5
 733 008c 2A46     		mov	r2, r5
 734 008e 4146     		mov	r1, r8
 735 0090 3B46     		mov	r3, r7
 736 0092 CDF80090 		str	r9, [sp, #0]
 737 0096 FFF7FEFF 		bl	gdispDrawLine
 738              	.LVL69:
 739              		.loc 1 515 0
 740 009a 5046     		mov	r0, sl
 741 009c 4146     		mov	r1, r8
 742 009e 5246     		mov	r2, sl
 743 00a0 3B46     		mov	r3, r7
 744 00a2 CDF83090 		str	r9, [sp, #48]
 745              		.loc 1 525 0
 746 00a6 03B0     		add	sp, sp, #12
 747 00a8 BDE8F04F 		pop	{r4, r5, r6, r7, r8, r9, sl, fp, lr}
 748              		.loc 1 515 0
 749 00ac FFF7FEBF 		b	gdispDrawLine
 750              	.LVL70:
 751              	.L27:
 752              		.loc 1 520 0
 753 00b0 0FFA8BFB 		sxth	fp, fp
 754 00b4 0246     		mov	r2, r0
 755              	.LVL71:
 756 00b6 5B46     		mov	r3, fp
 757              	.LVL72:
 758 00b8 CDF80090 		str	r9, [sp, #0]
 759 00bc FFF7FEFF 		bl	gdispDrawLine
 760              	.LVL73:
 761              		.loc 1 521 0
 762 00c0 0FFA8AF0 		sxth	r0, sl
 763 00c4 3146     		mov	r1, r6
 764 00c6 0246     		mov	r2, r0
 765 00c8 5B46     		mov	r3, fp
 766 00ca CDF83090 		str	r9, [sp, #48]
 767              		.loc 1 525 0
 768 00ce 03B0     		add	sp, sp, #12
 769 00d0 BDE8F04F 		pop	{r4, r5, r6, r7, r8, r9, sl, fp, lr}
 770              		.loc 1 521 0
 771 00d4 FFF7FEBF 		b	gdispDrawLine
 772              	.LVL74:
 773              		.cfi_endproc
 774              	.LFE130:
 775              		.size	gdispDrawBox, .-gdispDrawBox
 776 00d8 AFF30080 		.section	.text.gdispDrawPoly,"ax",%progbits
 776      AFF30080 
 777              		.align	2
 778              		.p2align 4,,15
 779              		.global	gdispDrawPoly
ARM GAS  /tmp/ccAUe7jC.s 			page 15


 780              		.thumb
 781              		.thumb_func
 782              		.type	gdispDrawPoly, %function
 783              	gdispDrawPoly:
 784              	.LFB131:
 785              		.loc 1 528 0
 786              		.cfi_startproc
 787              		@ args = 4, pretend = 0, frame = 8
 788              		@ frame_needed = 0, uses_anonymous_args = 0
 789              	.LVL75:
 790 0000 2DE9F04F 		push	{r4, r5, r6, r7, r8, r9, sl, fp, lr}
 791              	.LCFI18:
 792              		.cfi_def_cfa_offset 36
 793              		.cfi_offset 4, -36
 794              		.cfi_offset 5, -32
 795              		.cfi_offset 6, -28
 796              		.cfi_offset 7, -24
 797              		.cfi_offset 8, -20
 798              		.cfi_offset 9, -16
 799              		.cfi_offset 10, -12
 800              		.cfi_offset 11, -8
 801              		.cfi_offset 14, -4
 802              		.loc 1 531 0
 803 0004 013B     		subs	r3, r3, #1
 804              	.LVL76:
 805              		.loc 1 528 0
 806 0006 85B0     		sub	sp, sp, #20
 807              	.LCFI19:
 808              		.cfi_def_cfa_offset 56
 809              		.loc 1 531 0
 810 0008 02EB830A 		add	sl, r2, r3, lsl #2
 811              	.LVL77:
 812              		.loc 1 532 0
 813 000c 5245     		cmp	r2, sl
 814              		.loc 1 528 0
 815 000e 9046     		mov	r8, r2
 816 0010 BDF83890 		ldrh	r9, [sp, #56]
 817              		.loc 1 532 0
 818 0014 80F08C80 		bcs	.L40
 819              		.loc 1 528 0
 820 0018 1446     		mov	r4, r2
 821 001a 85B2     		uxth	r5, r0
 822              		.loc 1 533 0
 823 001c 34F8040B 		ldrh	r0, [r4], #4
 824              	.LVL78:
 825 0020 CDF80090 		str	r9, [sp, #0]
 826 0024 34F8027C 		ldrh	r7, [r4, #-2]
 827 0028 2288     		ldrh	r2, [r4, #0]
 828              	.LVL79:
 829 002a 6388     		ldrh	r3, [r4, #2]
 830              	.LVL80:
 831 002c 8EB2     		uxth	r6, r1
 832 002e 6FEA080B 		mvn	fp, r8
 833 0032 0AEB0B0C 		add	ip, sl, fp
 834 0036 F119     		adds	r1, r6, r7
 835              	.LVL81:
 836 0038 2818     		adds	r0, r5, r0
ARM GAS  /tmp/ccAUe7jC.s 			page 16


 837 003a AF18     		adds	r7, r5, r2
 838 003c F318     		adds	r3, r6, r3
 839 003e 3AB2     		sxth	r2, r7
 840 0040 00B2     		sxth	r0, r0
 841 0042 CCF38007 		ubfx	r7, ip, #2, #1
 842 0046 09B2     		sxth	r1, r1
 843 0048 1BB2     		sxth	r3, r3
 844 004a 0397     		str	r7, [sp, #12]
 845 004c FFF7FEFF 		bl	gdispDrawLine
 846              	.LVL82:
 847 0050 271D     		adds	r7, r4, #4
 848              		.loc 1 532 0
 849 0052 A245     		cmp	sl, r4
 850 0054 A346     		mov	fp, r4
 851 0056 4DD9     		bls	.L39
 852 0058 039A     		ldr	r2, [sp, #12]
 853 005a D2B1     		cbz	r2, .L31
 854              		.loc 1 528 0
 855 005c C8EB0403 		rsb	r3, r8, r4
 856 0060 1A19     		adds	r2, r3, r4
 857              		.loc 1 533 0
 858 0062 37F8040C 		ldrh	r0, [r7, #-4]
 859 0066 37F8021C 		ldrh	r1, [r7, #-2]
 860 006a B2F802E0 		ldrh	lr, [r2, #2]
 861 006e 1B5B     		ldrh	r3, [r3, r4]
 862 0070 CDF80090 		str	r9, [sp, #0]
 863 0074 EA18     		adds	r2, r5, r3
 864 0076 2818     		adds	r0, r5, r0
 865 0078 06EB0E03 		add	r3, r6, lr
 866 007c 7118     		adds	r1, r6, r1
 867              		.loc 1 532 0
 868 007e BB46     		mov	fp, r7
 869              		.loc 1 533 0
 870 0080 00B2     		sxth	r0, r0
 871 0082 09B2     		sxth	r1, r1
 872 0084 12B2     		sxth	r2, r2
 873 0086 1BB2     		sxth	r3, r3
 874 0088 FFF7FEFF 		bl	gdispDrawLine
 875              	.LVL83:
 876 008c 0437     		adds	r7, r7, #4
 877              		.loc 1 532 0
 878 008e DA45     		cmp	sl, fp
 879 0090 30D9     		bls	.L39
 880              	.L31:
 881              		.loc 1 528 0 discriminator 2
 882 0092 C8EB0B02 		rsb	r2, r8, fp
 883 0096 1319     		adds	r3, r2, r4
 884              		.loc 1 533 0 discriminator 2
 885 0098 37F8040C 		ldrh	r0, [r7, #-4]
 886 009c 37F8021C 		ldrh	r1, [r7, #-2]
 887 00a0 5B88     		ldrh	r3, [r3, #2]
 888 00a2 125B     		ldrh	r2, [r2, r4]
 889 00a4 CDF80090 		str	r9, [sp, #0]
 890 00a8 2818     		adds	r0, r5, r0
 891 00aa 7118     		adds	r1, r6, r1
 892 00ac AA18     		adds	r2, r5, r2
 893 00ae F318     		adds	r3, r6, r3
ARM GAS  /tmp/ccAUe7jC.s 			page 17


 894 00b0 00B2     		sxth	r0, r0
 895 00b2 09B2     		sxth	r1, r1
 896 00b4 12B2     		sxth	r2, r2
 897 00b6 1BB2     		sxth	r3, r3
 898              		.loc 1 532 0 discriminator 2
 899 00b8 0BF1040B 		add	fp, fp, #4
 900              		.loc 1 533 0 discriminator 2
 901 00bc FFF7FEFF 		bl	gdispDrawLine
 902              	.LVL84:
 903              		.loc 1 528 0 discriminator 2
 904 00c0 C8EB0B03 		rsb	r3, r8, fp
 905              		.loc 1 533 0 discriminator 2
 906 00c4 37F8040B 		ldrh	r0, [r7], #4
 907 00c8 1A5B     		ldrh	r2, [r3, r4]
 908 00ca 37F8021C 		ldrh	r1, [r7, #-2]
 909              		.loc 1 528 0 discriminator 2
 910 00ce 1B19     		adds	r3, r3, r4
 911              		.loc 1 533 0 discriminator 2
 912 00d0 2818     		adds	r0, r5, r0
 913 00d2 5B88     		ldrh	r3, [r3, #2]
 914 00d4 CDF80090 		str	r9, [sp, #0]
 915 00d8 7118     		adds	r1, r6, r1
 916 00da AA18     		adds	r2, r5, r2
 917 00dc F318     		adds	r3, r6, r3
 918 00de 00B2     		sxth	r0, r0
 919 00e0 09B2     		sxth	r1, r1
 920 00e2 12B2     		sxth	r2, r2
 921 00e4 1BB2     		sxth	r3, r3
 922              		.loc 1 532 0 discriminator 2
 923 00e6 0BF1040B 		add	fp, fp, #4
 924              		.loc 1 533 0 discriminator 2
 925 00ea FFF7FEFF 		bl	gdispDrawLine
 926              	.LVL85:
 927 00ee 0437     		adds	r7, r7, #4
 928              		.loc 1 532 0 discriminator 2
 929 00f0 DA45     		cmp	sl, fp
 930 00f2 CED8     		bhi	.L31
 931              	.L39:
 932              		.loc 1 528 0
 933 00f4 C4F10300 		rsb	r0, r4, #3
 934 00f8 0AEB0001 		add	r1, sl, r0
 935 00fc 21F00302 		bic	r2, r1, #3
 936 0100 131D     		adds	r3, r2, #4
 937 0102 08EB0301 		add	r1, r8, r3
 938              	.LVL86:
 939              	.L30:
 940              		.loc 1 534 0
 941 0106 0888     		ldrh	r0, [r1, #0]
 942 0108 B8F80020 		ldrh	r2, [r8, #0]
 943 010c 4988     		ldrh	r1, [r1, #2]
 944 010e B8F80230 		ldrh	r3, [r8, #2]
 945 0112 CDF83890 		str	r9, [sp, #56]
 946 0116 2818     		adds	r0, r5, r0
 947 0118 7118     		adds	r1, r6, r1
 948 011a AA18     		adds	r2, r5, r2
 949 011c F318     		adds	r3, r6, r3
 950 011e 00B2     		sxth	r0, r0
ARM GAS  /tmp/ccAUe7jC.s 			page 18


 951 0120 09B2     		sxth	r1, r1
 952 0122 12B2     		sxth	r2, r2
 953 0124 1BB2     		sxth	r3, r3
 954              		.loc 1 535 0
 955 0126 05B0     		add	sp, sp, #20
 956 0128 BDE8F04F 		pop	{r4, r5, r6, r7, r8, r9, sl, fp, lr}
 957              		.loc 1 534 0
 958 012c FFF7FEBF 		b	gdispDrawLine
 959              	.LVL87:
 960              	.L40:
 961 0130 8EB2     		uxth	r6, r1
 962 0132 85B2     		uxth	r5, r0
 963              		.loc 1 532 0
 964 0134 1146     		mov	r1, r2
 965              	.LVL88:
 966 0136 E6E7     		b	.L30
 967              		.cfi_endproc
 968              	.LFE131:
 969              		.size	gdispDrawPoly, .-gdispDrawPoly
 970 0138 AFF30080 		.section	.text.gdispFillConvexPoly,"ax",%progbits
 970      AFF30080 
 971              		.align	2
 972              		.p2align 4,,15
 973              		.global	gdispFillConvexPoly
 974              		.thumb
 975              		.thumb_func
 976              		.type	gdispFillConvexPoly, %function
 977              	gdispFillConvexPoly:
 978              	.LFB132:
 979              		.loc 1 537 0
 980              		.cfi_startproc
 981              		@ args = 4, pretend = 0, frame = 72
 982              		@ frame_needed = 0, uses_anonymous_args = 0
 983              	.LVL89:
 984 0000 2DE9F04F 		push	{r4, r5, r6, r7, r8, r9, sl, fp, lr}
 985              	.LCFI20:
 986              		.cfi_def_cfa_offset 36
 987              		.cfi_offset 4, -36
 988              		.cfi_offset 5, -32
 989              		.cfi_offset 6, -28
 990              		.cfi_offset 7, -24
 991              		.cfi_offset 8, -20
 992              		.cfi_offset 9, -16
 993              		.cfi_offset 10, -12
 994              		.cfi_offset 11, -8
 995              		.cfi_offset 14, -4
 996 0004 95B0     		sub	sp, sp, #84
 997              	.LCFI21:
 998              		.cfi_def_cfa_offset 120
 999              		.loc 1 542 0
 1000 0006 03F1FF35 		add	r5, r3, #-1
 1001 000a 02EB850A 		add	sl, r2, r5, lsl #2
 1002              	.LVL90:
 1003              		.loc 1 537 0
 1004 000e 9146     		mov	r9, r2
 1005 0010 BDF87860 		ldrh	r6, [sp, #120]
 1006 0014 0590     		str	r0, [sp, #20]
ARM GAS  /tmp/ccAUe7jC.s 			page 19


 1007              		.loc 1 546 0
 1008 0016 02F10402 		add	r2, r2, #4
 1009              	.LVL91:
 1010 001a 9245     		cmp	sl, r2
 1011              		.loc 1 537 0
 1012 001c 9846     		mov	r8, r3
 1013 001e 0696     		str	r6, [sp, #24]
 1014              		.loc 1 546 0
 1015 0020 6ED3     		bcc	.L42
 1016 0022 B9F802B0 		ldrh	fp, [r9, #2]
 1017              		.loc 1 547 0
 1018 0026 5488     		ldrh	r4, [r2, #2]
 1019 0028 0FFA8BF3 		sxth	r3, fp
 1020              	.LVL92:
 1021 002c 27B2     		sxth	r7, r4
 1022 002e C2EB0A06 		rsb	r6, r2, sl
 1023 0032 9F42     		cmp	r7, r3
 1024              		.loc 1 546 0
 1025 0034 4846     		mov	r0, r9
 1026              	.LVL93:
 1027 0036 C6F38006 		ubfx	r6, r6, #2, #1
 1028              		.loc 1 547 0
 1029 003a 55DB     		blt	.L179
 1030              	.L121:
 1031              	.LVL94:
 1032              		.loc 1 546 0
 1033 003c 0432     		adds	r2, r2, #4
 1034              	.LVL95:
 1035 003e 9245     		cmp	sl, r2
 1036 0040 1CD3     		bcc	.L171
 1037 0042 4EB1     		cbz	r6, .L44
 1038              		.loc 1 547 0
 1039 0044 5488     		ldrh	r4, [r2, #2]
 1040 0046 26B2     		sxth	r6, r4
 1041 0048 9E42     		cmp	r6, r3
 1042 004a 02DA     		bge	.L123
 1043 004c A346     		mov	fp, r4
 1044 004e 1046     		mov	r0, r2
 1045 0050 23B2     		sxth	r3, r4
 1046              	.L123:
 1047              		.loc 1 546 0
 1048 0052 0432     		adds	r2, r2, #4
 1049              	.LVL96:
 1050 0054 9245     		cmp	sl, r2
 1051 0056 11D3     		bcc	.L171
 1052              	.L44:
 1053              		.loc 1 547 0
 1054 0058 5688     		ldrh	r6, [r2, #2]
 1055 005a 37B2     		sxth	r7, r6
 1056              		.loc 1 546 0
 1057 005c 141D     		adds	r4, r2, #4
 1058              		.loc 1 547 0
 1059 005e 9F42     		cmp	r7, r3
 1060 0060 02DA     		bge	.L43
 1061 0062 B346     		mov	fp, r6
 1062 0064 1046     		mov	r0, r2
 1063 0066 33B2     		sxth	r3, r6
ARM GAS  /tmp/ccAUe7jC.s 			page 20


 1064              	.L43:
 1065 0068 6688     		ldrh	r6, [r4, #2]
 1066 006a 32B2     		sxth	r2, r6
 1067 006c 9A42     		cmp	r2, r3
 1068 006e 02DA     		bge	.L126
 1069 0070 B346     		mov	fp, r6
 1070 0072 2046     		mov	r0, r4
 1071 0074 1346     		mov	r3, r2
 1072              	.L126:
 1073              		.loc 1 546 0
 1074 0076 221D     		adds	r2, r4, #4
 1075 0078 9245     		cmp	sl, r2
 1076 007a EDD2     		bcs	.L44
 1077              	.L171:
 1078              		.loc 1 550 0
 1079 007c B0F90040 		ldrsh	r4, [r0, #0]
 1080 0080 2604     		lsls	r6, r4, #16
 1081              		.loc 1 554 0
 1082 0082 8145     		cmp	r9, r0
 1083              		.loc 1 550 0
 1084 0084 0496     		str	r6, [sp, #16]
 1085              	.LVL97:
 1086              		.loc 1 554 0
 1087 0086 33D2     		bcs	.L71
 1088              		.loc 1 554 0 is_stmt 0 discriminator 1
 1089 0088 041F     		subs	r4, r0, #4
 1090              	.LVL98:
 1091              	.L45:
 1092              		.loc 1 555 0 is_stmt 1 discriminator 1
 1093 008a B4F90220 		ldrsh	r2, [r4, #2]
 1094              		.loc 1 551 0 discriminator 1
 1095 008e DDF810C0 		ldr	ip, [sp, #16]
 1096              		.loc 1 555 0 discriminator 1
 1097 0092 9A42     		cmp	r2, r3
 1098              		.loc 1 551 0 discriminator 1
 1099 0094 4646     		mov	r6, r8
 1100              	.LVL99:
 1101              		.loc 1 555 0 discriminator 1
 1102 0096 0DD1     		bne	.L180
 1103              	.L49:
 1104              		.loc 1 556 0
 1105 0098 B4F90020 		ldrsh	r2, [r4, #0]
 1106              		.loc 1 557 0
 1107 009c 4C45     		cmp	r4, r9
 1108              		.loc 1 556 0
 1109 009e 4FEA024C 		lsl	ip, r2, #16
 1110              		.loc 1 557 0
 1111 00a2 1BD9     		bls	.L72
 1112              		.loc 1 557 0 is_stmt 0 discriminator 1
 1113 00a4 043C     		subs	r4, r4, #4
 1114              	.LVL100:
 1115              		.loc 1 558 0 is_stmt 1 discriminator 1
 1116 00a6 E6B1     		cbz	r6, .L41
 1117              	.L183:
 1118              		.loc 1 555 0
 1119 00a8 B4F90220 		ldrsh	r2, [r4, #2]
 1120              		.loc 1 558 0
ARM GAS  /tmp/ccAUe7jC.s 			page 21


 1121 00ac 2E46     		mov	r6, r5
 1122 00ae 013D     		subs	r5, r5, #1
 1123              	.LVL101:
 1124              		.loc 1 555 0
 1125 00b0 9A42     		cmp	r2, r3
 1126 00b2 F1D0     		beq	.L49
 1127              	.L180:
 1128              		.loc 1 560 0
 1129 00b4 8245     		cmp	sl, r0
 1130 00b6 1DD8     		bhi	.L181
 1131 00b8 DDF81080 		ldr	r8, [sp, #16]
 1132 00bc 4F46     		mov	r7, r9
 1133              	.LVL102:
 1134              	.L145:
 1135              		.loc 1 561 0 discriminator 1
 1136 00be B7F90200 		ldrsh	r0, [r7, #2]
 1137 00c2 9842     		cmp	r0, r3
 1138 00c4 27D1     		bne	.L182
 1139              		.loc 1 562 0
 1140 00c6 B7F90000 		ldrsh	r0, [r7, #0]
 1141              		.loc 1 563 0
 1142 00ca 5745     		cmp	r7, sl
 1143              		.loc 1 562 0
 1144 00cc 4FEA0048 		lsl	r8, r0, #16
 1145              		.loc 1 563 0
 1146 00d0 14D2     		bcs	.L74
 1147              		.loc 1 563 0 is_stmt 0 discriminator 1
 1148 00d2 0437     		adds	r7, r7, #4
 1149              	.LVL103:
 1150              	.L51:
 1151              		.loc 1 564 0 is_stmt 1 discriminator 3
 1152 00d4 2EB1     		cbz	r6, .L41
 1153              		.loc 1 564 0 is_stmt 0
 1154 00d6 2E46     		mov	r6, r5
 1155 00d8 013D     		subs	r5, r5, #1
 1156              	.LVL104:
 1157 00da F0E7     		b	.L145
 1158              	.LVL105:
 1159              	.L72:
 1160              		.loc 1 542 0 is_stmt 1
 1161 00dc 5446     		mov	r4, sl
 1162              	.LVL106:
 1163              		.loc 1 558 0
 1164 00de 002E     		cmp	r6, #0
 1165 00e0 E2D1     		bne	.L183
 1166              	.LVL107:
 1167              	.L41:
 1168              		.loc 1 619 0
 1169 00e2 15B0     		add	sp, sp, #84
 1170 00e4 BDE8F08F 		pop	{r4, r5, r6, r7, r8, r9, sl, fp, pc}
 1171              	.LVL108:
 1172              	.L179:
 1173              		.loc 1 547 0
 1174 00e8 A346     		mov	fp, r4
 1175 00ea 1046     		mov	r0, r2
 1176              	.LVL109:
 1177 00ec 23B2     		sxth	r3, r4
ARM GAS  /tmp/ccAUe7jC.s 			page 22


 1178 00ee A5E7     		b	.L121
 1179              	.LVL110:
 1180              	.L71:
 1181              		.loc 1 554 0
 1182 00f0 5446     		mov	r4, sl
 1183 00f2 CAE7     		b	.L45
 1184              	.LVL111:
 1185              	.L181:
 1186              		.loc 1 560 0 discriminator 1
 1187 00f4 071D     		adds	r7, r0, #4
 1188 00f6 DDF81080 		ldr	r8, [sp, #16]
 1189 00fa E0E7     		b	.L145
 1190              	.LVL112:
 1191              	.L74:
 1192              		.loc 1 563 0
 1193 00fc 4F46     		mov	r7, r9
 1194              	.LVL113:
 1195 00fe E9E7     		b	.L51
 1196              	.LVL114:
 1197              	.L42:
 1198              		.loc 1 550 0
 1199 0100 B9F90030 		ldrsh	r3, [r9, #0]
 1200              	.LVL115:
 1201              		.loc 1 551 0
 1202 0104 B9F802B0 		ldrh	fp, [r9, #2]
 1203              		.loc 1 550 0
 1204 0108 1804     		lsls	r0, r3, #16
 1205              	.LVL116:
 1206 010a 0490     		str	r0, [sp, #16]
 1207              	.LVL117:
 1208              		.loc 1 551 0
 1209 010c 5446     		mov	r4, sl
 1210 010e 4846     		mov	r0, r9
 1211              	.LVL118:
 1212 0110 0FFA8BF3 		sxth	r3, fp
 1213 0114 B9E7     		b	.L45
 1214              	.LVL119:
 1215              	.L182:
 1216 0116 0D90     		str	r0, [sp, #52]
 1217              		.loc 1 566 0
 1218 0118 B4F90000 		ldrsh	r0, [r4, #0]
 1219 011c CDF81080 		str	r8, [sp, #16]
 1220 0120 CCEB0040 		rsb	r0, ip, r0, lsl #16
 1221 0124 0790     		str	r0, [sp, #28]
 1222 0126 D01A     		subs	r0, r2, r3
 1223 0128 0890     		str	r0, [sp, #32]
 1224 012a B046     		mov	r8, r6
 1225              		.loc 1 567 0
 1226 012c 0498     		ldr	r0, [sp, #16]
 1227 012e B7F90060 		ldrsh	r6, [r7, #0]
 1228              	.LVL120:
 1229              		.loc 1 591 0
 1230 0132 CDF83890 		str	r9, [sp, #56]
 1231              		.loc 1 567 0
 1232 0136 C0EB0646 		rsb	r6, r0, r6, lsl #16
 1233 013a 0D98     		ldr	r0, [sp, #52]
 1234 013c 0996     		str	r6, [sp, #36]
ARM GAS  /tmp/ccAUe7jC.s 			page 23


 1235 013e C61A     		subs	r6, r0, r3
 1236              		.loc 1 591 0
 1237 0140 0598     		ldr	r0, [sp, #20]
 1238              		.loc 1 567 0
 1239 0142 0B96     		str	r6, [sp, #44]
 1240              		.loc 1 591 0
 1241 0144 86B2     		uxth	r6, r0
 1242 0146 0C96     		str	r6, [sp, #48]
 1243              		.loc 1 566 0
 1244 0148 0798     		ldr	r0, [sp, #28]
 1245 014a 089E     		ldr	r6, [sp, #32]
 1246              		.loc 1 591 0
 1247 014c CDF84480 		str	r8, [sp, #68]
 1248              		.loc 1 566 0
 1249 0150 90FBF6F0 		sdiv	r0, r0, r6
 1250 0154 0A90     		str	r0, [sp, #40]
 1251              	.LVL121:
 1252              		.loc 1 567 0
 1253 0156 0B9E     		ldr	r6, [sp, #44]
 1254 0158 0998     		ldr	r0, [sp, #36]
 1255              	.LVL122:
 1256              		.loc 1 591 0
 1257 015a CDF82CA0 		str	sl, [sp, #44]
 1258              		.loc 1 567 0
 1259 015e 90FBF6F0 		sdiv	r0, r0, r6
 1260              		.loc 1 591 0
 1261 0162 0C9E     		ldr	r6, [sp, #48]
 1262 0164 DDF82890 		ldr	r9, [sp, #40]
 1263              	.LVL123:
 1264 0168 CDF820C0 		str	ip, [sp, #32]
 1265              		.loc 1 537 0
 1266 016c 89B2     		uxth	r1, r1
 1267              		.loc 1 591 0
 1268 016e 013E     		subs	r6, r6, #1
 1269 0170 8246     		mov	sl, r0
 1270              	.LVL124:
 1271 0172 0D98     		ldr	r0, [sp, #52]
 1272              		.loc 1 537 0
 1273 0174 1091     		str	r1, [sp, #64]
 1274              		.loc 1 591 0
 1275 0176 0796     		str	r6, [sp, #28]
 1276 0178 CDF824B0 		str	fp, [sp, #36]
 1277 017c 0A95     		str	r5, [sp, #40]
 1278              	.LVL125:
 1279              	.L151:
 1280              		.loc 1 571 0
 1281 017e 9042     		cmp	r0, r2
 1282 0180 B8BF     		it	lt
 1283 0182 0246     		movlt	r2, r0
 1284 0184 92B2     		uxth	r2, r2
 1285              	.LVL126:
 1286              		.loc 1 574 0
 1287 0186 15B2     		sxth	r5, r2
 1288 0188 AB42     		cmp	r3, r5
 1289 018a 0D95     		str	r5, [sp, #52]
 1290 018c 80F2BC80 		bge	.L55
 1291 0190 109B     		ldr	r3, [sp, #64]
ARM GAS  /tmp/ccAUe7jC.s 			page 24


 1292 0192 0998     		ldr	r0, [sp, #36]
 1293              		.loc 1 537 0
 1294 0194 96B2     		uxth	r6, r2
 1295 0196 1918     		adds	r1, r3, r0
 1296              		.loc 1 575 0
 1297 0198 089A     		ldr	r2, [sp, #32]
 1298              	.LVL127:
 1299              		.loc 1 576 0
 1300 019a 0498     		ldr	r0, [sp, #16]
 1301              		.loc 1 537 0
 1302 019c 0F96     		str	r6, [sp, #60]
 1303 019e 03EB060B 		add	fp, r3, r6
 1304 01a2 8DB2     		uxth	r5, r1
 1305 01a4 6FEA050C 		mvn	ip, r5
 1306              		.loc 1 575 0
 1307 01a8 1314     		asrs	r3, r2, #16
 1308              	.LVL128:
 1309              		.loc 1 537 0
 1310 01aa 1FFA8BFB 		uxth	fp, fp
 1311              		.loc 1 576 0
 1312 01ae 0214     		asrs	r2, r0, #16
 1313              	.LVL129:
 1314 01b0 0CEB0B06 		add	r6, ip, fp
 1315              		.loc 1 582 0
 1316 01b4 9342     		cmp	r3, r2
 1317 01b6 06F0010C 		and	ip, r6, #1
 1318 01ba C0F2EA80 		blt	.L184
 1319              		.loc 1 587 0
 1320 01be 13DD     		ble	.L106
 1321              		.loc 1 588 0
 1322 01c0 9E1A     		subs	r6, r3, r2
 1323 01c2 012E     		cmp	r6, #1
 1324 01c4 00F0CF81 		beq	.L163
 1325              		.loc 1 591 0
 1326 01c8 0C98     		ldr	r0, [sp, #48]
 1327 01ca 079E     		ldr	r6, [sp, #28]
 1328 01cc CDF80CC0 		str	ip, [sp, #12]
 1329 01d0 8218     		adds	r2, r0, r2
 1330              	.LVL130:
 1331 01d2 0698     		ldr	r0, [sp, #24]
 1332 01d4 29B2     		sxth	r1, r5
 1333 01d6 F318     		adds	r3, r6, r3
 1334              	.LVL131:
 1335 01d8 0090     		str	r0, [sp, #0]
 1336 01da 10B2     		sxth	r0, r2
 1337 01dc 1AB2     		sxth	r2, r3
 1338 01de 0B46     		mov	r3, r1
 1339 01e0 FFF7FEFF 		bl	gdispDrawLine
 1340              	.LVL132:
 1341 01e4 DDF80CC0 		ldr	ip, [sp, #12]
 1342              	.L106:
 1343 01e8 0135     		adds	r5, r5, #1
 1344              		.loc 1 594 0
 1345 01ea 089E     		ldr	r6, [sp, #32]
 1346              		.loc 1 595 0
 1347 01ec 049A     		ldr	r2, [sp, #16]
 1348 01ee ADB2     		uxth	r5, r5
ARM GAS  /tmp/ccAUe7jC.s 			page 25


 1349              		.loc 1 574 0
 1350 01f0 5D45     		cmp	r5, fp
 1351              		.loc 1 594 0
 1352 01f2 06EB0908 		add	r8, r6, r9
 1353              	.LVL133:
 1354              		.loc 1 595 0
 1355 01f6 02EB0A06 		add	r6, r2, sl
 1356              	.LVL134:
 1357              		.loc 1 574 0
 1358 01fa 6FD0     		beq	.L165
 1359 01fc BCF1000F 		cmp	ip, #0
 1360 0200 1ED0     		beq	.L173
 1361              	.LVL135:
 1362              		.loc 1 575 0
 1363 0202 4FEA2843 		asr	r3, r8, #16
 1364              		.loc 1 576 0
 1365 0206 3214     		asrs	r2, r6, #16
 1366              	.LVL136:
 1367              		.loc 1 582 0
 1368 0208 9342     		cmp	r3, r2
 1369 020a C0F21981 		blt	.L166
 1370              		.loc 1 587 0
 1371 020e 11DD     		ble	.L111
 1372              		.loc 1 588 0
 1373 0210 991A     		subs	r1, r3, r2
 1374 0212 0129     		cmp	r1, #1
 1375 0214 00F0AA81 		beq	.L167
 1376              		.loc 1 591 0
 1377 0218 DDF830E0 		ldr	lr, [sp, #48]
 1378 021c 0EEB0200 		add	r0, lr, r2
 1379 0220 079A     		ldr	r2, [sp, #28]
 1380 0222 D318     		adds	r3, r2, r3
 1381 0224 069A     		ldr	r2, [sp, #24]
 1382 0226 29B2     		sxth	r1, r5
 1383 0228 0092     		str	r2, [sp, #0]
 1384 022a 00B2     		sxth	r0, r0
 1385 022c 1AB2     		sxth	r2, r3
 1386 022e 0B46     		mov	r3, r1
 1387 0230 FFF7FEFF 		bl	gdispDrawLine
 1388              	.LVL137:
 1389              	.L111:
 1390 0234 0135     		adds	r5, r5, #1
 1391 0236 ADB2     		uxth	r5, r5
 1392              		.loc 1 574 0
 1393 0238 5D45     		cmp	r5, fp
 1394              		.loc 1 594 0
 1395 023a C844     		add	r8, r8, r9
 1396              		.loc 1 595 0
 1397 023c 5644     		add	r6, r6, sl
 1398              		.loc 1 574 0
 1399 023e 4DD0     		beq	.L165
 1400              	.L173:
 1401 0240 1294     		str	r4, [sp, #72]
 1402 0242 1397     		str	r7, [sp, #76]
 1403 0244 069C     		ldr	r4, [sp, #24]
 1404              	.LVL138:
 1405 0246 0C9F     		ldr	r7, [sp, #48]
ARM GAS  /tmp/ccAUe7jC.s 			page 26


 1406              	.LVL139:
 1407 0248 2FE0     		b	.L60
 1408              	.L187:
 1409              		.loc 1 583 0
 1410 024a CCEB0002 		rsb	r2, ip, r0
 1411 024e 012A     		cmp	r2, #1
 1412 0250 00F0E280 		beq	.L185
 1413              		.loc 1 586 0
 1414 0254 079B     		ldr	r3, [sp, #28]
 1415 0256 0094     		str	r4, [sp, #0]
 1416 0258 1A18     		adds	r2, r3, r0
 1417 025a 29B2     		sxth	r1, r5
 1418 025c BC44     		add	ip, r7, ip
 1419 025e 0FFA8CF0 		sxth	r0, ip
 1420 0262 12B2     		sxth	r2, r2
 1421 0264 0B46     		mov	r3, r1
 1422 0266 FFF7FEFF 		bl	gdispDrawLine
 1423              	.LVL140:
 1424              	.L58:
 1425              		.loc 1 594 0
 1426 026a C844     		add	r8, r8, r9
 1427              		.loc 1 595 0
 1428 026c 5644     		add	r6, r6, sl
 1429              		.loc 1 575 0
 1430 026e 4FEA284C 		asr	ip, r8, #16
 1431              		.loc 1 576 0
 1432 0272 3014     		asrs	r0, r6, #16
 1433 0274 0135     		adds	r5, r5, #1
 1434              		.loc 1 582 0
 1435 0276 8445     		cmp	ip, r0
 1436 0278 ADB2     		uxth	r5, r5
 1437 027a 80F2A380 		bge	.L116
 1438              		.loc 1 583 0
 1439 027e CCEB0003 		rsb	r3, ip, r0
 1440 0282 012B     		cmp	r3, #1
 1441 0284 00F0D280 		beq	.L170
 1442              		.loc 1 586 0
 1443 0288 079A     		ldr	r2, [sp, #28]
 1444 028a 0094     		str	r4, [sp, #0]
 1445 028c 1318     		adds	r3, r2, r0
 1446 028e 29B2     		sxth	r1, r5
 1447 0290 BC44     		add	ip, r7, ip
 1448 0292 1AB2     		sxth	r2, r3
 1449 0294 0FFA8CF0 		sxth	r0, ip
 1450 0298 0B46     		mov	r3, r1
 1451 029a FFF7FEFF 		bl	gdispDrawLine
 1452              	.LVL141:
 1453              	.L117:
 1454 029e 0135     		adds	r5, r5, #1
 1455 02a0 ADB2     		uxth	r5, r5
 1456              		.loc 1 574 0
 1457 02a2 5D45     		cmp	r5, fp
 1458              		.loc 1 594 0
 1459 02a4 C844     		add	r8, r8, r9
 1460              		.loc 1 595 0
 1461 02a6 5644     		add	r6, r6, sl
 1462              		.loc 1 574 0
ARM GAS  /tmp/ccAUe7jC.s 			page 27


 1463 02a8 16D0     		beq	.L186
 1464              	.L60:
 1465              		.loc 1 575 0
 1466 02aa 4FEA284C 		asr	ip, r8, #16
 1467              		.loc 1 576 0
 1468 02ae 3014     		asrs	r0, r6, #16
 1469              		.loc 1 582 0
 1470 02b0 8445     		cmp	ip, r0
 1471 02b2 CADB     		blt	.L187
 1472              		.loc 1 587 0
 1473 02b4 D9DD     		ble	.L58
 1474              		.loc 1 588 0
 1475 02b6 C0EB0C01 		rsb	r1, r0, ip
 1476 02ba 0129     		cmp	r1, #1
 1477 02bc 00F0D380 		beq	.L188
 1478              		.loc 1 591 0
 1479 02c0 079A     		ldr	r2, [sp, #28]
 1480 02c2 0094     		str	r4, [sp, #0]
 1481 02c4 02EB0C03 		add	r3, r2, ip
 1482 02c8 29B2     		sxth	r1, r5
 1483 02ca 3818     		adds	r0, r7, r0
 1484 02cc 1AB2     		sxth	r2, r3
 1485 02ce 00B2     		sxth	r0, r0
 1486 02d0 0B46     		mov	r3, r1
 1487 02d2 FFF7FEFF 		bl	gdispDrawLine
 1488              	.LVL142:
 1489 02d6 C8E7     		b	.L58
 1490              	.L186:
 1491 02d8 129C     		ldr	r4, [sp, #72]
 1492 02da 139F     		ldr	r7, [sp, #76]
 1493              	.LVL143:
 1494              	.L165:
 1495              		.loc 1 537 0
 1496 02dc 0999     		ldr	r1, [sp, #36]
 1497 02de 0F9B     		ldr	r3, [sp, #60]
 1498 02e0 089E     		ldr	r6, [sp, #32]
 1499 02e2 CA43     		mvns	r2, r1
 1500 02e4 9818     		adds	r0, r3, r2
 1501 02e6 83B2     		uxth	r3, r0
 1502 02e8 06EB0900 		add	r0, r6, r9
 1503 02ec 049E     		ldr	r6, [sp, #16]
 1504 02ee 4A1C     		adds	r2, r1, #1
 1505 02f0 13FA82F5 		uxtah	r5, r3, r2
 1506 02f4 06EB0A01 		add	r1, r6, sl
 1507 02f8 09FB0302 		mla	r2, r9, r3, r0
 1508 02fc 03FB0A13 		mla	r3, r3, sl, r1
 1509 0300 A8B2     		uxth	r0, r5
 1510 0302 0892     		str	r2, [sp, #32]
 1511 0304 0493     		str	r3, [sp, #16]
 1512 0306 0990     		str	r0, [sp, #36]
 1513              	.L55:
 1514              		.loc 1 598 0
 1515 0308 119D     		ldr	r5, [sp, #68]
 1516 030a 0A99     		ldr	r1, [sp, #40]
 1517              	.LVL144:
 1518 030c 002D     		cmp	r5, #0
 1519 030e 3FF4E8AE 		beq	.L41
ARM GAS  /tmp/ccAUe7jC.s 			page 28


 1520              		.loc 1 601 0
 1521 0312 B4F90220 		ldrsh	r2, [r4, #2]
 1522 0316 0D9E     		ldr	r6, [sp, #52]
 1523 0318 B242     		cmp	r2, r6
 1524 031a 00F0B880 		beq	.L189
 1525              		.loc 1 610 0
 1526 031e 0B9D     		ldr	r5, [sp, #44]
 1527 0320 AF42     		cmp	r7, r5
 1528 0322 4BD3     		bcc	.L190
 1529 0324 099B     		ldr	r3, [sp, #36]
 1530 0326 0E9F     		ldr	r7, [sp, #56]
 1531 0328 1BB2     		sxth	r3, r3
 1532              	.L152:
 1533 032a 0A9E     		ldr	r6, [sp, #40]
 1534 032c F007     		lsls	r0, r6, #31
 1535 032e 5DD4     		bmi	.L154
 1536 0330 049E     		ldr	r6, [sp, #16]
 1537 0332 DDF82CC0 		ldr	ip, [sp, #44]
 1538 0336 DDF83880 		ldr	r8, [sp, #56]
 1539              	.LVL145:
 1540              	.L131:
 1541              		.loc 1 611 0 discriminator 1
 1542 033a B7F90200 		ldrsh	r0, [r7, #2]
 1543 033e 9842     		cmp	r0, r3
 1544 0340 1AD1     		bne	.L177
 1545              	.L70:
 1546              		.loc 1 612 0
 1547 0342 B7F90050 		ldrsh	r5, [r7, #0]
 1548 0346 2E04     		lsls	r6, r5, #16
 1549              		.loc 1 613 0
 1550 0348 6745     		cmp	r7, ip
 1551 034a 4DD2     		bcs	.L78
 1552              		.loc 1 613 0 is_stmt 0 discriminator 1
 1553 034c 0437     		adds	r7, r7, #4
 1554              	.LVL146:
 1555              	.L68:
 1556              		.loc 1 614 0 is_stmt 1 discriminator 3
 1557 034e 4D1E     		subs	r5, r1, #1
 1558              	.LVL147:
 1559 0350 0029     		cmp	r1, #0
 1560 0352 3FF4C6AE 		beq	.L41
 1561              		.loc 1 611 0
 1562 0356 B7F90200 		ldrsh	r0, [r7, #2]
 1563 035a 9842     		cmp	r0, r3
 1564              		.loc 1 614 0
 1565 035c 2946     		mov	r1, r5
 1566              		.loc 1 611 0
 1567 035e 0BD1     		bne	.L177
 1568              		.loc 1 612 0
 1569 0360 B7F90060 		ldrsh	r6, [r7, #0]
 1570 0364 3604     		lsls	r6, r6, #16
 1571              		.loc 1 613 0
 1572 0366 6745     		cmp	r7, ip
 1573 0368 2CBF     		ite	cs
 1574 036a 4746     		movcs	r7, r8
 1575              	.LVL148:
 1576 036c 0437     		addcc	r7, r7, #4
ARM GAS  /tmp/ccAUe7jC.s 			page 29


 1577              	.LVL149:
 1578              		.loc 1 614 0
 1579 036e 691E     		subs	r1, r5, #1
 1580              	.LVL150:
 1581              		.loc 1 611 0
 1582 0370 B7F90200 		ldrsh	r0, [r7, #2]
 1583 0374 9842     		cmp	r0, r3
 1584 0376 E4D0     		beq	.L70
 1585              	.L177:
 1586 0378 0496     		str	r6, [sp, #16]
 1587              	.LVL151:
 1588              	.L153:
 1589              		.loc 1 616 0
 1590 037a B7F900A0 		ldrsh	sl, [r7, #0]
 1591              	.LVL152:
 1592 037e 049E     		ldr	r6, [sp, #16]
 1593 0380 1191     		str	r1, [sp, #68]
 1594 0382 C51A     		subs	r5, r0, r3
 1595 0384 C6EB0A4C 		rsb	ip, r6, sl, lsl #16
 1596 0388 0139     		subs	r1, r1, #1
 1597 038a 9CFBF5FA 		sdiv	sl, ip, r5
 1598              	.LVL153:
 1599 038e 0A91     		str	r1, [sp, #40]
 1600 0390 F5E6     		b	.L151
 1601              	.LVL154:
 1602              	.L184:
 1603              		.loc 1 583 0
 1604 0392 D61A     		subs	r6, r2, r3
 1605 0394 012E     		cmp	r6, #1
 1606 0396 00F0D080 		beq	.L164
 1607              		.loc 1 586 0
 1608 039a 0C98     		ldr	r0, [sp, #48]
 1609              	.LVL155:
 1610 039c 079E     		ldr	r6, [sp, #28]
 1611 039e CDF80CC0 		str	ip, [sp, #12]
 1612 03a2 C318     		adds	r3, r0, r3
 1613              	.LVL156:
 1614 03a4 0698     		ldr	r0, [sp, #24]
 1615 03a6 29B2     		sxth	r1, r5
 1616 03a8 B218     		adds	r2, r6, r2
 1617              	.LVL157:
 1618 03aa 0090     		str	r0, [sp, #0]
 1619 03ac 12B2     		sxth	r2, r2
 1620 03ae 18B2     		sxth	r0, r3
 1621 03b0 0B46     		mov	r3, r1
 1622 03b2 FFF7FEFF 		bl	gdispDrawLine
 1623              	.LVL158:
 1624 03b6 DDF80CC0 		ldr	ip, [sp, #12]
 1625 03ba 15E7     		b	.L106
 1626              	.LVL159:
 1627              	.L190:
 1628 03bc 0998     		ldr	r0, [sp, #36]
 1629              		.loc 1 610 0 discriminator 1
 1630 03be 0437     		adds	r7, r7, #4
 1631 03c0 03B2     		sxth	r3, r0
 1632 03c2 B2E7     		b	.L152
 1633              	.LVL160:
ARM GAS  /tmp/ccAUe7jC.s 			page 30


 1634              	.L116:
 1635              		.loc 1 587 0
 1636 03c4 7FF76BAF 		ble	.L117
 1637              		.loc 1 588 0
 1638 03c8 C0EB0C02 		rsb	r2, r0, ip
 1639 03cc 012A     		cmp	r2, #1
 1640 03ce 54D0     		beq	.L169
 1641              		.loc 1 591 0
 1642 03d0 079B     		ldr	r3, [sp, #28]
 1643 03d2 0094     		str	r4, [sp, #0]
 1644 03d4 03EB0C02 		add	r2, r3, ip
 1645 03d8 29B2     		sxth	r1, r5
 1646 03da 3818     		adds	r0, r7, r0
 1647 03dc 00B2     		sxth	r0, r0
 1648 03de 12B2     		sxth	r2, r2
 1649 03e0 0B46     		mov	r3, r1
 1650 03e2 FFF7FEFF 		bl	gdispDrawLine
 1651              	.LVL161:
 1652 03e6 5AE7     		b	.L117
 1653              	.LVL162:
 1654              	.L78:
 1655              		.loc 1 613 0
 1656 03e8 4746     		mov	r7, r8
 1657              	.LVL163:
 1658 03ea B0E7     		b	.L68
 1659              	.LVL164:
 1660              	.L154:
 1661              		.loc 1 611 0
 1662 03ec B7F90200 		ldrsh	r0, [r7, #2]
 1663 03f0 9842     		cmp	r0, r3
 1664 03f2 C2D1     		bne	.L153
 1665              		.loc 1 612 0
 1666 03f4 B7F90010 		ldrsh	r1, [r7, #0]
 1667              		.loc 1 613 0
 1668 03f8 0B9E     		ldr	r6, [sp, #44]
 1669              		.loc 1 614 0
 1670 03fa 0A98     		ldr	r0, [sp, #40]
 1671 03fc DDF82CC0 		ldr	ip, [sp, #44]
 1672 0400 DDF83880 		ldr	r8, [sp, #56]
 1673              		.loc 1 612 0
 1674 0404 0D04     		lsls	r5, r1, #16
 1675              		.loc 1 613 0
 1676 0406 B742     		cmp	r7, r6
 1677 0408 28BF     		it	cs
 1678 040a 0E9F     		ldrcs	r7, [sp, #56]
 1679              	.LVL165:
 1680              		.loc 1 612 0
 1681 040c 0495     		str	r5, [sp, #16]
 1682              		.loc 1 613 0
 1683 040e 38BF     		it	cc
 1684 0410 0437     		addcc	r7, r7, #4
 1685              	.LVL166:
 1686 0412 049E     		ldr	r6, [sp, #16]
 1687              		.loc 1 614 0
 1688 0414 411E     		subs	r1, r0, #1
 1689              	.LVL167:
 1690 0416 90E7     		b	.L131
ARM GAS  /tmp/ccAUe7jC.s 			page 31


 1691              	.LVL168:
 1692              	.L185:
 1693              		.loc 1 584 0
 1694 0418 DDF814E0 		ldr	lr, [sp, #20]
 1695 041c 0CEB0E00 		add	r0, ip, lr
 1696 0420 00B2     		sxth	r0, r0
 1697 0422 29B2     		sxth	r1, r5
 1698 0424 2246     		mov	r2, r4
 1699 0426 FFF7FEFF 		bl	gdispDrawPixel
 1700              	.LVL169:
 1701 042a 1EE7     		b	.L58
 1702              	.L170:
 1703 042c DDF814E0 		ldr	lr, [sp, #20]
 1704 0430 0CEB0E00 		add	r0, ip, lr
 1705 0434 00B2     		sxth	r0, r0
 1706 0436 29B2     		sxth	r1, r5
 1707 0438 2246     		mov	r2, r4
 1708 043a FFF7FEFF 		bl	gdispDrawPixel
 1709              	.LVL170:
 1710 043e 2EE7     		b	.L117
 1711              	.LVL171:
 1712              	.L166:
 1713              		.loc 1 583 0
 1714 0440 D11A     		subs	r1, r2, r3
 1715 0442 0129     		cmp	r1, #1
 1716 0444 00F08580 		beq	.L168
 1717              		.loc 1 586 0
 1718 0448 DDF830C0 		ldr	ip, [sp, #48]
 1719 044c 0CEB0300 		add	r0, ip, r3
 1720 0450 079B     		ldr	r3, [sp, #28]
 1721 0452 9A18     		adds	r2, r3, r2
 1722 0454 069B     		ldr	r3, [sp, #24]
 1723 0456 29B2     		sxth	r1, r5
 1724 0458 0093     		str	r3, [sp, #0]
 1725 045a 00B2     		sxth	r0, r0
 1726 045c 12B2     		sxth	r2, r2
 1727 045e 0B46     		mov	r3, r1
 1728 0460 FFF7FEFF 		bl	gdispDrawLine
 1729              	.LVL172:
 1730 0464 E6E6     		b	.L111
 1731              	.LVL173:
 1732              	.L188:
 1733              		.loc 1 589 0
 1734 0466 DDF814E0 		ldr	lr, [sp, #20]
 1735 046a 00EB0E01 		add	r1, r0, lr
 1736 046e 08B2     		sxth	r0, r1
 1737 0470 2246     		mov	r2, r4
 1738 0472 29B2     		sxth	r1, r5
 1739 0474 FFF7FEFF 		bl	gdispDrawPixel
 1740              	.LVL174:
 1741 0478 F7E6     		b	.L58
 1742              	.L169:
 1743 047a DDF814E0 		ldr	lr, [sp, #20]
 1744 047e 00EB0E01 		add	r1, r0, lr
 1745 0482 08B2     		sxth	r0, r1
 1746 0484 2246     		mov	r2, r4
 1747 0486 29B2     		sxth	r1, r5
ARM GAS  /tmp/ccAUe7jC.s 			page 32


 1748 0488 FFF7FEFF 		bl	gdispDrawPixel
 1749              	.LVL175:
 1750 048c 07E7     		b	.L117
 1751              	.LVL176:
 1752              	.L189:
 1753              		.loc 1 602 0
 1754 048e 0E9A     		ldr	r2, [sp, #56]
 1755 0490 9442     		cmp	r4, r2
 1756 0492 4ED9     		bls	.L75
 1757 0494 0998     		ldr	r0, [sp, #36]
 1758              		.loc 1 602 0 is_stmt 0 discriminator 1
 1759 0496 043C     		subs	r4, r4, #4
 1760 0498 03B2     		sxth	r3, r0
 1761              	.L148:
 1762 049a 0A9D     		ldr	r5, [sp, #40]
 1763 049c ED07     		lsls	r5, r5, #31
 1764 049e 33D4     		bmi	.L150
 1765 04a0 089D     		ldr	r5, [sp, #32]
 1766 04a2 DDF82CC0 		ldr	ip, [sp, #44]
 1767 04a6 0E9E     		ldr	r6, [sp, #56]
 1768              	.LVL177:
 1769              	.L130:
 1770              		.loc 1 603 0 is_stmt 1 discriminator 1
 1771 04a8 B4F90220 		ldrsh	r2, [r4, #2]
 1772 04ac 9A42     		cmp	r2, r3
 1773 04ae 1AD1     		bne	.L176
 1774              	.L65:
 1775              		.loc 1 604 0
 1776 04b0 B4F90020 		ldrsh	r2, [r4, #0]
 1777 04b4 1504     		lsls	r5, r2, #16
 1778              		.loc 1 605 0
 1779 04b6 B442     		cmp	r4, r6
 1780 04b8 24D9     		bls	.L76
 1781              		.loc 1 605 0 is_stmt 0 discriminator 1
 1782 04ba 043C     		subs	r4, r4, #4
 1783              	.LVL178:
 1784              	.L63:
 1785              		.loc 1 606 0 is_stmt 1 discriminator 3
 1786 04bc 481E     		subs	r0, r1, #1
 1787              	.LVL179:
 1788 04be 0029     		cmp	r1, #0
 1789 04c0 3FF40FAE 		beq	.L41
 1790              		.loc 1 603 0
 1791 04c4 B4F90220 		ldrsh	r2, [r4, #2]
 1792 04c8 9A42     		cmp	r2, r3
 1793              		.loc 1 606 0
 1794 04ca 0146     		mov	r1, r0
 1795              		.loc 1 603 0
 1796 04cc 0BD1     		bne	.L176
 1797              		.loc 1 604 0
 1798 04ce B4F90010 		ldrsh	r1, [r4, #0]
 1799 04d2 0D04     		lsls	r5, r1, #16
 1800              		.loc 1 605 0
 1801 04d4 B442     		cmp	r4, r6
 1802              		.loc 1 542 0
 1803 04d6 94BF     		ite	ls
 1804 04d8 6446     		movls	r4, ip
ARM GAS  /tmp/ccAUe7jC.s 			page 33


 1805              	.LVL180:
 1806              		.loc 1 605 0
 1807 04da 043C     		subhi	r4, r4, #4
 1808              	.LVL181:
 1809              		.loc 1 606 0
 1810 04dc 411E     		subs	r1, r0, #1
 1811              	.LVL182:
 1812              		.loc 1 603 0
 1813 04de B4F90220 		ldrsh	r2, [r4, #2]
 1814 04e2 9A42     		cmp	r2, r3
 1815 04e4 E4D0     		beq	.L65
 1816              	.L176:
 1817 04e6 0895     		str	r5, [sp, #32]
 1818              	.LVL183:
 1819              	.L149:
 1820              		.loc 1 608 0
 1821 04e8 B4F90090 		ldrsh	r9, [r4, #0]
 1822              	.LVL184:
 1823 04ec 089E     		ldr	r6, [sp, #32]
 1824 04ee B7F90200 		ldrsh	r0, [r7, #2]
 1825 04f2 1191     		str	r1, [sp, #68]
 1826 04f4 C6EB094C 		rsb	ip, r6, r9, lsl #16
 1827 04f8 D51A     		subs	r5, r2, r3
 1828 04fa 4E1E     		subs	r6, r1, #1
 1829 04fc 9CFBF5F9 		sdiv	r9, ip, r5
 1830              	.LVL185:
 1831 0500 0A96     		str	r6, [sp, #40]
 1832 0502 3CE6     		b	.L151
 1833              	.LVL186:
 1834              	.L76:
 1835              		.loc 1 542 0
 1836 0504 6446     		mov	r4, ip
 1837              	.LVL187:
 1838 0506 D9E7     		b	.L63
 1839              	.LVL188:
 1840              	.L150:
 1841              		.loc 1 603 0
 1842 0508 B4F90220 		ldrsh	r2, [r4, #2]
 1843 050c 9A42     		cmp	r2, r3
 1844 050e EBD1     		bne	.L149
 1845              		.loc 1 604 0
 1846 0510 B4F90060 		ldrsh	r6, [r4, #0]
 1847              		.loc 1 605 0
 1848 0514 0E98     		ldr	r0, [sp, #56]
 1849              		.loc 1 606 0
 1850 0516 0A9D     		ldr	r5, [sp, #40]
 1851 0518 DDF82CC0 		ldr	ip, [sp, #44]
 1852              		.loc 1 604 0
 1853 051c 3104     		lsls	r1, r6, #16
 1854              		.loc 1 605 0
 1855 051e 8442     		cmp	r4, r0
 1856              		.loc 1 542 0
 1857 0520 98BF     		it	ls
 1858 0522 0B9C     		ldrls	r4, [sp, #44]
 1859              	.LVL189:
 1860              		.loc 1 604 0
 1861 0524 0891     		str	r1, [sp, #32]
ARM GAS  /tmp/ccAUe7jC.s 			page 34


 1862              		.loc 1 605 0
 1863 0526 88BF     		it	hi
 1864 0528 043C     		subhi	r4, r4, #4
 1865              	.LVL190:
 1866 052a 0E9E     		ldr	r6, [sp, #56]
 1867              		.loc 1 606 0
 1868 052c 691E     		subs	r1, r5, #1
 1869              	.LVL191:
 1870 052e 089D     		ldr	r5, [sp, #32]
 1871 0530 BAE7     		b	.L130
 1872              	.LVL192:
 1873              	.L75:
 1874 0532 099B     		ldr	r3, [sp, #36]
 1875              		.loc 1 542 0
 1876 0534 0B9C     		ldr	r4, [sp, #44]
 1877 0536 1BB2     		sxth	r3, r3
 1878 0538 AFE7     		b	.L148
 1879              	.LVL193:
 1880              	.L164:
 1881              		.loc 1 584 0
 1882 053a 0599     		ldr	r1, [sp, #20]
 1883 053c 5B18     		adds	r3, r3, r1
 1884              	.LVL194:
 1885              	.L178:
 1886 053e 18B2     		sxth	r0, r3
 1887              	.LVL195:
 1888 0540 29B2     		sxth	r1, r5
 1889 0542 069A     		ldr	r2, [sp, #24]
 1890              	.LVL196:
 1891 0544 CDF80CC0 		str	ip, [sp, #12]
 1892 0548 FFF7FEFF 		bl	gdispDrawPixel
 1893              	.LVL197:
 1894 054c DDF80CC0 		ldr	ip, [sp, #12]
 1895 0550 4AE6     		b	.L106
 1896              	.LVL198:
 1897              	.L168:
 1898 0552 DDF814E0 		ldr	lr, [sp, #20]
 1899 0556 069A     		ldr	r2, [sp, #24]
 1900 0558 03EB0E01 		add	r1, r3, lr
 1901 055c 08B2     		sxth	r0, r1
 1902 055e 29B2     		sxth	r1, r5
 1903 0560 FFF7FEFF 		bl	gdispDrawPixel
 1904              	.LVL199:
 1905 0564 66E6     		b	.L111
 1906              	.LVL200:
 1907              	.L163:
 1908              		.loc 1 589 0
 1909 0566 0599     		ldr	r1, [sp, #20]
 1910 0568 5318     		adds	r3, r2, r1
 1911              	.LVL201:
 1912 056a E8E7     		b	.L178
 1913              	.LVL202:
 1914              	.L167:
 1915 056c 0599     		ldr	r1, [sp, #20]
 1916 056e 5018     		adds	r0, r2, r1
 1917 0570 00B2     		sxth	r0, r0
 1918 0572 29B2     		sxth	r1, r5
ARM GAS  /tmp/ccAUe7jC.s 			page 35


 1919 0574 069A     		ldr	r2, [sp, #24]
 1920 0576 FFF7FEFF 		bl	gdispDrawPixel
 1921              	.LVL203:
 1922 057a 5BE6     		b	.L111
 1923              		.cfi_endproc
 1924              	.LFE132:
 1925              		.size	gdispFillConvexPoly, .-gdispFillConvexPoly
 1926 057c AFF30080 		.section	.text.gdispDrawString,"ax",%progbits
 1927              		.align	2
 1928              		.p2align 4,,15
 1929              		.global	gdispDrawString
 1930              		.thumb
 1931              		.thumb_func
 1932              		.type	gdispDrawString, %function
 1933              	gdispDrawString:
 1934              	.LFB133:
 1935              		.loc 1 623 0
 1936              		.cfi_startproc
 1937              		@ args = 4, pretend = 0, frame = 0
 1938              		@ frame_needed = 0, uses_anonymous_args = 0
 1939              	.LVL204:
 1940 0000 2DE9F04F 		push	{r4, r5, r6, r7, r8, r9, sl, fp, lr}
 1941              	.LCFI22:
 1942              		.cfi_def_cfa_offset 36
 1943              		.cfi_offset 4, -36
 1944              		.cfi_offset 5, -32
 1945              		.cfi_offset 6, -28
 1946              		.cfi_offset 7, -24
 1947              		.cfi_offset 8, -20
 1948              		.cfi_offset 9, -16
 1949              		.cfi_offset 10, -12
 1950              		.cfi_offset 11, -8
 1951              		.cfi_offset 14, -4
 1952 0004 83B0     		sub	sp, sp, #12
 1953              	.LCFI23:
 1954              		.cfi_def_cfa_offset 48
 1955              		.loc 1 623 0
 1956 0006 8346     		mov	fp, r0
 1957 0008 8846     		mov	r8, r1
 1958 000a 1C46     		mov	r4, r3
 1959 000c BDF83090 		ldrh	r9, [sp, #48]
 1960              		.loc 1 629 0
 1961 0010 72B3     		cbz	r2, .L191
 1962              	.LVL205:
 1963              		.loc 1 632 0
 1964 0012 1B7B     		ldrb	r3, [r3, #12]	@ zero_extendqisi2
 1965              	.LVL206:
 1966 0014 6779     		ldrb	r7, [r4, #5]	@ zero_extendqisi2
 1967              		.loc 1 623 0
 1968 0016 551E     		subs	r5, r2, #1
 1969              		.loc 1 632 0
 1970 0018 07FB03F7 		mul	r7, r7, r3
 1971              	.LVL207:
 1972              		.loc 1 631 0
 1973 001c 4FF0010A 		mov	sl, #1
 1974              	.LVL208:
 1975              	.L207:
ARM GAS  /tmp/ccAUe7jC.s 			page 36


 1976              		.loc 1 633 0 discriminator 1
 1977 0020 15F8012F 		ldrb	r2, [r5, #1]!	@ zero_extendqisi2
 1978              	.LVL209:
 1979 0024 22B3     		cbz	r2, .L191
 1980              	.LVL210:
 1981              	.L196:
 1982              		.loc 1 636 0
 1983 0026 A07A     		ldrb	r0, [r4, #10]	@ zero_extendqisi2
 1984 0028 8242     		cmp	r2, r0
 1985 002a F9D3     		bcc	.L207
 1986              		.loc 1 636 0 is_stmt 0 discriminator 1
 1987 002c E17A     		ldrb	r1, [r4, #11]	@ zero_extendqisi2
 1988 002e 9142     		cmp	r1, r2
 1989 0030 C0EB0203 		rsb	r3, r0, r2
 1990 0034 F4D3     		bcc	.L207
 1991 0036 2069     		ldr	r0, [r4, #16]
 1992 0038 267B     		ldrb	r6, [r4, #12]	@ zero_extendqisi2
 1993 003a C15C     		ldrb	r1, [r0, r3]	@ zero_extendqisi2
 1994 003c 06FB01F6 		mul	r6, r6, r1
 1995              	.LVL211:
 1996              		.loc 1 637 0 is_stmt 1 discriminator 1
 1997 0040 002E     		cmp	r6, #0
 1998 0042 EDD0     		beq	.L207
 1999              		.loc 1 640 0
 2000 0044 37B1     		cbz	r7, .L195
 2001              		.loc 1 642 0
 2002 0046 07EB0B03 		add	r3, r7, fp
 2003              		.loc 1 641 0
 2004 004a BAF1000F 		cmp	sl, #0
 2005 004e 12D1     		bne	.L198
 2006              		.loc 1 642 0
 2007 0050 0FFA83FB 		sxth	fp, r3
 2008              	.LVL212:
 2009              	.L195:
 2010              		.loc 1 648 0
 2011 0054 5846     		mov	r0, fp
 2012 0056 CDF80090 		str	r9, [sp, #0]
 2013 005a 4146     		mov	r1, r8
 2014 005c 2346     		mov	r3, r4
 2015 005e FFF7FEFF 		bl	gdispDrawChar
 2016              	.LVL213:
 2017              		.loc 1 633 0
 2018 0062 15F8012F 		ldrb	r2, [r5, #1]!	@ zero_extendqisi2
 2019              		.loc 1 649 0
 2020 0066 B344     		add	fp, r6, fp
 2021              	.LVL214:
 2022 0068 0FFA8BFB 		sxth	fp, fp
 2023              	.LVL215:
 2024              		.loc 1 633 0
 2025 006c 002A     		cmp	r2, #0
 2026 006e DAD1     		bne	.L196
 2027              	.LVL216:
 2028              	.L191:
 2029              		.loc 1 651 0
 2030 0070 03B0     		add	sp, sp, #12
 2031 0072 BDE8F08F 		pop	{r4, r5, r6, r7, r8, r9, sl, fp, pc}
 2032              	.LVL217:
ARM GAS  /tmp/ccAUe7jC.s 			page 37


 2033              	.L198:
 2034              		.loc 1 644 0
 2035 0076 4FF0000A 		mov	sl, #0
 2036              	.LVL218:
 2037 007a EBE7     		b	.L195
 2038              		.cfi_endproc
 2039              	.LFE133:
 2040              		.size	gdispDrawString, .-gdispDrawString
 2041 007c AFF30080 		.section	.text.gdispFillString,"ax",%progbits
 2042              		.align	2
 2043              		.p2align 4,,15
 2044              		.global	gdispFillString
 2045              		.thumb
 2046              		.thumb_func
 2047              		.type	gdispFillString, %function
 2048              	gdispFillString:
 2049              	.LFB134:
 2050              		.loc 1 655 0
 2051              		.cfi_startproc
 2052              		@ args = 8, pretend = 0, frame = 24
 2053              		@ frame_needed = 0, uses_anonymous_args = 0
 2054              	.LVL219:
 2055 0000 2DE9F04F 		push	{r4, r5, r6, r7, r8, r9, sl, fp, lr}
 2056              	.LCFI24:
 2057              		.cfi_def_cfa_offset 36
 2058              		.cfi_offset 4, -36
 2059              		.cfi_offset 5, -32
 2060              		.cfi_offset 6, -28
 2061              		.cfi_offset 7, -24
 2062              		.cfi_offset 8, -20
 2063              		.cfi_offset 9, -16
 2064              		.cfi_offset 10, -12
 2065              		.cfi_offset 11, -8
 2066              		.cfi_offset 14, -4
 2067 0004 89B0     		sub	sp, sp, #36
 2068              	.LCFI25:
 2069              		.cfi_def_cfa_offset 72
 2070              		.loc 1 655 0
 2071 0006 8946     		mov	r9, r1
 2072 0008 BDF84810 		ldrh	r1, [sp, #72]
 2073              	.LVL220:
 2074 000c BDF84CA0 		ldrh	sl, [sp, #76]
 2075 0010 0391     		str	r1, [sp, #12]
 2076 0012 8346     		mov	fp, r0
 2077 0014 1D46     		mov	r5, r3
 2078              		.loc 1 661 0
 2079 0016 002A     		cmp	r2, #0
 2080 0018 3CD0     		beq	.L208
 2081              	.LVL221:
 2082              		.loc 1 665 0
 2083 001a 187B     		ldrb	r0, [r3, #12]	@ zero_extendqisi2
 2084              	.LVL222:
 2085 001c 5C79     		ldrb	r4, [r3, #5]	@ zero_extendqisi2
 2086              		.loc 1 664 0
 2087 001e 2E79     		ldrb	r6, [r5, #4]	@ zero_extendqisi2
 2088 0020 5B7B     		ldrb	r3, [r3, #13]	@ zero_extendqisi2
 2089              	.LVL223:
ARM GAS  /tmp/ccAUe7jC.s 			page 38


 2090              		.loc 1 665 0
 2091 0022 04FB00F1 		mul	r1, r4, r0
 2092              		.loc 1 664 0
 2093 0026 06FB03F3 		mul	r3, r6, r3
 2094              	.LVL224:
 2095              		.loc 1 665 0
 2096 002a 1FFA81F8 		uxth	r8, r1
 2097              	.LVL225:
 2098              		.loc 1 655 0
 2099 002e 561E     		subs	r6, r2, #1
 2100              		.loc 1 675 0
 2101 0030 0FFA88F0 		sxth	r0, r8
 2102              		.loc 1 663 0
 2103 0034 0122     		movs	r2, #1
 2104              	.LVL226:
 2105              		.loc 1 675 0
 2106 0036 1CB2     		sxth	r4, r3
 2107              		.loc 1 665 0
 2108 0038 0591     		str	r1, [sp, #20]
 2109              		.loc 1 663 0
 2110 003a 0492     		str	r2, [sp, #16]
 2111              		.loc 1 675 0
 2112 003c 0690     		str	r0, [sp, #24]
 2113 003e 0794     		str	r4, [sp, #28]
 2114              	.LVL227:
 2115              	.L224:
 2116              		.loc 1 666 0 discriminator 1
 2117 0040 16F8014F 		ldrb	r4, [r6, #1]!	@ zero_extendqisi2
 2118              	.LVL228:
 2119 0044 34B3     		cbz	r4, .L208
 2120              	.LVL229:
 2121              	.L213:
 2122              		.loc 1 669 0
 2123 0046 A97A     		ldrb	r1, [r5, #10]	@ zero_extendqisi2
 2124 0048 8C42     		cmp	r4, r1
 2125 004a F9D3     		bcc	.L224
 2126              		.loc 1 669 0 is_stmt 0 discriminator 1
 2127 004c EB7A     		ldrb	r3, [r5, #11]	@ zero_extendqisi2
 2128 004e A342     		cmp	r3, r4
 2129 0050 C1EB0402 		rsb	r2, r1, r4
 2130 0054 F4D3     		bcc	.L224
 2131 0056 2869     		ldr	r0, [r5, #16]
 2132 0058 2F7B     		ldrb	r7, [r5, #12]	@ zero_extendqisi2
 2133 005a 815C     		ldrb	r1, [r0, r2]	@ zero_extendqisi2
 2134 005c 07FB01F7 		mul	r7, r7, r1
 2135              	.LVL230:
 2136              		.loc 1 670 0 is_stmt 1 discriminator 1
 2137 0060 002F     		cmp	r7, #0
 2138 0062 EDD0     		beq	.L224
 2139              		.loc 1 673 0
 2140 0064 B8F1000F 		cmp	r8, #0
 2141 0068 03D0     		beq	.L212
 2142              		.loc 1 674 0
 2143 006a 049B     		ldr	r3, [sp, #16]
 2144 006c ABB1     		cbz	r3, .L225
 2145              		.loc 1 678 0
 2146 006e 0022     		movs	r2, #0
ARM GAS  /tmp/ccAUe7jC.s 			page 39


 2147 0070 0492     		str	r2, [sp, #16]
 2148              	.L212:
 2149              	.LVL231:
 2150              		.loc 1 682 0
 2151 0072 039A     		ldr	r2, [sp, #12]
 2152 0074 5846     		mov	r0, fp
 2153 0076 8DE80404 		stmia	sp, {r2, sl}
 2154 007a 4946     		mov	r1, r9
 2155 007c 2246     		mov	r2, r4
 2156 007e 2B46     		mov	r3, r5
 2157              		.loc 1 683 0
 2158 0080 07EB0B04 		add	r4, r7, fp
 2159              		.loc 1 682 0
 2160 0084 FFF7FEFF 		bl	gdispFillChar
 2161              	.LVL232:
 2162              		.loc 1 683 0
 2163 0088 0FFA84FB 		sxth	fp, r4
 2164              	.LVL233:
 2165              		.loc 1 666 0
 2166 008c 16F8014F 		ldrb	r4, [r6, #1]!	@ zero_extendqisi2
 2167              	.LVL234:
 2168 0090 002C     		cmp	r4, #0
 2169 0092 D8D1     		bne	.L213
 2170              	.LVL235:
 2171              	.L208:
 2172              		.loc 1 685 0
 2173 0094 09B0     		add	sp, sp, #36
 2174 0096 BDE8F08F 		pop	{r4, r5, r6, r7, r8, r9, sl, fp, pc}
 2175              	.LVL236:
 2176              	.L225:
 2177              		.loc 1 675 0
 2178 009a 5846     		mov	r0, fp
 2179 009c CDF800A0 		str	sl, [sp, #0]
 2180 00a0 4946     		mov	r1, r9
 2181 00a2 069A     		ldr	r2, [sp, #24]
 2182 00a4 079B     		ldr	r3, [sp, #28]
 2183 00a6 FFF7FEFF 		bl	gdispFillArea
 2184              	.LVL237:
 2185              		.loc 1 676 0
 2186 00aa 0598     		ldr	r0, [sp, #20]
 2187 00ac 8344     		add	fp, r0, fp
 2188 00ae 0FFA8BFB 		sxth	fp, fp
 2189              	.LVL238:
 2190 00b2 DEE7     		b	.L212
 2191              		.cfi_endproc
 2192              	.LFE134:
 2193              		.size	gdispFillString, .-gdispFillString
 2194 00b4 AFF30080 		.section	.text.gdispGetFontMetric,"ax",%progbits
 2194      AFF30080 
 2194      AFF30080 
 2195              		.align	2
 2196              		.p2align 4,,15
 2197              		.global	gdispGetFontMetric
 2198              		.thumb
 2199              		.thumb_func
 2200              		.type	gdispGetFontMetric, %function
 2201              	gdispGetFontMetric:
ARM GAS  /tmp/ccAUe7jC.s 			page 40


 2202              	.LFB137:
 2203              		.loc 1 941 0
 2204              		.cfi_startproc
 2205              		@ args = 0, pretend = 0, frame = 0
 2206              		@ frame_needed = 0, uses_anonymous_args = 0
 2207              		@ link register save eliminated.
 2208              	.LVL239:
 2209              		.loc 1 943 0
 2210 0000 0529     		cmp	r1, #5
 2211 0002 0AD8     		bhi	.L235
 2212 0004 DFE801F0 		tbb	[pc, r1]
 2213              	.L234:
 2214 0008 0C       		.byte	(.L228-.L234)/2
 2215 0009 12       		.byte	(.L229-.L234)/2
 2216 000a 18       		.byte	(.L230-.L234)/2
 2217 000b 1E       		.byte	(.L231-.L234)/2
 2218 000c 24       		.byte	(.L232-.L234)/2
 2219 000d 03       		.byte	(.L233-.L234)/2
 2220              		.align	1
 2221              	.L233:
 2222              		.loc 1 949 0
 2223 000e 037B     		ldrb	r3, [r0, #12]	@ zero_extendqisi2
 2224 0010 407A     		ldrb	r0, [r0, #9]	@ zero_extendqisi2
 2225              	.LVL240:
 2226 0012 00FB03F3 		mul	r3, r0, r3
 2227              		.loc 1 952 0
 2228 0016 18B2     		sxth	r0, r3
 2229 0018 7047     		bx	lr
 2230              	.LVL241:
 2231              	.L235:
 2232              		.loc 1 951 0
 2233 001a 0023     		movs	r3, #0
 2234              		.loc 1 952 0
 2235 001c 18B2     		sxth	r0, r3
 2236              	.LVL242:
 2237 001e 7047     		bx	lr
 2238              	.LVL243:
 2239              	.L228:
 2240              		.loc 1 944 0
 2241 0020 417B     		ldrb	r1, [r0, #13]	@ zero_extendqisi2
 2242              	.LVL244:
 2243 0022 0279     		ldrb	r2, [r0, #4]	@ zero_extendqisi2
 2244 0024 02FB01F3 		mul	r3, r2, r1
 2245              		.loc 1 952 0
 2246 0028 18B2     		sxth	r0, r3
 2247              	.LVL245:
 2248 002a 7047     		bx	lr
 2249              	.LVL246:
 2250              	.L229:
 2251              		.loc 1 945 0
 2252 002c 437B     		ldrb	r3, [r0, #13]	@ zero_extendqisi2
 2253 002e C079     		ldrb	r0, [r0, #7]	@ zero_extendqisi2
 2254              	.LVL247:
 2255 0030 00FB03F3 		mul	r3, r0, r3
 2256              		.loc 1 952 0
 2257 0034 18B2     		sxth	r0, r3
 2258 0036 7047     		bx	lr
ARM GAS  /tmp/ccAUe7jC.s 			page 41


 2259              	.LVL248:
 2260              	.L230:
 2261              		.loc 1 946 0
 2262 0038 417B     		ldrb	r1, [r0, #13]	@ zero_extendqisi2
 2263              	.LVL249:
 2264 003a 8279     		ldrb	r2, [r0, #6]	@ zero_extendqisi2
 2265 003c 02FB01F3 		mul	r3, r2, r1
 2266              		.loc 1 952 0
 2267 0040 18B2     		sxth	r0, r3
 2268              	.LVL250:
 2269 0042 7047     		bx	lr
 2270              	.LVL251:
 2271              	.L231:
 2272              		.loc 1 947 0
 2273 0044 037B     		ldrb	r3, [r0, #12]	@ zero_extendqisi2
 2274 0046 4079     		ldrb	r0, [r0, #5]	@ zero_extendqisi2
 2275              	.LVL252:
 2276 0048 00FB03F3 		mul	r3, r0, r3
 2277              		.loc 1 952 0
 2278 004c 18B2     		sxth	r0, r3
 2279 004e 7047     		bx	lr
 2280              	.LVL253:
 2281              	.L232:
 2282              		.loc 1 948 0
 2283 0050 017B     		ldrb	r1, [r0, #12]	@ zero_extendqisi2
 2284              	.LVL254:
 2285 0052 027A     		ldrb	r2, [r0, #8]	@ zero_extendqisi2
 2286 0054 02FB01F3 		mul	r3, r2, r1
 2287              		.loc 1 952 0
 2288 0058 18B2     		sxth	r0, r3
 2289              	.LVL255:
 2290 005a 7047     		bx	lr
 2291              		.cfi_endproc
 2292              	.LFE137:
 2293              		.size	gdispGetFontMetric, .-gdispGetFontMetric
 2294 005c AFF30080 		.section	.text.gdispGetCharWidth,"ax",%progbits
 2295              		.align	2
 2296              		.p2align 4,,15
 2297              		.global	gdispGetCharWidth
 2298              		.thumb
 2299              		.thumb_func
 2300              		.type	gdispGetCharWidth, %function
 2301              	gdispGetCharWidth:
 2302              	.LFB138:
 2303              		.loc 1 956 0
 2304              		.cfi_startproc
 2305              		@ args = 0, pretend = 0, frame = 0
 2306              		@ frame_needed = 0, uses_anonymous_args = 0
 2307              		@ link register save eliminated.
 2308              	.LVL256:
 2309              		.loc 1 958 0
 2310 0000 8B7A     		ldrb	r3, [r1, #10]	@ zero_extendqisi2
 2311 0002 8342     		cmp	r3, r0
 2312 0004 0AD8     		bhi	.L239
 2313              		.loc 1 958 0 is_stmt 0 discriminator 1
 2314 0006 CA7A     		ldrb	r2, [r1, #11]	@ zero_extendqisi2
 2315 0008 8242     		cmp	r2, r0
ARM GAS  /tmp/ccAUe7jC.s 			page 42


 2316 000a 07D3     		bcc	.L239
 2317 000c C01A     		subs	r0, r0, r3
 2318              	.LVL257:
 2319 000e 0B69     		ldr	r3, [r1, #16]
 2320 0010 097B     		ldrb	r1, [r1, #12]	@ zero_extendqisi2
 2321              	.LVL258:
 2322 0012 1A5C     		ldrb	r2, [r3, r0]	@ zero_extendqisi2
 2323 0014 02FB01F0 		mul	r0, r2, r1
 2324              		.loc 1 959 0 is_stmt 1 discriminator 1
 2325 0018 00B2     		sxth	r0, r0
 2326 001a 7047     		bx	lr
 2327              	.LVL259:
 2328              	.L239:
 2329              		.loc 1 958 0
 2330 001c 0020     		movs	r0, #0
 2331              	.LVL260:
 2332              		.loc 1 959 0
 2333 001e 00B2     		sxth	r0, r0
 2334 0020 7047     		bx	lr
 2335              		.cfi_endproc
 2336              	.LFE138:
 2337              		.size	gdispGetCharWidth, .-gdispGetCharWidth
 2338 0022 00BFAFF3 		.section	.text.gdispGetStringWidth,"ax",%progbits
 2338      0080AFF3 
 2338      0080AFF3 
 2338      0080
 2339              		.align	2
 2340              		.p2align 4,,15
 2341              		.global	gdispGetStringWidth
 2342              		.thumb
 2343              		.thumb_func
 2344              		.type	gdispGetStringWidth, %function
 2345              	gdispGetStringWidth:
 2346              	.LFB139:
 2347              		.loc 1 963 0
 2348              		.cfi_startproc
 2349              		@ args = 0, pretend = 0, frame = 0
 2350              		@ frame_needed = 0, uses_anonymous_args = 0
 2351              		@ link register save eliminated.
 2352              	.LVL261:
 2353 0000 F0B4     		push	{r4, r5, r6, r7}
 2354              	.LCFI26:
 2355              		.cfi_def_cfa_offset 16
 2356              		.cfi_offset 4, -16
 2357              		.cfi_offset 5, -12
 2358              		.cfi_offset 6, -8
 2359              		.cfi_offset 7, -4
 2360              		.loc 1 971 0
 2361 0002 91F80CC0 		ldrb	ip, [r1, #12]	@ zero_extendqisi2
 2362 0006 4E79     		ldrb	r6, [r1, #5]	@ zero_extendqisi2
 2363              		.loc 1 963 0
 2364 0008 0138     		subs	r0, r0, #1
 2365              	.LVL262:
 2366              		.loc 1 969 0
 2367 000a 0127     		movs	r7, #1
 2368              		.loc 1 971 0
 2369 000c 06FB0CF6 		mul	r6, r6, ip
ARM GAS  /tmp/ccAUe7jC.s 			page 43


 2370              	.LVL263:
 2371              		.loc 1 970 0
 2372 0010 0024     		movs	r4, #0
 2373              	.LVL264:
 2374              	.L254:
 2375              		.loc 1 972 0 discriminator 1
 2376 0012 10F8013F 		ldrb	r3, [r0, #1]!	@ zero_extendqisi2
 2377              	.LVL265:
 2378 0016 BBB1     		cbz	r3, .L255
 2379              	.LVL266:
 2380              	.L244:
 2381              		.loc 1 975 0
 2382 0018 8A7A     		ldrb	r2, [r1, #10]	@ zero_extendqisi2
 2383 001a 9342     		cmp	r3, r2
 2384 001c F9D3     		bcc	.L254
 2385              		.loc 1 975 0 is_stmt 0 discriminator 1
 2386 001e CD7A     		ldrb	r5, [r1, #11]	@ zero_extendqisi2
 2387 0020 9D42     		cmp	r5, r3
 2388 0022 C2EB0302 		rsb	r2, r2, r3
 2389 0026 F4D3     		bcc	.L254
 2390 0028 0B69     		ldr	r3, [r1, #16]
 2391 002a 9A5C     		ldrb	r2, [r3, r2]	@ zero_extendqisi2
 2392 002c 02FB0CF3 		mul	r3, r2, ip
 2393              	.LVL267:
 2394              		.loc 1 976 0 is_stmt 1 discriminator 1
 2395 0030 002B     		cmp	r3, #0
 2396 0032 EED0     		beq	.L254
 2397              		.loc 1 979 0
 2398 0034 16B1     		cbz	r6, .L243
 2399              		.loc 1 981 0
 2400 0036 3219     		adds	r2, r6, r4
 2401              		.loc 1 980 0
 2402 0038 4FB9     		cbnz	r7, .L245
 2403              		.loc 1 981 0
 2404 003a 94B2     		uxth	r4, r2
 2405              	.LVL268:
 2406              	.L243:
 2407              		.loc 1 987 0
 2408 003c 1C19     		adds	r4, r3, r4
 2409              	.LVL269:
 2410              		.loc 1 972 0
 2411 003e 10F8013F 		ldrb	r3, [r0, #1]!	@ zero_extendqisi2
 2412              	.LVL270:
 2413              		.loc 1 987 0
 2414 0042 A4B2     		uxth	r4, r4
 2415              	.LVL271:
 2416              		.loc 1 972 0
 2417 0044 002B     		cmp	r3, #0
 2418 0046 E7D1     		bne	.L244
 2419              	.LVL272:
 2420              	.L255:
 2421              		.loc 1 990 0
 2422 0048 20B2     		sxth	r0, r4
 2423 004a F0BC     		pop	{r4, r5, r6, r7}
 2424 004c 7047     		bx	lr
 2425              	.LVL273:
 2426              	.L245:
ARM GAS  /tmp/ccAUe7jC.s 			page 44


 2427              		.loc 1 983 0
 2428 004e 0027     		movs	r7, #0
 2429              	.LVL274:
 2430 0050 F4E7     		b	.L243
 2431              		.cfi_endproc
 2432              	.LFE139:
 2433              		.size	gdispGetStringWidth, .-gdispGetStringWidth
 2434 0052 00BFAFF3 		.section	.text.gdispFillStringBox,"ax",%progbits
 2434      0080AFF3 
 2434      0080AFF3 
 2434      0080
 2435              		.align	2
 2436              		.p2align 4,,15
 2437              		.global	gdispFillStringBox
 2438              		.thumb
 2439              		.thumb_func
 2440              		.type	gdispFillStringBox, %function
 2441              	gdispFillStringBox:
 2442              	.LFB136:
 2443              		.loc 1 809 0
 2444              		.cfi_startproc
 2445              		@ args = 20, pretend = 0, frame = 40
 2446              		@ frame_needed = 0, uses_anonymous_args = 0
 2447              	.LVL275:
 2448 0000 2DE9F04F 		push	{r4, r5, r6, r7, r8, r9, sl, fp, lr}
 2449              	.LCFI27:
 2450              		.cfi_def_cfa_offset 36
 2451              		.cfi_offset 4, -36
 2452              		.cfi_offset 5, -32
 2453              		.cfi_offset 6, -28
 2454              		.cfi_offset 7, -24
 2455              		.cfi_offset 8, -20
 2456              		.cfi_offset 9, -16
 2457              		.cfi_offset 10, -12
 2458              		.cfi_offset 11, -8
 2459              		.cfi_offset 14, -4
 2460 0004 8DB0     		sub	sp, sp, #52
 2461              	.LCFI28:
 2462              		.cfi_def_cfa_offset 88
 2463              		.loc 1 816 0
 2464 0006 DFF8F083 		ldr	r8, .L359
 2465              		.loc 1 809 0
 2466 000a 179D     		ldr	r5, [sp, #92]
 2467 000c BDF86040 		ldrh	r4, [sp, #96]
 2468              		.loc 1 818 0
 2469 0010 2F79     		ldrb	r7, [r5, #4]	@ zero_extendqisi2
 2470 0012 6E7B     		ldrb	r6, [r5, #13]	@ zero_extendqisi2
 2471              		.loc 1 809 0
 2472 0014 0894     		str	r4, [sp, #32]
 2473              		.loc 1 818 0
 2474 0016 07FB06F6 		mul	r6, r7, r6
 2475              		.loc 1 809 0
 2476 001a BDF86440 		ldrh	r4, [sp, #100]
 2477 001e 0993     		str	r3, [sp, #36]
 2478              		.loc 1 818 0
 2479 0020 B7B2     		uxth	r7, r6
 2480              		.loc 1 822 0
ARM GAS  /tmp/ccAUe7jC.s 			page 45


 2481 0022 3BB2     		sxth	r3, r7
 2482              	.LVL276:
 2483              		.loc 1 809 0
 2484 0024 0694     		str	r4, [sp, #24]
 2485              		.loc 1 818 0
 2486 0026 0B97     		str	r7, [sp, #44]
 2487              		.loc 1 816 0
 2488 0028 169C     		ldr	r4, [sp, #88]
 2489              		.loc 1 822 0
 2490 002a 099F     		ldr	r7, [sp, #36]
 2491              		.loc 1 809 0
 2492 002c 9DF86890 		ldrb	r9, [sp, #104]	@ zero_extendqisi2
 2493              		.loc 1 819 0
 2494 0030 95F805B0 		ldrb	fp, [r5, #5]	@ zero_extendqisi2
 2495 0034 95F80CC0 		ldrb	ip, [r5, #12]	@ zero_extendqisi2
 2496              		.loc 1 809 0
 2497 0038 0591     		str	r1, [sp, #20]
 2498              		.loc 1 816 0
 2499 003a 002C     		cmp	r4, #0
 2500 003c 18BF     		it	ne
 2501 003e A046     		movne	r8, r4
 2502              	.LVL277:
 2503              		.loc 1 822 0
 2504 0040 BB42     		cmp	r3, r7
 2505              		.loc 1 809 0
 2506 0042 8246     		mov	sl, r0
 2507 0044 0792     		str	r2, [sp, #28]
 2508              		.loc 1 822 0
 2509 0046 00F39D80 		bgt	.L256
 2510              		.loc 1 825 0
 2511 004a FF1A     		subs	r7, r7, r3
 2512 004c 7B1C     		adds	r3, r7, #1
 2513 004e 03EBD374 		add	r4, r3, r3, lsr #31
 2514              	.LVL278:
 2515 0052 C4F34F04 		ubfx	r4, r4, #1, #16
 2516              	.LVL279:
 2517              		.loc 1 826 0
 2518 0056 27B2     		sxth	r7, r4
 2519 0058 002F     		cmp	r7, #0
 2520 005a 10DD     		ble	.L260
 2521              		.loc 1 827 0
 2522 005c 069B     		ldr	r3, [sp, #24]
 2523 005e CDF810C0 		str	ip, [sp, #16]
 2524 0062 0093     		str	r3, [sp, #0]
 2525 0064 3B46     		mov	r3, r7
 2526 0066 FFF7FEFF 		bl	gdispFillArea
 2527              	.LVL280:
 2528              		.loc 1 828 0
 2529 006a 0598     		ldr	r0, [sp, #20]
 2530              		.loc 1 829 0
 2531 006c 099A     		ldr	r2, [sp, #36]
 2532 006e DDF810C0 		ldr	ip, [sp, #16]
 2533              		.loc 1 828 0
 2534 0072 2118     		adds	r1, r4, r0
 2535              		.loc 1 829 0
 2536 0074 141B     		subs	r4, r2, r4
 2537              	.LVL281:
ARM GAS  /tmp/ccAUe7jC.s 			page 46


 2538              		.loc 1 828 0
 2539 0076 0FB2     		sxth	r7, r1
 2540              		.loc 1 829 0
 2541 0078 23B2     		sxth	r3, r4
 2542              		.loc 1 828 0
 2543 007a 0597     		str	r7, [sp, #20]
 2544              	.LVL282:
 2545              		.loc 1 829 0
 2546 007c 0993     		str	r3, [sp, #36]
 2547              	.LVL283:
 2548              	.L260:
 2549              		.loc 1 833 0
 2550 007e 0998     		ldr	r0, [sp, #36]
 2551 0080 81B2     		uxth	r1, r0
 2552 0082 8E1B     		subs	r6, r1, r6
 2553 0084 B4B2     		uxth	r4, r6
 2554              	.LVL284:
 2555              		.loc 1 834 0
 2556 0086 23B2     		sxth	r3, r4
 2557 0088 002B     		cmp	r3, #0
 2558 008a 0FDD     		ble	.L261
 2559              		.loc 1 835 0
 2560 008c 059A     		ldr	r2, [sp, #20]
 2561 008e 0698     		ldr	r0, [sp, #24]
 2562 0090 CDF810C0 		str	ip, [sp, #16]
 2563 0094 8F18     		adds	r7, r1, r2
 2564 0096 391B     		subs	r1, r7, r4
 2565 0098 0090     		str	r0, [sp, #0]
 2566 009a 09B2     		sxth	r1, r1
 2567 009c 5046     		mov	r0, sl
 2568 009e 079A     		ldr	r2, [sp, #28]
 2569 00a0 FFF7FEFF 		bl	gdispFillArea
 2570              	.LVL285:
 2571 00a4 0B9B     		ldr	r3, [sp, #44]
 2572 00a6 DDF810C0 		ldr	ip, [sp, #16]
 2573 00aa 0993     		str	r3, [sp, #36]
 2574              	.LVL286:
 2575              	.L261:
 2576              		.loc 1 819 0
 2577 00ac 0BFB0CFB 		mul	fp, fp, ip
 2578              		.loc 1 840 0
 2579 00b0 B9F1010F 		cmp	r9, #1
 2580              		.loc 1 819 0
 2581 00b4 CDF82CB0 		str	fp, [sp, #44]
 2582 00b8 1FFA8BFB 		uxth	fp, fp
 2583              	.LVL287:
 2584              		.loc 1 840 0
 2585 00bc 65D0     		beq	.L263
 2586 00be B9F1020F 		cmp	r9, #2
 2587 00c2 00F0B180 		beq	.L352
 2588              		.loc 1 902 0
 2589 00c6 0AF10106 		add	r6, sl, #1
 2590              	.LVL288:
 2591 00ca B6B2     		uxth	r6, r6
 2592              	.LVL289:
 2593 00cc 37B2     		sxth	r7, r6
 2594              	.LVL290:
ARM GAS  /tmp/ccAUe7jC.s 			page 47


 2595              	.L268:
 2596              		.loc 1 907 0
 2597 00ce 5745     		cmp	r7, sl
 2598 00d0 00F39C80 		bgt	.L353
 2599              	.LVL291:
 2600              	.L280:
 2601 00d4 0799     		ldr	r1, [sp, #28]
 2602              		.loc 1 809 0 discriminator 1
 2603 00d6 0123     		movs	r3, #1
 2604              		.loc 1 921 0 discriminator 1
 2605 00d8 0FFA8BF4 		sxth	r4, fp
 2606 00dc 8A44     		add	sl, r1, sl
 2607              		.loc 1 809 0 discriminator 1
 2608 00de 08F1FF38 		add	r8, r8, #-1
 2609 00e2 0793     		str	r3, [sp, #28]
 2610              		.loc 1 921 0 discriminator 1
 2611 00e4 0A94     		str	r4, [sp, #40]
 2612 00e6 3846     		mov	r0, r7
 2613              	.L336:
 2614              	.LVL292:
 2615              		.loc 1 912 0 discriminator 1
 2616 00e8 18F8014F 		ldrb	r4, [r8, #1]!	@ zero_extendqisi2
 2617 00ec 002C     		cmp	r4, #0
 2618 00ee 3AD0     		beq	.L284
 2619              	.LVL293:
 2620              	.L285:
 2621              		.loc 1 915 0
 2622 00f0 AF7A     		ldrb	r7, [r5, #10]	@ zero_extendqisi2
 2623 00f2 BC42     		cmp	r4, r7
 2624 00f4 F8D3     		bcc	.L336
 2625              		.loc 1 915 0 is_stmt 0 discriminator 1
 2626 00f6 EA7A     		ldrb	r2, [r5, #11]	@ zero_extendqisi2
 2627 00f8 A242     		cmp	r2, r4
 2628 00fa F5D3     		bcc	.L336
 2629 00fc E11B     		subs	r1, r4, r7
 2630 00fe 2B69     		ldr	r3, [r5, #16]
 2631 0100 95F80C90 		ldrb	r9, [r5, #12]	@ zero_extendqisi2
 2632 0104 5F5C     		ldrb	r7, [r3, r1]	@ zero_extendqisi2
 2633 0106 09FB07F9 		mul	r9, r9, r7
 2634 010a 1FFA89F7 		uxth	r7, r9
 2635              	.LVL294:
 2636              		.loc 1 916 0 is_stmt 1 discriminator 1
 2637 010e 002F     		cmp	r7, #0
 2638 0110 EAD0     		beq	.L336
 2639              		.loc 1 919 0
 2640 0112 BBF1000F 		cmp	fp, #0
 2641 0116 11D0     		beq	.L283
 2642              		.loc 1 920 0
 2643 0118 079A     		ldr	r2, [sp, #28]
 2644 011a 002A     		cmp	r2, #0
 2645 011c 40F08180 		bne	.L290
 2646              		.loc 1 921 0
 2647 0120 0A9A     		ldr	r2, [sp, #40]
 2648 0122 8318     		adds	r3, r0, r2
 2649 0124 5345     		cmp	r3, sl
 2650 0126 1EDC     		bgt	.L284
 2651              		.loc 1 922 0
ARM GAS  /tmp/ccAUe7jC.s 			page 48


 2652 0128 0699     		ldr	r1, [sp, #24]
 2653 012a 099B     		ldr	r3, [sp, #36]
 2654 012c 0091     		str	r1, [sp, #0]
 2655 012e 0599     		ldr	r1, [sp, #20]
 2656 0130 FFF7FEFF 		bl	gdispFillArea
 2657              	.LVL295:
 2658              		.loc 1 923 0
 2659 0134 0B98     		ldr	r0, [sp, #44]
 2660 0136 8619     		adds	r6, r0, r6
 2661 0138 B6B2     		uxth	r6, r6
 2662              	.LVL296:
 2663 013a 30B2     		sxth	r0, r6
 2664              	.LVL297:
 2665              	.L283:
 2666              		.loc 1 929 0
 2667 013c 00FA87FC 		sxtah	ip, r0, r7
 2668 0140 D445     		cmp	ip, sl
 2669 0142 10DC     		bgt	.L284
 2670              		.loc 1 930 0
 2671 0144 069A     		ldr	r2, [sp, #24]
 2672 0146 089F     		ldr	r7, [sp, #32]
 2673 0148 0192     		str	r2, [sp, #4]
 2674 014a 0097     		str	r7, [sp, #0]
 2675 014c 2246     		mov	r2, r4
 2676 014e 0599     		ldr	r1, [sp, #20]
 2677              		.loc 1 931 0
 2678 0150 09EB0604 		add	r4, r9, r6
 2679              	.LVL298:
 2680              		.loc 1 930 0
 2681 0154 2B46     		mov	r3, r5
 2682 0156 FFF7FEFF 		bl	gdispFillChar
 2683              	.LVL299:
 2684              		.loc 1 931 0
 2685 015a A6B2     		uxth	r6, r4
 2686              	.LVL300:
 2687              		.loc 1 912 0
 2688 015c 18F8014F 		ldrb	r4, [r8, #1]!	@ zero_extendqisi2
 2689              	.LVL301:
 2690 0160 30B2     		sxth	r0, r6
 2691 0162 002C     		cmp	r4, #0
 2692 0164 C4D1     		bne	.L285
 2693              	.LVL302:
 2694              	.L284:
 2695              		.loc 1 935 0
 2696 0166 5045     		cmp	r0, sl
 2697 0168 0746     		mov	r7, r0
 2698              	.LVL303:
 2699 016a 0BDA     		bge	.L256
 2700              		.loc 1 936 0
 2701 016c C6EB0A03 		rsb	r3, r6, sl
 2702 0170 069C     		ldr	r4, [sp, #24]
 2703 0172 0599     		ldr	r1, [sp, #20]
 2704 0174 1694     		str	r4, [sp, #88]
 2705 0176 1AB2     		sxth	r2, r3
 2706 0178 099B     		ldr	r3, [sp, #36]
 2707              		.loc 1 937 0
 2708 017a 0DB0     		add	sp, sp, #52
ARM GAS  /tmp/ccAUe7jC.s 			page 49


 2709 017c BDE8F04F 		pop	{r4, r5, r6, r7, r8, r9, sl, fp, lr}
 2710              		.loc 1 936 0
 2711 0180 FFF7FEBF 		b	gdispFillArea
 2712              	.LVL304:
 2713              	.L256:
 2714              		.loc 1 937 0
 2715 0184 0DB0     		add	sp, sp, #52
 2716 0186 BDE8F08F 		pop	{r4, r5, r6, r7, r8, r9, sl, fp, pc}
 2717              	.LVL305:
 2718              	.L263:
 2719              		.loc 1 843 0
 2720 018a 2946     		mov	r1, r5
 2721 018c 4046     		mov	r0, r8
 2722 018e FFF7FEFF 		bl	gdispGetStringWidth
 2723              	.LVL306:
 2724              		.loc 1 844 0
 2725 0192 0799     		ldr	r1, [sp, #28]
 2726 0194 8142     		cmp	r1, r0
 2727 0196 80F2EC80 		bge	.L354
 2728              		.loc 1 848 0
 2729 019a 079A     		ldr	r2, [sp, #28]
 2730 019c 801A     		subs	r0, r0, r2
 2731              	.LVL307:
 2732 019e 00EBD077 		add	r7, r0, r0, lsr #31
 2733 01a2 4FEA670E 		asr	lr, r7, #1
 2734              	.LVL308:
 2735 01a6 4346     		mov	r3, r8
 2736              		.loc 1 850 0
 2737 01a8 4F46     		mov	r7, r9
 2738              		.loc 1 849 0
 2739 01aa 0021     		movs	r1, #0
 2740 01ac 0FFA8EF4 		sxth	r4, lr
 2741              	.LVL309:
 2742              	.L335:
 2743 01b0 9846     		mov	r8, r3
 2744              	.LVL310:
 2745              		.loc 1 851 0 discriminator 1
 2746 01b2 13F8012B 		ldrb	r2, [r3], #1	@ zero_extendqisi2
 2747              	.LVL311:
 2748 01b6 02B3     		cbz	r2, .L272
 2749              		.loc 1 854 0
 2750 01b8 A87A     		ldrb	r0, [r5, #10]	@ zero_extendqisi2
 2751 01ba 8242     		cmp	r2, r0
 2752              		.loc 1 853 0
 2753 01bc 9846     		mov	r8, r3
 2754              	.LVL312:
 2755              		.loc 1 854 0
 2756 01be F7D3     		bcc	.L335
 2757              		.loc 1 854 0 is_stmt 0 discriminator 1
 2758 01c0 EE7A     		ldrb	r6, [r5, #11]	@ zero_extendqisi2
 2759 01c2 9642     		cmp	r6, r2
 2760 01c4 C0EB0200 		rsb	r0, r0, r2
 2761 01c8 F2D3     		bcc	.L335
 2762 01ca 2A69     		ldr	r2, [r5, #16]
 2763 01cc 2E7B     		ldrb	r6, [r5, #12]	@ zero_extendqisi2
 2764 01ce 125C     		ldrb	r2, [r2, r0]	@ zero_extendqisi2
 2765 01d0 06FB02F2 		mul	r2, r6, r2
ARM GAS  /tmp/ccAUe7jC.s 			page 50


 2766              	.LVL313:
 2767              		.loc 1 855 0 is_stmt 1 discriminator 1
 2768 01d4 002A     		cmp	r2, #0
 2769 01d6 EBD0     		beq	.L335
 2770              		.loc 1 858 0
 2771 01d8 BBF1000F 		cmp	fp, #0
 2772 01dc 08D0     		beq	.L271
 2773              		.loc 1 860 0
 2774 01de 0B98     		ldr	r0, [sp, #44]
 2775 01e0 4618     		adds	r6, r0, r1
 2776              		.loc 1 859 0
 2777 01e2 002F     		cmp	r7, #0
 2778 01e4 40F0D280 		bne	.L288
 2779              		.loc 1 860 0
 2780 01e8 B1B2     		uxth	r1, r6
 2781              	.LVL314:
 2782              		.loc 1 861 0
 2783 01ea 08B2     		sxth	r0, r1
 2784 01ec 8442     		cmp	r4, r0
 2785 01ee 04DB     		blt	.L272
 2786              	.LVL315:
 2787              	.L271:
 2788              		.loc 1 867 0
 2789 01f0 5118     		adds	r1, r2, r1
 2790              	.LVL316:
 2791 01f2 89B2     		uxth	r1, r1
 2792              	.LVL317:
 2793              		.loc 1 868 0
 2794 01f4 0AB2     		sxth	r2, r1
 2795              	.LVL318:
 2796 01f6 9442     		cmp	r4, r2
 2797 01f8 DADA     		bge	.L335
 2798              	.LVL319:
 2799              	.L272:
 2800              		.loc 1 870 0
 2801 01fa 0EEB0A0C 		add	ip, lr, sl
 2802 01fe C1EB0C03 		rsb	r3, r1, ip
 2803              	.LVL320:
 2804 0202 9EB2     		uxth	r6, r3
 2805              	.LVL321:
 2806 0204 37B2     		sxth	r7, r6
 2807              	.LVL322:
 2808              		.loc 1 907 0
 2809 0206 5745     		cmp	r7, sl
 2810 0208 7FF764AF 		ble	.L280
 2811              	.LVL323:
 2812              	.L353:
 2813              		.loc 1 908 0
 2814 020c 0698     		ldr	r0, [sp, #24]
 2815 020e 0599     		ldr	r1, [sp, #20]
 2816 0210 0090     		str	r0, [sp, #0]
 2817 0212 CAEB0602 		rsb	r2, sl, r6
 2818 0216 5046     		mov	r0, sl
 2819 0218 12B2     		sxth	r2, r2
 2820 021a 099B     		ldr	r3, [sp, #36]
 2821 021c FFF7FEFF 		bl	gdispFillArea
 2822              	.LVL324:
ARM GAS  /tmp/ccAUe7jC.s 			page 51


 2823 0220 58E7     		b	.L280
 2824              	.LVL325:
 2825              	.L290:
 2826              		.loc 1 925 0
 2827 0222 0021     		movs	r1, #0
 2828 0224 0791     		str	r1, [sp, #28]
 2829 0226 89E7     		b	.L283
 2830              	.LVL326:
 2831              	.L352:
 2832              		.loc 1 875 0 discriminator 1
 2833 0228 98F80040 		ldrb	r4, [r8, #0]	@ zero_extendqisi2
 2834              		.loc 1 809 0 discriminator 1
 2835 022c 08F10102 		add	r2, r8, #1
 2836              		.loc 1 875 0 discriminator 1
 2837 0230 002C     		cmp	r4, #0
 2838 0232 00F0D580 		beq	.L355
 2839              	.L274:
 2840              		.loc 1 875 0 is_stmt 0 discriminator 2
 2841 0236 1046     		mov	r0, r2
 2842              	.LVL327:
 2843 0238 0132     		adds	r2, r2, #1
 2844 023a 0778     		ldrb	r7, [r0, #0]	@ zero_extendqisi2
 2845 023c 002F     		cmp	r7, #0
 2846 023e FAD1     		bne	.L274
 2847              	.LVL328:
 2848              	.L266:
 2849              		.loc 1 876 0 is_stmt 1
 2850 0240 079B     		ldr	r3, [sp, #28]
 2851 0242 AAF10201 		sub	r1, sl, #2
 2852 0246 CE18     		adds	r6, r1, r3
 2853              	.LVL329:
 2854              		.loc 1 878 0
 2855 0248 431E     		subs	r3, r0, #1
 2856 024a 9845     		cmp	r8, r3
 2857              		.loc 1 876 0
 2858 024c B6B2     		uxth	r6, r6
 2859              	.LVL330:
 2860              		.loc 1 878 0
 2861 024e 00F29980 		bhi	.L340
 2862              		.loc 1 880 0
 2863 0252 1A46     		mov	r2, r3
 2864              		.loc 1 809 0
 2865 0254 08F1FF38 		add	r8, r8, #-1
 2866 0258 A97A     		ldrb	r1, [r5, #10]	@ zero_extendqisi2
 2867              		.loc 1 880 0
 2868 025a 12F80179 		ldrb	r7, [r2], #-1	@ zero_extendqisi2
 2869              	.LVL331:
 2870 025e C3EB0804 		rsb	r4, r3, r8
 2871 0262 E043     		mvns	r0, r4
 2872              		.loc 1 877 0
 2873 0264 4FF00109 		mov	r9, #1
 2874              		.loc 1 887 0
 2875 0268 0FFA8BF4 		sxth	r4, fp
 2876              		.loc 1 881 0
 2877 026c 8F42     		cmp	r7, r1
 2878              		.loc 1 887 0
 2879 026e 0A94     		str	r4, [sp, #40]
ARM GAS  /tmp/ccAUe7jC.s 			page 52


 2880 0270 00EA090C 		and	ip, r0, r9
 2881              		.loc 1 881 0
 2882 0274 17D3     		bcc	.L307
 2883 0276 E87A     		ldrb	r0, [r5, #11]	@ zero_extendqisi2
 2884 0278 B842     		cmp	r0, r7
 2885 027a 14D3     		bcc	.L307
 2886 027c 2869     		ldr	r0, [r5, #16]
 2887 027e 2C7B     		ldrb	r4, [r5, #12]	@ zero_extendqisi2
 2888 0280 7F1A     		subs	r7, r7, r1
 2889 0282 C75D     		ldrb	r7, [r0, r7]	@ zero_extendqisi2
 2890 0284 04FB07F4 		mul	r4, r4, r7
 2891 0288 A0B2     		uxth	r0, r4
 2892              		.loc 1 882 0
 2893 028a 60B1     		cbz	r0, .L307
 2894              		.loc 1 894 0
 2895 028c 37B2     		sxth	r7, r6
 2896 028e 00B2     		sxth	r0, r0
 2897              		.loc 1 890 0
 2898 0290 BBF1000F 		cmp	fp, #0
 2899              		.loc 1 894 0
 2900 0294 C0EB0700 		rsb	r0, r0, r7
 2901              		.loc 1 890 0
 2902 0298 18BF     		it	ne
 2903 029a 4FF00009 		movne	r9, #0
 2904              	.LVL332:
 2905              		.loc 1 894 0
 2906 029e 5045     		cmp	r0, sl
 2907 02a0 71DB     		blt	.L276
 2908              		.loc 1 895 0
 2909 02a2 331B     		subs	r3, r6, r4
 2910              	.LVL333:
 2911 02a4 9EB2     		uxth	r6, r3
 2912              	.LVL334:
 2913              	.L307:
 2914              		.loc 1 878 0
 2915 02a6 4245     		cmp	r2, r8
 2916 02a8 1346     		mov	r3, r2
 2917 02aa 6BD0     		beq	.L340
 2918 02ac BCF1000F 		cmp	ip, #0
 2919 02b0 09D0     		beq	.L349
 2920              		.loc 1 880 0
 2921 02b2 12F80179 		ldrb	r7, [r2], #-1	@ zero_extendqisi2
 2922              	.LVL335:
 2923              		.loc 1 881 0
 2924 02b6 8F42     		cmp	r7, r1
 2925 02b8 02D3     		bcc	.L311
 2926 02ba EC7A     		ldrb	r4, [r5, #11]	@ zero_extendqisi2
 2927 02bc BC42     		cmp	r4, r7
 2928 02be 74D2     		bcs	.L356
 2929              	.LVL336:
 2930              	.L311:
 2931              		.loc 1 878 0
 2932 02c0 4245     		cmp	r2, r8
 2933 02c2 1346     		mov	r3, r2
 2934 02c4 5ED0     		beq	.L340
 2935              	.LVL337:
 2936              	.L349:
ARM GAS  /tmp/ccAUe7jC.s 			page 53


 2937 02c6 5846     		mov	r0, fp
 2938 02c8 36E0     		b	.L279
 2939              	.LVL338:
 2940              	.L358:
 2941              		.loc 1 887 0
 2942 02ca DDF828B0 		ldr	fp, [sp, #40]
 2943 02ce 37B2     		sxth	r7, r6
 2944 02d0 CBEB070B 		rsb	fp, fp, r7
 2945 02d4 D345     		cmp	fp, sl
 2946 02d6 66DB     		blt	.L351
 2947              		.loc 1 888 0
 2948 02d8 0B9F     		ldr	r7, [sp, #44]
 2949 02da F61B     		subs	r6, r6, r7
 2950 02dc B6B2     		uxth	r6, r6
 2951              	.LVL339:
 2952              	.L278:
 2953              		.loc 1 894 0
 2954 02de 37B2     		sxth	r7, r6
 2955 02e0 24B2     		sxth	r4, r4
 2956 02e2 3C1B     		subs	r4, r7, r4
 2957 02e4 5445     		cmp	r4, sl
 2958 02e6 5EDB     		blt	.L351
 2959              		.loc 1 895 0
 2960 02e8 CCEB0603 		rsb	r3, ip, r6
 2961 02ec 9EB2     		uxth	r6, r3
 2962              	.LVL340:
 2963              	.L277:
 2964 02ee 1346     		mov	r3, r2
 2965 02f0 013A     		subs	r2, r2, #1
 2966              		.loc 1 880 0
 2967 02f2 93F800C0 		ldrb	ip, [r3, #0]	@ zero_extendqisi2
 2968              		.loc 1 881 0
 2969 02f6 8C45     		cmp	ip, r1
 2970 02f8 1BD3     		bcc	.L316
 2971 02fa EF7A     		ldrb	r7, [r5, #11]	@ zero_extendqisi2
 2972 02fc 6745     		cmp	r7, ip
 2973 02fe 18D3     		bcc	.L316
 2974 0300 2C69     		ldr	r4, [r5, #16]
 2975 0302 2F7B     		ldrb	r7, [r5, #12]	@ zero_extendqisi2
 2976 0304 C1EB0C0B 		rsb	fp, r1, ip
 2977 0308 14F80BC0 		ldrb	ip, [r4, fp]	@ zero_extendqisi2
 2978 030c 07FB0CFC 		mul	ip, r7, ip
 2979 0310 1FFA8CF4 		uxth	r4, ip
 2980              		.loc 1 882 0
 2981 0314 6CB1     		cbz	r4, .L316
 2982              		.loc 1 885 0
 2983 0316 20B1     		cbz	r0, .L317
 2984              		.loc 1 886 0
 2985 0318 B9F1000F 		cmp	r9, #0
 2986 031c 38D0     		beq	.L344
 2987              		.loc 1 890 0
 2988 031e 4FF00009 		mov	r9, #0
 2989              	.LVL341:
 2990              	.L317:
 2991              		.loc 1 894 0
 2992 0322 37B2     		sxth	r7, r6
 2993 0324 24B2     		sxth	r4, r4
ARM GAS  /tmp/ccAUe7jC.s 			page 54


 2994 0326 3C1B     		subs	r4, r7, r4
 2995 0328 5445     		cmp	r4, sl
 2996 032a 3CDB     		blt	.L351
 2997              		.loc 1 895 0
 2998 032c CCEB0603 		rsb	r3, ip, r6
 2999 0330 9EB2     		uxth	r6, r3
 3000              	.LVL342:
 3001              	.L316:
 3002              		.loc 1 878 0
 3003 0332 4245     		cmp	r2, r8
 3004 0334 1346     		mov	r3, r2
 3005 0336 24D0     		beq	.L357
 3006              	.LVL343:
 3007              	.L279:
 3008 0338 1346     		mov	r3, r2
 3009 033a 013A     		subs	r2, r2, #1
 3010              		.loc 1 880 0
 3011 033c 93F800B0 		ldrb	fp, [r3, #0]	@ zero_extendqisi2
 3012              		.loc 1 881 0
 3013 0340 8B45     		cmp	fp, r1
 3014 0342 D4D3     		bcc	.L277
 3015              		.loc 1 881 0 is_stmt 0 discriminator 1
 3016 0344 EF7A     		ldrb	r7, [r5, #11]	@ zero_extendqisi2
 3017 0346 5F45     		cmp	r7, fp
 3018 0348 D1D3     		bcc	.L277
 3019 034a C1EB0B0C 		rsb	ip, r1, fp
 3020 034e 2C69     		ldr	r4, [r5, #16]
 3021 0350 2F7B     		ldrb	r7, [r5, #12]	@ zero_extendqisi2
 3022 0352 14F80CB0 		ldrb	fp, [r4, ip]	@ zero_extendqisi2
 3023 0356 07FB0BFC 		mul	ip, r7, fp
 3024 035a 1FFA8CF4 		uxth	r4, ip
 3025              	.LVL344:
 3026              		.loc 1 882 0 is_stmt 1 discriminator 1
 3027 035e 002C     		cmp	r4, #0
 3028 0360 C5D0     		beq	.L277
 3029              		.loc 1 885 0
 3030 0362 0028     		cmp	r0, #0
 3031 0364 BBD0     		beq	.L278
 3032              		.loc 1 886 0
 3033 0366 B9F1000F 		cmp	r9, #0
 3034 036a AED0     		beq	.L358
 3035              		.loc 1 890 0
 3036 036c 4FF00009 		mov	r9, #0
 3037              	.LVL345:
 3038 0370 B5E7     		b	.L278
 3039              	.LVL346:
 3040              	.L354:
 3041              		.loc 1 845 0
 3042 0372 0C1A     		subs	r4, r1, r0
 3043 0374 04EBD476 		add	r6, r4, r4, lsr #31
 3044              	.LVL347:
 3045 0378 0AEB6607 		add	r7, sl, r6, asr #1
 3046 037c BEB2     		uxth	r6, r7
 3047              	.LVL348:
 3048 037e 37B2     		sxth	r7, r6
 3049              	.LVL349:
 3050 0380 A5E6     		b	.L268
ARM GAS  /tmp/ccAUe7jC.s 			page 55


 3051              	.LVL350:
 3052              	.L357:
 3053 0382 8346     		mov	fp, r0
 3054              	.LVL351:
 3055              	.L340:
 3056 0384 37B2     		sxth	r7, r6
 3057              	.L276:
 3058              	.LVL352:
 3059              		.loc 1 897 0
 3060 0386 03F10108 		add	r8, r3, #1
 3061              		.loc 1 898 0
 3062 038a A0E6     		b	.L268
 3063              	.LVL353:
 3064              	.L288:
 3065              		.loc 1 863 0
 3066 038c 0027     		movs	r7, #0
 3067              	.LVL354:
 3068 038e 2FE7     		b	.L271
 3069              	.LVL355:
 3070              	.L344:
 3071              		.loc 1 887 0
 3072 0390 DDF828B0 		ldr	fp, [sp, #40]
 3073 0394 37B2     		sxth	r7, r6
 3074 0396 CBEB070B 		rsb	fp, fp, r7
 3075 039a D345     		cmp	fp, sl
 3076 039c 03DB     		blt	.L351
 3077              		.loc 1 888 0
 3078 039e 0B9F     		ldr	r7, [sp, #44]
 3079 03a0 F61B     		subs	r6, r6, r7
 3080              	.LVL356:
 3081 03a2 B6B2     		uxth	r6, r6
 3082              	.LVL357:
 3083 03a4 BDE7     		b	.L317
 3084              	.LVL358:
 3085              	.L351:
 3086 03a6 8346     		mov	fp, r0
 3087 03a8 EDE7     		b	.L276
 3088              	.LVL359:
 3089              	.L356:
 3090              		.loc 1 881 0
 3091 03aa 7F1A     		subs	r7, r7, r1
 3092 03ac 2869     		ldr	r0, [r5, #16]
 3093 03ae 2C7B     		ldrb	r4, [r5, #12]	@ zero_extendqisi2
 3094 03b0 C75D     		ldrb	r7, [r0, r7]	@ zero_extendqisi2
 3095 03b2 04FB07FC 		mul	ip, r4, r7
 3096 03b6 1FFA8CF4 		uxth	r4, ip
 3097              		.loc 1 882 0
 3098 03ba 002C     		cmp	r4, #0
 3099 03bc 80D0     		beq	.L311
 3100              		.loc 1 885 0
 3101 03be BBF1000F 		cmp	fp, #0
 3102 03c2 04D0     		beq	.L312
 3103              		.loc 1 886 0
 3104 03c4 B9F1000F 		cmp	r9, #0
 3105 03c8 0CD0     		beq	.L342
 3106              		.loc 1 890 0
 3107 03ca 4FF00009 		mov	r9, #0
ARM GAS  /tmp/ccAUe7jC.s 			page 56


 3108              	.LVL360:
 3109              	.L312:
 3110              		.loc 1 894 0
 3111 03ce 37B2     		sxth	r7, r6
 3112 03d0 24B2     		sxth	r4, r4
 3113 03d2 381B     		subs	r0, r7, r4
 3114 03d4 5045     		cmp	r0, sl
 3115 03d6 D6DB     		blt	.L276
 3116              		.loc 1 895 0
 3117 03d8 CCEB0603 		rsb	r3, ip, r6
 3118              	.LVL361:
 3119 03dc 9EB2     		uxth	r6, r3
 3120              	.LVL362:
 3121 03de 6FE7     		b	.L311
 3122              	.LVL363:
 3123              	.L355:
 3124              		.loc 1 875 0
 3125 03e0 4046     		mov	r0, r8
 3126 03e2 2DE7     		b	.L266
 3127              	.LVL364:
 3128              	.L342:
 3129              		.loc 1 887 0
 3130 03e4 0A98     		ldr	r0, [sp, #40]
 3131 03e6 37B2     		sxth	r7, r6
 3132 03e8 381A     		subs	r0, r7, r0
 3133 03ea 5045     		cmp	r0, sl
 3134 03ec CBDB     		blt	.L276
 3135              		.loc 1 888 0
 3136 03ee 0B9F     		ldr	r7, [sp, #44]
 3137 03f0 F61B     		subs	r6, r6, r7
 3138              	.LVL365:
 3139 03f2 B6B2     		uxth	r6, r6
 3140              	.LVL366:
 3141 03f4 EBE7     		b	.L312
 3142              	.L360:
 3143 03f6 00BF     		.align	2
 3144              	.L359:
 3145 03f8 00000000 		.word	.LC0
 3146              		.cfi_endproc
 3147              	.LFE136:
 3148              		.size	gdispFillStringBox, .-gdispFillStringBox
 3149 03fc AFF30080 		.section	.text.gdispDrawStringBox,"ax",%progbits
 3150              		.align	2
 3151              		.p2align 4,,15
 3152              		.global	gdispDrawStringBox
 3153              		.thumb
 3154              		.thumb_func
 3155              		.type	gdispDrawStringBox, %function
 3156              	gdispDrawStringBox:
 3157              	.LFB135:
 3158              		.loc 1 689 0
 3159              		.cfi_startproc
 3160              		@ args = 16, pretend = 0, frame = 32
 3161              		@ frame_needed = 0, uses_anonymous_args = 0
 3162              	.LVL367:
 3163 0000 2DE9F04F 		push	{r4, r5, r6, r7, r8, r9, sl, fp, lr}
 3164              	.LCFI29:
ARM GAS  /tmp/ccAUe7jC.s 			page 57


 3165              		.cfi_def_cfa_offset 36
 3166              		.cfi_offset 4, -36
 3167              		.cfi_offset 5, -32
 3168              		.cfi_offset 6, -28
 3169              		.cfi_offset 7, -24
 3170              		.cfi_offset 8, -20
 3171              		.cfi_offset 9, -16
 3172              		.cfi_offset 10, -12
 3173              		.cfi_offset 11, -8
 3174              		.cfi_offset 14, -4
 3175 0004 8BB0     		sub	sp, sp, #44
 3176              	.LCFI30:
 3177              		.cfi_def_cfa_offset 80
 3178              		.loc 1 689 0
 3179 0006 8246     		mov	sl, r0
 3180 0008 159C     		ldr	r4, [sp, #84]
 3181 000a 149E     		ldr	r6, [sp, #80]
 3182              		.loc 1 698 0
 3183 000c 677B     		ldrb	r7, [r4, #13]	@ zero_extendqisi2
 3184 000e 94F80480 		ldrb	r8, [r4, #4]	@ zero_extendqisi2
 3185              		.loc 1 689 0
 3186 0012 0492     		str	r2, [sp, #16]
 3187              		.loc 1 698 0
 3188 0014 08FB07F7 		mul	r7, r8, r7
 3189              		.loc 1 696 0
 3190 0018 8B4A     		ldr	r2, .L456
 3191              	.LVL368:
 3192              		.loc 1 689 0
 3193 001a BDF85850 		ldrh	r5, [sp, #88]
 3194              		.loc 1 699 0
 3195 001e 94F805C0 		ldrb	ip, [r4, #5]	@ zero_extendqisi2
 3196              		.loc 1 689 0
 3197 0022 0395     		str	r5, [sp, #12]
 3198              		.loc 1 702 0
 3199 0024 3FB2     		sxth	r7, r7
 3200              		.loc 1 696 0
 3201 0026 002E     		cmp	r6, #0
 3202 0028 08BF     		it	eq
 3203 002a 1646     		moveq	r6, r2
 3204              	.LVL369:
 3205              		.loc 1 702 0
 3206 002c 9F42     		cmp	r7, r3
 3207              		.loc 1 689 0
 3208 002e 9DF85C50 		ldrb	r5, [sp, #92]	@ zero_extendqisi2
 3209              		.loc 1 699 0
 3210 0032 94F80C90 		ldrb	r9, [r4, #12]	@ zero_extendqisi2
 3211              	.LVL370:
 3212              		.loc 1 689 0
 3213 0036 8B46     		mov	fp, r1
 3214              		.loc 1 702 0
 3215 0038 4BDC     		bgt	.L361
 3216              		.loc 1 705 0
 3217 003a DB1B     		subs	r3, r3, r7
 3218              	.LVL371:
 3219 003c 581C     		adds	r0, r3, #1
 3220              	.LVL372:
 3221 003e 00EBD071 		add	r1, r0, r0, lsr #31
ARM GAS  /tmp/ccAUe7jC.s 			page 58


 3222              	.LVL373:
 3223 0042 4F10     		asrs	r7, r1, #1
 3224              	.LVL374:
 3225              		.loc 1 706 0
 3226 0044 3AB2     		sxth	r2, r7
 3227 0046 002A     		cmp	r2, #0
 3228              		.loc 1 707 0
 3229 0048 C4BF     		itt	gt
 3230 004a 5F44     		addgt	r7, r7, fp
 3231              	.LVL375:
 3232 004c 0FFA87FB 		sxthgt	fp, r7
 3233              	.LVL376:
 3234              		.loc 1 699 0
 3235 0050 0CFB09F8 		mul	r8, ip, r9
 3236              	.LVL377:
 3237              		.loc 1 717 0
 3238 0054 012D     		cmp	r5, #1
 3239              		.loc 1 699 0
 3240 0056 CDF81880 		str	r8, [sp, #24]
 3241 005a 1FFA88F7 		uxth	r7, r8
 3242              	.LVL378:
 3243              		.loc 1 717 0
 3244 005e 3BD0     		beq	.L366
 3245 0060 022D     		cmp	r5, #2
 3246 0062 00F08F80 		beq	.L450
 3247              		.loc 1 779 0
 3248 0066 0AF10105 		add	r5, sl, #1
 3249 006a 3278     		ldrb	r2, [r6, #0]	@ zero_extendqisi2
 3250 006c ADB2     		uxth	r5, r5
 3251              	.LVL379:
 3252              	.L371:
 3253              		.loc 1 794 0 discriminator 1
 3254 006e DDF81080 		ldr	r8, [sp, #16]
 3255 0072 0FFA87FC 		sxth	ip, r7
 3256 0076 C244     		add	sl, sl, r8
 3257 0078 CDF810A0 		str	sl, [sp, #16]
 3258              		.loc 1 797 0 discriminator 1
 3259 007c 4FF00109 		mov	r9, #1
 3260              	.LVL380:
 3261              		.loc 1 794 0 discriminator 1
 3262 0080 CDF814C0 		str	ip, [sp, #20]
 3263 0084 D046     		mov	r8, sl
 3264              		.loc 1 785 0 discriminator 1
 3265 0086 22B3     		cbz	r2, .L361
 3266              	.LVL381:
 3267              	.L393:
 3268              		.loc 1 788 0
 3269 0088 A37A     		ldrb	r3, [r4, #10]	@ zero_extendqisi2
 3270 008a 9342     		cmp	r3, r2
 3271 008c 1DD8     		bhi	.L388
 3272              		.loc 1 788 0 is_stmt 0 discriminator 1
 3273 008e E07A     		ldrb	r0, [r4, #11]	@ zero_extendqisi2
 3274 0090 9042     		cmp	r0, r2
 3275 0092 1AD3     		bcc	.L388
 3276 0094 2169     		ldr	r1, [r4, #16]
 3277 0096 94F80CA0 		ldrb	sl, [r4, #12]	@ zero_extendqisi2
 3278 009a D31A     		subs	r3, r2, r3
ARM GAS  /tmp/ccAUe7jC.s 			page 59


 3279 009c C85C     		ldrb	r0, [r1, r3]	@ zero_extendqisi2
 3280 009e 0AFB00FA 		mul	sl, sl, r0
 3281 00a2 1FFA8AF1 		uxth	r1, sl
 3282              	.LVL382:
 3283              		.loc 1 789 0 is_stmt 1 discriminator 1
 3284 00a6 81B1     		cbz	r1, .L388
 3285              		.loc 1 792 0
 3286 00a8 002F     		cmp	r7, #0
 3287 00aa 58D1     		bne	.L389
 3288 00ac 4346     		mov	r3, r8
 3289              	.LVL383:
 3290              	.L390:
 3291              		.loc 1 801 0
 3292 00ae 28B2     		sxth	r0, r5
 3293 00b0 00FA81F1 		sxtah	r1, r0, r1
 3294 00b4 9942     		cmp	r1, r3
 3295 00b6 0CDC     		bgt	.L361
 3296              		.loc 1 802 0
 3297 00b8 039B     		ldr	r3, [sp, #12]
 3298 00ba 5946     		mov	r1, fp
 3299 00bc 0093     		str	r3, [sp, #0]
 3300 00be 2346     		mov	r3, r4
 3301 00c0 FFF7FEFF 		bl	gdispDrawChar
 3302              	.LVL384:
 3303              		.loc 1 803 0
 3304 00c4 0AEB0502 		add	r2, sl, r5
 3305 00c8 95B2     		uxth	r5, r2
 3306              	.LVL385:
 3307              	.L388:
 3308 00ca 16F8012F 		ldrb	r2, [r6, #1]!	@ zero_extendqisi2
 3309              	.LVL386:
 3310              		.loc 1 785 0 discriminator 1
 3311 00ce 002A     		cmp	r2, #0
 3312 00d0 DAD1     		bne	.L393
 3313              	.LVL387:
 3314              	.L361:
 3315              		.loc 1 805 0
 3316 00d2 0BB0     		add	sp, sp, #44
 3317 00d4 BDE8F08F 		pop	{r4, r5, r6, r7, r8, r9, sl, fp, pc}
 3318              	.LVL388:
 3319              	.L366:
 3320              		.loc 1 720 0
 3321 00d8 3046     		mov	r0, r6
 3322 00da 2146     		mov	r1, r4
 3323 00dc FFF7FEFF 		bl	gdispGetStringWidth
 3324              	.LVL389:
 3325              		.loc 1 721 0
 3326 00e0 DDF810C0 		ldr	ip, [sp, #16]
 3327 00e4 6045     		cmp	r0, ip
 3328 00e6 40F31681 		ble	.L451
 3329              		.loc 1 725 0
 3330 00ea DDF810E0 		ldr	lr, [sp, #16]
 3331 00ee CEEB0002 		rsb	r2, lr, r0
 3332 00f2 02EBD270 		add	r0, r2, r2, lsr #31
 3333              	.LVL390:
 3334 00f6 4210     		asrs	r2, r0, #1
 3335              		.loc 1 727 0
ARM GAS  /tmp/ccAUe7jC.s 			page 60


 3336 00f8 AC46     		mov	ip, r5
 3337              		.loc 1 725 0
 3338 00fa 0592     		str	r2, [sp, #20]
 3339              	.LVL391:
 3340 00fc 3346     		mov	r3, r6
 3341              		.loc 1 726 0
 3342 00fe 0021     		movs	r1, #0
 3343 0100 15B2     		sxth	r5, r2
 3344              	.LVL392:
 3345              	.L435:
 3346 0102 1E46     		mov	r6, r3
 3347              	.LVL393:
 3348 0104 0133     		adds	r3, r3, #1
 3349              	.LVL394:
 3350              		.loc 1 728 0 discriminator 1
 3351 0106 3278     		ldrb	r2, [r6, #0]	@ zero_extendqisi2
 3352              	.LVL395:
 3353 0108 12B3     		cbz	r2, .L375
 3354              		.loc 1 731 0
 3355 010a A07A     		ldrb	r0, [r4, #10]	@ zero_extendqisi2
 3356 010c 8242     		cmp	r2, r0
 3357 010e F8D3     		bcc	.L435
 3358              		.loc 1 731 0 is_stmt 0 discriminator 1
 3359 0110 94F80B80 		ldrb	r8, [r4, #11]	@ zero_extendqisi2
 3360 0114 9045     		cmp	r8, r2
 3361 0116 C0EB0200 		rsb	r0, r0, r2
 3362 011a F2D3     		bcc	.L435
 3363 011c 2269     		ldr	r2, [r4, #16]
 3364 011e 105C     		ldrb	r0, [r2, r0]	@ zero_extendqisi2
 3365 0120 00FB09F2 		mul	r2, r0, r9
 3366              	.LVL396:
 3367              		.loc 1 732 0 is_stmt 1 discriminator 1
 3368 0124 002A     		cmp	r2, #0
 3369 0126 ECD0     		beq	.L435
 3370              		.loc 1 735 0
 3371 0128 5FB1     		cbz	r7, .L374
 3372              		.loc 1 737 0
 3373 012a DDF818E0 		ldr	lr, [sp, #24]
 3374 012e 0EEB0100 		add	r0, lr, r1
 3375              		.loc 1 736 0
 3376 0132 BCF1000F 		cmp	ip, #0
 3377 0136 40F0F780 		bne	.L395
 3378              		.loc 1 737 0
 3379 013a 81B2     		uxth	r1, r0
 3380              	.LVL397:
 3381              		.loc 1 738 0
 3382 013c 08B2     		sxth	r0, r1
 3383              	.LVL398:
 3384 013e 8542     		cmp	r5, r0
 3385 0140 04DB     		blt	.L449
 3386              	.LVL399:
 3387              	.L374:
 3388              		.loc 1 744 0
 3389 0142 5118     		adds	r1, r2, r1
 3390              	.LVL400:
 3391 0144 89B2     		uxth	r1, r1
 3392              	.LVL401:
ARM GAS  /tmp/ccAUe7jC.s 			page 61


 3393              		.loc 1 745 0
 3394 0146 0AB2     		sxth	r2, r1
 3395              	.LVL402:
 3396 0148 9542     		cmp	r5, r2
 3397 014a DADA     		bge	.L435
 3398              	.LVL403:
 3399              	.L449:
 3400 014c 7278     		ldrb	r2, [r6, #1]	@ zero_extendqisi2
 3401              		.loc 1 730 0
 3402 014e 1E46     		mov	r6, r3
 3403              	.LVL404:
 3404              	.L375:
 3405              		.loc 1 747 0
 3406 0150 DDF81490 		ldr	r9, [sp, #20]
 3407 0154 09EB0A03 		add	r3, r9, sl
 3408              	.LVL405:
 3409 0158 5D1A     		subs	r5, r3, r1
 3410 015a ADB2     		uxth	r5, r5
 3411              	.LVL406:
 3412 015c 87E7     		b	.L371
 3413              	.LVL407:
 3414              	.L389:
 3415              		.loc 1 793 0
 3416 015e B9F1000F 		cmp	r9, #0
 3417 0162 03D0     		beq	.L391
 3418 0164 4346     		mov	r3, r8
 3419              		.loc 1 797 0
 3420 0166 4FF00009 		mov	r9, #0
 3421              	.LVL408:
 3422 016a A0E7     		b	.L390
 3423              	.LVL409:
 3424              	.L391:
 3425              		.loc 1 794 0
 3426 016c DDF814C0 		ldr	ip, [sp, #20]
 3427 0170 049B     		ldr	r3, [sp, #16]
 3428 0172 0CFA85F0 		sxtah	r0, ip, r5
 3429 0176 9842     		cmp	r0, r3
 3430 0178 ABDC     		bgt	.L361
 3431              		.loc 1 795 0
 3432 017a DDF818C0 		ldr	ip, [sp, #24]
 3433 017e 6544     		add	r5, ip, r5
 3434 0180 ADB2     		uxth	r5, r5
 3435              	.LVL410:
 3436 0182 94E7     		b	.L390
 3437              	.LVL411:
 3438              	.L450:
 3439              		.loc 1 752 0 discriminator 1
 3440 0184 3378     		ldrb	r3, [r6, #0]	@ zero_extendqisi2
 3441 0186 3046     		mov	r0, r6
 3442 0188 2BB1     		cbz	r3, .L369
 3443              		.loc 1 689 0 discriminator 2
 3444 018a 721C     		adds	r2, r6, #1
 3445              	.L378:
 3446              		.loc 1 752 0 discriminator 2
 3447 018c 1046     		mov	r0, r2
 3448              	.LVL412:
 3449 018e 0132     		adds	r2, r2, #1
ARM GAS  /tmp/ccAUe7jC.s 			page 62


 3450 0190 0178     		ldrb	r1, [r0, #0]	@ zero_extendqisi2
 3451 0192 0029     		cmp	r1, #0
 3452 0194 FAD1     		bne	.L378
 3453              	.LVL413:
 3454              	.L369:
 3455              		.loc 1 753 0
 3456 0196 DDF810C0 		ldr	ip, [sp, #16]
 3457              	.LVL414:
 3458 019a AAF10205 		sub	r5, sl, #2
 3459              		.loc 1 755 0
 3460 019e 431E     		subs	r3, r0, #1
 3461              		.loc 1 753 0
 3462 01a0 05EB0C02 		add	r2, r5, ip
 3463              		.loc 1 755 0
 3464 01a4 9E42     		cmp	r6, r3
 3465              		.loc 1 753 0
 3466 01a6 95B2     		uxth	r5, r2
 3467              	.LVL415:
 3468              		.loc 1 755 0
 3469 01a8 00F2C480 		bhi	.L452
 3470              		.loc 1 757 0
 3471 01ac 1846     		mov	r0, r3
 3472              		.loc 1 689 0
 3473 01ae 013E     		subs	r6, r6, #1
 3474 01b0 F11A     		subs	r1, r6, r3
 3475 01b2 0796     		str	r6, [sp, #28]
 3476              		.loc 1 757 0
 3477 01b4 10F80129 		ldrb	r2, [r0], #-1	@ zero_extendqisi2
 3478              	.LVL416:
 3479 01b8 A67A     		ldrb	r6, [r4, #10]	@ zero_extendqisi2
 3480              	.LVL417:
 3481 01ba 6FEA0108 		mvn	r8, r1
 3482              		.loc 1 764 0
 3483 01be 0FFA87FC 		sxth	ip, r7
 3484              		.loc 1 754 0
 3485 01c2 0121     		movs	r1, #1
 3486              		.loc 1 758 0
 3487 01c4 B242     		cmp	r2, r6
 3488              		.loc 1 754 0
 3489 01c6 0591     		str	r1, [sp, #20]
 3490              		.loc 1 764 0
 3491 01c8 CDF820C0 		str	ip, [sp, #32]
 3492 01cc 08EA0108 		and	r8, r8, r1
 3493              		.loc 1 758 0
 3494 01d0 1CD3     		bcc	.L407
 3495 01d2 E17A     		ldrb	r1, [r4, #11]	@ zero_extendqisi2
 3496 01d4 9142     		cmp	r1, r2
 3497 01d6 19D3     		bcc	.L407
 3498 01d8 C6EB020C 		rsb	ip, r6, r2
 3499 01dc 2169     		ldr	r1, [r4, #16]
 3500 01de 11F80C10 		ldrb	r1, [r1, ip]	@ zero_extendqisi2
 3501 01e2 01FB09F1 		mul	r1, r1, r9
 3502 01e6 0991     		str	r1, [sp, #36]
 3503 01e8 89B2     		uxth	r1, r1
 3504              		.loc 1 759 0
 3505 01ea 79B1     		cbz	r1, .L407
 3506              		.loc 1 771 0
ARM GAS  /tmp/ccAUe7jC.s 			page 63


 3507 01ec 09B2     		sxth	r1, r1
 3508 01ee 0FFA85FC 		sxth	ip, r5
 3509 01f2 C1EB0C0C 		rsb	ip, r1, ip
 3510              		.loc 1 767 0
 3511 01f6 0599     		ldr	r1, [sp, #20]
 3512 01f8 002F     		cmp	r7, #0
 3513 01fa 18BF     		it	ne
 3514 01fc 0021     		movne	r1, #0
 3515              		.loc 1 771 0
 3516 01fe D445     		cmp	ip, sl
 3517              		.loc 1 767 0
 3518 0200 0591     		str	r1, [sp, #20]
 3519              	.LVL418:
 3520              		.loc 1 771 0
 3521 0202 C0F29C80 		blt	.L439
 3522              		.loc 1 772 0
 3523 0206 099B     		ldr	r3, [sp, #36]
 3524              	.LVL419:
 3525 0208 ED1A     		subs	r5, r5, r3
 3526              	.LVL420:
 3527 020a ADB2     		uxth	r5, r5
 3528              	.LVL421:
 3529              	.L407:
 3530              		.loc 1 755 0
 3531 020c DDF81CC0 		ldr	ip, [sp, #28]
 3532 0210 6045     		cmp	r0, ip
 3533 0212 0346     		mov	r3, r0
 3534 0214 00F08F80 		beq	.L380
 3535 0218 B8F1000F 		cmp	r8, #0
 3536 021c 0CD0     		beq	.L446
 3537              		.loc 1 757 0
 3538 021e 10F80129 		ldrb	r2, [r0], #-1	@ zero_extendqisi2
 3539              	.LVL422:
 3540              		.loc 1 758 0
 3541 0222 B242     		cmp	r2, r6
 3542 0224 03D3     		bcc	.L413
 3543 0226 E17A     		ldrb	r1, [r4, #11]	@ zero_extendqisi2
 3544 0228 9142     		cmp	r1, r2
 3545 022a 80F08F80 		bcs	.L453
 3546              	.LVL423:
 3547              	.L413:
 3548              		.loc 1 755 0
 3549 022e DDF81C80 		ldr	r8, [sp, #28]
 3550 0232 4045     		cmp	r0, r8
 3551 0234 0346     		mov	r3, r0
 3552 0236 7ED0     		beq	.L380
 3553              	.LVL424:
 3554              	.L446:
 3555 0238 DDF81CC0 		ldr	ip, [sp, #28]
 3556 023c CDF80890 		str	r9, [sp, #8]
 3557 0240 CDF81CB0 		str	fp, [sp, #28]
 3558 0244 42E0     		b	.L387
 3559              	.L457:
 3560 0246 00BF     		.align	2
 3561              	.L456:
 3562 0248 00000000 		.word	.LC0
 3563              	.LVL425:
ARM GAS  /tmp/ccAUe7jC.s 			page 64


 3564              	.L455:
 3565              		.loc 1 767 0
 3566 024c 0020     		movs	r0, #0
 3567 024e 0590     		str	r0, [sp, #20]
 3568              	.L383:
 3569              	.LVL426:
 3570              		.loc 1 771 0
 3571 0250 28B2     		sxth	r0, r5
 3572 0252 12B2     		sxth	r2, r2
 3573 0254 801A     		subs	r0, r0, r2
 3574 0256 5045     		cmp	r0, sl
 3575 0258 6FDB     		blt	.L447
 3576              		.loc 1 772 0
 3577 025a C8EB0503 		rsb	r3, r8, r5
 3578 025e 9DB2     		uxth	r5, r3
 3579              	.LVL427:
 3580              	.L381:
 3581              		.loc 1 757 0
 3582 0260 0A78     		ldrb	r2, [r1, #0]	@ zero_extendqisi2
 3583              	.LVL428:
 3584 0262 481E     		subs	r0, r1, #1
 3585              		.loc 1 758 0
 3586 0264 B242     		cmp	r2, r6
 3587 0266 0B46     		mov	r3, r1
 3588 0268 2DD3     		bcc	.L420
 3589 026a E17A     		ldrb	r1, [r4, #11]	@ zero_extendqisi2
 3590              	.LVL429:
 3591 026c 9142     		cmp	r1, r2
 3592 026e 2AD3     		bcc	.L420
 3593 0270 2169     		ldr	r1, [r4, #16]
 3594 0272 DDF80890 		ldr	r9, [sp, #8]
 3595 0276 C6EB0208 		rsb	r8, r6, r2
 3596 027a 11F808B0 		ldrb	fp, [r1, r8]	@ zero_extendqisi2
 3597 027e 0BFB09FB 		mul	fp, fp, r9
 3598 0282 1FFA8BF1 		uxth	r1, fp
 3599 0286 0991     		str	r1, [sp, #36]
 3600              		.loc 1 759 0
 3601 0288 E9B1     		cbz	r1, .L420
 3602              		.loc 1 762 0
 3603 028a 7FB1     		cbz	r7, .L444
 3604              		.loc 1 763 0
 3605 028c 0599     		ldr	r1, [sp, #20]
 3606 028e 0029     		cmp	r1, #0
 3607 0290 4DD1     		bne	.L443
 3608              		.loc 1 764 0
 3609 0292 DDF82090 		ldr	r9, [sp, #32]
 3610 0296 0FFA85F8 		sxth	r8, r5
 3611 029a C9EB0801 		rsb	r1, r9, r8
 3612 029e 5145     		cmp	r1, sl
 3613 02a0 4BDB     		blt	.L447
 3614              		.loc 1 765 0
 3615 02a2 DDF81880 		ldr	r8, [sp, #24]
 3616 02a6 C8EB0505 		rsb	r5, r8, r5
 3617              	.LVL430:
 3618 02aa ADB2     		uxth	r5, r5
 3619              	.LVL431:
 3620              	.L444:
ARM GAS  /tmp/ccAUe7jC.s 			page 65


 3621              		.loc 1 771 0
 3622 02ac DDF82490 		ldr	r9, [sp, #36]
 3623 02b0 0FFA85F8 		sxth	r8, r5
 3624 02b4 0FFA89F1 		sxth	r1, r9
 3625 02b8 C1EB0801 		rsb	r1, r1, r8
 3626 02bc 5145     		cmp	r1, sl
 3627 02be 3CDB     		blt	.L447
 3628              		.loc 1 772 0
 3629 02c0 CBEB0503 		rsb	r3, fp, r5
 3630              	.LVL432:
 3631 02c4 9DB2     		uxth	r5, r3
 3632              	.LVL433:
 3633              	.L420:
 3634              		.loc 1 755 0
 3635 02c6 6045     		cmp	r0, ip
 3636 02c8 0346     		mov	r3, r0
 3637 02ca 3BD0     		beq	.L454
 3638              	.LVL434:
 3639              	.L387:
 3640              		.loc 1 757 0
 3641 02cc 0278     		ldrb	r2, [r0, #0]	@ zero_extendqisi2
 3642 02ce 411E     		subs	r1, r0, #1
 3643              		.loc 1 758 0
 3644 02d0 B242     		cmp	r2, r6
 3645 02d2 0346     		mov	r3, r0
 3646 02d4 C4D3     		bcc	.L381
 3647              		.loc 1 758 0 is_stmt 0 discriminator 1
 3648 02d6 E07A     		ldrb	r0, [r4, #11]	@ zero_extendqisi2
 3649 02d8 9042     		cmp	r0, r2
 3650 02da C1D3     		bcc	.L381
 3651 02dc 901B     		subs	r0, r2, r6
 3652 02de 2269     		ldr	r2, [r4, #16]
 3653 02e0 12F80090 		ldrb	r9, [r2, r0]	@ zero_extendqisi2
 3654 02e4 0298     		ldr	r0, [sp, #8]
 3655 02e6 09FB00F8 		mul	r8, r9, r0
 3656 02ea 1FFA88F2 		uxth	r2, r8
 3657              	.LVL435:
 3658              		.loc 1 759 0 is_stmt 1 discriminator 1
 3659 02ee 002A     		cmp	r2, #0
 3660 02f0 B6D0     		beq	.L381
 3661              		.loc 1 762 0
 3662 02f2 002F     		cmp	r7, #0
 3663 02f4 ACD0     		beq	.L383
 3664              		.loc 1 763 0
 3665 02f6 0598     		ldr	r0, [sp, #20]
 3666 02f8 0028     		cmp	r0, #0
 3667 02fa A7D1     		bne	.L455
 3668              		.loc 1 764 0
 3669 02fc DDF820B0 		ldr	fp, [sp, #32]
 3670 0300 28B2     		sxth	r0, r5
 3671 0302 CBEB0000 		rsb	r0, fp, r0
 3672 0306 5045     		cmp	r0, sl
 3673 0308 17DB     		blt	.L447
 3674              		.loc 1 765 0
 3675 030a DDF81890 		ldr	r9, [sp, #24]
 3676 030e C9EB0505 		rsb	r5, r9, r5
 3677 0312 ADB2     		uxth	r5, r5
ARM GAS  /tmp/ccAUe7jC.s 			page 66


 3678              	.LVL436:
 3679 0314 9CE7     		b	.L383
 3680              	.LVL437:
 3681              	.L451:
 3682              		.loc 1 722 0
 3683 0316 C0EB0C00 		rsb	r0, r0, ip
 3684              	.LVL438:
 3685 031a 00EBD071 		add	r1, r0, r0, lsr #31
 3686 031e 0AEB6102 		add	r2, sl, r1, asr #1
 3687 0322 95B2     		uxth	r5, r2
 3688              	.LVL439:
 3689 0324 3278     		ldrb	r2, [r6, #0]	@ zero_extendqisi2
 3690              	.LVL440:
 3691 0326 A2E6     		b	.L371
 3692              	.LVL441:
 3693              	.L395:
 3694              		.loc 1 740 0
 3695 0328 4FF0000C 		mov	ip, #0
 3696              	.LVL442:
 3697 032c 09E7     		b	.L374
 3698              	.LVL443:
 3699              	.L443:
 3700              		.loc 1 767 0
 3701 032e 0021     		movs	r1, #0
 3702              	.LVL444:
 3703 0330 0591     		str	r1, [sp, #20]
 3704 0332 BBE7     		b	.L444
 3705              	.LVL445:
 3706              	.L452:
 3707 0334 0278     		ldrb	r2, [r0, #0]	@ zero_extendqisi2
 3708              	.LVL446:
 3709              	.L380:
 3710              		.loc 1 774 0
 3711 0336 5E1C     		adds	r6, r3, #1
 3712              		.loc 1 775 0
 3713 0338 99E6     		b	.L371
 3714              	.LVL447:
 3715              	.L447:
 3716 033a DDF81CB0 		ldr	fp, [sp, #28]
 3717              	.LVL448:
 3718              	.L439:
 3719 033e 5A78     		ldrb	r2, [r3, #1]	@ zero_extendqisi2
 3720              	.LVL449:
 3721              		.loc 1 774 0
 3722 0340 5E1C     		adds	r6, r3, #1
 3723 0342 94E6     		b	.L371
 3724              	.LVL450:
 3725              	.L454:
 3726 0344 DDF81CB0 		ldr	fp, [sp, #28]
 3727 0348 5E1C     		adds	r6, r3, #1
 3728 034a 90E6     		b	.L371
 3729              	.LVL451:
 3730              	.L453:
 3731              		.loc 1 758 0
 3732 034c C6EB0208 		rsb	r8, r6, r2
 3733 0350 2169     		ldr	r1, [r4, #16]
 3734 0352 11F80810 		ldrb	r1, [r1, r8]	@ zero_extendqisi2
ARM GAS  /tmp/ccAUe7jC.s 			page 67


 3735 0356 01FB09F1 		mul	r1, r1, r9
 3736 035a 0291     		str	r1, [sp, #8]
 3737 035c 89B2     		uxth	r1, r1
 3738 035e 0991     		str	r1, [sp, #36]
 3739              		.loc 1 759 0
 3740 0360 0029     		cmp	r1, #0
 3741 0362 3FF464AF 		beq	.L413
 3742              		.loc 1 762 0
 3743 0366 77B1     		cbz	r7, .L442
 3744              		.loc 1 763 0
 3745 0368 0599     		ldr	r1, [sp, #20]
 3746 036a E1B9     		cbnz	r1, .L440
 3747              		.loc 1 764 0
 3748 036c DDF82080 		ldr	r8, [sp, #32]
 3749 0370 0FFA85FC 		sxth	ip, r5
 3750 0374 C8EB0C01 		rsb	r1, r8, ip
 3751 0378 5145     		cmp	r1, sl
 3752 037a E0DB     		blt	.L439
 3753              		.loc 1 765 0
 3754 037c DDF818C0 		ldr	ip, [sp, #24]
 3755 0380 CCEB0505 		rsb	r5, ip, r5
 3756              	.LVL452:
 3757 0384 ADB2     		uxth	r5, r5
 3758              	.LVL453:
 3759              	.L442:
 3760              		.loc 1 771 0
 3761 0386 DDF82480 		ldr	r8, [sp, #36]
 3762 038a 0FFA85FC 		sxth	ip, r5
 3763 038e 0FFA88F1 		sxth	r1, r8
 3764 0392 C1EB0C01 		rsb	r1, r1, ip
 3765 0396 5145     		cmp	r1, sl
 3766 0398 D1DB     		blt	.L439
 3767              		.loc 1 772 0
 3768 039a DDF808C0 		ldr	ip, [sp, #8]
 3769 039e CCEB0503 		rsb	r3, ip, r5
 3770              	.LVL454:
 3771 03a2 9DB2     		uxth	r5, r3
 3772              	.LVL455:
 3773 03a4 43E7     		b	.L413
 3774              	.LVL456:
 3775              	.L440:
 3776              		.loc 1 767 0
 3777 03a6 0021     		movs	r1, #0
 3778 03a8 0591     		str	r1, [sp, #20]
 3779 03aa ECE7     		b	.L442
 3780              		.cfi_endproc
 3781              	.LFE135:
 3782              		.size	gdispDrawStringBox, .-gdispDrawStringBox
 3783 03ac AFF30080 		.section	.text.gdispBlendColor,"ax",%progbits
 3784              		.align	2
 3785              		.p2align 4,,15
 3786              		.global	gdispBlendColor
 3787              		.thumb
 3788              		.thumb_func
 3789              		.type	gdispBlendColor, %function
 3790              	gdispBlendColor:
 3791              	.LFB140:
ARM GAS  /tmp/ccAUe7jC.s 			page 68


 3792              		.loc 1 994 0
 3793              		.cfi_startproc
 3794              		@ args = 0, pretend = 0, frame = 0
 3795              		@ frame_needed = 0, uses_anonymous_args = 0
 3796              		@ link register save eliminated.
 3797              	.LVL457:
 3798 0000 F0B4     		push	{r4, r5, r6, r7}
 3799              	.LCFI31:
 3800              		.cfi_def_cfa_offset 16
 3801              		.cfi_offset 4, -16
 3802              		.cfi_offset 5, -12
 3803              		.cfi_offset 6, -8
 3804              		.cfi_offset 7, -4
 3805              		.loc 1 1000 0
 3806 0002 00F4FC67 		and	r7, r0, #2016
 3807              		.loc 1 995 0
 3808 0006 531C     		adds	r3, r2, #1
 3809              	.LVL458:
 3810              		.loc 1 1000 0
 3811 0008 FC10     		asrs	r4, r7, #3
 3812              		.loc 1 1004 0
 3813 000a 01F4FC6C 		and	ip, r1, #2016
 3814              		.loc 1 999 0
 3815 000e 00F47845 		and	r5, r0, #63488
 3816              		.loc 1 996 0
 3817 0012 C2F58072 		rsb	r2, r2, #256
 3818              	.LVL459:
 3819              		.loc 1 1000 0
 3820 0016 04FB03F7 		mul	r7, r4, r3
 3821              		.loc 1 996 0
 3822 001a 92B2     		uxth	r2, r2
 3823              	.LVL460:
 3824              		.loc 1 1001 0
 3825 001c C600     		lsls	r6, r0, #3
 3826              		.loc 1 999 0
 3827 001e 2D12     		asrs	r5, r5, #8
 3828              		.loc 1 1003 0
 3829 0020 01F47844 		and	r4, r1, #63488
 3830              		.loc 1 1004 0
 3831 0024 4FEAEC00 		asr	r0, ip, #3
 3832              	.LVL461:
 3833              		.loc 1 999 0
 3834 0028 05FB03F5 		mul	r5, r5, r3
 3835              	.LVL462:
 3836              		.loc 1 1004 0
 3837 002c 00FB0270 		mla	r0, r0, r2, r7
 3838              		.loc 1 1001 0
 3839 0030 F6B2     		uxtb	r6, r6
 3840              		.loc 1 1003 0
 3841 0032 2412     		asrs	r4, r4, #8
 3842              		.loc 1 1005 0
 3843 0034 C900     		lsls	r1, r1, #3
 3844              	.LVL463:
 3845              		.loc 1 1001 0
 3846 0036 06FB03F3 		mul	r3, r6, r3
 3847              	.LVL464:
 3848              		.loc 1 1003 0
ARM GAS  /tmp/ccAUe7jC.s 			page 69


 3849 003a 04FB0254 		mla	r4, r4, r2, r5
 3850              	.LVL465:
 3851              		.loc 1 1005 0
 3852 003e C9B2     		uxtb	r1, r1
 3853              		.loc 1 1011 0
 3854 0040 4009     		lsrs	r0, r0, #5
 3855              	.LVL466:
 3856              		.loc 1 1005 0
 3857 0042 01FB0232 		mla	r2, r1, r2, r3
 3858              	.LVL467:
 3859              		.loc 1 1011 0
 3860 0046 00F4FC60 		and	r0, r0, #2016
 3861 004a 04F47843 		and	r3, r4, #63488
 3862 004e 1843     		orrs	r0, r0, r3
 3863 0050 C2F3C421 		ubfx	r1, r2, #11, #5
 3864              		.loc 1 1012 0
 3865 0054 0843     		orrs	r0, r0, r1
 3866 0056 F0BC     		pop	{r4, r5, r6, r7}
 3867 0058 7047     		bx	lr
 3868              		.cfi_endproc
 3869              	.LFE140:
 3870              		.size	gdispBlendColor, .-gdispBlendColor
 3871 005a 00BFAFF3 		.section	.rodata.str1.4,"aMS",%progbits,1
 3871      0080
 3872              		.align	2
 3873              	.LC0:
 3874 0000 00       		.ascii	"\000"
 3875 0001 000000   		.section	.bss.gdispMutex,"aw",%nobits
 3876              		.align	2
 3877              		.set	.LANCHOR0,. + 0
 3878              		.type	gdispMutex, %object
 3879              		.size	gdispMutex, 16
 3880              	gdispMutex:
 3881 0000 00000000 		.space	16
 3881      00000000 
 3881      00000000 
 3881      00000000 
 3882              		.text
 3883              	.Letext0:
 3884              		.file 2 "/usr/bin/../lib/gcc/arm-none-eabi/4.7.4/../../../../arm-none-eabi/include/stdint.h"
 3885              		.file 3 "../../os/ports/GCC/ARMCMx/chtypes.h"
 3886              		.file 4 "../../os/kernel/include/chlists.h"
 3887              		.file 5 "../../os/kernel/include/chthreads.h"
 3888              		.file 6 "../../os/ports/GCC/ARMCMx/chcore_v7m.h"
 3889              		.file 7 "../../os/kernel/include/chmtx.h"
 3890              		.file 8 "../../ext/ugfx/include/gos/chibios.h"
 3891              		.file 9 "../../ext/ugfx/include/gmisc/gmisc.h"
 3892              		.file 10 "../../ext/ugfx/include/gdisp/gdisp.h"
 3893              		.file 11 "../../ext/ugfx/include/gdisp/fonts.h"
 3894              		.file 12 "../../ext/ugfx/include/gdisp/lld/gdisp_lld.h"
 3895              		.file 13 "../../os/ports/common/ARMCMx/CMSIS/include/core_cm4.h"