ARM GAS  /tmp/ccVSZ1f1.s 			page 1


   1              		.syntax unified
   2              		.cpu cortex-m4
   3              		.eabi_attribute 27, 3
   4              		.eabi_attribute 28, 1
   5              		.fpu fpv4-sp-d16
   6              		.eabi_attribute 20, 1
   7              		.eabi_attribute 21, 1
   8              		.eabi_attribute 23, 3
   9              		.eabi_attribute 24, 1
  10              		.eabi_attribute 25, 1
  11              		.eabi_attribute 26, 1
  12              		.eabi_attribute 30, 2
  13              		.eabi_attribute 34, 1
  14              		.eabi_attribute 18, 4
  15              		.thumb
  16              		.file	"gevent.c"
  17              		.text
  18              	.Ltext0:
  19              		.cfi_sections	.debug_frame
  20              		.section	.text.deleteAssignments,"ax",%progbits
  21              		.align	2
  22              		.p2align 4,,15
  23              		.thumb
  24              		.thumb_func
  25              		.type	deleteAssignments, %function
  26              	deleteAssignments:
  27              	.LFB118:
  28              		.file 1 "../../ext/ugfx/src/gevent/gevent.c"
  29              		.loc 1 33 0
  30              		.cfi_startproc
  31              		@ args = 0, pretend = 0, frame = 8
  32              		@ frame_needed = 0, uses_anonymous_args = 0
  33              	.LVL0:
  34 0000 2DE9F043 		push	{r4, r5, r6, r7, r8, r9, lr}
  35              	.LCFI0:
  36              		.cfi_def_cfa_offset 28
  37              		.cfi_offset 4, -28
  38              		.cfi_offset 5, -24
  39              		.cfi_offset 6, -20
  40              		.cfi_offset 7, -16
  41              		.cfi_offset 8, -12
  42              		.cfi_offset 9, -8
  43              		.cfi_offset 14, -4
  44 0004 484C     		ldr	r4, .L38
  45 0006 83B0     		sub	sp, sp, #12
  46              	.LCFI1:
  47              		.cfi_def_cfa_offset 40
  48              		.loc 1 37 0
  49 0008 0546     		mov	r5, r0
  50              		.loc 1 33 0
  51 000a 0A46     		mov	r2, r1
  52 000c 04F5F877 		add	r7, r4, #496
  53              		.loc 1 44 0
  54 0010 4FF00008 		mov	r8, #0
  55              		.loc 1 40 0
  56 0014 4FF00109 		mov	r9, #1
  57              		.loc 1 37 0
ARM GAS  /tmp/ccVSZ1f1.s 			page 2


  58 0018 0028     		cmp	r0, #0
  59 001a 38D0     		beq	.L12
  60 001c 54F8103C 		ldr	r3, [r4, #-16]
  61 0020 8342     		cmp	r3, r0
  62 0022 34D0     		beq	.L12
  63              	.LVL1:
  64              	.L15:
  65              		.loc 1 36 0
  66 0024 BC42     		cmp	r4, r7
  67 0026 22D2     		bcs	.L32
  68 0028 404C     		ldr	r4, .L38+4
  69              		.loc 1 37 0
  70 002a 85B1     		cbz	r5, .L2
  71              	.L36:
  72              		.loc 1 37 0 is_stmt 0 discriminator 2
  73 002c 54F8106C 		ldr	r6, [r4, #-16]
  74 0030 AE42     		cmp	r6, r5
  75 0032 0CD0     		beq	.L2
  76              	.L3:
  77              		.loc 1 36 0 is_stmt 1
  78 0034 BC42     		cmp	r4, r7
  79 0036 04F11006 		add	r6, r4, #16
  80 003a 18D2     		bcs	.L32
  81              	.L7:
  82              		.loc 1 37 0
  83 003c D5B1     		cbz	r5, .L17
  84 003e 56F8104C 		ldr	r4, [r6, #-16]
  85 0042 AC42     		cmp	r4, r5
  86 0044 16D0     		beq	.L17
  87              	.L20:
  88              		.loc 1 36 0
  89 0046 06F11004 		add	r4, r6, #16
  90              		.loc 1 37 0
  91 004a 002D     		cmp	r5, #0
  92 004c EED1     		bne	.L36
  93              	.L2:
  94              		.loc 1 37 0 is_stmt 0 discriminator 1
  95 004e 1AB1     		cbz	r2, .L4
  96 0050 54F80C3C 		ldr	r3, [r4, #-12]
  97 0054 9342     		cmp	r3, r2
  98 0056 EDD1     		bne	.L3
  99              	.L4:
 100              		.loc 1 38 0 is_stmt 1
 101 0058 54F8100C 		ldr	r0, [r4, #-16]
 102 005c 8168     		ldr	r1, [r0, #8]
 103 005e 0029     		cmp	r1, #0
 104 0060 22DB     		blt	.L37
 105              	.L5:
 106              		.loc 1 36 0
 107 0062 BC42     		cmp	r4, r7
 108              		.loc 1 44 0
 109 0064 44F8108C 		str	r8, [r4, #-16]
 110 0068 04F11006 		add	r6, r4, #16
 111              		.loc 1 36 0
 112 006c E6D3     		bcc	.L7
 113              	.L32:
 114              		.loc 1 47 0
ARM GAS  /tmp/ccVSZ1f1.s 			page 3


 115 006e 03B0     		add	sp, sp, #12
 116 0070 BDE8F083 		pop	{r4, r5, r6, r7, r8, r9, pc}
 117              	.L17:
 118              		.loc 1 37 0
 119 0074 1AB1     		cbz	r2, .L18
 120 0076 56F80C3C 		ldr	r3, [r6, #-12]
 121 007a 9342     		cmp	r3, r2
 122 007c E3D1     		bne	.L20
 123              	.L18:
 124              		.loc 1 38 0
 125 007e 56F8100C 		ldr	r0, [r6, #-16]
 126 0082 8168     		ldr	r1, [r0, #8]
 127 0084 0029     		cmp	r1, #0
 128 0086 24DB     		blt	.L34
 129              	.L19:
 130              		.loc 1 44 0
 131 0088 46F8108C 		str	r8, [r6, #-16]
 132 008c DBE7     		b	.L20
 133              	.LVL2:
 134              	.L12:
 135              		.loc 1 37 0
 136 008e 1AB1     		cbz	r2, .L13
 137 0090 54F80C0C 		ldr	r0, [r4, #-12]
 138              	.LVL3:
 139 0094 9042     		cmp	r0, r2
 140 0096 C5D1     		bne	.L15
 141              	.L13:
 142              		.loc 1 38 0
 143 0098 54F8100C 		ldr	r0, [r4, #-16]
 144 009c 8168     		ldr	r1, [r0, #8]
 145              	.LVL4:
 146 009e 0029     		cmp	r1, #0
 147 00a0 2CDB     		blt	.L31
 148              	.LVL5:
 149              	.L14:
 150              		.loc 1 44 0
 151 00a2 44F8108C 		str	r8, [r4, #-16]
 152 00a6 BDE7     		b	.L15
 153              	.LVL6:
 154              	.L37:
 155              		.loc 1 39 0
 156 00a8 4FF0FF31 		mov	r1, #-1
 157 00ac 1030     		adds	r0, r0, #16
 158 00ae 0192     		str	r2, [sp, #4]
 159 00b0 FFF7FEFF 		bl	gfxSemWait
 160              	.LVL7:
 161              		.loc 1 40 0
 162 00b4 54F8100C 		ldr	r0, [r4, #-16]
 163 00b8 A0F82890 		strh	r9, [r0, #40]	@ movhi
 164              		.loc 1 41 0
 165 00bc 54F8100C 		ldr	r0, [r4, #-16]
 166 00c0 FFF7FEFF 		bl	gfxSemSignal
 167              	.LVL8:
 168              		.loc 1 42 0
 169 00c4 54F8100C 		ldr	r0, [r4, #-16]
 170 00c8 1030     		adds	r0, r0, #16
 171 00ca FFF7FEFF 		bl	gfxSemSignal
ARM GAS  /tmp/ccVSZ1f1.s 			page 4


 172              	.LVL9:
 173 00ce 019A     		ldr	r2, [sp, #4]
 174 00d0 C7E7     		b	.L5
 175              	.L34:
 176              		.loc 1 39 0
 177 00d2 4FF0FF31 		mov	r1, #-1
 178 00d6 1030     		adds	r0, r0, #16
 179 00d8 0192     		str	r2, [sp, #4]
 180 00da FFF7FEFF 		bl	gfxSemWait
 181              	.LVL10:
 182              		.loc 1 40 0
 183 00de 56F8102C 		ldr	r2, [r6, #-16]
 184 00e2 A2F82890 		strh	r9, [r2, #40]	@ movhi
 185              		.loc 1 41 0
 186 00e6 56F8100C 		ldr	r0, [r6, #-16]
 187 00ea FFF7FEFF 		bl	gfxSemSignal
 188              	.LVL11:
 189              		.loc 1 42 0
 190 00ee 56F8100C 		ldr	r0, [r6, #-16]
 191 00f2 1030     		adds	r0, r0, #16
 192 00f4 FFF7FEFF 		bl	gfxSemSignal
 193              	.LVL12:
 194 00f8 019A     		ldr	r2, [sp, #4]
 195 00fa C5E7     		b	.L19
 196              	.LVL13:
 197              	.L31:
 198              		.loc 1 39 0
 199 00fc 4FF0FF31 		mov	r1, #-1
 200 0100 1030     		adds	r0, r0, #16
 201 0102 0192     		str	r2, [sp, #4]
 202 0104 FFF7FEFF 		bl	gfxSemWait
 203              	.LVL14:
 204              		.loc 1 40 0
 205 0108 54F8102C 		ldr	r2, [r4, #-16]
 206 010c A2F82890 		strh	r9, [r2, #40]	@ movhi
 207              		.loc 1 41 0
 208 0110 54F8100C 		ldr	r0, [r4, #-16]
 209 0114 FFF7FEFF 		bl	gfxSemSignal
 210              	.LVL15:
 211              		.loc 1 42 0
 212 0118 54F8100C 		ldr	r0, [r4, #-16]
 213 011c 1030     		adds	r0, r0, #16
 214 011e FFF7FEFF 		bl	gfxSemSignal
 215              	.LVL16:
 216 0122 019A     		ldr	r2, [sp, #4]
 217 0124 BDE7     		b	.L14
 218              	.L39:
 219 0126 00BF     		.align	2
 220              	.L38:
 221 0128 10000000 		.word	.LANCHOR0+16
 222 012c 20000000 		.word	.LANCHOR0+32
 223              		.cfi_endproc
 224              	.LFE118:
 225              		.size	deleteAssignments, .-deleteAssignments
 226              		.section	.text._geventInit,"ax",%progbits
 227              		.align	2
 228              		.p2align 4,,15
ARM GAS  /tmp/ccVSZ1f1.s 			page 5


 229              		.global	_geventInit
 230              		.thumb
 231              		.thumb_func
 232              		.type	_geventInit, %function
 233              	_geventInit:
 234              	.LFB119:
 235              		.loc 1 49 0
 236              		.cfi_startproc
 237              		@ args = 0, pretend = 0, frame = 0
 238              		@ frame_needed = 0, uses_anonymous_args = 0
 239              		@ link register save eliminated.
 240              		.loc 1 50 0
 241 0000 40F20000 		movw	r0, #:lower16:.LANCHOR1
 242 0004 C0F20000 		movt	r0, #:upper16:.LANCHOR1
 243              		.loc 1 51 0
 244              		.loc 1 50 0
 245 0008 FFF7FEBF 		b	chMtxInit
 246              	.LVL17:
 247              		.cfi_endproc
 248              	.LFE119:
 249              		.size	_geventInit, .-_geventInit
 250 000c AFF30080 		.section	.text.geventListenerInit,"ax",%progbits
 251              		.align	2
 252              		.p2align 4,,15
 253              		.global	geventListenerInit
 254              		.thumb
 255              		.thumb_func
 256              		.type	geventListenerInit, %function
 257              	geventListenerInit:
 258              	.LFB120:
 259              		.loc 1 53 0
 260              		.cfi_startproc
 261              		@ args = 0, pretend = 0, frame = 0
 262              		@ frame_needed = 0, uses_anonymous_args = 0
 263              	.LVL18:
 264 0000 10B5     		push	{r4, lr}
 265              	.LCFI2:
 266              		.cfi_def_cfa_offset 8
 267              		.cfi_offset 4, -8
 268              		.cfi_offset 14, -4
 269              		.loc 1 54 0
 270 0002 0021     		movs	r1, #0
 271 0004 6FF00042 		mvn	r2, #-2147483648
 272              		.loc 1 53 0
 273 0008 0446     		mov	r4, r0
 274              		.loc 1 54 0
 275 000a FFF7FEFF 		bl	gfxSemInit
 276              	.LVL19:
 277              		.loc 1 55 0
 278 000e 0121     		movs	r1, #1
 279 0010 04F11000 		add	r0, r4, #16
 280 0014 0A46     		mov	r2, r1
 281 0016 FFF7FEFF 		bl	gfxSemInit
 282              	.LVL20:
 283              		.loc 1 56 0
 284 001a 0023     		movs	r3, #0
 285 001c 2362     		str	r3, [r4, #32]
ARM GAS  /tmp/ccVSZ1f1.s 			page 6


 286              		.loc 1 57 0
 287 001e 2385     		strh	r3, [r4, #40]	@ movhi
 288 0020 10BD     		pop	{r4, pc}
 289              		.cfi_endproc
 290              	.LFE120:
 291              		.size	geventListenerInit, .-geventListenerInit
 292 0022 00BFAFF3 		.section	.text.geventAttachSource,"ax",%progbits
 292      0080AFF3 
 292      0080AFF3 
 292      0080
 293              		.align	2
 294              		.p2align 4,,15
 295              		.global	geventAttachSource
 296              		.thumb
 297              		.thumb_func
 298              		.type	geventAttachSource, %function
 299              	geventAttachSource:
 300              	.LFB121:
 301              		.loc 1 60 0
 302              		.cfi_startproc
 303              		@ args = 0, pretend = 0, frame = 0
 304              		@ frame_needed = 0, uses_anonymous_args = 0
 305              	.LVL21:
 306 0000 2DE9F843 		push	{r3, r4, r5, r6, r7, r8, r9, lr}
 307              	.LCFI3:
 308              		.cfi_def_cfa_offset 32
 309              		.cfi_offset 3, -32
 310              		.cfi_offset 4, -28
 311              		.cfi_offset 5, -24
 312              		.cfi_offset 6, -20
 313              		.cfi_offset 7, -16
 314              		.cfi_offset 8, -12
 315              		.cfi_offset 9, -8
 316              		.cfi_offset 14, -4
 317              		.loc 1 64 0
 318 0004 0746     		mov	r7, r0
 319              		.loc 1 60 0
 320 0006 8946     		mov	r9, r1
 321 0008 9046     		mov	r8, r2
 322              		.loc 1 64 0
 323 000a 0028     		cmp	r0, #0
 324 000c 00F08680 		beq	.L50
 325              		.loc 1 64 0 is_stmt 0 discriminator 1
 326 0010 0029     		cmp	r1, #0
 327 0012 64D0     		beq	.L51
 328              		.loc 1 69 0 is_stmt 1
 329 0014 4548     		ldr	r0, .L95
 330              	.LVL22:
 331 0016 FFF7FEFF 		bl	chMtxLock
 332              	.LVL23:
 333              		.loc 1 60 0
 334 001a 454B     		ldr	r3, .L95+4
 335              		.loc 1 75 0
 336 001c 53F8102C 		ldr	r2, [r3, #-16]
 337 0020 BA42     		cmp	r2, r7
 338              		.loc 1 73 0
 339 0022 A3F11004 		sub	r4, r3, #16
ARM GAS  /tmp/ccVSZ1f1.s 			page 7


 340 0026 03F5F871 		add	r1, r3, #496
 341              		.loc 1 75 0
 342 002a 5BD0     		beq	.L88
 343              		.loc 1 83 0
 344 002c 002A     		cmp	r2, #0
 345 002e 7BD0     		beq	.L89
 346              	.L62:
 347              		.loc 1 73 0
 348 0030 0026     		movs	r6, #0
 349              	.L59:
 350              	.LVL24:
 351 0032 3F4A     		ldr	r2, .L95+4
 352 0034 8A42     		cmp	r2, r1
 353 0036 1446     		mov	r4, r2
 354              	.LVL25:
 355 0038 02F11003 		add	r3, r2, #16
 356 003c 39D2     		bcs	.L86
 357              		.loc 1 75 0
 358 003e 53F8100C 		ldr	r0, [r3, #-16]
 359 0042 B842     		cmp	r0, r7
 360 0044 62D0     		beq	.L90
 361              		.loc 1 83 0
 362 0046 002E     		cmp	r6, #0
 363 0048 6AD0     		beq	.L91
 364              	.LVL26:
 365              	.L65:
 366              		.loc 1 73 0
 367 004a 02F11004 		add	r4, r2, #16
 368              	.LVL27:
 369 004e 1033     		adds	r3, r3, #16
 370 0050 8C42     		cmp	r4, r1
 371 0052 10D3     		bcc	.L47
 372 0054 2DE0     		b	.L86
 373              	.L44:
 374              		.loc 1 83 0
 375 0056 002E     		cmp	r6, #0
 376 0058 39D0     		beq	.L92
 377              	.LVL28:
 378              	.L46:
 379              		.loc 1 75 0
 380 005a 53F8100B 		ldr	r0, [r3], #16
 381              		.loc 1 73 0
 382 005e 04F11005 		add	r5, r4, #16
 383              		.loc 1 75 0
 384 0062 B842     		cmp	r0, r7
 385              		.loc 1 73 0
 386 0064 2C46     		mov	r4, r5
 387              	.LVL29:
 388              		.loc 1 75 0
 389 0066 18D0     		beq	.L93
 390              	.L70:
 391              		.loc 1 83 0
 392 0068 002E     		cmp	r6, #0
 393 006a 34D0     		beq	.L94
 394              	.LVL30:
 395              	.L71:
 396              		.loc 1 73 0
ARM GAS  /tmp/ccVSZ1f1.s 			page 8


 397 006c 05F11004 		add	r4, r5, #16
 398              	.LVL31:
 399 0070 1033     		adds	r3, r3, #16
 400 0072 8C42     		cmp	r4, r1
 401 0074 1DD2     		bcs	.L86
 402              	.L47:
 403              		.loc 1 75 0
 404 0076 53F8105C 		ldr	r5, [r3, #-16]
 405 007a BD42     		cmp	r5, r7
 406 007c EBD1     		bne	.L44
 407              		.loc 1 75 0 is_stmt 0 discriminator 1
 408 007e 53F80C2C 		ldr	r2, [r3, #-12]
 409 0082 4A45     		cmp	r2, r9
 410 0084 32D0     		beq	.L85
 411              		.loc 1 83 0 is_stmt 1
 412 0086 002E     		cmp	r6, #0
 413 0088 E7D1     		bne	.L46
 414              	.L49:
 415              		.loc 1 75 0
 416 008a 53F8100B 		ldr	r0, [r3], #16
 417              		.loc 1 73 0
 418 008e 0026     		movs	r6, #0
 419              	.LVL32:
 420 0090 04F11005 		add	r5, r4, #16
 421              		.loc 1 75 0
 422 0094 B842     		cmp	r0, r7
 423              		.loc 1 73 0
 424 0096 2C46     		mov	r4, r5
 425              	.LVL33:
 426              		.loc 1 75 0
 427 0098 E6D1     		bne	.L70
 428              	.L93:
 429 009a 53F80C2C 		ldr	r2, [r3, #-12]
 430 009e 4A45     		cmp	r2, r9
 431 00a0 24D0     		beq	.L85
 432              		.loc 1 83 0
 433 00a2 002E     		cmp	r6, #0
 434 00a4 E2D1     		bne	.L71
 435              	.L74:
 436              		.loc 1 73 0
 437 00a6 05F11004 		add	r4, r5, #16
 438              	.LVL34:
 439 00aa 0026     		movs	r6, #0
 440              	.LVL35:
 441 00ac 1033     		adds	r3, r3, #16
 442 00ae 8C42     		cmp	r4, r1
 443 00b0 E1D3     		bcc	.L47
 444              	.L86:
 445              		.loc 1 88 0
 446 00b2 2EB1     		cbz	r6, .L48
 447              		.loc 1 90 0
 448 00b4 86E88002 		stmia	r6, {r7, r9}
 449              		.loc 1 92 0
 450 00b8 0021     		movs	r1, #0
 451              		.loc 1 91 0
 452 00ba C6F80880 		str	r8, [r6, #8]
 453              		.loc 1 92 0
ARM GAS  /tmp/ccVSZ1f1.s 			page 9


 454 00be F160     		str	r1, [r6, #12]
 455              	.L48:
 456              		.loc 1 94 0
 457 00c0 FFF7FEFF 		bl	chMtxUnlock
 458              	.LVL36:
 459              		.loc 1 96 0
 460 00c4 301C     		adds	r0, r6, #0
 461 00c6 18BF     		it	ne
 462 00c8 0120     		movne	r0, #1
 463 00ca BDE8F883 		pop	{r3, r4, r5, r6, r7, r8, r9, pc}
 464              	.L92:
 465              		.loc 1 83 0 discriminator 1
 466 00ce 002D     		cmp	r5, #0
 467 00d0 DBD1     		bne	.L49
 468              		.loc 1 83 0 is_stmt 0
 469 00d2 2646     		mov	r6, r4
 470              	.LVL37:
 471 00d4 C1E7     		b	.L46
 472              	.LVL38:
 473              	.L94:
 474 00d6 0028     		cmp	r0, #0
 475 00d8 E5D1     		bne	.L74
 476 00da 2E46     		mov	r6, r5
 477              	.LVL39:
 478 00dc C6E7     		b	.L71
 479              	.LVL40:
 480              	.L51:
 481              		.loc 1 66 0 is_stmt 1
 482 00de 0846     		mov	r0, r1
 483              	.LVL41:
 484 00e0 BDE8F883 		pop	{r3, r4, r5, r6, r7, r8, r9, pc}
 485              	.LVL42:
 486              	.L88:
 487              		.loc 1 75 0
 488 00e4 53F80C0C 		ldr	r0, [r3, #-12]
 489 00e8 4845     		cmp	r0, r9
 490 00ea A1D1     		bne	.L62
 491              	.LVL43:
 492              	.L85:
 493              		.loc 1 77 0
 494 00ec 1037     		adds	r7, r7, #16
 495              	.LVL44:
 496 00ee 4FF0FF31 		mov	r1, #-1
 497 00f2 3846     		mov	r0, r7
 498 00f4 FFF7FEFF 		bl	gfxSemWait
 499              	.LVL45:
 500              		.loc 1 79 0
 501 00f8 3846     		mov	r0, r7
 502              		.loc 1 78 0
 503 00fa C4F80880 		str	r8, [r4, #8]
 504              		.loc 1 79 0
 505 00fe FFF7FEFF 		bl	gfxSemSignal
 506              	.LVL46:
 507              		.loc 1 80 0
 508 0102 FFF7FEFF 		bl	chMtxUnlock
 509              	.LVL47:
 510              		.loc 1 81 0
ARM GAS  /tmp/ccVSZ1f1.s 			page 10


 511 0106 0120     		movs	r0, #1
 512 0108 BDE8F883 		pop	{r3, r4, r5, r6, r7, r8, r9, pc}
 513              	.LVL48:
 514              	.L90:
 515              		.loc 1 75 0
 516 010c 53F80C0C 		ldr	r0, [r3, #-12]
 517 0110 4845     		cmp	r0, r9
 518 0112 EBD0     		beq	.L85
 519              		.loc 1 83 0
 520 0114 002E     		cmp	r6, #0
 521 0116 98D1     		bne	.L65
 522              	.L68:
 523              		.loc 1 73 0
 524 0118 0026     		movs	r6, #0
 525              	.LVL49:
 526 011a 96E7     		b	.L65
 527              	.LVL50:
 528              	.L50:
 529 011c BDE8F883 		pop	{r3, r4, r5, r6, r7, r8, r9, pc}
 530              	.LVL51:
 531              	.L91:
 532              		.loc 1 83 0
 533 0120 0028     		cmp	r0, #0
 534 0122 F9D1     		bne	.L68
 535 0124 1646     		mov	r6, r2
 536              	.LVL52:
 537 0126 90E7     		b	.L65
 538              	.LVL53:
 539              	.L89:
 540 0128 2646     		mov	r6, r4
 541 012a 82E7     		b	.L59
 542              	.L96:
 543              		.align	2
 544              	.L95:
 545 012c 00000000 		.word	.LANCHOR1
 546 0130 10000000 		.word	.LANCHOR0+16
 547              		.cfi_endproc
 548              	.LFE121:
 549              		.size	geventAttachSource, .-geventAttachSource
 550 0134 AFF30080 		.section	.text.geventDetachSource,"ax",%progbits
 550      AFF30080 
 550      AFF30080 
 551              		.align	2
 552              		.p2align 4,,15
 553              		.global	geventDetachSource
 554              		.thumb
 555              		.thumb_func
 556              		.type	geventDetachSource, %function
 557              	geventDetachSource:
 558              	.LFB122:
 559              		.loc 1 99 0
 560              		.cfi_startproc
 561              		@ args = 0, pretend = 0, frame = 0
 562              		@ frame_needed = 0, uses_anonymous_args = 0
 563              	.LVL54:
 564 0000 38B5     		push	{r3, r4, r5, lr}
 565              	.LCFI4:
ARM GAS  /tmp/ccVSZ1f1.s 			page 11


 566              		.cfi_def_cfa_offset 16
 567              		.cfi_offset 3, -16
 568              		.cfi_offset 4, -12
 569              		.cfi_offset 5, -8
 570              		.cfi_offset 14, -4
 571              		.loc 1 100 0
 572 0002 0446     		mov	r4, r0
 573              		.loc 1 99 0
 574 0004 0D46     		mov	r5, r1
 575              		.loc 1 100 0
 576 0006 58B1     		cbz	r0, .L97
 577              		.loc 1 101 0
 578 0008 0F48     		ldr	r0, .L101
 579              	.LVL55:
 580 000a FFF7FEFF 		bl	chMtxLock
 581              	.LVL56:
 582              		.loc 1 102 0
 583 000e 2046     		mov	r0, r4
 584 0010 2946     		mov	r1, r5
 585 0012 FFF7FEFF 		bl	deleteAssignments
 586              	.LVL57:
 587              		.loc 1 103 0
 588 0016 25B1     		cbz	r5, .L100
 589              	.LVL58:
 590              	.L99:
 591              		.loc 1 111 0
 592 0018 BDE83840 		pop	{r3, r4, r5, lr}
 593              		.loc 1 109 0
 594 001c FFF7FEBF 		b	chMtxUnlock
 595              	.LVL59:
 596              	.L97:
 597 0020 38BD     		pop	{r3, r4, r5, pc}
 598              	.LVL60:
 599              	.L100:
 600              		.loc 1 103 0 discriminator 1
 601 0022 A368     		ldr	r3, [r4, #8]
 602 0024 002B     		cmp	r3, #0
 603 0026 F7DA     		bge	.L99
 604              		.loc 1 104 0
 605 0028 04F11005 		add	r5, r4, #16
 606              	.LVL61:
 607 002c 4FF0FF31 		mov	r1, #-1
 608 0030 2846     		mov	r0, r5
 609 0032 FFF7FEFF 		bl	gfxSemWait
 610              	.LVL62:
 611              		.loc 1 105 0
 612 0036 0120     		movs	r0, #1
 613 0038 2085     		strh	r0, [r4, #40]	@ movhi
 614              		.loc 1 106 0
 615 003a 2046     		mov	r0, r4
 616 003c FFF7FEFF 		bl	gfxSemSignal
 617              	.LVL63:
 618              		.loc 1 107 0
 619 0040 2846     		mov	r0, r5
 620 0042 FFF7FEFF 		bl	gfxSemSignal
 621              	.LVL64:
 622 0046 E7E7     		b	.L99
ARM GAS  /tmp/ccVSZ1f1.s 			page 12


 623              	.L102:
 624              		.align	2
 625              	.L101:
 626 0048 00000000 		.word	.LANCHOR1
 627              		.cfi_endproc
 628              	.LFE122:
 629              		.size	geventDetachSource, .-geventDetachSource
 630 004c AFF30080 		.section	.text.geventEventWait,"ax",%progbits
 631              		.align	2
 632              		.p2align 4,,15
 633              		.global	geventEventWait
 634              		.thumb
 635              		.thumb_func
 636              		.type	geventEventWait, %function
 637              	geventEventWait:
 638              	.LFB123:
 639              		.loc 1 113 0
 640              		.cfi_startproc
 641              		@ args = 0, pretend = 0, frame = 0
 642              		@ frame_needed = 0, uses_anonymous_args = 0
 643              	.LVL65:
 644              		.loc 1 114 0
 645 0000 036A     		ldr	r3, [r0, #32]
 646              		.loc 1 113 0
 647 0002 10B5     		push	{r4, lr}
 648              	.LCFI5:
 649              		.cfi_def_cfa_offset 8
 650              		.cfi_offset 4, -8
 651              		.cfi_offset 14, -4
 652              		.loc 1 113 0
 653 0004 0446     		mov	r4, r0
 654              		.loc 1 114 0
 655 0006 43B9     		cbnz	r3, .L106
 656              		.loc 1 114 0 is_stmt 0 discriminator 1
 657 0008 8268     		ldr	r2, [r0, #8]
 658 000a 002A     		cmp	r2, #0
 659 000c 05DB     		blt	.L106
 660              		.loc 1 116 0 is_stmt 1
 661 000e FFF7FEFF 		bl	gfxSemWait
 662              	.LVL66:
 663 0012 10B1     		cbz	r0, .L106
 664              		.loc 1 116 0 is_stmt 0 discriminator 1
 665 0014 04F12800 		add	r0, r4, #40
 666              		.loc 1 117 0 is_stmt 1 discriminator 1
 667 0018 10BD     		pop	{r4, pc}
 668              	.L106:
 669              		.loc 1 115 0
 670 001a 0020     		movs	r0, #0
 671 001c 10BD     		pop	{r4, pc}
 672              		.cfi_endproc
 673              	.LFE123:
 674              		.size	geventEventWait, .-geventEventWait
 675 001e 00BF     		.section	.text.geventRegisterCallback,"ax",%progbits
 676              		.align	2
 677              		.p2align 4,,15
 678              		.global	geventRegisterCallback
 679              		.thumb
ARM GAS  /tmp/ccVSZ1f1.s 			page 13


 680              		.thumb_func
 681              		.type	geventRegisterCallback, %function
 682              	geventRegisterCallback:
 683              	.LFB124:
 684              		.loc 1 119 0
 685              		.cfi_startproc
 686              		@ args = 0, pretend = 0, frame = 0
 687              		@ frame_needed = 0, uses_anonymous_args = 0
 688              	.LVL67:
 689 0000 F8B5     		push	{r3, r4, r5, r6, r7, lr}
 690              	.LCFI6:
 691              		.cfi_def_cfa_offset 24
 692              		.cfi_offset 3, -24
 693              		.cfi_offset 4, -20
 694              		.cfi_offset 5, -16
 695              		.cfi_offset 6, -12
 696              		.cfi_offset 7, -8
 697              		.cfi_offset 14, -4
 698              		.loc 1 120 0
 699 0002 0446     		mov	r4, r0
 700              		.loc 1 119 0
 701 0004 0E46     		mov	r6, r1
 702 0006 1746     		mov	r7, r2
 703              		.loc 1 120 0
 704 0008 A8B1     		cbz	r0, .L110
 705              		.loc 1 121 0
 706 000a 0E48     		ldr	r0, .L114
 707              	.LVL68:
 708              		.loc 1 122 0
 709 000c 04F11005 		add	r5, r4, #16
 710              		.loc 1 121 0
 711 0010 FFF7FEFF 		bl	chMtxLock
 712              	.LVL69:
 713              		.loc 1 122 0
 714 0014 2846     		mov	r0, r5
 715 0016 4FF0FF31 		mov	r1, #-1
 716 001a FFF7FEFF 		bl	gfxSemWait
 717              	.LVL70:
 718              		.loc 1 125 0
 719 001e A368     		ldr	r3, [r4, #8]
 720              		.loc 1 123 0
 721 0020 6762     		str	r7, [r4, #36]
 722              		.loc 1 125 0
 723 0022 002B     		cmp	r3, #0
 724              		.loc 1 124 0
 725 0024 2662     		str	r6, [r4, #32]
 726              		.loc 1 125 0
 727 0026 07DB     		blt	.L113
 728              	.L112:
 729              		.loc 1 129 0
 730 0028 2846     		mov	r0, r5
 731 002a FFF7FEFF 		bl	gfxSemSignal
 732              	.LVL71:
 733              		.loc 1 132 0
 734 002e BDE8F840 		pop	{r3, r4, r5, r6, r7, lr}
 735              		.loc 1 130 0
 736 0032 FFF7FEBF 		b	chMtxUnlock
ARM GAS  /tmp/ccVSZ1f1.s 			page 14


 737              	.LVL72:
 738              	.L110:
 739 0036 F8BD     		pop	{r3, r4, r5, r6, r7, pc}
 740              	.LVL73:
 741              	.L113:
 742              		.loc 1 126 0
 743 0038 0120     		movs	r0, #1
 744 003a 2085     		strh	r0, [r4, #40]	@ movhi
 745              		.loc 1 127 0
 746 003c 2046     		mov	r0, r4
 747 003e FFF7FEFF 		bl	gfxSemSignal
 748              	.LVL74:
 749 0042 F1E7     		b	.L112
 750              	.L115:
 751              		.align	2
 752              	.L114:
 753 0044 00000000 		.word	.LANCHOR1
 754              		.cfi_endproc
 755              	.LFE124:
 756              		.size	geventRegisterCallback, .-geventRegisterCallback
 757 0048 AFF30080 		.section	.text.geventGetSourceListener,"ax",%progbits
 757      AFF30080 
 758              		.align	2
 759              		.p2align 4,,15
 760              		.global	geventGetSourceListener
 761              		.thumb
 762              		.thumb_func
 763              		.type	geventGetSourceListener, %function
 764              	geventGetSourceListener:
 765              	.LFB125:
 766              		.loc 1 134 0
 767              		.cfi_startproc
 768              		@ args = 0, pretend = 0, frame = 0
 769              		@ frame_needed = 0, uses_anonymous_args = 0
 770              	.LVL75:
 771 0000 38B5     		push	{r3, r4, r5, lr}
 772              	.LCFI7:
 773              		.cfi_def_cfa_offset 16
 774              		.cfi_offset 3, -16
 775              		.cfi_offset 4, -12
 776              		.cfi_offset 5, -8
 777              		.cfi_offset 14, -4
 778              		.loc 1 138 0
 779 0002 0546     		mov	r5, r0
 780              		.loc 1 134 0
 781 0004 0C46     		mov	r4, r1
 782              		.loc 1 138 0
 783 0006 0028     		cmp	r0, #0
 784 0008 31D0     		beq	.L124
 785              		.loc 1 141 0
 786 000a 1A48     		ldr	r0, .L138
 787              	.LVL76:
 788 000c FFF7FEFF 		bl	chMtxLock
 789              	.LVL77:
 790              		.loc 1 144 0
 791 0010 5CB3     		cbz	r4, .L125
 792              		.loc 1 145 0
ARM GAS  /tmp/ccVSZ1f1.s 			page 15


 793 0012 54F8100B 		ldr	r0, [r4], #16
 794              	.LVL78:
 795 0016 1030     		adds	r0, r0, #16
 796 0018 FFF7FEFF 		bl	gfxSemSignal
 797              	.LVL79:
 798              		.loc 1 148 0
 799 001c 164B     		ldr	r3, .L138+4
 800 001e 9C42     		cmp	r4, r3
 801 0020 1ED2     		bcs	.L123
 802              	.LVL80:
 803              	.L118:
 804              		.loc 1 149 0
 805 0022 6068     		ldr	r0, [r4, #4]
 806 0024 A842     		cmp	r0, r5
 807 0026 0ED0     		beq	.L119
 808 0028 134A     		ldr	r2, .L138+4
 809 002a E143     		mvns	r1, r4
 810 002c 5318     		adds	r3, r2, r1
 811 002e DB06     		lsls	r3, r3, #27
 812 0030 13D4     		bmi	.L137
 813              	.L121:
 814              		.loc 1 148 0
 815 0032 1034     		adds	r4, r4, #16
 816              	.LVL81:
 817 0034 9442     		cmp	r4, r2
 818 0036 13D2     		bcs	.L123
 819              		.loc 1 149 0
 820 0038 6168     		ldr	r1, [r4, #4]
 821 003a A942     		cmp	r1, r5
 822 003c 03D0     		beq	.L119
 823              		.loc 1 148 0
 824 003e 1034     		adds	r4, r4, #16
 825              	.LVL82:
 826              	.L136:
 827              		.loc 1 149 0
 828 0040 6068     		ldr	r0, [r4, #4]
 829 0042 A842     		cmp	r0, r5
 830 0044 F5D1     		bne	.L121
 831              	.LVL83:
 832              	.L119:
 833              		.loc 1 150 0
 834 0046 2068     		ldr	r0, [r4, #0]
 835 0048 4FF0FF31 		mov	r1, #-1
 836 004c 1030     		adds	r0, r0, #16
 837 004e FFF7FEFF 		bl	gfxSemWait
 838              	.LVL84:
 839              		.loc 1 151 0
 840 0052 FFF7FEFF 		bl	chMtxUnlock
 841              	.LVL85:
 842              	.L117:
 843              		.loc 1 157 0
 844 0056 2046     		mov	r0, r4
 845 0058 38BD     		pop	{r3, r4, r5, pc}
 846              	.L137:
 847              		.loc 1 148 0
 848 005a 1034     		adds	r4, r4, #16
 849              	.LVL86:
ARM GAS  /tmp/ccVSZ1f1.s 			page 16


 850 005c 9442     		cmp	r4, r2
 851 005e EFD3     		bcc	.L136
 852              	.L123:
 853              		.loc 1 156 0
 854 0060 0024     		movs	r4, #0
 855              	.LVL87:
 856              		.loc 1 155 0
 857 0062 FFF7FEFF 		bl	chMtxUnlock
 858              	.LVL88:
 859              		.loc 1 157 0
 860 0066 2046     		mov	r0, r4
 861 0068 38BD     		pop	{r3, r4, r5, pc}
 862              	.LVL89:
 863              	.L125:
 864              		.loc 1 148 0
 865 006a 044C     		ldr	r4, .L138+8
 866              	.LVL90:
 867 006c D9E7     		b	.L118
 868              	.LVL91:
 869              	.L124:
 870              		.loc 1 139 0
 871 006e 0446     		mov	r4, r0
 872 0070 F1E7     		b	.L117
 873              	.L139:
 874 0072 00BF     		.align	2
 875              	.L138:
 876 0074 00000000 		.word	.LANCHOR1
 877 0078 00020000 		.word	.LANCHOR0+512
 878 007c 00000000 		.word	.LANCHOR0
 879              		.cfi_endproc
 880              	.LFE125:
 881              		.size	geventGetSourceListener, .-geventGetSourceListener
 882              		.section	.text.geventGetEventBuffer,"ax",%progbits
 883              		.align	2
 884              		.p2align 4,,15
 885              		.global	geventGetEventBuffer
 886              		.thumb
 887              		.thumb_func
 888              		.type	geventGetEventBuffer, %function
 889              	geventGetEventBuffer:
 890              	.LFB126:
 891              		.loc 1 159 0
 892              		.cfi_startproc
 893              		@ args = 0, pretend = 0, frame = 0
 894              		@ frame_needed = 0, uses_anonymous_args = 0
 895              		@ link register save eliminated.
 896              	.LVL92:
 897              		.loc 1 161 0
 898 0000 0068     		ldr	r0, [r0, #0]
 899              	.LVL93:
 900 0002 10F12003 		adds	r3, r0, #32
 901 0006 01D0     		beq	.L144
 902              	.L141:
 903              		.loc 1 161 0 is_stmt 0 discriminator 1
 904 0008 2830     		adds	r0, r0, #40
 905 000a 7047     		bx	lr
 906              	.L144:
ARM GAS  /tmp/ccVSZ1f1.s 			page 17


 907              		.loc 1 161 0 discriminator 2
 908 000c 8268     		ldr	r2, [r0, #8]
 909 000e 002A     		cmp	r2, #0
 910 0010 FADB     		blt	.L141
 911              		.loc 1 161 0
 912 0012 1846     		mov	r0, r3
 913              		.loc 1 162 0 is_stmt 1
 914 0014 7047     		bx	lr
 915              		.cfi_endproc
 916              	.LFE126:
 917              		.size	geventGetEventBuffer, .-geventGetEventBuffer
 918 0016 00BFAFF3 		.section	.text.geventSendEvent,"ax",%progbits
 918      0080AFF3 
 918      0080
 919              		.align	2
 920              		.p2align 4,,15
 921              		.global	geventSendEvent
 922              		.thumb
 923              		.thumb_func
 924              		.type	geventSendEvent, %function
 925              	geventSendEvent:
 926              	.LFB127:
 927              		.loc 1 164 0
 928              		.cfi_startproc
 929              		@ args = 0, pretend = 0, frame = 0
 930              		@ frame_needed = 0, uses_anonymous_args = 0
 931              	.LVL94:
 932 0000 10B5     		push	{r4, lr}
 933              	.LCFI8:
 934              		.cfi_def_cfa_offset 8
 935              		.cfi_offset 4, -8
 936              		.cfi_offset 14, -4
 937              		.loc 1 164 0
 938 0002 0446     		mov	r4, r0
 939              		.loc 1 165 0
 940 0004 0B48     		ldr	r0, .L151
 941              	.LVL95:
 942 0006 FFF7FEFF 		bl	chMtxLock
 943              	.LVL96:
 944              		.loc 1 166 0
 945 000a 2068     		ldr	r0, [r4, #0]
 946 000c 036A     		ldr	r3, [r0, #32]
 947 000e 3BB1     		cbz	r3, .L146
 948              		.loc 1 167 0
 949 0010 FFF7FEFF 		bl	chMtxUnlock
 950              	.LVL97:
 951              		.loc 1 169 0
 952 0014 2168     		ldr	r1, [r4, #0]
 953 0016 0A6A     		ldr	r2, [r1, #32]
 954 0018 486A     		ldr	r0, [r1, #36]
 955 001a 2831     		adds	r1, r1, #40
 956 001c 9047     		blx	r2
 957              	.LVL98:
 958 001e 10BD     		pop	{r4, pc}
 959              	.L146:
 960              		.loc 1 173 0
 961 0020 8168     		ldr	r1, [r0, #8]
ARM GAS  /tmp/ccVSZ1f1.s 			page 18


 962 0022 0029     		cmp	r1, #0
 963 0024 03DD     		ble	.L150
 964              	.L148:
 965              		.loc 1 177 0
 966 0026 BDE81040 		pop	{r4, lr}
 967              		.loc 1 175 0
 968 002a FFF7FEBF 		b	chMtxUnlock
 969              	.LVL99:
 970              	.L150:
 971              		.loc 1 174 0
 972 002e FFF7FEFF 		bl	gfxSemSignal
 973              	.LVL100:
 974 0032 F8E7     		b	.L148
 975              	.L152:
 976              		.align	2
 977              	.L151:
 978 0034 00000000 		.word	.LANCHOR1
 979              		.cfi_endproc
 980              	.LFE127:
 981              		.size	geventSendEvent, .-geventSendEvent
 982 0038 AFF30080 		.section	.text.geventDetachSourceListeners,"ax",%progbits
 982      AFF30080 
 983              		.align	2
 984              		.p2align 4,,15
 985              		.global	geventDetachSourceListeners
 986              		.thumb
 987              		.thumb_func
 988              		.type	geventDetachSourceListeners, %function
 989              	geventDetachSourceListeners:
 990              	.LFB128:
 991              		.loc 1 179 0
 992              		.cfi_startproc
 993              		@ args = 0, pretend = 0, frame = 0
 994              		@ frame_needed = 0, uses_anonymous_args = 0
 995              	.LVL101:
 996 0000 10B5     		push	{r4, lr}
 997              	.LCFI9:
 998              		.cfi_def_cfa_offset 8
 999              		.cfi_offset 4, -8
 1000              		.cfi_offset 14, -4
 1001              		.loc 1 179 0
 1002 0002 0446     		mov	r4, r0
 1003              		.loc 1 180 0
 1004 0004 40F20000 		movw	r0, #:lower16:.LANCHOR1
 1005              	.LVL102:
 1006 0008 C0F20000 		movt	r0, #:upper16:.LANCHOR1
 1007 000c FFF7FEFF 		bl	chMtxLock
 1008              	.LVL103:
 1009              		.loc 1 181 0
 1010 0010 0020     		movs	r0, #0
 1011 0012 2146     		mov	r1, r4
 1012 0014 FFF7FEFF 		bl	deleteAssignments
 1013              	.LVL104:
 1014              		.loc 1 183 0
 1015 0018 BDE81040 		pop	{r4, lr}
 1016              		.loc 1 182 0
 1017 001c FFF7FEBF 		b	chMtxUnlock
ARM GAS  /tmp/ccVSZ1f1.s 			page 19


 1018              	.LVL105:
 1019              		.cfi_endproc
 1020              	.LFE128:
 1021              		.size	geventDetachSourceListeners, .-geventDetachSourceListeners
 1022              		.section	.bss.Assignments,"aw",%nobits
 1023              		.align	2
 1024              		.set	.LANCHOR0,. + 0
 1025              		.type	Assignments, %object
 1026              		.size	Assignments, 512
 1027              	Assignments:
 1028 0000 00000000 		.space	512
 1028      00000000 
 1028      00000000 
 1028      00000000 
 1028      00000000 
 1029              		.section	.bss.geventMutex,"aw",%nobits
 1030              		.align	2
 1031              		.set	.LANCHOR1,. + 0
 1032              		.type	geventMutex, %object
 1033              		.size	geventMutex, 16
 1034              	geventMutex:
 1035 0000 00000000 		.space	16
 1035      00000000 
 1035      00000000 
 1035      00000000 
 1036              		.text
 1037              	.Letext0:
 1038              		.file 2 "/usr/bin/../lib/gcc/arm-none-eabi/4.7.4/../../../../arm-none-eabi/include/stdint.h"
 1039              		.file 3 "../../os/ports/GCC/ARMCMx/chtypes.h"
 1040              		.file 4 "../../os/kernel/include/chlists.h"
 1041              		.file 5 "../../os/kernel/include/chthreads.h"
 1042              		.file 6 "../../os/ports/GCC/ARMCMx/chcore_v7m.h"
 1043              		.file 7 "../../os/kernel/include/chsem.h"
 1044              		.file 8 "../../os/kernel/include/chmtx.h"
 1045              		.file 9 "../../ext/ugfx/include/gos/chibios.h"
 1046              		.file 10 "../../ext/ugfx/include/gevent/gevent.h"
 1047              		.file 11 "../../os/ports/common/ARMCMx/CMSIS/include/core_cm4.h"