ARM GAS  /tmp/ccPrDVhe.s 			page 1


   1              		.syntax unified
   2              		.cpu cortex-m4
   3              		.eabi_attribute 27, 3
   4              		.eabi_attribute 28, 1
   5              		.fpu fpv4-sp-d16
   6              		.eabi_attribute 20, 1
   7              		.eabi_attribute 21, 1
   8              		.eabi_attribute 23, 3
   9              		.eabi_attribute 24, 1
  10              		.eabi_attribute 25, 1
  11              		.eabi_attribute 26, 1
  12              		.eabi_attribute 30, 2
  13              		.eabi_attribute 34, 1
  14              		.eabi_attribute 18, 4
  15              		.thumb
  16              		.file	"ginput_lld_mouse.c"
  17              		.text
  18              	.Ltext0:
  19              		.cfi_sections	.debug_frame
  20              		.section	.text.ginput_lld_mouse_init,"ax",%progbits
  21              		.align	2
  22              		.p2align 4,,15
  23              		.global	ginput_lld_mouse_init
  24              		.thumb
  25              		.thumb_func
  26              		.type	ginput_lld_mouse_init, %function
  27              	ginput_lld_mouse_init:
  28              	.LFB124:
  29              		.file 1 "../../ext/ugfx/drivers/ginput/touch/ADS7843/ginput_lld_mouse.c"
  30              		.loc 1 65 0
  31              		.cfi_startproc
  32              		@ args = 0, pretend = 0, frame = 0
  33              		@ frame_needed = 0, uses_anonymous_args = 0
  34 0000 38B5     		push	{r3, r4, r5, lr}
  35              	.LCFI0:
  36              		.cfi_def_cfa_offset 16
  37              		.cfi_offset 3, -16
  38              		.cfi_offset 4, -12
  39              		.cfi_offset 5, -8
  40              		.cfi_offset 14, -4
  41              	.LBB10:
  42              	.LBB11:
  43              		.file 2 "./ginput_lld_mouse_board.h"
  44              		.loc 2 58 0
  45 0002 4FF44065 		mov	r5, #3072
  46 0006 C4F20205 		movt	r5, 16386
  47 000a 2846     		mov	r0, r5
  48 000c 0821     		movs	r1, #8
  49 000e 1922     		movs	r2, #25
  50              		.loc 2 60 0
  51 0010 4FF48064 		mov	r4, #1024
  52              		.loc 2 58 0
  53 0014 FFF7FEFF 		bl	_pal_lld_setgroupmode
  54              	.LVL0:
  55              		.loc 2 60 0
  56 0018 C4F20204 		movt	r4, 16386
  57              		.loc 2 59 0
ARM GAS  /tmp/ccPrDVhe.s 			page 2


  58 001c 0823     		movs	r3, #8
  59              		.loc 2 60 0
  60 001e 1946     		mov	r1, r3
  61              		.loc 2 59 0
  62 0020 2B83     		strh	r3, [r5, #24]	@ movhi
  63              		.loc 2 60 0
  64 0022 2046     		mov	r0, r4
  65 0024 40F21A32 		movw	r2, #794
  66 0028 FFF7FEFF 		bl	_pal_lld_setgroupmode
  67              	.LVL1:
  68              		.loc 2 61 0
  69 002c 2046     		mov	r0, r4
  70 002e 1021     		movs	r1, #16
  71 0030 40F21A32 		movw	r2, #794
  72 0034 FFF7FEFF 		bl	_pal_lld_setgroupmode
  73              	.LVL2:
  74              		.loc 2 62 0
  75 0038 2046     		mov	r0, r4
  76 003a 2021     		movs	r1, #32
  77 003c 40F21A32 		movw	r2, #794
  78 0040 FFF7FEFF 		bl	_pal_lld_setgroupmode
  79              	.LVL3:
  80              		.loc 2 64 0
  81 0044 40F20000 		movw	r0, #:lower16:SPID3
  82 0048 40F20001 		movw	r1, #:lower16:.LANCHOR0
  83 004c C0F20000 		movt	r0, #:upper16:SPID3
  84 0050 C0F20001 		movt	r1, #:upper16:.LANCHOR0
  85              	.LBE11:
  86              	.LBE10:
  87              		.loc 1 67 0
  88 0054 BDE83840 		pop	{r3, r4, r5, lr}
  89              	.LBB13:
  90              	.LBB12:
  91              		.loc 2 64 0
  92 0058 FFF7FEBF 		b	spiStart
  93              	.LVL4:
  94              	.LBE12:
  95              	.LBE13:
  96              		.cfi_endproc
  97              	.LFE124:
  98              		.size	ginput_lld_mouse_init, .-ginput_lld_mouse_init
  99 005c AFF30080 		.section	.text.ginput_lld_mouse_get_reading,"ax",%progbits
 100              		.align	2
 101              		.p2align 4,,15
 102              		.global	ginput_lld_mouse_get_reading
 103              		.thumb
 104              		.thumb_func
 105              		.type	ginput_lld_mouse_get_reading, %function
 106              	ginput_lld_mouse_get_reading:
 107              	.LFB125:
 108              		.loc 1 83 0
 109              		.cfi_startproc
 110              		@ args = 0, pretend = 0, frame = 0
 111              		@ frame_needed = 0, uses_anonymous_args = 0
 112              	.LVL5:
 113 0000 2DE9F047 		push	{r4, r5, r6, r7, r8, r9, sl, lr}
 114              	.LCFI1:
ARM GAS  /tmp/ccPrDVhe.s 			page 3


 115              		.cfi_def_cfa_offset 32
 116              		.cfi_offset 4, -32
 117              		.cfi_offset 5, -28
 118              		.cfi_offset 6, -24
 119              		.cfi_offset 7, -20
 120              		.cfi_offset 8, -16
 121              		.cfi_offset 9, -12
 122              		.cfi_offset 10, -8
 123              		.cfi_offset 14, -4
 124              	.LBB36:
 125              	.LBB37:
 126              		.loc 2 74 0
 127 0004 4FF4406A 		mov	sl, #3072
 128 0008 C4F2020A 		movt	sl, 16386
 129              	.LBE37:
 130              	.LBE36:
 131              		.loc 1 83 0
 132 000c 0746     		mov	r7, r0
 133              	.LBB39:
 134              	.LBB38:
 135              		.loc 2 74 0
 136 000e DAF81050 		ldr	r5, [sl, #16]
 137 0012 C5F38015 		ubfx	r5, r5, #6, #1
 138              	.LBE38:
 139              	.LBE39:
 140              		.loc 1 87 0
 141 0016 7DB1     		cbz	r5, .L3
 142              		.loc 1 88 0
 143 0018 054B     		ldr	r3, .L42
 144              		.loc 1 89 0
 145 001a 064A     		ldr	r2, .L42+4
 146              		.loc 1 88 0
 147 001c 1988     		ldrh	r1, [r3, #0]
 148              		.loc 1 89 0
 149 001e 1088     		ldrh	r0, [r2, #0]
 150              	.LVL6:
 151              		.loc 1 88 0
 152 0020 3980     		strh	r1, [r7, #0]	@ movhi
 153              		.loc 1 90 0
 154 0022 0023     		movs	r3, #0
 155              		.loc 1 89 0
 156 0024 7880     		strh	r0, [r7, #2]	@ movhi
 157              		.loc 1 90 0
 158 0026 BB80     		strh	r3, [r7, #4]	@ movhi
 159              		.loc 1 91 0
 160 0028 FB80     		strh	r3, [r7, #6]	@ movhi
 161              		.loc 1 92 0
 162 002a BDE8F087 		pop	{r4, r5, r6, r7, r8, r9, sl, pc}
 163              	.L43:
 164 002e 00BF     		.align	2
 165              	.L42:
 166 0030 00000000 		.word	.LANCHOR1
 167 0034 00000000 		.word	.LANCHOR2
 168              	.LVL7:
 169              	.L3:
 170              	.LBB40:
 171              	.LBB41:
ARM GAS  /tmp/ccPrDVhe.s 			page 4


 172              		.loc 2 113 0
 173 0038 DFF84893 		ldr	r9, .L44+16
 174              		.loc 2 111 0
 175 003c DFF84083 		ldr	r8, .L44+12
 176              	.LBE41:
 177              	.LBE40:
 178              	.LBB44:
 179              	.LBB45:
 180              		.loc 2 82 0
 181 0040 CC48     		ldr	r0, .L44
 182              	.LVL8:
 183              	.LBE45:
 184              	.LBE44:
 185              		.loc 1 106 0
 186 0042 CD4C     		ldr	r4, .L44+4
 187              	.LBB48:
 188              	.LBB46:
 189              		.loc 2 82 0
 190 0044 FFF7FEFF 		bl	spiAcquireBus
 191              	.LVL9:
 192              		.loc 2 84 0
 193 0048 0823     		movs	r3, #8
 194              	.LBE46:
 195              	.LBE48:
 196              	.LBB49:
 197              	.LBB42:
 198              		.loc 2 111 0
 199 004a D126     		movs	r6, #209
 200              	.LBE42:
 201              	.LBE49:
 202              	.LBB50:
 203              	.LBB47:
 204              		.loc 2 84 0
 205 004c AAF81A30 		strh	r3, [sl, #26]	@ movhi
 206              	.LVL10:
 207              	.LBE47:
 208              	.LBE50:
 209              	.LBB51:
 210              	.LBB43:
 211              		.loc 2 113 0
 212 0050 C848     		ldr	r0, .L44
 213              		.loc 2 111 0
 214 0052 88F80060 		strb	r6, [r8, #0]
 215              		.loc 2 113 0
 216 0056 0321     		movs	r1, #3
 217 0058 4246     		mov	r2, r8
 218 005a 4B46     		mov	r3, r9
 219 005c FFF7FEFF 		bl	spiExchange
 220              	.LVL11:
 221              	.LBE43:
 222              	.LBE51:
 223              	.LBB52:
 224              	.LBB53:
 225 0060 C448     		ldr	r0, .L44
 226              		.loc 2 111 0
 227 0062 88F80060 		strb	r6, [r8, #0]
 228              		.loc 2 113 0
ARM GAS  /tmp/ccPrDVhe.s 			page 5


 229 0066 0321     		movs	r1, #3
 230 0068 4246     		mov	r2, r8
 231 006a 4B46     		mov	r3, r9
 232 006c FFF7FEFF 		bl	spiExchange
 233              	.LVL12:
 234              		.loc 2 115 0
 235 0070 99F80210 		ldrb	r1, [r9, #2]	@ zero_extendqisi2
 236 0074 99F801E0 		ldrb	lr, [r9, #1]	@ zero_extendqisi2
 237              		.loc 2 113 0
 238 0078 BE48     		ldr	r0, .L44
 239              		.loc 2 111 0
 240 007a 88F80060 		strb	r6, [r8, #0]
 241              		.loc 2 115 0
 242 007e CA08     		lsrs	r2, r1, #3
 243 0080 42EA4E1C 		orr	ip, r2, lr, lsl #5
 244              		.loc 2 113 0
 245 0084 0321     		movs	r1, #3
 246 0086 4246     		mov	r2, r8
 247 0088 4B46     		mov	r3, r9
 248              	.LBE53:
 249              	.LBE52:
 250              		.loc 1 106 0
 251 008a A4F800C0 		strh	ip, [r4, #0]	@ movhi
 252              	.LVL13:
 253              	.LBB61:
 254              	.LBB54:
 255              		.loc 2 113 0
 256 008e FFF7FEFF 		bl	spiExchange
 257              	.LVL14:
 258              		.loc 2 115 0
 259 0092 99F80230 		ldrb	r3, [r9, #2]	@ zero_extendqisi2
 260 0096 99F80110 		ldrb	r1, [r9, #1]	@ zero_extendqisi2
 261              		.loc 2 113 0
 262 009a B648     		ldr	r0, .L44
 263              		.loc 2 111 0
 264 009c 88F80060 		strb	r6, [r8, #0]
 265              		.loc 2 115 0
 266 00a0 DA08     		lsrs	r2, r3, #3
 267 00a2 42EA411E 		orr	lr, r2, r1, lsl #5
 268              		.loc 2 113 0
 269 00a6 4B46     		mov	r3, r9
 270 00a8 0321     		movs	r1, #3
 271 00aa 4246     		mov	r2, r8
 272              	.LBE54:
 273              	.LBE61:
 274              		.loc 1 106 0
 275 00ac A4F802E0 		strh	lr, [r4, #2]	@ movhi
 276              	.LVL15:
 277              	.LBB62:
 278              	.LBB55:
 279              		.loc 2 113 0
 280 00b0 FFF7FEFF 		bl	spiExchange
 281              	.LVL16:
 282              		.loc 2 115 0
 283 00b4 99F80230 		ldrb	r3, [r9, #2]	@ zero_extendqisi2
 284 00b8 99F80110 		ldrb	r1, [r9, #1]	@ zero_extendqisi2
 285              		.loc 2 113 0
ARM GAS  /tmp/ccPrDVhe.s 			page 6


 286 00bc AD48     		ldr	r0, .L44
 287              		.loc 2 111 0
 288 00be 88F80060 		strb	r6, [r8, #0]
 289              		.loc 2 115 0
 290 00c2 DA08     		lsrs	r2, r3, #3
 291 00c4 42EA411C 		orr	ip, r2, r1, lsl #5
 292              		.loc 2 113 0
 293 00c8 4B46     		mov	r3, r9
 294 00ca 0321     		movs	r1, #3
 295 00cc 4246     		mov	r2, r8
 296              	.LBE55:
 297              	.LBE62:
 298              		.loc 1 106 0
 299 00ce A4F804C0 		strh	ip, [r4, #4]	@ movhi
 300              	.LVL17:
 301              	.LBB63:
 302              	.LBB56:
 303              		.loc 2 113 0
 304 00d2 FFF7FEFF 		bl	spiExchange
 305              	.LVL18:
 306              		.loc 2 115 0
 307 00d6 99F80230 		ldrb	r3, [r9, #2]	@ zero_extendqisi2
 308 00da 99F801E0 		ldrb	lr, [r9, #1]	@ zero_extendqisi2
 309              		.loc 2 113 0
 310 00de A548     		ldr	r0, .L44
 311              		.loc 2 111 0
 312 00e0 88F80060 		strb	r6, [r8, #0]
 313              		.loc 2 115 0
 314 00e4 D908     		lsrs	r1, r3, #3
 315 00e6 41EA4E1C 		orr	ip, r1, lr, lsl #5
 316              		.loc 2 113 0
 317 00ea 4246     		mov	r2, r8
 318 00ec 0321     		movs	r1, #3
 319 00ee 4B46     		mov	r3, r9
 320              	.LBE56:
 321              	.LBE63:
 322              		.loc 1 106 0
 323 00f0 A4F806C0 		strh	ip, [r4, #6]	@ movhi
 324              	.LVL19:
 325              	.LBB64:
 326              	.LBB57:
 327              		.loc 2 113 0
 328 00f4 FFF7FEFF 		bl	spiExchange
 329              	.LVL20:
 330              		.loc 2 115 0
 331 00f8 99F80220 		ldrb	r2, [r9, #2]	@ zero_extendqisi2
 332 00fc 99F801E0 		ldrb	lr, [r9, #1]	@ zero_extendqisi2
 333              		.loc 2 113 0
 334 0100 9C48     		ldr	r0, .L44
 335              		.loc 2 111 0
 336 0102 88F80060 		strb	r6, [r8, #0]
 337              		.loc 2 115 0
 338 0106 D308     		lsrs	r3, r2, #3
 339 0108 43EA4E1C 		orr	ip, r3, lr, lsl #5
 340              		.loc 2 113 0
 341 010c 0321     		movs	r1, #3
 342 010e 4246     		mov	r2, r8
ARM GAS  /tmp/ccPrDVhe.s 			page 7


 343 0110 4B46     		mov	r3, r9
 344              	.LBE57:
 345              	.LBE64:
 346              		.loc 1 106 0
 347 0112 A4F808C0 		strh	ip, [r4, #8]	@ movhi
 348              	.LVL21:
 349              	.LBB65:
 350              	.LBB58:
 351              		.loc 2 113 0
 352 0116 FFF7FEFF 		bl	spiExchange
 353              	.LVL22:
 354              		.loc 2 115 0
 355 011a 99F80210 		ldrb	r1, [r9, #2]	@ zero_extendqisi2
 356 011e 99F80120 		ldrb	r2, [r9, #1]	@ zero_extendqisi2
 357              		.loc 2 111 0
 358 0122 88F80060 		strb	r6, [r8, #0]
 359              		.loc 2 115 0
 360 0126 CE08     		lsrs	r6, r1, #3
 361 0128 46EA4216 		orr	r6, r6, r2, lsl #5
 362              		.loc 2 113 0
 363 012c 9148     		ldr	r0, .L44
 364              	.LBE58:
 365              	.LBE65:
 366              		.loc 1 106 0
 367 012e 6681     		strh	r6, [r4, #10]	@ movhi
 368              	.LVL23:
 369              	.LBB66:
 370              	.LBB59:
 371              		.loc 2 113 0
 372 0130 0321     		movs	r1, #3
 373 0132 4246     		mov	r2, r8
 374 0134 4B46     		mov	r3, r9
 375 0136 FFF7FEFF 		bl	spiExchange
 376              	.LVL24:
 377              		.loc 2 115 0
 378 013a 99F80230 		ldrb	r3, [r9, #2]	@ zero_extendqisi2
 379 013e 99F80110 		ldrb	r1, [r9, #1]	@ zero_extendqisi2
 380              	.LBE59:
 381              	.LBE66:
 382              	.LBB67:
 383              	.LBB68:
 384              		.loc 2 113 0
 385 0142 8C48     		ldr	r0, .L44
 386              	.LBE68:
 387              	.LBE67:
 388              	.LBB71:
 389              	.LBB60:
 390              		.loc 2 115 0
 391 0144 DA08     		lsrs	r2, r3, #3
 392 0146 42EA4116 		orr	r6, r2, r1, lsl #5
 393              	.LBE60:
 394              	.LBE71:
 395              	.LBB72:
 396              	.LBB69:
 397              		.loc 2 113 0
 398 014a 4B46     		mov	r3, r9
 399              	.LBE69:
ARM GAS  /tmp/ccPrDVhe.s 			page 8


 400              	.LBE72:
 401              		.loc 1 106 0
 402 014c A681     		strh	r6, [r4, #12]	@ movhi
 403              	.LVL25:
 404              	.LBB73:
 405              	.LBB70:
 406              		.loc 2 113 0
 407 014e 0321     		movs	r1, #3
 408 0150 4246     		mov	r2, r8
 409              		.loc 2 111 0
 410 0152 D026     		movs	r6, #208
 411 0154 88F80060 		strb	r6, [r8, #0]
 412              		.loc 2 113 0
 413 0158 FFF7FEFF 		bl	spiExchange
 414              	.LVL26:
 415              		.loc 1 48 0
 416 015c 2B46     		mov	r3, r5
 417              	.LBE70:
 418              	.LBE73:
 419              	.LBB74:
 420              	.LBB75:
 421              		.loc 1 50 0
 422 015e A446     		mov	ip, r4
 423              	.LVL27:
 424              	.L5:
 425 0160 605B     		ldrh	r0, [r4, r5]
 426 0162 34F81360 		ldrh	r6, [r4, r3, lsl #1]
 427              		.loc 1 83 0
 428 0166 04EB4302 		add	r2, r4, r3, lsl #1
 429 016a 911C     		adds	r1, r2, #2
 430              		.loc 1 50 0
 431 016c B042     		cmp	r0, r6
 432 016e 03F0010E 		and	lr, r3, #1
 433 0172 03D9     		bls	.L22
 434              		.loc 1 53 0
 435 0174 25F80C60 		strh	r6, [r5, ip]	@ movhi
 436              		.loc 1 54 0
 437 0178 21F8020C 		strh	r0, [r1, #-2]	@ movhi
 438              	.L22:
 439              		.loc 1 49 0
 440 017c 5E1C     		adds	r6, r3, #1
 441              	.LVL28:
 442 017e 062E     		cmp	r6, #6
 443 0180 28DC     		bgt	.L40
 444 0182 BEF1000F 		cmp	lr, #0
 445 0186 0BD0     		beq	.L7
 446              		.loc 1 50 0
 447 0188 605B     		ldrh	r0, [r4, r5]
 448 018a 5288     		ldrh	r2, [r2, #2]
 449 018c 0231     		adds	r1, r1, #2
 450 018e 9042     		cmp	r0, r2
 451 0190 03D9     		bls	.L27
 452              		.loc 1 53 0
 453 0192 25F80C20 		strh	r2, [r5, ip]	@ movhi
 454              		.loc 1 54 0
 455 0196 21F8020C 		strh	r0, [r1, #-2]	@ movhi
 456              	.LVL29:
ARM GAS  /tmp/ccPrDVhe.s 			page 9


 457              	.L27:
 458              		.loc 1 49 0
 459 019a 0136     		adds	r6, r6, #1
 460              	.LVL30:
 461 019c 062E     		cmp	r6, #6
 462 019e 19DC     		bgt	.L40
 463              	.L7:
 464              		.loc 1 50 0
 465 01a0 0846     		mov	r0, r1
 466 01a2 625B     		ldrh	r2, [r4, r5]
 467              	.LVL31:
 468 01a4 30F802EB 		ldrh	lr, [r0], #2
 469 01a8 7245     		cmp	r2, lr
 470              		.loc 1 53 0
 471 01aa 88BF     		it	hi
 472 01ac 25F80CE0 		strhhi	lr, [r5, ip]	@ movhi
 473              		.loc 1 50 0
 474 01b0 0146     		mov	r1, r0
 475              		.loc 1 54 0
 476 01b2 88BF     		it	hi
 477 01b4 20F8022C 		strhhi	r2, [r0, #-2]	@ movhi
 478              		.loc 1 50 0
 479 01b8 625B     		ldrh	r2, [r4, r5]
 480 01ba 31F8020B 		ldrh	r0, [r1], #2
 481 01be 8242     		cmp	r2, r0
 482              		.loc 1 49 0
 483 01c0 06F10106 		add	r6, r6, #1
 484              	.LVL32:
 485              		.loc 1 50 0
 486 01c4 E9D9     		bls	.L27
 487              	.LVL33:
 488              		.loc 1 49 0
 489 01c6 0136     		adds	r6, r6, #1
 490              	.LVL34:
 491 01c8 062E     		cmp	r6, #6
 492              		.loc 1 53 0
 493 01ca 25F80C00 		strh	r0, [r5, ip]	@ movhi
 494              		.loc 1 54 0
 495 01ce 21F8022C 		strh	r2, [r1, #-2]	@ movhi
 496              		.loc 1 49 0
 497 01d2 E5DD     		ble	.L7
 498              	.L40:
 499              		.loc 1 48 0
 500 01d4 0133     		adds	r3, r3, #1
 501              	.LVL35:
 502 01d6 0235     		adds	r5, r5, #2
 503 01d8 042B     		cmp	r3, #4
 504 01da C1D1     		bne	.L5
 505              	.LBE75:
 506              	.LBE74:
 507              		.loc 1 109 0
 508 01dc E588     		ldrh	r5, [r4, #6]
 509 01de 674E     		ldr	r6, .L44+8
 510              	.LVL36:
 511              	.LBB76:
 512              	.LBB77:
 513              		.loc 2 113 0
ARM GAS  /tmp/ccPrDVhe.s 			page 10


 514 01e0 6448     		ldr	r0, .L44
 515 01e2 674A     		ldr	r2, .L44+12
 516 01e4 674B     		ldr	r3, .L44+16
 517              	.LVL37:
 518              	.LBE77:
 519              	.LBE76:
 520              		.loc 1 109 0
 521 01e6 3580     		strh	r5, [r6, #0]	@ movhi
 522              	.LVL38:
 523              	.LBB79:
 524              	.LBB78:
 525              		.loc 2 113 0
 526 01e8 0321     		movs	r1, #3
 527              		.loc 2 111 0
 528 01ea 9125     		movs	r5, #145
 529 01ec 88F80050 		strb	r5, [r8, #0]
 530              		.loc 2 113 0
 531 01f0 FFF7FEFF 		bl	spiExchange
 532              	.LVL39:
 533              	.LBE78:
 534              	.LBE79:
 535              	.LBB80:
 536              	.LBB81:
 537 01f4 5F48     		ldr	r0, .L44
 538 01f6 624A     		ldr	r2, .L44+12
 539 01f8 624B     		ldr	r3, .L44+16
 540              		.loc 2 111 0
 541 01fa 88F80050 		strb	r5, [r8, #0]
 542              		.loc 2 113 0
 543 01fe 0321     		movs	r1, #3
 544 0200 FFF7FEFF 		bl	spiExchange
 545              	.LVL40:
 546              		.loc 2 115 0
 547 0204 99F80210 		ldrb	r1, [r9, #2]	@ zero_extendqisi2
 548 0208 99F801E0 		ldrb	lr, [r9, #1]	@ zero_extendqisi2
 549              		.loc 2 113 0
 550 020c 5948     		ldr	r0, .L44
 551 020e 5C4A     		ldr	r2, .L44+12
 552 0210 5C4B     		ldr	r3, .L44+16
 553              		.loc 2 111 0
 554 0212 88F80050 		strb	r5, [r8, #0]
 555              		.loc 2 115 0
 556 0216 C908     		lsrs	r1, r1, #3
 557 0218 41EA4E1C 		orr	ip, r1, lr, lsl #5
 558              		.loc 2 113 0
 559 021c 0321     		movs	r1, #3
 560              	.LBE81:
 561              	.LBE80:
 562              		.loc 1 114 0
 563 021e A4F800C0 		strh	ip, [r4, #0]	@ movhi
 564              	.LVL41:
 565              	.LBB89:
 566              	.LBB82:
 567              		.loc 2 113 0
 568 0222 FFF7FEFF 		bl	spiExchange
 569              	.LVL42:
 570              		.loc 2 115 0
ARM GAS  /tmp/ccPrDVhe.s 			page 11


 571 0226 99F80210 		ldrb	r1, [r9, #2]	@ zero_extendqisi2
 572 022a 99F801E0 		ldrb	lr, [r9, #1]	@ zero_extendqisi2
 573              		.loc 2 113 0
 574 022e 5148     		ldr	r0, .L44
 575 0230 534A     		ldr	r2, .L44+12
 576 0232 544B     		ldr	r3, .L44+16
 577              		.loc 2 111 0
 578 0234 88F80050 		strb	r5, [r8, #0]
 579              		.loc 2 115 0
 580 0238 C908     		lsrs	r1, r1, #3
 581 023a 41EA4E1C 		orr	ip, r1, lr, lsl #5
 582              		.loc 2 113 0
 583 023e 0321     		movs	r1, #3
 584              	.LBE82:
 585              	.LBE89:
 586              		.loc 1 114 0
 587 0240 A4F802C0 		strh	ip, [r4, #2]	@ movhi
 588              	.LVL43:
 589              	.LBB90:
 590              	.LBB83:
 591              		.loc 2 113 0
 592 0244 FFF7FEFF 		bl	spiExchange
 593              	.LVL44:
 594              		.loc 2 115 0
 595 0248 99F80210 		ldrb	r1, [r9, #2]	@ zero_extendqisi2
 596 024c 99F801E0 		ldrb	lr, [r9, #1]	@ zero_extendqisi2
 597              		.loc 2 113 0
 598 0250 4848     		ldr	r0, .L44
 599 0252 4B4A     		ldr	r2, .L44+12
 600 0254 4B4B     		ldr	r3, .L44+16
 601              		.loc 2 111 0
 602 0256 88F80050 		strb	r5, [r8, #0]
 603              		.loc 2 115 0
 604 025a C908     		lsrs	r1, r1, #3
 605 025c 41EA4E1C 		orr	ip, r1, lr, lsl #5
 606              		.loc 2 113 0
 607 0260 0321     		movs	r1, #3
 608              	.LBE83:
 609              	.LBE90:
 610              		.loc 1 114 0
 611 0262 A4F804C0 		strh	ip, [r4, #4]	@ movhi
 612              	.LVL45:
 613              	.LBB91:
 614              	.LBB84:
 615              		.loc 2 113 0
 616 0266 FFF7FEFF 		bl	spiExchange
 617              	.LVL46:
 618              		.loc 2 115 0
 619 026a 99F80210 		ldrb	r1, [r9, #2]	@ zero_extendqisi2
 620 026e 99F801E0 		ldrb	lr, [r9, #1]	@ zero_extendqisi2
 621              		.loc 2 113 0
 622 0272 4048     		ldr	r0, .L44
 623 0274 424A     		ldr	r2, .L44+12
 624 0276 434B     		ldr	r3, .L44+16
 625              		.loc 2 111 0
 626 0278 88F80050 		strb	r5, [r8, #0]
 627              		.loc 2 115 0
ARM GAS  /tmp/ccPrDVhe.s 			page 12


 628 027c C908     		lsrs	r1, r1, #3
 629 027e 41EA4E1C 		orr	ip, r1, lr, lsl #5
 630              		.loc 2 113 0
 631 0282 0321     		movs	r1, #3
 632              	.LBE84:
 633              	.LBE91:
 634              		.loc 1 114 0
 635 0284 A4F806C0 		strh	ip, [r4, #6]	@ movhi
 636              	.LVL47:
 637              	.LBB92:
 638              	.LBB85:
 639              		.loc 2 113 0
 640 0288 FFF7FEFF 		bl	spiExchange
 641              	.LVL48:
 642              		.loc 2 115 0
 643 028c 99F80210 		ldrb	r1, [r9, #2]	@ zero_extendqisi2
 644 0290 99F801E0 		ldrb	lr, [r9, #1]	@ zero_extendqisi2
 645              		.loc 2 113 0
 646 0294 3748     		ldr	r0, .L44
 647 0296 3A4A     		ldr	r2, .L44+12
 648 0298 3A4B     		ldr	r3, .L44+16
 649              		.loc 2 111 0
 650 029a 88F80050 		strb	r5, [r8, #0]
 651              		.loc 2 115 0
 652 029e C908     		lsrs	r1, r1, #3
 653 02a0 41EA4E1C 		orr	ip, r1, lr, lsl #5
 654              		.loc 2 113 0
 655 02a4 0321     		movs	r1, #3
 656              	.LBE85:
 657              	.LBE92:
 658              		.loc 1 114 0
 659 02a6 A4F808C0 		strh	ip, [r4, #8]	@ movhi
 660              	.LVL49:
 661              	.LBB93:
 662              	.LBB86:
 663              		.loc 2 113 0
 664 02aa FFF7FEFF 		bl	spiExchange
 665              	.LVL50:
 666              		.loc 2 115 0
 667 02ae 99F80210 		ldrb	r1, [r9, #2]	@ zero_extendqisi2
 668 02b2 99F801E0 		ldrb	lr, [r9, #1]	@ zero_extendqisi2
 669              		.loc 2 111 0
 670 02b6 88F80050 		strb	r5, [r8, #0]
 671              		.loc 2 115 0
 672 02ba CD08     		lsrs	r5, r1, #3
 673 02bc 45EA4E15 		orr	r5, r5, lr, lsl #5
 674              		.loc 2 113 0
 675 02c0 2C48     		ldr	r0, .L44
 676 02c2 2F4A     		ldr	r2, .L44+12
 677 02c4 2F4B     		ldr	r3, .L44+16
 678              	.LBE86:
 679              	.LBE93:
 680              		.loc 1 114 0
 681 02c6 6581     		strh	r5, [r4, #10]	@ movhi
 682              	.LVL51:
 683              	.LBB94:
 684              	.LBB87:
ARM GAS  /tmp/ccPrDVhe.s 			page 13


 685              		.loc 2 113 0
 686 02c8 0321     		movs	r1, #3
 687 02ca FFF7FEFF 		bl	spiExchange
 688              	.LVL52:
 689              		.loc 2 115 0
 690 02ce 99F80210 		ldrb	r1, [r9, #2]	@ zero_extendqisi2
 691 02d2 99F80150 		ldrb	r5, [r9, #1]	@ zero_extendqisi2
 692              	.LBE87:
 693              	.LBE94:
 694              	.LBB95:
 695              	.LBB96:
 696              		.loc 2 113 0
 697 02d6 2748     		ldr	r0, .L44
 698 02d8 294A     		ldr	r2, .L44+12
 699 02da 2A4B     		ldr	r3, .L44+16
 700              	.LBE96:
 701              	.LBE95:
 702              	.LBB99:
 703              	.LBB88:
 704              		.loc 2 115 0
 705 02dc C908     		lsrs	r1, r1, #3
 706 02de 41EA4515 		orr	r5, r1, r5, lsl #5
 707              	.LBE88:
 708              	.LBE99:
 709              		.loc 1 114 0
 710 02e2 A581     		strh	r5, [r4, #12]	@ movhi
 711              	.LVL53:
 712              	.LBB100:
 713              	.LBB97:
 714              		.loc 2 113 0
 715 02e4 0321     		movs	r1, #3
 716              		.loc 2 111 0
 717 02e6 9025     		movs	r5, #144
 718 02e8 88F80050 		strb	r5, [r8, #0]
 719              		.loc 2 113 0
 720 02ec FFF7FEFF 		bl	spiExchange
 721              	.LVL54:
 722              	.LBE97:
 723              	.LBE100:
 724              	.LBB101:
 725              	.LBB102:
 726              		.loc 1 50 0
 727 02f0 DFF88480 		ldr	r8, .L44+4
 728              	.LBE102:
 729              	.LBE101:
 730              	.LBB104:
 731              	.LBB98:
 732              		.loc 2 113 0
 733 02f4 0022     		movs	r2, #0
 734              		.loc 1 48 0
 735 02f6 1046     		mov	r0, r2
 736              	.LVL55:
 737              	.L9:
 738              	.LBE98:
 739              	.LBE104:
 740              	.LBB105:
 741              	.LBB103:
ARM GAS  /tmp/ccPrDVhe.s 			page 14


 742              		.loc 1 50 0
 743 02f8 A15A     		ldrh	r1, [r4, r2]
 744 02fa 34F810E0 		ldrh	lr, [r4, r0, lsl #1]
 745              		.loc 1 83 0
 746 02fe 04EB4005 		add	r5, r4, r0, lsl #1
 747 0302 AB1C     		adds	r3, r5, #2
 748              		.loc 1 50 0
 749 0304 7145     		cmp	r1, lr
 750 0306 00F0010C 		and	ip, r0, #1
 751 030a 03D9     		bls	.L15
 752              		.loc 1 53 0
 753 030c 22F808E0 		strh	lr, [r2, r8]	@ movhi
 754              		.loc 1 54 0
 755 0310 23F8021C 		strh	r1, [r3, #-2]	@ movhi
 756              	.L15:
 757              		.loc 1 49 0
 758 0314 411C     		adds	r1, r0, #1
 759              	.LVL56:
 760 0316 0629     		cmp	r1, #6
 761 0318 36DC     		bgt	.L39
 762 031a BCF1000F 		cmp	ip, #0
 763 031e 0CD0     		beq	.L11
 764              		.loc 1 50 0
 765 0320 34F802E0 		ldrh	lr, [r4, r2]
 766 0324 6D88     		ldrh	r5, [r5, #2]
 767 0326 0233     		adds	r3, r3, #2
 768 0328 AE45     		cmp	lr, r5
 769 032a 03D9     		bls	.L20
 770              		.loc 1 53 0
 771 032c 22F80850 		strh	r5, [r2, r8]	@ movhi
 772              		.loc 1 54 0
 773 0330 23F802EC 		strh	lr, [r3, #-2]	@ movhi
 774              	.LVL57:
 775              	.L20:
 776              		.loc 1 49 0
 777 0334 0131     		adds	r1, r1, #1
 778              	.LVL58:
 779 0336 0629     		cmp	r1, #6
 780 0338 26DC     		bgt	.L39
 781              	.L11:
 782              		.loc 1 50 0
 783 033a 1D46     		mov	r5, r3
 784 033c 34F802E0 		ldrh	lr, [r4, r2]
 785              	.LVL59:
 786 0340 35F802CB 		ldrh	ip, [r5], #2
 787 0344 E645     		cmp	lr, ip
 788              		.loc 1 53 0
 789 0346 88BF     		it	hi
 790 0348 22F808C0 		strhhi	ip, [r2, r8]	@ movhi
 791              		.loc 1 50 0
 792 034c 2B46     		mov	r3, r5
 793              		.loc 1 54 0
 794 034e 88BF     		it	hi
 795 0350 25F802EC 		strhhi	lr, [r5, #-2]	@ movhi
 796              		.loc 1 50 0
 797 0354 A55A     		ldrh	r5, [r4, r2]
 798 0356 33F802EB 		ldrh	lr, [r3], #2
ARM GAS  /tmp/ccPrDVhe.s 			page 15


 799 035a 7545     		cmp	r5, lr
 800              		.loc 1 49 0
 801 035c 01F10101 		add	r1, r1, #1
 802              	.LVL60:
 803              		.loc 1 50 0
 804 0360 E8D9     		bls	.L20
 805              	.LVL61:
 806              		.loc 1 49 0
 807 0362 0131     		adds	r1, r1, #1
 808              	.LVL62:
 809 0364 0629     		cmp	r1, #6
 810              		.loc 1 53 0
 811 0366 22F808E0 		strh	lr, [r2, r8]	@ movhi
 812              		.loc 1 54 0
 813 036a 23F8025C 		strh	r5, [r3, #-2]	@ movhi
 814              		.loc 1 49 0
 815 036e E4DD     		ble	.L11
 816 0370 0AE0     		b	.L45
 817              	.L46:
 818 0372 00BF     		.align	2
 819              	.L44:
 820 0374 00000000 		.word	SPID3
 821 0378 00000000 		.word	.LANCHOR5
 822 037c 00000000 		.word	.LANCHOR1
 823 0380 00000000 		.word	.LANCHOR3
 824 0384 00000000 		.word	.LANCHOR4
 825              	.L45:
 826              	.L39:
 827              		.loc 1 48 0
 828 0388 0130     		adds	r0, r0, #1
 829              	.LVL63:
 830 038a 0232     		adds	r2, r2, #2
 831 038c 0428     		cmp	r0, #4
 832 038e B3D1     		bne	.L9
 833              	.LBE103:
 834              	.LBE105:
 835              	.LBB106:
 836              	.LBB107:
 837              		.loc 2 93 0
 838 0390 4FF44063 		mov	r3, #3072
 839              	.LBE107:
 840              	.LBE106:
 841              		.loc 1 117 0
 842 0394 E188     		ldrh	r1, [r4, #6]
 843              	.LVL64:
 844 0396 094C     		ldr	r4, .L47
 845              	.LBB110:
 846              	.LBB108:
 847              		.loc 2 94 0
 848 0398 0948     		ldr	r0, .L47+4
 849              	.LVL65:
 850              	.LBE108:
 851              	.LBE110:
 852              		.loc 1 117 0
 853 039a 2180     		strh	r1, [r4, #0]	@ movhi
 854              	.LBB111:
 855              	.LBB109:
ARM GAS  /tmp/ccPrDVhe.s 			page 16


 856              		.loc 2 93 0
 857 039c C4F20203 		movt	r3, 16386
 858 03a0 0822     		movs	r2, #8
 859 03a2 1A83     		strh	r2, [r3, #24]	@ movhi
 860              		.loc 2 94 0
 861 03a4 FFF7FEFF 		bl	spiReleaseBus
 862              	.LVL66:
 863              	.LBE109:
 864              	.LBE111:
 865              		.loc 1 123 0
 866 03a8 3088     		ldrh	r0, [r6, #0]
 867              		.loc 1 124 0
 868 03aa 2388     		ldrh	r3, [r4, #0]
 869              		.loc 1 123 0
 870 03ac 3880     		strh	r0, [r7, #0]	@ movhi
 871              		.loc 1 125 0
 872 03ae 6421     		movs	r1, #100
 873              		.loc 1 126 0
 874 03b0 0122     		movs	r2, #1
 875              		.loc 1 124 0
 876 03b2 7B80     		strh	r3, [r7, #2]	@ movhi
 877              		.loc 1 125 0
 878 03b4 B980     		strh	r1, [r7, #4]	@ movhi
 879              		.loc 1 126 0
 880 03b6 FA80     		strh	r2, [r7, #6]	@ movhi
 881 03b8 BDE8F087 		pop	{r4, r5, r6, r7, r8, r9, sl, pc}
 882              	.L48:
 883              		.align	2
 884              	.L47:
 885 03bc 00000000 		.word	.LANCHOR2
 886 03c0 00000000 		.word	SPID3
 887              		.cfi_endproc
 888              	.LFE125:
 889              		.size	ginput_lld_mouse_get_reading, .-ginput_lld_mouse_get_reading
 890 03c4 AFF30080 		.section	.bss.txbuf.7956,"aw",%nobits
 890      AFF30080 
 890      AFF30080 
 891              		.align	2
 892              		.set	.LANCHOR3,. + 0
 893              		.type	txbuf.7956, %object
 894              		.size	txbuf.7956, 3
 895              	txbuf.7956:
 896 0000 000000   		.space	3
 897 0003 00       		.section	.rodata.spicfg,"a",%progbits
 898              		.align	2
 899              		.set	.LANCHOR0,. + 0
 900              		.type	spicfg, %object
 901              		.size	spicfg, 12
 902              	spicfg:
 903 0000 00000000 		.word	0
 904 0004 000C0240 		.word	1073875968
 905 0008 0300     		.short	3
 906 000a 2000     		.short	32
 907              		.section	.bss.sampleBuf,"aw",%nobits
 908              		.align	2
 909              		.set	.LANCHOR5,. + 0
 910              		.type	sampleBuf, %object
ARM GAS  /tmp/ccPrDVhe.s 			page 17


 911              		.size	sampleBuf, 14
 912              	sampleBuf:
 913 0000 00000000 		.space	14
 913      00000000 
 913      00000000 
 913      0000
 914 000e 0000     		.section	.bss.lastx,"aw",%nobits
 915              		.align	1
 916              		.set	.LANCHOR1,. + 0
 917              		.type	lastx, %object
 918              		.size	lastx, 2
 919              	lastx:
 920 0000 0000     		.space	2
 921              		.section	.bss.lasty,"aw",%nobits
 922              		.align	1
 923              		.set	.LANCHOR2,. + 0
 924              		.type	lasty, %object
 925              		.size	lasty, 2
 926              	lasty:
 927 0000 0000     		.space	2
 928              		.section	.bss.rxbuf.7957,"aw",%nobits
 929              		.align	2
 930              		.set	.LANCHOR4,. + 0
 931              		.type	rxbuf.7957, %object
 932              		.size	rxbuf.7957, 3
 933              	rxbuf.7957:
 934 0000 000000   		.space	3
 935 0003 00       		.text
 936              	.Letext0:
 937              		.file 3 "/usr/bin/../lib/gcc/arm-none-eabi/4.7.4/include/stddef.h"
 938              		.file 4 "/usr/bin/../lib/gcc/arm-none-eabi/4.7.4/../../../../arm-none-eabi/include/stdint.h"
 939              		.file 5 "../../os/ports/GCC/ARMCMx/chtypes.h"
 940              		.file 6 "../../os/kernel/include/chlists.h"
 941              		.file 7 "../../os/kernel/include/chthreads.h"
 942              		.file 8 "../../os/ports/GCC/ARMCMx/chcore_v7m.h"
 943              		.file 9 "../../os/kernel/include/chmtx.h"
 944              		.file 10 "../../os/hal/platforms/STM32F4xx/stm32f4xx.h"
 945              		.file 11 "../../os/hal/platforms/STM32F4xx/stm32_dma.h"
 946              		.file 12 "../../os/hal/platforms/STM32/GPIOv2/pal_lld.h"
 947              		.file 13 "../../os/hal/include/spi.h"
 948              		.file 14 "../../os/hal/platforms/STM32/SPIv1/spi_lld.h"
 949              		.file 15 "../../ext/ugfx/include/gdisp/gdisp.h"
 950              		.file 16 "../../ext/ugfx/include/ginput/lld/mouse.h"
 951              		.file 17 "../../os/ports/common/ARMCMx/CMSIS/include/core_cm4.h"
 952              		.section	.debug_info,"",%progbits
 953              	.Ldebug_info0:
 954 0000 93100000 		.4byte	0x1093
 955 0004 0200     		.2byte	0x2
 956 0006 00000000 		.4byte	.Ldebug_abbrev0
 957 000a 04       		.byte	0x4
 958 000b 01       		.uleb128 0x1
 959 000c 44020000 		.4byte	.LASF140
 960 0010 01       		.byte	0x1
 961 0011 65050000 		.4byte	.LASF141
 962 0015 28040000 		.4byte	.LASF142
 963 0019 B0020000 		.4byte	.Ldebug_ranges0+0x2b0
 964 001d 00000000 		.4byte	0
ARM GAS  /tmp/ccPrDVhe.s 			page 18


 965 0021 00000000 		.4byte	0
 966 0025 00000000 		.4byte	.Ldebug_line0
 967 0029 02       		.uleb128 0x2
 968 002a 04       		.byte	0x4
 969 002b 05       		.byte	0x5
 970 002c 696E7400 		.ascii	"int\000"
 971 0030 03       		.uleb128 0x3
 972 0031 7C010000 		.4byte	.LASF2
 973 0035 03       		.byte	0x3
 974 0036 D5       		.byte	0xd5
 975 0037 3B000000 		.4byte	0x3b
 976 003b 04       		.uleb128 0x4
 977 003c 04       		.byte	0x4
 978 003d 07       		.byte	0x7
 979 003e 9B010000 		.4byte	.LASF0
 980 0042 04       		.uleb128 0x4
 981 0043 01       		.byte	0x1
 982 0044 06       		.byte	0x6
 983 0045 C4000000 		.4byte	.LASF1
 984 0049 03       		.uleb128 0x3
 985 004a B9050000 		.4byte	.LASF3
 986 004e 04       		.byte	0x4
 987 004f 2A       		.byte	0x2a
 988 0050 54000000 		.4byte	0x54
 989 0054 04       		.uleb128 0x4
 990 0055 01       		.byte	0x1
 991 0056 08       		.byte	0x8
 992 0057 AE030000 		.4byte	.LASF4
 993 005b 03       		.uleb128 0x3
 994 005c AE000000 		.4byte	.LASF5
 995 0060 04       		.byte	0x4
 996 0061 35       		.byte	0x35
 997 0062 66000000 		.4byte	0x66
 998 0066 04       		.uleb128 0x4
 999 0067 02       		.byte	0x2
 1000 0068 05       		.byte	0x5
 1001 0069 E7030000 		.4byte	.LASF6
 1002 006d 03       		.uleb128 0x3
 1003 006e 91030000 		.4byte	.LASF7
 1004 0072 04       		.byte	0x4
 1005 0073 36       		.byte	0x36
 1006 0074 78000000 		.4byte	0x78
 1007 0078 04       		.uleb128 0x4
 1008 0079 02       		.byte	0x2
 1009 007a 07       		.byte	0x7
 1010 007b EE010000 		.4byte	.LASF8
 1011 007f 03       		.uleb128 0x3
 1012 0080 A6030000 		.4byte	.LASF9
 1013 0084 04       		.byte	0x4
 1014 0085 4F       		.byte	0x4f
 1015 0086 8A000000 		.4byte	0x8a
 1016 008a 04       		.uleb128 0x4
 1017 008b 04       		.byte	0x4
 1018 008c 05       		.byte	0x5
 1019 008d 05010000 		.4byte	.LASF10
 1020 0091 03       		.uleb128 0x3
 1021 0092 6F040000 		.4byte	.LASF11
ARM GAS  /tmp/ccPrDVhe.s 			page 19


 1022 0096 04       		.byte	0x4
 1023 0097 50       		.byte	0x50
 1024 0098 9C000000 		.4byte	0x9c
 1025 009c 04       		.uleb128 0x4
 1026 009d 04       		.byte	0x4
 1027 009e 07       		.byte	0x7
 1028 009f 86040000 		.4byte	.LASF12
 1029 00a3 04       		.uleb128 0x4
 1030 00a4 08       		.byte	0x8
 1031 00a5 05       		.byte	0x5
 1032 00a6 B6000000 		.4byte	.LASF13
 1033 00aa 04       		.uleb128 0x4
 1034 00ab 08       		.byte	0x8
 1035 00ac 07       		.byte	0x7
 1036 00ad 4D000000 		.4byte	.LASF14
 1037 00b1 03       		.uleb128 0x3
 1038 00b2 E6000000 		.4byte	.LASF15
 1039 00b6 05       		.byte	0x5
 1040 00b7 24       		.byte	0x24
 1041 00b8 BC000000 		.4byte	0xbc
 1042 00bc 04       		.uleb128 0x4
 1043 00bd 01       		.byte	0x1
 1044 00be 02       		.byte	0x2
 1045 00bf A0030000 		.4byte	.LASF16
 1046 00c3 03       		.uleb128 0x3
 1047 00c4 24020000 		.4byte	.LASF17
 1048 00c8 05       		.byte	0x5
 1049 00c9 25       		.byte	0x25
 1050 00ca 49000000 		.4byte	0x49
 1051 00ce 03       		.uleb128 0x3
 1052 00cf 0E010000 		.4byte	.LASF18
 1053 00d3 05       		.byte	0x5
 1054 00d4 26       		.byte	0x26
 1055 00d5 49000000 		.4byte	0x49
 1056 00d9 03       		.uleb128 0x3
 1057 00da 06000000 		.4byte	.LASF19
 1058 00de 05       		.byte	0x5
 1059 00df 27       		.byte	0x27
 1060 00e0 49000000 		.4byte	0x49
 1061 00e4 03       		.uleb128 0x3
 1062 00e5 F5000000 		.4byte	.LASF20
 1063 00e9 05       		.byte	0x5
 1064 00ea 28       		.byte	0x28
 1065 00eb 49000000 		.4byte	0x49
 1066 00ef 03       		.uleb128 0x3
 1067 00f0 89030000 		.4byte	.LASF21
 1068 00f4 05       		.byte	0x5
 1069 00f5 29       		.byte	0x29
 1070 00f6 91000000 		.4byte	0x91
 1071 00fa 03       		.uleb128 0x3
 1072 00fb 01020000 		.4byte	.LASF22
 1073 00ff 05       		.byte	0x5
 1074 0100 2A       		.byte	0x2a
 1075 0101 7F000000 		.4byte	0x7f
 1076 0105 03       		.uleb128 0x3
 1077 0106 38020000 		.4byte	.LASF23
 1078 010a 05       		.byte	0x5
ARM GAS  /tmp/ccPrDVhe.s 			page 20


 1079 010b 2C       		.byte	0x2c
 1080 010c 91000000 		.4byte	0x91
 1081 0110 03       		.uleb128 0x3
 1082 0111 CE040000 		.4byte	.LASF24
 1083 0115 05       		.byte	0x5
 1084 0116 2E       		.byte	0x2e
 1085 0117 91000000 		.4byte	0x91
 1086 011b 03       		.uleb128 0x3
 1087 011c AB050000 		.4byte	.LASF25
 1088 0120 06       		.byte	0x6
 1089 0121 23       		.byte	0x23
 1090 0122 26010000 		.4byte	0x126
 1091 0126 05       		.uleb128 0x5
 1092 0127 AB050000 		.4byte	.LASF25
 1093 012b 48       		.byte	0x48
 1094 012c 07       		.byte	0x7
 1095 012d 57       		.byte	0x57
 1096 012e 4B020000 		.4byte	0x24b
 1097 0132 06       		.uleb128 0x6
 1098 0133 0E040000 		.4byte	.LASF26
 1099 0137 07       		.byte	0x7
 1100 0138 58       		.byte	0x58
 1101 0139 70020000 		.4byte	0x270
 1102 013d 02       		.byte	0x2
 1103 013e 23       		.byte	0x23
 1104 013f 00       		.uleb128 0
 1105 0140 06       		.uleb128 0x6
 1106 0141 64030000 		.4byte	.LASF27
 1107 0145 07       		.byte	0x7
 1108 0146 5A       		.byte	0x5a
 1109 0147 70020000 		.4byte	0x270
 1110 014b 02       		.byte	0x2
 1111 014c 23       		.byte	0x23
 1112 014d 04       		.uleb128 0x4
 1113 014e 06       		.uleb128 0x6
 1114 014f A1000000 		.4byte	.LASF28
 1115 0153 07       		.byte	0x7
 1116 0154 5C       		.byte	0x5c
 1117 0155 EF000000 		.4byte	0xef
 1118 0159 02       		.byte	0x2
 1119 015a 23       		.byte	0x23
 1120 015b 08       		.uleb128 0x8
 1121 015c 06       		.uleb128 0x6
 1122 015d FB050000 		.4byte	.LASF29
 1123 0161 07       		.byte	0x7
 1124 0162 5D       		.byte	0x5d
 1125 0163 2E040000 		.4byte	0x42e
 1126 0167 02       		.byte	0x2
 1127 0168 23       		.byte	0x23
 1128 0169 0C       		.uleb128 0xc
 1129 016a 06       		.uleb128 0x6
 1130 016b 23010000 		.4byte	.LASF30
 1131 016f 07       		.byte	0x7
 1132 0170 5F       		.byte	0x5f
 1133 0171 70020000 		.4byte	0x270
 1134 0175 02       		.byte	0x2
 1135 0176 23       		.byte	0x23
ARM GAS  /tmp/ccPrDVhe.s 			page 21


 1136 0177 10       		.uleb128 0x10
 1137 0178 06       		.uleb128 0x6
 1138 0179 E0020000 		.4byte	.LASF31
 1139 017d 07       		.byte	0x7
 1140 017e 60       		.byte	0x60
 1141 017f 70020000 		.4byte	0x270
 1142 0183 02       		.byte	0x2
 1143 0184 23       		.byte	0x23
 1144 0185 14       		.uleb128 0x14
 1145 0186 06       		.uleb128 0x6
 1146 0187 C8050000 		.4byte	.LASF32
 1147 018b 07       		.byte	0x7
 1148 018c 67       		.byte	0x67
 1149 018d DF040000 		.4byte	0x4df
 1150 0191 02       		.byte	0x2
 1151 0192 23       		.byte	0x23
 1152 0193 18       		.uleb128 0x18
 1153 0194 06       		.uleb128 0x6
 1154 0195 D5030000 		.4byte	.LASF33
 1155 0199 07       		.byte	0x7
 1156 019a 72       		.byte	0x72
 1157 019b CE000000 		.4byte	0xce
 1158 019f 02       		.byte	0x2
 1159 01a0 23       		.byte	0x23
 1160 01a1 1C       		.uleb128 0x1c
 1161 01a2 06       		.uleb128 0x6
 1162 01a3 15040000 		.4byte	.LASF34
 1163 01a7 07       		.byte	0x7
 1164 01a8 76       		.byte	0x76
 1165 01a9 C3000000 		.4byte	0xc3
 1166 01ad 02       		.byte	0x2
 1167 01ae 23       		.byte	0x23
 1168 01af 1D       		.uleb128 0x1d
 1169 01b0 06       		.uleb128 0x6
 1170 01b1 A4050000 		.4byte	.LASF35
 1171 01b5 07       		.byte	0x7
 1172 01b6 7B       		.byte	0x7b
 1173 01b7 D9000000 		.4byte	0xd9
 1174 01bb 02       		.byte	0x2
 1175 01bc 23       		.byte	0x23
 1176 01bd 1E       		.uleb128 0x1e
 1177 01be 06       		.uleb128 0x6
 1178 01bf FD030000 		.4byte	.LASF36
 1179 01c3 07       		.byte	0x7
 1180 01c4 81       		.byte	0x81
 1181 01c5 E4000000 		.4byte	0xe4
 1182 01c9 02       		.byte	0x2
 1183 01ca 23       		.byte	0x23
 1184 01cb 1F       		.uleb128 0x1f
 1185 01cc 06       		.uleb128 0x6
 1186 01cd AE010000 		.4byte	.LASF37
 1187 01d1 07       		.byte	0x7
 1188 01d2 88       		.byte	0x88
 1189 01d3 5D040000 		.4byte	0x45d
 1190 01d7 02       		.byte	0x2
 1191 01d8 23       		.byte	0x23
 1192 01d9 20       		.uleb128 0x20
ARM GAS  /tmp/ccPrDVhe.s 			page 22


 1193 01da 07       		.uleb128 0x7
 1194 01db 705F7500 		.ascii	"p_u\000"
 1195 01df 07       		.byte	0x7
 1196 01e0 AD       		.byte	0xad
 1197 01e1 AA040000 		.4byte	0x4aa
 1198 01e5 02       		.byte	0x2
 1199 01e6 23       		.byte	0x23
 1200 01e7 24       		.uleb128 0x24
 1201 01e8 06       		.uleb128 0x6
 1202 01e9 01060000 		.4byte	.LASF38
 1203 01ed 07       		.byte	0x7
 1204 01ee B2       		.byte	0xb2
 1205 01ef 98020000 		.4byte	0x298
 1206 01f3 02       		.byte	0x2
 1207 01f4 23       		.byte	0x23
 1208 01f5 28       		.uleb128 0x28
 1209 01f6 06       		.uleb128 0x6
 1210 01f7 CB010000 		.4byte	.LASF39
 1211 01fb 07       		.byte	0x7
 1212 01fc B8       		.byte	0xb8
 1213 01fd 76020000 		.4byte	0x276
 1214 0201 02       		.byte	0x2
 1215 0202 23       		.byte	0x23
 1216 0203 2C       		.uleb128 0x2c
 1217 0204 06       		.uleb128 0x6
 1218 0205 D9050000 		.4byte	.LASF40
 1219 0209 07       		.byte	0x7
 1220 020a BC       		.byte	0xbc
 1221 020b FA000000 		.4byte	0xfa
 1222 020f 02       		.byte	0x2
 1223 0210 23       		.byte	0x23
 1224 0211 34       		.uleb128 0x34
 1225 0212 06       		.uleb128 0x6
 1226 0213 B9020000 		.4byte	.LASF41
 1227 0217 07       		.byte	0x7
 1228 0218 C2       		.byte	0xc2
 1229 0219 05010000 		.4byte	0x105
 1230 021d 02       		.byte	0x2
 1231 021e 23       		.byte	0x23
 1232 021f 38       		.uleb128 0x38
 1233 0220 06       		.uleb128 0x6
 1234 0221 DD030000 		.4byte	.LASF42
 1235 0225 07       		.byte	0x7
 1236 0226 C9       		.byte	0xc9
 1237 0227 F1040000 		.4byte	0x4f1
 1238 022b 02       		.byte	0x2
 1239 022c 23       		.byte	0x23
 1240 022d 3C       		.uleb128 0x3c
 1241 022e 06       		.uleb128 0x6
 1242 022f D8040000 		.4byte	.LASF43
 1243 0233 07       		.byte	0x7
 1244 0234 CD       		.byte	0xcd
 1245 0235 EF000000 		.4byte	0xef
 1246 0239 02       		.byte	0x2
 1247 023a 23       		.byte	0x23
 1248 023b 40       		.uleb128 0x40
 1249 023c 06       		.uleb128 0x6
ARM GAS  /tmp/ccPrDVhe.s 			page 23


 1250 023d 59010000 		.4byte	.LASF44
 1251 0241 07       		.byte	0x7
 1252 0242 D3       		.byte	0xd3
 1253 0243 AE020000 		.4byte	0x2ae
 1254 0247 02       		.byte	0x2
 1255 0248 23       		.byte	0x23
 1256 0249 44       		.uleb128 0x44
 1257 024a 00       		.byte	0
 1258 024b 08       		.uleb128 0x8
 1259 024c 08       		.byte	0x8
 1260 024d 06       		.byte	0x6
 1261 024e 5A       		.byte	0x5a
 1262 024f 70020000 		.4byte	0x270
 1263 0253 06       		.uleb128 0x6
 1264 0254 0E040000 		.4byte	.LASF26
 1265 0258 06       		.byte	0x6
 1266 0259 5B       		.byte	0x5b
 1267 025a 70020000 		.4byte	0x270
 1268 025e 02       		.byte	0x2
 1269 025f 23       		.byte	0x23
 1270 0260 00       		.uleb128 0
 1271 0261 06       		.uleb128 0x6
 1272 0262 64030000 		.4byte	.LASF27
 1273 0266 06       		.byte	0x6
 1274 0267 5D       		.byte	0x5d
 1275 0268 70020000 		.4byte	0x270
 1276 026c 02       		.byte	0x2
 1277 026d 23       		.byte	0x23
 1278 026e 04       		.uleb128 0x4
 1279 026f 00       		.byte	0
 1280 0270 09       		.uleb128 0x9
 1281 0271 04       		.byte	0x4
 1282 0272 1B010000 		.4byte	0x11b
 1283 0276 03       		.uleb128 0x3
 1284 0277 E8020000 		.4byte	.LASF45
 1285 027b 06       		.byte	0x6
 1286 027c 5F       		.byte	0x5f
 1287 027d 4B020000 		.4byte	0x24b
 1288 0281 08       		.uleb128 0x8
 1289 0282 04       		.byte	0x4
 1290 0283 06       		.byte	0x6
 1291 0284 64       		.byte	0x64
 1292 0285 98020000 		.4byte	0x298
 1293 0289 06       		.uleb128 0x6
 1294 028a 0E040000 		.4byte	.LASF26
 1295 028e 06       		.byte	0x6
 1296 028f 66       		.byte	0x66
 1297 0290 70020000 		.4byte	0x270
 1298 0294 02       		.byte	0x2
 1299 0295 23       		.byte	0x23
 1300 0296 00       		.uleb128 0
 1301 0297 00       		.byte	0
 1302 0298 03       		.uleb128 0x3
 1303 0299 2C020000 		.4byte	.LASF46
 1304 029d 06       		.byte	0x6
 1305 029e 69       		.byte	0x69
 1306 029f 81020000 		.4byte	0x281
ARM GAS  /tmp/ccPrDVhe.s 			page 24


 1307 02a3 03       		.uleb128 0x3
 1308 02a4 61010000 		.4byte	.LASF47
 1309 02a8 08       		.byte	0x8
 1310 02a9 DE       		.byte	0xde
 1311 02aa AE020000 		.4byte	0x2ae
 1312 02ae 0A       		.uleb128 0xa
 1313 02af 04       		.byte	0x4
 1314 02b0 0B       		.uleb128 0xb
 1315 02b1 47050000 		.4byte	.LASF48
 1316 02b5 64       		.byte	0x64
 1317 02b6 08       		.byte	0x8
 1318 02b7 0501     		.2byte	0x105
 1319 02b9 2E040000 		.4byte	0x42e
 1320 02bd 0C       		.uleb128 0xc
 1321 02be 73313600 		.ascii	"s16\000"
 1322 02c2 08       		.byte	0x8
 1323 02c3 0701     		.2byte	0x107
 1324 02c5 A3020000 		.4byte	0x2a3
 1325 02c9 02       		.byte	0x2
 1326 02ca 23       		.byte	0x23
 1327 02cb 00       		.uleb128 0
 1328 02cc 0C       		.uleb128 0xc
 1329 02cd 73313700 		.ascii	"s17\000"
 1330 02d1 08       		.byte	0x8
 1331 02d2 0801     		.2byte	0x108
 1332 02d4 A3020000 		.4byte	0x2a3
 1333 02d8 02       		.byte	0x2
 1334 02d9 23       		.byte	0x23
 1335 02da 04       		.uleb128 0x4
 1336 02db 0C       		.uleb128 0xc
 1337 02dc 73313800 		.ascii	"s18\000"
 1338 02e0 08       		.byte	0x8
 1339 02e1 0901     		.2byte	0x109
 1340 02e3 A3020000 		.4byte	0x2a3
 1341 02e7 02       		.byte	0x2
 1342 02e8 23       		.byte	0x23
 1343 02e9 08       		.uleb128 0x8
 1344 02ea 0C       		.uleb128 0xc
 1345 02eb 73313900 		.ascii	"s19\000"
 1346 02ef 08       		.byte	0x8
 1347 02f0 0A01     		.2byte	0x10a
 1348 02f2 A3020000 		.4byte	0x2a3
 1349 02f6 02       		.byte	0x2
 1350 02f7 23       		.byte	0x23
 1351 02f8 0C       		.uleb128 0xc
 1352 02f9 0C       		.uleb128 0xc
 1353 02fa 73323000 		.ascii	"s20\000"
 1354 02fe 08       		.byte	0x8
 1355 02ff 0B01     		.2byte	0x10b
 1356 0301 A3020000 		.4byte	0x2a3
 1357 0305 02       		.byte	0x2
 1358 0306 23       		.byte	0x23
 1359 0307 10       		.uleb128 0x10
 1360 0308 0C       		.uleb128 0xc
 1361 0309 73323100 		.ascii	"s21\000"
 1362 030d 08       		.byte	0x8
 1363 030e 0C01     		.2byte	0x10c
ARM GAS  /tmp/ccPrDVhe.s 			page 25


 1364 0310 A3020000 		.4byte	0x2a3
 1365 0314 02       		.byte	0x2
 1366 0315 23       		.byte	0x23
 1367 0316 14       		.uleb128 0x14
 1368 0317 0C       		.uleb128 0xc
 1369 0318 73323200 		.ascii	"s22\000"
 1370 031c 08       		.byte	0x8
 1371 031d 0D01     		.2byte	0x10d
 1372 031f A3020000 		.4byte	0x2a3
 1373 0323 02       		.byte	0x2
 1374 0324 23       		.byte	0x23
 1375 0325 18       		.uleb128 0x18
 1376 0326 0C       		.uleb128 0xc
 1377 0327 73323300 		.ascii	"s23\000"
 1378 032b 08       		.byte	0x8
 1379 032c 0E01     		.2byte	0x10e
 1380 032e A3020000 		.4byte	0x2a3
 1381 0332 02       		.byte	0x2
 1382 0333 23       		.byte	0x23
 1383 0334 1C       		.uleb128 0x1c
 1384 0335 0C       		.uleb128 0xc
 1385 0336 73323400 		.ascii	"s24\000"
 1386 033a 08       		.byte	0x8
 1387 033b 0F01     		.2byte	0x10f
 1388 033d A3020000 		.4byte	0x2a3
 1389 0341 02       		.byte	0x2
 1390 0342 23       		.byte	0x23
 1391 0343 20       		.uleb128 0x20
 1392 0344 0C       		.uleb128 0xc
 1393 0345 73323500 		.ascii	"s25\000"
 1394 0349 08       		.byte	0x8
 1395 034a 1001     		.2byte	0x110
 1396 034c A3020000 		.4byte	0x2a3
 1397 0350 02       		.byte	0x2
 1398 0351 23       		.byte	0x23
 1399 0352 24       		.uleb128 0x24
 1400 0353 0C       		.uleb128 0xc
 1401 0354 73323600 		.ascii	"s26\000"
 1402 0358 08       		.byte	0x8
 1403 0359 1101     		.2byte	0x111
 1404 035b A3020000 		.4byte	0x2a3
 1405 035f 02       		.byte	0x2
 1406 0360 23       		.byte	0x23
 1407 0361 28       		.uleb128 0x28
 1408 0362 0C       		.uleb128 0xc
 1409 0363 73323700 		.ascii	"s27\000"
 1410 0367 08       		.byte	0x8
 1411 0368 1201     		.2byte	0x112
 1412 036a A3020000 		.4byte	0x2a3
 1413 036e 02       		.byte	0x2
 1414 036f 23       		.byte	0x23
 1415 0370 2C       		.uleb128 0x2c
 1416 0371 0C       		.uleb128 0xc
 1417 0372 73323800 		.ascii	"s28\000"
 1418 0376 08       		.byte	0x8
 1419 0377 1301     		.2byte	0x113
 1420 0379 A3020000 		.4byte	0x2a3
ARM GAS  /tmp/ccPrDVhe.s 			page 26


 1421 037d 02       		.byte	0x2
 1422 037e 23       		.byte	0x23
 1423 037f 30       		.uleb128 0x30
 1424 0380 0C       		.uleb128 0xc
 1425 0381 73323900 		.ascii	"s29\000"
 1426 0385 08       		.byte	0x8
 1427 0386 1401     		.2byte	0x114
 1428 0388 A3020000 		.4byte	0x2a3
 1429 038c 02       		.byte	0x2
 1430 038d 23       		.byte	0x23
 1431 038e 34       		.uleb128 0x34
 1432 038f 0C       		.uleb128 0xc
 1433 0390 73333000 		.ascii	"s30\000"
 1434 0394 08       		.byte	0x8
 1435 0395 1501     		.2byte	0x115
 1436 0397 A3020000 		.4byte	0x2a3
 1437 039b 02       		.byte	0x2
 1438 039c 23       		.byte	0x23
 1439 039d 38       		.uleb128 0x38
 1440 039e 0C       		.uleb128 0xc
 1441 039f 73333100 		.ascii	"s31\000"
 1442 03a3 08       		.byte	0x8
 1443 03a4 1601     		.2byte	0x116
 1444 03a6 A3020000 		.4byte	0x2a3
 1445 03aa 02       		.byte	0x2
 1446 03ab 23       		.byte	0x23
 1447 03ac 3C       		.uleb128 0x3c
 1448 03ad 0C       		.uleb128 0xc
 1449 03ae 723400   		.ascii	"r4\000"
 1450 03b1 08       		.byte	0x8
 1451 03b2 1801     		.2byte	0x118
 1452 03b4 A3020000 		.4byte	0x2a3
 1453 03b8 02       		.byte	0x2
 1454 03b9 23       		.byte	0x23
 1455 03ba 40       		.uleb128 0x40
 1456 03bb 0C       		.uleb128 0xc
 1457 03bc 723500   		.ascii	"r5\000"
 1458 03bf 08       		.byte	0x8
 1459 03c0 1901     		.2byte	0x119
 1460 03c2 A3020000 		.4byte	0x2a3
 1461 03c6 02       		.byte	0x2
 1462 03c7 23       		.byte	0x23
 1463 03c8 44       		.uleb128 0x44
 1464 03c9 0C       		.uleb128 0xc
 1465 03ca 723600   		.ascii	"r6\000"
 1466 03cd 08       		.byte	0x8
 1467 03ce 1A01     		.2byte	0x11a
 1468 03d0 A3020000 		.4byte	0x2a3
 1469 03d4 02       		.byte	0x2
 1470 03d5 23       		.byte	0x23
 1471 03d6 48       		.uleb128 0x48
 1472 03d7 0C       		.uleb128 0xc
 1473 03d8 723700   		.ascii	"r7\000"
 1474 03db 08       		.byte	0x8
 1475 03dc 1B01     		.2byte	0x11b
 1476 03de A3020000 		.4byte	0x2a3
 1477 03e2 02       		.byte	0x2
ARM GAS  /tmp/ccPrDVhe.s 			page 27


 1478 03e3 23       		.byte	0x23
 1479 03e4 4C       		.uleb128 0x4c
 1480 03e5 0C       		.uleb128 0xc
 1481 03e6 723800   		.ascii	"r8\000"
 1482 03e9 08       		.byte	0x8
 1483 03ea 1C01     		.2byte	0x11c
 1484 03ec A3020000 		.4byte	0x2a3
 1485 03f0 02       		.byte	0x2
 1486 03f1 23       		.byte	0x23
 1487 03f2 50       		.uleb128 0x50
 1488 03f3 0C       		.uleb128 0xc
 1489 03f4 723900   		.ascii	"r9\000"
 1490 03f7 08       		.byte	0x8
 1491 03f8 1D01     		.2byte	0x11d
 1492 03fa A3020000 		.4byte	0x2a3
 1493 03fe 02       		.byte	0x2
 1494 03ff 23       		.byte	0x23
 1495 0400 54       		.uleb128 0x54
 1496 0401 0C       		.uleb128 0xc
 1497 0402 72313000 		.ascii	"r10\000"
 1498 0406 08       		.byte	0x8
 1499 0407 1E01     		.2byte	0x11e
 1500 0409 A3020000 		.4byte	0x2a3
 1501 040d 02       		.byte	0x2
 1502 040e 23       		.byte	0x23
 1503 040f 58       		.uleb128 0x58
 1504 0410 0C       		.uleb128 0xc
 1505 0411 72313100 		.ascii	"r11\000"
 1506 0415 08       		.byte	0x8
 1507 0416 1F01     		.2byte	0x11f
 1508 0418 A3020000 		.4byte	0x2a3
 1509 041c 02       		.byte	0x2
 1510 041d 23       		.byte	0x23
 1511 041e 5C       		.uleb128 0x5c
 1512 041f 0C       		.uleb128 0xc
 1513 0420 6C7200   		.ascii	"lr\000"
 1514 0423 08       		.byte	0x8
 1515 0424 2001     		.2byte	0x120
 1516 0426 A3020000 		.4byte	0x2a3
 1517 042a 02       		.byte	0x2
 1518 042b 23       		.byte	0x23
 1519 042c 60       		.uleb128 0x60
 1520 042d 00       		.byte	0
 1521 042e 0B       		.uleb128 0xb
 1522 042f 20050000 		.4byte	.LASF49
 1523 0433 04       		.byte	0x4
 1524 0434 08       		.byte	0x8
 1525 0435 2A01     		.2byte	0x12a
 1526 0437 4B040000 		.4byte	0x44b
 1527 043b 0C       		.uleb128 0xc
 1528 043c 72313300 		.ascii	"r13\000"
 1529 0440 08       		.byte	0x8
 1530 0441 2B01     		.2byte	0x12b
 1531 0443 4B040000 		.4byte	0x44b
 1532 0447 02       		.byte	0x2
 1533 0448 23       		.byte	0x23
 1534 0449 00       		.uleb128 0
ARM GAS  /tmp/ccPrDVhe.s 			page 28


 1535 044a 00       		.byte	0
 1536 044b 09       		.uleb128 0x9
 1537 044c 04       		.byte	0x4
 1538 044d B0020000 		.4byte	0x2b0
 1539 0451 0D       		.uleb128 0xd
 1540 0452 91000000 		.4byte	0x91
 1541 0456 04       		.uleb128 0x4
 1542 0457 04       		.byte	0x4
 1543 0458 07       		.byte	0x7
 1544 0459 A4020000 		.4byte	.LASF50
 1545 045d 0D       		.uleb128 0xd
 1546 045e 10010000 		.4byte	0x110
 1547 0462 05       		.uleb128 0x5
 1548 0463 B3020000 		.4byte	.LASF51
 1549 0467 10       		.byte	0x10
 1550 0468 09       		.byte	0x9
 1551 0469 25       		.byte	0x25
 1552 046a 99040000 		.4byte	0x499
 1553 046e 06       		.uleb128 0x6
 1554 046f ED000000 		.4byte	.LASF52
 1555 0473 09       		.byte	0x9
 1556 0474 26       		.byte	0x26
 1557 0475 76020000 		.4byte	0x276
 1558 0479 02       		.byte	0x2
 1559 047a 23       		.byte	0x23
 1560 047b 00       		.uleb128 0
 1561 047c 06       		.uleb128 0x6
 1562 047d F3050000 		.4byte	.LASF53
 1563 0481 09       		.byte	0x9
 1564 0482 28       		.byte	0x28
 1565 0483 70020000 		.4byte	0x270
 1566 0487 02       		.byte	0x2
 1567 0488 23       		.byte	0x23
 1568 0489 08       		.uleb128 0x8
 1569 048a 06       		.uleb128 0x6
 1570 048b C7040000 		.4byte	.LASF54
 1571 048f 09       		.byte	0x9
 1572 0490 2A       		.byte	0x2a
 1573 0491 99040000 		.4byte	0x499
 1574 0495 02       		.byte	0x2
 1575 0496 23       		.byte	0x23
 1576 0497 0C       		.uleb128 0xc
 1577 0498 00       		.byte	0
 1578 0499 09       		.uleb128 0x9
 1579 049a 04       		.byte	0x4
 1580 049b 62040000 		.4byte	0x462
 1581 049f 03       		.uleb128 0x3
 1582 04a0 B3020000 		.4byte	.LASF51
 1583 04a4 09       		.byte	0x9
 1584 04a5 2C       		.byte	0x2c
 1585 04a6 62040000 		.4byte	0x462
 1586 04aa 0E       		.uleb128 0xe
 1587 04ab 04       		.byte	0x4
 1588 04ac 07       		.byte	0x7
 1589 04ad 8F       		.byte	0x8f
 1590 04ae DF040000 		.4byte	0x4df
 1591 04b2 0F       		.uleb128 0xf
ARM GAS  /tmp/ccPrDVhe.s 			page 29


 1592 04b3 13000000 		.4byte	.LASF55
 1593 04b7 07       		.byte	0x7
 1594 04b8 96       		.byte	0x96
 1595 04b9 FA000000 		.4byte	0xfa
 1596 04bd 0F       		.uleb128 0xf
 1597 04be 74000000 		.4byte	.LASF56
 1598 04c2 07       		.byte	0x7
 1599 04c3 9D       		.byte	0x9d
 1600 04c4 FA000000 		.4byte	0xfa
 1601 04c8 0F       		.uleb128 0xf
 1602 04c9 C1050000 		.4byte	.LASF57
 1603 04cd 07       		.byte	0x7
 1604 04ce A4       		.byte	0xa4
 1605 04cf AE020000 		.4byte	0x2ae
 1606 04d3 0F       		.uleb128 0xf
 1607 04d4 07040000 		.4byte	.LASF58
 1608 04d8 07       		.byte	0x7
 1609 04d9 AB       		.byte	0xab
 1610 04da 05010000 		.4byte	0x105
 1611 04de 00       		.byte	0
 1612 04df 09       		.uleb128 0x9
 1613 04e0 04       		.byte	0x4
 1614 04e1 E5040000 		.4byte	0x4e5
 1615 04e5 10       		.uleb128 0x10
 1616 04e6 EA040000 		.4byte	0x4ea
 1617 04ea 04       		.uleb128 0x4
 1618 04eb 01       		.byte	0x1
 1619 04ec 08       		.byte	0x8
 1620 04ed A3040000 		.4byte	.LASF59
 1621 04f1 09       		.uleb128 0x9
 1622 04f2 04       		.byte	0x4
 1623 04f3 9F040000 		.4byte	0x49f
 1624 04f7 0D       		.uleb128 0xd
 1625 04f8 6D000000 		.4byte	0x6d
 1626 04fc 0D       		.uleb128 0xd
 1627 04fd 7F000000 		.4byte	0x7f
 1628 0501 11       		.uleb128 0x11
 1629 0502 18       		.byte	0x18
 1630 0503 0A       		.byte	0xa
 1631 0504 D301     		.2byte	0x1d3
 1632 0506 64050000 		.4byte	0x564
 1633 050a 0C       		.uleb128 0xc
 1634 050b 435200   		.ascii	"CR\000"
 1635 050e 0A       		.byte	0xa
 1636 050f D501     		.2byte	0x1d5
 1637 0511 51040000 		.4byte	0x451
 1638 0515 02       		.byte	0x2
 1639 0516 23       		.byte	0x23
 1640 0517 00       		.uleb128 0
 1641 0518 12       		.uleb128 0x12
 1642 0519 8D020000 		.4byte	.LASF60
 1643 051d 0A       		.byte	0xa
 1644 051e D601     		.2byte	0x1d6
 1645 0520 51040000 		.4byte	0x451
 1646 0524 02       		.byte	0x2
 1647 0525 23       		.byte	0x23
 1648 0526 04       		.uleb128 0x4
ARM GAS  /tmp/ccPrDVhe.s 			page 30


 1649 0527 0C       		.uleb128 0xc
 1650 0528 50415200 		.ascii	"PAR\000"
 1651 052c 0A       		.byte	0xa
 1652 052d D701     		.2byte	0x1d7
 1653 052f 51040000 		.4byte	0x451
 1654 0533 02       		.byte	0x2
 1655 0534 23       		.byte	0x23
 1656 0535 08       		.uleb128 0x8
 1657 0536 12       		.uleb128 0x12
 1658 0537 0E000000 		.4byte	.LASF61
 1659 053b 0A       		.byte	0xa
 1660 053c D801     		.2byte	0x1d8
 1661 053e 51040000 		.4byte	0x451
 1662 0542 02       		.byte	0x2
 1663 0543 23       		.byte	0x23
 1664 0544 0C       		.uleb128 0xc
 1665 0545 12       		.uleb128 0x12
 1666 0546 4E050000 		.4byte	.LASF62
 1667 054a 0A       		.byte	0xa
 1668 054b D901     		.2byte	0x1d9
 1669 054d 51040000 		.4byte	0x451
 1670 0551 02       		.byte	0x2
 1671 0552 23       		.byte	0x23
 1672 0553 10       		.uleb128 0x10
 1673 0554 0C       		.uleb128 0xc
 1674 0555 46435200 		.ascii	"FCR\000"
 1675 0559 0A       		.byte	0xa
 1676 055a DA01     		.2byte	0x1da
 1677 055c 51040000 		.4byte	0x451
 1678 0560 02       		.byte	0x2
 1679 0561 23       		.byte	0x23
 1680 0562 14       		.uleb128 0x14
 1681 0563 00       		.byte	0
 1682 0564 13       		.uleb128 0x13
 1683 0565 02050000 		.4byte	.LASF63
 1684 0569 0A       		.byte	0xa
 1685 056a DB01     		.2byte	0x1db
 1686 056c 01050000 		.4byte	0x501
 1687 0570 11       		.uleb128 0x11
 1688 0571 24       		.byte	0x24
 1689 0572 0A       		.byte	0xa
 1690 0573 4D03     		.2byte	0x34d
 1691 0575 86060000 		.4byte	0x686
 1692 0579 0C       		.uleb128 0xc
 1693 057a 43523100 		.ascii	"CR1\000"
 1694 057e 0A       		.byte	0xa
 1695 057f 4F03     		.2byte	0x34f
 1696 0581 F7040000 		.4byte	0x4f7
 1697 0585 02       		.byte	0x2
 1698 0586 23       		.byte	0x23
 1699 0587 00       		.uleb128 0
 1700 0588 12       		.uleb128 0x12
 1701 0589 32030000 		.4byte	.LASF64
 1702 058d 0A       		.byte	0xa
 1703 058e 5003     		.2byte	0x350
 1704 0590 6D000000 		.4byte	0x6d
 1705 0594 02       		.byte	0x2
ARM GAS  /tmp/ccPrDVhe.s 			page 31


 1706 0595 23       		.byte	0x23
 1707 0596 02       		.uleb128 0x2
 1708 0597 0C       		.uleb128 0xc
 1709 0598 43523200 		.ascii	"CR2\000"
 1710 059c 0A       		.byte	0xa
 1711 059d 5103     		.2byte	0x351
 1712 059f F7040000 		.4byte	0x4f7
 1713 05a3 02       		.byte	0x2
 1714 05a4 23       		.byte	0x23
 1715 05a5 04       		.uleb128 0x4
 1716 05a6 12       		.uleb128 0x12
 1717 05a7 3C030000 		.4byte	.LASF65
 1718 05ab 0A       		.byte	0xa
 1719 05ac 5203     		.2byte	0x352
 1720 05ae 6D000000 		.4byte	0x6d
 1721 05b2 02       		.byte	0x2
 1722 05b3 23       		.byte	0x23
 1723 05b4 06       		.uleb128 0x6
 1724 05b5 0C       		.uleb128 0xc
 1725 05b6 535200   		.ascii	"SR\000"
 1726 05b9 0A       		.byte	0xa
 1727 05ba 5303     		.2byte	0x353
 1728 05bc F7040000 		.4byte	0x4f7
 1729 05c0 02       		.byte	0x2
 1730 05c1 23       		.byte	0x23
 1731 05c2 08       		.uleb128 0x8
 1732 05c3 12       		.uleb128 0x12
 1733 05c4 46030000 		.4byte	.LASF66
 1734 05c8 0A       		.byte	0xa
 1735 05c9 5403     		.2byte	0x354
 1736 05cb 6D000000 		.4byte	0x6d
 1737 05cf 02       		.byte	0x2
 1738 05d0 23       		.byte	0x23
 1739 05d1 0A       		.uleb128 0xa
 1740 05d2 0C       		.uleb128 0xc
 1741 05d3 445200   		.ascii	"DR\000"
 1742 05d6 0A       		.byte	0xa
 1743 05d7 5503     		.2byte	0x355
 1744 05d9 F7040000 		.4byte	0x4f7
 1745 05dd 02       		.byte	0x2
 1746 05de 23       		.byte	0x23
 1747 05df 0C       		.uleb128 0xc
 1748 05e0 12       		.uleb128 0x12
 1749 05e1 50030000 		.4byte	.LASF67
 1750 05e5 0A       		.byte	0xa
 1751 05e6 5603     		.2byte	0x356
 1752 05e8 6D000000 		.4byte	0x6d
 1753 05ec 02       		.byte	0x2
 1754 05ed 23       		.byte	0x23
 1755 05ee 0E       		.uleb128 0xe
 1756 05ef 12       		.uleb128 0x12
 1757 05f0 20030000 		.4byte	.LASF68
 1758 05f4 0A       		.byte	0xa
 1759 05f5 5703     		.2byte	0x357
 1760 05f7 F7040000 		.4byte	0x4f7
 1761 05fb 02       		.byte	0x2
 1762 05fc 23       		.byte	0x23
ARM GAS  /tmp/ccPrDVhe.s 			page 32


 1763 05fd 10       		.uleb128 0x10
 1764 05fe 12       		.uleb128 0x12
 1765 05ff 5A030000 		.4byte	.LASF69
 1766 0603 0A       		.byte	0xa
 1767 0604 5803     		.2byte	0x358
 1768 0606 6D000000 		.4byte	0x6d
 1769 060a 02       		.byte	0x2
 1770 060b 23       		.byte	0x23
 1771 060c 12       		.uleb128 0x12
 1772 060d 12       		.uleb128 0x12
 1773 060e B2050000 		.4byte	.LASF70
 1774 0612 0A       		.byte	0xa
 1775 0613 5903     		.2byte	0x359
 1776 0615 F7040000 		.4byte	0x4f7
 1777 0619 02       		.byte	0x2
 1778 061a 23       		.byte	0x23
 1779 061b 14       		.uleb128 0x14
 1780 061c 12       		.uleb128 0x12
 1781 061d 65040000 		.4byte	.LASF71
 1782 0621 0A       		.byte	0xa
 1783 0622 5A03     		.2byte	0x35a
 1784 0624 6D000000 		.4byte	0x6d
 1785 0628 02       		.byte	0x2
 1786 0629 23       		.byte	0x23
 1787 062a 16       		.uleb128 0x16
 1788 062b 12       		.uleb128 0x12
 1789 062c 2B030000 		.4byte	.LASF72
 1790 0630 0A       		.byte	0xa
 1791 0631 5B03     		.2byte	0x35b
 1792 0633 F7040000 		.4byte	0x4f7
 1793 0637 02       		.byte	0x2
 1794 0638 23       		.byte	0x23
 1795 0639 18       		.uleb128 0x18
 1796 063a 12       		.uleb128 0x12
 1797 063b 6B030000 		.4byte	.LASF73
 1798 063f 0A       		.byte	0xa
 1799 0640 5C03     		.2byte	0x35c
 1800 0642 6D000000 		.4byte	0x6d
 1801 0646 02       		.byte	0x2
 1802 0647 23       		.byte	0x23
 1803 0648 1A       		.uleb128 0x1a
 1804 0649 12       		.uleb128 0x12
 1805 064a DE000000 		.4byte	.LASF74
 1806 064e 0A       		.byte	0xa
 1807 064f 5D03     		.2byte	0x35d
 1808 0651 F7040000 		.4byte	0x4f7
 1809 0655 02       		.byte	0x2
 1810 0656 23       		.byte	0x23
 1811 0657 1C       		.uleb128 0x1c
 1812 0658 12       		.uleb128 0x12
 1813 0659 75030000 		.4byte	.LASF75
 1814 065d 0A       		.byte	0xa
 1815 065e 5E03     		.2byte	0x35e
 1816 0660 6D000000 		.4byte	0x6d
 1817 0664 02       		.byte	0x2
 1818 0665 23       		.byte	0x23
 1819 0666 1E       		.uleb128 0x1e
ARM GAS  /tmp/ccPrDVhe.s 			page 33


 1820 0667 12       		.uleb128 0x12
 1821 0668 9E020000 		.4byte	.LASF76
 1822 066c 0A       		.byte	0xa
 1823 066d 5F03     		.2byte	0x35f
 1824 066f F7040000 		.4byte	0x4f7
 1825 0673 02       		.byte	0x2
 1826 0674 23       		.byte	0x23
 1827 0675 20       		.uleb128 0x20
 1828 0676 12       		.uleb128 0x12
 1829 0677 7F030000 		.4byte	.LASF77
 1830 067b 0A       		.byte	0xa
 1831 067c 6003     		.2byte	0x360
 1832 067e 6D000000 		.4byte	0x6d
 1833 0682 02       		.byte	0x2
 1834 0683 23       		.byte	0x23
 1835 0684 22       		.uleb128 0x22
 1836 0685 00       		.byte	0
 1837 0686 13       		.uleb128 0x13
 1838 0687 17010000 		.4byte	.LASF78
 1839 068b 0A       		.byte	0xa
 1840 068c 6103     		.2byte	0x361
 1841 068e 70050000 		.4byte	0x570
 1842 0692 08       		.uleb128 0x8
 1843 0693 0C       		.byte	0xc
 1844 0694 0B       		.byte	0xb
 1845 0695 DA       		.byte	0xda
 1846 0696 E1060000 		.4byte	0x6e1
 1847 069a 06       		.uleb128 0x6
 1848 069b 40000000 		.4byte	.LASF79
 1849 069f 0B       		.byte	0xb
 1850 06a0 DB       		.byte	0xdb
 1851 06a1 E1060000 		.4byte	0x6e1
 1852 06a5 02       		.byte	0x2
 1853 06a6 23       		.byte	0x23
 1854 06a7 00       		.uleb128 0
 1855 06a8 06       		.uleb128 0x6
 1856 06a9 60040000 		.4byte	.LASF80
 1857 06ad 0B       		.byte	0xb
 1858 06ae DC       		.byte	0xdc
 1859 06af E7060000 		.4byte	0x6e7
 1860 06b3 02       		.byte	0x2
 1861 06b4 23       		.byte	0x23
 1862 06b5 04       		.uleb128 0x4
 1863 06b6 06       		.uleb128 0x6
 1864 06b7 E7010000 		.4byte	.LASF81
 1865 06bb 0B       		.byte	0xb
 1866 06bc DD       		.byte	0xdd
 1867 06bd 49000000 		.4byte	0x49
 1868 06c1 02       		.byte	0x2
 1869 06c2 23       		.byte	0x23
 1870 06c3 08       		.uleb128 0x8
 1871 06c4 06       		.uleb128 0x6
 1872 06c5 6A010000 		.4byte	.LASF82
 1873 06c9 0B       		.byte	0xb
 1874 06ca DF       		.byte	0xdf
 1875 06cb 49000000 		.4byte	0x49
 1876 06cf 02       		.byte	0x2
ARM GAS  /tmp/ccPrDVhe.s 			page 34


 1877 06d0 23       		.byte	0x23
 1878 06d1 09       		.uleb128 0x9
 1879 06d2 06       		.uleb128 0x6
 1880 06d3 1A000000 		.4byte	.LASF83
 1881 06d7 0B       		.byte	0xb
 1882 06d8 E0       		.byte	0xe0
 1883 06d9 49000000 		.4byte	0x49
 1884 06dd 02       		.byte	0x2
 1885 06de 23       		.byte	0x23
 1886 06df 0A       		.uleb128 0xa
 1887 06e0 00       		.byte	0
 1888 06e1 09       		.uleb128 0x9
 1889 06e2 04       		.byte	0x4
 1890 06e3 64050000 		.4byte	0x564
 1891 06e7 09       		.uleb128 0x9
 1892 06e8 04       		.byte	0x4
 1893 06e9 51040000 		.4byte	0x451
 1894 06ed 03       		.uleb128 0x3
 1895 06ee BC030000 		.4byte	.LASF84
 1896 06f2 0B       		.byte	0xb
 1897 06f3 E1       		.byte	0xe1
 1898 06f4 92060000 		.4byte	0x692
 1899 06f8 08       		.uleb128 0x8
 1900 06f9 04       		.byte	0x4
 1901 06fa 0C       		.byte	0xc
 1902 06fb 96       		.byte	0x96
 1903 06fc 1D070000 		.4byte	0x71d
 1904 0700 07       		.uleb128 0x7
 1905 0701 73657400 		.ascii	"set\000"
 1906 0705 0C       		.byte	0xc
 1907 0706 97       		.byte	0x97
 1908 0707 6D000000 		.4byte	0x6d
 1909 070b 02       		.byte	0x2
 1910 070c 23       		.byte	0x23
 1911 070d 00       		.uleb128 0
 1912 070e 06       		.uleb128 0x6
 1913 070f AD020000 		.4byte	.LASF85
 1914 0713 0C       		.byte	0xc
 1915 0714 98       		.byte	0x98
 1916 0715 6D000000 		.4byte	0x6d
 1917 0719 02       		.byte	0x2
 1918 071a 23       		.byte	0x23
 1919 071b 02       		.uleb128 0x2
 1920 071c 00       		.byte	0
 1921 071d 0E       		.uleb128 0xe
 1922 071e 04       		.byte	0x4
 1923 071f 0C       		.byte	0xc
 1924 0720 94       		.byte	0x94
 1925 0721 38070000 		.4byte	0x738
 1926 0725 14       		.uleb128 0x14
 1927 0726 5700     		.ascii	"W\000"
 1928 0728 0C       		.byte	0xc
 1929 0729 95       		.byte	0x95
 1930 072a 91000000 		.4byte	0x91
 1931 072e 14       		.uleb128 0x14
 1932 072f 4800     		.ascii	"H\000"
 1933 0731 0C       		.byte	0xc
ARM GAS  /tmp/ccPrDVhe.s 			page 35


 1934 0732 99       		.byte	0x99
 1935 0733 F8060000 		.4byte	0x6f8
 1936 0737 00       		.byte	0
 1937 0738 08       		.uleb128 0x8
 1938 0739 28       		.byte	0x28
 1939 073a 0C       		.byte	0xc
 1940 073b 8C       		.byte	0x8c
 1941 073c CD070000 		.4byte	0x7cd
 1942 0740 06       		.uleb128 0x6
 1943 0741 47000000 		.4byte	.LASF86
 1944 0745 0C       		.byte	0xc
 1945 0746 8E       		.byte	0x8e
 1946 0747 51040000 		.4byte	0x451
 1947 074b 02       		.byte	0x2
 1948 074c 23       		.byte	0x23
 1949 074d 00       		.uleb128 0
 1950 074e 06       		.uleb128 0x6
 1951 074f 21000000 		.4byte	.LASF87
 1952 0753 0C       		.byte	0xc
 1953 0754 8F       		.byte	0x8f
 1954 0755 51040000 		.4byte	0x451
 1955 0759 02       		.byte	0x2
 1956 075a 23       		.byte	0x23
 1957 075b 04       		.uleb128 0x4
 1958 075c 06       		.uleb128 0x6
 1959 075d 51010000 		.4byte	.LASF88
 1960 0761 0C       		.byte	0xc
 1961 0762 90       		.byte	0x90
 1962 0763 51040000 		.4byte	0x451
 1963 0767 02       		.byte	0x2
 1964 0768 23       		.byte	0x23
 1965 0769 08       		.uleb128 0x8
 1966 076a 06       		.uleb128 0x6
 1967 076b 6E000000 		.4byte	.LASF89
 1968 076f 0C       		.byte	0xc
 1969 0770 91       		.byte	0x91
 1970 0771 51040000 		.4byte	0x451
 1971 0775 02       		.byte	0x2
 1972 0776 23       		.byte	0x23
 1973 0777 0C       		.uleb128 0xc
 1974 0778 07       		.uleb128 0x7
 1975 0779 49445200 		.ascii	"IDR\000"
 1976 077d 0C       		.byte	0xc
 1977 077e 92       		.byte	0x92
 1978 077f 51040000 		.4byte	0x451
 1979 0783 02       		.byte	0x2
 1980 0784 23       		.byte	0x23
 1981 0785 10       		.uleb128 0x10
 1982 0786 07       		.uleb128 0x7
 1983 0787 4F445200 		.ascii	"ODR\000"
 1984 078b 0C       		.byte	0xc
 1985 078c 93       		.byte	0x93
 1986 078d 51040000 		.4byte	0x451
 1987 0791 02       		.byte	0x2
 1988 0792 23       		.byte	0x23
 1989 0793 14       		.uleb128 0x14
 1990 0794 06       		.uleb128 0x6
ARM GAS  /tmp/ccPrDVhe.s 			page 36


 1991 0795 D0000000 		.4byte	.LASF90
 1992 0799 0C       		.byte	0xc
 1993 079a 9A       		.byte	0x9a
 1994 079b CD070000 		.4byte	0x7cd
 1995 079f 02       		.byte	0x2
 1996 07a0 23       		.byte	0x23
 1997 07a1 18       		.uleb128 0x18
 1998 07a2 06       		.uleb128 0x6
 1999 07a3 E2010000 		.4byte	.LASF91
 2000 07a7 0C       		.byte	0xc
 2001 07a8 9B       		.byte	0x9b
 2002 07a9 51040000 		.4byte	0x451
 2003 07ad 02       		.byte	0x2
 2004 07ae 23       		.byte	0x23
 2005 07af 1C       		.uleb128 0x1c
 2006 07b0 06       		.uleb128 0x6
 2007 07b1 26030000 		.4byte	.LASF92
 2008 07b5 0C       		.byte	0xc
 2009 07b6 9C       		.byte	0x9c
 2010 07b7 51040000 		.4byte	0x451
 2011 07bb 02       		.byte	0x2
 2012 07bc 23       		.byte	0x23
 2013 07bd 20       		.uleb128 0x20
 2014 07be 06       		.uleb128 0x6
 2015 07bf 1B030000 		.4byte	.LASF93
 2016 07c3 0C       		.byte	0xc
 2017 07c4 9D       		.byte	0x9d
 2018 07c5 51040000 		.4byte	0x451
 2019 07c9 02       		.byte	0x2
 2020 07ca 23       		.byte	0x23
 2021 07cb 24       		.uleb128 0x24
 2022 07cc 00       		.byte	0
 2023 07cd 0D       		.uleb128 0xd
 2024 07ce 1D070000 		.4byte	0x71d
 2025 07d2 03       		.uleb128 0x3
 2026 07d3 33000000 		.4byte	.LASF94
 2027 07d7 0C       		.byte	0xc
 2028 07d8 9E       		.byte	0x9e
 2029 07d9 38070000 		.4byte	0x738
 2030 07dd 03       		.uleb128 0x3
 2031 07de C4020000 		.4byte	.LASF95
 2032 07e2 0C       		.byte	0xc
 2033 07e3 E8       		.byte	0xe8
 2034 07e4 91000000 		.4byte	0x91
 2035 07e8 03       		.uleb128 0x3
 2036 07e9 DF050000 		.4byte	.LASF96
 2037 07ed 0C       		.byte	0xc
 2038 07ee ED       		.byte	0xed
 2039 07ef 91000000 		.4byte	0x91
 2040 07f3 03       		.uleb128 0x3
 2041 07f4 15050000 		.4byte	.LASF97
 2042 07f8 0C       		.byte	0xc
 2043 07f9 F5       		.byte	0xf5
 2044 07fa FE070000 		.4byte	0x7fe
 2045 07fe 09       		.uleb128 0x9
 2046 07ff 04       		.byte	0x4
 2047 0800 D2070000 		.4byte	0x7d2
ARM GAS  /tmp/ccPrDVhe.s 			page 37


 2048 0804 15       		.uleb128 0x15
 2049 0805 01       		.byte	0x1
 2050 0806 0D       		.byte	0xd
 2051 0807 4E       		.byte	0x4e
 2052 0808 2B080000 		.4byte	0x82b
 2053 080c 16       		.uleb128 0x16
 2054 080d 53050000 		.4byte	.LASF98
 2055 0811 00       		.sleb128 0
 2056 0812 16       		.uleb128 0x16
 2057 0813 D5000000 		.4byte	.LASF99
 2058 0817 01       		.sleb128 1
 2059 0818 16       		.uleb128 0x16
 2060 0819 64000000 		.4byte	.LASF100
 2061 081d 02       		.sleb128 2
 2062 081e 16       		.uleb128 0x16
 2063 081f 28000000 		.4byte	.LASF101
 2064 0823 03       		.sleb128 3
 2065 0824 16       		.uleb128 0x16
 2066 0825 A8040000 		.4byte	.LASF102
 2067 0829 04       		.sleb128 4
 2068 082a 00       		.byte	0
 2069 082b 03       		.uleb128 0x3
 2070 082c BC040000 		.4byte	.LASF103
 2071 0830 0D       		.byte	0xd
 2072 0831 54       		.byte	0x54
 2073 0832 04080000 		.4byte	0x804
 2074 0836 13       		.uleb128 0x13
 2075 0837 7D000000 		.4byte	.LASF104
 2076 083b 0E       		.byte	0xe
 2077 083c 1A01     		.2byte	0x11a
 2078 083e 42080000 		.4byte	0x842
 2079 0842 0B       		.uleb128 0xb
 2080 0843 7D000000 		.4byte	.LASF104
 2081 0847 30       		.byte	0x30
 2082 0848 0E       		.byte	0xe
 2083 0849 3E01     		.2byte	0x13e
 2084 084b D7080000 		.4byte	0x8d7
 2085 084f 12       		.uleb128 0x12
 2086 0850 FF000000 		.4byte	.LASF105
 2087 0854 0E       		.byte	0xe
 2088 0855 4201     		.2byte	0x142
 2089 0857 2B080000 		.4byte	0x82b
 2090 085b 02       		.byte	0x2
 2091 085c 23       		.byte	0x23
 2092 085d 00       		.uleb128 0
 2093 085e 12       		.uleb128 0x12
 2094 085f B5040000 		.4byte	.LASF106
 2095 0863 0E       		.byte	0xe
 2096 0864 4601     		.2byte	0x146
 2097 0866 4D090000 		.4byte	0x94d
 2098 086a 02       		.byte	0x2
 2099 086b 23       		.byte	0x23
 2100 086c 04       		.uleb128 0x4
 2101 086d 12       		.uleb128 0x12
 2102 086e E3040000 		.4byte	.LASF107
 2103 0872 0E       		.byte	0xe
 2104 0873 4B01     		.2byte	0x14b
ARM GAS  /tmp/ccPrDVhe.s 			page 38


 2105 0875 70020000 		.4byte	0x270
 2106 0879 02       		.byte	0x2
 2107 087a 23       		.byte	0x23
 2108 087b 08       		.uleb128 0x8
 2109 087c 12       		.uleb128 0x12
 2110 087d 9A030000 		.4byte	.LASF108
 2111 0881 0E       		.byte	0xe
 2112 0882 5201     		.2byte	0x152
 2113 0884 9F040000 		.4byte	0x49f
 2114 0888 02       		.byte	0x2
 2115 0889 23       		.byte	0x23
 2116 088a 0C       		.uleb128 0xc
 2117 088b 0C       		.uleb128 0xc
 2118 088c 73706900 		.ascii	"spi\000"
 2119 0890 0E       		.byte	0xe
 2120 0891 5E01     		.2byte	0x15e
 2121 0893 58090000 		.4byte	0x958
 2122 0897 02       		.byte	0x2
 2123 0898 23       		.byte	0x23
 2124 0899 1C       		.uleb128 0x1c
 2125 089a 12       		.uleb128 0x12
 2126 089b 00000000 		.4byte	.LASF109
 2127 089f 0E       		.byte	0xe
 2128 08a0 6201     		.2byte	0x162
 2129 08a2 5E090000 		.4byte	0x95e
 2130 08a6 02       		.byte	0x2
 2131 08a7 23       		.byte	0x23
 2132 08a8 20       		.uleb128 0x20
 2133 08a9 12       		.uleb128 0x12
 2134 08aa 4B010000 		.4byte	.LASF110
 2135 08ae 0E       		.byte	0xe
 2136 08af 6601     		.2byte	0x166
 2137 08b1 5E090000 		.4byte	0x95e
 2138 08b5 02       		.byte	0x2
 2139 08b6 23       		.byte	0x23
 2140 08b7 24       		.uleb128 0x24
 2141 08b8 12       		.uleb128 0x12
 2142 08b9 32010000 		.4byte	.LASF111
 2143 08bd 0E       		.byte	0xe
 2144 08be 6A01     		.2byte	0x16a
 2145 08c0 91000000 		.4byte	0x91
 2146 08c4 02       		.byte	0x2
 2147 08c5 23       		.byte	0x23
 2148 08c6 28       		.uleb128 0x28
 2149 08c7 12       		.uleb128 0x12
 2150 08c8 F5020000 		.4byte	.LASF112
 2151 08cc 0E       		.byte	0xe
 2152 08cd 6E01     		.2byte	0x16e
 2153 08cf 91000000 		.4byte	0x91
 2154 08d3 02       		.byte	0x2
 2155 08d4 23       		.byte	0x23
 2156 08d5 2C       		.uleb128 0x2c
 2157 08d6 00       		.byte	0
 2158 08d7 13       		.uleb128 0x13
 2159 08d8 83010000 		.4byte	.LASF113
 2160 08dc 0E       		.byte	0xe
 2161 08dd 2201     		.2byte	0x122
ARM GAS  /tmp/ccPrDVhe.s 			page 39


 2162 08df E3080000 		.4byte	0x8e3
 2163 08e3 09       		.uleb128 0x9
 2164 08e4 04       		.byte	0x4
 2165 08e5 E9080000 		.4byte	0x8e9
 2166 08e9 17       		.uleb128 0x17
 2167 08ea 01       		.byte	0x1
 2168 08eb F5080000 		.4byte	0x8f5
 2169 08ef 18       		.uleb128 0x18
 2170 08f0 F5080000 		.4byte	0x8f5
 2171 08f4 00       		.byte	0
 2172 08f5 09       		.uleb128 0x9
 2173 08f6 04       		.byte	0x4
 2174 08f7 36080000 		.4byte	0x836
 2175 08fb 11       		.uleb128 0x11
 2176 08fc 0C       		.byte	0xc
 2177 08fd 0E       		.byte	0xe
 2178 08fe 2701     		.2byte	0x127
 2179 0900 41090000 		.4byte	0x941
 2180 0904 12       		.uleb128 0x12
 2181 0905 2B010000 		.4byte	.LASF114
 2182 0909 0E       		.byte	0xe
 2183 090a 2B01     		.2byte	0x12b
 2184 090c D7080000 		.4byte	0x8d7
 2185 0910 02       		.byte	0x2
 2186 0911 23       		.byte	0x23
 2187 0912 00       		.uleb128 0
 2188 0913 12       		.uleb128 0x12
 2189 0914 87000000 		.4byte	.LASF115
 2190 0918 0E       		.byte	0xe
 2191 0919 3001     		.2byte	0x130
 2192 091b F3070000 		.4byte	0x7f3
 2193 091f 02       		.byte	0x2
 2194 0920 23       		.byte	0x23
 2195 0921 04       		.uleb128 0x4
 2196 0922 12       		.uleb128 0x12
 2197 0923 A8000000 		.4byte	.LASF116
 2198 0927 0E       		.byte	0xe
 2199 0928 3401     		.2byte	0x134
 2200 092a 6D000000 		.4byte	0x6d
 2201 092e 02       		.byte	0x2
 2202 092f 23       		.byte	0x23
 2203 0930 08       		.uleb128 0x8
 2204 0931 0C       		.uleb128 0xc
 2205 0932 63723100 		.ascii	"cr1\000"
 2206 0936 0E       		.byte	0xe
 2207 0937 3801     		.2byte	0x138
 2208 0939 6D000000 		.4byte	0x6d
 2209 093d 02       		.byte	0x2
 2210 093e 23       		.byte	0x23
 2211 093f 0A       		.uleb128 0xa
 2212 0940 00       		.byte	0
 2213 0941 13       		.uleb128 0x13
 2214 0942 CF050000 		.4byte	.LASF117
 2215 0946 0E       		.byte	0xe
 2216 0947 3901     		.2byte	0x139
 2217 0949 FB080000 		.4byte	0x8fb
 2218 094d 09       		.uleb128 0x9
ARM GAS  /tmp/ccPrDVhe.s 			page 40


 2219 094e 04       		.byte	0x4
 2220 094f 53090000 		.4byte	0x953
 2221 0953 10       		.uleb128 0x10
 2222 0954 41090000 		.4byte	0x941
 2223 0958 09       		.uleb128 0x9
 2224 0959 04       		.byte	0x4
 2225 095a 86060000 		.4byte	0x686
 2226 095e 09       		.uleb128 0x9
 2227 095f 04       		.byte	0x4
 2228 0960 64090000 		.4byte	0x964
 2229 0964 10       		.uleb128 0x10
 2230 0965 ED060000 		.4byte	0x6ed
 2231 0969 03       		.uleb128 0x3
 2232 096a 06030000 		.4byte	.LASF118
 2233 096e 0F       		.byte	0xf
 2234 096f 23       		.byte	0x23
 2235 0970 5B000000 		.4byte	0x5b
 2236 0974 09       		.uleb128 0x9
 2237 0975 04       		.byte	0x4
 2238 0976 7A090000 		.4byte	0x97a
 2239 097a 19       		.uleb128 0x19
 2240 097b 05       		.uleb128 0x5
 2241 097c 3C010000 		.4byte	.LASF119
 2242 0980 08       		.byte	0x8
 2243 0981 10       		.byte	0x10
 2244 0982 46       		.byte	0x46
 2245 0983 BA090000 		.4byte	0x9ba
 2246 0987 07       		.uleb128 0x7
 2247 0988 7800     		.ascii	"x\000"
 2248 098a 10       		.byte	0x10
 2249 098b 47       		.byte	0x47
 2250 098c 69090000 		.4byte	0x969
 2251 0990 02       		.byte	0x2
 2252 0991 23       		.byte	0x23
 2253 0992 00       		.uleb128 0
 2254 0993 07       		.uleb128 0x7
 2255 0994 7900     		.ascii	"y\000"
 2256 0996 10       		.byte	0x10
 2257 0997 47       		.byte	0x47
 2258 0998 69090000 		.4byte	0x969
 2259 099c 02       		.byte	0x2
 2260 099d 23       		.byte	0x23
 2261 099e 02       		.uleb128 0x2
 2262 099f 07       		.uleb128 0x7
 2263 09a0 7A00     		.ascii	"z\000"
 2264 09a2 10       		.byte	0x10
 2265 09a3 47       		.byte	0x47
 2266 09a4 69090000 		.4byte	0x969
 2267 09a8 02       		.byte	0x2
 2268 09a9 23       		.byte	0x23
 2269 09aa 04       		.uleb128 0x4
 2270 09ab 06       		.uleb128 0x6
 2271 09ac 74010000 		.4byte	.LASF120
 2272 09b0 10       		.byte	0x10
 2273 09b1 48       		.byte	0x48
 2274 09b2 6D000000 		.4byte	0x6d
 2275 09b6 02       		.byte	0x2
ARM GAS  /tmp/ccPrDVhe.s 			page 41


 2276 09b7 23       		.byte	0x23
 2277 09b8 06       		.uleb128 0x6
 2278 09b9 00       		.byte	0
 2279 09ba 03       		.uleb128 0x3
 2280 09bb 0E030000 		.4byte	.LASF121
 2281 09bf 10       		.byte	0x10
 2282 09c0 49       		.byte	0x49
 2283 09c1 7B090000 		.4byte	0x97b
 2284 09c5 1A       		.uleb128 0x1a
 2285 09c6 D1020000 		.4byte	.LASF143
 2286 09ca 02       		.byte	0x2
 2287 09cb 49       		.byte	0x49
 2288 09cc 01       		.byte	0x1
 2289 09cd B1000000 		.4byte	0xb1
 2290 09d1 03       		.byte	0x3
 2291 09d2 1B       		.uleb128 0x1b
 2292 09d3 5E050000 		.4byte	.LASF144
 2293 09d7 01       		.byte	0x1
 2294 09d8 2C       		.byte	0x2c
 2295 09d9 01       		.byte	0x1
 2296 09da 01       		.byte	0x1
 2297 09db FD090000 		.4byte	0x9fd
 2298 09df 1C       		.uleb128 0x1c
 2299 09e0 96010000 		.4byte	.LASF122
 2300 09e4 01       		.byte	0x1
 2301 09e5 2D       		.byte	0x2d
 2302 09e6 6D000000 		.4byte	0x6d
 2303 09ea 1D       		.uleb128 0x1d
 2304 09eb 6900     		.ascii	"i\000"
 2305 09ed 01       		.byte	0x1
 2306 09ee 2E       		.byte	0x2e
 2307 09ef 29000000 		.4byte	0x29
 2308 09f3 1D       		.uleb128 0x1d
 2309 09f4 6A00     		.ascii	"j\000"
 2310 09f6 01       		.byte	0x1
 2311 09f7 2E       		.byte	0x2e
 2312 09f8 29000000 		.4byte	0x29
 2313 09fc 00       		.byte	0
 2314 09fd 1E       		.uleb128 0x1e
 2315 09fe E8050000 		.4byte	.LASF123
 2316 0a02 02       		.byte	0x2
 2317 0a03 38       		.byte	0x38
 2318 0a04 01       		.byte	0x1
 2319 0a05 03       		.byte	0x3
 2320 0a06 1F       		.uleb128 0x1f
 2321 0a07 01       		.byte	0x1
 2322 0a08 B5010000 		.4byte	.LASF128
 2323 0a0c 01       		.byte	0x1
 2324 0a0d 41       		.byte	0x41
 2325 0a0e 01       		.byte	0x1
 2326 0a0f 00000000 		.4byte	.LFB124
 2327 0a13 5C000000 		.4byte	.LFE124
 2328 0a17 00000000 		.4byte	.LLST0
 2329 0a1b 01       		.byte	0x1
 2330 0a1c C40A0000 		.4byte	0xac4
 2331 0a20 20       		.uleb128 0x20
 2332 0a21 FD090000 		.4byte	0x9fd
ARM GAS  /tmp/ccPrDVhe.s 			page 42


 2333 0a25 02000000 		.4byte	.LBB10
 2334 0a29 00000000 		.4byte	.Ldebug_ranges0+0
 2335 0a2d 01       		.byte	0x1
 2336 0a2e 42       		.byte	0x42
 2337 0a2f 21       		.uleb128 0x21
 2338 0a30 18000000 		.4byte	.LVL0
 2339 0a34 13100000 		.4byte	0x1013
 2340 0a38 4D0A0000 		.4byte	0xa4d
 2341 0a3c 22       		.uleb128 0x22
 2342 0a3d 01       		.byte	0x1
 2343 0a3e 52       		.byte	0x52
 2344 0a3f 01       		.byte	0x1
 2345 0a40 49       		.byte	0x49
 2346 0a41 22       		.uleb128 0x22
 2347 0a42 01       		.byte	0x1
 2348 0a43 51       		.byte	0x51
 2349 0a44 01       		.byte	0x1
 2350 0a45 38       		.byte	0x38
 2351 0a46 22       		.uleb128 0x22
 2352 0a47 01       		.byte	0x1
 2353 0a48 50       		.byte	0x50
 2354 0a49 02       		.byte	0x2
 2355 0a4a 75       		.byte	0x75
 2356 0a4b 00       		.sleb128 0
 2357 0a4c 00       		.byte	0
 2358 0a4d 21       		.uleb128 0x21
 2359 0a4e 2C000000 		.4byte	.LVL1
 2360 0a52 13100000 		.4byte	0x1013
 2361 0a56 6D0A0000 		.4byte	0xa6d
 2362 0a5a 22       		.uleb128 0x22
 2363 0a5b 01       		.byte	0x1
 2364 0a5c 52       		.byte	0x52
 2365 0a5d 03       		.byte	0x3
 2366 0a5e 0A       		.byte	0xa
 2367 0a5f 1A03     		.2byte	0x31a
 2368 0a61 22       		.uleb128 0x22
 2369 0a62 01       		.byte	0x1
 2370 0a63 51       		.byte	0x51
 2371 0a64 01       		.byte	0x1
 2372 0a65 38       		.byte	0x38
 2373 0a66 22       		.uleb128 0x22
 2374 0a67 01       		.byte	0x1
 2375 0a68 50       		.byte	0x50
 2376 0a69 02       		.byte	0x2
 2377 0a6a 74       		.byte	0x74
 2378 0a6b 00       		.sleb128 0
 2379 0a6c 00       		.byte	0
 2380 0a6d 21       		.uleb128 0x21
 2381 0a6e 38000000 		.4byte	.LVL2
 2382 0a72 13100000 		.4byte	0x1013
 2383 0a76 8D0A0000 		.4byte	0xa8d
 2384 0a7a 22       		.uleb128 0x22
 2385 0a7b 01       		.byte	0x1
 2386 0a7c 52       		.byte	0x52
 2387 0a7d 03       		.byte	0x3
 2388 0a7e 0A       		.byte	0xa
 2389 0a7f 1A03     		.2byte	0x31a
ARM GAS  /tmp/ccPrDVhe.s 			page 43


 2390 0a81 22       		.uleb128 0x22
 2391 0a82 01       		.byte	0x1
 2392 0a83 51       		.byte	0x51
 2393 0a84 01       		.byte	0x1
 2394 0a85 40       		.byte	0x40
 2395 0a86 22       		.uleb128 0x22
 2396 0a87 01       		.byte	0x1
 2397 0a88 50       		.byte	0x50
 2398 0a89 02       		.byte	0x2
 2399 0a8a 74       		.byte	0x74
 2400 0a8b 00       		.sleb128 0
 2401 0a8c 00       		.byte	0
 2402 0a8d 21       		.uleb128 0x21
 2403 0a8e 44000000 		.4byte	.LVL3
 2404 0a92 13100000 		.4byte	0x1013
 2405 0a96 AE0A0000 		.4byte	0xaae
 2406 0a9a 22       		.uleb128 0x22
 2407 0a9b 01       		.byte	0x1
 2408 0a9c 52       		.byte	0x52
 2409 0a9d 03       		.byte	0x3
 2410 0a9e 0A       		.byte	0xa
 2411 0a9f 1A03     		.2byte	0x31a
 2412 0aa1 22       		.uleb128 0x22
 2413 0aa2 01       		.byte	0x1
 2414 0aa3 51       		.byte	0x51
 2415 0aa4 02       		.byte	0x2
 2416 0aa5 08       		.byte	0x8
 2417 0aa6 20       		.byte	0x20
 2418 0aa7 22       		.uleb128 0x22
 2419 0aa8 01       		.byte	0x1
 2420 0aa9 50       		.byte	0x50
 2421 0aaa 02       		.byte	0x2
 2422 0aab 74       		.byte	0x74
 2423 0aac 00       		.sleb128 0
 2424 0aad 00       		.byte	0
 2425 0aae 23       		.uleb128 0x23
 2426 0aaf 5C000000 		.4byte	.LVL4
 2427 0ab3 01       		.byte	0x1
 2428 0ab4 32100000 		.4byte	0x1032
 2429 0ab8 22       		.uleb128 0x22
 2430 0ab9 01       		.byte	0x1
 2431 0aba 51       		.byte	0x51
 2432 0abb 05       		.byte	0x5
 2433 0abc 03       		.byte	0x3
 2434 0abd 00000000 		.4byte	.LANCHOR0
 2435 0ac1 00       		.byte	0
 2436 0ac2 00       		.byte	0
 2437 0ac3 00       		.byte	0
 2438 0ac4 1E       		.uleb128 0x1e
 2439 0ac5 1D040000 		.4byte	.LASF124
 2440 0ac9 02       		.byte	0x2
 2441 0aca 51       		.byte	0x51
 2442 0acb 01       		.byte	0x1
 2443 0acc 03       		.byte	0x3
 2444 0acd 24       		.uleb128 0x24
 2445 0ace 98040000 		.4byte	.LASF145
 2446 0ad2 02       		.byte	0x2
ARM GAS  /tmp/ccPrDVhe.s 			page 44


 2447 0ad3 6A       		.byte	0x6a
 2448 0ad4 01       		.byte	0x1
 2449 0ad5 6D000000 		.4byte	0x6d
 2450 0ad9 03       		.byte	0x3
 2451 0ada 0B0B0000 		.4byte	0xb0b
 2452 0ade 25       		.uleb128 0x25
 2453 0adf 91010000 		.4byte	.LASF146
 2454 0ae3 02       		.byte	0x2
 2455 0ae4 6A       		.byte	0x6a
 2456 0ae5 6D000000 		.4byte	0x6d
 2457 0ae9 1C       		.uleb128 0x1c
 2458 0aea A8010000 		.4byte	.LASF125
 2459 0aee 02       		.byte	0x2
 2460 0aef 6B       		.byte	0x6b
 2461 0af0 0B0B0000 		.4byte	0xb0b
 2462 0af4 1C       		.uleb128 0x1c
 2463 0af5 9B000000 		.4byte	.LASF126
 2464 0af9 02       		.byte	0x2
 2465 0afa 6C       		.byte	0x6c
 2466 0afb 0B0B0000 		.4byte	0xb0b
 2467 0aff 1D       		.uleb128 0x1d
 2468 0b00 72657400 		.ascii	"ret\000"
 2469 0b04 02       		.byte	0x2
 2470 0b05 6D       		.byte	0x6d
 2471 0b06 6D000000 		.4byte	0x6d
 2472 0b0a 00       		.byte	0
 2473 0b0b 26       		.uleb128 0x26
 2474 0b0c 49000000 		.4byte	0x49
 2475 0b10 1B0B0000 		.4byte	0xb1b
 2476 0b14 27       		.uleb128 0x27
 2477 0b15 56040000 		.4byte	0x456
 2478 0b19 02       		.byte	0x2
 2479 0b1a 00       		.byte	0
 2480 0b1b 1E       		.uleb128 0x1e
 2481 0b1c F1030000 		.4byte	.LASF127
 2482 0b20 02       		.byte	0x2
 2483 0b21 5C       		.byte	0x5c
 2484 0b22 01       		.byte	0x1
 2485 0b23 03       		.byte	0x3
 2486 0b24 1F       		.uleb128 0x1f
 2487 0b25 01       		.byte	0x1
 2488 0b26 07020000 		.4byte	.LASF129
 2489 0b2a 01       		.byte	0x1
 2490 0b2b 53       		.byte	0x53
 2491 0b2c 01       		.byte	0x1
 2492 0b2d 00000000 		.4byte	.LFB125
 2493 0b31 C4030000 		.4byte	.LFE125
 2494 0b35 20000000 		.4byte	.LLST1
 2495 0b39 01       		.byte	0x1
 2496 0b3a 9D0F0000 		.4byte	0xf9d
 2497 0b3e 28       		.uleb128 0x28
 2498 0b3f 707400   		.ascii	"pt\000"
 2499 0b42 01       		.byte	0x1
 2500 0b43 53       		.byte	0x53
 2501 0b44 9D0F0000 		.4byte	0xf9d
 2502 0b48 40000000 		.4byte	.LLST2
 2503 0b4c 29       		.uleb128 0x29
ARM GAS  /tmp/ccPrDVhe.s 			page 45


 2504 0b4d 6900     		.ascii	"i\000"
 2505 0b4f 01       		.byte	0x1
 2506 0b50 54       		.byte	0x54
 2507 0b51 6D000000 		.4byte	0x6d
 2508 0b55 74000000 		.4byte	.LLST3
 2509 0b59 2A       		.uleb128 0x2a
 2510 0b5a C5090000 		.4byte	0x9c5
 2511 0b5e 04000000 		.4byte	.LBB36
 2512 0b62 18000000 		.4byte	.Ldebug_ranges0+0x18
 2513 0b66 01       		.byte	0x1
 2514 0b67 57       		.byte	0x57
 2515 0b68 2B       		.uleb128 0x2b
 2516 0b69 CD0A0000 		.4byte	0xacd
 2517 0b6d 38000000 		.4byte	.LBB40
 2518 0b71 30000000 		.4byte	.Ldebug_ranges0+0x30
 2519 0b75 01       		.byte	0x1
 2520 0b76 68       		.byte	0x68
 2521 0b77 C20B0000 		.4byte	0xbc2
 2522 0b7b 2C       		.uleb128 0x2c
 2523 0b7c DE0A0000 		.4byte	0xade
 2524 0b80 D1       		.byte	0xd1
 2525 0b81 2D       		.uleb128 0x2d
 2526 0b82 50000000 		.4byte	.Ldebug_ranges0+0x50
 2527 0b86 2E       		.uleb128 0x2e
 2528 0b87 FF0A0000 		.4byte	0xaff
 2529 0b8b 3C010000 		.4byte	.LLST4
 2530 0b8f 2F       		.uleb128 0x2f
 2531 0b90 E90A0000 		.4byte	0xae9
 2532 0b94 05       		.byte	0x5
 2533 0b95 03       		.byte	0x3
 2534 0b96 00000000 		.4byte	txbuf.7956
 2535 0b9a 2F       		.uleb128 0x2f
 2536 0b9b F40A0000 		.4byte	0xaf4
 2537 0b9f 05       		.byte	0x5
 2538 0ba0 03       		.byte	0x3
 2539 0ba1 00000000 		.4byte	rxbuf.7957
 2540 0ba5 30       		.uleb128 0x30
 2541 0ba6 60000000 		.4byte	.LVL11
 2542 0baa 4C100000 		.4byte	0x104c
 2543 0bae 22       		.uleb128 0x22
 2544 0baf 01       		.byte	0x1
 2545 0bb0 53       		.byte	0x53
 2546 0bb1 02       		.byte	0x2
 2547 0bb2 79       		.byte	0x79
 2548 0bb3 00       		.sleb128 0
 2549 0bb4 22       		.uleb128 0x22
 2550 0bb5 01       		.byte	0x1
 2551 0bb6 52       		.byte	0x52
 2552 0bb7 02       		.byte	0x2
 2553 0bb8 78       		.byte	0x78
 2554 0bb9 00       		.sleb128 0
 2555 0bba 22       		.uleb128 0x22
 2556 0bbb 01       		.byte	0x1
 2557 0bbc 51       		.byte	0x51
 2558 0bbd 01       		.byte	0x1
 2559 0bbe 33       		.byte	0x33
 2560 0bbf 00       		.byte	0
ARM GAS  /tmp/ccPrDVhe.s 			page 46


 2561 0bc0 00       		.byte	0
 2562 0bc1 00       		.byte	0
 2563 0bc2 2B       		.uleb128 0x2b
 2564 0bc3 C40A0000 		.4byte	0xac4
 2565 0bc7 40000000 		.4byte	.LBB44
 2566 0bcb 70000000 		.4byte	.Ldebug_ranges0+0x70
 2567 0bcf 01       		.byte	0x1
 2568 0bd0 60       		.byte	0x60
 2569 0bd1 DF0B0000 		.4byte	0xbdf
 2570 0bd5 31       		.uleb128 0x31
 2571 0bd6 48000000 		.4byte	.LVL9
 2572 0bda 70100000 		.4byte	0x1070
 2573 0bde 00       		.byte	0
 2574 0bdf 2B       		.uleb128 0x2b
 2575 0be0 CD0A0000 		.4byte	0xacd
 2576 0be4 60000000 		.4byte	.LBB52
 2577 0be8 90000000 		.4byte	.Ldebug_ranges0+0x90
 2578 0bec 01       		.byte	0x1
 2579 0bed 6A       		.byte	0x6a
 2580 0bee F30C0000 		.4byte	0xcf3
 2581 0bf2 2C       		.uleb128 0x2c
 2582 0bf3 DE0A0000 		.4byte	0xade
 2583 0bf7 D1       		.byte	0xd1
 2584 0bf8 2D       		.uleb128 0x2d
 2585 0bf9 D8000000 		.4byte	.Ldebug_ranges0+0xd8
 2586 0bfd 2E       		.uleb128 0x2e
 2587 0bfe FF0A0000 		.4byte	0xaff
 2588 0c02 68010000 		.4byte	.LLST5
 2589 0c06 2F       		.uleb128 0x2f
 2590 0c07 E90A0000 		.4byte	0xae9
 2591 0c0b 05       		.byte	0x5
 2592 0c0c 03       		.byte	0x3
 2593 0c0d 00000000 		.4byte	txbuf.7956
 2594 0c11 2F       		.uleb128 0x2f
 2595 0c12 F40A0000 		.4byte	0xaf4
 2596 0c16 05       		.byte	0x5
 2597 0c17 03       		.byte	0x3
 2598 0c18 00000000 		.4byte	rxbuf.7957
 2599 0c1c 21       		.uleb128 0x21
 2600 0c1d 70000000 		.4byte	.LVL12
 2601 0c21 4C100000 		.4byte	0x104c
 2602 0c25 3B0C0000 		.4byte	0xc3b
 2603 0c29 22       		.uleb128 0x22
 2604 0c2a 01       		.byte	0x1
 2605 0c2b 53       		.byte	0x53
 2606 0c2c 02       		.byte	0x2
 2607 0c2d 79       		.byte	0x79
 2608 0c2e 00       		.sleb128 0
 2609 0c2f 22       		.uleb128 0x22
 2610 0c30 01       		.byte	0x1
 2611 0c31 52       		.byte	0x52
 2612 0c32 02       		.byte	0x2
 2613 0c33 78       		.byte	0x78
 2614 0c34 00       		.sleb128 0
 2615 0c35 22       		.uleb128 0x22
 2616 0c36 01       		.byte	0x1
 2617 0c37 51       		.byte	0x51
ARM GAS  /tmp/ccPrDVhe.s 			page 47


 2618 0c38 01       		.byte	0x1
 2619 0c39 33       		.byte	0x33
 2620 0c3a 00       		.byte	0
 2621 0c3b 21       		.uleb128 0x21
 2622 0c3c 92000000 		.4byte	.LVL14
 2623 0c40 4C100000 		.4byte	0x104c
 2624 0c44 5A0C0000 		.4byte	0xc5a
 2625 0c48 22       		.uleb128 0x22
 2626 0c49 01       		.byte	0x1
 2627 0c4a 53       		.byte	0x53
 2628 0c4b 02       		.byte	0x2
 2629 0c4c 79       		.byte	0x79
 2630 0c4d 00       		.sleb128 0
 2631 0c4e 22       		.uleb128 0x22
 2632 0c4f 01       		.byte	0x1
 2633 0c50 52       		.byte	0x52
 2634 0c51 02       		.byte	0x2
 2635 0c52 78       		.byte	0x78
 2636 0c53 00       		.sleb128 0
 2637 0c54 22       		.uleb128 0x22
 2638 0c55 01       		.byte	0x1
 2639 0c56 51       		.byte	0x51
 2640 0c57 01       		.byte	0x1
 2641 0c58 33       		.byte	0x33
 2642 0c59 00       		.byte	0
 2643 0c5a 21       		.uleb128 0x21
 2644 0c5b B4000000 		.4byte	.LVL16
 2645 0c5f 4C100000 		.4byte	0x104c
 2646 0c63 790C0000 		.4byte	0xc79
 2647 0c67 22       		.uleb128 0x22
 2648 0c68 01       		.byte	0x1
 2649 0c69 53       		.byte	0x53
 2650 0c6a 02       		.byte	0x2
 2651 0c6b 79       		.byte	0x79
 2652 0c6c 00       		.sleb128 0
 2653 0c6d 22       		.uleb128 0x22
 2654 0c6e 01       		.byte	0x1
 2655 0c6f 52       		.byte	0x52
 2656 0c70 02       		.byte	0x2
 2657 0c71 78       		.byte	0x78
 2658 0c72 00       		.sleb128 0
 2659 0c73 22       		.uleb128 0x22
 2660 0c74 01       		.byte	0x1
 2661 0c75 51       		.byte	0x51
 2662 0c76 01       		.byte	0x1
 2663 0c77 33       		.byte	0x33
 2664 0c78 00       		.byte	0
 2665 0c79 21       		.uleb128 0x21
 2666 0c7a D6000000 		.4byte	.LVL18
 2667 0c7e 4C100000 		.4byte	0x104c
 2668 0c82 980C0000 		.4byte	0xc98
 2669 0c86 22       		.uleb128 0x22
 2670 0c87 01       		.byte	0x1
 2671 0c88 53       		.byte	0x53
 2672 0c89 02       		.byte	0x2
 2673 0c8a 79       		.byte	0x79
 2674 0c8b 00       		.sleb128 0
ARM GAS  /tmp/ccPrDVhe.s 			page 48


 2675 0c8c 22       		.uleb128 0x22
 2676 0c8d 01       		.byte	0x1
 2677 0c8e 52       		.byte	0x52
 2678 0c8f 02       		.byte	0x2
 2679 0c90 78       		.byte	0x78
 2680 0c91 00       		.sleb128 0
 2681 0c92 22       		.uleb128 0x22
 2682 0c93 01       		.byte	0x1
 2683 0c94 51       		.byte	0x51
 2684 0c95 01       		.byte	0x1
 2685 0c96 33       		.byte	0x33
 2686 0c97 00       		.byte	0
 2687 0c98 21       		.uleb128 0x21
 2688 0c99 F8000000 		.4byte	.LVL20
 2689 0c9d 4C100000 		.4byte	0x104c
 2690 0ca1 B70C0000 		.4byte	0xcb7
 2691 0ca5 22       		.uleb128 0x22
 2692 0ca6 01       		.byte	0x1
 2693 0ca7 53       		.byte	0x53
 2694 0ca8 02       		.byte	0x2
 2695 0ca9 79       		.byte	0x79
 2696 0caa 00       		.sleb128 0
 2697 0cab 22       		.uleb128 0x22
 2698 0cac 01       		.byte	0x1
 2699 0cad 52       		.byte	0x52
 2700 0cae 02       		.byte	0x2
 2701 0caf 78       		.byte	0x78
 2702 0cb0 00       		.sleb128 0
 2703 0cb1 22       		.uleb128 0x22
 2704 0cb2 01       		.byte	0x1
 2705 0cb3 51       		.byte	0x51
 2706 0cb4 01       		.byte	0x1
 2707 0cb5 33       		.byte	0x33
 2708 0cb6 00       		.byte	0
 2709 0cb7 21       		.uleb128 0x21
 2710 0cb8 1A010000 		.4byte	.LVL22
 2711 0cbc 4C100000 		.4byte	0x104c
 2712 0cc0 D60C0000 		.4byte	0xcd6
 2713 0cc4 22       		.uleb128 0x22
 2714 0cc5 01       		.byte	0x1
 2715 0cc6 53       		.byte	0x53
 2716 0cc7 02       		.byte	0x2
 2717 0cc8 79       		.byte	0x79
 2718 0cc9 00       		.sleb128 0
 2719 0cca 22       		.uleb128 0x22
 2720 0ccb 01       		.byte	0x1
 2721 0ccc 52       		.byte	0x52
 2722 0ccd 02       		.byte	0x2
 2723 0cce 78       		.byte	0x78
 2724 0ccf 00       		.sleb128 0
 2725 0cd0 22       		.uleb128 0x22
 2726 0cd1 01       		.byte	0x1
 2727 0cd2 51       		.byte	0x51
 2728 0cd3 01       		.byte	0x1
 2729 0cd4 33       		.byte	0x33
 2730 0cd5 00       		.byte	0
 2731 0cd6 30       		.uleb128 0x30
ARM GAS  /tmp/ccPrDVhe.s 			page 49


 2732 0cd7 3A010000 		.4byte	.LVL24
 2733 0cdb 4C100000 		.4byte	0x104c
 2734 0cdf 22       		.uleb128 0x22
 2735 0ce0 01       		.byte	0x1
 2736 0ce1 53       		.byte	0x53
 2737 0ce2 02       		.byte	0x2
 2738 0ce3 79       		.byte	0x79
 2739 0ce4 00       		.sleb128 0
 2740 0ce5 22       		.uleb128 0x22
 2741 0ce6 01       		.byte	0x1
 2742 0ce7 52       		.byte	0x52
 2743 0ce8 02       		.byte	0x2
 2744 0ce9 78       		.byte	0x78
 2745 0cea 00       		.sleb128 0
 2746 0ceb 22       		.uleb128 0x22
 2747 0cec 01       		.byte	0x1
 2748 0ced 51       		.byte	0x51
 2749 0cee 01       		.byte	0x1
 2750 0cef 33       		.byte	0x33
 2751 0cf0 00       		.byte	0
 2752 0cf1 00       		.byte	0
 2753 0cf2 00       		.byte	0
 2754 0cf3 2B       		.uleb128 0x2b
 2755 0cf4 CD0A0000 		.4byte	0xacd
 2756 0cf8 42010000 		.4byte	.LBB67
 2757 0cfc 20010000 		.4byte	.Ldebug_ranges0+0x120
 2758 0d00 01       		.byte	0x1
 2759 0d01 6B       		.byte	0x6b
 2760 0d02 4D0D0000 		.4byte	0xd4d
 2761 0d06 2C       		.uleb128 0x2c
 2762 0d07 DE0A0000 		.4byte	0xade
 2763 0d0b D0       		.byte	0xd0
 2764 0d0c 2D       		.uleb128 0x2d
 2765 0d0d 40010000 		.4byte	.Ldebug_ranges0+0x140
 2766 0d11 2E       		.uleb128 0x2e
 2767 0d12 FF0A0000 		.4byte	0xaff
 2768 0d16 6C020000 		.4byte	.LLST6
 2769 0d1a 2F       		.uleb128 0x2f
 2770 0d1b E90A0000 		.4byte	0xae9
 2771 0d1f 05       		.byte	0x5
 2772 0d20 03       		.byte	0x3
 2773 0d21 00000000 		.4byte	txbuf.7956
 2774 0d25 2F       		.uleb128 0x2f
 2775 0d26 F40A0000 		.4byte	0xaf4
 2776 0d2a 05       		.byte	0x5
 2777 0d2b 03       		.byte	0x3
 2778 0d2c 00000000 		.4byte	rxbuf.7957
 2779 0d30 30       		.uleb128 0x30
 2780 0d31 5C010000 		.4byte	.LVL26
 2781 0d35 4C100000 		.4byte	0x104c
 2782 0d39 22       		.uleb128 0x22
 2783 0d3a 01       		.byte	0x1
 2784 0d3b 53       		.byte	0x53
 2785 0d3c 02       		.byte	0x2
 2786 0d3d 79       		.byte	0x79
 2787 0d3e 00       		.sleb128 0
 2788 0d3f 22       		.uleb128 0x22
ARM GAS  /tmp/ccPrDVhe.s 			page 50


 2789 0d40 01       		.byte	0x1
 2790 0d41 52       		.byte	0x52
 2791 0d42 02       		.byte	0x2
 2792 0d43 78       		.byte	0x78
 2793 0d44 00       		.sleb128 0
 2794 0d45 22       		.uleb128 0x22
 2795 0d46 01       		.byte	0x1
 2796 0d47 51       		.byte	0x51
 2797 0d48 01       		.byte	0x1
 2798 0d49 33       		.byte	0x33
 2799 0d4a 00       		.byte	0
 2800 0d4b 00       		.byte	0
 2801 0d4c 00       		.byte	0
 2802 0d4d 32       		.uleb128 0x32
 2803 0d4e D2090000 		.4byte	0x9d2
 2804 0d52 5E010000 		.4byte	.LBB74
 2805 0d56 DC010000 		.4byte	.LBE74
 2806 0d5a 01       		.byte	0x1
 2807 0d5b 6C       		.byte	0x6c
 2808 0d5c 860D0000 		.4byte	0xd86
 2809 0d60 33       		.uleb128 0x33
 2810 0d61 5E010000 		.4byte	.LBB75
 2811 0d65 DC010000 		.4byte	.LBE75
 2812 0d69 2E       		.uleb128 0x2e
 2813 0d6a DF090000 		.4byte	0x9df
 2814 0d6e 98020000 		.4byte	.LLST7
 2815 0d72 2E       		.uleb128 0x2e
 2816 0d73 EA090000 		.4byte	0x9ea
 2817 0d77 AF020000 		.4byte	.LLST8
 2818 0d7b 2E       		.uleb128 0x2e
 2819 0d7c F3090000 		.4byte	0x9f3
 2820 0d80 CE020000 		.4byte	.LLST9
 2821 0d84 00       		.byte	0
 2822 0d85 00       		.byte	0
 2823 0d86 2B       		.uleb128 0x2b
 2824 0d87 CD0A0000 		.4byte	0xacd
 2825 0d8b E0010000 		.4byte	.LBB76
 2826 0d8f 60010000 		.4byte	.Ldebug_ranges0+0x160
 2827 0d93 01       		.byte	0x1
 2828 0d94 70       		.byte	0x70
 2829 0d95 E00D0000 		.4byte	0xde0
 2830 0d99 2C       		.uleb128 0x2c
 2831 0d9a DE0A0000 		.4byte	0xade
 2832 0d9e 91       		.byte	0x91
 2833 0d9f 2D       		.uleb128 0x2d
 2834 0da0 78010000 		.4byte	.Ldebug_ranges0+0x178
 2835 0da4 2E       		.uleb128 0x2e
 2836 0da5 FF0A0000 		.4byte	0xaff
 2837 0da9 0F030000 		.4byte	.LLST10
 2838 0dad 2F       		.uleb128 0x2f
 2839 0dae E90A0000 		.4byte	0xae9
 2840 0db2 05       		.byte	0x5
 2841 0db3 03       		.byte	0x3
 2842 0db4 00000000 		.4byte	txbuf.7956
 2843 0db8 2F       		.uleb128 0x2f
 2844 0db9 F40A0000 		.4byte	0xaf4
 2845 0dbd 05       		.byte	0x5
ARM GAS  /tmp/ccPrDVhe.s 			page 51


 2846 0dbe 03       		.byte	0x3
 2847 0dbf 00000000 		.4byte	rxbuf.7957
 2848 0dc3 30       		.uleb128 0x30
 2849 0dc4 F4010000 		.4byte	.LVL39
 2850 0dc8 4C100000 		.4byte	0x104c
 2851 0dcc 22       		.uleb128 0x22
 2852 0dcd 01       		.byte	0x1
 2853 0dce 53       		.byte	0x53
 2854 0dcf 02       		.byte	0x2
 2855 0dd0 79       		.byte	0x79
 2856 0dd1 00       		.sleb128 0
 2857 0dd2 22       		.uleb128 0x22
 2858 0dd3 01       		.byte	0x1
 2859 0dd4 52       		.byte	0x52
 2860 0dd5 02       		.byte	0x2
 2861 0dd6 78       		.byte	0x78
 2862 0dd7 00       		.sleb128 0
 2863 0dd8 22       		.uleb128 0x22
 2864 0dd9 01       		.byte	0x1
 2865 0dda 51       		.byte	0x51
 2866 0ddb 01       		.byte	0x1
 2867 0ddc 33       		.byte	0x33
 2868 0ddd 00       		.byte	0
 2869 0dde 00       		.byte	0
 2870 0ddf 00       		.byte	0
 2871 0de0 2B       		.uleb128 0x2b
 2872 0de1 CD0A0000 		.4byte	0xacd
 2873 0de5 F4010000 		.4byte	.LBB80
 2874 0de9 90010000 		.4byte	.Ldebug_ranges0+0x190
 2875 0ded 01       		.byte	0x1
 2876 0dee 72       		.byte	0x72
 2877 0def F40E0000 		.4byte	0xef4
 2878 0df3 2C       		.uleb128 0x2c
 2879 0df4 DE0A0000 		.4byte	0xade
 2880 0df8 91       		.byte	0x91
 2881 0df9 2D       		.uleb128 0x2d
 2882 0dfa D8010000 		.4byte	.Ldebug_ranges0+0x1d8
 2883 0dfe 2E       		.uleb128 0x2e
 2884 0dff FF0A0000 		.4byte	0xaff
 2885 0e03 3B030000 		.4byte	.LLST11
 2886 0e07 2F       		.uleb128 0x2f
 2887 0e08 E90A0000 		.4byte	0xae9
 2888 0e0c 05       		.byte	0x5
 2889 0e0d 03       		.byte	0x3
 2890 0e0e 00000000 		.4byte	txbuf.7956
 2891 0e12 2F       		.uleb128 0x2f
 2892 0e13 F40A0000 		.4byte	0xaf4
 2893 0e17 05       		.byte	0x5
 2894 0e18 03       		.byte	0x3
 2895 0e19 00000000 		.4byte	rxbuf.7957
 2896 0e1d 21       		.uleb128 0x21
 2897 0e1e 04020000 		.4byte	.LVL40
 2898 0e22 4C100000 		.4byte	0x104c
 2899 0e26 3C0E0000 		.4byte	0xe3c
 2900 0e2a 22       		.uleb128 0x22
 2901 0e2b 01       		.byte	0x1
 2902 0e2c 53       		.byte	0x53
ARM GAS  /tmp/ccPrDVhe.s 			page 52


 2903 0e2d 02       		.byte	0x2
 2904 0e2e 79       		.byte	0x79
 2905 0e2f 00       		.sleb128 0
 2906 0e30 22       		.uleb128 0x22
 2907 0e31 01       		.byte	0x1
 2908 0e32 52       		.byte	0x52
 2909 0e33 02       		.byte	0x2
 2910 0e34 78       		.byte	0x78
 2911 0e35 00       		.sleb128 0
 2912 0e36 22       		.uleb128 0x22
 2913 0e37 01       		.byte	0x1
 2914 0e38 51       		.byte	0x51
 2915 0e39 01       		.byte	0x1
 2916 0e3a 33       		.byte	0x33
 2917 0e3b 00       		.byte	0
 2918 0e3c 21       		.uleb128 0x21
 2919 0e3d 26020000 		.4byte	.LVL42
 2920 0e41 4C100000 		.4byte	0x104c
 2921 0e45 5B0E0000 		.4byte	0xe5b
 2922 0e49 22       		.uleb128 0x22
 2923 0e4a 01       		.byte	0x1
 2924 0e4b 53       		.byte	0x53
 2925 0e4c 02       		.byte	0x2
 2926 0e4d 79       		.byte	0x79
 2927 0e4e 00       		.sleb128 0
 2928 0e4f 22       		.uleb128 0x22
 2929 0e50 01       		.byte	0x1
 2930 0e51 52       		.byte	0x52
 2931 0e52 02       		.byte	0x2
 2932 0e53 78       		.byte	0x78
 2933 0e54 00       		.sleb128 0
 2934 0e55 22       		.uleb128 0x22
 2935 0e56 01       		.byte	0x1
 2936 0e57 51       		.byte	0x51
 2937 0e58 01       		.byte	0x1
 2938 0e59 33       		.byte	0x33
 2939 0e5a 00       		.byte	0
 2940 0e5b 21       		.uleb128 0x21
 2941 0e5c 48020000 		.4byte	.LVL44
 2942 0e60 4C100000 		.4byte	0x104c
 2943 0e64 7A0E0000 		.4byte	0xe7a
 2944 0e68 22       		.uleb128 0x22
 2945 0e69 01       		.byte	0x1
 2946 0e6a 53       		.byte	0x53
 2947 0e6b 02       		.byte	0x2
 2948 0e6c 79       		.byte	0x79
 2949 0e6d 00       		.sleb128 0
 2950 0e6e 22       		.uleb128 0x22
 2951 0e6f 01       		.byte	0x1
 2952 0e70 52       		.byte	0x52
 2953 0e71 02       		.byte	0x2
 2954 0e72 78       		.byte	0x78
 2955 0e73 00       		.sleb128 0
 2956 0e74 22       		.uleb128 0x22
 2957 0e75 01       		.byte	0x1
 2958 0e76 51       		.byte	0x51
 2959 0e77 01       		.byte	0x1
ARM GAS  /tmp/ccPrDVhe.s 			page 53


 2960 0e78 33       		.byte	0x33
 2961 0e79 00       		.byte	0
 2962 0e7a 21       		.uleb128 0x21
 2963 0e7b 6A020000 		.4byte	.LVL46
 2964 0e7f 4C100000 		.4byte	0x104c
 2965 0e83 990E0000 		.4byte	0xe99
 2966 0e87 22       		.uleb128 0x22
 2967 0e88 01       		.byte	0x1
 2968 0e89 53       		.byte	0x53
 2969 0e8a 02       		.byte	0x2
 2970 0e8b 79       		.byte	0x79
 2971 0e8c 00       		.sleb128 0
 2972 0e8d 22       		.uleb128 0x22
 2973 0e8e 01       		.byte	0x1
 2974 0e8f 52       		.byte	0x52
 2975 0e90 02       		.byte	0x2
 2976 0e91 78       		.byte	0x78
 2977 0e92 00       		.sleb128 0
 2978 0e93 22       		.uleb128 0x22
 2979 0e94 01       		.byte	0x1
 2980 0e95 51       		.byte	0x51
 2981 0e96 01       		.byte	0x1
 2982 0e97 33       		.byte	0x33
 2983 0e98 00       		.byte	0
 2984 0e99 21       		.uleb128 0x21
 2985 0e9a 8C020000 		.4byte	.LVL48
 2986 0e9e 4C100000 		.4byte	0x104c
 2987 0ea2 B80E0000 		.4byte	0xeb8
 2988 0ea6 22       		.uleb128 0x22
 2989 0ea7 01       		.byte	0x1
 2990 0ea8 53       		.byte	0x53
 2991 0ea9 02       		.byte	0x2
 2992 0eaa 79       		.byte	0x79
 2993 0eab 00       		.sleb128 0
 2994 0eac 22       		.uleb128 0x22
 2995 0ead 01       		.byte	0x1
 2996 0eae 52       		.byte	0x52
 2997 0eaf 02       		.byte	0x2
 2998 0eb0 78       		.byte	0x78
 2999 0eb1 00       		.sleb128 0
 3000 0eb2 22       		.uleb128 0x22
 3001 0eb3 01       		.byte	0x1
 3002 0eb4 51       		.byte	0x51
 3003 0eb5 01       		.byte	0x1
 3004 0eb6 33       		.byte	0x33
 3005 0eb7 00       		.byte	0
 3006 0eb8 21       		.uleb128 0x21
 3007 0eb9 AE020000 		.4byte	.LVL50
 3008 0ebd 4C100000 		.4byte	0x104c
 3009 0ec1 D70E0000 		.4byte	0xed7
 3010 0ec5 22       		.uleb128 0x22
 3011 0ec6 01       		.byte	0x1
 3012 0ec7 53       		.byte	0x53
 3013 0ec8 02       		.byte	0x2
 3014 0ec9 79       		.byte	0x79
 3015 0eca 00       		.sleb128 0
 3016 0ecb 22       		.uleb128 0x22
ARM GAS  /tmp/ccPrDVhe.s 			page 54


 3017 0ecc 01       		.byte	0x1
 3018 0ecd 52       		.byte	0x52
 3019 0ece 02       		.byte	0x2
 3020 0ecf 78       		.byte	0x78
 3021 0ed0 00       		.sleb128 0
 3022 0ed1 22       		.uleb128 0x22
 3023 0ed2 01       		.byte	0x1
 3024 0ed3 51       		.byte	0x51
 3025 0ed4 01       		.byte	0x1
 3026 0ed5 33       		.byte	0x33
 3027 0ed6 00       		.byte	0
 3028 0ed7 30       		.uleb128 0x30
 3029 0ed8 CE020000 		.4byte	.LVL52
 3030 0edc 4C100000 		.4byte	0x104c
 3031 0ee0 22       		.uleb128 0x22
 3032 0ee1 01       		.byte	0x1
 3033 0ee2 53       		.byte	0x53
 3034 0ee3 02       		.byte	0x2
 3035 0ee4 79       		.byte	0x79
 3036 0ee5 00       		.sleb128 0
 3037 0ee6 22       		.uleb128 0x22
 3038 0ee7 01       		.byte	0x1
 3039 0ee8 52       		.byte	0x52
 3040 0ee9 02       		.byte	0x2
 3041 0eea 78       		.byte	0x78
 3042 0eeb 00       		.sleb128 0
 3043 0eec 22       		.uleb128 0x22
 3044 0eed 01       		.byte	0x1
 3045 0eee 51       		.byte	0x51
 3046 0eef 01       		.byte	0x1
 3047 0ef0 33       		.byte	0x33
 3048 0ef1 00       		.byte	0
 3049 0ef2 00       		.byte	0
 3050 0ef3 00       		.byte	0
 3051 0ef4 2B       		.uleb128 0x2b
 3052 0ef5 CD0A0000 		.4byte	0xacd
 3053 0ef9 D6020000 		.4byte	.LBB95
 3054 0efd 20020000 		.4byte	.Ldebug_ranges0+0x220
 3055 0f01 01       		.byte	0x1
 3056 0f02 73       		.byte	0x73
 3057 0f03 4E0F0000 		.4byte	0xf4e
 3058 0f07 2C       		.uleb128 0x2c
 3059 0f08 DE0A0000 		.4byte	0xade
 3060 0f0c 90       		.byte	0x90
 3061 0f0d 2D       		.uleb128 0x2d
 3062 0f0e 40020000 		.4byte	.Ldebug_ranges0+0x240
 3063 0f12 2E       		.uleb128 0x2e
 3064 0f13 FF0A0000 		.4byte	0xaff
 3065 0f17 3F040000 		.4byte	.LLST12
 3066 0f1b 2F       		.uleb128 0x2f
 3067 0f1c E90A0000 		.4byte	0xae9
 3068 0f20 05       		.byte	0x5
 3069 0f21 03       		.byte	0x3
 3070 0f22 00000000 		.4byte	txbuf.7956
 3071 0f26 2F       		.uleb128 0x2f
 3072 0f27 F40A0000 		.4byte	0xaf4
 3073 0f2b 05       		.byte	0x5
ARM GAS  /tmp/ccPrDVhe.s 			page 55


 3074 0f2c 03       		.byte	0x3
 3075 0f2d 00000000 		.4byte	rxbuf.7957
 3076 0f31 30       		.uleb128 0x30
 3077 0f32 F0020000 		.4byte	.LVL54
 3078 0f36 4C100000 		.4byte	0x104c
 3079 0f3a 22       		.uleb128 0x22
 3080 0f3b 01       		.byte	0x1
 3081 0f3c 53       		.byte	0x53
 3082 0f3d 02       		.byte	0x2
 3083 0f3e 79       		.byte	0x79
 3084 0f3f 00       		.sleb128 0
 3085 0f40 22       		.uleb128 0x22
 3086 0f41 01       		.byte	0x1
 3087 0f42 52       		.byte	0x52
 3088 0f43 02       		.byte	0x2
 3089 0f44 78       		.byte	0x78
 3090 0f45 00       		.sleb128 0
 3091 0f46 22       		.uleb128 0x22
 3092 0f47 01       		.byte	0x1
 3093 0f48 51       		.byte	0x51
 3094 0f49 01       		.byte	0x1
 3095 0f4a 33       		.byte	0x33
 3096 0f4b 00       		.byte	0
 3097 0f4c 00       		.byte	0
 3098 0f4d 00       		.byte	0
 3099 0f4e 2B       		.uleb128 0x2b
 3100 0f4f D2090000 		.4byte	0x9d2
 3101 0f53 F0020000 		.4byte	.LBB101
 3102 0f57 60020000 		.4byte	.Ldebug_ranges0+0x260
 3103 0f5b 01       		.byte	0x1
 3104 0f5c 74       		.byte	0x74
 3105 0f5d 830F0000 		.4byte	0xf83
 3106 0f61 2D       		.uleb128 0x2d
 3107 0f62 78020000 		.4byte	.Ldebug_ranges0+0x278
 3108 0f66 2E       		.uleb128 0x2e
 3109 0f67 DF090000 		.4byte	0x9df
 3110 0f6b 6B040000 		.4byte	.LLST13
 3111 0f6f 2E       		.uleb128 0x2e
 3112 0f70 EA090000 		.4byte	0x9ea
 3113 0f74 82040000 		.4byte	.LLST14
 3114 0f78 2E       		.uleb128 0x2e
 3115 0f79 F3090000 		.4byte	0x9f3
 3116 0f7d A1040000 		.4byte	.LLST15
 3117 0f81 00       		.byte	0
 3118 0f82 00       		.byte	0
 3119 0f83 20       		.uleb128 0x20
 3120 0f84 1B0B0000 		.4byte	0xb1b
 3121 0f88 90030000 		.4byte	.LBB106
 3122 0f8c 90020000 		.4byte	.Ldebug_ranges0+0x290
 3123 0f90 01       		.byte	0x1
 3124 0f91 78       		.byte	0x78
 3125 0f92 31       		.uleb128 0x31
 3126 0f93 A8030000 		.4byte	.LVL66
 3127 0f97 85100000 		.4byte	0x1085
 3128 0f9b 00       		.byte	0
 3129 0f9c 00       		.byte	0
 3130 0f9d 09       		.uleb128 0x9
ARM GAS  /tmp/ccPrDVhe.s 			page 56


 3131 0f9e 04       		.byte	0x4
 3132 0f9f BA090000 		.4byte	0x9ba
 3133 0fa3 34       		.uleb128 0x34
 3134 0fa4 FF020000 		.4byte	.LASF130
 3135 0fa8 02       		.byte	0x2
 3136 0fa9 31       		.byte	0x31
 3137 0faa 53090000 		.4byte	0x953
 3138 0fae 05       		.byte	0x5
 3139 0faf 03       		.byte	0x3
 3140 0fb0 00000000 		.4byte	spicfg
 3141 0fb4 26       		.uleb128 0x26
 3142 0fb5 6D000000 		.4byte	0x6d
 3143 0fb9 C40F0000 		.4byte	0xfc4
 3144 0fbd 27       		.uleb128 0x27
 3145 0fbe 56040000 		.4byte	0x456
 3146 0fc2 06       		.byte	0x6
 3147 0fc3 00       		.byte	0
 3148 0fc4 34       		.uleb128 0x34
 3149 0fc5 EA040000 		.4byte	.LASF131
 3150 0fc9 01       		.byte	0x1
 3151 0fca 22       		.byte	0x22
 3152 0fcb B40F0000 		.4byte	0xfb4
 3153 0fcf 05       		.byte	0x5
 3154 0fd0 03       		.byte	0x3
 3155 0fd1 00000000 		.4byte	sampleBuf
 3156 0fd5 34       		.uleb128 0x34
 3157 0fd6 D6010000 		.4byte	.LASF132
 3158 0fda 01       		.byte	0x1
 3159 0fdb 23       		.byte	0x23
 3160 0fdc 69090000 		.4byte	0x969
 3161 0fe0 05       		.byte	0x5
 3162 0fe1 03       		.byte	0x3
 3163 0fe2 00000000 		.4byte	lastx
 3164 0fe6 34       		.uleb128 0x34
 3165 0fe7 DC010000 		.4byte	.LASF133
 3166 0feb 01       		.byte	0x1
 3167 0fec 23       		.byte	0x23
 3168 0fed 69090000 		.4byte	0x969
 3169 0ff1 05       		.byte	0x5
 3170 0ff2 03       		.byte	0x3
 3171 0ff3 00000000 		.4byte	lasty
 3172 0ff7 35       		.uleb128 0x35
 3173 0ff8 8E000000 		.4byte	.LASF134
 3174 0ffc 11       		.byte	0x11
 3175 0ffd 9806     		.2byte	0x698
 3176 0fff FC040000 		.4byte	0x4fc
 3177 1003 01       		.byte	0x1
 3178 1004 01       		.byte	0x1
 3179 1005 35       		.uleb128 0x35
 3180 1006 CF030000 		.4byte	.LASF135
 3181 100a 0E       		.byte	0xe
 3182 100b 8201     		.2byte	0x182
 3183 100d 36080000 		.4byte	0x836
 3184 1011 01       		.byte	0x1
 3185 1012 01       		.byte	0x1
 3186 1013 36       		.uleb128 0x36
 3187 1014 01       		.byte	0x1
ARM GAS  /tmp/ccPrDVhe.s 			page 57


 3188 1015 28050000 		.4byte	.LASF136
 3189 1019 0C       		.byte	0xc
 3190 101a BA01     		.2byte	0x1ba
 3191 101c 01       		.byte	0x1
 3192 101d 01       		.byte	0x1
 3193 101e 32100000 		.4byte	0x1032
 3194 1022 18       		.uleb128 0x18
 3195 1023 F3070000 		.4byte	0x7f3
 3196 1027 18       		.uleb128 0x18
 3197 1028 DD070000 		.4byte	0x7dd
 3198 102c 18       		.uleb128 0x18
 3199 102d E8070000 		.4byte	0x7e8
 3200 1031 00       		.byte	0
 3201 1032 36       		.uleb128 0x36
 3202 1033 01       		.byte	0x1
 3203 1034 3E050000 		.4byte	.LASF137
 3204 1038 0D       		.byte	0xd
 3205 1039 2901     		.2byte	0x129
 3206 103b 01       		.byte	0x1
 3207 103c 01       		.byte	0x1
 3208 103d 4C100000 		.4byte	0x104c
 3209 1041 18       		.uleb128 0x18
 3210 1042 F5080000 		.4byte	0x8f5
 3211 1046 18       		.uleb128 0x18
 3212 1047 4D090000 		.4byte	0x94d
 3213 104b 00       		.byte	0
 3214 104c 36       		.uleb128 0x36
 3215 104d 01       		.byte	0x1
 3216 104e 92020000 		.4byte	.LASF138
 3217 1052 0D       		.byte	0xd
 3218 1053 3401     		.2byte	0x134
 3219 1055 01       		.byte	0x1
 3220 1056 01       		.byte	0x1
 3221 1057 70100000 		.4byte	0x1070
 3222 105b 18       		.uleb128 0x18
 3223 105c F5080000 		.4byte	0x8f5
 3224 1060 18       		.uleb128 0x18
 3225 1061 30000000 		.4byte	0x30
 3226 1065 18       		.uleb128 0x18
 3227 1066 74090000 		.4byte	0x974
 3228 106a 18       		.uleb128 0x18
 3229 106b AE020000 		.4byte	0x2ae
 3230 106f 00       		.byte	0
 3231 1070 36       		.uleb128 0x36
 3232 1071 01       		.byte	0x1
 3233 1072 78040000 		.4byte	.LASF139
 3234 1076 0D       		.byte	0xd
 3235 1077 3901     		.2byte	0x139
 3236 1079 01       		.byte	0x1
 3237 107a 01       		.byte	0x1
 3238 107b 85100000 		.4byte	0x1085
 3239 107f 18       		.uleb128 0x18
 3240 1080 F5080000 		.4byte	0x8f5
 3241 1084 00       		.byte	0
 3242 1085 37       		.uleb128 0x37
 3243 1086 01       		.byte	0x1
 3244 1087 F4040000 		.4byte	.LASF147
ARM GAS  /tmp/ccPrDVhe.s 			page 58


 3245 108b 0D       		.byte	0xd
 3246 108c 3A01     		.2byte	0x13a
 3247 108e 01       		.byte	0x1
 3248 108f 01       		.byte	0x1
 3249 1090 18       		.uleb128 0x18
 3250 1091 F5080000 		.4byte	0x8f5
 3251 1095 00       		.byte	0
 3252 1096 00       		.byte	0
 3253              		.section	.debug_abbrev,"",%progbits
 3254              	.Ldebug_abbrev0:
 3255 0000 01       		.uleb128 0x1
 3256 0001 11       		.uleb128 0x11
 3257 0002 01       		.byte	0x1
 3258 0003 25       		.uleb128 0x25
 3259 0004 0E       		.uleb128 0xe
 3260 0005 13       		.uleb128 0x13
 3261 0006 0B       		.uleb128 0xb
 3262 0007 03       		.uleb128 0x3
 3263 0008 0E       		.uleb128 0xe
 3264 0009 1B       		.uleb128 0x1b
 3265 000a 0E       		.uleb128 0xe
 3266 000b 55       		.uleb128 0x55
 3267 000c 06       		.uleb128 0x6
 3268 000d 11       		.uleb128 0x11
 3269 000e 01       		.uleb128 0x1
 3270 000f 52       		.uleb128 0x52
 3271 0010 01       		.uleb128 0x1
 3272 0011 10       		.uleb128 0x10
 3273 0012 06       		.uleb128 0x6
 3274 0013 00       		.byte	0
 3275 0014 00       		.byte	0
 3276 0015 02       		.uleb128 0x2
 3277 0016 24       		.uleb128 0x24
 3278 0017 00       		.byte	0
 3279 0018 0B       		.uleb128 0xb
 3280 0019 0B       		.uleb128 0xb
 3281 001a 3E       		.uleb128 0x3e
 3282 001b 0B       		.uleb128 0xb
 3283 001c 03       		.uleb128 0x3
 3284 001d 08       		.uleb128 0x8
 3285 001e 00       		.byte	0
 3286 001f 00       		.byte	0
 3287 0020 03       		.uleb128 0x3
 3288 0021 16       		.uleb128 0x16
 3289 0022 00       		.byte	0
 3290 0023 03       		.uleb128 0x3
 3291 0024 0E       		.uleb128 0xe
 3292 0025 3A       		.uleb128 0x3a
 3293 0026 0B       		.uleb128 0xb
 3294 0027 3B       		.uleb128 0x3b
 3295 0028 0B       		.uleb128 0xb
 3296 0029 49       		.uleb128 0x49
 3297 002a 13       		.uleb128 0x13
 3298 002b 00       		.byte	0
 3299 002c 00       		.byte	0
 3300 002d 04       		.uleb128 0x4
 3301 002e 24       		.uleb128 0x24
ARM GAS  /tmp/ccPrDVhe.s 			page 59


 3302 002f 00       		.byte	0
 3303 0030 0B       		.uleb128 0xb
 3304 0031 0B       		.uleb128 0xb
 3305 0032 3E       		.uleb128 0x3e
 3306 0033 0B       		.uleb128 0xb
 3307 0034 03       		.uleb128 0x3
 3308 0035 0E       		.uleb128 0xe
 3309 0036 00       		.byte	0
 3310 0037 00       		.byte	0
 3311 0038 05       		.uleb128 0x5
 3312 0039 13       		.uleb128 0x13
 3313 003a 01       		.byte	0x1
 3314 003b 03       		.uleb128 0x3
 3315 003c 0E       		.uleb128 0xe
 3316 003d 0B       		.uleb128 0xb
 3317 003e 0B       		.uleb128 0xb
 3318 003f 3A       		.uleb128 0x3a
 3319 0040 0B       		.uleb128 0xb
 3320 0041 3B       		.uleb128 0x3b
 3321 0042 0B       		.uleb128 0xb
 3322 0043 01       		.uleb128 0x1
 3323 0044 13       		.uleb128 0x13
 3324 0045 00       		.byte	0
 3325 0046 00       		.byte	0
 3326 0047 06       		.uleb128 0x6
 3327 0048 0D       		.uleb128 0xd
 3328 0049 00       		.byte	0
 3329 004a 03       		.uleb128 0x3
 3330 004b 0E       		.uleb128 0xe
 3331 004c 3A       		.uleb128 0x3a
 3332 004d 0B       		.uleb128 0xb
 3333 004e 3B       		.uleb128 0x3b
 3334 004f 0B       		.uleb128 0xb
 3335 0050 49       		.uleb128 0x49
 3336 0051 13       		.uleb128 0x13
 3337 0052 38       		.uleb128 0x38
 3338 0053 0A       		.uleb128 0xa
 3339 0054 00       		.byte	0
 3340 0055 00       		.byte	0
 3341 0056 07       		.uleb128 0x7
 3342 0057 0D       		.uleb128 0xd
 3343 0058 00       		.byte	0
 3344 0059 03       		.uleb128 0x3
 3345 005a 08       		.uleb128 0x8
 3346 005b 3A       		.uleb128 0x3a
 3347 005c 0B       		.uleb128 0xb
 3348 005d 3B       		.uleb128 0x3b
 3349 005e 0B       		.uleb128 0xb
 3350 005f 49       		.uleb128 0x49
 3351 0060 13       		.uleb128 0x13
 3352 0061 38       		.uleb128 0x38
 3353 0062 0A       		.uleb128 0xa
 3354 0063 00       		.byte	0
 3355 0064 00       		.byte	0
 3356 0065 08       		.uleb128 0x8
 3357 0066 13       		.uleb128 0x13
 3358 0067 01       		.byte	0x1
ARM GAS  /tmp/ccPrDVhe.s 			page 60


 3359 0068 0B       		.uleb128 0xb
 3360 0069 0B       		.uleb128 0xb
 3361 006a 3A       		.uleb128 0x3a
 3362 006b 0B       		.uleb128 0xb
 3363 006c 3B       		.uleb128 0x3b
 3364 006d 0B       		.uleb128 0xb
 3365 006e 01       		.uleb128 0x1
 3366 006f 13       		.uleb128 0x13
 3367 0070 00       		.byte	0
 3368 0071 00       		.byte	0
 3369 0072 09       		.uleb128 0x9
 3370 0073 0F       		.uleb128 0xf
 3371 0074 00       		.byte	0
 3372 0075 0B       		.uleb128 0xb
 3373 0076 0B       		.uleb128 0xb
 3374 0077 49       		.uleb128 0x49
 3375 0078 13       		.uleb128 0x13
 3376 0079 00       		.byte	0
 3377 007a 00       		.byte	0
 3378 007b 0A       		.uleb128 0xa
 3379 007c 0F       		.uleb128 0xf
 3380 007d 00       		.byte	0
 3381 007e 0B       		.uleb128 0xb
 3382 007f 0B       		.uleb128 0xb
 3383 0080 00       		.byte	0
 3384 0081 00       		.byte	0
 3385 0082 0B       		.uleb128 0xb
 3386 0083 13       		.uleb128 0x13
 3387 0084 01       		.byte	0x1
 3388 0085 03       		.uleb128 0x3
 3389 0086 0E       		.uleb128 0xe
 3390 0087 0B       		.uleb128 0xb
 3391 0088 0B       		.uleb128 0xb
 3392 0089 3A       		.uleb128 0x3a
 3393 008a 0B       		.uleb128 0xb
 3394 008b 3B       		.uleb128 0x3b
 3395 008c 05       		.uleb128 0x5
 3396 008d 01       		.uleb128 0x1
 3397 008e 13       		.uleb128 0x13
 3398 008f 00       		.byte	0
 3399 0090 00       		.byte	0
 3400 0091 0C       		.uleb128 0xc
 3401 0092 0D       		.uleb128 0xd
 3402 0093 00       		.byte	0
 3403 0094 03       		.uleb128 0x3
 3404 0095 08       		.uleb128 0x8
 3405 0096 3A       		.uleb128 0x3a
 3406 0097 0B       		.uleb128 0xb
 3407 0098 3B       		.uleb128 0x3b
 3408 0099 05       		.uleb128 0x5
 3409 009a 49       		.uleb128 0x49
 3410 009b 13       		.uleb128 0x13
 3411 009c 38       		.uleb128 0x38
 3412 009d 0A       		.uleb128 0xa
 3413 009e 00       		.byte	0
 3414 009f 00       		.byte	0
 3415 00a0 0D       		.uleb128 0xd
ARM GAS  /tmp/ccPrDVhe.s 			page 61


 3416 00a1 35       		.uleb128 0x35
 3417 00a2 00       		.byte	0
 3418 00a3 49       		.uleb128 0x49
 3419 00a4 13       		.uleb128 0x13
 3420 00a5 00       		.byte	0
 3421 00a6 00       		.byte	0
 3422 00a7 0E       		.uleb128 0xe
 3423 00a8 17       		.uleb128 0x17
 3424 00a9 01       		.byte	0x1
 3425 00aa 0B       		.uleb128 0xb
 3426 00ab 0B       		.uleb128 0xb
 3427 00ac 3A       		.uleb128 0x3a
 3428 00ad 0B       		.uleb128 0xb
 3429 00ae 3B       		.uleb128 0x3b
 3430 00af 0B       		.uleb128 0xb
 3431 00b0 01       		.uleb128 0x1
 3432 00b1 13       		.uleb128 0x13
 3433 00b2 00       		.byte	0
 3434 00b3 00       		.byte	0
 3435 00b4 0F       		.uleb128 0xf
 3436 00b5 0D       		.uleb128 0xd
 3437 00b6 00       		.byte	0
 3438 00b7 03       		.uleb128 0x3
 3439 00b8 0E       		.uleb128 0xe
 3440 00b9 3A       		.uleb128 0x3a
 3441 00ba 0B       		.uleb128 0xb
 3442 00bb 3B       		.uleb128 0x3b
 3443 00bc 0B       		.uleb128 0xb
 3444 00bd 49       		.uleb128 0x49
 3445 00be 13       		.uleb128 0x13
 3446 00bf 00       		.byte	0
 3447 00c0 00       		.byte	0
 3448 00c1 10       		.uleb128 0x10
 3449 00c2 26       		.uleb128 0x26
 3450 00c3 00       		.byte	0
 3451 00c4 49       		.uleb128 0x49
 3452 00c5 13       		.uleb128 0x13
 3453 00c6 00       		.byte	0
 3454 00c7 00       		.byte	0
 3455 00c8 11       		.uleb128 0x11
 3456 00c9 13       		.uleb128 0x13
 3457 00ca 01       		.byte	0x1
 3458 00cb 0B       		.uleb128 0xb
 3459 00cc 0B       		.uleb128 0xb
 3460 00cd 3A       		.uleb128 0x3a
 3461 00ce 0B       		.uleb128 0xb
 3462 00cf 3B       		.uleb128 0x3b
 3463 00d0 05       		.uleb128 0x5
 3464 00d1 01       		.uleb128 0x1
 3465 00d2 13       		.uleb128 0x13
 3466 00d3 00       		.byte	0
 3467 00d4 00       		.byte	0
 3468 00d5 12       		.uleb128 0x12
 3469 00d6 0D       		.uleb128 0xd
 3470 00d7 00       		.byte	0
 3471 00d8 03       		.uleb128 0x3
 3472 00d9 0E       		.uleb128 0xe
ARM GAS  /tmp/ccPrDVhe.s 			page 62


 3473 00da 3A       		.uleb128 0x3a
 3474 00db 0B       		.uleb128 0xb
 3475 00dc 3B       		.uleb128 0x3b
 3476 00dd 05       		.uleb128 0x5
 3477 00de 49       		.uleb128 0x49
 3478 00df 13       		.uleb128 0x13
 3479 00e0 38       		.uleb128 0x38
 3480 00e1 0A       		.uleb128 0xa
 3481 00e2 00       		.byte	0
 3482 00e3 00       		.byte	0
 3483 00e4 13       		.uleb128 0x13
 3484 00e5 16       		.uleb128 0x16
 3485 00e6 00       		.byte	0
 3486 00e7 03       		.uleb128 0x3
 3487 00e8 0E       		.uleb128 0xe
 3488 00e9 3A       		.uleb128 0x3a
 3489 00ea 0B       		.uleb128 0xb
 3490 00eb 3B       		.uleb128 0x3b
 3491 00ec 05       		.uleb128 0x5
 3492 00ed 49       		.uleb128 0x49
 3493 00ee 13       		.uleb128 0x13
 3494 00ef 00       		.byte	0
 3495 00f0 00       		.byte	0
 3496 00f1 14       		.uleb128 0x14
 3497 00f2 0D       		.uleb128 0xd
 3498 00f3 00       		.byte	0
 3499 00f4 03       		.uleb128 0x3
 3500 00f5 08       		.uleb128 0x8
 3501 00f6 3A       		.uleb128 0x3a
 3502 00f7 0B       		.uleb128 0xb
 3503 00f8 3B       		.uleb128 0x3b
 3504 00f9 0B       		.uleb128 0xb
 3505 00fa 49       		.uleb128 0x49
 3506 00fb 13       		.uleb128 0x13
 3507 00fc 00       		.byte	0
 3508 00fd 00       		.byte	0
 3509 00fe 15       		.uleb128 0x15
 3510 00ff 04       		.uleb128 0x4
 3511 0100 01       		.byte	0x1
 3512 0101 0B       		.uleb128 0xb
 3513 0102 0B       		.uleb128 0xb
 3514 0103 3A       		.uleb128 0x3a
 3515 0104 0B       		.uleb128 0xb
 3516 0105 3B       		.uleb128 0x3b
 3517 0106 0B       		.uleb128 0xb
 3518 0107 01       		.uleb128 0x1
 3519 0108 13       		.uleb128 0x13
 3520 0109 00       		.byte	0
 3521 010a 00       		.byte	0
 3522 010b 16       		.uleb128 0x16
 3523 010c 28       		.uleb128 0x28
 3524 010d 00       		.byte	0
 3525 010e 03       		.uleb128 0x3
 3526 010f 0E       		.uleb128 0xe
 3527 0110 1C       		.uleb128 0x1c
 3528 0111 0D       		.uleb128 0xd
 3529 0112 00       		.byte	0
ARM GAS  /tmp/ccPrDVhe.s 			page 63


 3530 0113 00       		.byte	0
 3531 0114 17       		.uleb128 0x17
 3532 0115 15       		.uleb128 0x15
 3533 0116 01       		.byte	0x1
 3534 0117 27       		.uleb128 0x27
 3535 0118 0C       		.uleb128 0xc
 3536 0119 01       		.uleb128 0x1
 3537 011a 13       		.uleb128 0x13
 3538 011b 00       		.byte	0
 3539 011c 00       		.byte	0
 3540 011d 18       		.uleb128 0x18
 3541 011e 05       		.uleb128 0x5
 3542 011f 00       		.byte	0
 3543 0120 49       		.uleb128 0x49
 3544 0121 13       		.uleb128 0x13
 3545 0122 00       		.byte	0
 3546 0123 00       		.byte	0
 3547 0124 19       		.uleb128 0x19
 3548 0125 26       		.uleb128 0x26
 3549 0126 00       		.byte	0
 3550 0127 00       		.byte	0
 3551 0128 00       		.byte	0
 3552 0129 1A       		.uleb128 0x1a
 3553 012a 2E       		.uleb128 0x2e
 3554 012b 00       		.byte	0
 3555 012c 03       		.uleb128 0x3
 3556 012d 0E       		.uleb128 0xe
 3557 012e 3A       		.uleb128 0x3a
 3558 012f 0B       		.uleb128 0xb
 3559 0130 3B       		.uleb128 0x3b
 3560 0131 0B       		.uleb128 0xb
 3561 0132 27       		.uleb128 0x27
 3562 0133 0C       		.uleb128 0xc
 3563 0134 49       		.uleb128 0x49
 3564 0135 13       		.uleb128 0x13
 3565 0136 20       		.uleb128 0x20
 3566 0137 0B       		.uleb128 0xb
 3567 0138 00       		.byte	0
 3568 0139 00       		.byte	0
 3569 013a 1B       		.uleb128 0x1b
 3570 013b 2E       		.uleb128 0x2e
 3571 013c 01       		.byte	0x1
 3572 013d 03       		.uleb128 0x3
 3573 013e 0E       		.uleb128 0xe
 3574 013f 3A       		.uleb128 0x3a
 3575 0140 0B       		.uleb128 0xb
 3576 0141 3B       		.uleb128 0x3b
 3577 0142 0B       		.uleb128 0xb
 3578 0143 27       		.uleb128 0x27
 3579 0144 0C       		.uleb128 0xc
 3580 0145 20       		.uleb128 0x20
 3581 0146 0B       		.uleb128 0xb
 3582 0147 01       		.uleb128 0x1
 3583 0148 13       		.uleb128 0x13
 3584 0149 00       		.byte	0
 3585 014a 00       		.byte	0
 3586 014b 1C       		.uleb128 0x1c
ARM GAS  /tmp/ccPrDVhe.s 			page 64


 3587 014c 34       		.uleb128 0x34
 3588 014d 00       		.byte	0
 3589 014e 03       		.uleb128 0x3
 3590 014f 0E       		.uleb128 0xe
 3591 0150 3A       		.uleb128 0x3a
 3592 0151 0B       		.uleb128 0xb
 3593 0152 3B       		.uleb128 0x3b
 3594 0153 0B       		.uleb128 0xb
 3595 0154 49       		.uleb128 0x49
 3596 0155 13       		.uleb128 0x13
 3597 0156 00       		.byte	0
 3598 0157 00       		.byte	0
 3599 0158 1D       		.uleb128 0x1d
 3600 0159 34       		.uleb128 0x34
 3601 015a 00       		.byte	0
 3602 015b 03       		.uleb128 0x3
 3603 015c 08       		.uleb128 0x8
 3604 015d 3A       		.uleb128 0x3a
 3605 015e 0B       		.uleb128 0xb
 3606 015f 3B       		.uleb128 0x3b
 3607 0160 0B       		.uleb128 0xb
 3608 0161 49       		.uleb128 0x49
 3609 0162 13       		.uleb128 0x13
 3610 0163 00       		.byte	0
 3611 0164 00       		.byte	0
 3612 0165 1E       		.uleb128 0x1e
 3613 0166 2E       		.uleb128 0x2e
 3614 0167 00       		.byte	0
 3615 0168 03       		.uleb128 0x3
 3616 0169 0E       		.uleb128 0xe
 3617 016a 3A       		.uleb128 0x3a
 3618 016b 0B       		.uleb128 0xb
 3619 016c 3B       		.uleb128 0x3b
 3620 016d 0B       		.uleb128 0xb
 3621 016e 27       		.uleb128 0x27
 3622 016f 0C       		.uleb128 0xc
 3623 0170 20       		.uleb128 0x20
 3624 0171 0B       		.uleb128 0xb
 3625 0172 00       		.byte	0
 3626 0173 00       		.byte	0
 3627 0174 1F       		.uleb128 0x1f
 3628 0175 2E       		.uleb128 0x2e
 3629 0176 01       		.byte	0x1
 3630 0177 3F       		.uleb128 0x3f
 3631 0178 0C       		.uleb128 0xc
 3632 0179 03       		.uleb128 0x3
 3633 017a 0E       		.uleb128 0xe
 3634 017b 3A       		.uleb128 0x3a
 3635 017c 0B       		.uleb128 0xb
 3636 017d 3B       		.uleb128 0x3b
 3637 017e 0B       		.uleb128 0xb
 3638 017f 27       		.uleb128 0x27
 3639 0180 0C       		.uleb128 0xc
 3640 0181 11       		.uleb128 0x11
 3641 0182 01       		.uleb128 0x1
 3642 0183 12       		.uleb128 0x12
 3643 0184 01       		.uleb128 0x1
ARM GAS  /tmp/ccPrDVhe.s 			page 65


 3644 0185 40       		.uleb128 0x40
 3645 0186 06       		.uleb128 0x6
 3646 0187 9742     		.uleb128 0x2117
 3647 0189 0C       		.uleb128 0xc
 3648 018a 01       		.uleb128 0x1
 3649 018b 13       		.uleb128 0x13
 3650 018c 00       		.byte	0
 3651 018d 00       		.byte	0
 3652 018e 20       		.uleb128 0x20
 3653 018f 1D       		.uleb128 0x1d
 3654 0190 01       		.byte	0x1
 3655 0191 31       		.uleb128 0x31
 3656 0192 13       		.uleb128 0x13
 3657 0193 52       		.uleb128 0x52
 3658 0194 01       		.uleb128 0x1
 3659 0195 55       		.uleb128 0x55
 3660 0196 06       		.uleb128 0x6
 3661 0197 58       		.uleb128 0x58
 3662 0198 0B       		.uleb128 0xb
 3663 0199 59       		.uleb128 0x59
 3664 019a 0B       		.uleb128 0xb
 3665 019b 00       		.byte	0
 3666 019c 00       		.byte	0
 3667 019d 21       		.uleb128 0x21
 3668 019e 898201   		.uleb128 0x4109
 3669 01a1 01       		.byte	0x1
 3670 01a2 11       		.uleb128 0x11
 3671 01a3 01       		.uleb128 0x1
 3672 01a4 31       		.uleb128 0x31
 3673 01a5 13       		.uleb128 0x13
 3674 01a6 01       		.uleb128 0x1
 3675 01a7 13       		.uleb128 0x13
 3676 01a8 00       		.byte	0
 3677 01a9 00       		.byte	0
 3678 01aa 22       		.uleb128 0x22
 3679 01ab 8A8201   		.uleb128 0x410a
 3680 01ae 00       		.byte	0
 3681 01af 02       		.uleb128 0x2
 3682 01b0 0A       		.uleb128 0xa
 3683 01b1 9142     		.uleb128 0x2111
 3684 01b3 0A       		.uleb128 0xa
 3685 01b4 00       		.byte	0
 3686 01b5 00       		.byte	0
 3687 01b6 23       		.uleb128 0x23
 3688 01b7 898201   		.uleb128 0x4109
 3689 01ba 01       		.byte	0x1
 3690 01bb 11       		.uleb128 0x11
 3691 01bc 01       		.uleb128 0x1
 3692 01bd 9542     		.uleb128 0x2115
 3693 01bf 0C       		.uleb128 0xc
 3694 01c0 31       		.uleb128 0x31
 3695 01c1 13       		.uleb128 0x13
 3696 01c2 00       		.byte	0
 3697 01c3 00       		.byte	0
 3698 01c4 24       		.uleb128 0x24
 3699 01c5 2E       		.uleb128 0x2e
 3700 01c6 01       		.byte	0x1
ARM GAS  /tmp/ccPrDVhe.s 			page 66


 3701 01c7 03       		.uleb128 0x3
 3702 01c8 0E       		.uleb128 0xe
 3703 01c9 3A       		.uleb128 0x3a
 3704 01ca 0B       		.uleb128 0xb
 3705 01cb 3B       		.uleb128 0x3b
 3706 01cc 0B       		.uleb128 0xb
 3707 01cd 27       		.uleb128 0x27
 3708 01ce 0C       		.uleb128 0xc
 3709 01cf 49       		.uleb128 0x49
 3710 01d0 13       		.uleb128 0x13
 3711 01d1 20       		.uleb128 0x20
 3712 01d2 0B       		.uleb128 0xb
 3713 01d3 01       		.uleb128 0x1
 3714 01d4 13       		.uleb128 0x13
 3715 01d5 00       		.byte	0
 3716 01d6 00       		.byte	0
 3717 01d7 25       		.uleb128 0x25
 3718 01d8 05       		.uleb128 0x5
 3719 01d9 00       		.byte	0
 3720 01da 03       		.uleb128 0x3
 3721 01db 0E       		.uleb128 0xe
 3722 01dc 3A       		.uleb128 0x3a
 3723 01dd 0B       		.uleb128 0xb
 3724 01de 3B       		.uleb128 0x3b
 3725 01df 0B       		.uleb128 0xb
 3726 01e0 49       		.uleb128 0x49
 3727 01e1 13       		.uleb128 0x13
 3728 01e2 00       		.byte	0
 3729 01e3 00       		.byte	0
 3730 01e4 26       		.uleb128 0x26
 3731 01e5 01       		.uleb128 0x1
 3732 01e6 01       		.byte	0x1
 3733 01e7 49       		.uleb128 0x49
 3734 01e8 13       		.uleb128 0x13
 3735 01e9 01       		.uleb128 0x1
 3736 01ea 13       		.uleb128 0x13
 3737 01eb 00       		.byte	0
 3738 01ec 00       		.byte	0
 3739 01ed 27       		.uleb128 0x27
 3740 01ee 21       		.uleb128 0x21
 3741 01ef 00       		.byte	0
 3742 01f0 49       		.uleb128 0x49
 3743 01f1 13       		.uleb128 0x13
 3744 01f2 2F       		.uleb128 0x2f
 3745 01f3 0B       		.uleb128 0xb
 3746 01f4 00       		.byte	0
 3747 01f5 00       		.byte	0
 3748 01f6 28       		.uleb128 0x28
 3749 01f7 05       		.uleb128 0x5
 3750 01f8 00       		.byte	0
 3751 01f9 03       		.uleb128 0x3
 3752 01fa 08       		.uleb128 0x8
 3753 01fb 3A       		.uleb128 0x3a
 3754 01fc 0B       		.uleb128 0xb
 3755 01fd 3B       		.uleb128 0x3b
 3756 01fe 0B       		.uleb128 0xb
 3757 01ff 49       		.uleb128 0x49
ARM GAS  /tmp/ccPrDVhe.s 			page 67


 3758 0200 13       		.uleb128 0x13
 3759 0201 02       		.uleb128 0x2
 3760 0202 06       		.uleb128 0x6
 3761 0203 00       		.byte	0
 3762 0204 00       		.byte	0
 3763 0205 29       		.uleb128 0x29
 3764 0206 34       		.uleb128 0x34
 3765 0207 00       		.byte	0
 3766 0208 03       		.uleb128 0x3
 3767 0209 08       		.uleb128 0x8
 3768 020a 3A       		.uleb128 0x3a
 3769 020b 0B       		.uleb128 0xb
 3770 020c 3B       		.uleb128 0x3b
 3771 020d 0B       		.uleb128 0xb
 3772 020e 49       		.uleb128 0x49
 3773 020f 13       		.uleb128 0x13
 3774 0210 02       		.uleb128 0x2
 3775 0211 06       		.uleb128 0x6
 3776 0212 00       		.byte	0
 3777 0213 00       		.byte	0
 3778 0214 2A       		.uleb128 0x2a
 3779 0215 1D       		.uleb128 0x1d
 3780 0216 00       		.byte	0
 3781 0217 31       		.uleb128 0x31
 3782 0218 13       		.uleb128 0x13
 3783 0219 52       		.uleb128 0x52
 3784 021a 01       		.uleb128 0x1
 3785 021b 55       		.uleb128 0x55
 3786 021c 06       		.uleb128 0x6
 3787 021d 58       		.uleb128 0x58
 3788 021e 0B       		.uleb128 0xb
 3789 021f 59       		.uleb128 0x59
 3790 0220 0B       		.uleb128 0xb
 3791 0221 00       		.byte	0
 3792 0222 00       		.byte	0
 3793 0223 2B       		.uleb128 0x2b
 3794 0224 1D       		.uleb128 0x1d
 3795 0225 01       		.byte	0x1
 3796 0226 31       		.uleb128 0x31
 3797 0227 13       		.uleb128 0x13
 3798 0228 52       		.uleb128 0x52
 3799 0229 01       		.uleb128 0x1
 3800 022a 55       		.uleb128 0x55
 3801 022b 06       		.uleb128 0x6
 3802 022c 58       		.uleb128 0x58
 3803 022d 0B       		.uleb128 0xb
 3804 022e 59       		.uleb128 0x59
 3805 022f 0B       		.uleb128 0xb
 3806 0230 01       		.uleb128 0x1
 3807 0231 13       		.uleb128 0x13
 3808 0232 00       		.byte	0
 3809 0233 00       		.byte	0
 3810 0234 2C       		.uleb128 0x2c
 3811 0235 05       		.uleb128 0x5
 3812 0236 00       		.byte	0
 3813 0237 31       		.uleb128 0x31
 3814 0238 13       		.uleb128 0x13
ARM GAS  /tmp/ccPrDVhe.s 			page 68


 3815 0239 1C       		.uleb128 0x1c
 3816 023a 0B       		.uleb128 0xb
 3817 023b 00       		.byte	0
 3818 023c 00       		.byte	0
 3819 023d 2D       		.uleb128 0x2d
 3820 023e 0B       		.uleb128 0xb
 3821 023f 01       		.byte	0x1
 3822 0240 55       		.uleb128 0x55
 3823 0241 06       		.uleb128 0x6
 3824 0242 00       		.byte	0
 3825 0243 00       		.byte	0
 3826 0244 2E       		.uleb128 0x2e
 3827 0245 34       		.uleb128 0x34
 3828 0246 00       		.byte	0
 3829 0247 31       		.uleb128 0x31
 3830 0248 13       		.uleb128 0x13
 3831 0249 02       		.uleb128 0x2
 3832 024a 06       		.uleb128 0x6
 3833 024b 00       		.byte	0
 3834 024c 00       		.byte	0
 3835 024d 2F       		.uleb128 0x2f
 3836 024e 34       		.uleb128 0x34
 3837 024f 00       		.byte	0
 3838 0250 31       		.uleb128 0x31
 3839 0251 13       		.uleb128 0x13
 3840 0252 02       		.uleb128 0x2
 3841 0253 0A       		.uleb128 0xa
 3842 0254 00       		.byte	0
 3843 0255 00       		.byte	0
 3844 0256 30       		.uleb128 0x30
 3845 0257 898201   		.uleb128 0x4109
 3846 025a 01       		.byte	0x1
 3847 025b 11       		.uleb128 0x11
 3848 025c 01       		.uleb128 0x1
 3849 025d 31       		.uleb128 0x31
 3850 025e 13       		.uleb128 0x13
 3851 025f 00       		.byte	0
 3852 0260 00       		.byte	0
 3853 0261 31       		.uleb128 0x31
 3854 0262 898201   		.uleb128 0x4109
 3855 0265 00       		.byte	0
 3856 0266 11       		.uleb128 0x11
 3857 0267 01       		.uleb128 0x1
 3858 0268 31       		.uleb128 0x31
 3859 0269 13       		.uleb128 0x13
 3860 026a 00       		.byte	0
 3861 026b 00       		.byte	0
 3862 026c 32       		.uleb128 0x32
 3863 026d 1D       		.uleb128 0x1d
 3864 026e 01       		.byte	0x1
 3865 026f 31       		.uleb128 0x31
 3866 0270 13       		.uleb128 0x13
 3867 0271 11       		.uleb128 0x11
 3868 0272 01       		.uleb128 0x1
 3869 0273 12       		.uleb128 0x12
 3870 0274 01       		.uleb128 0x1
 3871 0275 58       		.uleb128 0x58
ARM GAS  /tmp/ccPrDVhe.s 			page 69


 3872 0276 0B       		.uleb128 0xb
 3873 0277 59       		.uleb128 0x59
 3874 0278 0B       		.uleb128 0xb
 3875 0279 01       		.uleb128 0x1
 3876 027a 13       		.uleb128 0x13
 3877 027b 00       		.byte	0
 3878 027c 00       		.byte	0
 3879 027d 33       		.uleb128 0x33
 3880 027e 0B       		.uleb128 0xb
 3881 027f 01       		.byte	0x1
 3882 0280 11       		.uleb128 0x11
 3883 0281 01       		.uleb128 0x1
 3884 0282 12       		.uleb128 0x12
 3885 0283 01       		.uleb128 0x1
 3886 0284 00       		.byte	0
 3887 0285 00       		.byte	0
 3888 0286 34       		.uleb128 0x34
 3889 0287 34       		.uleb128 0x34
 3890 0288 00       		.byte	0
 3891 0289 03       		.uleb128 0x3
 3892 028a 0E       		.uleb128 0xe
 3893 028b 3A       		.uleb128 0x3a
 3894 028c 0B       		.uleb128 0xb
 3895 028d 3B       		.uleb128 0x3b
 3896 028e 0B       		.uleb128 0xb
 3897 028f 49       		.uleb128 0x49
 3898 0290 13       		.uleb128 0x13
 3899 0291 02       		.uleb128 0x2
 3900 0292 0A       		.uleb128 0xa
 3901 0293 00       		.byte	0
 3902 0294 00       		.byte	0
 3903 0295 35       		.uleb128 0x35
 3904 0296 34       		.uleb128 0x34
 3905 0297 00       		.byte	0
 3906 0298 03       		.uleb128 0x3
 3907 0299 0E       		.uleb128 0xe
 3908 029a 3A       		.uleb128 0x3a
 3909 029b 0B       		.uleb128 0xb
 3910 029c 3B       		.uleb128 0x3b
 3911 029d 05       		.uleb128 0x5
 3912 029e 49       		.uleb128 0x49
 3913 029f 13       		.uleb128 0x13
 3914 02a0 3F       		.uleb128 0x3f
 3915 02a1 0C       		.uleb128 0xc
 3916 02a2 3C       		.uleb128 0x3c
 3917 02a3 0C       		.uleb128 0xc
 3918 02a4 00       		.byte	0
 3919 02a5 00       		.byte	0
 3920 02a6 36       		.uleb128 0x36
 3921 02a7 2E       		.uleb128 0x2e
 3922 02a8 01       		.byte	0x1
 3923 02a9 3F       		.uleb128 0x3f
 3924 02aa 0C       		.uleb128 0xc
 3925 02ab 03       		.uleb128 0x3
 3926 02ac 0E       		.uleb128 0xe
 3927 02ad 3A       		.uleb128 0x3a
 3928 02ae 0B       		.uleb128 0xb
ARM GAS  /tmp/ccPrDVhe.s 			page 70


 3929 02af 3B       		.uleb128 0x3b
 3930 02b0 05       		.uleb128 0x5
 3931 02b1 27       		.uleb128 0x27
 3932 02b2 0C       		.uleb128 0xc
 3933 02b3 3C       		.uleb128 0x3c
 3934 02b4 0C       		.uleb128 0xc
 3935 02b5 01       		.uleb128 0x1
 3936 02b6 13       		.uleb128 0x13
 3937 02b7 00       		.byte	0
 3938 02b8 00       		.byte	0
 3939 02b9 37       		.uleb128 0x37
 3940 02ba 2E       		.uleb128 0x2e
 3941 02bb 01       		.byte	0x1
 3942 02bc 3F       		.uleb128 0x3f
 3943 02bd 0C       		.uleb128 0xc
 3944 02be 03       		.uleb128 0x3
 3945 02bf 0E       		.uleb128 0xe
 3946 02c0 3A       		.uleb128 0x3a
 3947 02c1 0B       		.uleb128 0xb
 3948 02c2 3B       		.uleb128 0x3b
 3949 02c3 05       		.uleb128 0x5
 3950 02c4 27       		.uleb128 0x27
 3951 02c5 0C       		.uleb128 0xc
 3952 02c6 3C       		.uleb128 0x3c
 3953 02c7 0C       		.uleb128 0xc
 3954 02c8 00       		.byte	0
 3955 02c9 00       		.byte	0
 3956 02ca 00       		.byte	0
 3957              		.section	.debug_loc,"",%progbits
 3958              	.Ldebug_loc0:
 3959              	.LLST0:
 3960 0000 00000000 		.4byte	.LFB124
 3961 0004 02000000 		.4byte	.LCFI0
 3962 0008 0200     		.2byte	0x2
 3963 000a 7D       		.byte	0x7d
 3964 000b 00       		.sleb128 0
 3965 000c 02000000 		.4byte	.LCFI0
 3966 0010 5C000000 		.4byte	.LFE124
 3967 0014 0200     		.2byte	0x2
 3968 0016 7D       		.byte	0x7d
 3969 0017 10       		.sleb128 16
 3970 0018 00000000 		.4byte	0
 3971 001c 00000000 		.4byte	0
 3972              	.LLST1:
 3973 0020 00000000 		.4byte	.LFB125
 3974 0024 04000000 		.4byte	.LCFI1
 3975 0028 0200     		.2byte	0x2
 3976 002a 7D       		.byte	0x7d
 3977 002b 00       		.sleb128 0
 3978 002c 04000000 		.4byte	.LCFI1
 3979 0030 C4030000 		.4byte	.LFE125
 3980 0034 0200     		.2byte	0x2
 3981 0036 7D       		.byte	0x7d
 3982 0037 20       		.sleb128 32
 3983 0038 00000000 		.4byte	0
 3984 003c 00000000 		.4byte	0
 3985              	.LLST2:
ARM GAS  /tmp/ccPrDVhe.s 			page 71


 3986 0040 00000000 		.4byte	.LVL5
 3987 0044 20000000 		.4byte	.LVL6
 3988 0048 0100     		.2byte	0x1
 3989 004a 50       		.byte	0x50
 3990 004b 20000000 		.4byte	.LVL6
 3991 004f 38000000 		.4byte	.LVL7
 3992 0053 0100     		.2byte	0x1
 3993 0055 57       		.byte	0x57
 3994 0056 38000000 		.4byte	.LVL7
 3995 005a 42000000 		.4byte	.LVL8
 3996 005e 0100     		.2byte	0x1
 3997 0060 50       		.byte	0x50
 3998 0061 42000000 		.4byte	.LVL8
 3999 0065 C4030000 		.4byte	.LFE125
 4000 0069 0100     		.2byte	0x1
 4001 006b 57       		.byte	0x57
 4002 006c 00000000 		.4byte	0
 4003 0070 00000000 		.4byte	0
 4004              	.LLST3:
 4005 0074 60000000 		.4byte	.LVL11
 4006 0078 8E000000 		.4byte	.LVL13
 4007 007c 0200     		.2byte	0x2
 4008 007e 30       		.byte	0x30
 4009 007f 9F       		.byte	0x9f
 4010 0080 8E000000 		.4byte	.LVL13
 4011 0084 B0000000 		.4byte	.LVL15
 4012 0088 0200     		.2byte	0x2
 4013 008a 31       		.byte	0x31
 4014 008b 9F       		.byte	0x9f
 4015 008c B0000000 		.4byte	.LVL15
 4016 0090 D2000000 		.4byte	.LVL17
 4017 0094 0200     		.2byte	0x2
 4018 0096 32       		.byte	0x32
 4019 0097 9F       		.byte	0x9f
 4020 0098 D2000000 		.4byte	.LVL17
 4021 009c F4000000 		.4byte	.LVL19
 4022 00a0 0200     		.2byte	0x2
 4023 00a2 33       		.byte	0x33
 4024 00a3 9F       		.byte	0x9f
 4025 00a4 F4000000 		.4byte	.LVL19
 4026 00a8 16010000 		.4byte	.LVL21
 4027 00ac 0200     		.2byte	0x2
 4028 00ae 34       		.byte	0x34
 4029 00af 9F       		.byte	0x9f
 4030 00b0 16010000 		.4byte	.LVL21
 4031 00b4 30010000 		.4byte	.LVL23
 4032 00b8 0200     		.2byte	0x2
 4033 00ba 35       		.byte	0x35
 4034 00bb 9F       		.byte	0x9f
 4035 00bc 30010000 		.4byte	.LVL23
 4036 00c0 4E010000 		.4byte	.LVL25
 4037 00c4 0200     		.2byte	0x2
 4038 00c6 36       		.byte	0x36
 4039 00c7 9F       		.byte	0x9f
 4040 00c8 4E010000 		.4byte	.LVL25
 4041 00cc F4010000 		.4byte	.LVL39
 4042 00d0 0200     		.2byte	0x2
ARM GAS  /tmp/ccPrDVhe.s 			page 72


 4043 00d2 37       		.byte	0x37
 4044 00d3 9F       		.byte	0x9f
 4045 00d4 F4010000 		.4byte	.LVL39
 4046 00d8 22020000 		.4byte	.LVL41
 4047 00dc 0200     		.2byte	0x2
 4048 00de 30       		.byte	0x30
 4049 00df 9F       		.byte	0x9f
 4050 00e0 22020000 		.4byte	.LVL41
 4051 00e4 44020000 		.4byte	.LVL43
 4052 00e8 0200     		.2byte	0x2
 4053 00ea 31       		.byte	0x31
 4054 00eb 9F       		.byte	0x9f
 4055 00ec 44020000 		.4byte	.LVL43
 4056 00f0 66020000 		.4byte	.LVL45
 4057 00f4 0200     		.2byte	0x2
 4058 00f6 32       		.byte	0x32
 4059 00f7 9F       		.byte	0x9f
 4060 00f8 66020000 		.4byte	.LVL45
 4061 00fc 88020000 		.4byte	.LVL47
 4062 0100 0200     		.2byte	0x2
 4063 0102 33       		.byte	0x33
 4064 0103 9F       		.byte	0x9f
 4065 0104 88020000 		.4byte	.LVL47
 4066 0108 AA020000 		.4byte	.LVL49
 4067 010c 0200     		.2byte	0x2
 4068 010e 34       		.byte	0x34
 4069 010f 9F       		.byte	0x9f
 4070 0110 AA020000 		.4byte	.LVL49
 4071 0114 C8020000 		.4byte	.LVL51
 4072 0118 0200     		.2byte	0x2
 4073 011a 35       		.byte	0x35
 4074 011b 9F       		.byte	0x9f
 4075 011c C8020000 		.4byte	.LVL51
 4076 0120 E4020000 		.4byte	.LVL53
 4077 0124 0200     		.2byte	0x2
 4078 0126 36       		.byte	0x36
 4079 0127 9F       		.byte	0x9f
 4080 0128 E4020000 		.4byte	.LVL53
 4081 012c C4030000 		.4byte	.LFE125
 4082 0130 0200     		.2byte	0x2
 4083 0132 37       		.byte	0x37
 4084 0133 9F       		.byte	0x9f
 4085 0134 00000000 		.4byte	0
 4086 0138 00000000 		.4byte	0
 4087              	.LLST4:
 4088 013c 60000000 		.4byte	.LVL11
 4089 0140 6F000000 		.4byte	.LVL12-1
 4090 0144 1A00     		.2byte	0x1a
 4091 0146 03       		.byte	0x3
 4092 0147 01000000 		.4byte	rxbuf.7957+1
 4093 014b 94       		.byte	0x94
 4094 014c 01       		.byte	0x1
 4095 014d 08       		.byte	0x8
 4096 014e FF       		.byte	0xff
 4097 014f 1A       		.byte	0x1a
 4098 0150 35       		.byte	0x35
 4099 0151 24       		.byte	0x24
ARM GAS  /tmp/ccPrDVhe.s 			page 73


 4100 0152 03       		.byte	0x3
 4101 0153 02000000 		.4byte	rxbuf.7957+2
 4102 0157 94       		.byte	0x94
 4103 0158 01       		.byte	0x1
 4104 0159 33       		.byte	0x33
 4105 015a 25       		.byte	0x25
 4106 015b 08       		.byte	0x8
 4107 015c FF       		.byte	0xff
 4108 015d 1A       		.byte	0x1a
 4109 015e 21       		.byte	0x21
 4110 015f 9F       		.byte	0x9f
 4111 0160 00000000 		.4byte	0
 4112 0164 00000000 		.4byte	0
 4113              	.LLST5:
 4114 0168 70000000 		.4byte	.LVL12
 4115 016c 91000000 		.4byte	.LVL14-1
 4116 0170 1A00     		.2byte	0x1a
 4117 0172 03       		.byte	0x3
 4118 0173 01000000 		.4byte	rxbuf.7957+1
 4119 0177 94       		.byte	0x94
 4120 0178 01       		.byte	0x1
 4121 0179 08       		.byte	0x8
 4122 017a FF       		.byte	0xff
 4123 017b 1A       		.byte	0x1a
 4124 017c 35       		.byte	0x35
 4125 017d 24       		.byte	0x24
 4126 017e 03       		.byte	0x3
 4127 017f 02000000 		.4byte	rxbuf.7957+2
 4128 0183 94       		.byte	0x94
 4129 0184 01       		.byte	0x1
 4130 0185 33       		.byte	0x33
 4131 0186 25       		.byte	0x25
 4132 0187 08       		.byte	0x8
 4133 0188 FF       		.byte	0xff
 4134 0189 1A       		.byte	0x1a
 4135 018a 21       		.byte	0x21
 4136 018b 9F       		.byte	0x9f
 4137 018c 92000000 		.4byte	.LVL14
 4138 0190 B3000000 		.4byte	.LVL16-1
 4139 0194 1A00     		.2byte	0x1a
 4140 0196 03       		.byte	0x3
 4141 0197 01000000 		.4byte	rxbuf.7957+1
 4142 019b 94       		.byte	0x94
 4143 019c 01       		.byte	0x1
 4144 019d 08       		.byte	0x8
 4145 019e FF       		.byte	0xff
 4146 019f 1A       		.byte	0x1a
 4147 01a0 35       		.byte	0x35
 4148 01a1 24       		.byte	0x24
 4149 01a2 03       		.byte	0x3
 4150 01a3 02000000 		.4byte	rxbuf.7957+2
 4151 01a7 94       		.byte	0x94
 4152 01a8 01       		.byte	0x1
 4153 01a9 33       		.byte	0x33
 4154 01aa 25       		.byte	0x25
 4155 01ab 08       		.byte	0x8
 4156 01ac FF       		.byte	0xff
ARM GAS  /tmp/ccPrDVhe.s 			page 74


 4157 01ad 1A       		.byte	0x1a
 4158 01ae 21       		.byte	0x21
 4159 01af 9F       		.byte	0x9f
 4160 01b0 B4000000 		.4byte	.LVL16
 4161 01b4 D5000000 		.4byte	.LVL18-1
 4162 01b8 1A00     		.2byte	0x1a
 4163 01ba 03       		.byte	0x3
 4164 01bb 01000000 		.4byte	rxbuf.7957+1
 4165 01bf 94       		.byte	0x94
 4166 01c0 01       		.byte	0x1
 4167 01c1 08       		.byte	0x8
 4168 01c2 FF       		.byte	0xff
 4169 01c3 1A       		.byte	0x1a
 4170 01c4 35       		.byte	0x35
 4171 01c5 24       		.byte	0x24
 4172 01c6 03       		.byte	0x3
 4173 01c7 02000000 		.4byte	rxbuf.7957+2
 4174 01cb 94       		.byte	0x94
 4175 01cc 01       		.byte	0x1
 4176 01cd 33       		.byte	0x33
 4177 01ce 25       		.byte	0x25
 4178 01cf 08       		.byte	0x8
 4179 01d0 FF       		.byte	0xff
 4180 01d1 1A       		.byte	0x1a
 4181 01d2 21       		.byte	0x21
 4182 01d3 9F       		.byte	0x9f
 4183 01d4 D6000000 		.4byte	.LVL18
 4184 01d8 F7000000 		.4byte	.LVL20-1
 4185 01dc 1A00     		.2byte	0x1a
 4186 01de 03       		.byte	0x3
 4187 01df 01000000 		.4byte	rxbuf.7957+1
 4188 01e3 94       		.byte	0x94
 4189 01e4 01       		.byte	0x1
 4190 01e5 08       		.byte	0x8
 4191 01e6 FF       		.byte	0xff
 4192 01e7 1A       		.byte	0x1a
 4193 01e8 35       		.byte	0x35
 4194 01e9 24       		.byte	0x24
 4195 01ea 03       		.byte	0x3
 4196 01eb 02000000 		.4byte	rxbuf.7957+2
 4197 01ef 94       		.byte	0x94
 4198 01f0 01       		.byte	0x1
 4199 01f1 33       		.byte	0x33
 4200 01f2 25       		.byte	0x25
 4201 01f3 08       		.byte	0x8
 4202 01f4 FF       		.byte	0xff
 4203 01f5 1A       		.byte	0x1a
 4204 01f6 21       		.byte	0x21
 4205 01f7 9F       		.byte	0x9f
 4206 01f8 F8000000 		.4byte	.LVL20
 4207 01fc 19010000 		.4byte	.LVL22-1
 4208 0200 1A00     		.2byte	0x1a
 4209 0202 03       		.byte	0x3
 4210 0203 01000000 		.4byte	rxbuf.7957+1
 4211 0207 94       		.byte	0x94
 4212 0208 01       		.byte	0x1
 4213 0209 08       		.byte	0x8
ARM GAS  /tmp/ccPrDVhe.s 			page 75


 4214 020a FF       		.byte	0xff
 4215 020b 1A       		.byte	0x1a
 4216 020c 35       		.byte	0x35
 4217 020d 24       		.byte	0x24
 4218 020e 03       		.byte	0x3
 4219 020f 02000000 		.4byte	rxbuf.7957+2
 4220 0213 94       		.byte	0x94
 4221 0214 01       		.byte	0x1
 4222 0215 33       		.byte	0x33
 4223 0216 25       		.byte	0x25
 4224 0217 08       		.byte	0x8
 4225 0218 FF       		.byte	0xff
 4226 0219 1A       		.byte	0x1a
 4227 021a 21       		.byte	0x21
 4228 021b 9F       		.byte	0x9f
 4229 021c 1A010000 		.4byte	.LVL22
 4230 0220 39010000 		.4byte	.LVL24-1
 4231 0224 1A00     		.2byte	0x1a
 4232 0226 03       		.byte	0x3
 4233 0227 01000000 		.4byte	rxbuf.7957+1
 4234 022b 94       		.byte	0x94
 4235 022c 01       		.byte	0x1
 4236 022d 08       		.byte	0x8
 4237 022e FF       		.byte	0xff
 4238 022f 1A       		.byte	0x1a
 4239 0230 35       		.byte	0x35
 4240 0231 24       		.byte	0x24
 4241 0232 03       		.byte	0x3
 4242 0233 02000000 		.4byte	rxbuf.7957+2
 4243 0237 94       		.byte	0x94
 4244 0238 01       		.byte	0x1
 4245 0239 33       		.byte	0x33
 4246 023a 25       		.byte	0x25
 4247 023b 08       		.byte	0x8
 4248 023c FF       		.byte	0xff
 4249 023d 1A       		.byte	0x1a
 4250 023e 21       		.byte	0x21
 4251 023f 9F       		.byte	0x9f
 4252 0240 3A010000 		.4byte	.LVL24
 4253 0244 5B010000 		.4byte	.LVL26-1
 4254 0248 1A00     		.2byte	0x1a
 4255 024a 03       		.byte	0x3
 4256 024b 01000000 		.4byte	rxbuf.7957+1
 4257 024f 94       		.byte	0x94
 4258 0250 01       		.byte	0x1
 4259 0251 08       		.byte	0x8
 4260 0252 FF       		.byte	0xff
 4261 0253 1A       		.byte	0x1a
 4262 0254 35       		.byte	0x35
 4263 0255 24       		.byte	0x24
 4264 0256 03       		.byte	0x3
 4265 0257 02000000 		.4byte	rxbuf.7957+2
 4266 025b 94       		.byte	0x94
 4267 025c 01       		.byte	0x1
 4268 025d 33       		.byte	0x33
 4269 025e 25       		.byte	0x25
 4270 025f 08       		.byte	0x8
ARM GAS  /tmp/ccPrDVhe.s 			page 76


 4271 0260 FF       		.byte	0xff
 4272 0261 1A       		.byte	0x1a
 4273 0262 21       		.byte	0x21
 4274 0263 9F       		.byte	0x9f
 4275 0264 00000000 		.4byte	0
 4276 0268 00000000 		.4byte	0
 4277              	.LLST6:
 4278 026c 5C010000 		.4byte	.LVL26
 4279 0270 F3010000 		.4byte	.LVL39-1
 4280 0274 1A00     		.2byte	0x1a
 4281 0276 03       		.byte	0x3
 4282 0277 01000000 		.4byte	rxbuf.7957+1
 4283 027b 94       		.byte	0x94
 4284 027c 01       		.byte	0x1
 4285 027d 08       		.byte	0x8
 4286 027e FF       		.byte	0xff
 4287 027f 1A       		.byte	0x1a
 4288 0280 35       		.byte	0x35
 4289 0281 24       		.byte	0x24
 4290 0282 03       		.byte	0x3
 4291 0283 02000000 		.4byte	rxbuf.7957+2
 4292 0287 94       		.byte	0x94
 4293 0288 01       		.byte	0x1
 4294 0289 33       		.byte	0x33
 4295 028a 25       		.byte	0x25
 4296 028b 08       		.byte	0x8
 4297 028c FF       		.byte	0xff
 4298 028d 1A       		.byte	0x1a
 4299 028e 21       		.byte	0x21
 4300 028f 9F       		.byte	0x9f
 4301 0290 00000000 		.4byte	0
 4302 0294 00000000 		.4byte	0
 4303              	.LLST7:
 4304 0298 A4010000 		.4byte	.LVL31
 4305 029c C6010000 		.4byte	.LVL33
 4306 02a0 0500     		.2byte	0x5
 4307 02a2 74       		.byte	0x74
 4308 02a3 00       		.sleb128 0
 4309 02a4 75       		.byte	0x75
 4310 02a5 00       		.sleb128 0
 4311 02a6 22       		.byte	0x22
 4312 02a7 00000000 		.4byte	0
 4313 02ab 00000000 		.4byte	0
 4314              	.LLST8:
 4315 02af 5C010000 		.4byte	.LVL26
 4316 02b3 60010000 		.4byte	.LVL27
 4317 02b7 0200     		.2byte	0x2
 4318 02b9 30       		.byte	0x30
 4319 02ba 9F       		.byte	0x9f
 4320 02bb D6010000 		.4byte	.LVL35
 4321 02bf E6010000 		.4byte	.LVL37
 4322 02c3 0100     		.2byte	0x1
 4323 02c5 53       		.byte	0x53
 4324 02c6 00000000 		.4byte	0
 4325 02ca 00000000 		.4byte	0
 4326              	.LLST9:
 4327 02ce 60010000 		.4byte	.LVL27
ARM GAS  /tmp/ccPrDVhe.s 			page 77


 4328 02d2 7E010000 		.4byte	.LVL28
 4329 02d6 0100     		.2byte	0x1
 4330 02d8 53       		.byte	0x53
 4331 02d9 7E010000 		.4byte	.LVL28
 4332 02dd 9A010000 		.4byte	.LVL29
 4333 02e1 0100     		.2byte	0x1
 4334 02e3 56       		.byte	0x56
 4335 02e4 9C010000 		.4byte	.LVL30
 4336 02e8 C4010000 		.4byte	.LVL32
 4337 02ec 0100     		.2byte	0x1
 4338 02ee 56       		.byte	0x56
 4339 02ef C4010000 		.4byte	.LVL32
 4340 02f3 C8010000 		.4byte	.LVL34
 4341 02f7 0300     		.2byte	0x3
 4342 02f9 76       		.byte	0x76
 4343 02fa 7F       		.sleb128 -1
 4344 02fb 9F       		.byte	0x9f
 4345 02fc C8010000 		.4byte	.LVL34
 4346 0300 E0010000 		.4byte	.LVL36
 4347 0304 0100     		.2byte	0x1
 4348 0306 56       		.byte	0x56
 4349 0307 00000000 		.4byte	0
 4350 030b 00000000 		.4byte	0
 4351              	.LLST10:
 4352 030f F4010000 		.4byte	.LVL39
 4353 0313 03020000 		.4byte	.LVL40-1
 4354 0317 1A00     		.2byte	0x1a
 4355 0319 03       		.byte	0x3
 4356 031a 01000000 		.4byte	rxbuf.7957+1
 4357 031e 94       		.byte	0x94
 4358 031f 01       		.byte	0x1
 4359 0320 08       		.byte	0x8
 4360 0321 FF       		.byte	0xff
 4361 0322 1A       		.byte	0x1a
 4362 0323 35       		.byte	0x35
 4363 0324 24       		.byte	0x24
 4364 0325 03       		.byte	0x3
 4365 0326 02000000 		.4byte	rxbuf.7957+2
 4366 032a 94       		.byte	0x94
 4367 032b 01       		.byte	0x1
 4368 032c 33       		.byte	0x33
 4369 032d 25       		.byte	0x25
 4370 032e 08       		.byte	0x8
 4371 032f FF       		.byte	0xff
 4372 0330 1A       		.byte	0x1a
 4373 0331 21       		.byte	0x21
 4374 0332 9F       		.byte	0x9f
 4375 0333 00000000 		.4byte	0
 4376 0337 00000000 		.4byte	0
 4377              	.LLST11:
 4378 033b 04020000 		.4byte	.LVL40
 4379 033f 25020000 		.4byte	.LVL42-1
 4380 0343 1A00     		.2byte	0x1a
 4381 0345 03       		.byte	0x3
 4382 0346 01000000 		.4byte	rxbuf.7957+1
 4383 034a 94       		.byte	0x94
 4384 034b 01       		.byte	0x1
ARM GAS  /tmp/ccPrDVhe.s 			page 78


 4385 034c 08       		.byte	0x8
 4386 034d FF       		.byte	0xff
 4387 034e 1A       		.byte	0x1a
 4388 034f 35       		.byte	0x35
 4389 0350 24       		.byte	0x24
 4390 0351 03       		.byte	0x3
 4391 0352 02000000 		.4byte	rxbuf.7957+2
 4392 0356 94       		.byte	0x94
 4393 0357 01       		.byte	0x1
 4394 0358 33       		.byte	0x33
 4395 0359 25       		.byte	0x25
 4396 035a 08       		.byte	0x8
 4397 035b FF       		.byte	0xff
 4398 035c 1A       		.byte	0x1a
 4399 035d 21       		.byte	0x21
 4400 035e 9F       		.byte	0x9f
 4401 035f 26020000 		.4byte	.LVL42
 4402 0363 47020000 		.4byte	.LVL44-1
 4403 0367 1A00     		.2byte	0x1a
 4404 0369 03       		.byte	0x3
 4405 036a 01000000 		.4byte	rxbuf.7957+1
 4406 036e 94       		.byte	0x94
 4407 036f 01       		.byte	0x1
 4408 0370 08       		.byte	0x8
 4409 0371 FF       		.byte	0xff
 4410 0372 1A       		.byte	0x1a
 4411 0373 35       		.byte	0x35
 4412 0374 24       		.byte	0x24
 4413 0375 03       		.byte	0x3
 4414 0376 02000000 		.4byte	rxbuf.7957+2
 4415 037a 94       		.byte	0x94
 4416 037b 01       		.byte	0x1
 4417 037c 33       		.byte	0x33
 4418 037d 25       		.byte	0x25
 4419 037e 08       		.byte	0x8
 4420 037f FF       		.byte	0xff
 4421 0380 1A       		.byte	0x1a
 4422 0381 21       		.byte	0x21
 4423 0382 9F       		.byte	0x9f
 4424 0383 48020000 		.4byte	.LVL44
 4425 0387 69020000 		.4byte	.LVL46-1
 4426 038b 1A00     		.2byte	0x1a
 4427 038d 03       		.byte	0x3
 4428 038e 01000000 		.4byte	rxbuf.7957+1
 4429 0392 94       		.byte	0x94
 4430 0393 01       		.byte	0x1
 4431 0394 08       		.byte	0x8
 4432 0395 FF       		.byte	0xff
 4433 0396 1A       		.byte	0x1a
 4434 0397 35       		.byte	0x35
 4435 0398 24       		.byte	0x24
 4436 0399 03       		.byte	0x3
 4437 039a 02000000 		.4byte	rxbuf.7957+2
 4438 039e 94       		.byte	0x94
 4439 039f 01       		.byte	0x1
 4440 03a0 33       		.byte	0x33
 4441 03a1 25       		.byte	0x25
ARM GAS  /tmp/ccPrDVhe.s 			page 79


 4442 03a2 08       		.byte	0x8
 4443 03a3 FF       		.byte	0xff
 4444 03a4 1A       		.byte	0x1a
 4445 03a5 21       		.byte	0x21
 4446 03a6 9F       		.byte	0x9f
 4447 03a7 6A020000 		.4byte	.LVL46
 4448 03ab 8B020000 		.4byte	.LVL48-1
 4449 03af 1A00     		.2byte	0x1a
 4450 03b1 03       		.byte	0x3
 4451 03b2 01000000 		.4byte	rxbuf.7957+1
 4452 03b6 94       		.byte	0x94
 4453 03b7 01       		.byte	0x1
 4454 03b8 08       		.byte	0x8
 4455 03b9 FF       		.byte	0xff
 4456 03ba 1A       		.byte	0x1a
 4457 03bb 35       		.byte	0x35
 4458 03bc 24       		.byte	0x24
 4459 03bd 03       		.byte	0x3
 4460 03be 02000000 		.4byte	rxbuf.7957+2
 4461 03c2 94       		.byte	0x94
 4462 03c3 01       		.byte	0x1
 4463 03c4 33       		.byte	0x33
 4464 03c5 25       		.byte	0x25
 4465 03c6 08       		.byte	0x8
 4466 03c7 FF       		.byte	0xff
 4467 03c8 1A       		.byte	0x1a
 4468 03c9 21       		.byte	0x21
 4469 03ca 9F       		.byte	0x9f
 4470 03cb 8C020000 		.4byte	.LVL48
 4471 03cf AD020000 		.4byte	.LVL50-1
 4472 03d3 1A00     		.2byte	0x1a
 4473 03d5 03       		.byte	0x3
 4474 03d6 01000000 		.4byte	rxbuf.7957+1
 4475 03da 94       		.byte	0x94
 4476 03db 01       		.byte	0x1
 4477 03dc 08       		.byte	0x8
 4478 03dd FF       		.byte	0xff
 4479 03de 1A       		.byte	0x1a
 4480 03df 35       		.byte	0x35
 4481 03e0 24       		.byte	0x24
 4482 03e1 03       		.byte	0x3
 4483 03e2 02000000 		.4byte	rxbuf.7957+2
 4484 03e6 94       		.byte	0x94
 4485 03e7 01       		.byte	0x1
 4486 03e8 33       		.byte	0x33
 4487 03e9 25       		.byte	0x25
 4488 03ea 08       		.byte	0x8
 4489 03eb FF       		.byte	0xff
 4490 03ec 1A       		.byte	0x1a
 4491 03ed 21       		.byte	0x21
 4492 03ee 9F       		.byte	0x9f
 4493 03ef AE020000 		.4byte	.LVL50
 4494 03f3 CD020000 		.4byte	.LVL52-1
 4495 03f7 1A00     		.2byte	0x1a
 4496 03f9 03       		.byte	0x3
 4497 03fa 01000000 		.4byte	rxbuf.7957+1
 4498 03fe 94       		.byte	0x94
ARM GAS  /tmp/ccPrDVhe.s 			page 80


 4499 03ff 01       		.byte	0x1
 4500 0400 08       		.byte	0x8
 4501 0401 FF       		.byte	0xff
 4502 0402 1A       		.byte	0x1a
 4503 0403 35       		.byte	0x35
 4504 0404 24       		.byte	0x24
 4505 0405 03       		.byte	0x3
 4506 0406 02000000 		.4byte	rxbuf.7957+2
 4507 040a 94       		.byte	0x94
 4508 040b 01       		.byte	0x1
 4509 040c 33       		.byte	0x33
 4510 040d 25       		.byte	0x25
 4511 040e 08       		.byte	0x8
 4512 040f FF       		.byte	0xff
 4513 0410 1A       		.byte	0x1a
 4514 0411 21       		.byte	0x21
 4515 0412 9F       		.byte	0x9f
 4516 0413 CE020000 		.4byte	.LVL52
 4517 0417 EF020000 		.4byte	.LVL54-1
 4518 041b 1A00     		.2byte	0x1a
 4519 041d 03       		.byte	0x3
 4520 041e 01000000 		.4byte	rxbuf.7957+1
 4521 0422 94       		.byte	0x94
 4522 0423 01       		.byte	0x1
 4523 0424 08       		.byte	0x8
 4524 0425 FF       		.byte	0xff
 4525 0426 1A       		.byte	0x1a
 4526 0427 35       		.byte	0x35
 4527 0428 24       		.byte	0x24
 4528 0429 03       		.byte	0x3
 4529 042a 02000000 		.4byte	rxbuf.7957+2
 4530 042e 94       		.byte	0x94
 4531 042f 01       		.byte	0x1
 4532 0430 33       		.byte	0x33
 4533 0431 25       		.byte	0x25
 4534 0432 08       		.byte	0x8
 4535 0433 FF       		.byte	0xff
 4536 0434 1A       		.byte	0x1a
 4537 0435 21       		.byte	0x21
 4538 0436 9F       		.byte	0x9f
 4539 0437 00000000 		.4byte	0
 4540 043b 00000000 		.4byte	0
 4541              	.LLST12:
 4542 043f F0020000 		.4byte	.LVL54
 4543 0443 A7030000 		.4byte	.LVL66-1
 4544 0447 1A00     		.2byte	0x1a
 4545 0449 03       		.byte	0x3
 4546 044a 01000000 		.4byte	rxbuf.7957+1
 4547 044e 94       		.byte	0x94
 4548 044f 01       		.byte	0x1
 4549 0450 08       		.byte	0x8
 4550 0451 FF       		.byte	0xff
 4551 0452 1A       		.byte	0x1a
 4552 0453 35       		.byte	0x35
 4553 0454 24       		.byte	0x24
 4554 0455 03       		.byte	0x3
 4555 0456 02000000 		.4byte	rxbuf.7957+2
ARM GAS  /tmp/ccPrDVhe.s 			page 81


 4556 045a 94       		.byte	0x94
 4557 045b 01       		.byte	0x1
 4558 045c 33       		.byte	0x33
 4559 045d 25       		.byte	0x25
 4560 045e 08       		.byte	0x8
 4561 045f FF       		.byte	0xff
 4562 0460 1A       		.byte	0x1a
 4563 0461 21       		.byte	0x21
 4564 0462 9F       		.byte	0x9f
 4565 0463 00000000 		.4byte	0
 4566 0467 00000000 		.4byte	0
 4567              	.LLST13:
 4568 046b 40030000 		.4byte	.LVL59
 4569 046f 62030000 		.4byte	.LVL61
 4570 0473 0500     		.2byte	0x5
 4571 0475 74       		.byte	0x74
 4572 0476 00       		.sleb128 0
 4573 0477 72       		.byte	0x72
 4574 0478 00       		.sleb128 0
 4575 0479 22       		.byte	0x22
 4576 047a 00000000 		.4byte	0
 4577 047e 00000000 		.4byte	0
 4578              	.LLST14:
 4579 0482 F0020000 		.4byte	.LVL54
 4580 0486 F8020000 		.4byte	.LVL55
 4581 048a 0200     		.2byte	0x2
 4582 048c 30       		.byte	0x30
 4583 048d 9F       		.byte	0x9f
 4584 048e 8A030000 		.4byte	.LVL63
 4585 0492 9A030000 		.4byte	.LVL65
 4586 0496 0100     		.2byte	0x1
 4587 0498 50       		.byte	0x50
 4588 0499 00000000 		.4byte	0
 4589 049d 00000000 		.4byte	0
 4590              	.LLST15:
 4591 04a1 F8020000 		.4byte	.LVL55
 4592 04a5 16030000 		.4byte	.LVL56
 4593 04a9 0100     		.2byte	0x1
 4594 04ab 50       		.byte	0x50
 4595 04ac 16030000 		.4byte	.LVL56
 4596 04b0 34030000 		.4byte	.LVL57
 4597 04b4 0100     		.2byte	0x1
 4598 04b6 51       		.byte	0x51
 4599 04b7 36030000 		.4byte	.LVL58
 4600 04bb 60030000 		.4byte	.LVL60
 4601 04bf 0100     		.2byte	0x1
 4602 04c1 51       		.byte	0x51
 4603 04c2 60030000 		.4byte	.LVL60
 4604 04c6 64030000 		.4byte	.LVL62
 4605 04ca 0300     		.2byte	0x3
 4606 04cc 71       		.byte	0x71
 4607 04cd 7F       		.sleb128 -1
 4608 04ce 9F       		.byte	0x9f
 4609 04cf 64030000 		.4byte	.LVL62
 4610 04d3 96030000 		.4byte	.LVL64
 4611 04d7 0100     		.2byte	0x1
 4612 04d9 51       		.byte	0x51
ARM GAS  /tmp/ccPrDVhe.s 			page 82


 4613 04da 00000000 		.4byte	0
 4614 04de 00000000 		.4byte	0
 4615              		.section	.debug_aranges,"",%progbits
 4616 0000 24000000 		.4byte	0x24
 4617 0004 0200     		.2byte	0x2
 4618 0006 00000000 		.4byte	.Ldebug_info0
 4619 000a 04       		.byte	0x4
 4620 000b 00       		.byte	0
 4621 000c 0000     		.2byte	0
 4622 000e 0000     		.2byte	0
 4623 0010 00000000 		.4byte	.LFB124
 4624 0014 5C000000 		.4byte	.LFE124-.LFB124
 4625 0018 00000000 		.4byte	.LFB125
 4626 001c C4030000 		.4byte	.LFE125-.LFB125
 4627 0020 00000000 		.4byte	0
 4628 0024 00000000 		.4byte	0
 4629              		.section	.debug_ranges,"",%progbits
 4630              	.Ldebug_ranges0:
 4631 0000 02000000 		.4byte	.LBB10
 4632 0004 54000000 		.4byte	.LBE10
 4633 0008 58000000 		.4byte	.LBB13
 4634 000c 5C000000 		.4byte	.LBE13
 4635 0010 00000000 		.4byte	0
 4636 0014 00000000 		.4byte	0
 4637 0018 04000000 		.4byte	.LBB36
 4638 001c 0C000000 		.4byte	.LBE36
 4639 0020 0E000000 		.4byte	.LBB39
 4640 0024 16000000 		.4byte	.LBE39
 4641 0028 00000000 		.4byte	0
 4642 002c 00000000 		.4byte	0
 4643 0030 38000000 		.4byte	.LBB40
 4644 0034 40000000 		.4byte	.LBE40
 4645 0038 4A000000 		.4byte	.LBB49
 4646 003c 4C000000 		.4byte	.LBE49
 4647 0040 50000000 		.4byte	.LBB51
 4648 0044 60000000 		.4byte	.LBE51
 4649 0048 00000000 		.4byte	0
 4650 004c 00000000 		.4byte	0
 4651 0050 38000000 		.4byte	.LBB41
 4652 0054 40000000 		.4byte	.LBE41
 4653 0058 4A000000 		.4byte	.LBB42
 4654 005c 4C000000 		.4byte	.LBE42
 4655 0060 50000000 		.4byte	.LBB43
 4656 0064 60000000 		.4byte	.LBE43
 4657 0068 00000000 		.4byte	0
 4658 006c 00000000 		.4byte	0
 4659 0070 40000000 		.4byte	.LBB44
 4660 0074 42000000 		.4byte	.LBE44
 4661 0078 44000000 		.4byte	.LBB48
 4662 007c 4A000000 		.4byte	.LBE48
 4663 0080 4C000000 		.4byte	.LBB50
 4664 0084 50000000 		.4byte	.LBE50
 4665 0088 00000000 		.4byte	0
 4666 008c 00000000 		.4byte	0
 4667 0090 60000000 		.4byte	.LBB52
 4668 0094 8A000000 		.4byte	.LBE52
 4669 0098 8E000000 		.4byte	.LBB61
ARM GAS  /tmp/ccPrDVhe.s 			page 83


 4670 009c AC000000 		.4byte	.LBE61
 4671 00a0 B0000000 		.4byte	.LBB62
 4672 00a4 CE000000 		.4byte	.LBE62
 4673 00a8 D2000000 		.4byte	.LBB63
 4674 00ac F0000000 		.4byte	.LBE63
 4675 00b0 F4000000 		.4byte	.LBB64
 4676 00b4 12010000 		.4byte	.LBE64
 4677 00b8 16010000 		.4byte	.LBB65
 4678 00bc 2E010000 		.4byte	.LBE65
 4679 00c0 30010000 		.4byte	.LBB66
 4680 00c4 42010000 		.4byte	.LBE66
 4681 00c8 44010000 		.4byte	.LBB71
 4682 00cc 4A010000 		.4byte	.LBE71
 4683 00d0 00000000 		.4byte	0
 4684 00d4 00000000 		.4byte	0
 4685 00d8 60000000 		.4byte	.LBB53
 4686 00dc 8A000000 		.4byte	.LBE53
 4687 00e0 8E000000 		.4byte	.LBB54
 4688 00e4 AC000000 		.4byte	.LBE54
 4689 00e8 B0000000 		.4byte	.LBB55
 4690 00ec CE000000 		.4byte	.LBE55
 4691 00f0 D2000000 		.4byte	.LBB56
 4692 00f4 F0000000 		.4byte	.LBE56
 4693 00f8 F4000000 		.4byte	.LBB57
 4694 00fc 12010000 		.4byte	.LBE57
 4695 0100 16010000 		.4byte	.LBB58
 4696 0104 2E010000 		.4byte	.LBE58
 4697 0108 30010000 		.4byte	.LBB59
 4698 010c 42010000 		.4byte	.LBE59
 4699 0110 44010000 		.4byte	.LBB60
 4700 0114 4A010000 		.4byte	.LBE60
 4701 0118 00000000 		.4byte	0
 4702 011c 00000000 		.4byte	0
 4703 0120 42010000 		.4byte	.LBB67
 4704 0124 44010000 		.4byte	.LBE67
 4705 0128 4A010000 		.4byte	.LBB72
 4706 012c 4C010000 		.4byte	.LBE72
 4707 0130 4E010000 		.4byte	.LBB73
 4708 0134 5E010000 		.4byte	.LBE73
 4709 0138 00000000 		.4byte	0
 4710 013c 00000000 		.4byte	0
 4711 0140 42010000 		.4byte	.LBB68
 4712 0144 44010000 		.4byte	.LBE68
 4713 0148 4A010000 		.4byte	.LBB69
 4714 014c 4C010000 		.4byte	.LBE69
 4715 0150 4E010000 		.4byte	.LBB70
 4716 0154 5E010000 		.4byte	.LBE70
 4717 0158 00000000 		.4byte	0
 4718 015c 00000000 		.4byte	0
 4719 0160 E0010000 		.4byte	.LBB76
 4720 0164 E6010000 		.4byte	.LBE76
 4721 0168 E8010000 		.4byte	.LBB79
 4722 016c F4010000 		.4byte	.LBE79
 4723 0170 00000000 		.4byte	0
 4724 0174 00000000 		.4byte	0
 4725 0178 E0010000 		.4byte	.LBB77
 4726 017c E6010000 		.4byte	.LBE77
ARM GAS  /tmp/ccPrDVhe.s 			page 84


 4727 0180 E8010000 		.4byte	.LBB78
 4728 0184 F4010000 		.4byte	.LBE78
 4729 0188 00000000 		.4byte	0
 4730 018c 00000000 		.4byte	0
 4731 0190 F4010000 		.4byte	.LBB80
 4732 0194 1E020000 		.4byte	.LBE80
 4733 0198 22020000 		.4byte	.LBB89
 4734 019c 40020000 		.4byte	.LBE89
 4735 01a0 44020000 		.4byte	.LBB90
 4736 01a4 62020000 		.4byte	.LBE90
 4737 01a8 66020000 		.4byte	.LBB91
 4738 01ac 84020000 		.4byte	.LBE91
 4739 01b0 88020000 		.4byte	.LBB92
 4740 01b4 A6020000 		.4byte	.LBE92
 4741 01b8 AA020000 		.4byte	.LBB93
 4742 01bc C6020000 		.4byte	.LBE93
 4743 01c0 C8020000 		.4byte	.LBB94
 4744 01c4 D6020000 		.4byte	.LBE94
 4745 01c8 DC020000 		.4byte	.LBB99
 4746 01cc E2020000 		.4byte	.LBE99
 4747 01d0 00000000 		.4byte	0
 4748 01d4 00000000 		.4byte	0
 4749 01d8 F4010000 		.4byte	.LBB81
 4750 01dc 1E020000 		.4byte	.LBE81
 4751 01e0 22020000 		.4byte	.LBB82
 4752 01e4 40020000 		.4byte	.LBE82
 4753 01e8 44020000 		.4byte	.LBB83
 4754 01ec 62020000 		.4byte	.LBE83
 4755 01f0 66020000 		.4byte	.LBB84
 4756 01f4 84020000 		.4byte	.LBE84
 4757 01f8 88020000 		.4byte	.LBB85
 4758 01fc A6020000 		.4byte	.LBE85
 4759 0200 AA020000 		.4byte	.LBB86
 4760 0204 C6020000 		.4byte	.LBE86
 4761 0208 C8020000 		.4byte	.LBB87
 4762 020c D6020000 		.4byte	.LBE87
 4763 0210 DC020000 		.4byte	.LBB88
 4764 0214 E2020000 		.4byte	.LBE88
 4765 0218 00000000 		.4byte	0
 4766 021c 00000000 		.4byte	0
 4767 0220 D6020000 		.4byte	.LBB95
 4768 0224 DC020000 		.4byte	.LBE95
 4769 0228 E4020000 		.4byte	.LBB100
 4770 022c F0020000 		.4byte	.LBE100
 4771 0230 F4020000 		.4byte	.LBB104
 4772 0234 F8020000 		.4byte	.LBE104
 4773 0238 00000000 		.4byte	0
 4774 023c 00000000 		.4byte	0
 4775 0240 D6020000 		.4byte	.LBB96
 4776 0244 DC020000 		.4byte	.LBE96
 4777 0248 E4020000 		.4byte	.LBB97
 4778 024c F0020000 		.4byte	.LBE97
 4779 0250 F4020000 		.4byte	.LBB98
 4780 0254 F8020000 		.4byte	.LBE98
 4781 0258 00000000 		.4byte	0
 4782 025c 00000000 		.4byte	0
 4783 0260 F0020000 		.4byte	.LBB101
ARM GAS  /tmp/ccPrDVhe.s 			page 85


 4784 0264 F4020000 		.4byte	.LBE101
 4785 0268 F8020000 		.4byte	.LBB105
 4786 026c 90030000 		.4byte	.LBE105
 4787 0270 00000000 		.4byte	0
 4788 0274 00000000 		.4byte	0
 4789 0278 F0020000 		.4byte	.LBB102
 4790 027c F4020000 		.4byte	.LBE102
 4791 0280 F8020000 		.4byte	.LBB103
 4792 0284 90030000 		.4byte	.LBE103
 4793 0288 00000000 		.4byte	0
 4794 028c 00000000 		.4byte	0
 4795 0290 90030000 		.4byte	.LBB106
 4796 0294 94030000 		.4byte	.LBE106
 4797 0298 98030000 		.4byte	.LBB110
 4798 029c 9A030000 		.4byte	.LBE110
 4799 02a0 9C030000 		.4byte	.LBB111
 4800 02a4 A8030000 		.4byte	.LBE111
 4801 02a8 00000000 		.4byte	0
 4802 02ac 00000000 		.4byte	0
 4803 02b0 00000000 		.4byte	.LFB124
 4804 02b4 5C000000 		.4byte	.LFE124
 4805 02b8 00000000 		.4byte	.LFB125
 4806 02bc C4030000 		.4byte	.LFE125
 4807 02c0 00000000 		.4byte	0
 4808 02c4 00000000 		.4byte	0
 4809              		.section	.debug_line,"",%progbits
 4810              	.Ldebug_line0:
 4811 0000 68040000 		.section	.debug_str,"MS",%progbits,1
 4811      0200C702 
 4811      00000201 
 4811      FB0E0D00 
 4811      01010101 
 4812              	.LASF109:
 4813 0000 646D6172 		.ascii	"dmarx\000"
 4813      7800
 4814              	.LASF19:
 4815 0006 74726566 		.ascii	"trefs_t\000"
 4815      735F7400 
 4816              	.LASF61:
 4817 000e 4D304152 		.ascii	"M0AR\000"
 4817      00
 4818              	.LASF55:
 4819 0013 7264796D 		.ascii	"rdymsg\000"
 4819      736700
 4820              	.LASF83:
 4821 001a 76656374 		.ascii	"vector\000"
 4821      6F7200
 4822              	.LASF87:
 4823 0021 4F545950 		.ascii	"OTYPER\000"
 4823      455200
 4824              	.LASF101:
 4825 0028 5350495F 		.ascii	"SPI_ACTIVE\000"
 4825      41435449 
 4825      564500
 4826              	.LASF94:
 4827 0033 4750494F 		.ascii	"GPIO_TypeDef\000"
 4827      5F547970 
ARM GAS  /tmp/ccPrDVhe.s 			page 86


 4827      65446566 
 4827      00
 4828              	.LASF79:
 4829 0040 73747265 		.ascii	"stream\000"
 4829      616D00
 4830              	.LASF86:
 4831 0047 4D4F4445 		.ascii	"MODER\000"
 4831      5200
 4832              	.LASF14:
 4833 004d 6C6F6E67 		.ascii	"long long unsigned int\000"
 4833      206C6F6E 
 4833      6720756E 
 4833      7369676E 
 4833      65642069 
 4834              	.LASF100:
 4835 0064 5350495F 		.ascii	"SPI_READY\000"
 4835      52454144 
 4835      5900
 4836              	.LASF89:
 4837 006e 50555044 		.ascii	"PUPDR\000"
 4837      5200
 4838              	.LASF56:
 4839 0074 65786974 		.ascii	"exitcode\000"
 4839      636F6465 
 4839      00
 4840              	.LASF104:
 4841 007d 53504944 		.ascii	"SPIDriver\000"
 4841      72697665 
 4841      7200
 4842              	.LASF115:
 4843 0087 7373706F 		.ascii	"ssport\000"
 4843      727400
 4844              	.LASF134:
 4845 008e 49544D5F 		.ascii	"ITM_RxBuffer\000"
 4845      52784275 
 4845      66666572 
 4845      00
 4846              	.LASF126:
 4847 009b 72786275 		.ascii	"rxbuf\000"
 4847      6600
 4848              	.LASF28:
 4849 00a1 705F7072 		.ascii	"p_prio\000"
 4849      696F00
 4850              	.LASF116:
 4851 00a8 73737061 		.ascii	"sspad\000"
 4851      6400
 4852              	.LASF5:
 4853 00ae 696E7431 		.ascii	"int16_t\000"
 4853      365F7400 
 4854              	.LASF13:
 4855 00b6 6C6F6E67 		.ascii	"long long int\000"
 4855      206C6F6E 
 4855      6720696E 
 4855      7400
 4856              	.LASF1:
 4857 00c4 7369676E 		.ascii	"signed char\000"
 4857      65642063 
ARM GAS  /tmp/ccPrDVhe.s 			page 87


 4857      68617200 
 4858              	.LASF90:
 4859 00d0 42535252 		.ascii	"BSRR\000"
 4859      00
 4860              	.LASF99:
 4861 00d5 5350495F 		.ascii	"SPI_STOP\000"
 4861      53544F50 
 4861      00
 4862              	.LASF74:
 4863 00de 49325343 		.ascii	"I2SCFGR\000"
 4863      46475200 
 4864              	.LASF15:
 4865 00e6 626F6F6C 		.ascii	"bool_t\000"
 4865      5F7400
 4866              	.LASF52:
 4867 00ed 6D5F7175 		.ascii	"m_queue\000"
 4867      65756500 
 4868              	.LASF20:
 4869 00f5 74736C69 		.ascii	"tslices_t\000"
 4869      6365735F 
 4869      7400
 4870              	.LASF105:
 4871 00ff 73746174 		.ascii	"state\000"
 4871      6500
 4872              	.LASF10:
 4873 0105 6C6F6E67 		.ascii	"long int\000"
 4873      20696E74 
 4873      00
 4874              	.LASF18:
 4875 010e 74737461 		.ascii	"tstate_t\000"
 4875      74655F74 
 4875      00
 4876              	.LASF78:
 4877 0117 5350495F 		.ascii	"SPI_TypeDef\000"
 4877      54797065 
 4877      44656600 
 4878              	.LASF30:
 4879 0123 705F6E65 		.ascii	"p_newer\000"
 4879      77657200 
 4880              	.LASF114:
 4881 012b 656E645F 		.ascii	"end_cb\000"
 4881      636200
 4882              	.LASF111:
 4883 0132 7278646D 		.ascii	"rxdmamode\000"
 4883      616D6F64 
 4883      6500
 4884              	.LASF119:
 4885 013c 4D6F7573 		.ascii	"MouseReading_t\000"
 4885      65526561 
 4885      64696E67 
 4885      5F7400
 4886              	.LASF110:
 4887 014b 646D6174 		.ascii	"dmatx\000"
 4887      7800
 4888              	.LASF88:
 4889 0151 4F535045 		.ascii	"OSPEEDR\000"
 4889      45445200 
ARM GAS  /tmp/ccPrDVhe.s 			page 88


 4890              	.LASF44:
 4891 0159 705F6D70 		.ascii	"p_mpool\000"
 4891      6F6F6C00 
 4892              	.LASF47:
 4893 0161 72656761 		.ascii	"regarm_t\000"
 4893      726D5F74 
 4893      00
 4894              	.LASF82:
 4895 016a 73656C66 		.ascii	"selfindex\000"
 4895      696E6465 
 4895      7800
 4896              	.LASF120:
 4897 0174 62757474 		.ascii	"buttons\000"
 4897      6F6E7300 
 4898              	.LASF2:
 4899 017c 73697A65 		.ascii	"size_t\000"
 4899      5F7400
 4900              	.LASF113:
 4901 0183 73706963 		.ascii	"spicallback_t\000"
 4901      616C6C62 
 4901      61636B5F 
 4901      7400
 4902              	.LASF146:
 4903 0191 706F7274 		.ascii	"port\000"
 4903      00
 4904              	.LASF122:
 4905 0196 74656D70 		.ascii	"temp\000"
 4905      00
 4906              	.LASF0:
 4907 019b 756E7369 		.ascii	"unsigned int\000"
 4907      676E6564 
 4907      20696E74 
 4907      00
 4908              	.LASF125:
 4909 01a8 74786275 		.ascii	"txbuf\000"
 4909      6600
 4910              	.LASF37:
 4911 01ae 705F7469 		.ascii	"p_time\000"
 4911      6D6500
 4912              	.LASF128:
 4913 01b5 67696E70 		.ascii	"ginput_lld_mouse_init\000"
 4913      75745F6C 
 4913      6C645F6D 
 4913      6F757365 
 4913      5F696E69 
 4914              	.LASF39:
 4915 01cb 705F6D73 		.ascii	"p_msgqueue\000"
 4915      67717565 
 4915      756500
 4916              	.LASF132:
 4917 01d6 6C617374 		.ascii	"lastx\000"
 4917      7800
 4918              	.LASF133:
 4919 01dc 6C617374 		.ascii	"lasty\000"
 4919      7900
 4920              	.LASF91:
 4921 01e2 4C434B52 		.ascii	"LCKR\000"
ARM GAS  /tmp/ccPrDVhe.s 			page 89


 4921      00
 4922              	.LASF81:
 4923 01e7 69736869 		.ascii	"ishift\000"
 4923      667400
 4924              	.LASF8:
 4925 01ee 73686F72 		.ascii	"short unsigned int\000"
 4925      7420756E 
 4925      7369676E 
 4925      65642069 
 4925      6E7400
 4926              	.LASF22:
 4927 0201 6D73675F 		.ascii	"msg_t\000"
 4927      7400
 4928              	.LASF129:
 4929 0207 67696E70 		.ascii	"ginput_lld_mouse_get_reading\000"
 4929      75745F6C 
 4929      6C645F6D 
 4929      6F757365 
 4929      5F676574 
 4930              	.LASF17:
 4931 0224 746D6F64 		.ascii	"tmode_t\000"
 4931      655F7400 
 4932              	.LASF46:
 4933 022c 54687265 		.ascii	"ThreadsList\000"
 4933      6164734C 
 4933      69737400 
 4934              	.LASF23:
 4935 0238 6576656E 		.ascii	"eventmask_t\000"
 4935      746D6173 
 4935      6B5F7400 
 4936              	.LASF140:
 4937 0244 474E5520 		.ascii	"GNU C 4.7.4 20130613 (release) [ARM/embedded-4_7-br"
 4937      4320342E 
 4937      372E3420 
 4937      32303133 
 4937      30363133 
 4938 0277 616E6368 		.ascii	"anch revision 200083]\000"
 4938      20726576 
 4938      6973696F 
 4938      6E203230 
 4938      30303833 
 4939              	.LASF60:
 4940 028d 4E445452 		.ascii	"NDTR\000"
 4940      00
 4941              	.LASF138:
 4942 0292 73706945 		.ascii	"spiExchange\000"
 4942      78636861 
 4942      6E676500 
 4943              	.LASF76:
 4944 029e 49325350 		.ascii	"I2SPR\000"
 4944      5200
 4945              	.LASF50:
 4946 02a4 73697A65 		.ascii	"sizetype\000"
 4946      74797065 
 4946      00
 4947              	.LASF85:
 4948 02ad 636C6561 		.ascii	"clear\000"
ARM GAS  /tmp/ccPrDVhe.s 			page 90


 4948      7200
 4949              	.LASF51:
 4950 02b3 4D757465 		.ascii	"Mutex\000"
 4950      7800
 4951              	.LASF41:
 4952 02b9 705F6570 		.ascii	"p_epending\000"
 4952      656E6469 
 4952      6E6700
 4953              	.LASF95:
 4954 02c4 696F706F 		.ascii	"ioportmask_t\000"
 4954      72746D61 
 4954      736B5F74 
 4954      00
 4955              	.LASF143:
 4956 02d1 67657470 		.ascii	"getpin_pressed\000"
 4956      696E5F70 
 4956      72657373 
 4956      656400
 4957              	.LASF31:
 4958 02e0 705F6F6C 		.ascii	"p_older\000"
 4958      64657200 
 4959              	.LASF45:
 4960 02e8 54687265 		.ascii	"ThreadsQueue\000"
 4960      61647351 
 4960      75657565 
 4960      00
 4961              	.LASF112:
 4962 02f5 7478646D 		.ascii	"txdmamode\000"
 4962      616D6F64 
 4962      6500
 4963              	.LASF130:
 4964 02ff 73706963 		.ascii	"spicfg\000"
 4964      666700
 4965              	.LASF118:
 4966 0306 636F6F72 		.ascii	"coord_t\000"
 4966      645F7400 
 4967              	.LASF121:
 4968 030e 4D6F7573 		.ascii	"MouseReading\000"
 4968      65526561 
 4968      64696E67 
 4968      00
 4969              	.LASF93:
 4970 031b 41465248 		.ascii	"AFRH\000"
 4970      00
 4971              	.LASF68:
 4972 0320 43524350 		.ascii	"CRCPR\000"
 4972      5200
 4973              	.LASF92:
 4974 0326 4146524C 		.ascii	"AFRL\000"
 4974      00
 4975              	.LASF72:
 4976 032b 54584352 		.ascii	"TXCRCR\000"
 4976      435200
 4977              	.LASF64:
 4978 0332 52455345 		.ascii	"RESERVED0\000"
 4978      52564544 
 4978      3000
ARM GAS  /tmp/ccPrDVhe.s 			page 91


 4979              	.LASF65:
 4980 033c 52455345 		.ascii	"RESERVED1\000"
 4980      52564544 
 4980      3100
 4981              	.LASF66:
 4982 0346 52455345 		.ascii	"RESERVED2\000"
 4982      52564544 
 4982      3200
 4983              	.LASF67:
 4984 0350 52455345 		.ascii	"RESERVED3\000"
 4984      52564544 
 4984      3300
 4985              	.LASF69:
 4986 035a 52455345 		.ascii	"RESERVED4\000"
 4986      52564544 
 4986      3400
 4987              	.LASF27:
 4988 0364 705F7072 		.ascii	"p_prev\000"
 4988      657600
 4989              	.LASF73:
 4990 036b 52455345 		.ascii	"RESERVED6\000"
 4990      52564544 
 4990      3600
 4991              	.LASF75:
 4992 0375 52455345 		.ascii	"RESERVED7\000"
 4992      52564544 
 4992      3700
 4993              	.LASF77:
 4994 037f 52455345 		.ascii	"RESERVED8\000"
 4994      52564544 
 4994      3800
 4995              	.LASF21:
 4996 0389 74707269 		.ascii	"tprio_t\000"
 4996      6F5F7400 
 4997              	.LASF7:
 4998 0391 75696E74 		.ascii	"uint16_t\000"
 4998      31365F74 
 4998      00
 4999              	.LASF108:
 5000 039a 6D757465 		.ascii	"mutex\000"
 5000      7800
 5001              	.LASF16:
 5002 03a0 5F426F6F 		.ascii	"_Bool\000"
 5002      6C00
 5003              	.LASF9:
 5004 03a6 696E7433 		.ascii	"int32_t\000"
 5004      325F7400 
 5005              	.LASF4:
 5006 03ae 756E7369 		.ascii	"unsigned char\000"
 5006      676E6564 
 5006      20636861 
 5006      7200
 5007              	.LASF84:
 5008 03bc 73746D33 		.ascii	"stm32_dma_stream_t\000"
 5008      325F646D 
 5008      615F7374 
 5008      7265616D 
ARM GAS  /tmp/ccPrDVhe.s 			page 92


 5008      5F7400
 5009              	.LASF135:
 5010 03cf 53504944 		.ascii	"SPID3\000"
 5010      3300
 5011              	.LASF33:
 5012 03d5 705F7374 		.ascii	"p_state\000"
 5012      61746500 
 5013              	.LASF42:
 5014 03dd 705F6D74 		.ascii	"p_mtxlist\000"
 5014      786C6973 
 5014      7400
 5015              	.LASF6:
 5016 03e7 73686F72 		.ascii	"short int\000"
 5016      7420696E 
 5016      7400
 5017              	.LASF127:
 5018 03f1 72656C65 		.ascii	"release_bus\000"
 5018      6173655F 
 5018      62757300 
 5019              	.LASF36:
 5020 03fd 705F7072 		.ascii	"p_preempt\000"
 5020      65656D70 
 5020      7400
 5021              	.LASF58:
 5022 0407 65776D61 		.ascii	"ewmask\000"
 5022      736B00
 5023              	.LASF26:
 5024 040e 705F6E65 		.ascii	"p_next\000"
 5024      787400
 5025              	.LASF34:
 5026 0415 705F666C 		.ascii	"p_flags\000"
 5026      61677300 
 5027              	.LASF124:
 5028 041d 61717569 		.ascii	"aquire_bus\000"
 5028      72655F62 
 5028      757300
 5029              	.LASF142:
 5030 0428 2F686F6D 		.ascii	"/home/witold/Dokumenty/arm/ChibiOS-master/demos/wid"
 5030      652F7769 
 5030      746F6C64 
 5030      2F446F6B 
 5030      756D656E 
 5031 045b 67657473 		.ascii	"gets\000"
 5031      00
 5032              	.LASF80:
 5033 0460 69666372 		.ascii	"ifcr\000"
 5033      00
 5034              	.LASF71:
 5035 0465 52455345 		.ascii	"RESERVED5\000"
 5035      52564544 
 5035      3500
 5036              	.LASF11:
 5037 046f 75696E74 		.ascii	"uint32_t\000"
 5037      33325F74 
 5037      00
 5038              	.LASF139:
 5039 0478 73706941 		.ascii	"spiAcquireBus\000"
ARM GAS  /tmp/ccPrDVhe.s 			page 93


 5039      63717569 
 5039      72654275 
 5039      7300
 5040              	.LASF12:
 5041 0486 6C6F6E67 		.ascii	"long unsigned int\000"
 5041      20756E73 
 5041      69676E65 
 5041      6420696E 
 5041      7400
 5042              	.LASF145:
 5043 0498 72656164 		.ascii	"read_value\000"
 5043      5F76616C 
 5043      756500
 5044              	.LASF59:
 5045 04a3 63686172 		.ascii	"char\000"
 5045      00
 5046              	.LASF102:
 5047 04a8 5350495F 		.ascii	"SPI_COMPLETE\000"
 5047      434F4D50 
 5047      4C455445 
 5047      00
 5048              	.LASF106:
 5049 04b5 636F6E66 		.ascii	"config\000"
 5049      696700
 5050              	.LASF103:
 5051 04bc 73706973 		.ascii	"spistate_t\000"
 5051      74617465 
 5051      5F7400
 5052              	.LASF54:
 5053 04c7 6D5F6E65 		.ascii	"m_next\000"
 5053      787400
 5054              	.LASF24:
 5055 04ce 73797374 		.ascii	"systime_t\000"
 5055      696D655F 
 5055      7400
 5056              	.LASF43:
 5057 04d8 705F7265 		.ascii	"p_realprio\000"
 5057      616C7072 
 5057      696F00
 5058              	.LASF107:
 5059 04e3 74687265 		.ascii	"thread\000"
 5059      616400
 5060              	.LASF131:
 5061 04ea 73616D70 		.ascii	"sampleBuf\000"
 5061      6C654275 
 5061      6600
 5062              	.LASF147:
 5063 04f4 73706952 		.ascii	"spiReleaseBus\000"
 5063      656C6561 
 5063      73654275 
 5063      7300
 5064              	.LASF63:
 5065 0502 444D415F 		.ascii	"DMA_Stream_TypeDef\000"
 5065      53747265 
 5065      616D5F54 
 5065      79706544 
 5065      656600
ARM GAS  /tmp/ccPrDVhe.s 			page 94


 5066              	.LASF97:
 5067 0515 696F706F 		.ascii	"ioportid_t\000"
 5067      72746964 
 5067      5F7400
 5068              	.LASF49:
 5069 0520 636F6E74 		.ascii	"context\000"
 5069      65787400 
 5070              	.LASF136:
 5071 0528 5F70616C 		.ascii	"_pal_lld_setgroupmode\000"
 5071      5F6C6C64 
 5071      5F736574 
 5071      67726F75 
 5071      706D6F64 
 5072              	.LASF137:
 5073 053e 73706953 		.ascii	"spiStart\000"
 5073      74617274 
 5073      00
 5074              	.LASF48:
 5075 0547 696E7463 		.ascii	"intctx\000"
 5075      747800
 5076              	.LASF62:
 5077 054e 4D314152 		.ascii	"M1AR\000"
 5077      00
 5078              	.LASF98:
 5079 0553 5350495F 		.ascii	"SPI_UNINIT\000"
 5079      554E494E 
 5079      495400
 5080              	.LASF144:
 5081 055e 66696C74 		.ascii	"filter\000"
 5081      657200
 5082              	.LASF141:
 5083 0565 2E2E2F2E 		.ascii	"../../ext/ugfx/drivers/ginput/touch/ADS7843/ginput_"
 5083      2E2F6578 
 5083      742F7567 
 5083      66782F64 
 5083      72697665 
 5084 0598 6C6C645F 		.ascii	"lld_mouse.c\000"
 5084      6D6F7573 
 5084      652E6300 
 5085              	.LASF35:
 5086 05a4 705F7265 		.ascii	"p_refs\000"
 5086      667300
 5087              	.LASF25:
 5088 05ab 54687265 		.ascii	"Thread\000"
 5088      616400
 5089              	.LASF70:
 5090 05b2 52584352 		.ascii	"RXCRCR\000"
 5090      435200
 5091              	.LASF3:
 5092 05b9 75696E74 		.ascii	"uint8_t\000"
 5092      385F7400 
 5093              	.LASF57:
 5094 05c1 77746F62 		.ascii	"wtobjp\000"
 5094      6A7000
 5095              	.LASF32:
 5096 05c8 705F6E61 		.ascii	"p_name\000"
 5096      6D6500
ARM GAS  /tmp/ccPrDVhe.s 			page 95


 5097              	.LASF117:
 5098 05cf 53504943 		.ascii	"SPIConfig\000"
 5098      6F6E6669 
 5098      6700
 5099              	.LASF40:
 5100 05d9 705F6D73 		.ascii	"p_msg\000"
 5100      6700
 5101              	.LASF96:
 5102 05df 696F6D6F 		.ascii	"iomode_t\000"
 5102      64655F74 
 5102      00
 5103              	.LASF123:
 5104 05e8 696E6974 		.ascii	"init_board\000"
 5104      5F626F61 
 5104      726400
 5105              	.LASF53:
 5106 05f3 6D5F6F77 		.ascii	"m_owner\000"
 5106      6E657200 
 5107              	.LASF29:
 5108 05fb 705F6374 		.ascii	"p_ctx\000"
 5108      7800
 5109              	.LASF38:
 5110 0601 705F7761 		.ascii	"p_waiting\000"
 5110      6974696E 
 5110      6700
 5111              		.ident	"GCC: (GNU Tools for ARM Embedded Processors) 4.7.4 20130613 (release) [ARM/embedded-4_7-br
ARM GAS  /tmp/ccPrDVhe.s 			page 96


DEFINED SYMBOLS
                            *ABS*:00000000 ginput_lld_mouse.c
     /tmp/ccPrDVhe.s:21     .text.ginput_lld_mouse_init:00000000 $t
     /tmp/ccPrDVhe.s:27     .text.ginput_lld_mouse_init:00000000 ginput_lld_mouse_init
     /tmp/ccPrDVhe.s:899    .rodata.spicfg:00000000 .LANCHOR0
     /tmp/ccPrDVhe.s:100    .text.ginput_lld_mouse_get_reading:00000000 $t
     /tmp/ccPrDVhe.s:106    .text.ginput_lld_mouse_get_reading:00000000 ginput_lld_mouse_get_reading
     /tmp/ccPrDVhe.s:166    .text.ginput_lld_mouse_get_reading:00000030 $d
     /tmp/ccPrDVhe.s:173    .text.ginput_lld_mouse_get_reading:00000038 $t
     /tmp/ccPrDVhe.s:820    .text.ginput_lld_mouse_get_reading:00000374 $d
     /tmp/ccPrDVhe.s:828    .text.ginput_lld_mouse_get_reading:00000388 $t
     /tmp/ccPrDVhe.s:885    .text.ginput_lld_mouse_get_reading:000003bc $d
     /tmp/ccPrDVhe.s:891    .bss.txbuf.7956:00000000 $d
     /tmp/ccPrDVhe.s:895    .bss.txbuf.7956:00000000 txbuf.7956
     /tmp/ccPrDVhe.s:898    .rodata.spicfg:00000000 $d
     /tmp/ccPrDVhe.s:902    .rodata.spicfg:00000000 spicfg
     /tmp/ccPrDVhe.s:908    .bss.sampleBuf:00000000 $d
     /tmp/ccPrDVhe.s:912    .bss.sampleBuf:00000000 sampleBuf
     /tmp/ccPrDVhe.s:915    .bss.lastx:00000000 $d
     /tmp/ccPrDVhe.s:919    .bss.lastx:00000000 lastx
     /tmp/ccPrDVhe.s:922    .bss.lasty:00000000 $d
     /tmp/ccPrDVhe.s:926    .bss.lasty:00000000 lasty
     /tmp/ccPrDVhe.s:929    .bss.rxbuf.7957:00000000 $d
     /tmp/ccPrDVhe.s:933    .bss.rxbuf.7957:00000000 rxbuf.7957
                     .debug_frame:00000010 $d
     /tmp/ccPrDVhe.s:890    .text.ginput_lld_mouse_get_reading:000003c4 $t

UNDEFINED SYMBOLS
_pal_lld_setgroupmode
SPID3
spiStart
spiAcquireBus
spiExchange
spiReleaseBus
