ARM GAS  /tmp/ccPrDVhe.s 			page 1


   1              		.syntax unified
   2              		.cpu cortex-m4
   3              		.eabi_attribute 27, 3
   4              		.eabi_attribute 28, 1
   5              		.fpu fpv4-sp-d16
   6              		.eabi_attribute 20, 1
   7              		.eabi_attribute 21, 1
   8              		.eabi_attribute 23, 3
   9              		.eabi_attribute 24, 1
  10              		.eabi_attribute 25, 1
  11              		.eabi_attribute 26, 1
  12              		.eabi_attribute 30, 2
  13              		.eabi_attribute 34, 1
  14              		.eabi_attribute 18, 4
  15              		.thumb
  16              		.file	"ginput_lld_mouse.c"
  17              		.text
  18              	.Ltext0:
  19              		.cfi_sections	.debug_frame
  20              		.section	.text.ginput_lld_mouse_init,"ax",%progbits
  21              		.align	2
  22              		.p2align 4,,15
  23              		.global	ginput_lld_mouse_init
  24              		.thumb
  25              		.thumb_func
  26              		.type	ginput_lld_mouse_init, %function
  27              	ginput_lld_mouse_init:
  28              	.LFB124:
  29              		.file 1 "../../ext/ugfx/drivers/ginput/touch/ADS7843/ginput_lld_mouse.c"
  30              		.loc 1 65 0
  31              		.cfi_startproc
  32              		@ args = 0, pretend = 0, frame = 0
  33              		@ frame_needed = 0, uses_anonymous_args = 0
  34 0000 38B5     		push	{r3, r4, r5, lr}
  35              	.LCFI0:
  36              		.cfi_def_cfa_offset 16
  37              		.cfi_offset 3, -16
  38              		.cfi_offset 4, -12
  39              		.cfi_offset 5, -8
  40              		.cfi_offset 14, -4
  41              	.LBB10:
  42              	.LBB11:
  43              		.file 2 "./ginput_lld_mouse_board.h"
  44              		.loc 2 58 0
  45 0002 4FF44065 		mov	r5, #3072
  46 0006 C4F20205 		movt	r5, 16386
  47 000a 2846     		mov	r0, r5
  48 000c 0821     		movs	r1, #8
  49 000e 1922     		movs	r2, #25
  50              		.loc 2 60 0
  51 0010 4FF48064 		mov	r4, #1024
  52              		.loc 2 58 0
  53 0014 FFF7FEFF 		bl	_pal_lld_setgroupmode
  54              	.LVL0:
  55              		.loc 2 60 0
  56 0018 C4F20204 		movt	r4, 16386
  57              		.loc 2 59 0
ARM GAS  /tmp/ccPrDVhe.s 			page 2


  58 001c 0823     		movs	r3, #8
  59              		.loc 2 60 0
  60 001e 1946     		mov	r1, r3
  61              		.loc 2 59 0
  62 0020 2B83     		strh	r3, [r5, #24]	@ movhi
  63              		.loc 2 60 0
  64 0022 2046     		mov	r0, r4
  65 0024 40F21A32 		movw	r2, #794
  66 0028 FFF7FEFF 		bl	_pal_lld_setgroupmode
  67              	.LVL1:
  68              		.loc 2 61 0
  69 002c 2046     		mov	r0, r4
  70 002e 1021     		movs	r1, #16
  71 0030 40F21A32 		movw	r2, #794
  72 0034 FFF7FEFF 		bl	_pal_lld_setgroupmode
  73              	.LVL2:
  74              		.loc 2 62 0
  75 0038 2046     		mov	r0, r4
  76 003a 2021     		movs	r1, #32
  77 003c 40F21A32 		movw	r2, #794
  78 0040 FFF7FEFF 		bl	_pal_lld_setgroupmode
  79              	.LVL3:
  80              		.loc 2 64 0
  81 0044 40F20000 		movw	r0, #:lower16:SPID3
  82 0048 40F20001 		movw	r1, #:lower16:.LANCHOR0
  83 004c C0F20000 		movt	r0, #:upper16:SPID3
  84 0050 C0F20001 		movt	r1, #:upper16:.LANCHOR0
  85              	.LBE11:
  86              	.LBE10:
  87              		.loc 1 67 0
  88 0054 BDE83840 		pop	{r3, r4, r5, lr}
  89              	.LBB13:
  90              	.LBB12:
  91              		.loc 2 64 0
  92 0058 FFF7FEBF 		b	spiStart
  93              	.LVL4:
  94              	.LBE12:
  95              	.LBE13:
  96              		.cfi_endproc
  97              	.LFE124:
  98              		.size	ginput_lld_mouse_init, .-ginput_lld_mouse_init
  99 005c AFF30080 		.section	.text.ginput_lld_mouse_get_reading,"ax",%progbits
 100              		.align	2
 101              		.p2align 4,,15
 102              		.global	ginput_lld_mouse_get_reading
 103              		.thumb
 104              		.thumb_func
 105              		.type	ginput_lld_mouse_get_reading, %function
 106              	ginput_lld_mouse_get_reading:
 107              	.LFB125:
 108              		.loc 1 83 0
 109              		.cfi_startproc
 110              		@ args = 0, pretend = 0, frame = 0
 111              		@ frame_needed = 0, uses_anonymous_args = 0
 112              	.LVL5:
 113 0000 2DE9F047 		push	{r4, r5, r6, r7, r8, r9, sl, lr}
 114              	.LCFI1:
ARM GAS  /tmp/ccPrDVhe.s 			page 3


 115              		.cfi_def_cfa_offset 32
 116              		.cfi_offset 4, -32
 117              		.cfi_offset 5, -28
 118              		.cfi_offset 6, -24
 119              		.cfi_offset 7, -20
 120              		.cfi_offset 8, -16
 121              		.cfi_offset 9, -12
 122              		.cfi_offset 10, -8
 123              		.cfi_offset 14, -4
 124              	.LBB36:
 125              	.LBB37:
 126              		.loc 2 74 0
 127 0004 4FF4406A 		mov	sl, #3072
 128 0008 C4F2020A 		movt	sl, 16386
 129              	.LBE37:
 130              	.LBE36:
 131              		.loc 1 83 0
 132 000c 0746     		mov	r7, r0
 133              	.LBB39:
 134              	.LBB38:
 135              		.loc 2 74 0
 136 000e DAF81050 		ldr	r5, [sl, #16]
 137 0012 C5F38015 		ubfx	r5, r5, #6, #1
 138              	.LBE38:
 139              	.LBE39:
 140              		.loc 1 87 0
 141 0016 7DB1     		cbz	r5, .L3
 142              		.loc 1 88 0
 143 0018 054B     		ldr	r3, .L42
 144              		.loc 1 89 0
 145 001a 064A     		ldr	r2, .L42+4
 146              		.loc 1 88 0
 147 001c 1988     		ldrh	r1, [r3, #0]
 148              		.loc 1 89 0
 149 001e 1088     		ldrh	r0, [r2, #0]
 150              	.LVL6:
 151              		.loc 1 88 0
 152 0020 3980     		strh	r1, [r7, #0]	@ movhi
 153              		.loc 1 90 0
 154 0022 0023     		movs	r3, #0
 155              		.loc 1 89 0
 156 0024 7880     		strh	r0, [r7, #2]	@ movhi
 157              		.loc 1 90 0
 158 0026 BB80     		strh	r3, [r7, #4]	@ movhi
 159              		.loc 1 91 0
 160 0028 FB80     		strh	r3, [r7, #6]	@ movhi
 161              		.loc 1 92 0
 162 002a BDE8F087 		pop	{r4, r5, r6, r7, r8, r9, sl, pc}
 163              	.L43:
 164 002e 00BF     		.align	2
 165              	.L42:
 166 0030 00000000 		.word	.LANCHOR1
 167 0034 00000000 		.word	.LANCHOR2
 168              	.LVL7:
 169              	.L3:
 170              	.LBB40:
 171              	.LBB41:
ARM GAS  /tmp/ccPrDVhe.s 			page 4


 172              		.loc 2 113 0
 173 0038 DFF84893 		ldr	r9, .L44+16
 174              		.loc 2 111 0
 175 003c DFF84083 		ldr	r8, .L44+12
 176              	.LBE41:
 177              	.LBE40:
 178              	.LBB44:
 179              	.LBB45:
 180              		.loc 2 82 0
 181 0040 CC48     		ldr	r0, .L44
 182              	.LVL8:
 183              	.LBE45:
 184              	.LBE44:
 185              		.loc 1 106 0
 186 0042 CD4C     		ldr	r4, .L44+4
 187              	.LBB48:
 188              	.LBB46:
 189              		.loc 2 82 0
 190 0044 FFF7FEFF 		bl	spiAcquireBus
 191              	.LVL9:
 192              		.loc 2 84 0
 193 0048 0823     		movs	r3, #8
 194              	.LBE46:
 195              	.LBE48:
 196              	.LBB49:
 197              	.LBB42:
 198              		.loc 2 111 0
 199 004a D126     		movs	r6, #209
 200              	.LBE42:
 201              	.LBE49:
 202              	.LBB50:
 203              	.LBB47:
 204              		.loc 2 84 0
 205 004c AAF81A30 		strh	r3, [sl, #26]	@ movhi
 206              	.LVL10:
 207              	.LBE47:
 208              	.LBE50:
 209              	.LBB51:
 210              	.LBB43:
 211              		.loc 2 113 0
 212 0050 C848     		ldr	r0, .L44
 213              		.loc 2 111 0
 214 0052 88F80060 		strb	r6, [r8, #0]
 215              		.loc 2 113 0
 216 0056 0321     		movs	r1, #3
 217 0058 4246     		mov	r2, r8
 218 005a 4B46     		mov	r3, r9
 219 005c FFF7FEFF 		bl	spiExchange
 220              	.LVL11:
 221              	.LBE43:
 222              	.LBE51:
 223              	.LBB52:
 224              	.LBB53:
 225 0060 C448     		ldr	r0, .L44
 226              		.loc 2 111 0
 227 0062 88F80060 		strb	r6, [r8, #0]
 228              		.loc 2 113 0
ARM GAS  /tmp/ccPrDVhe.s 			page 5


 229 0066 0321     		movs	r1, #3
 230 0068 4246     		mov	r2, r8
 231 006a 4B46     		mov	r3, r9
 232 006c FFF7FEFF 		bl	spiExchange
 233              	.LVL12:
 234              		.loc 2 115 0
 235 0070 99F80210 		ldrb	r1, [r9, #2]	@ zero_extendqisi2
 236 0074 99F801E0 		ldrb	lr, [r9, #1]	@ zero_extendqisi2
 237              		.loc 2 113 0
 238 0078 BE48     		ldr	r0, .L44
 239              		.loc 2 111 0
 240 007a 88F80060 		strb	r6, [r8, #0]
 241              		.loc 2 115 0
 242 007e CA08     		lsrs	r2, r1, #3
 243 0080 42EA4E1C 		orr	ip, r2, lr, lsl #5
 244              		.loc 2 113 0
 245 0084 0321     		movs	r1, #3
 246 0086 4246     		mov	r2, r8
 247 0088 4B46     		mov	r3, r9
 248              	.LBE53:
 249              	.LBE52:
 250              		.loc 1 106 0
 251 008a A4F800C0 		strh	ip, [r4, #0]	@ movhi
 252              	.LVL13:
 253              	.LBB61:
 254              	.LBB54:
 255              		.loc 2 113 0
 256 008e FFF7FEFF 		bl	spiExchange
 257              	.LVL14:
 258              		.loc 2 115 0
 259 0092 99F80230 		ldrb	r3, [r9, #2]	@ zero_extendqisi2
 260 0096 99F80110 		ldrb	r1, [r9, #1]	@ zero_extendqisi2
 261              		.loc 2 113 0
 262 009a B648     		ldr	r0, .L44
 263              		.loc 2 111 0
 264 009c 88F80060 		strb	r6, [r8, #0]
 265              		.loc 2 115 0
 266 00a0 DA08     		lsrs	r2, r3, #3
 267 00a2 42EA411E 		orr	lr, r2, r1, lsl #5
 268              		.loc 2 113 0
 269 00a6 4B46     		mov	r3, r9
 270 00a8 0321     		movs	r1, #3
 271 00aa 4246     		mov	r2, r8
 272              	.LBE54:
 273              	.LBE61:
 274              		.loc 1 106 0
 275 00ac A4F802E0 		strh	lr, [r4, #2]	@ movhi
 276              	.LVL15:
 277              	.LBB62:
 278              	.LBB55:
 279              		.loc 2 113 0
 280 00b0 FFF7FEFF 		bl	spiExchange
 281              	.LVL16:
 282              		.loc 2 115 0
 283 00b4 99F80230 		ldrb	r3, [r9, #2]	@ zero_extendqisi2
 284 00b8 99F80110 		ldrb	r1, [r9, #1]	@ zero_extendqisi2
 285              		.loc 2 113 0
ARM GAS  /tmp/ccPrDVhe.s 			page 6


 286 00bc AD48     		ldr	r0, .L44
 287              		.loc 2 111 0
 288 00be 88F80060 		strb	r6, [r8, #0]
 289              		.loc 2 115 0
 290 00c2 DA08     		lsrs	r2, r3, #3
 291 00c4 42EA411C 		orr	ip, r2, r1, lsl #5
 292              		.loc 2 113 0
 293 00c8 4B46     		mov	r3, r9
 294 00ca 0321     		movs	r1, #3
 295 00cc 4246     		mov	r2, r8
 296              	.LBE55:
 297              	.LBE62:
 298              		.loc 1 106 0
 299 00ce A4F804C0 		strh	ip, [r4, #4]	@ movhi
 300              	.LVL17:
 301              	.LBB63:
 302              	.LBB56:
 303              		.loc 2 113 0
 304 00d2 FFF7FEFF 		bl	spiExchange
 305              	.LVL18:
 306              		.loc 2 115 0
 307 00d6 99F80230 		ldrb	r3, [r9, #2]	@ zero_extendqisi2
 308 00da 99F801E0 		ldrb	lr, [r9, #1]	@ zero_extendqisi2
 309              		.loc 2 113 0
 310 00de A548     		ldr	r0, .L44
 311              		.loc 2 111 0
 312 00e0 88F80060 		strb	r6, [r8, #0]
 313              		.loc 2 115 0
 314 00e4 D908     		lsrs	r1, r3, #3
 315 00e6 41EA4E1C 		orr	ip, r1, lr, lsl #5
 316              		.loc 2 113 0
 317 00ea 4246     		mov	r2, r8
 318 00ec 0321     		movs	r1, #3
 319 00ee 4B46     		mov	r3, r9
 320              	.LBE56:
 321              	.LBE63:
 322              		.loc 1 106 0
 323 00f0 A4F806C0 		strh	ip, [r4, #6]	@ movhi
 324              	.LVL19:
 325              	.LBB64:
 326              	.LBB57:
 327              		.loc 2 113 0
 328 00f4 FFF7FEFF 		bl	spiExchange
 329              	.LVL20:
 330              		.loc 2 115 0
 331 00f8 99F80220 		ldrb	r2, [r9, #2]	@ zero_extendqisi2
 332 00fc 99F801E0 		ldrb	lr, [r9, #1]	@ zero_extendqisi2
 333              		.loc 2 113 0
 334 0100 9C48     		ldr	r0, .L44
 335              		.loc 2 111 0
 336 0102 88F80060 		strb	r6, [r8, #0]
 337              		.loc 2 115 0
 338 0106 D308     		lsrs	r3, r2, #3
 339 0108 43EA4E1C 		orr	ip, r3, lr, lsl #5
 340              		.loc 2 113 0
 341 010c 0321     		movs	r1, #3
 342 010e 4246     		mov	r2, r8
ARM GAS  /tmp/ccPrDVhe.s 			page 7


 343 0110 4B46     		mov	r3, r9
 344              	.LBE57:
 345              	.LBE64:
 346              		.loc 1 106 0
 347 0112 A4F808C0 		strh	ip, [r4, #8]	@ movhi
 348              	.LVL21:
 349              	.LBB65:
 350              	.LBB58:
 351              		.loc 2 113 0
 352 0116 FFF7FEFF 		bl	spiExchange
 353              	.LVL22:
 354              		.loc 2 115 0
 355 011a 99F80210 		ldrb	r1, [r9, #2]	@ zero_extendqisi2
 356 011e 99F80120 		ldrb	r2, [r9, #1]	@ zero_extendqisi2
 357              		.loc 2 111 0
 358 0122 88F80060 		strb	r6, [r8, #0]
 359              		.loc 2 115 0
 360 0126 CE08     		lsrs	r6, r1, #3
 361 0128 46EA4216 		orr	r6, r6, r2, lsl #5
 362              		.loc 2 113 0
 363 012c 9148     		ldr	r0, .L44
 364              	.LBE58:
 365              	.LBE65:
 366              		.loc 1 106 0
 367 012e 6681     		strh	r6, [r4, #10]	@ movhi
 368              	.LVL23:
 369              	.LBB66:
 370              	.LBB59:
 371              		.loc 2 113 0
 372 0130 0321     		movs	r1, #3
 373 0132 4246     		mov	r2, r8
 374 0134 4B46     		mov	r3, r9
 375 0136 FFF7FEFF 		bl	spiExchange
 376              	.LVL24:
 377              		.loc 2 115 0
 378 013a 99F80230 		ldrb	r3, [r9, #2]	@ zero_extendqisi2
 379 013e 99F80110 		ldrb	r1, [r9, #1]	@ zero_extendqisi2
 380              	.LBE59:
 381              	.LBE66:
 382              	.LBB67:
 383              	.LBB68:
 384              		.loc 2 113 0
 385 0142 8C48     		ldr	r0, .L44
 386              	.LBE68:
 387              	.LBE67:
 388              	.LBB71:
 389              	.LBB60:
 390              		.loc 2 115 0
 391 0144 DA08     		lsrs	r2, r3, #3
 392 0146 42EA4116 		orr	r6, r2, r1, lsl #5
 393              	.LBE60:
 394              	.LBE71:
 395              	.LBB72:
 396              	.LBB69:
 397              		.loc 2 113 0
 398 014a 4B46     		mov	r3, r9
 399              	.LBE69:
ARM GAS  /tmp/ccPrDVhe.s 			page 8


 400              	.LBE72:
 401              		.loc 1 106 0
 402 014c A681     		strh	r6, [r4, #12]	@ movhi
 403              	.LVL25:
 404              	.LBB73:
 405              	.LBB70:
 406              		.loc 2 113 0
 407 014e 0321     		movs	r1, #3
 408 0150 4246     		mov	r2, r8
 409              		.loc 2 111 0
 410 0152 D026     		movs	r6, #208
 411 0154 88F80060 		strb	r6, [r8, #0]
 412              		.loc 2 113 0
 413 0158 FFF7FEFF 		bl	spiExchange
 414              	.LVL26:
 415              		.loc 1 48 0
 416 015c 2B46     		mov	r3, r5
 417              	.LBE70:
 418              	.LBE73:
 419              	.LBB74:
 420              	.LBB75:
 421              		.loc 1 50 0
 422 015e A446     		mov	ip, r4
 423              	.LVL27:
 424              	.L5:
 425 0160 605B     		ldrh	r0, [r4, r5]
 426 0162 34F81360 		ldrh	r6, [r4, r3, lsl #1]
 427              		.loc 1 83 0
 428 0166 04EB4302 		add	r2, r4, r3, lsl #1
 429 016a 911C     		adds	r1, r2, #2
 430              		.loc 1 50 0
 431 016c B042     		cmp	r0, r6
 432 016e 03F0010E 		and	lr, r3, #1
 433 0172 03D9     		bls	.L22
 434              		.loc 1 53 0
 435 0174 25F80C60 		strh	r6, [r5, ip]	@ movhi
 436              		.loc 1 54 0
 437 0178 21F8020C 		strh	r0, [r1, #-2]	@ movhi
 438              	.L22:
 439              		.loc 1 49 0
 440 017c 5E1C     		adds	r6, r3, #1
 441              	.LVL28:
 442 017e 062E     		cmp	r6, #6
 443 0180 28DC     		bgt	.L40
 444 0182 BEF1000F 		cmp	lr, #0
 445 0186 0BD0     		beq	.L7
 446              		.loc 1 50 0
 447 0188 605B     		ldrh	r0, [r4, r5]
 448 018a 5288     		ldrh	r2, [r2, #2]
 449 018c 0231     		adds	r1, r1, #2
 450 018e 9042     		cmp	r0, r2
 451 0190 03D9     		bls	.L27
 452              		.loc 1 53 0
 453 0192 25F80C20 		strh	r2, [r5, ip]	@ movhi
 454              		.loc 1 54 0
 455 0196 21F8020C 		strh	r0, [r1, #-2]	@ movhi
 456              	.LVL29:
ARM GAS  /tmp/ccPrDVhe.s 			page 9


 457              	.L27:
 458              		.loc 1 49 0
 459 019a 0136     		adds	r6, r6, #1
 460              	.LVL30:
 461 019c 062E     		cmp	r6, #6
 462 019e 19DC     		bgt	.L40
 463              	.L7:
 464              		.loc 1 50 0
 465 01a0 0846     		mov	r0, r1
 466 01a2 625B     		ldrh	r2, [r4, r5]
 467              	.LVL31:
 468 01a4 30F802EB 		ldrh	lr, [r0], #2
 469 01a8 7245     		cmp	r2, lr
 470              		.loc 1 53 0
 471 01aa 88BF     		it	hi
 472 01ac 25F80CE0 		strhhi	lr, [r5, ip]	@ movhi
 473              		.loc 1 50 0
 474 01b0 0146     		mov	r1, r0
 475              		.loc 1 54 0
 476 01b2 88BF     		it	hi
 477 01b4 20F8022C 		strhhi	r2, [r0, #-2]	@ movhi
 478              		.loc 1 50 0
 479 01b8 625B     		ldrh	r2, [r4, r5]
 480 01ba 31F8020B 		ldrh	r0, [r1], #2
 481 01be 8242     		cmp	r2, r0
 482              		.loc 1 49 0
 483 01c0 06F10106 		add	r6, r6, #1
 484              	.LVL32:
 485              		.loc 1 50 0
 486 01c4 E9D9     		bls	.L27
 487              	.LVL33:
 488              		.loc 1 49 0
 489 01c6 0136     		adds	r6, r6, #1
 490              	.LVL34:
 491 01c8 062E     		cmp	r6, #6
 492              		.loc 1 53 0
 493 01ca 25F80C00 		strh	r0, [r5, ip]	@ movhi
 494              		.loc 1 54 0
 495 01ce 21F8022C 		strh	r2, [r1, #-2]	@ movhi
 496              		.loc 1 49 0
 497 01d2 E5DD     		ble	.L7
 498              	.L40:
 499              		.loc 1 48 0
 500 01d4 0133     		adds	r3, r3, #1
 501              	.LVL35:
 502 01d6 0235     		adds	r5, r5, #2
 503 01d8 042B     		cmp	r3, #4
 504 01da C1D1     		bne	.L5
 505              	.LBE75:
 506              	.LBE74:
 507              		.loc 1 109 0
 508 01dc E588     		ldrh	r5, [r4, #6]
 509 01de 674E     		ldr	r6, .L44+8
 510              	.LVL36:
 511              	.LBB76:
 512              	.LBB77:
 513              		.loc 2 113 0
ARM GAS  /tmp/ccPrDVhe.s 			page 10


 514 01e0 6448     		ldr	r0, .L44
 515 01e2 674A     		ldr	r2, .L44+12
 516 01e4 674B     		ldr	r3, .L44+16
 517              	.LVL37:
 518              	.LBE77:
 519              	.LBE76:
 520              		.loc 1 109 0
 521 01e6 3580     		strh	r5, [r6, #0]	@ movhi
 522              	.LVL38:
 523              	.LBB79:
 524              	.LBB78:
 525              		.loc 2 113 0
 526 01e8 0321     		movs	r1, #3
 527              		.loc 2 111 0
 528 01ea 9125     		movs	r5, #145
 529 01ec 88F80050 		strb	r5, [r8, #0]
 530              		.loc 2 113 0
 531 01f0 FFF7FEFF 		bl	spiExchange
 532              	.LVL39:
 533              	.LBE78:
 534              	.LBE79:
 535              	.LBB80:
 536              	.LBB81:
 537 01f4 5F48     		ldr	r0, .L44
 538 01f6 624A     		ldr	r2, .L44+12
 539 01f8 624B     		ldr	r3, .L44+16
 540              		.loc 2 111 0
 541 01fa 88F80050 		strb	r5, [r8, #0]
 542              		.loc 2 113 0
 543 01fe 0321     		movs	r1, #3
 544 0200 FFF7FEFF 		bl	spiExchange
 545              	.LVL40:
 546              		.loc 2 115 0
 547 0204 99F80210 		ldrb	r1, [r9, #2]	@ zero_extendqisi2
 548 0208 99F801E0 		ldrb	lr, [r9, #1]	@ zero_extendqisi2
 549              		.loc 2 113 0
 550 020c 5948     		ldr	r0, .L44
 551 020e 5C4A     		ldr	r2, .L44+12
 552 0210 5C4B     		ldr	r3, .L44+16
 553              		.loc 2 111 0
 554 0212 88F80050 		strb	r5, [r8, #0]
 555              		.loc 2 115 0
 556 0216 C908     		lsrs	r1, r1, #3
 557 0218 41EA4E1C 		orr	ip, r1, lr, lsl #5
 558              		.loc 2 113 0
 559 021c 0321     		movs	r1, #3
 560              	.LBE81:
 561              	.LBE80:
 562              		.loc 1 114 0
 563 021e A4F800C0 		strh	ip, [r4, #0]	@ movhi
 564              	.LVL41:
 565              	.LBB89:
 566              	.LBB82:
 567              		.loc 2 113 0
 568 0222 FFF7FEFF 		bl	spiExchange
 569              	.LVL42:
 570              		.loc 2 115 0
ARM GAS  /tmp/ccPrDVhe.s 			page 11


 571 0226 99F80210 		ldrb	r1, [r9, #2]	@ zero_extendqisi2
 572 022a 99F801E0 		ldrb	lr, [r9, #1]	@ zero_extendqisi2
 573              		.loc 2 113 0
 574 022e 5148     		ldr	r0, .L44
 575 0230 534A     		ldr	r2, .L44+12
 576 0232 544B     		ldr	r3, .L44+16
 577              		.loc 2 111 0
 578 0234 88F80050 		strb	r5, [r8, #0]
 579              		.loc 2 115 0
 580 0238 C908     		lsrs	r1, r1, #3
 581 023a 41EA4E1C 		orr	ip, r1, lr, lsl #5
 582              		.loc 2 113 0
 583 023e 0321     		movs	r1, #3
 584              	.LBE82:
 585              	.LBE89:
 586              		.loc 1 114 0
 587 0240 A4F802C0 		strh	ip, [r4, #2]	@ movhi
 588              	.LVL43:
 589              	.LBB90:
 590              	.LBB83:
 591              		.loc 2 113 0
 592 0244 FFF7FEFF 		bl	spiExchange
 593              	.LVL44:
 594              		.loc 2 115 0
 595 0248 99F80210 		ldrb	r1, [r9, #2]	@ zero_extendqisi2
 596 024c 99F801E0 		ldrb	lr, [r9, #1]	@ zero_extendqisi2
 597              		.loc 2 113 0
 598 0250 4848     		ldr	r0, .L44
 599 0252 4B4A     		ldr	r2, .L44+12
 600 0254 4B4B     		ldr	r3, .L44+16
 601              		.loc 2 111 0
 602 0256 88F80050 		strb	r5, [r8, #0]
 603              		.loc 2 115 0
 604 025a C908     		lsrs	r1, r1, #3
 605 025c 41EA4E1C 		orr	ip, r1, lr, lsl #5
 606              		.loc 2 113 0
 607 0260 0321     		movs	r1, #3
 608              	.LBE83:
 609              	.LBE90:
 610              		.loc 1 114 0
 611 0262 A4F804C0 		strh	ip, [r4, #4]	@ movhi
 612              	.LVL45:
 613              	.LBB91:
 614              	.LBB84:
 615              		.loc 2 113 0
 616 0266 FFF7FEFF 		bl	spiExchange
 617              	.LVL46:
 618              		.loc 2 115 0
 619 026a 99F80210 		ldrb	r1, [r9, #2]	@ zero_extendqisi2
 620 026e 99F801E0 		ldrb	lr, [r9, #1]	@ zero_extendqisi2
 621              		.loc 2 113 0
 622 0272 4048     		ldr	r0, .L44
 623 0274 424A     		ldr	r2, .L44+12
 624 0276 434B     		ldr	r3, .L44+16
 625              		.loc 2 111 0
 626 0278 88F80050 		strb	r5, [r8, #0]
 627              		.loc 2 115 0
ARM GAS  /tmp/ccPrDVhe.s 			page 12


 628 027c C908     		lsrs	r1, r1, #3
 629 027e 41EA4E1C 		orr	ip, r1, lr, lsl #5
 630              		.loc 2 113 0
 631 0282 0321     		movs	r1, #3
 632              	.LBE84:
 633              	.LBE91:
 634              		.loc 1 114 0
 635 0284 A4F806C0 		strh	ip, [r4, #6]	@ movhi
 636              	.LVL47:
 637              	.LBB92:
 638              	.LBB85:
 639              		.loc 2 113 0
 640 0288 FFF7FEFF 		bl	spiExchange
 641              	.LVL48:
 642              		.loc 2 115 0
 643 028c 99F80210 		ldrb	r1, [r9, #2]	@ zero_extendqisi2
 644 0290 99F801E0 		ldrb	lr, [r9, #1]	@ zero_extendqisi2
 645              		.loc 2 113 0
 646 0294 3748     		ldr	r0, .L44
 647 0296 3A4A     		ldr	r2, .L44+12
 648 0298 3A4B     		ldr	r3, .L44+16
 649              		.loc 2 111 0
 650 029a 88F80050 		strb	r5, [r8, #0]
 651              		.loc 2 115 0
 652 029e C908     		lsrs	r1, r1, #3
 653 02a0 41EA4E1C 		orr	ip, r1, lr, lsl #5
 654              		.loc 2 113 0
 655 02a4 0321     		movs	r1, #3
 656              	.LBE85:
 657              	.LBE92:
 658              		.loc 1 114 0
 659 02a6 A4F808C0 		strh	ip, [r4, #8]	@ movhi
 660              	.LVL49:
 661              	.LBB93:
 662              	.LBB86:
 663              		.loc 2 113 0
 664 02aa FFF7FEFF 		bl	spiExchange
 665              	.LVL50:
 666              		.loc 2 115 0
 667 02ae 99F80210 		ldrb	r1, [r9, #2]	@ zero_extendqisi2
 668 02b2 99F801E0 		ldrb	lr, [r9, #1]	@ zero_extendqisi2
 669              		.loc 2 111 0
 670 02b6 88F80050 		strb	r5, [r8, #0]
 671              		.loc 2 115 0
 672 02ba CD08     		lsrs	r5, r1, #3
 673 02bc 45EA4E15 		orr	r5, r5, lr, lsl #5
 674              		.loc 2 113 0
 675 02c0 2C48     		ldr	r0, .L44
 676 02c2 2F4A     		ldr	r2, .L44+12
 677 02c4 2F4B     		ldr	r3, .L44+16
 678              	.LBE86:
 679              	.LBE93:
 680              		.loc 1 114 0
 681 02c6 6581     		strh	r5, [r4, #10]	@ movhi
 682              	.LVL51:
 683              	.LBB94:
 684              	.LBB87:
ARM GAS  /tmp/ccPrDVhe.s 			page 13


 685              		.loc 2 113 0
 686 02c8 0321     		movs	r1, #3
 687 02ca FFF7FEFF 		bl	spiExchange
 688              	.LVL52:
 689              		.loc 2 115 0
 690 02ce 99F80210 		ldrb	r1, [r9, #2]	@ zero_extendqisi2
 691 02d2 99F80150 		ldrb	r5, [r9, #1]	@ zero_extendqisi2
 692              	.LBE87:
 693              	.LBE94:
 694              	.LBB95:
 695              	.LBB96:
 696              		.loc 2 113 0
 697 02d6 2748     		ldr	r0, .L44
 698 02d8 294A     		ldr	r2, .L44+12
 699 02da 2A4B     		ldr	r3, .L44+16
 700              	.LBE96:
 701              	.LBE95:
 702              	.LBB99:
 703              	.LBB88:
 704              		.loc 2 115 0
 705 02dc C908     		lsrs	r1, r1, #3
 706 02de 41EA4515 		orr	r5, r1, r5, lsl #5
 707              	.LBE88:
 708              	.LBE99:
 709              		.loc 1 114 0
 710 02e2 A581     		strh	r5, [r4, #12]	@ movhi
 711              	.LVL53:
 712              	.LBB100:
 713              	.LBB97:
 714              		.loc 2 113 0
 715 02e4 0321     		movs	r1, #3
 716              		.loc 2 111 0
 717 02e6 9025     		movs	r5, #144
 718 02e8 88F80050 		strb	r5, [r8, #0]
 719              		.loc 2 113 0
 720 02ec FFF7FEFF 		bl	spiExchange
 721              	.LVL54:
 722              	.LBE97:
 723              	.LBE100:
 724              	.LBB101:
 725              	.LBB102:
 726              		.loc 1 50 0
 727 02f0 DFF88480 		ldr	r8, .L44+4
 728              	.LBE102:
 729              	.LBE101:
 730              	.LBB104:
 731              	.LBB98:
 732              		.loc 2 113 0
 733 02f4 0022     		movs	r2, #0
 734              		.loc 1 48 0
 735 02f6 1046     		mov	r0, r2
 736              	.LVL55:
 737              	.L9:
 738              	.LBE98:
 739              	.LBE104:
 740              	.LBB105:
 741              	.LBB103:
ARM GAS  /tmp/ccPrDVhe.s 			page 14


 742              		.loc 1 50 0
 743 02f8 A15A     		ldrh	r1, [r4, r2]
 744 02fa 34F810E0 		ldrh	lr, [r4, r0, lsl #1]
 745              		.loc 1 83 0
 746 02fe 04EB4005 		add	r5, r4, r0, lsl #1
 747 0302 AB1C     		adds	r3, r5, #2
 748              		.loc 1 50 0
 749 0304 7145     		cmp	r1, lr
 750 0306 00F0010C 		and	ip, r0, #1
 751 030a 03D9     		bls	.L15
 752              		.loc 1 53 0
 753 030c 22F808E0 		strh	lr, [r2, r8]	@ movhi
 754              		.loc 1 54 0
 755 0310 23F8021C 		strh	r1, [r3, #-2]	@ movhi
 756              	.L15:
 757              		.loc 1 49 0
 758 0314 411C     		adds	r1, r0, #1
 759              	.LVL56:
 760 0316 0629     		cmp	r1, #6
 761 0318 36DC     		bgt	.L39
 762 031a BCF1000F 		cmp	ip, #0
 763 031e 0CD0     		beq	.L11
 764              		.loc 1 50 0
 765 0320 34F802E0 		ldrh	lr, [r4, r2]
 766 0324 6D88     		ldrh	r5, [r5, #2]
 767 0326 0233     		adds	r3, r3, #2
 768 0328 AE45     		cmp	lr, r5
 769 032a 03D9     		bls	.L20
 770              		.loc 1 53 0
 771 032c 22F80850 		strh	r5, [r2, r8]	@ movhi
 772              		.loc 1 54 0
 773 0330 23F802EC 		strh	lr, [r3, #-2]	@ movhi
 774              	.LVL57:
 775              	.L20:
 776              		.loc 1 49 0
 777 0334 0131     		adds	r1, r1, #1
 778              	.LVL58:
 779 0336 0629     		cmp	r1, #6
 780 0338 26DC     		bgt	.L39
 781              	.L11:
 782              		.loc 1 50 0
 783 033a 1D46     		mov	r5, r3
 784 033c 34F802E0 		ldrh	lr, [r4, r2]
 785              	.LVL59:
 786 0340 35F802CB 		ldrh	ip, [r5], #2
 787 0344 E645     		cmp	lr, ip
 788              		.loc 1 53 0
 789 0346 88BF     		it	hi
 790 0348 22F808C0 		strhhi	ip, [r2, r8]	@ movhi
 791              		.loc 1 50 0
 792 034c 2B46     		mov	r3, r5
 793              		.loc 1 54 0
 794 034e 88BF     		it	hi
 795 0350 25F802EC 		strhhi	lr, [r5, #-2]	@ movhi
 796              		.loc 1 50 0
 797 0354 A55A     		ldrh	r5, [r4, r2]
 798 0356 33F802EB 		ldrh	lr, [r3], #2
ARM GAS  /tmp/ccPrDVhe.s 			page 15


 799 035a 7545     		cmp	r5, lr
 800              		.loc 1 49 0
 801 035c 01F10101 		add	r1, r1, #1
 802              	.LVL60:
 803              		.loc 1 50 0
 804 0360 E8D9     		bls	.L20
 805              	.LVL61:
 806              		.loc 1 49 0
 807 0362 0131     		adds	r1, r1, #1
 808              	.LVL62:
 809 0364 0629     		cmp	r1, #6
 810              		.loc 1 53 0
 811 0366 22F808E0 		strh	lr, [r2, r8]	@ movhi
 812              		.loc 1 54 0
 813 036a 23F8025C 		strh	r5, [r3, #-2]	@ movhi
 814              		.loc 1 49 0
 815 036e E4DD     		ble	.L11
 816 0370 0AE0     		b	.L45
 817              	.L46:
 818 0372 00BF     		.align	2
 819              	.L44:
 820 0374 00000000 		.word	SPID3
 821 0378 00000000 		.word	.LANCHOR5
 822 037c 00000000 		.word	.LANCHOR1
 823 0380 00000000 		.word	.LANCHOR3
 824 0384 00000000 		.word	.LANCHOR4
 825              	.L45:
 826              	.L39:
 827              		.loc 1 48 0
 828 0388 0130     		adds	r0, r0, #1
 829              	.LVL63:
 830 038a 0232     		adds	r2, r2, #2
 831 038c 0428     		cmp	r0, #4
 832 038e B3D1     		bne	.L9
 833              	.LBE103:
 834              	.LBE105:
 835              	.LBB106:
 836              	.LBB107:
 837              		.loc 2 93 0
 838 0390 4FF44063 		mov	r3, #3072
 839              	.LBE107:
 840              	.LBE106:
 841              		.loc 1 117 0
 842 0394 E188     		ldrh	r1, [r4, #6]
 843              	.LVL64:
 844 0396 094C     		ldr	r4, .L47
 845              	.LBB110:
 846              	.LBB108:
 847              		.loc 2 94 0
 848 0398 0948     		ldr	r0, .L47+4
 849              	.LVL65:
 850              	.LBE108:
 851              	.LBE110:
 852              		.loc 1 117 0
 853 039a 2180     		strh	r1, [r4, #0]	@ movhi
 854              	.LBB111:
 855              	.LBB109:
ARM GAS  /tmp/ccPrDVhe.s 			page 16


 856              		.loc 2 93 0
 857 039c C4F20203 		movt	r3, 16386
 858 03a0 0822     		movs	r2, #8
 859 03a2 1A83     		strh	r2, [r3, #24]	@ movhi
 860              		.loc 2 94 0
 861 03a4 FFF7FEFF 		bl	spiReleaseBus
 862              	.LVL66:
 863              	.LBE109:
 864              	.LBE111:
 865              		.loc 1 123 0
 866 03a8 3088     		ldrh	r0, [r6, #0]
 867              		.loc 1 124 0
 868 03aa 2388     		ldrh	r3, [r4, #0]
 869              		.loc 1 123 0
 870 03ac 3880     		strh	r0, [r7, #0]	@ movhi
 871              		.loc 1 125 0
 872 03ae 6421     		movs	r1, #100
 873              		.loc 1 126 0
 874 03b0 0122     		movs	r2, #1
 875              		.loc 1 124 0
 876 03b2 7B80     		strh	r3, [r7, #2]	@ movhi
 877              		.loc 1 125 0
 878 03b4 B980     		strh	r1, [r7, #4]	@ movhi
 879              		.loc 1 126 0
 880 03b6 FA80     		strh	r2, [r7, #6]	@ movhi
 881 03b8 BDE8F087 		pop	{r4, r5, r6, r7, r8, r9, sl, pc}
 882              	.L48:
 883              		.align	2
 884              	.L47:
 885 03bc 00000000 		.word	.LANCHOR2
 886 03c0 00000000 		.word	SPID3
 887              		.cfi_endproc
 888              	.LFE125:
 889              		.size	ginput_lld_mouse_get_reading, .-ginput_lld_mouse_get_reading
 890 03c4 AFF30080 		.section	.bss.txbuf.7956,"aw",%nobits
 890      AFF30080 
 890      AFF30080 
 891              		.align	2
 892              		.set	.LANCHOR3,. + 0
 893              		.type	txbuf.7956, %object
 894              		.size	txbuf.7956, 3
 895              	txbuf.7956:
 896 0000 000000   		.space	3
 897 0003 00       		.section	.rodata.spicfg,"a",%progbits
 898              		.align	2
 899              		.set	.LANCHOR0,. + 0
 900              		.type	spicfg, %object
 901              		.size	spicfg, 12
 902              	spicfg:
 903 0000 00000000 		.word	0
 904 0004 000C0240 		.word	1073875968
 905 0008 0300     		.short	3
 906 000a 2000     		.short	32
 907              		.section	.bss.sampleBuf,"aw",%nobits
 908              		.align	2
 909              		.set	.LANCHOR5,. + 0
 910              		.type	sampleBuf, %object
ARM GAS  /tmp/ccPrDVhe.s 			page 17


 911              		.size	sampleBuf, 14
 912              	sampleBuf:
 913 0000 00000000 		.space	14
 913      00000000 
 913      00000000 
 913      0000
 914 000e 0000     		.section	.bss.lastx,"aw",%nobits
 915              		.align	1
 916              		.set	.LANCHOR1,. + 0
 917              		.type	lastx, %object
 918              		.size	lastx, 2
 919              	lastx:
 920 0000 0000     		.space	2
 921              		.section	.bss.lasty,"aw",%nobits
 922              		.align	1
 923              		.set	.LANCHOR2,. + 0
 924              		.type	lasty, %object
 925              		.size	lasty, 2
 926              	lasty:
 927 0000 0000     		.space	2
 928              		.section	.bss.rxbuf.7957,"aw",%nobits
 929              		.align	2
 930              		.set	.LANCHOR4,. + 0
 931              		.type	rxbuf.7957, %object
 932              		.size	rxbuf.7957, 3
 933              	rxbuf.7957:
 934 0000 000000   		.space	3
 935 0003 00       		.text
 936              	.Letext0:
 937              		.file 3 "/usr/bin/../lib/gcc/arm-none-eabi/4.7.4/include/stddef.h"
 938              		.file 4 "/usr/bin/../lib/gcc/arm-none-eabi/4.7.4/../../../../arm-none-eabi/include/stdint.h"
 939              		.file 5 "../../os/ports/GCC/ARMCMx/chtypes.h"
 940              		.file 6 "../../os/kernel/include/chlists.h"
 941              		.file 7 "../../os/kernel/include/chthreads.h"
 942              		.file 8 "../../os/ports/GCC/ARMCMx/chcore_v7m.h"
 943              		.file 9 "../../os/kernel/include/chmtx.h"
 944              		.file 10 "../../os/hal/platforms/STM32F4xx/stm32f4xx.h"
 945              		.file 11 "../../os/hal/platforms/STM32F4xx/stm32_dma.h"
 946              		.file 12 "../../os/hal/platforms/STM32/GPIOv2/pal_lld.h"
 947              		.file 13 "../../os/hal/include/spi.h"
 948              		.file 14 "../../os/hal/platforms/STM32/SPIv1/spi_lld.h"
 949              		.file 15 "../../ext/ugfx/include/gdisp/gdisp.h"
 950              		.file 16 "../../ext/ugfx/include/ginput/lld/mouse.h"
 951              		.file 17 "../../os/ports/common/ARMCMx/CMSIS/include/core_cm4.h"