ARM GAS  /tmp/ccBoO2Yd.s 			page 1


   1              		.syntax unified
   2              		.cpu cortex-m4
   3              		.eabi_attribute 27, 3
   4              		.eabi_attribute 28, 1
   5              		.fpu fpv4-sp-d16
   6              		.eabi_attribute 20, 1
   7              		.eabi_attribute 21, 1
   8              		.eabi_attribute 23, 3
   9              		.eabi_attribute 24, 1
  10              		.eabi_attribute 25, 1
  11              		.eabi_attribute 26, 1
  12              		.eabi_attribute 30, 2
  13              		.eabi_attribute 34, 1
  14              		.eabi_attribute 18, 4
  15              		.thumb
  16              		.file	"graph.c"
  17              		.text
  18              	.Ltext0:
  19              		.cfi_sections	.debug_frame
  20              		.section	.text.lineto,"ax",%progbits
  21              		.align	2
  22              		.p2align 4,,15
  23              		.thumb
  24              		.thumb_func
  25              		.type	lineto, %function
  26              	lineto:
  27              	.LFB119:
  28              		.file 1 "../../ext/ugfx/src/gwin/graph.c"
  29              		.loc 1 69 0
  30              		.cfi_startproc
  31              		@ args = 8, pretend = 0, frame = 32
  32              		@ frame_needed = 0, uses_anonymous_args = 0
  33              	.LVL0:
  34 0000 2DE9F04F 		push	{r4, r5, r6, r7, r8, r9, sl, fp, lr}
  35              	.LCFI0:
  36              		.cfi_def_cfa_offset 36
  37              		.cfi_offset 4, -36
  38              		.cfi_offset 5, -32
  39              		.cfi_offset 6, -28
  40              		.cfi_offset 7, -24
  41              		.cfi_offset 8, -20
  42              		.cfi_offset 9, -16
  43              		.cfi_offset 10, -12
  44              		.cfi_offset 11, -8
  45              		.cfi_offset 14, -4
  46 0004 89B0     		sub	sp, sp, #36
  47              	.LCFI1:
  48              		.cfi_def_cfa_offset 72
  49              		.loc 1 69 0
  50 0006 139E     		ldr	r6, [sp, #76]
  51 0008 BDF948C0 		ldrsh	ip, [sp, #72]
  52              		.loc 1 75 0
  53 000c 3778     		ldrb	r7, [r6, #0]	@ zero_extendqisi2
  54 000e 002F     		cmp	r7, #0
  55 0010 35D0     		beq	.L1
  56              		.loc 1 80 0
  57 0012 B0F80AA0 		ldrh	sl, [r0, #10]
ARM GAS  /tmp/ccBoO2Yd.s 			page 2


  58 0016 C489     		ldrh	r4, [r0, #14]
  59              		.loc 1 79 0
  60 0018 B0F84690 		ldrh	r9, [r0, #70]
  61              		.loc 1 80 0
  62 001c B0F84880 		ldrh	r8, [r0, #72]
  63              		.loc 1 79 0
  64 0020 0589     		ldrh	r5, [r0, #8]
  65              		.loc 1 84 0
  66 0022 7088     		ldrh	r0, [r6, #2]
  67              	.LVL1:
  68              		.loc 1 80 0
  69 0024 5444     		add	r4, sl, r4
  70 0026 013C     		subs	r4, r4, #1
  71              		.loc 1 79 0
  72 0028 4D44     		add	r5, r9, r5
  73              		.loc 1 80 0
  74 002a C8EB0404 		rsb	r4, r8, r4
  75              		.loc 1 79 0
  76 002e ADB2     		uxth	r5, r5
  77              		.loc 1 80 0
  78 0030 A4B2     		uxth	r4, r4
  79 0032 A21A     		subs	r2, r4, r2
  80              	.LVL2:
  81              		.loc 1 81 0
  82 0034 EB18     		adds	r3, r5, r3
  83              	.LVL3:
  84              		.loc 1 79 0
  85 0036 6918     		adds	r1, r5, r1
  86              	.LVL4:
  87              		.loc 1 82 0
  88 0038 CCEB040C 		rsb	ip, ip, r4
  89              		.loc 1 84 0
  90 003c 0FFA80FA 		sxth	sl, r0
  91              		.loc 1 80 0
  92 0040 1FFA82F8 		uxth	r8, r2
  93              		.loc 1 81 0
  94 0044 1FFA83F9 		uxth	r9, r3
  95              		.loc 1 79 0
  96 0048 89B2     		uxth	r1, r1
  97              		.loc 1 82 0
  98 004a 1FFA8CFC 		uxth	ip, ip
  99              		.loc 1 84 0
 100 004e BAF1000F 		cmp	sl, #0
 101              		.loc 1 79 0
 102 0052 0CB2     		sxth	r4, r1
 103              	.LVL5:
 104              		.loc 1 80 0
 105 0054 0FFA88F5 		sxth	r5, r8
 106              	.LVL6:
 107              		.loc 1 81 0
 108 0058 0FFA89F2 		sxth	r2, r9
 109              	.LVL7:
 110              		.loc 1 82 0
 111 005c 0FFA8CF3 		sxth	r3, ip
 112              	.LVL8:
 113              		.loc 1 84 0
 114 0060 04DD     		ble	.L55
ARM GAS  /tmp/ccBoO2Yd.s 			page 3


 115              		.loc 1 90 0
 116 0062 022F     		cmp	r7, #2
 117 0064 0ED0     		beq	.L6
 118 0066 032F     		cmp	r7, #3
 119 0068 00F0E481 		beq	.L81
 120              	.L55:
 121              		.loc 1 104 0
 122 006c B188     		ldrh	r1, [r6, #4]
 123              	.LVL9:
 124 006e 2046     		mov	r0, r4
 125 0070 1291     		str	r1, [sp, #72]
 126 0072 2946     		mov	r1, r5
 127              		.loc 1 166 0
 128 0074 09B0     		add	sp, sp, #36
 129 0076 BDE8F04F 		pop	{r4, r5, r6, r7, r8, r9, sl, fp, lr}
 130              		.loc 1 104 0
 131 007a FFF7FEBF 		b	gdispDrawLine
 132              	.LVL10:
 133              	.L1:
 134              		.loc 1 166 0
 135 007e 09B0     		add	sp, sp, #36
 136 0080 BDE8F08F 		pop	{r4, r5, r6, r7, r8, r9, sl, fp, pc}
 137              	.LVL11:
 138              	.L6:
 139              		.loc 1 93 0
 140 0084 4042     		negs	r0, r0
 141 0086 87B2     		uxth	r7, r0
 142 0088 0297     		str	r7, [sp, #8]
 143              	.LVL12:
 144              		.loc 1 92 0
 145 008a 0120     		movs	r0, #1
 146              	.LVL13:
 147              	.L8:
 148              		.loc 1 110 0
 149 008c 9442     		cmp	r4, r2
 150 008e 00F3C981 		bgt	.L9
 151              		.loc 1 111 0
 152 0092 C1EB0907 		rsb	r7, r1, r9
 153              		.loc 1 112 0
 154 0096 4FF00109 		mov	r9, #1
 155              	.LVL14:
 156              		.loc 1 111 0
 157 009a B9B2     		uxth	r1, r7
 158              	.LVL15:
 159              		.loc 1 112 0
 160 009c CDF81890 		str	r9, [sp, #24]
 161              	.LVL16:
 162              	.L10:
 163              		.loc 1 117 0
 164 00a0 9D42     		cmp	r5, r3
 165 00a2 00F3B881 		bgt	.L11
 166              		.loc 1 118 0
 167 00a6 C8EB0C02 		rsb	r2, r8, ip
 168 00aa 1FFA82FC 		uxth	ip, r2
 169              	.LVL17:
 170              		.loc 1 119 0
 171 00ae 0127     		movs	r7, #1
ARM GAS  /tmp/ccBoO2Yd.s 			page 4


 172              	.LVL18:
 173              	.L12:
 174              		.loc 1 125 0
 175 00b0 0FFA8CFB 		sxth	fp, ip
 176 00b4 0FFA81FA 		sxth	sl, r1
 177 00b8 D345     		cmp	fp, sl
 178 00ba 00F3D680 		bgt	.L13
 179              		.loc 1 126 0
 180 00be 4FEA4C0B 		lsl	fp, ip, #1
 181 00c2 1FFA8BFC 		uxth	ip, fp
 182              	.LVL19:
 183              		.loc 1 127 0
 184 00c6 89B2     		uxth	r1, r1
 185              	.LVL20:
 186 00c8 C1EB0C03 		rsb	r3, r1, ip
 187 00cc 9AB2     		uxth	r2, r3
 188              		.loc 1 128 0
 189 00ce 511A     		subs	r1, r2, r1
 190 00d0 8BB2     		uxth	r3, r1
 191              		.loc 1 130 0
 192 00d2 BAF1000F 		cmp	sl, #0
 193              		.loc 1 126 0
 194 00d6 CDF81CC0 		str	ip, [sp, #28]
 195              	.LVL21:
 196              		.loc 1 127 0
 197 00da 1FFA82FB 		uxth	fp, r2
 198              	.LVL22:
 199              		.loc 1 128 0
 200 00de 0493     		str	r3, [sp, #16]
 201              	.LVL23:
 202              		.loc 1 130 0
 203 00e0 CDDB     		blt	.L1
 204              		.loc 1 132 0
 205 00e2 00B2     		sxth	r0, r0
 206              	.LVL24:
 207 00e4 0390     		str	r0, [sp, #12]
 208 00e6 DDF80890 		ldr	r9, [sp, #8]
 209 00ea DDF80CE0 		ldr	lr, [sp, #12]
 210              		.loc 1 134 0
 211 00ee B288     		ldrh	r2, [r6, #4]
 212              	.LVL25:
 213 00f0 0AF00103 		and	r3, sl, #1
 214 00f4 2046     		mov	r0, r4
 215 00f6 2946     		mov	r1, r5
 216              		.loc 1 132 0
 217 00f8 BEF1010F 		cmp	lr, #1
 218 00fc C8BF     		it	gt
 219 00fe 4FF00109 		movgt	r9, #1
 220 0102 0593     		str	r3, [sp, #20]
 221              	.LVL26:
 222              		.loc 1 134 0
 223 0104 FFF7FEFF 		bl	gdispDrawPixel
 224              	.LVL27:
 225              		.loc 1 136 0
 226 0108 1BF4004F 		tst	fp, #32768
 227 010c 40F09681 		bne	.L82
 228              		.loc 1 140 0
ARM GAS  /tmp/ccBoO2Yd.s 			page 5


 229 0110 049A     		ldr	r2, [sp, #16]
 230 0112 02EB0B08 		add	r8, r2, fp
 231              		.loc 1 141 0
 232 0116 DDF818B0 		ldr	fp, [sp, #24]
 233              	.LVL28:
 234              		.loc 1 142 0
 235 011a ED19     		adds	r5, r5, r7
 236              	.LVL29:
 237              		.loc 1 141 0
 238 011c 5C44     		add	r4, r4, fp
 239              	.LVL30:
 240 011e 24B2     		sxth	r4, r4
 241              		.loc 1 140 0
 242 0120 1FFA88FB 		uxth	fp, r8
 243              		.loc 1 142 0
 244 0124 2DB2     		sxth	r5, r5
 245              	.LVL31:
 246              	.L60:
 247              		.loc 1 130 0
 248 0126 4FF00108 		mov	r8, #1
 249              	.LVL32:
 250 012a C245     		cmp	sl, r8
 251 012c A7DB     		blt	.L1
 252 012e 059A     		ldr	r2, [sp, #20]
 253 0130 62B3     		cbz	r2, .L77
 254              		.loc 1 131 0
 255 0132 09EB0801 		add	r1, r9, r8
 256 0136 19F4004F 		tst	r9, #32768
 257 013a 8BB2     		uxth	r3, r1
 258 013c 40F0A581 		bne	.L83
 259              		.loc 1 132 0
 260 0140 DDF808C0 		ldr	ip, [sp, #8]
 261 0144 DDF80CE0 		ldr	lr, [sp, #12]
 262              		.loc 1 134 0
 263 0148 B288     		ldrh	r2, [r6, #4]
 264              		.loc 1 132 0
 265 014a 0FFA83F9 		sxth	r9, r3
 266 014e CE45     		cmp	lr, r9
 267 0150 C8BF     		it	gt
 268 0152 9C46     		movgt	ip, r3
 269              		.loc 1 134 0
 270 0154 2046     		mov	r0, r4
 271 0156 2946     		mov	r1, r5
 272              		.loc 1 132 0
 273 0158 E146     		mov	r9, ip
 274              		.loc 1 134 0
 275 015a FFF7FEFF 		bl	gdispDrawPixel
 276              	.LVL33:
 277              	.L62:
 278              		.loc 1 136 0
 279 015e 1BF4004F 		tst	fp, #32768
 280 0162 40F08781 		bne	.L63
 281              		.loc 1 140 0
 282 0166 0498     		ldr	r0, [sp, #16]
 283              		.loc 1 141 0
 284 0168 DDF818C0 		ldr	ip, [sp, #24]
 285              		.loc 1 140 0
ARM GAS  /tmp/ccBoO2Yd.s 			page 6


 286 016c 8344     		add	fp, r0, fp
 287              		.loc 1 141 0
 288 016e 6444     		add	r4, r4, ip
 289              		.loc 1 142 0
 290 0170 ED19     		adds	r5, r5, r7
 291              	.LVL34:
 292              		.loc 1 140 0
 293 0172 1FFA8BFB 		uxth	fp, fp
 294              		.loc 1 141 0
 295 0176 24B2     		sxth	r4, r4
 296              		.loc 1 142 0
 297 0178 2DB2     		sxth	r5, r5
 298              	.LVL35:
 299              	.L64:
 300              		.loc 1 130 0
 301 017a 08F10108 		add	r8, r8, #1
 302 017e 1FFA88F8 		uxth	r8, r8
 303 0182 0FFA88F0 		sxth	r0, r8
 304 0186 8245     		cmp	sl, r0
 305 0188 FFF679AF 		blt	.L1
 306              	.LVL36:
 307              	.L77:
 308 018c CDF814A0 		str	sl, [sp, #20]
 309 0190 2346     		mov	r3, r4
 310 0192 DDF818A0 		ldr	sl, [sp, #24]
 311 0196 3DE0     		b	.L19
 312              	.L17:
 313              		.loc 1 140 0
 314 0198 DDF81090 		ldr	r9, [sp, #16]
 315              		.loc 1 141 0
 316 019c 03EB0A01 		add	r1, r3, sl
 317              		.loc 1 140 0
 318 01a0 09EB0B02 		add	r2, r9, fp
 319              		.loc 1 142 0
 320 01a4 ED19     		adds	r5, r5, r7
 321              		.loc 1 140 0
 322 01a6 1FFA82FB 		uxth	fp, r2
 323              		.loc 1 141 0
 324 01aa 0BB2     		sxth	r3, r1
 325              		.loc 1 142 0
 326 01ac 2DB2     		sxth	r5, r5
 327              	.LVL37:
 328              	.L18:
 329              		.loc 1 130 0
 330 01ae 08F10108 		add	r8, r8, #1
 331              		.loc 1 131 0
 332 01b2 04F10109 		add	r9, r4, #1
 333 01b6 2204     		lsls	r2, r4, #16
 334              		.loc 1 130 0
 335 01b8 1FFA88F8 		uxth	r8, r8
 336              		.loc 1 131 0
 337 01bc 1FFA89F9 		uxth	r9, r9
 338 01c0 0FD4     		bmi	.L65
 339              		.loc 1 132 0
 340 01c2 DDF808C0 		ldr	ip, [sp, #8]
 341 01c6 DDF80CE0 		ldr	lr, [sp, #12]
 342              		.loc 1 134 0
ARM GAS  /tmp/ccBoO2Yd.s 			page 7


 343 01ca B288     		ldrh	r2, [r6, #4]
 344 01cc 0193     		str	r3, [sp, #4]
 345 01ce 1846     		mov	r0, r3
 346              		.loc 1 132 0
 347 01d0 0FFA89F4 		sxth	r4, r9
 348              		.loc 1 134 0
 349 01d4 2946     		mov	r1, r5
 350              		.loc 1 132 0
 351 01d6 A645     		cmp	lr, r4
 352 01d8 D8BF     		it	le
 353 01da E146     		movle	r9, ip
 354              		.loc 1 134 0
 355 01dc FFF7FEFF 		bl	gdispDrawPixel
 356              	.LVL38:
 357 01e0 019B     		ldr	r3, [sp, #4]
 358              	.L65:
 359              		.loc 1 136 0
 360 01e2 1BF4004F 		tst	fp, #32768
 361 01e6 37D1     		bne	.L66
 362              		.loc 1 140 0
 363 01e8 DDF810C0 		ldr	ip, [sp, #16]
 364              		.loc 1 141 0
 365 01ec 03EB0A01 		add	r1, r3, sl
 366              		.loc 1 140 0
 367 01f0 0CEB0B02 		add	r2, ip, fp
 368              		.loc 1 142 0
 369 01f4 ED19     		adds	r5, r5, r7
 370              	.LVL39:
 371              		.loc 1 140 0
 372 01f6 1FFA82FB 		uxth	fp, r2
 373              		.loc 1 141 0
 374 01fa 0BB2     		sxth	r3, r1
 375              		.loc 1 142 0
 376 01fc 2DB2     		sxth	r5, r5
 377              	.LVL40:
 378              	.L67:
 379              		.loc 1 130 0
 380 01fe 08F10108 		add	r8, r8, #1
 381 0202 1FFA88F8 		uxth	r8, r8
 382 0206 DDF814C0 		ldr	ip, [sp, #20]
 383 020a 0FFA88F2 		sxth	r2, r8
 384 020e 9445     		cmp	ip, r2
 385 0210 FFF635AF 		blt	.L1
 386              	.LVL41:
 387              	.L19:
 388              		.loc 1 131 0
 389 0214 09F10104 		add	r4, r9, #1
 390 0218 19F4004F 		tst	r9, #32768
 391 021c A4B2     		uxth	r4, r4
 392 021e 0FD1     		bne	.L15
 393              		.loc 1 132 0
 394 0220 DDF80890 		ldr	r9, [sp, #8]
 395 0224 DDF80CC0 		ldr	ip, [sp, #12]
 396              		.loc 1 134 0
 397 0228 B288     		ldrh	r2, [r6, #4]
 398 022a 0193     		str	r3, [sp, #4]
 399              		.loc 1 132 0
ARM GAS  /tmp/ccBoO2Yd.s 			page 8


 400 022c 0FFA84FE 		sxth	lr, r4
 401              		.loc 1 134 0
 402 0230 1846     		mov	r0, r3
 403 0232 2946     		mov	r1, r5
 404              		.loc 1 132 0
 405 0234 F445     		cmp	ip, lr
 406 0236 D8BF     		it	le
 407 0238 4C46     		movle	r4, r9
 408              		.loc 1 134 0
 409 023a FFF7FEFF 		bl	gdispDrawPixel
 410              	.LVL42:
 411 023e 019B     		ldr	r3, [sp, #4]
 412              	.L15:
 413              		.loc 1 136 0
 414 0240 1BF4004F 		tst	fp, #32768
 415 0244 A8D0     		beq	.L17
 416              		.loc 1 137 0
 417 0246 DDF81CC0 		ldr	ip, [sp, #28]
 418              		.loc 1 138 0
 419 024a 5344     		add	r3, r3, sl
 420              		.loc 1 137 0
 421 024c 0CEB0B00 		add	r0, ip, fp
 422 0250 1FFA80FB 		uxth	fp, r0
 423              		.loc 1 138 0
 424 0254 1BB2     		sxth	r3, r3
 425 0256 AAE7     		b	.L18
 426              	.LVL43:
 427              	.L66:
 428              		.loc 1 137 0
 429 0258 DDF81CC0 		ldr	ip, [sp, #28]
 430              		.loc 1 138 0
 431 025c 03EB0A00 		add	r0, r3, sl
 432              		.loc 1 137 0
 433 0260 E344     		add	fp, ip, fp
 434 0262 1FFA8BFB 		uxth	fp, fp
 435              		.loc 1 138 0
 436 0266 03B2     		sxth	r3, r0
 437 0268 C9E7     		b	.L67
 438              	.LVL44:
 439              	.L13:
 440              		.loc 1 146 0
 441 026a 4900     		lsls	r1, r1, #1
 442              	.LVL45:
 443 026c 8AB2     		uxth	r2, r1
 444              		.loc 1 147 0
 445 026e 1FFA8CF3 		uxth	r3, ip
 446 0272 C3EB020A 		rsb	sl, r3, r2
 447 0276 1FFA8AF1 		uxth	r1, sl
 448              		.loc 1 148 0
 449 027a C3EB010C 		rsb	ip, r3, r1
 450              	.LVL46:
 451 027e 1FFA8CFC 		uxth	ip, ip
 452              		.loc 1 150 0
 453 0282 BBF1000F 		cmp	fp, #0
 454              		.loc 1 146 0
 455 0286 0792     		str	r2, [sp, #28]
 456              	.LVL47:
ARM GAS  /tmp/ccBoO2Yd.s 			page 9


 457              		.loc 1 147 0
 458 0288 1FFA81FA 		uxth	sl, r1
 459              	.LVL48:
 460              		.loc 1 148 0
 461 028c CDF810C0 		str	ip, [sp, #16]
 462              	.LVL49:
 463              		.loc 1 150 0
 464 0290 FFF6F5AE 		blt	.L1
 465              		.loc 1 152 0
 466 0294 00B2     		sxth	r0, r0
 467              	.LVL50:
 468 0296 0390     		str	r0, [sp, #12]
 469 0298 039B     		ldr	r3, [sp, #12]
 470 029a DDF80890 		ldr	r9, [sp, #8]
 471              		.loc 1 154 0
 472 029e B288     		ldrh	r2, [r6, #4]
 473              		.loc 1 152 0
 474 02a0 012B     		cmp	r3, #1
 475 02a2 C8BF     		it	gt
 476 02a4 4FF00109 		movgt	r9, #1
 477              		.loc 1 154 0
 478 02a8 2046     		mov	r0, r4
 479 02aa 0BF00103 		and	r3, fp, #1
 480 02ae 2946     		mov	r1, r5
 481              	.LVL51:
 482 02b0 0593     		str	r3, [sp, #20]
 483              	.LVL52:
 484 02b2 FFF7FEFF 		bl	gdispDrawPixel
 485              	.LVL53:
 486              		.loc 1 156 0
 487 02b6 1AF4004F 		tst	sl, #32768
 488 02ba 40F0CA80 		bne	.L84
 489              		.loc 1 160 0
 490 02be 049A     		ldr	r2, [sp, #16]
 491              		.loc 1 161 0
 492 02c0 DDF81880 		ldr	r8, [sp, #24]
 493              		.loc 1 160 0
 494 02c4 02EB0A0E 		add	lr, r2, sl
 495              		.loc 1 161 0
 496 02c8 4444     		add	r4, r4, r8
 497              	.LVL54:
 498              		.loc 1 162 0
 499 02ca ED19     		adds	r5, r5, r7
 500              	.LVL55:
 501              		.loc 1 160 0
 502 02cc 1FFA8EFA 		uxth	sl, lr
 503              	.LVL56:
 504              		.loc 1 161 0
 505 02d0 24B2     		sxth	r4, r4
 506              	.LVL57:
 507              		.loc 1 162 0
 508 02d2 2DB2     		sxth	r5, r5
 509              	.LVL58:
 510              	.L68:
 511              		.loc 1 150 0
 512 02d4 4FF00108 		mov	r8, #1
 513              	.LVL59:
ARM GAS  /tmp/ccBoO2Yd.s 			page 10


 514 02d8 C345     		cmp	fp, r8
 515 02da FFF6D0AE 		blt	.L1
 516 02de 059B     		ldr	r3, [sp, #20]
 517 02e0 63B3     		cbz	r3, .L79
 518              		.loc 1 151 0
 519 02e2 09EB0802 		add	r2, r9, r8
 520 02e6 19F4004F 		tst	r9, #32768
 521 02ea 93B2     		uxth	r3, r2
 522 02ec 40F0C080 		bne	.L85
 523              		.loc 1 152 0
 524 02f0 DDF808C0 		ldr	ip, [sp, #8]
 525 02f4 DDF80CE0 		ldr	lr, [sp, #12]
 526              		.loc 1 154 0
 527 02f8 B288     		ldrh	r2, [r6, #4]
 528              		.loc 1 152 0
 529 02fa 0FFA83F9 		sxth	r9, r3
 530 02fe CE45     		cmp	lr, r9
 531 0300 C8BF     		it	gt
 532 0302 9C46     		movgt	ip, r3
 533              		.loc 1 154 0
 534 0304 2046     		mov	r0, r4
 535 0306 2946     		mov	r1, r5
 536              		.loc 1 152 0
 537 0308 E146     		mov	r9, ip
 538              		.loc 1 154 0
 539 030a FFF7FEFF 		bl	gdispDrawPixel
 540              	.LVL60:
 541              	.L70:
 542              		.loc 1 156 0
 543 030e 1AF4004F 		tst	sl, #32768
 544 0312 40F0A580 		bne	.L71
 545              		.loc 1 160 0
 546 0316 0499     		ldr	r1, [sp, #16]
 547              		.loc 1 161 0
 548 0318 DDF818C0 		ldr	ip, [sp, #24]
 549              		.loc 1 160 0
 550 031c 8A44     		add	sl, r1, sl
 551              		.loc 1 161 0
 552 031e 6444     		add	r4, r4, ip
 553              	.LVL61:
 554              		.loc 1 162 0
 555 0320 ED19     		adds	r5, r5, r7
 556              		.loc 1 160 0
 557 0322 1FFA8AFA 		uxth	sl, sl
 558              		.loc 1 161 0
 559 0326 24B2     		sxth	r4, r4
 560              	.LVL62:
 561              		.loc 1 162 0
 562 0328 2DB2     		sxth	r5, r5
 563              	.LVL63:
 564              	.L72:
 565              		.loc 1 150 0
 566 032a 08F10108 		add	r8, r8, #1
 567 032e 1FFA88F8 		uxth	r8, r8
 568 0332 0FFA88F1 		sxth	r1, r8
 569 0336 8B45     		cmp	fp, r1
 570 0338 FFF6A1AE 		blt	.L1
ARM GAS  /tmp/ccBoO2Yd.s 			page 11


 571              	.LVL64:
 572              	.L79:
 573 033c CDF814B0 		str	fp, [sp, #20]
 574 0340 AB46     		mov	fp, r5
 575 0342 3DE0     		b	.L24
 576              	.L22:
 577              		.loc 1 160 0
 578 0344 DDF81090 		ldr	r9, [sp, #16]
 579              		.loc 1 161 0
 580 0348 DDF818C0 		ldr	ip, [sp, #24]
 581              		.loc 1 160 0
 582 034c CA44     		add	sl, r9, sl
 583              		.loc 1 161 0
 584 034e 6444     		add	r4, r4, ip
 585              		.loc 1 162 0
 586 0350 0BEB0700 		add	r0, fp, r7
 587              		.loc 1 160 0
 588 0354 1FFA8AFA 		uxth	sl, sl
 589              		.loc 1 161 0
 590 0358 24B2     		sxth	r4, r4
 591              	.LVL65:
 592              		.loc 1 162 0
 593 035a 0FFA80FB 		sxth	fp, r0
 594              	.LVL66:
 595              	.L23:
 596              		.loc 1 150 0
 597 035e 08F10108 		add	r8, r8, #1
 598              		.loc 1 151 0
 599 0362 05F10109 		add	r9, r5, #1
 600 0366 2B04     		lsls	r3, r5, #16
 601              		.loc 1 150 0
 602 0368 1FFA88F8 		uxth	r8, r8
 603              		.loc 1 151 0
 604 036c 1FFA89F9 		uxth	r9, r9
 605 0370 0CD4     		bmi	.L73
 606              		.loc 1 152 0
 607 0372 DDF808E0 		ldr	lr, [sp, #8]
 608 0376 039B     		ldr	r3, [sp, #12]
 609              		.loc 1 154 0
 610 0378 B288     		ldrh	r2, [r6, #4]
 611              		.loc 1 152 0
 612 037a 0FFA89F5 		sxth	r5, r9
 613              		.loc 1 154 0
 614 037e 2046     		mov	r0, r4
 615 0380 5946     		mov	r1, fp
 616              		.loc 1 152 0
 617 0382 AB42     		cmp	r3, r5
 618 0384 D8BF     		it	le
 619 0386 F146     		movle	r9, lr
 620              		.loc 1 154 0
 621 0388 FFF7FEFF 		bl	gdispDrawPixel
 622              	.LVL67:
 623              	.L73:
 624              		.loc 1 156 0
 625 038c 1AF4004F 		tst	sl, #32768
 626 0390 37D1     		bne	.L74
 627              		.loc 1 160 0
ARM GAS  /tmp/ccBoO2Yd.s 			page 12


 628 0392 DDF810C0 		ldr	ip, [sp, #16]
 629              		.loc 1 161 0
 630 0396 069A     		ldr	r2, [sp, #24]
 631              		.loc 1 160 0
 632 0398 0CEB0A00 		add	r0, ip, sl
 633              		.loc 1 161 0
 634 039c A418     		adds	r4, r4, r2
 635              	.LVL68:
 636              		.loc 1 162 0
 637 039e 0BEB0701 		add	r1, fp, r7
 638              		.loc 1 160 0
 639 03a2 1FFA80FA 		uxth	sl, r0
 640              		.loc 1 161 0
 641 03a6 24B2     		sxth	r4, r4
 642              	.LVL69:
 643              		.loc 1 162 0
 644 03a8 0FFA81FB 		sxth	fp, r1
 645              	.LVL70:
 646              	.L75:
 647              		.loc 1 150 0
 648 03ac 08F10108 		add	r8, r8, #1
 649 03b0 1FFA88F8 		uxth	r8, r8
 650 03b4 059A     		ldr	r2, [sp, #20]
 651 03b6 0FFA88F0 		sxth	r0, r8
 652 03ba 8242     		cmp	r2, r0
 653 03bc FFF65FAE 		blt	.L1
 654              	.LVL71:
 655              	.L24:
 656              		.loc 1 151 0
 657 03c0 09F10105 		add	r5, r9, #1
 658 03c4 19F4004F 		tst	r9, #32768
 659 03c8 ADB2     		uxth	r5, r5
 660 03ca 0DD1     		bne	.L20
 661              		.loc 1 152 0
 662 03cc DDF80890 		ldr	r9, [sp, #8]
 663 03d0 DDF80CC0 		ldr	ip, [sp, #12]
 664              		.loc 1 154 0
 665 03d4 B288     		ldrh	r2, [r6, #4]
 666              		.loc 1 152 0
 667 03d6 0FFA85FE 		sxth	lr, r5
 668              		.loc 1 154 0
 669 03da 2046     		mov	r0, r4
 670 03dc 5946     		mov	r1, fp
 671              		.loc 1 152 0
 672 03de F445     		cmp	ip, lr
 673 03e0 D8BF     		it	le
 674 03e2 4D46     		movle	r5, r9
 675              		.loc 1 154 0
 676 03e4 FFF7FEFF 		bl	gdispDrawPixel
 677              	.LVL72:
 678              	.L20:
 679              		.loc 1 156 0
 680 03e8 1AF4004F 		tst	sl, #32768
 681 03ec AAD0     		beq	.L22
 682              		.loc 1 157 0
 683 03ee 079A     		ldr	r2, [sp, #28]
 684              		.loc 1 158 0
ARM GAS  /tmp/ccBoO2Yd.s 			page 13


 685 03f0 0BEB0703 		add	r3, fp, r7
 686              		.loc 1 157 0
 687 03f4 02EB0A01 		add	r1, r2, sl
 688 03f8 1FFA81FA 		uxth	sl, r1
 689              		.loc 1 158 0
 690 03fc 0FFA83FB 		sxth	fp, r3
 691 0400 ADE7     		b	.L23
 692              	.LVL73:
 693              	.L74:
 694              		.loc 1 157 0
 695 0402 DDF81CC0 		ldr	ip, [sp, #28]
 696              		.loc 1 158 0
 697 0406 0BEB0703 		add	r3, fp, r7
 698              		.loc 1 157 0
 699 040a E244     		add	sl, ip, sl
 700 040c 1FFA8AFA 		uxth	sl, sl
 701              		.loc 1 158 0
 702 0410 0FFA83FB 		sxth	fp, r3
 703 0414 CAE7     		b	.L75
 704              	.LVL74:
 705              	.L11:
 706              		.loc 1 121 0
 707 0416 CCEB0803 		rsb	r3, ip, r8
 708 041a 1FFA83FC 		uxth	ip, r3
 709              	.LVL75:
 710              		.loc 1 122 0
 711 041e 4FF6FF77 		movw	r7, #65535
 712 0422 45E6     		b	.L12
 713              	.LVL76:
 714              	.L9:
 715              		.loc 1 114 0
 716 0424 C9EB0102 		rsb	r2, r9, r1
 717              		.loc 1 115 0
 718 0428 4FF6FF79 		movw	r9, #65535
 719              	.LVL77:
 720              		.loc 1 114 0
 721 042c 91B2     		uxth	r1, r2
 722              	.LVL78:
 723              		.loc 1 115 0
 724 042e CDF81890 		str	r9, [sp, #24]
 725 0432 35E6     		b	.L10
 726              	.LVL79:
 727              	.L81:
 728              		.loc 1 98 0
 729 0434 4742     		negs	r7, r0
 730 0436 BFB2     		uxth	r7, r7
 731 0438 0297     		str	r7, [sp, #8]
 732              	.LVL80:
 733              		.loc 1 99 0
 734 043a 27E6     		b	.L8
 735              	.LVL81:
 736              	.L82:
 737              		.loc 1 137 0
 738 043c 0799     		ldr	r1, [sp, #28]
 739              		.loc 1 138 0
 740 043e DDF818C0 		ldr	ip, [sp, #24]
 741              		.loc 1 137 0
ARM GAS  /tmp/ccBoO2Yd.s 			page 14


 742 0442 01EB0B00 		add	r0, r1, fp
 743              		.loc 1 138 0
 744 0446 04EB0C03 		add	r3, r4, ip
 745              		.loc 1 137 0
 746 044a 1FFA80FB 		uxth	fp, r0
 747              	.LVL82:
 748              		.loc 1 138 0
 749 044e 1CB2     		sxth	r4, r3
 750              	.LVL83:
 751 0450 69E6     		b	.L60
 752              	.LVL84:
 753              	.L84:
 754              		.loc 1 157 0
 755 0452 0799     		ldr	r1, [sp, #28]
 756              		.loc 1 158 0
 757 0454 E819     		adds	r0, r5, r7
 758              		.loc 1 157 0
 759 0456 8A44     		add	sl, r1, sl
 760              	.LVL85:
 761 0458 1FFA8AFA 		uxth	sl, sl
 762              		.loc 1 158 0
 763 045c 05B2     		sxth	r5, r0
 764              	.LVL86:
 765 045e 39E7     		b	.L68
 766              	.LVL87:
 767              	.L71:
 768              		.loc 1 157 0
 769 0460 0798     		ldr	r0, [sp, #28]
 770              		.loc 1 158 0
 771 0462 EB19     		adds	r3, r5, r7
 772              		.loc 1 157 0
 773 0464 00EB0A02 		add	r2, r0, sl
 774 0468 1FFA82FA 		uxth	sl, r2
 775              		.loc 1 158 0
 776 046c 1DB2     		sxth	r5, r3
 777 046e 5CE7     		b	.L72
 778              	.L85:
 779              		.loc 1 151 0
 780 0470 9946     		mov	r9, r3
 781 0472 4CE7     		b	.L70
 782              	.LVL88:
 783              	.L63:
 784              		.loc 1 137 0
 785 0474 079A     		ldr	r2, [sp, #28]
 786 0476 02EB0B01 		add	r1, r2, fp
 787              		.loc 1 138 0
 788 047a DDF818B0 		ldr	fp, [sp, #24]
 789 047e 04EB0B03 		add	r3, r4, fp
 790 0482 1CB2     		sxth	r4, r3
 791              		.loc 1 137 0
 792 0484 1FFA81FB 		uxth	fp, r1
 793 0488 77E6     		b	.L64
 794              	.L83:
 795              		.loc 1 131 0
 796 048a 9946     		mov	r9, r3
 797 048c 67E6     		b	.L62
 798              		.cfi_endproc
ARM GAS  /tmp/ccBoO2Yd.s 			page 15


 799              	.LFE119:
 800              		.size	lineto, .-lineto
 801 048e 00BF     		.section	.text.pointto,"ax",%progbits
 802              		.align	2
 803              		.p2align 4,,15
 804              		.thumb
 805              		.thumb_func
 806              		.type	pointto, %function
 807              	pointto:
 808              	.LFB118:
 809              		.loc 1 40 0
 810              		.cfi_startproc
 811              		@ args = 0, pretend = 0, frame = 0
 812              		@ frame_needed = 0, uses_anonymous_args = 0
 813              	.LVL89:
 814 0000 2DE9F041 		push	{r4, r5, r6, r7, r8, lr}
 815              	.LCFI2:
 816              		.cfi_def_cfa_offset 24
 817              		.cfi_offset 4, -24
 818              		.cfi_offset 5, -20
 819              		.cfi_offset 6, -16
 820              		.cfi_offset 7, -12
 821              		.cfi_offset 8, -8
 822              		.cfi_offset 14, -4
 823              		.loc 1 41 0
 824 0004 1C78     		ldrb	r4, [r3, #0]	@ zero_extendqisi2
 825              		.loc 1 40 0
 826 0006 82B0     		sub	sp, sp, #8
 827              	.LCFI3:
 828              		.cfi_def_cfa_offset 32
 829              		.loc 1 41 0
 830 0008 002C     		cmp	r4, #0
 831 000a 2BD0     		beq	.L86
 832              		.loc 1 46 0
 833 000c B0F80A80 		ldrh	r8, [r0, #10]
 834 0010 C589     		ldrh	r5, [r0, #14]
 835              		.loc 1 45 0
 836 0012 B0F846C0 		ldrh	ip, [r0, #70]
 837 0016 0689     		ldrh	r6, [r0, #8]
 838              		.loc 1 46 0
 839 0018 B0F84800 		ldrh	r0, [r0, #72]
 840              	.LVL90:
 841              		.loc 1 48 0
 842 001c 5F88     		ldrh	r7, [r3, #2]
 843              		.loc 1 46 0
 844 001e 4544     		add	r5, r8, r5
 845 0020 013D     		subs	r5, r5, #1
 846 0022 281A     		subs	r0, r5, r0
 847 0024 821A     		subs	r2, r0, r2
 848              	.LVL91:
 849              		.loc 1 45 0
 850 0026 6644     		add	r6, ip, r6
 851 0028 7118     		adds	r1, r6, r1
 852              	.LVL92:
 853              		.loc 1 46 0
 854 002a 95B2     		uxth	r5, r2
 855              		.loc 1 48 0
ARM GAS  /tmp/ccBoO2Yd.s 			page 16


 856 002c 3AB2     		sxth	r2, r7
 857              		.loc 1 45 0
 858 002e 8EB2     		uxth	r6, r1
 859              		.loc 1 48 0
 860 0030 012A     		cmp	r2, #1
 861              		.loc 1 45 0
 862 0032 30B2     		sxth	r0, r6
 863              	.LVL93:
 864              		.loc 1 46 0
 865 0034 29B2     		sxth	r1, r5
 866              	.LVL94:
 867              		.loc 1 48 0
 868 0036 03DD     		ble	.L95
 869              		.loc 1 53 0
 870 0038 022C     		cmp	r4, #2
 871 003a 07D0     		beq	.L90
 872 003c 032C     		cmp	r4, #3
 873 003e 14D0     		beq	.L96
 874              	.L95:
 875              		.loc 1 64 0
 876 0040 9A88     		ldrh	r2, [r3, #4]
 877              		.loc 1 67 0
 878 0042 02B0     		add	sp, sp, #8
 879 0044 BDE8F041 		pop	{r4, r5, r6, r7, r8, lr}
 880              		.loc 1 64 0
 881 0048 FFF7FEBF 		b	gdispDrawPixel
 882              	.LVL95:
 883              	.L90:
 884              		.loc 1 55 0
 885 004c BFB2     		uxth	r7, r7
 886 004e 7800     		lsls	r0, r7, #1
 887 0050 9B88     		ldrh	r3, [r3, #4]
 888              	.LVL96:
 889 0052 02B2     		sxth	r2, r0
 890 0054 E91B     		subs	r1, r5, r7
 891 0056 F01B     		subs	r0, r6, r7
 892 0058 0093     		str	r3, [sp, #0]
 893 005a 00B2     		sxth	r0, r0
 894 005c 09B2     		sxth	r1, r1
 895 005e 1346     		mov	r3, r2
 896 0060 FFF7FEFF 		bl	gdispDrawBox
 897              	.LVL97:
 898              	.L86:
 899              		.loc 1 67 0
 900 0064 02B0     		add	sp, sp, #8
 901 0066 BDE8F081 		pop	{r4, r5, r6, r7, r8, pc}
 902              	.LVL98:
 903              	.L96:
 904              		.loc 1 59 0
 905 006a 9B88     		ldrh	r3, [r3, #4]
 906              	.LVL99:
 907              		.loc 1 67 0
 908 006c 02B0     		add	sp, sp, #8
 909 006e BDE8F041 		pop	{r4, r5, r6, r7, r8, lr}
 910              		.loc 1 59 0
 911 0072 FFF7FEBF 		b	gdispDrawCircle
 912              	.LVL100:
ARM GAS  /tmp/ccBoO2Yd.s 			page 17


 913              		.cfi_endproc
 914              	.LFE118:
 915              		.size	pointto, .-pointto
 916 0076 00BFAFF3 		.section	.text.gwinGraphSetStyle,"ax",%progbits
 916      0080AFF3 
 916      0080
 917              		.align	2
 918              		.p2align 4,,15
 919              		.global	gwinGraphSetStyle
 920              		.thumb
 921              		.thumb_func
 922              		.type	gwinGraphSetStyle, %function
 923              	gwinGraphSetStyle:
 924              	.LFB121:
 925              		.loc 1 178 0
 926              		.cfi_startproc
 927              		@ args = 0, pretend = 0, frame = 0
 928              		@ frame_needed = 0, uses_anonymous_args = 0
 929              		@ link register save eliminated.
 930              	.LVL101:
 931 0000 0346     		mov	r3, r0
 932 0002 0A46     		mov	r2, r1
 933              		.loc 1 181 0
 934 0004 4068     		ldr	r0, [r0, #4]
 935              	.LVL102:
 936 0006 1949     		ldr	r1, .L100
 937              	.LVL103:
 938 0008 8842     		cmp	r0, r1
 939              		.loc 1 178 0
 940 000a 2DE9F001 		push	{r4, r5, r6, r7, r8}
 941              	.LCFI4:
 942              		.cfi_def_cfa_offset 20
 943              		.cfi_offset 4, -20
 944              		.cfi_offset 5, -16
 945              		.cfi_offset 6, -12
 946              		.cfi_offset 7, -8
 947              		.cfi_offset 8, -4
 948              		.loc 1 181 0
 949 000e 02D0     		beq	.L99
 950              	.LVL104:
 951              	.L97:
 952              		.loc 1 193 0
 953 0010 BDE8F001 		pop	{r4, r5, r6, r7, r8}
 954 0014 7047     		bx	lr
 955              	.LVL105:
 956              	.L99:
 957              		.loc 1 186 0
 958 0016 1646     		mov	r6, r2
 959              		.loc 1 184 0
 960 0018 1468     		ldr	r4, [r2, #0]	@ unaligned
 961              		.loc 1 186 0
 962 001a 56F80C0F 		ldr	r0, [r6, #12]!	@ unaligned
 963              		.loc 1 184 0
 964 001e DC61     		str	r4, [r3, #28]	@ unaligned
 965              		.loc 1 188 0
 966 0020 1146     		mov	r1, r2
 967              		.loc 1 184 0
ARM GAS  /tmp/ccBoO2Yd.s 			page 18


 968 0022 9588     		ldrh	r5, [r2, #4]	@ unaligned
 969              		.loc 1 186 0
 970 0024 9862     		str	r0, [r3, #40]	@ unaligned
 971              		.loc 1 188 0
 972 0026 51F8180F 		ldr	r0, [r1, #24]!	@ unaligned
 973              		.loc 1 184 0
 974 002a 1D84     		strh	r5, [r3, #32]	@ unaligned
 975              		.loc 1 188 0
 976 002c 4968     		ldr	r1, [r1, #4]	@ unaligned
 977              		.loc 1 186 0
 978 002e B6F804C0 		ldrh	ip, [r6, #4]	@ unaligned
 979              		.loc 1 190 0
 980 0032 178D     		ldrh	r7, [r2, #40]
 981              		.loc 1 186 0
 982 0034 A3F82CC0 		strh	ip, [r3, #44]	@ unaligned
 983              		.loc 1 185 0
 984 0038 1546     		mov	r5, r2
 985              		.loc 1 189 0
 986 003a 1646     		mov	r6, r2
 987              		.loc 1 188 0
 988 003c 03F13404 		add	r4, r3, #52
 989 0040 03C4     		stmia	r4!, {r0, r1}
 990              		.loc 1 185 0
 991 0042 55F8068F 		ldr	r8, [r5, #6]!	@ unaligned
 992              		.loc 1 187 0
 993 0046 52F8124F 		ldr	r4, [r2, #18]!	@ unaligned
 994              	.LVL106:
 995              		.loc 1 189 0
 996 004a 56F8200F 		ldr	r0, [r6, #32]!	@ unaligned
 997              	.LVL107:
 998              		.loc 1 187 0
 999 004e C3F82E40 		str	r4, [r3, #46]	@ unaligned
 1000              		.loc 1 185 0
 1001 0052 C3F82280 		str	r8, [r3, #34]	@ unaligned
 1002              		.loc 1 189 0
 1003 0056 7168     		ldr	r1, [r6, #4]	@ unaligned
 1004              		.loc 1 185 0
 1005 0058 AD88     		ldrh	r5, [r5, #4]	@ unaligned
 1006              		.loc 1 187 0
 1007 005a 9288     		ldrh	r2, [r2, #4]	@ unaligned
 1008              		.loc 1 185 0
 1009 005c DD84     		strh	r5, [r3, #38]	@ unaligned
 1010              		.loc 1 189 0
 1011 005e 03F13C04 		add	r4, r3, #60
 1012 0062 03C4     		stmia	r4!, {r0, r1}
 1013              		.loc 1 187 0
 1014 0064 5A86     		strh	r2, [r3, #50]	@ unaligned
 1015              		.loc 1 190 0
 1016 0066 A3F84470 		strh	r7, [r3, #68]	@ movhi
 1017 006a D1E7     		b	.L97
 1018              	.L101:
 1019              		.align	2
 1020              	.L100:
 1021 006c 00000000 		.word	.LANCHOR0
 1022              		.cfi_endproc
 1023              	.LFE121:
 1024              		.size	gwinGraphSetStyle, .-gwinGraphSetStyle
ARM GAS  /tmp/ccBoO2Yd.s 			page 19


 1025              		.section	.text.gwinGraphCreate,"ax",%progbits
 1026              		.align	2
 1027              		.p2align 4,,15
 1028              		.global	gwinGraphCreate
 1029              		.thumb
 1030              		.thumb_func
 1031              		.type	gwinGraphCreate, %function
 1032              	gwinGraphCreate:
 1033              	.LFB120:
 1034              		.loc 1 168 0
 1035              		.cfi_startproc
 1036              		@ args = 0, pretend = 0, frame = 0
 1037              		@ frame_needed = 0, uses_anonymous_args = 0
 1038              	.LVL108:
 1039 0000 38B5     		push	{r3, r4, r5, lr}
 1040              	.LCFI5:
 1041              		.cfi_def_cfa_offset 16
 1042              		.cfi_offset 3, -16
 1043              		.cfi_offset 4, -12
 1044              		.cfi_offset 5, -8
 1045              		.cfi_offset 14, -4
 1046              		.loc 1 169 0
 1047 0002 0C4A     		ldr	r2, .L107
 1048 0004 0023     		movs	r3, #0
 1049              		.loc 1 168 0
 1050 0006 0D46     		mov	r5, r1
 1051              		.loc 1 169 0
 1052 0008 FFF7FEFF 		bl	_gwindowCreate
 1053              	.LVL109:
 1054 000c 0446     		mov	r4, r0
 1055 000e 78B1     		cbz	r0, .L103
 1056              		.loc 1 171 0
 1057 0010 0023     		movs	r3, #0
 1058              		.loc 1 173 0
 1059 0012 0949     		ldr	r1, .L107+4
 1060              		.loc 1 171 0
 1061 0014 A0F84830 		strh	r3, [r0, #72]	@ movhi
 1062 0018 A0F84630 		strh	r3, [r0, #70]	@ movhi
 1063              		.loc 1 172 0
 1064 001c A0F84C30 		strh	r3, [r0, #76]	@ movhi
 1065 0020 A0F84A30 		strh	r3, [r0, #74]	@ movhi
 1066              		.loc 1 173 0
 1067 0024 FFF7FEFF 		bl	gwinGraphSetStyle
 1068              	.LVL110:
 1069              		.loc 1 174 0
 1070 0028 2046     		mov	r0, r4
 1071 002a 297A     		ldrb	r1, [r5, #8]	@ zero_extendqisi2
 1072 002c FFF7FEFF 		bl	gwinSetVisible
 1073              	.LVL111:
 1074              	.L103:
 1075              		.loc 1 176 0
 1076 0030 2046     		mov	r0, r4
 1077 0032 38BD     		pop	{r3, r4, r5, pc}
 1078              	.L108:
 1079              		.align	2
 1080              	.L107:
 1081 0034 00000000 		.word	.LANCHOR0
ARM GAS  /tmp/ccBoO2Yd.s 			page 20


 1082 0038 00000000 		.word	.LANCHOR1
 1083              		.cfi_endproc
 1084              	.LFE120:
 1085              		.size	gwinGraphCreate, .-gwinGraphCreate
 1086 003c AFF30080 		.section	.text.gwinGraphSetOrigin,"ax",%progbits
 1087              		.align	2
 1088              		.p2align 4,,15
 1089              		.global	gwinGraphSetOrigin
 1090              		.thumb
 1091              		.thumb_func
 1092              		.type	gwinGraphSetOrigin, %function
 1093              	gwinGraphSetOrigin:
 1094              	.LFB122:
 1095              		.loc 1 195 0
 1096              		.cfi_startproc
 1097              		@ args = 0, pretend = 0, frame = 0
 1098              		@ frame_needed = 0, uses_anonymous_args = 0
 1099              		@ link register save eliminated.
 1100              	.LVL112:
 1101 0000 10B4     		push	{r4}
 1102              	.LCFI6:
 1103              		.cfi_def_cfa_offset 4
 1104              		.cfi_offset 4, -4
 1105              		.loc 1 198 0
 1106 0002 4368     		ldr	r3, [r0, #4]
 1107 0004 044C     		ldr	r4, .L111
 1108 0006 A342     		cmp	r3, r4
 1109              		.loc 1 201 0
 1110 0008 04BF     		itt	eq
 1111 000a A0F84610 		strheq	r1, [r0, #70]	@ movhi
 1112              		.loc 1 202 0
 1113 000e A0F84820 		strheq	r2, [r0, #72]	@ movhi
 1114              		.loc 1 205 0
 1115 0012 10BC     		pop	{r4}
 1116 0014 7047     		bx	lr
 1117              	.L112:
 1118 0016 00BF     		.align	2
 1119              	.L111:
 1120 0018 00000000 		.word	.LANCHOR0
 1121              		.cfi_endproc
 1122              	.LFE122:
 1123              		.size	gwinGraphSetOrigin, .-gwinGraphSetOrigin
 1124 001c AFF30080 		.section	.text.gwinGraphDrawAxis,"ax",%progbits
 1125              		.align	2
 1126              		.p2align 4,,15
 1127              		.global	gwinGraphDrawAxis
 1128              		.thumb
 1129              		.thumb_func
 1130              		.type	gwinGraphDrawAxis, %function
 1131              	gwinGraphDrawAxis:
 1132              	.LFB123:
 1133              		.loc 1 207 0
 1134              		.cfi_startproc
 1135              		@ args = 0, pretend = 0, frame = 24
 1136              		@ frame_needed = 0, uses_anonymous_args = 0
 1137              	.LVL113:
 1138 0000 2DE9F04F 		push	{r4, r5, r6, r7, r8, r9, sl, fp, lr}
ARM GAS  /tmp/ccBoO2Yd.s 			page 21


 1139              	.LCFI7:
 1140              		.cfi_def_cfa_offset 36
 1141              		.cfi_offset 4, -36
 1142              		.cfi_offset 5, -32
 1143              		.cfi_offset 6, -28
 1144              		.cfi_offset 7, -24
 1145              		.cfi_offset 8, -20
 1146              		.cfi_offset 9, -16
 1147              		.cfi_offset 10, -12
 1148              		.cfi_offset 11, -8
 1149              		.cfi_offset 14, -4
 1150              		.loc 1 211 0
 1151 0004 4368     		ldr	r3, [r0, #4]
 1152 0006 A94A     		ldr	r2, .L157
 1153 0008 9342     		cmp	r3, r2
 1154              		.loc 1 207 0
 1155 000a 89B0     		sub	sp, sp, #36
 1156              	.LCFI8:
 1157              		.cfi_def_cfa_offset 72
 1158              		.loc 1 207 0
 1159 000c 0446     		mov	r4, r0
 1160              		.loc 1 211 0
 1161 000e 02D0     		beq	.L152
 1162              	.LVL114:
 1163              	.L113:
 1164              		.loc 1 266 0
 1165 0010 09B0     		add	sp, sp, #36
 1166 0012 BDE8F08F 		pop	{r4, r5, r6, r7, r8, r9, sl, fp, pc}
 1167              	.LVL115:
 1168              	.L152:
 1169              		.loc 1 214 0
 1170 0016 B0F846B0 		ldrh	fp, [r0, #70]
 1171              		.loc 1 216 0
 1172 001a B0F848A0 		ldrh	sl, [r0, #72]
 1173              		.loc 1 215 0
 1174 001e 8189     		ldrh	r1, [r0, #12]
 1175              		.loc 1 217 0
 1176 0020 C089     		ldrh	r0, [r0, #14]
 1177              	.LVL116:
 1178              		.loc 1 220 0
 1179 0022 94F83430 		ldrb	r3, [r4, #52]	@ zero_extendqisi2
 1180              		.loc 1 215 0
 1181 0026 CBEB0105 		rsb	r5, fp, r1
 1182              		.loc 1 217 0
 1183 002a CAEB0006 		rsb	r6, sl, r0
 1184              		.loc 1 215 0
 1185 002e AFB2     		uxth	r7, r5
 1186              		.loc 1 217 0
 1187 0030 B2B2     		uxth	r2, r6
 1188              		.loc 1 215 0
 1189 0032 791E     		subs	r1, r7, #1
 1190              		.loc 1 217 0
 1191 0034 501E     		subs	r0, r2, #1
 1192              		.loc 1 214 0
 1193 0036 CBF10008 		rsb	r8, fp, #0
 1194              		.loc 1 215 0
 1195 003a 8DB2     		uxth	r5, r1
ARM GAS  /tmp/ccBoO2Yd.s 			page 22


 1196              		.loc 1 217 0
 1197 003c 0692     		str	r2, [sp, #24]
 1198              		.loc 1 216 0
 1199 003e CAF10006 		rsb	r6, sl, #0
 1200              		.loc 1 217 0
 1201 0042 82B2     		uxth	r2, r0
 1202              		.loc 1 214 0
 1203 0044 1FFA88F9 		uxth	r9, r8
 1204              		.loc 1 215 0
 1205 0048 0797     		str	r7, [sp, #28]
 1206 004a 0595     		str	r5, [sp, #20]
 1207 004c AFB2     		uxth	r7, r5
 1208              		.loc 1 217 0
 1209 004e 0492     		str	r2, [sp, #16]
 1210              		.loc 1 214 0
 1211 0050 CDF80C90 		str	r9, [sp, #12]
 1212              	.LVL117:
 1213              		.loc 1 216 0
 1214 0054 B0B2     		uxth	r0, r6
 1215              	.LVL118:
 1216              		.loc 1 217 0
 1217 0056 95B2     		uxth	r5, r2
 1218              	.LVL119:
 1219              		.loc 1 220 0
 1220 0058 002B     		cmp	r3, #0
 1221 005a 40F0A480 		bne	.L116
 1222 005e 3BB2     		sxth	r3, r7
 1223 0060 0293     		str	r3, [sp, #8]
 1224 0062 06B2     		sxth	r6, r0
 1225              	.LVL120:
 1226 0064 2DB2     		sxth	r5, r5
 1227 0066 0FFA89F8 		sxth	r8, r9
 1228              	.LVL121:
 1229              	.L119:
 1230              		.loc 1 228 0
 1231 006a 94F83C20 		ldrb	r2, [r4, #60]	@ zero_extendqisi2
 1232 006e 002A     		cmp	r2, #0
 1233 0070 44D0     		beq	.L118
 1234              		.loc 1 228 0 is_stmt 0 discriminator 1
 1235 0072 B4F84290 		ldrh	r9, [r4, #66]
 1236 0076 0FFA89F2 		sxth	r2, r9
 1237 007a 012A     		cmp	r2, #1
 1238 007c 3EDD     		ble	.L118
 1239              	.LVL122:
 1240              		.loc 1 229 0 is_stmt 1 discriminator 1
 1241 007e 9542     		cmp	r5, r2
 1242 0080 C0F23D81 		blt	.L151
 1243 0084 04F13C0E 		add	lr, r4, #60
 1244 0088 029F     		ldr	r7, [sp, #8]
 1245 008a 0396     		str	r6, [sp, #12]
 1246 008c 2646     		mov	r6, r4
 1247 008e 7446     		mov	r4, lr
 1248              	.LVL123:
 1249              	.L128:
 1250              		.loc 1 230 0 discriminator 2
 1251 0090 8DE81400 		stmia	sp, {r2, r4}
 1252 0094 3046     		mov	r0, r6
ARM GAS  /tmp/ccBoO2Yd.s 			page 23


 1253 0096 3B46     		mov	r3, r7
 1254 0098 4146     		mov	r1, r8
 1255 009a FFF7FEFF 		bl	lineto
 1256              	.LVL124:
 1257              		.loc 1 229 0 discriminator 2
 1258 009e B6F84200 		ldrh	r0, [r6, #66]
 1259 00a2 00EB0903 		add	r3, r0, r9
 1260 00a6 1FFA83F9 		uxth	r9, r3
 1261              	.LVL125:
 1262 00aa 0FFA89F2 		sxth	r2, r9
 1263 00ae 9542     		cmp	r5, r2
 1264 00b0 EEDA     		bge	.L128
 1265 00b2 3446     		mov	r4, r6
 1266 00b4 039E     		ldr	r6, [sp, #12]
 1267              	.LVL126:
 1268 00b6 0297     		str	r7, [sp, #8]
 1269              	.LVL127:
 1270              	.L127:
 1271              		.loc 1 231 0
 1272 00b8 C0F1000C 		rsb	ip, r0, #0
 1273 00bc 1FFA8CF9 		uxth	r9, ip
 1274              	.LVL128:
 1275 00c0 0FFA89F2 		sxth	r2, r9
 1276 00c4 9642     		cmp	r6, r2
 1277 00c6 19DC     		bgt	.L118
 1278 00c8 04F13C01 		add	r1, r4, #60
 1279 00cc 029F     		ldr	r7, [sp, #8]
 1280 00ce 0395     		str	r5, [sp, #12]
 1281 00d0 2546     		mov	r5, r4
 1282 00d2 0C46     		mov	r4, r1
 1283              	.LVL129:
 1284              	.L129:
 1285              		.loc 1 232 0 discriminator 2
 1286 00d4 8DE81400 		stmia	sp, {r2, r4}
 1287 00d8 2846     		mov	r0, r5
 1288 00da 4146     		mov	r1, r8
 1289 00dc 3B46     		mov	r3, r7
 1290 00de FFF7FEFF 		bl	lineto
 1291              	.LVL130:
 1292              		.loc 1 231 0 discriminator 2
 1293 00e2 B5F84220 		ldrh	r2, [r5, #66]
 1294 00e6 C2EB0900 		rsb	r0, r2, r9
 1295 00ea 1FFA80F9 		uxth	r9, r0
 1296              	.LVL131:
 1297 00ee 0FFA89F2 		sxth	r2, r9
 1298 00f2 9642     		cmp	r6, r2
 1299 00f4 EEDD     		ble	.L129
 1300 00f6 2C46     		mov	r4, r5
 1301 00f8 039D     		ldr	r5, [sp, #12]
 1302              	.LVL132:
 1303 00fa 0297     		str	r7, [sp, #8]
 1304              	.LVL133:
 1305              	.L118:
 1306              		.loc 1 236 0
 1307 00fc 04F12803 		add	r3, r4, #40
 1308 0100 4FF00009 		mov	r9, #0
 1309 0104 0393     		str	r3, [sp, #12]
ARM GAS  /tmp/ccBoO2Yd.s 			page 24


 1310 0106 0193     		str	r3, [sp, #4]
 1311 0108 4146     		mov	r1, r8
 1312 010a 029B     		ldr	r3, [sp, #8]
 1313 010c CDF80090 		str	r9, [sp, #0]
 1314 0110 2046     		mov	r0, r4
 1315 0112 4A46     		mov	r2, r9
 1316 0114 FFF7FEFF 		bl	lineto
 1317              	.LVL134:
 1318              		.loc 1 237 0
 1319 0118 B4F84430 		ldrh	r3, [r4, #68]
 1320 011c 03F00201 		and	r1, r3, #2
 1321 0120 8FB2     		uxth	r7, r1
 1322 0122 2FB1     		cbz	r7, .L125
 1323              		.loc 1 238 0
 1324 0124 CBF10602 		rsb	r2, fp, #6
 1325 0128 90B2     		uxth	r0, r2
 1326 012a 0628     		cmp	r0, #6
 1327 012c 00F28680 		bhi	.L153
 1328              	.L125:
 1329              		.loc 1 243 0
 1330 0130 D907     		lsls	r1, r3, #31
 1331 0132 03D5     		bpl	.L130
 1332              		.loc 1 244 0
 1333 0134 0599     		ldr	r1, [sp, #20]
 1334 0136 0629     		cmp	r1, #6
 1335 0138 00F2BA80 		bhi	.L154
 1336              	.L130:
 1337              		.loc 1 251 0
 1338 013c 0021     		movs	r1, #0
 1339 013e 04F12E07 		add	r7, r4, #46
 1340 0142 2046     		mov	r0, r4
 1341 0144 3246     		mov	r2, r6
 1342 0146 0B46     		mov	r3, r1
 1343 0148 8DE8A000 		stmia	sp, {r5, r7}
 1344 014c FFF7FEFF 		bl	lineto
 1345              	.LVL135:
 1346              		.loc 1 252 0
 1347 0150 B4F84430 		ldrh	r3, [r4, #68]
 1348 0154 03F00802 		and	r2, r3, #8
 1349 0158 90B2     		uxth	r0, r2
 1350 015a 28B1     		cbz	r0, .L131
 1351              		.loc 1 253 0
 1352 015c CAF10601 		rsb	r1, sl, #6
 1353 0160 8AB2     		uxth	r2, r1
 1354 0162 062A     		cmp	r2, #6
 1355 0164 00F28780 		bhi	.L155
 1356              	.LVL136:
 1357              	.L131:
 1358              		.loc 1 258 0
 1359 0168 03F00400 		and	r0, r3, #4
 1360 016c 81B2     		uxth	r1, r0
 1361 016e 0029     		cmp	r1, #0
 1362 0170 3FF44EAF 		beq	.L113
 1363              		.loc 1 259 0
 1364 0174 049A     		ldr	r2, [sp, #16]
 1365 0176 062A     		cmp	r2, #6
 1366 0178 7FF64AAF 		bls	.L113
ARM GAS  /tmp/ccBoO2Yd.s 			page 25


 1367              		.loc 1 260 0
 1368 017c 069E     		ldr	r6, [sp, #24]
 1369 017e B31F     		subs	r3, r6, #6
 1370 0180 1EB2     		sxth	r6, r3
 1371 0182 2046     		mov	r0, r4
 1372 0184 0021     		movs	r1, #0
 1373 0186 2A46     		mov	r2, r5
 1374 0188 0523     		movs	r3, #5
 1375 018a 8DE8C000 		stmia	sp, {r6, r7}
 1376 018e FFF7FEFF 		bl	lineto
 1377              	.LVL137:
 1378              		.loc 1 261 0
 1379 0192 8DE8C000 		stmia	sp, {r6, r7}
 1380 0196 2046     		mov	r0, r4
 1381 0198 0021     		movs	r1, #0
 1382 019a 2A46     		mov	r2, r5
 1383 019c 6FF00403 		mvn	r3, #4
 1384 01a0 FFF7FEFF 		bl	lineto
 1385              	.LVL138:
 1386 01a4 34E7     		b	.L113
 1387              	.LVL139:
 1388              	.L116:
 1389              		.loc 1 220 0 discriminator 1
 1390 01a6 B4F83A80 		ldrh	r8, [r4, #58]
 1391 01aa 0FFA88F1 		sxth	r1, r8
 1392              		.loc 1 221 0 discriminator 1
 1393 01ae 3FB2     		sxth	r7, r7
 1394              		.loc 1 220 0 discriminator 1
 1395 01b0 0129     		cmp	r1, #1
 1396              		.loc 1 221 0 discriminator 1
 1397 01b2 0297     		str	r7, [sp, #8]
 1398              		.loc 1 220 0 discriminator 1
 1399 01b4 40F39880 		ble	.L156
 1400              	.LVL140:
 1401              		.loc 1 221 0 discriminator 1
 1402 01b8 8F42     		cmp	r7, r1
 1403 01ba C0F29B80 		blt	.L150
 1404 01be 04F13402 		add	r2, r4, #52
 1405              	.LVL141:
 1406 01c2 A146     		mov	r9, r4
 1407 01c4 06B2     		sxth	r6, r0
 1408              	.LVL142:
 1409 01c6 2DB2     		sxth	r5, r5
 1410              	.LVL143:
 1411 01c8 1446     		mov	r4, r2
 1412              	.LVL144:
 1413              	.L122:
 1414              		.loc 1 222 0 discriminator 2
 1415 01ca 0B46     		mov	r3, r1
 1416 01cc 0095     		str	r5, [sp, #0]
 1417 01ce 0194     		str	r4, [sp, #4]
 1418 01d0 4846     		mov	r0, r9
 1419 01d2 3246     		mov	r2, r6
 1420 01d4 FFF7FEFF 		bl	lineto
 1421              	.LVL145:
 1422              		.loc 1 221 0 discriminator 2
 1423 01d8 B9F83A30 		ldrh	r3, [r9, #58]
ARM GAS  /tmp/ccBoO2Yd.s 			page 26


 1424 01dc 03EB080C 		add	ip, r3, r8
 1425 01e0 1FFA8CF8 		uxth	r8, ip
 1426              	.LVL146:
 1427 01e4 0FFA88F1 		sxth	r1, r8
 1428 01e8 8F42     		cmp	r7, r1
 1429 01ea EEDA     		bge	.L122
 1430 01ec 4C46     		mov	r4, r9
 1431 01ee 0297     		str	r7, [sp, #8]
 1432              	.LVL147:
 1433              	.L121:
 1434              		.loc 1 223 0
 1435 01f0 0399     		ldr	r1, [sp, #12]
 1436 01f2 C3F10007 		rsb	r7, r3, #0
 1437 01f6 1FFA87F9 		uxth	r9, r7
 1438              	.LVL148:
 1439 01fa 0FFA81F8 		sxth	r8, r1
 1440 01fe 0FFA89F1 		sxth	r1, r9
 1441 0202 8845     		cmp	r8, r1
 1442 0204 3FF731AF 		bgt	.L119
 1443 0208 0298     		ldr	r0, [sp, #8]
 1444 020a 04F13402 		add	r2, r4, #52
 1445 020e 2746     		mov	r7, r4
 1446              	.LVL149:
 1447 0210 0390     		str	r0, [sp, #12]
 1448 0212 1446     		mov	r4, r2
 1449              	.LVL150:
 1450              	.L123:
 1451              		.loc 1 224 0 discriminator 2
 1452 0214 0B46     		mov	r3, r1
 1453 0216 0095     		str	r5, [sp, #0]
 1454 0218 0194     		str	r4, [sp, #4]
 1455 021a 3846     		mov	r0, r7
 1456 021c 3246     		mov	r2, r6
 1457 021e FFF7FEFF 		bl	lineto
 1458              	.LVL151:
 1459              		.loc 1 223 0 discriminator 2
 1460 0222 7B8F     		ldrh	r3, [r7, #58]
 1461 0224 C3EB0909 		rsb	r9, r3, r9
 1462 0228 1FFA89F9 		uxth	r9, r9
 1463              	.LVL152:
 1464 022c 0FFA89F1 		sxth	r1, r9
 1465 0230 8845     		cmp	r8, r1
 1466 0232 EFDD     		ble	.L123
 1467 0234 0399     		ldr	r1, [sp, #12]
 1468 0236 3C46     		mov	r4, r7
 1469 0238 0291     		str	r1, [sp, #8]
 1470 023a 16E7     		b	.L119
 1471              	.LVL153:
 1472              	.L153:
 1473              		.loc 1 239 0
 1474 023c 039F     		ldr	r7, [sp, #12]
 1475 023e CBF1050B 		rsb	fp, fp, #5
 1476 0242 4FF0050E 		mov	lr, #5
 1477 0246 0FFA8BFB 		sxth	fp, fp
 1478 024a 2046     		mov	r0, r4
 1479 024c 4146     		mov	r1, r8
 1480 024e 4A46     		mov	r2, r9
ARM GAS  /tmp/ccBoO2Yd.s 			page 27


 1481 0250 5B46     		mov	r3, fp
 1482 0252 CDF800E0 		str	lr, [sp, #0]
 1483 0256 0197     		str	r7, [sp, #4]
 1484 0258 FFF7FEFF 		bl	lineto
 1485              	.LVL154:
 1486              		.loc 1 240 0
 1487 025c 6FF00403 		mvn	r3, #4
 1488 0260 8DE88800 		stmia	sp, {r3, r7}
 1489 0264 2046     		mov	r0, r4
 1490 0266 5B46     		mov	r3, fp
 1491 0268 4146     		mov	r1, r8
 1492 026a 4A46     		mov	r2, r9
 1493 026c FFF7FEFF 		bl	lineto
 1494              	.LVL155:
 1495 0270 B4F84430 		ldrh	r3, [r4, #68]
 1496 0274 5CE7     		b	.L125
 1497              	.L155:
 1498              		.loc 1 254 0
 1499 0276 CAF1050A 		rsb	sl, sl, #5
 1500              	.LVL156:
 1501 027a 0FFA8AFA 		sxth	sl, sl
 1502 027e 2046     		mov	r0, r4
 1503 0280 0021     		movs	r1, #0
 1504 0282 3246     		mov	r2, r6
 1505 0284 0523     		movs	r3, #5
 1506 0286 CDF800A0 		str	sl, [sp, #0]
 1507 028a 0197     		str	r7, [sp, #4]
 1508 028c FFF7FEFF 		bl	lineto
 1509              	.LVL157:
 1510              		.loc 1 255 0
 1511 0290 6FF00403 		mvn	r3, #4
 1512 0294 CDF800A0 		str	sl, [sp, #0]
 1513 0298 0197     		str	r7, [sp, #4]
 1514 029a 2046     		mov	r0, r4
 1515 029c 0021     		movs	r1, #0
 1516 029e 3246     		mov	r2, r6
 1517 02a0 FFF7FEFF 		bl	lineto
 1518              	.LVL158:
 1519 02a4 B4F84430 		ldrh	r3, [r4, #68]
 1520 02a8 5EE7     		b	.L131
 1521              	.L158:
 1522 02aa 00BF     		.align	2
 1523              	.L157:
 1524 02ac 00000000 		.word	.LANCHOR0
 1525              	.LVL159:
 1526              	.L154:
 1527              		.loc 1 245 0
 1528 02b0 079F     		ldr	r7, [sp, #28]
 1529 02b2 0299     		ldr	r1, [sp, #8]
 1530 02b4 A7F10608 		sub	r8, r7, #6
 1531 02b8 039F     		ldr	r7, [sp, #12]
 1532 02ba 0FFA88F8 		sxth	r8, r8
 1533 02be 4FF0050C 		mov	ip, #5
 1534 02c2 2046     		mov	r0, r4
 1535 02c4 0022     		movs	r2, #0
 1536 02c6 4346     		mov	r3, r8
 1537 02c8 CDF800C0 		str	ip, [sp, #0]
ARM GAS  /tmp/ccBoO2Yd.s 			page 28


 1538 02cc 0197     		str	r7, [sp, #4]
 1539 02ce FFF7FEFF 		bl	lineto
 1540              	.LVL160:
 1541              		.loc 1 246 0
 1542 02d2 6FF00403 		mvn	r3, #4
 1543 02d6 8DE88800 		stmia	sp, {r3, r7}
 1544 02da 2046     		mov	r0, r4
 1545 02dc 0299     		ldr	r1, [sp, #8]
 1546 02de 0022     		movs	r2, #0
 1547 02e0 4346     		mov	r3, r8
 1548 02e2 FFF7FEFF 		bl	lineto
 1549              	.LVL161:
 1550 02e6 29E7     		b	.L130
 1551              	.LVL162:
 1552              	.L156:
 1553 02e8 0399     		ldr	r1, [sp, #12]
 1554 02ea 06B2     		sxth	r6, r0
 1555              	.LVL163:
 1556 02ec 2DB2     		sxth	r5, r5
 1557 02ee 0FFA81F8 		sxth	r8, r1
 1558 02f2 BAE6     		b	.L119
 1559              	.LVL164:
 1560              	.L150:
 1561 02f4 1FFA88F3 		uxth	r3, r8
 1562 02f8 06B2     		sxth	r6, r0
 1563              	.LVL165:
 1564 02fa 2DB2     		sxth	r5, r5
 1565 02fc 78E7     		b	.L121
 1566              	.LVL166:
 1567              	.L151:
 1568 02fe 1FFA89F0 		uxth	r0, r9
 1569 0302 D9E6     		b	.L127
 1570              		.cfi_endproc
 1571              	.LFE123:
 1572              		.size	gwinGraphDrawAxis, .-gwinGraphDrawAxis
 1573 0304 AFF30080 		.section	.text.gwinGraphStartSet,"ax",%progbits
 1573      AFF30080 
 1573      AFF30080 
 1574              		.align	2
 1575              		.p2align 4,,15
 1576              		.global	gwinGraphStartSet
 1577              		.thumb
 1578              		.thumb_func
 1579              		.type	gwinGraphStartSet, %function
 1580              	gwinGraphStartSet:
 1581              	.LFB124:
 1582              		.loc 1 268 0
 1583              		.cfi_startproc
 1584              		@ args = 0, pretend = 0, frame = 0
 1585              		@ frame_needed = 0, uses_anonymous_args = 0
 1586              		@ link register save eliminated.
 1587              	.LVL167:
 1588              		.loc 1 269 0
 1589 0000 4368     		ldr	r3, [r0, #4]
 1590 0002 044A     		ldr	r2, .L162
 1591 0004 9342     		cmp	r3, r2
 1592 0006 00D0     		beq	.L161
ARM GAS  /tmp/ccBoO2Yd.s 			page 29


 1593 0008 7047     		bx	lr
 1594              	.L161:
 1595              		.loc 1 272 0
 1596 000a 818A     		ldrh	r1, [r0, #20]
 1597 000c 21F48053 		bic	r3, r1, #4096
 1598 0010 8382     		strh	r3, [r0, #20]	@ movhi
 1599 0012 7047     		bx	lr
 1600              	.L163:
 1601              		.align	2
 1602              	.L162:
 1603 0014 00000000 		.word	.LANCHOR0
 1604              		.cfi_endproc
 1605              	.LFE124:
 1606              		.size	gwinGraphStartSet, .-gwinGraphStartSet
 1607 0018 AFF30080 		.section	.text.gwinGraphDrawPoint,"ax",%progbits
 1607      AFF30080 
 1608              		.align	2
 1609              		.p2align 4,,15
 1610              		.global	gwinGraphDrawPoint
 1611              		.thumb
 1612              		.thumb_func
 1613              		.type	gwinGraphDrawPoint, %function
 1614              	gwinGraphDrawPoint:
 1615              	.LFB125:
 1616              		.loc 1 275 0
 1617              		.cfi_startproc
 1618              		@ args = 0, pretend = 0, frame = 0
 1619              		@ frame_needed = 0, uses_anonymous_args = 0
 1620              	.LVL168:
 1621 0000 2DE9F041 		push	{r4, r5, r6, r7, r8, lr}
 1622              	.LCFI9:
 1623              		.cfi_def_cfa_offset 24
 1624              		.cfi_offset 4, -24
 1625              		.cfi_offset 5, -20
 1626              		.cfi_offset 6, -16
 1627              		.cfi_offset 7, -12
 1628              		.cfi_offset 8, -8
 1629              		.cfi_offset 14, -4
 1630              		.loc 1 278 0
 1631 0004 4568     		ldr	r5, [r0, #4]
 1632 0006 1B4E     		ldr	r6, .L170
 1633 0008 B542     		cmp	r5, r6
 1634              		.loc 1 275 0
 1635 000a 82B0     		sub	sp, sp, #8
 1636              	.LCFI10:
 1637              		.cfi_def_cfa_offset 32
 1638              		.loc 1 275 0
 1639 000c 0446     		mov	r4, r0
 1640 000e 8846     		mov	r8, r1
 1641 0010 1746     		mov	r7, r2
 1642              		.loc 1 278 0
 1643 0012 02D0     		beq	.L168
 1644              		.loc 1 299 0
 1645 0014 02B0     		add	sp, sp, #8
 1646 0016 BDE8F081 		pop	{r4, r5, r6, r7, r8, pc}
 1647              	.L168:
 1648              		.loc 1 281 0
ARM GAS  /tmp/ccBoO2Yd.s 			page 30


 1649 001a 838A     		ldrh	r3, [r0, #20]
 1650 001c 03F48052 		and	r2, r3, #4096
 1651              	.LVL169:
 1652 0020 91B2     		uxth	r1, r2
 1653              	.LVL170:
 1654 0022 89B9     		cbnz	r1, .L169
 1655              		.loc 1 289 0
 1656 0024 43F48050 		orr	r0, r3, #4096
 1657              	.LVL171:
 1658 0028 A082     		strh	r0, [r4, #20]	@ movhi
 1659 002a 04F11C05 		add	r5, r4, #28
 1660              	.L167:
 1661              		.loc 1 296 0
 1662 002e 2046     		mov	r0, r4
 1663 0030 4146     		mov	r1, r8
 1664 0032 3A46     		mov	r2, r7
 1665 0034 2B46     		mov	r3, r5
 1666              		.loc 1 292 0
 1667 0036 A4F84A80 		strh	r8, [r4, #74]	@ movhi
 1668              		.loc 1 293 0
 1669 003a A4F84C70 		strh	r7, [r4, #76]	@ movhi
 1670              		.loc 1 299 0
 1671 003e 02B0     		add	sp, sp, #8
 1672 0040 BDE8F041 		pop	{r4, r5, r6, r7, r8, lr}
 1673              		.loc 1 296 0
 1674 0044 FFF7FEBF 		b	pointto
 1675              	.LVL172:
 1676              	.L169:
 1677              		.loc 1 283 0
 1678 0048 00F12205 		add	r5, r0, #34
 1679 004c B0F94A10 		ldrsh	r1, [r0, #74]
 1680 0050 B0F94C20 		ldrsh	r2, [r0, #76]
 1681 0054 0195     		str	r5, [sp, #4]
 1682 0056 4346     		mov	r3, r8
 1683              		.loc 1 286 0
 1684 0058 00F11C05 		add	r5, r0, #28
 1685              		.loc 1 283 0
 1686 005c 0097     		str	r7, [sp, #0]
 1687 005e FFF7FEFF 		bl	lineto
 1688              	.LVL173:
 1689              		.loc 1 286 0
 1690 0062 2046     		mov	r0, r4
 1691 0064 B4F94A10 		ldrsh	r1, [r4, #74]
 1692 0068 B4F94C20 		ldrsh	r2, [r4, #76]
 1693 006c 2B46     		mov	r3, r5
 1694 006e FFF7FEFF 		bl	pointto
 1695              	.LVL174:
 1696 0072 DCE7     		b	.L167
 1697              	.L171:
 1698              		.align	2
 1699              	.L170:
 1700 0074 00000000 		.word	.LANCHOR0
 1701              		.cfi_endproc
 1702              	.LFE125:
 1703              		.size	gwinGraphDrawPoint, .-gwinGraphDrawPoint
 1704 0078 AFF30080 		.section	.text.gwinGraphDrawPoints,"ax",%progbits
 1704      AFF30080 
ARM GAS  /tmp/ccBoO2Yd.s 			page 31


 1705              		.align	2
 1706              		.p2align 4,,15
 1707              		.global	gwinGraphDrawPoints
 1708              		.thumb
 1709              		.thumb_func
 1710              		.type	gwinGraphDrawPoints, %function
 1711              	gwinGraphDrawPoints:
 1712              	.LFB126:
 1713              		.loc 1 301 0
 1714              		.cfi_startproc
 1715              		@ args = 0, pretend = 0, frame = 0
 1716              		@ frame_needed = 0, uses_anonymous_args = 0
 1717              	.LVL175:
 1718 0000 2DE9F04F 		push	{r4, r5, r6, r7, r8, r9, sl, fp, lr}
 1719              	.LCFI11:
 1720              		.cfi_def_cfa_offset 36
 1721              		.cfi_offset 4, -36
 1722              		.cfi_offset 5, -32
 1723              		.cfi_offset 6, -28
 1724              		.cfi_offset 7, -24
 1725              		.cfi_offset 8, -20
 1726              		.cfi_offset 9, -16
 1727              		.cfi_offset 10, -12
 1728              		.cfi_offset 11, -8
 1729              		.cfi_offset 14, -4
 1730              		.loc 1 306 0
 1731 0004 4368     		ldr	r3, [r0, #4]
 1732              		.loc 1 301 0
 1733 0006 1746     		mov	r7, r2
 1734              		.loc 1 306 0
 1735 0008 754A     		ldr	r2, .L210
 1736              	.LVL176:
 1737 000a 9342     		cmp	r3, r2
 1738              		.loc 1 301 0
 1739 000c 83B0     		sub	sp, sp, #12
 1740              	.LCFI12:
 1741              		.cfi_def_cfa_offset 48
 1742              		.loc 1 301 0
 1743 000e 0446     		mov	r4, r0
 1744              		.loc 1 306 0
 1745 0010 02D0     		beq	.L206
 1746              	.LVL177:
 1747              	.L172:
 1748              		.loc 1 333 0
 1749 0012 03B0     		add	sp, sp, #12
 1750 0014 BDE8F08F 		pop	{r4, r5, r6, r7, r8, r9, sl, fp, pc}
 1751              	.LVL178:
 1752              	.L206:
 1753              		.loc 1 310 0 discriminator 1
 1754 0018 002F     		cmp	r7, #0
 1755 001a FAD0     		beq	.L172
 1756              		.loc 1 311 0
 1757 001c 858A     		ldrh	r5, [r0, #20]
 1758 001e 05F48056 		and	r6, r5, #4096
 1759 0022 07F1FF3B 		add	fp, r7, #-1
 1760 0026 B3B2     		uxth	r3, r6
 1761              		.loc 1 301 0
ARM GAS  /tmp/ccBoO2Yd.s 			page 32


 1762 0028 01F1040A 		add	sl, r1, #4
 1763 002c 00F11C08 		add	r8, r0, #28
 1764              		.loc 1 313 0
 1765 0030 00F12209 		add	r9, r0, #34
 1766 0034 0BF0010B 		and	fp, fp, #1
 1767              		.loc 1 311 0
 1768 0038 002B     		cmp	r3, #0
 1769 003a 40F0AE80 		bne	.L207
 1770              		.loc 1 320 0
 1771 003e 45F48050 		orr	r0, r5, #4096
 1772              	.LVL179:
 1773 0042 A082     		strh	r0, [r4, #20]	@ movhi
 1774              	.LVL180:
 1775              	.L188:
 1776              		.loc 1 323 0
 1777 0044 3AF8041C 		ldrh	r1, [sl, #-4]
 1778              		.loc 1 324 0
 1779 0048 3AF8022C 		ldrh	r2, [sl, #-2]
 1780              		.loc 1 323 0
 1781 004c A4F84A10 		strh	r1, [r4, #74]	@ movhi
 1782              		.loc 1 310 0
 1783 0050 0126     		movs	r6, #1
 1784 0052 BE42     		cmp	r6, r7
 1785              		.loc 1 324 0
 1786 0054 A4F84C20 		strh	r2, [r4, #76]	@ movhi
 1787              	.LVL181:
 1788 0058 0AF10405 		add	r5, sl, #4
 1789              		.loc 1 310 0
 1790 005c 65D0     		beq	.L204
 1791 005e BBF1000F 		cmp	fp, #0
 1792 0062 15D0     		beq	.L177
 1793              		.loc 1 311 0
 1794 0064 A38A     		ldrh	r3, [r4, #20]
 1795 0066 03F48050 		and	r0, r3, #4096
 1796 006a 81B2     		uxth	r1, r0
 1797 006c 0029     		cmp	r1, #0
 1798 006e 40F0A980 		bne	.L205
 1799              		.loc 1 320 0
 1800 0072 43F48052 		orr	r2, r3, #4096
 1801 0076 A282     		strh	r2, [r4, #20]	@ movhi
 1802              	.L195:
 1803              		.loc 1 323 0
 1804 0078 35F8040C 		ldrh	r0, [r5, #-4]
 1805              		.loc 1 324 0
 1806 007c 35F8023C 		ldrh	r3, [r5, #-2]
 1807              		.loc 1 323 0
 1808 0080 A4F84A00 		strh	r0, [r4, #74]	@ movhi
 1809              		.loc 1 310 0
 1810 0084 0136     		adds	r6, r6, #1
 1811 0086 0435     		adds	r5, r5, #4
 1812 0088 BE42     		cmp	r6, r7
 1813              		.loc 1 324 0
 1814 008a A4F84C30 		strh	r3, [r4, #76]	@ movhi
 1815              		.loc 1 310 0
 1816 008e 4CD0     		beq	.L204
 1817              	.L177:
 1818              		.loc 1 311 0
ARM GAS  /tmp/ccBoO2Yd.s 			page 33


 1819 0090 A18A     		ldrh	r1, [r4, #20]
 1820 0092 01F48052 		and	r2, r1, #4096
 1821 0096 90B2     		uxth	r0, r2
 1822              		.loc 1 320 0
 1823 0098 41F48053 		orr	r3, r1, #4096
 1824              		.loc 1 311 0
 1825 009c 98B9     		cbnz	r0, .L208
 1826              		.loc 1 320 0
 1827 009e A382     		strh	r3, [r4, #20]	@ movhi
 1828              	.L176:
 1829              		.loc 1 311 0
 1830 00a0 A38A     		ldrh	r3, [r4, #20]
 1831              		.loc 1 323 0
 1832 00a2 35F8042C 		ldrh	r2, [r5, #-4]
 1833              		.loc 1 324 0
 1834 00a6 35F8021C 		ldrh	r1, [r5, #-2]
 1835              		.loc 1 323 0
 1836 00aa A4F84A20 		strh	r2, [r4, #74]	@ movhi
 1837              		.loc 1 311 0
 1838 00ae 03F48050 		and	r0, r3, #4096
 1839 00b2 82B2     		uxth	r2, r0
 1840              		.loc 1 320 0
 1841 00b4 43F48053 		orr	r3, r3, #4096
 1842              		.loc 1 324 0
 1843 00b8 A4F84C10 		strh	r1, [r4, #76]	@ movhi
 1844              		.loc 1 310 0
 1845 00bc 0136     		adds	r6, r6, #1
 1846 00be 0435     		adds	r5, r5, #4
 1847              		.loc 1 311 0
 1848 00c0 D2B9     		cbnz	r2, .L209
 1849              		.loc 1 320 0
 1850 00c2 A382     		strh	r3, [r4, #20]	@ movhi
 1851 00c4 D8E7     		b	.L195
 1852              	.L208:
 1853              		.loc 1 313 0
 1854 00c6 35F9020C 		ldrsh	r0, [r5, #-2]
 1855 00ca 35F9043C 		ldrsh	r3, [r5, #-4]
 1856 00ce B4F94A10 		ldrsh	r1, [r4, #74]
 1857 00d2 B4F94C20 		ldrsh	r2, [r4, #76]
 1858 00d6 0090     		str	r0, [sp, #0]
 1859 00d8 CDF80490 		str	r9, [sp, #4]
 1860 00dc 2046     		mov	r0, r4
 1861 00de FFF7FEFF 		bl	lineto
 1862              	.LVL182:
 1863              		.loc 1 316 0
 1864 00e2 002E     		cmp	r6, #0
 1865 00e4 DCD1     		bne	.L176
 1866              		.loc 1 317 0
 1867 00e6 2046     		mov	r0, r4
 1868 00e8 B4F94A10 		ldrsh	r1, [r4, #74]
 1869 00ec B4F94C20 		ldrsh	r2, [r4, #76]
 1870 00f0 4346     		mov	r3, r8
 1871 00f2 FFF7FEFF 		bl	pointto
 1872              	.LVL183:
 1873 00f6 D3E7     		b	.L176
 1874              	.L209:
 1875              		.loc 1 313 0
ARM GAS  /tmp/ccBoO2Yd.s 			page 34


 1876 00f8 35F9020C 		ldrsh	r0, [r5, #-2]
 1877 00fc 35F9043C 		ldrsh	r3, [r5, #-4]
 1878 0100 B4F94A10 		ldrsh	r1, [r4, #74]
 1879 0104 B4F94C20 		ldrsh	r2, [r4, #76]
 1880 0108 0090     		str	r0, [sp, #0]
 1881 010a CDF80490 		str	r9, [sp, #4]
 1882 010e 2046     		mov	r0, r4
 1883 0110 FFF7FEFF 		bl	lineto
 1884              	.LVL184:
 1885              		.loc 1 316 0
 1886 0114 002E     		cmp	r6, #0
 1887 0116 AFD1     		bne	.L195
 1888              		.loc 1 317 0
 1889 0118 2046     		mov	r0, r4
 1890 011a B4F94A10 		ldrsh	r1, [r4, #74]
 1891 011e B4F94C20 		ldrsh	r2, [r4, #76]
 1892 0122 4346     		mov	r3, r8
 1893 0124 FFF7FEFF 		bl	pointto
 1894              	.LVL185:
 1895 0128 A6E7     		b	.L195
 1896              	.L204:
 1897              		.loc 1 329 0
 1898 012a 4FF00109 		mov	r9, #1
 1899              		.loc 1 330 0
 1900 012e 2046     		mov	r0, r4
 1901 0130 3AF9041C 		ldrsh	r1, [sl, #-4]
 1902 0134 3AF9022C 		ldrsh	r2, [sl, #-2]
 1903 0138 4346     		mov	r3, r8
 1904 013a 7E1E     		subs	r6, r7, #1
 1905 013c FFF7FEFF 		bl	pointto
 1906              	.LVL186:
 1907              		.loc 1 329 0
 1908 0140 B945     		cmp	r9, r7
 1909 0142 06EA0906 		and	r6, r6, r9
 1910 0146 0AF10405 		add	r5, sl, #4
 1911 014a 3FF462AF 		beq	.L172
 1912 014e 6EB1     		cbz	r6, .L178
 1913              		.loc 1 330 0
 1914 0150 35F9041C 		ldrsh	r1, [r5, #-4]
 1915 0154 35F9022C 		ldrsh	r2, [r5, #-2]
 1916 0158 2046     		mov	r0, r4
 1917 015a 4346     		mov	r3, r8
 1918              		.loc 1 329 0
 1919 015c 4FF00209 		mov	r9, #2
 1920              		.loc 1 330 0
 1921 0160 FFF7FEFF 		bl	pointto
 1922              	.LVL187:
 1923 0164 0435     		adds	r5, r5, #4
 1924              		.loc 1 329 0
 1925 0166 B945     		cmp	r9, r7
 1926 0168 3FF453AF 		beq	.L172
 1927              	.L178:
 1928 016c 2E46     		mov	r6, r5
 1929              		.loc 1 330 0 discriminator 2
 1930 016e 35F9041C 		ldrsh	r1, [r5, #-4]
 1931 0172 35F9022C 		ldrsh	r2, [r5, #-2]
 1932 0176 2046     		mov	r0, r4
ARM GAS  /tmp/ccBoO2Yd.s 			page 35


 1933 0178 4346     		mov	r3, r8
 1934 017a FFF7FEFF 		bl	pointto
 1935              	.LVL188:
 1936 017e 36F9041B 		ldrsh	r1, [r6], #4
 1937 0182 2046     		mov	r0, r4
 1938 0184 36F9022C 		ldrsh	r2, [r6, #-2]
 1939 0188 4346     		mov	r3, r8
 1940              		.loc 1 329 0 discriminator 2
 1941 018a 09F10209 		add	r9, r9, #2
 1942              		.loc 1 330 0 discriminator 2
 1943 018e FFF7FEFF 		bl	pointto
 1944              	.LVL189:
 1945 0192 351D     		adds	r5, r6, #4
 1946              		.loc 1 329 0 discriminator 2
 1947 0194 B945     		cmp	r9, r7
 1948 0196 E9D1     		bne	.L178
 1949 0198 3BE7     		b	.L172
 1950              	.LVL190:
 1951              	.L207:
 1952              		.loc 1 313 0
 1953 019a 3AF9025C 		ldrsh	r5, [sl, #-2]
 1954 019e B0F94A10 		ldrsh	r1, [r0, #74]
 1955              	.LVL191:
 1956 01a2 B0F94C20 		ldrsh	r2, [r0, #76]
 1957 01a6 3AF9043C 		ldrsh	r3, [sl, #-4]
 1958 01aa 8DE82002 		stmia	sp, {r5, r9}
 1959 01ae FFF7FEFF 		bl	lineto
 1960              	.LVL192:
 1961              		.loc 1 317 0
 1962 01b2 2046     		mov	r0, r4
 1963 01b4 B4F94A10 		ldrsh	r1, [r4, #74]
 1964 01b8 B4F94C20 		ldrsh	r2, [r4, #76]
 1965 01bc 4346     		mov	r3, r8
 1966 01be FFF7FEFF 		bl	pointto
 1967              	.LVL193:
 1968 01c2 3FE7     		b	.L188
 1969              	.LVL194:
 1970              	.L205:
 1971              		.loc 1 313 0
 1972 01c4 35F9020C 		ldrsh	r0, [r5, #-2]
 1973 01c8 35F9043C 		ldrsh	r3, [r5, #-4]
 1974 01cc B4F94A10 		ldrsh	r1, [r4, #74]
 1975 01d0 B4F94C20 		ldrsh	r2, [r4, #76]
 1976 01d4 8DE80102 		stmia	sp, {r0, r9}
 1977 01d8 2046     		mov	r0, r4
 1978 01da FFF7FEFF 		bl	lineto
 1979              	.LVL195:
 1980 01de 4BE7     		b	.L195
 1981              	.L211:
 1982              		.align	2
 1983              	.L210:
 1984 01e0 00000000 		.word	.LANCHOR0
 1985              		.cfi_endproc
 1986              	.LFE126:
 1987              		.size	gwinGraphDrawPoints, .-gwinGraphDrawPoints
 1988 01e4 AFF30080 		.section	.rodata.graphVMT,"a",%progbits
 1988      AFF30080 
ARM GAS  /tmp/ccBoO2Yd.s 			page 36


 1988      AFF30080 
 1989              		.align	2
 1990              		.set	.LANCHOR0,. + 0
 1991              		.type	graphVMT, %object
 1992              		.size	graphVMT, 20
 1993              	graphVMT:
 1994 0000 00000000 		.word	.LC0
 1995 0004 50000000 		.word	80
 1996 0008 00000000 		.word	0
 1997 000c 00000000 		.word	0
 1998 0010 00000000 		.word	0
 1999              		.section	.rodata.str1.4,"aMS",%progbits,1
 2000              		.align	2
 2001              	.LC0:
 2002 0000 47726170 		.ascii	"Graph\000"
 2002      6800
 2003 0006 0000     		.section	.rodata.GGraphDefaultStyle,"a",%progbits
 2004              		.align	2
 2005              		.set	.LANCHOR1,. + 0
 2006              		.type	GGraphDefaultStyle, %object
 2007              		.size	GGraphDefaultStyle, 42
 2008              	GGraphDefaultStyle:
 2009 0000 01       		.byte	1
 2010 0001 00       		.space	1
 2011 0002 0000     		.short	0
 2012 0004 FFFF     		.short	-1
 2013 0006 02       		.byte	2
 2014 0007 00       		.space	1
 2015 0008 0200     		.short	2
 2016 000a 1084     		.short	-31728
 2017 000c 01       		.byte	1
 2018 000d 00       		.space	1
 2019 000e 0000     		.short	0
 2020 0010 FFFF     		.short	-1
 2021 0012 01       		.byte	1
 2022 0013 00       		.space	1
 2023 0014 0000     		.short	0
 2024 0016 FFFF     		.short	-1
 2025 0018 00       		.byte	0
 2026 0019 00       		.space	1
 2027 001a 0000     		.short	0
 2028 001c FFFF     		.short	-1
 2029 001e 0000     		.short	0
 2030 0020 00       		.byte	0
 2031 0021 00       		.space	1
 2032 0022 0000     		.short	0
 2033 0024 FFFF     		.short	-1
 2034 0026 0000     		.short	0
 2035 0028 0F00     		.short	15
 2036 002a 0000     		.text
 2037              	.Letext0:
 2038              		.file 2 "/usr/bin/../lib/gcc/arm-none-eabi/4.7.4/include/stddef.h"
 2039              		.file 3 "/usr/bin/../lib/gcc/arm-none-eabi/4.7.4/../../../../arm-none-eabi/include/stdint.h"
 2040              		.file 4 "../../os/ports/GCC/ARMCMx/chtypes.h"
 2041              		.file 5 "../../ext/ugfx/include/gqueue/gqueue.h"
 2042              		.file 6 "../../ext/ugfx/include/gdisp/gdisp.h"
 2043              		.file 7 "../../ext/ugfx/include/gwin/gwin.h"
ARM GAS  /tmp/ccBoO2Yd.s 			page 37


 2044              		.file 8 "../../ext/ugfx/include/gwin/class_gwin.h"
 2045              		.file 9 "../../ext/ugfx/include/gwin/graph.h"
 2046              		.file 10 "../../os/ports/common/ARMCMx/CMSIS/include/core_cm4.h"