ARM GAS  /tmp/ccfWt4jf.s 			page 1


   1              		.syntax unified
   2              		.cpu cortex-m4
   3              		.eabi_attribute 27, 3
   4              		.eabi_attribute 28, 1
   5              		.fpu fpv4-sp-d16
   6              		.eabi_attribute 20, 1
   7              		.eabi_attribute 21, 1
   8              		.eabi_attribute 23, 3
   9              		.eabi_attribute 24, 1
  10              		.eabi_attribute 25, 1
  11              		.eabi_attribute 26, 1
  12              		.eabi_attribute 30, 2
  13              		.eabi_attribute 34, 1
  14              		.eabi_attribute 18, 4
  15              		.thumb
  16              		.file	"gwidget.c"
  17              		.text
  18              	.Ltext0:
  19              		.cfi_sections	.debug_frame
  20              		.section	.text._gwidgetCreate,"ax",%progbits
  21              		.align	2
  22              		.p2align 4,,15
  23              		.global	_gwidgetCreate
  24              		.thumb
  25              		.thumb_func
  26              		.type	_gwidgetCreate, %function
  27              	_gwidgetCreate:
  28              	.LFB120:
  29              		.file 1 "../../ext/ugfx/src/gwin/gwidget.c"
  30              		.loc 1 228 0
  31              		.cfi_startproc
  32              		@ args = 0, pretend = 0, frame = 0
  33              		@ frame_needed = 0, uses_anonymous_args = 0
  34              	.LVL0:
  35 0000 70B5     		push	{r4, r5, r6, lr}
  36              	.LCFI0:
  37              		.cfi_def_cfa_offset 16
  38              		.cfi_offset 4, -16
  39              		.cfi_offset 5, -12
  40              		.cfi_offset 6, -8
  41              		.cfi_offset 14, -4
  42              		.loc 1 229 0
  43 0002 3023     		movs	r3, #48
  44              		.loc 1 228 0
  45 0004 0C46     		mov	r4, r1
  46 0006 1646     		mov	r6, r2
  47              		.loc 1 229 0
  48 0008 FFF7FEFF 		bl	_gwindowCreate
  49              	.LVL1:
  50 000c 68B1     		cbz	r0, .L2
  51              		.loc 1 232 0
  52 000e E368     		ldr	r3, [r4, #12]
  53 0010 094D     		ldr	r5, .L11
  54              		.loc 1 233 0
  55 0012 2169     		ldr	r1, [r4, #16]
  56              		.loc 1 232 0
  57 0014 002B     		cmp	r3, #0
ARM GAS  /tmp/ccfWt4jf.s 			page 2


  58 0016 08BF     		it	eq
  59 0018 2B46     		moveq	r3, r5
  60 001a C361     		str	r3, [r0, #28]
  61              		.loc 1 233 0
  62 001c 31B1     		cbz	r1, .L9
  63              	.L4:
  64              		.loc 1 234 0 discriminator 3
  65 001e 6269     		ldr	r2, [r4, #20]
  66              		.loc 1 235 0 discriminator 3
  67 0020 A369     		ldr	r3, [r4, #24]
  68              		.loc 1 233 0 discriminator 3
  69 0022 0162     		str	r1, [r0, #32]
  70              		.loc 1 234 0 discriminator 3
  71 0024 4262     		str	r2, [r0, #36]
  72              		.loc 1 235 0 discriminator 3
  73 0026 1BB1     		cbz	r3, .L10
  74              	.L5:
  75 0028 8362     		str	r3, [r0, #40]
  76              	.L2:
  77              		.loc 1 238 0
  78 002a 70BD     		pop	{r4, r5, r6, pc}
  79              	.L9:
  80              		.loc 1 233 0 discriminator 2
  81 002c 7169     		ldr	r1, [r6, #20]
  82 002e F6E7     		b	.L4
  83              	.L10:
  84              		.loc 1 235 0 discriminator 2
  85 0030 024B     		ldr	r3, .L11+4
  86 0032 1B68     		ldr	r3, [r3, #0]
  87 0034 F8E7     		b	.L5
  88              	.L12:
  89 0036 00BF     		.align	2
  90              	.L11:
  91 0038 00000000 		.word	.LC0
  92 003c 00000000 		.word	.LANCHOR0
  93              		.cfi_endproc
  94              	.LFE120:
  95              		.size	_gwidgetCreate, .-_gwidgetCreate
  96              		.section	.text.gwidgetEvent,"ax",%progbits
  97              		.align	2
  98              		.p2align 4,,15
  99              		.thumb
 100              		.thumb_func
 101              		.type	gwidgetEvent, %function
 102              	gwidgetEvent:
 103              	.LFB118:
 104              		.loc 1 84 0
 105              		.cfi_startproc
 106              		@ args = 0, pretend = 0, frame = 0
 107              		@ frame_needed = 0, uses_anonymous_args = 0
 108              	.LVL2:
 109 0000 2DE9F041 		push	{r4, r5, r6, r7, r8, lr}
 110              	.LCFI1:
 111              		.cfi_def_cfa_offset 24
 112              		.cfi_offset 4, -24
 113              		.cfi_offset 5, -20
 114              		.cfi_offset 6, -16
ARM GAS  /tmp/ccfWt4jf.s 			page 3


 115              		.cfi_offset 7, -12
 116              		.cfi_offset 8, -8
 117              		.cfi_offset 14, -4
 118              		.loc 1 97 0
 119 0004 0B88     		ldrh	r3, [r1, #0]
 120 0006 A3F58070 		sub	r0, r3, #256
 121              	.LVL3:
 122 000a 0128     		cmp	r0, #1
 123              		.loc 1 84 0
 124 000c 0D46     		mov	r5, r1
 125              		.loc 1 97 0
 126 000e 29D8     		bhi	.L13
 127              	.LVL4:
 128              	.LBB4:
 129              	.LBB5:
 130              		.loc 1 103 0
 131 0010 3449     		ldr	r1, .L38
 132              	.LVL5:
 133 0012 0C68     		ldr	r4, [r1, #0]
 134              	.LVL6:
 135 0014 14B9     		cbnz	r4, .L32
 136 0016 25E0     		b	.L13
 137              	.L18:
 138 0018 2468     		ldr	r4, [r4, #0]
 139              	.LVL7:
 140 001a 1CB3     		cbz	r4, .L13
 141              	.L32:
 142              		.loc 1 106 0
 143 001c A38A     		ldrh	r3, [r4, #20]
 144 001e 03F03202 		and	r2, r3, #50
 145 0022 322A     		cmp	r2, #50
 146 0024 F8D1     		bne	.L18
 147              		.loc 1 110 0
 148 0026 03F08000 		and	r0, r3, #128
 149 002a 81B2     		uxth	r1, r0
 150 002c E1B1     		cbz	r1, .L19
 151              		.loc 1 111 0
 152 002e A889     		ldrh	r0, [r5, #12]
 153 0030 6989     		ldrh	r1, [r5, #10]
 154 0032 00F00102 		and	r2, r0, #1
 155 0036 32EA0101 		bics	r1, r2, r1
 156 003a 44D0     		beq	.L20
 157              		.loc 1 113 0
 158 003c 6668     		ldr	r6, [r4, #4]
 159 003e F669     		ldr	r6, [r6, #28]
 160              		.loc 1 112 0
 161 0040 23F08003 		bic	r3, r3, #128
 162 0044 A382     		strh	r3, [r4, #20]	@ movhi
 163              		.loc 1 113 0
 164 0046 002E     		cmp	r6, #0
 165 0048 E6D0     		beq	.L18
 166              		.loc 1 114 0
 167 004a A888     		ldrh	r0, [r5, #4]
 168 004c 2189     		ldrh	r1, [r4, #8]
 169 004e 6389     		ldrh	r3, [r4, #10]
 170 0050 EA88     		ldrh	r2, [r5, #6]
 171 0052 411A     		subs	r1, r0, r1
ARM GAS  /tmp/ccfWt4jf.s 			page 4


 172 0054 D21A     		subs	r2, r2, r3
 173 0056 2046     		mov	r0, r4
 174 0058 09B2     		sxth	r1, r1
 175 005a 12B2     		sxth	r2, r2
 176 005c B047     		blx	r6
 177              	.LVL8:
 178              		.loc 1 103 0
 179 005e 2468     		ldr	r4, [r4, #0]
 180              	.LVL9:
 181 0060 002C     		cmp	r4, #0
 182 0062 DBD1     		bne	.L32
 183              	.LVL10:
 184              	.L13:
 185 0064 BDE8F081 		pop	{r4, r5, r6, r7, r8, pc}
 186              	.LVL11:
 187              	.L19:
 188              		.loc 1 119 0
 189 0068 6A89     		ldrh	r2, [r5, #10]
 190 006a A889     		ldrh	r0, [r5, #12]
 191 006c 02F00101 		and	r1, r2, #1
 192 0070 8143     		bics	r1, r1, r0
 193 0072 D1D0     		beq	.L18
 194              		.loc 1 120 0
 195 0074 AE88     		ldrh	r6, [r5, #4]
 196 0076 2089     		ldrh	r0, [r4, #8]
 197 0078 32B2     		sxth	r2, r6
 198 007a 01B2     		sxth	r1, r0
 199 007c 8A42     		cmp	r2, r1
 200 007e CBDB     		blt	.L18
 201 0080 B4F90C70 		ldrsh	r7, [r4, #12]
 202 0084 C919     		adds	r1, r1, r7
 203 0086 8A42     		cmp	r2, r1
 204 0088 C6DA     		bge	.L18
 205              		.loc 1 121 0
 206 008a B5F806C0 		ldrh	ip, [r5, #6]
 207 008e 6789     		ldrh	r7, [r4, #10]
 208 0090 0FFA8CF2 		sxth	r2, ip
 209 0094 39B2     		sxth	r1, r7
 210 0096 8A42     		cmp	r2, r1
 211 0098 BEDB     		blt	.L18
 212 009a B4F90E80 		ldrsh	r8, [r4, #14]
 213 009e 4144     		add	r1, r1, r8
 214 00a0 8A42     		cmp	r2, r1
 215 00a2 B9DA     		bge	.L18
 216              		.loc 1 123 0
 217 00a4 6268     		ldr	r2, [r4, #4]
 218 00a6 D2F81880 		ldr	r8, [r2, #24]
 219              		.loc 1 122 0
 220 00aa 43F08003 		orr	r3, r3, #128
 221 00ae A382     		strh	r3, [r4, #20]	@ movhi
 222              		.loc 1 123 0
 223 00b0 B8F1000F 		cmp	r8, #0
 224 00b4 B0D0     		beq	.L18
 225              		.loc 1 124 0
 226 00b6 311A     		subs	r1, r6, r0
 227 00b8 C7EB0C02 		rsb	r2, r7, ip
 228 00bc 2046     		mov	r0, r4
ARM GAS  /tmp/ccfWt4jf.s 			page 5


 229 00be 09B2     		sxth	r1, r1
 230 00c0 12B2     		sxth	r2, r2
 231 00c2 C047     		blx	r8
 232              	.LVL12:
 233 00c4 A8E7     		b	.L18
 234              	.L20:
 235              		.loc 1 115 0
 236 00c6 6368     		ldr	r3, [r4, #4]
 237 00c8 1B6A     		ldr	r3, [r3, #32]
 238 00ca 002B     		cmp	r3, #0
 239 00cc A4D0     		beq	.L18
 240              		.loc 1 116 0
 241 00ce E888     		ldrh	r0, [r5, #6]
 242 00d0 AE88     		ldrh	r6, [r5, #4]
 243 00d2 2189     		ldrh	r1, [r4, #8]
 244 00d4 6289     		ldrh	r2, [r4, #10]
 245 00d6 711A     		subs	r1, r6, r1
 246 00d8 821A     		subs	r2, r0, r2
 247 00da 09B2     		sxth	r1, r1
 248 00dc 2046     		mov	r0, r4
 249 00de 12B2     		sxth	r2, r2
 250 00e0 9847     		blx	r3
 251              	.LVL13:
 252 00e2 99E7     		b	.L18
 253              	.L39:
 254              		.align	2
 255              	.L38:
 256 00e4 00000000 		.word	_GWINList
 257              	.LBE5:
 258              	.LBE4:
 259              		.cfi_endproc
 260              	.LFE118:
 261              		.size	gwidgetEvent, .-gwidgetEvent
 262 00e8 AFF30080 		.section	.text._gwidgetInit,"ax",%progbits
 262      AFF30080 
 263              		.align	2
 264              		.p2align 4,,15
 265              		.global	_gwidgetInit
 266              		.thumb
 267              		.thumb_func
 268              		.type	_gwidgetInit, %function
 269              	_gwidgetInit:
 270              	.LFB119:
 271              		.loc 1 223 0
 272              		.cfi_startproc
 273              		@ args = 0, pretend = 0, frame = 0
 274              		@ frame_needed = 0, uses_anonymous_args = 0
 275 0000 10B5     		push	{r4, lr}
 276              	.LCFI2:
 277              		.cfi_def_cfa_offset 8
 278              		.cfi_offset 4, -8
 279              		.cfi_offset 14, -4
 280              		.loc 1 224 0
 281 0002 40F20004 		movw	r4, #:lower16:.LANCHOR1
 282 0006 C0F20004 		movt	r4, #:upper16:.LANCHOR1
 283 000a 2046     		mov	r0, r4
 284 000c FFF7FEFF 		bl	geventListenerInit
ARM GAS  /tmp/ccfWt4jf.s 			page 6


 285              	.LVL14:
 286              		.loc 1 225 0
 287 0010 40F20001 		movw	r1, #:lower16:gwidgetEvent
 288 0014 2046     		mov	r0, r4
 289 0016 C0F20001 		movt	r1, #:upper16:gwidgetEvent
 290 001a 0022     		movs	r2, #0
 291              		.loc 1 226 0
 292 001c BDE81040 		pop	{r4, lr}
 293              		.loc 1 225 0
 294 0020 FFF7FEBF 		b	geventRegisterCallback
 295              	.LVL15:
 296              		.cfi_endproc
 297              	.LFE119:
 298              		.size	_gwidgetInit, .-_gwidgetInit
 299 0024 AFF30080 		.section	.text._gwidgetDestroy,"ax",%progbits
 299      AFF30080 
 299      AFF30080 
 300              		.align	2
 301              		.p2align 4,,15
 302              		.global	_gwidgetDestroy
 303              		.thumb
 304              		.thumb_func
 305              		.type	_gwidgetDestroy, %function
 306              	_gwidgetDestroy:
 307              	.LFB121:
 308              		.loc 1 240 0
 309              		.cfi_startproc
 310              		@ args = 0, pretend = 0, frame = 0
 311              		@ frame_needed = 0, uses_anonymous_args = 0
 312              	.LVL16:
 313              		.loc 1 246 0
 314 0000 838A     		ldrh	r3, [r0, #20]
 315 0002 03F04002 		and	r2, r3, #64
 316              		.loc 1 240 0
 317 0006 10B5     		push	{r4, lr}
 318              	.LCFI3:
 319              		.cfi_def_cfa_offset 8
 320              		.cfi_offset 4, -8
 321              		.cfi_offset 14, -4
 322              		.loc 1 240 0
 323 0008 0446     		mov	r4, r0
 324              		.loc 1 246 0
 325 000a 90B2     		uxth	r0, r2
 326              	.LVL17:
 327 000c 28B1     		cbz	r0, .L42
 328              		.loc 1 247 0
 329 000e 23F04001 		bic	r1, r3, #64
 330 0012 A182     		strh	r1, [r4, #20]	@ movhi
 331              		.loc 1 248 0
 332 0014 E069     		ldr	r0, [r4, #28]
 333 0016 FFF7FEFF 		bl	chHeapFree
 334              	.LVL18:
 335              	.L42:
 336              		.loc 1 276 0
 337 001a 2046     		mov	r0, r4
 338              		.loc 1 277 0
 339 001c BDE81040 		pop	{r4, lr}
ARM GAS  /tmp/ccfWt4jf.s 			page 7


 340              		.loc 1 276 0
 341 0020 FFF7FEBF 		b	geventDetachSourceListeners
 342              	.LVL19:
 343              		.cfi_endproc
 344              	.LFE121:
 345              		.size	_gwidgetDestroy, .-_gwidgetDestroy
 346 0024 AFF30080 		.section	.text._gwidgetRedraw,"ax",%progbits
 346      AFF30080 
 346      AFF30080 
 347              		.align	2
 348              		.p2align 4,,15
 349              		.global	_gwidgetRedraw
 350              		.thumb
 351              		.thumb_func
 352              		.type	_gwidgetRedraw, %function
 353              	_gwidgetRedraw:
 354              	.LFB122:
 355              		.loc 1 279 0
 356              		.cfi_startproc
 357              		@ args = 0, pretend = 0, frame = 0
 358              		@ frame_needed = 0, uses_anonymous_args = 0
 359              	.LVL20:
 360              		.loc 1 280 0
 361 0000 838A     		ldrh	r3, [r0, #20]
 362              		.loc 1 279 0
 363 0002 10B5     		push	{r4, lr}
 364              	.LCFI4:
 365              		.cfi_def_cfa_offset 8
 366              		.cfi_offset 4, -8
 367              		.cfi_offset 14, -4
 368              		.loc 1 279 0
 369 0004 0446     		mov	r4, r0
 370              		.loc 1 280 0
 371 0006 03F00200 		and	r0, r3, #2
 372              	.LVL21:
 373 000a 81B2     		uxth	r1, r0
 374 000c 69B1     		cbz	r1, .L46
 375              	.LVL22:
 376              	.LBB8:
 377              	.LBB9:
 378              		.loc 1 284 0
 379 000e B4F90800 		ldrsh	r0, [r4, #8]
 380 0012 B4F90A10 		ldrsh	r1, [r4, #10]
 381 0016 B4F90C20 		ldrsh	r2, [r4, #12]
 382 001a B4F90E30 		ldrsh	r3, [r4, #14]
 383 001e FFF7FEFF 		bl	gdispSetClip
 384              	.LVL23:
 385              		.loc 1 287 0
 386 0022 2046     		mov	r0, r4
 387 0024 226A     		ldr	r2, [r4, #32]
 388 0026 616A     		ldr	r1, [r4, #36]
 389 0028 9047     		blx	r2
 390              	.LVL24:
 391              	.L46:
 392 002a 10BD     		pop	{r4, pc}
 393              	.LBE9:
 394              	.LBE8:
ARM GAS  /tmp/ccfWt4jf.s 			page 8


 395              		.cfi_endproc
 396              	.LFE122:
 397              		.size	_gwidgetRedraw, .-_gwidgetRedraw
 398 002c AFF30080 		.section	.text.gwinGetDefaultStyle,"ax",%progbits
 399              		.align	2
 400              		.p2align 4,,15
 401              		.global	gwinGetDefaultStyle
 402              		.thumb
 403              		.thumb_func
 404              		.type	gwinGetDefaultStyle, %function
 405              	gwinGetDefaultStyle:
 406              	.LFB124:
 407              		.loc 1 313 0
 408              		.cfi_startproc
 409              		@ args = 0, pretend = 0, frame = 0
 410              		@ frame_needed = 0, uses_anonymous_args = 0
 411              		@ link register save eliminated.
 412              		.loc 1 314 0
 413 0000 40F20003 		movw	r3, #:lower16:.LANCHOR0
 414 0004 C0F20003 		movt	r3, #:upper16:.LANCHOR0
 415              		.loc 1 315 0
 416 0008 1868     		ldr	r0, [r3, #0]
 417 000a 7047     		bx	lr
 418              		.cfi_endproc
 419              	.LFE124:
 420              		.size	gwinGetDefaultStyle, .-gwinGetDefaultStyle
 421 000c AFF30080 		.section	.text.gwinSetText,"ax",%progbits
 422              		.align	2
 423              		.p2align 4,,15
 424              		.global	gwinSetText
 425              		.thumb
 426              		.thumb_func
 427              		.type	gwinSetText, %function
 428              	gwinSetText:
 429              	.LFB125:
 430              		.loc 1 318 0
 431              		.cfi_startproc
 432              		@ args = 0, pretend = 0, frame = 0
 433              		@ frame_needed = 0, uses_anonymous_args = 0
 434              	.LVL25:
 435              		.loc 1 319 0
 436 0000 838A     		ldrh	r3, [r0, #20]
 437              		.loc 1 318 0
 438 0002 70B5     		push	{r4, r5, r6, lr}
 439              	.LCFI5:
 440              		.cfi_def_cfa_offset 16
 441              		.cfi_offset 4, -16
 442              		.cfi_offset 5, -12
 443              		.cfi_offset 6, -8
 444              		.cfi_offset 14, -4
 445              		.loc 1 318 0
 446 0004 0D46     		mov	r5, r1
 447              		.loc 1 319 0
 448 0006 03F02001 		and	r1, r3, #32
 449              	.LVL26:
 450              		.loc 1 318 0
 451 000a 0446     		mov	r4, r0
ARM GAS  /tmp/ccfWt4jf.s 			page 9


 452              		.loc 1 319 0
 453 000c 88B2     		uxth	r0, r1
 454              	.LVL27:
 455              		.loc 1 318 0
 456 000e 1646     		mov	r6, r2
 457              		.loc 1 319 0
 458 0010 C8B1     		cbz	r0, .L52
 459              		.loc 1 323 0
 460 0012 03F04002 		and	r2, r3, #64
 461              	.LVL28:
 462 0016 91B2     		uxth	r1, r2
 463 0018 41B1     		cbz	r1, .L55
 464              		.loc 1 325 0
 465 001a E069     		ldr	r0, [r4, #28]
 466              		.loc 1 324 0
 467 001c 23F04003 		bic	r3, r3, #64
 468 0020 A382     		strh	r3, [r4, #20]	@ movhi
 469              		.loc 1 325 0
 470 0022 18B1     		cbz	r0, .L55
 471              		.loc 1 326 0
 472 0024 FFF7FEFF 		bl	chHeapFree
 473              	.LVL29:
 474              		.loc 1 327 0
 475 0028 1048     		ldr	r0, .L72
 476 002a E061     		str	r0, [r4, #28]
 477              	.L55:
 478              		.loc 1 332 0
 479 002c 0DB1     		cbz	r5, .L57
 480              		.loc 1 332 0 is_stmt 0 discriminator 1
 481 002e 2A78     		ldrb	r2, [r5, #0]	@ zero_extendqisi2
 482 0030 32B9     		cbnz	r2, .L58
 483              	.L57:
 484              		.loc 1 333 0 is_stmt 1
 485 0032 0E48     		ldr	r0, .L72
 486 0034 E061     		str	r0, [r4, #28]
 487              	.L59:
 488              		.loc 1 344 0
 489 0036 2046     		mov	r0, r4
 490              		.loc 1 345 0
 491 0038 BDE87040 		pop	{r4, r5, r6, lr}
 492              		.loc 1 344 0
 493 003c FFF7FEBF 		b	_gwidgetRedraw
 494              	.LVL30:
 495              	.L58:
 496              		.loc 1 334 0
 497 0040 16B9     		cbnz	r6, .L71
 498              		.loc 1 343 0
 499 0042 E561     		str	r5, [r4, #28]
 500 0044 F7E7     		b	.L59
 501              	.LVL31:
 502              	.L52:
 503 0046 70BD     		pop	{r4, r5, r6, pc}
 504              	.LVL32:
 505              	.L71:
 506              	.LBB10:
 507              		.loc 1 337 0
 508 0048 2846     		mov	r0, r5
ARM GAS  /tmp/ccfWt4jf.s 			page 10


 509 004a FFF7FEFF 		bl	strlen
 510              	.LVL33:
 511 004e 411C     		adds	r1, r0, #1
 512 0050 0020     		movs	r0, #0
 513 0052 FFF7FEFF 		bl	chHeapAlloc
 514              	.LVL34:
 515 0056 0646     		mov	r6, r0
 516 0058 30B1     		cbz	r0, .L61
 517              		.loc 1 338 0
 518 005a A18A     		ldrh	r1, [r4, #20]
 519 005c 41F04003 		orr	r3, r1, #64
 520 0060 A382     		strh	r3, [r4, #20]	@ movhi
 521              		.loc 1 339 0
 522 0062 2946     		mov	r1, r5
 523 0064 FFF7FEFF 		bl	strcpy
 524              	.LVL35:
 525              	.L61:
 526              		.loc 1 341 0
 527 0068 E661     		str	r6, [r4, #28]
 528 006a E4E7     		b	.L59
 529              	.L73:
 530              		.align	2
 531              	.L72:
 532 006c 00000000 		.word	.LC0
 533              	.LBE10:
 534              		.cfi_endproc
 535              	.LFE125:
 536              		.size	gwinSetText, .-gwinSetText
 537              		.section	.text.gwinGetText,"ax",%progbits
 538              		.align	2
 539              		.p2align 4,,15
 540              		.global	gwinGetText
 541              		.thumb
 542              		.thumb_func
 543              		.type	gwinGetText, %function
 544              	gwinGetText:
 545              	.LFB126:
 546              		.loc 1 347 0
 547              		.cfi_startproc
 548              		@ args = 0, pretend = 0, frame = 0
 549              		@ frame_needed = 0, uses_anonymous_args = 0
 550              		@ link register save eliminated.
 551              	.LVL36:
 552              		.loc 1 348 0
 553 0000 838A     		ldrh	r3, [r0, #20]
 554 0002 03F02001 		and	r1, r3, #32
 555 0006 8AB2     		uxth	r2, r1
 556 0008 0AB1     		cbz	r2, .L76
 557              		.loc 1 351 0
 558 000a C069     		ldr	r0, [r0, #28]
 559              	.LVL37:
 560 000c 7047     		bx	lr
 561              	.LVL38:
 562              	.L76:
 563              		.loc 1 349 0
 564 000e 1046     		mov	r0, r2
 565              	.LVL39:
ARM GAS  /tmp/ccfWt4jf.s 			page 11


 566              		.loc 1 352 0
 567 0010 7047     		bx	lr
 568              		.cfi_endproc
 569              	.LFE126:
 570              		.size	gwinGetText, .-gwinGetText
 571 0012 00BFAFF3 		.section	.text.gwinSetStyle,"ax",%progbits
 571      0080AFF3 
 571      0080AFF3 
 571      0080
 572              		.align	2
 573              		.p2align 4,,15
 574              		.global	gwinSetStyle
 575              		.thumb
 576              		.thumb_func
 577              		.type	gwinSetStyle, %function
 578              	gwinSetStyle:
 579              	.LFB127:
 580              		.loc 1 354 0
 581              		.cfi_startproc
 582              		@ args = 0, pretend = 0, frame = 0
 583              		@ frame_needed = 0, uses_anonymous_args = 0
 584              		@ link register save eliminated.
 585              	.LVL40:
 586              		.loc 1 355 0
 587 0000 838A     		ldrh	r3, [r0, #20]
 588 0002 03F02002 		and	r2, r3, #32
 589 0006 93B2     		uxth	r3, r2
 590              		.loc 1 354 0
 591 0008 10B4     		push	{r4}
 592              	.LCFI6:
 593              		.cfi_def_cfa_offset 4
 594              		.cfi_offset 4, -4
 595              		.loc 1 355 0
 596 000a 4BB1     		cbz	r3, .L77
 597              		.loc 1 357 0
 598 000c 51B1     		cbz	r1, .L81
 599 000e 0C46     		mov	r4, r1
 600              	.L79:
 601              		.loc 1 358 0 discriminator 3
 602 0010 0A88     		ldrh	r2, [r1, #0]
 603              		.loc 1 359 0 discriminator 3
 604 0012 4988     		ldrh	r1, [r1, #2]
 605              	.LVL41:
 606              		.loc 1 357 0 discriminator 3
 607 0014 8462     		str	r4, [r0, #40]
 608              		.loc 1 358 0 discriminator 3
 609 0016 4282     		strh	r2, [r0, #18]	@ movhi
 610              		.loc 1 359 0 discriminator 3
 611 0018 0182     		strh	r1, [r0, #16]	@ movhi
 612              		.loc 1 361 0 discriminator 3
 613 001a 10BC     		pop	{r4}
 614              		.loc 1 360 0 discriminator 3
 615 001c FFF7FEBF 		b	_gwidgetRedraw
 616              	.LVL42:
 617              	.L77:
 618              		.loc 1 361 0
 619 0020 10BC     		pop	{r4}
ARM GAS  /tmp/ccfWt4jf.s 			page 12


 620 0022 7047     		bx	lr
 621              	.L81:
 622              		.loc 1 357 0 discriminator 2
 623 0024 014C     		ldr	r4, .L82
 624 0026 2468     		ldr	r4, [r4, #0]
 625 0028 F2E7     		b	.L79
 626              	.L83:
 627 002a 00BF     		.align	2
 628              	.L82:
 629 002c 00000000 		.word	.LANCHOR0
 630              		.cfi_endproc
 631              	.LFE127:
 632              		.size	gwinSetStyle, .-gwinSetStyle
 633              		.section	.text.gwinSetDefaultStyle,"ax",%progbits
 634              		.align	2
 635              		.p2align 4,,15
 636              		.global	gwinSetDefaultStyle
 637              		.thumb
 638              		.thumb_func
 639              		.type	gwinSetDefaultStyle, %function
 640              	gwinSetDefaultStyle:
 641              	.LFB123:
 642              		.loc 1 290 0
 643              		.cfi_startproc
 644              		@ args = 0, pretend = 0, frame = 0
 645              		@ frame_needed = 0, uses_anonymous_args = 0
 646              	.LVL43:
 647 0000 70B5     		push	{r4, r5, r6, lr}
 648              	.LCFI7:
 649              		.cfi_def_cfa_offset 16
 650              		.cfi_offset 4, -16
 651              		.cfi_offset 5, -12
 652              		.cfi_offset 6, -8
 653              		.cfi_offset 14, -4
 654              		.loc 1 292 0
 655 0002 104E     		ldr	r6, .L101
 656 0004 0028     		cmp	r0, #0
 657 0006 18BF     		it	ne
 658 0008 0646     		movne	r6, r0
 659              		.loc 1 294 0
 660 000a A1B1     		cbz	r1, .L99
 661              	.LBB11:
 662              		.loc 1 298 0
 663 000c 0E4B     		ldr	r3, .L101+4
 664 000e 1C68     		ldr	r4, [r3, #0]
 665              	.LVL44:
 666 0010 8CB1     		cbz	r4, .L99
 667 0012 0E4D     		ldr	r5, .L101+8
 668              	.LVL45:
 669              	.L89:
 670              		.loc 1 300 0
 671 0014 A08A     		ldrh	r0, [r4, #20]
 672 0016 00F02001 		and	r1, r0, #32
 673 001a 8AB2     		uxth	r2, r1
 674 001c 1AB1     		cbz	r2, .L88
 675              		.loc 1 300 0 is_stmt 0 discriminator 1
 676 001e A06A     		ldr	r0, [r4, #40]
ARM GAS  /tmp/ccfWt4jf.s 			page 13


 677 0020 2B68     		ldr	r3, [r5, #0]
 678 0022 9842     		cmp	r0, r3
 679 0024 09D0     		beq	.L100
 680              	.L88:
 681              		.loc 1 298 0 is_stmt 1
 682 0026 2468     		ldr	r4, [r4, #0]
 683              	.LVL46:
 684 0028 002C     		cmp	r4, #0
 685 002a F3D1     		bne	.L89
 686              	.LVL47:
 687              	.L87:
 688              	.LBE11:
 689              		.loc 1 304 0
 690 002c 3088     		ldrh	r0, [r6, #0]
 691 002e FFF7FEFF 		bl	gwinSetDefaultBgColor
 692              	.LVL48:
 693              		.loc 1 305 0
 694 0032 2E60     		str	r6, [r5, #0]
 695 0034 70BD     		pop	{r4, r5, r6, pc}
 696              	.LVL49:
 697              	.L99:
 698 0036 054D     		ldr	r5, .L101+8
 699 0038 F8E7     		b	.L87
 700              	.LVL50:
 701              	.L100:
 702              	.LBB12:
 703              		.loc 1 301 0
 704 003a 2046     		mov	r0, r4
 705 003c 3146     		mov	r1, r6
 706 003e FFF7FEFF 		bl	gwinSetStyle
 707              	.LVL51:
 708 0042 F0E7     		b	.L88
 709              	.L102:
 710              		.align	2
 711              	.L101:
 712 0044 00000000 		.word	.LANCHOR2
 713 0048 00000000 		.word	_GWINList
 714 004c 00000000 		.word	.LANCHOR0
 715              	.LBE12:
 716              		.cfi_endproc
 717              	.LFE123:
 718              		.size	gwinSetDefaultStyle, .-gwinSetDefaultStyle
 719              		.section	.text.gwinGetStyle,"ax",%progbits
 720              		.align	2
 721              		.p2align 4,,15
 722              		.global	gwinGetStyle
 723              		.thumb
 724              		.thumb_func
 725              		.type	gwinGetStyle, %function
 726              	gwinGetStyle:
 727              	.LFB128:
 728              		.loc 1 363 0
 729              		.cfi_startproc
 730              		@ args = 0, pretend = 0, frame = 0
 731              		@ frame_needed = 0, uses_anonymous_args = 0
 732              		@ link register save eliminated.
 733              	.LVL52:
ARM GAS  /tmp/ccfWt4jf.s 			page 14


 734              		.loc 1 365 0
 735 0000 806A     		ldr	r0, [r0, #40]
 736              	.LVL53:
 737 0002 7047     		bx	lr
 738              		.cfi_endproc
 739              	.LFE128:
 740              		.size	gwinGetStyle, .-gwinGetStyle
 741 0004 AFF30080 		.section	.text.gwinSetCustomDraw,"ax",%progbits
 741      AFF30080 
 741      AFF30080 
 742              		.align	2
 743              		.p2align 4,,15
 744              		.global	gwinSetCustomDraw
 745              		.thumb
 746              		.thumb_func
 747              		.type	gwinSetCustomDraw, %function
 748              	gwinSetCustomDraw:
 749              	.LFB129:
 750              		.loc 1 367 0
 751              		.cfi_startproc
 752              		@ args = 0, pretend = 0, frame = 0
 753              		@ frame_needed = 0, uses_anonymous_args = 0
 754              		@ link register save eliminated.
 755              	.LVL54:
 756              		.loc 1 368 0
 757 0000 838A     		ldrh	r3, [r0, #20]
 758 0002 03F02003 		and	r3, r3, #32
 759 0006 9BB2     		uxth	r3, r3
 760 0008 23B1     		cbz	r3, .L104
 761              		.loc 1 371 0
 762 000a 21B1     		cbz	r1, .L107
 763              	.LVL55:
 764              	.L106:
 765              		.loc 1 371 0 is_stmt 0 discriminator 3
 766 000c 0162     		str	r1, [r0, #32]
 767              		.loc 1 372 0 is_stmt 1 discriminator 3
 768 000e 4262     		str	r2, [r0, #36]
 769              		.loc 1 374 0 discriminator 3
 770              		.loc 1 373 0 discriminator 3
 771 0010 FFF7FEBF 		b	_gwidgetRedraw
 772              	.LVL56:
 773              	.L104:
 774 0014 7047     		bx	lr
 775              	.L107:
 776              		.loc 1 371 0 discriminator 1
 777 0016 4168     		ldr	r1, [r0, #4]
 778              	.LVL57:
 779 0018 4969     		ldr	r1, [r1, #20]
 780 001a F7E7     		b	.L106
 781              		.cfi_endproc
 782              	.LFE129:
 783              		.size	gwinSetCustomDraw, .-gwinSetCustomDraw
 784 001c AFF30080 		.section	.text.gwinAttachListener,"ax",%progbits
 785              		.align	2
 786              		.p2align 4,,15
 787              		.global	gwinAttachListener
 788              		.thumb
ARM GAS  /tmp/ccfWt4jf.s 			page 15


 789              		.thumb_func
 790              		.type	gwinAttachListener, %function
 791              	gwinAttachListener:
 792              	.LFB130:
 793              		.loc 1 376 0
 794              		.cfi_startproc
 795              		@ args = 0, pretend = 0, frame = 0
 796              		@ frame_needed = 0, uses_anonymous_args = 0
 797              		@ link register save eliminated.
 798              	.LVL58:
 799              		.loc 1 377 0
 800 0000 40F20001 		movw	r1, #:lower16:_gwidgetCreate
 801 0004 C0F20001 		movt	r1, #:upper16:_gwidgetCreate
 802 0008 0022     		movs	r2, #0
 803              		.loc 1 378 0
 804              		.loc 1 377 0
 805 000a FFF7FEBF 		b	geventAttachSource
 806              	.LVL59:
 807              		.cfi_endproc
 808              	.LFE130:
 809              		.size	gwinAttachListener, .-gwinAttachListener
 810 000e 00BF     		.section	.text.gwinAttachMouse,"ax",%progbits
 811              		.align	2
 812              		.p2align 4,,15
 813              		.global	gwinAttachMouse
 814              		.thumb
 815              		.thumb_func
 816              		.type	gwinAttachMouse, %function
 817              	gwinAttachMouse:
 818              	.LFB131:
 819              		.loc 1 381 0
 820              		.cfi_startproc
 821              		@ args = 0, pretend = 0, frame = 0
 822              		@ frame_needed = 0, uses_anonymous_args = 0
 823              	.LVL60:
 824 0000 08B5     		push	{r3, lr}
 825              	.LCFI8:
 826              		.cfi_def_cfa_offset 8
 827              		.cfi_offset 3, -8
 828              		.cfi_offset 14, -4
 829              		.loc 1 384 0
 830 0002 FFF7FEFF 		bl	ginputGetMouse
 831              	.LVL61:
 832 0006 0146     		mov	r1, r0
 833 0008 28B1     		cbz	r0, .L110
 834              		.loc 1 387 0
 835 000a 0348     		ldr	r0, .L111
 836              	.LVL62:
 837 000c 0322     		movs	r2, #3
 838              		.loc 1 388 0
 839 000e BDE80840 		pop	{r3, lr}
 840              		.loc 1 387 0
 841 0012 FFF7FEBF 		b	geventAttachSource
 842              	.LVL63:
 843              	.L110:
 844              		.loc 1 388 0
 845 0016 08BD     		pop	{r3, pc}
ARM GAS  /tmp/ccfWt4jf.s 			page 16


 846              	.L112:
 847              		.align	2
 848              	.L111:
 849 0018 00000000 		.word	.LANCHOR1
 850              		.cfi_endproc
 851              	.LFE131:
 852              		.size	gwinAttachMouse, .-gwinAttachMouse
 853              		.global	BlackWidgetStyle
 854              		.global	WhiteWidgetStyle
 855 001c AFF30080 		.section	.bss.gl,"aw",%nobits
 856              		.align	2
 857              		.set	.LANCHOR1,. + 0
 858              		.type	gl, %object
 859              		.size	gl, 72
 860              	gl:
 861 0000 00000000 		.space	72
 861      00000000 
 861      00000000 
 861      00000000 
 861      00000000 
 862              		.section	.data.defaultStyle,"aw",%progbits
 863              		.align	2
 864              		.set	.LANCHOR0,. + 0
 865              		.type	defaultStyle, %object
 866              		.size	defaultStyle, 4
 867              	defaultStyle:
 868 0000 00000000 		.word	BlackWidgetStyle
 869              		.section	.rodata.BlackWidgetStyle,"a",%progbits
 870              		.align	2
 871              		.set	.LANCHOR2,. + 0
 872              		.type	BlackWidgetStyle, %object
 873              		.size	BlackWidgetStyle, 26
 874              	BlackWidgetStyle:
 875 0000 0000     		.short	0
 876 0002 18C6     		.short	-14824
 877 0004 18C6     		.short	-14824
 878 0006 0C63     		.short	25356
 879 0008 0842     		.short	16904
 880 000a 1084     		.short	-31728
 881 000c 0842     		.short	16904
 882 000e 0842     		.short	16904
 883 0010 0002     		.short	512
 884 0012 FFFF     		.short	-1
 885 0014 18C6     		.short	-14824
 886 0016 1CE7     		.short	-6372
 887 0018 0004     		.short	1024
 888 001a 0000     		.section	.rodata.WhiteWidgetStyle,"a",%progbits
 889              		.align	2
 890              		.type	WhiteWidgetStyle, %object
 891              		.size	WhiteWidgetStyle, 26
 892              	WhiteWidgetStyle:
 893 0000 FFFF     		.short	-1
 894 0002 0000     		.short	0
 895 0004 0842     		.short	16904
 896 0006 1CE7     		.short	-6372
 897 0008 1CE7     		.short	-6372
 898 000a 18C6     		.short	-14824
ARM GAS  /tmp/ccfWt4jf.s 			page 17


 899 000c 1084     		.short	-31728
 900 000e 1CE7     		.short	-6372
 901 0010 18C7     		.short	-14568
 902 0012 0842     		.short	16904
 903 0014 0842     		.short	16904
 904 0016 1084     		.short	-31728
 905 0018 0007     		.short	1792
 906 001a 0000     		.section	.rodata.str1.4,"aMS",%progbits,1
 907              		.align	2
 908              	.LC0:
 909 0000 00       		.ascii	"\000"
 910 0001 000000   		.text
 911              	.Letext0:
 912              		.file 2 "/usr/bin/../lib/gcc/arm-none-eabi/4.7.4/include/stddef.h"
 913              		.file 3 "/usr/bin/../lib/gcc/arm-none-eabi/4.7.4/../../../../arm-none-eabi/include/stdint.h"
 914              		.file 4 "../../os/ports/GCC/ARMCMx/chtypes.h"
 915              		.file 5 "../../os/kernel/include/chlists.h"
 916              		.file 6 "../../os/kernel/include/chthreads.h"
 917              		.file 7 "../../os/ports/GCC/ARMCMx/chcore_v7m.h"
 918              		.file 8 "../../os/kernel/include/chsem.h"
 919              		.file 9 "../../os/kernel/include/chmtx.h"
 920              		.file 10 "../../os/kernel/include/chmemcore.h"
 921              		.file 11 "../../os/kernel/include/chheap.h"
 922              		.file 12 "../../ext/ugfx/include/gos/chibios.h"
 923              		.file 13 "../../ext/ugfx/include/gqueue/gqueue.h"
 924              		.file 14 "../../ext/ugfx/include/gevent/gevent.h"
 925              		.file 15 "../../ext/ugfx/include/gdisp/gdisp.h"
 926              		.file 16 "../../ext/ugfx/include/gwin/gwin.h"
 927              		.file 17 "../../ext/ugfx/include/gwin/class_gwin.h"
 928              		.file 18 "../../ext/ugfx/include/gwin/gwidget.h"
 929              		.file 19 "../../ext/ugfx/include/ginput/mouse.h"
 930              		.file 20 "../../os/ports/common/ARMCMx/CMSIS/include/core_cm4.h"
 931              		.file 21 "/usr/bin/../lib/gcc/arm-none-eabi/4.7.4/../../../../arm-none-eabi/include/string.h"