ARM GAS  /tmp/cc8YuRtW.s 			page 1


   1              		.syntax unified
   2              		.cpu cortex-m4
   3              		.eabi_attribute 27, 3
   4              		.eabi_attribute 28, 1
   5              		.fpu fpv4-sp-d16
   6              		.eabi_attribute 20, 1
   7              		.eabi_attribute 21, 1
   8              		.eabi_attribute 23, 3
   9              		.eabi_attribute 24, 1
  10              		.eabi_attribute 25, 1
  11              		.eabi_attribute 26, 1
  12              		.eabi_attribute 30, 2
  13              		.eabi_attribute 34, 1
  14              		.eabi_attribute 18, 4
  15              		.thumb
  16              		.file	"image.c"
  17              		.text
  18              	.Ltext0:
  19              		.cfi_sections	.debug_frame
  20              		.section	.text.ImageMemorySeek,"ax",%progbits
  21              		.align	2
  22              		.p2align 4,,15
  23              		.thumb
  24              		.thumb_func
  25              		.type	ImageMemorySeek, %function
  26              	ImageMemorySeek:
  27              	.LFB119:
  28              		.file 1 "../../ext/ugfx/src/gdisp/image.c"
  29              		.loc 1 66 0
  30              		.cfi_startproc
  31              		@ args = 0, pretend = 0, frame = 0
  32              		@ frame_needed = 0, uses_anonymous_args = 0
  33              		@ link register save eliminated.
  34              	.LVL0:
  35              		.loc 1 67 0
  36 0000 0368     		ldr	r3, [r0, #0]
  37 0002 0133     		adds	r3, r3, #1
  38              		.loc 1 68 0
  39 0004 18BF     		it	ne
  40 0006 4160     		strne	r1, [r0, #4]
  41 0008 7047     		bx	lr
  42              		.cfi_endproc
  43              	.LFE119:
  44              		.size	ImageMemorySeek, .-ImageMemorySeek
  45 000a 00BFAFF3 		.section	.text.ImageMemoryClose,"ax",%progbits
  45      0080
  46              		.align	2
  47              		.p2align 4,,15
  48              		.thumb
  49              		.thumb_func
  50              		.type	ImageMemoryClose, %function
  51              	ImageMemoryClose:
  52              	.LFB120:
  53              		.loc 1 71 0
  54              		.cfi_startproc
  55              		@ args = 0, pretend = 0, frame = 0
  56              		@ frame_needed = 0, uses_anonymous_args = 0
ARM GAS  /tmp/cc8YuRtW.s 			page 2


  57              		@ link register save eliminated.
  58              	.LVL1:
  59              		.loc 1 73 0
  60 0000 4FF0FF32 		mov	r2, #-1
  61 0004 0023     		movs	r3, #0
  62 0006 80E80C00 		stmia	r0, {r2, r3}
  63 000a 7047     		bx	lr
  64              		.cfi_endproc
  65              	.LFE120:
  66              		.size	ImageMemoryClose, .-ImageMemoryClose
  67 000c AFF30080 		.section	.text.ImageBaseFileStreamRead,"ax",%progbits
  68              		.align	2
  69              		.p2align 4,,15
  70              		.thumb
  71              		.thumb_func
  72              		.type	ImageBaseFileStreamRead, %function
  73              	ImageBaseFileStreamRead:
  74              	.LFB122:
  75              		.loc 1 87 0
  76              		.cfi_startproc
  77              		@ args = 0, pretend = 0, frame = 0
  78              		@ frame_needed = 0, uses_anonymous_args = 0
  79              	.LVL2:
  80 0000 10B5     		push	{r4, lr}
  81              	.LCFI0:
  82              		.cfi_def_cfa_offset 8
  83              		.cfi_offset 4, -8
  84              		.cfi_offset 14, -4
  85              		.loc 1 87 0
  86 0002 0446     		mov	r4, r0
  87              		.loc 1 88 0
  88 0004 0068     		ldr	r0, [r0, #0]
  89              	.LVL3:
  90 0006 431C     		adds	r3, r0, #1
  91 0008 06D0     		beq	.L9
  92              		.loc 1 89 0
  93 000a 0368     		ldr	r3, [r0, #0]
  94 000c 5B68     		ldr	r3, [r3, #4]
  95 000e 9847     		blx	r3
  96              	.LVL4:
  97              		.loc 1 90 0
  98 0010 6168     		ldr	r1, [r4, #4]
  99 0012 0A18     		adds	r2, r1, r0
 100 0014 6260     		str	r2, [r4, #4]
 101              		.loc 1 91 0
 102 0016 10BD     		pop	{r4, pc}
 103              	.LVL5:
 104              	.L9:
 105              		.loc 1 88 0
 106 0018 0020     		movs	r0, #0
 107              		.loc 1 92 0
 108 001a 10BD     		pop	{r4, pc}
 109              		.cfi_endproc
 110              	.LFE122:
 111              		.size	ImageBaseFileStreamRead, .-ImageBaseFileStreamRead
 112 001c AFF30080 		.section	.text.ImageBaseFileStreamSeek,"ax",%progbits
 113              		.align	2
ARM GAS  /tmp/cc8YuRtW.s 			page 3


 114              		.p2align 4,,15
 115              		.thumb
 116              		.thumb_func
 117              		.type	ImageBaseFileStreamSeek, %function
 118              	ImageBaseFileStreamSeek:
 119              	.LFB123:
 120              		.loc 1 94 0
 121              		.cfi_startproc
 122              		@ args = 0, pretend = 0, frame = 0
 123              		@ frame_needed = 0, uses_anonymous_args = 0
 124              	.LVL6:
 125 0000 38B5     		push	{r3, r4, r5, lr}
 126              	.LCFI1:
 127              		.cfi_def_cfa_offset 16
 128              		.cfi_offset 3, -16
 129              		.cfi_offset 4, -12
 130              		.cfi_offset 5, -8
 131              		.cfi_offset 14, -4
 132              		.loc 1 94 0
 133 0002 0446     		mov	r4, r0
 134              		.loc 1 95 0
 135 0004 0068     		ldr	r0, [r0, #0]
 136              	.LVL7:
 137 0006 421C     		adds	r2, r0, #1
 138              		.loc 1 94 0
 139 0008 0D46     		mov	r5, r1
 140              		.loc 1 95 0
 141 000a 06D0     		beq	.L11
 142              		.loc 1 96 0
 143 000c 6368     		ldr	r3, [r4, #4]
 144 000e 8B42     		cmp	r3, r1
 145 0010 03D0     		beq	.L11
 146              		.loc 1 97 0
 147 0012 0268     		ldr	r2, [r0, #0]
 148 0014 136A     		ldr	r3, [r2, #32]
 149 0016 9847     		blx	r3
 150              	.LVL8:
 151              		.loc 1 98 0
 152 0018 6560     		str	r5, [r4, #4]
 153              	.L11:
 154 001a 38BD     		pop	{r3, r4, r5, pc}
 155              		.cfi_endproc
 156              	.LFE123:
 157              		.size	ImageBaseFileStreamSeek, .-ImageBaseFileStreamSeek
 158 001c AFF30080 		.section	.text.ImageBaseFileStreamClose,"ax",%progbits
 159              		.align	2
 160              		.p2align 4,,15
 161              		.thumb
 162              		.thumb_func
 163              		.type	ImageBaseFileStreamClose, %function
 164              	ImageBaseFileStreamClose:
 165              	.LFB124:
 166              		.loc 1 102 0
 167              		.cfi_startproc
 168              		@ args = 0, pretend = 0, frame = 0
 169              		@ frame_needed = 0, uses_anonymous_args = 0
 170              	.LVL9:
ARM GAS  /tmp/cc8YuRtW.s 			page 4


 171 0000 10B5     		push	{r4, lr}
 172              	.LCFI2:
 173              		.cfi_def_cfa_offset 8
 174              		.cfi_offset 4, -8
 175              		.cfi_offset 14, -4
 176              		.loc 1 102 0
 177 0002 0446     		mov	r4, r0
 178              		.loc 1 103 0
 179 0004 0068     		ldr	r0, [r0, #0]
 180              	.LVL10:
 181 0006 431C     		adds	r3, r0, #1
 182 0008 07D0     		beq	.L16
 183              		.loc 1 104 0
 184 000a 0368     		ldr	r3, [r0, #0]
 185 000c 1969     		ldr	r1, [r3, #16]
 186 000e 8847     		blx	r1
 187              	.LVL11:
 188              		.loc 1 106 0
 189 0010 4FF0FF31 		mov	r1, #-1
 190 0014 0023     		movs	r3, #0
 191 0016 84E80A00 		stmia	r4, {r1, r3}
 192              	.L16:
 193 001a 10BD     		pop	{r4, pc}
 194              		.cfi_endproc
 195              	.LFE124:
 196              		.size	ImageBaseFileStreamClose, .-ImageBaseFileStreamClose
 197 001c AFF30080 		.section	.text.ImageMemoryRead,"ax",%progbits
 198              		.align	2
 199              		.p2align 4,,15
 200              		.thumb
 201              		.thumb_func
 202              		.type	ImageMemoryRead, %function
 203              	ImageMemoryRead:
 204              	.LFB118:
 205              		.loc 1 59 0
 206              		.cfi_startproc
 207              		@ args = 0, pretend = 0, frame = 0
 208              		@ frame_needed = 0, uses_anonymous_args = 0
 209              	.LVL12:
 210              		.loc 1 60 0
 211 0000 0368     		ldr	r3, [r0, #0]
 212              		.loc 1 59 0
 213 0002 70B5     		push	{r4, r5, r6, lr}
 214              	.LCFI3:
 215              		.cfi_def_cfa_offset 16
 216              		.cfi_offset 4, -16
 217              		.cfi_offset 5, -12
 218              		.cfi_offset 6, -8
 219              		.cfi_offset 14, -4
 220              		.loc 1 59 0
 221 0004 0446     		mov	r4, r0
 222              		.loc 1 60 0
 223 0006 581C     		adds	r0, r3, #1
 224              	.LVL13:
 225              		.loc 1 59 0
 226 0008 1546     		mov	r5, r2
 227              		.loc 1 60 0
ARM GAS  /tmp/cc8YuRtW.s 			page 5


 228 000a 09D0     		beq	.L23
 229              		.loc 1 61 0
 230 000c 6668     		ldr	r6, [r4, #4]
 231 000e 0846     		mov	r0, r1
 232 0010 9919     		adds	r1, r3, r6
 233              	.LVL14:
 234 0012 FFF7FEFF 		bl	memcpy
 235              	.LVL15:
 236              		.loc 1 62 0
 237 0016 6068     		ldr	r0, [r4, #4]
 238 0018 4119     		adds	r1, r0, r5
 239 001a 6160     		str	r1, [r4, #4]
 240              		.loc 1 64 0
 241 001c 2846     		mov	r0, r5
 242 001e 70BD     		pop	{r4, r5, r6, pc}
 243              	.LVL16:
 244              	.L23:
 245              		.loc 1 60 0
 246 0020 0025     		movs	r5, #0
 247              		.loc 1 64 0
 248 0022 2846     		mov	r0, r5
 249 0024 70BD     		pop	{r4, r5, r6, pc}
 250              		.cfi_endproc
 251              	.LFE118:
 252              		.size	ImageMemoryRead, .-ImageMemoryRead
 253 0026 00BFAFF3 		.section	.text.gdispImageSetMemoryReader,"ax",%progbits
 253      0080AFF3 
 253      0080
 254              		.align	2
 255              		.p2align 4,,15
 256              		.global	gdispImageSetMemoryReader
 257              		.thumb
 258              		.thumb_func
 259              		.type	gdispImageSetMemoryReader, %function
 260              	gdispImageSetMemoryReader:
 261              	.LFB121:
 262              		.loc 1 79 0
 263              		.cfi_startproc
 264              		@ args = 0, pretend = 0, frame = 0
 265              		@ frame_needed = 0, uses_anonymous_args = 0
 266              		@ link register save eliminated.
 267              	.LVL17:
 268              		.loc 1 80 0
 269 0000 40F20003 		movw	r3, #:lower16:.LANCHOR0
 270 0004 C0F20003 		movt	r3, #:upper16:.LANCHOR0
 271              		.loc 1 81 0
 272 0008 0022     		movs	r2, #0
 273              		.loc 1 80 0
 274 000a 4361     		str	r3, [r0, #20]
 275              		.loc 1 81 0
 276 000c 0261     		str	r2, [r0, #16]
 277              		.loc 1 82 0
 278 000e C160     		str	r1, [r0, #12]
 279              		.loc 1 84 0
 280 0010 0120     		movs	r0, #1
 281              	.LVL18:
 282 0012 7047     		bx	lr
ARM GAS  /tmp/cc8YuRtW.s 			page 6


 283              		.cfi_endproc
 284              	.LFE121:
 285              		.size	gdispImageSetMemoryReader, .-gdispImageSetMemoryReader
 286 0014 AFF30080 		.section	.text.gdispImageSetBaseFileStreamReader,"ax",%progbits
 286      AFF30080 
 286      AFF30080 
 287              		.align	2
 288              		.p2align 4,,15
 289              		.global	gdispImageSetBaseFileStreamReader
 290              		.thumb
 291              		.thumb_func
 292              		.type	gdispImageSetBaseFileStreamReader, %function
 293              	gdispImageSetBaseFileStreamReader:
 294              	.LFB125:
 295              		.loc 1 112 0
 296              		.cfi_startproc
 297              		@ args = 0, pretend = 0, frame = 0
 298              		@ frame_needed = 0, uses_anonymous_args = 0
 299              		@ link register save eliminated.
 300              	.LVL19:
 301              		.loc 1 113 0
 302 0000 40F20003 		movw	r3, #:lower16:.LANCHOR1
 303 0004 C0F20003 		movt	r3, #:upper16:.LANCHOR1
 304              		.loc 1 114 0
 305 0008 0022     		movs	r2, #0
 306              		.loc 1 113 0
 307 000a 4361     		str	r3, [r0, #20]
 308              		.loc 1 114 0
 309 000c 0261     		str	r2, [r0, #16]
 310              		.loc 1 115 0
 311 000e C160     		str	r1, [r0, #12]
 312              		.loc 1 117 0
 313 0010 0120     		movs	r0, #1
 314              	.LVL20:
 315 0012 7047     		bx	lr
 316              		.cfi_endproc
 317              	.LFE125:
 318              		.size	gdispImageSetBaseFileStreamReader, .-gdispImageSetBaseFileStreamReader
 319 0014 AFF30080 		.section	.text.gdispImageOpen,"ax",%progbits
 319      AFF30080 
 319      AFF30080 
 320              		.align	2
 321              		.p2align 4,,15
 322              		.global	gdispImageOpen
 323              		.thumb
 324              		.thumb_func
 325              		.type	gdispImageOpen, %function
 326              	gdispImageOpen:
 327              	.LFB126:
 328              		.loc 1 162 0
 329              		.cfi_startproc
 330              		@ args = 0, pretend = 0, frame = 0
 331              		@ frame_needed = 0, uses_anonymous_args = 0
 332              	.LVL21:
 333 0000 2DE9F041 		push	{r4, r5, r6, r7, r8, lr}
 334              	.LCFI4:
 335              		.cfi_def_cfa_offset 24
ARM GAS  /tmp/cc8YuRtW.s 			page 7


 336              		.cfi_offset 4, -24
 337              		.cfi_offset 5, -20
 338              		.cfi_offset 6, -16
 339              		.cfi_offset 7, -12
 340              		.cfi_offset 8, -8
 341              		.cfi_offset 14, -4
 342              		.loc 1 166 0
 343 0004 154A     		ldr	r2, .L32
 344              		.loc 1 162 0
 345 0006 0446     		mov	r4, r0
 346              		.loc 1 165 0
 347 0008 4FF6FF71 		movw	r1, #65535
 348              		.loc 1 166 0
 349 000c 1046     		mov	r0, r2
 350              	.LVL22:
 351              		.loc 1 165 0
 352 000e A180     		strh	r1, [r4, #4]	@ movhi
 353              		.loc 1 166 0
 354 0010 A261     		str	r2, [r4, #24]
 355              		.loc 1 168 0
 356 0012 48F20107 		movw	r7, #32769
 357              		.loc 1 173 0
 358 0016 04F10C06 		add	r6, r4, #12
 359              		.loc 1 166 0
 360 001a 02F11408 		add	r8, r2, #20
 361 001e 07E0     		b	.L29
 362              	.LVL23:
 363              	.L27:
 364              		.loc 1 173 0
 365 0020 6269     		ldr	r2, [r4, #20]
 366 0022 5368     		ldr	r3, [r2, #4]
 367 0024 9847     		blx	r3
 368              	.LVL24:
 369              		.loc 1 166 0
 370 0026 A069     		ldr	r0, [r4, #24]
 371 0028 1430     		adds	r0, r0, #20
 372 002a 4045     		cmp	r0, r8
 373 002c A061     		str	r0, [r4, #24]
 374 002e 0DD2     		bcs	.L31
 375              	.LVL25:
 376              	.L29:
 377              		.loc 1 167 0
 378 0030 0368     		ldr	r3, [r0, #0]
 379 0032 2046     		mov	r0, r4
 380 0034 9847     		blx	r3
 381              	.LVL26:
 382 0036 0546     		mov	r5, r0
 383              	.LVL27:
 384              		.loc 1 173 0
 385 0038 0021     		movs	r1, #0
 386              		.loc 1 168 0
 387 003a BD42     		cmp	r5, r7
 388              		.loc 1 173 0
 389 003c 3046     		mov	r0, r6
 390              	.LVL28:
 391              		.loc 1 168 0
 392 003e EFD0     		beq	.L27
ARM GAS  /tmp/cc8YuRtW.s 			page 8


 393              		.loc 1 169 0
 394 0040 2B04     		lsls	r3, r5, #16
 395 0042 08D5     		bpl	.L28
 396              		.loc 1 170 0
 397 0044 A161     		str	r1, [r4, #24]
 398              		.loc 1 180 0
 399 0046 2846     		mov	r0, r5
 400 0048 BDE8F081 		pop	{r4, r5, r6, r7, r8, pc}
 401              	.L31:
 402              		.loc 1 175 0
 403 004c 0021     		movs	r1, #0
 404 004e 2180     		strh	r1, [r4, #0]	@ movhi
 405              		.loc 1 176 0
 406 0050 6180     		strh	r1, [r4, #2]	@ movhi
 407              		.loc 1 177 0
 408 0052 A161     		str	r1, [r4, #24]
 409              		.loc 1 178 0
 410 0054 E161     		str	r1, [r4, #28]
 411              	.L28:
 412              		.loc 1 180 0
 413 0056 2846     		mov	r0, r5
 414 0058 BDE8F081 		pop	{r4, r5, r6, r7, r8, pc}
 415              	.L33:
 416              		.align	2
 417              	.L32:
 418 005c 00000000 		.word	.LANCHOR2
 419              		.cfi_endproc
 420              	.LFE126:
 421              		.size	gdispImageOpen, .-gdispImageOpen
 422              		.section	.text.gdispImageClose,"ax",%progbits
 423              		.align	2
 424              		.p2align 4,,15
 425              		.global	gdispImageClose
 426              		.thumb
 427              		.thumb_func
 428              		.type	gdispImageClose, %function
 429              	gdispImageClose:
 430              	.LFB127:
 431              		.loc 1 182 0
 432              		.cfi_startproc
 433              		@ args = 0, pretend = 0, frame = 0
 434              		@ frame_needed = 0, uses_anonymous_args = 0
 435              	.LVL29:
 436              		.loc 1 183 0
 437 0000 8369     		ldr	r3, [r0, #24]
 438              		.loc 1 182 0
 439 0002 10B5     		push	{r4, lr}
 440              	.LCFI5:
 441              		.cfi_def_cfa_offset 8
 442              		.cfi_offset 4, -8
 443              		.cfi_offset 14, -4
 444              		.loc 1 182 0
 445 0004 0446     		mov	r4, r0
 446              		.loc 1 183 0
 447 0006 3BB1     		cbz	r3, .L35
 448              		.loc 1 184 0
 449 0008 5B68     		ldr	r3, [r3, #4]
ARM GAS  /tmp/cc8YuRtW.s 			page 9


 450 000a 9847     		blx	r3
 451              	.LVL30:
 452              	.L36:
 453              		.loc 1 187 0
 454 000c 0020     		movs	r0, #0
 455 000e 2080     		strh	r0, [r4, #0]	@ movhi
 456              		.loc 1 188 0
 457 0010 6080     		strh	r0, [r4, #2]	@ movhi
 458              		.loc 1 189 0
 459 0012 A061     		str	r0, [r4, #24]
 460              		.loc 1 190 0
 461 0014 E061     		str	r0, [r4, #28]
 462 0016 10BD     		pop	{r4, pc}
 463              	.LVL31:
 464              	.L35:
 465              		.loc 1 186 0
 466 0018 4169     		ldr	r1, [r0, #20]
 467 001a 00F10C00 		add	r0, r0, #12
 468              	.LVL32:
 469 001e 8A68     		ldr	r2, [r1, #8]
 470 0020 9047     		blx	r2
 471              	.LVL33:
 472 0022 F3E7     		b	.L36
 473              		.cfi_endproc
 474              	.LFE127:
 475              		.size	gdispImageClose, .-gdispImageClose
 476 0024 AFF30080 		.section	.text.gdispImageIsOpen,"ax",%progbits
 476      AFF30080 
 476      AFF30080 
 477              		.align	2
 478              		.p2align 4,,15
 479              		.global	gdispImageIsOpen
 480              		.thumb
 481              		.thumb_func
 482              		.type	gdispImageIsOpen, %function
 483              	gdispImageIsOpen:
 484              	.LFB128:
 485              		.loc 1 193 0
 486              		.cfi_startproc
 487              		@ args = 0, pretend = 0, frame = 0
 488              		@ frame_needed = 0, uses_anonymous_args = 0
 489              		@ link register save eliminated.
 490              	.LVL34:
 491              		.loc 1 194 0
 492 0000 0388     		ldrh	r3, [r0, #0]
 493 0002 23B1     		cbz	r3, .L39
 494              		.loc 1 194 0 is_stmt 0 discriminator 1
 495 0004 8069     		ldr	r0, [r0, #24]
 496              	.LVL35:
 497 0006 0030     		adds	r0, r0, #0
 498 0008 18BF     		it	ne
 499 000a 0120     		movne	r0, #1
 500 000c 7047     		bx	lr
 501              	.LVL36:
 502              	.L39:
 503              		.loc 1 194 0
 504 000e 1846     		mov	r0, r3
ARM GAS  /tmp/cc8YuRtW.s 			page 10


 505              	.LVL37:
 506              		.loc 1 195 0 is_stmt 1
 507 0010 7047     		bx	lr
 508              		.cfi_endproc
 509              	.LFE128:
 510              		.size	gdispImageIsOpen, .-gdispImageIsOpen
 511 0012 00BFAFF3 		.section	.text.gdispImageSetBgColor,"ax",%progbits
 511      0080AFF3 
 511      0080AFF3 
 511      0080
 512              		.align	2
 513              		.p2align 4,,15
 514              		.global	gdispImageSetBgColor
 515              		.thumb
 516              		.thumb_func
 517              		.type	gdispImageSetBgColor, %function
 518              	gdispImageSetBgColor:
 519              	.LFB129:
 520              		.loc 1 197 0
 521              		.cfi_startproc
 522              		@ args = 0, pretend = 0, frame = 0
 523              		@ frame_needed = 0, uses_anonymous_args = 0
 524              		@ link register save eliminated.
 525              	.LVL38:
 526              		.loc 1 198 0
 527 0000 8180     		strh	r1, [r0, #4]	@ movhi
 528 0002 7047     		bx	lr
 529              		.cfi_endproc
 530              	.LFE129:
 531              		.size	gdispImageSetBgColor, .-gdispImageSetBgColor
 532 0004 AFF30080 		.section	.text.gdispImageCache,"ax",%progbits
 532      AFF30080 
 532      AFF30080 
 533              		.align	2
 534              		.p2align 4,,15
 535              		.global	gdispImageCache
 536              		.thumb
 537              		.thumb_func
 538              		.type	gdispImageCache, %function
 539              	gdispImageCache:
 540              	.LFB130:
 541              		.loc 1 201 0
 542              		.cfi_startproc
 543              		@ args = 0, pretend = 0, frame = 0
 544              		@ frame_needed = 0, uses_anonymous_args = 0
 545              	.LVL39:
 546 0000 08B5     		push	{r3, lr}
 547              	.LCFI6:
 548              		.cfi_def_cfa_offset 8
 549              		.cfi_offset 3, -8
 550              		.cfi_offset 14, -4
 551              		.loc 1 202 0
 552 0002 8369     		ldr	r3, [r0, #24]
 553 0004 13B1     		cbz	r3, .L43
 554              		.loc 1 203 0
 555 0006 9968     		ldr	r1, [r3, #8]
 556 0008 8847     		blx	r1
ARM GAS  /tmp/cc8YuRtW.s 			page 11


 557              	.LVL40:
 558 000a 08BD     		pop	{r3, pc}
 559              	.LVL41:
 560              	.L43:
 561              		.loc 1 202 0
 562 000c 48F20100 		movw	r0, #32769
 563              	.LVL42:
 564              		.loc 1 204 0
 565 0010 08BD     		pop	{r3, pc}
 566              		.cfi_endproc
 567              	.LFE130:
 568              		.size	gdispImageCache, .-gdispImageCache
 569 0012 00BFAFF3 		.section	.text.gdispImageDraw,"ax",%progbits
 569      0080AFF3 
 569      0080AFF3 
 569      0080
 570              		.align	2
 571              		.p2align 4,,15
 572              		.global	gdispImageDraw
 573              		.thumb
 574              		.thumb_func
 575              		.type	gdispImageDraw, %function
 576              	gdispImageDraw:
 577              	.LFB131:
 578              		.loc 1 206 0
 579              		.cfi_startproc
 580              		@ args = 12, pretend = 0, frame = 0
 581              		@ frame_needed = 0, uses_anonymous_args = 0
 582              	.LVL43:
 583 0000 30B5     		push	{r4, r5, lr}
 584              	.LCFI7:
 585              		.cfi_def_cfa_offset 12
 586              		.cfi_offset 4, -12
 587              		.cfi_offset 5, -8
 588              		.cfi_offset 14, -4
 589              		.loc 1 207 0
 590 0002 8469     		ldr	r4, [r0, #24]
 591              		.loc 1 206 0
 592 0004 85B0     		sub	sp, sp, #20
 593              	.LCFI8:
 594              		.cfi_def_cfa_offset 32
 595              		.loc 1 207 0
 596 0006 64B1     		cbz	r4, .L46
 597              		.loc 1 208 0
 598 0008 BDF92050 		ldrsh	r5, [sp, #32]
 599 000c 0095     		str	r5, [sp, #0]
 600 000e BDF92450 		ldrsh	r5, [sp, #36]
 601 0012 0195     		str	r5, [sp, #4]
 602 0014 BDF92850 		ldrsh	r5, [sp, #40]
 603 0018 0295     		str	r5, [sp, #8]
 604 001a E468     		ldr	r4, [r4, #12]
 605 001c A047     		blx	r4
 606              	.LVL44:
 607              	.L45:
 608              		.loc 1 209 0
 609 001e 05B0     		add	sp, sp, #20
 610 0020 30BD     		pop	{r4, r5, pc}
ARM GAS  /tmp/cc8YuRtW.s 			page 12


 611              	.LVL45:
 612              	.L46:
 613              		.loc 1 207 0
 614 0022 48F20100 		movw	r0, #32769
 615              	.LVL46:
 616 0026 FAE7     		b	.L45
 617              		.cfi_endproc
 618              	.LFE131:
 619              		.size	gdispImageDraw, .-gdispImageDraw
 620 0028 AFF30080 		.section	.text.gdispImageNext,"ax",%progbits
 620      AFF30080 
 621              		.align	2
 622              		.p2align 4,,15
 623              		.global	gdispImageNext
 624              		.thumb
 625              		.thumb_func
 626              		.type	gdispImageNext, %function
 627              	gdispImageNext:
 628              	.LFB132:
 629              		.loc 1 211 0
 630              		.cfi_startproc
 631              		@ args = 0, pretend = 0, frame = 0
 632              		@ frame_needed = 0, uses_anonymous_args = 0
 633              	.LVL47:
 634 0000 08B5     		push	{r3, lr}
 635              	.LCFI9:
 636              		.cfi_def_cfa_offset 8
 637              		.cfi_offset 3, -8
 638              		.cfi_offset 14, -4
 639              		.loc 1 212 0
 640 0002 8369     		ldr	r3, [r0, #24]
 641 0004 13B1     		cbz	r3, .L49
 642              		.loc 1 213 0
 643 0006 1969     		ldr	r1, [r3, #16]
 644 0008 8847     		blx	r1
 645              	.LVL48:
 646 000a 08BD     		pop	{r3, pc}
 647              	.LVL49:
 648              	.L49:
 649              		.loc 1 212 0
 650 000c 48F20100 		movw	r0, #32769
 651              	.LVL50:
 652              		.loc 1 214 0
 653 0010 08BD     		pop	{r3, pc}
 654              		.cfi_endproc
 655              	.LFE132:
 656              		.size	gdispImageNext, .-gdispImageNext
 657 0012 00BFAFF3 		.section	.text.gdispImageAlloc,"ax",%progbits
 657      0080AFF3 
 657      0080AFF3 
 657      0080
 658              		.align	2
 659              		.p2align 4,,15
 660              		.global	gdispImageAlloc
 661              		.thumb
 662              		.thumb_func
 663              		.type	gdispImageAlloc, %function
ARM GAS  /tmp/cc8YuRtW.s 			page 13


 664              	gdispImageAlloc:
 665              	.LFB133:
 666              		.loc 1 217 0
 667              		.cfi_startproc
 668              		@ args = 0, pretend = 0, frame = 0
 669              		@ frame_needed = 0, uses_anonymous_args = 0
 670              		@ link register save eliminated.
 671              	.LVL51:
 672              		.loc 1 230 0
 673 0000 0020     		movs	r0, #0
 674              	.LVL52:
 675              		.loc 1 232 0
 676              		.loc 1 230 0
 677 0002 FFF7FEBF 		b	chHeapAlloc
 678              	.LVL53:
 679              		.cfi_endproc
 680              	.LFE133:
 681              		.size	gdispImageAlloc, .-gdispImageAlloc
 682 0006 00BFAFF3 		.section	.text.gdispImageFree,"ax",%progbits
 682      0080AFF3 
 682      0080
 683              		.align	2
 684              		.p2align 4,,15
 685              		.global	gdispImageFree
 686              		.thumb
 687              		.thumb_func
 688              		.type	gdispImageFree, %function
 689              	gdispImageFree:
 690              	.LFB134:
 691              		.loc 1 234 0
 692              		.cfi_startproc
 693              		@ args = 0, pretend = 0, frame = 0
 694              		@ frame_needed = 0, uses_anonymous_args = 0
 695              		@ link register save eliminated.
 696              	.LVL54:
 697              		.loc 1 241 0
 698 0000 0846     		mov	r0, r1
 699              	.LVL55:
 700              		.loc 1 243 0
 701              		.loc 1 241 0
 702 0002 FFF7FEBF 		b	chHeapFree
 703              	.LVL56:
 704              		.cfi_endproc
 705              	.LFE134:
 706              		.size	gdispImageFree, .-gdispImageFree
 707 0006 00BFAFF3 		.section	.data.ImageHandlers,"aw",%progbits
 707      0080AFF3 
 707      0080
 708              		.align	2
 709              		.set	.LANCHOR2,. + 0
 710              		.type	ImageHandlers, %object
 711              		.size	ImageHandlers, 20
 712              	ImageHandlers:
 713 0000 00000000 		.word	gdispImageOpen_GIF
 714 0004 00000000 		.word	gdispImageClose_GIF
 715 0008 00000000 		.word	gdispImageCache_GIF
 716 000c 00000000 		.word	gdispImageDraw_GIF
ARM GAS  /tmp/cc8YuRtW.s 			page 14


 717 0010 00000000 		.word	gdispImageNext_GIF
 718              		.section	.rodata.ImageMemoryFunctions,"a",%progbits
 719              		.align	2
 720              		.set	.LANCHOR0,. + 0
 721              		.type	ImageMemoryFunctions, %object
 722              		.size	ImageMemoryFunctions, 12
 723              	ImageMemoryFunctions:
 724 0000 00000000 		.word	ImageMemoryRead
 725 0004 00000000 		.word	ImageMemorySeek
 726 0008 00000000 		.word	ImageMemoryClose
 727              		.section	.rodata.ImageBaseFileStreamFunctions,"a",%progbits
 728              		.align	2
 729              		.set	.LANCHOR1,. + 0
 730              		.type	ImageBaseFileStreamFunctions, %object
 731              		.size	ImageBaseFileStreamFunctions, 12
 732              	ImageBaseFileStreamFunctions:
 733 0000 00000000 		.word	ImageBaseFileStreamRead
 734 0004 00000000 		.word	ImageBaseFileStreamSeek
 735 0008 00000000 		.word	ImageBaseFileStreamClose
 736              		.text
 737              	.Letext0:
 738              		.file 2 "/usr/bin/../lib/gcc/arm-none-eabi/4.7.4/include/stddef.h"
 739              		.file 3 "/usr/bin/../lib/gcc/arm-none-eabi/4.7.4/../../../../arm-none-eabi/include/stdint.h"
 740              		.file 4 "../../os/ports/GCC/ARMCMx/chtypes.h"
 741              		.file 5 "../../os/kernel/include/chlists.h"
 742              		.file 6 "../../os/kernel/include/chthreads.h"
 743              		.file 7 "../../os/ports/GCC/ARMCMx/chcore_v7m.h"
 744              		.file 8 "../../os/kernel/include/chmtx.h"
 745              		.file 9 "../../os/kernel/include/chmemcore.h"
 746              		.file 10 "../../os/kernel/include/chheap.h"
 747              		.file 11 "../../os/kernel/include/chfiles.h"
 748              		.file 12 "../../ext/ugfx/include/gos/chibios.h"
 749              		.file 13 "../../ext/ugfx/include/gdisp/gdisp.h"
 750              		.file 14 "../../ext/ugfx/include/gdisp/image.h"
 751              		.file 15 "<built-in>"
 752              		.file 16 "../../os/ports/common/ARMCMx/CMSIS/include/core_cm4.h"