ARM GAS  /tmp/ccVmA1FS.s 			page 1


   1              		.syntax unified
   2              		.cpu cortex-m4
   3              		.eabi_attribute 27, 3
   4              		.eabi_attribute 28, 1
   5              		.fpu fpv4-sp-d16
   6              		.eabi_attribute 20, 1
   7              		.eabi_attribute 21, 1
   8              		.eabi_attribute 23, 3
   9              		.eabi_attribute 24, 1
  10              		.eabi_attribute 25, 1
  11              		.eabi_attribute 26, 1
  12              		.eabi_attribute 30, 2
  13              		.eabi_attribute 34, 1
  14              		.eabi_attribute 18, 4
  15              		.thumb
  16              		.file	"label.c"
  17              		.text
  18              	.Ltext0:
  19              		.cfi_sections	.debug_frame
  20              		.section	.text.gwinLabelDefaultDraw,"ax",%progbits
  21              		.align	2
  22              		.p2align 4,,15
  23              		.thumb
  24              		.thumb_func
  25              		.type	gwinLabelDefaultDraw, %function
  26              	gwinLabelDefaultDraw:
  27              	.LFB120:
  28              		.file 1 "../../ext/ugfx/src/gwin/label.c"
  29              		.loc 1 41 0
  30              		.cfi_startproc
  31              		@ args = 0, pretend = 0, frame = 0
  32              		@ frame_needed = 0, uses_anonymous_args = 0
  33              	.LVL0:
  34 0000 F0B5     		push	{r4, r5, r6, r7, lr}
  35              	.LCFI0:
  36              		.cfi_def_cfa_offset 20
  37              		.cfi_offset 4, -20
  38              		.cfi_offset 5, -16
  39              		.cfi_offset 6, -12
  40              		.cfi_offset 7, -8
  41              		.cfi_offset 14, -4
  42              		.loc 1 45 0
  43 0002 838A     		ldrh	r3, [r0, #20]
  44 0004 03F48052 		and	r2, r3, #4096
  45              		.loc 1 41 0
  46 0008 0446     		mov	r4, r0
  47              		.loc 1 45 0
  48 000a 90B2     		uxth	r0, r2
  49              	.LVL1:
  50              		.loc 1 41 0
  51 000c 87B0     		sub	sp, sp, #28
  52              	.LCFI1:
  53              		.cfi_def_cfa_offset 48
  54              		.loc 1 45 0
  55 000e 0028     		cmp	r0, #0
  56 0010 39D1     		bne	.L13
  57              		.loc 1 45 0 is_stmt 0 discriminator 2
ARM GAS  /tmp/ccVmA1FS.s 			page 2


  58 0012 A589     		ldrh	r5, [r4, #12]
  59              	.LVL2:
  60              	.L3:
  61              		.loc 1 46 0 is_stmt 1 discriminator 3
  62 0014 03F40053 		and	r3, r3, #8192
  63 0018 9AB2     		uxth	r2, r3
  64 001a 002A     		cmp	r2, #0
  65 001c 2ED1     		bne	.L14
  66              		.loc 1 46 0 is_stmt 0 discriminator 2
  67 001e E089     		ldrh	r0, [r4, #14]
  68              	.L5:
  69              	.LVL3:
  70              		.loc 1 48 0 is_stmt 1 discriminator 3
  71 0020 B4F90C10 		ldrsh	r1, [r4, #12]
  72 0024 2DB2     		sxth	r5, r5
  73              	.LVL4:
  74 0026 A942     		cmp	r1, r5
  75 0028 26D1     		bne	.L15
  76              		.loc 1 48 0 is_stmt 0 discriminator 1
  77 002a B4F90E20 		ldrsh	r2, [r4, #14]
  78 002e 03B2     		sxth	r3, r0
  79 0030 9A42     		cmp	r2, r3
  80 0032 07D0     		beq	.L7
  81              	.L6:
  82              		.loc 1 49 0 is_stmt 1
  83 0034 2046     		mov	r0, r4
  84              	.LVL5:
  85 0036 2946     		mov	r1, r5
  86 0038 1A46     		mov	r2, r3
  87              		.loc 1 56 0
  88 003a 07B0     		add	sp, sp, #28
  89 003c BDE8F040 		pop	{r4, r5, r6, r7, lr}
  90              		.loc 1 49 0
  91 0040 FFF7FEBF 		b	gwinResize
  92              	.LVL6:
  93              	.L7:
  94              		.loc 1 54 0
  95 0044 A28A     		ldrh	r2, [r4, #20]
  96              		.loc 1 53 0
  97 0046 2089     		ldrh	r0, [r4, #8]
  98              	.LVL7:
  99 0048 6189     		ldrh	r1, [r4, #10]
 100 004a E769     		ldr	r7, [r4, #28]
 101 004c A669     		ldr	r6, [r4, #24]
 102 004e 02F01002 		and	r2, r2, #16
 103 0052 92B2     		uxth	r2, r2
 104 0054 002A     		cmp	r2, #0
 105 0056 1ED1     		bne	.L16
 106              		.loc 1 54 0 discriminator 1
 107 0058 A26A     		ldr	r2, [r4, #40]
 108              		.loc 1 53 0 discriminator 1
 109 005a 5489     		ldrh	r4, [r2, #10]
 110              	.LVL8:
 111              	.L9:
 112              		.loc 1 53 0 is_stmt 0 discriminator 2
 113 005c 0097     		str	r7, [sp, #0]
 114 005e 0196     		str	r6, [sp, #4]
ARM GAS  /tmp/ccVmA1FS.s 			page 3


 115 0060 0294     		str	r4, [sp, #8]
 116 0062 1288     		ldrh	r2, [r2, #0]
 117 0064 0392     		str	r2, [sp, #12]
 118 0066 0022     		movs	r2, #0
 119 0068 0492     		str	r2, [sp, #16]
 120 006a 00B2     		sxth	r0, r0
 121 006c 09B2     		sxth	r1, r1
 122 006e 2A46     		mov	r2, r5
 123 0070 FFF7FEFF 		bl	gdispFillStringBox
 124              	.LVL9:
 125              		.loc 1 56 0 is_stmt 1 discriminator 2
 126 0074 07B0     		add	sp, sp, #28
 127 0076 F0BD     		pop	{r4, r5, r6, r7, pc}
 128              	.LVL10:
 129              	.L15:
 130 0078 03B2     		sxth	r3, r0
 131 007a DBE7     		b	.L6
 132              	.LVL11:
 133              	.L14:
 134              	.LBB6:
 135              	.LBB7:
 136              		.loc 1 38 0 discriminator 1
 137 007c A069     		ldr	r0, [r4, #24]
 138 007e 0021     		movs	r1, #0
 139 0080 FFF7FEFF 		bl	gdispGetFontMetric
 140              	.LVL12:
 141 0084 CCE7     		b	.L5
 142              	.LVL13:
 143              	.L13:
 144              	.LBE7:
 145              	.LBE6:
 146              	.LBB8:
 147              	.LBB9:
 148              		.loc 1 30 0 discriminator 1
 149 0086 A169     		ldr	r1, [r4, #24]
 150              	.LVL14:
 151 0088 E069     		ldr	r0, [r4, #28]
 152 008a FFF7FEFF 		bl	gdispGetStringWidth
 153              	.LVL15:
 154 008e 811C     		adds	r1, r0, #2
 155 0090 8DB2     		uxth	r5, r1
 156 0092 A38A     		ldrh	r3, [r4, #20]
 157 0094 BEE7     		b	.L3
 158              	.L16:
 159              	.LBE9:
 160              	.LBE8:
 161              		.loc 1 54 0
 162 0096 A26A     		ldr	r2, [r4, #40]
 163              		.loc 1 53 0
 164 0098 5488     		ldrh	r4, [r2, #2]
 165              	.LVL16:
 166 009a DFE7     		b	.L9
 167              		.cfi_endproc
 168              	.LFE120:
 169              		.size	gwinLabelDefaultDraw, .-gwinLabelDefaultDraw
 170 009c AFF30080 		.section	.text.gwinLabelCreate,"ax",%progbits
 171              		.align	2
ARM GAS  /tmp/ccVmA1FS.s 			page 4


 172              		.p2align 4,,15
 173              		.global	gwinLabelCreate
 174              		.thumb
 175              		.thumb_func
 176              		.type	gwinLabelCreate, %function
 177              	gwinLabelCreate:
 178              	.LFB121:
 179              		.loc 1 93 0
 180              		.cfi_startproc
 181              		@ args = 0, pretend = 0, frame = 0
 182              		@ frame_needed = 0, uses_anonymous_args = 0
 183              	.LVL17:
 184              		.loc 1 97 0
 185 0000 B1F90430 		ldrsh	r3, [r1, #4]
 186 0004 002B     		cmp	r3, #0
 187              		.loc 1 93 0
 188 0006 70B5     		push	{r4, r5, r6, lr}
 189              	.LCFI2:
 190              		.cfi_def_cfa_offset 16
 191              		.cfi_offset 4, -16
 192              		.cfi_offset 5, -12
 193              		.cfi_offset 6, -8
 194              		.cfi_offset 14, -4
 195              		.loc 1 93 0
 196 0008 0C46     		mov	r4, r1
 197 000a 0546     		mov	r5, r0
 198              		.loc 1 97 0
 199 000c 13DD     		ble	.L25
 200              		.loc 1 104 0
 201 000e B4F90610 		ldrsh	r1, [r4, #6]
 202              	.LVL18:
 203              		.loc 1 94 0
 204 0012 0026     		movs	r6, #0
 205              	.LVL19:
 206              		.loc 1 104 0
 207 0014 0029     		cmp	r1, #0
 208 0016 1DDD     		ble	.L26
 209              	.LVL20:
 210              	.L19:
 211              		.loc 1 109 0
 212 0018 2846     		mov	r0, r5
 213 001a 2146     		mov	r1, r4
 214 001c 124A     		ldr	r2, .L27
 215 001e FFF7FEFF 		bl	_gwidgetCreate
 216              	.LVL21:
 217 0022 0546     		mov	r5, r0
 218 0024 28B1     		cbz	r0, .L20
 219              		.loc 1 112 0
 220 0026 828A     		ldrh	r2, [r0, #20]
 221              		.loc 1 114 0
 222 0028 217A     		ldrb	r1, [r4, #8]	@ zero_extendqisi2
 223              		.loc 1 112 0
 224 002a 1643     		orrs	r6, r6, r2
 225              	.LVL22:
 226 002c 8682     		strh	r6, [r0, #20]	@ movhi
 227              		.loc 1 114 0
 228 002e FFF7FEFF 		bl	gwinSetVisible
ARM GAS  /tmp/ccVmA1FS.s 			page 5


 229              	.LVL23:
 230              	.L20:
 231              		.loc 1 116 0
 232 0032 2846     		mov	r0, r5
 233 0034 70BD     		pop	{r4, r5, r6, pc}
 234              	.LVL24:
 235              	.L25:
 236              		.loc 1 100 0
 237 0036 CE68     		ldr	r6, [r1, #12]
 238 0038 FFF7FEFF 		bl	gwinGetDefaultFont
 239              	.LVL25:
 240 003c 0146     		mov	r1, r0
 241              	.LVL26:
 242              	.LBB14:
 243              	.LBB15:
 244              		.loc 1 30 0
 245 003e 3046     		mov	r0, r6
 246              	.LVL27:
 247 0040 FFF7FEFF 		bl	gdispGetStringWidth
 248              	.LVL28:
 249              	.LBE15:
 250              	.LBE14:
 251              		.loc 1 104 0
 252 0044 B4F90610 		ldrsh	r1, [r4, #6]
 253              	.LBB17:
 254              	.LBB16:
 255              		.loc 1 30 0
 256 0048 0230     		adds	r0, r0, #2
 257              	.LBE16:
 258              	.LBE17:
 259              		.loc 1 104 0
 260 004a 0029     		cmp	r1, #0
 261              		.loc 1 100 0
 262 004c A080     		strh	r0, [r4, #4]	@ movhi
 263              		.loc 1 99 0
 264 004e 4FF48056 		mov	r6, #4096
 265              	.LVL29:
 266              		.loc 1 104 0
 267 0052 E1DC     		bgt	.L19
 268              	.LVL30:
 269              	.L26:
 270              		.loc 1 106 0
 271 0054 FFF7FEFF 		bl	gwinGetDefaultFont
 272              	.LVL31:
 273              	.LBB18:
 274              	.LBB19:
 275              		.loc 1 38 0
 276 0058 0021     		movs	r1, #0
 277 005a FFF7FEFF 		bl	gdispGetFontMetric
 278              	.LVL32:
 279              	.LBE19:
 280              	.LBE18:
 281              		.loc 1 105 0
 282 005e 46F40056 		orr	r6, r6, #8192
 283              	.LVL33:
 284              		.loc 1 106 0
 285 0062 E080     		strh	r0, [r4, #6]	@ movhi
ARM GAS  /tmp/ccVmA1FS.s 			page 6


 286 0064 D8E7     		b	.L19
 287              	.L28:
 288 0066 00BF     		.align	2
 289              	.L27:
 290 0068 00000000 		.word	.LANCHOR0
 291              		.cfi_endproc
 292              	.LFE121:
 293              		.size	gwinLabelCreate, .-gwinLabelCreate
 294 006c AFF30080 		.section	.rodata.labelVMT,"a",%progbits
 295              		.align	2
 296              		.set	.LANCHOR0,. + 0
 297              		.type	labelVMT, %object
 298              		.size	labelVMT, 36
 299              	labelVMT:
 300 0000 00000000 		.word	.LC0
 301 0004 2C000000 		.word	44
 302 0008 00000000 		.word	_gwidgetDestroy
 303 000c 00000000 		.word	_gwidgetRedraw
 304 0010 00000000 		.word	0
 305 0014 00000000 		.word	gwinLabelDefaultDraw
 306 0018 00000000 		.word	0
 307 001c 00000000 		.word	0
 308 0020 00000000 		.word	0
 309              		.section	.rodata.str1.4,"aMS",%progbits,1
 310              		.align	2
 311              	.LC0:
 312 0000 4C616265 		.ascii	"Label\000"
 312      6C00
 313 0006 0000     		.text
 314              	.Letext0:
 315              		.file 2 "/usr/bin/../lib/gcc/arm-none-eabi/4.7.4/include/stddef.h"
 316              		.file 3 "/usr/bin/../lib/gcc/arm-none-eabi/4.7.4/../../../../arm-none-eabi/include/stdint.h"
 317              		.file 4 "../../os/ports/GCC/ARMCMx/chtypes.h"
 318              		.file 5 "../../ext/ugfx/include/gqueue/gqueue.h"
 319              		.file 6 "../../ext/ugfx/include/gdisp/gdisp.h"
 320              		.file 7 "../../ext/ugfx/include/gwin/gwin.h"
 321              		.file 8 "../../ext/ugfx/include/gwin/class_gwin.h"
 322              		.file 9 "../../ext/ugfx/include/gwin/gwidget.h"
 323              		.file 10 "../../ext/ugfx/include/gwin/label.h"
 324              		.file 11 "../../os/ports/common/ARMCMx/CMSIS/include/core_cm4.h"