ARM GAS  /tmp/ccKcOR50.s 			page 1


   1              		.syntax unified
   2              		.cpu cortex-m4
   3              		.eabi_attribute 27, 3
   4              		.eabi_attribute 28, 1
   5              		.fpu fpv4-sp-d16
   6              		.eabi_attribute 20, 1
   7              		.eabi_attribute 21, 1
   8              		.eabi_attribute 23, 3
   9              		.eabi_attribute 24, 1
  10              		.eabi_attribute 25, 1
  11              		.eabi_attribute 26, 1
  12              		.eabi_attribute 30, 2
  13              		.eabi_attribute 34, 1
  14              		.eabi_attribute 18, 4
  15              		.thumb
  16              		.file	"main.c"
  17              		.text
  18              	.Ltext0:
  19              		.cfi_sections	.debug_frame
  20              		.section	.text.startup.main,"ax",%progbits
  21              		.align	2
  22              		.p2align 4,,15
  23              		.global	main
  24              		.thumb
  25              		.thumb_func
  26              		.type	main, %function
  27              	main:
  28              	.LFB121:
  29              		.file 1 "main.c"
  30              		.loc 1 222 0
  31              		.cfi_startproc
  32              		@ args = 0, pretend = 0, frame = 48
  33              		@ frame_needed = 0, uses_anonymous_args = 0
  34 0000 2DE9F04F 		push	{r4, r5, r6, r7, r8, r9, sl, fp, lr}
  35              	.LCFI0:
  36              		.cfi_def_cfa_offset 36
  37              		.cfi_offset 4, -36
  38              		.cfi_offset 5, -32
  39              		.cfi_offset 6, -28
  40              		.cfi_offset 7, -24
  41              		.cfi_offset 8, -20
  42              		.cfi_offset 9, -16
  43              		.cfi_offset 10, -12
  44              		.cfi_offset 11, -8
  45              		.cfi_offset 14, -4
  46 0004 8FB0     		sub	sp, sp, #60
  47              	.LCFI1:
  48              		.cfi_def_cfa_offset 96
  49              		.loc 1 226 0
  50 0006 FFF7FEFF 		bl	gfxInit
  51              	.LVL0:
  52              		.loc 1 229 0
  53 000a C948     		ldr	r0, .L35
  54              	.LBB9:
  55              	.LBB10:
  56              		.loc 1 116 0
  57 000c C94E     		ldr	r6, .L35+4
ARM GAS  /tmp/ccKcOR50.s 			page 2


  58              		.loc 1 149 0
  59 000e CA4F     		ldr	r7, .L35+8
  60              		.loc 1 160 0
  61 0010 DFF88493 		ldr	r9, .L35+104
  62              		.loc 1 162 0
  63 0014 DFF88483 		ldr	r8, .L35+108
  64              		.loc 1 168 0
  65 0018 C84D     		ldr	r5, .L35+12
  66              	.LBE10:
  67              	.LBE9:
  68              		.loc 1 229 0
  69 001a FFF7FEFF 		bl	gdispOpenFont
  70              	.LVL1:
  71 001e FFF7FEFF 		bl	gwinSetDefaultFont
  72              	.LVL2:
  73              		.loc 1 230 0
  74 0022 0021     		movs	r1, #0
  75 0024 C648     		ldr	r0, .L35+16
  76 0026 FFF7FEFF 		bl	gwinSetDefaultStyle
  77              	.LVL3:
  78              		.loc 1 231 0
  79 002a 4FF6FF70 		movw	r0, #65535
  80 002e FFF7FEFF 		bl	gdispClear
  81              	.LVL4:
  82              		.loc 1 235 0
  83 0032 0020     		movs	r0, #0
  84 0034 FFF7FEFF 		bl	gwinAttachMouse
  85              	.LVL5:
  86              	.LBB13:
  87              	.LBB11:
  88              		.loc 1 116 0
  89 0038 B6F90030 		ldrsh	r3, [r6, #0]
  90              		.loc 1 115 0
  91 003c C14A     		ldr	r2, .L35+20
  92              		.loc 1 116 0
  93 003e 42F29340 		movw	r0, #9363
  94 0042 C9F24920 		movt	r0, 37449
  95              		.loc 1 115 0
  96 0046 0B92     		str	r2, [sp, #44]
  97              		.loc 1 116 0
  98 0048 80FB0312 		smull	r1, r2, r0, r3
  99 004c D118     		adds	r1, r2, r3
 100 004e DB17     		asrs	r3, r3, #31
 101 0050 C3EBA103 		rsb	r3, r3, r1, asr #2
 102              		.loc 1 112 0
 103 0054 0024     		movs	r4, #0
 104              		.loc 1 116 0
 105 0056 ADF82030 		strh	r3, [sp, #32]	@ movhi
 106              		.loc 1 117 0
 107 005a BB4B     		ldr	r3, .L35+24
 108              		.loc 1 112 0
 109 005c 0C94     		str	r4, [sp, #48]
 110              		.loc 1 115 0
 111 005e 4FF0010E 		mov	lr, #1
 112              		.loc 1 116 0
 113 0062 4FF01E0C 		mov	ip, #30
 114              		.loc 1 117 0
ARM GAS  /tmp/ccKcOR50.s 			page 3


 115 0066 2246     		mov	r2, r4
 116 0068 07A9     		add	r1, sp, #28
 117 006a 2046     		mov	r0, r4
 118              		.loc 1 115 0
 119 006c 8DF824E0 		strb	lr, [sp, #36]
 120              		.loc 1 116 0
 121 0070 ADF822C0 		strh	ip, [sp, #34]	@ movhi
 122              		.loc 1 117 0
 123 0074 CDF80CC0 		str	ip, [sp, #12]
 124              		.loc 1 112 0
 125 0078 0D94     		str	r4, [sp, #52]
 126              		.loc 1 116 0
 127 007a ADF81E40 		strh	r4, [sp, #30]	@ movhi
 128              		.loc 1 117 0
 129 007e ADF81C40 		strh	r4, [sp, #28]	@ movhi
 130 0082 0A93     		str	r3, [sp, #40]
 131 0084 FFF7FEFF 		bl	gwinRadioCreate
 132              	.LVL6:
 133              		.loc 1 118 0
 134 0088 BDF82030 		ldrh	r3, [sp, #32]
 135              		.loc 1 117 0
 136 008c 40F20002 		movw	r2, #:lower16:.LANCHOR1
 137 0090 C0F20002 		movt	r2, #:upper16:.LANCHOR1
 138              		.loc 1 118 0
 139 0094 ADF81C30 		strh	r3, [sp, #28]	@ movhi
 140 0098 AC4B     		ldr	r3, .L35+28
 141              		.loc 1 117 0
 142 009a 1060     		str	r0, [r2, #0]
 143              		.loc 1 118 0
 144 009c 07A9     		add	r1, sp, #28
 145 009e 2246     		mov	r2, r4
 146 00a0 2046     		mov	r0, r4
 147 00a2 0A93     		str	r3, [sp, #40]
 148 00a4 FFF7FEFF 		bl	gwinRadioCreate
 149              	.LVL7:
 150 00a8 40F20001 		movw	r1, #:lower16:.LANCHOR2
 151 00ac C0F20001 		movt	r1, #:upper16:.LANCHOR2
 152              		.loc 1 119 0
 153 00b0 2246     		mov	r2, r4
 154              		.loc 1 118 0
 155 00b2 0860     		str	r0, [r1, #0]
 156              		.loc 1 119 0
 157 00b4 BDF82000 		ldrh	r0, [sp, #32]
 158 00b8 4300     		lsls	r3, r0, #1
 159 00ba ADF81C30 		strh	r3, [sp, #28]	@ movhi
 160 00be A44B     		ldr	r3, .L35+32
 161 00c0 07A9     		add	r1, sp, #28
 162 00c2 2046     		mov	r0, r4
 163 00c4 0A93     		str	r3, [sp, #40]
 164 00c6 FFF7FEFF 		bl	gwinRadioCreate
 165              	.LVL8:
 166              		.loc 1 120 0
 167 00ca BDF82020 		ldrh	r2, [sp, #32]
 168              		.loc 1 119 0
 169 00ce 40F2000A 		movw	sl, #:lower16:.LANCHOR3
 170              		.loc 1 120 0
 171 00d2 02EB4203 		add	r3, r2, r2, lsl #1
ARM GAS  /tmp/ccKcOR50.s 			page 4


 172              		.loc 1 119 0
 173 00d6 C0F2000A 		movt	sl, #:upper16:.LANCHOR3
 174              		.loc 1 120 0
 175 00da ADF81C30 		strh	r3, [sp, #28]	@ movhi
 176 00de 9D4B     		ldr	r3, .L35+36
 177              		.loc 1 119 0
 178 00e0 CAF80000 		str	r0, [sl, #0]
 179              		.loc 1 120 0
 180 00e4 2246     		mov	r2, r4
 181 00e6 07A9     		add	r1, sp, #28
 182 00e8 2046     		mov	r0, r4
 183 00ea 0A93     		str	r3, [sp, #40]
 184 00ec FFF7FEFF 		bl	gwinRadioCreate
 185              	.LVL9:
 186 00f0 40F20001 		movw	r1, #:lower16:.LANCHOR4
 187 00f4 C0F20001 		movt	r1, #:upper16:.LANCHOR4
 188              		.loc 1 121 0
 189 00f8 2246     		mov	r2, r4
 190              		.loc 1 120 0
 191 00fa 0860     		str	r0, [r1, #0]
 192              		.loc 1 121 0
 193 00fc BDF82000 		ldrh	r0, [sp, #32]
 194 0100 8300     		lsls	r3, r0, #2
 195 0102 ADF81C30 		strh	r3, [sp, #28]	@ movhi
 196 0106 944B     		ldr	r3, .L35+40
 197 0108 07A9     		add	r1, sp, #28
 198 010a 2046     		mov	r0, r4
 199 010c 0A93     		str	r3, [sp, #40]
 200 010e FFF7FEFF 		bl	gwinRadioCreate
 201              	.LVL10:
 202              		.loc 1 122 0
 203 0112 BDF82010 		ldrh	r1, [sp, #32]
 204              		.loc 1 121 0
 205 0116 914A     		ldr	r2, .L35+44
 206              		.loc 1 122 0
 207 0118 01EB8103 		add	r3, r1, r1, lsl #2
 208 011c ADF81C30 		strh	r3, [sp, #28]	@ movhi
 209 0120 8F4B     		ldr	r3, .L35+48
 210              		.loc 1 121 0
 211 0122 1060     		str	r0, [r2, #0]
 212              		.loc 1 122 0
 213 0124 07A9     		add	r1, sp, #28
 214 0126 2246     		mov	r2, r4
 215 0128 2046     		mov	r0, r4
 216 012a 0A93     		str	r3, [sp, #40]
 217 012c FFF7FEFF 		bl	gwinRadioCreate
 218              	.LVL11:
 219 0130 40F20002 		movw	r2, #:lower16:.LANCHOR6
 220              		.loc 1 123 0
 221 0134 BDF82010 		ldrh	r1, [sp, #32]
 222              		.loc 1 122 0
 223 0138 C0F20002 		movt	r2, #:upper16:.LANCHOR6
 224              		.loc 1 127 0
 225 013c 4FF0230A 		mov	sl, #35
 226              		.loc 1 122 0
 227 0140 1060     		str	r0, [r2, #0]
 228              		.loc 1 123 0
ARM GAS  /tmp/ccKcOR50.s 			page 5


 229 0142 01EB4100 		add	r0, r1, r1, lsl #1
 230 0146 4300     		lsls	r3, r0, #1
 231 0148 ADF81C30 		strh	r3, [sp, #28]	@ movhi
 232 014c 854B     		ldr	r3, .L35+52
 233 014e 2246     		mov	r2, r4
 234 0150 07A9     		add	r1, sp, #28
 235 0152 2046     		mov	r0, r4
 236 0154 0A93     		str	r3, [sp, #40]
 237 0156 FFF7FEFF 		bl	gwinRadioCreate
 238              	.LVL12:
 239 015a 8349     		ldr	r1, .L35+56
 240              		.loc 1 127 0
 241 015c DDF80CB0 		ldr	fp, [sp, #12]
 242              		.loc 1 128 0
 243 0160 824A     		ldr	r2, .L35+60
 244              		.loc 1 123 0
 245 0162 0860     		str	r0, [r1, #0]
 246              		.loc 1 127 0
 247 0164 3223     		movs	r3, #50
 248              		.loc 1 128 0
 249 0166 07A9     		add	r1, sp, #28
 250 0168 2046     		mov	r0, r4
 251              		.loc 1 126 0
 252 016a 8DF82440 		strb	r4, [sp, #36]
 253 016e 0B94     		str	r4, [sp, #44]
 254              		.loc 1 127 0
 255 0170 ADF82030 		strh	r3, [sp, #32]	@ movhi
 256 0174 ADF822B0 		strh	fp, [sp, #34]	@ movhi
 257 0178 ADF81EA0 		strh	sl, [sp, #30]	@ movhi
 258              		.loc 1 128 0
 259 017c ADF81C40 		strh	r4, [sp, #28]	@ movhi
 260 0180 0A92     		str	r2, [sp, #40]
 261 0182 0493     		str	r3, [sp, #16]
 262 0184 FFF7FEFF 		bl	gwinButtonCreate
 263              	.LVL13:
 264 0188 40F2000C 		movw	ip, #:lower16:.LANCHOR8
 265 018c C0F2000C 		movt	ip, #:upper16:.LANCHOR8
 266              		.loc 1 129 0
 267 0190 774A     		ldr	r2, .L35+64
 268              		.loc 1 128 0
 269 0192 CCF80000 		str	r0, [ip, #0]
 270              		.loc 1 129 0
 271 0196 3323     		movs	r3, #51
 272 0198 07A9     		add	r1, sp, #28
 273 019a 2046     		mov	r0, r4
 274 019c ADF81C30 		strh	r3, [sp, #28]	@ movhi
 275 01a0 0A92     		str	r2, [sp, #40]
 276 01a2 FFF7FEFF 		bl	gwinButtonCreate
 277              	.LVL14:
 278 01a6 40F20001 		movw	r1, #:lower16:.LANCHOR9
 279 01aa C0F20001 		movt	r1, #:upper16:.LANCHOR9
 280              		.loc 1 130 0
 281 01ae 714A     		ldr	r2, .L35+68
 282              		.loc 1 129 0
 283 01b0 0860     		str	r0, [r1, #0]
 284              		.loc 1 130 0
 285 01b2 6623     		movs	r3, #102
ARM GAS  /tmp/ccKcOR50.s 			page 6


 286 01b4 07A9     		add	r1, sp, #28
 287 01b6 2046     		mov	r0, r4
 288 01b8 ADF81C30 		strh	r3, [sp, #28]	@ movhi
 289 01bc 0A92     		str	r2, [sp, #40]
 290 01be FFF7FEFF 		bl	gwinButtonCreate
 291              	.LVL15:
 292 01c2 40F20001 		movw	r1, #:lower16:.LANCHOR10
 293 01c6 C0F20001 		movt	r1, #:upper16:.LANCHOR10
 294              		.loc 1 131 0
 295 01ca 6B4A     		ldr	r2, .L35+72
 296              		.loc 1 130 0
 297 01cc 0860     		str	r0, [r1, #0]
 298              		.loc 1 131 0
 299 01ce 9923     		movs	r3, #153
 300 01d0 07A9     		add	r1, sp, #28
 301 01d2 2046     		mov	r0, r4
 302 01d4 ADF81C30 		strh	r3, [sp, #28]	@ movhi
 303 01d8 0A92     		str	r2, [sp, #40]
 304 01da FFF7FEFF 		bl	gwinButtonCreate
 305              	.LVL16:
 306 01de 40F2000E 		movw	lr, #:lower16:.LANCHOR11
 307              		.loc 1 134 0
 308 01e2 B6F90010 		ldrsh	r1, [r6, #0]
 309              		.loc 1 135 0
 310 01e6 B6F90230 		ldrsh	r3, [r6, #2]
 311              		.loc 1 131 0
 312 01ea C0F2000E 		movt	lr, #:upper16:.LANCHOR11
 313              		.loc 1 135 0
 314 01ee 03EBD372 		add	r2, r3, r3, lsr #31
 315              		.loc 1 131 0
 316 01f2 CEF80000 		str	r0, [lr, #0]
 317              		.loc 1 134 0
 318 01f6 01EBD170 		add	r0, r1, r1, lsr #31
 319 01fa C0F34F01 		ubfx	r1, r0, #1, #16
 320              		.loc 1 135 0
 321 01fe 5310     		asrs	r3, r2, #1
 322 0200 5E4A     		ldr	r2, .L35+76
 323              		.loc 1 134 0
 324 0202 4FF0140B 		mov	fp, #20
 325 0206 A1F1020C 		sub	ip, r1, #2
 326 020a 01F1010E 		add	lr, r1, #1
 327              		.loc 1 135 0
 328 020e 2A3B     		subs	r3, r3, #42
 329 0210 07A9     		add	r1, sp, #28
 330 0212 2046     		mov	r0, r4
 331              		.loc 1 134 0
 332 0214 ADF820C0 		strh	ip, [sp, #32]	@ movhi
 333 0218 ADF81CE0 		strh	lr, [sp, #28]	@ movhi
 334 021c ADF822B0 		strh	fp, [sp, #34]	@ movhi
 335              		.loc 1 135 0
 336 0220 ADF81E30 		strh	r3, [sp, #30]	@ movhi
 337 0224 0A92     		str	r2, [sp, #40]
 338 0226 FFF7FEFF 		bl	gwinSliderCreate
 339              	.LVL17:
 340 022a 40F20001 		movw	r1, #:lower16:.LANCHOR12
 341              		.loc 1 136 0
 342 022e B6F90230 		ldrsh	r3, [r6, #2]
ARM GAS  /tmp/ccKcOR50.s 			page 7


 343              		.loc 1 135 0
 344 0232 C0F20001 		movt	r1, #:upper16:.LANCHOR12
 345 0236 0860     		str	r0, [r1, #0]
 346              		.loc 1 136 0
 347 0238 03EBD370 		add	r0, r3, r3, lsr #31
 348 023c 4210     		asrs	r2, r0, #1
 349 023e 504B     		ldr	r3, .L35+80
 350 0240 153A     		subs	r2, r2, #21
 351 0242 07A9     		add	r1, sp, #28
 352 0244 2046     		mov	r0, r4
 353 0246 ADF81E20 		strh	r2, [sp, #30]	@ movhi
 354 024a 0A93     		str	r3, [sp, #40]
 355 024c FFF7FEFF 		bl	gwinSliderCreate
 356              	.LVL18:
 357 0250 40F2000C 		movw	ip, #:lower16:.LANCHOR13
 358 0254 C0F2000C 		movt	ip, #:upper16:.LANCHOR13
 359              		.loc 1 139 0
 360 0258 B6F90210 		ldrsh	r1, [r6, #2]
 361              		.loc 1 136 0
 362 025c CCF80000 		str	r0, [ip, #0]
 363              		.loc 1 139 0
 364 0260 01EBD170 		add	r0, r1, r1, lsr #31
 365 0264 C0F34F02 		ubfx	r2, r0, #1, #16
 366 0268 A2F1020E 		sub	lr, r2, #2
 367 026c 531C     		adds	r3, r2, #1
 368              		.loc 1 140 0
 369 026e 454A     		ldr	r2, .L35+84
 370              		.loc 1 139 0
 371 0270 ADF822E0 		strh	lr, [sp, #34]	@ movhi
 372              		.loc 1 140 0
 373 0274 07A9     		add	r1, sp, #28
 374 0276 2046     		mov	r0, r4
 375              		.loc 1 139 0
 376 0278 ADF820B0 		strh	fp, [sp, #32]	@ movhi
 377 027c ADF81E30 		strh	r3, [sp, #30]	@ movhi
 378              		.loc 1 140 0
 379 0280 ADF81C40 		strh	r4, [sp, #28]	@ movhi
 380 0284 0A92     		str	r2, [sp, #40]
 381 0286 FFF7FEFF 		bl	gwinSliderCreate
 382              	.LVL19:
 383 028a 40F20001 		movw	r1, #:lower16:.LANCHOR14
 384 028e C0F20001 		movt	r1, #:upper16:.LANCHOR14
 385              		.loc 1 141 0
 386 0292 3D4A     		ldr	r2, .L35+88
 387              		.loc 1 140 0
 388 0294 0860     		str	r0, [r1, #0]
 389              		.loc 1 141 0
 390 0296 1523     		movs	r3, #21
 391 0298 07A9     		add	r1, sp, #28
 392 029a 2046     		mov	r0, r4
 393 029c 0A92     		str	r2, [sp, #40]
 394 029e ADF81C30 		strh	r3, [sp, #28]	@ movhi
 395 02a2 FFF7FEFF 		bl	gwinSliderCreate
 396              	.LVL20:
 397 02a6 40F20001 		movw	r1, #:lower16:.LANCHOR15
 398 02aa C0F20001 		movt	r1, #:upper16:.LANCHOR15
 399              		.loc 1 145 0
ARM GAS  /tmp/ccKcOR50.s 			page 8


 400 02ae 374B     		ldr	r3, .L35+92
 401              		.loc 1 141 0
 402 02b0 0860     		str	r0, [r1, #0]
 403              		.loc 1 144 0
 404 02b2 4FF0500C 		mov	ip, #80
 405              		.loc 1 145 0
 406 02b6 07A9     		add	r1, sp, #28
 407 02b8 2046     		mov	r0, r4
 408              		.loc 1 144 0
 409 02ba ADF820C0 		strh	ip, [sp, #32]	@ movhi
 410              		.loc 1 145 0
 411 02be CDF80CC0 		str	ip, [sp, #12]
 412              		.loc 1 144 0
 413 02c2 ADF822B0 		strh	fp, [sp, #34]	@ movhi
 414 02c6 ADF81C40 		strh	r4, [sp, #28]	@ movhi
 415              		.loc 1 145 0
 416 02ca ADF81EA0 		strh	sl, [sp, #30]	@ movhi
 417 02ce 0A93     		str	r3, [sp, #40]
 418 02d0 FFF7FEFF 		bl	gwinCheckboxCreate
 419              	.LVL21:
 420              		.loc 1 146 0
 421 02d4 2E4A     		ldr	r2, .L35+96
 422              		.loc 1 145 0
 423 02d6 40F2000E 		movw	lr, #:lower16:.LANCHOR16
 424 02da C0F2000E 		movt	lr, #:upper16:.LANCHOR16
 425              		.loc 1 146 0
 426 02de 0B92     		str	r2, [sp, #44]
 427              		.loc 1 147 0
 428 02e0 2C4A     		ldr	r2, .L35+100
 429              		.loc 1 145 0
 430 02e2 CEF80000 		str	r0, [lr, #0]
 431              		.loc 1 147 0
 432 02e6 3823     		movs	r3, #56
 433 02e8 07A9     		add	r1, sp, #28
 434 02ea 2046     		mov	r0, r4
 435 02ec 0A92     		str	r2, [sp, #40]
 436 02ee ADF81E30 		strh	r3, [sp, #30]	@ movhi
 437 02f2 FFF7FEFF 		bl	gwinCheckboxCreate
 438              	.LVL22:
 439 02f6 40F20001 		movw	r1, #:lower16:.LANCHOR17
 440 02fa C0F20001 		movt	r1, #:upper16:.LANCHOR17
 441              		.loc 1 149 0
 442 02fe DFF8A0E0 		ldr	lr, .L35+112
 443              		.loc 1 147 0
 444 0302 0860     		str	r0, [r1, #0]
 445              		.loc 1 148 0
 446 0304 4FF0640C 		mov	ip, #100
 447              		.loc 1 149 0
 448 0308 4D23     		movs	r3, #77
 449 030a 07A9     		add	r1, sp, #28
 450 030c 2046     		mov	r0, r4
 451              		.loc 1 148 0
 452 030e ADF820C0 		strh	ip, [sp, #32]	@ movhi
 453              		.loc 1 149 0
 454 0312 CDF828E0 		str	lr, [sp, #40]
 455              		.loc 1 148 0
 456 0316 0B94     		str	r4, [sp, #44]
ARM GAS  /tmp/ccKcOR50.s 			page 9


 457              		.loc 1 149 0
 458 0318 ADF81E30 		strh	r3, [sp, #30]	@ movhi
 459 031c 0593     		str	r3, [sp, #20]
 460 031e FFF7FEFF 		bl	gwinCheckboxCreate
 461              	.LVL23:
 462              		.loc 1 152 0
 463 0322 4FF02802 		mov	r2, #40
 464              		.loc 1 153 0
 465 0326 059B     		ldr	r3, [sp, #20]
 466              		.loc 1 152 0
 467 0328 ADF82220 		strh	r2, [sp, #34]	@ movhi
 468 032c 3AE0     		b	.L36
 469              	.L37:
 470 032e 00BF     		.align	2
 471              	.L35:
 472 0330 24000000 		.word	.LC4
 473 0334 00000000 		.word	GDISP
 474 0338 00000000 		.word	.LANCHOR18
 475 033c 00000000 		.word	.LANCHOR25
 476 0340 00000000 		.word	WhiteWidgetStyle
 477 0344 00000000 		.word	gwinRadioDraw_Tab
 478 0348 28000000 		.word	.LC5
 479 034c 2C000000 		.word	.LC6
 480 0350 30000000 		.word	.LC7
 481 0354 34000000 		.word	.LC8
 482 0358 38000000 		.word	.LC9
 483 035c 00000000 		.word	.LANCHOR5
 484 0360 3C000000 		.word	.LC10
 485 0364 40000000 		.word	.LC11
 486 0368 00000000 		.word	.LANCHOR7
 487 036c 44000000 		.word	.LC12
 488 0370 48000000 		.word	.LC13
 489 0374 4C000000 		.word	.LC14
 490 0378 50000000 		.word	.LC15
 491 037c 54000000 		.word	.LC16
 492 0380 58000000 		.word	.LC17
 493 0384 5C000000 		.word	.LC18
 494 0388 60000000 		.word	.LC19
 495 038c 64000000 		.word	.LC20
 496 0390 00000000 		.word	gwinCheckboxDraw_CheckOnRight
 497 0394 68000000 		.word	.LC21
 498 0398 00000000 		.word	.LANCHOR22
 499 039c 00000000 		.word	.LANCHOR24
 500 03a0 6C000000 		.word	.LC22
 501              	.L36:
 502              		.loc 1 153 0
 503 03a4 CD4A     		ldr	r2, .L38
 504              		.loc 1 149 0
 505 03a6 3860     		str	r0, [r7, #0]
 506              		.loc 1 153 0
 507 03a8 07A9     		add	r1, sp, #28
 508 03aa 2046     		mov	r0, r4
 509              		.loc 1 152 0
 510 03ac ADF82040 		strh	r4, [sp, #32]	@ movhi
 511              		.loc 1 153 0
 512 03b0 ADF81E30 		strh	r3, [sp, #30]	@ movhi
 513 03b4 0A92     		str	r2, [sp, #40]
ARM GAS  /tmp/ccKcOR50.s 			page 10


 514 03b6 FFF7FEFF 		bl	gwinLabelCreate
 515              	.LVL24:
 516              		.loc 1 156 0
 517 03ba 049B     		ldr	r3, [sp, #16]
 518 03bc ADF822B0 		strh	fp, [sp, #34]	@ movhi
 519              		.loc 1 153 0
 520 03c0 40F20001 		movw	r1, #:lower16:.LANCHOR19
 521 03c4 C0F20001 		movt	r1, #:upper16:.LANCHOR19
 522              		.loc 1 156 0
 523 03c8 ADF82030 		strh	r3, [sp, #32]	@ movhi
 524              		.loc 1 157 0
 525 03cc C44B     		ldr	r3, .L38+4
 526              		.loc 1 153 0
 527 03ce 0860     		str	r0, [r1, #0]
 528              		.loc 1 157 0
 529 03d0 0122     		movs	r2, #1
 530 03d2 07A9     		add	r1, sp, #28
 531 03d4 2046     		mov	r0, r4
 532              		.loc 1 156 0
 533 03d6 ADF81EA0 		strh	sl, [sp, #30]	@ movhi
 534              		.loc 1 157 0
 535 03da ADF81C40 		strh	r4, [sp, #28]	@ movhi
 536 03de 0A93     		str	r3, [sp, #40]
 537 03e0 FFF7FEFF 		bl	gwinRadioCreate
 538              	.LVL25:
 539              		.loc 1 158 0
 540 03e4 BDF82030 		ldrh	r3, [sp, #32]
 541              		.loc 1 157 0
 542 03e8 40F20002 		movw	r2, #:lower16:.LANCHOR20
 543 03ec C0F20002 		movt	r2, #:upper16:.LANCHOR20
 544              		.loc 1 158 0
 545 03f0 ADF81C30 		strh	r3, [sp, #28]	@ movhi
 546 03f4 BB4B     		ldr	r3, .L38+8
 547              		.loc 1 157 0
 548 03f6 1060     		str	r0, [r2, #0]
 549              		.loc 1 158 0
 550 03f8 07A9     		add	r1, sp, #28
 551 03fa 0122     		movs	r2, #1
 552 03fc 2046     		mov	r0, r4
 553 03fe 0A93     		str	r3, [sp, #40]
 554 0400 FFF7FEFF 		bl	gwinRadioCreate
 555              	.LVL26:
 556              		.loc 1 159 0
 557 0404 BDF81E30 		ldrh	r3, [sp, #30]
 558 0408 DDF80CB0 		ldr	fp, [sp, #12]
 559              		.loc 1 160 0
 560 040c ADF81C40 		strh	r4, [sp, #28]	@ movhi
 561              		.loc 1 158 0
 562 0410 40F2000A 		movw	sl, #:lower16:.LANCHOR21
 563              		.loc 1 159 0
 564 0414 1933     		adds	r3, r3, #25
 565              		.loc 1 158 0
 566 0416 C0F2000A 		movt	sl, #:upper16:.LANCHOR21
 567              		.loc 1 159 0
 568 041a ADF81E30 		strh	r3, [sp, #30]	@ movhi
 569              		.loc 1 160 0
 570 041e B24B     		ldr	r3, .L38+12
ARM GAS  /tmp/ccKcOR50.s 			page 11


 571              		.loc 1 158 0
 572 0420 CAF80000 		str	r0, [sl, #0]
 573              		.loc 1 160 0
 574 0424 07A9     		add	r1, sp, #28
 575 0426 0222     		movs	r2, #2
 576 0428 2046     		mov	r0, r4
 577 042a 0A93     		str	r3, [sp, #40]
 578              		.loc 1 159 0
 579 042c ADF820B0 		strh	fp, [sp, #32]	@ movhi
 580              		.loc 1 160 0
 581 0430 FFF7FEFF 		bl	gwinRadioCreate
 582              	.LVL27:
 583              		.loc 1 161 0
 584 0434 BDF82030 		ldrh	r3, [sp, #32]
 585              		.loc 1 160 0
 586 0438 C9F80000 		str	r0, [r9, #0]
 587              		.loc 1 161 0
 588 043c ADF81C30 		strh	r3, [sp, #28]	@ movhi
 589 0440 AA4B     		ldr	r3, .L38+16
 590 0442 07A9     		add	r1, sp, #28
 591 0444 0222     		movs	r2, #2
 592 0446 2046     		mov	r0, r4
 593 0448 0A93     		str	r3, [sp, #40]
 594 044a FFF7FEFF 		bl	gwinRadioCreate
 595              	.LVL28:
 596 044e 40F20001 		movw	r1, #:lower16:.LANCHOR23
 597 0452 C0F20001 		movt	r1, #:upper16:.LANCHOR23
 598              		.loc 1 162 0
 599 0456 0222     		movs	r2, #2
 600              		.loc 1 161 0
 601 0458 0860     		str	r0, [r1, #0]
 602              		.loc 1 162 0
 603 045a BDF82000 		ldrh	r0, [sp, #32]
 604 045e 4300     		lsls	r3, r0, #1
 605 0460 ADF81C30 		strh	r3, [sp, #28]	@ movhi
 606 0464 A24B     		ldr	r3, .L38+20
 607 0466 07A9     		add	r1, sp, #28
 608 0468 2046     		mov	r0, r4
 609 046a 0A93     		str	r3, [sp, #40]
 610 046c FFF7FEFF 		bl	gwinRadioCreate
 611              	.LVL29:
 612              		.loc 1 163 0
 613 0470 40F20002 		movw	r2, #:lower16:.LANCHOR23
 614 0474 C0F20002 		movt	r2, #:upper16:.LANCHOR23
 615              		.loc 1 162 0
 616 0478 C8F80000 		str	r0, [r8, #0]
 617              		.loc 1 163 0
 618 047c 1068     		ldr	r0, [r2, #0]
 619 047e FFF7FEFF 		bl	gwinRadioPress
 620              	.LVL30:
 621              		.loc 1 166 0
 622 0482 B6F90010 		ldrsh	r1, [r6, #0]
 623 0486 B6F90200 		ldrsh	r0, [r6, #2]
 624 048a 01EBD172 		add	r2, r1, r1, lsr #31
 625 048e 00EBD073 		add	r3, r0, r0, lsr #31
 626 0492 C2F34F01 		ubfx	r1, r2, #1, #16
 627 0496 C3F34F00 		ubfx	r0, r3, #1, #16
ARM GAS  /tmp/ccKcOR50.s 			page 12


 628 049a 01F1FF3C 		add	ip, r1, #-1
 629 049e 00F1FF3E 		add	lr, r0, #-1
 630              		.loc 1 167 0
 631 04a2 431C     		adds	r3, r0, #1
 632 04a4 4A1C     		adds	r2, r1, #1
 633              		.loc 1 168 0
 634 04a6 2046     		mov	r0, r4
 635 04a8 07A9     		add	r1, sp, #28
 636              		.loc 1 166 0
 637 04aa ADF820C0 		strh	ip, [sp, #32]	@ movhi
 638 04ae ADF822E0 		strh	lr, [sp, #34]	@ movhi
 639              		.loc 1 167 0
 640 04b2 ADF81E30 		strh	r3, [sp, #30]	@ movhi
 641 04b6 ADF81C20 		strh	r2, [sp, #28]	@ movhi
 642              		.loc 1 168 0
 643 04ba FFF7FEFF 		bl	gwinConsoleCreate
 644              	.LVL31:
 645              		.loc 1 169 0
 646 04be 4FF6E072 		movw	r2, #65504
 647 04c2 0282     		strh	r2, [r0, #16]	@ movhi
 648              	.LBE11:
 649              	.LBE13:
 650              		.loc 1 252 0
 651 04c4 0121     		movs	r1, #1
 652              	.LBB14:
 653              	.LBB12:
 654              		.loc 1 170 0
 655 04c6 4482     		strh	r4, [r0, #18]	@ movhi
 656              		.loc 1 168 0
 657 04c8 2860     		str	r0, [r5, #0]
 658              	.LBE12:
 659              	.LBE14:
 660              		.loc 1 260 0
 661 04ca 40F20004 		movw	r4, #:lower16:.LANCHOR1
 662              		.loc 1 252 0
 663 04ce FFF7FEFF 		bl	gwinSetVisible
 664              	.LVL32:
 665              		.loc 1 253 0
 666 04d2 2868     		ldr	r0, [r5, #0]
 667 04d4 FFF7FEFF 		bl	gwinClear
 668              	.LVL33:
 669              		.loc 1 260 0
 670 04d8 C0F20004 		movt	r4, #:upper16:.LANCHOR1
 671              		.loc 1 256 0
 672 04dc 8548     		ldr	r0, .L38+24
 673 04de FFF7FEFF 		bl	geventListenerInit
 674              	.LVL34:
 675              		.loc 1 257 0
 676 04e2 8448     		ldr	r0, .L38+24
 677 04e4 FFF7FEFF 		bl	gwinAttachListener
 678              	.LVL35:
 679              		.loc 1 260 0
 680 04e8 2068     		ldr	r0, [r4, #0]
 681 04ea FFF7FEFF 		bl	gwinRadioPress
 682              	.LVL36:
 683              	.L27:
 684              		.loc 1 264 0
ARM GAS  /tmp/ccKcOR50.s 			page 13


 685 04ee 4FF0FF31 		mov	r1, #-1
 686 04f2 8048     		ldr	r0, .L38+24
 687 04f4 FFF7FEFF 		bl	geventEventWait
 688              	.LVL37:
 689              		.loc 1 266 0
 690 04f8 0288     		ldrh	r2, [r0, #0]
 691 04fa A2F50071 		sub	r1, r2, #512
 692              		.loc 1 264 0
 693 04fe 0446     		mov	r4, r0
 694              	.LVL38:
 695              		.loc 1 266 0
 696 0500 0329     		cmp	r1, #3
 697 0502 00F2B181 		bhi	.L4
 698 0506 DFE811F0 		tbh	[pc, r1, lsl #1]
 699              	.L9:
 700 050a A401     		.2byte	(.L5-.L9)/2
 701 050c B401     		.2byte	(.L6-.L9)/2
 702 050e FF00     		.2byte	(.L7-.L9)/2
 703 0510 0400     		.2byte	(.L8-.L9)/2
 704              	.L8:
 705              		.loc 1 288 0
 706 0512 B0F808A0 		ldrh	sl, [r0, #8]
 707 0516 4068     		ldr	r0, [r0, #4]
 708              	.LVL39:
 709 0518 D5F800B0 		ldr	fp, [r5, #0]
 710 051c FFF7FEFF 		bl	gwinGetText
 711              	.LVL40:
 712 0520 5246     		mov	r2, sl
 713 0522 0346     		mov	r3, r0
 714 0524 7449     		ldr	r1, .L38+28
 715 0526 5846     		mov	r0, fp
 716 0528 FFF7FEFF 		bl	gwinPrintf
 717              	.LVL41:
 718              		.loc 1 290 0
 719 052c B4F808A0 		ldrh	sl, [r4, #8]
 720 0530 BAF1000F 		cmp	sl, #0
 721 0534 40F0A981 		bne	.L29
 722              	.LBB15:
 723              	.LBB16:
 724              		.loc 1 178 0
 725 0538 40F20003 		movw	r3, #:lower16:.LANCHOR8
 726 053c C0F20003 		movt	r3, #:upper16:.LANCHOR8
 727 0540 5146     		mov	r1, sl
 728 0542 1868     		ldr	r0, [r3, #0]
 729              	.LBE16:
 730              	.LBE15:
 731              		.loc 1 294 0
 732 0544 D4F804B0 		ldr	fp, [r4, #4]
 733              	.LVL42:
 734              	.LBB19:
 735              	.LBB17:
 736              		.loc 1 178 0
 737 0548 FFF7FEFF 		bl	gwinSetVisible
 738              	.LVL43:
 739 054c 40F2000E 		movw	lr, #:lower16:.LANCHOR9
 740 0550 C0F2000E 		movt	lr, #:upper16:.LANCHOR9
 741 0554 5146     		mov	r1, sl
ARM GAS  /tmp/ccKcOR50.s 			page 14


 742 0556 DEF80000 		ldr	r0, [lr, #0]
 743 055a FFF7FEFF 		bl	gwinSetVisible
 744              	.LVL44:
 745              		.loc 1 179 0
 746 055e 40F20000 		movw	r0, #:lower16:.LANCHOR10
 747 0562 C0F20000 		movt	r0, #:upper16:.LANCHOR10
 748 0566 5146     		mov	r1, sl
 749 0568 0068     		ldr	r0, [r0, #0]
 750 056a FFF7FEFF 		bl	gwinSetVisible
 751              	.LVL45:
 752 056e 40F20001 		movw	r1, #:lower16:.LANCHOR11
 753 0572 C0F20001 		movt	r1, #:upper16:.LANCHOR11
 754 0576 0868     		ldr	r0, [r1, #0]
 755 0578 5146     		mov	r1, sl
 756 057a FFF7FEFF 		bl	gwinSetVisible
 757              	.LVL46:
 758              		.loc 1 180 0
 759 057e 40F20002 		movw	r2, #:lower16:.LANCHOR12
 760 0582 C0F20002 		movt	r2, #:upper16:.LANCHOR12
 761 0586 5146     		mov	r1, sl
 762 0588 1068     		ldr	r0, [r2, #0]
 763 058a FFF7FEFF 		bl	gwinSetVisible
 764              	.LVL47:
 765 058e 40F20003 		movw	r3, #:lower16:.LANCHOR13
 766 0592 C0F20003 		movt	r3, #:upper16:.LANCHOR13
 767 0596 5146     		mov	r1, sl
 768 0598 1868     		ldr	r0, [r3, #0]
 769 059a FFF7FEFF 		bl	gwinSetVisible
 770              	.LVL48:
 771              		.loc 1 181 0
 772 059e 40F20000 		movw	r0, #:lower16:.LANCHOR14
 773 05a2 C0F20000 		movt	r0, #:upper16:.LANCHOR14
 774 05a6 5146     		mov	r1, sl
 775 05a8 0068     		ldr	r0, [r0, #0]
 776 05aa FFF7FEFF 		bl	gwinSetVisible
 777              	.LVL49:
 778 05ae 40F20001 		movw	r1, #:lower16:.LANCHOR15
 779 05b2 C0F20001 		movt	r1, #:upper16:.LANCHOR15
 780 05b6 0868     		ldr	r0, [r1, #0]
 781 05b8 5146     		mov	r1, sl
 782 05ba FFF7FEFF 		bl	gwinSetVisible
 783              	.LVL50:
 784              		.loc 1 182 0
 785 05be 40F20002 		movw	r2, #:lower16:.LANCHOR16
 786 05c2 C0F20002 		movt	r2, #:upper16:.LANCHOR16
 787 05c6 5146     		mov	r1, sl
 788 05c8 1068     		ldr	r0, [r2, #0]
 789 05ca FFF7FEFF 		bl	gwinSetVisible
 790              	.LVL51:
 791 05ce 40F2000C 		movw	ip, #:lower16:.LANCHOR17
 792 05d2 C0F2000C 		movt	ip, #:upper16:.LANCHOR17
 793 05d6 5146     		mov	r1, sl
 794 05d8 DCF80000 		ldr	r0, [ip, #0]
 795 05dc FFF7FEFF 		bl	gwinSetVisible
 796              	.LVL52:
 797 05e0 3868     		ldr	r0, [r7, #0]
 798 05e2 5146     		mov	r1, sl
ARM GAS  /tmp/ccKcOR50.s 			page 15


 799 05e4 FFF7FEFF 		bl	gwinSetVisible
 800              	.LVL53:
 801              		.loc 1 183 0
 802 05e8 40F20003 		movw	r3, #:lower16:.LANCHOR19
 803 05ec C0F20003 		movt	r3, #:upper16:.LANCHOR19
 804 05f0 5146     		mov	r1, sl
 805 05f2 1868     		ldr	r0, [r3, #0]
 806 05f4 FFF7FEFF 		bl	gwinSetVisible
 807              	.LVL54:
 808              		.loc 1 184 0
 809 05f8 40F20000 		movw	r0, #:lower16:.LANCHOR20
 810 05fc C0F20000 		movt	r0, #:upper16:.LANCHOR20
 811 0600 5146     		mov	r1, sl
 812 0602 0068     		ldr	r0, [r0, #0]
 813 0604 FFF7FEFF 		bl	gwinSetVisible
 814              	.LVL55:
 815 0608 40F20001 		movw	r1, #:lower16:.LANCHOR21
 816 060c C0F20001 		movt	r1, #:upper16:.LANCHOR21
 817 0610 0868     		ldr	r0, [r1, #0]
 818 0612 5146     		mov	r1, sl
 819 0614 FFF7FEFF 		bl	gwinSetVisible
 820              	.LVL56:
 821              		.loc 1 185 0
 822 0618 40F2000E 		movw	lr, #:lower16:.LANCHOR23
 823 061c C0F2000E 		movt	lr, #:upper16:.LANCHOR23
 824 0620 5146     		mov	r1, sl
 825 0622 DEF80000 		ldr	r0, [lr, #0]
 826 0626 FFF7FEFF 		bl	gwinSetVisible
 827              	.LVL57:
 828 062a D9F80000 		ldr	r0, [r9, #0]
 829 062e 5146     		mov	r1, sl
 830 0630 FFF7FEFF 		bl	gwinSetVisible
 831              	.LVL58:
 832 0634 D8F80000 		ldr	r0, [r8, #0]
 833 0638 5146     		mov	r1, sl
 834 063a FFF7FEFF 		bl	gwinSetVisible
 835              	.LVL59:
 836              		.loc 1 190 0
 837 063e 40F20002 		movw	r2, #:lower16:.LANCHOR1
 838 0642 C0F20002 		movt	r2, #:upper16:.LANCHOR1
 839 0646 1368     		ldr	r3, [r2, #0]
 840 0648 9B45     		cmp	fp, r3
 841 064a 00F08081 		beq	.L30
 842              		.loc 1 193 0
 843 064e 40F20000 		movw	r0, #:lower16:.LANCHOR2
 844 0652 C0F20000 		movt	r0, #:upper16:.LANCHOR2
 845 0656 0168     		ldr	r1, [r0, #0]
 846 0658 8B45     		cmp	fp, r1
 847 065a 00F09281 		beq	.L31
 848              		.loc 1 196 0
 849 065e 40F20002 		movw	r2, #:lower16:.LANCHOR3
 850 0662 C0F20002 		movt	r2, #:upper16:.LANCHOR3
 851 0666 1368     		ldr	r3, [r2, #0]
 852 0668 9B45     		cmp	fp, r3
 853 066a 00F0A481 		beq	.L32
 854              		.loc 1 198 0
 855 066e 40F20000 		movw	r0, #:lower16:.LANCHOR6
ARM GAS  /tmp/ccKcOR50.s 			page 16


 856 0672 C0F20000 		movt	r0, #:upper16:.LANCHOR6
 857 0676 DFF88CA0 		ldr	sl, .L38+40
 858 067a 0368     		ldr	r3, [r0, #0]
 859 067c 9B45     		cmp	fp, r3
 860 067e 00F0B081 		beq	.L33
 861              		.loc 1 200 0
 862 0682 40F2000C 		movw	ip, #:lower16:.LANCHOR4
 863 0686 C0F2000C 		movt	ip, #:upper16:.LANCHOR4
 864 068a DCF80010 		ldr	r1, [ip, #0]
 865 068e 8B45     		cmp	fp, r1
 866 0690 00F04181 		beq	.L34
 867              	.LVL60:
 868              	.L16:
 869              	.LBE17:
 870              	.LBE19:
 871              		.loc 1 297 0
 872 0694 6468     		ldr	r4, [r4, #4]
 873              	.LVL61:
 874 0696 9C42     		cmp	r4, r3
 875 0698 7FF429AF 		bne	.L27
 876              		.loc 1 298 0
 877 069c 2868     		ldr	r0, [r5, #0]
 878 069e 1749     		ldr	r1, .L38+32
 879 06a0 FFF7FEFF 		bl	gwinPrintf
 880              	.LVL62:
 881              		.loc 1 299 0
 882 06a4 4FF47A70 		mov	r0, #1000
 883 06a8 FFF7FEFF 		bl	gfxSleepMilliseconds
 884              	.LVL63:
 885              		.loc 1 300 0
 886 06ac 40F20002 		movw	r2, #:lower16:.LANCHOR19
 887 06b0 C0F20002 		movt	r2, #:upper16:.LANCHOR19
 888 06b4 1249     		ldr	r1, .L38+36
 889 06b6 1068     		ldr	r0, [r2, #0]
 890 06b8 0022     		movs	r2, #0
 891 06ba FFF7FEFF 		bl	gwinSetText
 892              	.LVL64:
 893              		.loc 1 302 0
 894 06be 4FF47A70 		mov	r0, #1000
 895 06c2 FFF7FEFF 		bl	gfxSleepMilliseconds
 896              	.LVL65:
 897              		.loc 1 303 0
 898 06c6 40F20003 		movw	r3, #:lower16:.LANCHOR19
 899 06ca C0F20003 		movt	r3, #:upper16:.LANCHOR19
 900 06ce 0349     		ldr	r1, .L38
 901 06d0 1868     		ldr	r0, [r3, #0]
 902 06d2 0022     		movs	r2, #0
 903 06d4 FFF7FEFF 		bl	gwinSetText
 904              	.LVL66:
 905 06d8 09E7     		b	.L27
 906              	.L39:
 907 06da 00BF     		.align	2
 908              	.L38:
 909 06dc 78000000 		.word	.LC23
 910 06e0 80000000 		.word	.LC24
 911 06e4 84000000 		.word	.LC25
 912 06e8 88000000 		.word	.LC26
ARM GAS  /tmp/ccKcOR50.s 			page 17


 913 06ec 90000000 		.word	.LC27
 914 06f0 98000000 		.word	.LC28
 915 06f4 00000000 		.word	.LANCHOR26
 916 06f8 D4000000 		.word	.LC33
 917 06fc E8000000 		.word	.LC34
 918 0700 FC000000 		.word	.LC35
 919 0704 00000000 		.word	.LANCHOR6
 920              	.LVL67:
 921              	.L7:
 922              		.loc 1 276 0
 923 0708 4068     		ldr	r0, [r0, #4]
 924              	.LVL68:
 925 070a D5F800A0 		ldr	sl, [r5, #0]
 926 070e FFF7FEFF 		bl	gwinGetText
 927              	.LVL69:
 928 0712 94F808C0 		ldrb	ip, [r4, #8]	@ zero_extendqisi2
 929 0716 DFF850E3 		ldr	lr, .L40+116
 930 071a B64B     		ldr	r3, .L40
 931 071c B649     		ldr	r1, .L40+4
 932 071e 0246     		mov	r2, r0
 933 0720 BCF1000F 		cmp	ip, #0
 934 0724 08BF     		it	eq
 935 0726 7346     		moveq	r3, lr
 936 0728 5046     		mov	r0, sl
 937 072a FFF7FEFF 		bl	gwinPrintf
 938              	.LVL70:
 939              		.loc 1 279 0
 940 072e 6068     		ldr	r0, [r4, #4]
 941 0730 3968     		ldr	r1, [r7, #0]
 942 0732 8842     		cmp	r0, r1
 943 0734 7FF4DBAE 		bne	.L27
 944              		.loc 1 280 0
 945 0738 B04B     		ldr	r3, .L40+8
 946 073a 94F808B0 		ldrb	fp, [r4, #8]	@ zero_extendqisi2
 947 073e B04A     		ldr	r2, .L40+12
 948 0740 2868     		ldr	r0, [r5, #0]
 949 0742 B049     		ldr	r1, .L40+16
 950 0744 BBF1000F 		cmp	fp, #0
 951 0748 18BF     		it	ne
 952 074a 1A46     		movne	r2, r3
 953 074c FFF7FEFF 		bl	gwinPrintf
 954              	.LVL71:
 955              		.loc 1 281 0
 956 0750 247A     		ldrb	r4, [r4, #8]	@ zero_extendqisi2
 957              	.LVL72:
 958              	.LBB20:
 959              	.LBB21:
 960              		.loc 1 210 0
 961 0752 40F20002 		movw	r2, #:lower16:.LANCHOR8
 962 0756 C0F20002 		movt	r2, #:upper16:.LANCHOR8
 963              	.LBE21:
 964              	.LBE20:
 965              		.loc 1 281 0
 966 075a 84F00104 		eor	r4, r4, #1
 967              	.LVL73:
 968              	.LBB23:
 969              	.LBB22:
ARM GAS  /tmp/ccKcOR50.s 			page 18


 970              		.loc 1 210 0
 971 075e 1068     		ldr	r0, [r2, #0]
 972 0760 2146     		mov	r1, r4
 973 0762 FFF7FEFF 		bl	gwinSetEnabled
 974              	.LVL74:
 975 0766 40F20000 		movw	r0, #:lower16:.LANCHOR9
 976 076a C0F20000 		movt	r0, #:upper16:.LANCHOR9
 977 076e 2146     		mov	r1, r4
 978 0770 0068     		ldr	r0, [r0, #0]
 979 0772 FFF7FEFF 		bl	gwinSetEnabled
 980              	.LVL75:
 981              		.loc 1 211 0
 982 0776 40F20001 		movw	r1, #:lower16:.LANCHOR10
 983 077a C0F20001 		movt	r1, #:upper16:.LANCHOR10
 984 077e 40F2000A 		movw	sl, #:lower16:.LANCHOR11
 985 0782 C0F2000A 		movt	sl, #:upper16:.LANCHOR11
 986 0786 0868     		ldr	r0, [r1, #0]
 987 0788 2146     		mov	r1, r4
 988 078a FFF7FEFF 		bl	gwinSetEnabled
 989              	.LVL76:
 990 078e DAF80000 		ldr	r0, [sl, #0]
 991 0792 2146     		mov	r1, r4
 992 0794 FFF7FEFF 		bl	gwinSetEnabled
 993              	.LVL77:
 994              		.loc 1 212 0
 995 0798 40F20003 		movw	r3, #:lower16:.LANCHOR12
 996 079c C0F20003 		movt	r3, #:upper16:.LANCHOR12
 997 07a0 2146     		mov	r1, r4
 998 07a2 1868     		ldr	r0, [r3, #0]
 999 07a4 FFF7FEFF 		bl	gwinSetEnabled
 1000              	.LVL78:
 1001 07a8 40F20002 		movw	r2, #:lower16:.LANCHOR13
 1002 07ac C0F20002 		movt	r2, #:upper16:.LANCHOR13
 1003 07b0 2146     		mov	r1, r4
 1004 07b2 1068     		ldr	r0, [r2, #0]
 1005 07b4 FFF7FEFF 		bl	gwinSetEnabled
 1006              	.LVL79:
 1007              		.loc 1 213 0
 1008 07b8 40F20000 		movw	r0, #:lower16:.LANCHOR14
 1009 07bc C0F20000 		movt	r0, #:upper16:.LANCHOR14
 1010 07c0 2146     		mov	r1, r4
 1011 07c2 0068     		ldr	r0, [r0, #0]
 1012 07c4 FFF7FEFF 		bl	gwinSetEnabled
 1013              	.LVL80:
 1014 07c8 40F2000C 		movw	ip, #:lower16:.LANCHOR15
 1015 07cc C0F2000C 		movt	ip, #:upper16:.LANCHOR15
 1016 07d0 2146     		mov	r1, r4
 1017 07d2 DCF80000 		ldr	r0, [ip, #0]
 1018 07d6 FFF7FEFF 		bl	gwinSetEnabled
 1019              	.LVL81:
 1020              		.loc 1 214 0
 1021 07da 40F20001 		movw	r1, #:lower16:.LANCHOR16
 1022 07de C0F20001 		movt	r1, #:upper16:.LANCHOR16
 1023 07e2 0868     		ldr	r0, [r1, #0]
 1024 07e4 2146     		mov	r1, r4
 1025 07e6 FFF7FEFF 		bl	gwinSetEnabled
 1026              	.LVL82:
ARM GAS  /tmp/ccKcOR50.s 			page 19


 1027 07ea 40F20003 		movw	r3, #:lower16:.LANCHOR17
 1028 07ee C0F20003 		movt	r3, #:upper16:.LANCHOR17
 1029 07f2 2146     		mov	r1, r4
 1030 07f4 1868     		ldr	r0, [r3, #0]
 1031 07f6 FFF7FEFF 		bl	gwinSetEnabled
 1032              	.LVL83:
 1033              		.loc 1 215 0
 1034 07fa 40F20002 		movw	r2, #:lower16:.LANCHOR19
 1035 07fe C0F20002 		movt	r2, #:upper16:.LANCHOR19
 1036 0802 2146     		mov	r1, r4
 1037 0804 1068     		ldr	r0, [r2, #0]
 1038 0806 FFF7FEFF 		bl	gwinSetEnabled
 1039              	.LVL84:
 1040              		.loc 1 216 0
 1041 080a 40F2000E 		movw	lr, #:lower16:.LANCHOR20
 1042 080e C0F2000E 		movt	lr, #:upper16:.LANCHOR20
 1043 0812 2146     		mov	r1, r4
 1044 0814 DEF80000 		ldr	r0, [lr, #0]
 1045 0818 FFF7FEFF 		bl	gwinSetEnabled
 1046              	.LVL85:
 1047 081c 40F20000 		movw	r0, #:lower16:.LANCHOR21
 1048 0820 C0F20000 		movt	r0, #:upper16:.LANCHOR21
 1049 0824 2146     		mov	r1, r4
 1050 0826 0068     		ldr	r0, [r0, #0]
 1051 0828 FFF7FEFF 		bl	gwinSetEnabled
 1052              	.LVL86:
 1053              		.loc 1 218 0
 1054 082c 40F20001 		movw	r1, #:lower16:.LANCHOR23
 1055 0830 C0F20001 		movt	r1, #:upper16:.LANCHOR23
 1056 0834 0868     		ldr	r0, [r1, #0]
 1057 0836 2146     		mov	r1, r4
 1058 0838 FFF7FEFF 		bl	gwinSetEnabled
 1059              	.LVL87:
 1060 083c D9F80000 		ldr	r0, [r9, #0]
 1061 0840 2146     		mov	r1, r4
 1062 0842 FFF7FEFF 		bl	gwinSetEnabled
 1063              	.LVL88:
 1064 0846 D8F80000 		ldr	r0, [r8, #0]
 1065 084a 2146     		mov	r1, r4
 1066 084c FFF7FEFF 		bl	gwinSetEnabled
 1067              	.LVL89:
 1068 0850 4DE6     		b	.L27
 1069              	.LVL90:
 1070              	.L5:
 1071              	.LBE22:
 1072              	.LBE23:
 1073              		.loc 1 268 0
 1074 0852 4068     		ldr	r0, [r0, #4]
 1075              	.LVL91:
 1076 0854 D5F800A0 		ldr	sl, [r5, #0]
 1077 0858 FFF7FEFF 		bl	gwinGetText
 1078              	.LVL92:
 1079 085c 6A49     		ldr	r1, .L40+20
 1080 085e 0246     		mov	r2, r0
 1081 0860 5046     		mov	r0, sl
 1082 0862 FFF7FEFF 		bl	gwinPrintf
 1083              	.LVL93:
ARM GAS  /tmp/ccKcOR50.s 			page 20


 1084              		.loc 1 269 0
 1085 0866 42E6     		b	.L27
 1086              	.LVL94:
 1087              	.L4:
 1088              		.loc 1 335 0
 1089 0868 2868     		ldr	r0, [r5, #0]
 1090              	.LVL95:
 1091 086a 6849     		ldr	r1, .L40+24
 1092 086c FFF7FEFF 		bl	gwinPrintf
 1093              	.LVL96:
 1094              		.loc 1 336 0
 1095 0870 3DE6     		b	.L27
 1096              	.LVL97:
 1097              	.L6:
 1098              		.loc 1 272 0
 1099 0872 4068     		ldr	r0, [r0, #4]
 1100              	.LVL98:
 1101 0874 D5F800B0 		ldr	fp, [r5, #0]
 1102 0878 FFF7FEFF 		bl	gwinGetText
 1103              	.LVL99:
 1104 087c 6449     		ldr	r1, .L40+28
 1105 087e A368     		ldr	r3, [r4, #8]
 1106 0880 0246     		mov	r2, r0
 1107 0882 5846     		mov	r0, fp
 1108 0884 FFF7FEFF 		bl	gwinPrintf
 1109              	.LVL100:
 1110              		.loc 1 273 0
 1111 0888 31E6     		b	.L27
 1112              	.L29:
 1113              		.loc 1 290 0
 1114 088a BAF1020F 		cmp	sl, #2
 1115 088e 7FF42EAE 		bne	.L27
 1116              	.LBB24:
 1117              		.loc 1 311 0
 1118 0892 40F20000 		movw	r0, #:lower16:.LANCHOR25
 1119 0896 C0F20000 		movt	r0, #:upper16:.LANCHOR25
 1120 089a 5E49     		ldr	r1, .L40+32
 1121 089c 0068     		ldr	r0, [r0, #0]
 1122 089e FFF7FEFF 		bl	gwinPrintf
 1123              	.LVL101:
 1124              		.loc 1 313 0
 1125 08a2 6368     		ldr	r3, [r4, #4]
 1126 08a4 D8F80020 		ldr	r2, [r8, #0]
 1127 08a8 9342     		cmp	r3, r2
 1128 08aa 32D0     		beq	.L23
 1129              		.loc 1 315 0
 1130 08ac D9F80000 		ldr	r0, [r9, #0]
 1131              		.loc 1 316 0
 1132 08b0 5949     		ldr	r1, .L40+36
 1133 08b2 5A4C     		ldr	r4, .L40+40
 1134              	.LVL102:
 1135 08b4 8342     		cmp	r3, r0
 1136 08b6 08BF     		it	eq
 1137 08b8 0C46     		moveq	r4, r1
 1138              	.L20:
 1139              	.LVL103:
 1140              		.loc 1 322 0
ARM GAS  /tmp/ccKcOR50.s 			page 21


 1141 08ba 0020     		movs	r0, #0
 1142 08bc 0146     		mov	r1, r0
 1143 08be B6F90020 		ldrsh	r2, [r6, #0]
 1144 08c2 B6F90230 		ldrsh	r3, [r6, #2]
 1145 08c6 FFF7FEFF 		bl	gdispSetClip
 1146              	.LVL104:
 1147              		.loc 1 324 0
 1148 08ca B6F90230 		ldrsh	r3, [r6, #2]
 1149 08ce B4F800C0 		ldrh	ip, [r4, #0]
 1150 08d2 B6F90020 		ldrsh	r2, [r6, #0]
 1151 08d6 CDF800C0 		str	ip, [sp, #0]
 1152 08da 0020     		movs	r0, #0
 1153 08dc 03EBD373 		add	r3, r3, r3, lsr #31
 1154 08e0 0146     		mov	r1, r0
 1155 08e2 5B10     		asrs	r3, r3, #1
 1156 08e4 FFF7FEFF 		bl	gdispFillArea
 1157              	.LVL105:
 1158              		.loc 1 325 0
 1159 08e8 B6F90220 		ldrsh	r2, [r6, #2]
 1160 08ec B6F90030 		ldrsh	r3, [r6, #0]
 1161 08f0 2088     		ldrh	r0, [r4, #0]
 1162 08f2 02EBD271 		add	r1, r2, r2, lsr #31
 1163 08f6 4910     		asrs	r1, r1, #1
 1164 08f8 03EBD372 		add	r2, r3, r3, lsr #31
 1165 08fc 0090     		str	r0, [sp, #0]
 1166 08fe 0B46     		mov	r3, r1
 1167 0900 0020     		movs	r0, #0
 1168 0902 5210     		asrs	r2, r2, #1
 1169 0904 FFF7FEFF 		bl	gdispFillArea
 1170              	.LVL106:
 1171              		.loc 1 328 0
 1172 0908 2046     		mov	r0, r4
 1173 090a 0121     		movs	r1, #1
 1174 090c FFF7FEFF 		bl	gwinSetDefaultStyle
 1175              	.LVL107:
 1176              	.LBE24:
 1177              		.loc 1 330 0
 1178 0910 EDE5     		b	.L27
 1179              	.LVL108:
 1180              	.L23:
 1181              	.LBB25:
 1182              		.loc 1 314 0
 1183 0912 434C     		ldr	r4, .L40+44
 1184              	.LVL109:
 1185 0914 D1E7     		b	.L20
 1186              	.LVL110:
 1187              	.L34:
 1188              	.LBE25:
 1189              	.LBB26:
 1190              	.LBB18:
 1191              		.loc 1 201 0
 1192 0916 434A     		ldr	r2, .L40+48
 1193 0918 0121     		movs	r1, #1
 1194 091a 1068     		ldr	r0, [r2, #0]
 1195 091c FFF7FEFF 		bl	gwinSetVisible
 1196              	.LVL111:
 1197 0920 414B     		ldr	r3, .L40+52
ARM GAS  /tmp/ccKcOR50.s 			page 22


 1198 0922 0121     		movs	r1, #1
 1199 0924 1868     		ldr	r0, [r3, #0]
 1200 0926 FFF7FEFF 		bl	gwinSetVisible
 1201              	.LVL112:
 1202              		.loc 1 202 0
 1203 092a 4048     		ldr	r0, .L40+56
 1204 092c 0121     		movs	r1, #1
 1205 092e 0068     		ldr	r0, [r0, #0]
 1206 0930 FFF7FEFF 		bl	gwinSetVisible
 1207              	.LVL113:
 1208 0934 3E49     		ldr	r1, .L40+60
 1209 0936 0868     		ldr	r0, [r1, #0]
 1210 0938 0121     		movs	r1, #1
 1211 093a FFF7FEFF 		bl	gwinSetVisible
 1212              	.LVL114:
 1213 093e 3D4A     		ldr	r2, .L40+64
 1214 0940 0121     		movs	r1, #1
 1215 0942 1068     		ldr	r0, [r2, #0]
 1216 0944 FFF7FEFF 		bl	gwinSetVisible
 1217              	.LVL115:
 1218 0948 DAF80030 		ldr	r3, [sl, #0]
 1219 094c A2E6     		b	.L16
 1220              	.L30:
 1221              		.loc 1 191 0
 1222 094e 3A49     		ldr	r1, .L40+68
 1223 0950 0868     		ldr	r0, [r1, #0]
 1224 0952 0121     		movs	r1, #1
 1225 0954 FFF7FEFF 		bl	gwinSetVisible
 1226              	.LVL116:
 1227 0958 384A     		ldr	r2, .L40+72
 1228 095a 0121     		movs	r1, #1
 1229 095c 1068     		ldr	r0, [r2, #0]
 1230 095e FFF7FEFF 		bl	gwinSetVisible
 1231              	.LVL117:
 1232              		.loc 1 192 0
 1233 0962 374B     		ldr	r3, .L40+76
 1234 0964 0121     		movs	r1, #1
 1235 0966 1868     		ldr	r0, [r3, #0]
 1236 0968 FFF7FEFF 		bl	gwinSetVisible
 1237              	.LVL118:
 1238 096c 3548     		ldr	r0, .L40+80
 1239 096e 0121     		movs	r1, #1
 1240 0970 0068     		ldr	r0, [r0, #0]
 1241 0972 FFF7FEFF 		bl	gwinSetVisible
 1242              	.LVL119:
 1243 0976 40F20001 		movw	r1, #:lower16:.LANCHOR6
 1244 097a C0F20001 		movt	r1, #:upper16:.LANCHOR6
 1245 097e 0B68     		ldr	r3, [r1, #0]
 1246 0980 88E6     		b	.L16
 1247              	.L31:
 1248              		.loc 1 194 0
 1249 0982 3148     		ldr	r0, .L40+84
 1250 0984 0121     		movs	r1, #1
 1251 0986 0068     		ldr	r0, [r0, #0]
 1252 0988 FFF7FEFF 		bl	gwinSetVisible
 1253              	.LVL120:
 1254 098c 2F49     		ldr	r1, .L40+88
ARM GAS  /tmp/ccKcOR50.s 			page 23


 1255 098e 0868     		ldr	r0, [r1, #0]
 1256 0990 0121     		movs	r1, #1
 1257 0992 FFF7FEFF 		bl	gwinSetVisible
 1258              	.LVL121:
 1259              		.loc 1 195 0
 1260 0996 2E4A     		ldr	r2, .L40+92
 1261 0998 0121     		movs	r1, #1
 1262 099a 1068     		ldr	r0, [r2, #0]
 1263 099c FFF7FEFF 		bl	gwinSetVisible
 1264              	.LVL122:
 1265 09a0 2C4B     		ldr	r3, .L40+96
 1266 09a2 0121     		movs	r1, #1
 1267 09a4 1868     		ldr	r0, [r3, #0]
 1268 09a6 FFF7FEFF 		bl	gwinSetVisible
 1269              	.LVL123:
 1270 09aa 40F20000 		movw	r0, #:lower16:.LANCHOR6
 1271 09ae C0F20000 		movt	r0, #:upper16:.LANCHOR6
 1272 09b2 0368     		ldr	r3, [r0, #0]
 1273 09b4 6EE6     		b	.L16
 1274              	.L32:
 1275              		.loc 1 197 0
 1276 09b6 2849     		ldr	r1, .L40+100
 1277 09b8 0868     		ldr	r0, [r1, #0]
 1278 09ba 0121     		movs	r1, #1
 1279 09bc FFF7FEFF 		bl	gwinSetVisible
 1280              	.LVL124:
 1281 09c0 264A     		ldr	r2, .L40+104
 1282 09c2 0121     		movs	r1, #1
 1283 09c4 1068     		ldr	r0, [r2, #0]
 1284 09c6 FFF7FEFF 		bl	gwinSetVisible
 1285              	.LVL125:
 1286 09ca 40F2000B 		movw	fp, #:lower16:.LANCHOR6
 1287              	.LVL126:
 1288 09ce 244B     		ldr	r3, .L40+108
 1289 09d0 C0F2000B 		movt	fp, #:upper16:.LANCHOR6
 1290 09d4 1868     		ldr	r0, [r3, #0]
 1291 09d6 0121     		movs	r1, #1
 1292 09d8 FFF7FEFF 		bl	gwinSetVisible
 1293              	.LVL127:
 1294 09dc DBF80030 		ldr	r3, [fp, #0]
 1295 09e0 58E6     		b	.L16
 1296              	.LVL128:
 1297              	.L33:
 1298              		.loc 1 199 0
 1299 09e2 2048     		ldr	r0, .L40+112
 1300 09e4 0121     		movs	r1, #1
 1301 09e6 0068     		ldr	r0, [r0, #0]
 1302 09e8 FFF7FEFF 		bl	gwinSetVisible
 1303              	.LVL129:
 1304 09ec DAF80030 		ldr	r3, [sl, #0]
 1305 09f0 50E6     		b	.L16
 1306              	.L41:
 1307 09f2 00BF     		.align	2
 1308              	.L40:
 1309 09f4 00000000 		.word	.LC0
 1310 09f8 BC000000 		.word	.LC31
 1311 09fc 14000000 		.word	.LC2
ARM GAS  /tmp/ccKcOR50.s 			page 24


 1312 0a00 1C000000 		.word	.LC3
 1313 0a04 CC000000 		.word	.LC32
 1314 0a08 A0000000 		.word	.LC29
 1315 0a0c 24010000 		.word	.LC37
 1316 0a10 AC000000 		.word	.LC30
 1317 0a14 0C010000 		.word	.LC36
 1318 0a18 00000000 		.word	BlackWidgetStyle
 1319 0a1c 00000000 		.word	WhiteWidgetStyle
 1320 0a20 00000000 		.word	.LANCHOR0
 1321 0a24 00000000 		.word	.LANCHOR20
 1322 0a28 00000000 		.word	.LANCHOR21
 1323 0a2c 00000000 		.word	.LANCHOR23
 1324 0a30 00000000 		.word	.LANCHOR22
 1325 0a34 00000000 		.word	.LANCHOR24
 1326 0a38 00000000 		.word	.LANCHOR8
 1327 0a3c 00000000 		.word	.LANCHOR9
 1328 0a40 00000000 		.word	.LANCHOR10
 1329 0a44 00000000 		.word	.LANCHOR11
 1330 0a48 00000000 		.word	.LANCHOR12
 1331 0a4c 00000000 		.word	.LANCHOR13
 1332 0a50 00000000 		.word	.LANCHOR14
 1333 0a54 00000000 		.word	.LANCHOR15
 1334 0a58 00000000 		.word	.LANCHOR16
 1335 0a5c 00000000 		.word	.LANCHOR17
 1336 0a60 00000000 		.word	.LANCHOR18
 1337 0a64 00000000 		.word	.LANCHOR19
 1338 0a68 08000000 		.word	.LC1
 1339              	.LBE18:
 1340              	.LBE26:
 1341              		.cfi_endproc
 1342              	.LFE121:
 1343              		.size	main, .-main
 1344 0a6c AFF30080 		.section	.bss.ghLabel1,"aw",%nobits
 1345              		.align	2
 1346              		.set	.LANCHOR19,. + 0
 1347              		.type	ghLabel1, %object
 1348              		.size	ghLabel1, 4
 1349              	ghLabel1:
 1350 0000 00000000 		.space	4
 1351              		.section	.bss.ghRadioYellow,"aw",%nobits
 1352              		.align	2
 1353              		.set	.LANCHOR24,. + 0
 1354              		.type	ghRadioYellow, %object
 1355              		.size	ghRadioYellow, 4
 1356              	ghRadioYellow:
 1357 0000 00000000 		.space	4
 1358              		.section	.bss.ghTabCheckboxes,"aw",%nobits
 1359              		.align	2
 1360              		.set	.LANCHOR3,. + 0
 1361              		.type	ghTabCheckboxes, %object
 1362              		.size	ghTabCheckboxes, 4
 1363              	ghTabCheckboxes:
 1364 0000 00000000 		.space	4
 1365              		.section	.bss.ghCheckDisableAll,"aw",%nobits
 1366              		.align	2
 1367              		.set	.LANCHOR18,. + 0
 1368              		.type	ghCheckDisableAll, %object
ARM GAS  /tmp/ccKcOR50.s 			page 25


 1369              		.size	ghCheckDisableAll, 4
 1370              	ghCheckDisableAll:
 1371 0000 00000000 		.space	4
 1372              		.section	.bss.ghRadioWhite,"aw",%nobits
 1373              		.align	2
 1374              		.set	.LANCHOR23,. + 0
 1375              		.type	ghRadioWhite, %object
 1376              		.size	ghRadioWhite, 4
 1377              	ghRadioWhite:
 1378 0000 00000000 		.space	4
 1379              		.section	.bss.ghRadio1,"aw",%nobits
 1380              		.align	2
 1381              		.set	.LANCHOR20,. + 0
 1382              		.type	ghRadio1, %object
 1383              		.size	ghRadio1, 4
 1384              	ghRadio1:
 1385 0000 00000000 		.space	4
 1386              		.section	.bss.ghRadio2,"aw",%nobits
 1387              		.align	2
 1388              		.set	.LANCHOR21,. + 0
 1389              		.type	ghRadio2, %object
 1390              		.size	ghRadio2, 4
 1391              	ghRadio2:
 1392 0000 00000000 		.space	4
 1393              		.section	.bss.ghTabRadios,"aw",%nobits
 1394              		.align	2
 1395              		.set	.LANCHOR4,. + 0
 1396              		.type	ghTabRadios, %object
 1397              		.size	ghTabRadios, 4
 1398              	ghTabRadios:
 1399 0000 00000000 		.space	4
 1400              		.section	.bss.ghTabImages,"aw",%nobits
 1401              		.align	2
 1402              		.set	.LANCHOR7,. + 0
 1403              		.type	ghTabImages, %object
 1404              		.size	ghTabImages, 4
 1405              	ghTabImages:
 1406 0000 00000000 		.space	4
 1407              		.section	.bss.ghSlider1,"aw",%nobits
 1408              		.align	2
 1409              		.set	.LANCHOR12,. + 0
 1410              		.type	ghSlider1, %object
 1411              		.size	ghSlider1, 4
 1412              	ghSlider1:
 1413 0000 00000000 		.space	4
 1414              		.section	.bss.ghSlider2,"aw",%nobits
 1415              		.align	2
 1416              		.set	.LANCHOR13,. + 0
 1417              		.type	ghSlider2, %object
 1418              		.size	ghSlider2, 4
 1419              	ghSlider2:
 1420 0000 00000000 		.space	4
 1421              		.section	.bss.ghSlider3,"aw",%nobits
 1422              		.align	2
 1423              		.set	.LANCHOR14,. + 0
 1424              		.type	ghSlider3, %object
 1425              		.size	ghSlider3, 4
ARM GAS  /tmp/ccKcOR50.s 			page 26


 1426              	ghSlider3:
 1427 0000 00000000 		.space	4
 1428              		.section	.bss.ghSlider4,"aw",%nobits
 1429              		.align	2
 1430              		.set	.LANCHOR15,. + 0
 1431              		.type	ghSlider4, %object
 1432              		.size	ghSlider4, 4
 1433              	ghSlider4:
 1434 0000 00000000 		.space	4
 1435              		.section	.rodata.str1.4,"aMS",%progbits,1
 1436              		.align	2
 1437              	.LC0:
 1438 0000 43686563 		.ascii	"Checked\000"
 1438      6B656400 
 1439              	.LC1:
 1440 0008 556E4368 		.ascii	"UnChecked\000"
 1440      65636B65 
 1440      6400
 1441 0012 0000     		.space	2
 1442              	.LC2:
 1443 0014 44697361 		.ascii	"Disable\000"
 1443      626C6500 
 1444              	.LC3:
 1445 001c 456E6162 		.ascii	"Enable\000"
 1445      6C6500
 1446 0023 00       		.space	1
 1447              	.LC4:
 1448 0024 55493200 		.ascii	"UI2\000"
 1449              	.LC5:
 1450 0028 425400   		.ascii	"BT\000"
 1451 002b 00       		.space	1
 1452              	.LC6:
 1453 002c 534C00   		.ascii	"SL\000"
 1454 002f 00       		.space	1
 1455              	.LC7:
 1456 0030 434200   		.ascii	"CB\000"
 1457 0033 00       		.space	1
 1458              	.LC8:
 1459 0034 524400   		.ascii	"RD\000"
 1460 0037 00       		.space	1
 1461              	.LC9:
 1462 0038 4C5300   		.ascii	"LS\000"
 1463 003b 00       		.space	1
 1464              	.LC10:
 1465 003c 4C4200   		.ascii	"LB\000"
 1466 003f 00       		.space	1
 1467              	.LC11:
 1468 0040 494D00   		.ascii	"IM\000"
 1469 0043 00       		.space	1
 1470              	.LC12:
 1471 0044 423100   		.ascii	"B1\000"
 1472 0047 00       		.space	1
 1473              	.LC13:
 1474 0048 423200   		.ascii	"B2\000"
 1475 004b 00       		.space	1
 1476              	.LC14:
 1477 004c 423300   		.ascii	"B3\000"
ARM GAS  /tmp/ccKcOR50.s 			page 27


 1478 004f 00       		.space	1
 1479              	.LC15:
 1480 0050 423400   		.ascii	"B4\000"
 1481 0053 00       		.space	1
 1482              	.LC16:
 1483 0054 533100   		.ascii	"S1\000"
 1484 0057 00       		.space	1
 1485              	.LC17:
 1486 0058 533200   		.ascii	"S2\000"
 1487 005b 00       		.space	1
 1488              	.LC18:
 1489 005c 533300   		.ascii	"S3\000"
 1490 005f 00       		.space	1
 1491              	.LC19:
 1492 0060 533400   		.ascii	"S4\000"
 1493 0063 00       		.space	1
 1494              	.LC20:
 1495 0064 433100   		.ascii	"C1\000"
 1496 0067 00       		.space	1
 1497              	.LC21:
 1498 0068 433200   		.ascii	"C2\000"
 1499 006b 00       		.space	1
 1500              	.LC22:
 1501 006c 44697361 		.ascii	"Disable All\000"
 1501      626C6520 
 1501      416C6C00 
 1502              	.LC23:
 1503 0078 4C616265 		.ascii	"Label\000"
 1503      6C00
 1504 007e 0000     		.space	2
 1505              	.LC24:
 1506 0080 59657300 		.ascii	"Yes\000"
 1507              	.LC25:
 1508 0084 4E6F00   		.ascii	"No\000"
 1509 0087 00       		.space	1
 1510              	.LC26:
 1511 0088 426C6163 		.ascii	"Black\000"
 1511      6B00
 1512 008e 0000     		.space	2
 1513              	.LC27:
 1514 0090 57686974 		.ascii	"White\000"
 1514      6500
 1515 0096 0000     		.space	2
 1516              	.LC28:
 1517 0098 59656C6C 		.ascii	"Yellow\000"
 1517      6F7700
 1518 009f 00       		.space	1
 1519              	.LC29:
 1520 00a0 42757474 		.ascii	"Button %s\012\000"
 1520      6F6E2025 
 1520      730A00
 1521 00ab 00       		.space	1
 1522              	.LC30:
 1523 00ac 536C6964 		.ascii	"Slider %s=%d\012\000"
 1523      65722025 
 1523      733D2564 
 1523      0A00
ARM GAS  /tmp/ccKcOR50.s 			page 28


 1524 00ba 0000     		.space	2
 1525              	.LC31:
 1526 00bc 43686563 		.ascii	"Checkbox %s=%s\012\000"
 1526      6B626F78 
 1526      2025733D 
 1526      25730A00 
 1527              	.LC32:
 1528 00cc 25732041 		.ascii	"%s All\012\000"
 1528      6C6C0A00 
 1529              	.LC33:
 1530 00d4 52616469 		.ascii	"Radio Group %u=%s\012\000"
 1530      6F204772 
 1530      6F757020 
 1530      25753D25 
 1530      730A00
 1531 00e7 00       		.space	1
 1532              	.LC34:
 1533 00e8 4368616E 		.ascii	"Change Label Text\012\000"
 1533      6765204C 
 1533      6162656C 
 1533      20546578 
 1533      740A00
 1534 00fb 00       		.space	1
 1535              	.LC35:
 1536 00fc 56657279 		.ascii	"Very Big Label\000"
 1536      20426967 
 1536      204C6162 
 1536      656C00
 1537 010b 00       		.space	1
 1538              	.LC36:
 1539 010c 4368616E 		.ascii	"Change Color Scheme\012\000"
 1539      67652043 
 1539      6F6C6F72 
 1539      20536368 
 1539      656D650A 
 1540 0121 000000   		.space	3
 1541              	.LC37:
 1542 0124 556E6B6E 		.ascii	"Unknown %d\012\000"
 1542      6F776E20 
 1542      25640A00 
 1543              		.section	.bss.ghTabLists,"aw",%nobits
 1544              		.align	2
 1545              		.set	.LANCHOR5,. + 0
 1546              		.type	ghTabLists, %object
 1547              		.size	ghTabLists, 4
 1548              	ghTabLists:
 1549 0000 00000000 		.space	4
 1550              		.section	.bss.ghTabSliders,"aw",%nobits
 1551              		.align	2
 1552              		.set	.LANCHOR2,. + 0
 1553              		.type	ghTabSliders, %object
 1554              		.size	ghTabSliders, 4
 1555              	ghTabSliders:
 1556 0000 00000000 		.space	4
 1557              		.section	.bss.ghCheckbox1,"aw",%nobits
 1558              		.align	2
 1559              		.set	.LANCHOR16,. + 0
ARM GAS  /tmp/ccKcOR50.s 			page 29


 1560              		.type	ghCheckbox1, %object
 1561              		.size	ghCheckbox1, 4
 1562              	ghCheckbox1:
 1563 0000 00000000 		.space	4
 1564              		.section	.bss.ghCheckbox2,"aw",%nobits
 1565              		.align	2
 1566              		.set	.LANCHOR17,. + 0
 1567              		.type	ghCheckbox2, %object
 1568              		.size	ghCheckbox2, 4
 1569              	ghCheckbox2:
 1570 0000 00000000 		.space	4
 1571              		.section	.bss.ghTabLabels,"aw",%nobits
 1572              		.align	2
 1573              		.set	.LANCHOR6,. + 0
 1574              		.type	ghTabLabels, %object
 1575              		.size	ghTabLabels, 4
 1576              	ghTabLabels:
 1577 0000 00000000 		.space	4
 1578              		.section	.bss.ghConsole,"aw",%nobits
 1579              		.align	2
 1580              		.set	.LANCHOR25,. + 0
 1581              		.type	ghConsole, %object
 1582              		.size	ghConsole, 4
 1583              	ghConsole:
 1584 0000 00000000 		.space	4
 1585              		.section	.rodata.YellowWidgetStyle,"a",%progbits
 1586              		.align	2
 1587              		.set	.LANCHOR0,. + 0
 1588              		.type	YellowWidgetStyle, %object
 1589              		.size	YellowWidgetStyle, 26
 1590              	YellowWidgetStyle:
 1591 0000 E0FF     		.short	-32
 1592 0002 1F00     		.short	31
 1593 0004 0842     		.short	16904
 1594 0006 1CE7     		.short	-6372
 1595 0008 1CE7     		.short	-6372
 1596 000a 18C6     		.short	-14824
 1597 000c 1084     		.short	-31728
 1598 000e 1CE7     		.short	-6372
 1599 0010 18C7     		.short	-14568
 1600 0012 1FF8     		.short	-2017
 1601 0014 0842     		.short	16904
 1602 0016 1084     		.short	-31728
 1603 0018 0007     		.short	1792
 1604 001a 0000     		.section	.bss.ghButton1,"aw",%nobits
 1605              		.align	2
 1606              		.set	.LANCHOR8,. + 0
 1607              		.type	ghButton1, %object
 1608              		.size	ghButton1, 4
 1609              	ghButton1:
 1610 0000 00000000 		.space	4
 1611              		.section	.bss.ghButton2,"aw",%nobits
 1612              		.align	2
 1613              		.set	.LANCHOR9,. + 0
 1614              		.type	ghButton2, %object
 1615              		.size	ghButton2, 4
 1616              	ghButton2:
ARM GAS  /tmp/ccKcOR50.s 			page 30


 1617 0000 00000000 		.space	4
 1618              		.section	.bss.ghButton3,"aw",%nobits
 1619              		.align	2
 1620              		.set	.LANCHOR10,. + 0
 1621              		.type	ghButton3, %object
 1622              		.size	ghButton3, 4
 1623              	ghButton3:
 1624 0000 00000000 		.space	4
 1625              		.section	.bss.ghButton4,"aw",%nobits
 1626              		.align	2
 1627              		.set	.LANCHOR11,. + 0
 1628              		.type	ghButton4, %object
 1629              		.size	ghButton4, 4
 1630              	ghButton4:
 1631 0000 00000000 		.space	4
 1632              		.section	.bss.gl,"aw",%nobits
 1633              		.align	2
 1634              		.set	.LANCHOR26,. + 0
 1635              		.type	gl, %object
 1636              		.size	gl, 72
 1637              	gl:
 1638 0000 00000000 		.space	72
 1638      00000000 
 1638      00000000 
 1638      00000000 
 1638      00000000 
 1639              		.section	.bss.ghTabButtons,"aw",%nobits
 1640              		.align	2
 1641              		.set	.LANCHOR1,. + 0
 1642              		.type	ghTabButtons, %object
 1643              		.size	ghTabButtons, 4
 1644              	ghTabButtons:
 1645 0000 00000000 		.space	4
 1646              		.section	.bss.ghRadioBlack,"aw",%nobits
 1647              		.align	2
 1648              		.set	.LANCHOR22,. + 0
 1649              		.type	ghRadioBlack, %object
 1650              		.size	ghRadioBlack, 4
 1651              	ghRadioBlack:
 1652 0000 00000000 		.space	4
 1653              		.text
 1654              	.Letext0:
 1655              		.file 2 "/usr/bin/../lib/gcc/arm-none-eabi/4.7.4/include/stddef.h"
 1656              		.file 3 "/usr/bin/../lib/gcc/arm-none-eabi/4.7.4/../../../../arm-none-eabi/include/stdint.h"
 1657              		.file 4 "../../os/ports/GCC/ARMCMx/chtypes.h"
 1658              		.file 5 "../../os/kernel/include/chlists.h"
 1659              		.file 6 "../../os/kernel/include/chthreads.h"
 1660              		.file 7 "../../os/ports/GCC/ARMCMx/chcore_v7m.h"
 1661              		.file 8 "../../os/kernel/include/chsem.h"
 1662              		.file 9 "../../os/kernel/include/chmtx.h"
 1663              		.file 10 "../../ext/ugfx/include/gos/chibios.h"
 1664              		.file 11 "../../ext/ugfx/include/gqueue/gqueue.h"
 1665              		.file 12 "../../ext/ugfx/include/gevent/gevent.h"
 1666              		.file 13 "../../ext/ugfx/include/gdisp/gdisp.h"
 1667              		.file 14 "../../ext/ugfx/include/gdisp/image.h"
 1668              		.file 15 "../../ext/ugfx/include/gwin/gwin.h"
 1669              		.file 16 "../../ext/ugfx/include/gwin/gwidget.h"
ARM GAS  /tmp/ccKcOR50.s 			page 31


 1670              		.file 17 "../../ext/ugfx/include/gwin/button.h"
 1671              		.file 18 "../../ext/ugfx/include/gwin/slider.h"
 1672              		.file 19 "../../ext/ugfx/include/gwin/checkbox.h"
 1673              		.file 20 "../../ext/ugfx/include/gwin/radio.h"
 1674              		.file 21 "../../ext/ugfx/include/gwin/console.h"
 1675              		.file 22 "../../ext/ugfx/include/gwin/label.h"
 1676              		.file 23 "../../os/ports/common/ARMCMx/CMSIS/include/core_cm4.h"
 1677              		.file 24 "../../ext/ugfx/include/gfx.h"