ARM GAS  /tmp/ccKcOR50.s 			page 1


   1              		.syntax unified
   2              		.cpu cortex-m4
   3              		.eabi_attribute 27, 3
   4              		.eabi_attribute 28, 1
   5              		.fpu fpv4-sp-d16
   6              		.eabi_attribute 20, 1
   7              		.eabi_attribute 21, 1
   8              		.eabi_attribute 23, 3
   9              		.eabi_attribute 24, 1
  10              		.eabi_attribute 25, 1
  11              		.eabi_attribute 26, 1
  12              		.eabi_attribute 30, 2
  13              		.eabi_attribute 34, 1
  14              		.eabi_attribute 18, 4
  15              		.thumb
  16              		.file	"main.c"
  17              		.text
  18              	.Ltext0:
  19              		.cfi_sections	.debug_frame
  20              		.section	.text.startup.main,"ax",%progbits
  21              		.align	2
  22              		.p2align 4,,15
  23              		.global	main
  24              		.thumb
  25              		.thumb_func
  26              		.type	main, %function
  27              	main:
  28              	.LFB121:
  29              		.file 1 "main.c"
  30              		.loc 1 222 0
  31              		.cfi_startproc
  32              		@ args = 0, pretend = 0, frame = 48
  33              		@ frame_needed = 0, uses_anonymous_args = 0
  34 0000 2DE9F04F 		push	{r4, r5, r6, r7, r8, r9, sl, fp, lr}
  35              	.LCFI0:
  36              		.cfi_def_cfa_offset 36
  37              		.cfi_offset 4, -36
  38              		.cfi_offset 5, -32
  39              		.cfi_offset 6, -28
  40              		.cfi_offset 7, -24
  41              		.cfi_offset 8, -20
  42              		.cfi_offset 9, -16
  43              		.cfi_offset 10, -12
  44              		.cfi_offset 11, -8
  45              		.cfi_offset 14, -4
  46 0004 8FB0     		sub	sp, sp, #60
  47              	.LCFI1:
  48              		.cfi_def_cfa_offset 96
  49              		.loc 1 226 0
  50 0006 FFF7FEFF 		bl	gfxInit
  51              	.LVL0:
  52              		.loc 1 229 0
  53 000a C948     		ldr	r0, .L35
  54              	.LBB9:
  55              	.LBB10:
  56              		.loc 1 116 0
  57 000c C94E     		ldr	r6, .L35+4
ARM GAS  /tmp/ccKcOR50.s 			page 2


  58              		.loc 1 149 0
  59 000e CA4F     		ldr	r7, .L35+8
  60              		.loc 1 160 0
  61 0010 DFF88493 		ldr	r9, .L35+104
  62              		.loc 1 162 0
  63 0014 DFF88483 		ldr	r8, .L35+108
  64              		.loc 1 168 0
  65 0018 C84D     		ldr	r5, .L35+12
  66              	.LBE10:
  67              	.LBE9:
  68              		.loc 1 229 0
  69 001a FFF7FEFF 		bl	gdispOpenFont
  70              	.LVL1:
  71 001e FFF7FEFF 		bl	gwinSetDefaultFont
  72              	.LVL2:
  73              		.loc 1 230 0
  74 0022 0021     		movs	r1, #0
  75 0024 C648     		ldr	r0, .L35+16
  76 0026 FFF7FEFF 		bl	gwinSetDefaultStyle
  77              	.LVL3:
  78              		.loc 1 231 0
  79 002a 4FF6FF70 		movw	r0, #65535
  80 002e FFF7FEFF 		bl	gdispClear
  81              	.LVL4:
  82              		.loc 1 235 0
  83 0032 0020     		movs	r0, #0
  84 0034 FFF7FEFF 		bl	gwinAttachMouse
  85              	.LVL5:
  86              	.LBB13:
  87              	.LBB11:
  88              		.loc 1 116 0
  89 0038 B6F90030 		ldrsh	r3, [r6, #0]
  90              		.loc 1 115 0
  91 003c C14A     		ldr	r2, .L35+20
  92              		.loc 1 116 0
  93 003e 42F29340 		movw	r0, #9363
  94 0042 C9F24920 		movt	r0, 37449
  95              		.loc 1 115 0
  96 0046 0B92     		str	r2, [sp, #44]
  97              		.loc 1 116 0
  98 0048 80FB0312 		smull	r1, r2, r0, r3
  99 004c D118     		adds	r1, r2, r3
 100 004e DB17     		asrs	r3, r3, #31
 101 0050 C3EBA103 		rsb	r3, r3, r1, asr #2
 102              		.loc 1 112 0
 103 0054 0024     		movs	r4, #0
 104              		.loc 1 116 0
 105 0056 ADF82030 		strh	r3, [sp, #32]	@ movhi
 106              		.loc 1 117 0
 107 005a BB4B     		ldr	r3, .L35+24
 108              		.loc 1 112 0
 109 005c 0C94     		str	r4, [sp, #48]
 110              		.loc 1 115 0
 111 005e 4FF0010E 		mov	lr, #1
 112              		.loc 1 116 0
 113 0062 4FF01E0C 		mov	ip, #30
 114              		.loc 1 117 0
ARM GAS  /tmp/ccKcOR50.s 			page 3


 115 0066 2246     		mov	r2, r4
 116 0068 07A9     		add	r1, sp, #28
 117 006a 2046     		mov	r0, r4
 118              		.loc 1 115 0
 119 006c 8DF824E0 		strb	lr, [sp, #36]
 120              		.loc 1 116 0
 121 0070 ADF822C0 		strh	ip, [sp, #34]	@ movhi
 122              		.loc 1 117 0
 123 0074 CDF80CC0 		str	ip, [sp, #12]
 124              		.loc 1 112 0
 125 0078 0D94     		str	r4, [sp, #52]
 126              		.loc 1 116 0
 127 007a ADF81E40 		strh	r4, [sp, #30]	@ movhi
 128              		.loc 1 117 0
 129 007e ADF81C40 		strh	r4, [sp, #28]	@ movhi
 130 0082 0A93     		str	r3, [sp, #40]
 131 0084 FFF7FEFF 		bl	gwinRadioCreate
 132              	.LVL6:
 133              		.loc 1 118 0
 134 0088 BDF82030 		ldrh	r3, [sp, #32]
 135              		.loc 1 117 0
 136 008c 40F20002 		movw	r2, #:lower16:.LANCHOR1
 137 0090 C0F20002 		movt	r2, #:upper16:.LANCHOR1
 138              		.loc 1 118 0
 139 0094 ADF81C30 		strh	r3, [sp, #28]	@ movhi
 140 0098 AC4B     		ldr	r3, .L35+28
 141              		.loc 1 117 0
 142 009a 1060     		str	r0, [r2, #0]
 143              		.loc 1 118 0
 144 009c 07A9     		add	r1, sp, #28
 145 009e 2246     		mov	r2, r4
 146 00a0 2046     		mov	r0, r4
 147 00a2 0A93     		str	r3, [sp, #40]
 148 00a4 FFF7FEFF 		bl	gwinRadioCreate
 149              	.LVL7:
 150 00a8 40F20001 		movw	r1, #:lower16:.LANCHOR2
 151 00ac C0F20001 		movt	r1, #:upper16:.LANCHOR2
 152              		.loc 1 119 0
 153 00b0 2246     		mov	r2, r4
 154              		.loc 1 118 0
 155 00b2 0860     		str	r0, [r1, #0]
 156              		.loc 1 119 0
 157 00b4 BDF82000 		ldrh	r0, [sp, #32]
 158 00b8 4300     		lsls	r3, r0, #1
 159 00ba ADF81C30 		strh	r3, [sp, #28]	@ movhi
 160 00be A44B     		ldr	r3, .L35+32
 161 00c0 07A9     		add	r1, sp, #28
 162 00c2 2046     		mov	r0, r4
 163 00c4 0A93     		str	r3, [sp, #40]
 164 00c6 FFF7FEFF 		bl	gwinRadioCreate
 165              	.LVL8:
 166              		.loc 1 120 0
 167 00ca BDF82020 		ldrh	r2, [sp, #32]
 168              		.loc 1 119 0
 169 00ce 40F2000A 		movw	sl, #:lower16:.LANCHOR3
 170              		.loc 1 120 0
 171 00d2 02EB4203 		add	r3, r2, r2, lsl #1
ARM GAS  /tmp/ccKcOR50.s 			page 4


 172              		.loc 1 119 0
 173 00d6 C0F2000A 		movt	sl, #:upper16:.LANCHOR3
 174              		.loc 1 120 0
 175 00da ADF81C30 		strh	r3, [sp, #28]	@ movhi
 176 00de 9D4B     		ldr	r3, .L35+36
 177              		.loc 1 119 0
 178 00e0 CAF80000 		str	r0, [sl, #0]
 179              		.loc 1 120 0
 180 00e4 2246     		mov	r2, r4
 181 00e6 07A9     		add	r1, sp, #28
 182 00e8 2046     		mov	r0, r4
 183 00ea 0A93     		str	r3, [sp, #40]
 184 00ec FFF7FEFF 		bl	gwinRadioCreate
 185              	.LVL9:
 186 00f0 40F20001 		movw	r1, #:lower16:.LANCHOR4
 187 00f4 C0F20001 		movt	r1, #:upper16:.LANCHOR4
 188              		.loc 1 121 0
 189 00f8 2246     		mov	r2, r4
 190              		.loc 1 120 0
 191 00fa 0860     		str	r0, [r1, #0]
 192              		.loc 1 121 0
 193 00fc BDF82000 		ldrh	r0, [sp, #32]
 194 0100 8300     		lsls	r3, r0, #2
 195 0102 ADF81C30 		strh	r3, [sp, #28]	@ movhi
 196 0106 944B     		ldr	r3, .L35+40
 197 0108 07A9     		add	r1, sp, #28
 198 010a 2046     		mov	r0, r4
 199 010c 0A93     		str	r3, [sp, #40]
 200 010e FFF7FEFF 		bl	gwinRadioCreate
 201              	.LVL10:
 202              		.loc 1 122 0
 203 0112 BDF82010 		ldrh	r1, [sp, #32]
 204              		.loc 1 121 0
 205 0116 914A     		ldr	r2, .L35+44
 206              		.loc 1 122 0
 207 0118 01EB8103 		add	r3, r1, r1, lsl #2
 208 011c ADF81C30 		strh	r3, [sp, #28]	@ movhi
 209 0120 8F4B     		ldr	r3, .L35+48
 210              		.loc 1 121 0
 211 0122 1060     		str	r0, [r2, #0]
 212              		.loc 1 122 0
 213 0124 07A9     		add	r1, sp, #28
 214 0126 2246     		mov	r2, r4
 215 0128 2046     		mov	r0, r4
 216 012a 0A93     		str	r3, [sp, #40]
 217 012c FFF7FEFF 		bl	gwinRadioCreate
 218              	.LVL11:
 219 0130 40F20002 		movw	r2, #:lower16:.LANCHOR6
 220              		.loc 1 123 0
 221 0134 BDF82010 		ldrh	r1, [sp, #32]
 222              		.loc 1 122 0
 223 0138 C0F20002 		movt	r2, #:upper16:.LANCHOR6
 224              		.loc 1 127 0
 225 013c 4FF0230A 		mov	sl, #35
 226              		.loc 1 122 0
 227 0140 1060     		str	r0, [r2, #0]
 228              		.loc 1 123 0
ARM GAS  /tmp/ccKcOR50.s 			page 5


 229 0142 01EB4100 		add	r0, r1, r1, lsl #1
 230 0146 4300     		lsls	r3, r0, #1
 231 0148 ADF81C30 		strh	r3, [sp, #28]	@ movhi
 232 014c 854B     		ldr	r3, .L35+52
 233 014e 2246     		mov	r2, r4
 234 0150 07A9     		add	r1, sp, #28
 235 0152 2046     		mov	r0, r4
 236 0154 0A93     		str	r3, [sp, #40]
 237 0156 FFF7FEFF 		bl	gwinRadioCreate
 238              	.LVL12:
 239 015a 8349     		ldr	r1, .L35+56
 240              		.loc 1 127 0
 241 015c DDF80CB0 		ldr	fp, [sp, #12]
 242              		.loc 1 128 0
 243 0160 824A     		ldr	r2, .L35+60
 244              		.loc 1 123 0
 245 0162 0860     		str	r0, [r1, #0]
 246              		.loc 1 127 0
 247 0164 3223     		movs	r3, #50
 248              		.loc 1 128 0
 249 0166 07A9     		add	r1, sp, #28
 250 0168 2046     		mov	r0, r4
 251              		.loc 1 126 0
 252 016a 8DF82440 		strb	r4, [sp, #36]
 253 016e 0B94     		str	r4, [sp, #44]
 254              		.loc 1 127 0
 255 0170 ADF82030 		strh	r3, [sp, #32]	@ movhi
 256 0174 ADF822B0 		strh	fp, [sp, #34]	@ movhi
 257 0178 ADF81EA0 		strh	sl, [sp, #30]	@ movhi
 258              		.loc 1 128 0
 259 017c ADF81C40 		strh	r4, [sp, #28]	@ movhi
 260 0180 0A92     		str	r2, [sp, #40]
 261 0182 0493     		str	r3, [sp, #16]
 262 0184 FFF7FEFF 		bl	gwinButtonCreate
 263              	.LVL13:
 264 0188 40F2000C 		movw	ip, #:lower16:.LANCHOR8
 265 018c C0F2000C 		movt	ip, #:upper16:.LANCHOR8
 266              		.loc 1 129 0
 267 0190 774A     		ldr	r2, .L35+64
 268              		.loc 1 128 0
 269 0192 CCF80000 		str	r0, [ip, #0]
 270              		.loc 1 129 0
 271 0196 3323     		movs	r3, #51
 272 0198 07A9     		add	r1, sp, #28
 273 019a 2046     		mov	r0, r4
 274 019c ADF81C30 		strh	r3, [sp, #28]	@ movhi
 275 01a0 0A92     		str	r2, [sp, #40]
 276 01a2 FFF7FEFF 		bl	gwinButtonCreate
 277              	.LVL14:
 278 01a6 40F20001 		movw	r1, #:lower16:.LANCHOR9
 279 01aa C0F20001 		movt	r1, #:upper16:.LANCHOR9
 280              		.loc 1 130 0
 281 01ae 714A     		ldr	r2, .L35+68
 282              		.loc 1 129 0
 283 01b0 0860     		str	r0, [r1, #0]
 284              		.loc 1 130 0
 285 01b2 6623     		movs	r3, #102
ARM GAS  /tmp/ccKcOR50.s 			page 6


 286 01b4 07A9     		add	r1, sp, #28
 287 01b6 2046     		mov	r0, r4
 288 01b8 ADF81C30 		strh	r3, [sp, #28]	@ movhi
 289 01bc 0A92     		str	r2, [sp, #40]
 290 01be FFF7FEFF 		bl	gwinButtonCreate
 291              	.LVL15:
 292 01c2 40F20001 		movw	r1, #:lower16:.LANCHOR10
 293 01c6 C0F20001 		movt	r1, #:upper16:.LANCHOR10
 294              		.loc 1 131 0
 295 01ca 6B4A     		ldr	r2, .L35+72
 296              		.loc 1 130 0
 297 01cc 0860     		str	r0, [r1, #0]
 298              		.loc 1 131 0
 299 01ce 9923     		movs	r3, #153
 300 01d0 07A9     		add	r1, sp, #28
 301 01d2 2046     		mov	r0, r4
 302 01d4 ADF81C30 		strh	r3, [sp, #28]	@ movhi
 303 01d8 0A92     		str	r2, [sp, #40]
 304 01da FFF7FEFF 		bl	gwinButtonCreate
 305              	.LVL16:
 306 01de 40F2000E 		movw	lr, #:lower16:.LANCHOR11
 307              		.loc 1 134 0
 308 01e2 B6F90010 		ldrsh	r1, [r6, #0]
 309              		.loc 1 135 0
 310 01e6 B6F90230 		ldrsh	r3, [r6, #2]
 311              		.loc 1 131 0
 312 01ea C0F2000E 		movt	lr, #:upper16:.LANCHOR11
 313              		.loc 1 135 0
 314 01ee 03EBD372 		add	r2, r3, r3, lsr #31
 315              		.loc 1 131 0
 316 01f2 CEF80000 		str	r0, [lr, #0]
 317              		.loc 1 134 0
 318 01f6 01EBD170 		add	r0, r1, r1, lsr #31
 319 01fa C0F34F01 		ubfx	r1, r0, #1, #16
 320              		.loc 1 135 0
 321 01fe 5310     		asrs	r3, r2, #1
 322 0200 5E4A     		ldr	r2, .L35+76
 323              		.loc 1 134 0
 324 0202 4FF0140B 		mov	fp, #20
 325 0206 A1F1020C 		sub	ip, r1, #2
 326 020a 01F1010E 		add	lr, r1, #1
 327              		.loc 1 135 0
 328 020e 2A3B     		subs	r3, r3, #42
 329 0210 07A9     		add	r1, sp, #28
 330 0212 2046     		mov	r0, r4
 331              		.loc 1 134 0
 332 0214 ADF820C0 		strh	ip, [sp, #32]	@ movhi
 333 0218 ADF81CE0 		strh	lr, [sp, #28]	@ movhi
 334 021c ADF822B0 		strh	fp, [sp, #34]	@ movhi
 335              		.loc 1 135 0
 336 0220 ADF81E30 		strh	r3, [sp, #30]	@ movhi
 337 0224 0A92     		str	r2, [sp, #40]
 338 0226 FFF7FEFF 		bl	gwinSliderCreate
 339              	.LVL17:
 340 022a 40F20001 		movw	r1, #:lower16:.LANCHOR12
 341              		.loc 1 136 0
 342 022e B6F90230 		ldrsh	r3, [r6, #2]
ARM GAS  /tmp/ccKcOR50.s 			page 7


 343              		.loc 1 135 0
 344 0232 C0F20001 		movt	r1, #:upper16:.LANCHOR12
 345 0236 0860     		str	r0, [r1, #0]
 346              		.loc 1 136 0
 347 0238 03EBD370 		add	r0, r3, r3, lsr #31
 348 023c 4210     		asrs	r2, r0, #1
 349 023e 504B     		ldr	r3, .L35+80
 350 0240 153A     		subs	r2, r2, #21
 351 0242 07A9     		add	r1, sp, #28
 352 0244 2046     		mov	r0, r4
 353 0246 ADF81E20 		strh	r2, [sp, #30]	@ movhi
 354 024a 0A93     		str	r3, [sp, #40]
 355 024c FFF7FEFF 		bl	gwinSliderCreate
 356              	.LVL18:
 357 0250 40F2000C 		movw	ip, #:lower16:.LANCHOR13
 358 0254 C0F2000C 		movt	ip, #:upper16:.LANCHOR13
 359              		.loc 1 139 0
 360 0258 B6F90210 		ldrsh	r1, [r6, #2]
 361              		.loc 1 136 0
 362 025c CCF80000 		str	r0, [ip, #0]
 363              		.loc 1 139 0
 364 0260 01EBD170 		add	r0, r1, r1, lsr #31
 365 0264 C0F34F02 		ubfx	r2, r0, #1, #16
 366 0268 A2F1020E 		sub	lr, r2, #2
 367 026c 531C     		adds	r3, r2, #1
 368              		.loc 1 140 0
 369 026e 454A     		ldr	r2, .L35+84
 370              		.loc 1 139 0
 371 0270 ADF822E0 		strh	lr, [sp, #34]	@ movhi
 372              		.loc 1 140 0
 373 0274 07A9     		add	r1, sp, #28
 374 0276 2046     		mov	r0, r4
 375              		.loc 1 139 0
 376 0278 ADF820B0 		strh	fp, [sp, #32]	@ movhi
 377 027c ADF81E30 		strh	r3, [sp, #30]	@ movhi
 378              		.loc 1 140 0
 379 0280 ADF81C40 		strh	r4, [sp, #28]	@ movhi
 380 0284 0A92     		str	r2, [sp, #40]
 381 0286 FFF7FEFF 		bl	gwinSliderCreate
 382              	.LVL19:
 383 028a 40F20001 		movw	r1, #:lower16:.LANCHOR14
 384 028e C0F20001 		movt	r1, #:upper16:.LANCHOR14
 385              		.loc 1 141 0
 386 0292 3D4A     		ldr	r2, .L35+88
 387              		.loc 1 140 0
 388 0294 0860     		str	r0, [r1, #0]
 389              		.loc 1 141 0
 390 0296 1523     		movs	r3, #21
 391 0298 07A9     		add	r1, sp, #28
 392 029a 2046     		mov	r0, r4
 393 029c 0A92     		str	r2, [sp, #40]
 394 029e ADF81C30 		strh	r3, [sp, #28]	@ movhi
 395 02a2 FFF7FEFF 		bl	gwinSliderCreate
 396              	.LVL20:
 397 02a6 40F20001 		movw	r1, #:lower16:.LANCHOR15
 398 02aa C0F20001 		movt	r1, #:upper16:.LANCHOR15
 399              		.loc 1 145 0
ARM GAS  /tmp/ccKcOR50.s 			page 8


 400 02ae 374B     		ldr	r3, .L35+92
 401              		.loc 1 141 0
 402 02b0 0860     		str	r0, [r1, #0]
 403              		.loc 1 144 0
 404 02b2 4FF0500C 		mov	ip, #80
 405              		.loc 1 145 0
 406 02b6 07A9     		add	r1, sp, #28
 407 02b8 2046     		mov	r0, r4
 408              		.loc 1 144 0
 409 02ba ADF820C0 		strh	ip, [sp, #32]	@ movhi
 410              		.loc 1 145 0
 411 02be CDF80CC0 		str	ip, [sp, #12]
 412              		.loc 1 144 0
 413 02c2 ADF822B0 		strh	fp, [sp, #34]	@ movhi
 414 02c6 ADF81C40 		strh	r4, [sp, #28]	@ movhi
 415              		.loc 1 145 0
 416 02ca ADF81EA0 		strh	sl, [sp, #30]	@ movhi
 417 02ce 0A93     		str	r3, [sp, #40]
 418 02d0 FFF7FEFF 		bl	gwinCheckboxCreate
 419              	.LVL21:
 420              		.loc 1 146 0
 421 02d4 2E4A     		ldr	r2, .L35+96
 422              		.loc 1 145 0
 423 02d6 40F2000E 		movw	lr, #:lower16:.LANCHOR16
 424 02da C0F2000E 		movt	lr, #:upper16:.LANCHOR16
 425              		.loc 1 146 0
 426 02de 0B92     		str	r2, [sp, #44]
 427              		.loc 1 147 0
 428 02e0 2C4A     		ldr	r2, .L35+100
 429              		.loc 1 145 0
 430 02e2 CEF80000 		str	r0, [lr, #0]
 431              		.loc 1 147 0
 432 02e6 3823     		movs	r3, #56
 433 02e8 07A9     		add	r1, sp, #28
 434 02ea 2046     		mov	r0, r4
 435 02ec 0A92     		str	r2, [sp, #40]
 436 02ee ADF81E30 		strh	r3, [sp, #30]	@ movhi
 437 02f2 FFF7FEFF 		bl	gwinCheckboxCreate
 438              	.LVL22:
 439 02f6 40F20001 		movw	r1, #:lower16:.LANCHOR17
 440 02fa C0F20001 		movt	r1, #:upper16:.LANCHOR17
 441              		.loc 1 149 0
 442 02fe DFF8A0E0 		ldr	lr, .L35+112
 443              		.loc 1 147 0
 444 0302 0860     		str	r0, [r1, #0]
 445              		.loc 1 148 0
 446 0304 4FF0640C 		mov	ip, #100
 447              		.loc 1 149 0
 448 0308 4D23     		movs	r3, #77
 449 030a 07A9     		add	r1, sp, #28
 450 030c 2046     		mov	r0, r4
 451              		.loc 1 148 0
 452 030e ADF820C0 		strh	ip, [sp, #32]	@ movhi
 453              		.loc 1 149 0
 454 0312 CDF828E0 		str	lr, [sp, #40]
 455              		.loc 1 148 0
 456 0316 0B94     		str	r4, [sp, #44]
ARM GAS  /tmp/ccKcOR50.s 			page 9


 457              		.loc 1 149 0
 458 0318 ADF81E30 		strh	r3, [sp, #30]	@ movhi
 459 031c 0593     		str	r3, [sp, #20]
 460 031e FFF7FEFF 		bl	gwinCheckboxCreate
 461              	.LVL23:
 462              		.loc 1 152 0
 463 0322 4FF02802 		mov	r2, #40
 464              		.loc 1 153 0
 465 0326 059B     		ldr	r3, [sp, #20]
 466              		.loc 1 152 0
 467 0328 ADF82220 		strh	r2, [sp, #34]	@ movhi
 468 032c 3AE0     		b	.L36
 469              	.L37:
 470 032e 00BF     		.align	2
 471              	.L35:
 472 0330 24000000 		.word	.LC4
 473 0334 00000000 		.word	GDISP
 474 0338 00000000 		.word	.LANCHOR18
 475 033c 00000000 		.word	.LANCHOR25
 476 0340 00000000 		.word	WhiteWidgetStyle
 477 0344 00000000 		.word	gwinRadioDraw_Tab
 478 0348 28000000 		.word	.LC5
 479 034c 2C000000 		.word	.LC6
 480 0350 30000000 		.word	.LC7
 481 0354 34000000 		.word	.LC8
 482 0358 38000000 		.word	.LC9
 483 035c 00000000 		.word	.LANCHOR5
 484 0360 3C000000 		.word	.LC10
 485 0364 40000000 		.word	.LC11
 486 0368 00000000 		.word	.LANCHOR7
 487 036c 44000000 		.word	.LC12
 488 0370 48000000 		.word	.LC13
 489 0374 4C000000 		.word	.LC14
 490 0378 50000000 		.word	.LC15
 491 037c 54000000 		.word	.LC16
 492 0380 58000000 		.word	.LC17
 493 0384 5C000000 		.word	.LC18
 494 0388 60000000 		.word	.LC19
 495 038c 64000000 		.word	.LC20
 496 0390 00000000 		.word	gwinCheckboxDraw_CheckOnRight
 497 0394 68000000 		.word	.LC21
 498 0398 00000000 		.word	.LANCHOR22
 499 039c 00000000 		.word	.LANCHOR24
 500 03a0 6C000000 		.word	.LC22
 501              	.L36:
 502              		.loc 1 153 0
 503 03a4 CD4A     		ldr	r2, .L38
 504              		.loc 1 149 0
 505 03a6 3860     		str	r0, [r7, #0]
 506              		.loc 1 153 0
 507 03a8 07A9     		add	r1, sp, #28
 508 03aa 2046     		mov	r0, r4
 509              		.loc 1 152 0
 510 03ac ADF82040 		strh	r4, [sp, #32]	@ movhi
 511              		.loc 1 153 0
 512 03b0 ADF81E30 		strh	r3, [sp, #30]	@ movhi
 513 03b4 0A92     		str	r2, [sp, #40]
ARM GAS  /tmp/ccKcOR50.s 			page 10


 514 03b6 FFF7FEFF 		bl	gwinLabelCreate
 515              	.LVL24:
 516              		.loc 1 156 0
 517 03ba 049B     		ldr	r3, [sp, #16]
 518 03bc ADF822B0 		strh	fp, [sp, #34]	@ movhi
 519              		.loc 1 153 0
 520 03c0 40F20001 		movw	r1, #:lower16:.LANCHOR19
 521 03c4 C0F20001 		movt	r1, #:upper16:.LANCHOR19
 522              		.loc 1 156 0
 523 03c8 ADF82030 		strh	r3, [sp, #32]	@ movhi
 524              		.loc 1 157 0
 525 03cc C44B     		ldr	r3, .L38+4
 526              		.loc 1 153 0
 527 03ce 0860     		str	r0, [r1, #0]
 528              		.loc 1 157 0
 529 03d0 0122     		movs	r2, #1
 530 03d2 07A9     		add	r1, sp, #28
 531 03d4 2046     		mov	r0, r4
 532              		.loc 1 156 0
 533 03d6 ADF81EA0 		strh	sl, [sp, #30]	@ movhi
 534              		.loc 1 157 0
 535 03da ADF81C40 		strh	r4, [sp, #28]	@ movhi
 536 03de 0A93     		str	r3, [sp, #40]
 537 03e0 FFF7FEFF 		bl	gwinRadioCreate
 538              	.LVL25:
 539              		.loc 1 158 0
 540 03e4 BDF82030 		ldrh	r3, [sp, #32]
 541              		.loc 1 157 0
 542 03e8 40F20002 		movw	r2, #:lower16:.LANCHOR20
 543 03ec C0F20002 		movt	r2, #:upper16:.LANCHOR20
 544              		.loc 1 158 0
 545 03f0 ADF81C30 		strh	r3, [sp, #28]	@ movhi
 546 03f4 BB4B     		ldr	r3, .L38+8
 547              		.loc 1 157 0
 548 03f6 1060     		str	r0, [r2, #0]
 549              		.loc 1 158 0
 550 03f8 07A9     		add	r1, sp, #28
 551 03fa 0122     		movs	r2, #1
 552 03fc 2046     		mov	r0, r4
 553 03fe 0A93     		str	r3, [sp, #40]
 554 0400 FFF7FEFF 		bl	gwinRadioCreate
 555              	.LVL26:
 556              		.loc 1 159 0
 557 0404 BDF81E30 		ldrh	r3, [sp, #30]
 558 0408 DDF80CB0 		ldr	fp, [sp, #12]
 559              		.loc 1 160 0
 560 040c ADF81C40 		strh	r4, [sp, #28]	@ movhi
 561              		.loc 1 158 0
 562 0410 40F2000A 		movw	sl, #:lower16:.LANCHOR21
 563              		.loc 1 159 0
 564 0414 1933     		adds	r3, r3, #25
 565              		.loc 1 158 0
 566 0416 C0F2000A 		movt	sl, #:upper16:.LANCHOR21
 567              		.loc 1 159 0
 568 041a ADF81E30 		strh	r3, [sp, #30]	@ movhi
 569              		.loc 1 160 0
 570 041e B24B     		ldr	r3, .L38+12
ARM GAS  /tmp/ccKcOR50.s 			page 11


 571              		.loc 1 158 0
 572 0420 CAF80000 		str	r0, [sl, #0]
 573              		.loc 1 160 0
 574 0424 07A9     		add	r1, sp, #28
 575 0426 0222     		movs	r2, #2
 576 0428 2046     		mov	r0, r4
 577 042a 0A93     		str	r3, [sp, #40]
 578              		.loc 1 159 0
 579 042c ADF820B0 		strh	fp, [sp, #32]	@ movhi
 580              		.loc 1 160 0
 581 0430 FFF7FEFF 		bl	gwinRadioCreate
 582              	.LVL27:
 583              		.loc 1 161 0
 584 0434 BDF82030 		ldrh	r3, [sp, #32]
 585              		.loc 1 160 0
 586 0438 C9F80000 		str	r0, [r9, #0]
 587              		.loc 1 161 0
 588 043c ADF81C30 		strh	r3, [sp, #28]	@ movhi
 589 0440 AA4B     		ldr	r3, .L38+16
 590 0442 07A9     		add	r1, sp, #28
 591 0444 0222     		movs	r2, #2
 592 0446 2046     		mov	r0, r4
 593 0448 0A93     		str	r3, [sp, #40]
 594 044a FFF7FEFF 		bl	gwinRadioCreate
 595              	.LVL28:
 596 044e 40F20001 		movw	r1, #:lower16:.LANCHOR23
 597 0452 C0F20001 		movt	r1, #:upper16:.LANCHOR23
 598              		.loc 1 162 0
 599 0456 0222     		movs	r2, #2
 600              		.loc 1 161 0
 601 0458 0860     		str	r0, [r1, #0]
 602              		.loc 1 162 0
 603 045a BDF82000 		ldrh	r0, [sp, #32]
 604 045e 4300     		lsls	r3, r0, #1
 605 0460 ADF81C30 		strh	r3, [sp, #28]	@ movhi
 606 0464 A24B     		ldr	r3, .L38+20
 607 0466 07A9     		add	r1, sp, #28
 608 0468 2046     		mov	r0, r4
 609 046a 0A93     		str	r3, [sp, #40]
 610 046c FFF7FEFF 		bl	gwinRadioCreate
 611              	.LVL29:
 612              		.loc 1 163 0
 613 0470 40F20002 		movw	r2, #:lower16:.LANCHOR23
 614 0474 C0F20002 		movt	r2, #:upper16:.LANCHOR23
 615              		.loc 1 162 0
 616 0478 C8F80000 		str	r0, [r8, #0]
 617              		.loc 1 163 0
 618 047c 1068     		ldr	r0, [r2, #0]
 619 047e FFF7FEFF 		bl	gwinRadioPress
 620              	.LVL30:
 621              		.loc 1 166 0
 622 0482 B6F90010 		ldrsh	r1, [r6, #0]
 623 0486 B6F90200 		ldrsh	r0, [r6, #2]
 624 048a 01EBD172 		add	r2, r1, r1, lsr #31
 625 048e 00EBD073 		add	r3, r0, r0, lsr #31
 626 0492 C2F34F01 		ubfx	r1, r2, #1, #16
 627 0496 C3F34F00 		ubfx	r0, r3, #1, #16
ARM GAS  /tmp/ccKcOR50.s 			page 12


 628 049a 01F1FF3C 		add	ip, r1, #-1
 629 049e 00F1FF3E 		add	lr, r0, #-1
 630              		.loc 1 167 0
 631 04a2 431C     		adds	r3, r0, #1
 632 04a4 4A1C     		adds	r2, r1, #1
 633              		.loc 1 168 0
 634 04a6 2046     		mov	r0, r4
 635 04a8 07A9     		add	r1, sp, #28
 636              		.loc 1 166 0
 637 04aa ADF820C0 		strh	ip, [sp, #32]	@ movhi
 638 04ae ADF822E0 		strh	lr, [sp, #34]	@ movhi
 639              		.loc 1 167 0
 640 04b2 ADF81E30 		strh	r3, [sp, #30]	@ movhi
 641 04b6 ADF81C20 		strh	r2, [sp, #28]	@ movhi
 642              		.loc 1 168 0
 643 04ba FFF7FEFF 		bl	gwinConsoleCreate
 644              	.LVL31:
 645              		.loc 1 169 0
 646 04be 4FF6E072 		movw	r2, #65504
 647 04c2 0282     		strh	r2, [r0, #16]	@ movhi
 648              	.LBE11:
 649              	.LBE13:
 650              		.loc 1 252 0
 651 04c4 0121     		movs	r1, #1
 652              	.LBB14:
 653              	.LBB12:
 654              		.loc 1 170 0
 655 04c6 4482     		strh	r4, [r0, #18]	@ movhi
 656              		.loc 1 168 0
 657 04c8 2860     		str	r0, [r5, #0]
 658              	.LBE12:
 659              	.LBE14:
 660              		.loc 1 260 0
 661 04ca 40F20004 		movw	r4, #:lower16:.LANCHOR1
 662              		.loc 1 252 0
 663 04ce FFF7FEFF 		bl	gwinSetVisible
 664              	.LVL32:
 665              		.loc 1 253 0
 666 04d2 2868     		ldr	r0, [r5, #0]
 667 04d4 FFF7FEFF 		bl	gwinClear
 668              	.LVL33:
 669              		.loc 1 260 0
 670 04d8 C0F20004 		movt	r4, #:upper16:.LANCHOR1
 671              		.loc 1 256 0
 672 04dc 8548     		ldr	r0, .L38+24
 673 04de FFF7FEFF 		bl	geventListenerInit
 674              	.LVL34:
 675              		.loc 1 257 0
 676 04e2 8448     		ldr	r0, .L38+24
 677 04e4 FFF7FEFF 		bl	gwinAttachListener
 678              	.LVL35:
 679              		.loc 1 260 0
 680 04e8 2068     		ldr	r0, [r4, #0]
 681 04ea FFF7FEFF 		bl	gwinRadioPress
 682              	.LVL36:
 683              	.L27:
 684              		.loc 1 264 0
ARM GAS  /tmp/ccKcOR50.s 			page 13


 685 04ee 4FF0FF31 		mov	r1, #-1
 686 04f2 8048     		ldr	r0, .L38+24
 687 04f4 FFF7FEFF 		bl	geventEventWait
 688              	.LVL37:
 689              		.loc 1 266 0
 690 04f8 0288     		ldrh	r2, [r0, #0]
 691 04fa A2F50071 		sub	r1, r2, #512
 692              		.loc 1 264 0
 693 04fe 0446     		mov	r4, r0
 694              	.LVL38:
 695              		.loc 1 266 0
 696 0500 0329     		cmp	r1, #3
 697 0502 00F2B181 		bhi	.L4
 698 0506 DFE811F0 		tbh	[pc, r1, lsl #1]
 699              	.L9:
 700 050a A401     		.2byte	(.L5-.L9)/2
 701 050c B401     		.2byte	(.L6-.L9)/2
 702 050e FF00     		.2byte	(.L7-.L9)/2
 703 0510 0400     		.2byte	(.L8-.L9)/2
 704              	.L8:
 705              		.loc 1 288 0
 706 0512 B0F808A0 		ldrh	sl, [r0, #8]
 707 0516 4068     		ldr	r0, [r0, #4]
 708              	.LVL39:
 709 0518 D5F800B0 		ldr	fp, [r5, #0]
 710 051c FFF7FEFF 		bl	gwinGetText
 711              	.LVL40:
 712 0520 5246     		mov	r2, sl
 713 0522 0346     		mov	r3, r0
 714 0524 7449     		ldr	r1, .L38+28
 715 0526 5846     		mov	r0, fp
 716 0528 FFF7FEFF 		bl	gwinPrintf
 717              	.LVL41:
 718              		.loc 1 290 0
 719 052c B4F808A0 		ldrh	sl, [r4, #8]
 720 0530 BAF1000F 		cmp	sl, #0
 721 0534 40F0A981 		bne	.L29
 722              	.LBB15:
 723              	.LBB16:
 724              		.loc 1 178 0
 725 0538 40F20003 		movw	r3, #:lower16:.LANCHOR8
 726 053c C0F20003 		movt	r3, #:upper16:.LANCHOR8
 727 0540 5146     		mov	r1, sl
 728 0542 1868     		ldr	r0, [r3, #0]
 729              	.LBE16:
 730              	.LBE15:
 731              		.loc 1 294 0
 732 0544 D4F804B0 		ldr	fp, [r4, #4]
 733              	.LVL42:
 734              	.LBB19:
 735              	.LBB17:
 736              		.loc 1 178 0
 737 0548 FFF7FEFF 		bl	gwinSetVisible
 738              	.LVL43:
 739 054c 40F2000E 		movw	lr, #:lower16:.LANCHOR9
 740 0550 C0F2000E 		movt	lr, #:upper16:.LANCHOR9
 741 0554 5146     		mov	r1, sl
ARM GAS  /tmp/ccKcOR50.s 			page 14


 742 0556 DEF80000 		ldr	r0, [lr, #0]
 743 055a FFF7FEFF 		bl	gwinSetVisible
 744              	.LVL44:
 745              		.loc 1 179 0
 746 055e 40F20000 		movw	r0, #:lower16:.LANCHOR10
 747 0562 C0F20000 		movt	r0, #:upper16:.LANCHOR10
 748 0566 5146     		mov	r1, sl
 749 0568 0068     		ldr	r0, [r0, #0]
 750 056a FFF7FEFF 		bl	gwinSetVisible
 751              	.LVL45:
 752 056e 40F20001 		movw	r1, #:lower16:.LANCHOR11
 753 0572 C0F20001 		movt	r1, #:upper16:.LANCHOR11
 754 0576 0868     		ldr	r0, [r1, #0]
 755 0578 5146     		mov	r1, sl
 756 057a FFF7FEFF 		bl	gwinSetVisible
 757              	.LVL46:
 758              		.loc 1 180 0
 759 057e 40F20002 		movw	r2, #:lower16:.LANCHOR12
 760 0582 C0F20002 		movt	r2, #:upper16:.LANCHOR12
 761 0586 5146     		mov	r1, sl
 762 0588 1068     		ldr	r0, [r2, #0]
 763 058a FFF7FEFF 		bl	gwinSetVisible
 764              	.LVL47:
 765 058e 40F20003 		movw	r3, #:lower16:.LANCHOR13
 766 0592 C0F20003 		movt	r3, #:upper16:.LANCHOR13
 767 0596 5146     		mov	r1, sl
 768 0598 1868     		ldr	r0, [r3, #0]
 769 059a FFF7FEFF 		bl	gwinSetVisible
 770              	.LVL48:
 771              		.loc 1 181 0
 772 059e 40F20000 		movw	r0, #:lower16:.LANCHOR14
 773 05a2 C0F20000 		movt	r0, #:upper16:.LANCHOR14
 774 05a6 5146     		mov	r1, sl
 775 05a8 0068     		ldr	r0, [r0, #0]
 776 05aa FFF7FEFF 		bl	gwinSetVisible
 777              	.LVL49:
 778 05ae 40F20001 		movw	r1, #:lower16:.LANCHOR15
 779 05b2 C0F20001 		movt	r1, #:upper16:.LANCHOR15
 780 05b6 0868     		ldr	r0, [r1, #0]
 781 05b8 5146     		mov	r1, sl
 782 05ba FFF7FEFF 		bl	gwinSetVisible
 783              	.LVL50:
 784              		.loc 1 182 0
 785 05be 40F20002 		movw	r2, #:lower16:.LANCHOR16
 786 05c2 C0F20002 		movt	r2, #:upper16:.LANCHOR16
 787 05c6 5146     		mov	r1, sl
 788 05c8 1068     		ldr	r0, [r2, #0]
 789 05ca FFF7FEFF 		bl	gwinSetVisible
 790              	.LVL51:
 791 05ce 40F2000C 		movw	ip, #:lower16:.LANCHOR17
 792 05d2 C0F2000C 		movt	ip, #:upper16:.LANCHOR17
 793 05d6 5146     		mov	r1, sl
 794 05d8 DCF80000 		ldr	r0, [ip, #0]
 795 05dc FFF7FEFF 		bl	gwinSetVisible
 796              	.LVL52:
 797 05e0 3868     		ldr	r0, [r7, #0]
 798 05e2 5146     		mov	r1, sl
ARM GAS  /tmp/ccKcOR50.s 			page 15


 799 05e4 FFF7FEFF 		bl	gwinSetVisible
 800              	.LVL53:
 801              		.loc 1 183 0
 802 05e8 40F20003 		movw	r3, #:lower16:.LANCHOR19
 803 05ec C0F20003 		movt	r3, #:upper16:.LANCHOR19
 804 05f0 5146     		mov	r1, sl
 805 05f2 1868     		ldr	r0, [r3, #0]
 806 05f4 FFF7FEFF 		bl	gwinSetVisible
 807              	.LVL54:
 808              		.loc 1 184 0
 809 05f8 40F20000 		movw	r0, #:lower16:.LANCHOR20
 810 05fc C0F20000 		movt	r0, #:upper16:.LANCHOR20
 811 0600 5146     		mov	r1, sl
 812 0602 0068     		ldr	r0, [r0, #0]
 813 0604 FFF7FEFF 		bl	gwinSetVisible
 814              	.LVL55:
 815 0608 40F20001 		movw	r1, #:lower16:.LANCHOR21
 816 060c C0F20001 		movt	r1, #:upper16:.LANCHOR21
 817 0610 0868     		ldr	r0, [r1, #0]
 818 0612 5146     		mov	r1, sl
 819 0614 FFF7FEFF 		bl	gwinSetVisible
 820              	.LVL56:
 821              		.loc 1 185 0
 822 0618 40F2000E 		movw	lr, #:lower16:.LANCHOR23
 823 061c C0F2000E 		movt	lr, #:upper16:.LANCHOR23
 824 0620 5146     		mov	r1, sl
 825 0622 DEF80000 		ldr	r0, [lr, #0]
 826 0626 FFF7FEFF 		bl	gwinSetVisible
 827              	.LVL57:
 828 062a D9F80000 		ldr	r0, [r9, #0]
 829 062e 5146     		mov	r1, sl
 830 0630 FFF7FEFF 		bl	gwinSetVisible
 831              	.LVL58:
 832 0634 D8F80000 		ldr	r0, [r8, #0]
 833 0638 5146     		mov	r1, sl
 834 063a FFF7FEFF 		bl	gwinSetVisible
 835              	.LVL59:
 836              		.loc 1 190 0
 837 063e 40F20002 		movw	r2, #:lower16:.LANCHOR1
 838 0642 C0F20002 		movt	r2, #:upper16:.LANCHOR1
 839 0646 1368     		ldr	r3, [r2, #0]
 840 0648 9B45     		cmp	fp, r3
 841 064a 00F08081 		beq	.L30
 842              		.loc 1 193 0
 843 064e 40F20000 		movw	r0, #:lower16:.LANCHOR2
 844 0652 C0F20000 		movt	r0, #:upper16:.LANCHOR2
 845 0656 0168     		ldr	r1, [r0, #0]
 846 0658 8B45     		cmp	fp, r1
 847 065a 00F09281 		beq	.L31
 848              		.loc 1 196 0
 849 065e 40F20002 		movw	r2, #:lower16:.LANCHOR3
 850 0662 C0F20002 		movt	r2, #:upper16:.LANCHOR3
 851 0666 1368     		ldr	r3, [r2, #0]
 852 0668 9B45     		cmp	fp, r3
 853 066a 00F0A481 		beq	.L32
 854              		.loc 1 198 0
 855 066e 40F20000 		movw	r0, #:lower16:.LANCHOR6
ARM GAS  /tmp/ccKcOR50.s 			page 16


 856 0672 C0F20000 		movt	r0, #:upper16:.LANCHOR6
 857 0676 DFF88CA0 		ldr	sl, .L38+40
 858 067a 0368     		ldr	r3, [r0, #0]
 859 067c 9B45     		cmp	fp, r3
 860 067e 00F0B081 		beq	.L33
 861              		.loc 1 200 0
 862 0682 40F2000C 		movw	ip, #:lower16:.LANCHOR4
 863 0686 C0F2000C 		movt	ip, #:upper16:.LANCHOR4
 864 068a DCF80010 		ldr	r1, [ip, #0]
 865 068e 8B45     		cmp	fp, r1
 866 0690 00F04181 		beq	.L34
 867              	.LVL60:
 868              	.L16:
 869              	.LBE17:
 870              	.LBE19:
 871              		.loc 1 297 0
 872 0694 6468     		ldr	r4, [r4, #4]
 873              	.LVL61:
 874 0696 9C42     		cmp	r4, r3
 875 0698 7FF429AF 		bne	.L27
 876              		.loc 1 298 0
 877 069c 2868     		ldr	r0, [r5, #0]
 878 069e 1749     		ldr	r1, .L38+32
 879 06a0 FFF7FEFF 		bl	gwinPrintf
 880              	.LVL62:
 881              		.loc 1 299 0
 882 06a4 4FF47A70 		mov	r0, #1000
 883 06a8 FFF7FEFF 		bl	gfxSleepMilliseconds
 884              	.LVL63:
 885              		.loc 1 300 0
 886 06ac 40F20002 		movw	r2, #:lower16:.LANCHOR19
 887 06b0 C0F20002 		movt	r2, #:upper16:.LANCHOR19
 888 06b4 1249     		ldr	r1, .L38+36
 889 06b6 1068     		ldr	r0, [r2, #0]
 890 06b8 0022     		movs	r2, #0
 891 06ba FFF7FEFF 		bl	gwinSetText
 892              	.LVL64:
 893              		.loc 1 302 0
 894 06be 4FF47A70 		mov	r0, #1000
 895 06c2 FFF7FEFF 		bl	gfxSleepMilliseconds
 896              	.LVL65:
 897              		.loc 1 303 0
 898 06c6 40F20003 		movw	r3, #:lower16:.LANCHOR19
 899 06ca C0F20003 		movt	r3, #:upper16:.LANCHOR19
 900 06ce 0349     		ldr	r1, .L38
 901 06d0 1868     		ldr	r0, [r3, #0]
 902 06d2 0022     		movs	r2, #0
 903 06d4 FFF7FEFF 		bl	gwinSetText
 904              	.LVL66:
 905 06d8 09E7     		b	.L27
 906              	.L39:
 907 06da 00BF     		.align	2
 908              	.L38:
 909 06dc 78000000 		.word	.LC23
 910 06e0 80000000 		.word	.LC24
 911 06e4 84000000 		.word	.LC25
 912 06e8 88000000 		.word	.LC26
ARM GAS  /tmp/ccKcOR50.s 			page 17


 913 06ec 90000000 		.word	.LC27
 914 06f0 98000000 		.word	.LC28
 915 06f4 00000000 		.word	.LANCHOR26
 916 06f8 D4000000 		.word	.LC33
 917 06fc E8000000 		.word	.LC34
 918 0700 FC000000 		.word	.LC35
 919 0704 00000000 		.word	.LANCHOR6
 920              	.LVL67:
 921              	.L7:
 922              		.loc 1 276 0
 923 0708 4068     		ldr	r0, [r0, #4]
 924              	.LVL68:
 925 070a D5F800A0 		ldr	sl, [r5, #0]
 926 070e FFF7FEFF 		bl	gwinGetText
 927              	.LVL69:
 928 0712 94F808C0 		ldrb	ip, [r4, #8]	@ zero_extendqisi2
 929 0716 DFF850E3 		ldr	lr, .L40+116
 930 071a B64B     		ldr	r3, .L40
 931 071c B649     		ldr	r1, .L40+4
 932 071e 0246     		mov	r2, r0
 933 0720 BCF1000F 		cmp	ip, #0
 934 0724 08BF     		it	eq
 935 0726 7346     		moveq	r3, lr
 936 0728 5046     		mov	r0, sl
 937 072a FFF7FEFF 		bl	gwinPrintf
 938              	.LVL70:
 939              		.loc 1 279 0
 940 072e 6068     		ldr	r0, [r4, #4]
 941 0730 3968     		ldr	r1, [r7, #0]
 942 0732 8842     		cmp	r0, r1
 943 0734 7FF4DBAE 		bne	.L27
 944              		.loc 1 280 0
 945 0738 B04B     		ldr	r3, .L40+8
 946 073a 94F808B0 		ldrb	fp, [r4, #8]	@ zero_extendqisi2
 947 073e B04A     		ldr	r2, .L40+12
 948 0740 2868     		ldr	r0, [r5, #0]
 949 0742 B049     		ldr	r1, .L40+16
 950 0744 BBF1000F 		cmp	fp, #0
 951 0748 18BF     		it	ne
 952 074a 1A46     		movne	r2, r3
 953 074c FFF7FEFF 		bl	gwinPrintf
 954              	.LVL71:
 955              		.loc 1 281 0
 956 0750 247A     		ldrb	r4, [r4, #8]	@ zero_extendqisi2
 957              	.LVL72:
 958              	.LBB20:
 959              	.LBB21:
 960              		.loc 1 210 0
 961 0752 40F20002 		movw	r2, #:lower16:.LANCHOR8
 962 0756 C0F20002 		movt	r2, #:upper16:.LANCHOR8
 963              	.LBE21:
 964              	.LBE20:
 965              		.loc 1 281 0
 966 075a 84F00104 		eor	r4, r4, #1
 967              	.LVL73:
 968              	.LBB23:
 969              	.LBB22:
ARM GAS  /tmp/ccKcOR50.s 			page 18


 970              		.loc 1 210 0
 971 075e 1068     		ldr	r0, [r2, #0]
 972 0760 2146     		mov	r1, r4
 973 0762 FFF7FEFF 		bl	gwinSetEnabled
 974              	.LVL74:
 975 0766 40F20000 		movw	r0, #:lower16:.LANCHOR9
 976 076a C0F20000 		movt	r0, #:upper16:.LANCHOR9
 977 076e 2146     		mov	r1, r4
 978 0770 0068     		ldr	r0, [r0, #0]
 979 0772 FFF7FEFF 		bl	gwinSetEnabled
 980              	.LVL75:
 981              		.loc 1 211 0
 982 0776 40F20001 		movw	r1, #:lower16:.LANCHOR10
 983 077a C0F20001 		movt	r1, #:upper16:.LANCHOR10
 984 077e 40F2000A 		movw	sl, #:lower16:.LANCHOR11
 985 0782 C0F2000A 		movt	sl, #:upper16:.LANCHOR11
 986 0786 0868     		ldr	r0, [r1, #0]
 987 0788 2146     		mov	r1, r4
 988 078a FFF7FEFF 		bl	gwinSetEnabled
 989              	.LVL76:
 990 078e DAF80000 		ldr	r0, [sl, #0]
 991 0792 2146     		mov	r1, r4
 992 0794 FFF7FEFF 		bl	gwinSetEnabled
 993              	.LVL77:
 994              		.loc 1 212 0
 995 0798 40F20003 		movw	r3, #:lower16:.LANCHOR12
 996 079c C0F20003 		movt	r3, #:upper16:.LANCHOR12
 997 07a0 2146     		mov	r1, r4
 998 07a2 1868     		ldr	r0, [r3, #0]
 999 07a4 FFF7FEFF 		bl	gwinSetEnabled
 1000              	.LVL78:
 1001 07a8 40F20002 		movw	r2, #:lower16:.LANCHOR13
 1002 07ac C0F20002 		movt	r2, #:upper16:.LANCHOR13
 1003 07b0 2146     		mov	r1, r4
 1004 07b2 1068     		ldr	r0, [r2, #0]
 1005 07b4 FFF7FEFF 		bl	gwinSetEnabled
 1006              	.LVL79:
 1007              		.loc 1 213 0
 1008 07b8 40F20000 		movw	r0, #:lower16:.LANCHOR14
 1009 07bc C0F20000 		movt	r0, #:upper16:.LANCHOR14
 1010 07c0 2146     		mov	r1, r4
 1011 07c2 0068     		ldr	r0, [r0, #0]
 1012 07c4 FFF7FEFF 		bl	gwinSetEnabled
 1013              	.LVL80:
 1014 07c8 40F2000C 		movw	ip, #:lower16:.LANCHOR15
 1015 07cc C0F2000C 		movt	ip, #:upper16:.LANCHOR15
 1016 07d0 2146     		mov	r1, r4
 1017 07d2 DCF80000 		ldr	r0, [ip, #0]
 1018 07d6 FFF7FEFF 		bl	gwinSetEnabled
 1019              	.LVL81:
 1020              		.loc 1 214 0
 1021 07da 40F20001 		movw	r1, #:lower16:.LANCHOR16
 1022 07de C0F20001 		movt	r1, #:upper16:.LANCHOR16
 1023 07e2 0868     		ldr	r0, [r1, #0]
 1024 07e4 2146     		mov	r1, r4
 1025 07e6 FFF7FEFF 		bl	gwinSetEnabled
 1026              	.LVL82:
ARM GAS  /tmp/ccKcOR50.s 			page 19


 1027 07ea 40F20003 		movw	r3, #:lower16:.LANCHOR17
 1028 07ee C0F20003 		movt	r3, #:upper16:.LANCHOR17
 1029 07f2 2146     		mov	r1, r4
 1030 07f4 1868     		ldr	r0, [r3, #0]
 1031 07f6 FFF7FEFF 		bl	gwinSetEnabled
 1032              	.LVL83:
 1033              		.loc 1 215 0
 1034 07fa 40F20002 		movw	r2, #:lower16:.LANCHOR19
 1035 07fe C0F20002 		movt	r2, #:upper16:.LANCHOR19
 1036 0802 2146     		mov	r1, r4
 1037 0804 1068     		ldr	r0, [r2, #0]
 1038 0806 FFF7FEFF 		bl	gwinSetEnabled
 1039              	.LVL84:
 1040              		.loc 1 216 0
 1041 080a 40F2000E 		movw	lr, #:lower16:.LANCHOR20
 1042 080e C0F2000E 		movt	lr, #:upper16:.LANCHOR20
 1043 0812 2146     		mov	r1, r4
 1044 0814 DEF80000 		ldr	r0, [lr, #0]
 1045 0818 FFF7FEFF 		bl	gwinSetEnabled
 1046              	.LVL85:
 1047 081c 40F20000 		movw	r0, #:lower16:.LANCHOR21
 1048 0820 C0F20000 		movt	r0, #:upper16:.LANCHOR21
 1049 0824 2146     		mov	r1, r4
 1050 0826 0068     		ldr	r0, [r0, #0]
 1051 0828 FFF7FEFF 		bl	gwinSetEnabled
 1052              	.LVL86:
 1053              		.loc 1 218 0
 1054 082c 40F20001 		movw	r1, #:lower16:.LANCHOR23
 1055 0830 C0F20001 		movt	r1, #:upper16:.LANCHOR23
 1056 0834 0868     		ldr	r0, [r1, #0]
 1057 0836 2146     		mov	r1, r4
 1058 0838 FFF7FEFF 		bl	gwinSetEnabled
 1059              	.LVL87:
 1060 083c D9F80000 		ldr	r0, [r9, #0]
 1061 0840 2146     		mov	r1, r4
 1062 0842 FFF7FEFF 		bl	gwinSetEnabled
 1063              	.LVL88:
 1064 0846 D8F80000 		ldr	r0, [r8, #0]
 1065 084a 2146     		mov	r1, r4
 1066 084c FFF7FEFF 		bl	gwinSetEnabled
 1067              	.LVL89:
 1068 0850 4DE6     		b	.L27
 1069              	.LVL90:
 1070              	.L5:
 1071              	.LBE22:
 1072              	.LBE23:
 1073              		.loc 1 268 0
 1074 0852 4068     		ldr	r0, [r0, #4]
 1075              	.LVL91:
 1076 0854 D5F800A0 		ldr	sl, [r5, #0]
 1077 0858 FFF7FEFF 		bl	gwinGetText
 1078              	.LVL92:
 1079 085c 6A49     		ldr	r1, .L40+20
 1080 085e 0246     		mov	r2, r0
 1081 0860 5046     		mov	r0, sl
 1082 0862 FFF7FEFF 		bl	gwinPrintf
 1083              	.LVL93:
ARM GAS  /tmp/ccKcOR50.s 			page 20


 1084              		.loc 1 269 0
 1085 0866 42E6     		b	.L27
 1086              	.LVL94:
 1087              	.L4:
 1088              		.loc 1 335 0
 1089 0868 2868     		ldr	r0, [r5, #0]
 1090              	.LVL95:
 1091 086a 6849     		ldr	r1, .L40+24
 1092 086c FFF7FEFF 		bl	gwinPrintf
 1093              	.LVL96:
 1094              		.loc 1 336 0
 1095 0870 3DE6     		b	.L27
 1096              	.LVL97:
 1097              	.L6:
 1098              		.loc 1 272 0
 1099 0872 4068     		ldr	r0, [r0, #4]
 1100              	.LVL98:
 1101 0874 D5F800B0 		ldr	fp, [r5, #0]
 1102 0878 FFF7FEFF 		bl	gwinGetText
 1103              	.LVL99:
 1104 087c 6449     		ldr	r1, .L40+28
 1105 087e A368     		ldr	r3, [r4, #8]
 1106 0880 0246     		mov	r2, r0
 1107 0882 5846     		mov	r0, fp
 1108 0884 FFF7FEFF 		bl	gwinPrintf
 1109              	.LVL100:
 1110              		.loc 1 273 0
 1111 0888 31E6     		b	.L27
 1112              	.L29:
 1113              		.loc 1 290 0
 1114 088a BAF1020F 		cmp	sl, #2
 1115 088e 7FF42EAE 		bne	.L27
 1116              	.LBB24:
 1117              		.loc 1 311 0
 1118 0892 40F20000 		movw	r0, #:lower16:.LANCHOR25
 1119 0896 C0F20000 		movt	r0, #:upper16:.LANCHOR25
 1120 089a 5E49     		ldr	r1, .L40+32
 1121 089c 0068     		ldr	r0, [r0, #0]
 1122 089e FFF7FEFF 		bl	gwinPrintf
 1123              	.LVL101:
 1124              		.loc 1 313 0
 1125 08a2 6368     		ldr	r3, [r4, #4]
 1126 08a4 D8F80020 		ldr	r2, [r8, #0]
 1127 08a8 9342     		cmp	r3, r2
 1128 08aa 32D0     		beq	.L23
 1129              		.loc 1 315 0
 1130 08ac D9F80000 		ldr	r0, [r9, #0]
 1131              		.loc 1 316 0
 1132 08b0 5949     		ldr	r1, .L40+36
 1133 08b2 5A4C     		ldr	r4, .L40+40
 1134              	.LVL102:
 1135 08b4 8342     		cmp	r3, r0
 1136 08b6 08BF     		it	eq
 1137 08b8 0C46     		moveq	r4, r1
 1138              	.L20:
 1139              	.LVL103:
 1140              		.loc 1 322 0
ARM GAS  /tmp/ccKcOR50.s 			page 21


 1141 08ba 0020     		movs	r0, #0
 1142 08bc 0146     		mov	r1, r0
 1143 08be B6F90020 		ldrsh	r2, [r6, #0]
 1144 08c2 B6F90230 		ldrsh	r3, [r6, #2]
 1145 08c6 FFF7FEFF 		bl	gdispSetClip
 1146              	.LVL104:
 1147              		.loc 1 324 0
 1148 08ca B6F90230 		ldrsh	r3, [r6, #2]
 1149 08ce B4F800C0 		ldrh	ip, [r4, #0]
 1150 08d2 B6F90020 		ldrsh	r2, [r6, #0]
 1151 08d6 CDF800C0 		str	ip, [sp, #0]
 1152 08da 0020     		movs	r0, #0
 1153 08dc 03EBD373 		add	r3, r3, r3, lsr #31
 1154 08e0 0146     		mov	r1, r0
 1155 08e2 5B10     		asrs	r3, r3, #1
 1156 08e4 FFF7FEFF 		bl	gdispFillArea
 1157              	.LVL105:
 1158              		.loc 1 325 0
 1159 08e8 B6F90220 		ldrsh	r2, [r6, #2]
 1160 08ec B6F90030 		ldrsh	r3, [r6, #0]
 1161 08f0 2088     		ldrh	r0, [r4, #0]
 1162 08f2 02EBD271 		add	r1, r2, r2, lsr #31
 1163 08f6 4910     		asrs	r1, r1, #1
 1164 08f8 03EBD372 		add	r2, r3, r3, lsr #31
 1165 08fc 0090     		str	r0, [sp, #0]
 1166 08fe 0B46     		mov	r3, r1
 1167 0900 0020     		movs	r0, #0
 1168 0902 5210     		asrs	r2, r2, #1
 1169 0904 FFF7FEFF 		bl	gdispFillArea
 1170              	.LVL106:
 1171              		.loc 1 328 0
 1172 0908 2046     		mov	r0, r4
 1173 090a 0121     		movs	r1, #1
 1174 090c FFF7FEFF 		bl	gwinSetDefaultStyle
 1175              	.LVL107:
 1176              	.LBE24:
 1177              		.loc 1 330 0
 1178 0910 EDE5     		b	.L27
 1179              	.LVL108:
 1180              	.L23:
 1181              	.LBB25:
 1182              		.loc 1 314 0
 1183 0912 434C     		ldr	r4, .L40+44
 1184              	.LVL109:
 1185 0914 D1E7     		b	.L20
 1186              	.LVL110:
 1187              	.L34:
 1188              	.LBE25:
 1189              	.LBB26:
 1190              	.LBB18:
 1191              		.loc 1 201 0
 1192 0916 434A     		ldr	r2, .L40+48
 1193 0918 0121     		movs	r1, #1
 1194 091a 1068     		ldr	r0, [r2, #0]
 1195 091c FFF7FEFF 		bl	gwinSetVisible
 1196              	.LVL111:
 1197 0920 414B     		ldr	r3, .L40+52
ARM GAS  /tmp/ccKcOR50.s 			page 22


 1198 0922 0121     		movs	r1, #1
 1199 0924 1868     		ldr	r0, [r3, #0]
 1200 0926 FFF7FEFF 		bl	gwinSetVisible
 1201              	.LVL112:
 1202              		.loc 1 202 0
 1203 092a 4048     		ldr	r0, .L40+56
 1204 092c 0121     		movs	r1, #1
 1205 092e 0068     		ldr	r0, [r0, #0]
 1206 0930 FFF7FEFF 		bl	gwinSetVisible
 1207              	.LVL113:
 1208 0934 3E49     		ldr	r1, .L40+60
 1209 0936 0868     		ldr	r0, [r1, #0]
 1210 0938 0121     		movs	r1, #1
 1211 093a FFF7FEFF 		bl	gwinSetVisible
 1212              	.LVL114:
 1213 093e 3D4A     		ldr	r2, .L40+64
 1214 0940 0121     		movs	r1, #1
 1215 0942 1068     		ldr	r0, [r2, #0]
 1216 0944 FFF7FEFF 		bl	gwinSetVisible
 1217              	.LVL115:
 1218 0948 DAF80030 		ldr	r3, [sl, #0]
 1219 094c A2E6     		b	.L16
 1220              	.L30:
 1221              		.loc 1 191 0
 1222 094e 3A49     		ldr	r1, .L40+68
 1223 0950 0868     		ldr	r0, [r1, #0]
 1224 0952 0121     		movs	r1, #1
 1225 0954 FFF7FEFF 		bl	gwinSetVisible
 1226              	.LVL116:
 1227 0958 384A     		ldr	r2, .L40+72
 1228 095a 0121     		movs	r1, #1
 1229 095c 1068     		ldr	r0, [r2, #0]
 1230 095e FFF7FEFF 		bl	gwinSetVisible
 1231              	.LVL117:
 1232              		.loc 1 192 0
 1233 0962 374B     		ldr	r3, .L40+76
 1234 0964 0121     		movs	r1, #1
 1235 0966 1868     		ldr	r0, [r3, #0]
 1236 0968 FFF7FEFF 		bl	gwinSetVisible
 1237              	.LVL118:
 1238 096c 3548     		ldr	r0, .L40+80
 1239 096e 0121     		movs	r1, #1
 1240 0970 0068     		ldr	r0, [r0, #0]
 1241 0972 FFF7FEFF 		bl	gwinSetVisible
 1242              	.LVL119:
 1243 0976 40F20001 		movw	r1, #:lower16:.LANCHOR6
 1244 097a C0F20001 		movt	r1, #:upper16:.LANCHOR6
 1245 097e 0B68     		ldr	r3, [r1, #0]
 1246 0980 88E6     		b	.L16
 1247              	.L31:
 1248              		.loc 1 194 0
 1249 0982 3148     		ldr	r0, .L40+84
 1250 0984 0121     		movs	r1, #1
 1251 0986 0068     		ldr	r0, [r0, #0]
 1252 0988 FFF7FEFF 		bl	gwinSetVisible
 1253              	.LVL120:
 1254 098c 2F49     		ldr	r1, .L40+88
ARM GAS  /tmp/ccKcOR50.s 			page 23


 1255 098e 0868     		ldr	r0, [r1, #0]
 1256 0990 0121     		movs	r1, #1
 1257 0992 FFF7FEFF 		bl	gwinSetVisible
 1258              	.LVL121:
 1259              		.loc 1 195 0
 1260 0996 2E4A     		ldr	r2, .L40+92
 1261 0998 0121     		movs	r1, #1
 1262 099a 1068     		ldr	r0, [r2, #0]
 1263 099c FFF7FEFF 		bl	gwinSetVisible
 1264              	.LVL122:
 1265 09a0 2C4B     		ldr	r3, .L40+96
 1266 09a2 0121     		movs	r1, #1
 1267 09a4 1868     		ldr	r0, [r3, #0]
 1268 09a6 FFF7FEFF 		bl	gwinSetVisible
 1269              	.LVL123:
 1270 09aa 40F20000 		movw	r0, #:lower16:.LANCHOR6
 1271 09ae C0F20000 		movt	r0, #:upper16:.LANCHOR6
 1272 09b2 0368     		ldr	r3, [r0, #0]
 1273 09b4 6EE6     		b	.L16
 1274              	.L32:
 1275              		.loc 1 197 0
 1276 09b6 2849     		ldr	r1, .L40+100
 1277 09b8 0868     		ldr	r0, [r1, #0]
 1278 09ba 0121     		movs	r1, #1
 1279 09bc FFF7FEFF 		bl	gwinSetVisible
 1280              	.LVL124:
 1281 09c0 264A     		ldr	r2, .L40+104
 1282 09c2 0121     		movs	r1, #1
 1283 09c4 1068     		ldr	r0, [r2, #0]
 1284 09c6 FFF7FEFF 		bl	gwinSetVisible
 1285              	.LVL125:
 1286 09ca 40F2000B 		movw	fp, #:lower16:.LANCHOR6
 1287              	.LVL126:
 1288 09ce 244B     		ldr	r3, .L40+108
 1289 09d0 C0F2000B 		movt	fp, #:upper16:.LANCHOR6
 1290 09d4 1868     		ldr	r0, [r3, #0]
 1291 09d6 0121     		movs	r1, #1
 1292 09d8 FFF7FEFF 		bl	gwinSetVisible
 1293              	.LVL127:
 1294 09dc DBF80030 		ldr	r3, [fp, #0]
 1295 09e0 58E6     		b	.L16
 1296              	.LVL128:
 1297              	.L33:
 1298              		.loc 1 199 0
 1299 09e2 2048     		ldr	r0, .L40+112
 1300 09e4 0121     		movs	r1, #1
 1301 09e6 0068     		ldr	r0, [r0, #0]
 1302 09e8 FFF7FEFF 		bl	gwinSetVisible
 1303              	.LVL129:
 1304 09ec DAF80030 		ldr	r3, [sl, #0]
 1305 09f0 50E6     		b	.L16
 1306              	.L41:
 1307 09f2 00BF     		.align	2
 1308              	.L40:
 1309 09f4 00000000 		.word	.LC0
 1310 09f8 BC000000 		.word	.LC31
 1311 09fc 14000000 		.word	.LC2
ARM GAS  /tmp/ccKcOR50.s 			page 24


 1312 0a00 1C000000 		.word	.LC3
 1313 0a04 CC000000 		.word	.LC32
 1314 0a08 A0000000 		.word	.LC29
 1315 0a0c 24010000 		.word	.LC37
 1316 0a10 AC000000 		.word	.LC30
 1317 0a14 0C010000 		.word	.LC36
 1318 0a18 00000000 		.word	BlackWidgetStyle
 1319 0a1c 00000000 		.word	WhiteWidgetStyle
 1320 0a20 00000000 		.word	.LANCHOR0
 1321 0a24 00000000 		.word	.LANCHOR20
 1322 0a28 00000000 		.word	.LANCHOR21
 1323 0a2c 00000000 		.word	.LANCHOR23
 1324 0a30 00000000 		.word	.LANCHOR22
 1325 0a34 00000000 		.word	.LANCHOR24
 1326 0a38 00000000 		.word	.LANCHOR8
 1327 0a3c 00000000 		.word	.LANCHOR9
 1328 0a40 00000000 		.word	.LANCHOR10
 1329 0a44 00000000 		.word	.LANCHOR11
 1330 0a48 00000000 		.word	.LANCHOR12
 1331 0a4c 00000000 		.word	.LANCHOR13
 1332 0a50 00000000 		.word	.LANCHOR14
 1333 0a54 00000000 		.word	.LANCHOR15
 1334 0a58 00000000 		.word	.LANCHOR16
 1335 0a5c 00000000 		.word	.LANCHOR17
 1336 0a60 00000000 		.word	.LANCHOR18
 1337 0a64 00000000 		.word	.LANCHOR19
 1338 0a68 08000000 		.word	.LC1
 1339              	.LBE18:
 1340              	.LBE26:
 1341              		.cfi_endproc
 1342              	.LFE121:
 1343              		.size	main, .-main
 1344 0a6c AFF30080 		.section	.bss.ghLabel1,"aw",%nobits
 1345              		.align	2
 1346              		.set	.LANCHOR19,. + 0
 1347              		.type	ghLabel1, %object
 1348              		.size	ghLabel1, 4
 1349              	ghLabel1:
 1350 0000 00000000 		.space	4
 1351              		.section	.bss.ghRadioYellow,"aw",%nobits
 1352              		.align	2
 1353              		.set	.LANCHOR24,. + 0
 1354              		.type	ghRadioYellow, %object
 1355              		.size	ghRadioYellow, 4
 1356              	ghRadioYellow:
 1357 0000 00000000 		.space	4
 1358              		.section	.bss.ghTabCheckboxes,"aw",%nobits
 1359              		.align	2
 1360              		.set	.LANCHOR3,. + 0
 1361              		.type	ghTabCheckboxes, %object
 1362              		.size	ghTabCheckboxes, 4
 1363              	ghTabCheckboxes:
 1364 0000 00000000 		.space	4
 1365              		.section	.bss.ghCheckDisableAll,"aw",%nobits
 1366              		.align	2
 1367              		.set	.LANCHOR18,. + 0
 1368              		.type	ghCheckDisableAll, %object
ARM GAS  /tmp/ccKcOR50.s 			page 25


 1369              		.size	ghCheckDisableAll, 4
 1370              	ghCheckDisableAll:
 1371 0000 00000000 		.space	4
 1372              		.section	.bss.ghRadioWhite,"aw",%nobits
 1373              		.align	2
 1374              		.set	.LANCHOR23,. + 0
 1375              		.type	ghRadioWhite, %object
 1376              		.size	ghRadioWhite, 4
 1377              	ghRadioWhite:
 1378 0000 00000000 		.space	4
 1379              		.section	.bss.ghRadio1,"aw",%nobits
 1380              		.align	2
 1381              		.set	.LANCHOR20,. + 0
 1382              		.type	ghRadio1, %object
 1383              		.size	ghRadio1, 4
 1384              	ghRadio1:
 1385 0000 00000000 		.space	4
 1386              		.section	.bss.ghRadio2,"aw",%nobits
 1387              		.align	2
 1388              		.set	.LANCHOR21,. + 0
 1389              		.type	ghRadio2, %object
 1390              		.size	ghRadio2, 4
 1391              	ghRadio2:
 1392 0000 00000000 		.space	4
 1393              		.section	.bss.ghTabRadios,"aw",%nobits
 1394              		.align	2
 1395              		.set	.LANCHOR4,. + 0
 1396              		.type	ghTabRadios, %object
 1397              		.size	ghTabRadios, 4
 1398              	ghTabRadios:
 1399 0000 00000000 		.space	4
 1400              		.section	.bss.ghTabImages,"aw",%nobits
 1401              		.align	2
 1402              		.set	.LANCHOR7,. + 0
 1403              		.type	ghTabImages, %object
 1404              		.size	ghTabImages, 4
 1405              	ghTabImages:
 1406 0000 00000000 		.space	4
 1407              		.section	.bss.ghSlider1,"aw",%nobits
 1408              		.align	2
 1409              		.set	.LANCHOR12,. + 0
 1410              		.type	ghSlider1, %object
 1411              		.size	ghSlider1, 4
 1412              	ghSlider1:
 1413 0000 00000000 		.space	4
 1414              		.section	.bss.ghSlider2,"aw",%nobits
 1415              		.align	2
 1416              		.set	.LANCHOR13,. + 0
 1417              		.type	ghSlider2, %object
 1418              		.size	ghSlider2, 4
 1419              	ghSlider2:
 1420 0000 00000000 		.space	4
 1421              		.section	.bss.ghSlider3,"aw",%nobits
 1422              		.align	2
 1423              		.set	.LANCHOR14,. + 0
 1424              		.type	ghSlider3, %object
 1425              		.size	ghSlider3, 4
ARM GAS  /tmp/ccKcOR50.s 			page 26


 1426              	ghSlider3:
 1427 0000 00000000 		.space	4
 1428              		.section	.bss.ghSlider4,"aw",%nobits
 1429              		.align	2
 1430              		.set	.LANCHOR15,. + 0
 1431              		.type	ghSlider4, %object
 1432              		.size	ghSlider4, 4
 1433              	ghSlider4:
 1434 0000 00000000 		.space	4
 1435              		.section	.rodata.str1.4,"aMS",%progbits,1
 1436              		.align	2
 1437              	.LC0:
 1438 0000 43686563 		.ascii	"Checked\000"
 1438      6B656400 
 1439              	.LC1:
 1440 0008 556E4368 		.ascii	"UnChecked\000"
 1440      65636B65 
 1440      6400
 1441 0012 0000     		.space	2
 1442              	.LC2:
 1443 0014 44697361 		.ascii	"Disable\000"
 1443      626C6500 
 1444              	.LC3:
 1445 001c 456E6162 		.ascii	"Enable\000"
 1445      6C6500
 1446 0023 00       		.space	1
 1447              	.LC4:
 1448 0024 55493200 		.ascii	"UI2\000"
 1449              	.LC5:
 1450 0028 425400   		.ascii	"BT\000"
 1451 002b 00       		.space	1
 1452              	.LC6:
 1453 002c 534C00   		.ascii	"SL\000"
 1454 002f 00       		.space	1
 1455              	.LC7:
 1456 0030 434200   		.ascii	"CB\000"
 1457 0033 00       		.space	1
 1458              	.LC8:
 1459 0034 524400   		.ascii	"RD\000"
 1460 0037 00       		.space	1
 1461              	.LC9:
 1462 0038 4C5300   		.ascii	"LS\000"
 1463 003b 00       		.space	1
 1464              	.LC10:
 1465 003c 4C4200   		.ascii	"LB\000"
 1466 003f 00       		.space	1
 1467              	.LC11:
 1468 0040 494D00   		.ascii	"IM\000"
 1469 0043 00       		.space	1
 1470              	.LC12:
 1471 0044 423100   		.ascii	"B1\000"
 1472 0047 00       		.space	1
 1473              	.LC13:
 1474 0048 423200   		.ascii	"B2\000"
 1475 004b 00       		.space	1
 1476              	.LC14:
 1477 004c 423300   		.ascii	"B3\000"
ARM GAS  /tmp/ccKcOR50.s 			page 27


 1478 004f 00       		.space	1
 1479              	.LC15:
 1480 0050 423400   		.ascii	"B4\000"
 1481 0053 00       		.space	1
 1482              	.LC16:
 1483 0054 533100   		.ascii	"S1\000"
 1484 0057 00       		.space	1
 1485              	.LC17:
 1486 0058 533200   		.ascii	"S2\000"
 1487 005b 00       		.space	1
 1488              	.LC18:
 1489 005c 533300   		.ascii	"S3\000"
 1490 005f 00       		.space	1
 1491              	.LC19:
 1492 0060 533400   		.ascii	"S4\000"
 1493 0063 00       		.space	1
 1494              	.LC20:
 1495 0064 433100   		.ascii	"C1\000"
 1496 0067 00       		.space	1
 1497              	.LC21:
 1498 0068 433200   		.ascii	"C2\000"
 1499 006b 00       		.space	1
 1500              	.LC22:
 1501 006c 44697361 		.ascii	"Disable All\000"
 1501      626C6520 
 1501      416C6C00 
 1502              	.LC23:
 1503 0078 4C616265 		.ascii	"Label\000"
 1503      6C00
 1504 007e 0000     		.space	2
 1505              	.LC24:
 1506 0080 59657300 		.ascii	"Yes\000"
 1507              	.LC25:
 1508 0084 4E6F00   		.ascii	"No\000"
 1509 0087 00       		.space	1
 1510              	.LC26:
 1511 0088 426C6163 		.ascii	"Black\000"
 1511      6B00
 1512 008e 0000     		.space	2
 1513              	.LC27:
 1514 0090 57686974 		.ascii	"White\000"
 1514      6500
 1515 0096 0000     		.space	2
 1516              	.LC28:
 1517 0098 59656C6C 		.ascii	"Yellow\000"
 1517      6F7700
 1518 009f 00       		.space	1
 1519              	.LC29:
 1520 00a0 42757474 		.ascii	"Button %s\012\000"
 1520      6F6E2025 
 1520      730A00
 1521 00ab 00       		.space	1
 1522              	.LC30:
 1523 00ac 536C6964 		.ascii	"Slider %s=%d\012\000"
 1523      65722025 
 1523      733D2564 
 1523      0A00
ARM GAS  /tmp/ccKcOR50.s 			page 28


 1524 00ba 0000     		.space	2
 1525              	.LC31:
 1526 00bc 43686563 		.ascii	"Checkbox %s=%s\012\000"
 1526      6B626F78 
 1526      2025733D 
 1526      25730A00 
 1527              	.LC32:
 1528 00cc 25732041 		.ascii	"%s All\012\000"
 1528      6C6C0A00 
 1529              	.LC33:
 1530 00d4 52616469 		.ascii	"Radio Group %u=%s\012\000"
 1530      6F204772 
 1530      6F757020 
 1530      25753D25 
 1530      730A00
 1531 00e7 00       		.space	1
 1532              	.LC34:
 1533 00e8 4368616E 		.ascii	"Change Label Text\012\000"
 1533      6765204C 
 1533      6162656C 
 1533      20546578 
 1533      740A00
 1534 00fb 00       		.space	1
 1535              	.LC35:
 1536 00fc 56657279 		.ascii	"Very Big Label\000"
 1536      20426967 
 1536      204C6162 
 1536      656C00
 1537 010b 00       		.space	1
 1538              	.LC36:
 1539 010c 4368616E 		.ascii	"Change Color Scheme\012\000"
 1539      67652043 
 1539      6F6C6F72 
 1539      20536368 
 1539      656D650A 
 1540 0121 000000   		.space	3
 1541              	.LC37:
 1542 0124 556E6B6E 		.ascii	"Unknown %d\012\000"
 1542      6F776E20 
 1542      25640A00 
 1543              		.section	.bss.ghTabLists,"aw",%nobits
 1544              		.align	2
 1545              		.set	.LANCHOR5,. + 0
 1546              		.type	ghTabLists, %object
 1547              		.size	ghTabLists, 4
 1548              	ghTabLists:
 1549 0000 00000000 		.space	4
 1550              		.section	.bss.ghTabSliders,"aw",%nobits
 1551              		.align	2
 1552              		.set	.LANCHOR2,. + 0
 1553              		.type	ghTabSliders, %object
 1554              		.size	ghTabSliders, 4
 1555              	ghTabSliders:
 1556 0000 00000000 		.space	4
 1557              		.section	.bss.ghCheckbox1,"aw",%nobits
 1558              		.align	2
 1559              		.set	.LANCHOR16,. + 0
ARM GAS  /tmp/ccKcOR50.s 			page 29


 1560              		.type	ghCheckbox1, %object
 1561              		.size	ghCheckbox1, 4
 1562              	ghCheckbox1:
 1563 0000 00000000 		.space	4
 1564              		.section	.bss.ghCheckbox2,"aw",%nobits
 1565              		.align	2
 1566              		.set	.LANCHOR17,. + 0
 1567              		.type	ghCheckbox2, %object
 1568              		.size	ghCheckbox2, 4
 1569              	ghCheckbox2:
 1570 0000 00000000 		.space	4
 1571              		.section	.bss.ghTabLabels,"aw",%nobits
 1572              		.align	2
 1573              		.set	.LANCHOR6,. + 0
 1574              		.type	ghTabLabels, %object
 1575              		.size	ghTabLabels, 4
 1576              	ghTabLabels:
 1577 0000 00000000 		.space	4
 1578              		.section	.bss.ghConsole,"aw",%nobits
 1579              		.align	2
 1580              		.set	.LANCHOR25,. + 0
 1581              		.type	ghConsole, %object
 1582              		.size	ghConsole, 4
 1583              	ghConsole:
 1584 0000 00000000 		.space	4
 1585              		.section	.rodata.YellowWidgetStyle,"a",%progbits
 1586              		.align	2
 1587              		.set	.LANCHOR0,. + 0
 1588              		.type	YellowWidgetStyle, %object
 1589              		.size	YellowWidgetStyle, 26
 1590              	YellowWidgetStyle:
 1591 0000 E0FF     		.short	-32
 1592 0002 1F00     		.short	31
 1593 0004 0842     		.short	16904
 1594 0006 1CE7     		.short	-6372
 1595 0008 1CE7     		.short	-6372
 1596 000a 18C6     		.short	-14824
 1597 000c 1084     		.short	-31728
 1598 000e 1CE7     		.short	-6372
 1599 0010 18C7     		.short	-14568
 1600 0012 1FF8     		.short	-2017
 1601 0014 0842     		.short	16904
 1602 0016 1084     		.short	-31728
 1603 0018 0007     		.short	1792
 1604 001a 0000     		.section	.bss.ghButton1,"aw",%nobits
 1605              		.align	2
 1606              		.set	.LANCHOR8,. + 0
 1607              		.type	ghButton1, %object
 1608              		.size	ghButton1, 4
 1609              	ghButton1:
 1610 0000 00000000 		.space	4
 1611              		.section	.bss.ghButton2,"aw",%nobits
 1612              		.align	2
 1613              		.set	.LANCHOR9,. + 0
 1614              		.type	ghButton2, %object
 1615              		.size	ghButton2, 4
 1616              	ghButton2:
ARM GAS  /tmp/ccKcOR50.s 			page 30


 1617 0000 00000000 		.space	4
 1618              		.section	.bss.ghButton3,"aw",%nobits
 1619              		.align	2
 1620              		.set	.LANCHOR10,. + 0
 1621              		.type	ghButton3, %object
 1622              		.size	ghButton3, 4
 1623              	ghButton3:
 1624 0000 00000000 		.space	4
 1625              		.section	.bss.ghButton4,"aw",%nobits
 1626              		.align	2
 1627              		.set	.LANCHOR11,. + 0
 1628              		.type	ghButton4, %object
 1629              		.size	ghButton4, 4
 1630              	ghButton4:
 1631 0000 00000000 		.space	4
 1632              		.section	.bss.gl,"aw",%nobits
 1633              		.align	2
 1634              		.set	.LANCHOR26,. + 0
 1635              		.type	gl, %object
 1636              		.size	gl, 72
 1637              	gl:
 1638 0000 00000000 		.space	72
 1638      00000000 
 1638      00000000 
 1638      00000000 
 1638      00000000 
 1639              		.section	.bss.ghTabButtons,"aw",%nobits
 1640              		.align	2
 1641              		.set	.LANCHOR1,. + 0
 1642              		.type	ghTabButtons, %object
 1643              		.size	ghTabButtons, 4
 1644              	ghTabButtons:
 1645 0000 00000000 		.space	4
 1646              		.section	.bss.ghRadioBlack,"aw",%nobits
 1647              		.align	2
 1648              		.set	.LANCHOR22,. + 0
 1649              		.type	ghRadioBlack, %object
 1650              		.size	ghRadioBlack, 4
 1651              	ghRadioBlack:
 1652 0000 00000000 		.space	4
 1653              		.text
 1654              	.Letext0:
 1655              		.file 2 "/usr/bin/../lib/gcc/arm-none-eabi/4.7.4/include/stddef.h"
 1656              		.file 3 "/usr/bin/../lib/gcc/arm-none-eabi/4.7.4/../../../../arm-none-eabi/include/stdint.h"
 1657              		.file 4 "../../os/ports/GCC/ARMCMx/chtypes.h"
 1658              		.file 5 "../../os/kernel/include/chlists.h"
 1659              		.file 6 "../../os/kernel/include/chthreads.h"
 1660              		.file 7 "../../os/ports/GCC/ARMCMx/chcore_v7m.h"
 1661              		.file 8 "../../os/kernel/include/chsem.h"
 1662              		.file 9 "../../os/kernel/include/chmtx.h"
 1663              		.file 10 "../../ext/ugfx/include/gos/chibios.h"
 1664              		.file 11 "../../ext/ugfx/include/gqueue/gqueue.h"
 1665              		.file 12 "../../ext/ugfx/include/gevent/gevent.h"
 1666              		.file 13 "../../ext/ugfx/include/gdisp/gdisp.h"
 1667              		.file 14 "../../ext/ugfx/include/gdisp/image.h"
 1668              		.file 15 "../../ext/ugfx/include/gwin/gwin.h"
 1669              		.file 16 "../../ext/ugfx/include/gwin/gwidget.h"
ARM GAS  /tmp/ccKcOR50.s 			page 31


 1670              		.file 17 "../../ext/ugfx/include/gwin/button.h"
 1671              		.file 18 "../../ext/ugfx/include/gwin/slider.h"
 1672              		.file 19 "../../ext/ugfx/include/gwin/checkbox.h"
 1673              		.file 20 "../../ext/ugfx/include/gwin/radio.h"
 1674              		.file 21 "../../ext/ugfx/include/gwin/console.h"
 1675              		.file 22 "../../ext/ugfx/include/gwin/label.h"
 1676              		.file 23 "../../os/ports/common/ARMCMx/CMSIS/include/core_cm4.h"
 1677              		.file 24 "../../ext/ugfx/include/gfx.h"
 1678              		.section	.debug_info,"",%progbits
 1679              	.Ldebug_info0:
 1680 0000 591D0000 		.4byte	0x1d59
 1681 0004 0200     		.2byte	0x2
 1682 0006 00000000 		.4byte	.Ldebug_abbrev0
 1683 000a 04       		.byte	0x4
 1684 000b 01       		.uleb128 0x1
 1685 000c CA000000 		.4byte	.LASF226
 1686 0010 01       		.byte	0x1
 1687 0011 4C050000 		.4byte	.LASF227
 1688 0015 78010000 		.4byte	.LASF228
 1689 0019 90000000 		.4byte	.Ldebug_ranges0+0x90
 1690 001d 00000000 		.4byte	0
 1691 0021 00000000 		.4byte	0
 1692 0025 00000000 		.4byte	.Ldebug_line0
 1693 0029 02       		.uleb128 0x2
 1694 002a 04       		.byte	0x4
 1695 002b 05       		.byte	0x5
 1696 002c 696E7400 		.ascii	"int\000"
 1697 0030 03       		.uleb128 0x3
 1698 0031 00000000 		.4byte	.LASF2
 1699 0035 02       		.byte	0x2
 1700 0036 D5       		.byte	0xd5
 1701 0037 3B000000 		.4byte	0x3b
 1702 003b 04       		.uleb128 0x4
 1703 003c 04       		.byte	0x4
 1704 003d 07       		.byte	0x7
 1705 003e EA050000 		.4byte	.LASF0
 1706 0042 04       		.uleb128 0x4
 1707 0043 01       		.byte	0x1
 1708 0044 06       		.byte	0x6
 1709 0045 F4020000 		.4byte	.LASF1
 1710 0049 03       		.uleb128 0x3
 1711 004a 0A030000 		.4byte	.LASF3
 1712 004e 03       		.byte	0x3
 1713 004f 2A       		.byte	0x2a
 1714 0050 54000000 		.4byte	0x54
 1715 0054 04       		.uleb128 0x4
 1716 0055 01       		.byte	0x1
 1717 0056 08       		.byte	0x8
 1718 0057 3F030000 		.4byte	.LASF4
 1719 005b 03       		.uleb128 0x3
 1720 005c D2080000 		.4byte	.LASF5
 1721 0060 03       		.byte	0x3
 1722 0061 35       		.byte	0x35
 1723 0062 66000000 		.4byte	0x66
 1724 0066 04       		.uleb128 0x4
 1725 0067 02       		.byte	0x2
 1726 0068 05       		.byte	0x5
ARM GAS  /tmp/ccKcOR50.s 			page 32


 1727 0069 A2080000 		.4byte	.LASF6
 1728 006d 03       		.uleb128 0x3
 1729 006e 68070000 		.4byte	.LASF7
 1730 0072 03       		.byte	0x3
 1731 0073 36       		.byte	0x36
 1732 0074 78000000 		.4byte	0x78
 1733 0078 04       		.uleb128 0x4
 1734 0079 02       		.byte	0x2
 1735 007a 07       		.byte	0x7
 1736 007b 6F090000 		.4byte	.LASF8
 1737 007f 03       		.uleb128 0x3
 1738 0080 74000000 		.4byte	.LASF9
 1739 0084 03       		.byte	0x3
 1740 0085 4F       		.byte	0x4f
 1741 0086 8A000000 		.4byte	0x8a
 1742 008a 04       		.uleb128 0x4
 1743 008b 04       		.byte	0x4
 1744 008c 05       		.byte	0x5
 1745 008d 40020000 		.4byte	.LASF10
 1746 0091 03       		.uleb128 0x3
 1747 0092 48090000 		.4byte	.LASF11
 1748 0096 03       		.byte	0x3
 1749 0097 50       		.byte	0x50
 1750 0098 9C000000 		.4byte	0x9c
 1751 009c 04       		.uleb128 0x4
 1752 009d 04       		.byte	0x4
 1753 009e 07       		.byte	0x7
 1754 009f 74040000 		.4byte	.LASF12
 1755 00a3 04       		.uleb128 0x4
 1756 00a4 08       		.byte	0x8
 1757 00a5 05       		.byte	0x5
 1758 00a6 30050000 		.4byte	.LASF13
 1759 00aa 04       		.uleb128 0x4
 1760 00ab 08       		.byte	0x8
 1761 00ac 07       		.byte	0x7
 1762 00ad 49070000 		.4byte	.LASF14
 1763 00b1 03       		.uleb128 0x3
 1764 00b2 F2080000 		.4byte	.LASF15
 1765 00b6 04       		.byte	0x4
 1766 00b7 24       		.byte	0x24
 1767 00b8 BC000000 		.4byte	0xbc
 1768 00bc 04       		.uleb128 0x4
 1769 00bd 01       		.byte	0x1
 1770 00be 02       		.byte	0x2
 1771 00bf 60030000 		.4byte	.LASF16
 1772 00c3 03       		.uleb128 0x3
 1773 00c4 4A080000 		.4byte	.LASF17
 1774 00c8 04       		.byte	0x4
 1775 00c9 25       		.byte	0x25
 1776 00ca 49000000 		.4byte	0x49
 1777 00ce 03       		.uleb128 0x3
 1778 00cf 6C020000 		.4byte	.LASF18
 1779 00d3 04       		.byte	0x4
 1780 00d4 26       		.byte	0x26
 1781 00d5 49000000 		.4byte	0x49
 1782 00d9 03       		.uleb128 0x3
 1783 00da 15090000 		.4byte	.LASF19
ARM GAS  /tmp/ccKcOR50.s 			page 33


 1784 00de 04       		.byte	0x4
 1785 00df 27       		.byte	0x27
 1786 00e0 49000000 		.4byte	0x49
 1787 00e4 03       		.uleb128 0x3
 1788 00e5 8F070000 		.4byte	.LASF20
 1789 00e9 04       		.byte	0x4
 1790 00ea 28       		.byte	0x28
 1791 00eb 49000000 		.4byte	0x49
 1792 00ef 03       		.uleb128 0x3
 1793 00f0 38000000 		.4byte	.LASF21
 1794 00f4 04       		.byte	0x4
 1795 00f5 29       		.byte	0x29
 1796 00f6 91000000 		.4byte	0x91
 1797 00fa 03       		.uleb128 0x3
 1798 00fb 71070000 		.4byte	.LASF22
 1799 00ff 04       		.byte	0x4
 1800 0100 2A       		.byte	0x2a
 1801 0101 7F000000 		.4byte	0x7f
 1802 0105 03       		.uleb128 0x3
 1803 0106 21030000 		.4byte	.LASF23
 1804 010a 04       		.byte	0x4
 1805 010b 2C       		.byte	0x2c
 1806 010c 91000000 		.4byte	0x91
 1807 0110 03       		.uleb128 0x3
 1808 0111 10000000 		.4byte	.LASF24
 1809 0115 04       		.byte	0x4
 1810 0116 2E       		.byte	0x2e
 1811 0117 91000000 		.4byte	0x91
 1812 011b 03       		.uleb128 0x3
 1813 011c EB030000 		.4byte	.LASF25
 1814 0120 04       		.byte	0x4
 1815 0121 2F       		.byte	0x2f
 1816 0122 7F000000 		.4byte	0x7f
 1817 0126 03       		.uleb128 0x3
 1818 0127 03090000 		.4byte	.LASF26
 1819 012b 05       		.byte	0x5
 1820 012c 23       		.byte	0x23
 1821 012d 31010000 		.4byte	0x131
 1822 0131 05       		.uleb128 0x5
 1823 0132 03090000 		.4byte	.LASF26
 1824 0136 48       		.byte	0x48
 1825 0137 06       		.byte	0x6
 1826 0138 57       		.byte	0x57
 1827 0139 56020000 		.4byte	0x256
 1828 013d 06       		.uleb128 0x6
 1829 013e 49020000 		.4byte	.LASF27
 1830 0142 06       		.byte	0x6
 1831 0143 58       		.byte	0x58
 1832 0144 7B020000 		.4byte	0x27b
 1833 0148 02       		.byte	0x2
 1834 0149 23       		.byte	0x23
 1835 014a 00       		.uleb128 0
 1836 014b 06       		.uleb128 0x6
 1837 014c 50020000 		.4byte	.LASF28
 1838 0150 06       		.byte	0x6
 1839 0151 5A       		.byte	0x5a
 1840 0152 7B020000 		.4byte	0x27b
ARM GAS  /tmp/ccKcOR50.s 			page 34


 1841 0156 02       		.byte	0x2
 1842 0157 23       		.byte	0x23
 1843 0158 04       		.uleb128 0x4
 1844 0159 06       		.uleb128 0x6
 1845 015a 94030000 		.4byte	.LASF29
 1846 015e 06       		.byte	0x6
 1847 015f 5C       		.byte	0x5c
 1848 0160 EF000000 		.4byte	0xef
 1849 0164 02       		.byte	0x2
 1850 0165 23       		.byte	0x23
 1851 0166 08       		.uleb128 0x8
 1852 0167 06       		.uleb128 0x6
 1853 0168 26000000 		.4byte	.LASF30
 1854 016c 06       		.byte	0x6
 1855 016d 5D       		.byte	0x5d
 1856 016e 39040000 		.4byte	0x439
 1857 0172 02       		.byte	0x2
 1858 0173 23       		.byte	0x23
 1859 0174 0C       		.uleb128 0xc
 1860 0175 06       		.uleb128 0x6
 1861 0176 29020000 		.4byte	.LASF31
 1862 017a 06       		.byte	0x6
 1863 017b 5F       		.byte	0x5f
 1864 017c 7B020000 		.4byte	0x27b
 1865 0180 02       		.byte	0x2
 1866 0181 23       		.byte	0x23
 1867 0182 10       		.uleb128 0x10
 1868 0183 06       		.uleb128 0x6
 1869 0184 60070000 		.4byte	.LASF32
 1870 0188 06       		.byte	0x6
 1871 0189 60       		.byte	0x60
 1872 018a 7B020000 		.4byte	0x27b
 1873 018e 02       		.byte	0x2
 1874 018f 23       		.byte	0x23
 1875 0190 14       		.uleb128 0x14
 1876 0191 06       		.uleb128 0x6
 1877 0192 F1090000 		.4byte	.LASF33
 1878 0196 06       		.byte	0x6
 1879 0197 67       		.byte	0x67
 1880 0198 19050000 		.4byte	0x519
 1881 019c 02       		.byte	0x2
 1882 019d 23       		.byte	0x23
 1883 019e 18       		.uleb128 0x18
 1884 019f 06       		.uleb128 0x6
 1885 01a0 4D0A0000 		.4byte	.LASF34
 1886 01a4 06       		.byte	0x6
 1887 01a5 72       		.byte	0x72
 1888 01a6 CE000000 		.4byte	0xce
 1889 01aa 02       		.byte	0x2
 1890 01ab 23       		.byte	0x23
 1891 01ac 1C       		.uleb128 0x1c
 1892 01ad 06       		.uleb128 0x6
 1893 01ae C1050000 		.4byte	.LASF35
 1894 01b2 06       		.byte	0x6
 1895 01b3 76       		.byte	0x76
 1896 01b4 C3000000 		.4byte	0xc3
 1897 01b8 02       		.byte	0x2
ARM GAS  /tmp/ccKcOR50.s 			page 35


 1898 01b9 23       		.byte	0x23
 1899 01ba 1D       		.uleb128 0x1d
 1900 01bb 06       		.uleb128 0x6
 1901 01bc 25060000 		.4byte	.LASF36
 1902 01c0 06       		.byte	0x6
 1903 01c1 7B       		.byte	0x7b
 1904 01c2 D9000000 		.4byte	0xd9
 1905 01c6 02       		.byte	0x2
 1906 01c7 23       		.byte	0x23
 1907 01c8 1E       		.uleb128 0x1e
 1908 01c9 06       		.uleb128 0x6
 1909 01ca 00030000 		.4byte	.LASF37
 1910 01ce 06       		.byte	0x6
 1911 01cf 81       		.byte	0x81
 1912 01d0 E4000000 		.4byte	0xe4
 1913 01d4 02       		.byte	0x2
 1914 01d5 23       		.byte	0x23
 1915 01d6 1F       		.uleb128 0x1f
 1916 01d7 06       		.uleb128 0x6
 1917 01d8 84060000 		.4byte	.LASF38
 1918 01dc 06       		.byte	0x6
 1919 01dd 88       		.byte	0x88
 1920 01de 63040000 		.4byte	0x463
 1921 01e2 02       		.byte	0x2
 1922 01e3 23       		.byte	0x23
 1923 01e4 20       		.uleb128 0x20
 1924 01e5 07       		.uleb128 0x7
 1925 01e6 705F7500 		.ascii	"p_u\000"
 1926 01ea 06       		.byte	0x6
 1927 01eb AD       		.byte	0xad
 1928 01ec E4040000 		.4byte	0x4e4
 1929 01f0 02       		.byte	0x2
 1930 01f1 23       		.byte	0x23
 1931 01f2 24       		.uleb128 0x24
 1932 01f3 06       		.uleb128 0x6
 1933 01f4 B1050000 		.4byte	.LASF39
 1934 01f8 06       		.byte	0x6
 1935 01f9 B2       		.byte	0xb2
 1936 01fa A3020000 		.4byte	0x2a3
 1937 01fe 02       		.byte	0x2
 1938 01ff 23       		.byte	0x23
 1939 0200 28       		.uleb128 0x28
 1940 0201 06       		.uleb128 0x6
 1941 0202 4F000000 		.4byte	.LASF40
 1942 0206 06       		.byte	0x6
 1943 0207 B8       		.byte	0xb8
 1944 0208 81020000 		.4byte	0x281
 1945 020c 02       		.byte	0x2
 1946 020d 23       		.byte	0x23
 1947 020e 2C       		.uleb128 0x2c
 1948 020f 06       		.uleb128 0x6
 1949 0210 2A0A0000 		.4byte	.LASF41
 1950 0214 06       		.byte	0x6
 1951 0215 BC       		.byte	0xbc
 1952 0216 FA000000 		.4byte	0xfa
 1953 021a 02       		.byte	0x2
 1954 021b 23       		.byte	0x23
ARM GAS  /tmp/ccKcOR50.s 			page 36


 1955 021c 34       		.uleb128 0x34
 1956 021d 06       		.uleb128 0x6
 1957 021e 18040000 		.4byte	.LASF42
 1958 0222 06       		.byte	0x6
 1959 0223 C2       		.byte	0xc2
 1960 0224 05010000 		.4byte	0x105
 1961 0228 02       		.byte	0x2
 1962 0229 23       		.byte	0x23
 1963 022a 38       		.uleb128 0x38
 1964 022b 06       		.uleb128 0x6
 1965 022c 80020000 		.4byte	.LASF43
 1966 0230 06       		.byte	0x6
 1967 0231 C9       		.byte	0xc9
 1968 0232 2B050000 		.4byte	0x52b
 1969 0236 02       		.byte	0x2
 1970 0237 23       		.byte	0x23
 1971 0238 3C       		.uleb128 0x3c
 1972 0239 06       		.uleb128 0x6
 1973 023a DF060000 		.4byte	.LASF44
 1974 023e 06       		.byte	0x6
 1975 023f CD       		.byte	0xcd
 1976 0240 EF000000 		.4byte	0xef
 1977 0244 02       		.byte	0x2
 1978 0245 23       		.byte	0x23
 1979 0246 40       		.uleb128 0x40
 1980 0247 06       		.uleb128 0x6
 1981 0248 08060000 		.4byte	.LASF45
 1982 024c 06       		.byte	0x6
 1983 024d D3       		.byte	0xd3
 1984 024e B9020000 		.4byte	0x2b9
 1985 0252 02       		.byte	0x2
 1986 0253 23       		.byte	0x23
 1987 0254 44       		.uleb128 0x44
 1988 0255 00       		.byte	0
 1989 0256 08       		.uleb128 0x8
 1990 0257 08       		.byte	0x8
 1991 0258 05       		.byte	0x5
 1992 0259 5A       		.byte	0x5a
 1993 025a 7B020000 		.4byte	0x27b
 1994 025e 06       		.uleb128 0x6
 1995 025f 49020000 		.4byte	.LASF27
 1996 0263 05       		.byte	0x5
 1997 0264 5B       		.byte	0x5b
 1998 0265 7B020000 		.4byte	0x27b
 1999 0269 02       		.byte	0x2
 2000 026a 23       		.byte	0x23
 2001 026b 00       		.uleb128 0
 2002 026c 06       		.uleb128 0x6
 2003 026d 50020000 		.4byte	.LASF28
 2004 0271 05       		.byte	0x5
 2005 0272 5D       		.byte	0x5d
 2006 0273 7B020000 		.4byte	0x27b
 2007 0277 02       		.byte	0x2
 2008 0278 23       		.byte	0x23
 2009 0279 04       		.uleb128 0x4
 2010 027a 00       		.byte	0
 2011 027b 09       		.uleb128 0x9
ARM GAS  /tmp/ccKcOR50.s 			page 37


 2012 027c 04       		.byte	0x4
 2013 027d 26010000 		.4byte	0x126
 2014 0281 03       		.uleb128 0x3
 2015 0282 5B090000 		.4byte	.LASF46
 2016 0286 05       		.byte	0x5
 2017 0287 5F       		.byte	0x5f
 2018 0288 56020000 		.4byte	0x256
 2019 028c 08       		.uleb128 0x8
 2020 028d 04       		.byte	0x4
 2021 028e 05       		.byte	0x5
 2022 028f 64       		.byte	0x64
 2023 0290 A3020000 		.4byte	0x2a3
 2024 0294 06       		.uleb128 0x6
 2025 0295 49020000 		.4byte	.LASF27
 2026 0299 05       		.byte	0x5
 2027 029a 66       		.byte	0x66
 2028 029b 7B020000 		.4byte	0x27b
 2029 029f 02       		.byte	0x2
 2030 02a0 23       		.byte	0x23
 2031 02a1 00       		.uleb128 0
 2032 02a2 00       		.byte	0
 2033 02a3 03       		.uleb128 0x3
 2034 02a4 46060000 		.4byte	.LASF47
 2035 02a8 05       		.byte	0x5
 2036 02a9 69       		.byte	0x69
 2037 02aa 8C020000 		.4byte	0x28c
 2038 02ae 03       		.uleb128 0x3
 2039 02af 8A020000 		.4byte	.LASF48
 2040 02b3 07       		.byte	0x7
 2041 02b4 DE       		.byte	0xde
 2042 02b5 B9020000 		.4byte	0x2b9
 2043 02b9 0A       		.uleb128 0xa
 2044 02ba 04       		.byte	0x4
 2045 02bb 0B       		.uleb128 0xb
 2046 02bc 11040000 		.4byte	.LASF49
 2047 02c0 64       		.byte	0x64
 2048 02c1 07       		.byte	0x7
 2049 02c2 0501     		.2byte	0x105
 2050 02c4 39040000 		.4byte	0x439
 2051 02c8 0C       		.uleb128 0xc
 2052 02c9 73313600 		.ascii	"s16\000"
 2053 02cd 07       		.byte	0x7
 2054 02ce 0701     		.2byte	0x107
 2055 02d0 AE020000 		.4byte	0x2ae
 2056 02d4 02       		.byte	0x2
 2057 02d5 23       		.byte	0x23
 2058 02d6 00       		.uleb128 0
 2059 02d7 0C       		.uleb128 0xc
 2060 02d8 73313700 		.ascii	"s17\000"
 2061 02dc 07       		.byte	0x7
 2062 02dd 0801     		.2byte	0x108
 2063 02df AE020000 		.4byte	0x2ae
 2064 02e3 02       		.byte	0x2
 2065 02e4 23       		.byte	0x23
 2066 02e5 04       		.uleb128 0x4
 2067 02e6 0C       		.uleb128 0xc
 2068 02e7 73313800 		.ascii	"s18\000"
ARM GAS  /tmp/ccKcOR50.s 			page 38


 2069 02eb 07       		.byte	0x7
 2070 02ec 0901     		.2byte	0x109
 2071 02ee AE020000 		.4byte	0x2ae
 2072 02f2 02       		.byte	0x2
 2073 02f3 23       		.byte	0x23
 2074 02f4 08       		.uleb128 0x8
 2075 02f5 0C       		.uleb128 0xc
 2076 02f6 73313900 		.ascii	"s19\000"
 2077 02fa 07       		.byte	0x7
 2078 02fb 0A01     		.2byte	0x10a
 2079 02fd AE020000 		.4byte	0x2ae
 2080 0301 02       		.byte	0x2
 2081 0302 23       		.byte	0x23
 2082 0303 0C       		.uleb128 0xc
 2083 0304 0C       		.uleb128 0xc
 2084 0305 73323000 		.ascii	"s20\000"
 2085 0309 07       		.byte	0x7
 2086 030a 0B01     		.2byte	0x10b
 2087 030c AE020000 		.4byte	0x2ae
 2088 0310 02       		.byte	0x2
 2089 0311 23       		.byte	0x23
 2090 0312 10       		.uleb128 0x10
 2091 0313 0C       		.uleb128 0xc
 2092 0314 73323100 		.ascii	"s21\000"
 2093 0318 07       		.byte	0x7
 2094 0319 0C01     		.2byte	0x10c
 2095 031b AE020000 		.4byte	0x2ae
 2096 031f 02       		.byte	0x2
 2097 0320 23       		.byte	0x23
 2098 0321 14       		.uleb128 0x14
 2099 0322 0C       		.uleb128 0xc
 2100 0323 73323200 		.ascii	"s22\000"
 2101 0327 07       		.byte	0x7
 2102 0328 0D01     		.2byte	0x10d
 2103 032a AE020000 		.4byte	0x2ae
 2104 032e 02       		.byte	0x2
 2105 032f 23       		.byte	0x23
 2106 0330 18       		.uleb128 0x18
 2107 0331 0C       		.uleb128 0xc
 2108 0332 73323300 		.ascii	"s23\000"
 2109 0336 07       		.byte	0x7
 2110 0337 0E01     		.2byte	0x10e
 2111 0339 AE020000 		.4byte	0x2ae
 2112 033d 02       		.byte	0x2
 2113 033e 23       		.byte	0x23
 2114 033f 1C       		.uleb128 0x1c
 2115 0340 0C       		.uleb128 0xc
 2116 0341 73323400 		.ascii	"s24\000"
 2117 0345 07       		.byte	0x7
 2118 0346 0F01     		.2byte	0x10f
 2119 0348 AE020000 		.4byte	0x2ae
 2120 034c 02       		.byte	0x2
 2121 034d 23       		.byte	0x23
 2122 034e 20       		.uleb128 0x20
 2123 034f 0C       		.uleb128 0xc
 2124 0350 73323500 		.ascii	"s25\000"
 2125 0354 07       		.byte	0x7
ARM GAS  /tmp/ccKcOR50.s 			page 39


 2126 0355 1001     		.2byte	0x110
 2127 0357 AE020000 		.4byte	0x2ae
 2128 035b 02       		.byte	0x2
 2129 035c 23       		.byte	0x23
 2130 035d 24       		.uleb128 0x24
 2131 035e 0C       		.uleb128 0xc
 2132 035f 73323600 		.ascii	"s26\000"
 2133 0363 07       		.byte	0x7
 2134 0364 1101     		.2byte	0x111
 2135 0366 AE020000 		.4byte	0x2ae
 2136 036a 02       		.byte	0x2
 2137 036b 23       		.byte	0x23
 2138 036c 28       		.uleb128 0x28
 2139 036d 0C       		.uleb128 0xc
 2140 036e 73323700 		.ascii	"s27\000"
 2141 0372 07       		.byte	0x7
 2142 0373 1201     		.2byte	0x112
 2143 0375 AE020000 		.4byte	0x2ae
 2144 0379 02       		.byte	0x2
 2145 037a 23       		.byte	0x23
 2146 037b 2C       		.uleb128 0x2c
 2147 037c 0C       		.uleb128 0xc
 2148 037d 73323800 		.ascii	"s28\000"
 2149 0381 07       		.byte	0x7
 2150 0382 1301     		.2byte	0x113
 2151 0384 AE020000 		.4byte	0x2ae
 2152 0388 02       		.byte	0x2
 2153 0389 23       		.byte	0x23
 2154 038a 30       		.uleb128 0x30
 2155 038b 0C       		.uleb128 0xc
 2156 038c 73323900 		.ascii	"s29\000"
 2157 0390 07       		.byte	0x7
 2158 0391 1401     		.2byte	0x114
 2159 0393 AE020000 		.4byte	0x2ae
 2160 0397 02       		.byte	0x2
 2161 0398 23       		.byte	0x23
 2162 0399 34       		.uleb128 0x34
 2163 039a 0C       		.uleb128 0xc
 2164 039b 73333000 		.ascii	"s30\000"
 2165 039f 07       		.byte	0x7
 2166 03a0 1501     		.2byte	0x115
 2167 03a2 AE020000 		.4byte	0x2ae
 2168 03a6 02       		.byte	0x2
 2169 03a7 23       		.byte	0x23
 2170 03a8 38       		.uleb128 0x38
 2171 03a9 0C       		.uleb128 0xc
 2172 03aa 73333100 		.ascii	"s31\000"
 2173 03ae 07       		.byte	0x7
 2174 03af 1601     		.2byte	0x116
 2175 03b1 AE020000 		.4byte	0x2ae
 2176 03b5 02       		.byte	0x2
 2177 03b6 23       		.byte	0x23
 2178 03b7 3C       		.uleb128 0x3c
 2179 03b8 0C       		.uleb128 0xc
 2180 03b9 723400   		.ascii	"r4\000"
 2181 03bc 07       		.byte	0x7
 2182 03bd 1801     		.2byte	0x118
ARM GAS  /tmp/ccKcOR50.s 			page 40


 2183 03bf AE020000 		.4byte	0x2ae
 2184 03c3 02       		.byte	0x2
 2185 03c4 23       		.byte	0x23
 2186 03c5 40       		.uleb128 0x40
 2187 03c6 0C       		.uleb128 0xc
 2188 03c7 723500   		.ascii	"r5\000"
 2189 03ca 07       		.byte	0x7
 2190 03cb 1901     		.2byte	0x119
 2191 03cd AE020000 		.4byte	0x2ae
 2192 03d1 02       		.byte	0x2
 2193 03d2 23       		.byte	0x23
 2194 03d3 44       		.uleb128 0x44
 2195 03d4 0C       		.uleb128 0xc
 2196 03d5 723600   		.ascii	"r6\000"
 2197 03d8 07       		.byte	0x7
 2198 03d9 1A01     		.2byte	0x11a
 2199 03db AE020000 		.4byte	0x2ae
 2200 03df 02       		.byte	0x2
 2201 03e0 23       		.byte	0x23
 2202 03e1 48       		.uleb128 0x48
 2203 03e2 0C       		.uleb128 0xc
 2204 03e3 723700   		.ascii	"r7\000"
 2205 03e6 07       		.byte	0x7
 2206 03e7 1B01     		.2byte	0x11b
 2207 03e9 AE020000 		.4byte	0x2ae
 2208 03ed 02       		.byte	0x2
 2209 03ee 23       		.byte	0x23
 2210 03ef 4C       		.uleb128 0x4c
 2211 03f0 0C       		.uleb128 0xc
 2212 03f1 723800   		.ascii	"r8\000"
 2213 03f4 07       		.byte	0x7
 2214 03f5 1C01     		.2byte	0x11c
 2215 03f7 AE020000 		.4byte	0x2ae
 2216 03fb 02       		.byte	0x2
 2217 03fc 23       		.byte	0x23
 2218 03fd 50       		.uleb128 0x50
 2219 03fe 0C       		.uleb128 0xc
 2220 03ff 723900   		.ascii	"r9\000"
 2221 0402 07       		.byte	0x7
 2222 0403 1D01     		.2byte	0x11d
 2223 0405 AE020000 		.4byte	0x2ae
 2224 0409 02       		.byte	0x2
 2225 040a 23       		.byte	0x23
 2226 040b 54       		.uleb128 0x54
 2227 040c 0C       		.uleb128 0xc
 2228 040d 72313000 		.ascii	"r10\000"
 2229 0411 07       		.byte	0x7
 2230 0412 1E01     		.2byte	0x11e
 2231 0414 AE020000 		.4byte	0x2ae
 2232 0418 02       		.byte	0x2
 2233 0419 23       		.byte	0x23
 2234 041a 58       		.uleb128 0x58
 2235 041b 0C       		.uleb128 0xc
 2236 041c 72313100 		.ascii	"r11\000"
 2237 0420 07       		.byte	0x7
 2238 0421 1F01     		.2byte	0x11f
 2239 0423 AE020000 		.4byte	0x2ae
ARM GAS  /tmp/ccKcOR50.s 			page 41


 2240 0427 02       		.byte	0x2
 2241 0428 23       		.byte	0x23
 2242 0429 5C       		.uleb128 0x5c
 2243 042a 0C       		.uleb128 0xc
 2244 042b 6C7200   		.ascii	"lr\000"
 2245 042e 07       		.byte	0x7
 2246 042f 2001     		.2byte	0x120
 2247 0431 AE020000 		.4byte	0x2ae
 2248 0435 02       		.byte	0x2
 2249 0436 23       		.byte	0x23
 2250 0437 60       		.uleb128 0x60
 2251 0438 00       		.byte	0
 2252 0439 0B       		.uleb128 0xb
 2253 043a 2D030000 		.4byte	.LASF50
 2254 043e 04       		.byte	0x4
 2255 043f 07       		.byte	0x7
 2256 0440 2A01     		.2byte	0x12a
 2257 0442 56040000 		.4byte	0x456
 2258 0446 0C       		.uleb128 0xc
 2259 0447 72313300 		.ascii	"r13\000"
 2260 044b 07       		.byte	0x7
 2261 044c 2B01     		.2byte	0x12b
 2262 044e 56040000 		.4byte	0x456
 2263 0452 02       		.byte	0x2
 2264 0453 23       		.byte	0x23
 2265 0454 00       		.uleb128 0
 2266 0455 00       		.byte	0
 2267 0456 09       		.uleb128 0x9
 2268 0457 04       		.byte	0x4
 2269 0458 BB020000 		.4byte	0x2bb
 2270 045c 04       		.uleb128 0x4
 2271 045d 04       		.byte	0x4
 2272 045e 07       		.byte	0x7
 2273 045f 07000000 		.4byte	.LASF51
 2274 0463 0D       		.uleb128 0xd
 2275 0464 10010000 		.4byte	0x110
 2276 0468 05       		.uleb128 0x5
 2277 0469 C8060000 		.4byte	.LASF52
 2278 046d 0C       		.byte	0xc
 2279 046e 08       		.byte	0x8
 2280 046f 25       		.byte	0x25
 2281 0470 91040000 		.4byte	0x491
 2282 0474 06       		.uleb128 0x6
 2283 0475 87080000 		.4byte	.LASF53
 2284 0479 08       		.byte	0x8
 2285 047a 26       		.byte	0x26
 2286 047b 81020000 		.4byte	0x281
 2287 047f 02       		.byte	0x2
 2288 0480 23       		.byte	0x23
 2289 0481 00       		.uleb128 0
 2290 0482 06       		.uleb128 0x6
 2291 0483 38070000 		.4byte	.LASF54
 2292 0487 08       		.byte	0x8
 2293 0488 28       		.byte	0x28
 2294 0489 1B010000 		.4byte	0x11b
 2295 048d 02       		.byte	0x2
 2296 048e 23       		.byte	0x23
ARM GAS  /tmp/ccKcOR50.s 			page 42


 2297 048f 08       		.uleb128 0x8
 2298 0490 00       		.byte	0
 2299 0491 03       		.uleb128 0x3
 2300 0492 C8060000 		.4byte	.LASF52
 2301 0496 08       		.byte	0x8
 2302 0497 29       		.byte	0x29
 2303 0498 68040000 		.4byte	0x468
 2304 049c 05       		.uleb128 0x5
 2305 049d 1C050000 		.4byte	.LASF55
 2306 04a1 10       		.byte	0x10
 2307 04a2 09       		.byte	0x9
 2308 04a3 25       		.byte	0x25
 2309 04a4 D3040000 		.4byte	0x4d3
 2310 04a8 06       		.uleb128 0x6
 2311 04a9 44050000 		.4byte	.LASF56
 2312 04ad 09       		.byte	0x9
 2313 04ae 26       		.byte	0x26
 2314 04af 81020000 		.4byte	0x281
 2315 04b3 02       		.byte	0x2
 2316 04b4 23       		.byte	0x23
 2317 04b5 00       		.uleb128 0
 2318 04b6 06       		.uleb128 0x6
 2319 04b7 D4010000 		.4byte	.LASF57
 2320 04bb 09       		.byte	0x9
 2321 04bc 28       		.byte	0x28
 2322 04bd 7B020000 		.4byte	0x27b
 2323 04c1 02       		.byte	0x2
 2324 04c2 23       		.byte	0x23
 2325 04c3 08       		.uleb128 0x8
 2326 04c4 06       		.uleb128 0x6
 2327 04c5 0A0A0000 		.4byte	.LASF58
 2328 04c9 09       		.byte	0x9
 2329 04ca 2A       		.byte	0x2a
 2330 04cb D3040000 		.4byte	0x4d3
 2331 04cf 02       		.byte	0x2
 2332 04d0 23       		.byte	0x23
 2333 04d1 0C       		.uleb128 0xc
 2334 04d2 00       		.byte	0
 2335 04d3 09       		.uleb128 0x9
 2336 04d4 04       		.byte	0x4
 2337 04d5 9C040000 		.4byte	0x49c
 2338 04d9 03       		.uleb128 0x3
 2339 04da 1C050000 		.4byte	.LASF55
 2340 04de 09       		.byte	0x9
 2341 04df 2C       		.byte	0x2c
 2342 04e0 9C040000 		.4byte	0x49c
 2343 04e4 0E       		.uleb128 0xe
 2344 04e5 04       		.byte	0x4
 2345 04e6 06       		.byte	0x6
 2346 04e7 8F       		.byte	0x8f
 2347 04e8 19050000 		.4byte	0x519
 2348 04ec 0F       		.uleb128 0xf
 2349 04ed 68090000 		.4byte	.LASF59
 2350 04f1 06       		.byte	0x6
 2351 04f2 96       		.byte	0x96
 2352 04f3 FA000000 		.4byte	0xfa
 2353 04f7 0F       		.uleb128 0xf
ARM GAS  /tmp/ccKcOR50.s 			page 43


 2354 04f8 DC010000 		.4byte	.LASF60
 2355 04fc 06       		.byte	0x6
 2356 04fd 9D       		.byte	0x9d
 2357 04fe FA000000 		.4byte	0xfa
 2358 0502 0F       		.uleb128 0xf
 2359 0503 AA030000 		.4byte	.LASF61
 2360 0507 06       		.byte	0x6
 2361 0508 A4       		.byte	0xa4
 2362 0509 B9020000 		.4byte	0x2b9
 2363 050d 0F       		.uleb128 0xf
 2364 050e 03020000 		.4byte	.LASF62
 2365 0512 06       		.byte	0x6
 2366 0513 AB       		.byte	0xab
 2367 0514 05010000 		.4byte	0x105
 2368 0518 00       		.byte	0
 2369 0519 09       		.uleb128 0x9
 2370 051a 04       		.byte	0x4
 2371 051b 1F050000 		.4byte	0x51f
 2372 051f 10       		.uleb128 0x10
 2373 0520 24050000 		.4byte	0x524
 2374 0524 04       		.uleb128 0x4
 2375 0525 01       		.byte	0x1
 2376 0526 08       		.byte	0x8
 2377 0527 8F030000 		.4byte	.LASF63
 2378 052b 09       		.uleb128 0x9
 2379 052c 04       		.byte	0x4
 2380 052d D9040000 		.4byte	0x4d9
 2381 0531 0D       		.uleb128 0xd
 2382 0532 7F000000 		.4byte	0x7f
 2383 0536 03       		.uleb128 0x3
 2384 0537 95050000 		.4byte	.LASF64
 2385 053b 0A       		.byte	0xa
 2386 053c 24       		.byte	0x24
 2387 053d 10010000 		.4byte	0x110
 2388 0541 03       		.uleb128 0x3
 2389 0542 86040000 		.4byte	.LASF65
 2390 0546 0A       		.byte	0xa
 2391 0547 26       		.byte	0x26
 2392 0548 1B010000 		.4byte	0x11b
 2393 054c 08       		.uleb128 0x8
 2394 054d 10       		.byte	0x10
 2395 054e 0A       		.byte	0xa
 2396 054f 32       		.byte	0x32
 2397 0550 71050000 		.4byte	0x571
 2398 0554 07       		.uleb128 0x7
 2399 0555 73656D00 		.ascii	"sem\000"
 2400 0559 0A       		.byte	0xa
 2401 055a 33       		.byte	0x33
 2402 055b 91040000 		.4byte	0x491
 2403 055f 02       		.byte	0x2
 2404 0560 23       		.byte	0x23
 2405 0561 00       		.uleb128 0
 2406 0562 06       		.uleb128 0x6
 2407 0563 DE030000 		.4byte	.LASF66
 2408 0567 0A       		.byte	0xa
 2409 0568 34       		.byte	0x34
 2410 0569 41050000 		.4byte	0x541
ARM GAS  /tmp/ccKcOR50.s 			page 44


 2411 056d 02       		.byte	0x2
 2412 056e 23       		.byte	0x23
 2413 056f 0C       		.uleb128 0xc
 2414 0570 00       		.byte	0
 2415 0571 03       		.uleb128 0x3
 2416 0572 88030000 		.4byte	.LASF67
 2417 0576 0A       		.byte	0xa
 2418 0577 35       		.byte	0x35
 2419 0578 4C050000 		.4byte	0x54c
 2420 057c 05       		.uleb128 0x5
 2421 057d CB090000 		.4byte	.LASF68
 2422 0581 04       		.byte	0x4
 2423 0582 0B       		.byte	0xb
 2424 0583 3A       		.byte	0x3a
 2425 0584 97050000 		.4byte	0x597
 2426 0588 06       		.uleb128 0x6
 2427 0589 F8090000 		.4byte	.LASF69
 2428 058d 0B       		.byte	0xb
 2429 058e 3B       		.byte	0x3b
 2430 058f 97050000 		.4byte	0x597
 2431 0593 02       		.byte	0x2
 2432 0594 23       		.byte	0x23
 2433 0595 00       		.uleb128 0
 2434 0596 00       		.byte	0
 2435 0597 09       		.uleb128 0x9
 2436 0598 04       		.byte	0x4
 2437 0599 7C050000 		.4byte	0x57c
 2438 059d 03       		.uleb128 0x3
 2439 059e CB090000 		.4byte	.LASF68
 2440 05a2 0B       		.byte	0xb
 2441 05a3 3C       		.byte	0x3c
 2442 05a4 7C050000 		.4byte	0x57c
 2443 05a8 03       		.uleb128 0x3
 2444 05a9 3E070000 		.4byte	.LASF70
 2445 05ad 0C       		.byte	0xc
 2446 05ae 21       		.byte	0x21
 2447 05af 6D000000 		.4byte	0x6d
 2448 05b3 11       		.uleb128 0x11
 2449 05b4 66030000 		.4byte	.LASF229
 2450 05b8 20       		.byte	0x20
 2451 05b9 0C       		.byte	0xc
 2452 05ba 31       		.byte	0x31
 2453 05bb D6050000 		.4byte	0x5d6
 2454 05bf 0F       		.uleb128 0xf
 2455 05c0 58010000 		.4byte	.LASF71
 2456 05c4 0C       		.byte	0xc
 2457 05c5 32       		.byte	0x32
 2458 05c6 A8050000 		.4byte	0x5a8
 2459 05ca 12       		.uleb128 0x12
 2460 05cb 70616400 		.ascii	"pad\000"
 2461 05cf 0C       		.byte	0xc
 2462 05d0 33       		.byte	0x33
 2463 05d1 D6050000 		.4byte	0x5d6
 2464 05d5 00       		.byte	0
 2465 05d6 13       		.uleb128 0x13
 2466 05d7 24050000 		.4byte	0x524
 2467 05db E6050000 		.4byte	0x5e6
ARM GAS  /tmp/ccKcOR50.s 			page 45


 2468 05df 14       		.uleb128 0x14
 2469 05e0 5C040000 		.4byte	0x45c
 2470 05e4 1F       		.byte	0x1f
 2471 05e5 00       		.byte	0
 2472 05e6 03       		.uleb128 0x3
 2473 05e7 E3040000 		.4byte	.LASF72
 2474 05eb 0C       		.byte	0xc
 2475 05ec 34       		.byte	0x34
 2476 05ed B3050000 		.4byte	0x5b3
 2477 05f1 03       		.uleb128 0x3
 2478 05f2 47040000 		.4byte	.LASF73
 2479 05f6 0C       		.byte	0xc
 2480 05f7 37       		.byte	0x37
 2481 05f8 FC050000 		.4byte	0x5fc
 2482 05fc 09       		.uleb128 0x9
 2483 05fd 04       		.byte	0x4
 2484 05fe 02060000 		.4byte	0x602
 2485 0602 15       		.uleb128 0x15
 2486 0603 01       		.byte	0x1
 2487 0604 13060000 		.4byte	0x613
 2488 0608 16       		.uleb128 0x16
 2489 0609 B9020000 		.4byte	0x2b9
 2490 060d 16       		.uleb128 0x16
 2491 060e 13060000 		.4byte	0x613
 2492 0612 00       		.byte	0
 2493 0613 09       		.uleb128 0x9
 2494 0614 04       		.byte	0x4
 2495 0615 E6050000 		.4byte	0x5e6
 2496 0619 05       		.uleb128 0x5
 2497 061a F9080000 		.4byte	.LASF74
 2498 061e 48       		.byte	0x48
 2499 061f 0C       		.byte	0xc
 2500 0620 3A       		.byte	0x3a
 2501 0621 6C060000 		.4byte	0x66c
 2502 0625 06       		.uleb128 0x6
 2503 0626 2E070000 		.4byte	.LASF75
 2504 062a 0C       		.byte	0xc
 2505 062b 3B       		.byte	0x3b
 2506 062c 71050000 		.4byte	0x571
 2507 0630 02       		.byte	0x2
 2508 0631 23       		.byte	0x23
 2509 0632 00       		.uleb128 0
 2510 0633 06       		.uleb128 0x6
 2511 0634 3C060000 		.4byte	.LASF76
 2512 0638 0C       		.byte	0xc
 2513 0639 3C       		.byte	0x3c
 2514 063a 71050000 		.4byte	0x571
 2515 063e 02       		.byte	0x2
 2516 063f 23       		.byte	0x23
 2517 0640 10       		.uleb128 0x10
 2518 0641 06       		.uleb128 0x6
 2519 0642 B0010000 		.4byte	.LASF77
 2520 0646 0C       		.byte	0xc
 2521 0647 3D       		.byte	0x3d
 2522 0648 F1050000 		.4byte	0x5f1
 2523 064c 02       		.byte	0x2
 2524 064d 23       		.byte	0x23
ARM GAS  /tmp/ccKcOR50.s 			page 46


 2525 064e 20       		.uleb128 0x20
 2526 064f 06       		.uleb128 0x6
 2527 0650 BF040000 		.4byte	.LASF78
 2528 0654 0C       		.byte	0xc
 2529 0655 3E       		.byte	0x3e
 2530 0656 B9020000 		.4byte	0x2b9
 2531 065a 02       		.byte	0x2
 2532 065b 23       		.byte	0x23
 2533 065c 24       		.uleb128 0x24
 2534 065d 06       		.uleb128 0x6
 2535 065e BB050000 		.4byte	.LASF79
 2536 0662 0C       		.byte	0xc
 2537 0663 3F       		.byte	0x3f
 2538 0664 E6050000 		.4byte	0x5e6
 2539 0668 02       		.byte	0x2
 2540 0669 23       		.byte	0x23
 2541 066a 28       		.uleb128 0x28
 2542 066b 00       		.byte	0
 2543 066c 03       		.uleb128 0x3
 2544 066d F9080000 		.4byte	.LASF74
 2545 0671 0C       		.byte	0xc
 2546 0672 40       		.byte	0x40
 2547 0673 19060000 		.4byte	0x619
 2548 0677 09       		.uleb128 0x9
 2549 0678 04       		.byte	0x4
 2550 0679 6C060000 		.4byte	0x66c
 2551 067d 03       		.uleb128 0x3
 2552 067e 47000000 		.4byte	.LASF80
 2553 0682 0D       		.byte	0xd
 2554 0683 23       		.byte	0x23
 2555 0684 5B000000 		.4byte	0x5b
 2556 0688 03       		.uleb128 0x3
 2557 0689 12080000 		.4byte	.LASF81
 2558 068d 0D       		.byte	0xd
 2559 068e 42       		.byte	0x42
 2560 068f 93060000 		.4byte	0x693
 2561 0693 09       		.uleb128 0x9
 2562 0694 04       		.byte	0x4
 2563 0695 99060000 		.4byte	0x699
 2564 0699 10       		.uleb128 0x10
 2565 069a 9E060000 		.4byte	0x69e
 2566 069e 17       		.uleb128 0x17
 2567 069f 96060000 		.4byte	.LASF123
 2568 06a3 01       		.byte	0x1
 2569 06a4 18       		.uleb128 0x18
 2570 06a5 B6080000 		.4byte	.LASF87
 2571 06a9 01       		.byte	0x1
 2572 06aa 0D       		.byte	0xd
 2573 06ab 46       		.byte	0x46
 2574 06ac C9060000 		.4byte	0x6c9
 2575 06b0 19       		.uleb128 0x19
 2576 06b1 9B030000 		.4byte	.LASF82
 2577 06b5 00       		.sleb128 0
 2578 06b6 19       		.uleb128 0x19
 2579 06b7 82090000 		.4byte	.LASF83
 2580 06bb 01       		.sleb128 1
 2581 06bc 19       		.uleb128 0x19
ARM GAS  /tmp/ccKcOR50.s 			page 47


 2582 06bd 52060000 		.4byte	.LASF84
 2583 06c1 02       		.sleb128 2
 2584 06c2 19       		.uleb128 0x19
 2585 06c3 39080000 		.4byte	.LASF85
 2586 06c7 03       		.sleb128 3
 2587 06c8 00       		.byte	0
 2588 06c9 03       		.uleb128 0x3
 2589 06ca DD090000 		.4byte	.LASF86
 2590 06ce 0D       		.byte	0xd
 2591 06cf 46       		.byte	0x46
 2592 06d0 A4060000 		.4byte	0x6a4
 2593 06d4 18       		.uleb128 0x18
 2594 06d5 B9010000 		.4byte	.LASF88
 2595 06d9 01       		.byte	0x1
 2596 06da 0D       		.byte	0xd
 2597 06db 4A       		.byte	0x4a
 2598 06dc F9060000 		.4byte	0x6f9
 2599 06e0 19       		.uleb128 0x19
 2600 06e1 D2040000 		.4byte	.LASF89
 2601 06e5 00       		.sleb128 0
 2602 06e6 19       		.uleb128 0x19
 2603 06e7 1D090000 		.4byte	.LASF90
 2604 06eb 01       		.sleb128 1
 2605 06ec 19       		.uleb128 0x19
 2606 06ed B9060000 		.4byte	.LASF91
 2607 06f1 02       		.sleb128 2
 2608 06f2 19       		.uleb128 0x19
 2609 06f3 14050000 		.4byte	.LASF92
 2610 06f7 03       		.sleb128 3
 2611 06f8 00       		.byte	0
 2612 06f9 03       		.uleb128 0x3
 2613 06fa B9090000 		.4byte	.LASF93
 2614 06fe 0D       		.byte	0xd
 2615 06ff 4A       		.byte	0x4a
 2616 0700 D4060000 		.4byte	0x6d4
 2617 0704 05       		.uleb128 0x5
 2618 0705 B1040000 		.4byte	.LASF94
 2619 0709 10       		.byte	0x10
 2620 070a 0D       		.byte	0xd
 2621 070b 51       		.byte	0x51
 2622 070c 9D070000 		.4byte	0x79d
 2623 0710 06       		.uleb128 0x6
 2624 0711 0F020000 		.4byte	.LASF95
 2625 0715 0D       		.byte	0xd
 2626 0716 52       		.byte	0x52
 2627 0717 7D060000 		.4byte	0x67d
 2628 071b 02       		.byte	0x2
 2629 071c 23       		.byte	0x23
 2630 071d 00       		.uleb128 0
 2631 071e 06       		.uleb128 0x6
 2632 071f B6000000 		.4byte	.LASF96
 2633 0723 0D       		.byte	0xd
 2634 0724 53       		.byte	0x53
 2635 0725 7D060000 		.4byte	0x67d
 2636 0729 02       		.byte	0x2
 2637 072a 23       		.byte	0x23
 2638 072b 02       		.uleb128 0x2
ARM GAS  /tmp/ccKcOR50.s 			page 48


 2639 072c 06       		.uleb128 0x6
 2640 072d 54030000 		.4byte	.LASF97
 2641 0731 0D       		.byte	0xd
 2642 0732 54       		.byte	0x54
 2643 0733 C9060000 		.4byte	0x6c9
 2644 0737 02       		.byte	0x2
 2645 0738 23       		.byte	0x23
 2646 0739 04       		.uleb128 0x4
 2647 073a 06       		.uleb128 0x6
 2648 073b 6A000000 		.4byte	.LASF98
 2649 073f 0D       		.byte	0xd
 2650 0740 55       		.byte	0x55
 2651 0741 F9060000 		.4byte	0x6f9
 2652 0745 02       		.byte	0x2
 2653 0746 23       		.byte	0x23
 2654 0747 05       		.uleb128 0x5
 2655 0748 06       		.uleb128 0x6
 2656 0749 DA080000 		.4byte	.LASF99
 2657 074d 0D       		.byte	0xd
 2658 074e 56       		.byte	0x56
 2659 074f 49000000 		.4byte	0x49
 2660 0753 02       		.byte	0x2
 2661 0754 23       		.byte	0x23
 2662 0755 06       		.uleb128 0x6
 2663 0756 06       		.uleb128 0x6
 2664 0757 36040000 		.4byte	.LASF100
 2665 075b 0D       		.byte	0xd
 2666 075c 57       		.byte	0x57
 2667 075d 49000000 		.4byte	0x49
 2668 0761 02       		.byte	0x2
 2669 0762 23       		.byte	0x23
 2670 0763 07       		.uleb128 0x7
 2671 0764 06       		.uleb128 0x6
 2672 0765 22050000 		.4byte	.LASF101
 2673 0769 0D       		.byte	0xd
 2674 076a 59       		.byte	0x59
 2675 076b 7D060000 		.4byte	0x67d
 2676 076f 02       		.byte	0x2
 2677 0770 23       		.byte	0x23
 2678 0771 08       		.uleb128 0x8
 2679 0772 06       		.uleb128 0x6
 2680 0773 6F050000 		.4byte	.LASF102
 2681 0777 0D       		.byte	0xd
 2682 0778 59       		.byte	0x59
 2683 0779 7D060000 		.4byte	0x67d
 2684 077d 02       		.byte	0x2
 2685 077e 23       		.byte	0x23
 2686 077f 0A       		.uleb128 0xa
 2687 0780 06       		.uleb128 0x6
 2688 0781 29050000 		.4byte	.LASF103
 2689 0785 0D       		.byte	0xd
 2690 0786 5A       		.byte	0x5a
 2691 0787 7D060000 		.4byte	0x67d
 2692 078b 02       		.byte	0x2
 2693 078c 23       		.byte	0x23
 2694 078d 0C       		.uleb128 0xc
 2695 078e 06       		.uleb128 0x6
ARM GAS  /tmp/ccKcOR50.s 			page 49


 2696 078f 76050000 		.4byte	.LASF104
 2697 0793 0D       		.byte	0xd
 2698 0794 5A       		.byte	0x5a
 2699 0795 7D060000 		.4byte	0x67d
 2700 0799 02       		.byte	0x2
 2701 079a 23       		.byte	0x23
 2702 079b 0E       		.uleb128 0xe
 2703 079c 00       		.byte	0
 2704 079d 03       		.uleb128 0x3
 2705 079e 83070000 		.4byte	.LASF105
 2706 07a2 0D       		.byte	0xd
 2707 07a3 5C       		.byte	0x5c
 2708 07a4 04070000 		.4byte	0x704
 2709 07a8 03       		.uleb128 0x3
 2710 07a9 70080000 		.4byte	.LASF106
 2711 07ad 0D       		.byte	0xd
 2712 07ae DB       		.byte	0xdb
 2713 07af 6D000000 		.4byte	0x6d
 2714 07b3 03       		.uleb128 0x3
 2715 07b4 F1030000 		.4byte	.LASF107
 2716 07b8 0E       		.byte	0xe
 2717 07b9 18       		.byte	0x18
 2718 07ba 6D000000 		.4byte	0x6d
 2719 07be 03       		.uleb128 0x3
 2720 07bf A1050000 		.4byte	.LASF108
 2721 07c3 0E       		.byte	0xe
 2722 07c4 2F       		.byte	0x2f
 2723 07c5 6D000000 		.4byte	0x6d
 2724 07c9 03       		.uleb128 0x3
 2725 07ca A8020000 		.4byte	.LASF109
 2726 07ce 0E       		.byte	0xe
 2727 07cf 3D       		.byte	0x3d
 2728 07d0 D4070000 		.4byte	0x7d4
 2729 07d4 09       		.uleb128 0x9
 2730 07d5 04       		.byte	0x4
 2731 07d6 DA070000 		.4byte	0x7da
 2732 07da 15       		.uleb128 0x15
 2733 07db 01       		.byte	0x1
 2734 07dc E6070000 		.4byte	0x7e6
 2735 07e0 16       		.uleb128 0x16
 2736 07e1 E6070000 		.4byte	0x7e6
 2737 07e5 00       		.byte	0
 2738 07e6 09       		.uleb128 0x9
 2739 07e7 04       		.byte	0x4
 2740 07e8 EC070000 		.4byte	0x7ec
 2741 07ec 05       		.uleb128 0x5
 2742 07ed 07050000 		.4byte	.LASF110
 2743 07f1 0C       		.byte	0xc
 2744 07f2 0E       		.byte	0xe
 2745 07f3 5C       		.byte	0x5c
 2746 07f4 22080000 		.4byte	0x822
 2747 07f8 07       		.uleb128 0x7
 2748 07f9 666400   		.ascii	"fd\000"
 2749 07fc 0E       		.byte	0xe
 2750 07fd 5D       		.byte	0x5d
 2751 07fe B1080000 		.4byte	0x8b1
 2752 0802 02       		.byte	0x2
ARM GAS  /tmp/ccKcOR50.s 			page 50


 2753 0803 23       		.byte	0x23
 2754 0804 00       		.uleb128 0
 2755 0805 07       		.uleb128 0x7
 2756 0806 706F7300 		.ascii	"pos\000"
 2757 080a 0E       		.byte	0xe
 2758 080b 5E       		.byte	0x5e
 2759 080c 30000000 		.4byte	0x30
 2760 0810 02       		.byte	0x2
 2761 0811 23       		.byte	0x23
 2762 0812 04       		.uleb128 0x4
 2763 0813 07       		.uleb128 0x7
 2764 0814 666E7300 		.ascii	"fns\000"
 2765 0818 0E       		.byte	0xe
 2766 0819 5F       		.byte	0x5f
 2767 081a B8080000 		.4byte	0x8b8
 2768 081e 02       		.byte	0x2
 2769 081f 23       		.byte	0x23
 2770 0820 08       		.uleb128 0x8
 2771 0821 00       		.byte	0
 2772 0822 03       		.uleb128 0x3
 2773 0823 A7070000 		.4byte	.LASF111
 2774 0827 0E       		.byte	0xe
 2775 0828 48       		.byte	0x48
 2776 0829 2D080000 		.4byte	0x82d
 2777 082d 09       		.uleb128 0x9
 2778 082e 04       		.byte	0x4
 2779 082f 33080000 		.4byte	0x833
 2780 0833 1A       		.uleb128 0x1a
 2781 0834 01       		.byte	0x1
 2782 0835 30000000 		.4byte	0x30
 2783 0839 4D080000 		.4byte	0x84d
 2784 083d 16       		.uleb128 0x16
 2785 083e E6070000 		.4byte	0x7e6
 2786 0842 16       		.uleb128 0x16
 2787 0843 B9020000 		.4byte	0x2b9
 2788 0847 16       		.uleb128 0x16
 2789 0848 30000000 		.4byte	0x30
 2790 084c 00       		.byte	0
 2791 084d 03       		.uleb128 0x3
 2792 084e 45010000 		.4byte	.LASF112
 2793 0852 0E       		.byte	0xe
 2794 0853 51       		.byte	0x51
 2795 0854 58080000 		.4byte	0x858
 2796 0858 09       		.uleb128 0x9
 2797 0859 04       		.byte	0x4
 2798 085a 5E080000 		.4byte	0x85e
 2799 085e 15       		.uleb128 0x15
 2800 085f 01       		.byte	0x1
 2801 0860 6F080000 		.4byte	0x86f
 2802 0864 16       		.uleb128 0x16
 2803 0865 E6070000 		.4byte	0x7e6
 2804 0869 16       		.uleb128 0x16
 2805 086a 30000000 		.4byte	0x30
 2806 086e 00       		.byte	0
 2807 086f 05       		.uleb128 0x5
 2808 0870 370A0000 		.4byte	.LASF113
 2809 0874 0C       		.byte	0xc
ARM GAS  /tmp/ccKcOR50.s 			page 51


 2810 0875 0E       		.byte	0xe
 2811 0876 53       		.byte	0x53
 2812 0877 A6080000 		.4byte	0x8a6
 2813 087b 06       		.uleb128 0x6
 2814 087c D7050000 		.4byte	.LASF114
 2815 0880 0E       		.byte	0xe
 2816 0881 54       		.byte	0x54
 2817 0882 22080000 		.4byte	0x822
 2818 0886 02       		.byte	0x2
 2819 0887 23       		.byte	0x23
 2820 0888 00       		.uleb128 0
 2821 0889 06       		.uleb128 0x6
 2822 088a EF020000 		.4byte	.LASF115
 2823 088e 0E       		.byte	0xe
 2824 088f 55       		.byte	0x55
 2825 0890 4D080000 		.4byte	0x84d
 2826 0894 02       		.byte	0x2
 2827 0895 23       		.byte	0x23
 2828 0896 04       		.uleb128 0x4
 2829 0897 06       		.uleb128 0x6
 2830 0898 110A0000 		.4byte	.LASF116
 2831 089c 0E       		.byte	0xe
 2832 089d 56       		.byte	0x56
 2833 089e C9070000 		.4byte	0x7c9
 2834 08a2 02       		.byte	0x2
 2835 08a3 23       		.byte	0x23
 2836 08a4 08       		.uleb128 0x8
 2837 08a5 00       		.byte	0
 2838 08a6 03       		.uleb128 0x3
 2839 08a7 370A0000 		.4byte	.LASF113
 2840 08ab 0E       		.byte	0xe
 2841 08ac 57       		.byte	0x57
 2842 08ad 6F080000 		.4byte	0x86f
 2843 08b1 09       		.uleb128 0x9
 2844 08b2 04       		.byte	0x4
 2845 08b3 B7080000 		.4byte	0x8b7
 2846 08b7 1B       		.uleb128 0x1b
 2847 08b8 09       		.uleb128 0x9
 2848 08b9 04       		.byte	0x4
 2849 08ba BE080000 		.4byte	0x8be
 2850 08be 10       		.uleb128 0x10
 2851 08bf A6080000 		.4byte	0x8a6
 2852 08c3 03       		.uleb128 0x3
 2853 08c4 07050000 		.4byte	.LASF110
 2854 08c8 0E       		.byte	0xe
 2855 08c9 60       		.byte	0x60
 2856 08ca EC070000 		.4byte	0x7ec
 2857 08ce 05       		.uleb128 0x5
 2858 08cf 8B060000 		.4byte	.LASF117
 2859 08d3 20       		.byte	0x20
 2860 08d4 0E       		.byte	0xe
 2861 08d5 65       		.byte	0x65
 2862 08d6 4A090000 		.4byte	0x94a
 2863 08da 06       		.uleb128 0x6
 2864 08db 58010000 		.4byte	.LASF71
 2865 08df 0E       		.byte	0xe
 2866 08e0 66       		.byte	0x66
ARM GAS  /tmp/ccKcOR50.s 			page 52


 2867 08e1 B3070000 		.4byte	0x7b3
 2868 08e5 02       		.byte	0x2
 2869 08e6 23       		.byte	0x23
 2870 08e7 00       		.uleb128 0
 2871 08e8 06       		.uleb128 0x6
 2872 08e9 82030000 		.4byte	.LASF118
 2873 08ed 0E       		.byte	0xe
 2874 08ee 67       		.byte	0x67
 2875 08ef BE070000 		.4byte	0x7be
 2876 08f3 02       		.byte	0x2
 2877 08f4 23       		.byte	0x23
 2878 08f5 02       		.uleb128 0x2
 2879 08f6 06       		.uleb128 0x6
 2880 08f7 00060000 		.4byte	.LASF119
 2881 08fb 0E       		.byte	0xe
 2882 08fc 68       		.byte	0x68
 2883 08fd A8070000 		.4byte	0x7a8
 2884 0901 02       		.byte	0x2
 2885 0902 23       		.byte	0x23
 2886 0903 04       		.uleb128 0x4
 2887 0904 06       		.uleb128 0x6
 2888 0905 3E050000 		.4byte	.LASF120
 2889 0909 0E       		.byte	0xe
 2890 090a 69       		.byte	0x69
 2891 090b 7D060000 		.4byte	0x67d
 2892 090f 02       		.byte	0x2
 2893 0910 23       		.byte	0x23
 2894 0911 06       		.uleb128 0x6
 2895 0912 06       		.uleb128 0x6
 2896 0913 300A0000 		.4byte	.LASF121
 2897 0917 0E       		.byte	0xe
 2898 0918 69       		.byte	0x69
 2899 0919 7D060000 		.4byte	0x67d
 2900 091d 02       		.byte	0x2
 2901 091e 23       		.byte	0x23
 2902 091f 08       		.uleb128 0x8
 2903 0920 07       		.uleb128 0x7
 2904 0921 696F00   		.ascii	"io\000"
 2905 0924 0E       		.byte	0xe
 2906 0925 6A       		.byte	0x6a
 2907 0926 C3080000 		.4byte	0x8c3
 2908 092a 02       		.byte	0x2
 2909 092b 23       		.byte	0x23
 2910 092c 0C       		.uleb128 0xc
 2911 092d 07       		.uleb128 0x7
 2912 092e 666E7300 		.ascii	"fns\000"
 2913 0932 0E       		.byte	0xe
 2914 0933 6F       		.byte	0x6f
 2915 0934 50090000 		.4byte	0x950
 2916 0938 02       		.byte	0x2
 2917 0939 23       		.byte	0x23
 2918 093a 18       		.uleb128 0x18
 2919 093b 06       		.uleb128 0x6
 2920 093c C3010000 		.4byte	.LASF122
 2921 0940 0E       		.byte	0xe
 2922 0941 70       		.byte	0x70
 2923 0942 61090000 		.4byte	0x961
ARM GAS  /tmp/ccKcOR50.s 			page 53


 2924 0946 02       		.byte	0x2
 2925 0947 23       		.byte	0x23
 2926 0948 1C       		.uleb128 0x1c
 2927 0949 00       		.byte	0
 2928 094a 17       		.uleb128 0x17
 2929 094b 8F080000 		.4byte	.LASF124
 2930 094f 01       		.byte	0x1
 2931 0950 09       		.uleb128 0x9
 2932 0951 04       		.byte	0x4
 2933 0952 56090000 		.4byte	0x956
 2934 0956 10       		.uleb128 0x10
 2935 0957 4A090000 		.4byte	0x94a
 2936 095b 17       		.uleb128 0x17
 2937 095c 33010000 		.4byte	.LASF125
 2938 0960 01       		.byte	0x1
 2939 0961 09       		.uleb128 0x9
 2940 0962 04       		.byte	0x4
 2941 0963 5B090000 		.4byte	0x95b
 2942 0967 03       		.uleb128 0x3
 2943 0968 8B060000 		.4byte	.LASF117
 2944 096c 0E       		.byte	0xe
 2945 096d 71       		.byte	0x71
 2946 096e CE080000 		.4byte	0x8ce
 2947 0972 05       		.uleb128 0x5
 2948 0973 63060000 		.4byte	.LASF126
 2949 0977 1C       		.byte	0x1c
 2950 0978 0F       		.byte	0xf
 2951 0979 23       		.byte	0x23
 2952 097a 070A0000 		.4byte	0xa07
 2953 097e 07       		.uleb128 0x7
 2954 097f 776D7100 		.ascii	"wmq\000"
 2955 0983 0F       		.byte	0xf
 2956 0984 26       		.byte	0x26
 2957 0985 9D050000 		.4byte	0x59d
 2958 0989 02       		.byte	0x2
 2959 098a 23       		.byte	0x23
 2960 098b 00       		.uleb128 0
 2961 098c 07       		.uleb128 0x7
 2962 098d 766D7400 		.ascii	"vmt\000"
 2963 0991 0F       		.byte	0xf
 2964 0992 28       		.byte	0x28
 2965 0993 0D0A0000 		.4byte	0xa0d
 2966 0997 02       		.byte	0x2
 2967 0998 23       		.byte	0x23
 2968 0999 04       		.uleb128 0x4
 2969 099a 07       		.uleb128 0x7
 2970 099b 7800     		.ascii	"x\000"
 2971 099d 0F       		.byte	0xf
 2972 099e 29       		.byte	0x29
 2973 099f 7D060000 		.4byte	0x67d
 2974 09a3 02       		.byte	0x2
 2975 09a4 23       		.byte	0x23
 2976 09a5 08       		.uleb128 0x8
 2977 09a6 07       		.uleb128 0x7
 2978 09a7 7900     		.ascii	"y\000"
 2979 09a9 0F       		.byte	0xf
 2980 09aa 29       		.byte	0x29
ARM GAS  /tmp/ccKcOR50.s 			page 54


 2981 09ab 7D060000 		.4byte	0x67d
 2982 09af 02       		.byte	0x2
 2983 09b0 23       		.byte	0x23
 2984 09b1 0A       		.uleb128 0xa
 2985 09b2 06       		.uleb128 0x6
 2986 09b3 3E050000 		.4byte	.LASF120
 2987 09b7 0F       		.byte	0xf
 2988 09b8 2A       		.byte	0x2a
 2989 09b9 7D060000 		.4byte	0x67d
 2990 09bd 02       		.byte	0x2
 2991 09be 23       		.byte	0x23
 2992 09bf 0C       		.uleb128 0xc
 2993 09c0 06       		.uleb128 0x6
 2994 09c1 300A0000 		.4byte	.LASF121
 2995 09c5 0F       		.byte	0xf
 2996 09c6 2A       		.byte	0x2a
 2997 09c7 7D060000 		.4byte	0x67d
 2998 09cb 02       		.byte	0x2
 2999 09cc 23       		.byte	0x23
 3000 09cd 0E       		.uleb128 0xe
 3001 09ce 06       		.uleb128 0x6
 3002 09cf 33080000 		.4byte	.LASF127
 3003 09d3 0F       		.byte	0xf
 3004 09d4 2B       		.byte	0x2b
 3005 09d5 A8070000 		.4byte	0x7a8
 3006 09d9 02       		.byte	0x2
 3007 09da 23       		.byte	0x23
 3008 09db 10       		.uleb128 0x10
 3009 09dc 06       		.uleb128 0x6
 3010 09dd 00060000 		.4byte	.LASF119
 3011 09e1 0F       		.byte	0xf
 3012 09e2 2B       		.byte	0x2b
 3013 09e3 A8070000 		.4byte	0x7a8
 3014 09e7 02       		.byte	0x2
 3015 09e8 23       		.byte	0x23
 3016 09e9 12       		.uleb128 0x12
 3017 09ea 06       		.uleb128 0x6
 3018 09eb 82030000 		.4byte	.LASF118
 3019 09ef 0F       		.byte	0xf
 3020 09f0 2C       		.byte	0x2c
 3021 09f1 6D000000 		.4byte	0x6d
 3022 09f5 02       		.byte	0x2
 3023 09f6 23       		.byte	0x23
 3024 09f7 14       		.uleb128 0x14
 3025 09f8 06       		.uleb128 0x6
 3026 09f9 96060000 		.4byte	.LASF123
 3027 09fd 0F       		.byte	0xf
 3028 09fe 2E       		.byte	0x2e
 3029 09ff 88060000 		.4byte	0x688
 3030 0a03 02       		.byte	0x2
 3031 0a04 23       		.byte	0x23
 3032 0a05 18       		.uleb128 0x18
 3033 0a06 00       		.byte	0
 3034 0a07 17       		.uleb128 0x17
 3035 0a08 71060000 		.4byte	.LASF128
 3036 0a0c 01       		.byte	0x1
 3037 0a0d 09       		.uleb128 0x9
ARM GAS  /tmp/ccKcOR50.s 			page 55


 3038 0a0e 04       		.byte	0x4
 3039 0a0f 130A0000 		.4byte	0xa13
 3040 0a13 10       		.uleb128 0x10
 3041 0a14 070A0000 		.4byte	0xa07
 3042 0a18 03       		.uleb128 0x3
 3043 0a19 63060000 		.4byte	.LASF126
 3044 0a1d 0F       		.byte	0xf
 3045 0a1e 30       		.byte	0x30
 3046 0a1f 72090000 		.4byte	0x972
 3047 0a23 03       		.uleb128 0x3
 3048 0a24 EA060000 		.4byte	.LASF129
 3049 0a28 0F       		.byte	0xf
 3050 0a29 30       		.byte	0x30
 3051 0a2a 2E0A0000 		.4byte	0xa2e
 3052 0a2e 09       		.uleb128 0x9
 3053 0a2f 04       		.byte	0x4
 3054 0a30 72090000 		.4byte	0x972
 3055 0a34 05       		.uleb128 0x5
 3056 0a35 77070000 		.4byte	.LASF130
 3057 0a39 0A       		.byte	0xa
 3058 0a3a 0F       		.byte	0xf
 3059 0a3b 3B       		.byte	0x3b
 3060 0a3c 830A0000 		.4byte	0xa83
 3061 0a40 07       		.uleb128 0x7
 3062 0a41 7800     		.ascii	"x\000"
 3063 0a43 0F       		.byte	0xf
 3064 0a44 3C       		.byte	0x3c
 3065 0a45 7D060000 		.4byte	0x67d
 3066 0a49 02       		.byte	0x2
 3067 0a4a 23       		.byte	0x23
 3068 0a4b 00       		.uleb128 0
 3069 0a4c 07       		.uleb128 0x7
 3070 0a4d 7900     		.ascii	"y\000"
 3071 0a4f 0F       		.byte	0xf
 3072 0a50 3C       		.byte	0x3c
 3073 0a51 7D060000 		.4byte	0x67d
 3074 0a55 02       		.byte	0x2
 3075 0a56 23       		.byte	0x23
 3076 0a57 02       		.uleb128 0x2
 3077 0a58 06       		.uleb128 0x6
 3078 0a59 3E050000 		.4byte	.LASF120
 3079 0a5d 0F       		.byte	0xf
 3080 0a5e 3D       		.byte	0x3d
 3081 0a5f 7D060000 		.4byte	0x67d
 3082 0a63 02       		.byte	0x2
 3083 0a64 23       		.byte	0x23
 3084 0a65 04       		.uleb128 0x4
 3085 0a66 06       		.uleb128 0x6
 3086 0a67 300A0000 		.4byte	.LASF121
 3087 0a6b 0F       		.byte	0xf
 3088 0a6c 3D       		.byte	0x3d
 3089 0a6d 7D060000 		.4byte	0x67d
 3090 0a71 02       		.byte	0x2
 3091 0a72 23       		.byte	0x23
 3092 0a73 06       		.uleb128 0x6
 3093 0a74 06       		.uleb128 0x6
 3094 0a75 0A020000 		.4byte	.LASF131
ARM GAS  /tmp/ccKcOR50.s 			page 56


 3095 0a79 0F       		.byte	0xf
 3096 0a7a 3E       		.byte	0x3e
 3097 0a7b B1000000 		.4byte	0xb1
 3098 0a7f 02       		.byte	0x2
 3099 0a80 23       		.byte	0x23
 3100 0a81 08       		.uleb128 0x8
 3101 0a82 00       		.byte	0
 3102 0a83 03       		.uleb128 0x3
 3103 0a84 77070000 		.4byte	.LASF130
 3104 0a88 0F       		.byte	0xf
 3105 0a89 3F       		.byte	0x3f
 3106 0a8a 340A0000 		.4byte	0xa34
 3107 0a8e 05       		.uleb128 0x5
 3108 0a8f A1000000 		.4byte	.LASF132
 3109 0a93 08       		.byte	0x8
 3110 0a94 10       		.byte	0x10
 3111 0a95 25       		.byte	0x25
 3112 0a96 D30A0000 		.4byte	0xad3
 3113 0a9a 06       		.uleb128 0x6
 3114 0a9b D4030000 		.4byte	.LASF133
 3115 0a9f 10       		.byte	0x10
 3116 0aa0 26       		.byte	0x26
 3117 0aa1 A8070000 		.4byte	0x7a8
 3118 0aa5 02       		.byte	0x2
 3119 0aa6 23       		.byte	0x23
 3120 0aa7 00       		.uleb128 0
 3121 0aa8 06       		.uleb128 0x6
 3122 0aa9 10070000 		.4byte	.LASF134
 3123 0aad 10       		.byte	0x10
 3124 0aae 27       		.byte	0x27
 3125 0aaf A8070000 		.4byte	0x7a8
 3126 0ab3 02       		.byte	0x2
 3127 0ab4 23       		.byte	0x23
 3128 0ab5 02       		.uleb128 0x2
 3129 0ab6 06       		.uleb128 0x6
 3130 0ab7 D9030000 		.4byte	.LASF135
 3131 0abb 10       		.byte	0x10
 3132 0abc 28       		.byte	0x28
 3133 0abd A8070000 		.4byte	0x7a8
 3134 0ac1 02       		.byte	0x2
 3135 0ac2 23       		.byte	0x23
 3136 0ac3 04       		.uleb128 0x4
 3137 0ac4 06       		.uleb128 0x6
 3138 0ac5 F7050000 		.4byte	.LASF136
 3139 0ac9 10       		.byte	0x10
 3140 0aca 29       		.byte	0x29
 3141 0acb A8070000 		.4byte	0x7a8
 3142 0acf 02       		.byte	0x2
 3143 0ad0 23       		.byte	0x23
 3144 0ad1 06       		.uleb128 0x6
 3145 0ad2 00       		.byte	0
 3146 0ad3 03       		.uleb128 0x3
 3147 0ad4 A1000000 		.4byte	.LASF132
 3148 0ad8 10       		.byte	0x10
 3149 0ad9 2A       		.byte	0x2a
 3150 0ada 8E0A0000 		.4byte	0xa8e
 3151 0ade 05       		.uleb128 0x5
ARM GAS  /tmp/ccKcOR50.s 			page 57


 3152 0adf EA040000 		.4byte	.LASF137
 3153 0ae3 1A       		.byte	0x1a
 3154 0ae4 10       		.byte	0x10
 3155 0ae5 34       		.byte	0x34
 3156 0ae6 230B0000 		.4byte	0xb23
 3157 0aea 06       		.uleb128 0x6
 3158 0aeb 7C000000 		.4byte	.LASF138
 3159 0aef 10       		.byte	0x10
 3160 0af0 35       		.byte	0x35
 3161 0af1 A8070000 		.4byte	0x7a8
 3162 0af5 02       		.byte	0x2
 3163 0af6 23       		.byte	0x23
 3164 0af7 00       		.uleb128 0
 3165 0af8 06       		.uleb128 0x6
 3166 0af9 3F040000 		.4byte	.LASF139
 3167 0afd 10       		.byte	0x10
 3168 0afe 36       		.byte	0x36
 3169 0aff D30A0000 		.4byte	0xad3
 3170 0b03 02       		.byte	0x2
 3171 0b04 23       		.byte	0x23
 3172 0b05 02       		.uleb128 0x2
 3173 0b06 06       		.uleb128 0x6
 3174 0b07 58040000 		.4byte	.LASF140
 3175 0b0b 10       		.byte	0x10
 3176 0b0c 37       		.byte	0x37
 3177 0b0d D30A0000 		.4byte	0xad3
 3178 0b11 02       		.byte	0x2
 3179 0b12 23       		.byte	0x23
 3180 0b13 0A       		.uleb128 0xa
 3181 0b14 06       		.uleb128 0x6
 3182 0b15 DB040000 		.4byte	.LASF141
 3183 0b19 10       		.byte	0x10
 3184 0b1a 38       		.byte	0x38
 3185 0b1b D30A0000 		.4byte	0xad3
 3186 0b1f 02       		.byte	0x2
 3187 0b20 23       		.byte	0x23
 3188 0b21 12       		.uleb128 0x12
 3189 0b22 00       		.byte	0
 3190 0b23 03       		.uleb128 0x3
 3191 0b24 EA040000 		.4byte	.LASF137
 3192 0b28 10       		.byte	0x10
 3193 0b29 39       		.byte	0x39
 3194 0b2a DE0A0000 		.4byte	0xade
 3195 0b2e 03       		.uleb128 0x3
 3196 0b2f 28090000 		.4byte	.LASF142
 3197 0b33 10       		.byte	0x10
 3198 0b34 4B       		.byte	0x4b
 3199 0b35 390B0000 		.4byte	0xb39
 3200 0b39 09       		.uleb128 0x9
 3201 0b3a 04       		.byte	0x4
 3202 0b3b 3F0B0000 		.4byte	0xb3f
 3203 0b3f 15       		.uleb128 0x15
 3204 0b40 01       		.byte	0x1
 3205 0b41 500B0000 		.4byte	0xb50
 3206 0b45 16       		.uleb128 0x16
 3207 0b46 500B0000 		.4byte	0xb50
 3208 0b4a 16       		.uleb128 0x16
ARM GAS  /tmp/ccKcOR50.s 			page 58


 3209 0b4b B9020000 		.4byte	0x2b9
 3210 0b4f 00       		.byte	0
 3211 0b50 09       		.uleb128 0x9
 3212 0b51 04       		.byte	0x4
 3213 0b52 560B0000 		.4byte	0xb56
 3214 0b56 05       		.uleb128 0x5
 3215 0b57 C9050000 		.4byte	.LASF143
 3216 0b5b 2C       		.byte	0x2c
 3217 0b5c 10       		.byte	0x10
 3218 0b5d 69       		.byte	0x69
 3219 0b5e A70B0000 		.4byte	0xba7
 3220 0b62 07       		.uleb128 0x7
 3221 0b63 6700     		.ascii	"g\000"
 3222 0b65 10       		.byte	0x10
 3223 0b66 6A       		.byte	0x6a
 3224 0b67 180A0000 		.4byte	0xa18
 3225 0b6b 02       		.byte	0x2
 3226 0b6c 23       		.byte	0x23
 3227 0b6d 00       		.uleb128 0
 3228 0b6e 06       		.uleb128 0x6
 3229 0b6f D4030000 		.4byte	.LASF133
 3230 0b73 10       		.byte	0x10
 3231 0b74 6B       		.byte	0x6b
 3232 0b75 19050000 		.4byte	0x519
 3233 0b79 02       		.byte	0x2
 3234 0b7a 23       		.byte	0x23
 3235 0b7b 1C       		.uleb128 0x1c
 3236 0b7c 06       		.uleb128 0x6
 3237 0b7d E4030000 		.4byte	.LASF144
 3238 0b81 10       		.byte	0x10
 3239 0b82 6C       		.byte	0x6c
 3240 0b83 2E0B0000 		.4byte	0xb2e
 3241 0b87 02       		.byte	0x2
 3242 0b88 23       		.byte	0x23
 3243 0b89 20       		.uleb128 0x20
 3244 0b8a 06       		.uleb128 0x6
 3245 0b8b 15070000 		.4byte	.LASF145
 3246 0b8f 10       		.byte	0x10
 3247 0b90 6D       		.byte	0x6d
 3248 0b91 B9020000 		.4byte	0x2b9
 3249 0b95 02       		.byte	0x2
 3250 0b96 23       		.byte	0x23
 3251 0b97 24       		.uleb128 0x24
 3252 0b98 06       		.uleb128 0x6
 3253 0b99 41090000 		.4byte	.LASF146
 3254 0b9d 10       		.byte	0x10
 3255 0b9e 6E       		.byte	0x6e
 3256 0b9f F80B0000 		.4byte	0xbf8
 3257 0ba3 02       		.byte	0x2
 3258 0ba4 23       		.byte	0x23
 3259 0ba5 28       		.uleb128 0x28
 3260 0ba6 00       		.byte	0
 3261 0ba7 05       		.uleb128 0x5
 3262 0ba8 19060000 		.4byte	.LASF147
 3263 0bac 1C       		.byte	0x1c
 3264 0bad 10       		.byte	0x10
 3265 0bae 57       		.byte	0x57
ARM GAS  /tmp/ccKcOR50.s 			page 59


 3266 0baf F80B0000 		.4byte	0xbf8
 3267 0bb3 07       		.uleb128 0x7
 3268 0bb4 6700     		.ascii	"g\000"
 3269 0bb6 10       		.byte	0x10
 3270 0bb7 58       		.byte	0x58
 3271 0bb8 830A0000 		.4byte	0xa83
 3272 0bbc 02       		.byte	0x2
 3273 0bbd 23       		.byte	0x23
 3274 0bbe 00       		.uleb128 0
 3275 0bbf 06       		.uleb128 0x6
 3276 0bc0 D4030000 		.4byte	.LASF133
 3277 0bc4 10       		.byte	0x10
 3278 0bc5 59       		.byte	0x59
 3279 0bc6 19050000 		.4byte	0x519
 3280 0bca 02       		.byte	0x2
 3281 0bcb 23       		.byte	0x23
 3282 0bcc 0C       		.uleb128 0xc
 3283 0bcd 06       		.uleb128 0x6
 3284 0bce 75020000 		.4byte	.LASF148
 3285 0bd2 10       		.byte	0x10
 3286 0bd3 5A       		.byte	0x5a
 3287 0bd4 2E0B0000 		.4byte	0xb2e
 3288 0bd8 02       		.byte	0x2
 3289 0bd9 23       		.byte	0x23
 3290 0bda 10       		.uleb128 0x10
 3291 0bdb 06       		.uleb128 0x6
 3292 0bdc C8010000 		.4byte	.LASF149
 3293 0be0 10       		.byte	0x10
 3294 0be1 5B       		.byte	0x5b
 3295 0be2 B9020000 		.4byte	0x2b9
 3296 0be6 02       		.byte	0x2
 3297 0be7 23       		.byte	0x23
 3298 0be8 14       		.uleb128 0x14
 3299 0be9 06       		.uleb128 0x6
 3300 0bea 1A000000 		.4byte	.LASF150
 3301 0bee 10       		.byte	0x10
 3302 0bef 5C       		.byte	0x5c
 3303 0bf0 F80B0000 		.4byte	0xbf8
 3304 0bf4 02       		.byte	0x2
 3305 0bf5 23       		.byte	0x23
 3306 0bf6 18       		.uleb128 0x18
 3307 0bf7 00       		.byte	0
 3308 0bf8 09       		.uleb128 0x9
 3309 0bf9 04       		.byte	0x4
 3310 0bfa FE0B0000 		.4byte	0xbfe
 3311 0bfe 10       		.uleb128 0x10
 3312 0bff 230B0000 		.4byte	0xb23
 3313 0c03 03       		.uleb128 0x3
 3314 0c04 19060000 		.4byte	.LASF147
 3315 0c08 10       		.byte	0x10
 3316 0c09 5D       		.byte	0x5d
 3317 0c0a A70B0000 		.4byte	0xba7
 3318 0c0e 03       		.uleb128 0x3
 3319 0c0f C9050000 		.4byte	.LASF143
 3320 0c13 10       		.byte	0x10
 3321 0c14 6F       		.byte	0x6f
 3322 0c15 560B0000 		.4byte	0xb56
ARM GAS  /tmp/ccKcOR50.s 			page 60


 3323 0c19 05       		.uleb128 0x5
 3324 0c1a 90000000 		.4byte	.LASF151
 3325 0c1e 08       		.byte	0x8
 3326 0c1f 11       		.byte	0x11
 3327 0c20 26       		.byte	0x26
 3328 0c21 420C0000 		.4byte	0xc42
 3329 0c25 06       		.uleb128 0x6
 3330 0c26 58010000 		.4byte	.LASF71
 3331 0c2a 11       		.byte	0x11
 3332 0c2b 27       		.byte	0x27
 3333 0c2c A8050000 		.4byte	0x5a8
 3334 0c30 02       		.byte	0x2
 3335 0c31 23       		.byte	0x23
 3336 0c32 00       		.uleb128 0
 3337 0c33 06       		.uleb128 0x6
 3338 0c34 40000000 		.4byte	.LASF152
 3339 0c38 11       		.byte	0x11
 3340 0c39 28       		.byte	0x28
 3341 0c3a 230A0000 		.4byte	0xa23
 3342 0c3e 02       		.byte	0x2
 3343 0c3f 23       		.byte	0x23
 3344 0c40 04       		.uleb128 0x4
 3345 0c41 00       		.byte	0
 3346 0c42 03       		.uleb128 0x3
 3347 0c43 90000000 		.4byte	.LASF151
 3348 0c47 11       		.byte	0x11
 3349 0c48 29       		.byte	0x29
 3350 0c49 190C0000 		.4byte	0xc19
 3351 0c4d 05       		.uleb128 0x5
 3352 0c4e DC050000 		.4byte	.LASF153
 3353 0c52 2C       		.byte	0x2c
 3354 0c53 11       		.byte	0x11
 3355 0c54 2F       		.byte	0x2f
 3356 0c55 660C0000 		.4byte	0xc66
 3357 0c59 07       		.uleb128 0x7
 3358 0c5a 7700     		.ascii	"w\000"
 3359 0c5c 11       		.byte	0x11
 3360 0c5d 30       		.byte	0x30
 3361 0c5e 0E0C0000 		.4byte	0xc0e
 3362 0c62 02       		.byte	0x2
 3363 0c63 23       		.byte	0x23
 3364 0c64 00       		.uleb128 0
 3365 0c65 00       		.byte	0
 3366 0c66 03       		.uleb128 0x3
 3367 0c67 DC050000 		.4byte	.LASF153
 3368 0c6b 11       		.byte	0x11
 3369 0c6c 34       		.byte	0x34
 3370 0c6d 4D0C0000 		.4byte	0xc4d
 3371 0c71 05       		.uleb128 0x5
 3372 0c72 01080000 		.4byte	.LASF154
 3373 0c76 0C       		.byte	0xc
 3374 0c77 12       		.byte	0x12
 3375 0c78 1D       		.byte	0x1d
 3376 0c79 A80C0000 		.4byte	0xca8
 3377 0c7d 06       		.uleb128 0x6
 3378 0c7e 58010000 		.4byte	.LASF71
 3379 0c82 12       		.byte	0x12
ARM GAS  /tmp/ccKcOR50.s 			page 61


 3380 0c83 1E       		.byte	0x1e
 3381 0c84 A8050000 		.4byte	0x5a8
 3382 0c88 02       		.byte	0x2
 3383 0c89 23       		.byte	0x23
 3384 0c8a 00       		.uleb128 0
 3385 0c8b 06       		.uleb128 0x6
 3386 0c8c AA090000 		.4byte	.LASF155
 3387 0c90 12       		.byte	0x12
 3388 0c91 1F       		.byte	0x1f
 3389 0c92 230A0000 		.4byte	0xa23
 3390 0c96 02       		.byte	0x2
 3391 0c97 23       		.byte	0x23
 3392 0c98 04       		.uleb128 0x4
 3393 0c99 06       		.uleb128 0x6
 3394 0c9a 10060000 		.4byte	.LASF156
 3395 0c9e 12       		.byte	0x12
 3396 0c9f 20       		.byte	0x20
 3397 0ca0 29000000 		.4byte	0x29
 3398 0ca4 02       		.byte	0x2
 3399 0ca5 23       		.byte	0x23
 3400 0ca6 08       		.uleb128 0x8
 3401 0ca7 00       		.byte	0
 3402 0ca8 03       		.uleb128 0x3
 3403 0ca9 01080000 		.4byte	.LASF154
 3404 0cad 12       		.byte	0x12
 3405 0cae 21       		.byte	0x21
 3406 0caf 710C0000 		.4byte	0xc71
 3407 0cb3 05       		.uleb128 0x5
 3408 0cb4 A3040000 		.4byte	.LASF157
 3409 0cb8 3C       		.byte	0x3c
 3410 0cb9 12       		.byte	0x12
 3411 0cba 26       		.byte	0x26
 3412 0cbb 040D0000 		.4byte	0xd04
 3413 0cbf 07       		.uleb128 0x7
 3414 0cc0 7700     		.ascii	"w\000"
 3415 0cc2 12       		.byte	0x12
 3416 0cc3 27       		.byte	0x27
 3417 0cc4 0E0C0000 		.4byte	0xc0e
 3418 0cc8 02       		.byte	0x2
 3419 0cc9 23       		.byte	0x23
 3420 0cca 00       		.uleb128 0
 3421 0ccb 06       		.uleb128 0x6
 3422 0ccc E4080000 		.4byte	.LASF158
 3423 0cd0 12       		.byte	0x12
 3424 0cd1 2F       		.byte	0x2f
 3425 0cd2 7D060000 		.4byte	0x67d
 3426 0cd6 02       		.byte	0x2
 3427 0cd7 23       		.byte	0x23
 3428 0cd8 2C       		.uleb128 0x2c
 3429 0cd9 07       		.uleb128 0x7
 3430 0cda 6D696E00 		.ascii	"min\000"
 3431 0cde 12       		.byte	0x12
 3432 0cdf 30       		.byte	0x30
 3433 0ce0 29000000 		.4byte	0x29
 3434 0ce4 02       		.byte	0x2
 3435 0ce5 23       		.byte	0x23
 3436 0ce6 30       		.uleb128 0x30
ARM GAS  /tmp/ccKcOR50.s 			page 62


 3437 0ce7 07       		.uleb128 0x7
 3438 0ce8 6D617800 		.ascii	"max\000"
 3439 0cec 12       		.byte	0x12
 3440 0ced 31       		.byte	0x31
 3441 0cee 29000000 		.4byte	0x29
 3442 0cf2 02       		.byte	0x2
 3443 0cf3 23       		.byte	0x23
 3444 0cf4 34       		.uleb128 0x34
 3445 0cf5 07       		.uleb128 0x7
 3446 0cf6 706F7300 		.ascii	"pos\000"
 3447 0cfa 12       		.byte	0x12
 3448 0cfb 32       		.byte	0x32
 3449 0cfc 29000000 		.4byte	0x29
 3450 0d00 02       		.byte	0x2
 3451 0d01 23       		.byte	0x23
 3452 0d02 38       		.uleb128 0x38
 3453 0d03 00       		.byte	0
 3454 0d04 03       		.uleb128 0x3
 3455 0d05 A3040000 		.4byte	.LASF157
 3456 0d09 12       		.byte	0x12
 3457 0d0a 33       		.byte	0x33
 3458 0d0b B30C0000 		.4byte	0xcb3
 3459 0d0f 05       		.uleb128 0x5
 3460 0d10 170A0000 		.4byte	.LASF159
 3461 0d14 0C       		.byte	0xc
 3462 0d15 13       		.byte	0x13
 3463 0d16 25       		.byte	0x25
 3464 0d17 460D0000 		.4byte	0xd46
 3465 0d1b 06       		.uleb128 0x6
 3466 0d1c 58010000 		.4byte	.LASF71
 3467 0d20 13       		.byte	0x13
 3468 0d21 26       		.byte	0x26
 3469 0d22 A8050000 		.4byte	0x5a8
 3470 0d26 02       		.byte	0x2
 3471 0d27 23       		.byte	0x23
 3472 0d28 00       		.uleb128 0
 3473 0d29 06       		.uleb128 0x6
 3474 0d2a 87000000 		.4byte	.LASF160
 3475 0d2e 13       		.byte	0x13
 3476 0d2f 27       		.byte	0x27
 3477 0d30 230A0000 		.4byte	0xa23
 3478 0d34 02       		.byte	0x2
 3479 0d35 23       		.byte	0x23
 3480 0d36 04       		.uleb128 0x4
 3481 0d37 06       		.uleb128 0x6
 3482 0d38 51090000 		.4byte	.LASF161
 3483 0d3c 13       		.byte	0x13
 3484 0d3d 28       		.byte	0x28
 3485 0d3e B1000000 		.4byte	0xb1
 3486 0d42 02       		.byte	0x2
 3487 0d43 23       		.byte	0x23
 3488 0d44 08       		.uleb128 0x8
 3489 0d45 00       		.byte	0
 3490 0d46 03       		.uleb128 0x3
 3491 0d47 170A0000 		.4byte	.LASF159
 3492 0d4b 13       		.byte	0x13
 3493 0d4c 29       		.byte	0x29
ARM GAS  /tmp/ccKcOR50.s 			page 63


 3494 0d4d 0F0D0000 		.4byte	0xd0f
 3495 0d51 05       		.uleb128 0x5
 3496 0d52 C4030000 		.4byte	.LASF162
 3497 0d56 2C       		.byte	0x2c
 3498 0d57 13       		.byte	0x13
 3499 0d58 2C       		.byte	0x2c
 3500 0d59 6A0D0000 		.4byte	0xd6a
 3501 0d5d 07       		.uleb128 0x7
 3502 0d5e 7700     		.ascii	"w\000"
 3503 0d60 13       		.byte	0x13
 3504 0d61 2D       		.byte	0x2d
 3505 0d62 0E0C0000 		.4byte	0xc0e
 3506 0d66 02       		.byte	0x2
 3507 0d67 23       		.byte	0x23
 3508 0d68 00       		.uleb128 0
 3509 0d69 00       		.byte	0
 3510 0d6a 03       		.uleb128 0x3
 3511 0d6b C4030000 		.4byte	.LASF162
 3512 0d6f 13       		.byte	0x13
 3513 0d70 31       		.byte	0x31
 3514 0d71 510D0000 		.4byte	0xd51
 3515 0d75 05       		.uleb128 0x5
 3516 0d76 5A000000 		.4byte	.LASF163
 3517 0d7a 0C       		.byte	0xc
 3518 0d7b 14       		.byte	0x14
 3519 0d7c 24       		.byte	0x24
 3520 0d7d AC0D0000 		.4byte	0xdac
 3521 0d81 06       		.uleb128 0x6
 3522 0d82 58010000 		.4byte	.LASF71
 3523 0d86 14       		.byte	0x14
 3524 0d87 25       		.byte	0x25
 3525 0d88 A8050000 		.4byte	0x5a8
 3526 0d8c 02       		.byte	0x2
 3527 0d8d 23       		.byte	0x23
 3528 0d8e 00       		.uleb128 0
 3529 0d8f 06       		.uleb128 0x6
 3530 0d90 0F090000 		.4byte	.LASF164
 3531 0d94 14       		.byte	0x14
 3532 0d95 26       		.byte	0x26
 3533 0d96 230A0000 		.4byte	0xa23
 3534 0d9a 02       		.byte	0x2
 3535 0d9b 23       		.byte	0x23
 3536 0d9c 04       		.uleb128 0x4
 3537 0d9d 06       		.uleb128 0x6
 3538 0d9e 01050000 		.4byte	.LASF165
 3539 0da2 14       		.byte	0x14
 3540 0da3 27       		.byte	0x27
 3541 0da4 6D000000 		.4byte	0x6d
 3542 0da8 02       		.byte	0x2
 3543 0da9 23       		.byte	0x23
 3544 0daa 08       		.uleb128 0x8
 3545 0dab 00       		.byte	0
 3546 0dac 03       		.uleb128 0x3
 3547 0dad 5A000000 		.4byte	.LASF163
 3548 0db1 14       		.byte	0x14
 3549 0db2 28       		.byte	0x28
 3550 0db3 750D0000 		.4byte	0xd75
ARM GAS  /tmp/ccKcOR50.s 			page 64


 3551 0db7 05       		.uleb128 0x5
 3552 0db8 29040000 		.4byte	.LASF166
 3553 0dbc 30       		.byte	0x30
 3554 0dbd 14       		.byte	0x14
 3555 0dbe 2E       		.byte	0x2e
 3556 0dbf DE0D0000 		.4byte	0xdde
 3557 0dc3 07       		.uleb128 0x7
 3558 0dc4 7700     		.ascii	"w\000"
 3559 0dc6 14       		.byte	0x14
 3560 0dc7 2F       		.byte	0x2f
 3561 0dc8 0E0C0000 		.4byte	0xc0e
 3562 0dcc 02       		.byte	0x2
 3563 0dcd 23       		.byte	0x23
 3564 0dce 00       		.uleb128 0
 3565 0dcf 06       		.uleb128 0x6
 3566 0dd0 01050000 		.4byte	.LASF165
 3567 0dd4 14       		.byte	0x14
 3568 0dd5 33       		.byte	0x33
 3569 0dd6 6D000000 		.4byte	0x6d
 3570 0dda 02       		.byte	0x2
 3571 0ddb 23       		.byte	0x23
 3572 0ddc 2C       		.uleb128 0x2c
 3573 0ddd 00       		.byte	0
 3574 0dde 03       		.uleb128 0x3
 3575 0ddf 29040000 		.4byte	.LASF166
 3576 0de3 14       		.byte	0x14
 3577 0de4 34       		.byte	0x34
 3578 0de5 B70D0000 		.4byte	0xdb7
 3579 0de9 05       		.uleb128 0x5
 3580 0dea 31020000 		.4byte	.LASF167
 3581 0dee 20       		.byte	0x20
 3582 0def 15       		.byte	0x15
 3583 0df0 1E       		.byte	0x1e
 3584 0df1 1C0E0000 		.4byte	0xe1c
 3585 0df5 07       		.uleb128 0x7
 3586 0df6 6700     		.ascii	"g\000"
 3587 0df8 15       		.byte	0x15
 3588 0df9 1F       		.byte	0x1f
 3589 0dfa 180A0000 		.4byte	0xa18
 3590 0dfe 02       		.byte	0x2
 3591 0dff 23       		.byte	0x23
 3592 0e00 00       		.uleb128 0
 3593 0e01 07       		.uleb128 0x7
 3594 0e02 637800   		.ascii	"cx\000"
 3595 0e05 15       		.byte	0x15
 3596 0e06 20       		.byte	0x20
 3597 0e07 7D060000 		.4byte	0x67d
 3598 0e0b 02       		.byte	0x2
 3599 0e0c 23       		.byte	0x23
 3600 0e0d 1C       		.uleb128 0x1c
 3601 0e0e 07       		.uleb128 0x7
 3602 0e0f 637900   		.ascii	"cy\000"
 3603 0e12 15       		.byte	0x15
 3604 0e13 20       		.byte	0x20
 3605 0e14 7D060000 		.4byte	0x67d
 3606 0e18 02       		.byte	0x2
 3607 0e19 23       		.byte	0x23
ARM GAS  /tmp/ccKcOR50.s 			page 65


 3608 0e1a 1E       		.uleb128 0x1e
 3609 0e1b 00       		.byte	0
 3610 0e1c 03       		.uleb128 0x3
 3611 0e1d 31020000 		.4byte	.LASF167
 3612 0e21 15       		.byte	0x15
 3613 0e22 29       		.byte	0x29
 3614 0e23 E90D0000 		.4byte	0xde9
 3615 0e27 05       		.uleb128 0x5
 3616 0e28 BD000000 		.4byte	.LASF168
 3617 0e2c 2C       		.byte	0x2c
 3618 0e2d 16       		.byte	0x16
 3619 0e2e 21       		.byte	0x21
 3620 0e2f 400E0000 		.4byte	0xe40
 3621 0e33 07       		.uleb128 0x7
 3622 0e34 7700     		.ascii	"w\000"
 3623 0e36 16       		.byte	0x16
 3624 0e37 22       		.byte	0x22
 3625 0e38 0E0C0000 		.4byte	0xc0e
 3626 0e3c 02       		.byte	0x2
 3627 0e3d 23       		.byte	0x23
 3628 0e3e 00       		.uleb128 0
 3629 0e3f 00       		.byte	0
 3630 0e40 03       		.uleb128 0x3
 3631 0e41 BD000000 		.4byte	.LASF168
 3632 0e45 16       		.byte	0x16
 3633 0e46 23       		.byte	0x23
 3634 0e47 270E0000 		.4byte	0xe27
 3635 0e4b 1C       		.uleb128 0x1c
 3636 0e4c 9B060000 		.4byte	.LASF169
 3637 0e50 01       		.byte	0x1
 3638 0e51 6D       		.byte	0x6d
 3639 0e52 01       		.byte	0x1
 3640 0e53 01       		.byte	0x1
 3641 0e54 630E0000 		.4byte	0xe63
 3642 0e58 1D       		.uleb128 0x1d
 3643 0e59 776900   		.ascii	"wi\000"
 3644 0e5c 01       		.byte	0x1
 3645 0e5d 6E       		.byte	0x6e
 3646 0e5e 030C0000 		.4byte	0xc03
 3647 0e62 00       		.byte	0
 3648 0e63 1C       		.uleb128 0x1c
 3649 0e64 AB000000 		.4byte	.LASF170
 3650 0e68 01       		.byte	0x1
 3651 0e69 D1       		.byte	0xd1
 3652 0e6a 01       		.byte	0x1
 3653 0e6b 01       		.byte	0x1
 3654 0e6c 7C0E0000 		.4byte	0xe7c
 3655 0e70 1E       		.uleb128 0x1e
 3656 0e71 656E6100 		.ascii	"ena\000"
 3657 0e75 01       		.byte	0x1
 3658 0e76 D1       		.byte	0xd1
 3659 0e77 B1000000 		.4byte	0xb1
 3660 0e7b 00       		.byte	0
 3661 0e7c 1C       		.uleb128 0x1c
 3662 0e7d 4D030000 		.4byte	.LASF171
 3663 0e81 01       		.byte	0x1
 3664 0e82 B0       		.byte	0xb0
ARM GAS  /tmp/ccKcOR50.s 			page 66


 3665 0e83 01       		.byte	0x1
 3666 0e84 01       		.byte	0x1
 3667 0e85 950E0000 		.4byte	0xe95
 3668 0e89 1E       		.uleb128 0x1e
 3669 0e8a 74616200 		.ascii	"tab\000"
 3670 0e8e 01       		.byte	0x1
 3671 0e8f B0       		.byte	0xb0
 3672 0e90 230A0000 		.4byte	0xa23
 3673 0e94 00       		.byte	0
 3674 0e95 1F       		.uleb128 0x1f
 3675 0e96 01       		.byte	0x1
 3676 0e97 0A090000 		.4byte	.LASF230
 3677 0e9b 01       		.byte	0x1
 3678 0e9c DE       		.byte	0xde
 3679 0e9d 01       		.byte	0x1
 3680 0e9e 29000000 		.4byte	0x29
 3681 0ea2 00000000 		.4byte	.LFB121
 3682 0ea6 6C0A0000 		.4byte	.LFE121
 3683 0eaa 00000000 		.4byte	.LLST0
 3684 0eae 01       		.byte	0x1
 3685 0eaf 8F180000 		.4byte	0x188f
 3686 0eb3 20       		.uleb128 0x20
 3687 0eb4 706500   		.ascii	"pe\000"
 3688 0eb7 01       		.byte	0x1
 3689 0eb8 DF       		.byte	0xdf
 3690 0eb9 13060000 		.4byte	0x613
 3691 0ebd 2D000000 		.4byte	.LLST1
 3692 0ec1 21       		.uleb128 0x21
 3693 0ec2 4B0E0000 		.4byte	0xe4b
 3694 0ec6 0C000000 		.4byte	.LBB9
 3695 0eca 00000000 		.4byte	.Ldebug_ranges0+0
 3696 0ece 01       		.byte	0x1
 3697 0ecf EF       		.byte	0xef
 3698 0ed0 CF110000 		.4byte	0x11cf
 3699 0ed4 22       		.uleb128 0x22
 3700 0ed5 20000000 		.4byte	.Ldebug_ranges0+0x20
 3701 0ed9 23       		.uleb128 0x23
 3702 0eda 580E0000 		.4byte	0xe58
 3703 0ede 03       		.byte	0x3
 3704 0edf 91       		.byte	0x91
 3705 0ee0 BC7F     		.sleb128 -68
 3706 0ee2 24       		.uleb128 0x24
 3707 0ee3 88000000 		.4byte	.LVL6
 3708 0ee7 991A0000 		.4byte	0x1a99
 3709 0eeb 030F0000 		.4byte	0xf03
 3710 0eef 25       		.uleb128 0x25
 3711 0ef0 01       		.byte	0x1
 3712 0ef1 52       		.byte	0x52
 3713 0ef2 02       		.byte	0x2
 3714 0ef3 74       		.byte	0x74
 3715 0ef4 00       		.sleb128 0
 3716 0ef5 25       		.uleb128 0x25
 3717 0ef6 01       		.byte	0x1
 3718 0ef7 51       		.byte	0x51
 3719 0ef8 03       		.byte	0x3
 3720 0ef9 91       		.byte	0x91
 3721 0efa BC7F     		.sleb128 -68
ARM GAS  /tmp/ccKcOR50.s 			page 67


 3722 0efc 25       		.uleb128 0x25
 3723 0efd 01       		.byte	0x1
 3724 0efe 50       		.byte	0x50
 3725 0eff 02       		.byte	0x2
 3726 0f00 74       		.byte	0x74
 3727 0f01 00       		.sleb128 0
 3728 0f02 00       		.byte	0
 3729 0f03 24       		.uleb128 0x24
 3730 0f04 A8000000 		.4byte	.LVL7
 3731 0f08 991A0000 		.4byte	0x1a99
 3732 0f0c 240F0000 		.4byte	0xf24
 3733 0f10 25       		.uleb128 0x25
 3734 0f11 01       		.byte	0x1
 3735 0f12 52       		.byte	0x52
 3736 0f13 02       		.byte	0x2
 3737 0f14 74       		.byte	0x74
 3738 0f15 00       		.sleb128 0
 3739 0f16 25       		.uleb128 0x25
 3740 0f17 01       		.byte	0x1
 3741 0f18 51       		.byte	0x51
 3742 0f19 03       		.byte	0x3
 3743 0f1a 91       		.byte	0x91
 3744 0f1b BC7F     		.sleb128 -68
 3745 0f1d 25       		.uleb128 0x25
 3746 0f1e 01       		.byte	0x1
 3747 0f1f 50       		.byte	0x50
 3748 0f20 02       		.byte	0x2
 3749 0f21 74       		.byte	0x74
 3750 0f22 00       		.sleb128 0
 3751 0f23 00       		.byte	0
 3752 0f24 24       		.uleb128 0x24
 3753 0f25 CA000000 		.4byte	.LVL8
 3754 0f29 991A0000 		.4byte	0x1a99
 3755 0f2d 450F0000 		.4byte	0xf45
 3756 0f31 25       		.uleb128 0x25
 3757 0f32 01       		.byte	0x1
 3758 0f33 52       		.byte	0x52
 3759 0f34 02       		.byte	0x2
 3760 0f35 74       		.byte	0x74
 3761 0f36 00       		.sleb128 0
 3762 0f37 25       		.uleb128 0x25
 3763 0f38 01       		.byte	0x1
 3764 0f39 51       		.byte	0x51
 3765 0f3a 03       		.byte	0x3
 3766 0f3b 91       		.byte	0x91
 3767 0f3c BC7F     		.sleb128 -68
 3768 0f3e 25       		.uleb128 0x25
 3769 0f3f 01       		.byte	0x1
 3770 0f40 50       		.byte	0x50
 3771 0f41 02       		.byte	0x2
 3772 0f42 74       		.byte	0x74
 3773 0f43 00       		.sleb128 0
 3774 0f44 00       		.byte	0
 3775 0f45 24       		.uleb128 0x24
 3776 0f46 F0000000 		.4byte	.LVL9
 3777 0f4a 991A0000 		.4byte	0x1a99
 3778 0f4e 660F0000 		.4byte	0xf66
ARM GAS  /tmp/ccKcOR50.s 			page 68


 3779 0f52 25       		.uleb128 0x25
 3780 0f53 01       		.byte	0x1
 3781 0f54 52       		.byte	0x52
 3782 0f55 02       		.byte	0x2
 3783 0f56 74       		.byte	0x74
 3784 0f57 00       		.sleb128 0
 3785 0f58 25       		.uleb128 0x25
 3786 0f59 01       		.byte	0x1
 3787 0f5a 51       		.byte	0x51
 3788 0f5b 03       		.byte	0x3
 3789 0f5c 91       		.byte	0x91
 3790 0f5d BC7F     		.sleb128 -68
 3791 0f5f 25       		.uleb128 0x25
 3792 0f60 01       		.byte	0x1
 3793 0f61 50       		.byte	0x50
 3794 0f62 02       		.byte	0x2
 3795 0f63 74       		.byte	0x74
 3796 0f64 00       		.sleb128 0
 3797 0f65 00       		.byte	0
 3798 0f66 24       		.uleb128 0x24
 3799 0f67 12010000 		.4byte	.LVL10
 3800 0f6b 991A0000 		.4byte	0x1a99
 3801 0f6f 870F0000 		.4byte	0xf87
 3802 0f73 25       		.uleb128 0x25
 3803 0f74 01       		.byte	0x1
 3804 0f75 52       		.byte	0x52
 3805 0f76 02       		.byte	0x2
 3806 0f77 74       		.byte	0x74
 3807 0f78 00       		.sleb128 0
 3808 0f79 25       		.uleb128 0x25
 3809 0f7a 01       		.byte	0x1
 3810 0f7b 51       		.byte	0x51
 3811 0f7c 03       		.byte	0x3
 3812 0f7d 91       		.byte	0x91
 3813 0f7e BC7F     		.sleb128 -68
 3814 0f80 25       		.uleb128 0x25
 3815 0f81 01       		.byte	0x1
 3816 0f82 50       		.byte	0x50
 3817 0f83 02       		.byte	0x2
 3818 0f84 74       		.byte	0x74
 3819 0f85 00       		.sleb128 0
 3820 0f86 00       		.byte	0
 3821 0f87 24       		.uleb128 0x24
 3822 0f88 30010000 		.4byte	.LVL11
 3823 0f8c 991A0000 		.4byte	0x1a99
 3824 0f90 A80F0000 		.4byte	0xfa8
 3825 0f94 25       		.uleb128 0x25
 3826 0f95 01       		.byte	0x1
 3827 0f96 52       		.byte	0x52
 3828 0f97 02       		.byte	0x2
 3829 0f98 74       		.byte	0x74
 3830 0f99 00       		.sleb128 0
 3831 0f9a 25       		.uleb128 0x25
 3832 0f9b 01       		.byte	0x1
 3833 0f9c 51       		.byte	0x51
 3834 0f9d 03       		.byte	0x3
 3835 0f9e 91       		.byte	0x91
ARM GAS  /tmp/ccKcOR50.s 			page 69


 3836 0f9f BC7F     		.sleb128 -68
 3837 0fa1 25       		.uleb128 0x25
 3838 0fa2 01       		.byte	0x1
 3839 0fa3 50       		.byte	0x50
 3840 0fa4 02       		.byte	0x2
 3841 0fa5 74       		.byte	0x74
 3842 0fa6 00       		.sleb128 0
 3843 0fa7 00       		.byte	0
 3844 0fa8 24       		.uleb128 0x24
 3845 0fa9 5A010000 		.4byte	.LVL12
 3846 0fad 991A0000 		.4byte	0x1a99
 3847 0fb1 C90F0000 		.4byte	0xfc9
 3848 0fb5 25       		.uleb128 0x25
 3849 0fb6 01       		.byte	0x1
 3850 0fb7 52       		.byte	0x52
 3851 0fb8 02       		.byte	0x2
 3852 0fb9 74       		.byte	0x74
 3853 0fba 00       		.sleb128 0
 3854 0fbb 25       		.uleb128 0x25
 3855 0fbc 01       		.byte	0x1
 3856 0fbd 51       		.byte	0x51
 3857 0fbe 03       		.byte	0x3
 3858 0fbf 91       		.byte	0x91
 3859 0fc0 BC7F     		.sleb128 -68
 3860 0fc2 25       		.uleb128 0x25
 3861 0fc3 01       		.byte	0x1
 3862 0fc4 50       		.byte	0x50
 3863 0fc5 02       		.byte	0x2
 3864 0fc6 74       		.byte	0x74
 3865 0fc7 00       		.sleb128 0
 3866 0fc8 00       		.byte	0
 3867 0fc9 24       		.uleb128 0x24
 3868 0fca 88010000 		.4byte	.LVL13
 3869 0fce CC1A0000 		.4byte	0x1acc
 3870 0fd2 E40F0000 		.4byte	0xfe4
 3871 0fd6 25       		.uleb128 0x25
 3872 0fd7 01       		.byte	0x1
 3873 0fd8 51       		.byte	0x51
 3874 0fd9 03       		.byte	0x3
 3875 0fda 91       		.byte	0x91
 3876 0fdb BC7F     		.sleb128 -68
 3877 0fdd 25       		.uleb128 0x25
 3878 0fde 01       		.byte	0x1
 3879 0fdf 50       		.byte	0x50
 3880 0fe0 02       		.byte	0x2
 3881 0fe1 74       		.byte	0x74
 3882 0fe2 00       		.sleb128 0
 3883 0fe3 00       		.byte	0
 3884 0fe4 24       		.uleb128 0x24
 3885 0fe5 A6010000 		.4byte	.LVL14
 3886 0fe9 CC1A0000 		.4byte	0x1acc
 3887 0fed FF0F0000 		.4byte	0xfff
 3888 0ff1 25       		.uleb128 0x25
 3889 0ff2 01       		.byte	0x1
 3890 0ff3 51       		.byte	0x51
 3891 0ff4 03       		.byte	0x3
 3892 0ff5 91       		.byte	0x91
ARM GAS  /tmp/ccKcOR50.s 			page 70


 3893 0ff6 BC7F     		.sleb128 -68
 3894 0ff8 25       		.uleb128 0x25
 3895 0ff9 01       		.byte	0x1
 3896 0ffa 50       		.byte	0x50
 3897 0ffb 02       		.byte	0x2
 3898 0ffc 74       		.byte	0x74
 3899 0ffd 00       		.sleb128 0
 3900 0ffe 00       		.byte	0
 3901 0fff 24       		.uleb128 0x24
 3902 1000 C2010000 		.4byte	.LVL15
 3903 1004 CC1A0000 		.4byte	0x1acc
 3904 1008 1A100000 		.4byte	0x101a
 3905 100c 25       		.uleb128 0x25
 3906 100d 01       		.byte	0x1
 3907 100e 51       		.byte	0x51
 3908 100f 03       		.byte	0x3
 3909 1010 91       		.byte	0x91
 3910 1011 BC7F     		.sleb128 -68
 3911 1013 25       		.uleb128 0x25
 3912 1014 01       		.byte	0x1
 3913 1015 50       		.byte	0x50
 3914 1016 02       		.byte	0x2
 3915 1017 74       		.byte	0x74
 3916 1018 00       		.sleb128 0
 3917 1019 00       		.byte	0
 3918 101a 24       		.uleb128 0x24
 3919 101b DE010000 		.4byte	.LVL16
 3920 101f CC1A0000 		.4byte	0x1acc
 3921 1023 35100000 		.4byte	0x1035
 3922 1027 25       		.uleb128 0x25
 3923 1028 01       		.byte	0x1
 3924 1029 51       		.byte	0x51
 3925 102a 03       		.byte	0x3
 3926 102b 91       		.byte	0x91
 3927 102c BC7F     		.sleb128 -68
 3928 102e 25       		.uleb128 0x25
 3929 102f 01       		.byte	0x1
 3930 1030 50       		.byte	0x50
 3931 1031 02       		.byte	0x2
 3932 1032 74       		.byte	0x74
 3933 1033 00       		.sleb128 0
 3934 1034 00       		.byte	0
 3935 1035 24       		.uleb128 0x24
 3936 1036 2A020000 		.4byte	.LVL17
 3937 103a EF1A0000 		.4byte	0x1aef
 3938 103e 50100000 		.4byte	0x1050
 3939 1042 25       		.uleb128 0x25
 3940 1043 01       		.byte	0x1
 3941 1044 51       		.byte	0x51
 3942 1045 03       		.byte	0x3
 3943 1046 91       		.byte	0x91
 3944 1047 BC7F     		.sleb128 -68
 3945 1049 25       		.uleb128 0x25
 3946 104a 01       		.byte	0x1
 3947 104b 50       		.byte	0x50
 3948 104c 02       		.byte	0x2
 3949 104d 74       		.byte	0x74
ARM GAS  /tmp/ccKcOR50.s 			page 71


 3950 104e 00       		.sleb128 0
 3951 104f 00       		.byte	0
 3952 1050 24       		.uleb128 0x24
 3953 1051 50020000 		.4byte	.LVL18
 3954 1055 EF1A0000 		.4byte	0x1aef
 3955 1059 6B100000 		.4byte	0x106b
 3956 105d 25       		.uleb128 0x25
 3957 105e 01       		.byte	0x1
 3958 105f 51       		.byte	0x51
 3959 1060 03       		.byte	0x3
 3960 1061 91       		.byte	0x91
 3961 1062 BC7F     		.sleb128 -68
 3962 1064 25       		.uleb128 0x25
 3963 1065 01       		.byte	0x1
 3964 1066 50       		.byte	0x50
 3965 1067 02       		.byte	0x2
 3966 1068 74       		.byte	0x74
 3967 1069 00       		.sleb128 0
 3968 106a 00       		.byte	0
 3969 106b 24       		.uleb128 0x24
 3970 106c 8A020000 		.4byte	.LVL19
 3971 1070 EF1A0000 		.4byte	0x1aef
 3972 1074 86100000 		.4byte	0x1086
 3973 1078 25       		.uleb128 0x25
 3974 1079 01       		.byte	0x1
 3975 107a 51       		.byte	0x51
 3976 107b 03       		.byte	0x3
 3977 107c 91       		.byte	0x91
 3978 107d BC7F     		.sleb128 -68
 3979 107f 25       		.uleb128 0x25
 3980 1080 01       		.byte	0x1
 3981 1081 50       		.byte	0x50
 3982 1082 02       		.byte	0x2
 3983 1083 74       		.byte	0x74
 3984 1084 00       		.sleb128 0
 3985 1085 00       		.byte	0
 3986 1086 24       		.uleb128 0x24
 3987 1087 A6020000 		.4byte	.LVL20
 3988 108b EF1A0000 		.4byte	0x1aef
 3989 108f A1100000 		.4byte	0x10a1
 3990 1093 25       		.uleb128 0x25
 3991 1094 01       		.byte	0x1
 3992 1095 51       		.byte	0x51
 3993 1096 03       		.byte	0x3
 3994 1097 91       		.byte	0x91
 3995 1098 BC7F     		.sleb128 -68
 3996 109a 25       		.uleb128 0x25
 3997 109b 01       		.byte	0x1
 3998 109c 50       		.byte	0x50
 3999 109d 02       		.byte	0x2
 4000 109e 74       		.byte	0x74
 4001 109f 00       		.sleb128 0
 4002 10a0 00       		.byte	0
 4003 10a1 24       		.uleb128 0x24
 4004 10a2 D4020000 		.4byte	.LVL21
 4005 10a6 121B0000 		.4byte	0x1b12
 4006 10aa BC100000 		.4byte	0x10bc
ARM GAS  /tmp/ccKcOR50.s 			page 72


 4007 10ae 25       		.uleb128 0x25
 4008 10af 01       		.byte	0x1
 4009 10b0 51       		.byte	0x51
 4010 10b1 03       		.byte	0x3
 4011 10b2 91       		.byte	0x91
 4012 10b3 BC7F     		.sleb128 -68
 4013 10b5 25       		.uleb128 0x25
 4014 10b6 01       		.byte	0x1
 4015 10b7 50       		.byte	0x50
 4016 10b8 02       		.byte	0x2
 4017 10b9 74       		.byte	0x74
 4018 10ba 00       		.sleb128 0
 4019 10bb 00       		.byte	0
 4020 10bc 24       		.uleb128 0x24
 4021 10bd F6020000 		.4byte	.LVL22
 4022 10c1 121B0000 		.4byte	0x1b12
 4023 10c5 D7100000 		.4byte	0x10d7
 4024 10c9 25       		.uleb128 0x25
 4025 10ca 01       		.byte	0x1
 4026 10cb 51       		.byte	0x51
 4027 10cc 03       		.byte	0x3
 4028 10cd 91       		.byte	0x91
 4029 10ce BC7F     		.sleb128 -68
 4030 10d0 25       		.uleb128 0x25
 4031 10d1 01       		.byte	0x1
 4032 10d2 50       		.byte	0x50
 4033 10d3 02       		.byte	0x2
 4034 10d4 74       		.byte	0x74
 4035 10d5 00       		.sleb128 0
 4036 10d6 00       		.byte	0
 4037 10d7 24       		.uleb128 0x24
 4038 10d8 22030000 		.4byte	.LVL23
 4039 10dc 121B0000 		.4byte	0x1b12
 4040 10e0 F2100000 		.4byte	0x10f2
 4041 10e4 25       		.uleb128 0x25
 4042 10e5 01       		.byte	0x1
 4043 10e6 51       		.byte	0x51
 4044 10e7 03       		.byte	0x3
 4045 10e8 91       		.byte	0x91
 4046 10e9 BC7F     		.sleb128 -68
 4047 10eb 25       		.uleb128 0x25
 4048 10ec 01       		.byte	0x1
 4049 10ed 50       		.byte	0x50
 4050 10ee 02       		.byte	0x2
 4051 10ef 74       		.byte	0x74
 4052 10f0 00       		.sleb128 0
 4053 10f1 00       		.byte	0
 4054 10f2 24       		.uleb128 0x24
 4055 10f3 BA030000 		.4byte	.LVL24
 4056 10f7 351B0000 		.4byte	0x1b35
 4057 10fb 0D110000 		.4byte	0x110d
 4058 10ff 25       		.uleb128 0x25
 4059 1100 01       		.byte	0x1
 4060 1101 51       		.byte	0x51
 4061 1102 03       		.byte	0x3
 4062 1103 91       		.byte	0x91
 4063 1104 BC7F     		.sleb128 -68
ARM GAS  /tmp/ccKcOR50.s 			page 73


 4064 1106 25       		.uleb128 0x25
 4065 1107 01       		.byte	0x1
 4066 1108 50       		.byte	0x50
 4067 1109 02       		.byte	0x2
 4068 110a 74       		.byte	0x74
 4069 110b 00       		.sleb128 0
 4070 110c 00       		.byte	0
 4071 110d 24       		.uleb128 0x24
 4072 110e E4030000 		.4byte	.LVL25
 4073 1112 991A0000 		.4byte	0x1a99
 4074 1116 2D110000 		.4byte	0x112d
 4075 111a 25       		.uleb128 0x25
 4076 111b 01       		.byte	0x1
 4077 111c 52       		.byte	0x52
 4078 111d 01       		.byte	0x1
 4079 111e 31       		.byte	0x31
 4080 111f 25       		.uleb128 0x25
 4081 1120 01       		.byte	0x1
 4082 1121 51       		.byte	0x51
 4083 1122 03       		.byte	0x3
 4084 1123 91       		.byte	0x91
 4085 1124 BC7F     		.sleb128 -68
 4086 1126 25       		.uleb128 0x25
 4087 1127 01       		.byte	0x1
 4088 1128 50       		.byte	0x50
 4089 1129 02       		.byte	0x2
 4090 112a 74       		.byte	0x74
 4091 112b 00       		.sleb128 0
 4092 112c 00       		.byte	0
 4093 112d 24       		.uleb128 0x24
 4094 112e 04040000 		.4byte	.LVL26
 4095 1132 991A0000 		.4byte	0x1a99
 4096 1136 4D110000 		.4byte	0x114d
 4097 113a 25       		.uleb128 0x25
 4098 113b 01       		.byte	0x1
 4099 113c 52       		.byte	0x52
 4100 113d 01       		.byte	0x1
 4101 113e 31       		.byte	0x31
 4102 113f 25       		.uleb128 0x25
 4103 1140 01       		.byte	0x1
 4104 1141 51       		.byte	0x51
 4105 1142 03       		.byte	0x3
 4106 1143 91       		.byte	0x91
 4107 1144 BC7F     		.sleb128 -68
 4108 1146 25       		.uleb128 0x25
 4109 1147 01       		.byte	0x1
 4110 1148 50       		.byte	0x50
 4111 1149 02       		.byte	0x2
 4112 114a 74       		.byte	0x74
 4113 114b 00       		.sleb128 0
 4114 114c 00       		.byte	0
 4115 114d 24       		.uleb128 0x24
 4116 114e 34040000 		.4byte	.LVL27
 4117 1152 991A0000 		.4byte	0x1a99
 4118 1156 6D110000 		.4byte	0x116d
 4119 115a 25       		.uleb128 0x25
 4120 115b 01       		.byte	0x1
ARM GAS  /tmp/ccKcOR50.s 			page 74


 4121 115c 52       		.byte	0x52
 4122 115d 01       		.byte	0x1
 4123 115e 32       		.byte	0x32
 4124 115f 25       		.uleb128 0x25
 4125 1160 01       		.byte	0x1
 4126 1161 51       		.byte	0x51
 4127 1162 03       		.byte	0x3
 4128 1163 91       		.byte	0x91
 4129 1164 BC7F     		.sleb128 -68
 4130 1166 25       		.uleb128 0x25
 4131 1167 01       		.byte	0x1
 4132 1168 50       		.byte	0x50
 4133 1169 02       		.byte	0x2
 4134 116a 74       		.byte	0x74
 4135 116b 00       		.sleb128 0
 4136 116c 00       		.byte	0
 4137 116d 24       		.uleb128 0x24
 4138 116e 4E040000 		.4byte	.LVL28
 4139 1172 991A0000 		.4byte	0x1a99
 4140 1176 8D110000 		.4byte	0x118d
 4141 117a 25       		.uleb128 0x25
 4142 117b 01       		.byte	0x1
 4143 117c 52       		.byte	0x52
 4144 117d 01       		.byte	0x1
 4145 117e 32       		.byte	0x32
 4146 117f 25       		.uleb128 0x25
 4147 1180 01       		.byte	0x1
 4148 1181 51       		.byte	0x51
 4149 1182 03       		.byte	0x3
 4150 1183 91       		.byte	0x91
 4151 1184 BC7F     		.sleb128 -68
 4152 1186 25       		.uleb128 0x25
 4153 1187 01       		.byte	0x1
 4154 1188 50       		.byte	0x50
 4155 1189 02       		.byte	0x2
 4156 118a 74       		.byte	0x74
 4157 118b 00       		.sleb128 0
 4158 118c 00       		.byte	0
 4159 118d 24       		.uleb128 0x24
 4160 118e 70040000 		.4byte	.LVL29
 4161 1192 991A0000 		.4byte	0x1a99
 4162 1196 AD110000 		.4byte	0x11ad
 4163 119a 25       		.uleb128 0x25
 4164 119b 01       		.byte	0x1
 4165 119c 52       		.byte	0x52
 4166 119d 01       		.byte	0x1
 4167 119e 32       		.byte	0x32
 4168 119f 25       		.uleb128 0x25
 4169 11a0 01       		.byte	0x1
 4170 11a1 51       		.byte	0x51
 4171 11a2 03       		.byte	0x3
 4172 11a3 91       		.byte	0x91
 4173 11a4 BC7F     		.sleb128 -68
 4174 11a6 25       		.uleb128 0x25
 4175 11a7 01       		.byte	0x1
 4176 11a8 50       		.byte	0x50
 4177 11a9 02       		.byte	0x2
ARM GAS  /tmp/ccKcOR50.s 			page 75


 4178 11aa 74       		.byte	0x74
 4179 11ab 00       		.sleb128 0
 4180 11ac 00       		.byte	0
 4181 11ad 26       		.uleb128 0x26
 4182 11ae 82040000 		.4byte	.LVL30
 4183 11b2 5E1B0000 		.4byte	0x1b5e
 4184 11b6 27       		.uleb128 0x27
 4185 11b7 BE040000 		.4byte	.LVL31
 4186 11bb 721B0000 		.4byte	0x1b72
 4187 11bf 25       		.uleb128 0x25
 4188 11c0 01       		.byte	0x1
 4189 11c1 51       		.byte	0x51
 4190 11c2 03       		.byte	0x3
 4191 11c3 91       		.byte	0x91
 4192 11c4 BC7F     		.sleb128 -68
 4193 11c6 25       		.uleb128 0x25
 4194 11c7 01       		.byte	0x1
 4195 11c8 50       		.byte	0x50
 4196 11c9 02       		.byte	0x2
 4197 11ca 74       		.byte	0x74
 4198 11cb 00       		.sleb128 0
 4199 11cc 00       		.byte	0
 4200 11cd 00       		.byte	0
 4201 11ce 00       		.byte	0
 4202 11cf 28       		.uleb128 0x28
 4203 11d0 7C0E0000 		.4byte	0xe7c
 4204 11d4 38050000 		.4byte	.LBB15
 4205 11d8 40000000 		.4byte	.Ldebug_ranges0+0x40
 4206 11dc 01       		.byte	0x1
 4207 11dd 2601     		.2byte	0x126
 4208 11df 80140000 		.4byte	0x1480
 4209 11e3 29       		.uleb128 0x29
 4210 11e4 890E0000 		.4byte	0xe89
 4211 11e8 B9000000 		.4byte	.LLST2
 4212 11ec 24       		.uleb128 0x24
 4213 11ed 4C050000 		.4byte	.LVL43
 4214 11f1 A01B0000 		.4byte	0x1ba0
 4215 11f5 00120000 		.4byte	0x1200
 4216 11f9 25       		.uleb128 0x25
 4217 11fa 01       		.byte	0x1
 4218 11fb 51       		.byte	0x51
 4219 11fc 02       		.byte	0x2
 4220 11fd 7A       		.byte	0x7a
 4221 11fe 00       		.sleb128 0
 4222 11ff 00       		.byte	0
 4223 1200 24       		.uleb128 0x24
 4224 1201 5E050000 		.4byte	.LVL44
 4225 1205 A01B0000 		.4byte	0x1ba0
 4226 1209 14120000 		.4byte	0x1214
 4227 120d 25       		.uleb128 0x25
 4228 120e 01       		.byte	0x1
 4229 120f 51       		.byte	0x51
 4230 1210 02       		.byte	0x2
 4231 1211 7A       		.byte	0x7a
 4232 1212 00       		.sleb128 0
 4233 1213 00       		.byte	0
 4234 1214 24       		.uleb128 0x24
ARM GAS  /tmp/ccKcOR50.s 			page 76


 4235 1215 6E050000 		.4byte	.LVL45
 4236 1219 A01B0000 		.4byte	0x1ba0
 4237 121d 28120000 		.4byte	0x1228
 4238 1221 25       		.uleb128 0x25
 4239 1222 01       		.byte	0x1
 4240 1223 51       		.byte	0x51
 4241 1224 02       		.byte	0x2
 4242 1225 7A       		.byte	0x7a
 4243 1226 00       		.sleb128 0
 4244 1227 00       		.byte	0
 4245 1228 24       		.uleb128 0x24
 4246 1229 7E050000 		.4byte	.LVL46
 4247 122d A01B0000 		.4byte	0x1ba0
 4248 1231 3C120000 		.4byte	0x123c
 4249 1235 25       		.uleb128 0x25
 4250 1236 01       		.byte	0x1
 4251 1237 51       		.byte	0x51
 4252 1238 02       		.byte	0x2
 4253 1239 7A       		.byte	0x7a
 4254 123a 00       		.sleb128 0
 4255 123b 00       		.byte	0
 4256 123c 24       		.uleb128 0x24
 4257 123d 8E050000 		.4byte	.LVL47
 4258 1241 A01B0000 		.4byte	0x1ba0
 4259 1245 50120000 		.4byte	0x1250
 4260 1249 25       		.uleb128 0x25
 4261 124a 01       		.byte	0x1
 4262 124b 51       		.byte	0x51
 4263 124c 02       		.byte	0x2
 4264 124d 7A       		.byte	0x7a
 4265 124e 00       		.sleb128 0
 4266 124f 00       		.byte	0
 4267 1250 24       		.uleb128 0x24
 4268 1251 9E050000 		.4byte	.LVL48
 4269 1255 A01B0000 		.4byte	0x1ba0
 4270 1259 64120000 		.4byte	0x1264
 4271 125d 25       		.uleb128 0x25
 4272 125e 01       		.byte	0x1
 4273 125f 51       		.byte	0x51
 4274 1260 02       		.byte	0x2
 4275 1261 7A       		.byte	0x7a
 4276 1262 00       		.sleb128 0
 4277 1263 00       		.byte	0
 4278 1264 24       		.uleb128 0x24
 4279 1265 AE050000 		.4byte	.LVL49
 4280 1269 A01B0000 		.4byte	0x1ba0
 4281 126d 78120000 		.4byte	0x1278
 4282 1271 25       		.uleb128 0x25
 4283 1272 01       		.byte	0x1
 4284 1273 51       		.byte	0x51
 4285 1274 02       		.byte	0x2
 4286 1275 7A       		.byte	0x7a
 4287 1276 00       		.sleb128 0
 4288 1277 00       		.byte	0
 4289 1278 24       		.uleb128 0x24
 4290 1279 BE050000 		.4byte	.LVL50
 4291 127d A01B0000 		.4byte	0x1ba0
ARM GAS  /tmp/ccKcOR50.s 			page 77


 4292 1281 8C120000 		.4byte	0x128c
 4293 1285 25       		.uleb128 0x25
 4294 1286 01       		.byte	0x1
 4295 1287 51       		.byte	0x51
 4296 1288 02       		.byte	0x2
 4297 1289 7A       		.byte	0x7a
 4298 128a 00       		.sleb128 0
 4299 128b 00       		.byte	0
 4300 128c 24       		.uleb128 0x24
 4301 128d CE050000 		.4byte	.LVL51
 4302 1291 A01B0000 		.4byte	0x1ba0
 4303 1295 A0120000 		.4byte	0x12a0
 4304 1299 25       		.uleb128 0x25
 4305 129a 01       		.byte	0x1
 4306 129b 51       		.byte	0x51
 4307 129c 02       		.byte	0x2
 4308 129d 7A       		.byte	0x7a
 4309 129e 00       		.sleb128 0
 4310 129f 00       		.byte	0
 4311 12a0 24       		.uleb128 0x24
 4312 12a1 E0050000 		.4byte	.LVL52
 4313 12a5 A01B0000 		.4byte	0x1ba0
 4314 12a9 B4120000 		.4byte	0x12b4
 4315 12ad 25       		.uleb128 0x25
 4316 12ae 01       		.byte	0x1
 4317 12af 51       		.byte	0x51
 4318 12b0 02       		.byte	0x2
 4319 12b1 7A       		.byte	0x7a
 4320 12b2 00       		.sleb128 0
 4321 12b3 00       		.byte	0
 4322 12b4 24       		.uleb128 0x24
 4323 12b5 E8050000 		.4byte	.LVL53
 4324 12b9 A01B0000 		.4byte	0x1ba0
 4325 12bd C8120000 		.4byte	0x12c8
 4326 12c1 25       		.uleb128 0x25
 4327 12c2 01       		.byte	0x1
 4328 12c3 51       		.byte	0x51
 4329 12c4 02       		.byte	0x2
 4330 12c5 7A       		.byte	0x7a
 4331 12c6 00       		.sleb128 0
 4332 12c7 00       		.byte	0
 4333 12c8 24       		.uleb128 0x24
 4334 12c9 F8050000 		.4byte	.LVL54
 4335 12cd A01B0000 		.4byte	0x1ba0
 4336 12d1 DC120000 		.4byte	0x12dc
 4337 12d5 25       		.uleb128 0x25
 4338 12d6 01       		.byte	0x1
 4339 12d7 51       		.byte	0x51
 4340 12d8 02       		.byte	0x2
 4341 12d9 7A       		.byte	0x7a
 4342 12da 00       		.sleb128 0
 4343 12db 00       		.byte	0
 4344 12dc 24       		.uleb128 0x24
 4345 12dd 08060000 		.4byte	.LVL55
 4346 12e1 A01B0000 		.4byte	0x1ba0
 4347 12e5 F0120000 		.4byte	0x12f0
 4348 12e9 25       		.uleb128 0x25
ARM GAS  /tmp/ccKcOR50.s 			page 78


 4349 12ea 01       		.byte	0x1
 4350 12eb 51       		.byte	0x51
 4351 12ec 02       		.byte	0x2
 4352 12ed 7A       		.byte	0x7a
 4353 12ee 00       		.sleb128 0
 4354 12ef 00       		.byte	0
 4355 12f0 24       		.uleb128 0x24
 4356 12f1 18060000 		.4byte	.LVL56
 4357 12f5 A01B0000 		.4byte	0x1ba0
 4358 12f9 04130000 		.4byte	0x1304
 4359 12fd 25       		.uleb128 0x25
 4360 12fe 01       		.byte	0x1
 4361 12ff 51       		.byte	0x51
 4362 1300 02       		.byte	0x2
 4363 1301 7A       		.byte	0x7a
 4364 1302 00       		.sleb128 0
 4365 1303 00       		.byte	0
 4366 1304 24       		.uleb128 0x24
 4367 1305 2A060000 		.4byte	.LVL57
 4368 1309 A01B0000 		.4byte	0x1ba0
 4369 130d 18130000 		.4byte	0x1318
 4370 1311 25       		.uleb128 0x25
 4371 1312 01       		.byte	0x1
 4372 1313 51       		.byte	0x51
 4373 1314 02       		.byte	0x2
 4374 1315 7A       		.byte	0x7a
 4375 1316 00       		.sleb128 0
 4376 1317 00       		.byte	0
 4377 1318 24       		.uleb128 0x24
 4378 1319 34060000 		.4byte	.LVL58
 4379 131d A01B0000 		.4byte	0x1ba0
 4380 1321 2C130000 		.4byte	0x132c
 4381 1325 25       		.uleb128 0x25
 4382 1326 01       		.byte	0x1
 4383 1327 51       		.byte	0x51
 4384 1328 02       		.byte	0x2
 4385 1329 7A       		.byte	0x7a
 4386 132a 00       		.sleb128 0
 4387 132b 00       		.byte	0
 4388 132c 24       		.uleb128 0x24
 4389 132d 3E060000 		.4byte	.LVL59
 4390 1331 A01B0000 		.4byte	0x1ba0
 4391 1335 40130000 		.4byte	0x1340
 4392 1339 25       		.uleb128 0x25
 4393 133a 01       		.byte	0x1
 4394 133b 51       		.byte	0x51
 4395 133c 02       		.byte	0x2
 4396 133d 7A       		.byte	0x7a
 4397 133e 00       		.sleb128 0
 4398 133f 00       		.byte	0
 4399 1340 24       		.uleb128 0x24
 4400 1341 20090000 		.4byte	.LVL111
 4401 1345 A01B0000 		.4byte	0x1ba0
 4402 1349 53130000 		.4byte	0x1353
 4403 134d 25       		.uleb128 0x25
 4404 134e 01       		.byte	0x1
 4405 134f 51       		.byte	0x51
ARM GAS  /tmp/ccKcOR50.s 			page 79


 4406 1350 01       		.byte	0x1
 4407 1351 31       		.byte	0x31
 4408 1352 00       		.byte	0
 4409 1353 24       		.uleb128 0x24
 4410 1354 2A090000 		.4byte	.LVL112
 4411 1358 A01B0000 		.4byte	0x1ba0
 4412 135c 66130000 		.4byte	0x1366
 4413 1360 25       		.uleb128 0x25
 4414 1361 01       		.byte	0x1
 4415 1362 51       		.byte	0x51
 4416 1363 01       		.byte	0x1
 4417 1364 31       		.byte	0x31
 4418 1365 00       		.byte	0
 4419 1366 24       		.uleb128 0x24
 4420 1367 34090000 		.4byte	.LVL113
 4421 136b A01B0000 		.4byte	0x1ba0
 4422 136f 79130000 		.4byte	0x1379
 4423 1373 25       		.uleb128 0x25
 4424 1374 01       		.byte	0x1
 4425 1375 51       		.byte	0x51
 4426 1376 01       		.byte	0x1
 4427 1377 31       		.byte	0x31
 4428 1378 00       		.byte	0
 4429 1379 24       		.uleb128 0x24
 4430 137a 3E090000 		.4byte	.LVL114
 4431 137e A01B0000 		.4byte	0x1ba0
 4432 1382 8C130000 		.4byte	0x138c
 4433 1386 25       		.uleb128 0x25
 4434 1387 01       		.byte	0x1
 4435 1388 51       		.byte	0x51
 4436 1389 01       		.byte	0x1
 4437 138a 31       		.byte	0x31
 4438 138b 00       		.byte	0
 4439 138c 24       		.uleb128 0x24
 4440 138d 48090000 		.4byte	.LVL115
 4441 1391 A01B0000 		.4byte	0x1ba0
 4442 1395 9F130000 		.4byte	0x139f
 4443 1399 25       		.uleb128 0x25
 4444 139a 01       		.byte	0x1
 4445 139b 51       		.byte	0x51
 4446 139c 01       		.byte	0x1
 4447 139d 31       		.byte	0x31
 4448 139e 00       		.byte	0
 4449 139f 24       		.uleb128 0x24
 4450 13a0 58090000 		.4byte	.LVL116
 4451 13a4 A01B0000 		.4byte	0x1ba0
 4452 13a8 B2130000 		.4byte	0x13b2
 4453 13ac 25       		.uleb128 0x25
 4454 13ad 01       		.byte	0x1
 4455 13ae 51       		.byte	0x51
 4456 13af 01       		.byte	0x1
 4457 13b0 31       		.byte	0x31
 4458 13b1 00       		.byte	0
 4459 13b2 24       		.uleb128 0x24
 4460 13b3 62090000 		.4byte	.LVL117
 4461 13b7 A01B0000 		.4byte	0x1ba0
 4462 13bb C5130000 		.4byte	0x13c5
ARM GAS  /tmp/ccKcOR50.s 			page 80


 4463 13bf 25       		.uleb128 0x25
 4464 13c0 01       		.byte	0x1
 4465 13c1 51       		.byte	0x51
 4466 13c2 01       		.byte	0x1
 4467 13c3 31       		.byte	0x31
 4468 13c4 00       		.byte	0
 4469 13c5 24       		.uleb128 0x24
 4470 13c6 6C090000 		.4byte	.LVL118
 4471 13ca A01B0000 		.4byte	0x1ba0
 4472 13ce D8130000 		.4byte	0x13d8
 4473 13d2 25       		.uleb128 0x25
 4474 13d3 01       		.byte	0x1
 4475 13d4 51       		.byte	0x51
 4476 13d5 01       		.byte	0x1
 4477 13d6 31       		.byte	0x31
 4478 13d7 00       		.byte	0
 4479 13d8 24       		.uleb128 0x24
 4480 13d9 76090000 		.4byte	.LVL119
 4481 13dd A01B0000 		.4byte	0x1ba0
 4482 13e1 EB130000 		.4byte	0x13eb
 4483 13e5 25       		.uleb128 0x25
 4484 13e6 01       		.byte	0x1
 4485 13e7 51       		.byte	0x51
 4486 13e8 01       		.byte	0x1
 4487 13e9 31       		.byte	0x31
 4488 13ea 00       		.byte	0
 4489 13eb 24       		.uleb128 0x24
 4490 13ec 8C090000 		.4byte	.LVL120
 4491 13f0 A01B0000 		.4byte	0x1ba0
 4492 13f4 FE130000 		.4byte	0x13fe
 4493 13f8 25       		.uleb128 0x25
 4494 13f9 01       		.byte	0x1
 4495 13fa 51       		.byte	0x51
 4496 13fb 01       		.byte	0x1
 4497 13fc 31       		.byte	0x31
 4498 13fd 00       		.byte	0
 4499 13fe 24       		.uleb128 0x24
 4500 13ff 96090000 		.4byte	.LVL121
 4501 1403 A01B0000 		.4byte	0x1ba0
 4502 1407 11140000 		.4byte	0x1411
 4503 140b 25       		.uleb128 0x25
 4504 140c 01       		.byte	0x1
 4505 140d 51       		.byte	0x51
 4506 140e 01       		.byte	0x1
 4507 140f 31       		.byte	0x31
 4508 1410 00       		.byte	0
 4509 1411 24       		.uleb128 0x24
 4510 1412 A0090000 		.4byte	.LVL122
 4511 1416 A01B0000 		.4byte	0x1ba0
 4512 141a 24140000 		.4byte	0x1424
 4513 141e 25       		.uleb128 0x25
 4514 141f 01       		.byte	0x1
 4515 1420 51       		.byte	0x51
 4516 1421 01       		.byte	0x1
 4517 1422 31       		.byte	0x31
 4518 1423 00       		.byte	0
 4519 1424 24       		.uleb128 0x24
ARM GAS  /tmp/ccKcOR50.s 			page 81


 4520 1425 AA090000 		.4byte	.LVL123
 4521 1429 A01B0000 		.4byte	0x1ba0
 4522 142d 37140000 		.4byte	0x1437
 4523 1431 25       		.uleb128 0x25
 4524 1432 01       		.byte	0x1
 4525 1433 51       		.byte	0x51
 4526 1434 01       		.byte	0x1
 4527 1435 31       		.byte	0x31
 4528 1436 00       		.byte	0
 4529 1437 24       		.uleb128 0x24
 4530 1438 C0090000 		.4byte	.LVL124
 4531 143c A01B0000 		.4byte	0x1ba0
 4532 1440 4A140000 		.4byte	0x144a
 4533 1444 25       		.uleb128 0x25
 4534 1445 01       		.byte	0x1
 4535 1446 51       		.byte	0x51
 4536 1447 01       		.byte	0x1
 4537 1448 31       		.byte	0x31
 4538 1449 00       		.byte	0
 4539 144a 24       		.uleb128 0x24
 4540 144b CA090000 		.4byte	.LVL125
 4541 144f A01B0000 		.4byte	0x1ba0
 4542 1453 5D140000 		.4byte	0x145d
 4543 1457 25       		.uleb128 0x25
 4544 1458 01       		.byte	0x1
 4545 1459 51       		.byte	0x51
 4546 145a 01       		.byte	0x1
 4547 145b 31       		.byte	0x31
 4548 145c 00       		.byte	0
 4549 145d 24       		.uleb128 0x24
 4550 145e DC090000 		.4byte	.LVL127
 4551 1462 A01B0000 		.4byte	0x1ba0
 4552 1466 70140000 		.4byte	0x1470
 4553 146a 25       		.uleb128 0x25
 4554 146b 01       		.byte	0x1
 4555 146c 51       		.byte	0x51
 4556 146d 01       		.byte	0x1
 4557 146e 31       		.byte	0x31
 4558 146f 00       		.byte	0
 4559 1470 27       		.uleb128 0x27
 4560 1471 EC090000 		.4byte	.LVL129
 4561 1475 A01B0000 		.4byte	0x1ba0
 4562 1479 25       		.uleb128 0x25
 4563 147a 01       		.byte	0x1
 4564 147b 51       		.byte	0x51
 4565 147c 01       		.byte	0x1
 4566 147d 31       		.byte	0x31
 4567 147e 00       		.byte	0
 4568 147f 00       		.byte	0
 4569 1480 28       		.uleb128 0x28
 4570 1481 630E0000 		.4byte	0xe63
 4571 1485 52070000 		.4byte	.LBB20
 4572 1489 60000000 		.4byte	.Ldebug_ranges0+0x60
 4573 148d 01       		.byte	0x1
 4574 148e 1901     		.2byte	0x119
 4575 1490 DA150000 		.4byte	0x15da
 4576 1494 29       		.uleb128 0x29
ARM GAS  /tmp/ccKcOR50.s 			page 82


 4577 1495 700E0000 		.4byte	0xe70
 4578 1499 E2000000 		.4byte	.LLST3
 4579 149d 24       		.uleb128 0x24
 4580 149e 66070000 		.4byte	.LVL74
 4581 14a2 BA1B0000 		.4byte	0x1bba
 4582 14a6 B1140000 		.4byte	0x14b1
 4583 14aa 25       		.uleb128 0x25
 4584 14ab 01       		.byte	0x1
 4585 14ac 51       		.byte	0x51
 4586 14ad 02       		.byte	0x2
 4587 14ae 74       		.byte	0x74
 4588 14af 00       		.sleb128 0
 4589 14b0 00       		.byte	0
 4590 14b1 24       		.uleb128 0x24
 4591 14b2 76070000 		.4byte	.LVL75
 4592 14b6 BA1B0000 		.4byte	0x1bba
 4593 14ba C5140000 		.4byte	0x14c5
 4594 14be 25       		.uleb128 0x25
 4595 14bf 01       		.byte	0x1
 4596 14c0 51       		.byte	0x51
 4597 14c1 02       		.byte	0x2
 4598 14c2 74       		.byte	0x74
 4599 14c3 00       		.sleb128 0
 4600 14c4 00       		.byte	0
 4601 14c5 24       		.uleb128 0x24
 4602 14c6 8E070000 		.4byte	.LVL76
 4603 14ca BA1B0000 		.4byte	0x1bba
 4604 14ce D9140000 		.4byte	0x14d9
 4605 14d2 25       		.uleb128 0x25
 4606 14d3 01       		.byte	0x1
 4607 14d4 51       		.byte	0x51
 4608 14d5 02       		.byte	0x2
 4609 14d6 74       		.byte	0x74
 4610 14d7 00       		.sleb128 0
 4611 14d8 00       		.byte	0
 4612 14d9 24       		.uleb128 0x24
 4613 14da 98070000 		.4byte	.LVL77
 4614 14de BA1B0000 		.4byte	0x1bba
 4615 14e2 ED140000 		.4byte	0x14ed
 4616 14e6 25       		.uleb128 0x25
 4617 14e7 01       		.byte	0x1
 4618 14e8 51       		.byte	0x51
 4619 14e9 02       		.byte	0x2
 4620 14ea 74       		.byte	0x74
 4621 14eb 00       		.sleb128 0
 4622 14ec 00       		.byte	0
 4623 14ed 24       		.uleb128 0x24
 4624 14ee A8070000 		.4byte	.LVL78
 4625 14f2 BA1B0000 		.4byte	0x1bba
 4626 14f6 01150000 		.4byte	0x1501
 4627 14fa 25       		.uleb128 0x25
 4628 14fb 01       		.byte	0x1
 4629 14fc 51       		.byte	0x51
 4630 14fd 02       		.byte	0x2
 4631 14fe 74       		.byte	0x74
 4632 14ff 00       		.sleb128 0
 4633 1500 00       		.byte	0
ARM GAS  /tmp/ccKcOR50.s 			page 83


 4634 1501 24       		.uleb128 0x24
 4635 1502 B8070000 		.4byte	.LVL79
 4636 1506 BA1B0000 		.4byte	0x1bba
 4637 150a 15150000 		.4byte	0x1515
 4638 150e 25       		.uleb128 0x25
 4639 150f 01       		.byte	0x1
 4640 1510 51       		.byte	0x51
 4641 1511 02       		.byte	0x2
 4642 1512 74       		.byte	0x74
 4643 1513 00       		.sleb128 0
 4644 1514 00       		.byte	0
 4645 1515 24       		.uleb128 0x24
 4646 1516 C8070000 		.4byte	.LVL80
 4647 151a BA1B0000 		.4byte	0x1bba
 4648 151e 29150000 		.4byte	0x1529
 4649 1522 25       		.uleb128 0x25
 4650 1523 01       		.byte	0x1
 4651 1524 51       		.byte	0x51
 4652 1525 02       		.byte	0x2
 4653 1526 74       		.byte	0x74
 4654 1527 00       		.sleb128 0
 4655 1528 00       		.byte	0
 4656 1529 24       		.uleb128 0x24
 4657 152a DA070000 		.4byte	.LVL81
 4658 152e BA1B0000 		.4byte	0x1bba
 4659 1532 3D150000 		.4byte	0x153d
 4660 1536 25       		.uleb128 0x25
 4661 1537 01       		.byte	0x1
 4662 1538 51       		.byte	0x51
 4663 1539 02       		.byte	0x2
 4664 153a 74       		.byte	0x74
 4665 153b 00       		.sleb128 0
 4666 153c 00       		.byte	0
 4667 153d 24       		.uleb128 0x24
 4668 153e EA070000 		.4byte	.LVL82
 4669 1542 BA1B0000 		.4byte	0x1bba
 4670 1546 51150000 		.4byte	0x1551
 4671 154a 25       		.uleb128 0x25
 4672 154b 01       		.byte	0x1
 4673 154c 51       		.byte	0x51
 4674 154d 02       		.byte	0x2
 4675 154e 74       		.byte	0x74
 4676 154f 00       		.sleb128 0
 4677 1550 00       		.byte	0
 4678 1551 24       		.uleb128 0x24
 4679 1552 FA070000 		.4byte	.LVL83
 4680 1556 BA1B0000 		.4byte	0x1bba
 4681 155a 65150000 		.4byte	0x1565
 4682 155e 25       		.uleb128 0x25
 4683 155f 01       		.byte	0x1
 4684 1560 51       		.byte	0x51
 4685 1561 02       		.byte	0x2
 4686 1562 74       		.byte	0x74
 4687 1563 00       		.sleb128 0
 4688 1564 00       		.byte	0
 4689 1565 24       		.uleb128 0x24
 4690 1566 0A080000 		.4byte	.LVL84
ARM GAS  /tmp/ccKcOR50.s 			page 84


 4691 156a BA1B0000 		.4byte	0x1bba
 4692 156e 79150000 		.4byte	0x1579
 4693 1572 25       		.uleb128 0x25
 4694 1573 01       		.byte	0x1
 4695 1574 51       		.byte	0x51
 4696 1575 02       		.byte	0x2
 4697 1576 74       		.byte	0x74
 4698 1577 00       		.sleb128 0
 4699 1578 00       		.byte	0
 4700 1579 24       		.uleb128 0x24
 4701 157a 1C080000 		.4byte	.LVL85
 4702 157e BA1B0000 		.4byte	0x1bba
 4703 1582 8D150000 		.4byte	0x158d
 4704 1586 25       		.uleb128 0x25
 4705 1587 01       		.byte	0x1
 4706 1588 51       		.byte	0x51
 4707 1589 02       		.byte	0x2
 4708 158a 74       		.byte	0x74
 4709 158b 00       		.sleb128 0
 4710 158c 00       		.byte	0
 4711 158d 24       		.uleb128 0x24
 4712 158e 2C080000 		.4byte	.LVL86
 4713 1592 BA1B0000 		.4byte	0x1bba
 4714 1596 A1150000 		.4byte	0x15a1
 4715 159a 25       		.uleb128 0x25
 4716 159b 01       		.byte	0x1
 4717 159c 51       		.byte	0x51
 4718 159d 02       		.byte	0x2
 4719 159e 74       		.byte	0x74
 4720 159f 00       		.sleb128 0
 4721 15a0 00       		.byte	0
 4722 15a1 24       		.uleb128 0x24
 4723 15a2 3C080000 		.4byte	.LVL87
 4724 15a6 BA1B0000 		.4byte	0x1bba
 4725 15aa B5150000 		.4byte	0x15b5
 4726 15ae 25       		.uleb128 0x25
 4727 15af 01       		.byte	0x1
 4728 15b0 51       		.byte	0x51
 4729 15b1 02       		.byte	0x2
 4730 15b2 74       		.byte	0x74
 4731 15b3 00       		.sleb128 0
 4732 15b4 00       		.byte	0
 4733 15b5 24       		.uleb128 0x24
 4734 15b6 46080000 		.4byte	.LVL88
 4735 15ba BA1B0000 		.4byte	0x1bba
 4736 15be C9150000 		.4byte	0x15c9
 4737 15c2 25       		.uleb128 0x25
 4738 15c3 01       		.byte	0x1
 4739 15c4 51       		.byte	0x51
 4740 15c5 02       		.byte	0x2
 4741 15c6 74       		.byte	0x74
 4742 15c7 00       		.sleb128 0
 4743 15c8 00       		.byte	0
 4744 15c9 27       		.uleb128 0x27
 4745 15ca 50080000 		.4byte	.LVL89
 4746 15ce BA1B0000 		.4byte	0x1bba
 4747 15d2 25       		.uleb128 0x25
ARM GAS  /tmp/ccKcOR50.s 			page 85


 4748 15d3 01       		.byte	0x1
 4749 15d4 51       		.byte	0x51
 4750 15d5 02       		.byte	0x2
 4751 15d6 74       		.byte	0x74
 4752 15d7 00       		.sleb128 0
 4753 15d8 00       		.byte	0
 4754 15d9 00       		.byte	0
 4755 15da 2A       		.uleb128 0x2a
 4756 15db 78000000 		.4byte	.Ldebug_ranges0+0x78
 4757 15df 63160000 		.4byte	0x1663
 4758 15e3 2B       		.uleb128 0x2b
 4759 15e4 41090000 		.4byte	.LASF146
 4760 15e8 01       		.byte	0x1
 4761 15e9 3501     		.2byte	0x135
 4762 15eb F80B0000 		.4byte	0xbf8
 4763 15ef F5000000 		.4byte	.LLST4
 4764 15f3 24       		.uleb128 0x24
 4765 15f4 A2080000 		.4byte	.LVL101
 4766 15f8 D41B0000 		.4byte	0x1bd4
 4767 15fc 0A160000 		.4byte	0x160a
 4768 1600 25       		.uleb128 0x25
 4769 1601 01       		.byte	0x1
 4770 1602 51       		.byte	0x51
 4771 1603 05       		.byte	0x5
 4772 1604 03       		.byte	0x3
 4773 1605 0C010000 		.4byte	.LC36
 4774 1609 00       		.byte	0
 4775 160a 24       		.uleb128 0x24
 4776 160b CA080000 		.4byte	.LVL104
 4777 160f EE1B0000 		.4byte	0x1bee
 4778 1613 22160000 		.4byte	0x1622
 4779 1617 25       		.uleb128 0x25
 4780 1618 01       		.byte	0x1
 4781 1619 51       		.byte	0x51
 4782 161a 01       		.byte	0x1
 4783 161b 30       		.byte	0x30
 4784 161c 25       		.uleb128 0x25
 4785 161d 01       		.byte	0x1
 4786 161e 50       		.byte	0x50
 4787 161f 01       		.byte	0x1
 4788 1620 30       		.byte	0x30
 4789 1621 00       		.byte	0
 4790 1622 24       		.uleb128 0x24
 4791 1623 E8080000 		.4byte	.LVL105
 4792 1627 121C0000 		.4byte	0x1c12
 4793 162b 3A160000 		.4byte	0x163a
 4794 162f 25       		.uleb128 0x25
 4795 1630 01       		.byte	0x1
 4796 1631 51       		.byte	0x51
 4797 1632 01       		.byte	0x1
 4798 1633 30       		.byte	0x30
 4799 1634 25       		.uleb128 0x25
 4800 1635 01       		.byte	0x1
 4801 1636 50       		.byte	0x50
 4802 1637 01       		.byte	0x1
 4803 1638 30       		.byte	0x30
 4804 1639 00       		.byte	0
ARM GAS  /tmp/ccKcOR50.s 			page 86


 4805 163a 24       		.uleb128 0x24
 4806 163b 08090000 		.4byte	.LVL106
 4807 163f 121C0000 		.4byte	0x1c12
 4808 1643 4D160000 		.4byte	0x164d
 4809 1647 25       		.uleb128 0x25
 4810 1648 01       		.byte	0x1
 4811 1649 50       		.byte	0x50
 4812 164a 01       		.byte	0x1
 4813 164b 30       		.byte	0x30
 4814 164c 00       		.byte	0
 4815 164d 27       		.uleb128 0x27
 4816 164e 10090000 		.4byte	.LVL107
 4817 1652 3B1C0000 		.4byte	0x1c3b
 4818 1656 25       		.uleb128 0x25
 4819 1657 01       		.byte	0x1
 4820 1658 51       		.byte	0x51
 4821 1659 01       		.byte	0x1
 4822 165a 31       		.byte	0x31
 4823 165b 25       		.uleb128 0x25
 4824 165c 01       		.byte	0x1
 4825 165d 50       		.byte	0x50
 4826 165e 02       		.byte	0x2
 4827 165f 74       		.byte	0x74
 4828 1660 00       		.sleb128 0
 4829 1661 00       		.byte	0
 4830 1662 00       		.byte	0
 4831 1663 26       		.uleb128 0x26
 4832 1664 0A000000 		.4byte	.LVL0
 4833 1668 541C0000 		.4byte	0x1c54
 4834 166c 24       		.uleb128 0x24
 4835 166d 1E000000 		.4byte	.LVL1
 4836 1671 5E1C0000 		.4byte	0x1c5e
 4837 1675 83160000 		.4byte	0x1683
 4838 1679 25       		.uleb128 0x25
 4839 167a 01       		.byte	0x1
 4840 167b 50       		.byte	0x50
 4841 167c 05       		.byte	0x5
 4842 167d 03       		.byte	0x3
 4843 167e 24000000 		.4byte	.LC4
 4844 1682 00       		.byte	0
 4845 1683 26       		.uleb128 0x26
 4846 1684 22000000 		.4byte	.LVL2
 4847 1688 771C0000 		.4byte	0x1c77
 4848 168c 24       		.uleb128 0x24
 4849 168d 2A000000 		.4byte	.LVL3
 4850 1691 3B1C0000 		.4byte	0x1c3b
 4851 1695 9F160000 		.4byte	0x169f
 4852 1699 25       		.uleb128 0x25
 4853 169a 01       		.byte	0x1
 4854 169b 51       		.byte	0x51
 4855 169c 01       		.byte	0x1
 4856 169d 30       		.byte	0x30
 4857 169e 00       		.byte	0
 4858 169f 24       		.uleb128 0x24
 4859 16a0 32000000 		.4byte	.LVL4
 4860 16a4 8B1C0000 		.4byte	0x1c8b
 4861 16a8 B3160000 		.4byte	0x16b3
ARM GAS  /tmp/ccKcOR50.s 			page 87


 4862 16ac 25       		.uleb128 0x25
 4863 16ad 01       		.byte	0x1
 4864 16ae 50       		.byte	0x50
 4865 16af 02       		.byte	0x2
 4866 16b0 09       		.byte	0x9
 4867 16b1 FF       		.byte	0xff
 4868 16b2 00       		.byte	0
 4869 16b3 24       		.uleb128 0x24
 4870 16b4 38000000 		.4byte	.LVL5
 4871 16b8 A01C0000 		.4byte	0x1ca0
 4872 16bc C6160000 		.4byte	0x16c6
 4873 16c0 25       		.uleb128 0x25
 4874 16c1 01       		.byte	0x1
 4875 16c2 50       		.byte	0x50
 4876 16c3 01       		.byte	0x1
 4877 16c4 30       		.byte	0x30
 4878 16c5 00       		.byte	0
 4879 16c6 24       		.uleb128 0x24
 4880 16c7 D2040000 		.4byte	.LVL32
 4881 16cb A01B0000 		.4byte	0x1ba0
 4882 16cf D9160000 		.4byte	0x16d9
 4883 16d3 25       		.uleb128 0x25
 4884 16d4 01       		.byte	0x1
 4885 16d5 51       		.byte	0x51
 4886 16d6 01       		.byte	0x1
 4887 16d7 31       		.byte	0x31
 4888 16d8 00       		.byte	0
 4889 16d9 26       		.uleb128 0x26
 4890 16da D8040000 		.4byte	.LVL33
 4891 16de B81C0000 		.4byte	0x1cb8
 4892 16e2 24       		.uleb128 0x24
 4893 16e3 E2040000 		.4byte	.LVL34
 4894 16e7 CD1C0000 		.4byte	0x1ccd
 4895 16eb F9160000 		.4byte	0x16f9
 4896 16ef 25       		.uleb128 0x25
 4897 16f0 01       		.byte	0x1
 4898 16f1 50       		.byte	0x50
 4899 16f2 05       		.byte	0x5
 4900 16f3 03       		.byte	0x3
 4901 16f4 00000000 		.4byte	.LANCHOR26
 4902 16f8 00       		.byte	0
 4903 16f9 24       		.uleb128 0x24
 4904 16fa E8040000 		.4byte	.LVL35
 4905 16fe E11C0000 		.4byte	0x1ce1
 4906 1702 10170000 		.4byte	0x1710
 4907 1706 25       		.uleb128 0x25
 4908 1707 01       		.byte	0x1
 4909 1708 50       		.byte	0x50
 4910 1709 05       		.byte	0x5
 4911 170a 03       		.byte	0x3
 4912 170b 00000000 		.4byte	.LANCHOR26
 4913 170f 00       		.byte	0
 4914 1710 26       		.uleb128 0x26
 4915 1711 EE040000 		.4byte	.LVL36
 4916 1715 5E1B0000 		.4byte	0x1b5e
 4917 1719 24       		.uleb128 0x24
 4918 171a F8040000 		.4byte	.LVL37
ARM GAS  /tmp/ccKcOR50.s 			page 88


 4919 171e F91C0000 		.4byte	0x1cf9
 4920 1722 36170000 		.4byte	0x1736
 4921 1726 25       		.uleb128 0x25
 4922 1727 01       		.byte	0x1
 4923 1728 51       		.byte	0x51
 4924 1729 02       		.byte	0x2
 4925 172a 09       		.byte	0x9
 4926 172b FF       		.byte	0xff
 4927 172c 25       		.uleb128 0x25
 4928 172d 01       		.byte	0x1
 4929 172e 50       		.byte	0x50
 4930 172f 05       		.byte	0x5
 4931 1730 03       		.byte	0x3
 4932 1731 00000000 		.4byte	.LANCHOR26
 4933 1735 00       		.byte	0
 4934 1736 26       		.uleb128 0x26
 4935 1737 20050000 		.4byte	.LVL40
 4936 173b 161D0000 		.4byte	0x1d16
 4937 173f 24       		.uleb128 0x24
 4938 1740 2C050000 		.4byte	.LVL41
 4939 1744 D41B0000 		.4byte	0x1bd4
 4940 1748 62170000 		.4byte	0x1762
 4941 174c 25       		.uleb128 0x25
 4942 174d 01       		.byte	0x1
 4943 174e 52       		.byte	0x52
 4944 174f 02       		.byte	0x2
 4945 1750 7A       		.byte	0x7a
 4946 1751 00       		.sleb128 0
 4947 1752 25       		.uleb128 0x25
 4948 1753 01       		.byte	0x1
 4949 1754 51       		.byte	0x51
 4950 1755 05       		.byte	0x5
 4951 1756 03       		.byte	0x3
 4952 1757 D4000000 		.4byte	.LC33
 4953 175b 25       		.uleb128 0x25
 4954 175c 01       		.byte	0x1
 4955 175d 50       		.byte	0x50
 4956 175e 02       		.byte	0x2
 4957 175f 7B       		.byte	0x7b
 4958 1760 00       		.sleb128 0
 4959 1761 00       		.byte	0
 4960 1762 24       		.uleb128 0x24
 4961 1763 A4060000 		.4byte	.LVL62
 4962 1767 D41B0000 		.4byte	0x1bd4
 4963 176b 79170000 		.4byte	0x1779
 4964 176f 25       		.uleb128 0x25
 4965 1770 01       		.byte	0x1
 4966 1771 51       		.byte	0x51
 4967 1772 05       		.byte	0x5
 4968 1773 03       		.byte	0x3
 4969 1774 E8000000 		.4byte	.LC34
 4970 1778 00       		.byte	0
 4971 1779 24       		.uleb128 0x24
 4972 177a AC060000 		.4byte	.LVL63
 4973 177e 2E1D0000 		.4byte	0x1d2e
 4974 1782 8E170000 		.4byte	0x178e
 4975 1786 25       		.uleb128 0x25
ARM GAS  /tmp/ccKcOR50.s 			page 89


 4976 1787 01       		.byte	0x1
 4977 1788 50       		.byte	0x50
 4978 1789 03       		.byte	0x3
 4979 178a 0A       		.byte	0xa
 4980 178b E803     		.2byte	0x3e8
 4981 178d 00       		.byte	0
 4982 178e 24       		.uleb128 0x24
 4983 178f BE060000 		.4byte	.LVL64
 4984 1793 421D0000 		.4byte	0x1d42
 4985 1797 AA170000 		.4byte	0x17aa
 4986 179b 25       		.uleb128 0x25
 4987 179c 01       		.byte	0x1
 4988 179d 52       		.byte	0x52
 4989 179e 01       		.byte	0x1
 4990 179f 30       		.byte	0x30
 4991 17a0 25       		.uleb128 0x25
 4992 17a1 01       		.byte	0x1
 4993 17a2 51       		.byte	0x51
 4994 17a3 05       		.byte	0x5
 4995 17a4 03       		.byte	0x3
 4996 17a5 FC000000 		.4byte	.LC35
 4997 17a9 00       		.byte	0
 4998 17aa 24       		.uleb128 0x24
 4999 17ab C6060000 		.4byte	.LVL65
 5000 17af 2E1D0000 		.4byte	0x1d2e
 5001 17b3 BF170000 		.4byte	0x17bf
 5002 17b7 25       		.uleb128 0x25
 5003 17b8 01       		.byte	0x1
 5004 17b9 50       		.byte	0x50
 5005 17ba 03       		.byte	0x3
 5006 17bb 0A       		.byte	0xa
 5007 17bc E803     		.2byte	0x3e8
 5008 17be 00       		.byte	0
 5009 17bf 24       		.uleb128 0x24
 5010 17c0 D8060000 		.4byte	.LVL66
 5011 17c4 421D0000 		.4byte	0x1d42
 5012 17c8 DB170000 		.4byte	0x17db
 5013 17cc 25       		.uleb128 0x25
 5014 17cd 01       		.byte	0x1
 5015 17ce 52       		.byte	0x52
 5016 17cf 01       		.byte	0x1
 5017 17d0 30       		.byte	0x30
 5018 17d1 25       		.uleb128 0x25
 5019 17d2 01       		.byte	0x1
 5020 17d3 51       		.byte	0x51
 5021 17d4 05       		.byte	0x5
 5022 17d5 03       		.byte	0x3
 5023 17d6 78000000 		.4byte	.LC23
 5024 17da 00       		.byte	0
 5025 17db 26       		.uleb128 0x26
 5026 17dc 12070000 		.4byte	.LVL69
 5027 17e0 161D0000 		.4byte	0x1d16
 5028 17e4 24       		.uleb128 0x24
 5029 17e5 2E070000 		.4byte	.LVL70
 5030 17e9 D41B0000 		.4byte	0x1bd4
 5031 17ed 01180000 		.4byte	0x1801
 5032 17f1 25       		.uleb128 0x25
ARM GAS  /tmp/ccKcOR50.s 			page 90


 5033 17f2 01       		.byte	0x1
 5034 17f3 51       		.byte	0x51
 5035 17f4 05       		.byte	0x5
 5036 17f5 03       		.byte	0x3
 5037 17f6 BC000000 		.4byte	.LC31
 5038 17fa 25       		.uleb128 0x25
 5039 17fb 01       		.byte	0x1
 5040 17fc 50       		.byte	0x50
 5041 17fd 02       		.byte	0x2
 5042 17fe 7A       		.byte	0x7a
 5043 17ff 00       		.sleb128 0
 5044 1800 00       		.byte	0
 5045 1801 24       		.uleb128 0x24
 5046 1802 50070000 		.4byte	.LVL71
 5047 1806 D41B0000 		.4byte	0x1bd4
 5048 180a 2F180000 		.4byte	0x182f
 5049 180e 25       		.uleb128 0x25
 5050 180f 01       		.byte	0x1
 5051 1810 52       		.byte	0x52
 5052 1811 13       		.byte	0x13
 5053 1812 03       		.byte	0x3
 5054 1813 1C000000 		.4byte	.LC3
 5055 1817 03       		.byte	0x3
 5056 1818 14000000 		.4byte	.LC2
 5057 181c 7B       		.byte	0x7b
 5058 181d 00       		.sleb128 0
 5059 181e 30       		.byte	0x30
 5060 181f 29       		.byte	0x29
 5061 1820 28       		.byte	0x28
 5062 1821 0100     		.2byte	0x1
 5063 1823 16       		.byte	0x16
 5064 1824 13       		.byte	0x13
 5065 1825 25       		.uleb128 0x25
 5066 1826 01       		.byte	0x1
 5067 1827 51       		.byte	0x51
 5068 1828 05       		.byte	0x5
 5069 1829 03       		.byte	0x3
 5070 182a CC000000 		.4byte	.LC32
 5071 182e 00       		.byte	0
 5072 182f 26       		.uleb128 0x26
 5073 1830 5C080000 		.4byte	.LVL92
 5074 1834 161D0000 		.4byte	0x1d16
 5075 1838 24       		.uleb128 0x24
 5076 1839 66080000 		.4byte	.LVL93
 5077 183d D41B0000 		.4byte	0x1bd4
 5078 1841 55180000 		.4byte	0x1855
 5079 1845 25       		.uleb128 0x25
 5080 1846 01       		.byte	0x1
 5081 1847 51       		.byte	0x51
 5082 1848 05       		.byte	0x5
 5083 1849 03       		.byte	0x3
 5084 184a A0000000 		.4byte	.LC29
 5085 184e 25       		.uleb128 0x25
 5086 184f 01       		.byte	0x1
 5087 1850 50       		.byte	0x50
 5088 1851 02       		.byte	0x2
 5089 1852 7A       		.byte	0x7a
ARM GAS  /tmp/ccKcOR50.s 			page 91


 5090 1853 00       		.sleb128 0
 5091 1854 00       		.byte	0
 5092 1855 24       		.uleb128 0x24
 5093 1856 70080000 		.4byte	.LVL96
 5094 185a D41B0000 		.4byte	0x1bd4
 5095 185e 6C180000 		.4byte	0x186c
 5096 1862 25       		.uleb128 0x25
 5097 1863 01       		.byte	0x1
 5098 1864 51       		.byte	0x51
 5099 1865 05       		.byte	0x5
 5100 1866 03       		.byte	0x3
 5101 1867 24010000 		.4byte	.LC37
 5102 186b 00       		.byte	0
 5103 186c 26       		.uleb128 0x26
 5104 186d 7C080000 		.4byte	.LVL99
 5105 1871 161D0000 		.4byte	0x1d16
 5106 1875 27       		.uleb128 0x27
 5107 1876 88080000 		.4byte	.LVL100
 5108 187a D41B0000 		.4byte	0x1bd4
 5109 187e 25       		.uleb128 0x25
 5110 187f 01       		.byte	0x1
 5111 1880 51       		.byte	0x51
 5112 1881 05       		.byte	0x5
 5113 1882 03       		.byte	0x3
 5114 1883 AC000000 		.4byte	.LC30
 5115 1887 25       		.uleb128 0x25
 5116 1888 01       		.byte	0x1
 5117 1889 50       		.byte	0x50
 5118 188a 02       		.byte	0x2
 5119 188b 7B       		.byte	0x7b
 5120 188c 00       		.sleb128 0
 5121 188d 00       		.byte	0
 5122 188e 00       		.byte	0
 5123 188f 2C       		.uleb128 0x2c
 5124 1890 21010000 		.4byte	.LASF172
 5125 1894 01       		.byte	0x1
 5126 1895 2A       		.byte	0x2a
 5127 1896 FE0B0000 		.4byte	0xbfe
 5128 189a 05       		.byte	0x5
 5129 189b 03       		.byte	0x3
 5130 189c 00000000 		.4byte	YellowWidgetStyle
 5131 18a0 2D       		.uleb128 0x2d
 5132 18a1 676C00   		.ascii	"gl\000"
 5133 18a4 01       		.byte	0x1
 5134 18a5 47       		.byte	0x47
 5135 18a6 6C060000 		.4byte	0x66c
 5136 18aa 05       		.byte	0x5
 5137 18ab 03       		.byte	0x3
 5138 18ac 00000000 		.4byte	gl
 5139 18b0 2C       		.uleb128 0x2c
 5140 18b1 AC080000 		.4byte	.LASF173
 5141 18b5 01       		.byte	0x1
 5142 18b6 48       		.byte	0x48
 5143 18b7 230A0000 		.4byte	0xa23
 5144 18bb 05       		.byte	0x5
 5145 18bc 03       		.byte	0x3
 5146 18bd 00000000 		.4byte	ghConsole
ARM GAS  /tmp/ccKcOR50.s 			page 92


 5147 18c1 2C       		.uleb128 0x2c
 5148 18c2 FD090000 		.4byte	.LASF174
 5149 18c6 01       		.byte	0x1
 5150 18c7 49       		.byte	0x49
 5151 18c8 230A0000 		.4byte	0xa23
 5152 18cc 05       		.byte	0x5
 5153 18cd 03       		.byte	0x3
 5154 18ce 00000000 		.4byte	ghTabButtons
 5155 18d2 2C       		.uleb128 0x2c
 5156 18d3 C5040000 		.4byte	.LASF175
 5157 18d7 01       		.byte	0x1
 5158 18d8 49       		.byte	0x49
 5159 18d9 230A0000 		.4byte	0xa23
 5160 18dd 05       		.byte	0x5
 5161 18de 03       		.byte	0x3
 5162 18df 00000000 		.4byte	ghTabSliders
 5163 18e3 2C       		.uleb128 0x2c
 5164 18e4 A9060000 		.4byte	.LASF176
 5165 18e8 01       		.byte	0x1
 5166 18e9 49       		.byte	0x49
 5167 18ea 230A0000 		.4byte	0xa23
 5168 18ee 05       		.byte	0x5
 5169 18ef 03       		.byte	0x3
 5170 18f0 00000000 		.4byte	ghTabCheckboxes
 5171 18f4 2C       		.uleb128 0x2c
 5172 18f5 53050000 		.4byte	.LASF177
 5173 18f9 01       		.byte	0x1
 5174 18fa 49       		.byte	0x49
 5175 18fb 230A0000 		.4byte	0xa23
 5176 18ff 05       		.byte	0x5
 5177 1900 03       		.byte	0x3
 5178 1901 00000000 		.4byte	ghTabLabels
 5179 1905 2C       		.uleb128 0x2c
 5180 1906 52080000 		.4byte	.LASF178
 5181 190a 01       		.byte	0x1
 5182 190b 49       		.byte	0x49
 5183 190c 230A0000 		.4byte	0xa23
 5184 1910 05       		.byte	0x5
 5185 1911 03       		.byte	0x3
 5186 1912 00000000 		.4byte	ghTabRadios
 5187 1916 2C       		.uleb128 0x2c
 5188 1917 79060000 		.4byte	.LASF179
 5189 191b 01       		.byte	0x1
 5190 191c 49       		.byte	0x49
 5191 191d 230A0000 		.4byte	0xa23
 5192 1921 05       		.byte	0x5
 5193 1922 03       		.byte	0x3
 5194 1923 00000000 		.4byte	ghTabLists
 5195 1927 2C       		.uleb128 0x2c
 5196 1928 57020000 		.4byte	.LASF180
 5197 192c 01       		.byte	0x1
 5198 192d 49       		.byte	0x49
 5199 192e 230A0000 		.4byte	0xa23
 5200 1932 05       		.byte	0x5
 5201 1933 03       		.byte	0x3
 5202 1934 00000000 		.4byte	ghTabImages
 5203 1938 2C       		.uleb128 0x2c
ARM GAS  /tmp/ccKcOR50.s 			page 93


 5204 1939 C8070000 		.4byte	.LASF181
 5205 193d 01       		.byte	0x1
 5206 193e 4A       		.byte	0x4a
 5207 193f 230A0000 		.4byte	0xa23
 5208 1943 05       		.byte	0x5
 5209 1944 03       		.byte	0x3
 5210 1945 00000000 		.4byte	ghButton1
 5211 1949 2C       		.uleb128 0x2c
 5212 194a D2070000 		.4byte	.LASF182
 5213 194e 01       		.byte	0x1
 5214 194f 4A       		.byte	0x4a
 5215 1950 230A0000 		.4byte	0xa23
 5216 1954 05       		.byte	0x5
 5217 1955 03       		.byte	0x3
 5218 1956 00000000 		.4byte	ghButton2
 5219 195a 2C       		.uleb128 0x2c
 5220 195b DC070000 		.4byte	.LASF183
 5221 195f 01       		.byte	0x1
 5222 1960 4A       		.byte	0x4a
 5223 1961 230A0000 		.4byte	0xa23
 5224 1965 05       		.byte	0x5
 5225 1966 03       		.byte	0x3
 5226 1967 00000000 		.4byte	ghButton3
 5227 196b 2C       		.uleb128 0x2c
 5228 196c E6070000 		.4byte	.LASF184
 5229 1970 01       		.byte	0x1
 5230 1971 4A       		.byte	0x4a
 5231 1972 230A0000 		.4byte	0xa23
 5232 1976 05       		.byte	0x5
 5233 1977 03       		.byte	0x3
 5234 1978 00000000 		.4byte	ghButton4
 5235 197c 2C       		.uleb128 0x2c
 5236 197d E5010000 		.4byte	.LASF185
 5237 1981 01       		.byte	0x1
 5238 1982 4B       		.byte	0x4b
 5239 1983 230A0000 		.4byte	0xa23
 5240 1987 05       		.byte	0x5
 5241 1988 03       		.byte	0x3
 5242 1989 00000000 		.4byte	ghSlider1
 5243 198d 2C       		.uleb128 0x2c
 5244 198e EF010000 		.4byte	.LASF186
 5245 1992 01       		.byte	0x1
 5246 1993 4B       		.byte	0x4b
 5247 1994 230A0000 		.4byte	0xa23
 5248 1998 05       		.byte	0x5
 5249 1999 03       		.byte	0x3
 5250 199a 00000000 		.4byte	ghSlider2
 5251 199e 2C       		.uleb128 0x2c
 5252 199f F9010000 		.4byte	.LASF187
 5253 19a3 01       		.byte	0x1
 5254 19a4 4B       		.byte	0x4b
 5255 19a5 230A0000 		.4byte	0xa23
 5256 19a9 05       		.byte	0x5
 5257 19aa 03       		.byte	0x3
 5258 19ab 00000000 		.4byte	ghSlider3
 5259 19af 2C       		.uleb128 0x2c
 5260 19b0 35030000 		.4byte	.LASF188
ARM GAS  /tmp/ccKcOR50.s 			page 94


 5261 19b4 01       		.byte	0x1
 5262 19b5 4B       		.byte	0x4b
 5263 19b6 230A0000 		.4byte	0xa23
 5264 19ba 05       		.byte	0x5
 5265 19bb 03       		.byte	0x3
 5266 19bc 00000000 		.4byte	ghSlider4
 5267 19c0 2C       		.uleb128 0x2c
 5268 19c1 92090000 		.4byte	.LASF189
 5269 19c5 01       		.byte	0x1
 5270 19c6 4C       		.byte	0x4c
 5271 19c7 230A0000 		.4byte	0xa23
 5272 19cb 05       		.byte	0x5
 5273 19cc 03       		.byte	0x3
 5274 19cd 00000000 		.4byte	ghCheckbox1
 5275 19d1 2C       		.uleb128 0x2c
 5276 19d2 9E090000 		.4byte	.LASF190
 5277 19d6 01       		.byte	0x1
 5278 19d7 4C       		.byte	0x4c
 5279 19d8 230A0000 		.4byte	0xa23
 5280 19dc 05       		.byte	0x5
 5281 19dd 03       		.byte	0x3
 5282 19de 00000000 		.4byte	ghCheckbox2
 5283 19e2 2C       		.uleb128 0x2c
 5284 19e3 5E080000 		.4byte	.LASF191
 5285 19e7 01       		.byte	0x1
 5286 19e8 4C       		.byte	0x4c
 5287 19e9 230A0000 		.4byte	0xa23
 5288 19ed 05       		.byte	0x5
 5289 19ee 03       		.byte	0x3
 5290 19ef 00000000 		.4byte	ghCheckDisableAll
 5291 19f3 2C       		.uleb128 0x2c
 5292 19f4 63020000 		.4byte	.LASF192
 5293 19f8 01       		.byte	0x1
 5294 19f9 4D       		.byte	0x4d
 5295 19fa 230A0000 		.4byte	0xa23
 5296 19fe 05       		.byte	0x5
 5297 19ff 03       		.byte	0x3
 5298 1a00 00000000 		.4byte	ghLabel1
 5299 1a04 2C       		.uleb128 0x2c
 5300 1a05 91040000 		.4byte	.LASF193
 5301 1a09 01       		.byte	0x1
 5302 1a0a 4E       		.byte	0x4e
 5303 1a0b 230A0000 		.4byte	0xa23
 5304 1a0f 05       		.byte	0x5
 5305 1a10 03       		.byte	0x3
 5306 1a11 00000000 		.4byte	ghRadio1
 5307 1a15 2C       		.uleb128 0x2c
 5308 1a16 9A040000 		.4byte	.LASF194
 5309 1a1a 01       		.byte	0x1
 5310 1a1b 4E       		.byte	0x4e
 5311 1a1c 230A0000 		.4byte	0xa23
 5312 1a20 05       		.byte	0x5
 5313 1a21 03       		.byte	0x3
 5314 1a22 00000000 		.4byte	ghRadio2
 5315 1a26 2C       		.uleb128 0x2c
 5316 1a27 26080000 		.4byte	.LASF195
 5317 1a2b 01       		.byte	0x1
ARM GAS  /tmp/ccKcOR50.s 			page 95


 5318 1a2c 4F       		.byte	0x4f
 5319 1a2d 230A0000 		.4byte	0xa23
 5320 1a31 05       		.byte	0x5
 5321 1a32 03       		.byte	0x3
 5322 1a33 00000000 		.4byte	ghRadioBlack
 5323 1a37 2C       		.uleb128 0x2c
 5324 1a38 D2060000 		.4byte	.LASF196
 5325 1a3c 01       		.byte	0x1
 5326 1a3d 4F       		.byte	0x4f
 5327 1a3e 230A0000 		.4byte	0xa23
 5328 1a42 05       		.byte	0x5
 5329 1a43 03       		.byte	0x3
 5330 1a44 00000000 		.4byte	ghRadioWhite
 5331 1a48 2C       		.uleb128 0x2c
 5332 1a49 BA070000 		.4byte	.LASF197
 5333 1a4d 01       		.byte	0x1
 5334 1a4e 4F       		.byte	0x4f
 5335 1a4f 230A0000 		.4byte	0xa23
 5336 1a53 05       		.byte	0x5
 5337 1a54 03       		.byte	0x3
 5338 1a55 00000000 		.4byte	ghRadioYellow
 5339 1a59 2E       		.uleb128 0x2e
 5340 1a5a E9080000 		.4byte	.LASF198
 5341 1a5e 01       		.byte	0x1
 5342 1a5f 52       		.byte	0x52
 5343 1a60 67090000 		.4byte	0x967
 5344 1a64 2F       		.uleb128 0x2f
 5345 1a65 7D050000 		.4byte	.LASF199
 5346 1a69 17       		.byte	0x17
 5347 1a6a 9806     		.2byte	0x698
 5348 1a6c 31050000 		.4byte	0x531
 5349 1a70 01       		.byte	0x1
 5350 1a71 01       		.byte	0x1
 5351 1a72 30       		.uleb128 0x30
 5352 1a73 23040000 		.4byte	.LASF200
 5353 1a77 0D       		.byte	0xd
 5354 1a78 5E       		.byte	0x5e
 5355 1a79 9D070000 		.4byte	0x79d
 5356 1a7d 01       		.byte	0x1
 5357 1a7e 01       		.byte	0x1
 5358 1a7f 30       		.uleb128 0x30
 5359 1a80 00040000 		.4byte	.LASF201
 5360 1a84 10       		.byte	0x10
 5361 1a85 44       		.byte	0x44
 5362 1a86 FE0B0000 		.4byte	0xbfe
 5363 1a8a 01       		.byte	0x1
 5364 1a8b 01       		.byte	0x1
 5365 1a8c 30       		.uleb128 0x30
 5366 1a8d 1D070000 		.4byte	.LASF202
 5367 1a91 10       		.byte	0x10
 5368 1a92 45       		.byte	0x45
 5369 1a93 FE0B0000 		.4byte	0xbfe
 5370 1a97 01       		.byte	0x1
 5371 1a98 01       		.byte	0x1
 5372 1a99 31       		.uleb128 0x31
 5373 1a9a 01       		.byte	0x1
 5374 1a9b 5F050000 		.4byte	.LASF203
ARM GAS  /tmp/ccKcOR50.s 			page 96


 5375 1a9f 14       		.byte	0x14
 5376 1aa0 50       		.byte	0x50
 5377 1aa1 01       		.byte	0x1
 5378 1aa2 230A0000 		.4byte	0xa23
 5379 1aa6 01       		.byte	0x1
 5380 1aa7 BB1A0000 		.4byte	0x1abb
 5381 1aab 16       		.uleb128 0x16
 5382 1aac BB1A0000 		.4byte	0x1abb
 5383 1ab0 16       		.uleb128 0x16
 5384 1ab1 C11A0000 		.4byte	0x1ac1
 5385 1ab5 16       		.uleb128 0x16
 5386 1ab6 6D000000 		.4byte	0x6d
 5387 1aba 00       		.byte	0
 5388 1abb 09       		.uleb128 0x9
 5389 1abc 04       		.byte	0x4
 5390 1abd DE0D0000 		.4byte	0xdde
 5391 1ac1 09       		.uleb128 0x9
 5392 1ac2 04       		.byte	0x4
 5393 1ac3 C71A0000 		.4byte	0x1ac7
 5394 1ac7 10       		.uleb128 0x10
 5395 1ac8 030C0000 		.4byte	0xc03
 5396 1acc 31       		.uleb128 0x31
 5397 1acd 01       		.byte	0x1
 5398 1ace BC020000 		.4byte	.LASF204
 5399 1ad2 11       		.byte	0x11
 5400 1ad3 4D       		.byte	0x4d
 5401 1ad4 01       		.byte	0x1
 5402 1ad5 230A0000 		.4byte	0xa23
 5403 1ad9 01       		.byte	0x1
 5404 1ada E91A0000 		.4byte	0x1ae9
 5405 1ade 16       		.uleb128 0x16
 5406 1adf E91A0000 		.4byte	0x1ae9
 5407 1ae3 16       		.uleb128 0x16
 5408 1ae4 C11A0000 		.4byte	0x1ac1
 5409 1ae8 00       		.byte	0
 5410 1ae9 09       		.uleb128 0x9
 5411 1aea 04       		.byte	0x4
 5412 1aeb 660C0000 		.4byte	0xc66
 5413 1aef 31       		.uleb128 0x31
 5414 1af0 01       		.byte	0x1
 5415 1af1 F0070000 		.4byte	.LASF205
 5416 1af5 12       		.byte	0x12
 5417 1af6 50       		.byte	0x50
 5418 1af7 01       		.byte	0x1
 5419 1af8 230A0000 		.4byte	0xa23
 5420 1afc 01       		.byte	0x1
 5421 1afd 0C1B0000 		.4byte	0x1b0c
 5422 1b01 16       		.uleb128 0x16
 5423 1b02 0C1B0000 		.4byte	0x1b0c
 5424 1b06 16       		.uleb128 0x16
 5425 1b07 C11A0000 		.4byte	0x1ac1
 5426 1b0b 00       		.byte	0
 5427 1b0c 09       		.uleb128 0x9
 5428 1b0d 04       		.byte	0x4
 5429 1b0e 040D0000 		.4byte	0xd04
 5430 1b12 31       		.uleb128 0x31
 5431 1b13 01       		.byte	0x1
ARM GAS  /tmp/ccKcOR50.s 			page 97


 5432 1b14 B1030000 		.4byte	.LASF206
 5433 1b18 13       		.byte	0x13
 5434 1b19 46       		.byte	0x46
 5435 1b1a 01       		.byte	0x1
 5436 1b1b 230A0000 		.4byte	0xa23
 5437 1b1f 01       		.byte	0x1
 5438 1b20 2F1B0000 		.4byte	0x1b2f
 5439 1b24 16       		.uleb128 0x16
 5440 1b25 2F1B0000 		.4byte	0x1b2f
 5441 1b29 16       		.uleb128 0x16
 5442 1b2a C11A0000 		.4byte	0x1ac1
 5443 1b2e 00       		.byte	0
 5444 1b2f 09       		.uleb128 0x9
 5445 1b30 04       		.byte	0x4
 5446 1b31 6A0D0000 		.4byte	0xd6a
 5447 1b35 31       		.uleb128 0x31
 5448 1b36 01       		.byte	0x1
 5449 1b37 2C060000 		.4byte	.LASF207
 5450 1b3b 16       		.byte	0x16
 5451 1b3c 34       		.byte	0x34
 5452 1b3d 01       		.byte	0x1
 5453 1b3e 230A0000 		.4byte	0xa23
 5454 1b42 01       		.byte	0x1
 5455 1b43 521B0000 		.4byte	0x1b52
 5456 1b47 16       		.uleb128 0x16
 5457 1b48 521B0000 		.4byte	0x1b52
 5458 1b4c 16       		.uleb128 0x16
 5459 1b4d 581B0000 		.4byte	0x1b58
 5460 1b51 00       		.byte	0
 5461 1b52 09       		.uleb128 0x9
 5462 1b53 04       		.byte	0x4
 5463 1b54 400E0000 		.4byte	0xe40
 5464 1b58 09       		.uleb128 0x9
 5465 1b59 04       		.byte	0x4
 5466 1b5a 030C0000 		.4byte	0xc03
 5467 1b5e 32       		.uleb128 0x32
 5468 1b5f 01       		.byte	0x1
 5469 1b60 69010000 		.4byte	.LASF209
 5470 1b64 14       		.byte	0x14
 5471 1b65 59       		.byte	0x59
 5472 1b66 01       		.byte	0x1
 5473 1b67 01       		.byte	0x1
 5474 1b68 721B0000 		.4byte	0x1b72
 5475 1b6c 16       		.uleb128 0x16
 5476 1b6d 230A0000 		.4byte	0xa23
 5477 1b71 00       		.byte	0
 5478 1b72 31       		.uleb128 0x31
 5479 1b73 01       		.byte	0x1
 5480 1b74 DD020000 		.4byte	.LASF208
 5481 1b78 15       		.byte	0x15
 5482 1b79 43       		.byte	0x43
 5483 1b7a 01       		.byte	0x1
 5484 1b7b 230A0000 		.4byte	0xa23
 5485 1b7f 01       		.byte	0x1
 5486 1b80 8F1B0000 		.4byte	0x1b8f
 5487 1b84 16       		.uleb128 0x16
 5488 1b85 8F1B0000 		.4byte	0x1b8f
ARM GAS  /tmp/ccKcOR50.s 			page 98


 5489 1b89 16       		.uleb128 0x16
 5490 1b8a 951B0000 		.4byte	0x1b95
 5491 1b8e 00       		.byte	0
 5492 1b8f 09       		.uleb128 0x9
 5493 1b90 04       		.byte	0x4
 5494 1b91 1C0E0000 		.4byte	0xe1c
 5495 1b95 09       		.uleb128 0x9
 5496 1b96 04       		.byte	0x4
 5497 1b97 9B1B0000 		.4byte	0x1b9b
 5498 1b9b 10       		.uleb128 0x10
 5499 1b9c 830A0000 		.4byte	0xa83
 5500 1ba0 33       		.uleb128 0x33
 5501 1ba1 01       		.byte	0x1
 5502 1ba2 12030000 		.4byte	.LASF210
 5503 1ba6 0F       		.byte	0xf
 5504 1ba7 2501     		.2byte	0x125
 5505 1ba9 01       		.byte	0x1
 5506 1baa 01       		.byte	0x1
 5507 1bab BA1B0000 		.4byte	0x1bba
 5508 1baf 16       		.uleb128 0x16
 5509 1bb0 230A0000 		.4byte	0xa23
 5510 1bb4 16       		.uleb128 0x16
 5511 1bb5 B1000000 		.4byte	0xb1
 5512 1bb9 00       		.byte	0
 5513 1bba 33       		.uleb128 0x33
 5514 1bbb 01       		.byte	0x1
 5515 1bbc 78080000 		.4byte	.LASF211
 5516 1bc0 0F       		.byte	0xf
 5517 1bc1 3C01     		.2byte	0x13c
 5518 1bc3 01       		.byte	0x1
 5519 1bc4 01       		.byte	0x1
 5520 1bc5 D41B0000 		.4byte	0x1bd4
 5521 1bc9 16       		.uleb128 0x16
 5522 1bca 230A0000 		.4byte	0xa23
 5523 1bce 16       		.uleb128 0x16
 5524 1bcf B1000000 		.4byte	0xb1
 5525 1bd3 00       		.byte	0
 5526 1bd4 32       		.uleb128 0x32
 5527 1bd5 01       		.byte	0x1
 5528 1bd6 8A050000 		.4byte	.LASF212
 5529 1bda 15       		.byte	0x15
 5530 1bdb 8C       		.byte	0x8c
 5531 1bdc 01       		.byte	0x1
 5532 1bdd 01       		.byte	0x1
 5533 1bde EE1B0000 		.4byte	0x1bee
 5534 1be2 16       		.uleb128 0x16
 5535 1be3 230A0000 		.4byte	0xa23
 5536 1be7 16       		.uleb128 0x16
 5537 1be8 19050000 		.4byte	0x519
 5538 1bec 34       		.uleb128 0x34
 5539 1bed 00       		.byte	0
 5540 1bee 33       		.uleb128 0x33
 5541 1bef 01       		.byte	0x1
 5542 1bf0 19080000 		.4byte	.LASF213
 5543 1bf4 0D       		.byte	0xd
 5544 1bf5 8901     		.2byte	0x189
 5545 1bf7 01       		.byte	0x1
ARM GAS  /tmp/ccKcOR50.s 			page 99


 5546 1bf8 01       		.byte	0x1
 5547 1bf9 121C0000 		.4byte	0x1c12
 5548 1bfd 16       		.uleb128 0x16
 5549 1bfe 7D060000 		.4byte	0x67d
 5550 1c02 16       		.uleb128 0x16
 5551 1c03 7D060000 		.4byte	0x67d
 5552 1c07 16       		.uleb128 0x16
 5553 1c08 7D060000 		.4byte	0x67d
 5554 1c0c 16       		.uleb128 0x16
 5555 1c0d 7D060000 		.4byte	0x67d
 5556 1c11 00       		.byte	0
 5557 1c12 33       		.uleb128 0x33
 5558 1c13 01       		.byte	0x1
 5559 1c14 99070000 		.4byte	.LASF214
 5560 1c18 0D       		.byte	0xd
 5561 1c19 6801     		.2byte	0x168
 5562 1c1b 01       		.byte	0x1
 5563 1c1c 01       		.byte	0x1
 5564 1c1d 3B1C0000 		.4byte	0x1c3b
 5565 1c21 16       		.uleb128 0x16
 5566 1c22 7D060000 		.4byte	0x67d
 5567 1c26 16       		.uleb128 0x16
 5568 1c27 7D060000 		.4byte	0x67d
 5569 1c2b 16       		.uleb128 0x16
 5570 1c2c 7D060000 		.4byte	0x67d
 5571 1c30 16       		.uleb128 0x16
 5572 1c31 7D060000 		.4byte	0x67d
 5573 1c35 16       		.uleb128 0x16
 5574 1c36 A8070000 		.4byte	0x7a8
 5575 1c3a 00       		.byte	0
 5576 1c3b 32       		.uleb128 0x32
 5577 1c3c 01       		.byte	0x1
 5578 1c3d 15020000 		.4byte	.LASF215
 5579 1c41 10       		.byte	0x10
 5580 1c42 8D       		.byte	0x8d
 5581 1c43 01       		.byte	0x1
 5582 1c44 01       		.byte	0x1
 5583 1c45 541C0000 		.4byte	0x1c54
 5584 1c49 16       		.uleb128 0x16
 5585 1c4a F80B0000 		.4byte	0xbf8
 5586 1c4e 16       		.uleb128 0x16
 5587 1c4f B1000000 		.4byte	0xb1
 5588 1c53 00       		.byte	0
 5589 1c54 35       		.uleb128 0x35
 5590 1c55 01       		.byte	0x1
 5591 1c56 B1090000 		.4byte	.LASF231
 5592 1c5a 18       		.byte	0x18
 5593 1c5b D8       		.byte	0xd8
 5594 1c5c 01       		.byte	0x1
 5595 1c5d 01       		.byte	0x1
 5596 1c5e 36       		.uleb128 0x36
 5597 1c5f 01       		.byte	0x1
 5598 1c60 13010000 		.4byte	.LASF216
 5599 1c64 0D       		.byte	0xd
 5600 1c65 F102     		.2byte	0x2f1
 5601 1c67 01       		.byte	0x1
 5602 1c68 88060000 		.4byte	0x688
ARM GAS  /tmp/ccKcOR50.s 			page 100


 5603 1c6c 01       		.byte	0x1
 5604 1c6d 771C0000 		.4byte	0x1c77
 5605 1c71 16       		.uleb128 0x16
 5606 1c72 19050000 		.4byte	0x519
 5607 1c76 00       		.byte	0
 5608 1c77 32       		.uleb128 0x32
 5609 1c78 01       		.byte	0x1
 5610 1c79 FD060000 		.4byte	.LASF217
 5611 1c7d 0F       		.byte	0xf
 5612 1c7e 94       		.byte	0x94
 5613 1c7f 01       		.byte	0x1
 5614 1c80 01       		.byte	0x1
 5615 1c81 8B1C0000 		.4byte	0x1c8b
 5616 1c85 16       		.uleb128 0x16
 5617 1c86 88060000 		.4byte	0x688
 5618 1c8a 00       		.byte	0
 5619 1c8b 33       		.uleb128 0x33
 5620 1c8c 01       		.byte	0x1
 5621 1c8d F2060000 		.4byte	.LASF218
 5622 1c91 0D       		.byte	0xd
 5623 1c92 4801     		.2byte	0x148
 5624 1c94 01       		.byte	0x1
 5625 1c95 01       		.byte	0x1
 5626 1c96 A01C0000 		.4byte	0x1ca0
 5627 1c9a 16       		.uleb128 0x16
 5628 1c9b A8070000 		.4byte	0x7a8
 5629 1c9f 00       		.byte	0
 5630 1ca0 31       		.uleb128 0x31
 5631 1ca1 01       		.byte	0x1
 5632 1ca2 C2080000 		.4byte	.LASF219
 5633 1ca6 10       		.byte	0x10
 5634 1ca7 EB       		.byte	0xeb
 5635 1ca8 01       		.byte	0x1
 5636 1ca9 B1000000 		.4byte	0xb1
 5637 1cad 01       		.byte	0x1
 5638 1cae B81C0000 		.4byte	0x1cb8
 5639 1cb2 16       		.uleb128 0x16
 5640 1cb3 6D000000 		.4byte	0x6d
 5641 1cb7 00       		.byte	0
 5642 1cb8 33       		.uleb128 0x33
 5643 1cb9 01       		.byte	0x1
 5644 1cba F7040000 		.4byte	.LASF220
 5645 1cbe 0F       		.byte	0xf
 5646 1cbf BF01     		.2byte	0x1bf
 5647 1cc1 01       		.byte	0x1
 5648 1cc2 01       		.byte	0x1
 5649 1cc3 CD1C0000 		.4byte	0x1ccd
 5650 1cc7 16       		.uleb128 0x16
 5651 1cc8 230A0000 		.4byte	0xa23
 5652 1ccc 00       		.byte	0
 5653 1ccd 32       		.uleb128 0x32
 5654 1cce 01       		.byte	0x1
 5655 1ccf 61040000 		.4byte	.LASF221
 5656 1cd3 0C       		.byte	0xc
 5657 1cd4 77       		.byte	0x77
 5658 1cd5 01       		.byte	0x1
 5659 1cd6 01       		.byte	0x1
ARM GAS  /tmp/ccKcOR50.s 			page 101


 5660 1cd7 E11C0000 		.4byte	0x1ce1
 5661 1cdb 16       		.uleb128 0x16
 5662 1cdc 77060000 		.4byte	0x677
 5663 1ce0 00       		.byte	0
 5664 1ce1 31       		.uleb128 0x31
 5665 1ce2 01       		.byte	0x1
 5666 1ce3 6F030000 		.4byte	.LASF222
 5667 1ce7 10       		.byte	0x10
 5668 1ce8 DE       		.byte	0xde
 5669 1ce9 01       		.byte	0x1
 5670 1cea B1000000 		.4byte	0xb1
 5671 1cee 01       		.byte	0x1
 5672 1cef F91C0000 		.4byte	0x1cf9
 5673 1cf3 16       		.uleb128 0x16
 5674 1cf4 77060000 		.4byte	0x677
 5675 1cf8 00       		.byte	0
 5676 1cf9 31       		.uleb128 0x31
 5677 1cfa 01       		.byte	0x1
 5678 1cfb CD020000 		.4byte	.LASF223
 5679 1cff 0C       		.byte	0xc
 5680 1d00 A2       		.byte	0xa2
 5681 1d01 01       		.byte	0x1
 5682 1d02 13060000 		.4byte	0x613
 5683 1d06 01       		.byte	0x1
 5684 1d07 161D0000 		.4byte	0x1d16
 5685 1d0b 16       		.uleb128 0x16
 5686 1d0c 77060000 		.4byte	0x677
 5687 1d10 16       		.uleb128 0x16
 5688 1d11 36050000 		.4byte	0x536
 5689 1d15 00       		.byte	0
 5690 1d16 31       		.uleb128 0x31
 5691 1d17 01       		.byte	0x1
 5692 1d18 5D010000 		.4byte	.LASF224
 5693 1d1c 10       		.byte	0x10
 5694 1d1d AE       		.byte	0xae
 5695 1d1e 01       		.byte	0x1
 5696 1d1f 19050000 		.4byte	0x519
 5697 1d23 01       		.byte	0x1
 5698 1d24 2E1D0000 		.4byte	0x1d2e
 5699 1d28 16       		.uleb128 0x16
 5700 1d29 230A0000 		.4byte	0xa23
 5701 1d2d 00       		.byte	0
 5702 1d2e 32       		.uleb128 0x32
 5703 1d2f 01       		.byte	0x1
 5704 1d30 93020000 		.4byte	.LASF225
 5705 1d34 0A       		.byte	0xa
 5706 1d35 50       		.byte	0x50
 5707 1d36 01       		.byte	0x1
 5708 1d37 01       		.byte	0x1
 5709 1d38 421D0000 		.4byte	0x1d42
 5710 1d3c 16       		.uleb128 0x16
 5711 1d3d 36050000 		.4byte	0x536
 5712 1d41 00       		.byte	0
 5713 1d42 37       		.uleb128 0x37
 5714 1d43 01       		.byte	0x1
 5715 1d44 2C000000 		.4byte	.LASF232
 5716 1d48 10       		.byte	0x10
ARM GAS  /tmp/ccKcOR50.s 			page 102


 5717 1d49 A4       		.byte	0xa4
 5718 1d4a 01       		.byte	0x1
 5719 1d4b 01       		.byte	0x1
 5720 1d4c 16       		.uleb128 0x16
 5721 1d4d 230A0000 		.4byte	0xa23
 5722 1d51 16       		.uleb128 0x16
 5723 1d52 19050000 		.4byte	0x519
 5724 1d56 16       		.uleb128 0x16
 5725 1d57 B1000000 		.4byte	0xb1
 5726 1d5b 00       		.byte	0
 5727 1d5c 00       		.byte	0
 5728              		.section	.debug_abbrev,"",%progbits
 5729              	.Ldebug_abbrev0:
 5730 0000 01       		.uleb128 0x1
 5731 0001 11       		.uleb128 0x11
 5732 0002 01       		.byte	0x1
 5733 0003 25       		.uleb128 0x25
 5734 0004 0E       		.uleb128 0xe
 5735 0005 13       		.uleb128 0x13
 5736 0006 0B       		.uleb128 0xb
 5737 0007 03       		.uleb128 0x3
 5738 0008 0E       		.uleb128 0xe
 5739 0009 1B       		.uleb128 0x1b
 5740 000a 0E       		.uleb128 0xe
 5741 000b 55       		.uleb128 0x55
 5742 000c 06       		.uleb128 0x6
 5743 000d 11       		.uleb128 0x11
 5744 000e 01       		.uleb128 0x1
 5745 000f 52       		.uleb128 0x52
 5746 0010 01       		.uleb128 0x1
 5747 0011 10       		.uleb128 0x10
 5748 0012 06       		.uleb128 0x6
 5749 0013 00       		.byte	0
 5750 0014 00       		.byte	0
 5751 0015 02       		.uleb128 0x2
 5752 0016 24       		.uleb128 0x24
 5753 0017 00       		.byte	0
 5754 0018 0B       		.uleb128 0xb
 5755 0019 0B       		.uleb128 0xb
 5756 001a 3E       		.uleb128 0x3e
 5757 001b 0B       		.uleb128 0xb
 5758 001c 03       		.uleb128 0x3
 5759 001d 08       		.uleb128 0x8
 5760 001e 00       		.byte	0
 5761 001f 00       		.byte	0
 5762 0020 03       		.uleb128 0x3
 5763 0021 16       		.uleb128 0x16
 5764 0022 00       		.byte	0
 5765 0023 03       		.uleb128 0x3
 5766 0024 0E       		.uleb128 0xe
 5767 0025 3A       		.uleb128 0x3a
 5768 0026 0B       		.uleb128 0xb
 5769 0027 3B       		.uleb128 0x3b
 5770 0028 0B       		.uleb128 0xb
 5771 0029 49       		.uleb128 0x49
 5772 002a 13       		.uleb128 0x13
 5773 002b 00       		.byte	0
ARM GAS  /tmp/ccKcOR50.s 			page 103


 5774 002c 00       		.byte	0
 5775 002d 04       		.uleb128 0x4
 5776 002e 24       		.uleb128 0x24
 5777 002f 00       		.byte	0
 5778 0030 0B       		.uleb128 0xb
 5779 0031 0B       		.uleb128 0xb
 5780 0032 3E       		.uleb128 0x3e
 5781 0033 0B       		.uleb128 0xb
 5782 0034 03       		.uleb128 0x3
 5783 0035 0E       		.uleb128 0xe
 5784 0036 00       		.byte	0
 5785 0037 00       		.byte	0
 5786 0038 05       		.uleb128 0x5
 5787 0039 13       		.uleb128 0x13
 5788 003a 01       		.byte	0x1
 5789 003b 03       		.uleb128 0x3
 5790 003c 0E       		.uleb128 0xe
 5791 003d 0B       		.uleb128 0xb
 5792 003e 0B       		.uleb128 0xb
 5793 003f 3A       		.uleb128 0x3a
 5794 0040 0B       		.uleb128 0xb
 5795 0041 3B       		.uleb128 0x3b
 5796 0042 0B       		.uleb128 0xb
 5797 0043 01       		.uleb128 0x1
 5798 0044 13       		.uleb128 0x13
 5799 0045 00       		.byte	0
 5800 0046 00       		.byte	0
 5801 0047 06       		.uleb128 0x6
 5802 0048 0D       		.uleb128 0xd
 5803 0049 00       		.byte	0
 5804 004a 03       		.uleb128 0x3
 5805 004b 0E       		.uleb128 0xe
 5806 004c 3A       		.uleb128 0x3a
 5807 004d 0B       		.uleb128 0xb
 5808 004e 3B       		.uleb128 0x3b
 5809 004f 0B       		.uleb128 0xb
 5810 0050 49       		.uleb128 0x49
 5811 0051 13       		.uleb128 0x13
 5812 0052 38       		.uleb128 0x38
 5813 0053 0A       		.uleb128 0xa
 5814 0054 00       		.byte	0
 5815 0055 00       		.byte	0
 5816 0056 07       		.uleb128 0x7
 5817 0057 0D       		.uleb128 0xd
 5818 0058 00       		.byte	0
 5819 0059 03       		.uleb128 0x3
 5820 005a 08       		.uleb128 0x8
 5821 005b 3A       		.uleb128 0x3a
 5822 005c 0B       		.uleb128 0xb
 5823 005d 3B       		.uleb128 0x3b
 5824 005e 0B       		.uleb128 0xb
 5825 005f 49       		.uleb128 0x49
 5826 0060 13       		.uleb128 0x13
 5827 0061 38       		.uleb128 0x38
 5828 0062 0A       		.uleb128 0xa
 5829 0063 00       		.byte	0
 5830 0064 00       		.byte	0
ARM GAS  /tmp/ccKcOR50.s 			page 104


 5831 0065 08       		.uleb128 0x8
 5832 0066 13       		.uleb128 0x13
 5833 0067 01       		.byte	0x1
 5834 0068 0B       		.uleb128 0xb
 5835 0069 0B       		.uleb128 0xb
 5836 006a 3A       		.uleb128 0x3a
 5837 006b 0B       		.uleb128 0xb
 5838 006c 3B       		.uleb128 0x3b
 5839 006d 0B       		.uleb128 0xb
 5840 006e 01       		.uleb128 0x1
 5841 006f 13       		.uleb128 0x13
 5842 0070 00       		.byte	0
 5843 0071 00       		.byte	0
 5844 0072 09       		.uleb128 0x9
 5845 0073 0F       		.uleb128 0xf
 5846 0074 00       		.byte	0
 5847 0075 0B       		.uleb128 0xb
 5848 0076 0B       		.uleb128 0xb
 5849 0077 49       		.uleb128 0x49
 5850 0078 13       		.uleb128 0x13
 5851 0079 00       		.byte	0
 5852 007a 00       		.byte	0
 5853 007b 0A       		.uleb128 0xa
 5854 007c 0F       		.uleb128 0xf
 5855 007d 00       		.byte	0
 5856 007e 0B       		.uleb128 0xb
 5857 007f 0B       		.uleb128 0xb
 5858 0080 00       		.byte	0
 5859 0081 00       		.byte	0
 5860 0082 0B       		.uleb128 0xb
 5861 0083 13       		.uleb128 0x13
 5862 0084 01       		.byte	0x1
 5863 0085 03       		.uleb128 0x3
 5864 0086 0E       		.uleb128 0xe
 5865 0087 0B       		.uleb128 0xb
 5866 0088 0B       		.uleb128 0xb
 5867 0089 3A       		.uleb128 0x3a
 5868 008a 0B       		.uleb128 0xb
 5869 008b 3B       		.uleb128 0x3b
 5870 008c 05       		.uleb128 0x5
 5871 008d 01       		.uleb128 0x1
 5872 008e 13       		.uleb128 0x13
 5873 008f 00       		.byte	0
 5874 0090 00       		.byte	0
 5875 0091 0C       		.uleb128 0xc
 5876 0092 0D       		.uleb128 0xd
 5877 0093 00       		.byte	0
 5878 0094 03       		.uleb128 0x3
 5879 0095 08       		.uleb128 0x8
 5880 0096 3A       		.uleb128 0x3a
 5881 0097 0B       		.uleb128 0xb
 5882 0098 3B       		.uleb128 0x3b
 5883 0099 05       		.uleb128 0x5
 5884 009a 49       		.uleb128 0x49
 5885 009b 13       		.uleb128 0x13
 5886 009c 38       		.uleb128 0x38
 5887 009d 0A       		.uleb128 0xa
ARM GAS  /tmp/ccKcOR50.s 			page 105


 5888 009e 00       		.byte	0
 5889 009f 00       		.byte	0
 5890 00a0 0D       		.uleb128 0xd
 5891 00a1 35       		.uleb128 0x35
 5892 00a2 00       		.byte	0
 5893 00a3 49       		.uleb128 0x49
 5894 00a4 13       		.uleb128 0x13
 5895 00a5 00       		.byte	0
 5896 00a6 00       		.byte	0
 5897 00a7 0E       		.uleb128 0xe
 5898 00a8 17       		.uleb128 0x17
 5899 00a9 01       		.byte	0x1
 5900 00aa 0B       		.uleb128 0xb
 5901 00ab 0B       		.uleb128 0xb
 5902 00ac 3A       		.uleb128 0x3a
 5903 00ad 0B       		.uleb128 0xb
 5904 00ae 3B       		.uleb128 0x3b
 5905 00af 0B       		.uleb128 0xb
 5906 00b0 01       		.uleb128 0x1
 5907 00b1 13       		.uleb128 0x13
 5908 00b2 00       		.byte	0
 5909 00b3 00       		.byte	0
 5910 00b4 0F       		.uleb128 0xf
 5911 00b5 0D       		.uleb128 0xd
 5912 00b6 00       		.byte	0
 5913 00b7 03       		.uleb128 0x3
 5914 00b8 0E       		.uleb128 0xe
 5915 00b9 3A       		.uleb128 0x3a
 5916 00ba 0B       		.uleb128 0xb
 5917 00bb 3B       		.uleb128 0x3b
 5918 00bc 0B       		.uleb128 0xb
 5919 00bd 49       		.uleb128 0x49
 5920 00be 13       		.uleb128 0x13
 5921 00bf 00       		.byte	0
 5922 00c0 00       		.byte	0
 5923 00c1 10       		.uleb128 0x10
 5924 00c2 26       		.uleb128 0x26
 5925 00c3 00       		.byte	0
 5926 00c4 49       		.uleb128 0x49
 5927 00c5 13       		.uleb128 0x13
 5928 00c6 00       		.byte	0
 5929 00c7 00       		.byte	0
 5930 00c8 11       		.uleb128 0x11
 5931 00c9 17       		.uleb128 0x17
 5932 00ca 01       		.byte	0x1
 5933 00cb 03       		.uleb128 0x3
 5934 00cc 0E       		.uleb128 0xe
 5935 00cd 0B       		.uleb128 0xb
 5936 00ce 0B       		.uleb128 0xb
 5937 00cf 3A       		.uleb128 0x3a
 5938 00d0 0B       		.uleb128 0xb
 5939 00d1 3B       		.uleb128 0x3b
 5940 00d2 0B       		.uleb128 0xb
 5941 00d3 01       		.uleb128 0x1
 5942 00d4 13       		.uleb128 0x13
 5943 00d5 00       		.byte	0
 5944 00d6 00       		.byte	0
ARM GAS  /tmp/ccKcOR50.s 			page 106


 5945 00d7 12       		.uleb128 0x12
 5946 00d8 0D       		.uleb128 0xd
 5947 00d9 00       		.byte	0
 5948 00da 03       		.uleb128 0x3
 5949 00db 08       		.uleb128 0x8
 5950 00dc 3A       		.uleb128 0x3a
 5951 00dd 0B       		.uleb128 0xb
 5952 00de 3B       		.uleb128 0x3b
 5953 00df 0B       		.uleb128 0xb
 5954 00e0 49       		.uleb128 0x49
 5955 00e1 13       		.uleb128 0x13
 5956 00e2 00       		.byte	0
 5957 00e3 00       		.byte	0
 5958 00e4 13       		.uleb128 0x13
 5959 00e5 01       		.uleb128 0x1
 5960 00e6 01       		.byte	0x1
 5961 00e7 49       		.uleb128 0x49
 5962 00e8 13       		.uleb128 0x13
 5963 00e9 01       		.uleb128 0x1
 5964 00ea 13       		.uleb128 0x13
 5965 00eb 00       		.byte	0
 5966 00ec 00       		.byte	0
 5967 00ed 14       		.uleb128 0x14
 5968 00ee 21       		.uleb128 0x21
 5969 00ef 00       		.byte	0
 5970 00f0 49       		.uleb128 0x49
 5971 00f1 13       		.uleb128 0x13
 5972 00f2 2F       		.uleb128 0x2f
 5973 00f3 0B       		.uleb128 0xb
 5974 00f4 00       		.byte	0
 5975 00f5 00       		.byte	0
 5976 00f6 15       		.uleb128 0x15
 5977 00f7 15       		.uleb128 0x15
 5978 00f8 01       		.byte	0x1
 5979 00f9 27       		.uleb128 0x27
 5980 00fa 0C       		.uleb128 0xc
 5981 00fb 01       		.uleb128 0x1
 5982 00fc 13       		.uleb128 0x13
 5983 00fd 00       		.byte	0
 5984 00fe 00       		.byte	0
 5985 00ff 16       		.uleb128 0x16
 5986 0100 05       		.uleb128 0x5
 5987 0101 00       		.byte	0
 5988 0102 49       		.uleb128 0x49
 5989 0103 13       		.uleb128 0x13
 5990 0104 00       		.byte	0
 5991 0105 00       		.byte	0
 5992 0106 17       		.uleb128 0x17
 5993 0107 13       		.uleb128 0x13
 5994 0108 00       		.byte	0
 5995 0109 03       		.uleb128 0x3
 5996 010a 0E       		.uleb128 0xe
 5997 010b 3C       		.uleb128 0x3c
 5998 010c 0C       		.uleb128 0xc
 5999 010d 00       		.byte	0
 6000 010e 00       		.byte	0
 6001 010f 18       		.uleb128 0x18
ARM GAS  /tmp/ccKcOR50.s 			page 107


 6002 0110 04       		.uleb128 0x4
 6003 0111 01       		.byte	0x1
 6004 0112 03       		.uleb128 0x3
 6005 0113 0E       		.uleb128 0xe
 6006 0114 0B       		.uleb128 0xb
 6007 0115 0B       		.uleb128 0xb
 6008 0116 3A       		.uleb128 0x3a
 6009 0117 0B       		.uleb128 0xb
 6010 0118 3B       		.uleb128 0x3b
 6011 0119 0B       		.uleb128 0xb
 6012 011a 01       		.uleb128 0x1
 6013 011b 13       		.uleb128 0x13
 6014 011c 00       		.byte	0
 6015 011d 00       		.byte	0
 6016 011e 19       		.uleb128 0x19
 6017 011f 28       		.uleb128 0x28
 6018 0120 00       		.byte	0
 6019 0121 03       		.uleb128 0x3
 6020 0122 0E       		.uleb128 0xe
 6021 0123 1C       		.uleb128 0x1c
 6022 0124 0D       		.uleb128 0xd
 6023 0125 00       		.byte	0
 6024 0126 00       		.byte	0
 6025 0127 1A       		.uleb128 0x1a
 6026 0128 15       		.uleb128 0x15
 6027 0129 01       		.byte	0x1
 6028 012a 27       		.uleb128 0x27
 6029 012b 0C       		.uleb128 0xc
 6030 012c 49       		.uleb128 0x49
 6031 012d 13       		.uleb128 0x13
 6032 012e 01       		.uleb128 0x1
 6033 012f 13       		.uleb128 0x13
 6034 0130 00       		.byte	0
 6035 0131 00       		.byte	0
 6036 0132 1B       		.uleb128 0x1b
 6037 0133 26       		.uleb128 0x26
 6038 0134 00       		.byte	0
 6039 0135 00       		.byte	0
 6040 0136 00       		.byte	0
 6041 0137 1C       		.uleb128 0x1c
 6042 0138 2E       		.uleb128 0x2e
 6043 0139 01       		.byte	0x1
 6044 013a 03       		.uleb128 0x3
 6045 013b 0E       		.uleb128 0xe
 6046 013c 3A       		.uleb128 0x3a
 6047 013d 0B       		.uleb128 0xb
 6048 013e 3B       		.uleb128 0x3b
 6049 013f 0B       		.uleb128 0xb
 6050 0140 27       		.uleb128 0x27
 6051 0141 0C       		.uleb128 0xc
 6052 0142 20       		.uleb128 0x20
 6053 0143 0B       		.uleb128 0xb
 6054 0144 01       		.uleb128 0x1
 6055 0145 13       		.uleb128 0x13
 6056 0146 00       		.byte	0
 6057 0147 00       		.byte	0
 6058 0148 1D       		.uleb128 0x1d
ARM GAS  /tmp/ccKcOR50.s 			page 108


 6059 0149 34       		.uleb128 0x34
 6060 014a 00       		.byte	0
 6061 014b 03       		.uleb128 0x3
 6062 014c 08       		.uleb128 0x8
 6063 014d 3A       		.uleb128 0x3a
 6064 014e 0B       		.uleb128 0xb
 6065 014f 3B       		.uleb128 0x3b
 6066 0150 0B       		.uleb128 0xb
 6067 0151 49       		.uleb128 0x49
 6068 0152 13       		.uleb128 0x13
 6069 0153 00       		.byte	0
 6070 0154 00       		.byte	0
 6071 0155 1E       		.uleb128 0x1e
 6072 0156 05       		.uleb128 0x5
 6073 0157 00       		.byte	0
 6074 0158 03       		.uleb128 0x3
 6075 0159 08       		.uleb128 0x8
 6076 015a 3A       		.uleb128 0x3a
 6077 015b 0B       		.uleb128 0xb
 6078 015c 3B       		.uleb128 0x3b
 6079 015d 0B       		.uleb128 0xb
 6080 015e 49       		.uleb128 0x49
 6081 015f 13       		.uleb128 0x13
 6082 0160 00       		.byte	0
 6083 0161 00       		.byte	0
 6084 0162 1F       		.uleb128 0x1f
 6085 0163 2E       		.uleb128 0x2e
 6086 0164 01       		.byte	0x1
 6087 0165 3F       		.uleb128 0x3f
 6088 0166 0C       		.uleb128 0xc
 6089 0167 03       		.uleb128 0x3
 6090 0168 0E       		.uleb128 0xe
 6091 0169 3A       		.uleb128 0x3a
 6092 016a 0B       		.uleb128 0xb
 6093 016b 3B       		.uleb128 0x3b
 6094 016c 0B       		.uleb128 0xb
 6095 016d 27       		.uleb128 0x27
 6096 016e 0C       		.uleb128 0xc
 6097 016f 49       		.uleb128 0x49
 6098 0170 13       		.uleb128 0x13
 6099 0171 11       		.uleb128 0x11
 6100 0172 01       		.uleb128 0x1
 6101 0173 12       		.uleb128 0x12
 6102 0174 01       		.uleb128 0x1
 6103 0175 40       		.uleb128 0x40
 6104 0176 06       		.uleb128 0x6
 6105 0177 9742     		.uleb128 0x2117
 6106 0179 0C       		.uleb128 0xc
 6107 017a 01       		.uleb128 0x1
 6108 017b 13       		.uleb128 0x13
 6109 017c 00       		.byte	0
 6110 017d 00       		.byte	0
 6111 017e 20       		.uleb128 0x20
 6112 017f 34       		.uleb128 0x34
 6113 0180 00       		.byte	0
 6114 0181 03       		.uleb128 0x3
 6115 0182 08       		.uleb128 0x8
ARM GAS  /tmp/ccKcOR50.s 			page 109


 6116 0183 3A       		.uleb128 0x3a
 6117 0184 0B       		.uleb128 0xb
 6118 0185 3B       		.uleb128 0x3b
 6119 0186 0B       		.uleb128 0xb
 6120 0187 49       		.uleb128 0x49
 6121 0188 13       		.uleb128 0x13
 6122 0189 02       		.uleb128 0x2
 6123 018a 06       		.uleb128 0x6
 6124 018b 00       		.byte	0
 6125 018c 00       		.byte	0
 6126 018d 21       		.uleb128 0x21
 6127 018e 1D       		.uleb128 0x1d
 6128 018f 01       		.byte	0x1
 6129 0190 31       		.uleb128 0x31
 6130 0191 13       		.uleb128 0x13
 6131 0192 52       		.uleb128 0x52
 6132 0193 01       		.uleb128 0x1
 6133 0194 55       		.uleb128 0x55
 6134 0195 06       		.uleb128 0x6
 6135 0196 58       		.uleb128 0x58
 6136 0197 0B       		.uleb128 0xb
 6137 0198 59       		.uleb128 0x59
 6138 0199 0B       		.uleb128 0xb
 6139 019a 01       		.uleb128 0x1
 6140 019b 13       		.uleb128 0x13
 6141 019c 00       		.byte	0
 6142 019d 00       		.byte	0
 6143 019e 22       		.uleb128 0x22
 6144 019f 0B       		.uleb128 0xb
 6145 01a0 01       		.byte	0x1
 6146 01a1 55       		.uleb128 0x55
 6147 01a2 06       		.uleb128 0x6
 6148 01a3 00       		.byte	0
 6149 01a4 00       		.byte	0
 6150 01a5 23       		.uleb128 0x23
 6151 01a6 34       		.uleb128 0x34
 6152 01a7 00       		.byte	0
 6153 01a8 31       		.uleb128 0x31
 6154 01a9 13       		.uleb128 0x13
 6155 01aa 02       		.uleb128 0x2
 6156 01ab 0A       		.uleb128 0xa
 6157 01ac 00       		.byte	0
 6158 01ad 00       		.byte	0
 6159 01ae 24       		.uleb128 0x24
 6160 01af 898201   		.uleb128 0x4109
 6161 01b2 01       		.byte	0x1
 6162 01b3 11       		.uleb128 0x11
 6163 01b4 01       		.uleb128 0x1
 6164 01b5 31       		.uleb128 0x31
 6165 01b6 13       		.uleb128 0x13
 6166 01b7 01       		.uleb128 0x1
 6167 01b8 13       		.uleb128 0x13
 6168 01b9 00       		.byte	0
 6169 01ba 00       		.byte	0
 6170 01bb 25       		.uleb128 0x25
 6171 01bc 8A8201   		.uleb128 0x410a
 6172 01bf 00       		.byte	0
ARM GAS  /tmp/ccKcOR50.s 			page 110


 6173 01c0 02       		.uleb128 0x2
 6174 01c1 0A       		.uleb128 0xa
 6175 01c2 9142     		.uleb128 0x2111
 6176 01c4 0A       		.uleb128 0xa
 6177 01c5 00       		.byte	0
 6178 01c6 00       		.byte	0
 6179 01c7 26       		.uleb128 0x26
 6180 01c8 898201   		.uleb128 0x4109
 6181 01cb 00       		.byte	0
 6182 01cc 11       		.uleb128 0x11
 6183 01cd 01       		.uleb128 0x1
 6184 01ce 31       		.uleb128 0x31
 6185 01cf 13       		.uleb128 0x13
 6186 01d0 00       		.byte	0
 6187 01d1 00       		.byte	0
 6188 01d2 27       		.uleb128 0x27
 6189 01d3 898201   		.uleb128 0x4109
 6190 01d6 01       		.byte	0x1
 6191 01d7 11       		.uleb128 0x11
 6192 01d8 01       		.uleb128 0x1
 6193 01d9 31       		.uleb128 0x31
 6194 01da 13       		.uleb128 0x13
 6195 01db 00       		.byte	0
 6196 01dc 00       		.byte	0
 6197 01dd 28       		.uleb128 0x28
 6198 01de 1D       		.uleb128 0x1d
 6199 01df 01       		.byte	0x1
 6200 01e0 31       		.uleb128 0x31
 6201 01e1 13       		.uleb128 0x13
 6202 01e2 52       		.uleb128 0x52
 6203 01e3 01       		.uleb128 0x1
 6204 01e4 55       		.uleb128 0x55
 6205 01e5 06       		.uleb128 0x6
 6206 01e6 58       		.uleb128 0x58
 6207 01e7 0B       		.uleb128 0xb
 6208 01e8 59       		.uleb128 0x59
 6209 01e9 05       		.uleb128 0x5
 6210 01ea 01       		.uleb128 0x1
 6211 01eb 13       		.uleb128 0x13
 6212 01ec 00       		.byte	0
 6213 01ed 00       		.byte	0
 6214 01ee 29       		.uleb128 0x29
 6215 01ef 05       		.uleb128 0x5
 6216 01f0 00       		.byte	0
 6217 01f1 31       		.uleb128 0x31
 6218 01f2 13       		.uleb128 0x13
 6219 01f3 02       		.uleb128 0x2
 6220 01f4 06       		.uleb128 0x6
 6221 01f5 00       		.byte	0
 6222 01f6 00       		.byte	0
 6223 01f7 2A       		.uleb128 0x2a
 6224 01f8 0B       		.uleb128 0xb
 6225 01f9 01       		.byte	0x1
 6226 01fa 55       		.uleb128 0x55
 6227 01fb 06       		.uleb128 0x6
 6228 01fc 01       		.uleb128 0x1
 6229 01fd 13       		.uleb128 0x13
ARM GAS  /tmp/ccKcOR50.s 			page 111


 6230 01fe 00       		.byte	0
 6231 01ff 00       		.byte	0
 6232 0200 2B       		.uleb128 0x2b
 6233 0201 34       		.uleb128 0x34
 6234 0202 00       		.byte	0
 6235 0203 03       		.uleb128 0x3
 6236 0204 0E       		.uleb128 0xe
 6237 0205 3A       		.uleb128 0x3a
 6238 0206 0B       		.uleb128 0xb
 6239 0207 3B       		.uleb128 0x3b
 6240 0208 05       		.uleb128 0x5
 6241 0209 49       		.uleb128 0x49
 6242 020a 13       		.uleb128 0x13
 6243 020b 02       		.uleb128 0x2
 6244 020c 06       		.uleb128 0x6
 6245 020d 00       		.byte	0
 6246 020e 00       		.byte	0
 6247 020f 2C       		.uleb128 0x2c
 6248 0210 34       		.uleb128 0x34
 6249 0211 00       		.byte	0
 6250 0212 03       		.uleb128 0x3
 6251 0213 0E       		.uleb128 0xe
 6252 0214 3A       		.uleb128 0x3a
 6253 0215 0B       		.uleb128 0xb
 6254 0216 3B       		.uleb128 0x3b
 6255 0217 0B       		.uleb128 0xb
 6256 0218 49       		.uleb128 0x49
 6257 0219 13       		.uleb128 0x13
 6258 021a 02       		.uleb128 0x2
 6259 021b 0A       		.uleb128 0xa
 6260 021c 00       		.byte	0
 6261 021d 00       		.byte	0
 6262 021e 2D       		.uleb128 0x2d
 6263 021f 34       		.uleb128 0x34
 6264 0220 00       		.byte	0
 6265 0221 03       		.uleb128 0x3
 6266 0222 08       		.uleb128 0x8
 6267 0223 3A       		.uleb128 0x3a
 6268 0224 0B       		.uleb128 0xb
 6269 0225 3B       		.uleb128 0x3b
 6270 0226 0B       		.uleb128 0xb
 6271 0227 49       		.uleb128 0x49
 6272 0228 13       		.uleb128 0x13
 6273 0229 02       		.uleb128 0x2
 6274 022a 0A       		.uleb128 0xa
 6275 022b 00       		.byte	0
 6276 022c 00       		.byte	0
 6277 022d 2E       		.uleb128 0x2e
 6278 022e 34       		.uleb128 0x34
 6279 022f 00       		.byte	0
 6280 0230 03       		.uleb128 0x3
 6281 0231 0E       		.uleb128 0xe
 6282 0232 3A       		.uleb128 0x3a
 6283 0233 0B       		.uleb128 0xb
 6284 0234 3B       		.uleb128 0x3b
 6285 0235 0B       		.uleb128 0xb
 6286 0236 49       		.uleb128 0x49
ARM GAS  /tmp/ccKcOR50.s 			page 112


 6287 0237 13       		.uleb128 0x13
 6288 0238 00       		.byte	0
 6289 0239 00       		.byte	0
 6290 023a 2F       		.uleb128 0x2f
 6291 023b 34       		.uleb128 0x34
 6292 023c 00       		.byte	0
 6293 023d 03       		.uleb128 0x3
 6294 023e 0E       		.uleb128 0xe
 6295 023f 3A       		.uleb128 0x3a
 6296 0240 0B       		.uleb128 0xb
 6297 0241 3B       		.uleb128 0x3b
 6298 0242 05       		.uleb128 0x5
 6299 0243 49       		.uleb128 0x49
 6300 0244 13       		.uleb128 0x13
 6301 0245 3F       		.uleb128 0x3f
 6302 0246 0C       		.uleb128 0xc
 6303 0247 3C       		.uleb128 0x3c
 6304 0248 0C       		.uleb128 0xc
 6305 0249 00       		.byte	0
 6306 024a 00       		.byte	0
 6307 024b 30       		.uleb128 0x30
 6308 024c 34       		.uleb128 0x34
 6309 024d 00       		.byte	0
 6310 024e 03       		.uleb128 0x3
 6311 024f 0E       		.uleb128 0xe
 6312 0250 3A       		.uleb128 0x3a
 6313 0251 0B       		.uleb128 0xb
 6314 0252 3B       		.uleb128 0x3b
 6315 0253 0B       		.uleb128 0xb
 6316 0254 49       		.uleb128 0x49
 6317 0255 13       		.uleb128 0x13
 6318 0256 3F       		.uleb128 0x3f
 6319 0257 0C       		.uleb128 0xc
 6320 0258 3C       		.uleb128 0x3c
 6321 0259 0C       		.uleb128 0xc
 6322 025a 00       		.byte	0
 6323 025b 00       		.byte	0
 6324 025c 31       		.uleb128 0x31
 6325 025d 2E       		.uleb128 0x2e
 6326 025e 01       		.byte	0x1
 6327 025f 3F       		.uleb128 0x3f
 6328 0260 0C       		.uleb128 0xc
 6329 0261 03       		.uleb128 0x3
 6330 0262 0E       		.uleb128 0xe
 6331 0263 3A       		.uleb128 0x3a
 6332 0264 0B       		.uleb128 0xb
 6333 0265 3B       		.uleb128 0x3b
 6334 0266 0B       		.uleb128 0xb
 6335 0267 27       		.uleb128 0x27
 6336 0268 0C       		.uleb128 0xc
 6337 0269 49       		.uleb128 0x49
 6338 026a 13       		.uleb128 0x13
 6339 026b 3C       		.uleb128 0x3c
 6340 026c 0C       		.uleb128 0xc
 6341 026d 01       		.uleb128 0x1
 6342 026e 13       		.uleb128 0x13
 6343 026f 00       		.byte	0
ARM GAS  /tmp/ccKcOR50.s 			page 113


 6344 0270 00       		.byte	0
 6345 0271 32       		.uleb128 0x32
 6346 0272 2E       		.uleb128 0x2e
 6347 0273 01       		.byte	0x1
 6348 0274 3F       		.uleb128 0x3f
 6349 0275 0C       		.uleb128 0xc
 6350 0276 03       		.uleb128 0x3
 6351 0277 0E       		.uleb128 0xe
 6352 0278 3A       		.uleb128 0x3a
 6353 0279 0B       		.uleb128 0xb
 6354 027a 3B       		.uleb128 0x3b
 6355 027b 0B       		.uleb128 0xb
 6356 027c 27       		.uleb128 0x27
 6357 027d 0C       		.uleb128 0xc
 6358 027e 3C       		.uleb128 0x3c
 6359 027f 0C       		.uleb128 0xc
 6360 0280 01       		.uleb128 0x1
 6361 0281 13       		.uleb128 0x13
 6362 0282 00       		.byte	0
 6363 0283 00       		.byte	0
 6364 0284 33       		.uleb128 0x33
 6365 0285 2E       		.uleb128 0x2e
 6366 0286 01       		.byte	0x1
 6367 0287 3F       		.uleb128 0x3f
 6368 0288 0C       		.uleb128 0xc
 6369 0289 03       		.uleb128 0x3
 6370 028a 0E       		.uleb128 0xe
 6371 028b 3A       		.uleb128 0x3a
 6372 028c 0B       		.uleb128 0xb
 6373 028d 3B       		.uleb128 0x3b
 6374 028e 05       		.uleb128 0x5
 6375 028f 27       		.uleb128 0x27
 6376 0290 0C       		.uleb128 0xc
 6377 0291 3C       		.uleb128 0x3c
 6378 0292 0C       		.uleb128 0xc
 6379 0293 01       		.uleb128 0x1
 6380 0294 13       		.uleb128 0x13
 6381 0295 00       		.byte	0
 6382 0296 00       		.byte	0
 6383 0297 34       		.uleb128 0x34
 6384 0298 18       		.uleb128 0x18
 6385 0299 00       		.byte	0
 6386 029a 00       		.byte	0
 6387 029b 00       		.byte	0
 6388 029c 35       		.uleb128 0x35
 6389 029d 2E       		.uleb128 0x2e
 6390 029e 00       		.byte	0
 6391 029f 3F       		.uleb128 0x3f
 6392 02a0 0C       		.uleb128 0xc
 6393 02a1 03       		.uleb128 0x3
 6394 02a2 0E       		.uleb128 0xe
 6395 02a3 3A       		.uleb128 0x3a
 6396 02a4 0B       		.uleb128 0xb
 6397 02a5 3B       		.uleb128 0x3b
 6398 02a6 0B       		.uleb128 0xb
 6399 02a7 27       		.uleb128 0x27
 6400 02a8 0C       		.uleb128 0xc
ARM GAS  /tmp/ccKcOR50.s 			page 114


 6401 02a9 3C       		.uleb128 0x3c
 6402 02aa 0C       		.uleb128 0xc
 6403 02ab 00       		.byte	0
 6404 02ac 00       		.byte	0
 6405 02ad 36       		.uleb128 0x36
 6406 02ae 2E       		.uleb128 0x2e
 6407 02af 01       		.byte	0x1
 6408 02b0 3F       		.uleb128 0x3f
 6409 02b1 0C       		.uleb128 0xc
 6410 02b2 03       		.uleb128 0x3
 6411 02b3 0E       		.uleb128 0xe
 6412 02b4 3A       		.uleb128 0x3a
 6413 02b5 0B       		.uleb128 0xb
 6414 02b6 3B       		.uleb128 0x3b
 6415 02b7 05       		.uleb128 0x5
 6416 02b8 27       		.uleb128 0x27
 6417 02b9 0C       		.uleb128 0xc
 6418 02ba 49       		.uleb128 0x49
 6419 02bb 13       		.uleb128 0x13
 6420 02bc 3C       		.uleb128 0x3c
 6421 02bd 0C       		.uleb128 0xc
 6422 02be 01       		.uleb128 0x1
 6423 02bf 13       		.uleb128 0x13
 6424 02c0 00       		.byte	0
 6425 02c1 00       		.byte	0
 6426 02c2 37       		.uleb128 0x37
 6427 02c3 2E       		.uleb128 0x2e
 6428 02c4 01       		.byte	0x1
 6429 02c5 3F       		.uleb128 0x3f
 6430 02c6 0C       		.uleb128 0xc
 6431 02c7 03       		.uleb128 0x3
 6432 02c8 0E       		.uleb128 0xe
 6433 02c9 3A       		.uleb128 0x3a
 6434 02ca 0B       		.uleb128 0xb
 6435 02cb 3B       		.uleb128 0x3b
 6436 02cc 0B       		.uleb128 0xb
 6437 02cd 27       		.uleb128 0x27
 6438 02ce 0C       		.uleb128 0xc
 6439 02cf 3C       		.uleb128 0x3c
 6440 02d0 0C       		.uleb128 0xc
 6441 02d1 00       		.byte	0
 6442 02d2 00       		.byte	0
 6443 02d3 00       		.byte	0
 6444              		.section	.debug_loc,"",%progbits
 6445              	.Ldebug_loc0:
 6446              	.LLST0:
 6447 0000 00000000 		.4byte	.LFB121
 6448 0004 04000000 		.4byte	.LCFI0
 6449 0008 0200     		.2byte	0x2
 6450 000a 7D       		.byte	0x7d
 6451 000b 00       		.sleb128 0
 6452 000c 04000000 		.4byte	.LCFI0
 6453 0010 06000000 		.4byte	.LCFI1
 6454 0014 0200     		.2byte	0x2
 6455 0016 7D       		.byte	0x7d
 6456 0017 24       		.sleb128 36
 6457 0018 06000000 		.4byte	.LCFI1
ARM GAS  /tmp/ccKcOR50.s 			page 115


 6458 001c 6C0A0000 		.4byte	.LFE121
 6459 0020 0300     		.2byte	0x3
 6460 0022 7D       		.byte	0x7d
 6461 0023 E000     		.sleb128 96
 6462 0025 00000000 		.4byte	0
 6463 0029 00000000 		.4byte	0
 6464              	.LLST1:
 6465 002d 00050000 		.4byte	.LVL38
 6466 0031 18050000 		.4byte	.LVL39
 6467 0035 0100     		.2byte	0x1
 6468 0037 50       		.byte	0x50
 6469 0038 18050000 		.4byte	.LVL39
 6470 003c 96060000 		.4byte	.LVL61
 6471 0040 0100     		.2byte	0x1
 6472 0042 54       		.byte	0x54
 6473 0043 08070000 		.4byte	.LVL67
 6474 0047 0A070000 		.4byte	.LVL68
 6475 004b 0100     		.2byte	0x1
 6476 004d 50       		.byte	0x50
 6477 004e 0A070000 		.4byte	.LVL68
 6478 0052 52070000 		.4byte	.LVL72
 6479 0056 0100     		.2byte	0x1
 6480 0058 54       		.byte	0x54
 6481 0059 52080000 		.4byte	.LVL90
 6482 005d 54080000 		.4byte	.LVL91
 6483 0061 0100     		.2byte	0x1
 6484 0063 50       		.byte	0x50
 6485 0064 54080000 		.4byte	.LVL91
 6486 0068 68080000 		.4byte	.LVL94
 6487 006c 0100     		.2byte	0x1
 6488 006e 54       		.byte	0x54
 6489 006f 68080000 		.4byte	.LVL94
 6490 0073 6A080000 		.4byte	.LVL95
 6491 0077 0100     		.2byte	0x1
 6492 0079 50       		.byte	0x50
 6493 007a 6A080000 		.4byte	.LVL95
 6494 007e 72080000 		.4byte	.LVL97
 6495 0082 0100     		.2byte	0x1
 6496 0084 54       		.byte	0x54
 6497 0085 72080000 		.4byte	.LVL97
 6498 0089 74080000 		.4byte	.LVL98
 6499 008d 0100     		.2byte	0x1
 6500 008f 50       		.byte	0x50
 6501 0090 74080000 		.4byte	.LVL98
 6502 0094 B4080000 		.4byte	.LVL102
 6503 0098 0100     		.2byte	0x1
 6504 009a 54       		.byte	0x54
 6505 009b 12090000 		.4byte	.LVL108
 6506 009f 14090000 		.4byte	.LVL109
 6507 00a3 0100     		.2byte	0x1
 6508 00a5 54       		.byte	0x54
 6509 00a6 16090000 		.4byte	.LVL110
 6510 00aa 6C0A0000 		.4byte	.LFE121
 6511 00ae 0100     		.2byte	0x1
 6512 00b0 54       		.byte	0x54
 6513 00b1 00000000 		.4byte	0
 6514 00b5 00000000 		.4byte	0
ARM GAS  /tmp/ccKcOR50.s 			page 116


 6515              	.LLST2:
 6516 00b9 48050000 		.4byte	.LVL42
 6517 00bd 94060000 		.4byte	.LVL60
 6518 00c1 0100     		.2byte	0x1
 6519 00c3 5B       		.byte	0x5b
 6520 00c4 16090000 		.4byte	.LVL110
 6521 00c8 CE090000 		.4byte	.LVL126
 6522 00cc 0100     		.2byte	0x1
 6523 00ce 5B       		.byte	0x5b
 6524 00cf E2090000 		.4byte	.LVL128
 6525 00d3 6C0A0000 		.4byte	.LFE121
 6526 00d7 0100     		.2byte	0x1
 6527 00d9 5B       		.byte	0x5b
 6528 00da 00000000 		.4byte	0
 6529 00de 00000000 		.4byte	0
 6530              	.LLST3:
 6531 00e2 5E070000 		.4byte	.LVL73
 6532 00e6 52080000 		.4byte	.LVL90
 6533 00ea 0100     		.2byte	0x1
 6534 00ec 54       		.byte	0x54
 6535 00ed 00000000 		.4byte	0
 6536 00f1 00000000 		.4byte	0
 6537              	.LLST4:
 6538 00f5 BA080000 		.4byte	.LVL103
 6539 00f9 12090000 		.4byte	.LVL108
 6540 00fd 0100     		.2byte	0x1
 6541 00ff 54       		.byte	0x54
 6542 0100 00000000 		.4byte	0
 6543 0104 00000000 		.4byte	0
 6544              		.section	.debug_aranges,"",%progbits
 6545 0000 1C000000 		.4byte	0x1c
 6546 0004 0200     		.2byte	0x2
 6547 0006 00000000 		.4byte	.Ldebug_info0
 6548 000a 04       		.byte	0x4
 6549 000b 00       		.byte	0
 6550 000c 0000     		.2byte	0
 6551 000e 0000     		.2byte	0
 6552 0010 00000000 		.4byte	.LFB121
 6553 0014 6C0A0000 		.4byte	.LFE121-.LFB121
 6554 0018 00000000 		.4byte	0
 6555 001c 00000000 		.4byte	0
 6556              		.section	.debug_ranges,"",%progbits
 6557              	.Ldebug_ranges0:
 6558 0000 0C000000 		.4byte	.LBB9
 6559 0004 1A000000 		.4byte	.LBE9
 6560 0008 38000000 		.4byte	.LBB13
 6561 000c C4040000 		.4byte	.LBE13
 6562 0010 C6040000 		.4byte	.LBB14
 6563 0014 CA040000 		.4byte	.LBE14
 6564 0018 00000000 		.4byte	0
 6565 001c 00000000 		.4byte	0
 6566 0020 0C000000 		.4byte	.LBB10
 6567 0024 1A000000 		.4byte	.LBE10
 6568 0028 38000000 		.4byte	.LBB11
 6569 002c C4040000 		.4byte	.LBE11
 6570 0030 C6040000 		.4byte	.LBB12
 6571 0034 CA040000 		.4byte	.LBE12
ARM GAS  /tmp/ccKcOR50.s 			page 117


 6572 0038 00000000 		.4byte	0
 6573 003c 00000000 		.4byte	0
 6574 0040 38050000 		.4byte	.LBB15
 6575 0044 44050000 		.4byte	.LBE15
 6576 0048 48050000 		.4byte	.LBB19
 6577 004c 94060000 		.4byte	.LBE19
 6578 0050 16090000 		.4byte	.LBB26
 6579 0054 6C0A0000 		.4byte	.LBE26
 6580 0058 00000000 		.4byte	0
 6581 005c 00000000 		.4byte	0
 6582 0060 52070000 		.4byte	.LBB20
 6583 0064 5A070000 		.4byte	.LBE20
 6584 0068 5E070000 		.4byte	.LBB23
 6585 006c 52080000 		.4byte	.LBE23
 6586 0070 00000000 		.4byte	0
 6587 0074 00000000 		.4byte	0
 6588 0078 92080000 		.4byte	.LBB24
 6589 007c 10090000 		.4byte	.LBE24
 6590 0080 12090000 		.4byte	.LBB25
 6591 0084 16090000 		.4byte	.LBE25
 6592 0088 00000000 		.4byte	0
 6593 008c 00000000 		.4byte	0
 6594 0090 00000000 		.4byte	.LFB121
 6595 0094 6C0A0000 		.4byte	.LFE121
 6596 0098 00000000 		.4byte	0
 6597 009c 00000000 		.4byte	0
 6598              		.section	.debug_line,"",%progbits
 6599              	.Ldebug_line0:
 6600 0000 0D040000 		.section	.debug_str,"MS",%progbits,1
 6600      0200B402 
 6600      00000201 
 6600      FB0E0D00 
 6600      01010101 
 6601              	.LASF2:
 6602 0000 73697A65 		.ascii	"size_t\000"
 6602      5F7400
 6603              	.LASF51:
 6604 0007 73697A65 		.ascii	"sizetype\000"
 6604      74797065 
 6604      00
 6605              	.LASF24:
 6606 0010 73797374 		.ascii	"systime_t\000"
 6606      696D655F 
 6606      7400
 6607              	.LASF150:
 6608 001a 63757374 		.ascii	"customStyle\000"
 6608      6F6D5374 
 6608      796C6500 
 6609              	.LASF30:
 6610 0026 705F6374 		.ascii	"p_ctx\000"
 6610      7800
 6611              	.LASF232:
 6612 002c 6777696E 		.ascii	"gwinSetText\000"
 6612      53657454 
 6612      65787400 
 6613              	.LASF21:
 6614 0038 74707269 		.ascii	"tprio_t\000"
ARM GAS  /tmp/ccKcOR50.s 			page 118


 6614      6F5F7400 
 6615              	.LASF152:
 6616 0040 62757474 		.ascii	"button\000"
 6616      6F6E00
 6617              	.LASF80:
 6618 0047 636F6F72 		.ascii	"coord_t\000"
 6618      645F7400 
 6619              	.LASF40:
 6620 004f 705F6D73 		.ascii	"p_msgqueue\000"
 6620      67717565 
 6620      756500
 6621              	.LASF163:
 6622 005a 47457665 		.ascii	"GEventGWinRadio\000"
 6622      6E744757 
 6622      696E5261 
 6622      64696F00 
 6623              	.LASF98:
 6624 006a 506F7765 		.ascii	"Powermode\000"
 6624      726D6F64 
 6624      6500
 6625              	.LASF9:
 6626 0074 696E7433 		.ascii	"int32_t\000"
 6626      325F7400 
 6627              	.LASF138:
 6628 007c 6261636B 		.ascii	"background\000"
 6628      67726F75 
 6628      6E6400
 6629              	.LASF160:
 6630 0087 63686563 		.ascii	"checkbox\000"
 6630      6B626F78 
 6630      00
 6631              	.LASF151:
 6632 0090 47457665 		.ascii	"GEventGWinButton\000"
 6632      6E744757 
 6632      696E4275 
 6632      74746F6E 
 6632      00
 6633              	.LASF132:
 6634 00a1 47436F6C 		.ascii	"GColorSet\000"
 6634      6F725365 
 6634      7400
 6635              	.LASF170:
 6636 00ab 73657445 		.ascii	"setEnabled\000"
 6636      6E61626C 
 6636      656400
 6637              	.LASF96:
 6638 00b6 48656967 		.ascii	"Height\000"
 6638      687400
 6639              	.LASF168:
 6640 00bd 474C6162 		.ascii	"GLabelObject\000"
 6640      656C4F62 
 6640      6A656374 
 6640      00
 6641              	.LASF226:
 6642 00ca 474E5520 		.ascii	"GNU C 4.7.4 20130613 (release) [ARM/embedded-4_7-br"
 6642      4320342E 
 6642      372E3420 
ARM GAS  /tmp/ccKcOR50.s 			page 119


 6642      32303133 
 6642      30363133 
 6643 00fd 616E6368 		.ascii	"anch revision 200083]\000"
 6643      20726576 
 6643      6973696F 
 6643      6E203230 
 6643      30303833 
 6644              	.LASF216:
 6645 0113 67646973 		.ascii	"gdispOpenFont\000"
 6645      704F7065 
 6645      6E466F6E 
 6645      7400
 6646              	.LASF172:
 6647 0121 59656C6C 		.ascii	"YellowWidgetStyle\000"
 6647      6F775769 
 6647      64676574 
 6647      5374796C 
 6647      6500
 6648              	.LASF125:
 6649 0133 67646973 		.ascii	"gdispImagePrivate\000"
 6649      70496D61 
 6649      67655072 
 6649      69766174 
 6649      6500
 6650              	.LASF112:
 6651 0145 67646973 		.ascii	"gdispImageIOSeekFn\000"
 6651      70496D61 
 6651      6765494F 
 6651      5365656B 
 6651      466E00
 6652              	.LASF71:
 6653 0158 74797065 		.ascii	"type\000"
 6653      00
 6654              	.LASF224:
 6655 015d 6777696E 		.ascii	"gwinGetText\000"
 6655      47657454 
 6655      65787400 
 6656              	.LASF209:
 6657 0169 6777696E 		.ascii	"gwinRadioPress\000"
 6657      52616469 
 6657      6F507265 
 6657      737300
 6658              	.LASF228:
 6659 0178 2F686F6D 		.ascii	"/home/witold/Dokumenty/arm/ChibiOS-master/demos/wid"
 6659      652F7769 
 6659      746F6C64 
 6659      2F446F6B 
 6659      756D656E 
 6660 01ab 67657473 		.ascii	"gets\000"
 6660      00
 6661              	.LASF77:
 6662 01b0 63616C6C 		.ascii	"callback\000"
 6662      6261636B 
 6662      00
 6663              	.LASF88:
 6664 01b9 706F7765 		.ascii	"powermode\000"
 6664      726D6F64 
ARM GAS  /tmp/ccKcOR50.s 			page 120


 6664      6500
 6665              	.LASF122:
 6666 01c3 70726976 		.ascii	"priv\000"
 6666      00
 6667              	.LASF149:
 6668 01c8 63757374 		.ascii	"customParam\000"
 6668      6F6D5061 
 6668      72616D00 
 6669              	.LASF57:
 6670 01d4 6D5F6F77 		.ascii	"m_owner\000"
 6670      6E657200 
 6671              	.LASF60:
 6672 01dc 65786974 		.ascii	"exitcode\000"
 6672      636F6465 
 6672      00
 6673              	.LASF185:
 6674 01e5 6768536C 		.ascii	"ghSlider1\000"
 6674      69646572 
 6674      3100
 6675              	.LASF186:
 6676 01ef 6768536C 		.ascii	"ghSlider2\000"
 6676      69646572 
 6676      3200
 6677              	.LASF187:
 6678 01f9 6768536C 		.ascii	"ghSlider3\000"
 6678      69646572 
 6678      3300
 6679              	.LASF62:
 6680 0203 65776D61 		.ascii	"ewmask\000"
 6680      736B00
 6681              	.LASF131:
 6682 020a 73686F77 		.ascii	"show\000"
 6682      00
 6683              	.LASF95:
 6684 020f 57696474 		.ascii	"Width\000"
 6684      6800
 6685              	.LASF215:
 6686 0215 6777696E 		.ascii	"gwinSetDefaultStyle\000"
 6686      53657444 
 6686      65666175 
 6686      6C745374 
 6686      796C6500 
 6687              	.LASF31:
 6688 0229 705F6E65 		.ascii	"p_newer\000"
 6688      77657200 
 6689              	.LASF167:
 6690 0231 47436F6E 		.ascii	"GConsoleObject\000"
 6690      736F6C65 
 6690      4F626A65 
 6690      637400
 6691              	.LASF10:
 6692 0240 6C6F6E67 		.ascii	"long int\000"
 6692      20696E74 
 6692      00
 6693              	.LASF27:
 6694 0249 705F6E65 		.ascii	"p_next\000"
 6694      787400
ARM GAS  /tmp/ccKcOR50.s 			page 121


 6695              	.LASF28:
 6696 0250 705F7072 		.ascii	"p_prev\000"
 6696      657600
 6697              	.LASF180:
 6698 0257 67685461 		.ascii	"ghTabImages\000"
 6698      62496D61 
 6698      67657300 
 6699              	.LASF192:
 6700 0263 67684C61 		.ascii	"ghLabel1\000"
 6700      62656C31 
 6700      00
 6701              	.LASF18:
 6702 026c 74737461 		.ascii	"tstate_t\000"
 6702      74655F74 
 6702      00
 6703              	.LASF148:
 6704 0275 63757374 		.ascii	"customDraw\000"
 6704      6F6D4472 
 6704      617700
 6705              	.LASF43:
 6706 0280 705F6D74 		.ascii	"p_mtxlist\000"
 6706      786C6973 
 6706      7400
 6707              	.LASF48:
 6708 028a 72656761 		.ascii	"regarm_t\000"
 6708      726D5F74 
 6708      00
 6709              	.LASF225:
 6710 0293 67667853 		.ascii	"gfxSleepMilliseconds\000"
 6710      6C656570 
 6710      4D696C6C 
 6710      69736563 
 6710      6F6E6473 
 6711              	.LASF109:
 6712 02a8 67646973 		.ascii	"gdispImageIOCloseFn\000"
 6712      70496D61 
 6712      6765494F 
 6712      436C6F73 
 6712      65466E00 
 6713              	.LASF204:
 6714 02bc 6777696E 		.ascii	"gwinButtonCreate\000"
 6714      42757474 
 6714      6F6E4372 
 6714      65617465 
 6714      00
 6715              	.LASF223:
 6716 02cd 67657665 		.ascii	"geventEventWait\000"
 6716      6E744576 
 6716      656E7457 
 6716      61697400 
 6717              	.LASF208:
 6718 02dd 6777696E 		.ascii	"gwinConsoleCreate\000"
 6718      436F6E73 
 6718      6F6C6543 
 6718      72656174 
 6718      6500
 6719              	.LASF115:
ARM GAS  /tmp/ccKcOR50.s 			page 122


 6720 02ef 7365656B 		.ascii	"seek\000"
 6720      00
 6721              	.LASF1:
 6722 02f4 7369676E 		.ascii	"signed char\000"
 6722      65642063 
 6722      68617200 
 6723              	.LASF37:
 6724 0300 705F7072 		.ascii	"p_preempt\000"
 6724      65656D70 
 6724      7400
 6725              	.LASF3:
 6726 030a 75696E74 		.ascii	"uint8_t\000"
 6726      385F7400 
 6727              	.LASF210:
 6728 0312 6777696E 		.ascii	"gwinSetVisible\000"
 6728      53657456 
 6728      69736962 
 6728      6C6500
 6729              	.LASF23:
 6730 0321 6576656E 		.ascii	"eventmask_t\000"
 6730      746D6173 
 6730      6B5F7400 
 6731              	.LASF50:
 6732 032d 636F6E74 		.ascii	"context\000"
 6732      65787400 
 6733              	.LASF188:
 6734 0335 6768536C 		.ascii	"ghSlider4\000"
 6734      69646572 
 6734      3400
 6735              	.LASF4:
 6736 033f 756E7369 		.ascii	"unsigned char\000"
 6736      676E6564 
 6736      20636861 
 6736      7200
 6737              	.LASF171:
 6738 034d 73657454 		.ascii	"setTab\000"
 6738      616200
 6739              	.LASF97:
 6740 0354 4F726965 		.ascii	"Orientation\000"
 6740      6E746174 
 6740      696F6E00 
 6741              	.LASF16:
 6742 0360 5F426F6F 		.ascii	"_Bool\000"
 6742      6C00
 6743              	.LASF229:
 6744 0366 47457665 		.ascii	"GEvent_u\000"
 6744      6E745F75 
 6744      00
 6745              	.LASF222:
 6746 036f 6777696E 		.ascii	"gwinAttachListener\000"
 6746      41747461 
 6746      63684C69 
 6746      7374656E 
 6746      657200
 6747              	.LASF118:
 6748 0382 666C6167 		.ascii	"flags\000"
 6748      7300
ARM GAS  /tmp/ccKcOR50.s 			page 123


 6749              	.LASF67:
 6750 0388 67667853 		.ascii	"gfxSem\000"
 6750      656D00
 6751              	.LASF63:
 6752 038f 63686172 		.ascii	"char\000"
 6752      00
 6753              	.LASF29:
 6754 0394 705F7072 		.ascii	"p_prio\000"
 6754      696F00
 6755              	.LASF82:
 6756 039b 47444953 		.ascii	"GDISP_ROTATE_0\000"
 6756      505F524F 
 6756      54415445 
 6756      5F3000
 6757              	.LASF61:
 6758 03aa 77746F62 		.ascii	"wtobjp\000"
 6758      6A7000
 6759              	.LASF206:
 6760 03b1 6777696E 		.ascii	"gwinCheckboxCreate\000"
 6760      43686563 
 6760      6B626F78 
 6760      43726561 
 6760      746500
 6761              	.LASF162:
 6762 03c4 47436865 		.ascii	"GCheckboxObject\000"
 6762      636B626F 
 6762      784F626A 
 6762      65637400 
 6763              	.LASF133:
 6764 03d4 74657874 		.ascii	"text\000"
 6764      00
 6765              	.LASF135:
 6766 03d9 66696C6C 		.ascii	"fill\000"
 6766      00
 6767              	.LASF66:
 6768 03de 6C696D69 		.ascii	"limit\000"
 6768      7400
 6769              	.LASF144:
 6770 03e4 666E4472 		.ascii	"fnDraw\000"
 6770      617700
 6771              	.LASF25:
 6772 03eb 636E745F 		.ascii	"cnt_t\000"
 6772      7400
 6773              	.LASF107:
 6774 03f1 67646973 		.ascii	"gdispImageType\000"
 6774      70496D61 
 6774      67655479 
 6774      706500
 6775              	.LASF201:
 6776 0400 426C6163 		.ascii	"BlackWidgetStyle\000"
 6776      6B576964 
 6776      67657453 
 6776      74796C65 
 6776      00
 6777              	.LASF49:
 6778 0411 696E7463 		.ascii	"intctx\000"
 6778      747800
ARM GAS  /tmp/ccKcOR50.s 			page 124


 6779              	.LASF42:
 6780 0418 705F6570 		.ascii	"p_epending\000"
 6780      656E6469 
 6780      6E6700
 6781              	.LASF200:
 6782 0423 47444953 		.ascii	"GDISP\000"
 6782      5000
 6783              	.LASF166:
 6784 0429 47526164 		.ascii	"GRadioObject\000"
 6784      696F4F62 
 6784      6A656374 
 6784      00
 6785              	.LASF100:
 6786 0436 436F6E74 		.ascii	"Contrast\000"
 6786      72617374 
 6786      00
 6787              	.LASF139:
 6788 043f 656E6162 		.ascii	"enabled\000"
 6788      6C656400 
 6789              	.LASF73:
 6790 0447 47457665 		.ascii	"GEventCallbackFn\000"
 6790      6E744361 
 6790      6C6C6261 
 6790      636B466E 
 6790      00
 6791              	.LASF140:
 6792 0458 64697361 		.ascii	"disabled\000"
 6792      626C6564 
 6792      00
 6793              	.LASF221:
 6794 0461 67657665 		.ascii	"geventListenerInit\000"
 6794      6E744C69 
 6794      7374656E 
 6794      6572496E 
 6794      697400
 6795              	.LASF12:
 6796 0474 6C6F6E67 		.ascii	"long unsigned int\000"
 6796      20756E73 
 6796      69676E65 
 6796      6420696E 
 6796      7400
 6797              	.LASF65:
 6798 0486 73656D63 		.ascii	"semcount_t\000"
 6798      6F756E74 
 6798      5F7400
 6799              	.LASF193:
 6800 0491 67685261 		.ascii	"ghRadio1\000"
 6800      64696F31 
 6800      00
 6801              	.LASF194:
 6802 049a 67685261 		.ascii	"ghRadio2\000"
 6802      64696F32 
 6802      00
 6803              	.LASF157:
 6804 04a3 47536C69 		.ascii	"GSliderObject\000"
 6804      6465724F 
 6804      626A6563 
ARM GAS  /tmp/ccKcOR50.s 			page 125


 6804      7400
 6805              	.LASF94:
 6806 04b1 47444953 		.ascii	"GDISPDriver_t\000"
 6806      50447269 
 6806      7665725F 
 6806      7400
 6807              	.LASF78:
 6808 04bf 70617261 		.ascii	"param\000"
 6808      6D00
 6809              	.LASF175:
 6810 04c5 67685461 		.ascii	"ghTabSliders\000"
 6810      62536C69 
 6810      64657273 
 6810      00
 6811              	.LASF89:
 6812 04d2 706F7765 		.ascii	"powerOff\000"
 6812      724F6666 
 6812      00
 6813              	.LASF141:
 6814 04db 70726573 		.ascii	"pressed\000"
 6814      73656400 
 6815              	.LASF72:
 6816 04e3 47457665 		.ascii	"GEvent\000"
 6816      6E7400
 6817              	.LASF137:
 6818 04ea 47576964 		.ascii	"GWidgetStyle\000"
 6818      67657453 
 6818      74796C65 
 6818      00
 6819              	.LASF220:
 6820 04f7 6777696E 		.ascii	"gwinClear\000"
 6820      436C6561 
 6820      7200
 6821              	.LASF165:
 6822 0501 67726F75 		.ascii	"group\000"
 6822      7000
 6823              	.LASF110:
 6824 0507 67646973 		.ascii	"gdispImageIO\000"
 6824      70496D61 
 6824      6765494F 
 6824      00
 6825              	.LASF92:
 6826 0514 706F7765 		.ascii	"powerOn\000"
 6826      724F6E00 
 6827              	.LASF55:
 6828 051c 4D757465 		.ascii	"Mutex\000"
 6828      7800
 6829              	.LASF101:
 6830 0522 636C6970 		.ascii	"clipx0\000"
 6830      783000
 6831              	.LASF103:
 6832 0529 636C6970 		.ascii	"clipx1\000"
 6832      783100
 6833              	.LASF13:
 6834 0530 6C6F6E67 		.ascii	"long long int\000"
 6834      206C6F6E 
 6834      6720696E 
ARM GAS  /tmp/ccKcOR50.s 			page 126


 6834      7400
 6835              	.LASF120:
 6836 053e 77696474 		.ascii	"width\000"
 6836      6800
 6837              	.LASF56:
 6838 0544 6D5F7175 		.ascii	"m_queue\000"
 6838      65756500 
 6839              	.LASF227:
 6840 054c 6D61696E 		.ascii	"main.c\000"
 6840      2E6300
 6841              	.LASF177:
 6842 0553 67685461 		.ascii	"ghTabLabels\000"
 6842      624C6162 
 6842      656C7300 
 6843              	.LASF203:
 6844 055f 6777696E 		.ascii	"gwinRadioCreate\000"
 6844      52616469 
 6844      6F437265 
 6844      61746500 
 6845              	.LASF102:
 6846 056f 636C6970 		.ascii	"clipy0\000"
 6846      793000
 6847              	.LASF104:
 6848 0576 636C6970 		.ascii	"clipy1\000"
 6848      793100
 6849              	.LASF199:
 6850 057d 49544D5F 		.ascii	"ITM_RxBuffer\000"
 6850      52784275 
 6850      66666572 
 6850      00
 6851              	.LASF212:
 6852 058a 6777696E 		.ascii	"gwinPrintf\000"
 6852      5072696E 
 6852      746600
 6853              	.LASF64:
 6854 0595 64656C61 		.ascii	"delaytime_t\000"
 6854      7974696D 
 6854      655F7400 
 6855              	.LASF108:
 6856 05a1 67646973 		.ascii	"gdispImageFlags\000"
 6856      70496D61 
 6856      6765466C 
 6856      61677300 
 6857              	.LASF39:
 6858 05b1 705F7761 		.ascii	"p_waiting\000"
 6858      6974696E 
 6858      6700
 6859              	.LASF79:
 6860 05bb 6576656E 		.ascii	"event\000"
 6860      7400
 6861              	.LASF35:
 6862 05c1 705F666C 		.ascii	"p_flags\000"
 6862      61677300 
 6863              	.LASF143:
 6864 05c9 47576964 		.ascii	"GWidgetObject\000"
 6864      6765744F 
 6864      626A6563 
ARM GAS  /tmp/ccKcOR50.s 			page 127


 6864      7400
 6865              	.LASF114:
 6866 05d7 72656164 		.ascii	"read\000"
 6866      00
 6867              	.LASF153:
 6868 05dc 47427574 		.ascii	"GButtonObject\000"
 6868      746F6E4F 
 6868      626A6563 
 6868      7400
 6869              	.LASF0:
 6870 05ea 756E7369 		.ascii	"unsigned int\000"
 6870      676E6564 
 6870      20696E74 
 6870      00
 6871              	.LASF136:
 6872 05f7 70726F67 		.ascii	"progress\000"
 6872      72657373 
 6872      00
 6873              	.LASF119:
 6874 0600 6267636F 		.ascii	"bgcolor\000"
 6874      6C6F7200 
 6875              	.LASF45:
 6876 0608 705F6D70 		.ascii	"p_mpool\000"
 6876      6F6F6C00 
 6877              	.LASF156:
 6878 0610 706F7369 		.ascii	"position\000"
 6878      74696F6E 
 6878      00
 6879              	.LASF147:
 6880 0619 47576964 		.ascii	"GWidgetInit\000"
 6880      67657449 
 6880      6E697400 
 6881              	.LASF36:
 6882 0625 705F7265 		.ascii	"p_refs\000"
 6882      667300
 6883              	.LASF207:
 6884 062c 6777696E 		.ascii	"gwinLabelCreate\000"
 6884      4C616265 
 6884      6C437265 
 6884      61746500 
 6885              	.LASF76:
 6886 063c 6576656E 		.ascii	"eventlock\000"
 6886      746C6F63 
 6886      6B00
 6887              	.LASF47:
 6888 0646 54687265 		.ascii	"ThreadsList\000"
 6888      6164734C 
 6888      69737400 
 6889              	.LASF84:
 6890 0652 47444953 		.ascii	"GDISP_ROTATE_180\000"
 6890      505F524F 
 6890      54415445 
 6890      5F313830 
 6890      00
 6891              	.LASF126:
 6892 0663 4757696E 		.ascii	"GWindowObject\000"
 6892      646F774F 
ARM GAS  /tmp/ccKcOR50.s 			page 128


 6892      626A6563 
 6892      7400
 6893              	.LASF128:
 6894 0671 6777696E 		.ascii	"gwinVMT\000"
 6894      564D5400 
 6895              	.LASF179:
 6896 0679 67685461 		.ascii	"ghTabLists\000"
 6896      624C6973 
 6896      747300
 6897              	.LASF38:
 6898 0684 705F7469 		.ascii	"p_time\000"
 6898      6D6500
 6899              	.LASF117:
 6900 068b 67646973 		.ascii	"gdispImage\000"
 6900      70496D61 
 6900      676500
 6901              	.LASF123:
 6902 0696 666F6E74 		.ascii	"font\000"
 6902      00
 6903              	.LASF169:
 6904 069b 63726561 		.ascii	"createWidgets\000"
 6904      74655769 
 6904      64676574 
 6904      7300
 6905              	.LASF176:
 6906 06a9 67685461 		.ascii	"ghTabCheckboxes\000"
 6906      62436865 
 6906      636B626F 
 6906      78657300 
 6907              	.LASF91:
 6908 06b9 706F7765 		.ascii	"powerDeepSleep\000"
 6908      72446565 
 6908      70536C65 
 6908      657000
 6909              	.LASF52:
 6910 06c8 53656D61 		.ascii	"Semaphore\000"
 6910      70686F72 
 6910      6500
 6911              	.LASF196:
 6912 06d2 67685261 		.ascii	"ghRadioWhite\000"
 6912      64696F57 
 6912      68697465 
 6912      00
 6913              	.LASF44:
 6914 06df 705F7265 		.ascii	"p_realprio\000"
 6914      616C7072 
 6914      696F00
 6915              	.LASF129:
 6916 06ea 4748616E 		.ascii	"GHandle\000"
 6916      646C6500 
 6917              	.LASF218:
 6918 06f2 67646973 		.ascii	"gdispClear\000"
 6918      70436C65 
 6918      617200
 6919              	.LASF217:
 6920 06fd 6777696E 		.ascii	"gwinSetDefaultFont\000"
 6920      53657444 
ARM GAS  /tmp/ccKcOR50.s 			page 129


 6920      65666175 
 6920      6C74466F 
 6920      6E7400
 6921              	.LASF134:
 6922 0710 65646765 		.ascii	"edge\000"
 6922      00
 6923              	.LASF145:
 6924 0715 666E5061 		.ascii	"fnParam\000"
 6924      72616D00 
 6925              	.LASF202:
 6926 071d 57686974 		.ascii	"WhiteWidgetStyle\000"
 6926      65576964 
 6926      67657453 
 6926      74796C65 
 6926      00
 6927              	.LASF75:
 6928 072e 77616974 		.ascii	"waitqueue\000"
 6928      71756575 
 6928      6500
 6929              	.LASF54:
 6930 0738 735F636E 		.ascii	"s_cnt\000"
 6930      7400
 6931              	.LASF70:
 6932 073e 47457665 		.ascii	"GEventType\000"
 6932      6E745479 
 6932      706500
 6933              	.LASF14:
 6934 0749 6C6F6E67 		.ascii	"long long unsigned int\000"
 6934      206C6F6E 
 6934      6720756E 
 6934      7369676E 
 6934      65642069 
 6935              	.LASF32:
 6936 0760 705F6F6C 		.ascii	"p_older\000"
 6936      64657200 
 6937              	.LASF7:
 6938 0768 75696E74 		.ascii	"uint16_t\000"
 6938      31365F74 
 6938      00
 6939              	.LASF22:
 6940 0771 6D73675F 		.ascii	"msg_t\000"
 6940      7400
 6941              	.LASF130:
 6942 0777 4757696E 		.ascii	"GWindowInit\000"
 6942      646F7749 
 6942      6E697400 
 6943              	.LASF105:
 6944 0783 47444953 		.ascii	"GDISPDriver\000"
 6944      50447269 
 6944      76657200 
 6945              	.LASF20:
 6946 078f 74736C69 		.ascii	"tslices_t\000"
 6946      6365735F 
 6946      7400
 6947              	.LASF214:
 6948 0799 67646973 		.ascii	"gdispFillArea\000"
 6948      7046696C 
ARM GAS  /tmp/ccKcOR50.s 			page 130


 6948      6C417265 
 6948      6100
 6949              	.LASF111:
 6950 07a7 67646973 		.ascii	"gdispImageIOReadFn\000"
 6950      70496D61 
 6950      6765494F 
 6950      52656164 
 6950      466E00
 6951              	.LASF197:
 6952 07ba 67685261 		.ascii	"ghRadioYellow\000"
 6952      64696F59 
 6952      656C6C6F 
 6952      7700
 6953              	.LASF181:
 6954 07c8 67684275 		.ascii	"ghButton1\000"
 6954      74746F6E 
 6954      3100
 6955              	.LASF182:
 6956 07d2 67684275 		.ascii	"ghButton2\000"
 6956      74746F6E 
 6956      3200
 6957              	.LASF183:
 6958 07dc 67684275 		.ascii	"ghButton3\000"
 6958      74746F6E 
 6958      3300
 6959              	.LASF184:
 6960 07e6 67684275 		.ascii	"ghButton4\000"
 6960      74746F6E 
 6960      3400
 6961              	.LASF205:
 6962 07f0 6777696E 		.ascii	"gwinSliderCreate\000"
 6962      536C6964 
 6962      65724372 
 6962      65617465 
 6962      00
 6963              	.LASF154:
 6964 0801 47457665 		.ascii	"GEventGWinSlider\000"
 6964      6E744757 
 6964      696E536C 
 6964      69646572 
 6964      00
 6965              	.LASF81:
 6966 0812 666F6E74 		.ascii	"font_t\000"
 6966      5F7400
 6967              	.LASF213:
 6968 0819 67646973 		.ascii	"gdispSetClip\000"
 6968      70536574 
 6968      436C6970 
 6968      00
 6969              	.LASF195:
 6970 0826 67685261 		.ascii	"ghRadioBlack\000"
 6970      64696F42 
 6970      6C61636B 
 6970      00
 6971              	.LASF127:
 6972 0833 636F6C6F 		.ascii	"color\000"
 6972      7200
ARM GAS  /tmp/ccKcOR50.s 			page 131


 6973              	.LASF85:
 6974 0839 47444953 		.ascii	"GDISP_ROTATE_270\000"
 6974      505F524F 
 6974      54415445 
 6974      5F323730 
 6974      00
 6975              	.LASF17:
 6976 084a 746D6F64 		.ascii	"tmode_t\000"
 6976      655F7400 
 6977              	.LASF178:
 6978 0852 67685461 		.ascii	"ghTabRadios\000"
 6978      62526164 
 6978      696F7300 
 6979              	.LASF191:
 6980 085e 67684368 		.ascii	"ghCheckDisableAll\000"
 6980      65636B44 
 6980      69736162 
 6980      6C65416C 
 6980      6C00
 6981              	.LASF106:
 6982 0870 636F6C6F 		.ascii	"color_t\000"
 6982      725F7400 
 6983              	.LASF211:
 6984 0878 6777696E 		.ascii	"gwinSetEnabled\000"
 6984      53657445 
 6984      6E61626C 
 6984      656400
 6985              	.LASF53:
 6986 0887 735F7175 		.ascii	"s_queue\000"
 6986      65756500 
 6987              	.LASF124:
 6988 088f 67646973 		.ascii	"gdispImageHandlers\000"
 6988      70496D61 
 6988      67654861 
 6988      6E646C65 
 6988      727300
 6989              	.LASF6:
 6990 08a2 73686F72 		.ascii	"short int\000"
 6990      7420696E 
 6990      7400
 6991              	.LASF173:
 6992 08ac 6768436F 		.ascii	"ghConsole\000"
 6992      6E736F6C 
 6992      6500
 6993              	.LASF87:
 6994 08b6 6F726965 		.ascii	"orientation\000"
 6994      6E746174 
 6994      696F6E00 
 6995              	.LASF219:
 6996 08c2 6777696E 		.ascii	"gwinAttachMouse\000"
 6996      41747461 
 6996      63684D6F 
 6996      75736500 
 6997              	.LASF5:
 6998 08d2 696E7431 		.ascii	"int16_t\000"
 6998      365F7400 
 6999              	.LASF99:
ARM GAS  /tmp/ccKcOR50.s 			page 132


 7000 08da 4261636B 		.ascii	"Backlight\000"
 7000      6C696768 
 7000      7400
 7001              	.LASF158:
 7002 08e4 64706F73 		.ascii	"dpos\000"
 7002      00
 7003              	.LASF198:
 7004 08e9 696D6759 		.ascii	"imgYesNo\000"
 7004      65734E6F 
 7004      00
 7005              	.LASF15:
 7006 08f2 626F6F6C 		.ascii	"bool_t\000"
 7006      5F7400
 7007              	.LASF74:
 7008 08f9 474C6973 		.ascii	"GListener\000"
 7008      74656E65 
 7008      7200
 7009              	.LASF26:
 7010 0903 54687265 		.ascii	"Thread\000"
 7010      616400
 7011              	.LASF230:
 7012 090a 6D61696E 		.ascii	"main\000"
 7012      00
 7013              	.LASF164:
 7014 090f 72616469 		.ascii	"radio\000"
 7014      6F00
 7015              	.LASF19:
 7016 0915 74726566 		.ascii	"trefs_t\000"
 7016      735F7400 
 7017              	.LASF90:
 7018 091d 706F7765 		.ascii	"powerSleep\000"
 7018      72536C65 
 7018      657000
 7019              	.LASF142:
 7020 0928 43757374 		.ascii	"CustomWidgetDrawFunction\000"
 7020      6F6D5769 
 7020      64676574 
 7020      44726177 
 7020      46756E63 
 7021              	.LASF146:
 7022 0941 70737479 		.ascii	"pstyle\000"
 7022      6C6500
 7023              	.LASF11:
 7024 0948 75696E74 		.ascii	"uint32_t\000"
 7024      33325F74 
 7024      00
 7025              	.LASF161:
 7026 0951 69734368 		.ascii	"isChecked\000"
 7026      65636B65 
 7026      6400
 7027              	.LASF46:
 7028 095b 54687265 		.ascii	"ThreadsQueue\000"
 7028      61647351 
 7028      75657565 
 7028      00
 7029              	.LASF59:
 7030 0968 7264796D 		.ascii	"rdymsg\000"
ARM GAS  /tmp/ccKcOR50.s 			page 133


 7030      736700
 7031              	.LASF8:
 7032 096f 73686F72 		.ascii	"short unsigned int\000"
 7032      7420756E 
 7032      7369676E 
 7032      65642069 
 7032      6E7400
 7033              	.LASF83:
 7034 0982 47444953 		.ascii	"GDISP_ROTATE_90\000"
 7034      505F524F 
 7034      54415445 
 7034      5F393000 
 7035              	.LASF189:
 7036 0992 67684368 		.ascii	"ghCheckbox1\000"
 7036      65636B62 
 7036      6F783100 
 7037              	.LASF190:
 7038 099e 67684368 		.ascii	"ghCheckbox2\000"
 7038      65636B62 
 7038      6F783200 
 7039              	.LASF155:
 7040 09aa 736C6964 		.ascii	"slider\000"
 7040      657200
 7041              	.LASF231:
 7042 09b1 67667849 		.ascii	"gfxInit\000"
 7042      6E697400 
 7043              	.LASF93:
 7044 09b9 67646973 		.ascii	"gdisp_powermode_t\000"
 7044      705F706F 
 7044      7765726D 
 7044      6F64655F 
 7044      7400
 7045              	.LASF68:
 7046 09cb 67667851 		.ascii	"gfxQueueASyncItem\000"
 7046      75657565 
 7046      4153796E 
 7046      63497465 
 7046      6D00
 7047              	.LASF86:
 7048 09dd 67646973 		.ascii	"gdisp_orientation_t\000"
 7048      705F6F72 
 7048      69656E74 
 7048      6174696F 
 7048      6E5F7400 
 7049              	.LASF33:
 7050 09f1 705F6E61 		.ascii	"p_name\000"
 7050      6D6500
 7051              	.LASF69:
 7052 09f8 6E657874 		.ascii	"next\000"
 7052      00
 7053              	.LASF174:
 7054 09fd 67685461 		.ascii	"ghTabButtons\000"
 7054      62427574 
 7054      746F6E73 
 7054      00
 7055              	.LASF58:
 7056 0a0a 6D5F6E65 		.ascii	"m_next\000"
ARM GAS  /tmp/ccKcOR50.s 			page 134


 7056      787400
 7057              	.LASF116:
 7058 0a11 636C6F73 		.ascii	"close\000"
 7058      6500
 7059              	.LASF159:
 7060 0a17 47457665 		.ascii	"GEventGWinCheckbox\000"
 7060      6E744757 
 7060      696E4368 
 7060      65636B62 
 7060      6F7800
 7061              	.LASF41:
 7062 0a2a 705F6D73 		.ascii	"p_msg\000"
 7062      6700
 7063              	.LASF121:
 7064 0a30 68656967 		.ascii	"height\000"
 7064      687400
 7065              	.LASF113:
 7066 0a37 67646973 		.ascii	"gdispImageIOFunctions\000"
 7066      70496D61 
 7066      6765494F 
 7066      46756E63 
 7066      74696F6E 
 7067              	.LASF34:
 7068 0a4d 705F7374 		.ascii	"p_state\000"
 7068      61746500 
 7069              		.ident	"GCC: (GNU Tools for ARM Embedded Processors) 4.7.4 20130613 (release) [ARM/embedded-4_7-br
ARM GAS  /tmp/ccKcOR50.s 			page 135


DEFINED SYMBOLS
                            *ABS*:00000000 main.c
     /tmp/ccKcOR50.s:21     .text.startup.main:00000000 $t
     /tmp/ccKcOR50.s:27     .text.startup.main:00000000 main
     /tmp/ccKcOR50.s:1641   .bss.ghTabButtons:00000000 .LANCHOR1
     /tmp/ccKcOR50.s:1552   .bss.ghTabSliders:00000000 .LANCHOR2
     /tmp/ccKcOR50.s:1360   .bss.ghTabCheckboxes:00000000 .LANCHOR3
     /tmp/ccKcOR50.s:1395   .bss.ghTabRadios:00000000 .LANCHOR4
     /tmp/ccKcOR50.s:1573   .bss.ghTabLabels:00000000 .LANCHOR6
     /tmp/ccKcOR50.s:1606   .bss.ghButton1:00000000 .LANCHOR8
     /tmp/ccKcOR50.s:1613   .bss.ghButton2:00000000 .LANCHOR9
     /tmp/ccKcOR50.s:1620   .bss.ghButton3:00000000 .LANCHOR10
     /tmp/ccKcOR50.s:1627   .bss.ghButton4:00000000 .LANCHOR11
     /tmp/ccKcOR50.s:1409   .bss.ghSlider1:00000000 .LANCHOR12
     /tmp/ccKcOR50.s:1416   .bss.ghSlider2:00000000 .LANCHOR13
     /tmp/ccKcOR50.s:1423   .bss.ghSlider3:00000000 .LANCHOR14
     /tmp/ccKcOR50.s:1430   .bss.ghSlider4:00000000 .LANCHOR15
     /tmp/ccKcOR50.s:1559   .bss.ghCheckbox1:00000000 .LANCHOR16
     /tmp/ccKcOR50.s:1566   .bss.ghCheckbox2:00000000 .LANCHOR17
     /tmp/ccKcOR50.s:472    .text.startup.main:00000330 $d
     /tmp/ccKcOR50.s:503    .text.startup.main:000003a4 $t
     /tmp/ccKcOR50.s:1346   .bss.ghLabel1:00000000 .LANCHOR19
     /tmp/ccKcOR50.s:1381   .bss.ghRadio1:00000000 .LANCHOR20
     /tmp/ccKcOR50.s:1388   .bss.ghRadio2:00000000 .LANCHOR21
     /tmp/ccKcOR50.s:1374   .bss.ghRadioWhite:00000000 .LANCHOR23
     /tmp/ccKcOR50.s:700    .text.startup.main:0000050a $d
     /tmp/ccKcOR50.s:706    .text.startup.main:00000512 $t
     /tmp/ccKcOR50.s:909    .text.startup.main:000006dc $d
     /tmp/ccKcOR50.s:923    .text.startup.main:00000708 $t
     /tmp/ccKcOR50.s:1580   .bss.ghConsole:00000000 .LANCHOR25
     /tmp/ccKcOR50.s:1309   .text.startup.main:000009f4 $d
     /tmp/ccKcOR50.s:1345   .bss.ghLabel1:00000000 $d
     /tmp/ccKcOR50.s:1349   .bss.ghLabel1:00000000 ghLabel1
     /tmp/ccKcOR50.s:1352   .bss.ghRadioYellow:00000000 $d
     /tmp/ccKcOR50.s:1356   .bss.ghRadioYellow:00000000 ghRadioYellow
     /tmp/ccKcOR50.s:1359   .bss.ghTabCheckboxes:00000000 $d
     /tmp/ccKcOR50.s:1363   .bss.ghTabCheckboxes:00000000 ghTabCheckboxes
     /tmp/ccKcOR50.s:1366   .bss.ghCheckDisableAll:00000000 $d
     /tmp/ccKcOR50.s:1370   .bss.ghCheckDisableAll:00000000 ghCheckDisableAll
     /tmp/ccKcOR50.s:1373   .bss.ghRadioWhite:00000000 $d
     /tmp/ccKcOR50.s:1377   .bss.ghRadioWhite:00000000 ghRadioWhite
     /tmp/ccKcOR50.s:1380   .bss.ghRadio1:00000000 $d
     /tmp/ccKcOR50.s:1384   .bss.ghRadio1:00000000 ghRadio1
     /tmp/ccKcOR50.s:1387   .bss.ghRadio2:00000000 $d
     /tmp/ccKcOR50.s:1391   .bss.ghRadio2:00000000 ghRadio2
     /tmp/ccKcOR50.s:1394   .bss.ghTabRadios:00000000 $d
     /tmp/ccKcOR50.s:1398   .bss.ghTabRadios:00000000 ghTabRadios
     /tmp/ccKcOR50.s:1401   .bss.ghTabImages:00000000 $d
     /tmp/ccKcOR50.s:1405   .bss.ghTabImages:00000000 ghTabImages
     /tmp/ccKcOR50.s:1408   .bss.ghSlider1:00000000 $d
     /tmp/ccKcOR50.s:1412   .bss.ghSlider1:00000000 ghSlider1
     /tmp/ccKcOR50.s:1415   .bss.ghSlider2:00000000 $d
     /tmp/ccKcOR50.s:1419   .bss.ghSlider2:00000000 ghSlider2
     /tmp/ccKcOR50.s:1422   .bss.ghSlider3:00000000 $d
     /tmp/ccKcOR50.s:1426   .bss.ghSlider3:00000000 ghSlider3
     /tmp/ccKcOR50.s:1429   .bss.ghSlider4:00000000 $d
     /tmp/ccKcOR50.s:1433   .bss.ghSlider4:00000000 ghSlider4
ARM GAS  /tmp/ccKcOR50.s 			page 136


     /tmp/ccKcOR50.s:1436   .rodata.str1.4:00000000 $d
     /tmp/ccKcOR50.s:1544   .bss.ghTabLists:00000000 $d
     /tmp/ccKcOR50.s:1548   .bss.ghTabLists:00000000 ghTabLists
     /tmp/ccKcOR50.s:1551   .bss.ghTabSliders:00000000 $d
     /tmp/ccKcOR50.s:1555   .bss.ghTabSliders:00000000 ghTabSliders
     /tmp/ccKcOR50.s:1558   .bss.ghCheckbox1:00000000 $d
     /tmp/ccKcOR50.s:1562   .bss.ghCheckbox1:00000000 ghCheckbox1
     /tmp/ccKcOR50.s:1565   .bss.ghCheckbox2:00000000 $d
     /tmp/ccKcOR50.s:1569   .bss.ghCheckbox2:00000000 ghCheckbox2
     /tmp/ccKcOR50.s:1572   .bss.ghTabLabels:00000000 $d
     /tmp/ccKcOR50.s:1576   .bss.ghTabLabels:00000000 ghTabLabels
     /tmp/ccKcOR50.s:1579   .bss.ghConsole:00000000 $d
     /tmp/ccKcOR50.s:1583   .bss.ghConsole:00000000 ghConsole
     /tmp/ccKcOR50.s:1586   .rodata.YellowWidgetStyle:00000000 $d
     /tmp/ccKcOR50.s:1590   .rodata.YellowWidgetStyle:00000000 YellowWidgetStyle
     /tmp/ccKcOR50.s:1605   .bss.ghButton1:00000000 $d
     /tmp/ccKcOR50.s:1609   .bss.ghButton1:00000000 ghButton1
     /tmp/ccKcOR50.s:1612   .bss.ghButton2:00000000 $d
     /tmp/ccKcOR50.s:1616   .bss.ghButton2:00000000 ghButton2
     /tmp/ccKcOR50.s:1619   .bss.ghButton3:00000000 $d
     /tmp/ccKcOR50.s:1623   .bss.ghButton3:00000000 ghButton3
     /tmp/ccKcOR50.s:1626   .bss.ghButton4:00000000 $d
     /tmp/ccKcOR50.s:1630   .bss.ghButton4:00000000 ghButton4
     /tmp/ccKcOR50.s:1633   .bss.gl:00000000 $d
     /tmp/ccKcOR50.s:1637   .bss.gl:00000000 gl
     /tmp/ccKcOR50.s:1640   .bss.ghTabButtons:00000000 $d
     /tmp/ccKcOR50.s:1644   .bss.ghTabButtons:00000000 ghTabButtons
     /tmp/ccKcOR50.s:1647   .bss.ghRadioBlack:00000000 $d
     /tmp/ccKcOR50.s:1651   .bss.ghRadioBlack:00000000 ghRadioBlack
                     .debug_frame:00000010 $d
     /tmp/ccKcOR50.s:1344   .text.startup.main:00000a6c $t

UNDEFINED SYMBOLS
gfxInit
gdispOpenFont
gwinSetDefaultFont
gwinSetDefaultStyle
gdispClear
gwinAttachMouse
gwinRadioCreate
gwinButtonCreate
gwinSliderCreate
gwinCheckboxCreate
GDISP
WhiteWidgetStyle
gwinRadioDraw_Tab
gwinCheckboxDraw_CheckOnRight
gwinLabelCreate
gwinRadioPress
gwinConsoleCreate
gwinSetVisible
gwinClear
geventListenerInit
gwinAttachListener
geventEventWait
gwinGetText
gwinPrintf
ARM GAS  /tmp/ccKcOR50.s 			page 137


gfxSleepMilliseconds
gwinSetText
gwinSetEnabled
gdispSetClip
gdispFillArea
BlackWidgetStyle
