ARM GAS  /tmp/ccyoxMDb.s 			page 1


   1              		.syntax unified
   2              		.cpu cortex-m4
   3              		.eabi_attribute 27, 3
   4              		.eabi_attribute 28, 1
   5              		.fpu fpv4-sp-d16
   6              		.eabi_attribute 20, 1
   7              		.eabi_attribute 21, 1
   8              		.eabi_attribute 23, 3
   9              		.eabi_attribute 24, 1
  10              		.eabi_attribute 25, 1
  11              		.eabi_attribute 26, 1
  12              		.eabi_attribute 30, 2
  13              		.eabi_attribute 34, 1
  14              		.eabi_attribute 18, 4
  15              		.thumb
  16              		.file	"mouse.c"
  17              		.text
  18              	.Ltext0:
  19              		.cfi_sections	.debug_frame
  20              		.section	.text.get_raw_reading.constprop.1,"ax",%progbits
  21              		.align	2
  22              		.p2align 4,,15
  23              		.thumb
  24              		.thumb_func
  25              		.type	get_raw_reading.constprop.1, %function
  26              	get_raw_reading.constprop.1:
  27              	.LFB134:
  28              		.file 1 "../../ext/ugfx/src/ginput/mouse.c"
  29              		.loc 1 143 0
  30              		.cfi_startproc
  31              		@ args = 0, pretend = 0, frame = 0
  32              		@ frame_needed = 0, uses_anonymous_args = 0
  33              	.LVL0:
  34 0000 F8B5     		push	{r3, r4, r5, r6, r7, lr}
  35              	.LCFI0:
  36              		.cfi_def_cfa_offset 24
  37              		.cfi_offset 3, -24
  38              		.cfi_offset 4, -20
  39              		.cfi_offset 5, -16
  40              		.cfi_offset 6, -12
  41              		.cfi_offset 7, -8
  42              		.cfi_offset 14, -4
  43              		.loc 1 449 0
  44 0002 1F4C     		ldr	r4, .L5
  45              		.loc 1 149 0
  46 0004 2046     		mov	r0, r4
  47 0006 FFF7FEFF 		bl	ginput_lld_mouse_get_reading
  48              	.LVL1:
  49 000a 2046     		mov	r0, r4
  50              		.loc 1 150 0
  51 000c B4F90050 		ldrsh	r5, [r4, #0]
  52              	.LVL2:
  53              		.loc 1 151 0
  54 0010 B4F90270 		ldrsh	r7, [r4, #2]
  55              	.LVL3:
  56              		.loc 1 152 0
  57 0014 B4F90460 		ldrsh	r6, [r4, #4]
ARM GAS  /tmp/ccyoxMDb.s 			page 2


  58              	.LVL4:
  59              		.loc 1 149 0
  60 0018 FFF7FEFF 		bl	ginput_lld_mouse_get_reading
  61              	.LVL5:
  62              		.loc 1 150 0
  63 001c B4F90010 		ldrsh	r1, [r4, #0]
  64              		.loc 1 151 0
  65 0020 B4F90220 		ldrsh	r2, [r4, #2]
  66              		.loc 1 152 0
  67 0024 B4F90430 		ldrsh	r3, [r4, #4]
  68              		.loc 1 149 0
  69 0028 2046     		mov	r0, r4
  70              		.loc 1 150 0
  71 002a 6D18     		adds	r5, r5, r1
  72              	.LVL6:
  73              		.loc 1 151 0
  74 002c BF18     		adds	r7, r7, r2
  75              	.LVL7:
  76              		.loc 1 152 0
  77 002e F618     		adds	r6, r6, r3
  78              	.LVL8:
  79              		.loc 1 149 0
  80 0030 FFF7FEFF 		bl	ginput_lld_mouse_get_reading
  81              	.LVL9:
  82              		.loc 1 150 0
  83 0034 B4F90010 		ldrsh	r1, [r4, #0]
  84              		.loc 1 151 0
  85 0038 B4F90220 		ldrsh	r2, [r4, #2]
  86              		.loc 1 152 0
  87 003c B4F90430 		ldrsh	r3, [r4, #4]
  88              		.loc 1 149 0
  89 0040 2046     		mov	r0, r4
  90              		.loc 1 151 0
  91 0042 BF18     		adds	r7, r7, r2
  92              	.LVL10:
  93              		.loc 1 152 0
  94 0044 F618     		adds	r6, r6, r3
  95              	.LVL11:
  96              		.loc 1 150 0
  97 0046 6D18     		adds	r5, r5, r1
  98              	.LVL12:
  99              		.loc 1 149 0
 100 0048 FFF7FEFF 		bl	ginput_lld_mouse_get_reading
 101              	.LVL13:
 102              		.loc 1 150 0
 103 004c B4F90000 		ldrsh	r0, [r4, #0]
 104              		.loc 1 151 0
 105 0050 B4F90220 		ldrsh	r2, [r4, #2]
 106              		.loc 1 152 0
 107 0054 B4F90430 		ldrsh	r3, [r4, #4]
 108              		.loc 1 157 0
 109 0058 0949     		ldr	r1, .L5
 110              		.loc 1 156 0
 111 005a 4519     		adds	r5, r0, r5
 112              	.LVL14:
 113 005c 48BF     		it	mi
 114 005e 0335     		addmi	r5, r5, #3
ARM GAS  /tmp/ccyoxMDb.s 			page 3


 115              	.LVL15:
 116              		.loc 1 151 0
 117 0060 D219     		adds	r2, r2, r7
 118              	.LVL16:
 119              		.loc 1 156 0
 120 0062 AD10     		asrs	r5, r5, #2
 121              		.loc 1 157 0
 122 0064 002A     		cmp	r2, #0
 123 0066 B8BF     		it	lt
 124 0068 0332     		addlt	r2, r2, #3
 125              	.LVL17:
 126              		.loc 1 152 0
 127 006a 9B19     		adds	r3, r3, r6
 128              	.LVL18:
 129              		.loc 1 157 0
 130 006c 9010     		asrs	r0, r2, #2
 131              		.loc 1 158 0
 132 006e 002B     		cmp	r3, #0
 133 0070 B8BF     		it	lt
 134 0072 0333     		addlt	r3, r3, #3
 135              	.LVL19:
 136 0074 024A     		ldr	r2, .L5
 137              		.loc 1 156 0
 138 0076 2580     		strh	r5, [r4, #0]	@ movhi
 139              		.loc 1 158 0
 140 0078 9B10     		asrs	r3, r3, #2
 141              		.loc 1 157 0
 142 007a 4880     		strh	r0, [r1, #2]	@ movhi
 143              		.loc 1 158 0
 144 007c 9380     		strh	r3, [r2, #4]	@ movhi
 145 007e F8BD     		pop	{r3, r4, r5, r6, r7, pc}
 146              	.L6:
 147              		.align	2
 148              	.L5:
 149 0080 00000000 		.word	.LANCHOR0
 150              		.cfi_endproc
 151              	.LFE134:
 152              		.size	get_raw_reading.constprop.1, .-get_raw_reading.constprop.1
 153 0084 AFF30080 		.section	.text.get_calibrated_reading.constprop.0,"ax",%progbits
 153      AFF30080 
 153      AFF30080 
 154              		.align	2
 155              		.p2align 4,,15
 156              		.thumb
 157              		.thumb_func
 158              		.type	get_calibrated_reading.constprop.0, %function
 159              	get_calibrated_reading.constprop.0:
 160              	.LFB135:
 161              		.loc 1 164 0
 162              		.cfi_startproc
 163              		@ args = 0, pretend = 0, frame = 0
 164              		@ frame_needed = 0, uses_anonymous_args = 0
 165              	.LVL20:
 166 0000 38B5     		push	{r3, r4, r5, lr}
 167              	.LCFI1:
 168              		.cfi_def_cfa_offset 16
 169              		.cfi_offset 3, -16
ARM GAS  /tmp/ccyoxMDb.s 			page 4


 170              		.cfi_offset 4, -12
 171              		.cfi_offset 5, -8
 172              		.cfi_offset 14, -4
 173              		.loc 1 169 0
 174 0002 FFF7FEFF 		bl	get_raw_reading.constprop.1
 175              	.LVL21:
 176              	.LBB4:
 177              	.LBB5:
 178              		.loc 1 100 0
 179 0006 284B     		ldr	r3, .L16
 180              	.LBE5:
 181              	.LBE4:
 182              		.loc 1 172 0
 183 0008 284A     		ldr	r2, .L16+4
 184              	.LBB10:
 185              	.LBB6:
 186              		.loc 1 100 0
 187 000a B3F90210 		ldrsh	r1, [r3, #2]
 188 000e B3F90000 		ldrsh	r0, [r3, #0]
 189              	.LBE6:
 190              	.LBE10:
 191              		.loc 1 172 0
 192 0012 1488     		ldrh	r4, [r2, #0]
 193              	.LVL22:
 194              	.LBB11:
 195              	.LBB7:
 196              		.loc 1 100 0
 197 0014 07EE901A 		fmsr	s15, r1	@ int
 198 0018 06EE100A 		fmsr	s12, r0	@ int
 199 001c B8EEE70A 		fsitos	s0, s15
 200 0020 93ED097A 		flds	s14, [r3, #36]
 201 0024 F8EEC60A 		fsitos	s1, s12
 202 0028 D3ED086A 		flds	s13, [r3, #32]
 203 002c 20EE071A 		fmuls	s2, s0, s14
 204 0030 00EEA61A 		fmacs	s2, s1, s13
 205 0034 D3ED0A1A 		flds	s3, [r3, #40]
 206 0038 31EE212A 		fadds	s4, s2, s3
 207              	.LBE7:
 208              	.LBE11:
 209              		.loc 1 173 0
 210 003c 5088     		ldrh	r0, [r2, #2]
 211              	.LVL23:
 212              	.LBB12:
 213              	.LBB8:
 214              		.loc 1 100 0
 215 003e BDEEC23A 		ftosizs	s6, s4
 216              		.loc 1 101 0
 217 0042 D3ED0C2A 		flds	s5, [r3, #48]
 218              		.loc 1 100 0
 219 0046 13EE101A 		fmrs	r1, s6	@ int
 220              		.loc 1 101 0
 221 004a 0AB2     		sxth	r2, r1
 222              	.LVL24:
 223 004c 05EE902A 		fmsr	s11, r2	@ int
 224 0050 D3ED0B3A 		flds	s7, [r3, #44]
 225 0054 B8EEE54A 		fsitos	s8, s11
 226 0058 60EE224A 		fmuls	s9, s0, s5
ARM GAS  /tmp/ccyoxMDb.s 			page 5


 227 005c 44EE234A 		fmacs	s9, s8, s7
 228 0060 93ED0D5A 		flds	s10, [r3, #52]
 229 0064 74EE857A 		fadds	s15, s9, s10
 230              		.loc 1 100 0
 231 0068 1980     		strh	r1, [r3, #0]	@ movhi
 232              		.loc 1 101 0
 233 006a BDEEE76A 		ftosizs	s12, s15
 234              	.LBE8:
 235              	.LBE12:
 236              		.loc 1 206 0
 237 006e 002A     		cmp	r2, #0
 238              	.LBB13:
 239              	.LBB9:
 240              		.loc 1 101 0
 241 0070 16EE101A 		fmrs	r1, s12	@ int
 242 0074 5980     		strh	r1, [r3, #2]	@ movhi
 243              	.LBE9:
 244              	.LBE13:
 245              		.loc 1 206 0
 246 0076 13DB     		blt	.L13
 247              		.loc 1 207 0
 248 0078 25B2     		sxth	r5, r4
 249 007a 9542     		cmp	r5, r2
 250 007c 08DD     		ble	.L14
 251              	.L9:
 252              		.loc 1 208 0
 253 007e 09B2     		sxth	r1, r1
 254 0080 0029     		cmp	r1, #0
 255 0082 0ADB     		blt	.L15
 256              	.L10:
 257              		.loc 1 209 0
 258 0084 02B2     		sxth	r2, r0
 259 0086 8A42     		cmp	r2, r1
 260 0088 01DC     		bgt	.L7
 261 008a 0138     		subs	r0, r0, #1
 262 008c 5880     		strh	r0, [r3, #2]	@ movhi
 263              	.L7:
 264 008e 38BD     		pop	{r3, r4, r5, pc}
 265              	.L14:
 266              		.loc 1 208 0
 267 0090 09B2     		sxth	r1, r1
 268              		.loc 1 207 0
 269 0092 013C     		subs	r4, r4, #1
 270              		.loc 1 208 0
 271 0094 0029     		cmp	r1, #0
 272              		.loc 1 207 0
 273 0096 1C80     		strh	r4, [r3, #0]	@ movhi
 274              		.loc 1 208 0
 275 0098 F4DA     		bge	.L10
 276              	.L15:
 277 009a 0021     		movs	r1, #0
 278 009c 5980     		strh	r1, [r3, #2]	@ movhi
 279 009e 38BD     		pop	{r3, r4, r5, pc}
 280              	.L13:
 281              		.loc 1 206 0
 282 00a0 0022     		movs	r2, #0
 283 00a2 1A80     		strh	r2, [r3, #0]	@ movhi
ARM GAS  /tmp/ccyoxMDb.s 			page 6


 284 00a4 EBE7     		b	.L9
 285              	.L17:
 286 00a6 00BF     		.align	2
 287              	.L16:
 288 00a8 00000000 		.word	.LANCHOR0
 289 00ac 00000000 		.word	GDISP
 290              		.cfi_endproc
 291              	.LFE135:
 292              		.size	get_calibrated_reading.constprop.0, .-get_calibrated_reading.constprop.0
 293              		.section	.text.MousePoll,"ax",%progbits
 294              		.align	2
 295              		.p2align 4,,15
 296              		.thumb
 297              		.thumb_func
 298              		.type	MousePoll, %function
 299              	MousePoll:
 300              	.LFB124:
 301              		.loc 1 213 0
 302              		.cfi_startproc
 303              		@ args = 0, pretend = 0, frame = 0
 304              		@ frame_needed = 0, uses_anonymous_args = 0
 305              	.LVL25:
 306 0000 2DE9F84F 		push	{r3, r4, r5, r6, r7, r8, r9, sl, fp, lr}
 307              	.LCFI2:
 308              		.cfi_def_cfa_offset 40
 309              		.cfi_offset 3, -40
 310              		.cfi_offset 4, -36
 311              		.cfi_offset 5, -32
 312              		.cfi_offset 6, -28
 313              		.cfi_offset 7, -24
 314              		.cfi_offset 8, -20
 315              		.cfi_offset 9, -16
 316              		.cfi_offset 10, -12
 317              		.cfi_offset 11, -8
 318              		.cfi_offset 14, -4
 319              		.loc 1 223 0
 320 0004 5B4D     		ldr	r5, .L76
 321 0006 EB88     		ldrh	r3, [r5, #6]
 322 0008 AB82     		strh	r3, [r5, #20]	@ movhi
 323              		.loc 1 226 0
 324 000a FFF7FEFF 		bl	get_calibrated_reading.constprop.0
 325              	.LVL26:
 326              		.loc 1 233 0
 327 000e 6888     		ldrh	r0, [r5, #2]
 328 0010 B5F90A40 		ldrsh	r4, [r5, #10]
 329              		.loc 1 232 0
 330 0014 B5F800E0 		ldrh	lr, [r5, #0]
 331 0018 B5F90870 		ldrsh	r7, [r5, #8]
 332              		.loc 1 233 0
 333 001c 01B2     		sxth	r1, r0
 334 001e 0E1B     		subs	r6, r1, r4
 335              		.loc 1 232 0
 336 0020 0FFA8EF2 		sxth	r2, lr
 337 0024 D31B     		subs	r3, r2, r7
 338              		.loc 1 233 0
 339 0026 06FB06F6 		mul	r6, r6, r6
 340              		.loc 1 232 0
ARM GAS  /tmp/ccyoxMDb.s 			page 7


 341 002a 03FB0367 		mla	r7, r3, r3, r6
 342              	.LVL27:
 343              		.loc 1 240 0
 344 002e EC8A     		ldrh	r4, [r5, #22]
 345 0030 504B     		ldr	r3, .L76
 346              		.loc 1 234 0
 347 0032 042F     		cmp	r7, #4
 348              		.loc 1 235 0
 349 0034 84BF     		itt	hi
 350 0036 A5F808E0 		strhhi	lr, [r5, #8]	@ movhi
 351              		.loc 1 236 0
 352 003a 6881     		strhhi	r0, [r5, #10]	@ movhi
 353              		.loc 1 240 0
 354 003c E607     		lsls	r6, r4, #31
 355 003e 0FD5     		bpl	.L20
 356              		.loc 1 242 0
 357 0040 B3F90EC0 		ldrsh	ip, [r3, #14]
 358              		.loc 1 241 0
 359 0044 B3F90C60 		ldrsh	r6, [r3, #12]
 360              		.loc 1 242 0
 361 0048 CCEB0101 		rsb	r1, ip, r1
 362              		.loc 1 241 0
 363 004c 921B     		subs	r2, r2, r6
 364              	.LVL28:
 365              		.loc 1 242 0
 366 004e 01FB01F1 		mul	r1, r1, r1
 367              	.LVL29:
 368              		.loc 1 241 0
 369 0052 02FB0216 		mla	r6, r2, r2, r1
 370              	.LVL30:
 371              		.loc 1 243 0
 372 0056 642E     		cmp	r6, #100
 373              		.loc 1 244 0
 374 0058 84BF     		itt	hi
 375 005a 24F00104 		bichi	r4, r4, #1
 376 005e DC82     		strhhi	r4, [r3, #22]	@ movhi
 377              	.LVL31:
 378              	.L20:
 379              		.loc 1 248 0
 380 0060 E988     		ldrh	r1, [r5, #6]
 381 0062 AB8A     		ldrh	r3, [r5, #20]
 382 0064 434A     		ldr	r2, .L76
 383 0066 21EA0304 		bic	r4, r1, r3
 384              	.LVL32:
 385              		.loc 1 249 0
 386 006a 04F00109 		and	r9, r4, #1
 387              		.loc 1 251 0
 388 006e A407     		lsls	r4, r4, #30
 389              	.LVL33:
 390              		.loc 1 229 0
 391 0070 0FFA89F6 		sxth	r6, r9
 392              	.LVL34:
 393              		.loc 1 251 0
 394 0074 0BD0     		beq	.L21
 395              		.loc 1 254 0
 396 0076 404C     		ldr	r4, .L76+4
 397              		.loc 1 255 0
ARM GAS  /tmp/ccyoxMDb.s 			page 8


 398 0078 B2F81680 		ldrh	r8, [r2, #22]
 399              		.loc 1 254 0
 400 007c E468     		ldr	r4, [r4, #12]
 401              		.loc 1 252 0
 402 007e A2F80CE0 		strh	lr, [r2, #12]	@ movhi
 403              		.loc 1 255 0
 404 0082 48F0010A 		orr	sl, r8, #1
 405              		.loc 1 253 0
 406 0086 D081     		strh	r0, [r2, #14]	@ movhi
 407              		.loc 1 254 0
 408 0088 1461     		str	r4, [r2, #16]
 409              		.loc 1 255 0
 410 008a A2F816A0 		strh	sl, [r2, #22]	@ movhi
 411              	.L21:
 412              		.loc 1 259 0
 413 008e 23EA0103 		bic	r3, r3, r1
 414              	.LVL35:
 415              		.loc 1 260 0
 416 0092 13F00102 		ands	r2, r3, #1
 417              		.loc 1 261 0
 418 0096 1CBF     		itt	ne
 419 0098 49F00206 		orrne	r6, r9, #2
 420              	.LVL36:
 421 009c 36B2     		sxthne	r6, r6
 422              	.LVL37:
 423              		.loc 1 262 0
 424 009e 9807     		lsls	r0, r3, #30
 425 00a0 02D0     		beq	.L23
 426              		.loc 1 263 0
 427 00a2 E88A     		ldrh	r0, [r5, #22]
 428 00a4 C107     		lsls	r1, r0, #31
 429 00a6 52D4     		bmi	.L72
 430              	.LVL38:
 431              	.L23:
 432              		.loc 1 277 0
 433 00a8 0024     		movs	r4, #0
 434              		.loc 1 293 0
 435 00aa 40F2011A 		movw	sl, #257
 436              		.loc 1 294 0
 437 00ae A146     		mov	r9, r4
 438              		.loc 1 300 0
 439 00b0 5FFA86F8 		uxtb	r8, r6
 440              	.LVL39:
 441              	.L70:
 442              		.loc 1 278 0 discriminator 1
 443 00b4 2146     		mov	r1, r4
 444 00b6 2F48     		ldr	r0, .L76
 445 00b8 FFF7FEFF 		bl	geventGetSourceListener
 446              	.LVL40:
 447 00bc 0446     		mov	r4, r0
 448 00be 0028     		cmp	r0, #0
 449 00c0 43D0     		beq	.L73
 450              		.loc 1 279 0
 451 00c2 FFF7FEFF 		bl	geventGetEventBuffer
 452              	.LVL41:
 453 00c6 0028     		cmp	r0, #0
 454 00c8 3BD0     		beq	.L74
ARM GAS  /tmp/ccyoxMDb.s 			page 9


 455              		.loc 1 286 0
 456 00ca 042F     		cmp	r7, #4
 457 00cc 37D8     		bhi	.L71
 458              		.loc 1 286 0 is_stmt 0 discriminator 1
 459 00ce E368     		ldr	r3, [r4, #12]
 460 00d0 002B     		cmp	r3, #0
 461 00d2 34D1     		bne	.L71
 462 00d4 A268     		ldr	r2, [r4, #8]
 463 00d6 0EB9     		cbnz	r6, .L30
 464 00d8 1307     		lsls	r3, r2, #28
 465 00da EBD5     		bpl	.L70
 466              	.L30:
 467              		.loc 1 290 0 is_stmt 1
 468 00dc EB88     		ldrh	r3, [r5, #6]
 469 00de D907     		lsls	r1, r3, #31
 470 00e0 26D4     		bmi	.L75
 471              		.loc 1 291 0 discriminator 1
 472 00e2 5107     		lsls	r1, r2, #29
 473 00e4 26D5     		bpl	.L35
 474              	.L34:
 475              		.loc 1 299 0
 476 00e6 A98A     		ldrh	r1, [r5, #20]
 477              		.loc 1 301 0
 478 00e8 E268     		ldr	r2, [r4, #12]
 479              		.loc 1 297 0
 480 00ea B5F804E0 		ldrh	lr, [r5, #4]
 481              		.loc 1 296 0
 482 00ee B5F802C0 		ldrh	ip, [r5, #2]
 483              		.loc 1 295 0
 484 00f2 B5F800B0 		ldrh	fp, [r5, #0]
 485              		.loc 1 294 0
 486 00f6 A0F80290 		strh	r9, [r0, #2]	@ movhi
 487              		.loc 1 293 0
 488 00fa A0F800A0 		strh	sl, [r0, #0]	@ movhi
 489              		.loc 1 295 0
 490 00fe A0F804B0 		strh	fp, [r0, #4]	@ movhi
 491              		.loc 1 296 0
 492 0102 A0F806C0 		strh	ip, [r0, #6]	@ movhi
 493              		.loc 1 297 0
 494 0106 A0F808E0 		strh	lr, [r0, #8]	@ movhi
 495              		.loc 1 298 0
 496 010a 4381     		strh	r3, [r0, #10]	@ movhi
 497              		.loc 1 299 0
 498 010c 8181     		strh	r1, [r0, #12]	@ movhi
 499              		.loc 1 300 0
 500 010e 80F80E80 		strb	r8, [r0, #14]
 501              		.loc 1 301 0
 502 0112 4AB1     		cbz	r2, .L36
 503              		.loc 1 302 0
 504 0114 6FEA4343 		mvn	r3, r3, lsl #17
 505 0118 6FEA5341 		mvn	r1, r3, lsr #17
 506              		.loc 1 303 0
 507 011c 48EA0202 		orr	r2, r8, r2
 508              		.loc 1 302 0
 509 0120 4181     		strh	r1, [r0, #10]	@ movhi
 510              		.loc 1 303 0
 511 0122 8273     		strb	r2, [r0, #14]
ARM GAS  /tmp/ccyoxMDb.s 			page 10


 512              		.loc 1 304 0
 513 0124 C4F80C90 		str	r9, [r4, #12]
 514              	.L36:
 515              		.loc 1 306 0
 516 0128 2046     		mov	r0, r4
 517              	.LVL42:
 518 012a FFF7FEFF 		bl	geventSendEvent
 519              	.LVL43:
 520 012e C1E7     		b	.L70
 521              	.LVL44:
 522              	.L75:
 523              		.loc 1 290 0 discriminator 1
 524 0130 9107     		lsls	r1, r2, #30
 525 0132 D8D4     		bmi	.L34
 526              	.L35:
 527              		.loc 1 292 0
 528 0134 002E     		cmp	r6, #0
 529 0136 BDD0     		beq	.L70
 530              		.loc 1 292 0 is_stmt 0 discriminator 1
 531 0138 D207     		lsls	r2, r2, #31
 532 013a BBD5     		bpl	.L70
 533 013c D3E7     		b	.L34
 534              	.L71:
 535 013e A268     		ldr	r2, [r4, #8]
 536 0140 CCE7     		b	.L30
 537              	.L74:
 538              		.loc 1 281 0 is_stmt 1
 539 0142 E068     		ldr	r0, [r4, #12]
 540              	.LVL45:
 541 0144 3043     		orrs	r0, r0, r6
 542 0146 E060     		str	r0, [r4, #12]
 543              		.loc 1 282 0
 544 0148 B4E7     		b	.L70
 545              	.LVL46:
 546              	.L73:
 547              		.loc 1 309 0
 548 014a BDE8F88F 		pop	{r3, r4, r5, r6, r7, r8, r9, sl, fp, pc}
 549              	.LVL47:
 550              	.L72:
 551              		.loc 1 264 0
 552 014e 52B1     		cbz	r2, .L24
 553              		.loc 1 266 0
 554 0150 0849     		ldr	r1, .L76
 555 0152 094C     		ldr	r4, .L76+4
 556 0154 0B69     		ldr	r3, [r1, #16]
 557              	.LVL48:
 558 0156 E268     		ldr	r2, [r4, #12]
 559 0158 D11A     		subs	r1, r2, r3
 560 015a B1F5FA7F 		cmp	r1, #500
 561 015e 02D2     		bcs	.L24
 562              		.loc 1 269 0
 563 0160 46F00406 		orr	r6, r6, #4
 564              	.LVL49:
 565 0164 01E0     		b	.L25
 566              	.L24:
 567              		.loc 1 271 0
 568 0166 46F00806 		orr	r6, r6, #8
ARM GAS  /tmp/ccyoxMDb.s 			page 11


 569              	.LVL50:
 570              	.L25:
 571              		.loc 1 272 0
 572 016a 20F00100 		bic	r0, r0, #1
 573 016e E882     		strh	r0, [r5, #22]	@ movhi
 574 0170 9AE7     		b	.L23
 575              	.L77:
 576 0172 00BF     		.align	2
 577              	.L76:
 578 0174 00000000 		.word	.LANCHOR0
 579 0178 00000000 		.word	vtlist
 580              		.cfi_endproc
 581              	.LFE124:
 582              		.size	MousePoll, .-MousePoll
 583 017c AFF30080 		.section	.text.ginputGetMouseStatus,"ax",%progbits
 584              		.align	2
 585              		.p2align 4,,15
 586              		.global	ginputGetMouseStatus
 587              		.thumb
 588              		.thumb_func
 589              		.type	ginputGetMouseStatus, %function
 590              	ginputGetMouseStatus:
 591              	.LFB126:
 592              		.loc 1 365 0
 593              		.cfi_startproc
 594              		@ args = 0, pretend = 0, frame = 0
 595              		@ frame_needed = 0, uses_anonymous_args = 0
 596              	.LVL51:
 597 0000 F8B5     		push	{r3, r4, r5, r6, r7, lr}
 598              	.LCFI3:
 599              		.cfi_def_cfa_offset 24
 600              		.cfi_offset 3, -24
 601              		.cfi_offset 4, -20
 602              		.cfi_offset 5, -16
 603              		.cfi_offset 6, -12
 604              		.cfi_offset 7, -8
 605              		.cfi_offset 14, -4
 606              		.loc 1 365 0
 607 0002 0446     		mov	r4, r0
 608              		.loc 1 368 0
 609 0004 0120     		movs	r0, #1
 610              	.LVL52:
 611              		.loc 1 365 0
 612 0006 0D46     		mov	r5, r1
 613              		.loc 1 368 0
 614 0008 FFF7FEFF 		bl	gfxSleepMilliseconds
 615              	.LVL53:
 616              		.loc 1 370 0
 617 000c 3CB9     		cbnz	r4, .L82
 618              		.loc 1 370 0 is_stmt 0 discriminator 1
 619 000e 164A     		ldr	r2, .L87
 620 0010 D18A     		ldrh	r1, [r2, #22]
 621 0012 48F21003 		movw	r3, #32784
 622 0016 0B40     		ands	r3, r3, r1
 623 0018 B3F5004F 		cmp	r3, #32768
 624 001c 01D0     		beq	.L84
 625              	.L82:
ARM GAS  /tmp/ccyoxMDb.s 			page 12


 626              		.loc 1 371 0 is_stmt 1
 627 001e 0020     		movs	r0, #0
 628 0020 F8BD     		pop	{r3, r4, r5, r6, r7, pc}
 629              	.L84:
 630              		.loc 1 378 0
 631 0022 D388     		ldrh	r3, [r2, #6]
 632              		.loc 1 377 0
 633 0024 9088     		ldrh	r0, [r2, #4]
 634              		.loc 1 376 0
 635 0026 5688     		ldrh	r6, [r2, #2]
 636              		.loc 1 375 0
 637 0028 1788     		ldrh	r7, [r2, #0]
 638              		.loc 1 379 0
 639 002a 928A     		ldrh	r2, [r2, #20]
 640              		.loc 1 374 0
 641 002c 6C80     		strh	r4, [r5, #2]	@ movhi
 642              		.loc 1 380 0
 643 002e 03F00101 		and	r1, r3, #1
 644              		.loc 1 373 0
 645 0032 40F2011C 		movw	ip, #257
 646              		.loc 1 380 0
 647 0036 9143     		bics	r1, r1, r2
 648              		.loc 1 373 0
 649 0038 A5F800C0 		strh	ip, [r5, #0]	@ movhi
 650              		.loc 1 375 0
 651 003c AF80     		strh	r7, [r5, #4]	@ movhi
 652              		.loc 1 376 0
 653 003e EE80     		strh	r6, [r5, #6]	@ movhi
 654              		.loc 1 377 0
 655 0040 2881     		strh	r0, [r5, #8]	@ movhi
 656              		.loc 1 378 0
 657 0042 6B81     		strh	r3, [r5, #10]	@ movhi
 658              		.loc 1 379 0
 659 0044 AA81     		strh	r2, [r5, #12]	@ movhi
 660              		.loc 1 380 0
 661 0046 07D1     		bne	.L85
 662              		.loc 1 382 0
 663 0048 02F00100 		and	r0, r2, #1
 664 004c 30EA0302 		bics	r2, r0, r3
 665 0050 05D1     		bne	.L86
 666              		.loc 1 385 0
 667 0052 AC73     		strb	r4, [r5, #14]
 668              		.loc 1 386 0
 669 0054 0120     		movs	r0, #1
 670 0056 F8BD     		pop	{r3, r4, r5, r6, r7, pc}
 671              	.L85:
 672              		.loc 1 381 0
 673 0058 0120     		movs	r0, #1
 674 005a A873     		strb	r0, [r5, #14]
 675 005c F8BD     		pop	{r3, r4, r5, r6, r7, pc}
 676              	.L86:
 677              		.loc 1 383 0
 678 005e 0223     		movs	r3, #2
 679 0060 AB73     		strb	r3, [r5, #14]
 680              		.loc 1 386 0
 681 0062 0120     		movs	r0, #1
 682 0064 F8BD     		pop	{r3, r4, r5, r6, r7, pc}
ARM GAS  /tmp/ccyoxMDb.s 			page 13


 683              	.L88:
 684 0066 00BF     		.align	2
 685              	.L87:
 686 0068 00000000 		.word	.LANCHOR0
 687              		.cfi_endproc
 688              	.LFE126:
 689              		.size	ginputGetMouseStatus, .-ginputGetMouseStatus
 690 006c AFF30080 		.section	.text.ginputCalibrateMouse,"ax",%progbits
 691              		.align	2
 692              		.p2align 4,,15
 693              		.global	ginputCalibrateMouse
 694              		.thumb
 695              		.thumb_func
 696              		.type	ginputCalibrateMouse, %function
 697              	ginputCalibrateMouse:
 698              	.LFB127:
 699              		.loc 1 389 0
 700              		.cfi_startproc
 701              		@ args = 0, pretend = 0, frame = 88
 702              		@ frame_needed = 0, uses_anonymous_args = 0
 703              	.LVL54:
 704 0000 2DE9F04F 		push	{r4, r5, r6, r7, r8, r9, sl, fp, lr}
 705              	.LCFI4:
 706              		.cfi_def_cfa_offset 36
 707              		.cfi_offset 4, -36
 708              		.cfi_offset 5, -32
 709              		.cfi_offset 6, -28
 710              		.cfi_offset 7, -24
 711              		.cfi_offset 8, -20
 712              		.cfi_offset 9, -16
 713              		.cfi_offset 10, -12
 714              		.cfi_offset 11, -8
 715              		.cfi_offset 14, -4
 716              		.loc 1 396 0
 717 0004 9D4B     		ldr	r3, .L124
 718              		.loc 1 389 0
 719 0006 2DED048B 		fstmfdd	sp!, {d8, d9}
 720              	.LCFI5:
 721              		.cfi_def_cfa_offset 52
 722              		.cfi_offset 80, -52
 723              		.cfi_offset 82, -44
 724              		.loc 1 397 0
 725 000a 1A88     		ldrh	r2, [r3, #0]
 726              		.loc 1 396 0
 727 000c 5B88     		ldrh	r3, [r3, #2]
 728              	.LVL55:
 729              		.loc 1 389 0
 730 000e 9DB0     		sub	sp, sp, #116
 731              	.LCFI6:
 732              		.cfi_def_cfa_offset 168
 733              		.loc 1 398 0
 734 0010 14B2     		sxth	r4, r2
 735 0012 002C     		cmp	r4, #0
 736 0014 2146     		mov	r1, r4
 737 0016 0C94     		str	r4, [sp, #48]
 738 0018 B8BF     		it	lt
 739 001a E11C     		addlt	r1, r4, #3
ARM GAS  /tmp/ccyoxMDb.s 			page 14


 740 001c 1DB2     		sxth	r5, r3
 741              		.loc 1 389 0
 742 001e 0646     		mov	r6, r0
 743              		.loc 1 398 0
 744 0020 C1F38F00 		ubfx	r0, r1, #2, #16
 745              	.LVL56:
 746 0024 0C99     		ldr	r1, [sp, #48]
 747 0026 0E90     		str	r0, [sp, #56]
 748 0028 002D     		cmp	r5, #0
 749 002a 2F46     		mov	r7, r5
 750 002c B8BF     		it	lt
 751 002e EF1C     		addlt	r7, r5, #3
 752 0030 0029     		cmp	r1, #0
 753 0032 B8BF     		it	lt
 754 0034 0331     		addlt	r1, r1, #3
 755 0036 002D     		cmp	r5, #0
 756 0038 C7F38F04 		ubfx	r4, r7, #2, #16
 757 003c 2F46     		mov	r7, r5
 758 003e B8BF     		it	lt
 759 0040 EF1C     		addlt	r7, r5, #3
 760 0042 0D94     		str	r4, [sp, #52]
 761 0044 A3EBA703 		sub	r3, r3, r7, asr #2
 762 0048 0C9F     		ldr	r7, [sp, #48]
 763 004a ADF85000 		strh	r0, [sp, #80]	@ movhi
 764 004e A2EBA102 		sub	r2, r2, r1, asr #2
 765 0052 0D98     		ldr	r0, [sp, #52]
 766 0054 ADF85240 		strh	r4, [sp, #82]	@ movhi
 767 0058 05EBD571 		add	r1, r5, r5, lsr #31
 768 005c 94B2     		uxth	r4, r2
 769 005e 07EBD772 		add	r2, r7, r7, lsr #31
 770 0062 9BB2     		uxth	r3, r3
 771 0064 ADF85600 		strh	r0, [sp, #86]	@ movhi
 772 0068 C2F34F00 		ubfx	r0, r2, #1, #16
 773 006c C1F34F02 		ubfx	r2, r1, #1, #16
 774 0070 ADF85440 		strh	r4, [sp, #84]	@ movhi
 775 0074 ADF85840 		strh	r4, [sp, #88]	@ movhi
 776 0078 0F93     		str	r3, [sp, #60]
 777 007a 1090     		str	r0, [sp, #64]
 778 007c 1192     		str	r2, [sp, #68]
 779 007e ADF85A30 		strh	r3, [sp, #90]	@ movhi
 780 0082 ADF85C00 		strh	r0, [sp, #92]	@ movhi
 781 0086 ADF85E20 		strh	r2, [sp, #94]	@ movhi
 782              		.loc 1 412 0
 783 008a 3EB9     		cbnz	r6, .L109
 784              		.loc 1 412 0 is_stmt 0 discriminator 1
 785 008c DFF800B2 		ldr	fp, .L124+20
 786 0090 BBF81610 		ldrh	r1, [fp, #22]
 787 0094 01F01003 		and	r3, r1, #16
 788 0098 98B2     		uxth	r0, r3
 789 009a 28B1     		cbz	r0, .L121
 790              	.L109:
 791              		.loc 1 413 0 is_stmt 1
 792 009c 0020     		movs	r0, #0
 793              	.LVL57:
 794              	.L120:
 795              		.loc 1 522 0
 796 009e 1DB0     		add	sp, sp, #116
ARM GAS  /tmp/ccyoxMDb.s 			page 15


 797 00a0 BDEC048B 		fldmfdd	sp!, {d8, d9}
 798 00a4 BDE8F08F 		pop	{r4, r5, r6, r7, r8, r9, sl, fp, pc}
 799              	.LVL58:
 800              	.L121:
 801              		.loc 1 415 0
 802 00a8 7548     		ldr	r0, .L124+4
 803 00aa FFF7FEFF 		bl	gdispOpenFont
 804              	.LVL59:
 805 00ae 1290     		str	r0, [sp, #72]
 806              	.LVL60:
 807              		.loc 1 416 0
 808 00b0 7448     		ldr	r0, .L124+8
 809              	.LVL61:
 810 00b2 FFF7FEFF 		bl	gdispOpenFont
 811              	.LVL62:
 812              		.loc 1 418 0
 813 00b6 BBF81670 		ldrh	r7, [fp, #22]
 814              		.loc 1 416 0
 815 00ba 1390     		str	r0, [sp, #76]
 816              	.LVL63:
 817              		.loc 1 418 0
 818 00bc 47F01002 		orr	r2, r7, #16
 819              		.loc 1 419 0
 820 00c0 7148     		ldr	r0, .L124+12
 821              	.LVL64:
 822              		.loc 1 418 0
 823 00c2 ABF81620 		strh	r2, [fp, #22]	@ movhi
 824              		.loc 1 419 0
 825 00c6 FFF7FEFF 		bl	gtimerStop
 826              	.LVL65:
 827              		.loc 1 420 0
 828 00ca BBF81610 		ldrh	r1, [fp, #22]
 829              		.loc 1 427 0
 830 00ce 0C9A     		ldr	r2, [sp, #48]
 831 00d0 3046     		mov	r0, r6
 832 00d2 2B46     		mov	r3, r5
 833              		.loc 1 420 0
 834 00d4 21F06006 		bic	r6, r1, #96
 835              		.loc 1 427 0
 836 00d8 0146     		mov	r1, r0
 837              	.LBB22:
 838              	.LBB23:
 839              		.loc 1 111 0
 840 00da 25B2     		sxth	r5, r4
 841              	.LBE23:
 842              	.LBE22:
 843              		.loc 1 420 0
 844 00dc ABF81660 		strh	r6, [fp, #22]	@ movhi
 845              		.loc 1 427 0
 846 00e0 FFF7FEFF 		bl	gdispSetClip
 847              	.LVL66:
 848              	.LBB39:
 849              	.LBB24:
 850              		.loc 1 111 0
 851 00e4 0E9C     		ldr	r4, [sp, #56]
 852 00e6 23B2     		sxth	r3, r4
 853 00e8 5F1B     		subs	r7, r3, r5
ARM GAS  /tmp/ccyoxMDb.s 			page 16


 854 00ea 08EE905A 		fmsr	s17, r5	@ int
 855 00ee 09EE103A 		fmsr	s18, r3	@ int
 856              		.loc 1 112 0
 857 00f2 9FED668A 		flds	s16, .L124+16
 858              		.loc 1 111 0
 859 00f6 09EE907A 		fmsr	s19, r7	@ int
 860              	.LBE24:
 861              	.LBE39:
 862              		.loc 1 450 0
 863 00fa DA46     		mov	sl, fp
 864              	.L106:
 865              		.loc 1 433 0
 866 00fc 1F20     		movs	r0, #31
 867 00fe FFF7FEFF 		bl	gdispClear
 868              	.LVL67:
 869              		.loc 1 435 0
 870 0102 129E     		ldr	r6, [sp, #72]
 871 0104 40F20001 		movw	r1, #:lower16:.LC2
 872 0108 4FF6FF72 		movw	r2, #65535
 873 010c 0125     		movs	r5, #1
 874 010e C0F20001 		movt	r1, #:upper16:.LC2
 875 0112 1F24     		movs	r4, #31
 876 0114 0091     		str	r1, [sp, #0]
 877 0116 0292     		str	r2, [sp, #8]
 878 0118 0020     		movs	r0, #0
 879 011a 1E23     		movs	r3, #30
 880 011c 0196     		str	r6, [sp, #4]
 881 011e 0394     		str	r4, [sp, #12]
 882 0120 0495     		str	r5, [sp, #16]
 883 0122 0521     		movs	r1, #5
 884 0124 0C9A     		ldr	r2, [sp, #48]
 885 0126 FFF7FEFF 		bl	gdispFillStringBox
 886              	.LVL68:
 887              		.loc 1 437 0
 888 012a 18AB     		add	r3, sp, #96
 889 012c 14A8     		add	r0, sp, #80
 890              		.loc 1 435 0
 891 012e 0D9F     		ldr	r7, [sp, #52]
 892 0130 DDF83890 		ldr	r9, [sp, #56]
 893 0134 0B95     		str	r5, [sp, #44]
 894              		.loc 1 437 0
 895 0136 0A93     		str	r3, [sp, #40]
 896 0138 0990     		str	r0, [sp, #36]
 897              	.LVL69:
 898              	.L95:
 899              	.LBB40:
 900              	.LBB41:
 901              		.loc 1 77 0
 902 013a 1FFA89F8 		uxth	r8, r9
 903 013e A8F10F02 		sub	r2, r8, #15
 904 0142 A8F10206 		sub	r6, r8, #2
 905 0146 15B2     		sxth	r5, r2
 906 0148 39B2     		sxth	r1, r7
 907 014a 32B2     		sxth	r2, r6
 908 014c 4FF6FF76 		movw	r6, #65535
 909 0150 0B46     		mov	r3, r1
 910 0152 2846     		mov	r0, r5
ARM GAS  /tmp/ccyoxMDb.s 			page 17


 911 0154 0096     		str	r6, [sp, #0]
 912 0156 FFF7FEFF 		bl	gdispDrawLine
 913              	.LVL70:
 914              		.loc 1 78 0
 915 015a 0999     		ldr	r1, [sp, #36]
 916 015c 0C88     		ldrh	r4, [r1, #0]
 917 015e B1F90210 		ldrsh	r1, [r1, #2]
 918 0162 0096     		str	r6, [sp, #0]
 919 0164 A31C     		adds	r3, r4, #2
 920 0166 04F10F02 		add	r2, r4, #15
 921              		.loc 1 79 0
 922 016a BFB2     		uxth	r7, r7
 923              		.loc 1 78 0
 924 016c 18B2     		sxth	r0, r3
 925 016e 12B2     		sxth	r2, r2
 926 0170 0B46     		mov	r3, r1
 927              		.loc 1 79 0
 928 0172 0797     		str	r7, [sp, #28]
 929              		.loc 1 78 0
 930 0174 FFF7FEFF 		bl	gdispDrawLine
 931              	.LVL71:
 932              		.loc 1 79 0
 933 0178 3846     		mov	r0, r7
 934 017a 0F38     		subs	r0, r0, #15
 935 017c 04B2     		sxth	r4, r0
 936 017e 0FFA89F9 		sxth	r9, r9
 937 0182 BB1E     		subs	r3, r7, #2
 938 0184 0096     		str	r6, [sp, #0]
 939              		.loc 1 80 0
 940 0186 3E46     		mov	r6, r7
 941              		.loc 1 79 0
 942 0188 4846     		mov	r0, r9
 943 018a 4A46     		mov	r2, r9
 944 018c 2146     		mov	r1, r4
 945 018e 1BB2     		sxth	r3, r3
 946              		.loc 1 80 0
 947 0190 0237     		adds	r7, r7, #2
 948 0192 0F36     		adds	r6, r6, #15
 949              		.loc 1 79 0
 950 0194 FFF7FEFF 		bl	gdispDrawLine
 951              	.LVL72:
 952              		.loc 1 80 0
 953 0198 36B2     		sxth	r6, r6
 954 019a 39B2     		sxth	r1, r7
 955 019c 4FF6FF77 		movw	r7, #65535
 956 01a0 4846     		mov	r0, r9
 957 01a2 4A46     		mov	r2, r9
 958 01a4 3346     		mov	r3, r6
 959 01a6 0097     		str	r7, [sp, #0]
 960 01a8 FFF7FEFF 		bl	gdispDrawLine
 961              	.LVL73:
 962              		.loc 1 82 0
 963 01ac A8F1070C 		sub	ip, r8, #7
 964 01b0 0FFA8CF9 		sxth	r9, ip
 965 01b4 4BF6F047 		movw	r7, #48368
 966 01b8 4A46     		mov	r2, r9
 967 01ba 2846     		mov	r0, r5
ARM GAS  /tmp/ccyoxMDb.s 			page 18


 968 01bc 3146     		mov	r1, r6
 969 01be 3346     		mov	r3, r6
 970 01c0 0097     		str	r7, [sp, #0]
 971 01c2 CDF82090 		str	r9, [sp, #32]
 972 01c6 FFF7FEFF 		bl	gdispDrawLine
 973              	.LVL74:
 974              		.loc 1 83 0
 975 01ca 0798     		ldr	r0, [sp, #28]
 976 01cc 00F10701 		add	r1, r0, #7
 977 01d0 0FFA81F9 		sxth	r9, r1
 978 01d4 4BF6F047 		movw	r7, #48368
 979 01d8 4946     		mov	r1, r9
 980 01da 2846     		mov	r0, r5
 981 01dc 2A46     		mov	r2, r5
 982 01de 3346     		mov	r3, r6
 983 01e0 0097     		str	r7, [sp, #0]
 984 01e2 FFF7FEFF 		bl	gdispDrawLine
 985              	.LVL75:
 986              		.loc 1 85 0
 987 01e6 DDF820C0 		ldr	ip, [sp, #32]
 988 01ea 0097     		str	r7, [sp, #0]
 989 01ec 6246     		mov	r2, ip
 990 01ee 2846     		mov	r0, r5
 991 01f0 2146     		mov	r1, r4
 992 01f2 2346     		mov	r3, r4
 993 01f4 FFF7FEFF 		bl	gdispDrawLine
 994              	.LVL76:
 995              		.loc 1 86 0
 996 01f8 079B     		ldr	r3, [sp, #28]
 997 01fa DA1F     		subs	r2, r3, #7
 998 01fc 0FFA82FC 		sxth	ip, r2
 999 0200 4BF6F047 		movw	r7, #48368
 1000 0204 6146     		mov	r1, ip
 1001 0206 2846     		mov	r0, r5
 1002 0208 2A46     		mov	r2, r5
 1003 020a 2346     		mov	r3, r4
 1004 020c 0097     		str	r7, [sp, #0]
 1005 020e CDF820C0 		str	ip, [sp, #32]
 1006 0212 FFF7FEFF 		bl	gdispDrawLine
 1007              	.LVL77:
 1008              		.loc 1 88 0
 1009 0216 08F10F01 		add	r1, r8, #15
 1010 021a 08F10700 		add	r0, r8, #7
 1011 021e 0BB2     		sxth	r3, r1
 1012 0220 4BF6F047 		movw	r7, #48368
 1013 0224 0FFA80F8 		sxth	r8, r0
 1014 0228 1A46     		mov	r2, r3
 1015 022a 0793     		str	r3, [sp, #28]
 1016 022c 4046     		mov	r0, r8
 1017 022e 3146     		mov	r1, r6
 1018 0230 3346     		mov	r3, r6
 1019 0232 0097     		str	r7, [sp, #0]
 1020 0234 FFF7FEFF 		bl	gdispDrawLine
 1021              	.LVL78:
 1022              		.loc 1 89 0
 1023 0238 0798     		ldr	r0, [sp, #28]
 1024 023a 0097     		str	r7, [sp, #0]
ARM GAS  /tmp/ccyoxMDb.s 			page 19


 1025 023c 4946     		mov	r1, r9
 1026 023e 0246     		mov	r2, r0
 1027 0240 3346     		mov	r3, r6
 1028 0242 FFF7FEFF 		bl	gdispDrawLine
 1029              	.LVL79:
 1030              		.loc 1 91 0
 1031 0246 4046     		mov	r0, r8
 1032 0248 2146     		mov	r1, r4
 1033 024a 079A     		ldr	r2, [sp, #28]
 1034 024c 0097     		str	r7, [sp, #0]
 1035 024e 2346     		mov	r3, r4
 1036 0250 FFF7FEFF 		bl	gdispDrawLine
 1037              	.LVL80:
 1038              		.loc 1 92 0
 1039 0254 0798     		ldr	r0, [sp, #28]
 1040 0256 DDF82090 		ldr	r9, [sp, #32]
 1041 025a 0097     		str	r7, [sp, #0]
 1042 025c 2146     		mov	r1, r4
 1043 025e 0246     		mov	r2, r0
 1044 0260 4B46     		mov	r3, r9
 1045 0262 FFF7FEFF 		bl	gdispDrawLine
 1046              	.LVL81:
 1047              	.L119:
 1048              	.LBE41:
 1049              	.LBE40:
 1050              		.loc 1 443 0 discriminator 1
 1051 0266 FFF7FEFF 		bl	get_raw_reading.constprop.1
 1052              	.LVL82:
 1053 026a BBF80660 		ldrh	r6, [fp, #6]
 1054 026e F207     		lsls	r2, r6, #31
 1055 0270 52D5     		bpl	.L97
 1056              		.loc 1 443 0 is_stmt 0
 1057 0272 0026     		movs	r6, #0
 1058 0274 B046     		mov	r8, r6
 1059 0276 3746     		mov	r7, r6
 1060 0278 13E0     		b	.L98
 1061              	.L125:
 1062 027a 00BF     		.align	2
 1063              	.L124:
 1064 027c 00000000 		.word	GDISP
 1065 0280 00000000 		.word	.LC0
 1066 0284 0C000000 		.word	.LC1
 1067 0288 00000000 		.word	.LANCHOR1
 1068 028c 00000000 		.word	0
 1069 0290 00000000 		.word	.LANCHOR0
 1070              	.LVL83:
 1071              	.L99:
 1072              		.loc 1 452 0 is_stmt 1
 1073 0294 BAF90000 		ldrsh	r0, [sl, #0]
 1074              		.loc 1 453 0
 1075 0298 BAF90230 		ldrsh	r3, [sl, #2]
 1076              		.loc 1 452 0
 1077 029c 3F18     		adds	r7, r7, r0
 1078              	.LVL84:
 1079              		.loc 1 453 0
 1080 029e 9844     		add	r8, r8, r3
 1081              	.LVL85:
ARM GAS  /tmp/ccyoxMDb.s 			page 20


 1082              		.loc 1 451 0
 1083 02a0 0136     		adds	r6, r6, #1
 1084              	.LVL86:
 1085              	.L98:
 1086              		.loc 1 448 0 discriminator 1
 1087 02a2 1420     		movs	r0, #20
 1088 02a4 FFF7FEFF 		bl	gfxSleepMilliseconds
 1089              	.LVL87:
 1090              		.loc 1 449 0 discriminator 1
 1091 02a8 FFF7FEFF 		bl	get_raw_reading.constprop.1
 1092              	.LVL88:
 1093              		.loc 1 450 0 discriminator 1
 1094 02ac BBF80620 		ldrh	r2, [fp, #6]
 1095              		.loc 1 447 0 discriminator 1
 1096 02b0 12F00100 		ands	r0, r2, #1
 1097 02b4 EED1     		bne	.L99
 1098              		.loc 1 456 0
 1099 02b6 002E     		cmp	r6, #0
 1100 02b8 D5D0     		beq	.L119
 1101 02ba 4346     		mov	r3, r8
 1102              		.loc 1 459 0
 1103 02bc B3FBF6FC 		udiv	ip, r3, r6
 1104              		.loc 1 458 0
 1105 02c0 B7FBF6F7 		udiv	r7, r7, r6
 1106              	.LVL89:
 1107 02c4 8046     		mov	r8, r0
 1108              	.LVL90:
 1109              	.LBB42:
 1110              	.LBB43:
 1111              		.loc 1 96 0
 1112 02c6 2846     		mov	r0, r5
 1113              	.LBE43:
 1114              	.LBE42:
 1115              		.loc 1 458 0
 1116 02c8 0A9D     		ldr	r5, [sp, #40]
 1117              	.LBB47:
 1118              	.LBB44:
 1119              		.loc 1 96 0
 1120 02ca 2A22     		movs	r2, #42
 1121 02cc 1F26     		movs	r6, #31
 1122              	.LVL91:
 1123              	.LBE44:
 1124              	.LBE47:
 1125              		.loc 1 459 0
 1126 02ce 1FFA8CF9 		uxth	r9, ip
 1127              		.loc 1 458 0
 1128 02d2 BFB2     		uxth	r7, r7
 1129              	.LBB48:
 1130              	.LBB45:
 1131              		.loc 1 96 0
 1132 02d4 0096     		str	r6, [sp, #0]
 1133 02d6 2146     		mov	r1, r4
 1134 02d8 1346     		mov	r3, r2
 1135              	.LVL92:
 1136              	.LBE45:
 1137              	.LBE48:
 1138              		.loc 1 458 0
ARM GAS  /tmp/ccyoxMDb.s 			page 21


 1139 02da 2F80     		strh	r7, [r5, #0]	@ movhi
 1140              		.loc 1 459 0
 1141 02dc A5F80290 		strh	r9, [r5, #2]	@ movhi
 1142              	.LVL93:
 1143              	.LBB49:
 1144              	.LBB46:
 1145              		.loc 1 96 0
 1146 02e0 FFF7FEFF 		bl	gdispFillArea
 1147              	.LVL94:
 1148              	.LBE46:
 1149              	.LBE49:
 1150              		.loc 1 463 0
 1151 02e4 0B9C     		ldr	r4, [sp, #44]
 1152 02e6 012C     		cmp	r4, #1
 1153 02e8 1AD0     		beq	.L101
 1154              		.loc 1 463 0 is_stmt 0 discriminator 1
 1155 02ea 0A9D     		ldr	r5, [sp, #40]
 1156 02ec 35F8044C 		ldrh	r4, [r5, #-4]
 1157 02f0 A742     		cmp	r7, r4
 1158 02f2 00F0FD80 		beq	.L122
 1159              	.L102:
 1160              	.LVL95:
 1161              		.loc 1 437 0 is_stmt 1
 1162 02f6 0B9E     		ldr	r6, [sp, #44]
 1163 02f8 042E     		cmp	r6, #4
 1164 02fa 17D0     		beq	.L103
 1165 02fc 0A9D     		ldr	r5, [sp, #40]
 1166 02fe 099F     		ldr	r7, [sp, #36]
 1167 0300 2E1D     		adds	r6, r5, #4
 1168              	.LVL96:
 1169 0302 0A96     		str	r6, [sp, #40]
 1170 0304 3B1D     		adds	r3, r7, #4
 1171              	.LVL97:
 1172              	.L104:
 1173 0306 0B99     		ldr	r1, [sp, #44]
 1174 0308 099C     		ldr	r4, [sp, #36]
 1175              		.loc 1 494 0
 1176 030a 0993     		str	r3, [sp, #36]
 1177 030c 4A1C     		adds	r2, r1, #1
 1178 030e B4F80490 		ldrh	r9, [r4, #4]
 1179 0312 E788     		ldrh	r7, [r4, #6]
 1180 0314 0B92     		str	r2, [sp, #44]
 1181 0316 10E7     		b	.L95
 1182              	.LVL98:
 1183              	.L97:
 1184              		.loc 1 444 0
 1185 0318 1420     		movs	r0, #20
 1186 031a FFF7FEFF 		bl	gfxSleepMilliseconds
 1187              	.LVL99:
 1188 031e A2E7     		b	.L119
 1189              	.LVL100:
 1190              	.L101:
 1191              		.loc 1 437 0
 1192 0320 0A9A     		ldr	r2, [sp, #40]
 1193 0322 0999     		ldr	r1, [sp, #36]
 1194 0324 101D     		adds	r0, r2, #4
 1195 0326 0A90     		str	r0, [sp, #40]
ARM GAS  /tmp/ccyoxMDb.s 			page 22


 1196              	.LVL101:
 1197 0328 0B1D     		adds	r3, r1, #4
 1198              	.LVL102:
 1199 032a ECE7     		b	.L104
 1200              	.LVL103:
 1201              	.L103:
 1202              	.LBB50:
 1203              	.LBB25:
 1204              		.loc 1 108 0
 1205 032c BDF96820 		ldrsh	r2, [sp, #104]
 1206              		.loc 1 109 0
 1207 0330 BDF96270 		ldrsh	r7, [sp, #98]
 1208              		.loc 1 108 0
 1209 0334 BDF96A30 		ldrsh	r3, [sp, #106]
 1210 0338 BDF96060 		ldrsh	r6, [sp, #96]
 1211              	.LVL104:
 1212 033c BDF96600 		ldrsh	r0, [sp, #102]
 1213              		.loc 1 109 0
 1214 0340 BDF964E0 		ldrsh	lr, [sp, #100]
 1215              	.LBE25:
 1216              	.LBE50:
 1217              	.LBB51:
 1218              	.LBB52:
 1219              		.loc 1 100 0
 1220 0344 BDF96E40 		ldrsh	r4, [sp, #110]
 1221 0348 BDF96C10 		ldrsh	r1, [sp, #108]
 1222              	.LBE52:
 1223              	.LBE51:
 1224              	.LBB64:
 1225              	.LBB26:
 1226              		.loc 1 132 0
 1227 034c 944D     		ldr	r5, .L126
 1228              		.loc 1 117 0
 1229 034e 01EE102A 		fmsr	s2, r2	@ int
 1230              		.loc 1 118 0
 1231 0352 05EE107A 		fmsr	s10, r7	@ int
 1232              		.loc 1 117 0
 1233 0356 06EE103A 		fmsr	s12, r3	@ int
 1234 035a 07EE100A 		fmsr	s14, r0	@ int
 1235              		.loc 1 118 0
 1236 035e 00EE106A 		fmsr	s0, r6	@ int
 1237 0362 F8EEC52A 		fsitos	s5, s10
 1238              		.loc 1 117 0
 1239 0366 F8EEC15A 		fsitos	s11, s2
 1240              		.loc 1 109 0
 1241 036a FF1A     		subs	r7, r7, r3
 1242              		.loc 1 117 0
 1243 036c 00EE90EA 		fmsr	s1, lr	@ int
 1244              		.loc 1 109 0
 1245 0370 C2EB0E0C 		rsb	ip, r2, lr
 1246              		.loc 1 117 0
 1247 0374 F8EEC67A 		fsitos	s15, s12
 1248 0378 F8EEC71A 		fsitos	s3, s14
 1249              		.loc 1 118 0
 1250 037c B8EEC02A 		fsitos	s4, s0
 1251              		.loc 1 108 0
 1252 0380 B21A     		subs	r2, r6, r2
ARM GAS  /tmp/ccyoxMDb.s 			page 23


 1253 0382 C31A     		subs	r3, r0, r3
 1254              		.loc 1 109 0
 1255 0384 04EE907A 		fmsr	s9, r7	@ int
 1256 0388 04EE10CA 		fmsr	s8, ip	@ int
 1257              		.loc 1 117 0
 1258 038c B8EEE00A 		fsitos	s0, s1
 1259              		.loc 1 118 0
 1260 0390 25EEA27A 		fmuls	s14, s11, s5
 1261              		.loc 1 108 0
 1262 0394 03EE102A 		fmsr	s6, r2	@ int
 1263 0398 03EE903A 		fmsr	s7, r3	@ int
 1264              		.loc 1 118 0
 1265 039c 17EE827A 		fmscs	s14, s15, s4
 1266              		.loc 1 109 0
 1267 03a0 B8EEC44A 		fsitos	s8, s8
 1268 03a4 F8EEE44A 		fsitos	s9, s9
 1269              		.loc 1 111 0
 1270 03a8 F8EEE96A 		fsitos	s13, s19
 1271              		.loc 1 117 0
 1272 03ac 65EEA15A 		fmuls	s11, s11, s3
 1273 03b0 50EE275A 		fmscs	s11, s0, s15
 1274              		.loc 1 108 0
 1275 03b4 B8EEC33A 		fsitos	s6, s6
 1276 03b8 F8EEE33A 		fsitos	s7, s7
 1277              		.loc 1 118 0
 1278 03bc B8EEE81A 		fsitos	s2, s17
 1279              		.loc 1 109 0
 1280 03c0 64EE247A 		fmuls	s15, s8, s9
 1281              		.loc 1 115 0
 1282 03c4 24EE265A 		fmuls	s10, s8, s13
 1283              		.loc 1 108 0
 1284 03c8 53EE237A 		fmscs	s15, s6, s7
 1285              	.LVL105:
 1286              		.loc 1 119 0
 1287 03cc 20EE226A 		fmuls	s12, s0, s5
 1288              		.loc 1 114 0
 1289 03d0 13EE085A 		fmscs	s10, s6, s16
 1290              		.loc 1 112 0
 1291 03d4 64EE882A 		fmuls	s5, s9, s16
 1292              		.loc 1 117 0
 1293 03d8 F8EEC90A 		fsitos	s1, s18
 1294              		.loc 1 119 0
 1295 03dc 11EE826A 		fmscs	s12, s3, s4
 1296              	.LVL106:
 1297              		.loc 1 111 0
 1298 03e0 53EEA62A 		fmscs	s5, s7, s13
 1299              		.loc 1 118 0
 1300 03e4 61EE071A 		fmuls	s3, s2, s14
 1301              		.loc 1 117 0
 1302 03e8 50EEA51A 		fmscs	s3, s1, s11
 1303              		.loc 1 121 0
 1304 03ec 0F9E     		ldr	r6, [sp, #60]
 1305 03ee 0D98     		ldr	r0, [sp, #52]
 1306              	.LBE26:
 1307              	.LBE64:
 1308              		.loc 1 487 0
 1309 03f0 119B     		ldr	r3, [sp, #68]
ARM GAS  /tmp/ccyoxMDb.s 			page 24


 1310              	.LBB65:
 1311              	.LBB27:
 1312              		.loc 1 133 0
 1313 03f2 85EE272A 		fdivs	s4, s10, s15
 1314              		.loc 1 121 0
 1315 03f6 32B2     		sxth	r2, r6
 1316 03f8 06B2     		sxth	r6, r0
 1317 03fa B71A     		subs	r7, r6, r2
 1318              	.LBE27:
 1319              	.LBE65:
 1320              		.loc 1 487 0
 1321 03fc 18B2     		sxth	r0, r3
 1322              	.LBB66:
 1323              	.LBB28:
 1324              		.loc 1 132 0
 1325 03fe C2EEA72A 		fdivs	s5, s5, s15
 1326              		.loc 1 117 0
 1327 0402 41EE061A 		fmacs	s3, s2, s12
 1328              		.loc 1 127 0
 1329 0406 01EE106A 		fmsr	s2, r6	@ int
 1330              		.loc 1 121 0
 1331 040a 00EE107A 		fmsr	s0, r7	@ int
 1332              		.loc 1 127 0
 1333 040e F8EEC10A 		fsitos	s1, s2
 1334              		.loc 1 134 0
 1335 0412 C1EEA76A 		fdivs	s13, s3, s15
 1336              	.LBE28:
 1337              	.LBE66:
 1338              		.loc 1 486 0
 1339 0416 109F     		ldr	r7, [sp, #64]
 1340 0418 3FB2     		sxth	r7, r7
 1341              	.LBB67:
 1342              	.LBB29:
 1343              		.loc 1 121 0
 1344 041a B8EEC05A 		fsitos	s10, s0
 1345              	.LVL107:
 1346              		.loc 1 128 0
 1347 041e 27EE207A 		fmuls	s14, s14, s1
 1348              	.LVL108:
 1349              		.loc 1 127 0
 1350 0422 15EEA07A 		fmscs	s14, s11, s1
 1351              		.loc 1 129 0
 1352 0426 05EE902A 		fmsr	s11, r2	@ int
 1353              	.LVL109:
 1354              		.loc 1 125 0
 1355 042a 24EE054A 		fmuls	s8, s8, s10
 1356              	.LVL110:
 1357              		.loc 1 124 0
 1358 042e 13EE054A 		fmscs	s8, s6, s10
 1359              	.LVL111:
 1360              		.loc 1 129 0
 1361 0432 B8EEE53A 		fsitos	s6, s11
 1362              		.loc 1 122 0
 1363 0436 64EE854A 		fmuls	s9, s9, s10
 1364              	.LVL112:
 1365              		.loc 1 127 0
 1366 043a 06EE037A 		fmacs	s14, s12, s6
ARM GAS  /tmp/ccyoxMDb.s 			page 25


 1367              	.LBE29:
 1368              	.LBE67:
 1369              	.LBB68:
 1370              	.LBB53:
 1371              		.loc 1 100 0
 1372 043e 06EE104A 		fmsr	s12, r4	@ int
 1373              	.LVL113:
 1374              	.LBE53:
 1375              	.LBE68:
 1376              	.LBB69:
 1377              	.LBB30:
 1378              		.loc 1 121 0
 1379 0442 53EE854A 		fmscs	s9, s7, s10
 1380              	.LVL114:
 1381              	.LBE30:
 1382              	.LBE69:
 1383              	.LBB70:
 1384              	.LBB54:
 1385              		.loc 1 100 0
 1386 0446 05EE101A 		fmsr	s10, r1	@ int
 1387 044a B8EEC60A 		fsitos	s0, s12
 1388 044e B8EEC51A 		fsitos	s2, s10
 1389              	.LBE54:
 1390              	.LBE70:
 1391              	.LBB71:
 1392              	.LBB31:
 1393              		.loc 1 137 0
 1394 0452 C4EE273A 		fdivs	s7, s8, s15
 1395              	.LBE31:
 1396              	.LBE71:
 1397              	.LBB72:
 1398              	.LBB55:
 1399              		.loc 1 100 0
 1400 0456 62EE000A 		fmuls	s1, s4, s0
 1401              	.LBE55:
 1402              	.LBE72:
 1403              	.LBB73:
 1404              	.LBB32:
 1405              		.loc 1 136 0
 1406 045a C4EEA71A 		fdivs	s3, s9, s15
 1407              	.LBE32:
 1408              	.LBE73:
 1409              	.LBB74:
 1410              	.LBB56:
 1411              		.loc 1 100 0
 1412 045e 42EE810A 		fmacs	s1, s5, s2
 1413              	.LBE56:
 1414              	.LBE74:
 1415              	.LBB75:
 1416              	.LBB33:
 1417              		.loc 1 138 0
 1418 0462 C7EE277A 		fdivs	s15, s14, s15
 1419              	.LVL115:
 1420              	.LBE33:
 1421              	.LBE75:
 1422              	.LBB76:
 1423              	.LBB57:
ARM GAS  /tmp/ccyoxMDb.s 			page 26


 1424              		.loc 1 100 0
 1425 0466 76EEA04A 		fadds	s9, s13, s1
 1426              	.LVL116:
 1427              	.LBE57:
 1428              	.LBE76:
 1429              	.LBB77:
 1430              	.LBB34:
 1431              		.loc 1 132 0
 1432 046a CBED082A 		fsts	s5, [fp, #32]
 1433              	.LBE34:
 1434              	.LBE77:
 1435              	.LBB78:
 1436              	.LBB58:
 1437              		.loc 1 100 0
 1438 046e FDEEE42A 		ftosizs	s5, s9
 1439              	.LBE58:
 1440              	.LBE78:
 1441              	.LBB79:
 1442              	.LBB35:
 1443              		.loc 1 133 0
 1444 0472 8BED092A 		fsts	s4, [fp, #36]
 1445              	.LBE35:
 1446              	.LBE79:
 1447              	.LBB80:
 1448              	.LBB59:
 1449              		.loc 1 100 0
 1450 0476 12EE903A 		fmrs	r3, s5	@ int
 1451              		.loc 1 101 0
 1452 047a 1CB2     		sxth	r4, r3
 1453 047c 02EE104A 		fmsr	s4, r4	@ int
 1454 0480 B8EEC27A 		fsitos	s14, s4
 1455 0484 23EE804A 		fmuls	s8, s7, s0
 1456              	.LVL117:
 1457 0488 01EE874A 		fmacs	s8, s3, s14
 1458              	.LBE59:
 1459              	.LBE80:
 1460              	.LBB81:
 1461              	.LBB36:
 1462              		.loc 1 134 0
 1463 048c CBED0A6A 		fsts	s13, [fp, #40]
 1464              	.LBE36:
 1465              	.LBE81:
 1466              	.LBB82:
 1467              	.LBB60:
 1468              		.loc 1 101 0
 1469 0490 77EE846A 		fadds	s13, s15, s8
 1470              	.LBE60:
 1471              	.LBE82:
 1472              		.loc 1 486 0
 1473 0494 E11B     		subs	r1, r4, r7
 1474              	.LBB83:
 1475              	.LBB61:
 1476              		.loc 1 101 0
 1477 0496 FDEEE65A 		ftosizs	s11, s13
 1478              	.LBE61:
 1479              	.LBE83:
 1480              	.LBB84:
ARM GAS  /tmp/ccyoxMDb.s 			page 27


 1481              	.LBB37:
 1482              		.loc 1 136 0
 1483 049a CBED0B1A 		fsts	s3, [fp, #44]
 1484              	.LBE37:
 1485              	.LBE84:
 1486              	.LBB85:
 1487              	.LBB62:
 1488              		.loc 1 101 0
 1489 049e 15EE902A 		fmrs	r2, s11	@ int
 1490              	.LVL118:
 1491              	.LBE62:
 1492              	.LBE85:
 1493              		.loc 1 487 0
 1494 04a2 14B2     		sxth	r4, r2
 1495 04a4 201A     		subs	r0, r4, r0
 1496 04a6 00FB00F0 		mul	r0, r0, r0
 1497              		.loc 1 486 0
 1498 04aa 01FB0101 		mla	r1, r1, r1, r0
 1499              		.loc 1 489 0
 1500 04ae 1929     		cmp	r1, #25
 1501              	.LBB86:
 1502              	.LBB38:
 1503              		.loc 1 137 0
 1504 04b0 CBED0C3A 		fsts	s7, [fp, #48]
 1505              		.loc 1 138 0
 1506 04b4 CBED0D7A 		fsts	s15, [fp, #52]
 1507              	.LVL119:
 1508              	.LBE38:
 1509              	.LBE86:
 1510              	.LBB87:
 1511              	.LBB63:
 1512              		.loc 1 100 0
 1513 04b8 ABF80030 		strh	r3, [fp, #0]	@ movhi
 1514              		.loc 1 101 0
 1515 04bc ABF80220 		strh	r2, [fp, #2]	@ movhi
 1516              	.LBE63:
 1517              	.LBE87:
 1518              		.loc 1 489 0
 1519 04c0 3CD9     		bls	.L105
 1520              		.loc 1 492 0
 1521 04c2 139D     		ldr	r5, [sp, #76]
 1522 04c4 374E     		ldr	r6, .L126+4
 1523              	.LVL120:
 1524 04c6 0195     		str	r5, [sp, #4]
 1525 04c8 4FF47847 		mov	r7, #63488
 1526              	.LVL121:
 1527 04cc 07F5FC63 		add	r3, r7, #2016
 1528 04d0 0122     		movs	r2, #1
 1529 04d2 0393     		str	r3, [sp, #12]
 1530 04d4 0492     		str	r2, [sp, #16]
 1531 04d6 0020     		movs	r0, #0
 1532 04d8 0096     		str	r6, [sp, #0]
 1533 04da 0297     		str	r7, [sp, #8]
 1534 04dc 2321     		movs	r1, #35
 1535 04de 0C9A     		ldr	r2, [sp, #48]
 1536 04e0 2823     		movs	r3, #40
 1537 04e2 FFF7FEFF 		bl	gdispFillStringBox
ARM GAS  /tmp/ccyoxMDb.s 			page 28


 1538              	.LVL122:
 1539              		.loc 1 493 0
 1540 04e6 41F28830 		movw	r0, #5000
 1541 04ea FFF7FEFF 		bl	gfxSleepMilliseconds
 1542              	.LVL123:
 1543              		.loc 1 494 0
 1544 04ee 05E6     		b	.L106
 1545              	.LVL124:
 1546              	.L122:
 1547              		.loc 1 463 0 discriminator 1
 1548 04f0 35F8027C 		ldrh	r7, [r5, #-2]
 1549 04f4 B945     		cmp	r9, r7
 1550 04f6 7FF4FEAE 		bne	.L102
 1551              		.loc 1 464 0
 1552 04fa 139C     		ldr	r4, [sp, #76]
 1553 04fc 0C9A     		ldr	r2, [sp, #48]
 1554 04fe 0194     		str	r4, [sp, #4]
 1555 0500 40F20005 		movw	r5, #:lower16:.LC3
 1556 0504 4FF47847 		mov	r7, #63488
 1557 0508 C0F20005 		movt	r5, #:upper16:.LC3
 1558 050c 0095     		str	r5, [sp, #0]
 1559 050e 0124     		movs	r4, #1
 1560 0510 07F5FC65 		add	r5, r7, #2016
 1561 0514 2321     		movs	r1, #35
 1562 0516 2823     		movs	r3, #40
 1563 0518 4046     		mov	r0, r8
 1564 051a 0297     		str	r7, [sp, #8]
 1565 051c 0395     		str	r5, [sp, #12]
 1566 051e 0494     		str	r4, [sp, #16]
 1567 0520 FFF7FEFF 		bl	gdispFillStringBox
 1568              	.LVL125:
 1569              		.loc 1 465 0
 1570 0524 41F28830 		movw	r0, #5000
 1571 0528 FFF7FEFF 		bl	gfxSleepMilliseconds
 1572              	.LVL126:
 1573              		.loc 1 466 0
 1574 052c 0096     		str	r6, [sp, #0]
 1575 052e 4046     		mov	r0, r8
 1576 0530 2321     		movs	r1, #35
 1577 0532 0C9A     		ldr	r2, [sp, #48]
 1578 0534 2823     		movs	r3, #40
 1579 0536 FFF7FEFF 		bl	gdispFillArea
 1580              	.LVL127:
 1581 053a DCE6     		b	.L102
 1582              	.LVL128:
 1583              	.L105:
 1584              		.loc 1 498 0
 1585 053c 1298     		ldr	r0, [sp, #72]
 1586 053e FFF7FEFF 		bl	gdispCloseFont
 1587              	.LVL129:
 1588              		.loc 1 499 0
 1589 0542 1398     		ldr	r0, [sp, #76]
 1590 0544 FFF7FEFF 		bl	gdispCloseFont
 1591              	.LVL130:
 1592              		.loc 1 500 0
 1593 0548 E88A     		ldrh	r0, [r5, #22]
 1594              		.loc 1 501 0
ARM GAS  /tmp/ccyoxMDb.s 			page 29


 1595 054a 0024     		movs	r4, #0
 1596              		.loc 1 500 0
 1597 054c 40F02001 		orr	r1, r0, #32
 1598 0550 E982     		strh	r1, [r5, #22]	@ movhi
 1599              		.loc 1 501 0
 1600 0552 AC82     		strh	r4, [r5, #20]	@ movhi
 1601              		.loc 1 502 0
 1602 0554 FFF7FEFF 		bl	get_calibrated_reading.constprop.0
 1603              	.LVL131:
 1604              		.loc 1 503 0
 1605 0558 EB8A     		ldrh	r3, [r5, #22]
 1606 055a 23F01002 		bic	r2, r3, #16
 1607 055e 1004     		lsls	r0, r2, #16
 1608 0560 010C     		lsrs	r1, r0, #16
 1609              		.loc 1 504 0
 1610 0562 0B04     		lsls	r3, r1, #16
 1611              		.loc 1 503 0
 1612 0564 E982     		strh	r1, [r5, #22]	@ movhi
 1613              		.loc 1 504 0
 1614 0566 12D4     		bmi	.L123
 1615              	.L107:
 1616              		.loc 1 508 0
 1617 0568 DBF81830 		ldr	r3, [fp, #24]
 1618 056c 0C4C     		ldr	r4, .L126
 1619 056e 43B1     		cbz	r3, .L108
 1620              		.loc 1 509 0
 1621 0570 0020     		movs	r0, #0
 1622 0572 1822     		movs	r2, #24
 1623 0574 04F12001 		add	r1, r4, #32
 1624 0578 9847     		blx	r3
 1625              	.LVL132:
 1626              		.loc 1 510 0
 1627 057a E28A     		ldrh	r2, [r4, #22]
 1628 057c 42F04000 		orr	r0, r2, #64
 1629 0580 E082     		strh	r0, [r4, #22]	@ movhi
 1630              	.L108:
 1631              		.loc 1 515 0
 1632 0582 FFF7FEFF 		bl	gwinGetDefaultBgColor
 1633              	.LVL133:
 1634 0586 FFF7FEFF 		bl	gdispClear
 1635              	.LVL134:
 1636              		.loc 1 520 0
 1637 058a 0120     		movs	r0, #1
 1638 058c 87E5     		b	.L120
 1639              	.L123:
 1640              		.loc 1 505 0
 1641 058e 1923     		movs	r3, #25
 1642 0590 0093     		str	r3, [sp, #0]
 1643 0592 0548     		ldr	r0, .L126+8
 1644 0594 0549     		ldr	r1, .L126+12
 1645 0596 2246     		mov	r2, r4
 1646 0598 0123     		movs	r3, #1
 1647 059a FFF7FEFF 		bl	gtimerStart
 1648              	.LVL135:
 1649 059e E3E7     		b	.L107
 1650              	.L127:
 1651              		.align	2
ARM GAS  /tmp/ccyoxMDb.s 			page 30


 1652              	.L126:
 1653 05a0 00000000 		.word	.LANCHOR0
 1654 05a4 48000000 		.word	.LC4
 1655 05a8 00000000 		.word	.LANCHOR1
 1656 05ac 00000000 		.word	MousePoll
 1657              		.cfi_endproc
 1658              	.LFE127:
 1659              		.size	ginputCalibrateMouse, .-ginputCalibrateMouse
 1660              		.section	.text.ginputGetMouse,"ax",%progbits
 1661              		.align	2
 1662              		.p2align 4,,15
 1663              		.global	ginputGetMouse
 1664              		.thumb
 1665              		.thumb_func
 1666              		.type	ginputGetMouse, %function
 1667              	ginputGetMouse:
 1668              	.LFB125:
 1669              		.loc 1 311 0
 1670              		.cfi_startproc
 1671              		@ args = 0, pretend = 0, frame = 0
 1672              		@ frame_needed = 0, uses_anonymous_args = 0
 1673              	.LVL136:
 1674 0000 F0B5     		push	{r4, r5, r6, r7, lr}
 1675              	.LCFI7:
 1676              		.cfi_def_cfa_offset 20
 1677              		.cfi_offset 4, -20
 1678              		.cfi_offset 5, -16
 1679              		.cfi_offset 6, -12
 1680              		.cfi_offset 7, -8
 1681              		.cfi_offset 14, -4
 1682              		.loc 1 319 0
 1683 0002 0546     		mov	r5, r0
 1684              		.loc 1 311 0
 1685 0004 83B0     		sub	sp, sp, #12
 1686              	.LCFI8:
 1687              		.cfi_def_cfa_offset 32
 1688              		.loc 1 319 0
 1689 0006 18B1     		cbz	r0, .L129
 1690              		.loc 1 319 0 is_stmt 0 discriminator 1
 1691 0008 42F20F73 		movw	r3, #9999
 1692 000c 9842     		cmp	r0, r3
 1693 000e 4DD1     		bne	.L134
 1694              	.L129:
 1695              		.loc 1 323 0 is_stmt 1
 1696 0010 294C     		ldr	r4, .L150
 1697 0012 B4F91600 		ldrsh	r0, [r4, #22]
 1698              	.LVL137:
 1699 0016 0028     		cmp	r0, #0
 1700 0018 38DB     		blt	.L135
 1701              		.loc 1 324 0
 1702 001a FFF7FEFF 		bl	ginput_lld_mouse_init
 1703              	.LVL138:
 1704              		.loc 1 335 0
 1705 001e E169     		ldr	r1, [r4, #28]
 1706 0020 0029     		cmp	r1, #0
 1707 0022 2BD0     		beq	.L131
 1708              		.loc 1 335 0 is_stmt 0 discriminator 1
ARM GAS  /tmp/ccyoxMDb.s 			page 31


 1709 0024 2846     		mov	r0, r5
 1710 0026 8847     		blx	r1
 1711              	.LVL139:
 1712 0028 0746     		mov	r7, r0
 1713 002a 0028     		cmp	r0, #0
 1714 002c 26D0     		beq	.L131
 1715              		.loc 1 336 0 is_stmt 1
 1716 002e 0646     		mov	r6, r0
 1717 0030 0FCE     		ldmia	r6!, {r0, r1, r2, r3}
 1718              	.LVL140:
 1719 0032 04F12005 		add	r5, r4, #32
 1720 0036 0FC5     		stmia	r5!, {r0, r1, r2, r3}
 1721              		.loc 1 337 0
 1722 0038 E38A     		ldrh	r3, [r4, #22]
 1723              		.loc 1 336 0
 1724 003a 96E80300 		ldmia	r6, {r0, r1}
 1725              		.loc 1 338 0
 1726 003e 03F08002 		and	r2, r3, #128
 1727              		.loc 1 337 0
 1728 0042 43F06006 		orr	r6, r3, #96
 1729              		.loc 1 338 0
 1730 0046 93B2     		uxth	r3, r2
 1731              		.loc 1 336 0
 1732 0048 85E80300 		stmia	r5, {r0, r1}
 1733              		.loc 1 337 0
 1734 004c E682     		strh	r6, [r4, #22]	@ movhi
 1735              		.loc 1 338 0
 1736 004e 002B     		cmp	r3, #0
 1737 0050 2ED1     		bne	.L148
 1738              	.LVL141:
 1739              	.L132:
 1740              		.loc 1 353 0
 1741 0052 0025     		movs	r5, #0
 1742 0054 A582     		strh	r5, [r4, #20]	@ movhi
 1743              		.loc 1 354 0
 1744 0056 FFF7FEFF 		bl	get_calibrated_reading.constprop.0
 1745              	.LVL142:
 1746              		.loc 1 357 0
 1747 005a E28A     		ldrh	r2, [r4, #22]
 1748              		.loc 1 358 0
 1749 005c 1748     		ldr	r0, .L150+4
 1750 005e 1849     		ldr	r1, .L150+8
 1751              		.loc 1 357 0
 1752 0060 6FEA4246 		mvn	r6, r2, lsl #17
 1753              		.loc 1 358 0
 1754 0064 1923     		movs	r3, #25
 1755 0066 0093     		str	r3, [sp, #0]
 1756              		.loc 1 357 0
 1757 0068 6FEA5646 		mvn	r6, r6, lsr #17
 1758              		.loc 1 358 0
 1759 006c 2A46     		mov	r2, r5
 1760 006e 0123     		movs	r3, #1
 1761              		.loc 1 357 0
 1762 0070 E682     		strh	r6, [r4, #22]	@ movhi
 1763              		.loc 1 358 0
 1764 0072 FFF7FEFF 		bl	gtimerStart
 1765              	.LVL143:
ARM GAS  /tmp/ccyoxMDb.s 			page 32


 1766              		.loc 1 362 0
 1767 0076 1048     		ldr	r0, .L150
 1768              	.L130:
 1769              		.loc 1 363 0
 1770 0078 03B0     		add	sp, sp, #12
 1771 007a F0BD     		pop	{r4, r5, r6, r7, pc}
 1772              	.L131:
 1773              		.loc 1 340 0
 1774 007c 42F20F72 		movw	r2, #9999
 1775 0080 9542     		cmp	r5, r2
 1776 0082 05D0     		beq	.L149
 1777              		.loc 1 349 0
 1778 0084 2846     		mov	r0, r5
 1779 0086 FFF7FEFF 		bl	ginputCalibrateMouse
 1780              	.LVL144:
 1781 008a E2E7     		b	.L132
 1782              	.L135:
 1783              		.loc 1 362 0
 1784 008c 2046     		mov	r0, r4
 1785 008e F3E7     		b	.L130
 1786              	.L149:
 1787              		.loc 1 347 0
 1788 0090 E58A     		ldrh	r5, [r4, #22]
 1789              		.loc 1 342 0
 1790 0092 0026     		movs	r6, #0
 1791              		.loc 1 341 0
 1792 0094 4FF07E53 		mov	r3, #1065353216
 1793              		.loc 1 347 0
 1794 0098 45F06000 		orr	r0, r5, #96
 1795              		.loc 1 341 0
 1796 009c 2362     		str	r3, [r4, #32]	@ float
 1797              		.loc 1 342 0
 1798 009e 6662     		str	r6, [r4, #36]	@ float
 1799              		.loc 1 343 0
 1800 00a0 A662     		str	r6, [r4, #40]	@ float
 1801              		.loc 1 344 0
 1802 00a2 E662     		str	r6, [r4, #44]	@ float
 1803              		.loc 1 345 0
 1804 00a4 2363     		str	r3, [r4, #48]	@ float
 1805              		.loc 1 346 0
 1806 00a6 6663     		str	r6, [r4, #52]	@ float
 1807              		.loc 1 347 0
 1808 00a8 E082     		strh	r0, [r4, #22]	@ movhi
 1809 00aa D2E7     		b	.L132
 1810              	.LVL145:
 1811              	.L134:
 1812              		.loc 1 320 0
 1813 00ac 0020     		movs	r0, #0
 1814              	.LVL146:
 1815 00ae E3E7     		b	.L130
 1816              	.LVL147:
 1817              	.L148:
 1818              		.loc 1 339 0
 1819 00b0 3846     		mov	r0, r7
 1820 00b2 FFF7FEFF 		bl	chHeapFree
 1821              	.LVL148:
 1822 00b6 CCE7     		b	.L132
ARM GAS  /tmp/ccyoxMDb.s 			page 33


 1823              	.L151:
 1824              		.align	2
 1825              	.L150:
 1826 00b8 00000000 		.word	.LANCHOR0
 1827 00bc 00000000 		.word	.LANCHOR1
 1828 00c0 00000000 		.word	MousePoll
 1829              		.cfi_endproc
 1830              	.LFE125:
 1831              		.size	ginputGetMouse, .-ginputGetMouse
 1832 00c4 AFF30080 		.section	.text.ginputSetMouseCalibrationRoutines,"ax",%progbits
 1832      AFF30080 
 1832      AFF30080 
 1833              		.align	2
 1834              		.p2align 4,,15
 1835              		.global	ginputSetMouseCalibrationRoutines
 1836              		.thumb
 1837              		.thumb_func
 1838              		.type	ginputSetMouseCalibrationRoutines, %function
 1839              	ginputSetMouseCalibrationRoutines:
 1840              	.LFB128:
 1841              		.loc 1 530 0
 1842              		.cfi_startproc
 1843              		@ args = 0, pretend = 0, frame = 0
 1844              		@ frame_needed = 0, uses_anonymous_args = 0
 1845              	.LVL149:
 1846 0000 38B5     		push	{r3, r4, r5, lr}
 1847              	.LCFI9:
 1848              		.cfi_def_cfa_offset 16
 1849              		.cfi_offset 3, -16
 1850              		.cfi_offset 4, -12
 1851              		.cfi_offset 5, -8
 1852              		.cfi_offset 14, -4
 1853              		.loc 1 530 0
 1854 0002 0C46     		mov	r4, r1
 1855              		.loc 1 532 0
 1856 0004 70B9     		cbnz	r0, .L152
 1857              		.loc 1 535 0
 1858 0006 0F48     		ldr	r0, .L162
 1859              	.LVL150:
 1860 0008 C261     		str	r2, [r0, #28]
 1861              		.loc 1 536 0
 1862 000a 8161     		str	r1, [r0, #24]
 1863              		.loc 1 537 0
 1864 000c 5BB1     		cbz	r3, .L155
 1865              		.loc 1 538 0
 1866 000e C28A     		ldrh	r2, [r0, #22]
 1867              	.LVL151:
 1868 0010 42F08003 		orr	r3, r2, #128
 1869              	.LVL152:
 1870 0014 C382     		strh	r3, [r0, #22]	@ movhi
 1871              	.LVL153:
 1872              	.L156:
 1873              		.loc 1 549 0
 1874 0016 2CB1     		cbz	r4, .L152
 1875              		.loc 1 549 0 is_stmt 0 discriminator 1
 1876 0018 C08A     		ldrh	r0, [r0, #22]
 1877 001a 0A4D     		ldr	r5, .L162
ARM GAS  /tmp/ccyoxMDb.s 			page 34


 1878 001c 00F06001 		and	r1, r0, #96
 1879 0020 2029     		cmp	r1, #32
 1880 0022 05D0     		beq	.L161
 1881              	.LVL154:
 1882              	.L152:
 1883 0024 38BD     		pop	{r3, r4, r5, pc}
 1884              	.LVL155:
 1885              	.L155:
 1886              		.loc 1 540 0 is_stmt 1
 1887 0026 C38A     		ldrh	r3, [r0, #22]
 1888              	.LVL156:
 1889 0028 23F08001 		bic	r1, r3, #128
 1890              	.LVL157:
 1891 002c C182     		strh	r1, [r0, #22]	@ movhi
 1892 002e F2E7     		b	.L156
 1893              	.LVL158:
 1894              	.L161:
 1895              		.loc 1 550 0
 1896 0030 1822     		movs	r2, #24
 1897 0032 0020     		movs	r0, #0
 1898 0034 05F12001 		add	r1, r5, #32
 1899 0038 A047     		blx	r4
 1900              	.LVL159:
 1901              		.loc 1 551 0
 1902 003a EA8A     		ldrh	r2, [r5, #22]
 1903 003c 42F04003 		orr	r3, r2, #64
 1904 0040 EB82     		strh	r3, [r5, #22]	@ movhi
 1905 0042 38BD     		pop	{r3, r4, r5, pc}
 1906              	.L163:
 1907              		.align	2
 1908              	.L162:
 1909 0044 00000000 		.word	.LANCHOR0
 1910              		.cfi_endproc
 1911              	.LFE128:
 1912              		.size	ginputSetMouseCalibrationRoutines, .-ginputSetMouseCalibrationRoutines
 1913 0048 AFF30080 		.section	.text.ginputRequireMouseCalibrationStorage,"ax",%progbits
 1913      AFF30080 
 1914              		.align	2
 1915              		.p2align 4,,15
 1916              		.global	ginputRequireMouseCalibrationStorage
 1917              		.thumb
 1918              		.thumb_func
 1919              		.type	ginputRequireMouseCalibrationStorage, %function
 1920              	ginputRequireMouseCalibrationStorage:
 1921              	.LFB129:
 1922              		.loc 1 559 0
 1923              		.cfi_startproc
 1924              		@ args = 0, pretend = 0, frame = 0
 1925              		@ frame_needed = 0, uses_anonymous_args = 0
 1926              		@ link register save eliminated.
 1927              	.LVL160:
 1928              		.loc 1 568 0
 1929 0000 D0F10100 		rsbs	r0, r0, #1
 1930              	.LVL161:
 1931 0004 38BF     		it	cc
 1932 0006 0020     		movcc	r0, #0
 1933 0008 7047     		bx	lr
ARM GAS  /tmp/ccyoxMDb.s 			page 35


 1934              		.cfi_endproc
 1935              	.LFE129:
 1936              		.size	ginputRequireMouseCalibrationStorage, .-ginputRequireMouseCalibrationStorage
 1937 000a 00BFAFF3 		.section	.text.ginputMouseWakeup,"ax",%progbits
 1937      0080
 1938              		.align	2
 1939              		.p2align 4,,15
 1940              		.global	ginputMouseWakeup
 1941              		.thumb
 1942              		.thumb_func
 1943              		.type	ginputMouseWakeup, %function
 1944              	ginputMouseWakeup:
 1945              	.LFB130:
 1946              		.loc 1 571 0
 1947              		.cfi_startproc
 1948              		@ args = 0, pretend = 0, frame = 0
 1949              		@ frame_needed = 0, uses_anonymous_args = 0
 1950              		@ link register save eliminated.
 1951              		.loc 1 572 0
 1952 0000 40F20000 		movw	r0, #:lower16:.LANCHOR1
 1953 0004 C0F20000 		movt	r0, #:upper16:.LANCHOR1
 1954              		.loc 1 573 0
 1955              		.loc 1 572 0
 1956 0008 FFF7FEBF 		b	gtimerJab
 1957              	.LVL162:
 1958              		.cfi_endproc
 1959              	.LFE130:
 1960              		.size	ginputMouseWakeup, .-ginputMouseWakeup
 1961 000c AFF30080 		.section	.text.ginputMouseWakeupI,"ax",%progbits
 1962              		.align	2
 1963              		.p2align 4,,15
 1964              		.global	ginputMouseWakeupI
 1965              		.thumb
 1966              		.thumb_func
 1967              		.type	ginputMouseWakeupI, %function
 1968              	ginputMouseWakeupI:
 1969              	.LFB131:
 1970              		.loc 1 576 0
 1971              		.cfi_startproc
 1972              		@ args = 0, pretend = 0, frame = 0
 1973              		@ frame_needed = 0, uses_anonymous_args = 0
 1974              		@ link register save eliminated.
 1975              		.loc 1 577 0
 1976 0000 40F20000 		movw	r0, #:lower16:.LANCHOR1
 1977 0004 C0F20000 		movt	r0, #:upper16:.LANCHOR1
 1978              		.loc 1 578 0
 1979              		.loc 1 577 0
 1980 0008 FFF7FEBF 		b	gtimerJabI
 1981              	.LVL163:
 1982              		.cfi_endproc
 1983              	.LFE131:
 1984              		.size	ginputMouseWakeupI, .-ginputMouseWakeupI
 1985 000c AFF30080 		.section	.bss.MouseTimer,"aw",%nobits
 1986              		.align	2
 1987              		.set	.LANCHOR1,. + 0
 1988              		.type	MouseTimer, %object
 1989              		.size	MouseTimer, 28
ARM GAS  /tmp/ccyoxMDb.s 			page 36


 1990              	MouseTimer:
 1991 0000 00000000 		.space	28
 1991      00000000 
 1991      00000000 
 1991      00000000 
 1991      00000000 
 1992              		.section	.bss.MouseConfig,"aw",%nobits
 1993              		.align	2
 1994              		.set	.LANCHOR0,. + 0
 1995              		.type	MouseConfig, %object
 1996              		.size	MouseConfig, 56
 1997              	MouseConfig:
 1998 0000 00000000 		.space	56
 1998      00000000 
 1998      00000000 
 1998      00000000 
 1998      00000000 
 1999              		.section	.rodata.str1.4,"aMS",%progbits,1
 2000              		.align	2
 2001              	.LC0:
 2002 0000 2A20446F 		.ascii	"* Double\000"
 2002      75626C65 
 2002      00
 2003 0009 000000   		.space	3
 2004              	.LC1:
 2005 000c 2A204E61 		.ascii	"* Narrow\000"
 2005      72726F77 
 2005      00
 2006 0015 000000   		.space	3
 2007              	.LC2:
 2008 0018 43616C69 		.ascii	"Calibration\000"
 2008      62726174 
 2008      696F6E00 
 2009              	.LC3:
 2010 0024 4572726F 		.ascii	"Error: Same Reading - Check Driver!\000"
 2010      723A2053 
 2010      616D6520 
 2010      52656164 
 2010      696E6720 
 2011              	.LC4:
 2012 0048 4661696C 		.ascii	"Failed - Please try again!\000"
 2012      6564202D 
 2012      20506C65 
 2012      61736520 
 2012      74727920 
 2013 0063 00       		.text
 2014              	.Letext0:
 2015              		.file 2 "/usr/bin/../lib/gcc/arm-none-eabi/4.7.4/include/stddef.h"
 2016              		.file 3 "/usr/bin/../lib/gcc/arm-none-eabi/4.7.4/../../../../arm-none-eabi/include/stdint.h"
 2017              		.file 4 "../../os/ports/GCC/ARMCMx/chtypes.h"
 2018              		.file 5 "../../os/kernel/include/chlists.h"
 2019              		.file 6 "../../os/kernel/include/chthreads.h"
 2020              		.file 7 "../../os/ports/GCC/ARMCMx/chcore_v7m.h"
 2021              		.file 8 "../../os/kernel/include/chvt.h"
 2022              		.file 9 "../../os/kernel/include/chsem.h"
 2023              		.file 10 "../../os/kernel/include/chmtx.h"
 2024              		.file 11 "../../ext/ugfx/include/gos/chibios.h"
ARM GAS  /tmp/ccyoxMDb.s 			page 37


 2025              		.file 12 "../../ext/ugfx/include/gevent/gevent.h"
 2026              		.file 13 "../../ext/ugfx/include/gtimer/gtimer.h"
 2027              		.file 14 "../../ext/ugfx/include/gdisp/gdisp.h"
 2028              		.file 15 "../../ext/ugfx/include/ginput/mouse.h"
 2029              		.file 16 "../../ext/ugfx/include/ginput/lld/mouse.h"
 2030              		.file 17 "../../os/ports/common/ARMCMx/CMSIS/include/core_cm4.h"
 2031              		.file 18 "../../os/kernel/include/chheap.h"
 2032              		.file 19 "../../ext/ugfx/include/gwin/gwin.h"