ARM GAS  /tmp/cckjy3CW.s 			page 1


   1              		.syntax unified
   2              		.cpu cortex-m4
   3              		.fpu softvfp
   4              		.eabi_attribute 20, 1
   5              		.eabi_attribute 21, 1
   6              		.eabi_attribute 23, 3
   7              		.eabi_attribute 24, 1
   8              		.eabi_attribute 25, 1
   9              		.eabi_attribute 26, 1
  10              		.eabi_attribute 30, 2
  11              		.eabi_attribute 34, 1
  12              		.eabi_attribute 18, 4
  13              		.thumb
  14              		.file	"chprintf.c"
  15              		.text
  16              	.Ltext0:
  17              		.cfi_sections	.debug_frame
  18              		.section	.text.long_to_string_with_divisor.constprop.0,"ax",%progbits
  19              		.align	2
  20              		.p2align 4,,15
  21              		.thumb
  22              		.thumb_func
  23              		.type	long_to_string_with_divisor.constprop.0, %function
  24              	long_to_string_with_divisor.constprop.0:
  25              	.LFB10:
  26              		.file 1 "../../os/various/chprintf.c"
  27              		.loc 1 36 0
  28              		.cfi_startproc
  29              		@ args = 0, pretend = 0, frame = 0
  30              		@ frame_needed = 0, uses_anonymous_args = 0
  31              		@ link register save eliminated.
  32              	.LVL0:
  33 0000 F0B4     		push	{r4, r5, r6, r7}
  34              	.LCFI0:
  35              		.cfi_def_cfa_offset 16
  36              		.cfi_offset 4, -16
  37              		.cfi_offset 5, -12
  38              		.cfi_offset 6, -8
  39              		.cfi_offset 7, -4
  40              		.loc 1 51 0
  41 0002 00F10B0C 		add	ip, r0, #11
  42              		.loc 1 36 0
  43 0006 0746     		mov	r7, r0
  44              	.LVL1:
  45 0008 00F10A05 		add	r5, r0, #10
  46 000c 0C46     		mov	r4, r1
  47              	.LVL2:
  48              	.L3:
  49              		.loc 1 53 0
  50 000e B1FBF2F6 		udiv	r6, r1, r2
  51 0012 02FB1611 		mls	r1, r2, r6, r1
  52              	.LVL3:
  53              		.loc 1 54 0
  54 0016 01F13003 		add	r3, r1, #48
  55              	.LVL4:
  56              		.loc 1 55 0
  57 001a 392B     		cmp	r3, #57
ARM GAS  /tmp/cckjy3CW.s 			page 2


  58              		.loc 1 56 0
  59 001c C8BF     		it	gt
  60 001e 01F13703 		addgt	r3, r1, #55
  61              	.LVL5:
  62              		.loc 1 57 0
  63 0022 DBB2     		uxtb	r3, r3
  64              	.LVL6:
  65              		.loc 1 59 0
  66 0024 B4FBF2F4 		udiv	r4, r4, r2
  67              	.LVL7:
  68              		.loc 1 57 0
  69 0028 2846     		mov	r0, r5
  70              	.LVL8:
  71              		.loc 1 58 0
  72 002a 3146     		mov	r1, r6
  73              	.LVL9:
  74              		.loc 1 57 0
  75 002c 05F80139 		strb	r3, [r5], #-1
  76              	.LVL10:
  77              		.loc 1 59 0
  78 0030 002C     		cmp	r4, #0
  79 0032 ECD1     		bne	.L3
  80              	.LVL11:
  81              		.loc 1 61 0
  82 0034 C0EB0C02 		rsb	r2, r0, ip
  83              	.LVL12:
  84 0038 0146     		mov	r1, r0
  85              	.LVL13:
  86              		.loc 1 36 0
  87 003a B818     		adds	r0, r7, r2
  88              	.LVL14:
  89 003c FA43     		mvns	r2, r7
  90              	.LVL15:
  91 003e 8218     		adds	r2, r0, r2
  92 0040 D207     		lsls	r2, r2, #31
  93 0042 0AD5     		bpl	.L5
  94              	.LVL16:
  95              		.loc 1 63 0
  96 0044 07F8013B 		strb	r3, [r7], #1
  97              	.LVL17:
  98 0048 11F8013F 		ldrb	r3, [r1, #1]!	@ zero_extendqisi2
  99 004c 05E0     		b	.L5
 100              	.L15:
 101 004e 11F8013F 		ldrb	r3, [r1, #1]!	@ zero_extendqisi2
 102              	.LVL18:
 103 0052 7B70     		strb	r3, [r7, #1]
 104 0054 11F8013F 		ldrb	r3, [r1, #1]!	@ zero_extendqisi2
 105 0058 571C     		adds	r7, r2, #1
 106              	.LVL19:
 107              	.L5:
 108 005a 3A46     		mov	r2, r7
 109 005c 02F8013B 		strb	r3, [r2], #1
 110              		.loc 1 64 0
 111 0060 8242     		cmp	r2, r0
 112 0062 F4D1     		bne	.L15
 113              		.loc 1 67 0
 114 0064 F0BC     		pop	{r4, r5, r6, r7}
ARM GAS  /tmp/cckjy3CW.s 			page 3


 115 0066 7047     		bx	lr
 116              		.cfi_endproc
 117              	.LFE10:
 118              		.size	long_to_string_with_divisor.constprop.0, .-long_to_string_with_divisor.constprop.0
 119 0068 AFF30080 		.section	.text.chprintf,"ax",%progbits
 119      AFF30080 
 120              		.align	2
 121              		.p2align 4,,15
 122              		.global	chprintf
 123              		.thumb
 124              		.thumb_func
 125              		.type	chprintf, %function
 126              	chprintf:
 127              	.LFB9:
 128              		.loc 1 108 0
 129              		.cfi_startproc
 130              		@ args = 4, pretend = 12, frame = 24
 131              		@ frame_needed = 0, uses_anonymous_args = 1
 132              	.LVL20:
 133 0000 0EB4     		push	{r1, r2, r3}
 134              	.LCFI1:
 135              		.cfi_def_cfa_offset 12
 136              		.cfi_offset 1, -12
 137              		.cfi_offset 2, -8
 138              		.cfi_offset 3, -4
 139 0002 2DE9F04F 		push	{r4, r5, r6, r7, r8, r9, sl, fp, lr}
 140              	.LCFI2:
 141              		.cfi_def_cfa_offset 48
 142              		.cfi_offset 4, -48
 143              		.cfi_offset 5, -44
 144              		.cfi_offset 6, -40
 145              		.cfi_offset 7, -36
 146              		.cfi_offset 8, -32
 147              		.cfi_offset 9, -28
 148              		.cfi_offset 10, -24
 149              		.cfi_offset 11, -20
 150              		.cfi_offset 14, -16
 151 0006 86B0     		sub	sp, sp, #24
 152              	.LCFI3:
 153              		.cfi_def_cfa_offset 72
 154              		.loc 1 108 0
 155 0008 0FAB     		add	r3, sp, #60
 156              		.loc 1 236 0
 157 000a 0DF10D01 		add	r1, sp, #13
 158              		.loc 1 132 0
 159 000e 0DF10C0B 		add	fp, sp, #12
 160              		.loc 1 108 0
 161 0012 53F8044B 		ldr	r4, [r3], #4
 162              		.loc 1 236 0
 163 0016 0091     		str	r1, [sp, #0]
 164 0018 CBEB010C 		rsb	ip, fp, r1
 165              		.loc 1 121 0
 166 001c 0293     		str	r3, [sp, #8]
 167              		.loc 1 108 0
 168 001e 0546     		mov	r5, r0
 169 0020 CDF804C0 		str	ip, [sp, #4]
 170              	.LVL21:
ARM GAS  /tmp/cckjy3CW.s 			page 4


 171              	.L114:
 172              		.loc 1 123 0
 173 0024 2646     		mov	r6, r4
 174 0026 16F8011B 		ldrb	r1, [r6], #1	@ zero_extendqisi2
 175              	.LVL22:
 176              		.loc 1 124 0
 177 002a 59B1     		cbz	r1, .L113
 178              	.LVL23:
 179              	.L127:
 180              		.loc 1 128 0
 181 002c 2529     		cmp	r1, #37
 182 002e 0ED0     		beq	.L19
 183              		.loc 1 129 0
 184 0030 2C68     		ldr	r4, [r5, #0]
 185 0032 A368     		ldr	r3, [r4, #8]
 186              		.loc 1 123 0
 187 0034 3446     		mov	r4, r6
 188 0036 2646     		mov	r6, r4
 189              	.LVL24:
 190              		.loc 1 129 0
 191 0038 2846     		mov	r0, r5
 192 003a 9847     		blx	r3
 193              	.LVL25:
 194              		.loc 1 123 0
 195 003c 16F8011B 		ldrb	r1, [r6], #1	@ zero_extendqisi2
 196              	.LVL26:
 197              		.loc 1 124 0
 198 0040 0029     		cmp	r1, #0
 199 0042 F3D1     		bne	.L127
 200              	.LVL27:
 201              	.L113:
 202              		.loc 1 261 0
 203 0044 06B0     		add	sp, sp, #24
 204 0046 BDE8F04F 		pop	{r4, r5, r6, r7, r8, r9, sl, fp, lr}
 205 004a 03B0     		add	sp, sp, #12
 206 004c 7047     		bx	lr
 207              	.L19:
 208              	.LVL28:
 209              		.loc 1 135 0
 210 004e 6378     		ldrb	r3, [r4, #1]	@ zero_extendqisi2
 211 0050 2D2B     		cmp	r3, #45
 212 0052 00F07D81 		beq	.L128
 213              		.loc 1 134 0
 214 0056 4FF00008 		mov	r8, #0
 215              	.LVL29:
 216              	.L21:
 217              		.loc 1 140 0
 218 005a 2E2B     		cmp	r3, #46
 219 005c 00F07481 		beq	.L22
 220              		.loc 1 140 0 is_stmt 0 discriminator 1
 221 0060 302B     		cmp	r3, #48
 222 0062 00F07181 		beq	.L22
 223              		.loc 1 139 0 is_stmt 1
 224 0066 2027     		movs	r7, #32
 225              	.LVL30:
 226              	.L23:
 227              		.loc 1 142 0
ARM GAS  /tmp/cckjy3CW.s 			page 5


 228 0068 3446     		mov	r4, r6
 229 006a 0299     		ldr	r1, [sp, #8]
 230              		.loc 1 144 0
 231 006c 0026     		movs	r6, #0
 232              	.LVL31:
 233 006e 06E0     		b	.L26
 234              	.LVL32:
 235              	.L129:
 236              		.loc 1 150 0
 237 0070 0A78     		ldrb	r2, [r1, #0]	@ zero_extendqisi2
 238              	.LVL33:
 239 0072 0431     		adds	r1, r1, #4
 240              	.LVL34:
 241              	.L24:
 242              		.loc 1 153 0
 243 0074 06EB8606 		add	r6, r6, r6, lsl #2
 244              	.LVL35:
 245 0078 2378     		ldrb	r3, [r4, #0]	@ zero_extendqisi2
 246 007a 02EB4606 		add	r6, r2, r6, lsl #1
 247              	.LVL36:
 248              	.L26:
 249              		.loc 1 147 0
 250 007e A3F13002 		sub	r2, r3, #48
 251 0082 D2B2     		uxtb	r2, r2
 252              		.loc 1 146 0
 253 0084 0134     		adds	r4, r4, #1
 254              	.LVL37:
 255              		.loc 1 147 0
 256 0086 092A     		cmp	r2, #9
 257 0088 F4D9     		bls	.L24
 258              		.loc 1 149 0
 259 008a 2A2B     		cmp	r3, #42
 260 008c F0D0     		beq	.L129
 261              		.loc 1 156 0
 262 008e 0020     		movs	r0, #0
 263 0090 2E2B     		cmp	r3, #46
 264 0092 0291     		str	r1, [sp, #8]
 265              	.LVL38:
 266 0094 4BD0     		beq	.L30
 267              	.LVL39:
 268              		.loc 1 170 0
 269 0096 6C2B     		cmp	r3, #108
 270 0098 55D0     		beq	.L31
 271              	.LVL40:
 272              	.L130:
 273              		.loc 1 170 0 is_stmt 0 discriminator 1
 274 009a 4C2B     		cmp	r3, #76
 275 009c 53D0     		beq	.L31
 276              		.loc 1 176 0 is_stmt 1
 277 009e A3F14101 		sub	r1, r3, #65
 278 00a2 1929     		cmp	r1, #25
 279 00a4 8CBF     		ite	hi
 280 00a6 0021     		movhi	r1, #0
 281 00a8 0121     		movls	r1, #1
 282              	.LVL41:
 283              	.L33:
 284              		.loc 1 179 0
ARM GAS  /tmp/cckjy3CW.s 			page 6


 285 00aa A3F14402 		sub	r2, r3, #68
 286 00ae 342A     		cmp	r2, #52
 287 00b0 00F24481 		bhi	.L34
 288 00b4 DFE812F0 		tbh	[pc, r2, lsl #1]
 289              	.L41:
 290 00b8 3301     		.2byte	(.L35-.L41)/2
 291 00ba 4201     		.2byte	(.L34-.L41)/2
 292 00bc 4201     		.2byte	(.L34-.L41)/2
 293 00be 4201     		.2byte	(.L34-.L41)/2
 294 00c0 4201     		.2byte	(.L34-.L41)/2
 295 00c2 3301     		.2byte	(.L35-.L41)/2
 296 00c4 4201     		.2byte	(.L34-.L41)/2
 297 00c6 4201     		.2byte	(.L34-.L41)/2
 298 00c8 4201     		.2byte	(.L34-.L41)/2
 299 00ca 4201     		.2byte	(.L34-.L41)/2
 300 00cc 4201     		.2byte	(.L34-.L41)/2
 301 00ce 3101     		.2byte	(.L36-.L41)/2
 302 00d0 4201     		.2byte	(.L34-.L41)/2
 303 00d2 4201     		.2byte	(.L34-.L41)/2
 304 00d4 4201     		.2byte	(.L34-.L41)/2
 305 00d6 4201     		.2byte	(.L34-.L41)/2
 306 00d8 4201     		.2byte	(.L34-.L41)/2
 307 00da 2901     		.2byte	(.L64-.L41)/2
 308 00dc 4201     		.2byte	(.L34-.L41)/2
 309 00de 4201     		.2byte	(.L34-.L41)/2
 310 00e0 1C01     		.2byte	(.L38-.L41)/2
 311 00e2 4201     		.2byte	(.L34-.L41)/2
 312 00e4 4201     		.2byte	(.L34-.L41)/2
 313 00e6 4201     		.2byte	(.L34-.L41)/2
 314 00e8 4201     		.2byte	(.L34-.L41)/2
 315 00ea 4201     		.2byte	(.L34-.L41)/2
 316 00ec 4201     		.2byte	(.L34-.L41)/2
 317 00ee 4201     		.2byte	(.L34-.L41)/2
 318 00f0 4201     		.2byte	(.L34-.L41)/2
 319 00f2 4201     		.2byte	(.L34-.L41)/2
 320 00f4 4201     		.2byte	(.L34-.L41)/2
 321 00f6 E200     		.2byte	(.L39-.L41)/2
 322 00f8 3301     		.2byte	(.L35-.L41)/2
 323 00fa 4201     		.2byte	(.L34-.L41)/2
 324 00fc 4201     		.2byte	(.L34-.L41)/2
 325 00fe 4201     		.2byte	(.L34-.L41)/2
 326 0100 4201     		.2byte	(.L34-.L41)/2
 327 0102 3301     		.2byte	(.L35-.L41)/2
 328 0104 4201     		.2byte	(.L34-.L41)/2
 329 0106 4201     		.2byte	(.L34-.L41)/2
 330 0108 4201     		.2byte	(.L34-.L41)/2
 331 010a 4201     		.2byte	(.L34-.L41)/2
 332 010c 4201     		.2byte	(.L34-.L41)/2
 333 010e 3101     		.2byte	(.L36-.L41)/2
 334 0110 4201     		.2byte	(.L34-.L41)/2
 335 0112 4201     		.2byte	(.L34-.L41)/2
 336 0114 4201     		.2byte	(.L34-.L41)/2
 337 0116 4F00     		.2byte	(.L40-.L41)/2
 338 0118 4201     		.2byte	(.L34-.L41)/2
 339 011a 2901     		.2byte	(.L64-.L41)/2
 340 011c 4201     		.2byte	(.L34-.L41)/2
 341 011e 4201     		.2byte	(.L34-.L41)/2
ARM GAS  /tmp/cckjy3CW.s 			page 7


 342 0120 1C01     		.2byte	(.L38-.L41)/2
 343              	.LVL42:
 344              	.L29:
 345              		.loc 1 162 0
 346 0122 0A78     		ldrb	r2, [r1, #0]	@ zero_extendqisi2
 347              	.LVL43:
 348 0124 0431     		adds	r1, r1, #4
 349              	.LVL44:
 350              	.L28:
 351              		.loc 1 165 0
 352 0126 00EB8003 		add	r3, r0, r0, lsl #2
 353              	.LVL45:
 354              		.loc 1 166 0
 355 012a 02EB4300 		add	r0, r2, r3, lsl #1
 356              	.LVL46:
 357              	.L30:
 358              		.loc 1 158 0
 359 012e 14F8013B 		ldrb	r3, [r4], #1	@ zero_extendqisi2
 360              	.LVL47:
 361              		.loc 1 159 0
 362 0132 A3F13002 		sub	r2, r3, #48
 363 0136 D2B2     		uxtb	r2, r2
 364 0138 092A     		cmp	r2, #9
 365 013a F4D9     		bls	.L28
 366              		.loc 1 161 0
 367 013c 2A2B     		cmp	r3, #42
 368 013e F0D0     		beq	.L29
 369              		.loc 1 170 0
 370 0140 6C2B     		cmp	r3, #108
 371 0142 0291     		str	r1, [sp, #8]
 372 0144 A9D1     		bne	.L130
 373              	.LVL48:
 374              	.L31:
 375              		.loc 1 172 0
 376 0146 2178     		ldrb	r1, [r4, #0]	@ zero_extendqisi2
 377 0148 0029     		cmp	r1, #0
 378 014a 00F00681 		beq	.L63
 379              	.LVL49:
 380              		.loc 1 173 0
 381 014e 0B46     		mov	r3, r1
 382 0150 0134     		adds	r4, r4, #1
 383              	.LVL50:
 384              		.loc 1 171 0
 385 0152 0121     		movs	r1, #1
 386 0154 A9E7     		b	.L33
 387              	.LVL51:
 388              	.L40:
 389              		.loc 1 186 0
 390 0156 029F     		ldr	r7, [sp, #8]
 391              		.loc 1 187 0
 392 0158 40F20009 		movw	r9, #:lower16:.LC0
 393              		.loc 1 186 0
 394 015c 3B68     		ldr	r3, [r7, #0]
 395              	.LVL52:
 396              		.loc 1 187 0
 397 015e C0F20009 		movt	r9, #:upper16:.LC0
 398 0162 002B     		cmp	r3, #0
ARM GAS  /tmp/cckjy3CW.s 			page 8


 399 0164 18BF     		it	ne
 400 0166 9946     		movne	r9, r3
 401              	.LVL53:
 402              		.loc 1 186 0
 403 0168 391D     		adds	r1, r7, #4
 404              	.LVL54:
 405              		.loc 1 190 0
 406 016a 99F80020 		ldrb	r2, [r9, #0]	@ zero_extendqisi2
 407              	.LVL55:
 408              		.loc 1 186 0
 409 016e 0291     		str	r1, [sp, #8]
 410              		.loc 1 189 0
 411 0170 47F6FF77 		movw	r7, #32767
 412 0174 0028     		cmp	r0, #0
 413 0176 08BF     		it	eq
 414 0178 3846     		moveq	r0, r7
 415              	.LVL56:
 416              		.loc 1 190 0
 417 017a 002A     		cmp	r2, #0
 418 017c 00F00981 		beq	.L67
 419 0180 99F80130 		ldrb	r3, [r9, #1]	@ zero_extendqisi2
 420 0184 411E     		subs	r1, r0, #1
 421 0186 09EB000A 		add	sl, r9, r0
 422              		.loc 1 108 0
 423 018a 09F10102 		add	r2, r9, #1
 424              	.LVL57:
 425 018e 01F00100 		and	r0, r1, #1
 426              		.loc 1 190 0
 427 0192 B3B1     		cbz	r3, .L115
 428 0194 9245     		cmp	sl, r2
 429 0196 1346     		mov	r3, r2
 430 0198 00F0F780 		beq	.L116
 431 019c 60B1     		cbz	r0, .L46
 432 019e 5778     		ldrb	r7, [r2, #1]	@ zero_extendqisi2
 433              		.loc 1 108 0
 434 01a0 0132     		adds	r2, r2, #1
 435              	.LVL58:
 436              		.loc 1 190 0
 437 01a2 77B1     		cbz	r7, .L115
 438 01a4 9245     		cmp	sl, r2
 439 01a6 1346     		mov	r3, r2
 440 01a8 06D1     		bne	.L46
 441 01aa EEE0     		b	.L116
 442              	.L45:
 443              		.loc 1 190 0 is_stmt 0 discriminator 2
 444 01ac 5778     		ldrb	r7, [r2, #1]	@ zero_extendqisi2
 445              		.loc 1 108 0 is_stmt 1 discriminator 2
 446 01ae 0132     		adds	r2, r2, #1
 447              	.LVL59:
 448              		.loc 1 190 0 discriminator 2
 449 01b0 3FB1     		cbz	r7, .L115
 450              		.loc 1 190 0 is_stmt 0
 451 01b2 9A45     		cmp	sl, r3
 452 01b4 00F0E980 		beq	.L116
 453              	.L46:
 454              		.loc 1 190 0 discriminator 1
 455 01b8 5878     		ldrb	r0, [r3, #1]	@ zero_extendqisi2
ARM GAS  /tmp/cckjy3CW.s 			page 9


 456              		.loc 1 108 0 is_stmt 1 discriminator 1
 457 01ba 5A1C     		adds	r2, r3, #1
 458              	.LVL60:
 459 01bc 531C     		adds	r3, r2, #1
 460              		.loc 1 190 0 discriminator 1
 461 01be 0028     		cmp	r0, #0
 462 01c0 F4D1     		bne	.L45
 463              	.LVL61:
 464              	.L115:
 465 01c2 C9EB020A 		rsb	sl, r9, r2
 466              		.loc 1 240 0
 467 01c6 CAEB0606 		rsb	r6, sl, r6
 468              	.LVL62:
 469              		.loc 1 185 0
 470 01ca 2027     		movs	r7, #32
 471              	.LVL63:
 472 01cc 26EAE676 		bic	r6, r6, r6, asr #31
 473              	.LVL64:
 474              		.loc 1 242 0
 475 01d0 B8F1000F 		cmp	r8, #0
 476 01d4 63D0     		beq	.L131
 477              	.LVL65:
 478              	.L52:
 479              		.loc 1 253 0 discriminator 1
 480 01d6 BAF1000F 		cmp	sl, #0
 481 01da 27DD     		ble	.L58
 482              		.loc 1 254 0
 483 01dc C846     		mov	r8, r9
 484 01de 2868     		ldr	r0, [r5, #0]
 485 01e0 18F8011B 		ldrb	r1, [r8], #1	@ zero_extendqisi2
 486 01e4 8368     		ldr	r3, [r0, #8]
 487              		.loc 1 108 0
 488 01e6 CA44     		add	sl, r9, sl
 489              	.LVL66:
 490 01e8 6FEA0909 		mvn	r9, r9
 491              	.LVL67:
 492 01ec 0AEB0902 		add	r2, sl, r9
 493              		.loc 1 254 0
 494 01f0 2846     		mov	r0, r5
 495 01f2 02F00109 		and	r9, r2, #1
 496              	.LVL68:
 497 01f6 9847     		blx	r3
 498              	.LVL69:
 499              		.loc 1 253 0
 500 01f8 D045     		cmp	r8, sl
 501 01fa 17D0     		beq	.L58
 502 01fc B9F1000F 		cmp	r9, #0
 503 0200 03D0     		beq	.L57
 504              	.LVL70:
 505              		.loc 1 254 0
 506 0202 2868     		ldr	r0, [r5, #0]
 507 0204 18F8011B 		ldrb	r1, [r8], #1	@ zero_extendqisi2
 508 0208 0BE0     		b	.L126
 509              	.L57:
 510 020a 2868     		ldr	r0, [r5, #0]
 511 020c C146     		mov	r9, r8
 512 020e 8268     		ldr	r2, [r0, #8]
ARM GAS  /tmp/cckjy3CW.s 			page 10


 513 0210 19F8011B 		ldrb	r1, [r9], #1	@ zero_extendqisi2
 514 0214 2846     		mov	r0, r5
 515 0216 9047     		blx	r2
 516              	.LVL71:
 517 0218 2868     		ldr	r0, [r5, #0]
 518 021a 98F80110 		ldrb	r1, [r8, #1]	@ zero_extendqisi2
 519 021e 09F10108 		add	r8, r9, #1
 520              	.L126:
 521 0222 8368     		ldr	r3, [r0, #8]
 522 0224 2846     		mov	r0, r5
 523 0226 9847     		blx	r3
 524              	.LVL72:
 525              		.loc 1 253 0
 526 0228 D045     		cmp	r8, sl
 527 022a EED1     		bne	.L57
 528              	.L58:
 529              	.LVL73:
 530              		.loc 1 256 0
 531 022c 002E     		cmp	r6, #0
 532 022e 3FF4F9AE 		beq	.L114
 533              		.loc 1 257 0
 534 0232 2968     		ldr	r1, [r5, #0]
 535 0234 731E     		subs	r3, r6, #1
 536 0236 8A68     		ldr	r2, [r1, #8]
 537              		.loc 1 256 0
 538 0238 1E46     		mov	r6, r3
 539              	.LVL74:
 540              		.loc 1 257 0
 541 023a 2846     		mov	r0, r5
 542 023c 3946     		mov	r1, r7
 543 023e 03F00108 		and	r8, r3, #1
 544 0242 9047     		blx	r2
 545              	.LVL75:
 546              		.loc 1 256 0
 547 0244 002E     		cmp	r6, #0
 548 0246 3FF4EDAE 		beq	.L114
 549 024a B8F1000F 		cmp	r8, #0
 550 024e 07D0     		beq	.L75
 551              		.loc 1 257 0
 552 0250 2968     		ldr	r1, [r5, #0]
 553 0252 2846     		mov	r0, r5
 554 0254 8B68     		ldr	r3, [r1, #8]
 555 0256 3946     		mov	r1, r7
 556 0258 9847     		blx	r3
 557              	.LVL76:
 558              		.loc 1 256 0
 559 025a 013E     		subs	r6, r6, #1
 560 025c 3FF4E2AE 		beq	.L114
 561              	.L75:
 562              		.loc 1 257 0
 563 0260 2868     		ldr	r0, [r5, #0]
 564 0262 3946     		mov	r1, r7
 565 0264 8268     		ldr	r2, [r0, #8]
 566 0266 2846     		mov	r0, r5
 567 0268 9047     		blx	r2
 568              	.LVL77:
 569 026a 2968     		ldr	r1, [r5, #0]
ARM GAS  /tmp/cckjy3CW.s 			page 11


 570              		.loc 1 258 0
 571 026c 013E     		subs	r6, r6, #1
 572              		.loc 1 257 0
 573 026e 8B68     		ldr	r3, [r1, #8]
 574 0270 2846     		mov	r0, r5
 575 0272 3946     		mov	r1, r7
 576 0274 9847     		blx	r3
 577              	.LVL78:
 578              		.loc 1 256 0
 579 0276 013E     		subs	r6, r6, #1
 580 0278 F2D1     		bne	.L75
 581 027a D3E6     		b	.L114
 582              	.LVL79:
 583              	.L39:
 584              		.loc 1 182 0
 585 027c 0298     		ldr	r0, [sp, #8]
 586              	.LVL80:
 587 027e DDF804A0 		ldr	sl, [sp, #4]
 588 0282 0268     		ldr	r2, [r0, #0]
 589 0284 011D     		adds	r1, r0, #4
 590              	.LVL81:
 591 0286 0291     		str	r1, [sp, #8]
 592 0288 8DF80C20 		strb	r2, [sp, #12]
 593              	.LVL82:
 594              		.loc 1 181 0
 595 028c 2027     		movs	r7, #32
 596              		.loc 1 133 0
 597 028e D946     		mov	r9, fp
 598              	.LVL83:
 599              	.L42:
 600              		.loc 1 240 0
 601 0290 CAEB0606 		rsb	r6, sl, r6
 602              	.LVL84:
 603 0294 26EAE676 		bic	r6, r6, r6, asr #31
 604              	.LVL85:
 605              		.loc 1 242 0
 606 0298 B8F1000F 		cmp	r8, #0
 607 029c 9BD1     		bne	.L52
 608              	.LVL86:
 609              	.L131:
 610              		.loc 1 243 0
 611 029e 7642     		negs	r6, r6
 612              	.LVL87:
 613              		.loc 1 244 0
 614 02a0 002E     		cmp	r6, #0
 615 02a2 98D0     		beq	.L52
 616              		.loc 1 245 0
 617 02a4 99F80010 		ldrb	r1, [r9, #0]	@ zero_extendqisi2
 618 02a8 2D29     		cmp	r1, #45
 619 02aa 63D0     		beq	.L132
 620              	.L100:
 621              		.loc 1 250 0
 622 02ac 2968     		ldr	r1, [r5, #0]
 623 02ae F243     		mvns	r2, r6
 624 02b0 8B68     		ldr	r3, [r1, #8]
 625 02b2 2846     		mov	r0, r5
 626 02b4 3946     		mov	r1, r7
ARM GAS  /tmp/cckjy3CW.s 			page 12


 627 02b6 02F00108 		and	r8, r2, #1
 628              	.LVL88:
 629 02ba 9847     		blx	r3
 630              	.LVL89:
 631              		.loc 1 251 0
 632 02bc 0136     		adds	r6, r6, #1
 633              	.LVL90:
 634 02be 8AD0     		beq	.L52
 635 02c0 B8F1000F 		cmp	r8, #0
 636 02c4 06D0     		beq	.L76
 637              		.loc 1 250 0
 638 02c6 2968     		ldr	r1, [r5, #0]
 639 02c8 2846     		mov	r0, r5
 640 02ca 8A68     		ldr	r2, [r1, #8]
 641 02cc 3946     		mov	r1, r7
 642 02ce 9047     		blx	r2
 643              	.LVL91:
 644              		.loc 1 251 0
 645 02d0 0136     		adds	r6, r6, #1
 646              	.LVL92:
 647 02d2 80D0     		beq	.L52
 648              	.L76:
 649              		.loc 1 250 0 discriminator 1
 650 02d4 2868     		ldr	r0, [r5, #0]
 651 02d6 3946     		mov	r1, r7
 652 02d8 8368     		ldr	r3, [r0, #8]
 653 02da 2846     		mov	r0, r5
 654 02dc 9847     		blx	r3
 655              	.LVL93:
 656 02de 2968     		ldr	r1, [r5, #0]
 657              		.loc 1 251 0 discriminator 1
 658 02e0 0136     		adds	r6, r6, #1
 659              	.LVL94:
 660              		.loc 1 250 0 discriminator 1
 661 02e2 8A68     		ldr	r2, [r1, #8]
 662 02e4 2846     		mov	r0, r5
 663 02e6 3946     		mov	r1, r7
 664 02e8 9047     		blx	r2
 665              	.LVL95:
 666              		.loc 1 251 0 discriminator 1
 667 02ea 0136     		adds	r6, r6, #1
 668              	.LVL96:
 669 02ec F2D1     		bne	.L76
 670 02ee 72E7     		b	.L52
 671              	.LVL97:
 672              	.L38:
 673              		.loc 1 179 0
 674 02f0 1022     		movs	r2, #16
 675              	.LVL98:
 676              	.L37:
 677              		.loc 1 230 0
 678 02f2 029B     		ldr	r3, [sp, #8]
 679              		.loc 1 229 0
 680 02f4 69B1     		cbz	r1, .L50
 681              	.L133:
 682              		.loc 1 230 0
 683 02f6 191D     		adds	r1, r3, #4
ARM GAS  /tmp/cckjy3CW.s 			page 13


 684              	.LVL99:
 685 02f8 0291     		str	r1, [sp, #8]
 686 02fa 1968     		ldr	r1, [r3, #0]
 687              	.LVL100:
 688              	.L51:
 689              	.LBB6:
 690              	.LBB7:
 691              		.loc 1 71 0
 692 02fc 5846     		mov	r0, fp
 693 02fe FFF7FEFF 		bl	long_to_string_with_divisor.constprop.0
 694              	.LVL101:
 695              	.LBE7:
 696              	.LBE6:
 697              		.loc 1 133 0
 698 0302 D946     		mov	r9, fp
 699 0304 CBEB000A 		rsb	sl, fp, r0
 700              		.loc 1 234 0
 701 0308 C2E7     		b	.L42
 702              	.LVL102:
 703              	.L64:
 704              		.loc 1 179 0
 705 030a 0A22     		movs	r2, #10
 706              	.LVL103:
 707              		.loc 1 230 0
 708 030c 029B     		ldr	r3, [sp, #8]
 709              		.loc 1 229 0
 710 030e 0029     		cmp	r1, #0
 711 0310 F1D1     		bne	.L133
 712              	.L50:
 713              		.loc 1 232 0
 714 0312 181D     		adds	r0, r3, #4
 715              	.LVL104:
 716 0314 1968     		ldr	r1, [r3, #0]
 717              	.LVL105:
 718 0316 0290     		str	r0, [sp, #8]
 719 0318 F0E7     		b	.L51
 720              	.LVL106:
 721              	.L36:
 722 031a 0822     		movs	r2, #8
 723 031c E9E7     		b	.L37
 724              	.LVL107:
 725              	.L35:
 726              		.loc 1 198 0
 727 031e 029B     		ldr	r3, [sp, #8]
 728              	.LVL108:
 729 0320 1A1D     		adds	r2, r3, #4
 730              	.LVL109:
 731              		.loc 1 197 0
 732 0322 E1B9     		cbnz	r1, .L134
 733              		.loc 1 200 0
 734 0324 1968     		ldr	r1, [r3, #0]
 735              	.LVL110:
 736 0326 0292     		str	r2, [sp, #8]
 737              		.loc 1 201 0
 738 0328 0029     		cmp	r1, #0
 739 032a 1CDB     		blt	.L135
 740              	.L68:
ARM GAS  /tmp/cckjy3CW.s 			page 14


 741              		.loc 1 132 0
 742 032c 5846     		mov	r0, fp
 743              	.LVL111:
 744              	.L49:
 745              	.LBB8:
 746              	.LBB9:
 747              		.loc 1 71 0
 748 032e 0A22     		movs	r2, #10
 749 0330 FFF7FEFF 		bl	long_to_string_with_divisor.constprop.0
 750              	.LVL112:
 751              	.LBE9:
 752              	.LBE8:
 753              		.loc 1 133 0
 754 0334 D946     		mov	r9, fp
 755 0336 CBEB000A 		rsb	sl, fp, r0
 756              		.loc 1 206 0
 757 033a A9E7     		b	.L42
 758              	.LVL113:
 759              	.L34:
 760              		.loc 1 236 0
 761 033c 8DF80C30 		strb	r3, [sp, #12]
 762              	.LVL114:
 763 0340 DDF804A0 		ldr	sl, [sp, #4]
 764              		.loc 1 133 0
 765 0344 D946     		mov	r9, fp
 766              		.loc 1 237 0
 767 0346 A3E7     		b	.L42
 768              	.LVL115:
 769              	.L22:
 770 0348 7378     		ldrb	r3, [r6, #1]	@ zero_extendqisi2
 771              		.loc 1 142 0
 772 034a 3027     		movs	r7, #48
 773              		.loc 1 141 0
 774 034c 0136     		adds	r6, r6, #1
 775              	.LVL116:
 776 034e 8BE6     		b	.L23
 777              	.LVL117:
 778              	.L128:
 779              		.loc 1 136 0
 780 0350 A61C     		adds	r6, r4, #2
 781              	.LVL118:
 782 0352 A378     		ldrb	r3, [r4, #2]	@ zero_extendqisi2
 783              		.loc 1 137 0
 784 0354 4FF00108 		mov	r8, #1
 785 0358 7FE6     		b	.L21
 786              	.LVL119:
 787              	.L63:
 788              		.loc 1 171 0
 789 035a 0121     		movs	r1, #1
 790 035c A5E6     		b	.L33
 791              	.LVL120:
 792              	.L134:
 793              		.loc 1 198 0
 794 035e 1968     		ldr	r1, [r3, #0]
 795              	.LVL121:
 796 0360 0292     		str	r2, [sp, #8]
 797              		.loc 1 201 0
ARM GAS  /tmp/cckjy3CW.s 			page 15


 798 0362 0029     		cmp	r1, #0
 799 0364 E2DA     		bge	.L68
 800              	.L135:
 801              		.loc 1 202 0
 802 0366 2D20     		movs	r0, #45
 803              	.LVL122:
 804 0368 8DF80C00 		strb	r0, [sp, #12]
 805              	.LVL123:
 806              		.loc 1 203 0
 807 036c 4942     		negs	r1, r1
 808              	.LVL124:
 809              		.loc 1 202 0
 810 036e 0DF10D00 		add	r0, sp, #13
 811 0372 DCE7     		b	.L49
 812              	.LVL125:
 813              	.L132:
 814              		.loc 1 245 0 discriminator 1
 815 0374 302F     		cmp	r7, #48
 816 0376 99D1     		bne	.L100
 817              		.loc 1 246 0
 818 0378 2B68     		ldr	r3, [r5, #0]
 819 037a 2846     		mov	r0, r5
 820 037c 9A68     		ldr	r2, [r3, #8]
 821 037e 9047     		blx	r2
 822              	.LVL126:
 823 0380 09F10109 		add	r9, r9, #1
 824              	.LVL127:
 825              		.loc 1 247 0
 826 0384 0AF1FF3A 		add	sl, sl, #-1
 827              	.LVL128:
 828 0388 90E7     		b	.L100
 829              	.LVL129:
 830              	.L116:
 831 038a C9EB0A0A 		rsb	sl, r9, sl
 832              		.loc 1 185 0
 833 038e 2027     		movs	r7, #32
 834 0390 7EE7     		b	.L42
 835              	.LVL130:
 836              	.L67:
 837              		.loc 1 190 0
 838 0392 9246     		mov	sl, r2
 839              		.loc 1 185 0
 840 0394 2027     		movs	r7, #32
 841 0396 7BE7     		b	.L42
 842              		.cfi_endproc
 843              	.LFE9:
 844              		.size	chprintf, .-chprintf
 845 0398 AFF30080 		.section	.rodata.str1.4,"aMS",%progbits,1
 845      AFF30080 
 846              		.align	2
 847              	.LC0:
 848 0000 286E756C 		.ascii	"(null)\000"
 848      6C2900
 849 0007 00       		.text
 850              	.Letext0:
 851              		.file 2 "/usr/bin/../lib/gcc/arm-none-eabi/4.7.4/include/stdarg.h"
 852              		.file 3 "/usr/bin/../lib/gcc/arm-none-eabi/4.7.4/include/stddef.h"
ARM GAS  /tmp/cckjy3CW.s 			page 16


 853              		.file 4 "/usr/bin/../lib/gcc/arm-none-eabi/4.7.4/../../../../arm-none-eabi/include/stdint.h"
 854              		.file 5 "../../os/ports/GCC/ARMCMx/chtypes.h"
 855              		.file 6 "<built-in>"
 856              		.file 7 "../../os/kernel/include/chstreams.h"
 857              		.section	.debug_info,"",%progbits
 858              	.Ldebug_info0:
 859 0000 54050000 		.4byte	0x554
 860 0004 0200     		.2byte	0x2
 861 0006 00000000 		.4byte	.Ldebug_abbrev0
 862 000a 04       		.byte	0x4
 863 000b 01       		.uleb128 0x1
 864 000c 38010000 		.4byte	.LASF34
 865 0010 01       		.byte	0x1
 866 0011 1C010000 		.4byte	.LASF35
 867 0015 C0000000 		.4byte	.LASF36
 868 0019 00000000 		.4byte	.Ldebug_ranges0+0
 869 001d 00000000 		.4byte	0
 870 0021 00000000 		.4byte	0
 871 0025 00000000 		.4byte	.Ldebug_line0
 872 0029 02       		.uleb128 0x2
 873 002a 0C000000 		.4byte	.LASF0
 874 002e 02       		.byte	0x2
 875 002f 28       		.byte	0x28
 876 0030 34000000 		.4byte	0x34
 877 0034 03       		.uleb128 0x3
 878 0035 C4010000 		.4byte	.LASF19
 879 0039 04       		.byte	0x4
 880 003a 06       		.byte	0x6
 881 003b 00       		.byte	0
 882 003c 4E000000 		.4byte	0x4e
 883 0040 04       		.uleb128 0x4
 884 0041 07000000 		.4byte	.LASF37
 885 0045 4E000000 		.4byte	0x4e
 886 0049 02       		.byte	0x2
 887 004a 23       		.byte	0x23
 888 004b 00       		.uleb128 0
 889 004c 01       		.byte	0x1
 890 004d 00       		.byte	0
 891 004e 05       		.uleb128 0x5
 892 004f 04       		.byte	0x4
 893 0050 02       		.uleb128 0x2
 894 0051 5B000000 		.4byte	.LASF1
 895 0055 02       		.byte	0x2
 896 0056 66       		.byte	0x66
 897 0057 29000000 		.4byte	0x29
 898 005b 06       		.uleb128 0x6
 899 005c 04       		.byte	0x4
 900 005d 05       		.byte	0x5
 901 005e 696E7400 		.ascii	"int\000"
 902 0062 02       		.uleb128 0x2
 903 0063 00000000 		.4byte	.LASF2
 904 0067 03       		.byte	0x3
 905 0068 D5       		.byte	0xd5
 906 0069 6D000000 		.4byte	0x6d
 907 006d 07       		.uleb128 0x7
 908 006e 04       		.byte	0x4
 909 006f 07       		.byte	0x7
ARM GAS  /tmp/cckjy3CW.s 			page 17


 910 0070 23000000 		.4byte	.LASF3
 911 0074 07       		.uleb128 0x7
 912 0075 01       		.byte	0x1
 913 0076 06       		.byte	0x6
 914 0077 19020000 		.4byte	.LASF4
 915 007b 02       		.uleb128 0x2
 916 007c 53000000 		.4byte	.LASF5
 917 0080 04       		.byte	0x4
 918 0081 2A       		.byte	0x2a
 919 0082 86000000 		.4byte	0x86
 920 0086 07       		.uleb128 0x7
 921 0087 01       		.byte	0x1
 922 0088 08       		.byte	0x8
 923 0089 78000000 		.4byte	.LASF6
 924 008d 07       		.uleb128 0x7
 925 008e 02       		.byte	0x2
 926 008f 05       		.byte	0x5
 927 0090 F6010000 		.4byte	.LASF7
 928 0094 07       		.uleb128 0x7
 929 0095 02       		.byte	0x2
 930 0096 07       		.byte	0x7
 931 0097 98000000 		.4byte	.LASF8
 932 009b 02       		.uleb128 0x2
 933 009c AC010000 		.4byte	.LASF9
 934 00a0 04       		.byte	0x4
 935 00a1 4F       		.byte	0x4f
 936 00a2 A6000000 		.4byte	0xa6
 937 00a6 07       		.uleb128 0x7
 938 00a7 04       		.byte	0x4
 939 00a8 05       		.byte	0x5
 940 00a9 10020000 		.4byte	.LASF10
 941 00ad 07       		.uleb128 0x7
 942 00ae 04       		.byte	0x4
 943 00af 07       		.byte	0x7
 944 00b0 86000000 		.4byte	.LASF11
 945 00b4 07       		.uleb128 0x7
 946 00b5 08       		.byte	0x8
 947 00b6 05       		.byte	0x5
 948 00b7 CE010000 		.4byte	.LASF12
 949 00bb 07       		.uleb128 0x7
 950 00bc 08       		.byte	0x8
 951 00bd 07       		.byte	0x7
 952 00be 81010000 		.4byte	.LASF13
 953 00c2 02       		.uleb128 0x2
 954 00c3 30000000 		.4byte	.LASF14
 955 00c7 05       		.byte	0x5
 956 00c8 24       		.byte	0x24
 957 00c9 CD000000 		.4byte	0xcd
 958 00cd 07       		.uleb128 0x7
 959 00ce 01       		.byte	0x1
 960 00cf 02       		.byte	0x2
 961 00d0 2A020000 		.4byte	.LASF15
 962 00d4 02       		.uleb128 0x2
 963 00d5 A6010000 		.4byte	.LASF16
 964 00d9 05       		.byte	0x5
 965 00da 2A       		.byte	0x2a
 966 00db 9B000000 		.4byte	0x9b
ARM GAS  /tmp/cckjy3CW.s 			page 18


 967 00df 07       		.uleb128 0x7
 968 00e0 04       		.byte	0x4
 969 00e1 07       		.byte	0x7
 970 00e2 B4010000 		.4byte	.LASF17
 971 00e6 08       		.uleb128 0x8
 972 00e7 04       		.byte	0x4
 973 00e8 EC000000 		.4byte	0xec
 974 00ec 09       		.uleb128 0x9
 975 00ed F1000000 		.4byte	0xf1
 976 00f1 07       		.uleb128 0x7
 977 00f2 01       		.byte	0x1
 978 00f3 08       		.byte	0x8
 979 00f4 E6010000 		.4byte	.LASF18
 980 00f8 08       		.uleb128 0x8
 981 00f9 04       		.byte	0x4
 982 00fa FE000000 		.4byte	0xfe
 983 00fe 0A       		.uleb128 0xa
 984 00ff 01       		.byte	0x1
 985 0100 D4000000 		.4byte	0xd4
 986 0104 0E010000 		.4byte	0x10e
 987 0108 0B       		.uleb128 0xb
 988 0109 4E000000 		.4byte	0x4e
 989 010d 00       		.byte	0
 990 010e 08       		.uleb128 0x8
 991 010f 04       		.byte	0x4
 992 0110 7B000000 		.4byte	0x7b
 993 0114 03       		.uleb128 0x3
 994 0115 30020000 		.4byte	.LASF20
 995 0119 10       		.byte	0x10
 996 011a 07       		.byte	0x7
 997 011b 41       		.byte	0x41
 998 011c 59010000 		.4byte	0x159
 999 0120 0C       		.uleb128 0xc
 1000 0121 AB000000 		.4byte	.LASF21
 1001 0125 07       		.byte	0x7
 1002 0126 42       		.byte	0x42
 1003 0127 7E010000 		.4byte	0x17e
 1004 012b 02       		.byte	0x2
 1005 012c 23       		.byte	0x23
 1006 012d 00       		.uleb128 0
 1007 012e 0C       		.uleb128 0xc
 1008 012f 10010000 		.4byte	.LASF22
 1009 0133 07       		.byte	0x7
 1010 0134 42       		.byte	0x42
 1011 0135 9E010000 		.4byte	0x19e
 1012 0139 02       		.byte	0x2
 1013 013a 23       		.byte	0x23
 1014 013b 04       		.uleb128 0x4
 1015 013c 0D       		.uleb128 0xd
 1016 013d 70757400 		.ascii	"put\000"
 1017 0141 07       		.byte	0x7
 1018 0142 42       		.byte	0x42
 1019 0143 B9010000 		.4byte	0x1b9
 1020 0147 02       		.byte	0x2
 1021 0148 23       		.byte	0x23
 1022 0149 08       		.uleb128 0x8
 1023 014a 0D       		.uleb128 0xd
ARM GAS  /tmp/cckjy3CW.s 			page 19


 1024 014b 67657400 		.ascii	"get\000"
 1025 014f 07       		.byte	0x7
 1026 0150 42       		.byte	0x42
 1027 0151 F8000000 		.4byte	0xf8
 1028 0155 02       		.byte	0x2
 1029 0156 23       		.byte	0x23
 1030 0157 0C       		.uleb128 0xc
 1031 0158 00       		.byte	0
 1032 0159 0A       		.uleb128 0xa
 1033 015a 01       		.byte	0x1
 1034 015b 62000000 		.4byte	0x62
 1035 015f 73010000 		.4byte	0x173
 1036 0163 0B       		.uleb128 0xb
 1037 0164 4E000000 		.4byte	0x4e
 1038 0168 0B       		.uleb128 0xb
 1039 0169 73010000 		.4byte	0x173
 1040 016d 0B       		.uleb128 0xb
 1041 016e 62000000 		.4byte	0x62
 1042 0172 00       		.byte	0
 1043 0173 08       		.uleb128 0x8
 1044 0174 04       		.byte	0x4
 1045 0175 79010000 		.4byte	0x179
 1046 0179 09       		.uleb128 0x9
 1047 017a 7B000000 		.4byte	0x7b
 1048 017e 08       		.uleb128 0x8
 1049 017f 04       		.byte	0x4
 1050 0180 59010000 		.4byte	0x159
 1051 0184 0A       		.uleb128 0xa
 1052 0185 01       		.byte	0x1
 1053 0186 62000000 		.4byte	0x62
 1054 018a 9E010000 		.4byte	0x19e
 1055 018e 0B       		.uleb128 0xb
 1056 018f 4E000000 		.4byte	0x4e
 1057 0193 0B       		.uleb128 0xb
 1058 0194 0E010000 		.4byte	0x10e
 1059 0198 0B       		.uleb128 0xb
 1060 0199 62000000 		.4byte	0x62
 1061 019d 00       		.byte	0
 1062 019e 08       		.uleb128 0x8
 1063 019f 04       		.byte	0x4
 1064 01a0 84010000 		.4byte	0x184
 1065 01a4 0A       		.uleb128 0xa
 1066 01a5 01       		.byte	0x1
 1067 01a6 D4000000 		.4byte	0xd4
 1068 01aa B9010000 		.4byte	0x1b9
 1069 01ae 0B       		.uleb128 0xb
 1070 01af 4E000000 		.4byte	0x4e
 1071 01b3 0B       		.uleb128 0xb
 1072 01b4 7B000000 		.4byte	0x7b
 1073 01b8 00       		.byte	0
 1074 01b9 08       		.uleb128 0x8
 1075 01ba 04       		.byte	0x4
 1076 01bb A4010000 		.4byte	0x1a4
 1077 01bf 0E       		.uleb128 0xe
 1078 01c0 04       		.byte	0x4
 1079 01c1 07       		.byte	0x7
 1080 01c2 4A       		.byte	0x4a
ARM GAS  /tmp/cckjy3CW.s 			page 20


 1081 01c3 D6010000 		.4byte	0x1d6
 1082 01c7 0D       		.uleb128 0xd
 1083 01c8 766D7400 		.ascii	"vmt\000"
 1084 01cc 07       		.byte	0x7
 1085 01cd 4C       		.byte	0x4c
 1086 01ce D6010000 		.4byte	0x1d6
 1087 01d2 02       		.byte	0x2
 1088 01d3 23       		.byte	0x23
 1089 01d4 00       		.uleb128 0
 1090 01d5 00       		.byte	0
 1091 01d6 08       		.uleb128 0x8
 1092 01d7 04       		.byte	0x4
 1093 01d8 DC010000 		.4byte	0x1dc
 1094 01dc 09       		.uleb128 0x9
 1095 01dd 14010000 		.4byte	0x114
 1096 01e1 02       		.uleb128 0x2
 1097 01e2 63000000 		.4byte	.LASF23
 1098 01e6 07       		.byte	0x7
 1099 01e7 4E       		.byte	0x4e
 1100 01e8 BF010000 		.4byte	0x1bf
 1101 01ec 0F       		.uleb128 0xf
 1102 01ed 37000000 		.4byte	.LASF26
 1103 01f1 01       		.byte	0x1
 1104 01f2 24       		.byte	0x24
 1105 01f3 01       		.byte	0x1
 1106 01f4 4D020000 		.4byte	0x24d
 1107 01f8 01       		.byte	0x1
 1108 01f9 4D020000 		.4byte	0x24d
 1109 01fd 10       		.uleb128 0x10
 1110 01fe 7000     		.ascii	"p\000"
 1111 0200 01       		.byte	0x1
 1112 0201 24       		.byte	0x24
 1113 0202 4D020000 		.4byte	0x24d
 1114 0206 10       		.uleb128 0x10
 1115 0207 6E756D00 		.ascii	"num\000"
 1116 020b 01       		.byte	0x1
 1117 020c 25       		.byte	0x25
 1118 020d A6000000 		.4byte	0xa6
 1119 0211 11       		.uleb128 0x11
 1120 0212 A0010000 		.4byte	.LASF24
 1121 0216 01       		.byte	0x1
 1122 0217 26       		.byte	0x26
 1123 0218 6D000000 		.4byte	0x6d
 1124 021c 11       		.uleb128 0x11
 1125 021d 98010000 		.4byte	.LASF25
 1126 0221 01       		.byte	0x1
 1127 0222 27       		.byte	0x27
 1128 0223 A6000000 		.4byte	0xa6
 1129 0227 12       		.uleb128 0x12
 1130 0228 6900     		.ascii	"i\000"
 1131 022a 01       		.byte	0x1
 1132 022b 28       		.byte	0x28
 1133 022c 5B000000 		.4byte	0x5b
 1134 0230 12       		.uleb128 0x12
 1135 0231 7100     		.ascii	"q\000"
 1136 0233 01       		.byte	0x1
 1137 0234 29       		.byte	0x29
ARM GAS  /tmp/cckjy3CW.s 			page 21


 1138 0235 4D020000 		.4byte	0x24d
 1139 0239 12       		.uleb128 0x12
 1140 023a 6C00     		.ascii	"l\000"
 1141 023c 01       		.byte	0x1
 1142 023d 2A       		.byte	0x2a
 1143 023e A6000000 		.4byte	0xa6
 1144 0242 12       		.uleb128 0x12
 1145 0243 6C6C00   		.ascii	"ll\000"
 1146 0246 01       		.byte	0x1
 1147 0247 2A       		.byte	0x2a
 1148 0248 A6000000 		.4byte	0xa6
 1149 024c 00       		.byte	0
 1150 024d 08       		.uleb128 0x8
 1151 024e 04       		.byte	0x4
 1152 024f F1000000 		.4byte	0xf1
 1153 0253 13       		.uleb128 0x13
 1154 0254 EC010000 		.4byte	0x1ec
 1155 0258 00000000 		.4byte	.LFB10
 1156 025c 68000000 		.4byte	.LFE10
 1157 0260 00000000 		.4byte	.LLST0
 1158 0264 01       		.byte	0x1
 1159 0265 AF020000 		.4byte	0x2af
 1160 0269 14       		.uleb128 0x14
 1161 026a FD010000 		.4byte	0x1fd
 1162 026e 20000000 		.4byte	.LLST1
 1163 0272 14       		.uleb128 0x14
 1164 0273 06020000 		.4byte	0x206
 1165 0277 49000000 		.4byte	.LLST2
 1166 027b 14       		.uleb128 0x14
 1167 027c 11020000 		.4byte	0x211
 1168 0280 6A000000 		.4byte	.LLST3
 1169 0284 15       		.uleb128 0x15
 1170 0285 27020000 		.4byte	0x227
 1171 0289 8B000000 		.4byte	.LLST4
 1172 028d 15       		.uleb128 0x15
 1173 028e 30020000 		.4byte	0x230
 1174 0292 D4000000 		.4byte	.LLST5
 1175 0296 15       		.uleb128 0x15
 1176 0297 39020000 		.4byte	0x239
 1177 029b FD000000 		.4byte	.LLST6
 1178 029f 15       		.uleb128 0x15
 1179 02a0 42020000 		.4byte	0x242
 1180 02a4 26010000 		.4byte	.LLST7
 1181 02a8 16       		.uleb128 0x16
 1182 02a9 1C020000 		.4byte	0x21c
 1183 02ad 00       		.byte	0
 1184 02ae 00       		.byte	0
 1185 02af 0F       		.uleb128 0xf
 1186 02b0 25020000 		.4byte	.LASF27
 1187 02b4 01       		.byte	0x1
 1188 02b5 45       		.byte	0x45
 1189 02b6 01       		.byte	0x1
 1190 02b7 4D020000 		.4byte	0x24d
 1191 02bb 01       		.byte	0x1
 1192 02bc E0020000 		.4byte	0x2e0
 1193 02c0 10       		.uleb128 0x10
 1194 02c1 7000     		.ascii	"p\000"
ARM GAS  /tmp/cckjy3CW.s 			page 22


 1195 02c3 01       		.byte	0x1
 1196 02c4 45       		.byte	0x45
 1197 02c5 4D020000 		.4byte	0x24d
 1198 02c9 10       		.uleb128 0x10
 1199 02ca 6E756D00 		.ascii	"num\000"
 1200 02ce 01       		.byte	0x1
 1201 02cf 45       		.byte	0x45
 1202 02d0 A6000000 		.4byte	0xa6
 1203 02d4 11       		.uleb128 0x11
 1204 02d5 A0010000 		.4byte	.LASF24
 1205 02d9 01       		.byte	0x1
 1206 02da 45       		.byte	0x45
 1207 02db 6D000000 		.4byte	0x6d
 1208 02df 00       		.byte	0
 1209 02e0 17       		.uleb128 0x17
 1210 02e1 01       		.byte	0x1
 1211 02e2 B7000000 		.4byte	.LASF38
 1212 02e6 01       		.byte	0x1
 1213 02e7 6C       		.byte	0x6c
 1214 02e8 01       		.byte	0x1
 1215 02e9 00000000 		.4byte	.LFB9
 1216 02ed 98030000 		.4byte	.LFE9
 1217 02f1 4F010000 		.4byte	.LLST8
 1218 02f5 01       		.byte	0x1
 1219 02f6 45050000 		.4byte	0x545
 1220 02fa 18       		.uleb128 0x18
 1221 02fb 63687000 		.ascii	"chp\000"
 1222 02ff 01       		.byte	0x1
 1223 0300 6C       		.byte	0x6c
 1224 0301 45050000 		.4byte	0x545
 1225 0305 88010000 		.4byte	.LLST9
 1226 0309 18       		.uleb128 0x18
 1227 030a 666D7400 		.ascii	"fmt\000"
 1228 030e 01       		.byte	0x1
 1229 030f 6C       		.byte	0x6c
 1230 0310 E6000000 		.4byte	0xe6
 1231 0314 A6010000 		.4byte	.LLST10
 1232 0318 19       		.uleb128 0x19
 1233 0319 1A       		.uleb128 0x1a
 1234 031a 617000   		.ascii	"ap\000"
 1235 031d 01       		.byte	0x1
 1236 031e 6D       		.byte	0x6d
 1237 031f 50000000 		.4byte	0x50
 1238 0323 02       		.byte	0x2
 1239 0324 91       		.byte	0x91
 1240 0325 40       		.sleb128 -64
 1241 0326 1B       		.uleb128 0x1b
 1242 0327 7000     		.ascii	"p\000"
 1243 0329 01       		.byte	0x1
 1244 032a 6E       		.byte	0x6e
 1245 032b 4D020000 		.4byte	0x24d
 1246 032f 1F020000 		.4byte	.LLST11
 1247 0333 1B       		.uleb128 0x1b
 1248 0334 7300     		.ascii	"s\000"
 1249 0336 01       		.byte	0x1
 1250 0337 6E       		.byte	0x6e
 1251 0338 4D020000 		.4byte	0x24d
ARM GAS  /tmp/cckjy3CW.s 			page 23


 1252 033c C4020000 		.4byte	.LLST12
 1253 0340 1B       		.uleb128 0x1b
 1254 0341 6300     		.ascii	"c\000"
 1255 0343 01       		.byte	0x1
 1256 0344 6E       		.byte	0x6e
 1257 0345 F1000000 		.4byte	0xf1
 1258 0349 29030000 		.4byte	.LLST13
 1259 034d 1C       		.uleb128 0x1c
 1260 034e 15010000 		.4byte	.LASF28
 1261 0352 01       		.byte	0x1
 1262 0353 6E       		.byte	0x6e
 1263 0354 F1000000 		.4byte	0xf1
 1264 0358 32040000 		.4byte	.LLST14
 1265 035c 1B       		.uleb128 0x1b
 1266 035d 6900     		.ascii	"i\000"
 1267 035f 01       		.byte	0x1
 1268 0360 6F       		.byte	0x6f
 1269 0361 5B000000 		.4byte	0x5b
 1270 0365 B2040000 		.4byte	.LLST15
 1271 0369 1C       		.uleb128 0x1c
 1272 036a DC010000 		.4byte	.LASF29
 1273 036e 01       		.byte	0x1
 1274 036f 6F       		.byte	0x6f
 1275 0370 5B000000 		.4byte	0x5b
 1276 0374 E8040000 		.4byte	.LLST16
 1277 0378 1C       		.uleb128 0x1c
 1278 0379 B1000000 		.4byte	.LASF30
 1279 037d 01       		.byte	0x1
 1280 037e 6F       		.byte	0x6f
 1281 037f 5B000000 		.4byte	0x5b
 1282 0383 63050000 		.4byte	.LLST17
 1283 0387 1C       		.uleb128 0x1c
 1284 0388 1B000000 		.4byte	.LASF31
 1285 038c 01       		.byte	0x1
 1286 038d 70       		.byte	0x70
 1287 038e C2000000 		.4byte	0xc2
 1288 0392 1B060000 		.4byte	.LLST18
 1289 0396 1C       		.uleb128 0x1c
 1290 0397 EB010000 		.4byte	.LASF32
 1291 039b 01       		.byte	0x1
 1292 039c 70       		.byte	0x70
 1293 039d C2000000 		.4byte	0xc2
 1294 03a1 93060000 		.4byte	.LLST19
 1295 03a5 1B       		.uleb128 0x1b
 1296 03a6 6C00     		.ascii	"l\000"
 1297 03a8 01       		.byte	0x1
 1298 03a9 71       		.byte	0x71
 1299 03aa A6000000 		.4byte	0xa6
 1300 03ae EB060000 		.4byte	.LLST20
 1301 03b2 1D       		.uleb128 0x1d
 1302 03b3 BD010000 		.4byte	.LASF33
 1303 03b7 01       		.byte	0x1
 1304 03b8 76       		.byte	0x76
 1305 03b9 4B050000 		.4byte	0x54b
 1306 03bd 02       		.byte	0x2
 1307 03be 91       		.byte	0x91
 1308 03bf 44       		.sleb128 -60
ARM GAS  /tmp/cckjy3CW.s 			page 24


 1309 03c0 1E       		.uleb128 0x1e
 1310 03c1 00020000 		.4byte	.LASF39
 1311 03c5 01       		.byte	0x1
 1312 03c6 E4       		.byte	0xe4
 1313 03c7 F2020000 		.4byte	.L37
 1314 03cb 1F       		.uleb128 0x1f
 1315 03cc AF020000 		.4byte	0x2af
 1316 03d0 FC020000 		.4byte	.LBB6
 1317 03d4 02030000 		.4byte	.LBE6
 1318 03d8 01       		.byte	0x1
 1319 03d9 E9       		.byte	0xe9
 1320 03da 0A040000 		.4byte	0x40a
 1321 03de 14       		.uleb128 0x14
 1322 03df D4020000 		.4byte	0x2d4
 1323 03e3 1F070000 		.4byte	.LLST21
 1324 03e7 14       		.uleb128 0x14
 1325 03e8 C9020000 		.4byte	0x2c9
 1326 03ec 32070000 		.4byte	.LLST22
 1327 03f0 14       		.uleb128 0x14
 1328 03f1 C0020000 		.4byte	0x2c0
 1329 03f5 45070000 		.4byte	.LLST23
 1330 03f9 20       		.uleb128 0x20
 1331 03fa 02030000 		.4byte	.LVL101
 1332 03fe 53020000 		.4byte	0x253
 1333 0402 21       		.uleb128 0x21
 1334 0403 01       		.byte	0x1
 1335 0404 50       		.byte	0x50
 1336 0405 02       		.byte	0x2
 1337 0406 7B       		.byte	0x7b
 1338 0407 00       		.sleb128 0
 1339 0408 00       		.byte	0
 1340 0409 00       		.byte	0
 1341 040a 1F       		.uleb128 0x1f
 1342 040b AF020000 		.4byte	0x2af
 1343 040f 2E030000 		.4byte	.LBB8
 1344 0413 34030000 		.4byte	.LBE8
 1345 0417 01       		.byte	0x1
 1346 0418 CD       		.byte	0xcd
 1347 0419 48040000 		.4byte	0x448
 1348 041d 14       		.uleb128 0x14
 1349 041e D4020000 		.4byte	0x2d4
 1350 0422 58070000 		.4byte	.LLST24
 1351 0426 14       		.uleb128 0x14
 1352 0427 C9020000 		.4byte	0x2c9
 1353 042b 6C070000 		.4byte	.LLST25
 1354 042f 14       		.uleb128 0x14
 1355 0430 C0020000 		.4byte	0x2c0
 1356 0434 7F070000 		.4byte	.LLST26
 1357 0438 20       		.uleb128 0x20
 1358 0439 34030000 		.4byte	.LVL112
 1359 043d 53020000 		.4byte	0x253
 1360 0441 21       		.uleb128 0x21
 1361 0442 01       		.byte	0x1
 1362 0443 52       		.byte	0x52
 1363 0444 01       		.byte	0x1
 1364 0445 3A       		.byte	0x3a
 1365 0446 00       		.byte	0
ARM GAS  /tmp/cckjy3CW.s 			page 25


 1366 0447 00       		.byte	0
 1367 0448 22       		.uleb128 0x22
 1368 0449 3C000000 		.4byte	.LVL25
 1369 044d 58040000 		.4byte	0x458
 1370 0451 21       		.uleb128 0x21
 1371 0452 01       		.byte	0x1
 1372 0453 50       		.byte	0x50
 1373 0454 02       		.byte	0x2
 1374 0455 75       		.byte	0x75
 1375 0456 00       		.sleb128 0
 1376 0457 00       		.byte	0
 1377 0458 22       		.uleb128 0x22
 1378 0459 F8010000 		.4byte	.LVL69
 1379 045d 68040000 		.4byte	0x468
 1380 0461 21       		.uleb128 0x21
 1381 0462 01       		.byte	0x1
 1382 0463 50       		.byte	0x50
 1383 0464 02       		.byte	0x2
 1384 0465 75       		.byte	0x75
 1385 0466 00       		.sleb128 0
 1386 0467 00       		.byte	0
 1387 0468 22       		.uleb128 0x22
 1388 0469 18020000 		.4byte	.LVL71
 1389 046d 78040000 		.4byte	0x478
 1390 0471 21       		.uleb128 0x21
 1391 0472 01       		.byte	0x1
 1392 0473 50       		.byte	0x50
 1393 0474 02       		.byte	0x2
 1394 0475 75       		.byte	0x75
 1395 0476 00       		.sleb128 0
 1396 0477 00       		.byte	0
 1397 0478 22       		.uleb128 0x22
 1398 0479 28020000 		.4byte	.LVL72
 1399 047d 88040000 		.4byte	0x488
 1400 0481 21       		.uleb128 0x21
 1401 0482 01       		.byte	0x1
 1402 0483 50       		.byte	0x50
 1403 0484 02       		.byte	0x2
 1404 0485 75       		.byte	0x75
 1405 0486 00       		.sleb128 0
 1406 0487 00       		.byte	0
 1407 0488 22       		.uleb128 0x22
 1408 0489 44020000 		.4byte	.LVL75
 1409 048d 9E040000 		.4byte	0x49e
 1410 0491 21       		.uleb128 0x21
 1411 0492 01       		.byte	0x1
 1412 0493 51       		.byte	0x51
 1413 0494 02       		.byte	0x2
 1414 0495 77       		.byte	0x77
 1415 0496 00       		.sleb128 0
 1416 0497 21       		.uleb128 0x21
 1417 0498 01       		.byte	0x1
 1418 0499 50       		.byte	0x50
 1419 049a 02       		.byte	0x2
 1420 049b 75       		.byte	0x75
 1421 049c 00       		.sleb128 0
 1422 049d 00       		.byte	0
ARM GAS  /tmp/cckjy3CW.s 			page 26


 1423 049e 22       		.uleb128 0x22
 1424 049f 5A020000 		.4byte	.LVL76
 1425 04a3 B4040000 		.4byte	0x4b4
 1426 04a7 21       		.uleb128 0x21
 1427 04a8 01       		.byte	0x1
 1428 04a9 51       		.byte	0x51
 1429 04aa 02       		.byte	0x2
 1430 04ab 77       		.byte	0x77
 1431 04ac 00       		.sleb128 0
 1432 04ad 21       		.uleb128 0x21
 1433 04ae 01       		.byte	0x1
 1434 04af 50       		.byte	0x50
 1435 04b0 02       		.byte	0x2
 1436 04b1 75       		.byte	0x75
 1437 04b2 00       		.sleb128 0
 1438 04b3 00       		.byte	0
 1439 04b4 22       		.uleb128 0x22
 1440 04b5 6A020000 		.4byte	.LVL77
 1441 04b9 CA040000 		.4byte	0x4ca
 1442 04bd 21       		.uleb128 0x21
 1443 04be 01       		.byte	0x1
 1444 04bf 51       		.byte	0x51
 1445 04c0 02       		.byte	0x2
 1446 04c1 77       		.byte	0x77
 1447 04c2 00       		.sleb128 0
 1448 04c3 21       		.uleb128 0x21
 1449 04c4 01       		.byte	0x1
 1450 04c5 50       		.byte	0x50
 1451 04c6 02       		.byte	0x2
 1452 04c7 75       		.byte	0x75
 1453 04c8 00       		.sleb128 0
 1454 04c9 00       		.byte	0
 1455 04ca 22       		.uleb128 0x22
 1456 04cb 76020000 		.4byte	.LVL78
 1457 04cf E0040000 		.4byte	0x4e0
 1458 04d3 21       		.uleb128 0x21
 1459 04d4 01       		.byte	0x1
 1460 04d5 51       		.byte	0x51
 1461 04d6 02       		.byte	0x2
 1462 04d7 77       		.byte	0x77
 1463 04d8 00       		.sleb128 0
 1464 04d9 21       		.uleb128 0x21
 1465 04da 01       		.byte	0x1
 1466 04db 50       		.byte	0x50
 1467 04dc 02       		.byte	0x2
 1468 04dd 75       		.byte	0x75
 1469 04de 00       		.sleb128 0
 1470 04df 00       		.byte	0
 1471 04e0 22       		.uleb128 0x22
 1472 04e1 BC020000 		.4byte	.LVL89
 1473 04e5 F6040000 		.4byte	0x4f6
 1474 04e9 21       		.uleb128 0x21
 1475 04ea 01       		.byte	0x1
 1476 04eb 51       		.byte	0x51
 1477 04ec 02       		.byte	0x2
 1478 04ed 77       		.byte	0x77
 1479 04ee 00       		.sleb128 0
ARM GAS  /tmp/cckjy3CW.s 			page 27


 1480 04ef 21       		.uleb128 0x21
 1481 04f0 01       		.byte	0x1
 1482 04f1 50       		.byte	0x50
 1483 04f2 02       		.byte	0x2
 1484 04f3 75       		.byte	0x75
 1485 04f4 00       		.sleb128 0
 1486 04f5 00       		.byte	0
 1487 04f6 22       		.uleb128 0x22
 1488 04f7 D0020000 		.4byte	.LVL91
 1489 04fb 0C050000 		.4byte	0x50c
 1490 04ff 21       		.uleb128 0x21
 1491 0500 01       		.byte	0x1
 1492 0501 51       		.byte	0x51
 1493 0502 02       		.byte	0x2
 1494 0503 77       		.byte	0x77
 1495 0504 00       		.sleb128 0
 1496 0505 21       		.uleb128 0x21
 1497 0506 01       		.byte	0x1
 1498 0507 50       		.byte	0x50
 1499 0508 02       		.byte	0x2
 1500 0509 75       		.byte	0x75
 1501 050a 00       		.sleb128 0
 1502 050b 00       		.byte	0
 1503 050c 22       		.uleb128 0x22
 1504 050d DE020000 		.4byte	.LVL93
 1505 0511 22050000 		.4byte	0x522
 1506 0515 21       		.uleb128 0x21
 1507 0516 01       		.byte	0x1
 1508 0517 51       		.byte	0x51
 1509 0518 02       		.byte	0x2
 1510 0519 77       		.byte	0x77
 1511 051a 00       		.sleb128 0
 1512 051b 21       		.uleb128 0x21
 1513 051c 01       		.byte	0x1
 1514 051d 50       		.byte	0x50
 1515 051e 02       		.byte	0x2
 1516 051f 75       		.byte	0x75
 1517 0520 00       		.sleb128 0
 1518 0521 00       		.byte	0
 1519 0522 22       		.uleb128 0x22
 1520 0523 EA020000 		.4byte	.LVL95
 1521 0527 38050000 		.4byte	0x538
 1522 052b 21       		.uleb128 0x21
 1523 052c 01       		.byte	0x1
 1524 052d 51       		.byte	0x51
 1525 052e 02       		.byte	0x2
 1526 052f 77       		.byte	0x77
 1527 0530 00       		.sleb128 0
 1528 0531 21       		.uleb128 0x21
 1529 0532 01       		.byte	0x1
 1530 0533 50       		.byte	0x50
 1531 0534 02       		.byte	0x2
 1532 0535 75       		.byte	0x75
 1533 0536 00       		.sleb128 0
 1534 0537 00       		.byte	0
 1535 0538 23       		.uleb128 0x23
 1536 0539 80030000 		.4byte	.LVL126
ARM GAS  /tmp/cckjy3CW.s 			page 28


 1537 053d 21       		.uleb128 0x21
 1538 053e 01       		.byte	0x1
 1539 053f 50       		.byte	0x50
 1540 0540 02       		.byte	0x2
 1541 0541 75       		.byte	0x75
 1542 0542 00       		.sleb128 0
 1543 0543 00       		.byte	0
 1544 0544 00       		.byte	0
 1545 0545 08       		.uleb128 0x8
 1546 0546 04       		.byte	0x4
 1547 0547 E1010000 		.4byte	0x1e1
 1548 054b 24       		.uleb128 0x24
 1549 054c F1000000 		.4byte	0xf1
 1550 0550 25       		.uleb128 0x25
 1551 0551 DF000000 		.4byte	0xdf
 1552 0555 0B       		.byte	0xb
 1553 0556 00       		.byte	0
 1554 0557 00       		.byte	0
 1555              		.section	.debug_abbrev,"",%progbits
 1556              	.Ldebug_abbrev0:
 1557 0000 01       		.uleb128 0x1
 1558 0001 11       		.uleb128 0x11
 1559 0002 01       		.byte	0x1
 1560 0003 25       		.uleb128 0x25
 1561 0004 0E       		.uleb128 0xe
 1562 0005 13       		.uleb128 0x13
 1563 0006 0B       		.uleb128 0xb
 1564 0007 03       		.uleb128 0x3
 1565 0008 0E       		.uleb128 0xe
 1566 0009 1B       		.uleb128 0x1b
 1567 000a 0E       		.uleb128 0xe
 1568 000b 55       		.uleb128 0x55
 1569 000c 06       		.uleb128 0x6
 1570 000d 11       		.uleb128 0x11
 1571 000e 01       		.uleb128 0x1
 1572 000f 52       		.uleb128 0x52
 1573 0010 01       		.uleb128 0x1
 1574 0011 10       		.uleb128 0x10
 1575 0012 06       		.uleb128 0x6
 1576 0013 00       		.byte	0
 1577 0014 00       		.byte	0
 1578 0015 02       		.uleb128 0x2
 1579 0016 16       		.uleb128 0x16
 1580 0017 00       		.byte	0
 1581 0018 03       		.uleb128 0x3
 1582 0019 0E       		.uleb128 0xe
 1583 001a 3A       		.uleb128 0x3a
 1584 001b 0B       		.uleb128 0xb
 1585 001c 3B       		.uleb128 0x3b
 1586 001d 0B       		.uleb128 0xb
 1587 001e 49       		.uleb128 0x49
 1588 001f 13       		.uleb128 0x13
 1589 0020 00       		.byte	0
 1590 0021 00       		.byte	0
 1591 0022 03       		.uleb128 0x3
 1592 0023 13       		.uleb128 0x13
 1593 0024 01       		.byte	0x1
ARM GAS  /tmp/cckjy3CW.s 			page 29


 1594 0025 03       		.uleb128 0x3
 1595 0026 0E       		.uleb128 0xe
 1596 0027 0B       		.uleb128 0xb
 1597 0028 0B       		.uleb128 0xb
 1598 0029 3A       		.uleb128 0x3a
 1599 002a 0B       		.uleb128 0xb
 1600 002b 3B       		.uleb128 0x3b
 1601 002c 0B       		.uleb128 0xb
 1602 002d 01       		.uleb128 0x1
 1603 002e 13       		.uleb128 0x13
 1604 002f 00       		.byte	0
 1605 0030 00       		.byte	0
 1606 0031 04       		.uleb128 0x4
 1607 0032 0D       		.uleb128 0xd
 1608 0033 00       		.byte	0
 1609 0034 03       		.uleb128 0x3
 1610 0035 0E       		.uleb128 0xe
 1611 0036 49       		.uleb128 0x49
 1612 0037 13       		.uleb128 0x13
 1613 0038 38       		.uleb128 0x38
 1614 0039 0A       		.uleb128 0xa
 1615 003a 34       		.uleb128 0x34
 1616 003b 0C       		.uleb128 0xc
 1617 003c 00       		.byte	0
 1618 003d 00       		.byte	0
 1619 003e 05       		.uleb128 0x5
 1620 003f 0F       		.uleb128 0xf
 1621 0040 00       		.byte	0
 1622 0041 0B       		.uleb128 0xb
 1623 0042 0B       		.uleb128 0xb
 1624 0043 00       		.byte	0
 1625 0044 00       		.byte	0
 1626 0045 06       		.uleb128 0x6
 1627 0046 24       		.uleb128 0x24
 1628 0047 00       		.byte	0
 1629 0048 0B       		.uleb128 0xb
 1630 0049 0B       		.uleb128 0xb
 1631 004a 3E       		.uleb128 0x3e
 1632 004b 0B       		.uleb128 0xb
 1633 004c 03       		.uleb128 0x3
 1634 004d 08       		.uleb128 0x8
 1635 004e 00       		.byte	0
 1636 004f 00       		.byte	0
 1637 0050 07       		.uleb128 0x7
 1638 0051 24       		.uleb128 0x24
 1639 0052 00       		.byte	0
 1640 0053 0B       		.uleb128 0xb
 1641 0054 0B       		.uleb128 0xb
 1642 0055 3E       		.uleb128 0x3e
 1643 0056 0B       		.uleb128 0xb
 1644 0057 03       		.uleb128 0x3
 1645 0058 0E       		.uleb128 0xe
 1646 0059 00       		.byte	0
 1647 005a 00       		.byte	0
 1648 005b 08       		.uleb128 0x8
 1649 005c 0F       		.uleb128 0xf
 1650 005d 00       		.byte	0
ARM GAS  /tmp/cckjy3CW.s 			page 30


 1651 005e 0B       		.uleb128 0xb
 1652 005f 0B       		.uleb128 0xb
 1653 0060 49       		.uleb128 0x49
 1654 0061 13       		.uleb128 0x13
 1655 0062 00       		.byte	0
 1656 0063 00       		.byte	0
 1657 0064 09       		.uleb128 0x9
 1658 0065 26       		.uleb128 0x26
 1659 0066 00       		.byte	0
 1660 0067 49       		.uleb128 0x49
 1661 0068 13       		.uleb128 0x13
 1662 0069 00       		.byte	0
 1663 006a 00       		.byte	0
 1664 006b 0A       		.uleb128 0xa
 1665 006c 15       		.uleb128 0x15
 1666 006d 01       		.byte	0x1
 1667 006e 27       		.uleb128 0x27
 1668 006f 0C       		.uleb128 0xc
 1669 0070 49       		.uleb128 0x49
 1670 0071 13       		.uleb128 0x13
 1671 0072 01       		.uleb128 0x1
 1672 0073 13       		.uleb128 0x13
 1673 0074 00       		.byte	0
 1674 0075 00       		.byte	0
 1675 0076 0B       		.uleb128 0xb
 1676 0077 05       		.uleb128 0x5
 1677 0078 00       		.byte	0
 1678 0079 49       		.uleb128 0x49
 1679 007a 13       		.uleb128 0x13
 1680 007b 00       		.byte	0
 1681 007c 00       		.byte	0
 1682 007d 0C       		.uleb128 0xc
 1683 007e 0D       		.uleb128 0xd
 1684 007f 00       		.byte	0
 1685 0080 03       		.uleb128 0x3
 1686 0081 0E       		.uleb128 0xe
 1687 0082 3A       		.uleb128 0x3a
 1688 0083 0B       		.uleb128 0xb
 1689 0084 3B       		.uleb128 0x3b
 1690 0085 0B       		.uleb128 0xb
 1691 0086 49       		.uleb128 0x49
 1692 0087 13       		.uleb128 0x13
 1693 0088 38       		.uleb128 0x38
 1694 0089 0A       		.uleb128 0xa
 1695 008a 00       		.byte	0
 1696 008b 00       		.byte	0
 1697 008c 0D       		.uleb128 0xd
 1698 008d 0D       		.uleb128 0xd
 1699 008e 00       		.byte	0
 1700 008f 03       		.uleb128 0x3
 1701 0090 08       		.uleb128 0x8
 1702 0091 3A       		.uleb128 0x3a
 1703 0092 0B       		.uleb128 0xb
 1704 0093 3B       		.uleb128 0x3b
 1705 0094 0B       		.uleb128 0xb
 1706 0095 49       		.uleb128 0x49
 1707 0096 13       		.uleb128 0x13
ARM GAS  /tmp/cckjy3CW.s 			page 31


 1708 0097 38       		.uleb128 0x38
 1709 0098 0A       		.uleb128 0xa
 1710 0099 00       		.byte	0
 1711 009a 00       		.byte	0
 1712 009b 0E       		.uleb128 0xe
 1713 009c 13       		.uleb128 0x13
 1714 009d 01       		.byte	0x1
 1715 009e 0B       		.uleb128 0xb
 1716 009f 0B       		.uleb128 0xb
 1717 00a0 3A       		.uleb128 0x3a
 1718 00a1 0B       		.uleb128 0xb
 1719 00a2 3B       		.uleb128 0x3b
 1720 00a3 0B       		.uleb128 0xb
 1721 00a4 01       		.uleb128 0x1
 1722 00a5 13       		.uleb128 0x13
 1723 00a6 00       		.byte	0
 1724 00a7 00       		.byte	0
 1725 00a8 0F       		.uleb128 0xf
 1726 00a9 2E       		.uleb128 0x2e
 1727 00aa 01       		.byte	0x1
 1728 00ab 03       		.uleb128 0x3
 1729 00ac 0E       		.uleb128 0xe
 1730 00ad 3A       		.uleb128 0x3a
 1731 00ae 0B       		.uleb128 0xb
 1732 00af 3B       		.uleb128 0x3b
 1733 00b0 0B       		.uleb128 0xb
 1734 00b1 27       		.uleb128 0x27
 1735 00b2 0C       		.uleb128 0xc
 1736 00b3 49       		.uleb128 0x49
 1737 00b4 13       		.uleb128 0x13
 1738 00b5 20       		.uleb128 0x20
 1739 00b6 0B       		.uleb128 0xb
 1740 00b7 01       		.uleb128 0x1
 1741 00b8 13       		.uleb128 0x13
 1742 00b9 00       		.byte	0
 1743 00ba 00       		.byte	0
 1744 00bb 10       		.uleb128 0x10
 1745 00bc 05       		.uleb128 0x5
 1746 00bd 00       		.byte	0
 1747 00be 03       		.uleb128 0x3
 1748 00bf 08       		.uleb128 0x8
 1749 00c0 3A       		.uleb128 0x3a
 1750 00c1 0B       		.uleb128 0xb
 1751 00c2 3B       		.uleb128 0x3b
 1752 00c3 0B       		.uleb128 0xb
 1753 00c4 49       		.uleb128 0x49
 1754 00c5 13       		.uleb128 0x13
 1755 00c6 00       		.byte	0
 1756 00c7 00       		.byte	0
 1757 00c8 11       		.uleb128 0x11
 1758 00c9 05       		.uleb128 0x5
 1759 00ca 00       		.byte	0
 1760 00cb 03       		.uleb128 0x3
 1761 00cc 0E       		.uleb128 0xe
 1762 00cd 3A       		.uleb128 0x3a
 1763 00ce 0B       		.uleb128 0xb
 1764 00cf 3B       		.uleb128 0x3b
ARM GAS  /tmp/cckjy3CW.s 			page 32


 1765 00d0 0B       		.uleb128 0xb
 1766 00d1 49       		.uleb128 0x49
 1767 00d2 13       		.uleb128 0x13
 1768 00d3 00       		.byte	0
 1769 00d4 00       		.byte	0
 1770 00d5 12       		.uleb128 0x12
 1771 00d6 34       		.uleb128 0x34
 1772 00d7 00       		.byte	0
 1773 00d8 03       		.uleb128 0x3
 1774 00d9 08       		.uleb128 0x8
 1775 00da 3A       		.uleb128 0x3a
 1776 00db 0B       		.uleb128 0xb
 1777 00dc 3B       		.uleb128 0x3b
 1778 00dd 0B       		.uleb128 0xb
 1779 00de 49       		.uleb128 0x49
 1780 00df 13       		.uleb128 0x13
 1781 00e0 00       		.byte	0
 1782 00e1 00       		.byte	0
 1783 00e2 13       		.uleb128 0x13
 1784 00e3 2E       		.uleb128 0x2e
 1785 00e4 01       		.byte	0x1
 1786 00e5 31       		.uleb128 0x31
 1787 00e6 13       		.uleb128 0x13
 1788 00e7 11       		.uleb128 0x11
 1789 00e8 01       		.uleb128 0x1
 1790 00e9 12       		.uleb128 0x12
 1791 00ea 01       		.uleb128 0x1
 1792 00eb 40       		.uleb128 0x40
 1793 00ec 06       		.uleb128 0x6
 1794 00ed 9742     		.uleb128 0x2117
 1795 00ef 0C       		.uleb128 0xc
 1796 00f0 01       		.uleb128 0x1
 1797 00f1 13       		.uleb128 0x13
 1798 00f2 00       		.byte	0
 1799 00f3 00       		.byte	0
 1800 00f4 14       		.uleb128 0x14
 1801 00f5 05       		.uleb128 0x5
 1802 00f6 00       		.byte	0
 1803 00f7 31       		.uleb128 0x31
 1804 00f8 13       		.uleb128 0x13
 1805 00f9 02       		.uleb128 0x2
 1806 00fa 06       		.uleb128 0x6
 1807 00fb 00       		.byte	0
 1808 00fc 00       		.byte	0
 1809 00fd 15       		.uleb128 0x15
 1810 00fe 34       		.uleb128 0x34
 1811 00ff 00       		.byte	0
 1812 0100 31       		.uleb128 0x31
 1813 0101 13       		.uleb128 0x13
 1814 0102 02       		.uleb128 0x2
 1815 0103 06       		.uleb128 0x6
 1816 0104 00       		.byte	0
 1817 0105 00       		.byte	0
 1818 0106 16       		.uleb128 0x16
 1819 0107 05       		.uleb128 0x5
 1820 0108 00       		.byte	0
 1821 0109 31       		.uleb128 0x31
ARM GAS  /tmp/cckjy3CW.s 			page 33


 1822 010a 13       		.uleb128 0x13
 1823 010b 1C       		.uleb128 0x1c
 1824 010c 0B       		.uleb128 0xb
 1825 010d 00       		.byte	0
 1826 010e 00       		.byte	0
 1827 010f 17       		.uleb128 0x17
 1828 0110 2E       		.uleb128 0x2e
 1829 0111 01       		.byte	0x1
 1830 0112 3F       		.uleb128 0x3f
 1831 0113 0C       		.uleb128 0xc
 1832 0114 03       		.uleb128 0x3
 1833 0115 0E       		.uleb128 0xe
 1834 0116 3A       		.uleb128 0x3a
 1835 0117 0B       		.uleb128 0xb
 1836 0118 3B       		.uleb128 0x3b
 1837 0119 0B       		.uleb128 0xb
 1838 011a 27       		.uleb128 0x27
 1839 011b 0C       		.uleb128 0xc
 1840 011c 11       		.uleb128 0x11
 1841 011d 01       		.uleb128 0x1
 1842 011e 12       		.uleb128 0x12
 1843 011f 01       		.uleb128 0x1
 1844 0120 40       		.uleb128 0x40
 1845 0121 06       		.uleb128 0x6
 1846 0122 9742     		.uleb128 0x2117
 1847 0124 0C       		.uleb128 0xc
 1848 0125 01       		.uleb128 0x1
 1849 0126 13       		.uleb128 0x13
 1850 0127 00       		.byte	0
 1851 0128 00       		.byte	0
 1852 0129 18       		.uleb128 0x18
 1853 012a 05       		.uleb128 0x5
 1854 012b 00       		.byte	0
 1855 012c 03       		.uleb128 0x3
 1856 012d 08       		.uleb128 0x8
 1857 012e 3A       		.uleb128 0x3a
 1858 012f 0B       		.uleb128 0xb
 1859 0130 3B       		.uleb128 0x3b
 1860 0131 0B       		.uleb128 0xb
 1861 0132 49       		.uleb128 0x49
 1862 0133 13       		.uleb128 0x13
 1863 0134 02       		.uleb128 0x2
 1864 0135 06       		.uleb128 0x6
 1865 0136 00       		.byte	0
 1866 0137 00       		.byte	0
 1867 0138 19       		.uleb128 0x19
 1868 0139 18       		.uleb128 0x18
 1869 013a 00       		.byte	0
 1870 013b 00       		.byte	0
 1871 013c 00       		.byte	0
 1872 013d 1A       		.uleb128 0x1a
 1873 013e 34       		.uleb128 0x34
 1874 013f 00       		.byte	0
 1875 0140 03       		.uleb128 0x3
 1876 0141 08       		.uleb128 0x8
 1877 0142 3A       		.uleb128 0x3a
 1878 0143 0B       		.uleb128 0xb
ARM GAS  /tmp/cckjy3CW.s 			page 34


 1879 0144 3B       		.uleb128 0x3b
 1880 0145 0B       		.uleb128 0xb
 1881 0146 49       		.uleb128 0x49
 1882 0147 13       		.uleb128 0x13
 1883 0148 02       		.uleb128 0x2
 1884 0149 0A       		.uleb128 0xa
 1885 014a 00       		.byte	0
 1886 014b 00       		.byte	0
 1887 014c 1B       		.uleb128 0x1b
 1888 014d 34       		.uleb128 0x34
 1889 014e 00       		.byte	0
 1890 014f 03       		.uleb128 0x3
 1891 0150 08       		.uleb128 0x8
 1892 0151 3A       		.uleb128 0x3a
 1893 0152 0B       		.uleb128 0xb
 1894 0153 3B       		.uleb128 0x3b
 1895 0154 0B       		.uleb128 0xb
 1896 0155 49       		.uleb128 0x49
 1897 0156 13       		.uleb128 0x13
 1898 0157 02       		.uleb128 0x2
 1899 0158 06       		.uleb128 0x6
 1900 0159 00       		.byte	0
 1901 015a 00       		.byte	0
 1902 015b 1C       		.uleb128 0x1c
 1903 015c 34       		.uleb128 0x34
 1904 015d 00       		.byte	0
 1905 015e 03       		.uleb128 0x3
 1906 015f 0E       		.uleb128 0xe
 1907 0160 3A       		.uleb128 0x3a
 1908 0161 0B       		.uleb128 0xb
 1909 0162 3B       		.uleb128 0x3b
 1910 0163 0B       		.uleb128 0xb
 1911 0164 49       		.uleb128 0x49
 1912 0165 13       		.uleb128 0x13
 1913 0166 02       		.uleb128 0x2
 1914 0167 06       		.uleb128 0x6
 1915 0168 00       		.byte	0
 1916 0169 00       		.byte	0
 1917 016a 1D       		.uleb128 0x1d
 1918 016b 34       		.uleb128 0x34
 1919 016c 00       		.byte	0
 1920 016d 03       		.uleb128 0x3
 1921 016e 0E       		.uleb128 0xe
 1922 016f 3A       		.uleb128 0x3a
 1923 0170 0B       		.uleb128 0xb
 1924 0171 3B       		.uleb128 0x3b
 1925 0172 0B       		.uleb128 0xb
 1926 0173 49       		.uleb128 0x49
 1927 0174 13       		.uleb128 0x13
 1928 0175 02       		.uleb128 0x2
 1929 0176 0A       		.uleb128 0xa
 1930 0177 00       		.byte	0
 1931 0178 00       		.byte	0
 1932 0179 1E       		.uleb128 0x1e
 1933 017a 0A       		.uleb128 0xa
 1934 017b 00       		.byte	0
 1935 017c 03       		.uleb128 0x3
ARM GAS  /tmp/cckjy3CW.s 			page 35


 1936 017d 0E       		.uleb128 0xe
 1937 017e 3A       		.uleb128 0x3a
 1938 017f 0B       		.uleb128 0xb
 1939 0180 3B       		.uleb128 0x3b
 1940 0181 0B       		.uleb128 0xb
 1941 0182 11       		.uleb128 0x11
 1942 0183 01       		.uleb128 0x1
 1943 0184 00       		.byte	0
 1944 0185 00       		.byte	0
 1945 0186 1F       		.uleb128 0x1f
 1946 0187 1D       		.uleb128 0x1d
 1947 0188 01       		.byte	0x1
 1948 0189 31       		.uleb128 0x31
 1949 018a 13       		.uleb128 0x13
 1950 018b 11       		.uleb128 0x11
 1951 018c 01       		.uleb128 0x1
 1952 018d 12       		.uleb128 0x12
 1953 018e 01       		.uleb128 0x1
 1954 018f 58       		.uleb128 0x58
 1955 0190 0B       		.uleb128 0xb
 1956 0191 59       		.uleb128 0x59
 1957 0192 0B       		.uleb128 0xb
 1958 0193 01       		.uleb128 0x1
 1959 0194 13       		.uleb128 0x13
 1960 0195 00       		.byte	0
 1961 0196 00       		.byte	0
 1962 0197 20       		.uleb128 0x20
 1963 0198 898201   		.uleb128 0x4109
 1964 019b 01       		.byte	0x1
 1965 019c 11       		.uleb128 0x11
 1966 019d 01       		.uleb128 0x1
 1967 019e 31       		.uleb128 0x31
 1968 019f 13       		.uleb128 0x13
 1969 01a0 00       		.byte	0
 1970 01a1 00       		.byte	0
 1971 01a2 21       		.uleb128 0x21
 1972 01a3 8A8201   		.uleb128 0x410a
 1973 01a6 00       		.byte	0
 1974 01a7 02       		.uleb128 0x2
 1975 01a8 0A       		.uleb128 0xa
 1976 01a9 9142     		.uleb128 0x2111
 1977 01ab 0A       		.uleb128 0xa
 1978 01ac 00       		.byte	0
 1979 01ad 00       		.byte	0
 1980 01ae 22       		.uleb128 0x22
 1981 01af 898201   		.uleb128 0x4109
 1982 01b2 01       		.byte	0x1
 1983 01b3 11       		.uleb128 0x11
 1984 01b4 01       		.uleb128 0x1
 1985 01b5 01       		.uleb128 0x1
 1986 01b6 13       		.uleb128 0x13
 1987 01b7 00       		.byte	0
 1988 01b8 00       		.byte	0
 1989 01b9 23       		.uleb128 0x23
 1990 01ba 898201   		.uleb128 0x4109
 1991 01bd 01       		.byte	0x1
 1992 01be 11       		.uleb128 0x11
ARM GAS  /tmp/cckjy3CW.s 			page 36


 1993 01bf 01       		.uleb128 0x1
 1994 01c0 00       		.byte	0
 1995 01c1 00       		.byte	0
 1996 01c2 24       		.uleb128 0x24
 1997 01c3 01       		.uleb128 0x1
 1998 01c4 01       		.byte	0x1
 1999 01c5 49       		.uleb128 0x49
 2000 01c6 13       		.uleb128 0x13
 2001 01c7 00       		.byte	0
 2002 01c8 00       		.byte	0
 2003 01c9 25       		.uleb128 0x25
 2004 01ca 21       		.uleb128 0x21
 2005 01cb 00       		.byte	0
 2006 01cc 49       		.uleb128 0x49
 2007 01cd 13       		.uleb128 0x13
 2008 01ce 2F       		.uleb128 0x2f
 2009 01cf 0B       		.uleb128 0xb
 2010 01d0 00       		.byte	0
 2011 01d1 00       		.byte	0
 2012 01d2 00       		.byte	0
 2013              		.section	.debug_loc,"",%progbits
 2014              	.Ldebug_loc0:
 2015              	.LLST0:
 2016 0000 00000000 		.4byte	.LFB10
 2017 0004 02000000 		.4byte	.LCFI0
 2018 0008 0200     		.2byte	0x2
 2019 000a 7D       		.byte	0x7d
 2020 000b 00       		.sleb128 0
 2021 000c 02000000 		.4byte	.LCFI0
 2022 0010 68000000 		.4byte	.LFE10
 2023 0014 0200     		.2byte	0x2
 2024 0016 7D       		.byte	0x7d
 2025 0017 10       		.sleb128 16
 2026 0018 00000000 		.4byte	0
 2027 001c 00000000 		.4byte	0
 2028              	.LLST1:
 2029 0020 00000000 		.4byte	.LVL0
 2030 0024 0E000000 		.4byte	.LVL2
 2031 0028 0100     		.2byte	0x1
 2032 002a 50       		.byte	0x50
 2033 002b 0E000000 		.4byte	.LVL2
 2034 002f 52000000 		.4byte	.LVL18
 2035 0033 0100     		.2byte	0x1
 2036 0035 57       		.byte	0x57
 2037 0036 5A000000 		.4byte	.LVL19
 2038 003a 68000000 		.4byte	.LFE10
 2039 003e 0100     		.2byte	0x1
 2040 0040 57       		.byte	0x57
 2041 0041 00000000 		.4byte	0
 2042 0045 00000000 		.4byte	0
 2043              	.LLST2:
 2044 0049 00000000 		.4byte	.LVL0
 2045 004d 0E000000 		.4byte	.LVL2
 2046 0051 0100     		.2byte	0x1
 2047 0053 51       		.byte	0x51
 2048 0054 0E000000 		.4byte	.LVL2
 2049 0058 68000000 		.4byte	.LFE10
ARM GAS  /tmp/cckjy3CW.s 			page 37


 2050 005c 0400     		.2byte	0x4
 2051 005e F3       		.byte	0xf3
 2052 005f 01       		.uleb128 0x1
 2053 0060 51       		.byte	0x51
 2054 0061 9F       		.byte	0x9f
 2055 0062 00000000 		.4byte	0
 2056 0066 00000000 		.4byte	0
 2057              	.LLST3:
 2058 006a 00000000 		.4byte	.LVL0
 2059 006e 38000000 		.4byte	.LVL12
 2060 0072 0100     		.2byte	0x1
 2061 0074 52       		.byte	0x52
 2062 0075 38000000 		.4byte	.LVL12
 2063 0079 68000000 		.4byte	.LFE10
 2064 007d 0400     		.2byte	0x4
 2065 007f F3       		.byte	0xf3
 2066 0080 01       		.uleb128 0x1
 2067 0081 52       		.byte	0x52
 2068 0082 9F       		.byte	0x9f
 2069 0083 00000000 		.4byte	0
 2070 0087 00000000 		.4byte	0
 2071              	.LLST4:
 2072 008b 16000000 		.4byte	.LVL3
 2073 008f 1A000000 		.4byte	.LVL4
 2074 0093 0100     		.2byte	0x1
 2075 0095 51       		.byte	0x51
 2076 0096 1A000000 		.4byte	.LVL4
 2077 009a 24000000 		.4byte	.LVL6
 2078 009e 0100     		.2byte	0x1
 2079 00a0 53       		.byte	0x53
 2080 00a1 34000000 		.4byte	.LVL11
 2081 00a5 38000000 		.4byte	.LVL12
 2082 00a9 0600     		.2byte	0x6
 2083 00ab 7C       		.byte	0x7c
 2084 00ac 00       		.sleb128 0
 2085 00ad 70       		.byte	0x70
 2086 00ae 00       		.sleb128 0
 2087 00af 1C       		.byte	0x1c
 2088 00b0 9F       		.byte	0x9f
 2089 00b1 38000000 		.4byte	.LVL12
 2090 00b5 3E000000 		.4byte	.LVL15
 2091 00b9 0100     		.2byte	0x1
 2092 00bb 52       		.byte	0x52
 2093 00bc 3E000000 		.4byte	.LVL15
 2094 00c0 44000000 		.4byte	.LVL16
 2095 00c4 0600     		.2byte	0x6
 2096 00c6 7C       		.byte	0x7c
 2097 00c7 00       		.sleb128 0
 2098 00c8 71       		.byte	0x71
 2099 00c9 00       		.sleb128 0
 2100 00ca 1C       		.byte	0x1c
 2101 00cb 9F       		.byte	0x9f
 2102 00cc 00000000 		.4byte	0
 2103 00d0 00000000 		.4byte	0
 2104              	.LLST5:
 2105 00d4 08000000 		.4byte	.LVL1
 2106 00d8 0E000000 		.4byte	.LVL2
ARM GAS  /tmp/cckjy3CW.s 			page 38


 2107 00dc 0100     		.2byte	0x1
 2108 00de 5C       		.byte	0x5c
 2109 00df 2A000000 		.4byte	.LVL8
 2110 00e3 3C000000 		.4byte	.LVL14
 2111 00e7 0100     		.2byte	0x1
 2112 00e9 50       		.byte	0x50
 2113 00ea 3C000000 		.4byte	.LVL14
 2114 00ee 44000000 		.4byte	.LVL16
 2115 00f2 0100     		.2byte	0x1
 2116 00f4 51       		.byte	0x51
 2117 00f5 00000000 		.4byte	0
 2118 00f9 00000000 		.4byte	0
 2119              	.LLST6:
 2120 00fd 08000000 		.4byte	.LVL1
 2121 0101 16000000 		.4byte	.LVL3
 2122 0105 0100     		.2byte	0x1
 2123 0107 51       		.byte	0x51
 2124 0108 30000000 		.4byte	.LVL10
 2125 010c 3A000000 		.4byte	.LVL13
 2126 0110 0100     		.2byte	0x1
 2127 0112 51       		.byte	0x51
 2128 0113 3A000000 		.4byte	.LVL13
 2129 0117 68000000 		.4byte	.LFE10
 2130 011b 0100     		.2byte	0x1
 2131 011d 56       		.byte	0x56
 2132 011e 00000000 		.4byte	0
 2133 0122 00000000 		.4byte	0
 2134              	.LLST7:
 2135 0126 08000000 		.4byte	.LVL1
 2136 012a 0E000000 		.4byte	.LVL2
 2137 012e 0100     		.2byte	0x1
 2138 0130 51       		.byte	0x51
 2139 0131 0E000000 		.4byte	.LVL2
 2140 0135 28000000 		.4byte	.LVL7
 2141 0139 0100     		.2byte	0x1
 2142 013b 54       		.byte	0x54
 2143 013c 30000000 		.4byte	.LVL10
 2144 0140 68000000 		.4byte	.LFE10
 2145 0144 0100     		.2byte	0x1
 2146 0146 54       		.byte	0x54
 2147 0147 00000000 		.4byte	0
 2148 014b 00000000 		.4byte	0
 2149              	.LLST8:
 2150 014f 00000000 		.4byte	.LFB9
 2151 0153 02000000 		.4byte	.LCFI1
 2152 0157 0200     		.2byte	0x2
 2153 0159 7D       		.byte	0x7d
 2154 015a 00       		.sleb128 0
 2155 015b 02000000 		.4byte	.LCFI1
 2156 015f 06000000 		.4byte	.LCFI2
 2157 0163 0200     		.2byte	0x2
 2158 0165 7D       		.byte	0x7d
 2159 0166 0C       		.sleb128 12
 2160 0167 06000000 		.4byte	.LCFI2
 2161 016b 08000000 		.4byte	.LCFI3
 2162 016f 0200     		.2byte	0x2
 2163 0171 7D       		.byte	0x7d
ARM GAS  /tmp/cckjy3CW.s 			page 39


 2164 0172 30       		.sleb128 48
 2165 0173 08000000 		.4byte	.LCFI3
 2166 0177 98030000 		.4byte	.LFE9
 2167 017b 0300     		.2byte	0x3
 2168 017d 7D       		.byte	0x7d
 2169 017e C800     		.sleb128 72
 2170 0180 00000000 		.4byte	0
 2171 0184 00000000 		.4byte	0
 2172              	.LLST9:
 2173 0188 00000000 		.4byte	.LVL20
 2174 018c 24000000 		.4byte	.LVL21
 2175 0190 0100     		.2byte	0x1
 2176 0192 50       		.byte	0x50
 2177 0193 24000000 		.4byte	.LVL21
 2178 0197 98030000 		.4byte	.LFE9
 2179 019b 0100     		.2byte	0x1
 2180 019d 55       		.byte	0x55
 2181 019e 00000000 		.4byte	0
 2182 01a2 00000000 		.4byte	0
 2183              	.LLST10:
 2184 01a6 00000000 		.4byte	.LVL20
 2185 01aa 24000000 		.4byte	.LVL21
 2186 01ae 0200     		.2byte	0x2
 2187 01b0 91       		.byte	0x91
 2188 01b1 74       		.sleb128 -12
 2189 01b2 24000000 		.4byte	.LVL21
 2190 01b6 2A000000 		.4byte	.LVL22
 2191 01ba 0100     		.2byte	0x1
 2192 01bc 54       		.byte	0x54
 2193 01bd 2A000000 		.4byte	.LVL22
 2194 01c1 38000000 		.4byte	.LVL24
 2195 01c5 0100     		.2byte	0x1
 2196 01c7 56       		.byte	0x56
 2197 01c8 38000000 		.4byte	.LVL24
 2198 01cc 40000000 		.4byte	.LVL26
 2199 01d0 0100     		.2byte	0x1
 2200 01d2 54       		.byte	0x54
 2201 01d3 40000000 		.4byte	.LVL26
 2202 01d7 6E000000 		.4byte	.LVL31
 2203 01db 0100     		.2byte	0x1
 2204 01dd 56       		.byte	0x56
 2205 01de 6E000000 		.4byte	.LVL31
 2206 01e2 2E010000 		.4byte	.LVL46
 2207 01e6 0100     		.2byte	0x1
 2208 01e8 54       		.byte	0x54
 2209 01e9 32010000 		.4byte	.LVL47
 2210 01ed 48030000 		.4byte	.LVL115
 2211 01f1 0100     		.2byte	0x1
 2212 01f3 54       		.byte	0x54
 2213 01f4 48030000 		.4byte	.LVL115
 2214 01f8 4E030000 		.4byte	.LVL116
 2215 01fc 0300     		.2byte	0x3
 2216 01fe 76       		.byte	0x76
 2217 01ff 01       		.sleb128 1
 2218 0200 9F       		.byte	0x9f
 2219 0201 4E030000 		.4byte	.LVL116
 2220 0205 5A030000 		.4byte	.LVL119
ARM GAS  /tmp/cckjy3CW.s 			page 40


 2221 0209 0100     		.2byte	0x1
 2222 020b 56       		.byte	0x56
 2223 020c 5A030000 		.4byte	.LVL119
 2224 0210 98030000 		.4byte	.LFE9
 2225 0214 0100     		.2byte	0x1
 2226 0216 54       		.byte	0x54
 2227 0217 00000000 		.4byte	0
 2228 021b 00000000 		.4byte	0
 2229              	.LLST11:
 2230 021f 4E000000 		.4byte	.LVL28
 2231 0223 7A010000 		.4byte	.LVL56
 2232 0227 0100     		.2byte	0x1
 2233 0229 5B       		.byte	0x5b
 2234 022a 7A010000 		.4byte	.LVL56
 2235 022e 8E010000 		.4byte	.LVL57
 2236 0232 0100     		.2byte	0x1
 2237 0234 59       		.byte	0x59
 2238 0235 8E010000 		.4byte	.LVL57
 2239 0239 B0010000 		.4byte	.LVL59
 2240 023d 0100     		.2byte	0x1
 2241 023f 52       		.byte	0x52
 2242 0240 BC010000 		.4byte	.LVL60
 2243 0244 C2010000 		.4byte	.LVL61
 2244 0248 0100     		.2byte	0x1
 2245 024a 52       		.byte	0x52
 2246 024b 7C020000 		.4byte	.LVL79
 2247 024f 8C020000 		.4byte	.LVL82
 2248 0253 0100     		.2byte	0x1
 2249 0255 5B       		.byte	0x5b
 2250 0256 8C020000 		.4byte	.LVL82
 2251 025a 90020000 		.4byte	.LVL83
 2252 025e 0200     		.2byte	0x2
 2253 0260 7D       		.byte	0x7d
 2254 0261 00       		.sleb128 0
 2255 0262 F0020000 		.4byte	.LVL97
 2256 0266 02030000 		.4byte	.LVL101
 2257 026a 0100     		.2byte	0x1
 2258 026c 5B       		.byte	0x5b
 2259 026d 0A030000 		.4byte	.LVL102
 2260 0271 2E030000 		.4byte	.LVL111
 2261 0275 0100     		.2byte	0x1
 2262 0277 5B       		.byte	0x5b
 2263 0278 2E030000 		.4byte	.LVL111
 2264 027c 33030000 		.4byte	.LVL112-1
 2265 0280 0100     		.2byte	0x1
 2266 0282 50       		.byte	0x50
 2267 0283 3C030000 		.4byte	.LVL113
 2268 0287 40030000 		.4byte	.LVL114
 2269 028b 0100     		.2byte	0x1
 2270 028d 5B       		.byte	0x5b
 2271 028e 40030000 		.4byte	.LVL114
 2272 0292 48030000 		.4byte	.LVL115
 2273 0296 0200     		.2byte	0x2
 2274 0298 7D       		.byte	0x7d
 2275 0299 00       		.sleb128 0
 2276 029a 48030000 		.4byte	.LVL115
 2277 029e 6C030000 		.4byte	.LVL123
ARM GAS  /tmp/cckjy3CW.s 			page 41


 2278 02a2 0100     		.2byte	0x1
 2279 02a4 5B       		.byte	0x5b
 2280 02a5 6C030000 		.4byte	.LVL123
 2281 02a9 74030000 		.4byte	.LVL125
 2282 02ad 0200     		.2byte	0x2
 2283 02af 7D       		.byte	0x7d
 2284 02b0 00       		.sleb128 0
 2285 02b1 92030000 		.4byte	.LVL130
 2286 02b5 98030000 		.4byte	.LFE9
 2287 02b9 0100     		.2byte	0x1
 2288 02bb 59       		.byte	0x59
 2289 02bc 00000000 		.4byte	0
 2290 02c0 00000000 		.4byte	0
 2291              	.LLST12:
 2292 02c4 4E000000 		.4byte	.LVL28
 2293 02c8 5E010000 		.4byte	.LVL52
 2294 02cc 0100     		.2byte	0x1
 2295 02ce 5B       		.byte	0x5b
 2296 02cf 68010000 		.4byte	.LVL53
 2297 02d3 EC010000 		.4byte	.LVL67
 2298 02d7 0100     		.2byte	0x1
 2299 02d9 59       		.byte	0x59
 2300 02da EC010000 		.4byte	.LVL67
 2301 02de F6010000 		.4byte	.LVL68
 2302 02e2 0400     		.2byte	0x4
 2303 02e4 79       		.byte	0x79
 2304 02e5 00       		.sleb128 0
 2305 02e6 20       		.byte	0x20
 2306 02e7 9F       		.byte	0x9f
 2307 02e8 F6010000 		.4byte	.LVL68
 2308 02ec 02020000 		.4byte	.LVL70
 2309 02f0 0300     		.2byte	0x3
 2310 02f2 78       		.byte	0x78
 2311 02f3 7F       		.sleb128 -1
 2312 02f4 9F       		.byte	0x9f
 2313 02f5 7C020000 		.4byte	.LVL79
 2314 02f9 90020000 		.4byte	.LVL83
 2315 02fd 0100     		.2byte	0x1
 2316 02ff 5B       		.byte	0x5b
 2317 0300 90020000 		.4byte	.LVL83
 2318 0304 BA020000 		.4byte	.LVL88
 2319 0308 0100     		.2byte	0x1
 2320 030a 59       		.byte	0x59
 2321 030b F0020000 		.4byte	.LVL97
 2322 030f 74030000 		.4byte	.LVL125
 2323 0313 0100     		.2byte	0x1
 2324 0315 5B       		.byte	0x5b
 2325 0316 74030000 		.4byte	.LVL125
 2326 031a 98030000 		.4byte	.LFE9
 2327 031e 0100     		.2byte	0x1
 2328 0320 59       		.byte	0x59
 2329 0321 00000000 		.4byte	0
 2330 0325 00000000 		.4byte	0
 2331              	.LLST13:
 2332 0329 2A000000 		.4byte	.LVL22
 2333 032d 2C000000 		.4byte	.LVL23
 2334 0331 0200     		.2byte	0x2
ARM GAS  /tmp/cckjy3CW.s 			page 42


 2335 0333 74       		.byte	0x74
 2336 0334 00       		.sleb128 0
 2337 0335 40000000 		.4byte	.LVL26
 2338 0339 44000000 		.4byte	.LVL27
 2339 033d 0200     		.2byte	0x2
 2340 033f 74       		.byte	0x74
 2341 0340 00       		.sleb128 0
 2342 0341 70000000 		.4byte	.LVL32
 2343 0345 72000000 		.4byte	.LVL33
 2344 0349 0100     		.2byte	0x1
 2345 034b 53       		.byte	0x53
 2346 034c 72000000 		.4byte	.LVL33
 2347 0350 74000000 		.4byte	.LVL34
 2348 0354 0200     		.2byte	0x2
 2349 0356 71       		.byte	0x71
 2350 0357 00       		.sleb128 0
 2351 0358 74000000 		.4byte	.LVL34
 2352 035c 7E000000 		.4byte	.LVL36
 2353 0360 0100     		.2byte	0x1
 2354 0362 52       		.byte	0x52
 2355 0363 7E000000 		.4byte	.LVL36
 2356 0367 9A000000 		.4byte	.LVL40
 2357 036b 0100     		.2byte	0x1
 2358 036d 53       		.byte	0x53
 2359 036e AA000000 		.4byte	.LVL41
 2360 0372 22010000 		.4byte	.LVL42
 2361 0376 0100     		.2byte	0x1
 2362 0378 53       		.byte	0x53
 2363 0379 22010000 		.4byte	.LVL42
 2364 037d 24010000 		.4byte	.LVL43
 2365 0381 0200     		.2byte	0x2
 2366 0383 74       		.byte	0x74
 2367 0384 7F       		.sleb128 -1
 2368 0385 24010000 		.4byte	.LVL43
 2369 0389 26010000 		.4byte	.LVL44
 2370 038d 0200     		.2byte	0x2
 2371 038f 71       		.byte	0x71
 2372 0390 00       		.sleb128 0
 2373 0391 26010000 		.4byte	.LVL44
 2374 0395 2E010000 		.4byte	.LVL46
 2375 0399 0100     		.2byte	0x1
 2376 039b 52       		.byte	0x52
 2377 039c 32010000 		.4byte	.LVL47
 2378 03a0 46010000 		.4byte	.LVL48
 2379 03a4 0200     		.2byte	0x2
 2380 03a6 74       		.byte	0x74
 2381 03a7 7F       		.sleb128 -1
 2382 03a8 4E010000 		.4byte	.LVL49
 2383 03ac 52010000 		.4byte	.LVL50
 2384 03b0 0200     		.2byte	0x2
 2385 03b2 74       		.byte	0x74
 2386 03b3 00       		.sleb128 0
 2387 03b4 52010000 		.4byte	.LVL50
 2388 03b8 56010000 		.4byte	.LVL51
 2389 03bc 0200     		.2byte	0x2
 2390 03be 74       		.byte	0x74
 2391 03bf 7F       		.sleb128 -1
ARM GAS  /tmp/cckjy3CW.s 			page 43


 2392 03c0 56010000 		.4byte	.LVL51
 2393 03c4 5E010000 		.4byte	.LVL52
 2394 03c8 0100     		.2byte	0x1
 2395 03ca 53       		.byte	0x53
 2396 03cb 5E010000 		.4byte	.LVL52
 2397 03cf 6E010000 		.4byte	.LVL55
 2398 03d3 0400     		.2byte	0x4
 2399 03d5 72       		.byte	0x72
 2400 03d6 C400     		.sleb128 68
 2401 03d8 9F       		.byte	0x9f
 2402 03d9 7C020000 		.4byte	.LVL79
 2403 03dd 90020000 		.4byte	.LVL83
 2404 03e1 0100     		.2byte	0x1
 2405 03e3 53       		.byte	0x53
 2406 03e4 F0020000 		.4byte	.LVL97
 2407 03e8 F2020000 		.4byte	.LVL98
 2408 03ec 0100     		.2byte	0x1
 2409 03ee 53       		.byte	0x53
 2410 03ef 0A030000 		.4byte	.LVL102
 2411 03f3 0C030000 		.4byte	.LVL103
 2412 03f7 0100     		.2byte	0x1
 2413 03f9 53       		.byte	0x53
 2414 03fa 1A030000 		.4byte	.LVL106
 2415 03fe 1E030000 		.4byte	.LVL107
 2416 0402 0200     		.2byte	0x2
 2417 0404 38       		.byte	0x38
 2418 0405 9F       		.byte	0x9f
 2419 0406 1E030000 		.4byte	.LVL107
 2420 040a 20030000 		.4byte	.LVL108
 2421 040e 0100     		.2byte	0x1
 2422 0410 53       		.byte	0x53
 2423 0411 20030000 		.4byte	.LVL108
 2424 0415 22030000 		.4byte	.LVL109
 2425 0419 0400     		.2byte	0x4
 2426 041b 72       		.byte	0x72
 2427 041c C400     		.sleb128 68
 2428 041e 9F       		.byte	0x9f
 2429 041f 3C030000 		.4byte	.LVL113
 2430 0423 48030000 		.4byte	.LVL115
 2431 0427 0100     		.2byte	0x1
 2432 0429 53       		.byte	0x53
 2433 042a 00000000 		.4byte	0
 2434 042e 00000000 		.4byte	0
 2435              	.LLST14:
 2436 0432 5A000000 		.4byte	.LVL29
 2437 0436 68000000 		.4byte	.LVL30
 2438 043a 0300     		.2byte	0x3
 2439 043c 08       		.byte	0x8
 2440 043d 20       		.byte	0x20
 2441 043e 9F       		.byte	0x9f
 2442 043f 68000000 		.4byte	.LVL30
 2443 0443 56010000 		.4byte	.LVL51
 2444 0447 0100     		.2byte	0x1
 2445 0449 57       		.byte	0x57
 2446 044a 56010000 		.4byte	.LVL51
 2447 044e CC010000 		.4byte	.LVL63
 2448 0452 0300     		.2byte	0x3
ARM GAS  /tmp/cckjy3CW.s 			page 44


 2449 0454 08       		.byte	0x8
 2450 0455 20       		.byte	0x20
 2451 0456 9F       		.byte	0x9f
 2452 0457 CC010000 		.4byte	.LVL63
 2453 045b D6010000 		.4byte	.LVL65
 2454 045f 0100     		.2byte	0x1
 2455 0461 57       		.byte	0x57
 2456 0462 7C020000 		.4byte	.LVL79
 2457 0466 90020000 		.4byte	.LVL83
 2458 046a 0300     		.2byte	0x3
 2459 046c 08       		.byte	0x8
 2460 046d 20       		.byte	0x20
 2461 046e 9F       		.byte	0x9f
 2462 046f 90020000 		.4byte	.LVL83
 2463 0473 9E020000 		.4byte	.LVL86
 2464 0477 0100     		.2byte	0x1
 2465 0479 57       		.byte	0x57
 2466 047a F0020000 		.4byte	.LVL97
 2467 047e 48030000 		.4byte	.LVL115
 2468 0482 0100     		.2byte	0x1
 2469 0484 57       		.byte	0x57
 2470 0485 48030000 		.4byte	.LVL115
 2471 0489 50030000 		.4byte	.LVL117
 2472 048d 0300     		.2byte	0x3
 2473 048f 08       		.byte	0x8
 2474 0490 30       		.byte	0x30
 2475 0491 9F       		.byte	0x9f
 2476 0492 5A030000 		.4byte	.LVL119
 2477 0496 74030000 		.4byte	.LVL125
 2478 049a 0100     		.2byte	0x1
 2479 049c 57       		.byte	0x57
 2480 049d 8A030000 		.4byte	.LVL129
 2481 04a1 98030000 		.4byte	.LFE9
 2482 04a5 0300     		.2byte	0x3
 2483 04a7 08       		.byte	0x8
 2484 04a8 20       		.byte	0x20
 2485 04a9 9F       		.byte	0x9f
 2486 04aa 00000000 		.4byte	0
 2487 04ae 00000000 		.4byte	0
 2488              	.LLST15:
 2489 04b2 CC010000 		.4byte	.LVL63
 2490 04b6 D6010000 		.4byte	.LVL65
 2491 04ba 0100     		.2byte	0x1
 2492 04bc 5A       		.byte	0x5a
 2493 04bd D6010000 		.4byte	.LVL65
 2494 04c1 E8010000 		.4byte	.LVL66
 2495 04c5 0300     		.2byte	0x3
 2496 04c7 7A       		.byte	0x7a
 2497 04c8 7F       		.sleb128 -1
 2498 04c9 9F       		.byte	0x9f
 2499 04ca 90020000 		.4byte	.LVL83
 2500 04ce BA020000 		.4byte	.LVL88
 2501 04d2 0100     		.2byte	0x1
 2502 04d4 5A       		.byte	0x5a
 2503 04d5 74030000 		.4byte	.LVL125
 2504 04d9 8A030000 		.4byte	.LVL129
 2505 04dd 0100     		.2byte	0x1
ARM GAS  /tmp/cckjy3CW.s 			page 45


 2506 04df 5A       		.byte	0x5a
 2507 04e0 00000000 		.4byte	0
 2508 04e4 00000000 		.4byte	0
 2509              	.LLST16:
 2510 04e8 94000000 		.4byte	.LVL38
 2511 04ec 96000000 		.4byte	.LVL39
 2512 04f0 0200     		.2byte	0x2
 2513 04f2 30       		.byte	0x30
 2514 04f3 9F       		.byte	0x9f
 2515 04f4 96000000 		.4byte	.LVL39
 2516 04f8 2A010000 		.4byte	.LVL45
 2517 04fc 0100     		.2byte	0x1
 2518 04fe 50       		.byte	0x50
 2519 04ff 2A010000 		.4byte	.LVL45
 2520 0503 2E010000 		.4byte	.LVL46
 2521 0507 0500     		.2byte	0x5
 2522 0509 73       		.byte	0x73
 2523 050a 00       		.sleb128 0
 2524 050b 31       		.byte	0x31
 2525 050c 24       		.byte	0x24
 2526 050d 9F       		.byte	0x9f
 2527 050e 2E010000 		.4byte	.LVL46
 2528 0512 7A010000 		.4byte	.LVL56
 2529 0516 0100     		.2byte	0x1
 2530 0518 50       		.byte	0x50
 2531 0519 7C020000 		.4byte	.LVL79
 2532 051d 7E020000 		.4byte	.LVL80
 2533 0521 0100     		.2byte	0x1
 2534 0523 50       		.byte	0x50
 2535 0524 F0020000 		.4byte	.LVL97
 2536 0528 FC020000 		.4byte	.LVL100
 2537 052c 0100     		.2byte	0x1
 2538 052e 50       		.byte	0x50
 2539 052f 0A030000 		.4byte	.LVL102
 2540 0533 14030000 		.4byte	.LVL104
 2541 0537 0100     		.2byte	0x1
 2542 0539 50       		.byte	0x50
 2543 053a 1A030000 		.4byte	.LVL106
 2544 053e 2E030000 		.4byte	.LVL111
 2545 0542 0100     		.2byte	0x1
 2546 0544 50       		.byte	0x50
 2547 0545 3C030000 		.4byte	.LVL113
 2548 0549 48030000 		.4byte	.LVL115
 2549 054d 0100     		.2byte	0x1
 2550 054f 50       		.byte	0x50
 2551 0550 5A030000 		.4byte	.LVL119
 2552 0554 68030000 		.4byte	.LVL122
 2553 0558 0100     		.2byte	0x1
 2554 055a 50       		.byte	0x50
 2555 055b 00000000 		.4byte	0
 2556 055f 00000000 		.4byte	0
 2557              	.LLST17:
 2558 0563 68000000 		.4byte	.LVL30
 2559 0567 70000000 		.4byte	.LVL32
 2560 056b 0200     		.2byte	0x2
 2561 056d 30       		.byte	0x30
 2562 056e 9F       		.byte	0x9f
ARM GAS  /tmp/cckjy3CW.s 			page 46


 2563 056f 70000000 		.4byte	.LVL32
 2564 0573 78000000 		.4byte	.LVL35
 2565 0577 0100     		.2byte	0x1
 2566 0579 56       		.byte	0x56
 2567 057a 7E000000 		.4byte	.LVL36
 2568 057e CA010000 		.4byte	.LVL62
 2569 0582 0100     		.2byte	0x1
 2570 0584 56       		.byte	0x56
 2571 0585 CC010000 		.4byte	.LVL63
 2572 0589 F8010000 		.4byte	.LVL69
 2573 058d 0100     		.2byte	0x1
 2574 058f 56       		.byte	0x56
 2575 0590 2C020000 		.4byte	.LVL73
 2576 0594 3A020000 		.4byte	.LVL74
 2577 0598 0100     		.2byte	0x1
 2578 059a 56       		.byte	0x56
 2579 059b 3A020000 		.4byte	.LVL74
 2580 059f 43020000 		.4byte	.LVL75-1
 2581 05a3 0300     		.2byte	0x3
 2582 05a5 73       		.byte	0x73
 2583 05a6 01       		.sleb128 1
 2584 05a7 9F       		.byte	0x9f
 2585 05a8 43020000 		.4byte	.LVL75-1
 2586 05ac 5A020000 		.4byte	.LVL76
 2587 05b0 0300     		.2byte	0x3
 2588 05b2 76       		.byte	0x76
 2589 05b3 01       		.sleb128 1
 2590 05b4 9F       		.byte	0x9f
 2591 05b5 7C020000 		.4byte	.LVL79
 2592 05b9 BC020000 		.4byte	.LVL89
 2593 05bd 0100     		.2byte	0x1
 2594 05bf 56       		.byte	0x56
 2595 05c0 BC020000 		.4byte	.LVL89
 2596 05c4 BE020000 		.4byte	.LVL90
 2597 05c8 0300     		.2byte	0x3
 2598 05ca 76       		.byte	0x76
 2599 05cb 01       		.sleb128 1
 2600 05cc 9F       		.byte	0x9f
 2601 05cd BE020000 		.4byte	.LVL90
 2602 05d1 D0020000 		.4byte	.LVL91
 2603 05d5 0100     		.2byte	0x1
 2604 05d7 56       		.byte	0x56
 2605 05d8 D0020000 		.4byte	.LVL91
 2606 05dc D2020000 		.4byte	.LVL92
 2607 05e0 0300     		.2byte	0x3
 2608 05e2 76       		.byte	0x76
 2609 05e3 01       		.sleb128 1
 2610 05e4 9F       		.byte	0x9f
 2611 05e5 D2020000 		.4byte	.LVL92
 2612 05e9 E2020000 		.4byte	.LVL94
 2613 05ed 0100     		.2byte	0x1
 2614 05ef 56       		.byte	0x56
 2615 05f0 EA020000 		.4byte	.LVL95
 2616 05f4 EC020000 		.4byte	.LVL96
 2617 05f8 0300     		.2byte	0x3
 2618 05fa 76       		.byte	0x76
 2619 05fb 01       		.sleb128 1
ARM GAS  /tmp/cckjy3CW.s 			page 47


 2620 05fc 9F       		.byte	0x9f
 2621 05fd EC020000 		.4byte	.LVL96
 2622 0601 48030000 		.4byte	.LVL115
 2623 0605 0100     		.2byte	0x1
 2624 0607 56       		.byte	0x56
 2625 0608 5A030000 		.4byte	.LVL119
 2626 060c 98030000 		.4byte	.LFE9
 2627 0610 0100     		.2byte	0x1
 2628 0612 56       		.byte	0x56
 2629 0613 00000000 		.4byte	0
 2630 0617 00000000 		.4byte	0
 2631              	.LLST18:
 2632 061b AA000000 		.4byte	.LVL41
 2633 061f 22010000 		.4byte	.LVL42
 2634 0623 0100     		.2byte	0x1
 2635 0625 51       		.byte	0x51
 2636 0626 46010000 		.4byte	.LVL48
 2637 062a 56010000 		.4byte	.LVL51
 2638 062e 0200     		.2byte	0x2
 2639 0630 31       		.byte	0x31
 2640 0631 9F       		.byte	0x9f
 2641 0632 56010000 		.4byte	.LVL51
 2642 0636 6A010000 		.4byte	.LVL54
 2643 063a 0100     		.2byte	0x1
 2644 063c 51       		.byte	0x51
 2645 063d 7C020000 		.4byte	.LVL79
 2646 0641 86020000 		.4byte	.LVL81
 2647 0645 0100     		.2byte	0x1
 2648 0647 51       		.byte	0x51
 2649 0648 F0020000 		.4byte	.LVL97
 2650 064c F8020000 		.4byte	.LVL99
 2651 0650 0100     		.2byte	0x1
 2652 0652 51       		.byte	0x51
 2653 0653 0A030000 		.4byte	.LVL102
 2654 0657 16030000 		.4byte	.LVL105
 2655 065b 0100     		.2byte	0x1
 2656 065d 51       		.byte	0x51
 2657 065e 1A030000 		.4byte	.LVL106
 2658 0662 26030000 		.4byte	.LVL110
 2659 0666 0100     		.2byte	0x1
 2660 0668 51       		.byte	0x51
 2661 0669 3C030000 		.4byte	.LVL113
 2662 066d 48030000 		.4byte	.LVL115
 2663 0671 0100     		.2byte	0x1
 2664 0673 51       		.byte	0x51
 2665 0674 5A030000 		.4byte	.LVL119
 2666 0678 5E030000 		.4byte	.LVL120
 2667 067c 0200     		.2byte	0x2
 2668 067e 31       		.byte	0x31
 2669 067f 9F       		.byte	0x9f
 2670 0680 5E030000 		.4byte	.LVL120
 2671 0684 60030000 		.4byte	.LVL121
 2672 0688 0100     		.2byte	0x1
 2673 068a 51       		.byte	0x51
 2674 068b 00000000 		.4byte	0
 2675 068f 00000000 		.4byte	0
 2676              	.LLST19:
ARM GAS  /tmp/cckjy3CW.s 			page 48


 2677 0693 4E000000 		.4byte	.LVL28
 2678 0697 5A000000 		.4byte	.LVL29
 2679 069b 0200     		.2byte	0x2
 2680 069d 30       		.byte	0x30
 2681 069e 9F       		.byte	0x9f
 2682 069f 5A000000 		.4byte	.LVL29
 2683 06a3 D6010000 		.4byte	.LVL65
 2684 06a7 0100     		.2byte	0x1
 2685 06a9 58       		.byte	0x58
 2686 06aa 7C020000 		.4byte	.LVL79
 2687 06ae BA020000 		.4byte	.LVL88
 2688 06b2 0100     		.2byte	0x1
 2689 06b4 58       		.byte	0x58
 2690 06b5 F0020000 		.4byte	.LVL97
 2691 06b9 50030000 		.4byte	.LVL117
 2692 06bd 0100     		.2byte	0x1
 2693 06bf 58       		.byte	0x58
 2694 06c0 50030000 		.4byte	.LVL117
 2695 06c4 52030000 		.4byte	.LVL118
 2696 06c8 0200     		.2byte	0x2
 2697 06ca 30       		.byte	0x30
 2698 06cb 9F       		.byte	0x9f
 2699 06cc 52030000 		.4byte	.LVL118
 2700 06d0 5A030000 		.4byte	.LVL119
 2701 06d4 0200     		.2byte	0x2
 2702 06d6 31       		.byte	0x31
 2703 06d7 9F       		.byte	0x9f
 2704 06d8 5A030000 		.4byte	.LVL119
 2705 06dc 98030000 		.4byte	.LFE9
 2706 06e0 0100     		.2byte	0x1
 2707 06e2 58       		.byte	0x58
 2708 06e3 00000000 		.4byte	0
 2709 06e7 00000000 		.4byte	0
 2710              	.LLST20:
 2711 06eb FC020000 		.4byte	.LVL100
 2712 06ef 01030000 		.4byte	.LVL101-1
 2713 06f3 0100     		.2byte	0x1
 2714 06f5 51       		.byte	0x51
 2715 06f6 16030000 		.4byte	.LVL105
 2716 06fa 1A030000 		.4byte	.LVL106
 2717 06fe 0100     		.2byte	0x1
 2718 0700 51       		.byte	0x51
 2719 0701 26030000 		.4byte	.LVL110
 2720 0705 33030000 		.4byte	.LVL112-1
 2721 0709 0100     		.2byte	0x1
 2722 070b 51       		.byte	0x51
 2723 070c 60030000 		.4byte	.LVL121
 2724 0710 74030000 		.4byte	.LVL125
 2725 0714 0100     		.2byte	0x1
 2726 0716 51       		.byte	0x51
 2727 0717 00000000 		.4byte	0
 2728 071b 00000000 		.4byte	0
 2729              	.LLST21:
 2730 071f FC020000 		.4byte	.LVL100
 2731 0723 01030000 		.4byte	.LVL101-1
 2732 0727 0100     		.2byte	0x1
 2733 0729 52       		.byte	0x52
ARM GAS  /tmp/cckjy3CW.s 			page 49


 2734 072a 00000000 		.4byte	0
 2735 072e 00000000 		.4byte	0
 2736              	.LLST22:
 2737 0732 FC020000 		.4byte	.LVL100
 2738 0736 01030000 		.4byte	.LVL101-1
 2739 073a 0100     		.2byte	0x1
 2740 073c 51       		.byte	0x51
 2741 073d 00000000 		.4byte	0
 2742 0741 00000000 		.4byte	0
 2743              	.LLST23:
 2744 0745 FC020000 		.4byte	.LVL100
 2745 0749 0A030000 		.4byte	.LVL102
 2746 074d 0100     		.2byte	0x1
 2747 074f 5B       		.byte	0x5b
 2748 0750 00000000 		.4byte	0
 2749 0754 00000000 		.4byte	0
 2750              	.LLST24:
 2751 0758 2E030000 		.4byte	.LVL111
 2752 075c 3C030000 		.4byte	.LVL113
 2753 0760 0200     		.2byte	0x2
 2754 0762 3A       		.byte	0x3a
 2755 0763 9F       		.byte	0x9f
 2756 0764 00000000 		.4byte	0
 2757 0768 00000000 		.4byte	0
 2758              	.LLST25:
 2759 076c 2E030000 		.4byte	.LVL111
 2760 0770 33030000 		.4byte	.LVL112-1
 2761 0774 0100     		.2byte	0x1
 2762 0776 51       		.byte	0x51
 2763 0777 00000000 		.4byte	0
 2764 077b 00000000 		.4byte	0
 2765              	.LLST26:
 2766 077f 2E030000 		.4byte	.LVL111
 2767 0783 33030000 		.4byte	.LVL112-1
 2768 0787 0100     		.2byte	0x1
 2769 0789 50       		.byte	0x50
 2770 078a 00000000 		.4byte	0
 2771 078e 00000000 		.4byte	0
 2772              		.section	.debug_aranges,"",%progbits
 2773 0000 24000000 		.4byte	0x24
 2774 0004 0200     		.2byte	0x2
 2775 0006 00000000 		.4byte	.Ldebug_info0
 2776 000a 04       		.byte	0x4
 2777 000b 00       		.byte	0
 2778 000c 0000     		.2byte	0
 2779 000e 0000     		.2byte	0
 2780 0010 00000000 		.4byte	.LFB10
 2781 0014 68000000 		.4byte	.LFE10-.LFB10
 2782 0018 00000000 		.4byte	.LFB9
 2783 001c 98030000 		.4byte	.LFE9-.LFB9
 2784 0020 00000000 		.4byte	0
 2785 0024 00000000 		.4byte	0
 2786              		.section	.debug_ranges,"",%progbits
 2787              	.Ldebug_ranges0:
 2788 0000 00000000 		.4byte	.LFB10
 2789 0004 68000000 		.4byte	.LFE10
 2790 0008 00000000 		.4byte	.LFB9
ARM GAS  /tmp/cckjy3CW.s 			page 50


 2791 000c 98030000 		.4byte	.LFE9
 2792 0010 00000000 		.4byte	0
 2793 0014 00000000 		.4byte	0
 2794              		.section	.debug_line,"",%progbits
 2795              	.Ldebug_line0:
 2796 0000 C0020000 		.section	.debug_str,"MS",%progbits,1
 2796      02002C01 
 2796      00000201 
 2796      FB0E0D00 
 2796      01010101 
 2797              	.LASF2:
 2798 0000 73697A65 		.ascii	"size_t\000"
 2798      5F7400
 2799              	.LASF37:
 2800 0007 5F5F6170 		.ascii	"__ap\000"
 2800      00
 2801              	.LASF0:
 2802 000c 5F5F676E 		.ascii	"__gnuc_va_list\000"
 2802      75635F76 
 2802      615F6C69 
 2802      737400
 2803              	.LASF31:
 2804 001b 69735F6C 		.ascii	"is_long\000"
 2804      6F6E6700 
 2805              	.LASF3:
 2806 0023 756E7369 		.ascii	"unsigned int\000"
 2806      676E6564 
 2806      20696E74 
 2806      00
 2807              	.LASF14:
 2808 0030 626F6F6C 		.ascii	"bool_t\000"
 2808      5F7400
 2809              	.LASF26:
 2810 0037 6C6F6E67 		.ascii	"long_to_string_with_divisor\000"
 2810      5F746F5F 
 2810      73747269 
 2810      6E675F77 
 2810      6974685F 
 2811              	.LASF5:
 2812 0053 75696E74 		.ascii	"uint8_t\000"
 2812      385F7400 
 2813              	.LASF1:
 2814 005b 76615F6C 		.ascii	"va_list\000"
 2814      69737400 
 2815              	.LASF23:
 2816 0063 42617365 		.ascii	"BaseSequentialStream\000"
 2816      53657175 
 2816      656E7469 
 2816      616C5374 
 2816      7265616D 
 2817              	.LASF6:
 2818 0078 756E7369 		.ascii	"unsigned char\000"
 2818      676E6564 
 2818      20636861 
 2818      7200
 2819              	.LASF11:
 2820 0086 6C6F6E67 		.ascii	"long unsigned int\000"
ARM GAS  /tmp/cckjy3CW.s 			page 51


 2820      20756E73 
 2820      69676E65 
 2820      6420696E 
 2820      7400
 2821              	.LASF8:
 2822 0098 73686F72 		.ascii	"short unsigned int\000"
 2822      7420756E 
 2822      7369676E 
 2822      65642069 
 2822      6E7400
 2823              	.LASF21:
 2824 00ab 77726974 		.ascii	"write\000"
 2824      6500
 2825              	.LASF30:
 2826 00b1 77696474 		.ascii	"width\000"
 2826      6800
 2827              	.LASF38:
 2828 00b7 63687072 		.ascii	"chprintf\000"
 2828      696E7466 
 2828      00
 2829              	.LASF36:
 2830 00c0 2F686F6D 		.ascii	"/home/witold/Dokumenty/arm/ChibiOS-master/demos/ARM"
 2830      652F7769 
 2830      746F6C64 
 2830      2F446F6B 
 2830      756D656E 
 2831 00f3 434D342D 		.ascii	"CM4-STM32F407-DISCOVERY-MEMS\000"
 2831      53544D33 
 2831      32463430 
 2831      372D4449 
 2831      53434F56 
 2832              	.LASF22:
 2833 0110 72656164 		.ascii	"read\000"
 2833      00
 2834              	.LASF28:
 2835 0115 66696C6C 		.ascii	"filler\000"
 2835      657200
 2836              	.LASF35:
 2837 011c 2E2E2F2E 		.ascii	"../../os/various/chprintf.c\000"
 2837      2E2F6F73 
 2837      2F766172 
 2837      696F7573 
 2837      2F636870 
 2838              	.LASF34:
 2839 0138 474E5520 		.ascii	"GNU C 4.7.4 20130613 (release) [ARM/embedded-4_7-br"
 2839      4320342E 
 2839      372E3420 
 2839      32303133 
 2839      30363133 
 2840 016b 616E6368 		.ascii	"anch revision 200083]\000"
 2840      20726576 
 2840      6973696F 
 2840      6E203230 
 2840      30303833 
 2841              	.LASF13:
 2842 0181 6C6F6E67 		.ascii	"long long unsigned int\000"
 2842      206C6F6E 
ARM GAS  /tmp/cckjy3CW.s 			page 52


 2842      6720756E 
 2842      7369676E 
 2842      65642069 
 2843              	.LASF25:
 2844 0198 64697669 		.ascii	"divisor\000"
 2844      736F7200 
 2845              	.LASF24:
 2846 01a0 72616469 		.ascii	"radix\000"
 2846      7800
 2847              	.LASF16:
 2848 01a6 6D73675F 		.ascii	"msg_t\000"
 2848      7400
 2849              	.LASF9:
 2850 01ac 696E7433 		.ascii	"int32_t\000"
 2850      325F7400 
 2851              	.LASF17:
 2852 01b4 73697A65 		.ascii	"sizetype\000"
 2852      74797065 
 2852      00
 2853              	.LASF33:
 2854 01bd 746D7062 		.ascii	"tmpbuf\000"
 2854      756600
 2855              	.LASF19:
 2856 01c4 5F5F7661 		.ascii	"__va_list\000"
 2856      5F6C6973 
 2856      7400
 2857              	.LASF12:
 2858 01ce 6C6F6E67 		.ascii	"long long int\000"
 2858      206C6F6E 
 2858      6720696E 
 2858      7400
 2859              	.LASF29:
 2860 01dc 70726563 		.ascii	"precision\000"
 2860      6973696F 
 2860      6E00
 2861              	.LASF18:
 2862 01e6 63686172 		.ascii	"char\000"
 2862      00
 2863              	.LASF32:
 2864 01eb 6C656674 		.ascii	"left_align\000"
 2864      5F616C69 
 2864      676E00
 2865              	.LASF7:
 2866 01f6 73686F72 		.ascii	"short int\000"
 2866      7420696E 
 2866      7400
 2867              	.LASF39:
 2868 0200 756E7369 		.ascii	"unsigned_common\000"
 2868      676E6564 
 2868      5F636F6D 
 2868      6D6F6E00 
 2869              	.LASF10:
 2870 0210 6C6F6E67 		.ascii	"long int\000"
 2870      20696E74 
 2870      00
 2871              	.LASF4:
 2872 0219 7369676E 		.ascii	"signed char\000"
ARM GAS  /tmp/cckjy3CW.s 			page 53


 2872      65642063 
 2872      68617200 
 2873              	.LASF27:
 2874 0225 6C746F61 		.ascii	"ltoa\000"
 2874      00
 2875              	.LASF15:
 2876 022a 5F426F6F 		.ascii	"_Bool\000"
 2876      6C00
 2877              	.LASF20:
 2878 0230 42617365 		.ascii	"BaseSequentialStreamVMT\000"
 2878      53657175 
 2878      656E7469 
 2878      616C5374 
 2878      7265616D 
 2879              		.ident	"GCC: (GNU Tools for ARM Embedded Processors) 4.7.4 20130613 (release) [ARM/embedded-4_7-br
ARM GAS  /tmp/cckjy3CW.s 			page 54


DEFINED SYMBOLS
                            *ABS*:00000000 chprintf.c
     /tmp/cckjy3CW.s:19     .text.long_to_string_with_divisor.constprop.0:00000000 $t
     /tmp/cckjy3CW.s:24     .text.long_to_string_with_divisor.constprop.0:00000000 long_to_string_with_divisor.constprop.0
     /tmp/cckjy3CW.s:120    .text.chprintf:00000000 $t
     /tmp/cckjy3CW.s:126    .text.chprintf:00000000 chprintf
     /tmp/cckjy3CW.s:290    .text.chprintf:000000b8 $d
     /tmp/cckjy3CW.s:346    .text.chprintf:00000122 $t
     /tmp/cckjy3CW.s:847    .rodata.str1.4:00000000 .LC0
     /tmp/cckjy3CW.s:846    .rodata.str1.4:00000000 $d
                     .debug_frame:00000010 $d

NO UNDEFINED SYMBOLS
