ARM GAS  /tmp/cckjy3CW.s 			page 1


   1              		.syntax unified
   2              		.cpu cortex-m4
   3              		.fpu softvfp
   4              		.eabi_attribute 20, 1
   5              		.eabi_attribute 21, 1
   6              		.eabi_attribute 23, 3
   7              		.eabi_attribute 24, 1
   8              		.eabi_attribute 25, 1
   9              		.eabi_attribute 26, 1
  10              		.eabi_attribute 30, 2
  11              		.eabi_attribute 34, 1
  12              		.eabi_attribute 18, 4
  13              		.thumb
  14              		.file	"chprintf.c"
  15              		.text
  16              	.Ltext0:
  17              		.cfi_sections	.debug_frame
  18              		.section	.text.long_to_string_with_divisor.constprop.0,"ax",%progbits
  19              		.align	2
  20              		.p2align 4,,15
  21              		.thumb
  22              		.thumb_func
  23              		.type	long_to_string_with_divisor.constprop.0, %function
  24              	long_to_string_with_divisor.constprop.0:
  25              	.LFB10:
  26              		.file 1 "../../os/various/chprintf.c"
  27              		.loc 1 36 0
  28              		.cfi_startproc
  29              		@ args = 0, pretend = 0, frame = 0
  30              		@ frame_needed = 0, uses_anonymous_args = 0
  31              		@ link register save eliminated.
  32              	.LVL0:
  33 0000 F0B4     		push	{r4, r5, r6, r7}
  34              	.LCFI0:
  35              		.cfi_def_cfa_offset 16
  36              		.cfi_offset 4, -16
  37              		.cfi_offset 5, -12
  38              		.cfi_offset 6, -8
  39              		.cfi_offset 7, -4
  40              		.loc 1 51 0
  41 0002 00F10B0C 		add	ip, r0, #11
  42              		.loc 1 36 0
  43 0006 0746     		mov	r7, r0
  44              	.LVL1:
  45 0008 00F10A05 		add	r5, r0, #10
  46 000c 0C46     		mov	r4, r1
  47              	.LVL2:
  48              	.L3:
  49              		.loc 1 53 0
  50 000e B1FBF2F6 		udiv	r6, r1, r2
  51 0012 02FB1611 		mls	r1, r2, r6, r1
  52              	.LVL3:
  53              		.loc 1 54 0
  54 0016 01F13003 		add	r3, r1, #48
  55              	.LVL4:
  56              		.loc 1 55 0
  57 001a 392B     		cmp	r3, #57
ARM GAS  /tmp/cckjy3CW.s 			page 2


  58              		.loc 1 56 0
  59 001c C8BF     		it	gt
  60 001e 01F13703 		addgt	r3, r1, #55
  61              	.LVL5:
  62              		.loc 1 57 0
  63 0022 DBB2     		uxtb	r3, r3
  64              	.LVL6:
  65              		.loc 1 59 0
  66 0024 B4FBF2F4 		udiv	r4, r4, r2
  67              	.LVL7:
  68              		.loc 1 57 0
  69 0028 2846     		mov	r0, r5
  70              	.LVL8:
  71              		.loc 1 58 0
  72 002a 3146     		mov	r1, r6
  73              	.LVL9:
  74              		.loc 1 57 0
  75 002c 05F80139 		strb	r3, [r5], #-1
  76              	.LVL10:
  77              		.loc 1 59 0
  78 0030 002C     		cmp	r4, #0
  79 0032 ECD1     		bne	.L3
  80              	.LVL11:
  81              		.loc 1 61 0
  82 0034 C0EB0C02 		rsb	r2, r0, ip
  83              	.LVL12:
  84 0038 0146     		mov	r1, r0
  85              	.LVL13:
  86              		.loc 1 36 0
  87 003a B818     		adds	r0, r7, r2
  88              	.LVL14:
  89 003c FA43     		mvns	r2, r7
  90              	.LVL15:
  91 003e 8218     		adds	r2, r0, r2
  92 0040 D207     		lsls	r2, r2, #31
  93 0042 0AD5     		bpl	.L5
  94              	.LVL16:
  95              		.loc 1 63 0
  96 0044 07F8013B 		strb	r3, [r7], #1
  97              	.LVL17:
  98 0048 11F8013F 		ldrb	r3, [r1, #1]!	@ zero_extendqisi2
  99 004c 05E0     		b	.L5
 100              	.L15:
 101 004e 11F8013F 		ldrb	r3, [r1, #1]!	@ zero_extendqisi2
 102              	.LVL18:
 103 0052 7B70     		strb	r3, [r7, #1]
 104 0054 11F8013F 		ldrb	r3, [r1, #1]!	@ zero_extendqisi2
 105 0058 571C     		adds	r7, r2, #1
 106              	.LVL19:
 107              	.L5:
 108 005a 3A46     		mov	r2, r7
 109 005c 02F8013B 		strb	r3, [r2], #1
 110              		.loc 1 64 0
 111 0060 8242     		cmp	r2, r0
 112 0062 F4D1     		bne	.L15
 113              		.loc 1 67 0
 114 0064 F0BC     		pop	{r4, r5, r6, r7}
ARM GAS  /tmp/cckjy3CW.s 			page 3


 115 0066 7047     		bx	lr
 116              		.cfi_endproc
 117              	.LFE10:
 118              		.size	long_to_string_with_divisor.constprop.0, .-long_to_string_with_divisor.constprop.0
 119 0068 AFF30080 		.section	.text.chprintf,"ax",%progbits
 119      AFF30080 
 120              		.align	2
 121              		.p2align 4,,15
 122              		.global	chprintf
 123              		.thumb
 124              		.thumb_func
 125              		.type	chprintf, %function
 126              	chprintf:
 127              	.LFB9:
 128              		.loc 1 108 0
 129              		.cfi_startproc
 130              		@ args = 4, pretend = 12, frame = 24
 131              		@ frame_needed = 0, uses_anonymous_args = 1
 132              	.LVL20:
 133 0000 0EB4     		push	{r1, r2, r3}
 134              	.LCFI1:
 135              		.cfi_def_cfa_offset 12
 136              		.cfi_offset 1, -12
 137              		.cfi_offset 2, -8
 138              		.cfi_offset 3, -4
 139 0002 2DE9F04F 		push	{r4, r5, r6, r7, r8, r9, sl, fp, lr}
 140              	.LCFI2:
 141              		.cfi_def_cfa_offset 48
 142              		.cfi_offset 4, -48
 143              		.cfi_offset 5, -44
 144              		.cfi_offset 6, -40
 145              		.cfi_offset 7, -36
 146              		.cfi_offset 8, -32
 147              		.cfi_offset 9, -28
 148              		.cfi_offset 10, -24
 149              		.cfi_offset 11, -20
 150              		.cfi_offset 14, -16
 151 0006 86B0     		sub	sp, sp, #24
 152              	.LCFI3:
 153              		.cfi_def_cfa_offset 72
 154              		.loc 1 108 0
 155 0008 0FAB     		add	r3, sp, #60
 156              		.loc 1 236 0
 157 000a 0DF10D01 		add	r1, sp, #13
 158              		.loc 1 132 0
 159 000e 0DF10C0B 		add	fp, sp, #12
 160              		.loc 1 108 0
 161 0012 53F8044B 		ldr	r4, [r3], #4
 162              		.loc 1 236 0
 163 0016 0091     		str	r1, [sp, #0]
 164 0018 CBEB010C 		rsb	ip, fp, r1
 165              		.loc 1 121 0
 166 001c 0293     		str	r3, [sp, #8]
 167              		.loc 1 108 0
 168 001e 0546     		mov	r5, r0
 169 0020 CDF804C0 		str	ip, [sp, #4]
 170              	.LVL21:
ARM GAS  /tmp/cckjy3CW.s 			page 4


 171              	.L114:
 172              		.loc 1 123 0
 173 0024 2646     		mov	r6, r4
 174 0026 16F8011B 		ldrb	r1, [r6], #1	@ zero_extendqisi2
 175              	.LVL22:
 176              		.loc 1 124 0
 177 002a 59B1     		cbz	r1, .L113
 178              	.LVL23:
 179              	.L127:
 180              		.loc 1 128 0
 181 002c 2529     		cmp	r1, #37
 182 002e 0ED0     		beq	.L19
 183              		.loc 1 129 0
 184 0030 2C68     		ldr	r4, [r5, #0]
 185 0032 A368     		ldr	r3, [r4, #8]
 186              		.loc 1 123 0
 187 0034 3446     		mov	r4, r6
 188 0036 2646     		mov	r6, r4
 189              	.LVL24:
 190              		.loc 1 129 0
 191 0038 2846     		mov	r0, r5
 192 003a 9847     		blx	r3
 193              	.LVL25:
 194              		.loc 1 123 0
 195 003c 16F8011B 		ldrb	r1, [r6], #1	@ zero_extendqisi2
 196              	.LVL26:
 197              		.loc 1 124 0
 198 0040 0029     		cmp	r1, #0
 199 0042 F3D1     		bne	.L127
 200              	.LVL27:
 201              	.L113:
 202              		.loc 1 261 0
 203 0044 06B0     		add	sp, sp, #24
 204 0046 BDE8F04F 		pop	{r4, r5, r6, r7, r8, r9, sl, fp, lr}
 205 004a 03B0     		add	sp, sp, #12
 206 004c 7047     		bx	lr
 207              	.L19:
 208              	.LVL28:
 209              		.loc 1 135 0
 210 004e 6378     		ldrb	r3, [r4, #1]	@ zero_extendqisi2
 211 0050 2D2B     		cmp	r3, #45
 212 0052 00F07D81 		beq	.L128
 213              		.loc 1 134 0
 214 0056 4FF00008 		mov	r8, #0
 215              	.LVL29:
 216              	.L21:
 217              		.loc 1 140 0
 218 005a 2E2B     		cmp	r3, #46
 219 005c 00F07481 		beq	.L22
 220              		.loc 1 140 0 is_stmt 0 discriminator 1
 221 0060 302B     		cmp	r3, #48
 222 0062 00F07181 		beq	.L22
 223              		.loc 1 139 0 is_stmt 1
 224 0066 2027     		movs	r7, #32
 225              	.LVL30:
 226              	.L23:
 227              		.loc 1 142 0
ARM GAS  /tmp/cckjy3CW.s 			page 5


 228 0068 3446     		mov	r4, r6
 229 006a 0299     		ldr	r1, [sp, #8]
 230              		.loc 1 144 0
 231 006c 0026     		movs	r6, #0
 232              	.LVL31:
 233 006e 06E0     		b	.L26
 234              	.LVL32:
 235              	.L129:
 236              		.loc 1 150 0
 237 0070 0A78     		ldrb	r2, [r1, #0]	@ zero_extendqisi2
 238              	.LVL33:
 239 0072 0431     		adds	r1, r1, #4
 240              	.LVL34:
 241              	.L24:
 242              		.loc 1 153 0
 243 0074 06EB8606 		add	r6, r6, r6, lsl #2
 244              	.LVL35:
 245 0078 2378     		ldrb	r3, [r4, #0]	@ zero_extendqisi2
 246 007a 02EB4606 		add	r6, r2, r6, lsl #1
 247              	.LVL36:
 248              	.L26:
 249              		.loc 1 147 0
 250 007e A3F13002 		sub	r2, r3, #48
 251 0082 D2B2     		uxtb	r2, r2
 252              		.loc 1 146 0
 253 0084 0134     		adds	r4, r4, #1
 254              	.LVL37:
 255              		.loc 1 147 0
 256 0086 092A     		cmp	r2, #9
 257 0088 F4D9     		bls	.L24
 258              		.loc 1 149 0
 259 008a 2A2B     		cmp	r3, #42
 260 008c F0D0     		beq	.L129
 261              		.loc 1 156 0
 262 008e 0020     		movs	r0, #0
 263 0090 2E2B     		cmp	r3, #46
 264 0092 0291     		str	r1, [sp, #8]
 265              	.LVL38:
 266 0094 4BD0     		beq	.L30
 267              	.LVL39:
 268              		.loc 1 170 0
 269 0096 6C2B     		cmp	r3, #108
 270 0098 55D0     		beq	.L31
 271              	.LVL40:
 272              	.L130:
 273              		.loc 1 170 0 is_stmt 0 discriminator 1
 274 009a 4C2B     		cmp	r3, #76
 275 009c 53D0     		beq	.L31
 276              		.loc 1 176 0 is_stmt 1
 277 009e A3F14101 		sub	r1, r3, #65
 278 00a2 1929     		cmp	r1, #25
 279 00a4 8CBF     		ite	hi
 280 00a6 0021     		movhi	r1, #0
 281 00a8 0121     		movls	r1, #1
 282              	.LVL41:
 283              	.L33:
 284              		.loc 1 179 0
ARM GAS  /tmp/cckjy3CW.s 			page 6


 285 00aa A3F14402 		sub	r2, r3, #68
 286 00ae 342A     		cmp	r2, #52
 287 00b0 00F24481 		bhi	.L34
 288 00b4 DFE812F0 		tbh	[pc, r2, lsl #1]
 289              	.L41:
 290 00b8 3301     		.2byte	(.L35-.L41)/2
 291 00ba 4201     		.2byte	(.L34-.L41)/2
 292 00bc 4201     		.2byte	(.L34-.L41)/2
 293 00be 4201     		.2byte	(.L34-.L41)/2
 294 00c0 4201     		.2byte	(.L34-.L41)/2
 295 00c2 3301     		.2byte	(.L35-.L41)/2
 296 00c4 4201     		.2byte	(.L34-.L41)/2
 297 00c6 4201     		.2byte	(.L34-.L41)/2
 298 00c8 4201     		.2byte	(.L34-.L41)/2
 299 00ca 4201     		.2byte	(.L34-.L41)/2
 300 00cc 4201     		.2byte	(.L34-.L41)/2
 301 00ce 3101     		.2byte	(.L36-.L41)/2
 302 00d0 4201     		.2byte	(.L34-.L41)/2
 303 00d2 4201     		.2byte	(.L34-.L41)/2
 304 00d4 4201     		.2byte	(.L34-.L41)/2
 305 00d6 4201     		.2byte	(.L34-.L41)/2
 306 00d8 4201     		.2byte	(.L34-.L41)/2
 307 00da 2901     		.2byte	(.L64-.L41)/2
 308 00dc 4201     		.2byte	(.L34-.L41)/2
 309 00de 4201     		.2byte	(.L34-.L41)/2
 310 00e0 1C01     		.2byte	(.L38-.L41)/2
 311 00e2 4201     		.2byte	(.L34-.L41)/2
 312 00e4 4201     		.2byte	(.L34-.L41)/2
 313 00e6 4201     		.2byte	(.L34-.L41)/2
 314 00e8 4201     		.2byte	(.L34-.L41)/2
 315 00ea 4201     		.2byte	(.L34-.L41)/2
 316 00ec 4201     		.2byte	(.L34-.L41)/2
 317 00ee 4201     		.2byte	(.L34-.L41)/2
 318 00f0 4201     		.2byte	(.L34-.L41)/2
 319 00f2 4201     		.2byte	(.L34-.L41)/2
 320 00f4 4201     		.2byte	(.L34-.L41)/2
 321 00f6 E200     		.2byte	(.L39-.L41)/2
 322 00f8 3301     		.2byte	(.L35-.L41)/2
 323 00fa 4201     		.2byte	(.L34-.L41)/2
 324 00fc 4201     		.2byte	(.L34-.L41)/2
 325 00fe 4201     		.2byte	(.L34-.L41)/2
 326 0100 4201     		.2byte	(.L34-.L41)/2
 327 0102 3301     		.2byte	(.L35-.L41)/2
 328 0104 4201     		.2byte	(.L34-.L41)/2
 329 0106 4201     		.2byte	(.L34-.L41)/2
 330 0108 4201     		.2byte	(.L34-.L41)/2
 331 010a 4201     		.2byte	(.L34-.L41)/2
 332 010c 4201     		.2byte	(.L34-.L41)/2
 333 010e 3101     		.2byte	(.L36-.L41)/2
 334 0110 4201     		.2byte	(.L34-.L41)/2
 335 0112 4201     		.2byte	(.L34-.L41)/2
 336 0114 4201     		.2byte	(.L34-.L41)/2
 337 0116 4F00     		.2byte	(.L40-.L41)/2
 338 0118 4201     		.2byte	(.L34-.L41)/2
 339 011a 2901     		.2byte	(.L64-.L41)/2
 340 011c 4201     		.2byte	(.L34-.L41)/2
 341 011e 4201     		.2byte	(.L34-.L41)/2
ARM GAS  /tmp/cckjy3CW.s 			page 7


 342 0120 1C01     		.2byte	(.L38-.L41)/2
 343              	.LVL42:
 344              	.L29:
 345              		.loc 1 162 0
 346 0122 0A78     		ldrb	r2, [r1, #0]	@ zero_extendqisi2
 347              	.LVL43:
 348 0124 0431     		adds	r1, r1, #4
 349              	.LVL44:
 350              	.L28:
 351              		.loc 1 165 0
 352 0126 00EB8003 		add	r3, r0, r0, lsl #2
 353              	.LVL45:
 354              		.loc 1 166 0
 355 012a 02EB4300 		add	r0, r2, r3, lsl #1
 356              	.LVL46:
 357              	.L30:
 358              		.loc 1 158 0
 359 012e 14F8013B 		ldrb	r3, [r4], #1	@ zero_extendqisi2
 360              	.LVL47:
 361              		.loc 1 159 0
 362 0132 A3F13002 		sub	r2, r3, #48
 363 0136 D2B2     		uxtb	r2, r2
 364 0138 092A     		cmp	r2, #9
 365 013a F4D9     		bls	.L28
 366              		.loc 1 161 0
 367 013c 2A2B     		cmp	r3, #42
 368 013e F0D0     		beq	.L29
 369              		.loc 1 170 0
 370 0140 6C2B     		cmp	r3, #108
 371 0142 0291     		str	r1, [sp, #8]
 372 0144 A9D1     		bne	.L130
 373              	.LVL48:
 374              	.L31:
 375              		.loc 1 172 0
 376 0146 2178     		ldrb	r1, [r4, #0]	@ zero_extendqisi2
 377 0148 0029     		cmp	r1, #0
 378 014a 00F00681 		beq	.L63
 379              	.LVL49:
 380              		.loc 1 173 0
 381 014e 0B46     		mov	r3, r1
 382 0150 0134     		adds	r4, r4, #1
 383              	.LVL50:
 384              		.loc 1 171 0
 385 0152 0121     		movs	r1, #1
 386 0154 A9E7     		b	.L33
 387              	.LVL51:
 388              	.L40:
 389              		.loc 1 186 0
 390 0156 029F     		ldr	r7, [sp, #8]
 391              		.loc 1 187 0
 392 0158 40F20009 		movw	r9, #:lower16:.LC0
 393              		.loc 1 186 0
 394 015c 3B68     		ldr	r3, [r7, #0]
 395              	.LVL52:
 396              		.loc 1 187 0
 397 015e C0F20009 		movt	r9, #:upper16:.LC0
 398 0162 002B     		cmp	r3, #0
ARM GAS  /tmp/cckjy3CW.s 			page 8


 399 0164 18BF     		it	ne
 400 0166 9946     		movne	r9, r3
 401              	.LVL53:
 402              		.loc 1 186 0
 403 0168 391D     		adds	r1, r7, #4
 404              	.LVL54:
 405              		.loc 1 190 0
 406 016a 99F80020 		ldrb	r2, [r9, #0]	@ zero_extendqisi2
 407              	.LVL55:
 408              		.loc 1 186 0
 409 016e 0291     		str	r1, [sp, #8]
 410              		.loc 1 189 0
 411 0170 47F6FF77 		movw	r7, #32767
 412 0174 0028     		cmp	r0, #0
 413 0176 08BF     		it	eq
 414 0178 3846     		moveq	r0, r7
 415              	.LVL56:
 416              		.loc 1 190 0
 417 017a 002A     		cmp	r2, #0
 418 017c 00F00981 		beq	.L67
 419 0180 99F80130 		ldrb	r3, [r9, #1]	@ zero_extendqisi2
 420 0184 411E     		subs	r1, r0, #1
 421 0186 09EB000A 		add	sl, r9, r0
 422              		.loc 1 108 0
 423 018a 09F10102 		add	r2, r9, #1
 424              	.LVL57:
 425 018e 01F00100 		and	r0, r1, #1
 426              		.loc 1 190 0
 427 0192 B3B1     		cbz	r3, .L115
 428 0194 9245     		cmp	sl, r2
 429 0196 1346     		mov	r3, r2
 430 0198 00F0F780 		beq	.L116
 431 019c 60B1     		cbz	r0, .L46
 432 019e 5778     		ldrb	r7, [r2, #1]	@ zero_extendqisi2
 433              		.loc 1 108 0
 434 01a0 0132     		adds	r2, r2, #1
 435              	.LVL58:
 436              		.loc 1 190 0
 437 01a2 77B1     		cbz	r7, .L115
 438 01a4 9245     		cmp	sl, r2
 439 01a6 1346     		mov	r3, r2
 440 01a8 06D1     		bne	.L46
 441 01aa EEE0     		b	.L116
 442              	.L45:
 443              		.loc 1 190 0 is_stmt 0 discriminator 2
 444 01ac 5778     		ldrb	r7, [r2, #1]	@ zero_extendqisi2
 445              		.loc 1 108 0 is_stmt 1 discriminator 2
 446 01ae 0132     		adds	r2, r2, #1
 447              	.LVL59:
 448              		.loc 1 190 0 discriminator 2
 449 01b0 3FB1     		cbz	r7, .L115
 450              		.loc 1 190 0 is_stmt 0
 451 01b2 9A45     		cmp	sl, r3
 452 01b4 00F0E980 		beq	.L116
 453              	.L46:
 454              		.loc 1 190 0 discriminator 1
 455 01b8 5878     		ldrb	r0, [r3, #1]	@ zero_extendqisi2
ARM GAS  /tmp/cckjy3CW.s 			page 9


 456              		.loc 1 108 0 is_stmt 1 discriminator 1
 457 01ba 5A1C     		adds	r2, r3, #1
 458              	.LVL60:
 459 01bc 531C     		adds	r3, r2, #1
 460              		.loc 1 190 0 discriminator 1
 461 01be 0028     		cmp	r0, #0
 462 01c0 F4D1     		bne	.L45
 463              	.LVL61:
 464              	.L115:
 465 01c2 C9EB020A 		rsb	sl, r9, r2
 466              		.loc 1 240 0
 467 01c6 CAEB0606 		rsb	r6, sl, r6
 468              	.LVL62:
 469              		.loc 1 185 0
 470 01ca 2027     		movs	r7, #32
 471              	.LVL63:
 472 01cc 26EAE676 		bic	r6, r6, r6, asr #31
 473              	.LVL64:
 474              		.loc 1 242 0
 475 01d0 B8F1000F 		cmp	r8, #0
 476 01d4 63D0     		beq	.L131
 477              	.LVL65:
 478              	.L52:
 479              		.loc 1 253 0 discriminator 1
 480 01d6 BAF1000F 		cmp	sl, #0
 481 01da 27DD     		ble	.L58
 482              		.loc 1 254 0
 483 01dc C846     		mov	r8, r9
 484 01de 2868     		ldr	r0, [r5, #0]
 485 01e0 18F8011B 		ldrb	r1, [r8], #1	@ zero_extendqisi2
 486 01e4 8368     		ldr	r3, [r0, #8]
 487              		.loc 1 108 0
 488 01e6 CA44     		add	sl, r9, sl
 489              	.LVL66:
 490 01e8 6FEA0909 		mvn	r9, r9
 491              	.LVL67:
 492 01ec 0AEB0902 		add	r2, sl, r9
 493              		.loc 1 254 0
 494 01f0 2846     		mov	r0, r5
 495 01f2 02F00109 		and	r9, r2, #1
 496              	.LVL68:
 497 01f6 9847     		blx	r3
 498              	.LVL69:
 499              		.loc 1 253 0
 500 01f8 D045     		cmp	r8, sl
 501 01fa 17D0     		beq	.L58
 502 01fc B9F1000F 		cmp	r9, #0
 503 0200 03D0     		beq	.L57
 504              	.LVL70:
 505              		.loc 1 254 0
 506 0202 2868     		ldr	r0, [r5, #0]
 507 0204 18F8011B 		ldrb	r1, [r8], #1	@ zero_extendqisi2
 508 0208 0BE0     		b	.L126
 509              	.L57:
 510 020a 2868     		ldr	r0, [r5, #0]
 511 020c C146     		mov	r9, r8
 512 020e 8268     		ldr	r2, [r0, #8]
ARM GAS  /tmp/cckjy3CW.s 			page 10


 513 0210 19F8011B 		ldrb	r1, [r9], #1	@ zero_extendqisi2
 514 0214 2846     		mov	r0, r5
 515 0216 9047     		blx	r2
 516              	.LVL71:
 517 0218 2868     		ldr	r0, [r5, #0]
 518 021a 98F80110 		ldrb	r1, [r8, #1]	@ zero_extendqisi2
 519 021e 09F10108 		add	r8, r9, #1
 520              	.L126:
 521 0222 8368     		ldr	r3, [r0, #8]
 522 0224 2846     		mov	r0, r5
 523 0226 9847     		blx	r3
 524              	.LVL72:
 525              		.loc 1 253 0
 526 0228 D045     		cmp	r8, sl
 527 022a EED1     		bne	.L57
 528              	.L58:
 529              	.LVL73:
 530              		.loc 1 256 0
 531 022c 002E     		cmp	r6, #0
 532 022e 3FF4F9AE 		beq	.L114
 533              		.loc 1 257 0
 534 0232 2968     		ldr	r1, [r5, #0]
 535 0234 731E     		subs	r3, r6, #1
 536 0236 8A68     		ldr	r2, [r1, #8]
 537              		.loc 1 256 0
 538 0238 1E46     		mov	r6, r3
 539              	.LVL74:
 540              		.loc 1 257 0
 541 023a 2846     		mov	r0, r5
 542 023c 3946     		mov	r1, r7
 543 023e 03F00108 		and	r8, r3, #1
 544 0242 9047     		blx	r2
 545              	.LVL75:
 546              		.loc 1 256 0
 547 0244 002E     		cmp	r6, #0
 548 0246 3FF4EDAE 		beq	.L114
 549 024a B8F1000F 		cmp	r8, #0
 550 024e 07D0     		beq	.L75
 551              		.loc 1 257 0
 552 0250 2968     		ldr	r1, [r5, #0]
 553 0252 2846     		mov	r0, r5
 554 0254 8B68     		ldr	r3, [r1, #8]
 555 0256 3946     		mov	r1, r7
 556 0258 9847     		blx	r3
 557              	.LVL76:
 558              		.loc 1 256 0
 559 025a 013E     		subs	r6, r6, #1
 560 025c 3FF4E2AE 		beq	.L114
 561              	.L75:
 562              		.loc 1 257 0
 563 0260 2868     		ldr	r0, [r5, #0]
 564 0262 3946     		mov	r1, r7
 565 0264 8268     		ldr	r2, [r0, #8]
 566 0266 2846     		mov	r0, r5
 567 0268 9047     		blx	r2
 568              	.LVL77:
 569 026a 2968     		ldr	r1, [r5, #0]
ARM GAS  /tmp/cckjy3CW.s 			page 11


 570              		.loc 1 258 0
 571 026c 013E     		subs	r6, r6, #1
 572              		.loc 1 257 0
 573 026e 8B68     		ldr	r3, [r1, #8]
 574 0270 2846     		mov	r0, r5
 575 0272 3946     		mov	r1, r7
 576 0274 9847     		blx	r3
 577              	.LVL78:
 578              		.loc 1 256 0
 579 0276 013E     		subs	r6, r6, #1
 580 0278 F2D1     		bne	.L75
 581 027a D3E6     		b	.L114
 582              	.LVL79:
 583              	.L39:
 584              		.loc 1 182 0
 585 027c 0298     		ldr	r0, [sp, #8]
 586              	.LVL80:
 587 027e DDF804A0 		ldr	sl, [sp, #4]
 588 0282 0268     		ldr	r2, [r0, #0]
 589 0284 011D     		adds	r1, r0, #4
 590              	.LVL81:
 591 0286 0291     		str	r1, [sp, #8]
 592 0288 8DF80C20 		strb	r2, [sp, #12]
 593              	.LVL82:
 594              		.loc 1 181 0
 595 028c 2027     		movs	r7, #32
 596              		.loc 1 133 0
 597 028e D946     		mov	r9, fp
 598              	.LVL83:
 599              	.L42:
 600              		.loc 1 240 0
 601 0290 CAEB0606 		rsb	r6, sl, r6
 602              	.LVL84:
 603 0294 26EAE676 		bic	r6, r6, r6, asr #31
 604              	.LVL85:
 605              		.loc 1 242 0
 606 0298 B8F1000F 		cmp	r8, #0
 607 029c 9BD1     		bne	.L52
 608              	.LVL86:
 609              	.L131:
 610              		.loc 1 243 0
 611 029e 7642     		negs	r6, r6
 612              	.LVL87:
 613              		.loc 1 244 0
 614 02a0 002E     		cmp	r6, #0
 615 02a2 98D0     		beq	.L52
 616              		.loc 1 245 0
 617 02a4 99F80010 		ldrb	r1, [r9, #0]	@ zero_extendqisi2
 618 02a8 2D29     		cmp	r1, #45
 619 02aa 63D0     		beq	.L132
 620              	.L100:
 621              		.loc 1 250 0
 622 02ac 2968     		ldr	r1, [r5, #0]
 623 02ae F243     		mvns	r2, r6
 624 02b0 8B68     		ldr	r3, [r1, #8]
 625 02b2 2846     		mov	r0, r5
 626 02b4 3946     		mov	r1, r7
ARM GAS  /tmp/cckjy3CW.s 			page 12


 627 02b6 02F00108 		and	r8, r2, #1
 628              	.LVL88:
 629 02ba 9847     		blx	r3
 630              	.LVL89:
 631              		.loc 1 251 0
 632 02bc 0136     		adds	r6, r6, #1
 633              	.LVL90:
 634 02be 8AD0     		beq	.L52
 635 02c0 B8F1000F 		cmp	r8, #0
 636 02c4 06D0     		beq	.L76
 637              		.loc 1 250 0
 638 02c6 2968     		ldr	r1, [r5, #0]
 639 02c8 2846     		mov	r0, r5
 640 02ca 8A68     		ldr	r2, [r1, #8]
 641 02cc 3946     		mov	r1, r7
 642 02ce 9047     		blx	r2
 643              	.LVL91:
 644              		.loc 1 251 0
 645 02d0 0136     		adds	r6, r6, #1
 646              	.LVL92:
 647 02d2 80D0     		beq	.L52
 648              	.L76:
 649              		.loc 1 250 0 discriminator 1
 650 02d4 2868     		ldr	r0, [r5, #0]
 651 02d6 3946     		mov	r1, r7
 652 02d8 8368     		ldr	r3, [r0, #8]
 653 02da 2846     		mov	r0, r5
 654 02dc 9847     		blx	r3
 655              	.LVL93:
 656 02de 2968     		ldr	r1, [r5, #0]
 657              		.loc 1 251 0 discriminator 1
 658 02e0 0136     		adds	r6, r6, #1
 659              	.LVL94:
 660              		.loc 1 250 0 discriminator 1
 661 02e2 8A68     		ldr	r2, [r1, #8]
 662 02e4 2846     		mov	r0, r5
 663 02e6 3946     		mov	r1, r7
 664 02e8 9047     		blx	r2
 665              	.LVL95:
 666              		.loc 1 251 0 discriminator 1
 667 02ea 0136     		adds	r6, r6, #1
 668              	.LVL96:
 669 02ec F2D1     		bne	.L76
 670 02ee 72E7     		b	.L52
 671              	.LVL97:
 672              	.L38:
 673              		.loc 1 179 0
 674 02f0 1022     		movs	r2, #16
 675              	.LVL98:
 676              	.L37:
 677              		.loc 1 230 0
 678 02f2 029B     		ldr	r3, [sp, #8]
 679              		.loc 1 229 0
 680 02f4 69B1     		cbz	r1, .L50
 681              	.L133:
 682              		.loc 1 230 0
 683 02f6 191D     		adds	r1, r3, #4
ARM GAS  /tmp/cckjy3CW.s 			page 13


 684              	.LVL99:
 685 02f8 0291     		str	r1, [sp, #8]
 686 02fa 1968     		ldr	r1, [r3, #0]
 687              	.LVL100:
 688              	.L51:
 689              	.LBB6:
 690              	.LBB7:
 691              		.loc 1 71 0
 692 02fc 5846     		mov	r0, fp
 693 02fe FFF7FEFF 		bl	long_to_string_with_divisor.constprop.0
 694              	.LVL101:
 695              	.LBE7:
 696              	.LBE6:
 697              		.loc 1 133 0
 698 0302 D946     		mov	r9, fp
 699 0304 CBEB000A 		rsb	sl, fp, r0
 700              		.loc 1 234 0
 701 0308 C2E7     		b	.L42
 702              	.LVL102:
 703              	.L64:
 704              		.loc 1 179 0
 705 030a 0A22     		movs	r2, #10
 706              	.LVL103:
 707              		.loc 1 230 0
 708 030c 029B     		ldr	r3, [sp, #8]
 709              		.loc 1 229 0
 710 030e 0029     		cmp	r1, #0
 711 0310 F1D1     		bne	.L133
 712              	.L50:
 713              		.loc 1 232 0
 714 0312 181D     		adds	r0, r3, #4
 715              	.LVL104:
 716 0314 1968     		ldr	r1, [r3, #0]
 717              	.LVL105:
 718 0316 0290     		str	r0, [sp, #8]
 719 0318 F0E7     		b	.L51
 720              	.LVL106:
 721              	.L36:
 722 031a 0822     		movs	r2, #8
 723 031c E9E7     		b	.L37
 724              	.LVL107:
 725              	.L35:
 726              		.loc 1 198 0
 727 031e 029B     		ldr	r3, [sp, #8]
 728              	.LVL108:
 729 0320 1A1D     		adds	r2, r3, #4
 730              	.LVL109:
 731              		.loc 1 197 0
 732 0322 E1B9     		cbnz	r1, .L134
 733              		.loc 1 200 0
 734 0324 1968     		ldr	r1, [r3, #0]
 735              	.LVL110:
 736 0326 0292     		str	r2, [sp, #8]
 737              		.loc 1 201 0
 738 0328 0029     		cmp	r1, #0
 739 032a 1CDB     		blt	.L135
 740              	.L68:
ARM GAS  /tmp/cckjy3CW.s 			page 14


 741              		.loc 1 132 0
 742 032c 5846     		mov	r0, fp
 743              	.LVL111:
 744              	.L49:
 745              	.LBB8:
 746              	.LBB9:
 747              		.loc 1 71 0
 748 032e 0A22     		movs	r2, #10
 749 0330 FFF7FEFF 		bl	long_to_string_with_divisor.constprop.0
 750              	.LVL112:
 751              	.LBE9:
 752              	.LBE8:
 753              		.loc 1 133 0
 754 0334 D946     		mov	r9, fp
 755 0336 CBEB000A 		rsb	sl, fp, r0
 756              		.loc 1 206 0
 757 033a A9E7     		b	.L42
 758              	.LVL113:
 759              	.L34:
 760              		.loc 1 236 0
 761 033c 8DF80C30 		strb	r3, [sp, #12]
 762              	.LVL114:
 763 0340 DDF804A0 		ldr	sl, [sp, #4]
 764              		.loc 1 133 0
 765 0344 D946     		mov	r9, fp
 766              		.loc 1 237 0
 767 0346 A3E7     		b	.L42
 768              	.LVL115:
 769              	.L22:
 770 0348 7378     		ldrb	r3, [r6, #1]	@ zero_extendqisi2
 771              		.loc 1 142 0
 772 034a 3027     		movs	r7, #48
 773              		.loc 1 141 0
 774 034c 0136     		adds	r6, r6, #1
 775              	.LVL116:
 776 034e 8BE6     		b	.L23
 777              	.LVL117:
 778              	.L128:
 779              		.loc 1 136 0
 780 0350 A61C     		adds	r6, r4, #2
 781              	.LVL118:
 782 0352 A378     		ldrb	r3, [r4, #2]	@ zero_extendqisi2
 783              		.loc 1 137 0
 784 0354 4FF00108 		mov	r8, #1
 785 0358 7FE6     		b	.L21
 786              	.LVL119:
 787              	.L63:
 788              		.loc 1 171 0
 789 035a 0121     		movs	r1, #1
 790 035c A5E6     		b	.L33
 791              	.LVL120:
 792              	.L134:
 793              		.loc 1 198 0
 794 035e 1968     		ldr	r1, [r3, #0]
 795              	.LVL121:
 796 0360 0292     		str	r2, [sp, #8]
 797              		.loc 1 201 0
ARM GAS  /tmp/cckjy3CW.s 			page 15


 798 0362 0029     		cmp	r1, #0
 799 0364 E2DA     		bge	.L68
 800              	.L135:
 801              		.loc 1 202 0
 802 0366 2D20     		movs	r0, #45
 803              	.LVL122:
 804 0368 8DF80C00 		strb	r0, [sp, #12]
 805              	.LVL123:
 806              		.loc 1 203 0
 807 036c 4942     		negs	r1, r1
 808              	.LVL124:
 809              		.loc 1 202 0
 810 036e 0DF10D00 		add	r0, sp, #13
 811 0372 DCE7     		b	.L49
 812              	.LVL125:
 813              	.L132:
 814              		.loc 1 245 0 discriminator 1
 815 0374 302F     		cmp	r7, #48
 816 0376 99D1     		bne	.L100
 817              		.loc 1 246 0
 818 0378 2B68     		ldr	r3, [r5, #0]
 819 037a 2846     		mov	r0, r5
 820 037c 9A68     		ldr	r2, [r3, #8]
 821 037e 9047     		blx	r2
 822              	.LVL126:
 823 0380 09F10109 		add	r9, r9, #1
 824              	.LVL127:
 825              		.loc 1 247 0
 826 0384 0AF1FF3A 		add	sl, sl, #-1
 827              	.LVL128:
 828 0388 90E7     		b	.L100
 829              	.LVL129:
 830              	.L116:
 831 038a C9EB0A0A 		rsb	sl, r9, sl
 832              		.loc 1 185 0
 833 038e 2027     		movs	r7, #32
 834 0390 7EE7     		b	.L42
 835              	.LVL130:
 836              	.L67:
 837              		.loc 1 190 0
 838 0392 9246     		mov	sl, r2
 839              		.loc 1 185 0
 840 0394 2027     		movs	r7, #32
 841 0396 7BE7     		b	.L42
 842              		.cfi_endproc
 843              	.LFE9:
 844              		.size	chprintf, .-chprintf
 845 0398 AFF30080 		.section	.rodata.str1.4,"aMS",%progbits,1
 845      AFF30080 
 846              		.align	2
 847              	.LC0:
 848 0000 286E756C 		.ascii	"(null)\000"
 848      6C2900
 849 0007 00       		.text
 850              	.Letext0:
 851              		.file 2 "/usr/bin/../lib/gcc/arm-none-eabi/4.7.4/include/stdarg.h"
 852              		.file 3 "/usr/bin/../lib/gcc/arm-none-eabi/4.7.4/include/stddef.h"
ARM GAS  /tmp/cckjy3CW.s 			page 16


 853              		.file 4 "/usr/bin/../lib/gcc/arm-none-eabi/4.7.4/../../../../arm-none-eabi/include/stdint.h"
 854              		.file 5 "../../os/ports/GCC/ARMCMx/chtypes.h"
 855              		.file 6 "<built-in>"
 856              		.file 7 "../../os/kernel/include/chstreams.h"