ARM GAS  /tmp/cctN5WbY.s 			page 1


   1              		.syntax unified
   2              		.cpu cortex-m4
   3              		.fpu softvfp
   4              		.eabi_attribute 20, 1
   5              		.eabi_attribute 21, 1
   6              		.eabi_attribute 23, 3
   7              		.eabi_attribute 24, 1
   8              		.eabi_attribute 25, 1
   9              		.eabi_attribute 26, 1
  10              		.eabi_attribute 30, 2
  11              		.eabi_attribute 34, 1
  12              		.eabi_attribute 18, 4
  13              		.thumb
  14              		.file	"main.c"
  15              		.text
  16              	.Ltext0:
  17              		.cfi_sections	.debug_frame
  18              		.section	.text.Thread1,"ax",%progbits
  19              		.align	2
  20              		.p2align 4,,15
  21              		.thumb
  22              		.thumb_func
  23              		.type	Thread1, %function
  24              	Thread1:
  25              	.LFB121:
  26              		.file 1 "main.c"
  27              		.loc 1 154 0
  28              		.cfi_startproc
  29              		@ args = 0, pretend = 0, frame = 0
  30              		@ frame_needed = 0, uses_anonymous_args = 0
  31              	.LVL0:
  32 0000 F8B5     		push	{r3, r4, r5, r6, r7, lr}
  33              	.LCFI0:
  34              		.cfi_def_cfa_offset 24
  35              		.cfi_offset 3, -24
  36              		.cfi_offset 4, -20
  37              		.cfi_offset 5, -16
  38              		.cfi_offset 6, -12
  39              		.cfi_offset 7, -8
  40              		.cfi_offset 14, -4
  41              		.loc 1 159 0
  42 0002 494B     		ldr	r3, .L11
  43 0004 494A     		ldr	r2, .L11+4
  44 0006 9969     		ldr	r1, [r3, #24]
  45              		.loc 1 162 0
  46 0008 4948     		ldr	r0, .L11+8
  47              	.LVL1:
  48              		.loc 1 159 0
  49 000a 8A61     		str	r2, [r1, #24]
  50              		.loc 1 162 0
  51 000c 2021     		movs	r1, #32
  52 000e 4322     		movs	r2, #67
  53 0010 FFF7FEFF 		bl	lis302dlWriteRegister
  54              	.LVL2:
  55              		.loc 1 163 0
  56 0014 4648     		ldr	r0, .L11+8
  57 0016 474D     		ldr	r5, .L11+12
ARM GAS  /tmp/cctN5WbY.s 			page 2


  58 0018 474C     		ldr	r4, .L11+16
  59 001a 2121     		movs	r1, #33
  60 001c 0022     		movs	r2, #0
  61 001e FFF7FEFF 		bl	lis302dlWriteRegister
  62              	.LVL3:
  63              		.loc 1 164 0
  64 0022 4348     		ldr	r0, .L11+8
  65 0024 2221     		movs	r1, #34
  66 0026 0022     		movs	r2, #0
  67 0028 FFF7FEFF 		bl	lis302dlWriteRegister
  68              	.LVL4:
  69              		.loc 1 167 0
  70 002c 4348     		ldr	r0, .L11+20
  71 002e C668     		ldr	r6, [r0, #12]
  72              	.LVL5:
  73 0030 19E0     		b	.L8
  74              	.LVL6:
  75              	.L4:
  76              	.LBB2:
  77              		.loc 1 200 0
  78 0032 0221     		movs	r1, #2
  79 0034 9AB2     		uxth	r2, r3
  80 0036 4248     		ldr	r0, .L11+24
  81 0038 FFF7FEFF 		bl	pwmEnableChannel
  82              	.LVL7:
  83              		.loc 1 201 0
  84 003c 0021     		movs	r1, #0
  85 003e 4048     		ldr	r0, .L11+24
  86 0040 0A46     		mov	r2, r1
  87 0042 FFF7FEFF 		bl	pwmEnableChannel
  88              	.LVL8:
  89              		.loc 1 203 0
  90 0046 002F     		cmp	r7, #0
  91 0048 62DB     		blt	.L10
  92              	.L6:
  93              		.loc 1 208 0
  94 004a 3D48     		ldr	r0, .L11+24
  95 004c 0321     		movs	r1, #3
  96 004e BAB2     		uxth	r2, r7
  97 0050 FFF7FEFF 		bl	pwmEnableChannel
  98              	.LVL9:
  99              		.loc 1 209 0
 100 0054 3A48     		ldr	r0, .L11+24
 101 0056 0121     		movs	r1, #1
 102 0058 0022     		movs	r2, #0
 103 005a FFF7FEFF 		bl	pwmEnableChannel
 104              	.LVL10:
 105              	.L7:
 106              		.loc 1 213 0
 107 005e 6436     		adds	r6, r6, #100
 108              	.LVL11:
 109 0060 3046     		mov	r0, r6
 110 0062 FFF7FEFF 		bl	chThdSleepUntil
 111              	.LVL12:
 112              	.L8:
 113              		.loc 1 174 0
 114 0066 A978     		ldrb	r1, [r5, #2]	@ zero_extendqisi2
ARM GAS  /tmp/cctN5WbY.s 			page 3


 115              		.loc 1 175 0
 116 0068 94F802C0 		ldrb	ip, [r4, #2]	@ zero_extendqisi2
 117              		.loc 1 174 0
 118 006c 95F801E0 		ldrb	lr, [r5, #1]	@ zero_extendqisi2
 119              		.loc 1 175 0
 120 0070 2378     		ldrb	r3, [r4, #0]	@ zero_extendqisi2
 121              		.loc 1 174 0
 122 0072 2A78     		ldrb	r2, [r5, #0]	@ zero_extendqisi2
 123              		.loc 1 175 0
 124 0074 6778     		ldrb	r7, [r4, #1]	@ zero_extendqisi2
 125              		.loc 1 174 0
 126 0076 E970     		strb	r1, [r5, #3]
 127              		.loc 1 179 0
 128 0078 2D48     		ldr	r0, .L11+8
 129              		.loc 1 175 0
 130 007a 6370     		strb	r3, [r4, #1]
 131              		.loc 1 179 0
 132 007c 2921     		movs	r1, #41
 133              		.loc 1 175 0
 134 007e 84F803C0 		strb	ip, [r4, #3]
 135              	.LVL13:
 136              		.loc 1 174 0
 137 0082 85F802E0 		strb	lr, [r5, #2]
 138 0086 6A70     		strb	r2, [r5, #1]
 139              		.loc 1 175 0
 140 0088 A770     		strb	r7, [r4, #2]
 141              	.LVL14:
 142              		.loc 1 179 0
 143 008a FFF7FEFF 		bl	lis302dlReadRegister
 144              	.LVL15:
 145              		.loc 1 180 0
 146 008e 2B21     		movs	r1, #43
 147              		.loc 1 179 0
 148 0090 2870     		strb	r0, [r5, #0]
 149              		.loc 1 180 0
 150 0092 2748     		ldr	r0, .L11+8
 151 0094 FFF7FEFF 		bl	lis302dlReadRegister
 152              	.LVL16:
 153 0098 2070     		strb	r0, [r4, #0]
 154              		.loc 1 183 0
 155 009a 2A48     		ldr	r0, .L11+28
 156 009c FFF7FEFF 		bl	spiSelect
 157              	.LVL17:
 158              		.loc 1 184 0
 159 00a0 0421     		movs	r1, #4
 160 00a2 2848     		ldr	r0, .L11+28
 161 00a4 234A     		ldr	r2, .L11+12
 162 00a6 FFF7FEFF 		bl	spiSend
 163              	.LVL18:
 164              		.loc 1 185 0
 165 00aa 0421     		movs	r1, #4
 166 00ac 224A     		ldr	r2, .L11+16
 167 00ae 2548     		ldr	r0, .L11+28
 168 00b0 FFF7FEFF 		bl	spiSend
 169              	.LVL19:
 170              		.loc 1 186 0
 171 00b4 2348     		ldr	r0, .L11+28
ARM GAS  /tmp/cctN5WbY.s 			page 4


 172 00b6 FFF7FEFF 		bl	spiUnselect
 173              	.LVL20:
 174              		.loc 1 189 0
 175 00ba 95F90000 		ldrsb	r0, [r5, #0]
 176 00be 95F90170 		ldrsb	r7, [r5, #1]
 177              		.loc 1 190 0
 178 00c2 95F90210 		ldrsb	r1, [r5, #2]
 179 00c6 95F90330 		ldrsb	r3, [r5, #3]
 180              		.loc 1 189 0
 181 00ca C219     		adds	r2, r0, r7
 182 00cc 5018     		adds	r0, r2, r1
 183 00ce C218     		adds	r2, r0, r3
 184              		.loc 1 191 0
 185 00d0 94F90070 		ldrsb	r7, [r4, #0]
 186 00d4 94F90130 		ldrsb	r3, [r4, #1]
 187              		.loc 1 192 0
 188 00d8 94F90200 		ldrsb	r0, [r4, #2]
 189 00dc 94F90310 		ldrsb	r1, [r4, #3]
 190              		.loc 1 191 0
 191 00e0 1F44     		add	r7, r7, r3
 192 00e2 07EB0003 		add	r3, r7, r0
 193              		.loc 1 189 0
 194 00e6 48BF     		it	mi
 195 00e8 0332     		addmi	r2, r2, #3
 196 00ea 9710     		asrs	r7, r2, #2
 197              	.LVL21:
 198              		.loc 1 191 0
 199 00ec 5A18     		adds	r2, r3, r1
 200 00ee 48BF     		it	mi
 201 00f0 0332     		addmi	r2, r2, #3
 202              	.LVL22:
 203              		.loc 1 195 0
 204 00f2 9310     		asrs	r3, r2, #2
 205              	.LVL23:
 206 00f4 9DD5     		bpl	.L4
 207              		.loc 1 196 0
 208 00f6 5842     		negs	r0, r3
 209 00f8 82B2     		uxth	r2, r0
 210 00fa 0021     		movs	r1, #0
 211 00fc 1048     		ldr	r0, .L11+24
 212 00fe FFF7FEFF 		bl	pwmEnableChannel
 213              	.LVL24:
 214              		.loc 1 197 0
 215 0102 0221     		movs	r1, #2
 216 0104 0022     		movs	r2, #0
 217 0106 0E48     		ldr	r0, .L11+24
 218 0108 FFF7FEFF 		bl	pwmEnableChannel
 219              	.LVL25:
 220              		.loc 1 203 0
 221 010c 002F     		cmp	r7, #0
 222 010e 9CDA     		bge	.L6
 223              	.L10:
 224              		.loc 1 204 0
 225 0110 7942     		negs	r1, r7
 226 0112 8AB2     		uxth	r2, r1
 227 0114 0A48     		ldr	r0, .L11+24
 228 0116 0121     		movs	r1, #1
ARM GAS  /tmp/cctN5WbY.s 			page 5


 229 0118 FFF7FEFF 		bl	pwmEnableChannel
 230              	.LVL26:
 231              		.loc 1 205 0
 232 011c 0848     		ldr	r0, .L11+24
 233 011e 0321     		movs	r1, #3
 234 0120 0022     		movs	r2, #0
 235 0122 FFF7FEFF 		bl	pwmEnableChannel
 236              	.LVL27:
 237 0126 9AE7     		b	.L7
 238              	.L12:
 239              		.align	2
 240              	.L11:
 241 0128 00000000 		.word	rlist
 242 012c 00000000 		.word	.LC0
 243 0130 00000000 		.word	SPID1
 244 0134 00000000 		.word	.LANCHOR0
 245 0138 00000000 		.word	.LANCHOR1
 246 013c 00000000 		.word	vtlist
 247 0140 00000000 		.word	PWMD4
 248 0144 00000000 		.word	SPID2
 249              	.LBE2:
 250              		.cfi_endproc
 251              	.LFE121:
 252              		.size	Thread1, .-Thread1
 253              		.section	.text.cmd_test,"ax",%progbits
 254              		.align	2
 255              		.p2align 4,,15
 256              		.thumb
 257              		.thumb_func
 258              		.type	cmd_test, %function
 259              	cmd_test:
 260              	.LFB120:
 261              		.loc 1 71 0
 262              		.cfi_startproc
 263              		@ args = 0, pretend = 0, frame = 0
 264              		@ frame_needed = 0, uses_anonymous_args = 0
 265              	.LVL28:
 266 0000 10B5     		push	{r4, lr}
 267              	.LCFI1:
 268              		.cfi_def_cfa_offset 8
 269              		.cfi_offset 4, -8
 270              		.cfi_offset 14, -4
 271              		.loc 1 75 0
 272 0002 0029     		cmp	r1, #0
 273              		.loc 1 71 0
 274 0004 82B0     		sub	sp, sp, #8
 275              	.LCFI2:
 276              		.cfi_def_cfa_offset 16
 277              		.loc 1 71 0
 278 0006 0446     		mov	r4, r0
 279              		.loc 1 75 0
 280 0008 05DD     		ble	.L14
 281              		.loc 1 76 0
 282 000a 0E49     		ldr	r1, .L17
 283              	.LVL29:
 284              		.loc 1 86 0
 285 000c 02B0     		add	sp, sp, #8
ARM GAS  /tmp/cctN5WbY.s 			page 6


 286 000e BDE81040 		pop	{r4, lr}
 287              		.loc 1 76 0
 288 0012 FFF7FEBF 		b	chprintf
 289              	.LVL30:
 290              	.L14:
 291              	.LBB5:
 292              	.LBB6:
 293              		.loc 1 79 0
 294 0016 0C4A     		ldr	r2, .L17+4
 295              	.LVL31:
 296 0018 0C4B     		ldr	r3, .L17+8
 297 001a 9069     		ldr	r0, [r2, #24]
 298              	.LVL32:
 299 001c 4FF4D871 		mov	r1, #432
 300              	.LVL33:
 301 0020 8268     		ldr	r2, [r0, #8]
 302 0022 0094     		str	r4, [sp, #0]
 303 0024 0020     		movs	r0, #0
 304 0026 FFF7FEFF 		bl	chThdCreateFromHeap
 305              	.LVL34:
 306              		.loc 1 81 0
 307 002a 20B1     		cbz	r0, .L16
 308              	.LBE6:
 309              	.LBE5:
 310              		.loc 1 86 0
 311 002c 02B0     		add	sp, sp, #8
 312 002e BDE81040 		pop	{r4, lr}
 313              	.LBB9:
 314              	.LBB7:
 315              		.loc 1 85 0
 316 0032 FFF7FEBF 		b	chThdWait
 317              	.LVL35:
 318              	.L16:
 319              		.loc 1 82 0
 320 0036 0649     		ldr	r1, .L17+12
 321 0038 2046     		mov	r0, r4
 322              	.LVL36:
 323              	.LBE7:
 324              	.LBE9:
 325              		.loc 1 86 0
 326 003a 02B0     		add	sp, sp, #8
 327 003c BDE81040 		pop	{r4, lr}
 328              	.LBB10:
 329              	.LBB8:
 330              		.loc 1 82 0
 331 0040 FFF7FEBF 		b	chprintf
 332              	.LVL37:
 333              	.L18:
 334              		.align	2
 335              	.L17:
 336 0044 08000000 		.word	.LC1
 337 0048 00000000 		.word	rlist
 338 004c 00000000 		.word	TestThread
 339 0050 18000000 		.word	.LC2
 340              	.LBE8:
 341              	.LBE10:
 342              		.cfi_endproc
ARM GAS  /tmp/cctN5WbY.s 			page 7


 343              	.LFE120:
 344              		.size	cmd_test, .-cmd_test
 345 0054 AFF30080 		.section	.text.cmd_threads,"ax",%progbits
 345      AFF30080 
 345      AFF30080 
 346              		.align	2
 347              		.p2align 4,,15
 348              		.thumb
 349              		.thumb_func
 350              		.type	cmd_threads, %function
 351              	cmd_threads:
 352              	.LFB119:
 353              		.loc 1 51 0
 354              		.cfi_startproc
 355              		@ args = 0, pretend = 0, frame = 0
 356              		@ frame_needed = 0, uses_anonymous_args = 0
 357              	.LVL38:
 358 0000 F0B5     		push	{r4, r5, r6, r7, lr}
 359              	.LCFI3:
 360              		.cfi_def_cfa_offset 20
 361              		.cfi_offset 4, -20
 362              		.cfi_offset 5, -16
 363              		.cfi_offset 6, -12
 364              		.cfi_offset 7, -8
 365              		.cfi_offset 14, -4
 366              		.loc 1 56 0
 367 0002 0029     		cmp	r1, #0
 368              		.loc 1 51 0
 369 0004 85B0     		sub	sp, sp, #20
 370              	.LCFI4:
 371              		.cfi_def_cfa_offset 40
 372              		.loc 1 51 0
 373 0006 0646     		mov	r6, r0
 374              		.loc 1 56 0
 375 0008 05DD     		ble	.L20
 376              		.loc 1 57 0
 377 000a 1349     		ldr	r1, .L23
 378              	.LVL39:
 379              		.loc 1 69 0
 380 000c 05B0     		add	sp, sp, #20
 381 000e BDE8F040 		pop	{r4, r5, r6, r7, lr}
 382              		.loc 1 57 0
 383 0012 FFF7FEBF 		b	chprintf
 384              	.LVL40:
 385              	.L20:
 386              	.LBB13:
 387              	.LBB14:
 388              		.loc 1 60 0
 389 0016 1149     		ldr	r1, .L23+4
 390              	.LVL41:
 391 0018 114F     		ldr	r7, .L23+8
 392 001a FFF7FEFF 		bl	chprintf
 393              	.LVL42:
 394              		.loc 1 61 0
 395 001e FFF7FEFF 		bl	chRegFirstThread
 396              	.LVL43:
 397 0022 0446     		mov	r4, r0
ARM GAS  /tmp/cctN5WbY.s 			page 8


 398              	.LVL44:
 399              	.L21:
 400              		.loc 1 63 0
 401 0024 A268     		ldr	r2, [r4, #8]
 402 0026 E368     		ldr	r3, [r4, #12]
 403 0028 256A     		ldr	r5, [r4, #32]
 404 002a 0092     		str	r2, [sp, #0]
 405              		.loc 1 65 0
 406 002c A07F     		ldrb	r0, [r4, #30]	@ zero_extendqisi2
 407              	.LVL45:
 408              		.loc 1 63 0
 409 002e 0D49     		ldr	r1, .L23+12
 410              		.loc 1 65 0
 411 0030 421E     		subs	r2, r0, #1
 412              		.loc 1 63 0
 413 0032 0192     		str	r2, [sp, #4]
 414 0034 207F     		ldrb	r0, [r4, #28]	@ zero_extendqisi2
 415 0036 0395     		str	r5, [sp, #12]
 416 0038 57F82050 		ldr	r5, [r7, r0, lsl #2]
 417 003c 2246     		mov	r2, r4
 418 003e 3046     		mov	r0, r6
 419 0040 0295     		str	r5, [sp, #8]
 420 0042 FFF7FEFF 		bl	chprintf
 421              	.LVL46:
 422              		.loc 1 67 0
 423 0046 2046     		mov	r0, r4
 424 0048 FFF7FEFF 		bl	chRegNextThread
 425              	.LVL47:
 426              		.loc 1 68 0
 427 004c 0446     		mov	r4, r0
 428 004e 0028     		cmp	r0, #0
 429 0050 E8D1     		bne	.L21
 430              	.LBE14:
 431              	.LBE13:
 432              		.loc 1 69 0
 433 0052 05B0     		add	sp, sp, #20
 434 0054 F0BD     		pop	{r4, r5, r6, r7, pc}
 435              	.L24:
 436 0056 00BF     		.align	2
 437              	.L23:
 438 0058 28000000 		.word	.LC3
 439 005c 3C000000 		.word	.LC4
 440 0060 00000000 		.word	.LANCHOR2
 441 0064 6C000000 		.word	.LC5
 442              		.cfi_endproc
 443              	.LFE119:
 444              		.size	cmd_threads, .-cmd_threads
 445 0068 AFF30080 		.section	.text.cmd_mem,"ax",%progbits
 445      AFF30080 
 446              		.align	2
 447              		.p2align 4,,15
 448              		.thumb
 449              		.thumb_func
 450              		.type	cmd_mem, %function
 451              	cmd_mem:
 452              	.LFB118:
 453              		.loc 1 37 0
ARM GAS  /tmp/cctN5WbY.s 			page 9


 454              		.cfi_startproc
 455              		@ args = 0, pretend = 0, frame = 8
 456              		@ frame_needed = 0, uses_anonymous_args = 0
 457              	.LVL48:
 458 0000 30B5     		push	{r4, r5, lr}
 459              	.LCFI5:
 460              		.cfi_def_cfa_offset 12
 461              		.cfi_offset 4, -12
 462              		.cfi_offset 5, -8
 463              		.cfi_offset 14, -4
 464              		.loc 1 41 0
 465 0002 0029     		cmp	r1, #0
 466              		.loc 1 37 0
 467 0004 83B0     		sub	sp, sp, #12
 468              	.LCFI6:
 469              		.cfi_def_cfa_offset 24
 470              		.loc 1 37 0
 471 0006 0446     		mov	r4, r0
 472              		.loc 1 41 0
 473 0008 04DD     		ble	.L26
 474              		.loc 1 42 0
 475 000a 0E49     		ldr	r1, .L28
 476              	.LVL49:
 477 000c FFF7FEFF 		bl	chprintf
 478              	.LVL50:
 479              	.L25:
 480              		.loc 1 49 0
 481 0010 03B0     		add	sp, sp, #12
 482 0012 30BD     		pop	{r4, r5, pc}
 483              	.LVL51:
 484              	.L26:
 485              	.LBB17:
 486              	.LBB18:
 487              		.loc 1 45 0
 488 0014 01A9     		add	r1, sp, #4
 489              	.LVL52:
 490 0016 0020     		movs	r0, #0
 491              	.LVL53:
 492 0018 FFF7FEFF 		bl	chHeapStatus
 493              	.LVL54:
 494 001c 0546     		mov	r5, r0
 495              	.LVL55:
 496              		.loc 1 46 0
 497 001e FFF7FEFF 		bl	chCoreStatus
 498              	.LVL56:
 499 0022 0949     		ldr	r1, .L28+4
 500 0024 0246     		mov	r2, r0
 501 0026 2046     		mov	r0, r4
 502 0028 FFF7FEFF 		bl	chprintf
 503              	.LVL57:
 504              		.loc 1 47 0
 505 002c 2046     		mov	r0, r4
 506 002e 2A46     		mov	r2, r5
 507 0030 0649     		ldr	r1, .L28+8
 508 0032 FFF7FEFF 		bl	chprintf
 509              	.LVL58:
 510              		.loc 1 48 0
ARM GAS  /tmp/cctN5WbY.s 			page 10


 511 0036 2046     		mov	r0, r4
 512 0038 0549     		ldr	r1, .L28+12
 513              	.LVL59:
 514 003a 019A     		ldr	r2, [sp, #4]
 515 003c FFF7FEFF 		bl	chprintf
 516              	.LVL60:
 517 0040 E6E7     		b	.L25
 518              	.L29:
 519 0042 00BF     		.align	2
 520              	.L28:
 521 0044 8C000000 		.word	.LC6
 522 0048 9C000000 		.word	.LC7
 523 004c BC000000 		.word	.LC8
 524 0050 D4000000 		.word	.LC9
 525              	.LBE18:
 526              	.LBE17:
 527              		.cfi_endproc
 528              	.LFE118:
 529              		.size	cmd_mem, .-cmd_mem
 530 0054 AFF30080 		.section	.text.startup.main,"ax",%progbits
 530      AFF30080 
 530      AFF30080 
 531              		.align	2
 532              		.p2align 4,,15
 533              		.global	main
 534              		.thumb
 535              		.thumb_func
 536              		.type	main, %function
 537              	main:
 538              	.LFB122:
 539              		.loc 1 224 0
 540              		.cfi_startproc
 541              		@ args = 0, pretend = 0, frame = 0
 542              		@ frame_needed = 0, uses_anonymous_args = 0
 543              	.LVL61:
 544 0000 70B5     		push	{r4, r5, r6, lr}
 545              	.LCFI7:
 546              		.cfi_def_cfa_offset 16
 547              		.cfi_offset 4, -16
 548              		.cfi_offset 5, -12
 549              		.cfi_offset 6, -8
 550              		.cfi_offset 14, -4
 551 0002 594D     		ldr	r5, .L36
 552              		.loc 1 246 0
 553 0004 594C     		ldr	r4, .L36+4
 554              		.loc 1 224 0
 555 0006 82B0     		sub	sp, sp, #8
 556              	.LCFI8:
 557              		.cfi_def_cfa_offset 24
 558              		.loc 1 234 0
 559 0008 FFF7FEFF 		bl	halInit
 560              	.LVL62:
 561              		.loc 1 235 0
 562 000c FFF7FEFF 		bl	chSysInit
 563              	.LVL63:
 564              		.loc 1 240 0
 565 0010 FFF7FEFF 		bl	shellInit
ARM GAS  /tmp/cctN5WbY.s 			page 11


 566              	.LVL64:
 567              		.loc 1 245 0
 568 0014 2846     		mov	r0, r5
 569 0016 FFF7FEFF 		bl	sduObjectInit
 570              	.LVL65:
 571              		.loc 1 246 0
 572 001a 2146     		mov	r1, r4
 573 001c 2846     		mov	r0, r5
 574 001e FFF7FEFF 		bl	sduStart
 575              	.LVL66:
 576              		.loc 1 253 0
 577 0022 2368     		ldr	r3, [r4, #0]
 578 0024 196D     		ldr	r1, [r3, #80]
 579 0026 8A6B     		ldr	r2, [r1, #56]
 580 0028 22F40026 		bic	r6, r2, #524288
 581 002c 8E63     		str	r6, [r1, #56]
 582              		.loc 1 254 0
 583 002e 4FF47A70 		mov	r0, #1000
 584 0032 FFF7FEFF 		bl	chThdSleep
 585              	.LVL67:
 586              		.loc 1 255 0
 587 0036 2068     		ldr	r0, [r4, #0]
 588 0038 4D49     		ldr	r1, .L36+8
 589 003a FFF7FEFF 		bl	usbStart
 590              	.LVL68:
 591              		.loc 1 256 0
 592 003e 2468     		ldr	r4, [r4, #0]
 593              		.loc 1 262 0
 594 0040 4C48     		ldr	r0, .L36+12
 595              		.loc 1 256 0
 596 0042 236D     		ldr	r3, [r4, #80]
 597 0044 996B     		ldr	r1, [r3, #56]
 598 0046 41F40022 		orr	r2, r1, #524288
 599 004a 9A63     		str	r2, [r3, #56]
 600              		.loc 1 262 0
 601 004c 0021     		movs	r1, #0
 602 004e FFF7FEFF 		bl	sdStart
 603              	.LVL69:
 604              		.loc 1 263 0
 605 0052 0020     		movs	r0, #0
 606 0054 C4F20200 		movt	r0, 16386
 607 0058 0421     		movs	r1, #4
 608 005a 40F28232 		movw	r2, #898
 609 005e FFF7FEFF 		bl	_pal_lld_setgroupmode
 610              	.LVL70:
 611              		.loc 1 264 0
 612 0062 0020     		movs	r0, #0
 613 0064 40F28232 		movw	r2, #898
 614 0068 C4F20200 		movt	r0, 16386
 615 006c 0821     		movs	r1, #8
 616              		.loc 1 280 0
 617 006e 4FF48064 		mov	r4, #1024
 618              		.loc 1 264 0
 619 0072 FFF7FEFF 		bl	_pal_lld_setgroupmode
 620              	.LVL71:
 621              		.loc 1 280 0
 622 0076 C4F20204 		movt	r4, 16386
ARM GAS  /tmp/cctN5WbY.s 			page 12


 623              		.loc 1 270 0
 624 007a 3F48     		ldr	r0, .L36+16
 625 007c 3F49     		ldr	r1, .L36+20
 626 007e FFF7FEFF 		bl	spiStart
 627              	.LVL72:
 628              		.loc 1 280 0
 629 0082 4FF48056 		mov	r6, #4096
 630              		.loc 1 279 0
 631 0086 3E48     		ldr	r0, .L36+24
 632 0088 3E49     		ldr	r1, .L36+28
 633 008a FFF7FEFF 		bl	spiStart
 634              	.LVL73:
 635              		.loc 1 281 0
 636 008e 2046     		mov	r0, r4
 637 0090 3146     		mov	r1, r6
 638 0092 1922     		movs	r2, #25
 639              		.loc 1 280 0
 640 0094 2683     		strh	r6, [r4, #24]	@ movhi
 641              		.loc 1 281 0
 642 0096 FFF7FEFF 		bl	_pal_lld_setgroupmode
 643              	.LVL74:
 644              		.loc 1 283 0
 645 009a 2046     		mov	r0, r4
 646 009c 4FF40051 		mov	r1, #8192
 647 00a0 40F29A22 		movw	r2, #666
 648 00a4 FFF7FEFF 		bl	_pal_lld_setgroupmode
 649              	.LVL75:
 650              		.loc 1 285 0
 651 00a8 2046     		mov	r0, r4
 652 00aa 4FF48041 		mov	r1, #16384
 653 00ae 40F28222 		movw	r2, #642
 654 00b2 FFF7FEFF 		bl	_pal_lld_setgroupmode
 655              	.LVL76:
 656              		.loc 1 286 0
 657 00b6 2046     		mov	r0, r4
 658 00b8 40F29A22 		movw	r2, #666
 659 00bc 4FF40041 		mov	r1, #32768
 660 00c0 FFF7FEFF 		bl	_pal_lld_setgroupmode
 661              	.LVL77:
 662              		.loc 1 292 0
 663 00c4 3048     		ldr	r0, .L36+32
 664 00c6 3149     		ldr	r1, .L36+36
 665 00c8 FFF7FEFF 		bl	pwmStart
 666              	.LVL78:
 667              		.loc 1 293 0
 668 00cc 4FF44060 		mov	r0, #3072
 669 00d0 C4F20200 		movt	r0, 16386
 670 00d4 3146     		mov	r1, r6
 671 00d6 4FF48172 		mov	r2, #258
 672 00da FFF7FEFF 		bl	_pal_lld_setgroupmode
 673              	.LVL79:
 674              		.loc 1 294 0
 675 00de 4FF44060 		mov	r0, #3072
 676 00e2 C4F20200 		movt	r0, 16386
 677 00e6 4FF40051 		mov	r1, #8192
 678 00ea 4FF48172 		mov	r2, #258
 679 00ee FFF7FEFF 		bl	_pal_lld_setgroupmode
ARM GAS  /tmp/cctN5WbY.s 			page 13


 680              	.LVL80:
 681              		.loc 1 295 0
 682 00f2 4FF44060 		mov	r0, #3072
 683 00f6 C4F20200 		movt	r0, 16386
 684 00fa 4FF48041 		mov	r1, #16384
 685 00fe 4FF48172 		mov	r2, #258
 686 0102 FFF7FEFF 		bl	_pal_lld_setgroupmode
 687              	.LVL81:
 688              		.loc 1 296 0
 689 0106 4FF44060 		mov	r0, #3072
 690 010a C4F20200 		movt	r0, 16386
 691 010e 4FF40041 		mov	r1, #32768
 692 0112 4FF48172 		mov	r2, #258
 693              		.loc 1 301 0
 694 0116 0024     		movs	r4, #0
 695              		.loc 1 296 0
 696 0118 FFF7FEFF 		bl	_pal_lld_setgroupmode
 697              	.LVL82:
 698              		.loc 1 301 0
 699 011c 0094     		str	r4, [sp, #0]
 700 011e 1C48     		ldr	r0, .L36+40
 701 0120 1C4B     		ldr	r3, .L36+44
 702 0122 4FF49871 		mov	r1, #304
 703 0126 4A22     		movs	r2, #74
 704 0128 FFF7FEFF 		bl	chThdCreateStatic
 705              	.LVL83:
 706              		.loc 1 309 0
 707 012c 44B1     		cbz	r4, .L34
 708              	.L31:
 709              		.loc 1 317 0
 710 012e 207F     		ldrb	r0, [r4, #28]	@ zero_extendqisi2
 711 0130 0E28     		cmp	r0, #14
 712 0132 13D0     		beq	.L35
 713              	.LVL84:
 714              	.L32:
 715              		.loc 1 323 0
 716 0134 4FF4FA70 		mov	r0, #500
 717 0138 FFF7FEFF 		bl	chThdSleep
 718              	.LVL85:
 719              		.loc 1 309 0
 720 013c 002C     		cmp	r4, #0
 721 013e F6D1     		bne	.L31
 722              	.L34:
 723              		.loc 1 310 0
 724 0140 D5F85432 		ldr	r3, [r5, #596]
 725 0144 1968     		ldr	r1, [r3, #0]
 726 0146 0A78     		ldrb	r2, [r1, #0]	@ zero_extendqisi2
 727 0148 042A     		cmp	r2, #4
 728 014a F3D1     		bne	.L32
 729              		.loc 1 312 0
 730 014c 1248     		ldr	r0, .L36+48
 731 014e 4FF40B61 		mov	r1, #2224
 732 0152 4022     		movs	r2, #64
 733 0154 FFF7FEFF 		bl	shellCreate
 734              	.LVL86:
 735 0158 0446     		mov	r4, r0
 736              	.LVL87:
ARM GAS  /tmp/cctN5WbY.s 			page 14


 737 015a EBE7     		b	.L32
 738              	.LVL88:
 739              	.L35:
 740              		.loc 1 319 0
 741 015c 2046     		mov	r0, r4
 742 015e FFF7FEFF 		bl	chThdRelease
 743              	.LVL89:
 744              		.loc 1 320 0
 745 0162 0024     		movs	r4, #0
 746 0164 E6E7     		b	.L32
 747              	.L37:
 748 0166 00BF     		.align	2
 749              	.L36:
 750 0168 00000000 		.word	.LANCHOR3
 751 016c 00000000 		.word	serusbcfg
 752 0170 00000000 		.word	usbcfg
 753 0174 00000000 		.word	SD2
 754 0178 00000000 		.word	SPID1
 755 017c 00000000 		.word	.LANCHOR4
 756 0180 00000000 		.word	SPID2
 757 0184 00000000 		.word	.LANCHOR5
 758 0188 00000000 		.word	PWMD4
 759 018c 00000000 		.word	.LANCHOR6
 760 0190 00000000 		.word	.LANCHOR7
 761 0194 00000000 		.word	Thread1
 762 0198 00000000 		.word	.LANCHOR8
 763              		.cfi_endproc
 764              	.LFE122:
 765              		.size	main, .-main
 766              		.global	SDU1
 767 019c AFF30080 		.section	.rodata.commands,"a",%progbits
 768              		.align	2
 769              		.type	commands, %object
 770              		.size	commands, 32
 771              	commands:
 772 0000 78010000 		.word	.LC25
 773 0004 00000000 		.word	cmd_mem
 774 0008 7C010000 		.word	.LC26
 775 000c 00000000 		.word	cmd_threads
 776 0010 84010000 		.word	.LC27
 777 0014 00000000 		.word	cmd_test
 778 0018 00000000 		.word	0
 779 001c 00000000 		.word	0
 780              		.section	.rodata.spi2cfg,"a",%progbits
 781              		.align	2
 782              		.set	.LANCHOR5,. + 0
 783              		.type	spi2cfg, %object
 784              		.size	spi2cfg, 12
 785              	spi2cfg:
 786 0000 00000000 		.word	0
 787 0004 00040240 		.word	1073873920
 788 0008 0C00     		.short	12
 789 000a 0000     		.short	0
 790              		.section	.bss.waThread1,"aw",%nobits
 791              		.align	3
 792              		.set	.LANCHOR7,. + 0
 793              		.type	waThread1, %object
ARM GAS  /tmp/cctN5WbY.s 			page 15


 794              		.size	waThread1, 304
 795              	waThread1:
 796 0000 00000000 		.space	304
 796      00000000 
 796      00000000 
 796      00000000 
 796      00000000 
 797              		.section	.bss.ybuf.7092,"aw",%nobits
 798              		.align	2
 799              		.set	.LANCHOR1,. + 0
 800              		.type	ybuf.7092, %object
 801              		.size	ybuf.7092, 4
 802              	ybuf.7092:
 803 0000 00000000 		.space	4
 804              		.section	.bss.SDU1,"aw",%nobits
 805              		.align	2
 806              		.set	.LANCHOR3,. + 0
 807              		.type	SDU1, %object
 808              		.size	SDU1, 600
 809              	SDU1:
 810 0000 00000000 		.space	600
 810      00000000 
 810      00000000 
 810      00000000 
 810      00000000 
 811              		.section	.rodata.spi1cfg,"a",%progbits
 812              		.align	2
 813              		.set	.LANCHOR4,. + 0
 814              		.type	spi1cfg, %object
 815              		.size	spi1cfg, 12
 816              	spi1cfg:
 817 0000 00000000 		.word	0
 818 0004 00100240 		.word	1073876992
 819 0008 0300     		.short	3
 820 000a 1B00     		.short	27
 821              		.section	.rodata.states.7072,"a",%progbits
 822              		.align	2
 823              		.set	.LANCHOR2,. + 0
 824              		.type	states.7072, %object
 825              		.size	states.7072, 60
 826              	states.7072:
 827 0000 F4000000 		.word	.LC10
 828 0004 FC000000 		.word	.LC11
 829 0008 04010000 		.word	.LC12
 830 000c 10010000 		.word	.LC13
 831 0010 18010000 		.word	.LC14
 832 0014 20010000 		.word	.LC15
 833 0018 28010000 		.word	.LC16
 834 001c 34010000 		.word	.LC17
 835 0020 3C010000 		.word	.LC18
 836 0024 44010000 		.word	.LC19
 837 0028 50010000 		.word	.LC20
 838 002c 58010000 		.word	.LC21
 839 0030 60010000 		.word	.LC22
 840 0034 68010000 		.word	.LC23
 841 0038 70010000 		.word	.LC24
 842              		.section	.rodata.str1.4,"aMS",%progbits,1
ARM GAS  /tmp/cctN5WbY.s 			page 16


 843              		.align	2
 844              	.LC0:
 845 0000 72656164 		.ascii	"reader\000"
 845      657200
 846 0007 00       		.space	1
 847              	.LC1:
 848 0008 55736167 		.ascii	"Usage: test\015\012\000"
 848      653A2074 
 848      6573740D 
 848      0A00
 849 0016 0000     		.space	2
 850              	.LC2:
 851 0018 6F757420 		.ascii	"out of memory\015\012\000"
 851      6F66206D 
 851      656D6F72 
 851      790D0A00 
 852              	.LC3:
 853 0028 55736167 		.ascii	"Usage: threads\015\012\000"
 853      653A2074 
 853      68726561 
 853      64730D0A 
 853      00
 854 0039 000000   		.space	3
 855              	.LC4:
 856 003c 20202020 		.ascii	"    addr    stack prio refs     state time\015\012\000"
 856      61646472 
 856      20202020 
 856      73746163 
 856      6B207072 
 857 0069 000000   		.space	3
 858              	.LC5:
 859 006c 252E386C 		.ascii	"%.8lx %.8lx %4lu %4lu %9s %lu\015\012\000"
 859      7820252E 
 859      386C7820 
 859      25346C75 
 859      2025346C 
 860              	.LC6:
 861 008c 55736167 		.ascii	"Usage: mem\015\012\000"
 861      653A206D 
 861      656D0D0A 
 861      00
 862 0099 000000   		.space	3
 863              	.LC7:
 864 009c 636F7265 		.ascii	"core free memory : %u bytes\015\012\000"
 864      20667265 
 864      65206D65 
 864      6D6F7279 
 864      203A2025 
 865 00ba 0000     		.space	2
 866              	.LC8:
 867 00bc 68656170 		.ascii	"heap fragments   : %u\015\012\000"
 867      20667261 
 867      676D656E 
 867      74732020 
 867      203A2025 
 868              	.LC9:
 869 00d4 68656170 		.ascii	"heap free total  : %u bytes\015\012\000"
ARM GAS  /tmp/cctN5WbY.s 			page 17


 869      20667265 
 869      6520746F 
 869      74616C20 
 869      203A2025 
 870 00f2 0000     		.space	2
 871              	.LC10:
 872 00f4 52454144 		.ascii	"READY\000"
 872      5900
 873 00fa 0000     		.space	2
 874              	.LC11:
 875 00fc 43555252 		.ascii	"CURRENT\000"
 875      454E5400 
 876              	.LC12:
 877 0104 53555350 		.ascii	"SUSPENDED\000"
 877      454E4445 
 877      4400
 878 010e 0000     		.space	2
 879              	.LC13:
 880 0110 57545345 		.ascii	"WTSEM\000"
 880      4D00
 881 0116 0000     		.space	2
 882              	.LC14:
 883 0118 57544D54 		.ascii	"WTMTX\000"
 883      5800
 884 011e 0000     		.space	2
 885              	.LC15:
 886 0120 5754434F 		.ascii	"WTCOND\000"
 886      4E4400
 887 0127 00       		.space	1
 888              	.LC16:
 889 0128 534C4545 		.ascii	"SLEEPING\000"
 889      50494E47 
 889      00
 890 0131 000000   		.space	3
 891              	.LC17:
 892 0134 57544558 		.ascii	"WTEXIT\000"
 892      495400
 893 013b 00       		.space	1
 894              	.LC18:
 895 013c 57544F52 		.ascii	"WTOREVT\000"
 895      45565400 
 896              	.LC19:
 897 0144 5754414E 		.ascii	"WTANDEVT\000"
 897      44455654 
 897      00
 898 014d 000000   		.space	3
 899              	.LC20:
 900 0150 534E444D 		.ascii	"SNDMSGQ\000"
 900      53475100 
 901              	.LC21:
 902 0158 534E444D 		.ascii	"SNDMSG\000"
 902      534700
 903 015f 00       		.space	1
 904              	.LC22:
 905 0160 57544D53 		.ascii	"WTMSG\000"
 905      4700
 906 0166 0000     		.space	2
ARM GAS  /tmp/cctN5WbY.s 			page 18


 907              	.LC23:
 908 0168 57545155 		.ascii	"WTQUEUE\000"
 908      45554500 
 909              	.LC24:
 910 0170 46494E41 		.ascii	"FINAL\000"
 910      4C00
 911 0176 0000     		.space	2
 912              	.LC25:
 913 0178 6D656D00 		.ascii	"mem\000"
 914              	.LC26:
 915 017c 74687265 		.ascii	"threads\000"
 915      61647300 
 916              	.LC27:
 917 0184 74657374 		.ascii	"test\000"
 917      00
 918 0189 000000   		.section	.rodata.pwmcfg,"a",%progbits
 919              		.align	2
 920              		.set	.LANCHOR6,. + 0
 921              		.type	pwmcfg, %object
 922              		.size	pwmcfg, 48
 923              	pwmcfg:
 924 0000 A0860100 		.word	100000
 925 0004 8000     		.short	128
 926 0006 0000     		.space	2
 927 0008 00000000 		.word	0
 928 000c 01000000 		.word	1
 929 0010 00000000 		.word	0
 930 0014 01000000 		.word	1
 931 0018 00000000 		.word	0
 932 001c 01000000 		.word	1
 933 0020 00000000 		.word	0
 934 0024 01000000 		.word	1
 935 0028 00000000 		.word	0
 936 002c 0000     		.short	0
 937 002e 0000     		.space	2
 938              		.section	.bss.xbuf.7091,"aw",%nobits
 939              		.align	2
 940              		.set	.LANCHOR0,. + 0
 941              		.type	xbuf.7091, %object
 942              		.size	xbuf.7091, 4
 943              	xbuf.7091:
 944 0000 00000000 		.space	4
 945              		.section	.rodata.shell_cfg1,"a",%progbits
 946              		.align	2
 947              		.set	.LANCHOR8,. + 0
 948              		.type	shell_cfg1, %object
 949              		.size	shell_cfg1, 8
 950              	shell_cfg1:
 951 0000 00000000 		.word	SDU1
 952 0004 00000000 		.word	commands
 953              		.text
 954              	.Letext0:
 955              		.file 2 "/usr/bin/../lib/gcc/arm-none-eabi/4.7.4/include/stddef.h"
 956              		.file 3 "/usr/bin/../lib/gcc/arm-none-eabi/4.7.4/../../../../arm-none-eabi/include/stdint.h"
 957              		.file 4 "../../os/ports/GCC/ARMCMx/chtypes.h"
 958              		.file 5 "../../os/kernel/include/chlists.h"
 959              		.file 6 "../../os/kernel/include/chthreads.h"
ARM GAS  /tmp/cctN5WbY.s 			page 19


 960              		.file 7 "../../os/ports/GCC/ARMCMx/chcore_v7m.h"
 961              		.file 8 "../../os/kernel/include/chvt.h"
 962              		.file 9 "../../os/kernel/include/chschd.h"
 963              		.file 10 "../../os/kernel/include/chmtx.h"
 964              		.file 11 "../../os/kernel/include/chevents.h"
 965              		.file 12 "../../os/kernel/include/chmemcore.h"
 966              		.file 13 "../../os/kernel/include/chheap.h"
 967              		.file 14 "../../os/kernel/include/chqueues.h"
 968              		.file 15 "../../os/kernel/include/chstreams.h"
 969              		.file 16 "../../os/hal/platforms/STM32F4xx/stm32f4xx.h"
 970              		.file 17 "../../os/hal/platforms/STM32/stm32.h"
 971              		.file 18 "../../os/hal/platforms/STM32F4xx/stm32_dma.h"
 972              		.file 19 "../../os/hal/platforms/STM32/GPIOv2/pal_lld.h"
 973              		.file 20 "../../os/hal/include/pwm.h"
 974              		.file 21 "../../os/hal/platforms/STM32/pwm_lld.h"
 975              		.file 22 "../../os/hal/include/serial.h"
 976              		.file 23 "../../os/hal/platforms/STM32/USARTv1/serial_lld.h"
 977              		.file 24 "../../os/hal/include/spi.h"
 978              		.file 25 "../../os/hal/platforms/STM32/SPIv1/spi_lld.h"
 979              		.file 26 "../../os/hal/include/usb.h"
 980              		.file 27 "../../os/hal/platforms/STM32/OTGv1/usb_lld.h"
 981              		.file 28 "../../os/hal/platforms/STM32/OTGv1/stm32_otg.h"
 982              		.file 29 "../../os/hal/include/serial_usb.h"
 983              		.file 30 "../../os/various/shell.h"
 984              		.file 31 "../../os/ports/common/ARMCMx/CMSIS/include/core_cm4.h"
 985              		.file 32 "usbcfg.h"
 986              		.file 33 "../../os/various/devices_lib/accel/lis302dl.h"
 987              		.file 34 "../../os/kernel/include/chdynamic.h"
 988              		.file 35 "../../os/various/chprintf.h"
 989              		.file 36 "../../os/kernel/include/chregistry.h"
 990              		.file 37 "../../os/hal/include/hal.h"
 991              		.file 38 "../../os/kernel/include/chsys.h"