ARM GAS  /tmp/ccbcFCY2.s 			page 1


   1              		.syntax unified
   2              		.cpu cortex-m4
   3              		.fpu softvfp
   4              		.eabi_attribute 20, 1
   5              		.eabi_attribute 21, 1
   6              		.eabi_attribute 23, 3
   7              		.eabi_attribute 24, 1
   8              		.eabi_attribute 25, 1
   9              		.eabi_attribute 26, 1
  10              		.eabi_attribute 30, 2
  11              		.eabi_attribute 34, 1
  12              		.eabi_attribute 18, 4
  13              		.thumb
  14              		.file	"pwm_lld.c"
  15              		.text
  16              	.Ltext0:
  17              		.cfi_sections	.debug_frame
  18              		.section	.text.VectorB8,"ax",%progbits
  19              		.align	2
  20              		.p2align 4,,15
  21              		.global	VectorB8
  22              		.thumb
  23              		.thumb_func
  24              		.type	VectorB8, %function
  25              	VectorB8:
  26              	.LFB119:
  27              		.file 1 "../../os/hal/platforms/STM32/pwm_lld.c"
  28              		.loc 1 236 0
  29              		.cfi_startproc
  30              		@ args = 0, pretend = 0, frame = 0
  31              		@ frame_needed = 0, uses_anonymous_args = 0
  32              	.LVL0:
  33 0000 38B5     		push	{r3, r4, r5, lr}
  34              	.LCFI0:
  35              		.cfi_def_cfa_offset 16
  36              		.cfi_offset 3, -16
  37              		.cfi_offset 4, -12
  38              		.cfi_offset 5, -8
  39              		.cfi_offset 14, -4
  40              	.LBB4:
  41              	.LBB5:
  42              		.loc 1 115 0
  43 0002 1C4D     		ldr	r5, .L27
  44 0004 2B69     		ldr	r3, [r5, #16]
  45 0006 1A8A     		ldrh	r2, [r3, #16]
  46              	.LVL1:
  47              		.loc 1 116 0
  48 0008 9C89     		ldrh	r4, [r3, #12]
  49 000a A4B2     		uxth	r4, r4
  50 000c 1440     		ands	r4, r4, r2
  51              	.LVL2:
  52              		.loc 1 117 0
  53 000e E143     		mvns	r1, r4
  54              		.loc 1 118 0
  55 0010 04F00200 		and	r0, r4, #2
  56              		.loc 1 117 0
  57 0014 89B2     		uxth	r1, r1
ARM GAS  /tmp/ccbcFCY2.s 			page 2


  58              		.loc 1 118 0
  59 0016 82B2     		uxth	r2, r0
  60              		.loc 1 117 0
  61 0018 1982     		strh	r1, [r3, #16]	@ movhi
  62              		.loc 1 118 0
  63 001a 002A     		cmp	r2, #0
  64 001c 24D1     		bne	.L23
  65              	.L2:
  66              		.loc 1 120 0
  67 001e 04F00400 		and	r0, r4, #4
  68 0022 82B2     		uxth	r2, r0
  69 0024 DAB9     		cbnz	r2, .L24
  70              	.L3:
  71              		.loc 1 122 0
  72 0026 04F00800 		and	r0, r4, #8
  73 002a 82B2     		uxth	r2, r0
  74 002c 92B9     		cbnz	r2, .L25
  75              	.L4:
  76              		.loc 1 124 0
  77 002e 04F01000 		and	r0, r4, #16
  78 0032 82B2     		uxth	r2, r0
  79 0034 4AB9     		cbnz	r2, .L26
  80              	.L5:
  81              		.loc 1 126 0
  82 0036 E307     		lsls	r3, r4, #31
  83 0038 03D5     		bpl	.L6
  84              		.loc 1 127 0
  85 003a 6A68     		ldr	r2, [r5, #4]
  86 003c 0D48     		ldr	r0, .L27
  87 003e 9368     		ldr	r3, [r2, #8]
  88 0040 9847     		blx	r3
  89              	.LVL3:
  90              	.L6:
  91              	.LBE5:
  92              	.LBE4:
  93              		.loc 1 243 0
  94 0042 BDE83840 		pop	{r3, r4, r5, lr}
  95              		.loc 1 242 0
  96 0046 FFF7FEBF 		b	_port_irq_epilogue
  97              	.LVL4:
  98              	.L26:
  99              	.LBB7:
 100              	.LBB6:
 101              		.loc 1 125 0
 102 004a 6B68     		ldr	r3, [r5, #4]
 103 004c 0948     		ldr	r0, .L27
 104 004e 996A     		ldr	r1, [r3, #40]
 105 0050 8847     		blx	r1
 106              	.LVL5:
 107 0052 F0E7     		b	.L5
 108              	.L25:
 109              		.loc 1 123 0
 110 0054 6B68     		ldr	r3, [r5, #4]
 111 0056 0748     		ldr	r0, .L27
 112 0058 196A     		ldr	r1, [r3, #32]
 113 005a 8847     		blx	r1
 114              	.LVL6:
ARM GAS  /tmp/ccbcFCY2.s 			page 3


 115 005c E7E7     		b	.L4
 116              	.L24:
 117              		.loc 1 121 0
 118 005e 6B68     		ldr	r3, [r5, #4]
 119 0060 0448     		ldr	r0, .L27
 120 0062 9969     		ldr	r1, [r3, #24]
 121 0064 8847     		blx	r1
 122              	.LVL7:
 123 0066 DEE7     		b	.L3
 124              	.L23:
 125              		.loc 1 119 0
 126 0068 6B68     		ldr	r3, [r5, #4]
 127 006a 2846     		mov	r0, r5
 128 006c 1969     		ldr	r1, [r3, #16]
 129 006e 8847     		blx	r1
 130              	.LVL8:
 131 0070 D5E7     		b	.L2
 132              	.L28:
 133 0072 00BF     		.align	2
 134              	.L27:
 135 0074 00000000 		.word	.LANCHOR0
 136              	.LBE6:
 137              	.LBE7:
 138              		.cfi_endproc
 139              	.LFE119:
 140              		.size	VectorB8, .-VectorB8
 141 0078 AFF30080 		.section	.text.pwm_lld_init,"ax",%progbits
 141      AFF30080 
 142              		.align	2
 143              		.p2align 4,,15
 144              		.global	pwm_lld_init
 145              		.thumb
 146              		.thumb_func
 147              		.type	pwm_lld_init, %function
 148              	pwm_lld_init:
 149              	.LFB120:
 150              		.loc 1 347 0
 151              		.cfi_startproc
 152              		@ args = 0, pretend = 0, frame = 0
 153              		@ frame_needed = 0, uses_anonymous_args = 0
 154 0000 10B5     		push	{r4, lr}
 155              	.LCFI1:
 156              		.cfi_def_cfa_offset 8
 157              		.cfi_offset 4, -8
 158              		.cfi_offset 14, -4
 159              		.loc 1 369 0
 160 0002 40F20004 		movw	r4, #:lower16:.LANCHOR0
 161 0006 C0F20004 		movt	r4, #:upper16:.LANCHOR0
 162 000a 2046     		mov	r0, r4
 163 000c FFF7FEFF 		bl	pwmObjectInit
 164              	.LVL9:
 165              		.loc 1 370 0
 166 0010 4FF40063 		mov	r3, #2048
 167 0014 C4F20003 		movt	r3, 16384
 168 0018 2361     		str	r3, [r4, #16]
 169 001a 10BD     		pop	{r4, pc}
 170              		.cfi_endproc
ARM GAS  /tmp/ccbcFCY2.s 			page 4


 171              	.LFE120:
 172              		.size	pwm_lld_init, .-pwm_lld_init
 173 001c AFF30080 		.section	.text.pwm_lld_start,"ax",%progbits
 174              		.align	2
 175              		.p2align 4,,15
 176              		.global	pwm_lld_start
 177              		.thumb
 178              		.thumb_func
 179              		.type	pwm_lld_start, %function
 180              	pwm_lld_start:
 181              	.LFB121:
 182              		.loc 1 401 0
 183              		.cfi_startproc
 184              		@ args = 0, pretend = 0, frame = 0
 185              		@ frame_needed = 0, uses_anonymous_args = 0
 186              	.LVL10:
 187              		.loc 1 405 0
 188 0000 0378     		ldrb	r3, [r0, #0]	@ zero_extendqisi2
 189 0002 012B     		cmp	r3, #1
 190              		.loc 1 401 0
 191 0004 70B5     		push	{r4, r5, r6, lr}
 192              	.LCFI2:
 193              		.cfi_def_cfa_offset 16
 194              		.cfi_offset 4, -16
 195              		.cfi_offset 5, -12
 196              		.cfi_offset 6, -8
 197              		.cfi_offset 14, -4
 198              		.loc 1 401 0
 199 0006 0446     		mov	r4, r0
 200              		.loc 1 405 0
 201 0008 5FD0     		beq	.L57
 202              		.loc 1 489 0
 203 000a 0369     		ldr	r3, [r0, #16]
 204 000c 0022     		movs	r2, #0
 205 000e 1A80     		strh	r2, [r3, #0]	@ movhi
 206              		.loc 1 490 0
 207 0010 9A81     		strh	r2, [r3, #12]	@ movhi
 208              		.loc 1 491 0
 209 0012 1A82     		strh	r2, [r3, #16]	@ movhi
 210              		.loc 1 492 0
 211 0014 5A63     		str	r2, [r3, #52]
 212              		.loc 1 493 0
 213 0016 9A63     		str	r2, [r3, #56]
 214              		.loc 1 494 0
 215 0018 DA63     		str	r2, [r3, #60]
 216              		.loc 1 495 0
 217 001a 1A64     		str	r2, [r3, #64]
 218              		.loc 1 496 0
 219 001c 5A62     		str	r2, [r3, #36]
 220              	.LVL11:
 221              	.L33:
 222              		.loc 1 500 0
 223 001e 6168     		ldr	r1, [r4, #4]
 224              	.LVL12:
 225 0020 E668     		ldr	r6, [r4, #12]
 226 0022 0868     		ldr	r0, [r1, #0]
 227              		.loc 1 505 0
ARM GAS  /tmp/ccbcFCY2.s 			page 5


 228 0024 2589     		ldrh	r5, [r4, #8]
 229              		.loc 1 510 0
 230 0026 CA68     		ldr	r2, [r1, #12]
 231              		.loc 1 506 0
 232 0028 8C8D     		ldrh	r4, [r1, #44]
 233              	.LVL13:
 234              		.loc 1 500 0
 235 002a B6FBF0F0 		udiv	r0, r6, r0
 236 002e 0138     		subs	r0, r0, #1
 237              	.LVL14:
 238              		.loc 1 505 0
 239 0030 013D     		subs	r5, r5, #1
 240              		.loc 1 510 0
 241 0032 02F00F02 		and	r2, r2, #15
 242              		.loc 1 504 0
 243 0036 80B2     		uxth	r0, r0
 244              	.LVL15:
 245              		.loc 1 505 0
 246 0038 ADB2     		uxth	r5, r5
 247              		.loc 1 510 0
 248 003a 012A     		cmp	r2, #1
 249              		.loc 1 504 0
 250 003c 1885     		strh	r0, [r3, #40]	@ movhi
 251              		.loc 1 505 0
 252 003e DD62     		str	r5, [r3, #44]
 253              		.loc 1 506 0
 254 0040 9C80     		strh	r4, [r3, #4]	@ movhi
 255              	.LVL16:
 256              		.loc 1 510 0
 257 0042 03D0     		beq	.L34
 258              		.loc 1 509 0
 259 0044 022A     		cmp	r2, #2
 260 0046 0CBF     		ite	eq
 261 0048 0322     		moveq	r2, #3
 262 004a 0022     		movne	r2, #0
 263              	.L34:
 264              	.LVL17:
 265              		.loc 1 518 0
 266 004c 4869     		ldr	r0, [r1, #20]
 267 004e 00F00F00 		and	r0, r0, #15
 268 0052 0128     		cmp	r0, #1
 269 0054 1ED0     		beq	.L38
 270 0056 0228     		cmp	r0, #2
 271 0058 1AD0     		beq	.L58
 272              		.loc 1 526 0
 273 005a C869     		ldr	r0, [r1, #28]
 274 005c 00F00F00 		and	r0, r0, #15
 275 0060 0128     		cmp	r0, #1
 276 0062 1ED0     		beq	.L41
 277              	.LVL18:
 278              	.L61:
 279 0064 0228     		cmp	r0, #2
 280 0066 2BD0     		beq	.L59
 281              	.LVL19:
 282              		.loc 1 534 0
 283 0068 486A     		ldr	r0, [r1, #36]
 284 006a 00F00F00 		and	r0, r0, #15
ARM GAS  /tmp/ccbcFCY2.s 			page 6


 285 006e 0128     		cmp	r0, #1
 286 0070 1ED0     		beq	.L44
 287              	.LVL20:
 288              	.L62:
 289 0072 0228     		cmp	r0, #2
 290 0074 1FD0     		beq	.L60
 291              	.L43:
 292              	.LVL21:
 293              		.loc 1 581 0
 294 0076 8968     		ldr	r1, [r1, #8]
 295              	.LVL22:
 296              		.loc 1 579 0
 297 0078 1A84     		strh	r2, [r3, #32]	@ movhi
 298              		.loc 1 581 0
 299 007a 081C     		adds	r0, r1, #0
 300 007c 18BF     		it	ne
 301 007e 0120     		movne	r0, #1
 302              		.loc 1 580 0
 303 0080 0122     		movs	r2, #1
 304              	.LVL23:
 305 0082 9A82     		strh	r2, [r3, #20]	@ movhi
 306              		.loc 1 582 0
 307 0084 0021     		movs	r1, #0
 308              		.loc 1 581 0
 309 0086 9881     		strh	r0, [r3, #12]	@ movhi
 310              		.loc 1 591 0
 311 0088 8520     		movs	r0, #133
 312              		.loc 1 582 0
 313 008a 1982     		strh	r1, [r3, #16]	@ movhi
 314              		.loc 1 591 0
 315 008c 1880     		strh	r0, [r3, #0]	@ movhi
 316 008e 70BD     		pop	{r4, r5, r6, pc}
 317              	.LVL24:
 318              	.L58:
 319              		.loc 1 520 0
 320 0090 42F02002 		orr	r2, r2, #32
 321              	.LVL25:
 322              	.L38:
 323              		.loc 1 526 0
 324 0094 C869     		ldr	r0, [r1, #28]
 325 0096 00F00F00 		and	r0, r0, #15
 326 009a 0128     		cmp	r0, #1
 327              		.loc 1 522 0
 328 009c 42F01002 		orr	r2, r2, #16
 329              	.LVL26:
 330              		.loc 1 526 0
 331 00a0 E0D1     		bne	.L61
 332              	.LVL27:
 333              	.L41:
 334              		.loc 1 530 0
 335 00a2 42F48072 		orr	r2, r2, #256
 336              	.LVL28:
 337              	.L63:
 338              		.loc 1 534 0
 339 00a6 486A     		ldr	r0, [r1, #36]
 340 00a8 00F00F00 		and	r0, r0, #15
 341 00ac 0128     		cmp	r0, #1
ARM GAS  /tmp/ccbcFCY2.s 			page 7


 342 00ae E0D1     		bne	.L62
 343              	.LVL29:
 344              	.L44:
 345              		.loc 1 538 0
 346 00b0 42F48052 		orr	r2, r2, #4096
 347              	.LVL30:
 348 00b4 DFE7     		b	.L43
 349              	.LVL31:
 350              	.L60:
 351              		.loc 1 536 0
 352 00b6 42F40052 		orr	r2, r2, #8192
 353              	.LVL32:
 354              		.loc 1 538 0
 355 00ba 42F48052 		orr	r2, r2, #4096
 356              	.LVL33:
 357 00be DAE7     		b	.L43
 358              	.LVL34:
 359              	.L59:
 360              		.loc 1 528 0
 361 00c0 42F40072 		orr	r2, r2, #512
 362              	.LVL35:
 363              		.loc 1 530 0
 364 00c4 42F48072 		orr	r2, r2, #256
 365              	.LVL36:
 366 00c8 EDE7     		b	.L63
 367              	.LVL37:
 368              	.L57:
 369              		.loc 1 437 0
 370 00ca 1048     		ldr	r0, .L65
 371              	.LVL38:
 372 00cc 8442     		cmp	r4, r0
 373 00ce 05D0     		beq	.L64
 374              	.L32:
 375              		.loc 1 478 0
 376 00d0 2369     		ldr	r3, [r4, #16]
 377 00d2 46F66801 		movw	r1, #26728
 378 00d6 1983     		strh	r1, [r3, #24]	@ movhi
 379              		.loc 1 482 0
 380 00d8 9983     		strh	r1, [r3, #28]	@ movhi
 381 00da A0E7     		b	.L33
 382              	.L64:
 383              		.loc 1 438 0
 384 00dc 4FF46051 		mov	r1, #14336
 385 00e0 C4F20201 		movt	r1, 16386
 386              		.loc 1 440 0
 387 00e4 1E20     		movs	r0, #30
 388              		.loc 1 438 0
 389 00e6 0D6C     		ldr	r5, [r1, #64]
 390 00e8 45F00406 		orr	r6, r5, #4
 391 00ec 0E64     		str	r6, [r1, #64]
 392              		.loc 1 439 0
 393 00ee 0B6A     		ldr	r3, [r1, #32]
 394 00f0 0025     		movs	r5, #0
 395 00f2 43F00402 		orr	r2, r3, #4
 396 00f6 0A62     		str	r2, [r1, #32]
 397 00f8 0D62     		str	r5, [r1, #32]
 398              		.loc 1 440 0
ARM GAS  /tmp/ccbcFCY2.s 			page 8


 399 00fa 7021     		movs	r1, #112
 400 00fc FFF7FEFF 		bl	nvicEnableVector
 401              	.LVL39:
 402              		.loc 1 442 0
 403 0100 4FF43D40 		mov	r0, #48384
 404 0104 C0F20150 		movt	r0, 1281
 405 0108 E060     		str	r0, [r4, #12]
 406 010a E1E7     		b	.L32
 407              	.L66:
 408              		.align	2
 409              	.L65:
 410 010c 00000000 		.word	.LANCHOR0
 411              		.cfi_endproc
 412              	.LFE121:
 413              		.size	pwm_lld_start, .-pwm_lld_start
 414              		.section	.text.pwm_lld_stop,"ax",%progbits
 415              		.align	2
 416              		.p2align 4,,15
 417              		.global	pwm_lld_stop
 418              		.thumb
 419              		.thumb_func
 420              		.type	pwm_lld_stop, %function
 421              	pwm_lld_stop:
 422              	.LFB122:
 423              		.loc 1 601 0
 424              		.cfi_startproc
 425              		@ args = 0, pretend = 0, frame = 0
 426              		@ frame_needed = 0, uses_anonymous_args = 0
 427              	.LVL40:
 428 0000 08B5     		push	{r3, lr}
 429              	.LCFI3:
 430              		.cfi_def_cfa_offset 8
 431              		.cfi_offset 3, -8
 432              		.cfi_offset 14, -4
 433              		.loc 1 604 0
 434 0002 0378     		ldrb	r3, [r0, #0]	@ zero_extendqisi2
 435 0004 022B     		cmp	r3, #2
 436 0006 00D0     		beq	.L71
 437              	.LVL41:
 438              	.L67:
 439 0008 08BD     		pop	{r3, pc}
 440              	.LVL42:
 441              	.L71:
 442              		.loc 1 632 0
 443 000a 0A4B     		ldr	r3, .L72
 444              		.loc 1 605 0
 445 000c 0169     		ldr	r1, [r0, #16]
 446 000e 0022     		movs	r2, #0
 447              		.loc 1 632 0
 448 0010 9842     		cmp	r0, r3
 449              		.loc 1 605 0
 450 0012 0A80     		strh	r2, [r1, #0]	@ movhi
 451              		.loc 1 606 0
 452 0014 8A81     		strh	r2, [r1, #12]	@ movhi
 453              		.loc 1 607 0
 454 0016 0A82     		strh	r2, [r1, #16]	@ movhi
 455              		.loc 1 632 0
ARM GAS  /tmp/ccbcFCY2.s 			page 9


 456 0018 F6D1     		bne	.L67
 457              		.loc 1 633 0
 458 001a 1E20     		movs	r0, #30
 459              	.LVL43:
 460 001c FFF7FEFF 		bl	nvicDisableVector
 461              	.LVL44:
 462              		.loc 1 634 0
 463 0020 4FF46050 		mov	r0, #14336
 464 0024 C4F20200 		movt	r0, 16386
 465 0028 016C     		ldr	r1, [r0, #64]
 466 002a 21F00402 		bic	r2, r1, #4
 467 002e 0264     		str	r2, [r0, #64]
 468 0030 EAE7     		b	.L67
 469              	.L73:
 470 0032 00BF     		.align	2
 471              	.L72:
 472 0034 00000000 		.word	.LANCHOR0
 473              		.cfi_endproc
 474              	.LFE122:
 475              		.size	pwm_lld_stop, .-pwm_lld_stop
 476 0038 AFF30080 		.section	.text.pwm_lld_enable_channel,"ax",%progbits
 476      AFF30080 
 477              		.align	2
 478              		.p2align 4,,15
 479              		.global	pwm_lld_enable_channel
 480              		.thumb
 481              		.thumb_func
 482              		.type	pwm_lld_enable_channel, %function
 483              	pwm_lld_enable_channel:
 484              	.LFB123:
 485              		.loc 1 673 0
 486              		.cfi_startproc
 487              		@ args = 0, pretend = 0, frame = 0
 488              		@ frame_needed = 0, uses_anonymous_args = 0
 489              		@ link register save eliminated.
 490              	.LVL45:
 491 0000 10B4     		push	{r4}
 492              	.LCFI4:
 493              		.cfi_def_cfa_offset 4
 494              		.cfi_offset 4, -4
 495              		.loc 1 678 0
 496 0002 4468     		ldr	r4, [r0, #4]
 497              		.loc 1 675 0
 498 0004 0369     		ldr	r3, [r0, #16]
 499              		.loc 1 678 0
 500 0006 04EBC100 		add	r0, r4, r1, lsl #3
 501              	.LVL46:
 502              		.loc 1 675 0
 503 000a 01F10C04 		add	r4, r1, #12
 504 000e 03EB8404 		add	r4, r3, r4, lsl #2
 505              		.loc 1 678 0
 506 0012 0069     		ldr	r0, [r0, #16]
 507              		.loc 1 675 0
 508 0014 6260     		str	r2, [r4, #4]
 509              		.loc 1 678 0
 510 0016 60B1     		cbz	r0, .L74
 511              	.LBB8:
ARM GAS  /tmp/ccbcFCY2.s 			page 10


 512              		.loc 1 679 0
 513 0018 9A89     		ldrh	r2, [r3, #12]
 514              	.LVL47:
 515              		.loc 1 682 0
 516 001a 0220     		movs	r0, #2
 517              		.loc 1 679 0
 518 001c 92B2     		uxth	r2, r2
 519              	.LVL48:
 520              		.loc 1 682 0
 521 001e 00FA01F1 		lsl	r1, r0, r1
 522              	.LVL49:
 523 0022 1142     		tst	r1, r2
 524 0024 05D1     		bne	.L74
 525              		.loc 1 683 0
 526 0026 89B2     		uxth	r1, r1
 527              		.loc 1 684 0
 528 0028 C843     		mvns	r0, r1
 529              		.loc 1 683 0
 530 002a 1143     		orrs	r1, r1, r2
 531              		.loc 1 684 0
 532 002c 82B2     		uxth	r2, r0
 533              	.LVL50:
 534              		.loc 1 683 0
 535 002e 9981     		strh	r1, [r3, #12]	@ movhi
 536              		.loc 1 684 0
 537 0030 1A82     		strh	r2, [r3, #16]	@ movhi
 538              	.L74:
 539              	.LBE8:
 540              		.loc 1 687 0
 541 0032 10BC     		pop	{r4}
 542 0034 7047     		bx	lr
 543              		.cfi_endproc
 544              	.LFE123:
 545              		.size	pwm_lld_enable_channel, .-pwm_lld_enable_channel
 546 0036 00BFAFF3 		.section	.text.pwm_lld_disable_channel,"ax",%progbits
 546      0080AFF3 
 546      0080
 547              		.align	2
 548              		.p2align 4,,15
 549              		.global	pwm_lld_disable_channel
 550              		.thumb
 551              		.thumb_func
 552              		.type	pwm_lld_disable_channel, %function
 553              	pwm_lld_disable_channel:
 554              	.LFB124:
 555              		.loc 1 701 0
 556              		.cfi_startproc
 557              		@ args = 0, pretend = 0, frame = 0
 558              		@ frame_needed = 0, uses_anonymous_args = 0
 559              		@ link register save eliminated.
 560              	.LVL51:
 561              		.loc 1 703 0
 562 0000 0369     		ldr	r3, [r0, #16]
 563 0002 01F10C02 		add	r2, r1, #12
 564 0006 03EB8202 		add	r2, r3, r2, lsl #2
 565 000a 0020     		movs	r0, #0
 566              	.LVL52:
ARM GAS  /tmp/ccbcFCY2.s 			page 11


 567 000c 5060     		str	r0, [r2, #4]
 568              		.loc 1 704 0
 569 000e 9A89     		ldrh	r2, [r3, #12]
 570 0010 0220     		movs	r0, #2
 571 0012 92B2     		uxth	r2, r2
 572 0014 00FA01F1 		lsl	r1, r0, r1
 573              	.LVL53:
 574 0018 22EA0102 		bic	r2, r2, r1
 575 001c 9A81     		strh	r2, [r3, #12]	@ movhi
 576 001e 7047     		bx	lr
 577              		.cfi_endproc
 578              	.LFE124:
 579              		.size	pwm_lld_disable_channel, .-pwm_lld_disable_channel
 580              		.global	PWMD4
 581              		.section	.bss.PWMD4,"aw",%nobits
 582              		.align	2
 583              		.set	.LANCHOR0,. + 0
 584              		.type	PWMD4, %object
 585              		.size	PWMD4, 20
 586              	PWMD4:
 587 0000 00000000 		.space	20
 587      00000000 
 587      00000000 
 587      00000000 
 587      00000000 
 588              		.text
 589              	.Letext0:
 590              		.file 2 "/usr/bin/../lib/gcc/arm-none-eabi/4.7.4/../../../../arm-none-eabi/include/stdint.h"
 591              		.file 3 "../../os/hal/platforms/STM32F4xx/stm32f4xx.h"
 592              		.file 4 "../../os/hal/platforms/STM32/stm32.h"
 593              		.file 5 "../../os/hal/include/pwm.h"
 594              		.file 6 "../../os/hal/platforms/STM32/pwm_lld.h"
 595              		.file 7 "../../os/ports/common/ARMCMx/CMSIS/include/core_cm4.h"
 596              		.file 8 "../../os/ports/common/ARMCMx/nvic.h"
 597              		.file 9 "../../os/ports/GCC/ARMCMx/chcore_v7m.h"