ARM GAS  /tmp/ccKyGZ8x.s 			page 1


   1              		.syntax unified
   2              		.cpu cortex-m4
   3              		.fpu softvfp
   4              		.eabi_attribute 20, 1
   5              		.eabi_attribute 21, 1
   6              		.eabi_attribute 23, 3
   7              		.eabi_attribute 24, 1
   8              		.eabi_attribute 25, 1
   9              		.eabi_attribute 26, 1
  10              		.eabi_attribute 30, 2
  11              		.eabi_attribute 34, 1
  12              		.eabi_attribute 18, 4
  13              		.thumb
  14              		.file	"serial_usb.c"
  15              		.text
  16              	.Ltext0:
  17              		.cfi_sections	.debug_frame
  18              		.section	.text.inotify,"ax",%progbits
  19              		.align	2
  20              		.p2align 4,,15
  21              		.thumb
  22              		.thumb_func
  23              		.type	inotify, %function
  24              	inotify:
  25              	.LFB126:
  26              		.file 1 "../../os/hal/src/serial_usb.c"
  27              		.loc 1 112 0
  28              		.cfi_startproc
  29              		@ args = 0, pretend = 0, frame = 0
  30              		@ frame_needed = 0, uses_anonymous_args = 0
  31              	.LVL0:
  32 0000 38B5     		push	{r3, r4, r5, lr}
  33              	.LCFI0:
  34              		.cfi_def_cfa_offset 16
  35              		.cfi_offset 3, -16
  36              		.cfi_offset 4, -12
  37              		.cfi_offset 5, -8
  38              		.cfi_offset 14, -4
  39              		.loc 1 114 0
  40 0002 046A     		ldr	r4, [r0, #32]
  41              	.LVL1:
  42              		.loc 1 118 0
  43 0004 D4F85422 		ldr	r2, [r4, #596]
  44 0008 1368     		ldr	r3, [r2, #0]
  45 000a 1978     		ldrb	r1, [r3, #0]	@ zero_extendqisi2
  46 000c 0429     		cmp	r1, #4
  47 000e 00D0     		beq	.L4
  48              	.LVL2:
  49              	.L1:
  50 0010 38BD     		pop	{r3, r4, r5, pc}
  51              	.LVL3:
  52              	.L4:
  53              		.loc 1 118 0 is_stmt 0 discriminator 1
  54 0012 207A     		ldrb	r0, [r4, #8]	@ zero_extendqisi2
  55              	.LVL4:
  56 0014 0228     		cmp	r0, #2
  57 0016 FBD1     		bne	.L1
ARM GAS  /tmp/ccKyGZ8x.s 			page 2


  58              		.loc 1 125 0 is_stmt 1
  59 0018 5279     		ldrb	r2, [r2, #5]	@ zero_extendqisi2
  60              		.loc 1 126 0
  61 001a 5989     		ldrh	r1, [r3, #10]
  62              		.loc 1 125 0
  63 001c 03EB8203 		add	r3, r3, r2, lsl #2
  64              		.loc 1 126 0
  65 0020 41FA02F0 		asr	r0, r1, r2
  66              		.loc 1 125 0
  67 0024 DA68     		ldr	r2, [r3, #12]
  68              		.loc 1 126 0
  69 0026 10F00103 		ands	r3, r0, #1
  70              		.loc 1 125 0
  71 002a 518A     		ldrh	r1, [r2, #18]
  72              	.LVL5:
  73              		.loc 1 126 0
  74 002c F0D1     		bne	.L1
  75              		.loc 1 127 0 discriminator 1
  76 002e E569     		ldr	r5, [r4, #28]
  77 0030 A069     		ldr	r0, [r4, #24]
  78 0032 6269     		ldr	r2, [r4, #20]
  79 0034 281A     		subs	r0, r5, r0
  80 0036 801A     		subs	r0, r0, r2
  81              	.LVL6:
  82              		.loc 1 126 0 discriminator 1
  83 0038 8142     		cmp	r1, r0
  84 003a E9D8     		bhi	.L1
  85              	.LBB2:
  86              		.loc 1 128 0
  87              	@ 128 "../../os/hal/src/serial_usb.c" 1
  88 003c 83F31188 		msr     BASEPRI, r3
  89              	@ 0 "" 2
  90              	.LVL7:
  91              		.thumb
  92              	.LBE2:
  93              		.loc 1 131 0
  94 0040 D4F85422 		ldr	r2, [r4, #596]
  95              		.loc 1 130 0
  96 0044 B0FBF1F3 		udiv	r3, r0, r1
  97              	.LVL8:
  98              		.loc 1 131 0
  99 0048 01FB03F3 		mul	r3, r1, r3
 100              	.LVL9:
 101 004c 1068     		ldr	r0, [r2, #0]
 102 004e 5179     		ldrb	r1, [r2, #5]	@ zero_extendqisi2
 103              	.LVL10:
 104 0050 04F10C02 		add	r2, r4, #12
 105 0054 FFF7FEFF 		bl	usbPrepareQueuedReceive
 106              	.LVL11:
 107              	.LBB3:
 108              		.loc 1 135 0
 109 0058 2023     		movs	r3, #32
 110              	.LVL12:
 111              	@ 135 "../../os/hal/src/serial_usb.c" 1
 112 005a 83F31188 		msr     BASEPRI, r3
 113              	@ 0 "" 2
 114              	.LVL13:
ARM GAS  /tmp/ccKyGZ8x.s 			page 3


 115              		.thumb
 116              	.LBE3:
 117              		.loc 1 136 0
 118 005e D4F85432 		ldr	r3, [r4, #596]
 119              	.LVL14:
 120 0062 1868     		ldr	r0, [r3, #0]
 121 0064 5979     		ldrb	r1, [r3, #5]	@ zero_extendqisi2
 122              		.loc 1 138 0
 123 0066 BDE83840 		pop	{r3, r4, r5, lr}
 124              		.loc 1 136 0
 125 006a FFF7FEBF 		b	usbStartReceiveI
 126              	.LVL15:
 127              		.cfi_endproc
 128              	.LFE126:
 129              		.size	inotify, .-inotify
 130 006e 00BF     		.section	.text.onotify,"ax",%progbits
 131              		.align	2
 132              		.p2align 4,,15
 133              		.thumb
 134              		.thumb_func
 135              		.type	onotify, %function
 136              	onotify:
 137              	.LFB127:
 138              		.loc 1 143 0
 139              		.cfi_startproc
 140              		@ args = 0, pretend = 0, frame = 0
 141              		@ frame_needed = 0, uses_anonymous_args = 0
 142              	.LVL16:
 143 0000 10B5     		push	{r4, lr}
 144              	.LCFI1:
 145              		.cfi_def_cfa_offset 8
 146              		.cfi_offset 4, -8
 147              		.cfi_offset 14, -4
 148              		.loc 1 145 0
 149 0002 046A     		ldr	r4, [r0, #32]
 150              	.LVL17:
 151              		.loc 1 149 0
 152 0004 D4F85432 		ldr	r3, [r4, #596]
 153 0008 1A68     		ldr	r2, [r3, #0]
 154 000a 1178     		ldrb	r1, [r2, #0]	@ zero_extendqisi2
 155 000c 0429     		cmp	r1, #4
 156 000e 00D0     		beq	.L10
 157              	.LVL18:
 158              	.L5:
 159 0010 10BD     		pop	{r4, pc}
 160              	.LVL19:
 161              	.L10:
 162              		.loc 1 149 0 is_stmt 0 discriminator 1
 163 0012 207A     		ldrb	r0, [r4, #8]	@ zero_extendqisi2
 164              	.LVL20:
 165 0014 0228     		cmp	r0, #2
 166 0016 FBD1     		bne	.L5
 167              		.loc 1 155 0 is_stmt 1
 168 0018 1B79     		ldrb	r3, [r3, #4]	@ zero_extendqisi2
 169 001a 1289     		ldrh	r2, [r2, #8]
 170 001c 42FA03F1 		asr	r1, r2, r3
 171 0020 11F00103 		ands	r3, r1, #1
ARM GAS  /tmp/ccKyGZ8x.s 			page 4


 172 0024 F4D1     		bne	.L5
 173              		.loc 1 156 0 discriminator 1
 174 0026 206C     		ldr	r0, [r4, #64]
 175 0028 E16B     		ldr	r1, [r4, #60]
 176 002a A26B     		ldr	r2, [r4, #56]
 177 002c 401A     		subs	r0, r0, r1
 178              	.LVL21:
 179              		.loc 1 155 0 discriminator 1
 180 002e 821A     		subs	r2, r0, r2
 181              	.LVL22:
 182 0030 EED0     		beq	.L5
 183              	.LBB4:
 184              		.loc 1 157 0
 185              	@ 157 "../../os/hal/src/serial_usb.c" 1
 186 0032 83F31188 		msr     BASEPRI, r3
 187              	@ 0 "" 2
 188              	.LVL23:
 189              		.thumb
 190              	.LBE4:
 191              		.loc 1 159 0
 192 0036 D4F85412 		ldr	r1, [r4, #596]
 193 003a 1346     		mov	r3, r2
 194              	.LVL24:
 195 003c 0868     		ldr	r0, [r1, #0]
 196 003e 0979     		ldrb	r1, [r1, #4]	@ zero_extendqisi2
 197 0040 04F13002 		add	r2, r4, #48
 198              	.LVL25:
 199 0044 FFF7FEFF 		bl	usbPrepareQueuedTransmit
 200              	.LVL26:
 201              	.LBB5:
 202              		.loc 1 163 0
 203 0048 2023     		movs	r3, #32
 204              	.LVL27:
 205              	@ 163 "../../os/hal/src/serial_usb.c" 1
 206 004a 83F31188 		msr     BASEPRI, r3
 207              	@ 0 "" 2
 208              	.LVL28:
 209              		.thumb
 210              	.LBE5:
 211              		.loc 1 164 0
 212 004e D4F85432 		ldr	r3, [r4, #596]
 213              	.LVL29:
 214 0052 1868     		ldr	r0, [r3, #0]
 215 0054 1979     		ldrb	r1, [r3, #4]	@ zero_extendqisi2
 216              		.loc 1 166 0
 217 0056 BDE81040 		pop	{r4, lr}
 218              		.loc 1 164 0
 219 005a FFF7FEBF 		b	usbStartTransmitI
 220              	.LVL30:
 221              		.cfi_endproc
 222              	.LFE127:
 223              		.size	onotify, .-onotify
 224 005e 00BF     		.section	.text.readt,"ax",%progbits
 225              		.align	2
 226              		.p2align 4,,15
 227              		.thumb
 228              		.thumb_func
ARM GAS  /tmp/ccKyGZ8x.s 			page 5


 229              		.type	readt, %function
 230              	readt:
 231              	.LFB125:
 232              		.loc 1 99 0
 233              		.cfi_startproc
 234              		@ args = 0, pretend = 0, frame = 0
 235              		@ frame_needed = 0, uses_anonymous_args = 0
 236              		@ link register save eliminated.
 237              	.LVL31:
 238              		.loc 1 101 0
 239 0000 0C30     		adds	r0, r0, #12
 240              	.LVL32:
 241              		.loc 1 102 0
 242              		.loc 1 101 0
 243 0002 FFF7FEBF 		b	chIQReadTimeout
 244              	.LVL33:
 245              		.cfi_endproc
 246              	.LFE125:
 247              		.size	readt, .-readt
 248 0006 00BFAFF3 		.section	.text.read,"ax",%progbits
 248      0080AFF3 
 248      0080
 249              		.align	2
 250              		.p2align 4,,15
 251              		.thumb
 252              		.thumb_func
 253              		.type	read, %function
 254              	read:
 255              	.LFB119:
 256              		.loc 1 68 0
 257              		.cfi_startproc
 258              		@ args = 0, pretend = 0, frame = 0
 259              		@ frame_needed = 0, uses_anonymous_args = 0
 260              		@ link register save eliminated.
 261              	.LVL34:
 262              		.loc 1 70 0
 263 0000 0C30     		adds	r0, r0, #12
 264              	.LVL35:
 265 0002 4FF0FF33 		mov	r3, #-1
 266              		.loc 1 72 0
 267              		.loc 1 70 0
 268 0006 FFF7FEBF 		b	chIQReadTimeout
 269              	.LVL36:
 270              		.cfi_endproc
 271              	.LFE119:
 272              		.size	read, .-read
 273 000a 00BFAFF3 		.section	.text.writet,"ax",%progbits
 273      0080
 274              		.align	2
 275              		.p2align 4,,15
 276              		.thumb
 277              		.thumb_func
 278              		.type	writet, %function
 279              	writet:
 280              	.LFB124:
 281              		.loc 1 94 0
 282              		.cfi_startproc
ARM GAS  /tmp/ccKyGZ8x.s 			page 6


 283              		@ args = 0, pretend = 0, frame = 0
 284              		@ frame_needed = 0, uses_anonymous_args = 0
 285              		@ link register save eliminated.
 286              	.LVL37:
 287              		.loc 1 96 0
 288 0000 3030     		adds	r0, r0, #48
 289              	.LVL38:
 290              		.loc 1 97 0
 291              		.loc 1 96 0
 292 0002 FFF7FEBF 		b	chOQWriteTimeout
 293              	.LVL39:
 294              		.cfi_endproc
 295              	.LFE124:
 296              		.size	writet, .-writet
 297 0006 00BFAFF3 		.section	.text.write,"ax",%progbits
 297      0080AFF3 
 297      0080
 298              		.align	2
 299              		.p2align 4,,15
 300              		.thumb
 301              		.thumb_func
 302              		.type	write, %function
 303              	write:
 304              	.LFB118:
 305              		.loc 1 62 0
 306              		.cfi_startproc
 307              		@ args = 0, pretend = 0, frame = 0
 308              		@ frame_needed = 0, uses_anonymous_args = 0
 309              		@ link register save eliminated.
 310              	.LVL40:
 311              		.loc 1 64 0
 312 0000 3030     		adds	r0, r0, #48
 313              	.LVL41:
 314 0002 4FF0FF33 		mov	r3, #-1
 315              		.loc 1 66 0
 316              		.loc 1 64 0
 317 0006 FFF7FEBF 		b	chOQWriteTimeout
 318              	.LVL42:
 319              		.cfi_endproc
 320              	.LFE118:
 321              		.size	write, .-write
 322 000a 00BFAFF3 		.section	.text.gett,"ax",%progbits
 322      0080
 323              		.align	2
 324              		.p2align 4,,15
 325              		.thumb
 326              		.thumb_func
 327              		.type	gett, %function
 328              	gett:
 329              	.LFB123:
 330              		.loc 1 89 0
 331              		.cfi_startproc
 332              		@ args = 0, pretend = 0, frame = 0
 333              		@ frame_needed = 0, uses_anonymous_args = 0
 334              		@ link register save eliminated.
 335              	.LVL43:
 336              		.loc 1 91 0
ARM GAS  /tmp/ccKyGZ8x.s 			page 7


 337 0000 0C30     		adds	r0, r0, #12
 338              	.LVL44:
 339              		.loc 1 92 0
 340              		.loc 1 91 0
 341 0002 FFF7FEBF 		b	chIQGetTimeout
 342              	.LVL45:
 343              		.cfi_endproc
 344              	.LFE123:
 345              		.size	gett, .-gett
 346 0006 00BFAFF3 		.section	.text.get,"ax",%progbits
 346      0080AFF3 
 346      0080
 347              		.align	2
 348              		.p2align 4,,15
 349              		.thumb
 350              		.thumb_func
 351              		.type	get, %function
 352              	get:
 353              	.LFB121:
 354              		.loc 1 79 0
 355              		.cfi_startproc
 356              		@ args = 0, pretend = 0, frame = 0
 357              		@ frame_needed = 0, uses_anonymous_args = 0
 358              		@ link register save eliminated.
 359              	.LVL46:
 360              		.loc 1 81 0
 361 0000 0C30     		adds	r0, r0, #12
 362              	.LVL47:
 363 0002 4FF0FF31 		mov	r1, #-1
 364              		.loc 1 82 0
 365              		.loc 1 81 0
 366 0006 FFF7FEBF 		b	chIQGetTimeout
 367              	.LVL48:
 368              		.cfi_endproc
 369              	.LFE121:
 370              		.size	get, .-get
 371 000a 00BFAFF3 		.section	.text.putt,"ax",%progbits
 371      0080
 372              		.align	2
 373              		.p2align 4,,15
 374              		.thumb
 375              		.thumb_func
 376              		.type	putt, %function
 377              	putt:
 378              	.LFB122:
 379              		.loc 1 84 0
 380              		.cfi_startproc
 381              		@ args = 0, pretend = 0, frame = 0
 382              		@ frame_needed = 0, uses_anonymous_args = 0
 383              		@ link register save eliminated.
 384              	.LVL49:
 385              		.loc 1 86 0
 386 0000 3030     		adds	r0, r0, #48
 387              	.LVL50:
 388              		.loc 1 87 0
 389              		.loc 1 86 0
 390 0002 FFF7FEBF 		b	chOQPutTimeout
ARM GAS  /tmp/ccKyGZ8x.s 			page 8


 391              	.LVL51:
 392              		.cfi_endproc
 393              	.LFE122:
 394              		.size	putt, .-putt
 395 0006 00BFAFF3 		.section	.text.put,"ax",%progbits
 395      0080AFF3 
 395      0080
 396              		.align	2
 397              		.p2align 4,,15
 398              		.thumb
 399              		.thumb_func
 400              		.type	put, %function
 401              	put:
 402              	.LFB120:
 403              		.loc 1 74 0
 404              		.cfi_startproc
 405              		@ args = 0, pretend = 0, frame = 0
 406              		@ frame_needed = 0, uses_anonymous_args = 0
 407              		@ link register save eliminated.
 408              	.LVL52:
 409              		.loc 1 76 0
 410 0000 3030     		adds	r0, r0, #48
 411              	.LVL53:
 412 0002 4FF0FF32 		mov	r2, #-1
 413              		.loc 1 77 0
 414              		.loc 1 76 0
 415 0006 FFF7FEBF 		b	chOQPutTimeout
 416              	.LVL54:
 417              		.cfi_endproc
 418              	.LFE120:
 419              		.size	put, .-put
 420 000a 00BFAFF3 		.section	.text.sduInit,"ax",%progbits
 420      0080
 421              		.align	2
 422              		.p2align 4,,15
 423              		.global	sduInit
 424              		.thumb
 425              		.thumb_func
 426              		.type	sduInit, %function
 427              	sduInit:
 428              	.LFB128:
 429              		.loc 1 179 0
 430              		.cfi_startproc
 431              		@ args = 0, pretend = 0, frame = 0
 432              		@ frame_needed = 0, uses_anonymous_args = 0
 433              		@ link register save eliminated.
 434 0000 7047     		bx	lr
 435              		.cfi_endproc
 436              	.LFE128:
 437              		.size	sduInit, .-sduInit
 438 0002 00BFAFF3 		.section	.text.sduObjectInit,"ax",%progbits
 438      0080AFF3 
 438      0080AFF3 
 438      0080
 439              		.align	2
 440              		.p2align 4,,15
 441              		.global	sduObjectInit
ARM GAS  /tmp/ccKyGZ8x.s 			page 9


 442              		.thumb
 443              		.thumb_func
 444              		.type	sduObjectInit, %function
 445              	sduObjectInit:
 446              	.LFB129:
 447              		.loc 1 191 0
 448              		.cfi_startproc
 449              		@ args = 0, pretend = 0, frame = 0
 450              		@ frame_needed = 0, uses_anonymous_args = 0
 451              	.LVL55:
 452              		.loc 1 191 0
 453 0000 30B5     		push	{r4, r5, lr}
 454              	.LCFI2:
 455              		.cfi_def_cfa_offset 12
 456              		.cfi_offset 4, -12
 457              		.cfi_offset 5, -8
 458              		.cfi_offset 14, -4
 459              		.loc 1 193 0
 460 0002 40F20003 		movw	r3, #:lower16:.LANCHOR0
 461 0006 0546     		mov	r5, r0
 462 0008 C0F20003 		movt	r3, #:upper16:.LANCHOR0
 463              		.loc 1 191 0
 464 000c 0446     		mov	r4, r0
 465              		.loc 1 193 0
 466 000e 45F8043B 		str	r3, [r5], #4
 467              		.loc 1 191 0
 468 0012 83B0     		sub	sp, sp, #12
 469              	.LCFI3:
 470              		.cfi_def_cfa_offset 24
 471              		.loc 1 194 0
 472 0014 6560     		str	r5, [r4, #4]
 473              		.loc 1 196 0
 474 0016 40F20003 		movw	r3, #:lower16:inotify
 475              		.loc 1 195 0
 476 001a 0125     		movs	r5, #1
 477              		.loc 1 196 0
 478 001c 04F15401 		add	r1, r4, #84
 479              		.loc 1 195 0
 480 0020 2572     		strb	r5, [r4, #8]
 481              		.loc 1 196 0
 482 0022 00F10C00 		add	r0, r0, #12
 483              	.LVL56:
 484 0026 4FF48072 		mov	r2, #256
 485 002a C0F20003 		movt	r3, #:upper16:inotify
 486 002e 0094     		str	r4, [sp, #0]
 487 0030 FFF7FEFF 		bl	chIQInit
 488              	.LVL57:
 489              		.loc 1 197 0
 490 0034 40F20003 		movw	r3, #:lower16:onotify
 491 0038 0094     		str	r4, [sp, #0]
 492 003a 04F13000 		add	r0, r4, #48
 493 003e 04F5AA71 		add	r1, r4, #340
 494 0042 4FF48072 		mov	r2, #256
 495 0046 C0F20003 		movt	r3, #:upper16:onotify
 496 004a FFF7FEFF 		bl	chOQInit
 497              	.LVL58:
 498              		.loc 1 198 0
ARM GAS  /tmp/ccKyGZ8x.s 			page 10


 499 004e 03B0     		add	sp, sp, #12
 500 0050 30BD     		pop	{r4, r5, pc}
 501              		.cfi_endproc
 502              	.LFE129:
 503              		.size	sduObjectInit, .-sduObjectInit
 504 0052 00BFAFF3 		.section	.text.sduStart,"ax",%progbits
 504      0080AFF3 
 504      0080AFF3 
 504      0080
 505              		.align	2
 506              		.p2align 4,,15
 507              		.global	sduStart
 508              		.thumb
 509              		.thumb_func
 510              		.type	sduStart, %function
 511              	sduStart:
 512              	.LFB130:
 513              		.loc 1 208 0
 514              		.cfi_startproc
 515              		@ args = 0, pretend = 0, frame = 0
 516              		@ frame_needed = 0, uses_anonymous_args = 0
 517              		@ link register save eliminated.
 518              	.LVL59:
 519 0000 10B4     		push	{r4}
 520              	.LCFI4:
 521              		.cfi_def_cfa_offset 4
 522              		.cfi_offset 4, -4
 523              		.loc 1 209 0
 524 0002 0A68     		ldr	r2, [r1, #0]
 525              	.LVL60:
 526              	.LBB6:
 527              		.loc 1 213 0
 528 0004 2023     		movs	r3, #32
 529              	.LVL61:
 530              	@ 213 "../../os/hal/src/serial_usb.c" 1
 531 0006 83F31188 		msr     BASEPRI, r3
 532              	@ 0 "" 2
 533              	.LVL62:
 534              		.thumb
 535              	.LBE6:
 536              		.loc 1 217 0
 537 000a 0B79     		ldrb	r3, [r1, #4]	@ zero_extendqisi2
 538              	.LVL63:
 539 000c 02EB8304 		add	r4, r2, r3, lsl #2
 540              	.LBB7:
 541              		.loc 1 222 0
 542 0010 0023     		movs	r3, #0
 543              	.LVL64:
 544              	.LBE7:
 545              		.loc 1 217 0
 546 0012 A061     		str	r0, [r4, #24]
 547              		.loc 1 218 0
 548 0014 4C79     		ldrb	r4, [r1, #5]	@ zero_extendqisi2
 549 0016 0934     		adds	r4, r4, #9
 550 0018 42F82400 		str	r0, [r2, r4, lsl #2]
 551              		.loc 1 219 0
 552 001c 8C79     		ldrb	r4, [r1, #6]	@ zero_extendqisi2
ARM GAS  /tmp/ccKyGZ8x.s 			page 11


 553 001e 02EB8402 		add	r2, r2, r4, lsl #2
 554              	.LVL65:
 555 0022 9061     		str	r0, [r2, #24]
 556              		.loc 1 220 0
 557 0024 C0F85412 		str	r1, [r0, #596]
 558              		.loc 1 221 0
 559 0028 0221     		movs	r1, #2
 560              	.LVL66:
 561 002a 0172     		strb	r1, [r0, #8]
 562              	.LBB8:
 563              		.loc 1 222 0
 564              	@ 222 "../../os/hal/src/serial_usb.c" 1
 565 002c 83F31188 		msr     BASEPRI, r3
 566              	@ 0 "" 2
 567              	.LVL67:
 568              		.thumb
 569              	.LBE8:
 570              		.loc 1 223 0
 571 0030 10BC     		pop	{r4}
 572 0032 7047     		bx	lr
 573              		.cfi_endproc
 574              	.LFE130:
 575              		.size	sduStart, .-sduStart
 576 0034 AFF30080 		.section	.text.sduStop,"ax",%progbits
 576      AFF30080 
 576      AFF30080 
 577              		.align	2
 578              		.p2align 4,,15
 579              		.global	sduStop
 580              		.thumb
 581              		.thumb_func
 582              		.type	sduStop, %function
 583              	sduStop:
 584              	.LFB131:
 585              		.loc 1 234 0
 586              		.cfi_startproc
 587              		@ args = 0, pretend = 0, frame = 0
 588              		@ frame_needed = 0, uses_anonymous_args = 0
 589              	.LVL68:
 590              		.loc 1 235 0
 591 0000 D0F85422 		ldr	r2, [r0, #596]
 592              		.loc 1 234 0
 593 0004 38B5     		push	{r3, r4, r5, lr}
 594              	.LCFI5:
 595              		.cfi_def_cfa_offset 16
 596              		.cfi_offset 3, -16
 597              		.cfi_offset 4, -12
 598              		.cfi_offset 5, -8
 599              		.cfi_offset 14, -4
 600              		.loc 1 234 0
 601 0006 0446     		mov	r4, r0
 602              	.LBB9:
 603              		.loc 1 239 0
 604 0008 2023     		movs	r3, #32
 605              	.LVL69:
 606              	.LBE9:
 607              		.loc 1 235 0
ARM GAS  /tmp/ccKyGZ8x.s 			page 12


 608 000a 1068     		ldr	r0, [r2, #0]
 609              	.LVL70:
 610              	.LBB10:
 611              		.loc 1 239 0
 612              	@ 239 "../../os/hal/src/serial_usb.c" 1
 613 000c 83F31188 		msr     BASEPRI, r3
 614              	@ 0 "" 2
 615              	.LVL71:
 616              		.thumb
 617              	.LBE10:
 618              		.loc 1 246 0
 619 0010 D4F85432 		ldr	r3, [r4, #596]
 620              	.LVL72:
 621 0014 1979     		ldrb	r1, [r3, #4]	@ zero_extendqisi2
 622 0016 4D1D     		adds	r5, r1, #5
 623 0018 00EB8502 		add	r2, r0, r5, lsl #2
 624 001c 0025     		movs	r5, #0
 625 001e 5560     		str	r5, [r2, #4]
 626              		.loc 1 247 0
 627 0020 5979     		ldrb	r1, [r3, #5]	@ zero_extendqisi2
 628 0022 0931     		adds	r1, r1, #9
 629 0024 40F82150 		str	r5, [r0, r1, lsl #2]
 630              		.loc 1 248 0
 631 0028 9B79     		ldrb	r3, [r3, #6]	@ zero_extendqisi2
 632 002a 5A1D     		adds	r2, r3, #5
 633 002c 00EB8200 		add	r0, r0, r2, lsl #2
 634              	.LVL73:
 635              		.loc 1 249 0
 636 0030 0123     		movs	r3, #1
 637              		.loc 1 252 0
 638 0032 0221     		movs	r1, #2
 639              		.loc 1 248 0
 640 0034 4560     		str	r5, [r0, #4]
 641              		.loc 1 249 0
 642 0036 2372     		strb	r3, [r4, #8]
 643              		.loc 1 252 0
 644 0038 201D     		adds	r0, r4, #4
 645 003a FFF7FEFF 		bl	chEvtBroadcastFlagsI
 646              	.LVL74:
 647              		.loc 1 253 0
 648 003e 04F10C00 		add	r0, r4, #12
 649 0042 FFF7FEFF 		bl	chIQResetI
 650              	.LVL75:
 651              		.loc 1 254 0
 652 0046 04F13000 		add	r0, r4, #48
 653 004a FFF7FEFF 		bl	chOQResetI
 654              	.LVL76:
 655              		.loc 1 255 0
 656 004e FFF7FEFF 		bl	chSchRescheduleS
 657              	.LVL77:
 658              	.LBB11:
 659              		.loc 1 257 0
 660 0052 2B46     		mov	r3, r5
 661              	.LVL78:
 662              	@ 257 "../../os/hal/src/serial_usb.c" 1
 663 0054 83F31188 		msr     BASEPRI, r3
 664              	@ 0 "" 2
ARM GAS  /tmp/ccKyGZ8x.s 			page 13


 665              	.LVL79:
 666              		.thumb
 667 0058 38BD     		pop	{r3, r4, r5, pc}
 668              	.LBE11:
 669              		.cfi_endproc
 670              	.LFE131:
 671              		.size	sduStop, .-sduStop
 672 005a 00BFAFF3 		.section	.text.sduConfigureHookI,"ax",%progbits
 672      0080
 673              		.align	2
 674              		.p2align 4,,15
 675              		.global	sduConfigureHookI
 676              		.thumb
 677              		.thumb_func
 678              		.type	sduConfigureHookI, %function
 679              	sduConfigureHookI:
 680              	.LFB132:
 681              		.loc 1 267 0
 682              		.cfi_startproc
 683              		@ args = 0, pretend = 0, frame = 0
 684              		@ frame_needed = 0, uses_anonymous_args = 0
 685              	.LVL80:
 686 0000 70B5     		push	{r4, r5, r6, lr}
 687              	.LCFI6:
 688              		.cfi_def_cfa_offset 16
 689              		.cfi_offset 4, -16
 690              		.cfi_offset 5, -12
 691              		.cfi_offset 6, -8
 692              		.cfi_offset 14, -4
 693              		.loc 1 268 0
 694 0002 D0F85432 		ldr	r3, [r0, #596]
 695              		.loc 1 270 0
 696 0006 00F10C06 		add	r6, r0, #12
 697              		.loc 1 267 0
 698 000a 0446     		mov	r4, r0
 699              		.loc 1 270 0
 700 000c 3046     		mov	r0, r6
 701              	.LVL81:
 702              		.loc 1 268 0
 703 000e 1D68     		ldr	r5, [r3, #0]
 704              	.LVL82:
 705              		.loc 1 270 0
 706 0010 FFF7FEFF 		bl	chIQResetI
 707              	.LVL83:
 708              		.loc 1 271 0
 709 0014 04F13000 		add	r0, r4, #48
 710 0018 FFF7FEFF 		bl	chOQResetI
 711              	.LVL84:
 712              		.loc 1 272 0
 713 001c 201D     		adds	r0, r4, #4
 714 001e 0121     		movs	r1, #1
 715 0020 FFF7FEFF 		bl	chEvtBroadcastFlagsI
 716              	.LVL85:
 717              		.loc 1 276 0
 718 0024 D4F85402 		ldr	r0, [r4, #596]
 719 0028 4179     		ldrb	r1, [r0, #5]	@ zero_extendqisi2
 720 002a 05EB8102 		add	r2, r5, r1, lsl #2
ARM GAS  /tmp/ccKyGZ8x.s 			page 14


 721              		.loc 1 275 0
 722 002e 2846     		mov	r0, r5
 723              		.loc 1 276 0
 724 0030 D368     		ldr	r3, [r2, #12]
 725              		.loc 1 275 0
 726 0032 3246     		mov	r2, r6
 727 0034 5B8A     		ldrh	r3, [r3, #18]
 728 0036 FFF7FEFF 		bl	usbPrepareQueuedReceive
 729              	.LVL86:
 730              		.loc 1 277 0
 731 003a D4F85412 		ldr	r1, [r4, #596]
 732 003e 4979     		ldrb	r1, [r1, #5]	@ zero_extendqisi2
 733 0040 2846     		mov	r0, r5
 734              		.loc 1 278 0
 735 0042 BDE87040 		pop	{r4, r5, r6, lr}
 736              		.loc 1 277 0
 737 0046 FFF7FEBF 		b	usbStartReceiveI
 738              	.LVL87:
 739              		.cfi_endproc
 740              	.LFE132:
 741              		.size	sduConfigureHookI, .-sduConfigureHookI
 742 004a 00BFAFF3 		.section	.text.sduRequestsHook,"ax",%progbits
 742      0080
 743              		.align	2
 744              		.p2align 4,,15
 745              		.global	sduRequestsHook
 746              		.thumb
 747              		.thumb_func
 748              		.type	sduRequestsHook, %function
 749              	sduRequestsHook:
 750              	.LFB133:
 751              		.loc 1 295 0
 752              		.cfi_startproc
 753              		@ args = 0, pretend = 0, frame = 0
 754              		@ frame_needed = 0, uses_anonymous_args = 0
 755              		@ link register save eliminated.
 756              	.LVL88:
 757              		.loc 1 297 0
 758 0000 90F84430 		ldrb	r3, [r0, #68]	@ zero_extendqisi2
 759 0004 03F06001 		and	r1, r3, #96
 760 0008 2029     		cmp	r1, #32
 761 000a 01D0     		beq	.L32
 762              	.L31:
 763              		.loc 1 310 0
 764 000c 0020     		movs	r0, #0
 765              	.LVL89:
 766              		.loc 1 314 0
 767 000e 7047     		bx	lr
 768              	.LVL90:
 769              	.L32:
 770              		.loc 1 298 0
 771 0010 90F84520 		ldrb	r2, [r0, #69]	@ zero_extendqisi2
 772 0014 212A     		cmp	r2, #33
 773 0016 03D0     		beq	.L26
 774 0018 222A     		cmp	r2, #34
 775 001a 09D0     		beq	.L28
 776 001c 202A     		cmp	r2, #32
ARM GAS  /tmp/ccKyGZ8x.s 			page 15


 777 001e F5D1     		bne	.L31
 778              	.L26:
 779              		.loc 1 303 0
 780 0020 0649     		ldr	r1, .L33
 781 0022 0722     		movs	r2, #7
 782 0024 0023     		movs	r3, #0
 783 0026 8163     		str	r1, [r0, #56]
 784 0028 C263     		str	r2, [r0, #60]
 785 002a 0364     		str	r3, [r0, #64]
 786              		.loc 1 304 0
 787 002c 0120     		movs	r0, #1
 788              	.LVL91:
 789 002e 7047     		bx	lr
 790              	.LVL92:
 791              	.L28:
 792              		.loc 1 307 0
 793 0030 0023     		movs	r3, #0
 794 0032 8363     		str	r3, [r0, #56]
 795 0034 C363     		str	r3, [r0, #60]
 796 0036 0364     		str	r3, [r0, #64]
 797              		.loc 1 308 0
 798 0038 0120     		movs	r0, #1
 799              	.LVL93:
 800 003a 7047     		bx	lr
 801              	.L34:
 802              		.align	2
 803              	.L33:
 804 003c 00000000 		.word	.LANCHOR1
 805              		.cfi_endproc
 806              	.LFE133:
 807              		.size	sduRequestsHook, .-sduRequestsHook
 808              		.section	.text.sduDataTransmitted,"ax",%progbits
 809              		.align	2
 810              		.p2align 4,,15
 811              		.global	sduDataTransmitted
 812              		.thumb
 813              		.thumb_func
 814              		.type	sduDataTransmitted, %function
 815              	sduDataTransmitted:
 816              	.LFB134:
 817              		.loc 1 324 0
 818              		.cfi_startproc
 819              		@ args = 0, pretend = 0, frame = 0
 820              		@ frame_needed = 0, uses_anonymous_args = 0
 821              	.LVL94:
 822              		.loc 1 326 0
 823 0000 00EB8103 		add	r3, r0, r1, lsl #2
 824              		.loc 1 324 0
 825 0004 70B5     		push	{r4, r5, r6, lr}
 826              	.LCFI7:
 827              		.cfi_def_cfa_offset 16
 828              		.cfi_offset 4, -16
 829              		.cfi_offset 5, -12
 830              		.cfi_offset 6, -8
 831              		.cfi_offset 14, -4
 832              		.loc 1 326 0
 833 0006 9C69     		ldr	r4, [r3, #24]
ARM GAS  /tmp/ccKyGZ8x.s 			page 16


 834              	.LVL95:
 835              		.loc 1 324 0
 836 0008 0646     		mov	r6, r0
 837 000a 0D46     		mov	r5, r1
 838              		.loc 1 328 0
 839 000c ACB1     		cbz	r4, .L35
 840              	.LBB12:
 841              		.loc 1 331 0
 842 000e 2023     		movs	r3, #32
 843              	.LVL96:
 844              	@ 331 "../../os/hal/src/serial_usb.c" 1
 845 0010 83F31188 		msr     BASEPRI, r3
 846              	@ 0 "" 2
 847              	.LVL97:
 848              		.thumb
 849              	.LBE12:
 850              		.loc 1 332 0
 851 0014 0821     		movs	r1, #8
 852              	.LVL98:
 853 0016 201D     		adds	r0, r4, #4
 854              	.LVL99:
 855 0018 FFF7FEFF 		bl	chEvtBroadcastFlagsI
 856              	.LVL100:
 857              		.loc 1 334 0
 858 001c 216C     		ldr	r1, [r4, #64]
 859 001e E26B     		ldr	r2, [r4, #60]
 860 0020 A06B     		ldr	r0, [r4, #56]
 861 0022 8B1A     		subs	r3, r1, r2
 862              	.LVL101:
 863 0024 191A     		subs	r1, r3, r0
 864              	.LVL102:
 865 0026 11D1     		bne	.L46
 866              		.loc 1 344 0
 867 0028 06EB8502 		add	r2, r6, r5, lsl #2
 868 002c D068     		ldr	r0, [r2, #12]
 869 002e 4369     		ldr	r3, [r0, #20]
 870 0030 5968     		ldr	r1, [r3, #4]
 871              	.LVL103:
 872 0032 19B9     		cbnz	r1, .L47
 873              	.LVL104:
 874              	.L38:
 875              	.LBB13:
 876              		.loc 1 359 0
 877 0034 0023     		movs	r3, #0
 878              	.LVL105:
 879              	@ 359 "../../os/hal/src/serial_usb.c" 1
 880 0036 83F31188 		msr     BASEPRI, r3
 881              	@ 0 "" 2
 882              	.LVL106:
 883              		.thumb
 884              	.L35:
 885 003a 70BD     		pop	{r4, r5, r6, pc}
 886              	.LVL107:
 887              	.L47:
 888              	.LBE13:
 889              		.loc 1 346 0 discriminator 1
 890 003c 028A     		ldrh	r2, [r0, #16]
ARM GAS  /tmp/ccKyGZ8x.s 			page 17


 891 003e 501E     		subs	r0, r2, #1
 892              		.loc 1 344 0 discriminator 1
 893 0040 10EA0103 		ands	r3, r0, r1
 894 0044 F6D1     		bne	.L38
 895              	.LBB14:
 896              		.loc 1 351 0
 897              	@ 351 "../../os/hal/src/serial_usb.c" 1
 898 0046 83F31188 		msr     BASEPRI, r3
 899              	@ 0 "" 2
 900              	.LVL108:
 901              		.thumb
 902 004a 03E0     		b	.L45
 903              	.LVL109:
 904              	.L46:
 905              	.LBE14:
 906              	.LBB15:
 907              		.loc 1 337 0
 908 004c 0023     		movs	r3, #0
 909              	.LVL110:
 910              	@ 337 "../../os/hal/src/serial_usb.c" 1
 911 004e 83F31188 		msr     BASEPRI, r3
 912              	@ 0 "" 2
 913              	.LVL111:
 914              		.thumb
 915              	.LBE15:
 916              		.loc 1 339 0
 917 0052 0B46     		mov	r3, r1
 918              	.LVL112:
 919              	.L45:
 920              		.loc 1 353 0
 921 0054 3046     		mov	r0, r6
 922 0056 2946     		mov	r1, r5
 923 0058 04F13002 		add	r2, r4, #48
 924 005c FFF7FEFF 		bl	usbPrepareQueuedTransmit
 925              	.LVL113:
 926              	.LBB16:
 927              		.loc 1 355 0
 928 0060 2023     		movs	r3, #32
 929              	.LVL114:
 930              	@ 355 "../../os/hal/src/serial_usb.c" 1
 931 0062 83F31188 		msr     BASEPRI, r3
 932              	@ 0 "" 2
 933              	.LVL115:
 934              		.thumb
 935              	.LBE16:
 936              		.loc 1 356 0
 937 0066 3046     		mov	r0, r6
 938 0068 2946     		mov	r1, r5
 939 006a FFF7FEFF 		bl	usbStartTransmitI
 940              	.LVL116:
 941 006e E1E7     		b	.L38
 942              		.cfi_endproc
 943              	.LFE134:
 944              		.size	sduDataTransmitted, .-sduDataTransmitted
 945              		.section	.text.sduDataReceived,"ax",%progbits
 946              		.align	2
 947              		.p2align 4,,15
ARM GAS  /tmp/ccKyGZ8x.s 			page 18


 948              		.global	sduDataReceived
 949              		.thumb
 950              		.thumb_func
 951              		.type	sduDataReceived, %function
 952              	sduDataReceived:
 953              	.LFB135:
 954              		.loc 1 370 0
 955              		.cfi_startproc
 956              		@ args = 0, pretend = 0, frame = 0
 957              		@ frame_needed = 0, uses_anonymous_args = 0
 958              	.LVL117:
 959              		.loc 1 372 0
 960 0000 01F10903 		add	r3, r1, #9
 961              		.loc 1 370 0
 962 0004 70B5     		push	{r4, r5, r6, lr}
 963              	.LCFI8:
 964              		.cfi_def_cfa_offset 16
 965              		.cfi_offset 4, -16
 966              		.cfi_offset 5, -12
 967              		.cfi_offset 6, -8
 968              		.cfi_offset 14, -4
 969              		.loc 1 372 0
 970 0006 50F82340 		ldr	r4, [r0, r3, lsl #2]
 971              	.LVL118:
 972              		.loc 1 370 0
 973 000a 0D46     		mov	r5, r1
 974 000c 0646     		mov	r6, r0
 975              		.loc 1 374 0
 976 000e A4B1     		cbz	r4, .L48
 977              	.LBB17:
 978              		.loc 1 377 0
 979 0010 2023     		movs	r3, #32
 980              	.LVL119:
 981              	@ 377 "../../os/hal/src/serial_usb.c" 1
 982 0012 83F31188 		msr     BASEPRI, r3
 983              	@ 0 "" 2
 984              	.LVL120:
 985              		.thumb
 986              	.LBE17:
 987              		.loc 1 378 0
 988 0016 0421     		movs	r1, #4
 989              	.LVL121:
 990 0018 6018     		adds	r0, r4, r1
 991              	.LVL122:
 992 001a FFF7FEFF 		bl	chEvtBroadcastFlagsI
 993              	.LVL123:
 994              		.loc 1 382 0
 995 001e 06EB8501 		add	r1, r6, r5, lsl #2
 996              		.loc 1 383 0
 997 0022 E069     		ldr	r0, [r4, #28]
 998              		.loc 1 382 0
 999 0024 CA68     		ldr	r2, [r1, #12]
 1000              		.loc 1 383 0
 1001 0026 A169     		ldr	r1, [r4, #24]
 1002 0028 6369     		ldr	r3, [r4, #20]
 1003              		.loc 1 382 0
 1004 002a 528A     		ldrh	r2, [r2, #18]
ARM GAS  /tmp/ccKyGZ8x.s 			page 19


 1005              	.LVL124:
 1006              		.loc 1 383 0
 1007 002c 401A     		subs	r0, r0, r1
 1008 002e C11A     		subs	r1, r0, r3
 1009              	.LVL125:
 1010 0030 8A42     		cmp	r2, r1
 1011 0032 03D9     		bls	.L54
 1012              	.LVL126:
 1013              	.L50:
 1014              	.LBB18:
 1015              		.loc 1 395 0
 1016 0034 0023     		movs	r3, #0
 1017              	.LVL127:
 1018              	@ 395 "../../os/hal/src/serial_usb.c" 1
 1019 0036 83F31188 		msr     BASEPRI, r3
 1020              	@ 0 "" 2
 1021              	.LVL128:
 1022              		.thumb
 1023              	.L48:
 1024 003a 70BD     		pop	{r4, r5, r6, pc}
 1025              	.LVL129:
 1026              	.L54:
 1027              	.LBE18:
 1028              	.LBB19:
 1029              		.loc 1 386 0
 1030 003c 0023     		movs	r3, #0
 1031              	.LVL130:
 1032              	@ 386 "../../os/hal/src/serial_usb.c" 1
 1033 003e 83F31188 		msr     BASEPRI, r3
 1034              	@ 0 "" 2
 1035              	.LVL131:
 1036              		.thumb
 1037              	.LBE19:
 1038              		.loc 1 388 0
 1039 0042 B1FBF2F3 		udiv	r3, r1, r2
 1040              	.LVL132:
 1041              		.loc 1 389 0
 1042 0046 02FB03F3 		mul	r3, r2, r3
 1043              	.LVL133:
 1044 004a 3046     		mov	r0, r6
 1045 004c 2946     		mov	r1, r5
 1046 004e 04F10C02 		add	r2, r4, #12
 1047              	.LVL134:
 1048 0052 FFF7FEFF 		bl	usbPrepareQueuedReceive
 1049              	.LVL135:
 1050              	.LBB20:
 1051              		.loc 1 391 0
 1052 0056 2023     		movs	r3, #32
 1053              	.LVL136:
 1054              	@ 391 "../../os/hal/src/serial_usb.c" 1
 1055 0058 83F31188 		msr     BASEPRI, r3
 1056              	@ 0 "" 2
 1057              	.LVL137:
 1058              		.thumb
 1059              	.LBE20:
 1060              		.loc 1 392 0
 1061 005c 3046     		mov	r0, r6
ARM GAS  /tmp/ccKyGZ8x.s 			page 20


 1062 005e 2946     		mov	r1, r5
 1063 0060 FFF7FEFF 		bl	usbStartReceiveI
 1064              	.LVL138:
 1065 0064 E6E7     		b	.L50
 1066              		.cfi_endproc
 1067              	.LFE135:
 1068              		.size	sduDataReceived, .-sduDataReceived
 1069 0066 00BFAFF3 		.section	.text.sduInterruptTransmitted,"ax",%progbits
 1069      0080AFF3 
 1069      0080
 1070              		.align	2
 1071              		.p2align 4,,15
 1072              		.global	sduInterruptTransmitted
 1073              		.thumb
 1074              		.thumb_func
 1075              		.type	sduInterruptTransmitted, %function
 1076              	sduInterruptTransmitted:
 1077              	.LFB136:
 1078              		.loc 1 406 0
 1079              		.cfi_startproc
 1080              		@ args = 0, pretend = 0, frame = 0
 1081              		@ frame_needed = 0, uses_anonymous_args = 0
 1082              		@ link register save eliminated.
 1083              	.LVL139:
 1084 0000 7047     		bx	lr
 1085              		.cfi_endproc
 1086              	.LFE136:
 1087              		.size	sduInterruptTransmitted, .-sduInterruptTransmitted
 1088 0002 00BFAFF3 		.section	.rodata.vmt,"a",%progbits
 1088      0080AFF3 
 1088      0080AFF3 
 1088      0080
 1089              		.align	2
 1090              		.set	.LANCHOR0,. + 0
 1091              		.type	vmt, %object
 1092              		.size	vmt, 32
 1093              	vmt:
 1094 0000 00000000 		.word	write
 1095 0004 00000000 		.word	read
 1096 0008 00000000 		.word	put
 1097 000c 00000000 		.word	get
 1098 0010 00000000 		.word	putt
 1099 0014 00000000 		.word	gett
 1100 0018 00000000 		.word	writet
 1101 001c 00000000 		.word	readt
 1102              		.section	.data.linecoding,"aw",%progbits
 1103              		.align	2
 1104              		.set	.LANCHOR1,. + 0
 1105              		.type	linecoding, %object
 1106              		.size	linecoding, 7
 1107              	linecoding:
 1108 0000 00       		.byte	0
 1109 0001 96       		.byte	-106
 1110 0002 00       		.byte	0
 1111 0003 00       		.byte	0
 1112 0004 00       		.byte	0
 1113 0005 00       		.byte	0
ARM GAS  /tmp/ccKyGZ8x.s 			page 21


 1114 0006 08       		.byte	8
 1115 0007 00       		.text
 1116              	.Letext0:
 1117              		.file 2 "/usr/bin/../lib/gcc/arm-none-eabi/4.7.4/include/stddef.h"
 1118              		.file 3 "/usr/bin/../lib/gcc/arm-none-eabi/4.7.4/../../../../arm-none-eabi/include/stdint.h"
 1119              		.file 4 "../../os/ports/GCC/ARMCMx/chtypes.h"
 1120              		.file 5 "../../os/kernel/include/chlists.h"
 1121              		.file 6 "../../os/kernel/include/chthreads.h"
 1122              		.file 7 "../../os/ports/GCC/ARMCMx/chcore_v7m.h"
 1123              		.file 8 "../../os/kernel/include/chmtx.h"
 1124              		.file 9 "../../os/kernel/include/chevents.h"
 1125              		.file 10 "../../os/kernel/include/chqueues.h"
 1126              		.file 11 "../../os/hal/include/usb.h"
 1127              		.file 12 "../../os/hal/platforms/STM32/OTGv1/usb_lld.h"
 1128              		.file 13 "../../os/hal/platforms/STM32/OTGv1/stm32_otg.h"
 1129              		.file 14 "../../os/hal/include/serial_usb.h"
 1130              		.file 15 "../../os/ports/common/ARMCMx/CMSIS/include/core_cm4.h"
 1131              		.file 16 "../../os/kernel/include/chschd.h"