ARM GAS  /tmp/cc5hClMa.s 			page 1


   1              		.syntax unified
   2              		.cpu cortex-m4
   3              		.fpu softvfp
   4              		.eabi_attribute 20, 1
   5              		.eabi_attribute 21, 1
   6              		.eabi_attribute 23, 3
   7              		.eabi_attribute 24, 1
   8              		.eabi_attribute 25, 1
   9              		.eabi_attribute 26, 1
  10              		.eabi_attribute 30, 2
  11              		.eabi_attribute 34, 1
  12              		.eabi_attribute 18, 4
  13              		.thumb
  14              		.file	"shell.c"
  15              		.text
  16              	.Ltext0:
  17              		.cfi_sections	.debug_frame
  18              		.section	.text._strtok.constprop.2,"ax",%progbits
  19              		.align	2
  20              		.p2align 4,,15
  21              		.thumb
  22              		.thumb_func
  23              		.type	_strtok.constprop.2, %function
  24              	_strtok.constprop.2:
  25              	.LFB131:
  26              		.file 1 "../../os/various/shell.c"
  27              		.loc 1 37 0
  28              		.cfi_startproc
  29              		@ args = 0, pretend = 0, frame = 0
  30              		@ frame_needed = 0, uses_anonymous_args = 0
  31              	.LVL0:
  32 0000 38B5     		push	{r3, r4, r5, lr}
  33              	.LCFI0:
  34              		.cfi_def_cfa_offset 16
  35              		.cfi_offset 3, -16
  36              		.cfi_offset 4, -12
  37              		.cfi_offset 5, -8
  38              		.cfi_offset 14, -4
  39              		.loc 1 39 0
  40 0002 0446     		mov	r4, r0
  41              		.loc 1 37 0
  42 0004 0D46     		mov	r5, r1
  43              		.loc 1 39 0
  44 0006 98B1     		cbz	r0, .L2
  45              		.loc 1 40 0
  46 0008 2860     		str	r0, [r5, #0]
  47              	.LVL1:
  48              	.L3:
  49              		.loc 1 46 0
  50 000a 0C49     		ldr	r1, .L14
  51              	.LVL2:
  52 000c 2046     		mov	r0, r4
  53              	.LVL3:
  54 000e FFF7FEFF 		bl	strspn
  55              	.LVL4:
  56 0012 2418     		adds	r4, r4, r0
  57              	.LVL5:
ARM GAS  /tmp/cc5hClMa.s 			page 2


  58              		.loc 1 47 0
  59 0014 2046     		mov	r0, r4
  60 0016 0949     		ldr	r1, .L14
  61 0018 FFF7FEFF 		bl	strpbrk
  62              	.LVL6:
  63 001c 2860     		str	r0, [r5, #0]
  64              		.loc 1 48 0
  65 001e 18B1     		cbz	r0, .L5
  66              		.loc 1 49 0
  67 0020 0023     		movs	r3, #0
  68 0022 00F8013B 		strb	r3, [r0], #1
  69 0026 2860     		str	r0, [r5, #0]
  70              	.L5:
  71              		.loc 1 51 0
  72 0028 2078     		ldrb	r0, [r4, #0]	@ zero_extendqisi2
  73 002a 20B1     		cbz	r0, .L6
  74              		.loc 1 52 0
  75 002c 2046     		mov	r0, r4
  76 002e 38BD     		pop	{r3, r4, r5, pc}
  77              	.LVL7:
  78              	.L2:
  79              		.loc 1 41 0
  80 0030 0C68     		ldr	r4, [r1, #0]
  81              	.LVL8:
  82              		.loc 1 43 0
  83 0032 002C     		cmp	r4, #0
  84 0034 E9D1     		bne	.L3
  85              	.LVL9:
  86              	.L6:
  87              		.loc 1 44 0
  88 0036 0024     		movs	r4, #0
  89              	.LVL10:
  90              		.loc 1 52 0
  91 0038 2046     		mov	r0, r4
  92 003a 38BD     		pop	{r3, r4, r5, pc}
  93              	.L15:
  94              		.align	2
  95              	.L14:
  96 003c 00000000 		.word	.LC0
  97              		.cfi_endproc
  98              	.LFE131:
  99              		.size	_strtok.constprop.2, .-_strtok.constprop.2
 100              		.section	.text.cmd_systime,"ax",%progbits
 101              		.align	2
 102              		.p2align 4,,15
 103              		.thumb
 104              		.thumb_func
 105              		.type	cmd_systime, %function
 106              	cmd_systime:
 107              	.LFB122:
 108              		.loc 1 99 0
 109              		.cfi_startproc
 110              		@ args = 0, pretend = 0, frame = 0
 111              		@ frame_needed = 0, uses_anonymous_args = 0
 112              		@ link register save eliminated.
 113              	.LVL11:
 114              		.loc 1 102 0
ARM GAS  /tmp/cc5hClMa.s 			page 3


 115 0000 0029     		cmp	r1, #0
 116 0002 03DD     		ble	.L17
 117              	.LVL12:
 118              	.LBB6:
 119              	.LBB7:
 120              		.loc 1 56 0
 121 0004 0449     		ldr	r1, .L18
 122              	.LVL13:
 123 0006 054A     		ldr	r2, .L18+4
 124              	.LVL14:
 125              	.LBE7:
 126              	.LBE6:
 127              		.loc 1 107 0
 128              	.LBB9:
 129              	.LBB8:
 130              		.loc 1 56 0
 131 0008 FFF7FEBF 		b	chprintf
 132              	.LVL15:
 133              	.L17:
 134              	.LBE8:
 135              	.LBE9:
 136              	.LBB10:
 137              	.LBB11:
 138              		.loc 1 106 0
 139 000c 044B     		ldr	r3, .L18+8
 140 000e 0549     		ldr	r1, .L18+12
 141              	.LVL16:
 142 0010 DA68     		ldr	r2, [r3, #12]
 143              	.LVL17:
 144              	.LBE11:
 145              	.LBE10:
 146              		.loc 1 107 0
 147              	.LBB13:
 148              	.LBB12:
 149              		.loc 1 106 0
 150 0012 FFF7FEBF 		b	chprintf
 151              	.LVL18:
 152              	.L19:
 153 0016 00BF     		.align	2
 154              	.L18:
 155 0018 04000000 		.word	.LC1
 156 001c 10000000 		.word	.LC2
 157 0020 00000000 		.word	vtlist
 158 0024 18000000 		.word	.LC3
 159              	.LBE12:
 160              	.LBE13:
 161              		.cfi_endproc
 162              	.LFE122:
 163              		.size	cmd_systime, .-cmd_systime
 164 0028 AFF30080 		.section	.text.cmd_info,"ax",%progbits
 164      AFF30080 
 165              		.align	2
 166              		.p2align 4,,15
 167              		.thumb
 168              		.thumb_func
 169              		.type	cmd_info, %function
 170              	cmd_info:
ARM GAS  /tmp/cc5hClMa.s 			page 4


 171              	.LFB121:
 172              		.loc 1 67 0
 173              		.cfi_startproc
 174              		@ args = 0, pretend = 0, frame = 0
 175              		@ frame_needed = 0, uses_anonymous_args = 0
 176              	.LVL19:
 177 0000 10B5     		push	{r4, lr}
 178              	.LCFI1:
 179              		.cfi_def_cfa_offset 8
 180              		.cfi_offset 4, -8
 181              		.cfi_offset 14, -4
 182              		.loc 1 70 0
 183 0002 0029     		cmp	r1, #0
 184              		.loc 1 67 0
 185 0004 82B0     		sub	sp, sp, #8
 186              	.LCFI2:
 187              		.cfi_def_cfa_offset 16
 188              		.loc 1 67 0
 189 0006 0446     		mov	r4, r0
 190              		.loc 1 70 0
 191 0008 06DD     		ble	.L21
 192              	.LVL20:
 193              	.LBB18:
 194              	.LBB19:
 195              		.loc 1 56 0
 196 000a 1949     		ldr	r1, .L22
 197              	.LVL21:
 198 000c 194A     		ldr	r2, .L22+4
 199              	.LVL22:
 200              	.LBE19:
 201              	.LBE18:
 202              		.loc 1 97 0
 203 000e 02B0     		add	sp, sp, #8
 204 0010 BDE81040 		pop	{r4, lr}
 205              	.LBB21:
 206              	.LBB20:
 207              		.loc 1 56 0
 208 0014 FFF7FEBF 		b	chprintf
 209              	.LVL23:
 210              	.L21:
 211              	.LBE20:
 212              	.LBE21:
 213              	.LBB22:
 214              	.LBB23:
 215              		.loc 1 75 0
 216 0018 1749     		ldr	r1, .L22+8
 217              	.LVL24:
 218 001a 184A     		ldr	r2, .L22+12
 219              	.LVL25:
 220 001c FFF7FEFF 		bl	chprintf
 221              	.LVL26:
 222              		.loc 1 77 0
 223 0020 2046     		mov	r0, r4
 224 0022 1749     		ldr	r1, .L22+16
 225 0024 174A     		ldr	r2, .L22+20
 226 0026 FFF7FEFF 		bl	chprintf
 227              	.LVL27:
ARM GAS  /tmp/cc5hClMa.s 			page 5


 228              		.loc 1 79 0
 229 002a 2046     		mov	r0, r4
 230 002c 1649     		ldr	r1, .L22+24
 231 002e 174A     		ldr	r2, .L22+28
 232 0030 FFF7FEFF 		bl	chprintf
 233              	.LVL28:
 234              		.loc 1 81 0
 235 0034 2046     		mov	r0, r4
 236 0036 1649     		ldr	r1, .L22+32
 237 0038 164A     		ldr	r2, .L22+36
 238 003a FFF7FEFF 		bl	chprintf
 239              	.LVL29:
 240              		.loc 1 84 0
 241 003e 2046     		mov	r0, r4
 242 0040 1549     		ldr	r1, .L22+40
 243 0042 164A     		ldr	r2, .L22+44
 244 0044 FFF7FEFF 		bl	chprintf
 245              	.LVL30:
 246              		.loc 1 87 0
 247 0048 2046     		mov	r0, r4
 248 004a 1549     		ldr	r1, .L22+48
 249 004c 154A     		ldr	r2, .L22+52
 250 004e FFF7FEFF 		bl	chprintf
 251              	.LVL31:
 252              		.loc 1 90 0
 253 0052 2046     		mov	r0, r4
 254 0054 1449     		ldr	r1, .L22+56
 255 0056 154A     		ldr	r2, .L22+60
 256 0058 FFF7FEFF 		bl	chprintf
 257              	.LVL32:
 258              		.loc 1 94 0
 259 005c 144B     		ldr	r3, .L22+64
 260 005e 1549     		ldr	r1, .L22+68
 261 0060 0093     		str	r3, [sp, #0]
 262 0062 2046     		mov	r0, r4
 263 0064 144A     		ldr	r2, .L22+72
 264 0066 154B     		ldr	r3, .L22+76
 265 0068 FFF7FEFF 		bl	chprintf
 266              	.LVL33:
 267              	.LBE23:
 268              	.LBE22:
 269              		.loc 1 97 0
 270 006c 02B0     		add	sp, sp, #8
 271 006e 10BD     		pop	{r4, pc}
 272              	.L23:
 273              		.align	2
 274              	.L22:
 275 0070 04000000 		.word	.LC1
 276 0074 20000000 		.word	.LC4
 277 0078 28000000 		.word	.LC5
 278 007c 3C000000 		.word	.LC6
 279 0080 4C000000 		.word	.LC7
 280 0084 60000000 		.word	.LC8
 281 0088 A8000000 		.word	.LC9
 282 008c BC000000 		.word	.LC10
 283 0090 C8000000 		.word	.LC11
 284 0094 DC000000 		.word	.LC12
ARM GAS  /tmp/cc5hClMa.s 			page 6


 285 0098 E8000000 		.word	.LC13
 286 009c FC000000 		.word	.LC14
 287 00a0 14010000 		.word	.LC15
 288 00a4 28010000 		.word	.LC16
 289 00a8 44010000 		.word	.LC17
 290 00ac 58010000 		.word	.LC18
 291 00b0 A8010000 		.word	.LC22
 292 00b4 80010000 		.word	.LC19
 293 00b8 98010000 		.word	.LC20
 294 00bc A4010000 		.word	.LC21
 295              		.cfi_endproc
 296              	.LFE121:
 297              		.size	cmd_info, .-cmd_info
 298              		.section	.text.shellInit,"ax",%progbits
 299              		.align	2
 300              		.p2align 4,,15
 301              		.global	shellInit
 302              		.thumb
 303              		.thumb_func
 304              		.type	shellInit, %function
 305              	shellInit:
 306              	.LFB125:
 307              		.loc 1 204 0
 308              		.cfi_startproc
 309              		@ args = 0, pretend = 0, frame = 0
 310              		@ frame_needed = 0, uses_anonymous_args = 0
 311              		@ link register save eliminated.
 312              		.loc 1 206 0
 313 0000 40F20003 		movw	r3, #:lower16:.LANCHOR0
 314 0004 C0F20003 		movt	r3, #:upper16:.LANCHOR0
 315 0008 1B60     		str	r3, [r3, #0]
 316 000a 7047     		bx	lr
 317              		.cfi_endproc
 318              	.LFE125:
 319              		.size	shellInit, .-shellInit
 320 000c AFF30080 		.section	.text.shellCreate,"ax",%progbits
 321              		.align	2
 322              		.p2align 4,,15
 323              		.global	shellCreate
 324              		.thumb
 325              		.thumb_func
 326              		.type	shellCreate, %function
 327              	shellCreate:
 328              	.LFB126:
 329              		.loc 1 220 0
 330              		.cfi_startproc
 331              		@ args = 0, pretend = 0, frame = 0
 332              		@ frame_needed = 0, uses_anonymous_args = 0
 333              	.LVL34:
 334 0000 00B5     		push	{lr}
 335              	.LCFI3:
 336              		.cfi_def_cfa_offset 4
 337              		.cfi_offset 14, -4
 338 0002 83B0     		sub	sp, sp, #12
 339              	.LCFI4:
 340              		.cfi_def_cfa_offset 16
 341              		.loc 1 222 0
ARM GAS  /tmp/cc5hClMa.s 			page 7


 342 0004 40F20003 		movw	r3, #:lower16:shell_thread
 343 0008 0090     		str	r0, [sp, #0]
 344 000a C0F20003 		movt	r3, #:upper16:shell_thread
 345 000e 0020     		movs	r0, #0
 346              	.LVL35:
 347 0010 FFF7FEFF 		bl	chThdCreateFromHeap
 348              	.LVL36:
 349              		.loc 1 223 0
 350 0014 03B0     		add	sp, sp, #12
 351 0016 00BD     		pop	{pc}
 352              		.cfi_endproc
 353              	.LFE126:
 354              		.size	shellCreate, .-shellCreate
 355 0018 AFF30080 		.section	.text.shellCreateStatic,"ax",%progbits
 355      AFF30080 
 356              		.align	2
 357              		.p2align 4,,15
 358              		.global	shellCreateStatic
 359              		.thumb
 360              		.thumb_func
 361              		.type	shellCreateStatic, %function
 362              	shellCreateStatic:
 363              	.LFB127:
 364              		.loc 1 236 0
 365              		.cfi_startproc
 366              		@ args = 0, pretend = 0, frame = 0
 367              		@ frame_needed = 0, uses_anonymous_args = 0
 368              	.LVL37:
 369 0000 00B5     		push	{lr}
 370              	.LCFI5:
 371              		.cfi_def_cfa_offset 4
 372              		.cfi_offset 14, -4
 373 0002 83B0     		sub	sp, sp, #12
 374              	.LCFI6:
 375              		.cfi_def_cfa_offset 16
 376              		.loc 1 238 0
 377 0004 0090     		str	r0, [sp, #0]
 378 0006 0846     		mov	r0, r1
 379              	.LVL38:
 380 0008 1146     		mov	r1, r2
 381              	.LVL39:
 382 000a 1A46     		mov	r2, r3
 383              	.LVL40:
 384 000c 40F20003 		movw	r3, #:lower16:shell_thread
 385              	.LVL41:
 386 0010 C0F20003 		movt	r3, #:upper16:shell_thread
 387 0014 FFF7FEFF 		bl	chThdCreateStatic
 388              	.LVL42:
 389              		.loc 1 239 0
 390 0018 03B0     		add	sp, sp, #12
 391 001a 00BD     		pop	{pc}
 392              		.cfi_endproc
 393              	.LFE127:
 394              		.size	shellCreateStatic, .-shellCreateStatic
 395 001c AFF30080 		.section	.text.shellGetLine,"ax",%progbits
 396              		.align	2
 397              		.p2align 4,,15
ARM GAS  /tmp/cc5hClMa.s 			page 8


 398              		.global	shellGetLine
 399              		.thumb
 400              		.thumb_func
 401              		.type	shellGetLine, %function
 402              	shellGetLine:
 403              	.LFB128:
 404              		.loc 1 251 0
 405              		.cfi_startproc
 406              		@ args = 0, pretend = 0, frame = 8
 407              		@ frame_needed = 0, uses_anonymous_args = 0
 408              	.LVL43:
 409 0000 F0B5     		push	{r4, r5, r6, r7, lr}
 410              	.LCFI7:
 411              		.cfi_def_cfa_offset 20
 412              		.cfi_offset 4, -20
 413              		.cfi_offset 5, -16
 414              		.cfi_offset 6, -12
 415              		.cfi_offset 7, -8
 416              		.cfi_offset 14, -4
 417              	.LBB24:
 418              		.loc 1 279 0
 419 0002 013A     		subs	r2, r2, #1
 420              	.LVL44:
 421              	.LBE24:
 422              		.loc 1 251 0
 423 0004 83B0     		sub	sp, sp, #12
 424              	.LCFI8:
 425              		.cfi_def_cfa_offset 32
 426              		.loc 1 251 0
 427 0006 0E46     		mov	r6, r1
 428              	.LVL45:
 429 0008 0446     		mov	r4, r0
 430              		.loc 1 252 0
 431 000a 0D46     		mov	r5, r1
 432              	.LBB25:
 433              		.loc 1 279 0
 434 000c 8F18     		adds	r7, r1, r2
 435              	.LVL46:
 436              	.L39:
 437              		.loc 1 257 0
 438 000e 2368     		ldr	r3, [r4, #0]
 439 0010 0122     		movs	r2, #1
 440 0012 0DF10701 		add	r1, sp, #7
 441 0016 5B68     		ldr	r3, [r3, #4]
 442 0018 2046     		mov	r0, r4
 443 001a 9847     		blx	r3
 444              	.LVL47:
 445 001c 38B3     		cbz	r0, .L36
 446              		.loc 1 259 0
 447 001e 9DF80710 		ldrb	r1, [sp, #7]	@ zero_extendqisi2
 448 0022 0429     		cmp	r1, #4
 449 0024 26D0     		beq	.L40
 450              		.loc 1 263 0
 451 0026 0829     		cmp	r1, #8
 452 0028 0ED0     		beq	.L41
 453              		.loc 1 272 0
 454 002a 0D29     		cmp	r1, #13
ARM GAS  /tmp/cc5hClMa.s 			page 9


 455 002c 28D0     		beq	.L42
 456              		.loc 1 277 0
 457 002e 1F29     		cmp	r1, #31
 458 0030 EDD9     		bls	.L39
 459              		.loc 1 279 0
 460 0032 BD42     		cmp	r5, r7
 461 0034 EBD2     		bcs	.L39
 462              		.loc 1 280 0
 463 0036 2268     		ldr	r2, [r4, #0]
 464 0038 2046     		mov	r0, r4
 465 003a 9368     		ldr	r3, [r2, #8]
 466 003c 9847     		blx	r3
 467              	.LVL48:
 468              		.loc 1 281 0
 469 003e 9DF80700 		ldrb	r0, [sp, #7]	@ zero_extendqisi2
 470              	.LVL49:
 471 0042 05F8010B 		strb	r0, [r5], #1
 472              	.LVL50:
 473 0046 E2E7     		b	.L39
 474              	.LVL51:
 475              	.L41:
 476              		.loc 1 264 0
 477 0048 B542     		cmp	r5, r6
 478              		.loc 1 265 0
 479 004a 2046     		mov	r0, r4
 480              		.loc 1 264 0
 481 004c DFD0     		beq	.L39
 482              	.LVL52:
 483              		.loc 1 265 0
 484 004e 2268     		ldr	r2, [r4, #0]
 485 0050 9368     		ldr	r3, [r2, #8]
 486 0052 9847     		blx	r3
 487              	.LVL53:
 488              		.loc 1 266 0
 489 0054 2068     		ldr	r0, [r4, #0]
 490 0056 2021     		movs	r1, #32
 491 0058 8268     		ldr	r2, [r0, #8]
 492 005a 2046     		mov	r0, r4
 493 005c 9047     		blx	r2
 494              	.LVL54:
 495              		.loc 1 267 0
 496 005e 2368     		ldr	r3, [r4, #0]
 497 0060 9DF80710 		ldrb	r1, [sp, #7]	@ zero_extendqisi2
 498 0064 9A68     		ldr	r2, [r3, #8]
 499 0066 2046     		mov	r0, r4
 500 0068 9047     		blx	r2
 501              	.LVL55:
 502              		.loc 1 268 0
 503 006a 013D     		subs	r5, r5, #1
 504              	.LVL56:
 505 006c CFE7     		b	.L39
 506              	.L36:
 507              		.loc 1 258 0
 508 006e 0120     		movs	r0, #1
 509              	.L29:
 510              	.LBE25:
 511              		.loc 1 284 0
ARM GAS  /tmp/cc5hClMa.s 			page 10


 512 0070 03B0     		add	sp, sp, #12
 513 0072 F0BD     		pop	{r4, r5, r6, r7, pc}
 514              	.L40:
 515              	.LBB26:
 516              		.loc 1 260 0
 517 0074 2046     		mov	r0, r4
 518 0076 0649     		ldr	r1, .L43
 519 0078 FFF7FEFF 		bl	chprintf
 520              	.LVL57:
 521              		.loc 1 261 0
 522 007c 0120     		movs	r0, #1
 523 007e F7E7     		b	.L29
 524              	.L42:
 525              		.loc 1 273 0
 526 0080 2046     		mov	r0, r4
 527 0082 0449     		ldr	r1, .L43+4
 528 0084 FFF7FEFF 		bl	chprintf
 529              	.LVL58:
 530              		.loc 1 274 0
 531 0088 0020     		movs	r0, #0
 532 008a 2870     		strb	r0, [r5, #0]
 533 008c F0E7     		b	.L29
 534              	.L44:
 535 008e 00BF     		.align	2
 536              	.L43:
 537 0090 B4010000 		.word	.LC23
 538 0094 B8010000 		.word	.LC24
 539              	.LBE26:
 540              		.cfi_endproc
 541              	.LFE128:
 542              		.size	shellGetLine, .-shellGetLine
 543 0098 AFF30080 		.section	.text.shell_thread,"ax",%progbits
 543      AFF30080 
 544              		.align	2
 545              		.p2align 4,,15
 546              		.thumb
 547              		.thumb_func
 548              		.type	shell_thread, %function
 549              	shell_thread:
 550              	.LFB124:
 551              		.loc 1 139 0
 552              		.cfi_startproc
 553              		@ args = 0, pretend = 0, frame = 88
 554              		@ frame_needed = 0, uses_anonymous_args = 0
 555              	.LVL59:
 556 0000 2DE9F043 		push	{r4, r5, r6, r7, r8, r9, lr}
 557              	.LCFI9:
 558              		.cfi_def_cfa_offset 28
 559              		.cfi_offset 4, -28
 560              		.cfi_offset 5, -24
 561              		.cfi_offset 6, -20
 562              		.cfi_offset 7, -16
 563              		.cfi_offset 8, -12
 564              		.cfi_offset 9, -8
 565              		.cfi_offset 14, -4
 566              		.loc 1 147 0
 567 0004 6A4B     		ldr	r3, .L99
ARM GAS  /tmp/cc5hClMa.s 			page 11


 568              		.loc 1 142 0
 569 0006 0568     		ldr	r5, [r0, #0]
 570              	.LVL60:
 571              		.loc 1 147 0
 572 0008 9C69     		ldr	r4, [r3, #24]
 573 000a 6A4A     		ldr	r2, .L99+4
 574              		.loc 1 143 0
 575 000c 4768     		ldr	r7, [r0, #4]
 576              	.LVL61:
 577              		.loc 1 148 0
 578 000e 6A49     		ldr	r1, .L99+8
 579              		.loc 1 147 0
 580 0010 A261     		str	r2, [r4, #24]
 581              		.loc 1 139 0
 582 0012 97B0     		sub	sp, sp, #92
 583              	.LCFI10:
 584              		.cfi_def_cfa_offset 120
 585              		.loc 1 148 0
 586 0014 2846     		mov	r0, r5
 587              	.LVL62:
 588 0016 FFF7FEFF 		bl	chprintf
 589              	.LVL63:
 590              	.LBB40:
 591              	.LBB41:
 592              		.loc 1 61 0
 593 001a DFF8C081 		ldr	r8, .L99+44
 594              	.L94:
 595              	.LBE41:
 596              	.LBE40:
 597              		.loc 1 150 0
 598 001e 2846     		mov	r0, r5
 599 0020 6649     		ldr	r1, .L99+12
 600 0022 FFF7FEFF 		bl	chprintf
 601              	.LVL64:
 602              		.loc 1 151 0
 603 0026 2846     		mov	r0, r5
 604 0028 06A9     		add	r1, sp, #24
 605 002a 4022     		movs	r2, #64
 606 002c FFF7FEFF 		bl	shellGetLine
 607              	.LVL65:
 608 0030 0446     		mov	r4, r0
 609 0032 0028     		cmp	r0, #0
 610 0034 30D1     		bne	.L97
 611              		.loc 1 155 0
 612 0036 6946     		mov	r1, sp
 613 0038 06A8     		add	r0, sp, #24
 614 003a FFF7FEFF 		bl	_strtok.constprop.2
 615              	.LVL66:
 616              		.loc 1 158 0
 617 003e 6946     		mov	r1, sp
 618              		.loc 1 155 0
 619 0040 0646     		mov	r6, r0
 620              	.LVL67:
 621              		.loc 1 158 0
 622 0042 2046     		mov	r0, r4
 623              	.LVL68:
 624 0044 FFF7FEFF 		bl	_strtok.constprop.2
ARM GAS  /tmp/cc5hClMa.s 			page 12


 625              	.LVL69:
 626 0048 0346     		mov	r3, r0
 627 004a 0028     		cmp	r0, #0
 628 004c 36D0     		beq	.L68
 629 004e 2046     		mov	r0, r4
 630              	.LVL70:
 631 0050 6946     		mov	r1, sp
 632              		.loc 1 164 0
 633 0052 0193     		str	r3, [sp, #4]
 634              	.LVL71:
 635              		.loc 1 158 0
 636 0054 FFF7FEFF 		bl	_strtok.constprop.2
 637              	.LVL72:
 638 0058 0246     		mov	r2, r0
 639 005a 0028     		cmp	r0, #0
 640 005c 50D0     		beq	.L69
 641 005e 2046     		mov	r0, r4
 642              	.LVL73:
 643 0060 6946     		mov	r1, sp
 644              		.loc 1 164 0
 645 0062 0292     		str	r2, [sp, #8]
 646              	.LVL74:
 647              		.loc 1 158 0
 648 0064 FFF7FEFF 		bl	_strtok.constprop.2
 649              	.LVL75:
 650 0068 0346     		mov	r3, r0
 651 006a 0028     		cmp	r0, #0
 652 006c 4AD0     		beq	.L70
 653 006e 2046     		mov	r0, r4
 654              	.LVL76:
 655 0070 6946     		mov	r1, sp
 656              		.loc 1 164 0
 657 0072 0393     		str	r3, [sp, #12]
 658              	.LVL77:
 659              		.loc 1 158 0
 660 0074 FFF7FEFF 		bl	_strtok.constprop.2
 661              	.LVL78:
 662 0078 0246     		mov	r2, r0
 663 007a 0028     		cmp	r0, #0
 664 007c 44D0     		beq	.L71
 665 007e 2046     		mov	r0, r4
 666              	.LVL79:
 667 0080 6946     		mov	r1, sp
 668              		.loc 1 164 0
 669 0082 0492     		str	r2, [sp, #16]
 670              	.LVL80:
 671              		.loc 1 158 0
 672 0084 FFF7FEFF 		bl	_strtok.constprop.2
 673              	.LVL81:
 674 0088 0028     		cmp	r0, #0
 675 008a 3FD0     		beq	.L72
 676              		.loc 1 160 0
 677 008c 2846     		mov	r0, r5
 678              	.LVL82:
 679 008e 4C49     		ldr	r1, .L99+16
 680 0090 FFF7FEFF 		bl	chprintf
 681              	.LVL83:
ARM GAS  /tmp/cc5hClMa.s 			page 13


 682              		.loc 1 166 0
 683 0094 0594     		str	r4, [sp, #20]
 684 0096 C2E7     		b	.L94
 685              	.LVL84:
 686              	.L97:
 687              		.loc 1 152 0
 688 0098 2846     		mov	r0, r5
 689 009a 4A49     		ldr	r1, .L99+20
 690 009c FFF7FEFF 		bl	chprintf
 691              	.LVL85:
 692              	.L48:
 693              	.LBB43:
 694              		.loc 1 195 0
 695 00a0 2023     		movs	r3, #32
 696              	.LVL86:
 697              	@ 195 "../../os/various/shell.c" 1
 698 00a2 83F31188 		msr     BASEPRI, r3
 699              	@ 0 "" 2
 700              	.LVL87:
 701              		.thumb
 702              	.LBE43:
 703              		.loc 1 196 0
 704 00a6 0021     		movs	r1, #0
 705 00a8 4748     		ldr	r0, .L99+24
 706 00aa FFF7FEFF 		bl	chEvtBroadcastFlagsI
 707              	.LVL88:
 708              		.loc 1 197 0
 709 00ae 0020     		movs	r0, #0
 710 00b0 FFF7FEFF 		bl	chThdExitS
 711              	.LVL89:
 712              		.loc 1 199 0
 713 00b4 0020     		movs	r0, #0
 714 00b6 17B0     		add	sp, sp, #92
 715 00b8 BDE8F083 		pop	{r4, r5, r6, r7, r8, r9, pc}
 716              	.LVL90:
 717              	.L68:
 718              		.loc 1 157 0
 719 00bc 0446     		mov	r4, r0
 720              	.LVL91:
 721              	.L49:
 722              		.loc 1 166 0
 723 00be 16A8     		add	r0, sp, #88
 724              	.LVL92:
 725 00c0 00EB8401 		add	r1, r0, r4, lsl #2
 726 00c4 0023     		movs	r3, #0
 727 00c6 41F8543C 		str	r3, [r1, #-84]
 728              		.loc 1 167 0
 729 00ca 002E     		cmp	r6, #0
 730 00cc A7D0     		beq	.L94
 731              		.loc 1 168 0
 732 00ce 3046     		mov	r0, r6
 733 00d0 3E49     		ldr	r1, .L99+28
 734 00d2 FFF7FEFF 		bl	strcasecmp
 735              	.LVL93:
 736 00d6 38B9     		cbnz	r0, .L51
 737              		.loc 1 169 0
 738 00d8 002C     		cmp	r4, #0
ARM GAS  /tmp/cc5hClMa.s 			page 14


 739 00da E1D0     		beq	.L48
 740              	.LVL94:
 741              	.LBB44:
 742              	.LBB45:
 743              		.loc 1 56 0
 744 00dc 2846     		mov	r0, r5
 745 00de 3C49     		ldr	r1, .L99+32
 746 00e0 3A4A     		ldr	r2, .L99+28
 747 00e2 FFF7FEFF 		bl	chprintf
 748              	.LVL95:
 749              	.LBE45:
 750              	.LBE44:
 751              		.loc 1 171 0
 752 00e6 9AE7     		b	.L94
 753              	.LVL96:
 754              	.L51:
 755              		.loc 1 175 0
 756 00e8 3046     		mov	r0, r6
 757 00ea 3A49     		ldr	r1, .L99+36
 758 00ec FFF7FEFF 		bl	strcasecmp
 759              	.LVL97:
 760 00f0 70B9     		cbnz	r0, .L98
 761              	.LBB46:
 762              	.LBB47:
 763              		.loc 1 56 0
 764 00f2 2846     		mov	r0, r5
 765              	.LBE47:
 766              	.LBE46:
 767              		.loc 1 176 0
 768 00f4 1CB3     		cbz	r4, .L56
 769              	.LVL98:
 770              	.LBB49:
 771              	.LBB48:
 772              		.loc 1 56 0
 773 00f6 3649     		ldr	r1, .L99+32
 774 00f8 364A     		ldr	r2, .L99+36
 775 00fa FFF7FEFF 		bl	chprintf
 776              	.LVL99:
 777              	.LBE48:
 778              	.LBE49:
 779              		.loc 1 178 0
 780 00fe 8EE7     		b	.L94
 781              	.LVL100:
 782              	.L69:
 783              		.loc 1 164 0
 784 0100 0124     		movs	r4, #1
 785 0102 DCE7     		b	.L49
 786              	.LVL101:
 787              	.L70:
 788 0104 0224     		movs	r4, #2
 789 0106 DAE7     		b	.L49
 790              	.LVL102:
 791              	.L71:
 792 0108 0324     		movs	r4, #3
 793 010a D8E7     		b	.L49
 794              	.LVL103:
 795              	.L72:
ARM GAS  /tmp/cc5hClMa.s 			page 15


 796              		.loc 1 158 0
 797 010c 0424     		movs	r4, #4
 798 010e D6E7     		b	.L49
 799              	.LVL104:
 800              	.L98:
 801              	.LBB50:
 802              	.LBB51:
 803              		.loc 1 121 0
 804 0110 D8F80000 		ldr	r0, [r8, #0]
 805 0114 0028     		cmp	r0, #0
 806 0116 32D0     		beq	.L55
 807 0118 DFF8C090 		ldr	r9, .L99+44
 808 011c 03E0     		b	.L64
 809              	.LVL105:
 810              	.L63:
 811 011e 59F8080F 		ldr	r0, [r9, #8]!
 812              	.LVL106:
 813 0122 0028     		cmp	r0, #0
 814 0124 2BD0     		beq	.L55
 815              	.LVL107:
 816              	.L64:
 817              		.loc 1 122 0
 818 0126 3146     		mov	r1, r6
 819 0128 FFF7FEFF 		bl	strcasecmp
 820              	.LVL108:
 821 012c 0028     		cmp	r0, #0
 822 012e F6D1     		bne	.L63
 823              	.LVL109:
 824              	.L96:
 825              	.LBE51:
 826              	.LBE50:
 827              	.LBB52:
 828              	.LBB53:
 829              		.loc 1 123 0
 830 0130 D9F80430 		ldr	r3, [r9, #4]
 831 0134 2846     		mov	r0, r5
 832 0136 2146     		mov	r1, r4
 833 0138 01AA     		add	r2, sp, #4
 834 013a 9847     		blx	r3
 835              	.LVL110:
 836 013c 6FE7     		b	.L94
 837              	.LVL111:
 838              	.L56:
 839              	.LBE53:
 840              	.LBE52:
 841              		.loc 1 180 0
 842 013e 2649     		ldr	r1, .L99+40
 843 0140 FFF7FEFF 		bl	chprintf
 844              	.LVL112:
 845              	.LBB55:
 846              	.LBB42:
 847              		.loc 1 61 0
 848 0144 D8F80020 		ldr	r2, [r8, #0]
 849 0148 42B1     		cbz	r2, .L61
 850 014a 244C     		ldr	r4, .L99+44
 851              	.LVL113:
 852              	.L60:
ARM GAS  /tmp/cc5hClMa.s 			page 16


 853              		.loc 1 62 0
 854 014c 2846     		mov	r0, r5
 855 014e 2449     		ldr	r1, .L99+48
 856 0150 FFF7FEFF 		bl	chprintf
 857              	.LVL114:
 858              		.loc 1 61 0
 859 0154 54F8082F 		ldr	r2, [r4, #8]!
 860 0158 002A     		cmp	r2, #0
 861 015a F7D1     		bne	.L60
 862              	.L61:
 863              	.LBE42:
 864              	.LBE55:
 865              		.loc 1 182 0
 866 015c 57B1     		cbz	r7, .L59
 867              	.LVL115:
 868              	.LBB56:
 869              	.LBB57:
 870              		.loc 1 61 0
 871 015e 3A68     		ldr	r2, [r7, #0]
 872 0160 42B1     		cbz	r2, .L59
 873 0162 3C46     		mov	r4, r7
 874              	.LVL116:
 875              	.L62:
 876              		.loc 1 62 0
 877 0164 2846     		mov	r0, r5
 878 0166 1E49     		ldr	r1, .L99+48
 879 0168 FFF7FEFF 		bl	chprintf
 880              	.LVL117:
 881              		.loc 1 61 0
 882 016c 54F8082F 		ldr	r2, [r4, #8]!
 883 0170 002A     		cmp	r2, #0
 884 0172 F7D1     		bne	.L62
 885              	.L59:
 886              	.LBE57:
 887              	.LBE56:
 888              		.loc 1 184 0
 889 0174 2846     		mov	r0, r5
 890 0176 1B49     		ldr	r1, .L99+52
 891 0178 FFF7FEFF 		bl	chprintf
 892              	.LVL118:
 893 017c 4FE7     		b	.L94
 894              	.LVL119:
 895              	.L55:
 896              		.loc 1 186 0
 897 017e 67B1     		cbz	r7, .L67
 898              	.LVL120:
 899              	.LBB58:
 900              	.LBB54:
 901              		.loc 1 121 0
 902 0180 3868     		ldr	r0, [r7, #0]
 903 0182 50B1     		cbz	r0, .L67
 904 0184 B946     		mov	r9, r7
 905 0186 02E0     		b	.L66
 906              	.LVL121:
 907              	.L65:
 908 0188 59F8080F 		ldr	r0, [r9, #8]!
 909              	.LVL122:
ARM GAS  /tmp/cc5hClMa.s 			page 17


 910 018c 28B1     		cbz	r0, .L67
 911              	.LVL123:
 912              	.L66:
 913              		.loc 1 122 0
 914 018e 3146     		mov	r1, r6
 915 0190 FFF7FEFF 		bl	strcasecmp
 916              	.LVL124:
 917 0194 0028     		cmp	r0, #0
 918 0196 F7D1     		bne	.L65
 919 0198 CAE7     		b	.L96
 920              	.LVL125:
 921              	.L67:
 922              	.LBE54:
 923              	.LBE58:
 924              		.loc 1 188 0
 925 019a 2846     		mov	r0, r5
 926 019c 1249     		ldr	r1, .L99+56
 927 019e 3246     		mov	r2, r6
 928 01a0 FFF7FEFF 		bl	chprintf
 929              	.LVL126:
 930              		.loc 1 189 0
 931 01a4 2846     		mov	r0, r5
 932 01a6 1149     		ldr	r1, .L99+60
 933 01a8 FFF7FEFF 		bl	chprintf
 934              	.LVL127:
 935 01ac 37E7     		b	.L94
 936              	.L100:
 937 01ae 00BF     		.align	2
 938              	.L99:
 939 01b0 00000000 		.word	rlist
 940 01b4 BC010000 		.word	.LC25
 941 01b8 C4010000 		.word	.LC26
 942 01bc DC010000 		.word	.LC27
 943 01c0 F0010000 		.word	.LC29
 944 01c4 E4010000 		.word	.LC28
 945 01c8 00000000 		.word	.LANCHOR0
 946 01cc 08020000 		.word	.LC30
 947 01d0 04000000 		.word	.LC1
 948 01d4 10020000 		.word	.LC31
 949 01d8 18020000 		.word	.LC32
 950 01dc 00000000 		.word	.LANCHOR1
 951 01e0 30020000 		.word	.LC33
 952 01e4 B8010000 		.word	.LC24
 953 01e8 34020000 		.word	.LC34
 954 01ec 38020000 		.word	.LC35
 955              		.cfi_endproc
 956              	.LFE124:
 957              		.size	shell_thread, .-shell_thread
 958              		.global	shell_terminated
 959              		.section	.data.local_commands,"aw",%progbits
 960              		.align	2
 961              		.set	.LANCHOR1,. + 0
 962              		.type	local_commands, %object
 963              		.size	local_commands, 24
 964              	local_commands:
 965 0000 20000000 		.word	.LC4
 966 0004 00000000 		.word	cmd_info
ARM GAS  /tmp/cc5hClMa.s 			page 18


 967 0008 10000000 		.word	.LC2
 968 000c 00000000 		.word	cmd_systime
 969 0010 00000000 		.word	0
 970 0014 00000000 		.word	0
 971              		.section	.rodata.str1.4,"aMS",%progbits,1
 972              		.align	2
 973              	.LC0:
 974 0000 200900   		.ascii	" \011\000"
 975 0003 00       		.space	1
 976              	.LC1:
 977 0004 55736167 		.ascii	"Usage: %s\015\012\000"
 977      653A2025 
 977      730D0A00 
 978              	.LC2:
 979 0010 73797374 		.ascii	"systime\000"
 979      696D6500 
 980              	.LC3:
 981 0018 256C750D 		.ascii	"%lu\015\012\000"
 981      0A00
 982 001e 0000     		.space	2
 983              	.LC4:
 984 0020 696E666F 		.ascii	"info\000"
 984      00
 985 0025 000000   		.space	3
 986              	.LC5:
 987 0028 4B65726E 		.ascii	"Kernel:       %s\015\012\000"
 987      656C3A20 
 987      20202020 
 987      20202573 
 987      0D0A00
 988 003b 00       		.space	1
 989              	.LC6:
 990 003c 322E372E 		.ascii	"2.7.0unstable\000"
 990      30756E73 
 990      7461626C 
 990      6500
 991 004a 0000     		.space	2
 992              	.LC7:
 993 004c 436F6D70 		.ascii	"Compiler:     %s\015\012\000"
 993      696C6572 
 993      3A202020 
 993      20202573 
 993      0D0A00
 994 005f 00       		.space	1
 995              	.LC8:
 996 0060 47434320 		.ascii	"GCC 4.7.4 20130613 (release) [ARM/embedded-4_7-bran"
 996      342E372E 
 996      34203230 
 996      31333036 
 996      31332028 
 997 0093 63682072 		.ascii	"ch revision 200083]\000"
 997      65766973 
 997      696F6E20 
 997      32303030 
 997      38335D00 
 998 00a7 00       		.space	1
 999              	.LC9:
ARM GAS  /tmp/cc5hClMa.s 			page 19


 1000 00a8 41726368 		.ascii	"Architecture: %s\015\012\000"
 1000      69746563 
 1000      74757265 
 1000      3A202573 
 1000      0D0A00
 1001 00bb 00       		.space	1
 1002              	.LC10:
 1003 00bc 41524D76 		.ascii	"ARMv7-ME\000"
 1003      372D4D45 
 1003      00
 1004 00c5 000000   		.space	3
 1005              	.LC11:
 1006 00c8 436F7265 		.ascii	"Core Variant: %s\015\012\000"
 1006      20566172 
 1006      69616E74 
 1006      3A202573 
 1006      0D0A00
 1007 00db 00       		.space	1
 1008              	.LC12:
 1009 00dc 436F7274 		.ascii	"Cortex-M4\000"
 1009      65782D4D 
 1009      3400
 1010 00e6 0000     		.space	2
 1011              	.LC13:
 1012 00e8 506F7274 		.ascii	"Port Info:    %s\015\012\000"
 1012      20496E66 
 1012      6F3A2020 
 1012      20202573 
 1012      0D0A00
 1013 00fb 00       		.space	1
 1014              	.LC14:
 1015 00fc 41647661 		.ascii	"Advanced kernel mode\000"
 1015      6E636564 
 1015      206B6572 
 1015      6E656C20 
 1015      6D6F6465 
 1016 0111 000000   		.space	3
 1017              	.LC15:
 1018 0114 506C6174 		.ascii	"Platform:     %s\015\012\000"
 1018      666F726D 
 1018      3A202020 
 1018      20202573 
 1018      0D0A00
 1019 0127 00       		.space	1
 1020              	.LC16:
 1021 0128 53544D33 		.ascii	"STM32F4xx High Performance\000"
 1021      32463478 
 1021      78204869 
 1021      67682050 
 1021      6572666F 
 1022 0143 00       		.space	1
 1023              	.LC17:
 1024 0144 426F6172 		.ascii	"Board:        %s\015\012\000"
 1024      643A2020 
 1024      20202020 
 1024      20202573 
 1024      0D0A00
ARM GAS  /tmp/cc5hClMa.s 			page 20


 1025 0157 00       		.space	1
 1026              	.LC18:
 1027 0158 53544D69 		.ascii	"STMicroelectronics STM32F4-Discovery\000"
 1027      63726F65 
 1027      6C656374 
 1027      726F6E69 
 1027      63732053 
 1028 017d 000000   		.space	3
 1029              	.LC19:
 1030 0180 4275696C 		.ascii	"Build time:   %s%s%s\015\012\000"
 1030      64207469 
 1030      6D653A20 
 1030      20202573 
 1030      25732573 
 1031 0197 00       		.space	1
 1032              	.LC20:
 1033 0198 41756720 		.ascii	"Aug  7 2013\000"
 1033      20372032 
 1033      30313300 
 1034              	.LC21:
 1035 01a4 202D2000 		.ascii	" - \000"
 1036              	.LC22:
 1037 01a8 31363A31 		.ascii	"16:13:32\000"
 1037      333A3332 
 1037      00
 1038 01b1 000000   		.space	3
 1039              	.LC23:
 1040 01b4 5E4400   		.ascii	"^D\000"
 1041 01b7 00       		.space	1
 1042              	.LC24:
 1043 01b8 0D0A00   		.ascii	"\015\012\000"
 1044 01bb 00       		.space	1
 1045              	.LC25:
 1046 01bc 7368656C 		.ascii	"shell\000"
 1046      6C00
 1047 01c2 0000     		.space	2
 1048              	.LC26:
 1049 01c4 0D0A4368 		.ascii	"\015\012ChibiOS/RT Shell\015\012\000"
 1049      6962694F 
 1049      532F5254 
 1049      20536865 
 1049      6C6C0D0A 
 1050 01d9 000000   		.space	3
 1051              	.LC27:
 1052 01dc 63683E20 		.ascii	"ch> \000"
 1052      00
 1053 01e1 000000   		.space	3
 1054              	.LC28:
 1055 01e4 0D0A6C6F 		.ascii	"\015\012logout\000"
 1055      676F7574 
 1055      00
 1056 01ed 000000   		.space	3
 1057              	.LC29:
 1058 01f0 746F6F20 		.ascii	"too many arguments\015\012\000"
 1058      6D616E79 
 1058      20617267 
 1058      756D656E 
ARM GAS  /tmp/cc5hClMa.s 			page 21


 1058      74730D0A 
 1059 0205 000000   		.space	3
 1060              	.LC30:
 1061 0208 65786974 		.ascii	"exit\000"
 1061      00
 1062 020d 000000   		.space	3
 1063              	.LC31:
 1064 0210 68656C70 		.ascii	"help\000"
 1064      00
 1065 0215 000000   		.space	3
 1066              	.LC32:
 1067 0218 436F6D6D 		.ascii	"Commands: help exit \000"
 1067      616E6473 
 1067      3A206865 
 1067      6C702065 
 1067      78697420 
 1068 022d 000000   		.space	3
 1069              	.LC33:
 1070 0230 25732000 		.ascii	"%s \000"
 1071              	.LC34:
 1072 0234 257300   		.ascii	"%s\000"
 1073 0237 00       		.space	1
 1074              	.LC35:
 1075 0238 203F0D0A 		.ascii	" ?\015\012\000"
 1075      00
 1076 023d 000000   		.section	.bss.shell_terminated,"aw",%nobits
 1077              		.align	2
 1078              		.set	.LANCHOR0,. + 0
 1079              		.type	shell_terminated, %object
 1080              		.size	shell_terminated, 4
 1081              	shell_terminated:
 1082 0000 00000000 		.space	4
 1083              		.text
 1084              	.Letext0:
 1085              		.file 2 "/usr/bin/../lib/gcc/arm-none-eabi/4.7.4/include/stddef.h"
 1086              		.file 3 "/usr/bin/../lib/gcc/arm-none-eabi/4.7.4/../../../../arm-none-eabi/include/stdint.h"
 1087              		.file 4 "../../os/ports/GCC/ARMCMx/chtypes.h"
 1088              		.file 5 "../../os/kernel/include/chlists.h"
 1089              		.file 6 "../../os/kernel/include/chthreads.h"
 1090              		.file 7 "../../os/ports/GCC/ARMCMx/chcore_v7m.h"
 1091              		.file 8 "../../os/kernel/include/chvt.h"
 1092              		.file 9 "../../os/kernel/include/chschd.h"
 1093              		.file 10 "../../os/kernel/include/chmtx.h"
 1094              		.file 11 "../../os/kernel/include/chevents.h"
 1095              		.file 12 "../../os/kernel/include/chmemcore.h"
 1096              		.file 13 "../../os/kernel/include/chheap.h"
 1097              		.file 14 "../../os/kernel/include/chstreams.h"
 1098              		.file 15 "../../os/various/shell.h"
 1099              		.file 16 "../../os/ports/common/ARMCMx/CMSIS/include/core_cm4.h"
 1100              		.file 17 "/usr/bin/../lib/gcc/arm-none-eabi/4.7.4/../../../../arm-none-eabi/include/string.h"
 1101              		.file 18 "../../os/kernel/include/chdynamic.h"
 1102              		.file 19 "../../os/various/chprintf.h"