ARM GAS  /tmp/ccT5VYSn.s 			page 1


   1              		.syntax unified
   2              		.cpu cortex-m4
   3              		.fpu softvfp
   4              		.eabi_attribute 20, 1
   5              		.eabi_attribute 21, 1
   6              		.eabi_attribute 23, 3
   7              		.eabi_attribute 24, 1
   8              		.eabi_attribute 25, 1
   9              		.eabi_attribute 26, 1
  10              		.eabi_attribute 30, 2
  11              		.eabi_attribute 34, 1
  12              		.eabi_attribute 18, 4
  13              		.thumb
  14              		.file	"spi.c"
  15              		.text
  16              	.Ltext0:
  17              		.cfi_sections	.debug_frame
  18              		.section	.text.spiInit,"ax",%progbits
  19              		.align	2
  20              		.p2align 4,,15
  21              		.global	spiInit
  22              		.thumb
  23              		.thumb_func
  24              		.type	spiInit, %function
  25              	spiInit:
  26              	.LFB118:
  27              		.file 1 "../../os/hal/src/spi.c"
  28              		.loc 1 61 0
  29              		.cfi_startproc
  30              		@ args = 0, pretend = 0, frame = 0
  31              		@ frame_needed = 0, uses_anonymous_args = 0
  32              		@ link register save eliminated.
  33              		.loc 1 64 0
  34              		.loc 1 63 0
  35 0000 FFF7FEBF 		b	spi_lld_init
  36              	.LVL0:
  37              		.cfi_endproc
  38              	.LFE118:
  39              		.size	spiInit, .-spiInit
  40 0004 AFF30080 		.section	.text.spiObjectInit,"ax",%progbits
  40      AFF30080 
  40      AFF30080 
  41              		.align	2
  42              		.p2align 4,,15
  43              		.global	spiObjectInit
  44              		.thumb
  45              		.thumb_func
  46              		.type	spiObjectInit, %function
  47              	spiObjectInit:
  48              	.LFB119:
  49              		.loc 1 73 0
  50              		.cfi_startproc
  51              		@ args = 0, pretend = 0, frame = 0
  52              		@ frame_needed = 0, uses_anonymous_args = 0
  53              		@ link register save eliminated.
  54              	.LVL1:
  55              		.loc 1 76 0
ARM GAS  /tmp/ccT5VYSn.s 			page 2


  56 0000 0023     		movs	r3, #0
  57              		.loc 1 75 0
  58 0002 0122     		movs	r2, #1
  59 0004 0270     		strb	r2, [r0, #0]
  60              		.loc 1 76 0
  61 0006 4360     		str	r3, [r0, #4]
  62              		.loc 1 78 0
  63 0008 8360     		str	r3, [r0, #8]
  64              		.loc 1 82 0
  65 000a 0C30     		adds	r0, r0, #12
  66              	.LVL2:
  67              		.loc 1 90 0
  68              		.loc 1 82 0
  69 000c FFF7FEBF 		b	chMtxInit
  70              	.LVL3:
  71              		.cfi_endproc
  72              	.LFE119:
  73              		.size	spiObjectInit, .-spiObjectInit
  74              		.section	.text.spiStart,"ax",%progbits
  75              		.align	2
  76              		.p2align 4,,15
  77              		.global	spiStart
  78              		.thumb
  79              		.thumb_func
  80              		.type	spiStart, %function
  81              	spiStart:
  82              	.LFB120:
  83              		.loc 1 100 0
  84              		.cfi_startproc
  85              		@ args = 0, pretend = 0, frame = 0
  86              		@ frame_needed = 0, uses_anonymous_args = 0
  87              	.LVL4:
  88 0000 10B5     		push	{r4, lr}
  89              	.LCFI0:
  90              		.cfi_def_cfa_offset 8
  91              		.cfi_offset 4, -8
  92              		.cfi_offset 14, -4
  93              	.LBB2:
  94              		.loc 1 104 0
  95 0002 2023     		movs	r3, #32
  96              	.LVL5:
  97              	.LBE2:
  98              		.loc 1 100 0
  99 0004 0446     		mov	r4, r0
 100              	.LBB3:
 101              		.loc 1 104 0
 102              	@ 104 "../../os/hal/src/spi.c" 1
 103 0006 83F31188 		msr     BASEPRI, r3
 104              	@ 0 "" 2
 105              	.LVL6:
 106              		.thumb
 107              	.LBE3:
 108              		.loc 1 107 0
 109 000a 4160     		str	r1, [r0, #4]
 110              		.loc 1 108 0
 111 000c FFF7FEFF 		bl	spi_lld_start
 112              	.LVL7:
ARM GAS  /tmp/ccT5VYSn.s 			page 3


 113              		.loc 1 109 0
 114 0010 0223     		movs	r3, #2
 115 0012 2370     		strb	r3, [r4, #0]
 116              	.LBB4:
 117              		.loc 1 110 0
 118 0014 0023     		movs	r3, #0
 119              	.LVL8:
 120              	@ 110 "../../os/hal/src/spi.c" 1
 121 0016 83F31188 		msr     BASEPRI, r3
 122              	@ 0 "" 2
 123              	.LVL9:
 124              		.thumb
 125 001a 10BD     		pop	{r4, pc}
 126              	.LBE4:
 127              		.cfi_endproc
 128              	.LFE120:
 129              		.size	spiStart, .-spiStart
 130 001c AFF30080 		.section	.text.spiStop,"ax",%progbits
 131              		.align	2
 132              		.p2align 4,,15
 133              		.global	spiStop
 134              		.thumb
 135              		.thumb_func
 136              		.type	spiStop, %function
 137              	spiStop:
 138              	.LFB121:
 139              		.loc 1 122 0
 140              		.cfi_startproc
 141              		@ args = 0, pretend = 0, frame = 0
 142              		@ frame_needed = 0, uses_anonymous_args = 0
 143              	.LVL10:
 144 0000 10B5     		push	{r4, lr}
 145              	.LCFI1:
 146              		.cfi_def_cfa_offset 8
 147              		.cfi_offset 4, -8
 148              		.cfi_offset 14, -4
 149              	.LBB5:
 150              		.loc 1 126 0
 151 0002 2023     		movs	r3, #32
 152              	.LVL11:
 153              	.LBE5:
 154              		.loc 1 122 0
 155 0004 0446     		mov	r4, r0
 156              	.LBB6:
 157              		.loc 1 126 0
 158              	@ 126 "../../os/hal/src/spi.c" 1
 159 0006 83F31188 		msr     BASEPRI, r3
 160              	@ 0 "" 2
 161              	.LVL12:
 162              		.thumb
 163              	.LBE6:
 164              		.loc 1 129 0
 165 000a FFF7FEFF 		bl	spi_lld_stop
 166              	.LVL13:
 167              		.loc 1 130 0
 168 000e 0123     		movs	r3, #1
 169 0010 2370     		strb	r3, [r4, #0]
ARM GAS  /tmp/ccT5VYSn.s 			page 4


 170              	.LBB7:
 171              		.loc 1 131 0
 172 0012 0023     		movs	r3, #0
 173              	.LVL14:
 174              	@ 131 "../../os/hal/src/spi.c" 1
 175 0014 83F31188 		msr     BASEPRI, r3
 176              	@ 0 "" 2
 177              	.LVL15:
 178              		.thumb
 179 0018 10BD     		pop	{r4, pc}
 180              	.LBE7:
 181              		.cfi_endproc
 182              	.LFE121:
 183              		.size	spiStop, .-spiStop
 184 001a 00BFAFF3 		.section	.text.spiSelect,"ax",%progbits
 184      0080
 185              		.align	2
 186              		.p2align 4,,15
 187              		.global	spiSelect
 188              		.thumb
 189              		.thumb_func
 190              		.type	spiSelect, %function
 191              	spiSelect:
 192              	.LFB122:
 193              		.loc 1 141 0
 194              		.cfi_startproc
 195              		@ args = 0, pretend = 0, frame = 0
 196              		@ frame_needed = 0, uses_anonymous_args = 0
 197              	.LVL16:
 198 0000 08B5     		push	{r3, lr}
 199              	.LCFI2:
 200              		.cfi_def_cfa_offset 8
 201              		.cfi_offset 3, -8
 202              		.cfi_offset 14, -4
 203              	.LBB8:
 204              		.loc 1 145 0
 205 0002 2023     		movs	r3, #32
 206              	.LVL17:
 207              	@ 145 "../../os/hal/src/spi.c" 1
 208 0004 83F31188 		msr     BASEPRI, r3
 209              	@ 0 "" 2
 210              	.LVL18:
 211              		.thumb
 212              	.LBE8:
 213              		.loc 1 147 0
 214 0008 FFF7FEFF 		bl	spi_lld_select
 215              	.LVL19:
 216              	.LBB9:
 217              		.loc 1 148 0
 218 000c 0023     		movs	r3, #0
 219              	.LVL20:
 220              	@ 148 "../../os/hal/src/spi.c" 1
 221 000e 83F31188 		msr     BASEPRI, r3
 222              	@ 0 "" 2
 223              	.LVL21:
 224              		.thumb
 225 0012 08BD     		pop	{r3, pc}
ARM GAS  /tmp/ccT5VYSn.s 			page 5


 226              	.LBE9:
 227              		.cfi_endproc
 228              	.LFE122:
 229              		.size	spiSelect, .-spiSelect
 230 0014 AFF30080 		.section	.text.spiUnselect,"ax",%progbits
 230      AFF30080 
 230      AFF30080 
 231              		.align	2
 232              		.p2align 4,,15
 233              		.global	spiUnselect
 234              		.thumb
 235              		.thumb_func
 236              		.type	spiUnselect, %function
 237              	spiUnselect:
 238              	.LFB123:
 239              		.loc 1 159 0
 240              		.cfi_startproc
 241              		@ args = 0, pretend = 0, frame = 0
 242              		@ frame_needed = 0, uses_anonymous_args = 0
 243              	.LVL22:
 244 0000 08B5     		push	{r3, lr}
 245              	.LCFI3:
 246              		.cfi_def_cfa_offset 8
 247              		.cfi_offset 3, -8
 248              		.cfi_offset 14, -4
 249              	.LBB10:
 250              		.loc 1 163 0
 251 0002 2023     		movs	r3, #32
 252              	.LVL23:
 253              	@ 163 "../../os/hal/src/spi.c" 1
 254 0004 83F31188 		msr     BASEPRI, r3
 255              	@ 0 "" 2
 256              	.LVL24:
 257              		.thumb
 258              	.LBE10:
 259              		.loc 1 165 0
 260 0008 FFF7FEFF 		bl	spi_lld_unselect
 261              	.LVL25:
 262              	.LBB11:
 263              		.loc 1 166 0
 264 000c 0023     		movs	r3, #0
 265              	.LVL26:
 266              	@ 166 "../../os/hal/src/spi.c" 1
 267 000e 83F31188 		msr     BASEPRI, r3
 268              	@ 0 "" 2
 269              	.LVL27:
 270              		.thumb
 271 0012 08BD     		pop	{r3, pc}
 272              	.LBE11:
 273              		.cfi_endproc
 274              	.LFE123:
 275              		.size	spiUnselect, .-spiUnselect
 276 0014 AFF30080 		.section	.text.spiStartIgnore,"ax",%progbits
 276      AFF30080 
 276      AFF30080 
 277              		.align	2
 278              		.p2align 4,,15
ARM GAS  /tmp/ccT5VYSn.s 			page 6


 279              		.global	spiStartIgnore
 280              		.thumb
 281              		.thumb_func
 282              		.type	spiStartIgnore, %function
 283              	spiStartIgnore:
 284              	.LFB124:
 285              		.loc 1 182 0
 286              		.cfi_startproc
 287              		@ args = 0, pretend = 0, frame = 0
 288              		@ frame_needed = 0, uses_anonymous_args = 0
 289              	.LVL28:
 290 0000 08B5     		push	{r3, lr}
 291              	.LCFI4:
 292              		.cfi_def_cfa_offset 8
 293              		.cfi_offset 3, -8
 294              		.cfi_offset 14, -4
 295              	.LBB12:
 296              		.loc 1 186 0
 297 0002 2023     		movs	r3, #32
 298              	.LVL29:
 299              	@ 186 "../../os/hal/src/spi.c" 1
 300 0004 83F31188 		msr     BASEPRI, r3
 301              	@ 0 "" 2
 302              	.LVL30:
 303              		.thumb
 304              	.LBE12:
 305              		.loc 1 188 0
 306 0008 0323     		movs	r3, #3
 307              	.LVL31:
 308 000a 0370     		strb	r3, [r0, #0]
 309 000c FFF7FEFF 		bl	spi_lld_ignore
 310              	.LVL32:
 311              	.LBB13:
 312              		.loc 1 189 0
 313 0010 0023     		movs	r3, #0
 314              	.LVL33:
 315              	@ 189 "../../os/hal/src/spi.c" 1
 316 0012 83F31188 		msr     BASEPRI, r3
 317              	@ 0 "" 2
 318              	.LVL34:
 319              		.thumb
 320 0016 08BD     		pop	{r3, pc}
 321              	.LBE13:
 322              		.cfi_endproc
 323              	.LFE124:
 324              		.size	spiStartIgnore, .-spiStartIgnore
 325 0018 AFF30080 		.section	.text.spiStartExchange,"ax",%progbits
 325      AFF30080 
 326              		.align	2
 327              		.p2align 4,,15
 328              		.global	spiStartExchange
 329              		.thumb
 330              		.thumb_func
 331              		.type	spiStartExchange, %function
 332              	spiStartExchange:
 333              	.LFB125:
 334              		.loc 1 210 0
ARM GAS  /tmp/ccT5VYSn.s 			page 7


 335              		.cfi_startproc
 336              		@ args = 0, pretend = 0, frame = 0
 337              		@ frame_needed = 0, uses_anonymous_args = 0
 338              	.LVL35:
 339 0000 38B5     		push	{r3, r4, r5, lr}
 340              	.LCFI5:
 341              		.cfi_def_cfa_offset 16
 342              		.cfi_offset 3, -16
 343              		.cfi_offset 4, -12
 344              		.cfi_offset 5, -8
 345              		.cfi_offset 14, -4
 346              		.loc 1 210 0
 347 0002 1D46     		mov	r5, r3
 348 0004 0446     		mov	r4, r0
 349              	.LBB14:
 350              		.loc 1 215 0
 351 0006 2023     		movs	r3, #32
 352              	.LVL36:
 353              	@ 215 "../../os/hal/src/spi.c" 1
 354 0008 83F31188 		msr     BASEPRI, r3
 355              	@ 0 "" 2
 356              	.LVL37:
 357              		.thumb
 358              	.LBE14:
 359              		.loc 1 217 0
 360 000c 2B46     		mov	r3, r5
 361              	.LVL38:
 362 000e 0325     		movs	r5, #3
 363              	.LVL39:
 364 0010 0570     		strb	r5, [r0, #0]
 365 0012 FFF7FEFF 		bl	spi_lld_exchange
 366              	.LVL40:
 367              	.LBB15:
 368              		.loc 1 218 0
 369 0016 0023     		movs	r3, #0
 370              	.LVL41:
 371              	@ 218 "../../os/hal/src/spi.c" 1
 372 0018 83F31188 		msr     BASEPRI, r3
 373              	@ 0 "" 2
 374              	.LVL42:
 375              		.thumb
 376 001c 38BD     		pop	{r3, r4, r5, pc}
 377              	.LBE15:
 378              		.cfi_endproc
 379              	.LFE125:
 380              		.size	spiStartExchange, .-spiStartExchange
 381 001e 00BF     		.section	.text.spiStartSend,"ax",%progbits
 382              		.align	2
 383              		.p2align 4,,15
 384              		.global	spiStartSend
 385              		.thumb
 386              		.thumb_func
 387              		.type	spiStartSend, %function
 388              	spiStartSend:
 389              	.LFB126:
 390              		.loc 1 236 0
 391              		.cfi_startproc
ARM GAS  /tmp/ccT5VYSn.s 			page 8


 392              		@ args = 0, pretend = 0, frame = 0
 393              		@ frame_needed = 0, uses_anonymous_args = 0
 394              	.LVL43:
 395 0000 10B5     		push	{r4, lr}
 396              	.LCFI6:
 397              		.cfi_def_cfa_offset 8
 398              		.cfi_offset 4, -8
 399              		.cfi_offset 14, -4
 400              	.LBB16:
 401              		.loc 1 241 0
 402 0002 2023     		movs	r3, #32
 403              	.LVL44:
 404              	.LBE16:
 405              		.loc 1 236 0
 406 0004 0446     		mov	r4, r0
 407              	.LBB17:
 408              		.loc 1 241 0
 409              	@ 241 "../../os/hal/src/spi.c" 1
 410 0006 83F31188 		msr     BASEPRI, r3
 411              	@ 0 "" 2
 412              	.LVL45:
 413              		.thumb
 414              	.LBE17:
 415              		.loc 1 243 0
 416 000a 0323     		movs	r3, #3
 417              	.LVL46:
 418 000c 0370     		strb	r3, [r0, #0]
 419 000e FFF7FEFF 		bl	spi_lld_send
 420              	.LVL47:
 421              	.LBB18:
 422              		.loc 1 244 0
 423 0012 0023     		movs	r3, #0
 424              	.LVL48:
 425              	@ 244 "../../os/hal/src/spi.c" 1
 426 0014 83F31188 		msr     BASEPRI, r3
 427              	@ 0 "" 2
 428              	.LVL49:
 429              		.thumb
 430 0018 10BD     		pop	{r4, pc}
 431              	.LBE18:
 432              		.cfi_endproc
 433              	.LFE126:
 434              		.size	spiStartSend, .-spiStartSend
 435 001a 00BFAFF3 		.section	.text.spiStartReceive,"ax",%progbits
 435      0080
 436              		.align	2
 437              		.p2align 4,,15
 438              		.global	spiStartReceive
 439              		.thumb
 440              		.thumb_func
 441              		.type	spiStartReceive, %function
 442              	spiStartReceive:
 443              	.LFB127:
 444              		.loc 1 262 0
 445              		.cfi_startproc
 446              		@ args = 0, pretend = 0, frame = 0
 447              		@ frame_needed = 0, uses_anonymous_args = 0
ARM GAS  /tmp/ccT5VYSn.s 			page 9


 448              	.LVL50:
 449 0000 10B5     		push	{r4, lr}
 450              	.LCFI7:
 451              		.cfi_def_cfa_offset 8
 452              		.cfi_offset 4, -8
 453              		.cfi_offset 14, -4
 454              	.LBB19:
 455              		.loc 1 267 0
 456 0002 2023     		movs	r3, #32
 457              	.LVL51:
 458              	.LBE19:
 459              		.loc 1 262 0
 460 0004 0446     		mov	r4, r0
 461              	.LBB20:
 462              		.loc 1 267 0
 463              	@ 267 "../../os/hal/src/spi.c" 1
 464 0006 83F31188 		msr     BASEPRI, r3
 465              	@ 0 "" 2
 466              	.LVL52:
 467              		.thumb
 468              	.LBE20:
 469              		.loc 1 269 0
 470 000a 0323     		movs	r3, #3
 471              	.LVL53:
 472 000c 0370     		strb	r3, [r0, #0]
 473 000e FFF7FEFF 		bl	spi_lld_receive
 474              	.LVL54:
 475              	.LBB21:
 476              		.loc 1 270 0
 477 0012 0023     		movs	r3, #0
 478              	.LVL55:
 479              	@ 270 "../../os/hal/src/spi.c" 1
 480 0014 83F31188 		msr     BASEPRI, r3
 481              	@ 0 "" 2
 482              	.LVL56:
 483              		.thumb
 484 0018 10BD     		pop	{r4, pc}
 485              	.LBE21:
 486              		.cfi_endproc
 487              	.LFE127:
 488              		.size	spiStartReceive, .-spiStartReceive
 489 001a 00BFAFF3 		.section	.text.spiIgnore,"ax",%progbits
 489      0080
 490              		.align	2
 491              		.p2align 4,,15
 492              		.global	spiIgnore
 493              		.thumb
 494              		.thumb_func
 495              		.type	spiIgnore, %function
 496              	spiIgnore:
 497              	.LFB128:
 498              		.loc 1 288 0
 499              		.cfi_startproc
 500              		@ args = 0, pretend = 0, frame = 0
 501              		@ frame_needed = 0, uses_anonymous_args = 0
 502              	.LVL57:
 503 0000 10B5     		push	{r4, lr}
ARM GAS  /tmp/ccT5VYSn.s 			page 10


 504              	.LCFI8:
 505              		.cfi_def_cfa_offset 8
 506              		.cfi_offset 4, -8
 507              		.cfi_offset 14, -4
 508              	.LBB22:
 509              		.loc 1 292 0
 510 0002 2023     		movs	r3, #32
 511              	.LVL58:
 512              	.LBE22:
 513              		.loc 1 288 0
 514 0004 0446     		mov	r4, r0
 515              	.LBB23:
 516              		.loc 1 292 0
 517              	@ 292 "../../os/hal/src/spi.c" 1
 518 0006 83F31188 		msr     BASEPRI, r3
 519              	@ 0 "" 2
 520              	.LVL59:
 521              		.thumb
 522              	.LBE23:
 523              		.loc 1 295 0
 524 000a 0323     		movs	r3, #3
 525              	.LVL60:
 526 000c 0370     		strb	r3, [r0, #0]
 527 000e FFF7FEFF 		bl	spi_lld_ignore
 528              	.LVL61:
 529              		.loc 1 296 0
 530 0012 40F20001 		movw	r1, #:lower16:rlist
 531 0016 C0F20001 		movt	r1, #:upper16:rlist
 532 001a 0220     		movs	r0, #2
 533 001c 8A69     		ldr	r2, [r1, #24]
 534 001e A260     		str	r2, [r4, #8]
 535 0020 FFF7FEFF 		bl	chSchGoSleepS
 536              	.LVL62:
 537              	.LBB24:
 538              		.loc 1 297 0
 539 0024 0023     		movs	r3, #0
 540              	.LVL63:
 541              	@ 297 "../../os/hal/src/spi.c" 1
 542 0026 83F31188 		msr     BASEPRI, r3
 543              	@ 0 "" 2
 544              	.LVL64:
 545              		.thumb
 546 002a 10BD     		pop	{r4, pc}
 547              	.LBE24:
 548              		.cfi_endproc
 549              	.LFE128:
 550              		.size	spiIgnore, .-spiIgnore
 551 002c AFF30080 		.section	.text.spiExchange,"ax",%progbits
 552              		.align	2
 553              		.p2align 4,,15
 554              		.global	spiExchange
 555              		.thumb
 556              		.thumb_func
 557              		.type	spiExchange, %function
 558              	spiExchange:
 559              	.LFB129:
 560              		.loc 1 319 0
ARM GAS  /tmp/ccT5VYSn.s 			page 11


 561              		.cfi_startproc
 562              		@ args = 0, pretend = 0, frame = 0
 563              		@ frame_needed = 0, uses_anonymous_args = 0
 564              	.LVL65:
 565 0000 38B5     		push	{r3, r4, r5, lr}
 566              	.LCFI9:
 567              		.cfi_def_cfa_offset 16
 568              		.cfi_offset 3, -16
 569              		.cfi_offset 4, -12
 570              		.cfi_offset 5, -8
 571              		.cfi_offset 14, -4
 572              		.loc 1 319 0
 573 0002 1D46     		mov	r5, r3
 574 0004 0446     		mov	r4, r0
 575              	.LBB25:
 576              		.loc 1 324 0
 577 0006 2023     		movs	r3, #32
 578              	.LVL66:
 579              	@ 324 "../../os/hal/src/spi.c" 1
 580 0008 83F31188 		msr     BASEPRI, r3
 581              	@ 0 "" 2
 582              	.LVL67:
 583              		.thumb
 584              	.LBE25:
 585              		.loc 1 328 0
 586 000c 2B46     		mov	r3, r5
 587              	.LVL68:
 588 000e 0325     		movs	r5, #3
 589              	.LVL69:
 590 0010 0570     		strb	r5, [r0, #0]
 591 0012 FFF7FEFF 		bl	spi_lld_exchange
 592              	.LVL70:
 593              		.loc 1 329 0
 594 0016 40F20003 		movw	r3, #:lower16:rlist
 595 001a C0F20003 		movt	r3, #:upper16:rlist
 596 001e 0220     		movs	r0, #2
 597 0020 9969     		ldr	r1, [r3, #24]
 598 0022 A160     		str	r1, [r4, #8]
 599 0024 FFF7FEFF 		bl	chSchGoSleepS
 600              	.LVL71:
 601              	.LBB26:
 602              		.loc 1 330 0
 603 0028 0023     		movs	r3, #0
 604              	.LVL72:
 605              	@ 330 "../../os/hal/src/spi.c" 1
 606 002a 83F31188 		msr     BASEPRI, r3
 607              	@ 0 "" 2
 608              	.LVL73:
 609              		.thumb
 610 002e 38BD     		pop	{r3, r4, r5, pc}
 611              	.LBE26:
 612              		.cfi_endproc
 613              	.LFE129:
 614              		.size	spiExchange, .-spiExchange
 615              		.section	.text.spiSend,"ax",%progbits
 616              		.align	2
 617              		.p2align 4,,15
ARM GAS  /tmp/ccT5VYSn.s 			page 12


 618              		.global	spiSend
 619              		.thumb
 620              		.thumb_func
 621              		.type	spiSend, %function
 622              	spiSend:
 623              	.LFB130:
 624              		.loc 1 349 0
 625              		.cfi_startproc
 626              		@ args = 0, pretend = 0, frame = 0
 627              		@ frame_needed = 0, uses_anonymous_args = 0
 628              	.LVL74:
 629 0000 10B5     		push	{r4, lr}
 630              	.LCFI10:
 631              		.cfi_def_cfa_offset 8
 632              		.cfi_offset 4, -8
 633              		.cfi_offset 14, -4
 634              	.LBB27:
 635              		.loc 1 353 0
 636 0002 2023     		movs	r3, #32
 637              	.LVL75:
 638              	.LBE27:
 639              		.loc 1 349 0
 640 0004 0446     		mov	r4, r0
 641              	.LBB28:
 642              		.loc 1 353 0
 643              	@ 353 "../../os/hal/src/spi.c" 1
 644 0006 83F31188 		msr     BASEPRI, r3
 645              	@ 0 "" 2
 646              	.LVL76:
 647              		.thumb
 648              	.LBE28:
 649              		.loc 1 356 0
 650 000a 0323     		movs	r3, #3
 651              	.LVL77:
 652 000c 0370     		strb	r3, [r0, #0]
 653 000e FFF7FEFF 		bl	spi_lld_send
 654              	.LVL78:
 655              		.loc 1 357 0
 656 0012 40F20001 		movw	r1, #:lower16:rlist
 657 0016 C0F20001 		movt	r1, #:upper16:rlist
 658 001a 0220     		movs	r0, #2
 659 001c 8A69     		ldr	r2, [r1, #24]
 660 001e A260     		str	r2, [r4, #8]
 661 0020 FFF7FEFF 		bl	chSchGoSleepS
 662              	.LVL79:
 663              	.LBB29:
 664              		.loc 1 358 0
 665 0024 0023     		movs	r3, #0
 666              	.LVL80:
 667              	@ 358 "../../os/hal/src/spi.c" 1
 668 0026 83F31188 		msr     BASEPRI, r3
 669              	@ 0 "" 2
 670              	.LVL81:
 671              		.thumb
 672 002a 10BD     		pop	{r4, pc}
 673              	.LBE29:
 674              		.cfi_endproc
ARM GAS  /tmp/ccT5VYSn.s 			page 13


 675              	.LFE130:
 676              		.size	spiSend, .-spiSend
 677 002c AFF30080 		.section	.text.spiReceive,"ax",%progbits
 678              		.align	2
 679              		.p2align 4,,15
 680              		.global	spiReceive
 681              		.thumb
 682              		.thumb_func
 683              		.type	spiReceive, %function
 684              	spiReceive:
 685              	.LFB131:
 686              		.loc 1 377 0
 687              		.cfi_startproc
 688              		@ args = 0, pretend = 0, frame = 0
 689              		@ frame_needed = 0, uses_anonymous_args = 0
 690              	.LVL82:
 691 0000 10B5     		push	{r4, lr}
 692              	.LCFI11:
 693              		.cfi_def_cfa_offset 8
 694              		.cfi_offset 4, -8
 695              		.cfi_offset 14, -4
 696              	.LBB30:
 697              		.loc 1 382 0
 698 0002 2023     		movs	r3, #32
 699              	.LVL83:
 700              	.LBE30:
 701              		.loc 1 377 0
 702 0004 0446     		mov	r4, r0
 703              	.LBB31:
 704              		.loc 1 382 0
 705              	@ 382 "../../os/hal/src/spi.c" 1
 706 0006 83F31188 		msr     BASEPRI, r3
 707              	@ 0 "" 2
 708              	.LVL84:
 709              		.thumb
 710              	.LBE31:
 711              		.loc 1 386 0
 712 000a 0323     		movs	r3, #3
 713              	.LVL85:
 714 000c 0370     		strb	r3, [r0, #0]
 715 000e FFF7FEFF 		bl	spi_lld_receive
 716              	.LVL86:
 717              		.loc 1 387 0
 718 0012 40F20001 		movw	r1, #:lower16:rlist
 719 0016 C0F20001 		movt	r1, #:upper16:rlist
 720 001a 0220     		movs	r0, #2
 721 001c 8A69     		ldr	r2, [r1, #24]
 722 001e A260     		str	r2, [r4, #8]
 723 0020 FFF7FEFF 		bl	chSchGoSleepS
 724              	.LVL87:
 725              	.LBB32:
 726              		.loc 1 388 0
 727 0024 0023     		movs	r3, #0
 728              	.LVL88:
 729              	@ 388 "../../os/hal/src/spi.c" 1
 730 0026 83F31188 		msr     BASEPRI, r3
 731              	@ 0 "" 2
ARM GAS  /tmp/ccT5VYSn.s 			page 14


 732              	.LVL89:
 733              		.thumb
 734 002a 10BD     		pop	{r4, pc}
 735              	.LBE32:
 736              		.cfi_endproc
 737              	.LFE131:
 738              		.size	spiReceive, .-spiReceive
 739 002c AFF30080 		.section	.text.spiAcquireBus,"ax",%progbits
 740              		.align	2
 741              		.p2align 4,,15
 742              		.global	spiAcquireBus
 743              		.thumb
 744              		.thumb_func
 745              		.type	spiAcquireBus, %function
 746              	spiAcquireBus:
 747              	.LFB132:
 748              		.loc 1 404 0
 749              		.cfi_startproc
 750              		@ args = 0, pretend = 0, frame = 0
 751              		@ frame_needed = 0, uses_anonymous_args = 0
 752              		@ link register save eliminated.
 753              	.LVL90:
 754              		.loc 1 409 0
 755 0000 0C30     		adds	r0, r0, #12
 756              	.LVL91:
 757              		.loc 1 413 0
 758              		.loc 1 409 0
 759 0002 FFF7FEBF 		b	chMtxLock
 760              	.LVL92:
 761              		.cfi_endproc
 762              	.LFE132:
 763              		.size	spiAcquireBus, .-spiAcquireBus
 764 0006 00BFAFF3 		.section	.text.spiReleaseBus,"ax",%progbits
 764      0080AFF3 
 764      0080
 765              		.align	2
 766              		.p2align 4,,15
 767              		.global	spiReleaseBus
 768              		.thumb
 769              		.thumb_func
 770              		.type	spiReleaseBus, %function
 771              	spiReleaseBus:
 772              	.LFB133:
 773              		.loc 1 424 0
 774              		.cfi_startproc
 775              		@ args = 0, pretend = 0, frame = 0
 776              		@ frame_needed = 0, uses_anonymous_args = 0
 777              		@ link register save eliminated.
 778              	.LVL93:
 779              		.loc 1 434 0
 780              		.loc 1 430 0
 781 0000 FFF7FEBF 		b	chMtxUnlock
 782              	.LVL94:
 783              		.cfi_endproc
 784              	.LFE133:
 785              		.size	spiReleaseBus, .-spiReleaseBus
 786 0004 AFF30080 		.text
ARM GAS  /tmp/ccT5VYSn.s 			page 15


 786      AFF30080 
 786      AFF30080 
 787              	.Letext0:
 788              		.file 2 "/usr/bin/../lib/gcc/arm-none-eabi/4.7.4/include/stddef.h"
 789              		.file 3 "/usr/bin/../lib/gcc/arm-none-eabi/4.7.4/../../../../arm-none-eabi/include/stdint.h"
 790              		.file 4 "../../os/ports/GCC/ARMCMx/chtypes.h"
 791              		.file 5 "../../os/kernel/include/chlists.h"
 792              		.file 6 "../../os/kernel/include/chthreads.h"
 793              		.file 7 "../../os/ports/GCC/ARMCMx/chcore_v7m.h"
 794              		.file 8 "../../os/kernel/include/chschd.h"
 795              		.file 9 "../../os/kernel/include/chmtx.h"
 796              		.file 10 "../../os/hal/platforms/STM32F4xx/stm32f4xx.h"
 797              		.file 11 "../../os/hal/platforms/STM32F4xx/stm32_dma.h"
 798              		.file 12 "../../os/hal/platforms/STM32/GPIOv2/pal_lld.h"
 799              		.file 13 "../../os/hal/include/spi.h"
 800              		.file 14 "../../os/hal/platforms/STM32/SPIv1/spi_lld.h"
 801              		.file 15 "../../os/ports/common/ARMCMx/CMSIS/include/core_cm4.h"