ARM GAS  /tmp/ccx4dzgE.s 			page 1


   1              		.syntax unified
   2              		.cpu cortex-m4
   3              		.fpu softvfp
   4              		.eabi_attribute 20, 1
   5              		.eabi_attribute 21, 1
   6              		.eabi_attribute 23, 3
   7              		.eabi_attribute 24, 1
   8              		.eabi_attribute 25, 1
   9              		.eabi_attribute 26, 1
  10              		.eabi_attribute 30, 2
  11              		.eabi_attribute 34, 1
  12              		.eabi_attribute 18, 4
  13              		.thumb
  14              		.file	"usb_lld.c"
  15              		.text
  16              	.Ltext0:
  17              		.cfi_sections	.debug_frame
  18              		.section	.text.otg_disable_ep,"ax",%progbits
  19              		.align	2
  20              		.p2align 4,,15
  21              		.thumb
  22              		.thumb_func
  23              		.type	otg_disable_ep, %function
  24              	otg_disable_ep:
  25              	.LFB120:
  26              		.file 1 "../../os/hal/platforms/STM32/OTGv1/usb_lld.c"
  27              		.loc 1 141 0
  28              		.cfi_startproc
  29              		@ args = 0, pretend = 0, frame = 0
  30              		@ frame_needed = 0, uses_anonymous_args = 0
  31              		@ link register save eliminated.
  32              	.LVL0:
  33 0000 416D     		ldr	r1, [r0, #84]
  34              		.loc 1 142 0
  35 0002 036D     		ldr	r3, [r0, #80]
  36              	.LVL1:
  37              		.loc 1 145 0
  38 0004 0022     		movs	r2, #0
  39              		.loc 1 141 0
  40 0006 2DE9F001 		push	{r4, r5, r6, r7, r8}
  41              	.LCFI0:
  42              		.cfi_def_cfa_offset 20
  43              		.cfi_offset 4, -20
  44              		.cfi_offset 5, -16
  45              		.cfi_offset 6, -12
  46              		.cfi_offset 7, -8
  47              		.cfi_offset 8, -4
  48              		.loc 1 156 0
  49 000a 1046     		mov	r0, r2
  50              	.LVL2:
  51 000c 8F68     		ldr	r7, [r1, #8]
  52              		.loc 1 150 0
  53 000e 4FF0804C 		mov	ip, #1073741824
  54              		.loc 1 158 0
  55 0012 4FF0FF36 		mov	r6, #-1
  56 0016 17E0     		b	.L8
  57              	.LVL3:
ARM GAS  /tmp/ccx4dzgE.s 			page 2


  58              	.L2:
  59              		.loc 1 156 0
  60 0018 5850     		str	r0, [r3, r1]
  61 001a 5501     		lsls	r5, r2, #5
  62              	.L4:
  63              		.loc 1 157 0
  64 001c 5C19     		adds	r4, r3, r5
  65              		.loc 1 164 0
  66 001e 02F15801 		add	r1, r2, #88
  67 0022 4901     		lsls	r1, r1, #5
  68              		.loc 1 157 0
  69 0024 C4F81009 		str	r0, [r4, #2320]
  70              		.loc 1 158 0
  71 0028 C4F80869 		str	r6, [r4, #2312]
  72              		.loc 1 164 0
  73 002c 53F80180 		ldr	r8, [r3, r1]
  74 0030 B8F1000F 		cmp	r8, #0
  75 0034 17DB     		blt	.L19
  76              		.loc 1 171 0
  77 0036 5850     		str	r0, [r3, r1]
  78              	.L7:
  79              		.loc 1 172 0
  80 0038 5D19     		adds	r5, r3, r5
  81              		.loc 1 145 0
  82 003a 0132     		adds	r2, r2, #1
  83              	.LVL4:
  84 003c BA42     		cmp	r2, r7
  85              		.loc 1 172 0
  86 003e C5F8100B 		str	r0, [r5, #2832]
  87              		.loc 1 173 0
  88 0042 C5F8086B 		str	r6, [r5, #2824]
  89              		.loc 1 145 0
  90 0046 15D8     		bhi	.L20
  91              	.LVL5:
  92              	.L8:
  93              		.loc 1 149 0
  94 0048 02F14804 		add	r4, r2, #72
  95 004c 6101     		lsls	r1, r4, #5
  96 004e 5D58     		ldr	r5, [r3, r1]
  97 0050 002D     		cmp	r5, #0
  98 0052 E1DA     		bge	.L2
  99 0054 5501     		lsls	r5, r2, #5
 100              		.loc 1 150 0
 101 0056 43F801C0 		str	ip, [r3, r1]
 102              		.loc 1 152 0
 103 005a 5C19     		adds	r4, r3, r5
 104              	.L3:
 105              		.loc 1 152 0 is_stmt 0 discriminator 1
 106 005c D4F80819 		ldr	r1, [r4, #2312]
 107 0060 8907     		lsls	r1, r1, #30
 108 0062 FBD5     		bpl	.L3
 109 0064 DAE7     		b	.L4
 110              	.L19:
 111              		.loc 1 165 0 is_stmt 1
 112 0066 43F801C0 		str	ip, [r3, r1]
 113              	.L6:
 114              		.loc 1 167 0 discriminator 1
ARM GAS  /tmp/ccx4dzgE.s 			page 3


 115 006a D4F8081B 		ldr	r1, [r4, #2824]
 116 006e C906     		lsls	r1, r1, #27
 117 0070 FBD5     		bpl	.L6
 118 0072 E1E7     		b	.L7
 119              	.LVL6:
 120              	.L20:
 121              		.loc 1 175 0
 122 0074 4FF00110 		mov	r0, #65537
 123 0078 C3F81C08 		str	r0, [r3, #2076]
 124              		.loc 1 176 0
 125 007c BDE8F001 		pop	{r4, r5, r6, r7, r8}
 126 0080 7047     		bx	lr
 127              		.cfi_endproc
 128              	.LFE120:
 129              		.size	otg_disable_ep, .-otg_disable_ep
 130 0082 00BFAFF3 		.section	.text.otg_epout_handler,"ax",%progbits
 130      0080AFF3 
 130      0080AFF3 
 130      0080
 131              		.align	2
 132              		.p2align 4,,15
 133              		.thumb
 134              		.thumb_func
 135              		.type	otg_epout_handler, %function
 136              	otg_epout_handler:
 137              	.LFB134:
 138              		.loc 1 576 0
 139              		.cfi_startproc
 140              		@ args = 0, pretend = 0, frame = 0
 141              		@ frame_needed = 0, uses_anonymous_args = 0
 142              	.LVL7:
 143 0000 F8B5     		push	{r3, r4, r5, r6, r7, lr}
 144              	.LCFI1:
 145              		.cfi_def_cfa_offset 24
 146              		.cfi_offset 3, -24
 147              		.cfi_offset 4, -20
 148              		.cfi_offset 5, -16
 149              		.cfi_offset 6, -12
 150              		.cfi_offset 7, -8
 151              		.cfi_offset 14, -4
 152              		.loc 1 577 0
 153 0002 046D     		ldr	r4, [r0, #80]
 154              	.LVL8:
 155              		.loc 1 578 0
 156 0004 04EB4113 		add	r3, r4, r1, lsl #5
 157              		.loc 1 581 0
 158 0008 4FF0FF32 		mov	r2, #-1
 159              		.loc 1 578 0
 160 000c D3F8086B 		ldr	r6, [r3, #2824]
 161              	.LVL9:
 162              		.loc 1 581 0
 163 0010 C3F8082B 		str	r2, [r3, #2824]
 164              		.loc 1 583 0
 165 0014 3307     		lsls	r3, r6, #28
 166              		.loc 1 576 0
 167 0016 0546     		mov	r5, r0
 168 0018 0F46     		mov	r7, r1
ARM GAS  /tmp/ccx4dzgE.s 			page 4


 169              		.loc 1 583 0
 170 001a 03D5     		bpl	.L22
 171              		.loc 1 583 0 is_stmt 0 discriminator 1
 172 001c D4F81438 		ldr	r3, [r4, #2068]
 173 0020 1A07     		lsls	r2, r3, #28
 174 0022 15D4     		bmi	.L36
 175              	.LVL10:
 176              	.L22:
 177              		.loc 1 589 0 is_stmt 1
 178 0024 F307     		lsls	r3, r6, #31
 179 0026 03D5     		bpl	.L21
 180              		.loc 1 589 0 is_stmt 0 discriminator 1
 181 0028 D4F81408 		ldr	r0, [r4, #2068]
 182 002c C007     		lsls	r0, r0, #31
 183 002e 00D4     		bmi	.L37
 184              	.L21:
 185 0030 F8BD     		pop	{r3, r4, r5, r6, r7, pc}
 186              	.L37:
 187              		.loc 1 591 0 is_stmt 1
 188 0032 05EB8703 		add	r3, r5, r7, lsl #2
 189 0036 6989     		ldrh	r1, [r5, #10]
 190 0038 D868     		ldr	r0, [r3, #12]
 191 003a 0122     		movs	r2, #1
 192 003c 02FA07F2 		lsl	r2, r2, r7
 193 0040 21EA0203 		bic	r3, r1, r2
 194 0044 6B81     		strh	r3, [r5, #10]	@ movhi
 195 0046 C268     		ldr	r2, [r0, #12]
 196 0048 3946     		mov	r1, r7
 197 004a 2846     		mov	r0, r5
 198 004c 9047     		blx	r2
 199              	.LVL11:
 200 004e F8BD     		pop	{r3, r4, r5, r6, r7, pc}
 201              	.LVL12:
 202              	.L36:
 203              		.loc 1 586 0
 204 0050 00EB8102 		add	r2, r0, r1, lsl #2
 205 0054 D368     		ldr	r3, [r2, #12]
 206 0056 5A68     		ldr	r2, [r3, #4]
 207 0058 9047     		blx	r2
 208              	.LVL13:
 209 005a E3E7     		b	.L22
 210              		.cfi_endproc
 211              	.LFE134:
 212              		.size	otg_epout_handler, .-otg_epout_handler
 213 005c AFF30080 		.section	.text.otg_txfifo_flush,"ax",%progbits
 214              		.align	2
 215              		.p2align 4,,15
 216              		.thumb
 217              		.thumb_func
 218              		.type	otg_txfifo_flush, %function
 219              	otg_txfifo_flush:
 220              	.LFB122:
 221              		.loc 1 188 0
 222              		.cfi_startproc
 223              		@ args = 0, pretend = 0, frame = 0
 224              		@ frame_needed = 0, uses_anonymous_args = 0
 225              		@ link register save eliminated.
ARM GAS  /tmp/ccx4dzgE.s 			page 5


 226              	.LVL14:
 227              		.loc 1 189 0
 228 0000 026D     		ldr	r2, [r0, #80]
 229              	.LVL15:
 230              		.loc 1 191 0
 231 0002 8901     		lsls	r1, r1, #6
 232              	.LVL16:
 233 0004 41F02003 		orr	r3, r1, #32
 234 0008 1361     		str	r3, [r2, #16]
 235              	.LVL17:
 236              	.L39:
 237              		.loc 1 192 0 discriminator 1
 238 000a 1069     		ldr	r0, [r2, #16]
 239 000c 8106     		lsls	r1, r0, #26
 240 000e FCD4     		bmi	.L39
 241              		.loc 1 195 0
 242 0010 0C20     		movs	r0, #12
 243              		.loc 1 196 0
 244              		.loc 1 195 0
 245 0012 FFF7FEBF 		b	halPolledDelay
 246              	.LVL18:
 247              		.cfi_endproc
 248              	.LFE122:
 249              		.size	otg_txfifo_flush, .-otg_txfifo_flush
 250 0016 00BFAFF3 		.section	.text.usb_lld_pump,"ax",%progbits
 250      0080AFF3 
 250      0080
 251              		.align	2
 252              		.p2align 4,,15
 253              		.thumb
 254              		.thumb_func
 255              		.type	usb_lld_pump, %function
 256              	usb_lld_pump:
 257              	.LFB136:
 258              		.loc 1 675 0
 259              		.cfi_startproc
 260              		@ args = 0, pretend = 0, frame = 24
 261              		@ frame_needed = 0, uses_anonymous_args = 0
 262              	.LVL19:
 263 0000 2DE9F04F 		push	{r4, r5, r6, r7, r8, r9, sl, fp, lr}
 264              	.LCFI2:
 265              		.cfi_def_cfa_offset 36
 266              		.cfi_offset 4, -36
 267              		.cfi_offset 5, -32
 268              		.cfi_offset 6, -28
 269              		.cfi_offset 7, -24
 270              		.cfi_offset 8, -20
 271              		.cfi_offset 9, -16
 272              		.cfi_offset 10, -12
 273              		.cfi_offset 11, -8
 274              		.cfi_offset 14, -4
 275              		.loc 1 679 0
 276 0004 40F20001 		movw	r1, #:lower16:rlist
 277 0008 C0F20001 		movt	r1, #:upper16:rlist
 278              		.loc 1 677 0
 279 000c D0F850A0 		ldr	sl, [r0, #80]
 280              		.loc 1 679 0
ARM GAS  /tmp/ccx4dzgE.s 			page 6


 281 0010 8A69     		ldr	r2, [r1, #24]
 282              		.loc 1 675 0
 283 0012 8346     		mov	fp, r0
 284              	.LVL20:
 285              		.loc 1 679 0
 286 0014 9148     		ldr	r0, .L225
 287              	.LVL21:
 288              		.loc 1 675 0
 289 0016 87B0     		sub	sp, sp, #28
 290              	.LCFI3:
 291              		.cfi_def_cfa_offset 64
 292              	.LBB85:
 293              		.loc 1 680 0
 294 0018 2023     		movs	r3, #32
 295              	.LVL22:
 296              	.LBE85:
 297              		.loc 1 679 0
 298 001a 9061     		str	r0, [r2, #24]
 299              	.LBB86:
 300              		.loc 1 680 0
 301              	@ 680 "../../os/hal/platforms/STM32/OTGv1/usb_lld.c" 1
 302 001c 83F31188 		msr     BASEPRI, r3
 303              	@ 0 "" 2
 304              	.LVL23:
 305              		.thumb
 306              	.LBE86:
 307              	.LBB87:
 308              	.LBB88:
 309              		.loc 1 692 0
 310 0020 4FF00008 		mov	r8, #0
 311              	.LVL24:
 312              	.L104:
 313              	.LBE88:
 314              		.loc 1 686 0
 315 0024 9BF80030 		ldrb	r3, [fp, #0]	@ zero_extendqisi2
 316              	.LVL25:
 317 0028 012B     		cmp	r3, #1
 318 002a 06D0     		beq	.L42
 319              		.loc 1 686 0 is_stmt 0 discriminator 1
 320 002c DBF85C40 		ldr	r4, [fp, #92]
 321 0030 9CB9     		cbnz	r4, .L43
 322              		.loc 1 687 0 is_stmt 1
 323 0032 DAF81450 		ldr	r5, [sl, #20]
 324 0036 E806     		lsls	r0, r5, #27
 325 0038 0FD4     		bmi	.L43
 326              	.L42:
 327              		.loc 1 689 0
 328 003a 40F20007 		movw	r7, #:lower16:rlist
 329 003e C0F20007 		movt	r7, #:upper16:rlist
 330              		.loc 1 688 0
 331 0042 DAF81860 		ldr	r6, [sl, #24]
 332              		.loc 1 689 0
 333 0046 B969     		ldr	r1, [r7, #24]
 334              		.loc 1 688 0
 335 0048 46F01002 		orr	r2, r6, #16
 336 004c CAF81820 		str	r2, [sl, #24]
 337              		.loc 1 690 0
ARM GAS  /tmp/ccx4dzgE.s 			page 7


 338 0050 0220     		movs	r0, #2
 339              		.loc 1 689 0
 340 0052 CBF86410 		str	r1, [fp, #100]
 341              		.loc 1 690 0
 342 0056 FFF7FEFF 		bl	chSchGoSleepS
 343              	.LVL26:
 344              	.L43:
 345              	.LBB89:
 346              		.loc 1 692 0
 347 005a 0023     		movs	r3, #0
 348              	.LVL27:
 349              	@ 692 "../../os/hal/platforms/STM32/OTGv1/usb_lld.c" 1
 350 005c 83F31188 		msr     BASEPRI, r3
 351              	@ 0 "" 2
 352              	.LVL28:
 353              		.loc 1 695 0
 354              		.thumb
 355 0060 1C46     		mov	r4, r3
 356              	.LVL29:
 357              	.L197:
 358              	.LBE89:
 359              		.loc 1 698 0 discriminator 1
 360 0062 DAF81400 		ldr	r0, [sl, #20]
 361 0066 10F01007 		ands	r7, r0, #16
 362 006a 3AD0     		beq	.L221
 363              	.L69:
 364              	.LVL30:
 365              	.LBB90:
 366              	.LBB91:
 367              		.loc 1 448 0
 368 006c DBF85000 		ldr	r0, [fp, #80]
 369 0070 016A     		ldr	r1, [r0, #32]
 370              	.LVL31:
 371              		.loc 1 449 0
 372 0072 01F4F015 		and	r5, r1, #1966080
 373 0076 B5F5802F 		cmp	r5, #262144
 374 007a 47D0     		beq	.L46
 375 007c B5F5402F 		cmp	r5, #786432
 376 0080 EFD1     		bne	.L197
 377              	.LVL32:
 378              		.loc 1 454 0
 379 0082 01F00F07 		and	r7, r1, #15
 380              	.LVL33:
 381              		.loc 1 455 0
 382 0086 0BEB8702 		add	r2, fp, r7, lsl #2
 383              		.loc 1 453 0
 384 008a C1F30A16 		ubfx	r6, r1, #4, #11
 385              		.loc 1 455 0
 386 008e D368     		ldr	r3, [r2, #12]
 387              	.LVL34:
 388              	.LBB92:
 389              	.LBB93:
 390              		.loc 1 366 0
 391 0090 F11C     		adds	r1, r6, #3
 392              	.LVL35:
 393              		.loc 1 368 0
 394 0092 8D08     		lsrs	r5, r1, #2
ARM GAS  /tmp/ccx4dzgE.s 			page 8


 395              	.LBE93:
 396              	.LBE92:
 397              		.loc 1 455 0
 398 0094 1F6A     		ldr	r7, [r3, #32]
 399              	.LVL36:
 400              	.LBB100:
 401              	.LBB99:
 402              		.loc 1 368 0
 403 0096 E4D0     		beq	.L197
 404 0098 00F58050 		add	r0, r0, #4096
 405              	.LVL37:
 406 009c 6A1E     		subs	r2, r5, #1
 407              	.LBB94:
 408              		.loc 1 369 0
 409 009e 0368     		ldr	r3, [r0, #0]
 410              	.LVL38:
 411              	.LBE94:
 412              		.loc 1 368 0
 413 00a0 1146     		mov	r1, r2
 414              	.LBB95:
 415              		.loc 1 373 0
 416 00a2 47F8043B 		str	r3, [r7], #4
 417              	.LVL39:
 418 00a6 02F00106 		and	r6, r2, #1
 419              		.loc 1 375 0
 420 00aa 0123     		movs	r3, #1
 421              	.LVL40:
 422              	.LBE95:
 423              		.loc 1 368 0
 424 00ac 002A     		cmp	r2, #0
 425 00ae D8D0     		beq	.L197
 426 00b0 2EB1     		cbz	r6, .L48
 427              	.LBB96:
 428              		.loc 1 369 0
 429 00b2 0568     		ldr	r5, [r0, #0]
 430              	.LVL41:
 431              		.loc 1 375 0
 432 00b4 0023     		movs	r3, #0
 433              	.LVL42:
 434              	.LBE96:
 435              		.loc 1 368 0
 436 00b6 511E     		subs	r1, r2, #1
 437              	.LVL43:
 438              	.LBB97:
 439              		.loc 1 373 0
 440 00b8 47F8045B 		str	r5, [r7], #4
 441              	.LVL44:
 442              	.LBE97:
 443              		.loc 1 368 0
 444 00bc D1D0     		beq	.L197
 445              	.L48:
 446              	.LBB98:
 447              		.loc 1 369 0
 448 00be 0268     		ldr	r2, [r0, #0]
 449              		.loc 1 370 0
 450 00c0 13B1     		cbz	r3, .L50
 451              		.loc 1 373 0
ARM GAS  /tmp/ccx4dzgE.s 			page 9


 452 00c2 47F8042B 		str	r2, [r7], #4
 453              	.LVL45:
 454              		.loc 1 375 0
 455 00c6 013B     		subs	r3, r3, #1
 456              	.LVL46:
 457              	.L50:
 458              		.loc 1 377 0
 459 00c8 0139     		subs	r1, r1, #1
 460              		.loc 1 369 0
 461 00ca 0668     		ldr	r6, [r0, #0]
 462              		.loc 1 370 0
 463 00cc 13B1     		cbz	r3, .L158
 464              		.loc 1 373 0
 465 00ce 47F8046B 		str	r6, [r7], #4
 466              	.LVL47:
 467              		.loc 1 375 0
 468 00d2 013B     		subs	r3, r3, #1
 469              	.LVL48:
 470              	.L158:
 471              	.LBE98:
 472              		.loc 1 368 0
 473 00d4 0139     		subs	r1, r1, #1
 474 00d6 F2D1     		bne	.L48
 475              	.LBE99:
 476              	.LBE100:
 477              	.LBE91:
 478              	.LBE90:
 479              		.loc 1 698 0
 480 00d8 DAF81400 		ldr	r0, [sl, #20]
 481              	.LVL49:
 482 00dc 10F01007 		ands	r7, r0, #16
 483              	.LVL50:
 484 00e0 C4D1     		bne	.L69
 485              	.LVL51:
 486              	.L221:
 487              		.loc 1 702 0
 488 00e2 0125     		movs	r5, #1
 489              		.loc 1 703 0
 490 00e4 DBF85C30 		ldr	r3, [fp, #92]
 491              	.LVL52:
 492              		.loc 1 702 0
 493 00e8 A540     		lsls	r5, r5, r4
 494              		.loc 1 703 0
 495 00ea 1D42     		tst	r5, r3
 496              		.loc 1 702 0
 497 00ec 0495     		str	r5, [sp, #16]
 498              	.LVL53:
 499              		.loc 1 703 0
 500 00ee 40F0B780 		bne	.L202
 501 00f2 0134     		adds	r4, r4, #1
 502 00f4 0594     		str	r4, [sp, #20]
 503              	.LVL54:
 504              	.L70:
 505              		.loc 1 695 0
 506 00f6 DBF85420 		ldr	r2, [fp, #84]
 507 00fa 059B     		ldr	r3, [sp, #20]
 508              	.LVL55:
ARM GAS  /tmp/ccx4dzgE.s 			page 10


 509 00fc 9068     		ldr	r0, [r2, #8]
 510 00fe DCB2     		uxtb	r4, r3
 511              	.LVL56:
 512 0100 8442     		cmp	r4, r0
 513 0102 AED9     		bls	.L197
 514              	.LBB117:
 515              		.loc 1 727 0
 516 0104 2023     		movs	r3, #32
 517              	.LVL57:
 518              	@ 727 "../../os/hal/platforms/STM32/OTGv1/usb_lld.c" 1
 519 0106 83F31188 		msr     BASEPRI, r3
 520              	@ 0 "" 2
 521              	.LVL58:
 522              		.thumb
 523              	.LBE117:
 524              	.LBE87:
 525              		.loc 1 728 0
 526 010a 8BE7     		b	.L104
 527              	.LVL59:
 528              	.L46:
 529              	.LBB154:
 530              	.LBB118:
 531              	.LBB116:
 532              		.loc 1 460 0
 533 010c 01F00F07 		and	r7, r1, #15
 534              		.loc 1 461 0
 535 0110 0237     		adds	r7, r7, #2
 536 0112 0BEB8705 		add	r5, fp, r7, lsl #2
 537              		.loc 1 459 0
 538 0116 C1F30A16 		ubfx	r6, r1, #4, #11
 539              	.LVL60:
 540              		.loc 1 461 0
 541 011a 6A68     		ldr	r2, [r5, #4]
 542 011c 9169     		ldr	r1, [r2, #24]
 543              	.LVL61:
 544 011e 0B78     		ldrb	r3, [r1, #0]	@ zero_extendqisi2
 545              	.LVL62:
 546 0120 002B     		cmp	r3, #0
 547 0122 3BD1     		bne	.L222
 548              		.loc 1 468 0
 549 0124 0D1D     		adds	r5, r1, #4
 550 0126 2CCD     		ldmia	r5, {r2, r3, r5}
 551              	.LVL63:
 552 0128 0332     		adds	r2, r2, #3
 553              	.LVL64:
 554              	.LBB101:
 555              	.LBB102:
 556              		.loc 1 367 0
 557 012a D31A     		subs	r3, r2, r3
 558              		.loc 1 366 0
 559 012c F21C     		adds	r2, r6, #3
 560              	.LVL65:
 561              		.loc 1 367 0
 562 012e 9B08     		lsrs	r3, r3, #2
 563              	.LVL66:
 564              		.loc 1 368 0
 565 0130 9208     		lsrs	r2, r2, #2
ARM GAS  /tmp/ccx4dzgE.s 			page 11


 566              	.LVL67:
 567 0132 29D0     		beq	.L68
 568 0134 00F58050 		add	r0, r0, #4096
 569              	.LVL68:
 570 0138 02F1FF39 		add	r9, r2, #-1
 571 013c 09F0010C 		and	ip, r9, #1
 572 0140 AE46     		mov	lr, r5
 573              	.LBB103:
 574              		.loc 1 369 0
 575 0142 D0F80090 		ldr	r9, [r0, #0]
 576              	.LVL69:
 577              		.loc 1 370 0
 578 0146 1BB1     		cbz	r3, .L146
 579              		.loc 1 373 0
 580 0148 AE46     		mov	lr, r5
 581              		.loc 1 375 0
 582 014a 013B     		subs	r3, r3, #1
 583              	.LVL70:
 584              		.loc 1 373 0
 585 014c 4EF8049B 		str	r9, [lr], #4
 586              	.LVL71:
 587              	.L146:
 588              	.LBE103:
 589              		.loc 1 368 0
 590 0150 013A     		subs	r2, r2, #1
 591              	.LVL72:
 592 0152 19D0     		beq	.L68
 593 0154 BCF1000F 		cmp	ip, #0
 594 0158 07D0     		beq	.L214
 595              	.LBB104:
 596              		.loc 1 369 0
 597 015a D0F800C0 		ldr	ip, [r0, #0]
 598              	.LVL73:
 599              		.loc 1 370 0
 600 015e 13B1     		cbz	r3, .L148
 601              		.loc 1 373 0
 602 0160 4EF804CB 		str	ip, [lr], #4
 603              	.LVL74:
 604              		.loc 1 375 0
 605 0164 013B     		subs	r3, r3, #1
 606              	.LVL75:
 607              	.L148:
 608              	.LBE104:
 609              		.loc 1 368 0
 610 0166 013A     		subs	r2, r2, #1
 611 0168 0ED0     		beq	.L68
 612              	.L214:
 613 016a 8946     		mov	r9, r1
 614              	.L67:
 615              	.LBB105:
 616              		.loc 1 369 0
 617 016c 0168     		ldr	r1, [r0, #0]
 618              		.loc 1 370 0
 619 016e 13B1     		cbz	r3, .L66
 620              		.loc 1 373 0
 621 0170 4EF8041B 		str	r1, [lr], #4
 622              	.LVL76:
ARM GAS  /tmp/ccx4dzgE.s 			page 12


 623              		.loc 1 375 0
 624 0174 013B     		subs	r3, r3, #1
 625              	.LVL77:
 626              	.L66:
 627              		.loc 1 377 0
 628 0176 013A     		subs	r2, r2, #1
 629              		.loc 1 369 0
 630 0178 0168     		ldr	r1, [r0, #0]
 631              		.loc 1 370 0
 632 017a 13B1     		cbz	r3, .L151
 633              		.loc 1 373 0
 634 017c 4EF8041B 		str	r1, [lr], #4
 635              	.LVL78:
 636              		.loc 1 375 0
 637 0180 013B     		subs	r3, r3, #1
 638              	.LVL79:
 639              	.L151:
 640              	.LBE105:
 641              		.loc 1 368 0
 642 0182 013A     		subs	r2, r2, #1
 643 0184 F2D1     		bne	.L67
 644 0186 4946     		mov	r1, r9
 645              	.LVL80:
 646              	.L68:
 647              	.LBE102:
 648              	.LBE101:
 649              		.loc 1 473 0
 650 0188 AD19     		adds	r5, r5, r6
 651 018a CD60     		str	r5, [r1, #12]
 652              	.LVL81:
 653              	.L62:
 654              		.loc 1 475 0
 655 018c 0BEB8707 		add	r7, fp, r7, lsl #2
 656              	.LVL82:
 657 0190 7868     		ldr	r0, [r7, #4]
 658 0192 8569     		ldr	r5, [r0, #24]
 659 0194 A968     		ldr	r1, [r5, #8]
 660 0196 8E19     		adds	r6, r1, r6
 661              	.LVL83:
 662 0198 AE60     		str	r6, [r5, #8]
 663 019a 62E7     		b	.L197
 664              	.LVL84:
 665              	.L222:
 666              		.loc 1 463 0
 667 019c 00F58050 		add	r0, r0, #4096
 668 01a0 CD68     		ldr	r5, [r1, #12]
 669              	.LVL85:
 670              	.LBB106:
 671              	.LBB107:
 672              		.loc 1 396 0
 673 01a2 002E     		cmp	r6, #0
 674 01a4 40D0     		beq	.L53
 675 01a6 3346     		mov	r3, r6
 676 01a8 A446     		mov	ip, r4
 677              	.LVL86:
 678              	.L196:
 679              	.LBB108:
ARM GAS  /tmp/ccx4dzgE.s 			page 13


 680              		.loc 1 400 0
 681 01aa 032B     		cmp	r3, #3
 682              	.LBB109:
 683              		.loc 1 406 0
 684 01ac 6969     		ldr	r1, [r5, #20]
 685              	.LBE109:
 686              		.loc 1 400 0
 687 01ae 07D9     		bls	.L55
 688              	.LVL87:
 689              	.L199:
 690              	.LBB110:
 691              		.loc 1 406 0
 692 01b0 2C69     		ldr	r4, [r5, #16]
 693 01b2 A142     		cmp	r1, r4
 694 01b4 04D3     		bcc	.L55
 695              		.loc 1 407 0
 696 01b6 EC68     		ldr	r4, [r5, #12]
 697              	.LBE110:
 698              		.loc 1 400 0
 699 01b8 032B     		cmp	r3, #3
 700              	.LBB111:
 701              		.loc 1 407 0
 702 01ba 6C61     		str	r4, [r5, #20]
 703              	.LVL88:
 704              		.loc 1 406 0
 705 01bc 6969     		ldr	r1, [r5, #20]
 706              	.LBE111:
 707              		.loc 1 400 0
 708 01be F7D8     		bhi	.L199
 709              	.LVL89:
 710              	.L55:
 711              		.loc 1 418 0
 712 01c0 0268     		ldr	r2, [r0, #0]
 713              	.LVL90:
 714              		.loc 1 421 0
 715 01c2 01F8012B 		strb	r2, [r1], #1
 716              		.loc 1 422 0
 717 01c6 2C69     		ldr	r4, [r5, #16]
 718              		.loc 1 421 0
 719 01c8 6961     		str	r1, [r5, #20]
 720              		.loc 1 422 0
 721 01ca A142     		cmp	r1, r4
 722              		.loc 1 423 0
 723 01cc 24BF     		itt	cs
 724 01ce E968     		ldrcs	r1, [r5, #12]
 725 01d0 6961     		strcs	r1, [r5, #20]
 726              		.loc 1 420 0
 727 01d2 012B     		cmp	r3, #1
 728 01d4 27D0     		beq	.L208
 729              	.LVL91:
 730              		.loc 1 421 0
 731 01d6 D5F814E0 		ldr	lr, [r5, #20]
 732 01da 110A     		lsrs	r1, r2, #8
 733 01dc 0EF8011B 		strb	r1, [lr], #1
 734              		.loc 1 422 0
 735 01e0 2C69     		ldr	r4, [r5, #16]
 736              		.loc 1 421 0
ARM GAS  /tmp/ccx4dzgE.s 			page 14


 737 01e2 C5F814E0 		str	lr, [r5, #20]
 738              		.loc 1 422 0
 739 01e6 A645     		cmp	lr, r4
 740              		.loc 1 423 0
 741 01e8 24BF     		itt	cs
 742 01ea EC68     		ldrcs	r4, [r5, #12]
 743 01ec 6C61     		strcs	r4, [r5, #20]
 744              		.loc 1 420 0
 745 01ee 022B     		cmp	r3, #2
 746 01f0 19D0     		beq	.L208
 747              	.LVL92:
 748              		.loc 1 421 0
 749 01f2 D5F81490 		ldr	r9, [r5, #20]
 750 01f6 110C     		lsrs	r1, r2, #16
 751 01f8 09F8011B 		strb	r1, [r9], #1
 752              		.loc 1 422 0
 753 01fc 2C69     		ldr	r4, [r5, #16]
 754              		.loc 1 421 0
 755 01fe C5F81490 		str	r9, [r5, #20]
 756              		.loc 1 422 0
 757 0202 A145     		cmp	r9, r4
 758              		.loc 1 423 0
 759 0204 24BF     		itt	cs
 760 0206 EC68     		ldrcs	r4, [r5, #12]
 761 0208 6C61     		strcs	r4, [r5, #20]
 762              		.loc 1 420 0
 763 020a 032B     		cmp	r3, #3
 764 020c 0BD0     		beq	.L208
 765              	.LVL93:
 766              		.loc 1 421 0
 767 020e 6969     		ldr	r1, [r5, #20]
 768 0210 120E     		lsrs	r2, r2, #24
 769              	.LVL94:
 770 0212 01F8012B 		strb	r2, [r1], #1
 771              		.loc 1 422 0
 772 0216 2C69     		ldr	r4, [r5, #16]
 773              		.loc 1 421 0
 774 0218 6961     		str	r1, [r5, #20]
 775              		.loc 1 422 0
 776 021a A142     		cmp	r1, r4
 777              		.loc 1 423 0
 778 021c 24BF     		itt	cs
 779 021e EC68     		ldrcs	r4, [r5, #12]
 780 0220 6C61     		strcs	r4, [r5, #20]
 781              		.loc 1 420 0
 782 0222 043B     		subs	r3, r3, #4
 783              	.LVL95:
 784 0224 C1D1     		bne	.L196
 785              	.LVL96:
 786              	.L208:
 787 0226 6446     		mov	r4, ip
 788              	.L53:
 789              	.LBE108:
 790              	.LBB112:
 791              		.loc 1 430 0
 792 0228 2023     		movs	r3, #32
 793              	.LVL97:
ARM GAS  /tmp/ccx4dzgE.s 			page 15


 794              	@ 430 "../../os/hal/platforms/STM32/OTGv1/usb_lld.c" 1
 795 022a 83F31188 		msr     BASEPRI, r3
 796              	@ 0 "" 2
 797              	.LVL98:
 798              		.thumb
 799              	.LBE112:
 800              		.loc 1 431 0
 801 022e A968     		ldr	r1, [r5, #8]
 802              		.loc 1 432 0
 803 0230 2868     		ldr	r0, [r5, #0]
 804              	.LVL99:
 805              		.loc 1 431 0
 806 0232 8A19     		adds	r2, r1, r6
 807              		.loc 1 432 0
 808 0234 A842     		cmp	r0, r5
 809              		.loc 1 431 0
 810 0236 AA60     		str	r2, [r5, #8]
 811              		.loc 1 432 0
 812 0238 09D0     		beq	.L64
 813              	.LVL100:
 814              	.L137:
 815              	.LBB113:
 816              	.LBB114:
 817              		.file 2 "../../os/kernel/include/chinline.h"
 818              		.loc 2 55 0
 819 023a 0368     		ldr	r3, [r0, #0]
 820              	.LVL101:
 821 023c 2B60     		str	r3, [r5, #0]
 822 023e 5D60     		str	r5, [r3, #4]
 823              	.LBE114:
 824              	.LBE113:
 825              		.loc 1 433 0
 826 0240 FFF7FEFF 		bl	chSchReadyI
 827              	.LVL102:
 828 0244 C0F82480 		str	r8, [r0, #36]
 829              		.loc 1 432 0
 830 0248 2868     		ldr	r0, [r5, #0]
 831 024a A842     		cmp	r0, r5
 832 024c F5D1     		bne	.L137
 833              	.LVL103:
 834              	.L64:
 835              		.loc 1 434 0
 836 024e FFF7FEFF 		bl	chSchRescheduleS
 837              	.LVL104:
 838              	.LBB115:
 839              		.loc 1 435 0
 840 0252 0023     		movs	r3, #0
 841              	@ 435 "../../os/hal/platforms/STM32/OTGv1/usb_lld.c" 1
 842 0254 83F31188 		msr     BASEPRI, r3
 843              	@ 0 "" 2
 844              	.LVL105:
 845              		.thumb
 846 0258 98E7     		b	.L62
 847              	.L226:
 848 025a 00BF     		.align	2
 849              	.L225:
 850 025c 00000000 		.word	.LC0
ARM GAS  /tmp/ccx4dzgE.s 			page 16


 851              	.LVL106:
 852              	.L202:
 853              	.LBE115:
 854              	.LBE107:
 855              	.LBE106:
 856              	.LBE116:
 857              	.LBE118:
 858              	.LBB119:
 859              	.LBB120:
 860              		.loc 1 706 0
 861 0260 2023     		movs	r3, #32
 862              	.LVL107:
 863              	@ 706 "../../os/hal/platforms/STM32/OTGv1/usb_lld.c" 1
 864 0262 83F31188 		msr     BASEPRI, r3
 865              	@ 0 "" 2
 866              	.LVL108:
 867              		.thumb
 868              	.LBE120:
 869              		.loc 1 714 0
 870 0266 DAF80860 		ldr	r6, [sl, #8]
 871              		.loc 1 715 0
 872 026a DBF85C10 		ldr	r1, [fp, #92]
 873 026e 0498     		ldr	r0, [sp, #16]
 874              		.loc 1 714 0
 875 0270 26F00102 		bic	r2, r6, #1
 876              		.loc 1 715 0
 877 0274 21EA0005 		bic	r5, r1, r0
 878              	.LVL109:
 879              		.loc 1 714 0
 880 0278 CAF80820 		str	r2, [sl, #8]
 881              	.LBB121:
 882              		.loc 1 716 0
 883 027c 3B46     		mov	r3, r7
 884              	.LVL110:
 885              	.LBE121:
 886              		.loc 1 715 0
 887 027e CBF85C50 		str	r5, [fp, #92]
 888              	.LBB122:
 889              		.loc 1 716 0
 890              	@ 716 "../../os/hal/platforms/STM32/OTGv1/usb_lld.c" 1
 891 0282 83F31188 		msr     BASEPRI, r3
 892              	@ 0 "" 2
 893              	.LVL111:
 894              		.thumb
 895              	.LBE122:
 896              	.LBB123:
 897              	.LBB124:
 898              		.loc 1 499 0
 899 0286 A71C     		adds	r7, r4, #2
 900 0288 0BEB8703 		add	r3, fp, r7, lsl #2
 901              	.LVL112:
 902 028c 5D68     		ldr	r5, [r3, #4]
 903 028e 6869     		ldr	r0, [r5, #20]
 904 0290 8268     		ldr	r2, [r0, #8]
 905 0292 4668     		ldr	r6, [r0, #4]
 906 0294 9642     		cmp	r6, r2
 907 0296 40F2FA80 		bls	.L223
ARM GAS  /tmp/ccx4dzgE.s 			page 17


 908              		.loc 1 509 0
 909 029a DBF85010 		ldr	r1, [fp, #80]
 910              		.loc 1 504 0
 911 029e 2D8A     		ldrh	r5, [r5, #16]
 912              		.loc 1 509 0
 913 02a0 6701     		lsls	r7, r4, #5
 914 02a2 0297     		str	r7, [sp, #8]
 915 02a4 CF19     		adds	r7, r1, r7
 916              		.loc 1 503 0
 917 02a6 B61A     		subs	r6, r6, r2
 918              	.LVL113:
 919              		.loc 1 509 0
 920 02a8 D7F81829 		ldr	r2, [r7, #2328]
 921 02ac B542     		cmp	r5, r6
 922 02ae 28BF     		it	cs
 923 02b0 3546     		movcs	r5, r6
 924              	.LVL114:
 925 02b2 97B2     		uxth	r7, r2
 926 02b4 0134     		adds	r4, r4, #1
 927              	.LVL115:
 928 02b6 B5EB870F 		cmp	r5, r7, lsl #2
 929 02ba 0594     		str	r4, [sp, #20]
 930 02bc 47D8     		bhi	.L74
 931              		.loc 1 524 0
 932 02be 2603     		lsls	r6, r4, #12
 933 02c0 0196     		str	r6, [sp, #4]
 934              		.loc 1 529 0
 935 02c2 0393     		str	r3, [sp, #12]
 936              	.LVL116:
 937              	.L75:
 938              		.loc 1 516 0
 939 02c4 0378     		ldrb	r3, [r0, #0]	@ zero_extendqisi2
 940 02c6 002B     		cmp	r3, #0
 941 02c8 57D1     		bne	.L224
 942              		.loc 1 524 0
 943 02ca 019F     		ldr	r7, [sp, #4]
 944              	.LBB125:
 945              	.LBB126:
 946              		.loc 1 265 0
 947 02cc EA1C     		adds	r2, r5, #3
 948              	.LBB127:
 949              	.LBB128:
 950              		.loc 1 242 0
 951 02ce 5FEA920E 		lsrs	lr, r2, #2
 952              	.LBE128:
 953              	.LBE127:
 954              	.LBE126:
 955              	.LBE125:
 956              		.loc 1 524 0
 957 02d2 01EB0704 		add	r4, r1, r7
 958 02d6 C768     		ldr	r7, [r0, #12]
 959              	.LVL117:
 960              	.LBB135:
 961              	.LBB133:
 962              	.LBB131:
 963              	.LBB129:
 964              		.loc 1 242 0
ARM GAS  /tmp/ccx4dzgE.s 			page 18


 965 02d8 1ED0     		beq	.L98
 966              	.LBE129:
 967              	.LBE131:
 968              	.LBE133:
 969              	.LBE135:
 970              		.loc 1 675 0
 971 02da 3A46     		mov	r2, r7
 972 02dc 0EF1FF36 		add	r6, lr, #-1
 973              	.LBB136:
 974              	.LBB134:
 975              	.LBB132:
 976              	.LBB130:
 977              		.loc 1 245 0
 978 02e0 52F804CB 		ldr	ip, [r2], #4
 979              		.loc 1 242 0
 980 02e4 3346     		mov	r3, r6
 981 02e6 06F00109 		and	r9, r6, #1
 982              		.loc 1 245 0
 983 02ea 019E     		ldr	r6, [sp, #4]
 984 02ec 0432     		adds	r2, r2, #4
 985 02ee 41F806C0 		str	ip, [r1, r6]
 986              	.LVL118:
 987              		.loc 1 242 0
 988 02f2 8BB1     		cbz	r3, .L98
 989 02f4 B9F1000F 		cmp	r9, #0
 990 02f8 05D0     		beq	.L97
 991              		.loc 1 245 0
 992 02fa 52F8041C 		ldr	r1, [r2, #-4]
 993 02fe 0432     		adds	r2, r2, #4
 994              		.loc 1 242 0
 995 0300 013B     		subs	r3, r3, #1
 996              		.loc 1 245 0
 997 0302 2160     		str	r1, [r4, #0]
 998              	.LVL119:
 999              		.loc 1 242 0
 1000 0304 08D0     		beq	.L98
 1001              	.L97:
 1002              		.loc 1 245 0
 1003 0306 52F8046C 		ldr	r6, [r2, #-4]
 1004 030a 2660     		str	r6, [r4, #0]
 1005 030c 52F8041B 		ldr	r1, [r2], #4
 1006 0310 0432     		adds	r2, r2, #4
 1007              		.loc 1 242 0
 1008 0312 023B     		subs	r3, r3, #2
 1009              		.loc 1 245 0
 1010 0314 2160     		str	r1, [r4, #0]
 1011              		.loc 1 242 0
 1012 0316 F6D1     		bne	.L97
 1013              	.L98:
 1014              	.LBE130:
 1015              	.LBE132:
 1016              	.LBE134:
 1017              	.LBE136:
 1018              		.loc 1 527 0
 1019 0318 7C19     		adds	r4, r7, r5
 1020              	.LVL120:
 1021 031a C460     		str	r4, [r0, #12]
ARM GAS  /tmp/ccx4dzgE.s 			page 19


 1022              	.LVL121:
 1023              	.L94:
 1024              		.loc 1 529 0
 1025 031c 0398     		ldr	r0, [sp, #12]
 1026 031e 4468     		ldr	r4, [r0, #4]
 1027 0320 6069     		ldr	r0, [r4, #20]
 1028 0322 8668     		ldr	r6, [r0, #8]
 1029              		.loc 1 499 0
 1030 0324 4268     		ldr	r2, [r0, #4]
 1031              		.loc 1 529 0
 1032 0326 AB19     		adds	r3, r5, r6
 1033              	.LVL122:
 1034              		.loc 1 499 0
 1035 0328 9A42     		cmp	r2, r3
 1036              		.loc 1 529 0
 1037 032a 8360     		str	r3, [r0, #8]
 1038              		.loc 1 499 0
 1039 032c 40F2B180 		bls	.L99
 1040              		.loc 1 509 0
 1041 0330 029D     		ldr	r5, [sp, #8]
 1042              	.LVL123:
 1043 0332 DBF85010 		ldr	r1, [fp, #80]
 1044              		.loc 1 504 0
 1045 0336 248A     		ldrh	r4, [r4, #16]
 1046              		.loc 1 509 0
 1047 0338 4F19     		adds	r7, r1, r5
 1048              		.loc 1 503 0
 1049 033a D51A     		subs	r5, r2, r3
 1050              	.LVL124:
 1051              		.loc 1 509 0
 1052 033c D7F81869 		ldr	r6, [r7, #2328]
 1053 0340 A542     		cmp	r5, r4
 1054 0342 28BF     		it	cs
 1055 0344 2546     		movcs	r5, r4
 1056              	.LVL125:
 1057 0346 B2B2     		uxth	r2, r6
 1058 0348 B5EB820F 		cmp	r5, r2, lsl #2
 1059 034c BAD9     		bls	.L75
 1060              	.L74:
 1061              	.LBB137:
 1062              	.LBB138:
 1063              		.loc 1 510 0
 1064 034e 0020     		movs	r0, #0
 1065              	.LVL126:
 1066              	.L72:
 1067              	.LBE138:
 1068              	.LBE137:
 1069              	.LBE124:
 1070              	.LBE123:
 1071              	.LBB151:
 1072              		.loc 1 720 0
 1073 0350 2023     		movs	r3, #32
 1074              	.LVL127:
 1075              	@ 720 "../../os/hal/platforms/STM32/OTGv1/usb_lld.c" 1
 1076 0352 83F31188 		msr     BASEPRI, r3
 1077              	@ 0 "" 2
 1078              	.LVL128:
ARM GAS  /tmp/ccx4dzgE.s 			page 20


 1079              		.thumb
 1080              	.LBE151:
 1081              		.loc 1 721 0
 1082 0356 DAF80810 		ldr	r1, [sl, #8]
 1083 035a 41F00104 		orr	r4, r1, #1
 1084 035e CAF80840 		str	r4, [sl, #8]
 1085              		.loc 1 722 0
 1086 0362 30B9     		cbnz	r0, .L101
 1087              		.loc 1 723 0
 1088 0364 DAF83458 		ldr	r5, [sl, #2100]
 1089 0368 049F     		ldr	r7, [sp, #16]
 1090 036a 47EA0506 		orr	r6, r7, r5
 1091 036e CAF83468 		str	r6, [sl, #2100]
 1092              	.L101:
 1093              	.LBB152:
 1094              		.loc 1 724 0
 1095 0372 0023     		movs	r3, #0
 1096              	.LVL129:
 1097              	@ 724 "../../os/hal/platforms/STM32/OTGv1/usb_lld.c" 1
 1098 0374 83F31188 		msr     BASEPRI, r3
 1099              	@ 0 "" 2
 1100              	.LVL130:
 1101              		.thumb
 1102 0378 BDE6     		b	.L70
 1103              	.LVL131:
 1104              	.L224:
 1105              	.LBE152:
 1106              	.LBB153:
 1107              	.LBB150:
 1108              		.loc 1 518 0
 1109 037a 019A     		ldr	r2, [sp, #4]
 1110 037c C468     		ldr	r4, [r0, #12]
 1111 037e 8918     		adds	r1, r1, r2
 1112              	.LVL132:
 1113              	.LBB149:
 1114              	.LBB148:
 1115              		.loc 1 283 0
 1116 0380 002D     		cmp	r5, #0
 1117 0382 35D0     		beq	.L86
 1118 0384 2069     		ldr	r0, [r4, #16]
 1119 0386 2A46     		mov	r2, r5
 1120 0388 AE46     		mov	lr, r5
 1121              	.LVL133:
 1122              	.L93:
 1123              	.LBB139:
 1124              		.loc 1 287 0
 1125 038a 9708     		lsrs	r7, r2, #2
 1126              	.LVL134:
 1127 038c 4BD0     		beq	.L80
 1128              	.LBB140:
 1129              		.loc 1 289 0
 1130 038e A569     		ldr	r5, [r4, #24]
 1131              	.LVL135:
 1132 0390 431B     		subs	r3, r0, r5
 1133 0392 48BF     		it	mi
 1134 0394 0333     		addmi	r3, r3, #3
 1135 0396 9B10     		asrs	r3, r3, #2
ARM GAS  /tmp/ccx4dzgE.s 			page 21


 1136              		.loc 1 291 0
 1137 0398 9F42     		cmp	r7, r3
 1138 039a 38BF     		it	cc
 1139 039c 3B46     		movcc	r3, r7
 1140              	.LVL136:
 1141 039e 4FEA830C 		lsl	ip, r3, #2
 1142 03a2 CCEB0202 		rsb	r2, ip, r2
 1143              	.LVL137:
 1144              	.LBB141:
 1145              	.LBB142:
 1146              		.loc 1 242 0
 1147 03a6 DBB1     		cbz	r3, .L82
 1148              		.loc 1 675 0
 1149 03a8 2E46     		mov	r6, r5
 1150 03aa 5F1E     		subs	r7, r3, #1
 1151              	.LVL138:
 1152              		.loc 1 245 0
 1153 03ac 56F8049B 		ldr	r9, [r6], #4
 1154              		.loc 1 242 0
 1155 03b0 3B46     		mov	r3, r7
 1156              	.LVL139:
 1157              		.loc 1 245 0
 1158 03b2 C1F80090 		str	r9, [r1, #0]
 1159              	.LVL140:
 1160 03b6 07F00107 		and	r7, r7, #1
 1161 03ba 0436     		adds	r6, r6, #4
 1162              		.loc 1 242 0
 1163 03bc 7BB1     		cbz	r3, .L204
 1164 03be 2FB1     		cbz	r7, .L83
 1165              		.loc 1 245 0
 1166 03c0 56F8047C 		ldr	r7, [r6, #-4]
 1167 03c4 0436     		adds	r6, r6, #4
 1168              		.loc 1 242 0
 1169 03c6 013B     		subs	r3, r3, #1
 1170              	.LVL141:
 1171              		.loc 1 245 0
 1172 03c8 0F60     		str	r7, [r1, #0]
 1173              	.LVL142:
 1174              		.loc 1 242 0
 1175 03ca 08D0     		beq	.L204
 1176              	.LVL143:
 1177              	.L83:
 1178              		.loc 1 245 0
 1179 03cc 56F8047C 		ldr	r7, [r6, #-4]
 1180 03d0 0F60     		str	r7, [r1, #0]
 1181 03d2 56F8047B 		ldr	r7, [r6], #4
 1182 03d6 0436     		adds	r6, r6, #4
 1183              		.loc 1 242 0
 1184 03d8 023B     		subs	r3, r3, #2
 1185              		.loc 1 245 0
 1186 03da 0F60     		str	r7, [r1, #0]
 1187              		.loc 1 242 0
 1188 03dc F6D1     		bne	.L83
 1189              	.L204:
 1190 03de 6544     		add	r5, r5, ip
 1191              	.LVL144:
 1192              	.L82:
ARM GAS  /tmp/ccx4dzgE.s 			page 22


 1193              	.LBE142:
 1194              	.LBE141:
 1195              		.loc 1 293 0
 1196 03e0 A842     		cmp	r0, r5
 1197              		.loc 1 292 0
 1198 03e2 A561     		str	r5, [r4, #24]
 1199              		.loc 1 293 0
 1200 03e4 1DD8     		bhi	.L84
 1201              		.loc 1 294 0
 1202 03e6 E668     		ldr	r6, [r4, #12]
 1203 03e8 A661     		str	r6, [r4, #24]
 1204              	.LBE140:
 1205              	.LBE139:
 1206              		.loc 1 283 0
 1207 03ea 002A     		cmp	r2, #0
 1208 03ec CDD1     		bne	.L93
 1209              	.LVL145:
 1210              	.L212:
 1211 03ee 7546     		mov	r5, lr
 1212              	.LVL146:
 1213              	.L86:
 1214              	.LBB143:
 1215              		.loc 1 318 0
 1216 03f0 2023     		movs	r3, #32
 1217              	.LVL147:
 1218              	@ 318 "../../os/hal/platforms/STM32/OTGv1/usb_lld.c" 1
 1219 03f2 83F31188 		msr     BASEPRI, r3
 1220              	@ 0 "" 2
 1221              	.LVL148:
 1222              		.thumb
 1223              	.LBE143:
 1224              		.loc 1 319 0
 1225 03f6 A168     		ldr	r1, [r4, #8]
 1226              	.LVL149:
 1227              		.loc 1 320 0
 1228 03f8 2068     		ldr	r0, [r4, #0]
 1229              		.loc 1 319 0
 1230 03fa 4F19     		adds	r7, r1, r5
 1231              		.loc 1 320 0
 1232 03fc A042     		cmp	r0, r4
 1233              		.loc 1 319 0
 1234 03fe A760     		str	r7, [r4, #8]
 1235              		.loc 1 320 0
 1236 0400 09D0     		beq	.L79
 1237              	.L138:
 1238              	.LVL150:
 1239              	.LBB144:
 1240              	.LBB145:
 1241              		.loc 2 55 0
 1242 0402 0368     		ldr	r3, [r0, #0]
 1243              	.LVL151:
 1244 0404 2360     		str	r3, [r4, #0]
 1245 0406 5C60     		str	r4, [r3, #4]
 1246              	.LBE145:
 1247              	.LBE144:
 1248              		.loc 1 321 0
 1249 0408 FFF7FEFF 		bl	chSchReadyI
ARM GAS  /tmp/ccx4dzgE.s 			page 23


 1250              	.LVL152:
 1251 040c C0F82480 		str	r8, [r0, #36]
 1252              		.loc 1 320 0
 1253 0410 2068     		ldr	r0, [r4, #0]
 1254 0412 A042     		cmp	r0, r4
 1255 0414 F5D1     		bne	.L138
 1256              	.LVL153:
 1257              	.L79:
 1258              		.loc 1 322 0
 1259 0416 FFF7FEFF 		bl	chSchRescheduleS
 1260              	.LVL154:
 1261              	.LBB146:
 1262              		.loc 1 323 0
 1263 041a 0023     		movs	r3, #0
 1264              	@ 323 "../../os/hal/platforms/STM32/OTGv1/usb_lld.c" 1
 1265 041c 83F31188 		msr     BASEPRI, r3
 1266              	@ 0 "" 2
 1267              	.LVL155:
 1268              		.thumb
 1269 0420 7CE7     		b	.L94
 1270              	.LVL156:
 1271              	.L84:
 1272              	.LBE146:
 1273              	.LBB147:
 1274              		.loc 1 301 0
 1275 0422 002A     		cmp	r2, #0
 1276 0424 E3D0     		beq	.L212
 1277              	.LVL157:
 1278              	.L80:
 1279              		.loc 1 308 0
 1280 0426 A669     		ldr	r6, [r4, #24]
 1281 0428 16F8013B 		ldrb	r3, [r6], #1	@ zero_extendqisi2
 1282              	.LVL158:
 1283              		.loc 1 309 0
 1284 042c B042     		cmp	r0, r6
 1285              		.loc 1 308 0
 1286 042e A661     		str	r6, [r4, #24]
 1287              		.loc 1 310 0
 1288 0430 9CBF     		itt	ls
 1289 0432 E668     		ldrls	r6, [r4, #12]
 1290 0434 A661     		strls	r6, [r4, #24]
 1291              		.loc 1 307 0
 1292 0436 012A     		cmp	r2, #1
 1293 0438 27D0     		beq	.L88
 1294              		.loc 1 308 0
 1295 043a A769     		ldr	r7, [r4, #24]
 1296 043c 17F8015B 		ldrb	r5, [r7], #1	@ zero_extendqisi2
 1297              		.loc 1 309 0
 1298 0440 B842     		cmp	r0, r7
 1299              		.loc 1 308 0
 1300 0442 A761     		str	r7, [r4, #24]
 1301              		.loc 1 310 0
 1302 0444 9CBF     		itt	ls
 1303 0446 E768     		ldrls	r7, [r4, #12]
 1304 0448 A761     		strls	r7, [r4, #24]
 1305              		.loc 1 307 0
 1306 044a 022A     		cmp	r2, #2
ARM GAS  /tmp/ccx4dzgE.s 			page 24


 1307              		.loc 1 308 0
 1308 044c 43EA0523 		orr	r3, r3, r5, lsl #8
 1309              	.LVL159:
 1310              		.loc 1 307 0
 1311 0450 1BD0     		beq	.L88
 1312              		.loc 1 308 0
 1313 0452 A769     		ldr	r7, [r4, #24]
 1314 0454 17F8016B 		ldrb	r6, [r7], #1	@ zero_extendqisi2
 1315              		.loc 1 309 0
 1316 0458 B842     		cmp	r0, r7
 1317              		.loc 1 308 0
 1318 045a A761     		str	r7, [r4, #24]
 1319              		.loc 1 310 0
 1320 045c 9CBF     		itt	ls
 1321 045e E768     		ldrls	r7, [r4, #12]
 1322 0460 A761     		strls	r7, [r4, #24]
 1323              		.loc 1 307 0
 1324 0462 032A     		cmp	r2, #3
 1325              		.loc 1 308 0
 1326 0464 43EA0643 		orr	r3, r3, r6, lsl #16
 1327              	.LVL160:
 1328              		.loc 1 307 0
 1329 0468 0FD0     		beq	.L88
 1330              		.loc 1 308 0
 1331 046a A569     		ldr	r5, [r4, #24]
 1332 046c 15F8017B 		ldrb	r7, [r5], #1	@ zero_extendqisi2
 1333              		.loc 1 309 0
 1334 0470 8542     		cmp	r5, r0
 1335              		.loc 1 308 0
 1336 0472 A561     		str	r5, [r4, #24]
 1337              		.loc 1 310 0
 1338 0474 24BF     		itt	cs
 1339 0476 E568     		ldrcs	r5, [r4, #12]
 1340 0478 A561     		strcs	r5, [r4, #24]
 1341              		.loc 1 307 0
 1342 047a 043A     		subs	r2, r2, #4
 1343              	.LVL161:
 1344              		.loc 1 308 0
 1345 047c 43EA0763 		orr	r3, r3, r7, lsl #24
 1346              	.LVL162:
 1347              		.loc 1 307 0
 1348 0480 03D0     		beq	.L88
 1349              	.LVL163:
 1350              	.L92:
 1351              		.loc 1 314 0
 1352 0482 0B60     		str	r3, [r1, #0]
 1353              	.LVL164:
 1354              	.LBE147:
 1355              		.loc 1 283 0
 1356 0484 002A     		cmp	r2, #0
 1357 0486 80D1     		bne	.L93
 1358 0488 B1E7     		b	.L212
 1359              	.LVL165:
 1360              	.L88:
 1361 048a 0022     		movs	r2, #0
 1362 048c F9E7     		b	.L92
 1363              	.LVL166:
ARM GAS  /tmp/ccx4dzgE.s 			page 25


 1364              	.L223:
 1365 048e 631C     		adds	r3, r4, #1
 1366 0490 0593     		str	r3, [sp, #20]
 1367              	.LVL167:
 1368              	.L99:
 1369              		.loc 1 500 0
 1370 0492 0120     		movs	r0, #1
 1371 0494 5CE7     		b	.L72
 1372              	.LBE148:
 1373              	.LBE149:
 1374              	.LBE150:
 1375              	.LBE153:
 1376              	.LBE119:
 1377              	.LBE154:
 1378              		.cfi_endproc
 1379              	.LFE136:
 1380              		.size	usb_lld_pump, .-usb_lld_pump
 1381 0496 00BFAFF3 		.section	.text.otg_epin_handler,"ax",%progbits
 1381      0080AFF3 
 1381      0080
 1382              		.align	2
 1383              		.p2align 4,,15
 1384              		.thumb
 1385              		.thumb_func
 1386              		.type	otg_epin_handler, %function
 1387              	otg_epin_handler:
 1388              	.LFB133:
 1389              		.loc 1 544 0
 1390              		.cfi_startproc
 1391              		@ args = 0, pretend = 0, frame = 0
 1392              		@ frame_needed = 0, uses_anonymous_args = 0
 1393              	.LVL168:
 1394 0000 F8B5     		push	{r3, r4, r5, r6, r7, lr}
 1395              	.LCFI4:
 1396              		.cfi_def_cfa_offset 24
 1397              		.cfi_offset 3, -24
 1398              		.cfi_offset 4, -20
 1399              		.cfi_offset 5, -16
 1400              		.cfi_offset 6, -12
 1401              		.cfi_offset 7, -8
 1402              		.cfi_offset 14, -4
 1403              		.loc 1 545 0
 1404 0002 046D     		ldr	r4, [r0, #80]
 1405              	.LVL169:
 1406              		.loc 1 546 0
 1407 0004 04EB4113 		add	r3, r4, r1, lsl #5
 1408              		.loc 1 548 0
 1409 0008 4FF0FF32 		mov	r2, #-1
 1410              		.loc 1 546 0
 1411 000c D3F80869 		ldr	r6, [r3, #2312]
 1412              	.LVL170:
 1413              		.loc 1 548 0
 1414 0010 C3F80829 		str	r2, [r3, #2312]
 1415              		.loc 1 553 0
 1416 0014 F307     		lsls	r3, r6, #31
 1417              		.loc 1 544 0
 1418 0016 0546     		mov	r5, r0
ARM GAS  /tmp/ccx4dzgE.s 			page 26


 1419 0018 0F46     		mov	r7, r1
 1420              		.loc 1 553 0
 1421 001a 03D5     		bpl	.L228
 1422              		.loc 1 553 0 is_stmt 0 discriminator 1
 1423 001c D4F81038 		ldr	r3, [r4, #2064]
 1424 0020 DA07     		lsls	r2, r3, #31
 1425 0022 1FD4     		bmi	.L246
 1426              	.LVL171:
 1427              	.L228:
 1428              		.loc 1 557 0 is_stmt 1
 1429 0024 3306     		lsls	r3, r6, #24
 1430 0026 06D5     		bpl	.L227
 1431              		.loc 1 558 0 discriminator 1
 1432 0028 0121     		movs	r1, #1
 1433 002a D4F83408 		ldr	r0, [r4, #2100]
 1434 002e 01FA07F7 		lsl	r7, r1, r7
 1435              		.loc 1 557 0 discriminator 1
 1436 0032 0742     		tst	r7, r0
 1437 0034 00D1     		bne	.L247
 1438              	.L227:
 1439 0036 F8BD     		pop	{r3, r4, r5, r6, r7, pc}
 1440              	.L247:
 1441              	.LBB159:
 1442              		.loc 1 560 0
 1443 0038 2023     		movs	r3, #32
 1444              	.LVL172:
 1445              	@ 560 "../../os/hal/platforms/STM32/OTGv1/usb_lld.c" 1
 1446 003a 83F31188 		msr     BASEPRI, r3
 1447              	@ 0 "" 2
 1448              	.LVL173:
 1449              		.thumb
 1450              	.LBE159:
 1451              		.loc 1 561 0
 1452 003e EB6D     		ldr	r3, [r5, #92]
 1453              	.LVL174:
 1454              		.loc 1 562 0
 1455 0040 D4F83428 		ldr	r2, [r4, #2100]
 1456              	.LBB160:
 1457              	.LBB161:
 1458              		.loc 1 122 0
 1459 0044 686E     		ldr	r0, [r5, #100]
 1460              	.LBE161:
 1461              	.LBE160:
 1462              		.loc 1 561 0
 1463 0046 3B43     		orrs	r3, r3, r7
 1464              		.loc 1 562 0
 1465 0048 22EA0707 		bic	r7, r2, r7
 1466              		.loc 1 561 0
 1467 004c EB65     		str	r3, [r5, #92]
 1468              		.loc 1 562 0
 1469 004e C4F83478 		str	r7, [r4, #2100]
 1470              	.LVL175:
 1471              	.LBB163:
 1472              	.LBB162:
 1473              		.loc 1 122 0
 1474 0052 18B1     		cbz	r0, .L230
 1475              		.loc 1 123 0
ARM GAS  /tmp/ccx4dzgE.s 			page 27


 1476 0054 FFF7FEFF 		bl	chSchReadyI
 1477              	.LVL176:
 1478              		.loc 1 124 0
 1479 0058 0020     		movs	r0, #0
 1480 005a 6866     		str	r0, [r5, #100]
 1481              	.L230:
 1482              	.LBE162:
 1483              	.LBE163:
 1484              	.LBB164:
 1485              		.loc 1 564 0
 1486 005c 0023     		movs	r3, #0
 1487              	.LVL177:
 1488              	@ 564 "../../os/hal/platforms/STM32/OTGv1/usb_lld.c" 1
 1489 005e 83F31188 		msr     BASEPRI, r3
 1490              	@ 0 "" 2
 1491              	.LVL178:
 1492              		.thumb
 1493 0062 F8BD     		pop	{r3, r4, r5, r6, r7, pc}
 1494              	.LVL179:
 1495              	.L246:
 1496              	.LBE164:
 1497              		.loc 1 555 0
 1498 0064 00EB8102 		add	r2, r0, r1, lsl #2
 1499 0068 B0F808E0 		ldrh	lr, [r0, #8]
 1500 006c D368     		ldr	r3, [r2, #12]
 1501 006e 0122     		movs	r2, #1
 1502 0070 02FA01F2 		lsl	r2, r2, r1
 1503 0074 2EEA0202 		bic	r2, lr, r2
 1504 0078 0281     		strh	r2, [r0, #8]	@ movhi
 1505 007a 9B68     		ldr	r3, [r3, #8]
 1506 007c 9847     		blx	r3
 1507              	.LVL180:
 1508 007e D1E7     		b	.L228
 1509              		.cfi_endproc
 1510              	.LFE133:
 1511              		.size	otg_epin_handler, .-otg_epin_handler
 1512              		.section	.text.Vector14C,"ax",%progbits
 1513              		.align	2
 1514              		.p2align 4,,15
 1515              		.global	Vector14C
 1516              		.thumb
 1517              		.thumb_func
 1518              		.type	Vector14C, %function
 1519              	Vector14C:
 1520              	.LFB137:
 1521              		.loc 1 742 0
 1522              		.cfi_startproc
 1523              		@ args = 0, pretend = 0, frame = 0
 1524              		@ frame_needed = 0, uses_anonymous_args = 0
 1525              	.LVL181:
 1526 0000 70B5     		push	{r4, r5, r6, lr}
 1527              	.LCFI5:
 1528              		.cfi_def_cfa_offset 16
 1529              		.cfi_offset 4, -16
 1530              		.cfi_offset 5, -12
 1531              		.cfi_offset 6, -8
 1532              		.cfi_offset 14, -4
ARM GAS  /tmp/ccx4dzgE.s 			page 28


 1533              	.LBB171:
 1534              	.LBB172:
 1535              		.loc 1 603 0
 1536 0002 3E4E     		ldr	r6, .L320
 1537 0004 356D     		ldr	r5, [r6, #80]
 1538              	.LVL182:
 1539              		.loc 1 606 0
 1540 0006 6B69     		ldr	r3, [r5, #20]
 1541 0008 AC69     		ldr	r4, [r5, #24]
 1542 000a 1C40     		ands	r4, r4, r3
 1543              	.LVL183:
 1544              		.loc 1 610 0
 1545 000c E104     		lsls	r1, r4, #19
 1546              		.loc 1 607 0
 1547 000e 6C61     		str	r4, [r5, #20]
 1548              		.loc 1 610 0
 1549 0010 2BD4     		bmi	.L310
 1550              	.L250:
 1551              		.loc 1 616 0
 1552 0012 A204     		lsls	r2, r4, #18
 1553              		.loc 1 617 0
 1554 0014 48BF     		it	mi
 1555 0016 D5F80838 		ldrmi	r3, [r5, #2056]
 1556              		.loc 1 621 0
 1557 001a 2307     		lsls	r3, r4, #28
 1558 001c 04D5     		bpl	.L253
 1559              		.loc 1 622 0
 1560 001e 7068     		ldr	r0, [r6, #4]
 1561 0020 C168     		ldr	r1, [r0, #12]
 1562 0022 09B1     		cbz	r1, .L253
 1563 0024 3548     		ldr	r0, .L320
 1564 0026 8847     		blx	r1
 1565              	.LVL184:
 1566              	.L253:
 1567              		.loc 1 626 0
 1568 0028 E006     		lsls	r0, r4, #27
 1569 002a 29D4     		bmi	.L311
 1570              	.LVL185:
 1571              	.L254:
 1572              		.loc 1 637 0
 1573 002c 6103     		lsls	r1, r4, #13
 1574              		.loc 1 636 0
 1575 002e D5F81858 		ldr	r5, [r5, #2072]
 1576              	.LVL186:
 1577              		.loc 1 637 0
 1578 0032 07D5     		bpl	.L257
 1579              		.loc 1 638 0
 1580 0034 EA07     		lsls	r2, r5, #31
 1581 0036 49D4     		bmi	.L312
 1582              		.loc 1 640 0
 1583 0038 AB07     		lsls	r3, r5, #30
 1584              	.LVL187:
 1585 003a 4DD4     		bmi	.L313
 1586              	.L259:
 1587              		.loc 1 642 0
 1588 003c 6807     		lsls	r0, r5, #29
 1589 003e 51D4     		bmi	.L314
ARM GAS  /tmp/ccx4dzgE.s 			page 29


 1590              	.L260:
 1591              		.loc 1 644 0
 1592 0040 2907     		lsls	r1, r5, #28
 1593 0042 55D4     		bmi	.L315
 1594              	.LVL188:
 1595              	.L257:
 1596              		.loc 1 653 0
 1597 0044 2203     		lsls	r2, r4, #12
 1598 0046 07D5     		bpl	.L263
 1599              		.loc 1 654 0
 1600 0048 EB03     		lsls	r3, r5, #15
 1601              	.LVL189:
 1602 004a 32D4     		bmi	.L316
 1603              		.loc 1 656 0
 1604 004c A803     		lsls	r0, r5, #14
 1605 004e 36D4     		bmi	.L317
 1606              	.L265:
 1607              		.loc 1 658 0
 1608 0050 6903     		lsls	r1, r5, #13
 1609 0052 27D4     		bmi	.L318
 1610              	.L266:
 1611              		.loc 1 660 0
 1612 0054 2A03     		lsls	r2, r5, #12
 1613 0056 03D4     		bmi	.L319
 1614              	.LVL190:
 1615              	.L263:
 1616              	.LBE172:
 1617              	.LBE171:
 1618              		.loc 1 749 0
 1619 0058 BDE87040 		pop	{r4, r5, r6, lr}
 1620              		.loc 1 748 0
 1621 005c FFF7FEBF 		b	_port_irq_epilogue
 1622              	.LVL191:
 1623              	.L319:
 1624              	.LBB180:
 1625              	.LBB179:
 1626              		.loc 1 661 0
 1627 0060 2648     		ldr	r0, .L320
 1628 0062 0321     		movs	r1, #3
 1629 0064 FFF7FEFF 		bl	otg_epout_handler
 1630              	.LVL192:
 1631 0068 F6E7     		b	.L263
 1632              	.LVL193:
 1633              	.L310:
 1634              		.loc 1 611 0
 1635 006a 3046     		mov	r0, r6
 1636 006c FFF7FEFF 		bl	_usb_reset
 1637              	.LVL194:
 1638              		.loc 1 612 0
 1639 0070 7368     		ldr	r3, [r6, #4]
 1640 0072 1B68     		ldr	r3, [r3, #0]
 1641 0074 002B     		cmp	r3, #0
 1642 0076 CCD0     		beq	.L250
 1643 0078 3046     		mov	r0, r6
 1644 007a 0021     		movs	r1, #0
 1645 007c 9847     		blx	r3
 1646              	.LVL195:
ARM GAS  /tmp/ccx4dzgE.s 			page 30


 1647 007e C8E7     		b	.L250
 1648              	.L311:
 1649              	.LBB173:
 1650              		.loc 1 629 0
 1651 0080 2023     		movs	r3, #32
 1652              	.LVL196:
 1653              	@ 629 "../../os/hal/platforms/STM32/OTGv1/usb_lld.c" 1
 1654 0082 83F31188 		msr     BASEPRI, r3
 1655              	@ 0 "" 2
 1656              	.LVL197:
 1657              		.thumb
 1658              	.LBE173:
 1659              		.loc 1 630 0
 1660 0086 AA69     		ldr	r2, [r5, #24]
 1661              	.LBB174:
 1662              	.LBB175:
 1663              		.loc 1 122 0
 1664 0088 706E     		ldr	r0, [r6, #100]
 1665              	.LBE175:
 1666              	.LBE174:
 1667              		.loc 1 630 0
 1668 008a 22F01003 		bic	r3, r2, #16
 1669              	.LVL198:
 1670 008e AB61     		str	r3, [r5, #24]
 1671              	.LVL199:
 1672              	.LBB177:
 1673              	.LBB176:
 1674              		.loc 1 122 0
 1675 0090 20B1     		cbz	r0, .L255
 1676              		.loc 1 123 0
 1677 0092 FFF7FEFF 		bl	chSchReadyI
 1678              	.LVL200:
 1679              		.loc 1 124 0
 1680 0096 1949     		ldr	r1, .L320
 1681 0098 0020     		movs	r0, #0
 1682 009a 4866     		str	r0, [r1, #100]
 1683              	.L255:
 1684              	.LBE176:
 1685              	.LBE177:
 1686              	.LBB178:
 1687              		.loc 1 632 0
 1688 009c 0023     		movs	r3, #0
 1689              	@ 632 "../../os/hal/platforms/STM32/OTGv1/usb_lld.c" 1
 1690 009e 83F31188 		msr     BASEPRI, r3
 1691              	@ 0 "" 2
 1692              	.LVL201:
 1693              		.thumb
 1694 00a2 C3E7     		b	.L254
 1695              	.LVL202:
 1696              	.L318:
 1697              	.LBE178:
 1698              		.loc 1 659 0
 1699 00a4 0221     		movs	r1, #2
 1700 00a6 1548     		ldr	r0, .L320
 1701 00a8 FFF7FEFF 		bl	otg_epout_handler
 1702              	.LVL203:
 1703              		.loc 1 660 0
ARM GAS  /tmp/ccx4dzgE.s 			page 31


 1704 00ac 2A03     		lsls	r2, r5, #12
 1705 00ae D3D5     		bpl	.L263
 1706 00b0 D6E7     		b	.L319
 1707              	.L316:
 1708              		.loc 1 655 0
 1709 00b2 1248     		ldr	r0, .L320
 1710 00b4 0021     		movs	r1, #0
 1711 00b6 FFF7FEFF 		bl	otg_epout_handler
 1712              	.LVL204:
 1713              		.loc 1 656 0
 1714 00ba A803     		lsls	r0, r5, #14
 1715 00bc C8D5     		bpl	.L265
 1716              	.L317:
 1717              		.loc 1 657 0
 1718 00be 0121     		movs	r1, #1
 1719 00c0 0E48     		ldr	r0, .L320
 1720 00c2 FFF7FEFF 		bl	otg_epout_handler
 1721              	.LVL205:
 1722              		.loc 1 658 0
 1723 00c6 6903     		lsls	r1, r5, #13
 1724 00c8 C4D5     		bpl	.L266
 1725 00ca EBE7     		b	.L318
 1726              	.LVL206:
 1727              	.L312:
 1728              		.loc 1 639 0
 1729 00cc 0021     		movs	r1, #0
 1730 00ce 0B48     		ldr	r0, .L320
 1731 00d0 FFF7FEFF 		bl	otg_epin_handler
 1732              	.LVL207:
 1733              		.loc 1 640 0
 1734 00d4 AB07     		lsls	r3, r5, #30
 1735 00d6 B1D5     		bpl	.L259
 1736              	.L313:
 1737              		.loc 1 641 0
 1738 00d8 0848     		ldr	r0, .L320
 1739 00da 0121     		movs	r1, #1
 1740 00dc FFF7FEFF 		bl	otg_epin_handler
 1741              	.LVL208:
 1742              		.loc 1 642 0
 1743 00e0 6807     		lsls	r0, r5, #29
 1744 00e2 ADD5     		bpl	.L260
 1745              	.L314:
 1746              		.loc 1 643 0
 1747 00e4 0221     		movs	r1, #2
 1748 00e6 0548     		ldr	r0, .L320
 1749 00e8 FFF7FEFF 		bl	otg_epin_handler
 1750              	.LVL209:
 1751              		.loc 1 644 0
 1752 00ec 2907     		lsls	r1, r5, #28
 1753 00ee A9D5     		bpl	.L257
 1754              	.L315:
 1755              		.loc 1 645 0
 1756 00f0 0248     		ldr	r0, .L320
 1757 00f2 0321     		movs	r1, #3
 1758 00f4 FFF7FEFF 		bl	otg_epin_handler
 1759              	.LVL210:
 1760 00f8 A4E7     		b	.L257
ARM GAS  /tmp/ccx4dzgE.s 			page 32


 1761              	.L321:
 1762 00fa 00BF     		.align	2
 1763              	.L320:
 1764 00fc 00000000 		.word	.LANCHOR0
 1765              	.LBE179:
 1766              	.LBE180:
 1767              		.cfi_endproc
 1768              	.LFE137:
 1769              		.size	Vector14C, .-Vector14C
 1770              		.section	.text.usb_lld_init,"ax",%progbits
 1771              		.align	2
 1772              		.p2align 4,,15
 1773              		.global	usb_lld_init
 1774              		.thumb
 1775              		.thumb_func
 1776              		.type	usb_lld_init, %function
 1777              	usb_lld_init:
 1778              	.LFB138:
 1779              		.loc 1 780 0
 1780              		.cfi_startproc
 1781              		@ args = 0, pretend = 0, frame = 0
 1782              		@ frame_needed = 0, uses_anonymous_args = 0
 1783 0000 10B5     		push	{r4, lr}
 1784              	.LCFI6:
 1785              		.cfi_def_cfa_offset 8
 1786              		.cfi_offset 4, -8
 1787              		.cfi_offset 14, -4
 1788              		.loc 1 784 0
 1789 0002 40F20004 		movw	r4, #:lower16:.LANCHOR0
 1790 0006 C0F20004 		movt	r4, #:upper16:.LANCHOR0
 1791 000a 2046     		mov	r0, r4
 1792 000c FFF7FEFF 		bl	usbObjectInit
 1793              	.LVL211:
 1794              		.loc 1 788 0
 1795 0010 40F20001 		movw	r1, #:lower16:.LANCHOR1
 1796              		.loc 1 785 0
 1797 0014 0023     		movs	r3, #0
 1798              		.loc 1 787 0
 1799 0016 4FF0A040 		mov	r0, #1342177280
 1800              		.loc 1 788 0
 1801 001a C0F20001 		movt	r1, #:upper16:.LANCHOR1
 1802              		.loc 1 785 0
 1803 001e 2366     		str	r3, [r4, #96]
 1804              		.loc 1 786 0
 1805 0020 6366     		str	r3, [r4, #100]
 1806              		.loc 1 787 0
 1807 0022 2065     		str	r0, [r4, #80]
 1808              		.loc 1 788 0
 1809 0024 6165     		str	r1, [r4, #84]
 1810 0026 10BD     		pop	{r4, pc}
 1811              		.cfi_endproc
 1812              	.LFE138:
 1813              		.size	usb_lld_init, .-usb_lld_init
 1814              		.section	.text.usb_lld_start,"ax",%progbits
 1815              		.align	2
 1816              		.p2align 4,,15
 1817              		.global	usb_lld_start
ARM GAS  /tmp/ccx4dzgE.s 			page 33


 1818              		.thumb
 1819              		.thumb_func
 1820              		.type	usb_lld_start, %function
 1821              	usb_lld_start:
 1822              	.LFB139:
 1823              		.loc 1 838 0
 1824              		.cfi_startproc
 1825              		@ args = 0, pretend = 0, frame = 0
 1826              		@ frame_needed = 0, uses_anonymous_args = 0
 1827              	.LVL212:
 1828 0000 70B5     		push	{r4, r5, r6, lr}
 1829              	.LCFI7:
 1830              		.cfi_def_cfa_offset 16
 1831              		.cfi_offset 4, -16
 1832              		.cfi_offset 5, -12
 1833              		.cfi_offset 6, -8
 1834              		.cfi_offset 14, -4
 1835              		.loc 1 841 0
 1836 0002 0378     		ldrb	r3, [r0, #0]	@ zero_extendqisi2
 1837              		.loc 1 839 0
 1838 0004 056D     		ldr	r5, [r0, #80]
 1839              	.LVL213:
 1840              		.loc 1 841 0
 1841 0006 012B     		cmp	r3, #1
 1842              		.loc 1 838 0
 1843 0008 82B0     		sub	sp, sp, #8
 1844              	.LCFI8:
 1845              		.cfi_def_cfa_offset 24
 1846              		.loc 1 838 0
 1847 000a 0646     		mov	r6, r0
 1848              		.loc 1 841 0
 1849 000c 01D0     		beq	.L333
 1850              	.LVL214:
 1851              	.L323:
 1852              		.loc 1 915 0
 1853 000e 02B0     		add	sp, sp, #8
 1854 0010 70BD     		pop	{r4, r5, r6, pc}
 1855              	.LVL215:
 1856              	.L333:
 1857              		.loc 1 844 0
 1858 0012 3048     		ldr	r0, .L337
 1859              	.LVL216:
 1860 0014 8642     		cmp	r6, r0
 1861 0016 49D0     		beq	.L334
 1862              	.L325:
 1863              		.loc 1 869 0
 1864 0018 316E     		ldr	r1, [r6, #96]
 1865              		.loc 1 868 0
 1866 001a 0024     		movs	r4, #0
 1867 001c F465     		str	r4, [r6, #92]
 1868              		.loc 1 869 0
 1869 001e 0029     		cmp	r1, #0
 1870 0020 38D0     		beq	.L335
 1871              	.L326:
 1872              		.loc 1 879 0
 1873 0022 4FF4A250 		mov	r0, #5184
 1874              	.LBB183:
ARM GAS  /tmp/ccx4dzgE.s 			page 34


 1875              	.LBB184:
 1876              		.loc 1 129 0
 1877 0026 346D     		ldr	r4, [r6, #80]
 1878              	.LBE184:
 1879              	.LBE183:
 1880              		.loc 1 879 0
 1881 0028 C4F20000 		movt	r0, 16384
 1882              		.loc 1 882 0
 1883 002c 0323     		movs	r3, #3
 1884              		.loc 1 879 0
 1885 002e E860     		str	r0, [r5, #12]
 1886              		.loc 1 882 0
 1887 0030 C0F22023 		movt	r3, 544
 1888              		.loc 1 885 0
 1889 0034 0022     		movs	r2, #0
 1890              		.loc 1 888 0
 1891 0036 4FF45021 		mov	r1, #851968
 1892              	.LBB187:
 1893              	.LBB185:
 1894              		.loc 1 132 0
 1895 003a 0120     		movs	r0, #1
 1896              	.LBE185:
 1897              	.LBE187:
 1898              		.loc 1 882 0
 1899 003c C5F80038 		str	r3, [r5, #2048]
 1900              		.loc 1 885 0
 1901 0040 C5F8002E 		str	r2, [r5, #3584]
 1902              		.loc 1 888 0
 1903 0044 A963     		str	r1, [r5, #56]
 1904              	.LVL217:
 1905              	.LBB188:
 1906              	.LBB186:
 1907              		.loc 1 132 0
 1908 0046 2061     		str	r0, [r4, #16]
 1909              	.L327:
 1910              		.loc 1 133 0
 1911 0048 2369     		ldr	r3, [r4, #16]
 1912 004a D807     		lsls	r0, r3, #31
 1913 004c FCD4     		bmi	.L327
 1914              		.loc 1 135 0
 1915 004e 0C20     		movs	r0, #12
 1916 0050 FFF7FEFF 		bl	halPolledDelay
 1917              	.LVL218:
 1918              	.L328:
 1919              		.loc 1 137 0
 1920 0054 2269     		ldr	r2, [r4, #16]
 1921 0056 002A     		cmp	r2, #0
 1922 0058 FCDA     		bge	.L328
 1923              	.LBE186:
 1924              	.LBE188:
 1925              		.loc 1 894 0
 1926 005a 0024     		movs	r4, #0
 1927              	.LVL219:
 1928              		.loc 1 897 0
 1929 005c 3046     		mov	r0, r6
 1930              		.loc 1 894 0
 1931 005e AC60     		str	r4, [r5, #8]
ARM GAS  /tmp/ccx4dzgE.s 			page 35


 1932              		.loc 1 897 0
 1933 0060 FFF7FEFF 		bl	otg_disable_ep
 1934              	.LVL220:
 1935              		.loc 1 904 0
 1936 0064 7168     		ldr	r1, [r6, #4]
 1937              		.loc 1 901 0
 1938 0066 C5F81048 		str	r4, [r5, #2064]
 1939              		.loc 1 904 0
 1940 006a C868     		ldr	r0, [r1, #12]
 1941              		.loc 1 902 0
 1942 006c C5F81448 		str	r4, [r5, #2068]
 1943              		.loc 1 903 0
 1944 0070 C5F81C48 		str	r4, [r5, #2076]
 1945              		.loc 1 904 0
 1946 0074 50B1     		cbz	r0, .L336
 1947              		.loc 1 908 0
 1948 0076 43F20803 		movw	r3, #12296
 1949 007a AB61     		str	r3, [r5, #24]
 1950              	.L330:
 1951              		.loc 1 910 0
 1952 007c 4FF0FF31 		mov	r1, #-1
 1953 0080 6961     		str	r1, [r5, #20]
 1954              		.loc 1 913 0
 1955 0082 A868     		ldr	r0, [r5, #8]
 1956 0084 40F00103 		orr	r3, r0, #1
 1957 0088 AB60     		str	r3, [r5, #8]
 1958 008a C0E7     		b	.L323
 1959              	.L336:
 1960              		.loc 1 905 0
 1961 008c 4FF44052 		mov	r2, #12288
 1962 0090 AA61     		str	r2, [r5, #24]
 1963 0092 F3E7     		b	.L330
 1964              	.LVL221:
 1965              	.L335:
 1966              		.loc 1 870 0
 1967 0094 0096     		str	r6, [sp, #0]
 1968 0096 06F16800 		add	r0, r6, #104
 1969 009a 4FF49871 		mov	r1, #304
 1970 009e 0222     		movs	r2, #2
 1971 00a0 0D4B     		ldr	r3, .L337+4
 1972 00a2 FFF7FEFF 		bl	chThdCreateI
 1973              	.LVL222:
 1974 00a6 7066     		str	r0, [r6, #100]
 1975 00a8 3066     		str	r0, [r6, #96]
 1976 00aa BAE7     		b	.L326
 1977              	.L334:
 1978              		.loc 1 846 0
 1979 00ac 4FF46051 		mov	r1, #14336
 1980 00b0 C4F20201 		movt	r1, 16386
 1981 00b4 4A6B     		ldr	r2, [r1, #52]
 1982 00b6 42F08004 		orr	r4, r2, #128
 1983 00ba 4C63     		str	r4, [r1, #52]
 1984              		.loc 1 847 0
 1985 00bc 4B69     		ldr	r3, [r1, #20]
 1986 00be 0022     		movs	r2, #0
 1987 00c0 43F08000 		orr	r0, r3, #128
 1988 00c4 4861     		str	r0, [r1, #20]
ARM GAS  /tmp/ccx4dzgE.s 			page 36


 1989 00c6 4A61     		str	r2, [r1, #20]
 1990              		.loc 1 850 0
 1991 00c8 4320     		movs	r0, #67
 1992 00ca E021     		movs	r1, #224
 1993 00cc FFF7FEFF 		bl	nvicEnableVector
 1994              	.LVL223:
 1995 00d0 A2E7     		b	.L325
 1996              	.L338:
 1997 00d2 00BF     		.align	2
 1998              	.L337:
 1999 00d4 00000000 		.word	.LANCHOR0
 2000 00d8 00000000 		.word	usb_lld_pump
 2001              		.cfi_endproc
 2002              	.LFE139:
 2003              		.size	usb_lld_start, .-usb_lld_start
 2004 00dc AFF30080 		.section	.text.usb_lld_stop,"ax",%progbits
 2005              		.align	2
 2006              		.p2align 4,,15
 2007              		.global	usb_lld_stop
 2008              		.thumb
 2009              		.thumb_func
 2010              		.type	usb_lld_stop, %function
 2011              	usb_lld_stop:
 2012              	.LFB140:
 2013              		.loc 1 924 0
 2014              		.cfi_startproc
 2015              		@ args = 0, pretend = 0, frame = 0
 2016              		@ frame_needed = 0, uses_anonymous_args = 0
 2017              	.LVL224:
 2018 0000 38B5     		push	{r3, r4, r5, lr}
 2019              	.LCFI9:
 2020              		.cfi_def_cfa_offset 16
 2021              		.cfi_offset 3, -16
 2022              		.cfi_offset 4, -12
 2023              		.cfi_offset 5, -8
 2024              		.cfi_offset 14, -4
 2025              		.loc 1 928 0
 2026 0002 0378     		ldrb	r3, [r0, #0]	@ zero_extendqisi2
 2027              		.loc 1 925 0
 2028 0004 056D     		ldr	r5, [r0, #80]
 2029              	.LVL225:
 2030              		.loc 1 928 0
 2031 0006 012B     		cmp	r3, #1
 2032              		.loc 1 924 0
 2033 0008 0446     		mov	r4, r0
 2034              		.loc 1 928 0
 2035 000a 07D0     		beq	.L339
 2036              		.loc 1 932 0
 2037 000c FFF7FEFF 		bl	otg_disable_ep
 2038              	.LVL226:
 2039              		.loc 1 934 0
 2040 0010 0020     		movs	r0, #0
 2041 0012 E065     		str	r0, [r4, #92]
 2042              		.loc 1 936 0
 2043 0014 C5F81C08 		str	r0, [r5, #2076]
 2044              		.loc 1 937 0
 2045 0018 A860     		str	r0, [r5, #8]
ARM GAS  /tmp/ccx4dzgE.s 			page 37


 2046              		.loc 1 938 0
 2047 001a A863     		str	r0, [r5, #56]
 2048              	.L339:
 2049 001c 38BD     		pop	{r3, r4, r5, pc}
 2050              		.cfi_endproc
 2051              	.LFE140:
 2052              		.size	usb_lld_stop, .-usb_lld_stop
 2053 001e 00BF     		.section	.text.usb_lld_reset,"ax",%progbits
 2054              		.align	2
 2055              		.p2align 4,,15
 2056              		.global	usb_lld_reset
 2057              		.thumb
 2058              		.thumb_func
 2059              		.type	usb_lld_reset, %function
 2060              	usb_lld_reset:
 2061              	.LFB141:
 2062              		.loc 1 963 0
 2063              		.cfi_startproc
 2064              		@ args = 0, pretend = 0, frame = 0
 2065              		@ frame_needed = 0, uses_anonymous_args = 0
 2066              	.LVL227:
 2067 0000 2DE9F84F 		push	{r3, r4, r5, r6, r7, r8, r9, sl, fp, lr}
 2068              	.LCFI10:
 2069              		.cfi_def_cfa_offset 40
 2070              		.cfi_offset 3, -40
 2071              		.cfi_offset 4, -36
 2072              		.cfi_offset 5, -32
 2073              		.cfi_offset 6, -28
 2074              		.cfi_offset 7, -24
 2075              		.cfi_offset 8, -20
 2076              		.cfi_offset 9, -16
 2077              		.cfi_offset 10, -12
 2078              		.cfi_offset 11, -8
 2079              		.cfi_offset 14, -4
 2080              		.loc 1 963 0
 2081 0004 8046     		mov	r8, r0
 2082              		.loc 1 968 0
 2083 0006 0021     		movs	r1, #0
 2084              		.loc 1 965 0
 2085 0008 046D     		ldr	r4, [r0, #80]
 2086              	.LVL228:
 2087              		.loc 1 968 0
 2088 000a FFF7FEFF 		bl	otg_txfifo_flush
 2089              	.LVL229:
 2090 000e D8F854B0 		ldr	fp, [r8, #84]
 2091 0012 DBF808A0 		ldr	sl, [fp, #8]
 2092              		.loc 1 972 0
 2093 0016 4FF00061 		mov	r1, #134217728
 2094              		.loc 1 974 0
 2095 001a FF22     		movs	r2, #255
 2096              		.loc 1 972 0
 2097 001c C4F80019 		str	r1, [r4, #2304]
 2098 0020 0AF00106 		and	r6, sl, #1
 2099              		.loc 1 973 0
 2100 0024 C4F8001B 		str	r1, [r4, #2816]
 2101              		.loc 1 971 0
 2102 0028 0123     		movs	r3, #1
ARM GAS  /tmp/ccx4dzgE.s 			page 38


 2103              		.loc 1 974 0
 2104 002a C4F80829 		str	r2, [r4, #2312]
 2105              		.loc 1 975 0
 2106 002e C4F8082B 		str	r2, [r4, #2824]
 2107              		.loc 1 971 0
 2108 0032 BAF1000F 		cmp	sl, #0
 2109 0036 33D0     		beq	.L355
 2110 0038 66B1     		cbz	r6, .L345
 2111 003a 0223     		movs	r3, #2
 2112 003c 5345     		cmp	r3, sl
 2113              		.loc 1 972 0
 2114 003e C4F82019 		str	r1, [r4, #2336]
 2115 0042 04F51267 		add	r7, r4, #2336
 2116              		.loc 1 973 0
 2117 0046 C4F8201B 		str	r1, [r4, #2848]
 2118              		.loc 1 974 0
 2119 004a C4F82829 		str	r2, [r4, #2344]
 2120              		.loc 1 975 0
 2121 004e C4F8282B 		str	r2, [r4, #2856]
 2122              		.loc 1 971 0
 2123 0052 25D8     		bhi	.L355
 2124              	.L345:
 2125              		.loc 1 971 0 is_stmt 0 discriminator 2
 2126 0054 5F1C     		adds	r7, r3, #1
 2127              		.loc 1 972 0 is_stmt 1 discriminator 2
 2128 0056 03F14809 		add	r9, r3, #72
 2129              		.loc 1 973 0 discriminator 2
 2130 005a 03F15800 		add	r0, r3, #88
 2131              		.loc 1 972 0 discriminator 2
 2132 005e 03F1490C 		add	ip, r3, #73
 2133              		.loc 1 973 0 discriminator 2
 2134 0062 03F1590E 		add	lr, r3, #89
 2135              		.loc 1 974 0 discriminator 2
 2136 0066 04EB4316 		add	r6, r4, r3, lsl #5
 2137 006a 04EB4715 		add	r5, r4, r7, lsl #5
 2138              		.loc 1 973 0 discriminator 2
 2139 006e 4001     		lsls	r0, r0, #5
 2140              		.loc 1 972 0 discriminator 2
 2141 0070 4FEA4919 		lsl	r9, r9, #5
 2142 0074 4FEA4C1C 		lsl	ip, ip, #5
 2143              		.loc 1 973 0 discriminator 2
 2144 0078 4FEA4E1E 		lsl	lr, lr, #5
 2145              		.loc 1 971 0 discriminator 2
 2146 007c 0233     		adds	r3, r3, #2
 2147 007e 5345     		cmp	r3, sl
 2148              		.loc 1 972 0 discriminator 2
 2149 0080 44F80910 		str	r1, [r4, r9]
 2150              		.loc 1 973 0 discriminator 2
 2151 0084 2150     		str	r1, [r4, r0]
 2152              		.loc 1 974 0 discriminator 2
 2153 0086 C6F80829 		str	r2, [r6, #2312]
 2154              		.loc 1 975 0 discriminator 2
 2155 008a C6F8082B 		str	r2, [r6, #2824]
 2156              		.loc 1 972 0 discriminator 2
 2157 008e 44F80C10 		str	r1, [r4, ip]
 2158              		.loc 1 973 0 discriminator 2
 2159 0092 44F80E10 		str	r1, [r4, lr]
ARM GAS  /tmp/ccx4dzgE.s 			page 39


 2160              		.loc 1 974 0 discriminator 2
 2161 0096 C5F80829 		str	r2, [r5, #2312]
 2162              		.loc 1 975 0 discriminator 2
 2163 009a C5F8082B 		str	r2, [r5, #2824]
 2164              		.loc 1 971 0 discriminator 2
 2165 009e D9D9     		bls	.L345
 2166              	.L355:
 2167              	.LBB195:
 2168              	.LBB196:
 2169              		.loc 1 207 0
 2170 00a0 DBF80030 		ldr	r3, [fp, #0]
 2171              	.LBE196:
 2172              	.LBE195:
 2173              	.LBB198:
 2174              	.LBB199:
 2175              		.loc 1 179 0
 2176 00a4 D8F85020 		ldr	r2, [r8, #80]
 2177              	.LBE199:
 2178              	.LBE198:
 2179              		.loc 1 979 0
 2180 00a8 4FF0FF31 		mov	r1, #-1
 2181              		.loc 1 980 0
 2182 00ac 4FF00116 		mov	r6, #65537
 2183              	.LBB202:
 2184              	.LBB200:
 2185              		.loc 1 181 0
 2186 00b0 1025     		movs	r5, #16
 2187              	.LBE200:
 2188              	.LBE202:
 2189              		.loc 1 979 0
 2190 00b2 C4F81818 		str	r1, [r4, #2072]
 2191              		.loc 1 980 0
 2192 00b6 C4F81C68 		str	r6, [r4, #2076]
 2193              	.LVL230:
 2194              	.LBB203:
 2195              	.LBB197:
 2196              		.loc 1 207 0
 2197 00ba C8F85830 		str	r3, [r8, #88]
 2198              	.LBE197:
 2199              	.LBE203:
 2200              		.loc 1 986 0
 2201 00be 6362     		str	r3, [r4, #36]
 2202              	.LVL231:
 2203              	.LBB204:
 2204              	.LBB201:
 2205              		.loc 1 181 0
 2206 00c0 1561     		str	r5, [r2, #16]
 2207              	.L346:
 2208              		.loc 1 182 0
 2209 00c2 1069     		ldr	r0, [r2, #16]
 2210 00c4 10F01005 		ands	r5, r0, #16
 2211 00c8 FBD1     		bne	.L346
 2212              		.loc 1 185 0
 2213 00ca 0C20     		movs	r0, #12
 2214 00cc FFF7FEFF 		bl	halPolledDelay
 2215              	.LVL232:
 2216              	.LBE201:
ARM GAS  /tmp/ccx4dzgE.s 			page 40


 2217              	.LBE204:
 2218              		.loc 1 990 0
 2219 00d0 D4F80038 		ldr	r3, [r4, #2048]
 2220              	.LBB205:
 2221              	.LBB206:
 2222              		.loc 1 221 0
 2223 00d4 D8F85810 		ldr	r1, [r8, #88]
 2224              	.LBE206:
 2225              	.LBE205:
 2226              		.loc 1 990 0
 2227 00d8 23F4FE62 		bic	r2, r3, #2032
 2228 00dc C4F80028 		str	r2, [r4, #2048]
 2229              		.loc 1 993 0
 2230 00e0 A669     		ldr	r6, [r4, #24]
 2231 00e2 46F44020 		orr	r0, r6, #786432
 2232              		.loc 1 994 0
 2233 00e6 0922     		movs	r2, #9
 2234              		.loc 1 993 0
 2235 00e8 40F01006 		orr	r6, r0, #16
 2236 00ec A661     		str	r6, [r4, #24]
 2237              		.loc 1 1000 0
 2238 00ee 48F24003 		movw	r3, #32832
 2239              		.loc 1 994 0
 2240 00f2 C4F81028 		str	r2, [r4, #2064]
 2241              		.loc 1 995 0
 2242 00f6 C4F81428 		str	r2, [r4, #2068]
 2243              		.loc 1 998 0
 2244 00fa 0B4A     		ldr	r2, .L356
 2245              		.loc 1 1000 0
 2246 00fc C1F20003 		movt	r3, 4096
 2247              	.LBB209:
 2248              	.LBB207:
 2249              		.loc 1 222 0
 2250 0100 01F11000 		add	r0, r1, #16
 2251              	.LBE207:
 2252              	.LBE209:
 2253              		.loc 1 1005 0
 2254 0104 41F48011 		orr	r1, r1, #1048576
 2255              		.loc 1 998 0
 2256 0108 C8F80C20 		str	r2, [r8, #12]
 2257              		.loc 1 999 0
 2258 010c C4F8105B 		str	r5, [r4, #2832]
 2259              		.loc 1 1000 0
 2260 0110 C4F8003B 		str	r3, [r4, #2816]
 2261              		.loc 1 1002 0
 2262 0114 C4F81059 		str	r5, [r4, #2320]
 2263              		.loc 1 1003 0
 2264 0118 C4F80039 		str	r3, [r4, #2304]
 2265              	.LVL233:
 2266              	.LBB210:
 2267              	.LBB208:
 2268              		.loc 1 222 0
 2269 011c C8F85800 		str	r0, [r8, #88]
 2270              	.LBE208:
 2271              	.LBE210:
 2272              		.loc 1 1005 0
 2273 0120 A162     		str	r1, [r4, #40]
ARM GAS  /tmp/ccx4dzgE.s 			page 41


 2274 0122 BDE8F88F 		pop	{r3, r4, r5, r6, r7, r8, r9, sl, fp, pc}
 2275              	.L357:
 2276 0126 00BF     		.align	2
 2277              	.L356:
 2278 0128 00000000 		.word	.LANCHOR2
 2279              		.cfi_endproc
 2280              	.LFE141:
 2281              		.size	usb_lld_reset, .-usb_lld_reset
 2282 012c AFF30080 		.section	.text.usb_lld_set_address,"ax",%progbits
 2283              		.align	2
 2284              		.p2align 4,,15
 2285              		.global	usb_lld_set_address
 2286              		.thumb
 2287              		.thumb_func
 2288              		.type	usb_lld_set_address, %function
 2289              	usb_lld_set_address:
 2290              	.LFB142:
 2291              		.loc 1 1017 0
 2292              		.cfi_startproc
 2293              		@ args = 0, pretend = 0, frame = 0
 2294              		@ frame_needed = 0, uses_anonymous_args = 0
 2295              		@ link register save eliminated.
 2296              	.LVL234:
 2297              		.loc 1 1018 0
 2298 0000 036D     		ldr	r3, [r0, #80]
 2299              	.LVL235:
 2300              		.loc 1 1020 0
 2301 0002 90F84E10 		ldrb	r1, [r0, #78]	@ zero_extendqisi2
 2302 0006 D3F80028 		ldr	r2, [r3, #2048]
 2303 000a 22F4FE60 		bic	r0, r2, #2032
 2304              	.LVL236:
 2305 000e 40EA0111 		orr	r1, r0, r1, lsl #4
 2306 0012 C3F80018 		str	r1, [r3, #2048]
 2307 0016 7047     		bx	lr
 2308              		.cfi_endproc
 2309              	.LFE142:
 2310              		.size	usb_lld_set_address, .-usb_lld_set_address
 2311 0018 AFF30080 		.section	.text.usb_lld_init_endpoint,"ax",%progbits
 2311      AFF30080 
 2312              		.align	2
 2313              		.p2align 4,,15
 2314              		.global	usb_lld_init_endpoint
 2315              		.thumb
 2316              		.thumb_func
 2317              		.type	usb_lld_init_endpoint, %function
 2318              	usb_lld_init_endpoint:
 2319              	.LFB143:
 2320              		.loc 1 1031 0
 2321              		.cfi_startproc
 2322              		@ args = 0, pretend = 0, frame = 0
 2323              		@ frame_needed = 0, uses_anonymous_args = 0
 2324              	.LVL237:
 2325 0000 2DE9F041 		push	{r4, r5, r6, r7, r8, lr}
 2326              	.LCFI11:
 2327              		.cfi_def_cfa_offset 24
 2328              		.cfi_offset 4, -24
 2329              		.cfi_offset 5, -20
ARM GAS  /tmp/ccx4dzgE.s 			page 42


 2330              		.cfi_offset 6, -16
 2331              		.cfi_offset 7, -12
 2332              		.cfi_offset 8, -8
 2333              		.cfi_offset 14, -4
 2334              		.loc 1 1036 0
 2335 0004 8F1C     		adds	r7, r1, #2
 2336 0006 00EB8703 		add	r3, r0, r7, lsl #2
 2337              		.loc 1 1031 0
 2338 000a 0646     		mov	r6, r0
 2339              		.loc 1 1036 0
 2340 000c 5B68     		ldr	r3, [r3, #4]
 2341              		.loc 1 1033 0
 2342 000e 046D     		ldr	r4, [r0, #80]
 2343              	.LVL238:
 2344              		.loc 1 1036 0
 2345 0010 1A68     		ldr	r2, [r3, #0]
 2346 0012 02F00300 		and	r0, r2, #3
 2347              	.LVL239:
 2348 0016 0228     		cmp	r0, #2
 2349              		.loc 1 1031 0
 2350 0018 0D46     		mov	r5, r1
 2351              		.loc 1 1044 0
 2352 001a 4FF40048 		mov	r8, #32768
 2353              		.loc 1 1036 0
 2354 001e 54D0     		beq	.L362
 2355 0020 0328     		cmp	r0, #3
 2356 0022 55D0     		beq	.L363
 2357              		.loc 1 1038 0
 2358 0024 4146     		mov	r1, r8
 2359              	.LVL240:
 2360 0026 C1F20001 		movt	r1, 4096
 2361 002a C1F20408 		movt	r8, 4100
 2362 002e 0128     		cmp	r0, #1
 2363 0030 18BF     		it	ne
 2364 0032 8846     		movne	r8, r1
 2365              	.L361:
 2366              	.LVL241:
 2367              		.loc 1 1054 0
 2368 0034 6A01     		lsls	r2, r5, #5
 2369 0036 A018     		adds	r0, r4, r2
 2370 0038 0021     		movs	r1, #0
 2371 003a C0F8101B 		str	r1, [r0, #2832]
 2372              		.loc 1 1055 0
 2373 003e D868     		ldr	r0, [r3, #12]
 2374 0040 0028     		cmp	r0, #0
 2375 0042 48D0     		beq	.L364
 2376              		.loc 1 1056 0
 2377 0044 588A     		ldrh	r0, [r3, #18]
 2378 0046 05F15801 		add	r1, r5, #88
 2379 004a 4901     		lsls	r1, r1, #5
 2380 004c 48EA0000 		orr	r0, r8, r0
 2381 0050 6050     		str	r0, [r4, r1]
 2382              		.loc 1 1057 0
 2383 0052 4FF0010C 		mov	ip, #1
 2384 0056 D4F81C08 		ldr	r0, [r4, #2076]
 2385 005a 05F11001 		add	r1, r5, #16
 2386 005e 0CFA01F1 		lsl	r1, ip, r1
ARM GAS  /tmp/ccx4dzgE.s 			page 43


 2387 0062 0143     		orrs	r1, r1, r0
 2388 0064 C4F81C18 		str	r1, [r4, #2076]
 2389              	.L365:
 2390              		.loc 1 1065 0
 2391 0068 A218     		adds	r2, r4, r2
 2392              		.loc 1 1066 0
 2393 006a 9968     		ldr	r1, [r3, #8]
 2394              		.loc 1 1065 0
 2395 006c 0020     		movs	r0, #0
 2396 006e C2F81009 		str	r0, [r2, #2320]
 2397              		.loc 1 1066 0
 2398 0072 0029     		cmp	r1, #0
 2399 0074 42D0     		beq	.L366
 2400              		.loc 1 1069 0
 2401 0076 9A8B     		ldrh	r2, [r3, #28]
 2402              		.loc 1 1068 0
 2403 0078 198A     		ldrh	r1, [r3, #16]
 2404 007a 8B08     		lsrs	r3, r1, #2
 2405              	.LVL242:
 2406              		.loc 1 1069 0
 2407 007c 012A     		cmp	r2, #1
 2408              		.loc 1 1070 0
 2409 007e 88BF     		it	hi
 2410 0080 5343     		mulhi	r3, r2, r3
 2411              	.LVL243:
 2412              	.LBB211:
 2413              	.LBB212:
 2414              		.loc 1 221 0
 2415 0082 B26D     		ldr	r2, [r6, #88]
 2416              	.LVL244:
 2417              	.LBE212:
 2418              	.LBE211:
 2419              		.loc 1 1071 0
 2420 0084 05F13F00 		add	r0, r5, #63
 2421 0088 04EB8001 		add	r1, r4, r0, lsl #2
 2422              	.LBB214:
 2423              	.LBB213:
 2424              		.loc 1 222 0
 2425 008c 9818     		adds	r0, r3, r2
 2426 008e B065     		str	r0, [r6, #88]
 2427              	.LBE213:
 2428              	.LBE214:
 2429              		.loc 1 1071 0
 2430 0090 42EA0343 		orr	r3, r2, r3, lsl #16
 2431              	.LVL245:
 2432              		.loc 1 1073 0
 2433 0094 3046     		mov	r0, r6
 2434              		.loc 1 1077 0
 2435 0096 06EB8706 		add	r6, r6, r7, lsl #2
 2436              	.LVL246:
 2437              		.loc 1 1071 0
 2438 009a 4B60     		str	r3, [r1, #4]
 2439              		.loc 1 1073 0
 2440 009c 2946     		mov	r1, r5
 2441 009e FFF7FEFF 		bl	otg_txfifo_flush
 2442              	.LVL247:
 2443              		.loc 1 1077 0
ARM GAS  /tmp/ccx4dzgE.s 			page 44


 2444 00a2 7268     		ldr	r2, [r6, #4]
 2445              		.loc 1 1076 0
 2446 00a4 108A     		ldrh	r0, [r2, #16]
 2447              		.loc 1 1075 0
 2448 00a6 05F14801 		add	r1, r5, #72
 2449 00aa 4B01     		lsls	r3, r1, #5
 2450 00ac 40EA8551 		orr	r1, r0, r5, lsl #22
 2451              		.loc 1 1076 0
 2452 00b0 41EA0802 		orr	r2, r1, r8
 2453              		.loc 1 1075 0
 2454 00b4 E250     		str	r2, [r4, r3]
 2455              		.loc 1 1078 0
 2456 00b6 0123     		movs	r3, #1
 2457 00b8 D4F81C08 		ldr	r0, [r4, #2076]
 2458 00bc 03FA05F5 		lsl	r5, r3, r5
 2459 00c0 0543     		orrs	r5, r5, r0
 2460 00c2 C4F81C58 		str	r5, [r4, #2076]
 2461 00c6 BDE8F081 		pop	{r4, r5, r6, r7, r8, pc}
 2462              	.LVL248:
 2463              	.L362:
 2464              		.loc 1 1044 0
 2465 00ca C1F20808 		movt	r8, 4104
 2466              	.LVL249:
 2467              		.loc 1 1045 0
 2468 00ce B1E7     		b	.L361
 2469              	.L363:
 2470              	.LVL250:
 2471              		.loc 1 1047 0
 2472 00d0 C1F20C08 		movt	r8, 4108
 2473              	.LVL251:
 2474              		.loc 1 1048 0
 2475 00d4 AEE7     		b	.L361
 2476              	.LVL252:
 2477              	.L364:
 2478              		.loc 1 1060 0
 2479 00d6 05F15801 		add	r1, r5, #88
 2480 00da 4901     		lsls	r1, r1, #5
 2481              		.loc 1 1061 0
 2482 00dc 05F1100E 		add	lr, r5, #16
 2483              		.loc 1 1060 0
 2484 00e0 6058     		ldr	r0, [r4, r1]
 2485 00e2 20F40040 		bic	r0, r0, #32768
 2486 00e6 6050     		str	r0, [r4, r1]
 2487              		.loc 1 1061 0
 2488 00e8 0121     		movs	r1, #1
 2489 00ea D4F81C08 		ldr	r0, [r4, #2076]
 2490 00ee 01FA0EF1 		lsl	r1, r1, lr
 2491 00f2 20EA0100 		bic	r0, r0, r1
 2492 00f6 C4F81C08 		str	r0, [r4, #2076]
 2493 00fa B5E7     		b	.L365
 2494              	.L366:
 2495              		.loc 1 1081 0
 2496 00fc 05F13F03 		add	r3, r5, #63
 2497 0100 04EB8302 		add	r2, r4, r3, lsl #2
 2498 0104 4FF48061 		mov	r1, #1024
 2499 0108 C0F20021 		movt	r1, 512
 2500 010c 5160     		str	r1, [r2, #4]
ARM GAS  /tmp/ccx4dzgE.s 			page 45


 2501              		.loc 1 1082 0
 2502 010e 3046     		mov	r0, r6
 2503 0110 2946     		mov	r1, r5
 2504 0112 FFF7FEFF 		bl	otg_txfifo_flush
 2505              	.LVL253:
 2506              		.loc 1 1083 0
 2507 0116 05F14800 		add	r0, r5, #72
 2508 011a 4301     		lsls	r3, r0, #5
 2509 011c E258     		ldr	r2, [r4, r3]
 2510 011e 22F40041 		bic	r1, r2, #32768
 2511 0122 E150     		str	r1, [r4, r3]
 2512              		.loc 1 1084 0
 2513 0124 0123     		movs	r3, #1
 2514 0126 D4F81C08 		ldr	r0, [r4, #2076]
 2515 012a 03FA05F5 		lsl	r5, r3, r5
 2516 012e 20EA0505 		bic	r5, r0, r5
 2517 0132 C4F81C58 		str	r5, [r4, #2076]
 2518 0136 BDE8F081 		pop	{r4, r5, r6, r7, r8, pc}
 2519              		.cfi_endproc
 2520              	.LFE143:
 2521              		.size	usb_lld_init_endpoint, .-usb_lld_init_endpoint
 2522 013a 00BFAFF3 		.section	.text.usb_lld_disable_endpoints,"ax",%progbits
 2522      0080
 2523              		.align	2
 2524              		.p2align 4,,15
 2525              		.global	usb_lld_disable_endpoints
 2526              		.thumb
 2527              		.thumb_func
 2528              		.type	usb_lld_disable_endpoints, %function
 2529              	usb_lld_disable_endpoints:
 2530              	.LFB144:
 2531              		.loc 1 1095 0
 2532              		.cfi_startproc
 2533              		@ args = 0, pretend = 0, frame = 0
 2534              		@ frame_needed = 0, uses_anonymous_args = 0
 2535              		@ link register save eliminated.
 2536              	.LVL254:
 2537              	.LBB215:
 2538              	.LBB216:
 2539              		.loc 1 207 0
 2540 0000 426D     		ldr	r2, [r0, #84]
 2541 0002 1168     		ldr	r1, [r2, #0]
 2542 0004 8165     		str	r1, [r0, #88]
 2543              	.LBE216:
 2544              	.LBE215:
 2545              		.loc 1 1102 0
 2546              		.loc 1 1101 0
 2547 0006 FFF7FEBF 		b	otg_disable_ep
 2548              	.LVL255:
 2549              		.cfi_endproc
 2550              	.LFE144:
 2551              		.size	usb_lld_disable_endpoints, .-usb_lld_disable_endpoints
 2552 000a 00BFAFF3 		.section	.text.usb_lld_get_status_out,"ax",%progbits
 2552      0080
 2553              		.align	2
 2554              		.p2align 4,,15
 2555              		.global	usb_lld_get_status_out
ARM GAS  /tmp/ccx4dzgE.s 			page 46


 2556              		.thumb
 2557              		.thumb_func
 2558              		.type	usb_lld_get_status_out, %function
 2559              	usb_lld_get_status_out:
 2560              	.LFB145:
 2561              		.loc 1 1116 0
 2562              		.cfi_startproc
 2563              		@ args = 0, pretend = 0, frame = 0
 2564              		@ frame_needed = 0, uses_anonymous_args = 0
 2565              		@ link register save eliminated.
 2566              	.LVL256:
 2567              		.loc 1 1121 0
 2568 0000 5831     		adds	r1, r1, #88
 2569              	.LVL257:
 2570 0002 036D     		ldr	r3, [r0, #80]
 2571 0004 4901     		lsls	r1, r1, #5
 2572 0006 5A58     		ldr	r2, [r3, r1]
 2573              	.LVL258:
 2574              		.loc 1 1122 0
 2575 0008 12F40040 		ands	r0, r2, #32768
 2576              	.LVL259:
 2577 000c 04D0     		beq	.L372
 2578              		.loc 1 1124 0
 2579 000e 12F4001F 		tst	r2, #2097152
 2580              		.loc 1 1125 0
 2581 0012 0CBF     		ite	eq
 2582 0014 0220     		moveq	r0, #2
 2583 0016 0120     		movne	r0, #1
 2584              	.L372:
 2585              		.loc 1 1127 0
 2586 0018 7047     		bx	lr
 2587              		.cfi_endproc
 2588              	.LFE145:
 2589              		.size	usb_lld_get_status_out, .-usb_lld_get_status_out
 2590 001a 00BFAFF3 		.section	.text.usb_lld_get_status_in,"ax",%progbits
 2590      0080
 2591              		.align	2
 2592              		.p2align 4,,15
 2593              		.global	usb_lld_get_status_in
 2594              		.thumb
 2595              		.thumb_func
 2596              		.type	usb_lld_get_status_in, %function
 2597              	usb_lld_get_status_in:
 2598              	.LFB146:
 2599              		.loc 1 1141 0
 2600              		.cfi_startproc
 2601              		@ args = 0, pretend = 0, frame = 0
 2602              		@ frame_needed = 0, uses_anonymous_args = 0
 2603              		@ link register save eliminated.
 2604              	.LVL260:
 2605              		.loc 1 1146 0
 2606 0000 4831     		adds	r1, r1, #72
 2607              	.LVL261:
 2608 0002 036D     		ldr	r3, [r0, #80]
 2609 0004 4901     		lsls	r1, r1, #5
 2610 0006 5A58     		ldr	r2, [r3, r1]
 2611              	.LVL262:
ARM GAS  /tmp/ccx4dzgE.s 			page 47


 2612              		.loc 1 1147 0
 2613 0008 12F40040 		ands	r0, r2, #32768
 2614              	.LVL263:
 2615 000c 04D0     		beq	.L376
 2616              		.loc 1 1149 0
 2617 000e 12F4001F 		tst	r2, #2097152
 2618              		.loc 1 1150 0
 2619 0012 0CBF     		ite	eq
 2620 0014 0220     		moveq	r0, #2
 2621 0016 0120     		movne	r0, #1
 2622              	.L376:
 2623              		.loc 1 1152 0
 2624 0018 7047     		bx	lr
 2625              		.cfi_endproc
 2626              	.LFE146:
 2627              		.size	usb_lld_get_status_in, .-usb_lld_get_status_in
 2628 001a 00BFAFF3 		.section	.text.usb_lld_read_setup,"ax",%progbits
 2628      0080
 2629              		.align	2
 2630              		.p2align 4,,15
 2631              		.global	usb_lld_read_setup
 2632              		.thumb
 2633              		.thumb_func
 2634              		.type	usb_lld_read_setup, %function
 2635              	usb_lld_read_setup:
 2636              	.LFB147:
 2637              		.loc 1 1168 0
 2638              		.cfi_startproc
 2639              		@ args = 0, pretend = 0, frame = 0
 2640              		@ frame_needed = 0, uses_anonymous_args = 0
 2641              		@ link register save eliminated.
 2642              	.LVL264:
 2643              		.loc 1 1170 0
 2644 0000 00EB8101 		add	r1, r0, r1, lsl #2
 2645              	.LVL265:
 2646 0004 CB68     		ldr	r3, [r1, #12]
 2647 0006 186A     		ldr	r0, [r3, #32]
 2648              	.LVL266:
 2649 0008 0168     		ldr	r1, [r0, #0]	@ unaligned
 2650 000a 4368     		ldr	r3, [r0, #4]	@ unaligned
 2651 000c 1160     		str	r1, [r2, #0]	@ unaligned
 2652 000e 5360     		str	r3, [r2, #4]	@ unaligned
 2653 0010 7047     		bx	lr
 2654              		.cfi_endproc
 2655              	.LFE147:
 2656              		.size	usb_lld_read_setup, .-usb_lld_read_setup
 2657 0012 00BFAFF3 		.section	.text.usb_lld_prepare_receive,"ax",%progbits
 2657      0080AFF3 
 2657      0080AFF3 
 2657      0080
 2658              		.align	2
 2659              		.p2align 4,,15
 2660              		.global	usb_lld_prepare_receive
 2661              		.thumb
 2662              		.thumb_func
 2663              		.type	usb_lld_prepare_receive, %function
 2664              	usb_lld_prepare_receive:
ARM GAS  /tmp/ccx4dzgE.s 			page 48


 2665              	.LFB148:
 2666              		.loc 1 1181 0
 2667              		.cfi_startproc
 2668              		@ args = 0, pretend = 0, frame = 0
 2669              		@ frame_needed = 0, uses_anonymous_args = 0
 2670              		@ link register save eliminated.
 2671              	.LVL267:
 2672              		.loc 1 1183 0
 2673 0000 00EB8103 		add	r3, r0, r1, lsl #2
 2674              		.loc 1 1181 0
 2675 0004 10B4     		push	{r4}
 2676              	.LCFI12:
 2677              		.cfi_def_cfa_offset 4
 2678              		.cfi_offset 4, -4
 2679              		.loc 1 1183 0
 2680 0006 DC68     		ldr	r4, [r3, #12]
 2681              	.LVL268:
 2682              		.loc 1 1188 0
 2683 0008 006D     		ldr	r0, [r0, #80]
 2684              	.LVL269:
 2685              		.loc 1 1186 0
 2686 000a A269     		ldr	r2, [r4, #24]
 2687 000c 638A     		ldrh	r3, [r4, #18]
 2688              	.LVL270:
 2689 000e 5468     		ldr	r4, [r2, #4]
 2690              	.LVL271:
 2691 0010 621E     		subs	r2, r4, #1
 2692              	.LVL272:
 2693 0012 D418     		adds	r4, r2, r3
 2694              		.loc 1 1188 0
 2695 0014 00EB4111 		add	r1, r0, r1, lsl #5
 2696              	.LVL273:
 2697 0018 43F0C042 		orr	r2, r3, #1610612736
 2698              		.loc 1 1186 0
 2699 001c B4FBF3F3 		udiv	r3, r4, r3
 2700              		.loc 1 1188 0
 2701 0020 42EAC340 		orr	r0, r2, r3, lsl #19
 2702 0024 C1F8100B 		str	r0, [r1, #2832]
 2703              		.loc 1 1191 0
 2704 0028 10BC     		pop	{r4}
 2705 002a 7047     		bx	lr
 2706              		.cfi_endproc
 2707              	.LFE148:
 2708              		.size	usb_lld_prepare_receive, .-usb_lld_prepare_receive
 2709 002c AFF30080 		.section	.text.usb_lld_prepare_transmit,"ax",%progbits
 2710              		.align	2
 2711              		.p2align 4,,15
 2712              		.global	usb_lld_prepare_transmit
 2713              		.thumb
 2714              		.thumb_func
 2715              		.type	usb_lld_prepare_transmit, %function
 2716              	usb_lld_prepare_transmit:
 2717              	.LFB149:
 2718              		.loc 1 1201 0
 2719              		.cfi_startproc
 2720              		@ args = 0, pretend = 0, frame = 0
 2721              		@ frame_needed = 0, uses_anonymous_args = 0
ARM GAS  /tmp/ccx4dzgE.s 			page 49


 2722              		@ link register save eliminated.
 2723              	.LVL274:
 2724              		.loc 1 1202 0
 2725 0000 00EB8103 		add	r3, r0, r1, lsl #2
 2726              		.loc 1 1201 0
 2727 0004 10B4     		push	{r4}
 2728              	.LCFI13:
 2729              		.cfi_def_cfa_offset 4
 2730              		.cfi_offset 4, -4
 2731              		.loc 1 1202 0
 2732 0006 DA68     		ldr	r2, [r3, #12]
 2733              	.LVL275:
 2734              		.loc 1 1205 0
 2735 0008 5369     		ldr	r3, [r2, #20]
 2736 000a 5B68     		ldr	r3, [r3, #4]
 2737 000c 6BB1     		cbz	r3, .L384
 2738              	.LBB217:
 2739              		.loc 1 1211 0
 2740 000e 128A     		ldrh	r2, [r2, #16]
 2741              	.LVL276:
 2742              		.loc 1 1213 0
 2743 0010 006D     		ldr	r0, [r0, #80]
 2744              	.LVL277:
 2745              		.loc 1 1211 0
 2746 0012 5C1E     		subs	r4, r3, #1
 2747 0014 A418     		adds	r4, r4, r2
 2748 0016 B4FBF2F2 		udiv	r2, r4, r2
 2749              	.LVL278:
 2750              		.loc 1 1213 0
 2751 001a 00EB4111 		add	r1, r0, r1, lsl #5
 2752              	.LVL279:
 2753 001e 43EAC243 		orr	r3, r3, r2, lsl #19
 2754 0022 C1F81039 		str	r3, [r1, #2320]
 2755              	.L381:
 2756              	.LBE217:
 2757              		.loc 1 1217 0
 2758 0026 10BC     		pop	{r4}
 2759 0028 7047     		bx	lr
 2760              	.LVL280:
 2761              	.L384:
 2762              		.loc 1 1207 0
 2763 002a 006D     		ldr	r0, [r0, #80]
 2764              	.LVL281:
 2765 002c 00EB4112 		add	r2, r0, r1, lsl #5
 2766              	.LVL282:
 2767 0030 4FF40021 		mov	r1, #524288
 2768              	.LVL283:
 2769 0034 C2F81019 		str	r1, [r2, #2320]
 2770 0038 F5E7     		b	.L381
 2771              		.cfi_endproc
 2772              	.LFE149:
 2773              		.size	usb_lld_prepare_transmit, .-usb_lld_prepare_transmit
 2774 003a 00BFAFF3 		.section	.text.usb_lld_start_out,"ax",%progbits
 2774      0080
 2775              		.align	2
 2776              		.p2align 4,,15
 2777              		.global	usb_lld_start_out
ARM GAS  /tmp/ccx4dzgE.s 			page 50


 2778              		.thumb
 2779              		.thumb_func
 2780              		.type	usb_lld_start_out, %function
 2781              	usb_lld_start_out:
 2782              	.LFB150:
 2783              		.loc 1 1227 0
 2784              		.cfi_startproc
 2785              		@ args = 0, pretend = 0, frame = 0
 2786              		@ frame_needed = 0, uses_anonymous_args = 0
 2787              		@ link register save eliminated.
 2788              	.LVL284:
 2789              		.loc 1 1229 0
 2790 0000 5831     		adds	r1, r1, #88
 2791              	.LVL285:
 2792 0002 036D     		ldr	r3, [r0, #80]
 2793 0004 4901     		lsls	r1, r1, #5
 2794 0006 5A58     		ldr	r2, [r3, r1]
 2795 0008 42F08060 		orr	r0, r2, #67108864
 2796              	.LVL286:
 2797 000c 5850     		str	r0, [r3, r1]
 2798 000e 7047     		bx	lr
 2799              		.cfi_endproc
 2800              	.LFE150:
 2801              		.size	usb_lld_start_out, .-usb_lld_start_out
 2802              		.section	.text.usb_lld_start_in,"ax",%progbits
 2803              		.align	2
 2804              		.p2align 4,,15
 2805              		.global	usb_lld_start_in
 2806              		.thumb
 2807              		.thumb_func
 2808              		.type	usb_lld_start_in, %function
 2809              	usb_lld_start_in:
 2810              	.LFB151:
 2811              		.loc 1 1240 0
 2812              		.cfi_startproc
 2813              		@ args = 0, pretend = 0, frame = 0
 2814              		@ frame_needed = 0, uses_anonymous_args = 0
 2815              		@ link register save eliminated.
 2816              	.LVL287:
 2817              		.loc 1 1242 0
 2818 0000 01F14802 		add	r2, r1, #72
 2819 0004 036D     		ldr	r3, [r0, #80]
 2820 0006 5201     		lsls	r2, r2, #5
 2821 0008 9858     		ldr	r0, [r3, r2]
 2822              	.LVL288:
 2823 000a 40F00440 		orr	r0, r0, #-2080374784
 2824 000e 9850     		str	r0, [r3, r2]
 2825              		.loc 1 1243 0
 2826 0010 0120     		movs	r0, #1
 2827 0012 D3F83428 		ldr	r2, [r3, #2100]
 2828 0016 00FA01F1 		lsl	r1, r0, r1
 2829              	.LVL289:
 2830 001a 1143     		orrs	r1, r1, r2
 2831 001c C3F83418 		str	r1, [r3, #2100]
 2832 0020 7047     		bx	lr
 2833              		.cfi_endproc
 2834              	.LFE151:
ARM GAS  /tmp/ccx4dzgE.s 			page 51


 2835              		.size	usb_lld_start_in, .-usb_lld_start_in
 2836 0022 00BFAFF3 		.section	.text.usb_lld_stall_out,"ax",%progbits
 2836      0080AFF3 
 2836      0080AFF3 
 2836      0080
 2837              		.align	2
 2838              		.p2align 4,,15
 2839              		.global	usb_lld_stall_out
 2840              		.thumb
 2841              		.thumb_func
 2842              		.type	usb_lld_stall_out, %function
 2843              	usb_lld_stall_out:
 2844              	.LFB152:
 2845              		.loc 1 1254 0
 2846              		.cfi_startproc
 2847              		@ args = 0, pretend = 0, frame = 0
 2848              		@ frame_needed = 0, uses_anonymous_args = 0
 2849              		@ link register save eliminated.
 2850              	.LVL290:
 2851              		.loc 1 1256 0
 2852 0000 5831     		adds	r1, r1, #88
 2853              	.LVL291:
 2854 0002 036D     		ldr	r3, [r0, #80]
 2855 0004 4901     		lsls	r1, r1, #5
 2856 0006 5A58     		ldr	r2, [r3, r1]
 2857 0008 42F40010 		orr	r0, r2, #2097152
 2858              	.LVL292:
 2859 000c 5850     		str	r0, [r3, r1]
 2860 000e 7047     		bx	lr
 2861              		.cfi_endproc
 2862              	.LFE152:
 2863              		.size	usb_lld_stall_out, .-usb_lld_stall_out
 2864              		.section	.text.usb_lld_stall_in,"ax",%progbits
 2865              		.align	2
 2866              		.p2align 4,,15
 2867              		.global	usb_lld_stall_in
 2868              		.thumb
 2869              		.thumb_func
 2870              		.type	usb_lld_stall_in, %function
 2871              	usb_lld_stall_in:
 2872              	.LFB153:
 2873              		.loc 1 1267 0
 2874              		.cfi_startproc
 2875              		@ args = 0, pretend = 0, frame = 0
 2876              		@ frame_needed = 0, uses_anonymous_args = 0
 2877              		@ link register save eliminated.
 2878              	.LVL293:
 2879              		.loc 1 1269 0
 2880 0000 4831     		adds	r1, r1, #72
 2881              	.LVL294:
 2882 0002 036D     		ldr	r3, [r0, #80]
 2883 0004 4901     		lsls	r1, r1, #5
 2884 0006 5A58     		ldr	r2, [r3, r1]
 2885 0008 42F40010 		orr	r0, r2, #2097152
 2886              	.LVL295:
 2887 000c 5850     		str	r0, [r3, r1]
 2888 000e 7047     		bx	lr
ARM GAS  /tmp/ccx4dzgE.s 			page 52


 2889              		.cfi_endproc
 2890              	.LFE153:
 2891              		.size	usb_lld_stall_in, .-usb_lld_stall_in
 2892              		.section	.text.usb_lld_clear_out,"ax",%progbits
 2893              		.align	2
 2894              		.p2align 4,,15
 2895              		.global	usb_lld_clear_out
 2896              		.thumb
 2897              		.thumb_func
 2898              		.type	usb_lld_clear_out, %function
 2899              	usb_lld_clear_out:
 2900              	.LFB154:
 2901              		.loc 1 1280 0
 2902              		.cfi_startproc
 2903              		@ args = 0, pretend = 0, frame = 0
 2904              		@ frame_needed = 0, uses_anonymous_args = 0
 2905              		@ link register save eliminated.
 2906              	.LVL296:
 2907              		.loc 1 1282 0
 2908 0000 5831     		adds	r1, r1, #88
 2909              	.LVL297:
 2910 0002 036D     		ldr	r3, [r0, #80]
 2911 0004 4901     		lsls	r1, r1, #5
 2912 0006 5A58     		ldr	r2, [r3, r1]
 2913 0008 22F40010 		bic	r0, r2, #2097152
 2914              	.LVL298:
 2915 000c 5850     		str	r0, [r3, r1]
 2916 000e 7047     		bx	lr
 2917              		.cfi_endproc
 2918              	.LFE154:
 2919              		.size	usb_lld_clear_out, .-usb_lld_clear_out
 2920              		.section	.text.usb_lld_clear_in,"ax",%progbits
 2921              		.align	2
 2922              		.p2align 4,,15
 2923              		.global	usb_lld_clear_in
 2924              		.thumb
 2925              		.thumb_func
 2926              		.type	usb_lld_clear_in, %function
 2927              	usb_lld_clear_in:
 2928              	.LFB155:
 2929              		.loc 1 1293 0
 2930              		.cfi_startproc
 2931              		@ args = 0, pretend = 0, frame = 0
 2932              		@ frame_needed = 0, uses_anonymous_args = 0
 2933              		@ link register save eliminated.
 2934              	.LVL299:
 2935              		.loc 1 1295 0
 2936 0000 4831     		adds	r1, r1, #72
 2937              	.LVL300:
 2938 0002 036D     		ldr	r3, [r0, #80]
 2939 0004 4901     		lsls	r1, r1, #5
 2940 0006 5A58     		ldr	r2, [r3, r1]
 2941 0008 22F40010 		bic	r0, r2, #2097152
 2942              	.LVL301:
 2943 000c 5850     		str	r0, [r3, r1]
 2944 000e 7047     		bx	lr
 2945              		.cfi_endproc
ARM GAS  /tmp/ccx4dzgE.s 			page 53


 2946              	.LFE155:
 2947              		.size	usb_lld_clear_in, .-usb_lld_clear_in
 2948              		.global	USBD1
 2949              		.section	.rodata.fsparams,"a",%progbits
 2950              		.align	2
 2951              		.set	.LANCHOR1,. + 0
 2952              		.type	fsparams, %object
 2953              		.size	fsparams, 12
 2954              	fsparams:
 2955 0000 80000000 		.word	128
 2956 0004 80010000 		.word	384
 2957 0008 03000000 		.word	3
 2958              		.section	.bss.USBD1,"aw",%nobits
 2959              		.align	3
 2960              		.set	.LANCHOR0,. + 0
 2961              		.type	USBD1, %object
 2962              		.size	USBD1, 408
 2963              	USBD1:
 2964 0000 00000000 		.space	408
 2964      00000000 
 2964      00000000 
 2964      00000000 
 2964      00000000 
 2965              		.section	.rodata.str1.4,"aMS",%progbits,1
 2966              		.align	2
 2967              	.LC0:
 2968 0000 7573625F 		.ascii	"usb_lld_pump\000"
 2968      6C6C645F 
 2968      70756D70 
 2968      00
 2969 000d 000000   		.section	.rodata.ep0config,"a",%progbits
 2970              		.align	2
 2971              		.set	.LANCHOR2,. + 0
 2972              		.type	ep0config, %object
 2973              		.size	ep0config, 36
 2974              	ep0config:
 2975 0000 00000000 		.word	0
 2976 0004 00000000 		.word	_usb_ep0setup
 2977 0008 00000000 		.word	_usb_ep0in
 2978 000c 00000000 		.word	_usb_ep0out
 2979 0010 4000     		.short	64
 2980 0012 4000     		.short	64
 2981 0014 00000000 		.word	ep0_state
 2982 0018 00000000 		.word	ep0_state
 2983 001c 0100     		.short	1
 2984 001e 0000     		.space	2
 2985 0020 00000000 		.word	ep0setup_buffer
 2986              		.section	.bss.ep0_state,"aw",%nobits
 2987              		.align	2
 2988              		.type	ep0_state, %object
 2989              		.size	ep0_state, 16
 2990              	ep0_state:
 2991 0000 00000000 		.space	16
 2991      00000000 
 2991      00000000 
 2991      00000000 
 2992              		.section	.bss.ep0setup_buffer,"aw",%nobits
ARM GAS  /tmp/ccx4dzgE.s 			page 54


 2993              		.align	2
 2994              		.type	ep0setup_buffer, %object
 2995              		.size	ep0setup_buffer, 8
 2996              	ep0setup_buffer:
 2997 0000 00000000 		.space	8
 2997      00000000 
 2998              		.text
 2999              	.Letext0:
 3000              		.file 3 "/usr/bin/../lib/gcc/arm-none-eabi/4.7.4/include/stddef.h"
 3001              		.file 4 "/usr/bin/../lib/gcc/arm-none-eabi/4.7.4/../../../../arm-none-eabi/include/stdint.h"
 3002              		.file 5 "../../os/ports/GCC/ARMCMx/chtypes.h"
 3003              		.file 6 "../../os/kernel/include/chlists.h"
 3004              		.file 7 "../../os/kernel/include/chthreads.h"
 3005              		.file 8 "../../os/ports/GCC/ARMCMx/chcore_v7m.h"
 3006              		.file 9 "../../os/kernel/include/chschd.h"
 3007              		.file 10 "../../os/kernel/include/chmtx.h"
 3008              		.file 11 "../../os/kernel/include/chqueues.h"
 3009              		.file 12 "../../os/hal/platforms/STM32F4xx/stm32f4xx.h"
 3010              		.file 13 "../../os/hal/platforms/STM32F4xx/hal_lld.h"
 3011              		.file 14 "../../os/hal/include/usb.h"
 3012              		.file 15 "../../os/hal/platforms/STM32/OTGv1/usb_lld.h"
 3013              		.file 16 "../../os/hal/platforms/STM32/OTGv1/stm32_otg.h"
 3014              		.file 17 "../../os/ports/common/ARMCMx/CMSIS/include/core_cm4.h"
 3015              		.file 18 "../../os/hal/include/hal.h"
 3016              		.file 19 "../../os/ports/common/ARMCMx/nvic.h"
 3017              		.section	.debug_info,"",%progbits
 3018              	.Ldebug_info0:
 3019 0000 BD290000 		.4byte	0x29bd
 3020 0004 0200     		.2byte	0x2
 3021 0006 00000000 		.4byte	.Ldebug_abbrev0
 3022 000a 04       		.byte	0x4
 3023 000b 01       		.uleb128 0x1
 3024 000c FC000000 		.4byte	.LASF432
 3025 0010 01       		.byte	0x1
 3026 0011 AC100000 		.4byte	.LASF433
 3027 0015 600E0000 		.4byte	.LASF434
 3028 0019 38030000 		.4byte	.Ldebug_ranges0+0x338
 3029 001d 00000000 		.4byte	0
 3030 0021 00000000 		.4byte	0
 3031 0025 00000000 		.4byte	.Ldebug_line0
 3032 0029 02       		.uleb128 0x2
 3033 002a 04       		.byte	0x4
 3034 002b 07       		.byte	0x7
 3035 002c F00A0000 		.4byte	.LASF0
 3036 0030 02       		.uleb128 0x2
 3037 0031 01       		.byte	0x1
 3038 0032 06       		.byte	0x6
 3039 0033 9C030000 		.4byte	.LASF1
 3040 0037 02       		.uleb128 0x2
 3041 0038 01       		.byte	0x1
 3042 0039 08       		.byte	0x8
 3043 003a 49040000 		.4byte	.LASF2
 3044 003e 02       		.uleb128 0x2
 3045 003f 02       		.byte	0x2
 3046 0040 05       		.byte	0x5
 3047 0041 09100000 		.4byte	.LASF3
 3048 0045 02       		.uleb128 0x2
ARM GAS  /tmp/ccx4dzgE.s 			page 55


 3049 0046 02       		.byte	0x2
 3050 0047 07       		.byte	0x7
 3051 0048 76120000 		.4byte	.LASF4
 3052 004c 03       		.uleb128 0x3
 3053 004d 04       		.byte	0x4
 3054 004e 05       		.byte	0x5
 3055 004f 696E7400 		.ascii	"int\000"
 3056 0053 02       		.uleb128 0x2
 3057 0054 08       		.byte	0x8
 3058 0055 05       		.byte	0x5
 3059 0056 D5090000 		.4byte	.LASF5
 3060 005a 02       		.uleb128 0x2
 3061 005b 08       		.byte	0x8
 3062 005c 07       		.byte	0x7
 3063 005d 670D0000 		.4byte	.LASF6
 3064 0061 02       		.uleb128 0x2
 3065 0062 04       		.byte	0x4
 3066 0063 05       		.byte	0x5
 3067 0064 8F020000 		.4byte	.LASF7
 3068 0068 02       		.uleb128 0x2
 3069 0069 04       		.byte	0x4
 3070 006a 07       		.byte	0x7
 3071 006b 1A000000 		.4byte	.LASF8
 3072 006f 04       		.uleb128 0x4
 3073 0070 04       		.byte	0x4
 3074 0071 02       		.uleb128 0x2
 3075 0072 04       		.byte	0x4
 3076 0073 07       		.byte	0x7
 3077 0074 1E080000 		.4byte	.LASF9
 3078 0078 02       		.uleb128 0x2
 3079 0079 01       		.byte	0x1
 3080 007a 08       		.byte	0x8
 3081 007b 56050000 		.4byte	.LASF10
 3082 007f 05       		.uleb128 0x5
 3083 0080 04       		.byte	0x4
 3084 0081 85000000 		.4byte	0x85
 3085 0085 06       		.uleb128 0x6
 3086 0086 78000000 		.4byte	0x78
 3087 008a 07       		.uleb128 0x7
 3088 008b 00000000 		.4byte	.LASF11
 3089 008f 03       		.byte	0x3
 3090 0090 D5       		.byte	0xd5
 3091 0091 29000000 		.4byte	0x29
 3092 0095 07       		.uleb128 0x7
 3093 0096 B2030000 		.4byte	.LASF12
 3094 009a 04       		.byte	0x4
 3095 009b 2A       		.byte	0x2a
 3096 009c 37000000 		.4byte	0x37
 3097 00a0 07       		.uleb128 0x7
 3098 00a1 A90D0000 		.4byte	.LASF13
 3099 00a5 04       		.byte	0x4
 3100 00a6 36       		.byte	0x36
 3101 00a7 45000000 		.4byte	0x45
 3102 00ab 07       		.uleb128 0x7
 3103 00ac 57000000 		.4byte	.LASF14
 3104 00b0 04       		.byte	0x4
 3105 00b1 4F       		.byte	0x4f
ARM GAS  /tmp/ccx4dzgE.s 			page 56


 3106 00b2 61000000 		.4byte	0x61
 3107 00b6 07       		.uleb128 0x7
 3108 00b7 02120000 		.4byte	.LASF15
 3109 00bb 04       		.byte	0x4
 3110 00bc 50       		.byte	0x50
 3111 00bd 71000000 		.4byte	0x71
 3112 00c1 07       		.uleb128 0x7
 3113 00c2 20100000 		.4byte	.LASF16
 3114 00c6 04       		.byte	0x4
 3115 00c7 78       		.byte	0x78
 3116 00c8 5A000000 		.4byte	0x5a
 3117 00cc 07       		.uleb128 0x7
 3118 00cd FE100000 		.4byte	.LASF17
 3119 00d1 05       		.byte	0x5
 3120 00d2 24       		.byte	0x24
 3121 00d3 D7000000 		.4byte	0xd7
 3122 00d7 02       		.uleb128 0x2
 3123 00d8 01       		.byte	0x1
 3124 00d9 02       		.byte	0x2
 3125 00da DA040000 		.4byte	.LASF18
 3126 00de 07       		.uleb128 0x7
 3127 00df 460F0000 		.4byte	.LASF19
 3128 00e3 05       		.byte	0x5
 3129 00e4 25       		.byte	0x25
 3130 00e5 95000000 		.4byte	0x95
 3131 00e9 07       		.uleb128 0x7
 3132 00ea C0020000 		.4byte	.LASF20
 3133 00ee 05       		.byte	0x5
 3134 00ef 26       		.byte	0x26
 3135 00f0 95000000 		.4byte	0x95
 3136 00f4 07       		.uleb128 0x7
 3137 00f5 A1110000 		.4byte	.LASF21
 3138 00f9 05       		.byte	0x5
 3139 00fa 27       		.byte	0x27
 3140 00fb 95000000 		.4byte	0x95
 3141 00ff 07       		.uleb128 0x7
 3142 0100 040E0000 		.4byte	.LASF22
 3143 0104 05       		.byte	0x5
 3144 0105 28       		.byte	0x28
 3145 0106 95000000 		.4byte	0x95
 3146 010a 07       		.uleb128 0x7
 3147 010b 3E000000 		.4byte	.LASF23
 3148 010f 05       		.byte	0x5
 3149 0110 29       		.byte	0x29
 3150 0111 B6000000 		.4byte	0xb6
 3151 0115 07       		.uleb128 0x7
 3152 0116 BF0D0000 		.4byte	.LASF24
 3153 011a 05       		.byte	0x5
 3154 011b 2A       		.byte	0x2a
 3155 011c AB000000 		.4byte	0xab
 3156 0120 07       		.uleb128 0x7
 3157 0121 F3030000 		.4byte	.LASF25
 3158 0125 05       		.byte	0x5
 3159 0126 2C       		.byte	0x2c
 3160 0127 B6000000 		.4byte	0xb6
 3161 012b 07       		.uleb128 0x7
 3162 012c 23000000 		.4byte	.LASF26
ARM GAS  /tmp/ccx4dzgE.s 			page 57


 3163 0130 05       		.byte	0x5
 3164 0131 2E       		.byte	0x2e
 3165 0132 B6000000 		.4byte	0xb6
 3166 0136 07       		.uleb128 0x7
 3167 0137 33110000 		.4byte	.LASF27
 3168 013b 06       		.byte	0x6
 3169 013c 23       		.byte	0x23
 3170 013d 41010000 		.4byte	0x141
 3171 0141 08       		.uleb128 0x8
 3172 0142 33110000 		.4byte	.LASF27
 3173 0146 48       		.byte	0x48
 3174 0147 07       		.byte	0x7
 3175 0148 57       		.byte	0x57
 3176 0149 66020000 		.4byte	0x266
 3177 014d 09       		.uleb128 0x9
 3178 014e 98020000 		.4byte	.LASF28
 3179 0152 07       		.byte	0x7
 3180 0153 58       		.byte	0x58
 3181 0154 8B020000 		.4byte	0x28b
 3182 0158 02       		.byte	0x2
 3183 0159 23       		.byte	0x23
 3184 015a 00       		.uleb128 0
 3185 015b 09       		.uleb128 0x9
 3186 015c A7020000 		.4byte	.LASF29
 3187 0160 07       		.byte	0x7
 3188 0161 5A       		.byte	0x5a
 3189 0162 8B020000 		.4byte	0x28b
 3190 0166 02       		.byte	0x2
 3191 0167 23       		.byte	0x23
 3192 0168 04       		.uleb128 0x4
 3193 0169 09       		.uleb128 0x9
 3194 016a 6E050000 		.4byte	.LASF30
 3195 016e 07       		.byte	0x7
 3196 016f 5C       		.byte	0x5c
 3197 0170 0A010000 		.4byte	0x10a
 3198 0174 02       		.byte	0x2
 3199 0175 23       		.byte	0x23
 3200 0176 08       		.uleb128 0x8
 3201 0177 09       		.uleb128 0x9
 3202 0178 38000000 		.4byte	.LASF31
 3203 017c 07       		.byte	0x7
 3204 017d 5D       		.byte	0x5d
 3205 017e 62030000 		.4byte	0x362
 3206 0182 02       		.byte	0x2
 3207 0183 23       		.byte	0x23
 3208 0184 0C       		.uleb128 0xc
 3209 0185 09       		.uleb128 0x9
 3210 0186 82020000 		.4byte	.LASF32
 3211 018a 07       		.byte	0x7
 3212 018b 5F       		.byte	0x5f
 3213 018c 8B020000 		.4byte	0x28b
 3214 0190 02       		.byte	0x2
 3215 0191 23       		.byte	0x23
 3216 0192 10       		.uleb128 0x10
 3217 0193 09       		.uleb128 0x9
 3218 0194 A10D0000 		.4byte	.LASF33
 3219 0198 07       		.byte	0x7
ARM GAS  /tmp/ccx4dzgE.s 			page 58


 3220 0199 60       		.byte	0x60
 3221 019a 8B020000 		.4byte	0x28b
 3222 019e 02       		.byte	0x2
 3223 019f 23       		.byte	0x23
 3224 01a0 14       		.uleb128 0x14
 3225 01a1 09       		.uleb128 0x9
 3226 01a2 86130000 		.4byte	.LASF34
 3227 01a6 07       		.byte	0x7
 3228 01a7 67       		.byte	0x67
 3229 01a8 7F000000 		.4byte	0x7f
 3230 01ac 02       		.byte	0x2
 3231 01ad 23       		.byte	0x23
 3232 01ae 18       		.uleb128 0x18
 3233 01af 09       		.uleb128 0x9
 3234 01b0 1C140000 		.4byte	.LASF35
 3235 01b4 07       		.byte	0x7
 3236 01b5 72       		.byte	0x72
 3237 01b6 E9000000 		.4byte	0xe9
 3238 01ba 02       		.byte	0x2
 3239 01bb 23       		.byte	0x23
 3240 01bc 1C       		.uleb128 0x1c
 3241 01bd 09       		.uleb128 0x9
 3242 01be D90A0000 		.4byte	.LASF36
 3243 01c2 07       		.byte	0x7
 3244 01c3 76       		.byte	0x76
 3245 01c4 DE000000 		.4byte	0xde
 3246 01c8 02       		.byte	0x2
 3247 01c9 23       		.byte	0x23
 3248 01ca 1D       		.uleb128 0x1d
 3249 01cb 09       		.uleb128 0x9
 3250 01cc 680B0000 		.4byte	.LASF37
 3251 01d0 07       		.byte	0x7
 3252 01d1 7B       		.byte	0x7b
 3253 01d2 F4000000 		.4byte	0xf4
 3254 01d6 02       		.byte	0x2
 3255 01d7 23       		.byte	0x23
 3256 01d8 1E       		.uleb128 0x1e
 3257 01d9 09       		.uleb128 0x9
 3258 01da A8030000 		.4byte	.LASF38
 3259 01de 07       		.byte	0x7
 3260 01df 81       		.byte	0x81
 3261 01e0 FF000000 		.4byte	0xff
 3262 01e4 02       		.byte	0x2
 3263 01e5 23       		.byte	0x23
 3264 01e6 1F       		.uleb128 0x1f
 3265 01e7 09       		.uleb128 0x9
 3266 01e8 3D0C0000 		.4byte	.LASF39
 3267 01ec 07       		.byte	0x7
 3268 01ed 88       		.byte	0x88
 3269 01ee 8A030000 		.4byte	0x38a
 3270 01f2 02       		.byte	0x2
 3271 01f3 23       		.byte	0x23
 3272 01f4 20       		.uleb128 0x20
 3273 01f5 0A       		.uleb128 0xa
 3274 01f6 705F7500 		.ascii	"p_u\000"
 3275 01fa 07       		.byte	0x7
 3276 01fb AD       		.byte	0xad
ARM GAS  /tmp/ccx4dzgE.s 			page 59


 3277 01fc 3F040000 		.4byte	0x43f
 3278 0200 02       		.byte	0x2
 3279 0201 23       		.byte	0x23
 3280 0202 24       		.uleb128 0x24
 3281 0203 09       		.uleb128 0x9
 3282 0204 BE0A0000 		.4byte	.LASF40
 3283 0208 07       		.byte	0x7
 3284 0209 B2       		.byte	0xb2
 3285 020a B3020000 		.4byte	0x2b3
 3286 020e 02       		.byte	0x2
 3287 020f 23       		.byte	0x23
 3288 0210 28       		.uleb128 0x28
 3289 0211 09       		.uleb128 0x9
 3290 0212 46000000 		.4byte	.LASF41
 3291 0216 07       		.byte	0x7
 3292 0217 B8       		.byte	0xb8
 3293 0218 91020000 		.4byte	0x291
 3294 021c 02       		.byte	0x2
 3295 021d 23       		.byte	0x23
 3296 021e 2C       		.uleb128 0x2c
 3297 021f 09       		.uleb128 0x9
 3298 0220 F9130000 		.4byte	.LASF42
 3299 0224 07       		.byte	0x7
 3300 0225 BC       		.byte	0xbc
 3301 0226 15010000 		.4byte	0x115
 3302 022a 02       		.byte	0x2
 3303 022b 23       		.byte	0x23
 3304 022c 34       		.uleb128 0x34
 3305 022d 09       		.uleb128 0x9
 3306 022e D7060000 		.4byte	.LASF43
 3307 0232 07       		.byte	0x7
 3308 0233 C2       		.byte	0xc2
 3309 0234 20010000 		.4byte	0x120
 3310 0238 02       		.byte	0x2
 3311 0239 23       		.byte	0x23
 3312 023a 38       		.uleb128 0x38
 3313 023b 09       		.uleb128 0x9
 3314 023c D5020000 		.4byte	.LASF44
 3315 0240 07       		.byte	0x7
 3316 0241 C9       		.byte	0xc9
 3317 0242 74040000 		.4byte	0x474
 3318 0246 02       		.byte	0x2
 3319 0247 23       		.byte	0x23
 3320 0248 3C       		.uleb128 0x3c
 3321 0249 09       		.uleb128 0x9
 3322 024a B30C0000 		.4byte	.LASF45
 3323 024e 07       		.byte	0x7
 3324 024f CD       		.byte	0xcd
 3325 0250 0A010000 		.4byte	0x10a
 3326 0254 02       		.byte	0x2
 3327 0255 23       		.byte	0x23
 3328 0256 40       		.uleb128 0x40
 3329 0257 09       		.uleb128 0x9
 3330 0258 360B0000 		.4byte	.LASF46
 3331 025c 07       		.byte	0x7
 3332 025d D3       		.byte	0xd3
 3333 025e 6F000000 		.4byte	0x6f
ARM GAS  /tmp/ccx4dzgE.s 			page 60


 3334 0262 02       		.byte	0x2
 3335 0263 23       		.byte	0x23
 3336 0264 44       		.uleb128 0x44
 3337 0265 00       		.byte	0
 3338 0266 0B       		.uleb128 0xb
 3339 0267 08       		.byte	0x8
 3340 0268 06       		.byte	0x6
 3341 0269 5A       		.byte	0x5a
 3342 026a 8B020000 		.4byte	0x28b
 3343 026e 09       		.uleb128 0x9
 3344 026f 98020000 		.4byte	.LASF28
 3345 0273 06       		.byte	0x6
 3346 0274 5B       		.byte	0x5b
 3347 0275 8B020000 		.4byte	0x28b
 3348 0279 02       		.byte	0x2
 3349 027a 23       		.byte	0x23
 3350 027b 00       		.uleb128 0
 3351 027c 09       		.uleb128 0x9
 3352 027d A7020000 		.4byte	.LASF29
 3353 0281 06       		.byte	0x6
 3354 0282 5D       		.byte	0x5d
 3355 0283 8B020000 		.4byte	0x28b
 3356 0287 02       		.byte	0x2
 3357 0288 23       		.byte	0x23
 3358 0289 04       		.uleb128 0x4
 3359 028a 00       		.byte	0
 3360 028b 05       		.uleb128 0x5
 3361 028c 04       		.byte	0x4
 3362 028d 36010000 		.4byte	0x136
 3363 0291 07       		.uleb128 0x7
 3364 0292 21120000 		.4byte	.LASF47
 3365 0296 06       		.byte	0x6
 3366 0297 5F       		.byte	0x5f
 3367 0298 66020000 		.4byte	0x266
 3368 029c 0B       		.uleb128 0xb
 3369 029d 04       		.byte	0x4
 3370 029e 06       		.byte	0x6
 3371 029f 64       		.byte	0x64
 3372 02a0 B3020000 		.4byte	0x2b3
 3373 02a4 09       		.uleb128 0x9
 3374 02a5 98020000 		.4byte	.LASF28
 3375 02a9 06       		.byte	0x6
 3376 02aa 66       		.byte	0x66
 3377 02ab 8B020000 		.4byte	0x28b
 3378 02af 02       		.byte	0x2
 3379 02b0 23       		.byte	0x23
 3380 02b1 00       		.uleb128 0
 3381 02b2 00       		.byte	0
 3382 02b3 07       		.uleb128 0x7
 3383 02b4 AD0B0000 		.4byte	.LASF48
 3384 02b8 06       		.byte	0x6
 3385 02b9 69       		.byte	0x69
 3386 02ba 9C020000 		.4byte	0x29c
 3387 02be 07       		.uleb128 0x7
 3388 02bf 21030000 		.4byte	.LASF49
 3389 02c3 08       		.byte	0x8
 3390 02c4 DE       		.byte	0xde
ARM GAS  /tmp/ccx4dzgE.s 			page 61


 3391 02c5 6F000000 		.4byte	0x6f
 3392 02c9 07       		.uleb128 0x7
 3393 02ca DB050000 		.4byte	.LASF50
 3394 02ce 08       		.byte	0x8
 3395 02cf E4       		.byte	0xe4
 3396 02d0 C1000000 		.4byte	0xc1
 3397 02d4 0C       		.uleb128 0xc
 3398 02d5 D0060000 		.4byte	.LASF51
 3399 02d9 24       		.byte	0x24
 3400 02da 08       		.byte	0x8
 3401 02db 0501     		.2byte	0x105
 3402 02dd 62030000 		.4byte	0x362
 3403 02e1 0D       		.uleb128 0xd
 3404 02e2 723400   		.ascii	"r4\000"
 3405 02e5 08       		.byte	0x8
 3406 02e6 1801     		.2byte	0x118
 3407 02e8 BE020000 		.4byte	0x2be
 3408 02ec 02       		.byte	0x2
 3409 02ed 23       		.byte	0x23
 3410 02ee 00       		.uleb128 0
 3411 02ef 0D       		.uleb128 0xd
 3412 02f0 723500   		.ascii	"r5\000"
 3413 02f3 08       		.byte	0x8
 3414 02f4 1901     		.2byte	0x119
 3415 02f6 BE020000 		.4byte	0x2be
 3416 02fa 02       		.byte	0x2
 3417 02fb 23       		.byte	0x23
 3418 02fc 04       		.uleb128 0x4
 3419 02fd 0D       		.uleb128 0xd
 3420 02fe 723600   		.ascii	"r6\000"
 3421 0301 08       		.byte	0x8
 3422 0302 1A01     		.2byte	0x11a
 3423 0304 BE020000 		.4byte	0x2be
 3424 0308 02       		.byte	0x2
 3425 0309 23       		.byte	0x23
 3426 030a 08       		.uleb128 0x8
 3427 030b 0D       		.uleb128 0xd
 3428 030c 723700   		.ascii	"r7\000"
 3429 030f 08       		.byte	0x8
 3430 0310 1B01     		.2byte	0x11b
 3431 0312 BE020000 		.4byte	0x2be
 3432 0316 02       		.byte	0x2
 3433 0317 23       		.byte	0x23
 3434 0318 0C       		.uleb128 0xc
 3435 0319 0D       		.uleb128 0xd
 3436 031a 723800   		.ascii	"r8\000"
 3437 031d 08       		.byte	0x8
 3438 031e 1C01     		.2byte	0x11c
 3439 0320 BE020000 		.4byte	0x2be
 3440 0324 02       		.byte	0x2
 3441 0325 23       		.byte	0x23
 3442 0326 10       		.uleb128 0x10
 3443 0327 0D       		.uleb128 0xd
 3444 0328 723900   		.ascii	"r9\000"
 3445 032b 08       		.byte	0x8
 3446 032c 1D01     		.2byte	0x11d
 3447 032e BE020000 		.4byte	0x2be
ARM GAS  /tmp/ccx4dzgE.s 			page 62


 3448 0332 02       		.byte	0x2
 3449 0333 23       		.byte	0x23
 3450 0334 14       		.uleb128 0x14
 3451 0335 0D       		.uleb128 0xd
 3452 0336 72313000 		.ascii	"r10\000"
 3453 033a 08       		.byte	0x8
 3454 033b 1E01     		.2byte	0x11e
 3455 033d BE020000 		.4byte	0x2be
 3456 0341 02       		.byte	0x2
 3457 0342 23       		.byte	0x23
 3458 0343 18       		.uleb128 0x18
 3459 0344 0D       		.uleb128 0xd
 3460 0345 72313100 		.ascii	"r11\000"
 3461 0349 08       		.byte	0x8
 3462 034a 1F01     		.2byte	0x11f
 3463 034c BE020000 		.4byte	0x2be
 3464 0350 02       		.byte	0x2
 3465 0351 23       		.byte	0x23
 3466 0352 1C       		.uleb128 0x1c
 3467 0353 0D       		.uleb128 0xd
 3468 0354 6C7200   		.ascii	"lr\000"
 3469 0357 08       		.byte	0x8
 3470 0358 2001     		.2byte	0x120
 3471 035a BE020000 		.4byte	0x2be
 3472 035e 02       		.byte	0x2
 3473 035f 23       		.byte	0x23
 3474 0360 20       		.uleb128 0x20
 3475 0361 00       		.byte	0
 3476 0362 0C       		.uleb128 0xc
 3477 0363 FF030000 		.4byte	.LASF52
 3478 0367 04       		.byte	0x4
 3479 0368 08       		.byte	0x8
 3480 0369 2A01     		.2byte	0x12a
 3481 036b 7F030000 		.4byte	0x37f
 3482 036f 0D       		.uleb128 0xd
 3483 0370 72313300 		.ascii	"r13\000"
 3484 0374 08       		.byte	0x8
 3485 0375 2B01     		.2byte	0x12b
 3486 0377 7F030000 		.4byte	0x37f
 3487 037b 02       		.byte	0x2
 3488 037c 23       		.byte	0x23
 3489 037d 00       		.uleb128 0
 3490 037e 00       		.byte	0
 3491 037f 05       		.uleb128 0x5
 3492 0380 04       		.byte	0x4
 3493 0381 D4020000 		.4byte	0x2d4
 3494 0385 0E       		.uleb128 0xe
 3495 0386 B6000000 		.4byte	0xb6
 3496 038a 0E       		.uleb128 0xe
 3497 038b 2B010000 		.4byte	0x12b
 3498 038f 0B       		.uleb128 0xb
 3499 0390 1C       		.byte	0x1c
 3500 0391 09       		.byte	0x9
 3501 0392 57       		.byte	0x57
 3502 0393 EC030000 		.4byte	0x3ec
 3503 0397 09       		.uleb128 0x9
 3504 0398 000F0000 		.4byte	.LASF53
ARM GAS  /tmp/ccx4dzgE.s 			page 63


 3505 039c 09       		.byte	0x9
 3506 039d 58       		.byte	0x58
 3507 039e 91020000 		.4byte	0x291
 3508 03a2 02       		.byte	0x2
 3509 03a3 23       		.byte	0x23
 3510 03a4 00       		.uleb128 0
 3511 03a5 09       		.uleb128 0x9
 3512 03a6 93100000 		.4byte	.LASF54
 3513 03aa 09       		.byte	0x9
 3514 03ab 59       		.byte	0x59
 3515 03ac 0A010000 		.4byte	0x10a
 3516 03b0 02       		.byte	0x2
 3517 03b1 23       		.byte	0x23
 3518 03b2 08       		.uleb128 0x8
 3519 03b3 09       		.uleb128 0x9
 3520 03b4 51000000 		.4byte	.LASF55
 3521 03b8 09       		.byte	0x9
 3522 03b9 5B       		.byte	0x5b
 3523 03ba 62030000 		.4byte	0x362
 3524 03be 02       		.byte	0x2
 3525 03bf 23       		.byte	0x23
 3526 03c0 0C       		.uleb128 0xc
 3527 03c1 09       		.uleb128 0x9
 3528 03c2 96040000 		.4byte	.LASF56
 3529 03c6 09       		.byte	0x9
 3530 03c7 5E       		.byte	0x5e
 3531 03c8 8B020000 		.4byte	0x28b
 3532 03cc 02       		.byte	0x2
 3533 03cd 23       		.byte	0x23
 3534 03ce 10       		.uleb128 0x10
 3535 03cf 09       		.uleb128 0x9
 3536 03d0 D20F0000 		.4byte	.LASF57
 3537 03d4 09       		.byte	0x9
 3538 03d5 5F       		.byte	0x5f
 3539 03d6 8B020000 		.4byte	0x28b
 3540 03da 02       		.byte	0x2
 3541 03db 23       		.byte	0x23
 3542 03dc 14       		.uleb128 0x14
 3543 03dd 09       		.uleb128 0x9
 3544 03de 2E0E0000 		.4byte	.LASF58
 3545 03e2 09       		.byte	0x9
 3546 03e3 62       		.byte	0x62
 3547 03e4 8B020000 		.4byte	0x28b
 3548 03e8 02       		.byte	0x2
 3549 03e9 23       		.byte	0x23
 3550 03ea 18       		.uleb128 0x18
 3551 03eb 00       		.byte	0
 3552 03ec 07       		.uleb128 0x7
 3553 03ed 63130000 		.4byte	.LASF59
 3554 03f1 09       		.byte	0x9
 3555 03f2 64       		.byte	0x64
 3556 03f3 8F030000 		.4byte	0x38f
 3557 03f7 08       		.uleb128 0x8
 3558 03f8 C5090000 		.4byte	.LASF60
 3559 03fc 10       		.byte	0x10
 3560 03fd 0A       		.byte	0xa
 3561 03fe 25       		.byte	0x25
ARM GAS  /tmp/ccx4dzgE.s 			page 64


 3562 03ff 2E040000 		.4byte	0x42e
 3563 0403 09       		.uleb128 0x9
 3564 0404 110A0000 		.4byte	.LASF61
 3565 0408 0A       		.byte	0xa
 3566 0409 26       		.byte	0x26
 3567 040a 91020000 		.4byte	0x291
 3568 040e 02       		.byte	0x2
 3569 040f 23       		.byte	0x23
 3570 0410 00       		.uleb128 0
 3571 0411 09       		.uleb128 0x9
 3572 0412 EC010000 		.4byte	.LASF62
 3573 0416 0A       		.byte	0xa
 3574 0417 28       		.byte	0x28
 3575 0418 8B020000 		.4byte	0x28b
 3576 041c 02       		.byte	0x2
 3577 041d 23       		.byte	0x23
 3578 041e 08       		.uleb128 0x8
 3579 041f 09       		.uleb128 0x9
 3580 0420 92130000 		.4byte	.LASF63
 3581 0424 0A       		.byte	0xa
 3582 0425 2A       		.byte	0x2a
 3583 0426 2E040000 		.4byte	0x42e
 3584 042a 02       		.byte	0x2
 3585 042b 23       		.byte	0x23
 3586 042c 0C       		.uleb128 0xc
 3587 042d 00       		.byte	0
 3588 042e 05       		.uleb128 0x5
 3589 042f 04       		.byte	0x4
 3590 0430 F7030000 		.4byte	0x3f7
 3591 0434 07       		.uleb128 0x7
 3592 0435 C5090000 		.4byte	.LASF60
 3593 0439 0A       		.byte	0xa
 3594 043a 2C       		.byte	0x2c
 3595 043b F7030000 		.4byte	0x3f7
 3596 043f 0F       		.uleb128 0xf
 3597 0440 04       		.byte	0x4
 3598 0441 07       		.byte	0x7
 3599 0442 8F       		.byte	0x8f
 3600 0443 74040000 		.4byte	0x474
 3601 0447 10       		.uleb128 0x10
 3602 0448 64120000 		.4byte	.LASF64
 3603 044c 07       		.byte	0x7
 3604 044d 96       		.byte	0x96
 3605 044e 15010000 		.4byte	0x115
 3606 0452 10       		.uleb128 0x10
 3607 0453 F4010000 		.4byte	.LASF65
 3608 0457 07       		.byte	0x7
 3609 0458 9D       		.byte	0x9d
 3610 0459 15010000 		.4byte	0x115
 3611 045d 10       		.uleb128 0x10
 3612 045e 9B050000 		.4byte	.LASF66
 3613 0462 07       		.byte	0x7
 3614 0463 A4       		.byte	0xa4
 3615 0464 6F000000 		.4byte	0x6f
 3616 0468 10       		.uleb128 0x10
 3617 0469 22020000 		.4byte	.LASF67
 3618 046d 07       		.byte	0x7
ARM GAS  /tmp/ccx4dzgE.s 			page 65


 3619 046e AB       		.byte	0xab
 3620 046f 20010000 		.4byte	0x120
 3621 0473 00       		.byte	0
 3622 0474 05       		.uleb128 0x5
 3623 0475 04       		.byte	0x4
 3624 0476 34040000 		.4byte	0x434
 3625 047a 07       		.uleb128 0x7
 3626 047b 830A0000 		.4byte	.LASF68
 3627 047f 07       		.byte	0x7
 3628 0480 DE       		.byte	0xde
 3629 0481 85040000 		.4byte	0x485
 3630 0485 05       		.uleb128 0x5
 3631 0486 04       		.byte	0x4
 3632 0487 8B040000 		.4byte	0x48b
 3633 048b 11       		.uleb128 0x11
 3634 048c 01       		.byte	0x1
 3635 048d 15010000 		.4byte	0x115
 3636 0491 9B040000 		.4byte	0x49b
 3637 0495 12       		.uleb128 0x12
 3638 0496 6F000000 		.4byte	0x6f
 3639 049a 00       		.byte	0
 3640 049b 07       		.uleb128 0x7
 3641 049c 87050000 		.4byte	.LASF69
 3642 04a0 0B       		.byte	0xb
 3643 04a1 30       		.byte	0x30
 3644 04a2 A6040000 		.4byte	0x4a6
 3645 04a6 08       		.uleb128 0x8
 3646 04a7 87050000 		.4byte	.LASF69
 3647 04ab 24       		.byte	0x24
 3648 04ac 0B       		.byte	0xb
 3649 04ad 3E       		.byte	0x3e
 3650 04ae 23050000 		.4byte	0x523
 3651 04b2 09       		.uleb128 0x9
 3652 04b3 2B0F0000 		.4byte	.LASF70
 3653 04b7 0B       		.byte	0xb
 3654 04b8 3F       		.byte	0x3f
 3655 04b9 91020000 		.4byte	0x291
 3656 04bd 02       		.byte	0x2
 3657 04be 23       		.byte	0x23
 3658 04bf 00       		.uleb128 0
 3659 04c0 09       		.uleb128 0x9
 3660 04c1 B7070000 		.4byte	.LASF71
 3661 04c5 0B       		.byte	0xb
 3662 04c6 40       		.byte	0x40
 3663 04c7 8A000000 		.4byte	0x8a
 3664 04cb 02       		.byte	0x2
 3665 04cc 23       		.byte	0x23
 3666 04cd 08       		.uleb128 0x8
 3667 04ce 09       		.uleb128 0x9
 3668 04cf 55020000 		.4byte	.LASF72
 3669 04d3 0B       		.byte	0xb
 3670 04d4 41       		.byte	0x41
 3671 04d5 46050000 		.4byte	0x546
 3672 04d9 02       		.byte	0x2
 3673 04da 23       		.byte	0x23
 3674 04db 0C       		.uleb128 0xc
 3675 04dc 09       		.uleb128 0x9
ARM GAS  /tmp/ccx4dzgE.s 			page 66


 3676 04dd 1C020000 		.4byte	.LASF73
 3677 04e1 0B       		.byte	0xb
 3678 04e2 42       		.byte	0x42
 3679 04e3 46050000 		.4byte	0x546
 3680 04e7 02       		.byte	0x2
 3681 04e8 23       		.byte	0x23
 3682 04e9 10       		.uleb128 0x10
 3683 04ea 09       		.uleb128 0x9
 3684 04eb BE080000 		.4byte	.LASF74
 3685 04ef 0B       		.byte	0xb
 3686 04f0 44       		.byte	0x44
 3687 04f1 46050000 		.4byte	0x546
 3688 04f5 02       		.byte	0x2
 3689 04f6 23       		.byte	0x23
 3690 04f7 14       		.uleb128 0x14
 3691 04f8 09       		.uleb128 0x9
 3692 04f9 9F020000 		.4byte	.LASF75
 3693 04fd 0B       		.byte	0xb
 3694 04fe 45       		.byte	0x45
 3695 04ff 46050000 		.4byte	0x546
 3696 0503 02       		.byte	0x2
 3697 0504 23       		.byte	0x23
 3698 0505 18       		.uleb128 0x18
 3699 0506 09       		.uleb128 0x9
 3700 0507 79020000 		.4byte	.LASF76
 3701 050b 0B       		.byte	0xb
 3702 050c 46       		.byte	0x46
 3703 050d 23050000 		.4byte	0x523
 3704 0511 02       		.byte	0x2
 3705 0512 23       		.byte	0x23
 3706 0513 1C       		.uleb128 0x1c
 3707 0514 09       		.uleb128 0x9
 3708 0515 73040000 		.4byte	.LASF77
 3709 0519 0B       		.byte	0xb
 3710 051a 47       		.byte	0x47
 3711 051b 6F000000 		.4byte	0x6f
 3712 051f 02       		.byte	0x2
 3713 0520 23       		.byte	0x23
 3714 0521 20       		.uleb128 0x20
 3715 0522 00       		.byte	0
 3716 0523 07       		.uleb128 0x7
 3717 0524 B40A0000 		.4byte	.LASF78
 3718 0528 0B       		.byte	0xb
 3719 0529 33       		.byte	0x33
 3720 052a 2E050000 		.4byte	0x52e
 3721 052e 05       		.uleb128 0x5
 3722 052f 04       		.byte	0x4
 3723 0530 34050000 		.4byte	0x534
 3724 0534 13       		.uleb128 0x13
 3725 0535 01       		.byte	0x1
 3726 0536 40050000 		.4byte	0x540
 3727 053a 12       		.uleb128 0x12
 3728 053b 40050000 		.4byte	0x540
 3729 053f 00       		.byte	0
 3730 0540 05       		.uleb128 0x5
 3731 0541 04       		.byte	0x4
 3732 0542 9B040000 		.4byte	0x49b
ARM GAS  /tmp/ccx4dzgE.s 			page 67


 3733 0546 05       		.uleb128 0x5
 3734 0547 04       		.byte	0x4
 3735 0548 95000000 		.4byte	0x95
 3736 054c 07       		.uleb128 0x7
 3737 054d B6120000 		.4byte	.LASF79
 3738 0551 0B       		.byte	0xb
 3739 0552 7B       		.byte	0x7b
 3740 0553 9B040000 		.4byte	0x49b
 3741 0557 07       		.uleb128 0x7
 3742 0558 E6050000 		.4byte	.LASF80
 3743 055c 0B       		.byte	0xb
 3744 055d EE       		.byte	0xee
 3745 055e 9B040000 		.4byte	0x49b
 3746 0562 05       		.uleb128 0x5
 3747 0563 04       		.byte	0x4
 3748 0564 68050000 		.4byte	0x568
 3749 0568 06       		.uleb128 0x6
 3750 0569 95000000 		.4byte	0x95
 3751 056d 14       		.uleb128 0x14
 3752 056e 6C0C0000 		.4byte	.LASF435
 3753 0572 01       		.byte	0x1
 3754 0573 0C       		.byte	0xc
 3755 0574 8C       		.byte	0x8c
 3756 0575 A8070000 		.4byte	0x7a8
 3757 0579 15       		.uleb128 0x15
 3758 057a EE070000 		.4byte	.LASF81
 3759 057e 72       		.sleb128 -14
 3760 057f 15       		.uleb128 0x15
 3761 0580 30080000 		.4byte	.LASF82
 3762 0584 74       		.sleb128 -12
 3763 0585 15       		.uleb128 0x15
 3764 0586 29090000 		.4byte	.LASF83
 3765 058a 75       		.sleb128 -11
 3766 058b 15       		.uleb128 0x15
 3767 058c 20050000 		.4byte	.LASF84
 3768 0590 76       		.sleb128 -10
 3769 0591 15       		.uleb128 0x15
 3770 0592 430A0000 		.4byte	.LASF85
 3771 0596 7B       		.sleb128 -5
 3772 0597 15       		.uleb128 0x15
 3773 0598 960F0000 		.4byte	.LASF86
 3774 059c 7C       		.sleb128 -4
 3775 059d 15       		.uleb128 0x15
 3776 059e CC120000 		.4byte	.LASF87
 3777 05a2 7E       		.sleb128 -2
 3778 05a3 15       		.uleb128 0x15
 3779 05a4 83030000 		.4byte	.LASF88
 3780 05a8 7F       		.sleb128 -1
 3781 05a9 15       		.uleb128 0x15
 3782 05aa 14080000 		.4byte	.LASF89
 3783 05ae 00       		.sleb128 0
 3784 05af 15       		.uleb128 0x15
 3785 05b0 080F0000 		.4byte	.LASF90
 3786 05b4 01       		.sleb128 1
 3787 05b5 15       		.uleb128 0x15
 3788 05b6 55080000 		.4byte	.LASF91
 3789 05ba 02       		.sleb128 2
ARM GAS  /tmp/ccx4dzgE.s 			page 68


 3790 05bb 15       		.uleb128 0x15
 3791 05bc C4110000 		.4byte	.LASF92
 3792 05c0 03       		.sleb128 3
 3793 05c1 15       		.uleb128 0x15
 3794 05c2 4F010000 		.4byte	.LASF93
 3795 05c6 04       		.sleb128 4
 3796 05c7 15       		.uleb128 0x15
 3797 05c8 29100000 		.4byte	.LASF94
 3798 05cc 05       		.sleb128 5
 3799 05cd 15       		.uleb128 0x15
 3800 05ce 350F0000 		.4byte	.LASF95
 3801 05d2 06       		.sleb128 6
 3802 05d3 15       		.uleb128 0x15
 3803 05d4 41070000 		.4byte	.LASF96
 3804 05d8 07       		.sleb128 7
 3805 05d9 15       		.uleb128 0x15
 3806 05da 380E0000 		.4byte	.LASF97
 3807 05de 08       		.sleb128 8
 3808 05df 15       		.uleb128 0x15
 3809 05e0 C1120000 		.4byte	.LASF98
 3810 05e4 09       		.sleb128 9
 3811 05e5 15       		.uleb128 0x15
 3812 05e6 6B120000 		.4byte	.LASF99
 3813 05ea 0A       		.sleb128 10
 3814 05eb 15       		.uleb128 0x15
 3815 05ec E50C0000 		.4byte	.LASF100
 3816 05f0 0B       		.sleb128 11
 3817 05f1 15       		.uleb128 0x15
 3818 05f2 E70B0000 		.4byte	.LASF101
 3819 05f6 0C       		.sleb128 12
 3820 05f7 15       		.uleb128 0x15
 3821 05f8 18040000 		.4byte	.LASF102
 3822 05fc 0D       		.sleb128 13
 3823 05fd 15       		.uleb128 0x15
 3824 05fe 9A100000 		.4byte	.LASF103
 3825 0602 0E       		.sleb128 14
 3826 0603 15       		.uleb128 0x15
 3827 0604 4E0F0000 		.4byte	.LASF104
 3828 0608 0F       		.sleb128 15
 3829 0609 15       		.uleb128 0x15
 3830 060a 73070000 		.4byte	.LASF105
 3831 060e 10       		.sleb128 16
 3832 060f 15       		.uleb128 0x15
 3833 0610 710C0000 		.4byte	.LASF106
 3834 0614 11       		.sleb128 17
 3835 0615 15       		.uleb128 0x15
 3836 0616 570E0000 		.4byte	.LASF107
 3837 061a 12       		.sleb128 18
 3838 061b 15       		.uleb128 0x15
 3839 061c 4C070000 		.4byte	.LASF108
 3840 0620 13       		.sleb128 19
 3841 0621 15       		.uleb128 0x15
 3842 0622 A2050000 		.4byte	.LASF109
 3843 0626 14       		.sleb128 20
 3844 0627 15       		.uleb128 0x15
 3845 0628 13120000 		.4byte	.LASF110
 3846 062c 15       		.sleb128 21
ARM GAS  /tmp/ccx4dzgE.s 			page 69


 3847 062d 15       		.uleb128 0x15
 3848 062e 6E080000 		.4byte	.LASF111
 3849 0632 16       		.sleb128 22
 3850 0633 15       		.uleb128 0x15
 3851 0634 40120000 		.4byte	.LASF112
 3852 0638 17       		.sleb128 23
 3853 0639 15       		.uleb128 0x15
 3854 063a 65090000 		.4byte	.LASF113
 3855 063e 18       		.sleb128 24
 3856 063f 15       		.uleb128 0x15
 3857 0640 42110000 		.4byte	.LASF114
 3858 0644 19       		.sleb128 25
 3859 0645 15       		.uleb128 0x15
 3860 0646 DF020000 		.4byte	.LASF115
 3861 064a 1A       		.sleb128 26
 3862 064b 15       		.uleb128 0x15
 3863 064c 26070000 		.4byte	.LASF116
 3864 0650 1B       		.sleb128 27
 3865 0651 15       		.uleb128 0x15
 3866 0652 A5010000 		.4byte	.LASF117
 3867 0656 1C       		.sleb128 28
 3868 0657 15       		.uleb128 0x15
 3869 0658 E50D0000 		.4byte	.LASF118
 3870 065c 1D       		.sleb128 29
 3871 065d 15       		.uleb128 0x15
 3872 065e 0B060000 		.4byte	.LASF119
 3873 0662 1E       		.sleb128 30
 3874 0663 15       		.uleb128 0x15
 3875 0664 91060000 		.4byte	.LASF120
 3876 0668 1F       		.sleb128 31
 3877 0669 15       		.uleb128 0x15
 3878 066a 89040000 		.4byte	.LASF121
 3879 066e 20       		.sleb128 32
 3880 066f 15       		.uleb128 0x15
 3881 0670 3E0B0000 		.4byte	.LASF122
 3882 0674 21       		.sleb128 33
 3883 0675 15       		.uleb128 0x15
 3884 0676 DB080000 		.4byte	.LASF123
 3885 067a 22       		.sleb128 34
 3886 067b 15       		.uleb128 0x15
 3887 067c 1F0A0000 		.4byte	.LASF124
 3888 0680 23       		.sleb128 35
 3889 0681 15       		.uleb128 0x15
 3890 0682 FB090000 		.4byte	.LASF125
 3891 0686 24       		.sleb128 36
 3892 0687 15       		.uleb128 0x15
 3893 0688 EF0D0000 		.4byte	.LASF126
 3894 068c 25       		.sleb128 37
 3895 068d 15       		.uleb128 0x15
 3896 068e 1C060000 		.4byte	.LASF127
 3897 0692 26       		.sleb128 38
 3898 0693 15       		.uleb128 0x15
 3899 0694 90030000 		.4byte	.LASF128
 3900 0698 27       		.sleb128 39
 3901 0699 15       		.uleb128 0x15
 3902 069a 580D0000 		.4byte	.LASF129
 3903 069e 28       		.sleb128 40
ARM GAS  /tmp/ccx4dzgE.s 			page 70


 3904 069f 15       		.uleb128 0x15
 3905 06a0 000D0000 		.4byte	.LASF130
 3906 06a4 29       		.sleb128 41
 3907 06a5 15       		.uleb128 0x15
 3908 06a6 C80A0000 		.4byte	.LASF131
 3909 06aa 2A       		.sleb128 42
 3910 06ab 15       		.uleb128 0x15
 3911 06ac 29020000 		.4byte	.LASF132
 3912 06b0 2B       		.sleb128 43
 3913 06b1 15       		.uleb128 0x15
 3914 06b2 07000000 		.4byte	.LASF133
 3915 06b6 2C       		.sleb128 44
 3916 06b7 15       		.uleb128 0x15
 3917 06b8 8D070000 		.4byte	.LASF134
 3918 06bc 2D       		.sleb128 45
 3919 06bd 15       		.uleb128 0x15
 3920 06be 8E120000 		.4byte	.LASF135
 3921 06c2 2E       		.sleb128 46
 3922 06c3 15       		.uleb128 0x15
 3923 06c4 FB120000 		.4byte	.LASF136
 3924 06c8 2F       		.sleb128 47
 3925 06c9 15       		.uleb128 0x15
 3926 06ca 02080000 		.4byte	.LASF137
 3927 06ce 30       		.sleb128 48
 3928 06cf 15       		.uleb128 0x15
 3929 06d0 9B120000 		.4byte	.LASF138
 3930 06d4 31       		.sleb128 49
 3931 06d5 15       		.uleb128 0x15
 3932 06d6 0C050000 		.4byte	.LASF139
 3933 06da 32       		.sleb128 50
 3934 06db 15       		.uleb128 0x15
 3935 06dc 45010000 		.4byte	.LASF140
 3936 06e0 33       		.sleb128 51
 3937 06e1 15       		.uleb128 0x15
 3938 06e2 8B0A0000 		.4byte	.LASF141
 3939 06e6 34       		.sleb128 52
 3940 06e7 15       		.uleb128 0x15
 3941 06e8 47090000 		.4byte	.LASF142
 3942 06ec 35       		.sleb128 53
 3943 06ed 15       		.uleb128 0x15
 3944 06ee FD0A0000 		.4byte	.LASF143
 3945 06f2 36       		.sleb128 54
 3946 06f3 15       		.uleb128 0x15
 3947 06f4 CB090000 		.4byte	.LASF144
 3948 06f8 37       		.sleb128 55
 3949 06f9 15       		.uleb128 0x15
 3950 06fa 99080000 		.4byte	.LASF145
 3951 06fe 38       		.sleb128 56
 3952 06ff 15       		.uleb128 0x15
 3953 0700 E4000000 		.4byte	.LASF146
 3954 0704 39       		.sleb128 57
 3955 0705 15       		.uleb128 0x15
 3956 0706 E7130000 		.4byte	.LASF147
 3957 070a 3A       		.sleb128 58
 3958 070b 15       		.uleb128 0x15
 3959 070c 0B0C0000 		.4byte	.LASF148
 3960 0710 3B       		.sleb128 59
ARM GAS  /tmp/ccx4dzgE.s 			page 71


 3961 0711 15       		.uleb128 0x15
 3962 0712 57040000 		.4byte	.LASF149
 3963 0716 3C       		.sleb128 60
 3964 0717 15       		.uleb128 0x15
 3965 0718 E30F0000 		.4byte	.LASF150
 3966 071c 3D       		.sleb128 61
 3967 071d 15       		.uleb128 0x15
 3968 071e ED090000 		.4byte	.LASF151
 3969 0722 3E       		.sleb128 62
 3970 0723 15       		.uleb128 0x15
 3971 0724 280C0000 		.4byte	.LASF152
 3972 0728 3F       		.sleb128 63
 3973 0729 15       		.uleb128 0x15
 3974 072a C5010000 		.4byte	.LASF153
 3975 072e C000     		.sleb128 64
 3976 0730 15       		.uleb128 0x15
 3977 0731 490E0000 		.4byte	.LASF154
 3978 0735 C100     		.sleb128 65
 3979 0737 15       		.uleb128 0x15
 3980 0738 AD040000 		.4byte	.LASF155
 3981 073c C200     		.sleb128 66
 3982 073e 15       		.uleb128 0x15
 3983 073f D9070000 		.4byte	.LASF156
 3984 0743 C300     		.sleb128 67
 3985 0745 15       		.uleb128 0x15
 3986 0746 AE020000 		.4byte	.LASF157
 3987 074a C400     		.sleb128 68
 3988 074c 15       		.uleb128 0x15
 3989 074d 600F0000 		.4byte	.LASF158
 3990 0751 C500     		.sleb128 69
 3991 0753 15       		.uleb128 0x15
 3992 0754 A5070000 		.4byte	.LASF159
 3993 0758 C600     		.sleb128 70
 3994 075a 15       		.uleb128 0x15
 3995 075b D3010000 		.4byte	.LASF160
 3996 075f C700     		.sleb128 71
 3997 0761 15       		.uleb128 0x15
 3998 0762 C50F0000 		.4byte	.LASF161
 3999 0766 C800     		.sleb128 72
 4000 0768 15       		.uleb128 0x15
 4001 0769 2B0D0000 		.4byte	.LASF162
 4002 076d C900     		.sleb128 73
 4003 076f 15       		.uleb128 0x15
 4004 0770 A9110000 		.4byte	.LASF163
 4005 0774 CA00     		.sleb128 74
 4006 0776 15       		.uleb128 0x15
 4007 0777 DD120000 		.4byte	.LASF164
 4008 077b CB00     		.sleb128 75
 4009 077d 15       		.uleb128 0x15
 4010 077e 0B020000 		.4byte	.LASF165
 4011 0782 CC00     		.sleb128 76
 4012 0784 15       		.uleb128 0x15
 4013 0785 050A0000 		.4byte	.LASF166
 4014 0789 CD00     		.sleb128 77
 4015 078b 15       		.uleb128 0x15
 4016 078c 63010000 		.4byte	.LASF167
 4017 0790 CE00     		.sleb128 78
ARM GAS  /tmp/ccx4dzgE.s 			page 72


 4018 0792 15       		.uleb128 0x15
 4019 0793 4E0D0000 		.4byte	.LASF168
 4020 0797 CF00     		.sleb128 79
 4021 0799 15       		.uleb128 0x15
 4022 079a 33070000 		.4byte	.LASF169
 4023 079e D000     		.sleb128 80
 4024 07a0 15       		.uleb128 0x15
 4025 07a1 710A0000 		.4byte	.LASF170
 4026 07a5 D100     		.sleb128 81
 4027 07a7 00       		.byte	0
 4028 07a8 16       		.uleb128 0x16
 4029 07a9 B6000000 		.4byte	0xb6
 4030 07ad B8070000 		.4byte	0x7b8
 4031 07b1 17       		.uleb128 0x17
 4032 07b2 68000000 		.4byte	0x68
 4033 07b6 01       		.byte	0x1
 4034 07b7 00       		.byte	0
 4035 07b8 16       		.uleb128 0x16
 4036 07b9 B6000000 		.4byte	0xb6
 4037 07bd C8070000 		.4byte	0x7c8
 4038 07c1 17       		.uleb128 0x17
 4039 07c2 68000000 		.4byte	0x68
 4040 07c6 0E       		.byte	0xe
 4041 07c7 00       		.byte	0
 4042 07c8 0E       		.uleb128 0xe
 4043 07c9 AB000000 		.4byte	0xab
 4044 07cd 18       		.uleb128 0x18
 4045 07ce 88       		.byte	0x88
 4046 07cf 0C       		.byte	0xc
 4047 07d0 DB02     		.2byte	0x2db
 4048 07d2 9A090000 		.4byte	0x99a
 4049 07d6 0D       		.uleb128 0xd
 4050 07d7 435200   		.ascii	"CR\000"
 4051 07da 0C       		.byte	0xc
 4052 07db DD02     		.2byte	0x2dd
 4053 07dd 85030000 		.4byte	0x385
 4054 07e1 02       		.byte	0x2
 4055 07e2 23       		.byte	0x23
 4056 07e3 00       		.uleb128 0
 4057 07e4 19       		.uleb128 0x19
 4058 07e5 3F090000 		.4byte	.LASF171
 4059 07e9 0C       		.byte	0xc
 4060 07ea DE02     		.2byte	0x2de
 4061 07ec 85030000 		.4byte	0x385
 4062 07f0 02       		.byte	0x2
 4063 07f1 23       		.byte	0x23
 4064 07f2 04       		.uleb128 0x4
 4065 07f3 19       		.uleb128 0x19
 4066 07f4 06070000 		.4byte	.LASF172
 4067 07f8 0C       		.byte	0xc
 4068 07f9 DF02     		.2byte	0x2df
 4069 07fb 85030000 		.4byte	0x385
 4070 07ff 02       		.byte	0x2
 4071 0800 23       		.byte	0x23
 4072 0801 08       		.uleb128 0x8
 4073 0802 0D       		.uleb128 0xd
 4074 0803 43495200 		.ascii	"CIR\000"
ARM GAS  /tmp/ccx4dzgE.s 			page 73


 4075 0807 0C       		.byte	0xc
 4076 0808 E002     		.2byte	0x2e0
 4077 080a 85030000 		.4byte	0x385
 4078 080e 02       		.byte	0x2
 4079 080f 23       		.byte	0x23
 4080 0810 0C       		.uleb128 0xc
 4081 0811 19       		.uleb128 0x19
 4082 0812 27130000 		.4byte	.LASF173
 4083 0816 0C       		.byte	0xc
 4084 0817 E102     		.2byte	0x2e1
 4085 0819 85030000 		.4byte	0x385
 4086 081d 02       		.byte	0x2
 4087 081e 23       		.byte	0x23
 4088 081f 10       		.uleb128 0x10
 4089 0820 19       		.uleb128 0x19
 4090 0821 DA0F0000 		.4byte	.LASF174
 4091 0825 0C       		.byte	0xc
 4092 0826 E202     		.2byte	0x2e2
 4093 0828 85030000 		.4byte	0x385
 4094 082c 02       		.byte	0x2
 4095 082d 23       		.byte	0x23
 4096 082e 14       		.uleb128 0x14
 4097 082f 19       		.uleb128 0x19
 4098 0830 A40C0000 		.4byte	.LASF175
 4099 0834 0C       		.byte	0xc
 4100 0835 E302     		.2byte	0x2e3
 4101 0837 85030000 		.4byte	0x385
 4102 083b 02       		.byte	0x2
 4103 083c 23       		.byte	0x23
 4104 083d 18       		.uleb128 0x18
 4105 083e 19       		.uleb128 0x19
 4106 083f 35040000 		.4byte	.LASF176
 4107 0843 0C       		.byte	0xc
 4108 0844 E402     		.2byte	0x2e4
 4109 0846 B6000000 		.4byte	0xb6
 4110 084a 02       		.byte	0x2
 4111 084b 23       		.byte	0x23
 4112 084c 1C       		.uleb128 0x1c
 4113 084d 19       		.uleb128 0x19
 4114 084e F70C0000 		.4byte	.LASF177
 4115 0852 0C       		.byte	0xc
 4116 0853 E502     		.2byte	0x2e5
 4117 0855 85030000 		.4byte	0x385
 4118 0859 02       		.byte	0x2
 4119 085a 23       		.byte	0x23
 4120 085b 20       		.uleb128 0x20
 4121 085c 19       		.uleb128 0x19
 4122 085d 4F0A0000 		.4byte	.LASF178
 4123 0861 0C       		.byte	0xc
 4124 0862 E602     		.2byte	0x2e6
 4125 0864 85030000 		.4byte	0x385
 4126 0868 02       		.byte	0x2
 4127 0869 23       		.byte	0x23
 4128 086a 24       		.uleb128 0x24
 4129 086b 19       		.uleb128 0x19
 4130 086c 3F040000 		.4byte	.LASF179
 4131 0870 0C       		.byte	0xc
ARM GAS  /tmp/ccx4dzgE.s 			page 74


 4132 0871 E702     		.2byte	0x2e7
 4133 0873 A8070000 		.4byte	0x7a8
 4134 0877 02       		.byte	0x2
 4135 0878 23       		.byte	0x23
 4136 0879 28       		.uleb128 0x28
 4137 087a 19       		.uleb128 0x19
 4138 087b 720F0000 		.4byte	.LASF180
 4139 087f 0C       		.byte	0xc
 4140 0880 E802     		.2byte	0x2e8
 4141 0882 85030000 		.4byte	0x385
 4142 0886 02       		.byte	0x2
 4143 0887 23       		.byte	0x23
 4144 0888 30       		.uleb128 0x30
 4145 0889 19       		.uleb128 0x19
 4146 088a 7F050000 		.4byte	.LASF181
 4147 088e 0C       		.byte	0xc
 4148 088f E902     		.2byte	0x2e9
 4149 0891 85030000 		.4byte	0x385
 4150 0895 02       		.byte	0x2
 4151 0896 23       		.byte	0x23
 4152 0897 34       		.uleb128 0x34
 4153 0898 19       		.uleb128 0x19
 4154 0899 DF130000 		.4byte	.LASF182
 4155 089d 0C       		.byte	0xc
 4156 089e EA02     		.2byte	0x2ea
 4157 08a0 85030000 		.4byte	0x385
 4158 08a4 02       		.byte	0x2
 4159 08a5 23       		.byte	0x23
 4160 08a6 38       		.uleb128 0x38
 4161 08a7 19       		.uleb128 0x19
 4162 08a8 F3040000 		.4byte	.LASF183
 4163 08ac 0C       		.byte	0xc
 4164 08ad EB02     		.2byte	0x2eb
 4165 08af B6000000 		.4byte	0xb6
 4166 08b3 02       		.byte	0x2
 4167 08b4 23       		.byte	0x23
 4168 08b5 3C       		.uleb128 0x3c
 4169 08b6 19       		.uleb128 0x19
 4170 08b7 0F0D0000 		.4byte	.LASF184
 4171 08bb 0C       		.byte	0xc
 4172 08bc EC02     		.2byte	0x2ec
 4173 08be 85030000 		.4byte	0x385
 4174 08c2 02       		.byte	0x2
 4175 08c3 23       		.byte	0x23
 4176 08c4 40       		.uleb128 0x40
 4177 08c5 19       		.uleb128 0x19
 4178 08c6 68030000 		.4byte	.LASF185
 4179 08ca 0C       		.byte	0xc
 4180 08cb ED02     		.2byte	0x2ed
 4181 08cd 85030000 		.4byte	0x385
 4182 08d1 02       		.byte	0x2
 4183 08d2 23       		.byte	0x23
 4184 08d3 44       		.uleb128 0x44
 4185 08d4 19       		.uleb128 0x19
 4186 08d5 FD040000 		.4byte	.LASF186
 4187 08d9 0C       		.byte	0xc
 4188 08da EE02     		.2byte	0x2ee
ARM GAS  /tmp/ccx4dzgE.s 			page 75


 4189 08dc A8070000 		.4byte	0x7a8
 4190 08e0 02       		.byte	0x2
 4191 08e1 23       		.byte	0x23
 4192 08e2 48       		.uleb128 0x48
 4193 08e3 19       		.uleb128 0x19
 4194 08e4 79030000 		.4byte	.LASF187
 4195 08e8 0C       		.byte	0xc
 4196 08e9 EF02     		.2byte	0x2ef
 4197 08eb 85030000 		.4byte	0x385
 4198 08ef 02       		.byte	0x2
 4199 08f0 23       		.byte	0x23
 4200 08f1 50       		.uleb128 0x50
 4201 08f2 19       		.uleb128 0x19
 4202 08f3 3D020000 		.4byte	.LASF188
 4203 08f7 0C       		.byte	0xc
 4204 08f8 F002     		.2byte	0x2f0
 4205 08fa 85030000 		.4byte	0x385
 4206 08fe 02       		.byte	0x2
 4207 08ff 23       		.byte	0x23
 4208 0900 54       		.uleb128 0x54
 4209 0901 19       		.uleb128 0x19
 4210 0902 CE0E0000 		.4byte	.LASF189
 4211 0906 0C       		.byte	0xc
 4212 0907 F102     		.2byte	0x2f1
 4213 0909 85030000 		.4byte	0x385
 4214 090d 02       		.byte	0x2
 4215 090e 23       		.byte	0x23
 4216 090f 58       		.uleb128 0x58
 4217 0910 19       		.uleb128 0x19
 4218 0911 69040000 		.4byte	.LASF190
 4219 0915 0C       		.byte	0xc
 4220 0916 F202     		.2byte	0x2f2
 4221 0918 B6000000 		.4byte	0xb6
 4222 091c 02       		.byte	0x2
 4223 091d 23       		.byte	0x23
 4224 091e 5C       		.uleb128 0x5c
 4225 091f 19       		.uleb128 0x19
 4226 0920 DD0B0000 		.4byte	.LASF191
 4227 0924 0C       		.byte	0xc
 4228 0925 F302     		.2byte	0x2f3
 4229 0927 85030000 		.4byte	0x385
 4230 092b 02       		.byte	0x2
 4231 092c 23       		.byte	0x23
 4232 092d 60       		.uleb128 0x60
 4233 092e 19       		.uleb128 0x19
 4234 092f 960A0000 		.4byte	.LASF192
 4235 0933 0C       		.byte	0xc
 4236 0934 F402     		.2byte	0x2f4
 4237 0936 85030000 		.4byte	0x385
 4238 093a 02       		.byte	0x2
 4239 093b 23       		.byte	0x23
 4240 093c 64       		.uleb128 0x64
 4241 093d 19       		.uleb128 0x19
 4242 093e 16050000 		.4byte	.LASF193
 4243 0942 0C       		.byte	0xc
 4244 0943 F502     		.2byte	0x2f5
 4245 0945 A8070000 		.4byte	0x7a8
ARM GAS  /tmp/ccx4dzgE.s 			page 76


 4246 0949 02       		.byte	0x2
 4247 094a 23       		.byte	0x23
 4248 094b 68       		.uleb128 0x68
 4249 094c 19       		.uleb128 0x19
 4250 094d 76060000 		.4byte	.LASF194
 4251 0951 0C       		.byte	0xc
 4252 0952 F602     		.2byte	0x2f6
 4253 0954 85030000 		.4byte	0x385
 4254 0958 02       		.byte	0x2
 4255 0959 23       		.byte	0x23
 4256 095a 70       		.uleb128 0x70
 4257 095b 0D       		.uleb128 0xd
 4258 095c 43535200 		.ascii	"CSR\000"
 4259 0960 0C       		.byte	0xc
 4260 0961 F702     		.2byte	0x2f7
 4261 0963 85030000 		.4byte	0x385
 4262 0967 02       		.byte	0x2
 4263 0968 23       		.byte	0x23
 4264 0969 74       		.uleb128 0x74
 4265 096a 19       		.uleb128 0x19
 4266 096b 7A040000 		.4byte	.LASF195
 4267 096f 0C       		.byte	0xc
 4268 0970 F802     		.2byte	0x2f8
 4269 0972 A8070000 		.4byte	0x7a8
 4270 0976 02       		.byte	0x2
 4271 0977 23       		.byte	0x23
 4272 0978 78       		.uleb128 0x78
 4273 0979 19       		.uleb128 0x19
 4274 097a 190A0000 		.4byte	.LASF196
 4275 097e 0C       		.byte	0xc
 4276 097f F902     		.2byte	0x2f9
 4277 0981 85030000 		.4byte	0x385
 4278 0985 03       		.byte	0x3
 4279 0986 23       		.byte	0x23
 4280 0987 8001     		.uleb128 0x80
 4281 0989 19       		.uleb128 0x19
 4282 098a 2D000000 		.4byte	.LASF197
 4283 098e 0C       		.byte	0xc
 4284 098f FA02     		.2byte	0x2fa
 4285 0991 85030000 		.4byte	0x385
 4286 0995 03       		.byte	0x3
 4287 0996 23       		.byte	0x23
 4288 0997 8401     		.uleb128 0x84
 4289 0999 00       		.byte	0
 4290 099a 1A       		.uleb128 0x1a
 4291 099b FD0F0000 		.4byte	.LASF198
 4292 099f 0C       		.byte	0xc
 4293 09a0 FB02     		.2byte	0x2fb
 4294 09a2 CD070000 		.4byte	0x7cd
 4295 09a6 1A       		.uleb128 0x1a
 4296 09a7 BA0F0000 		.4byte	.LASF199
 4297 09ab 0D       		.byte	0xd
 4298 09ac E305     		.2byte	0x5e3
 4299 09ae B6000000 		.4byte	0xb6
 4300 09b2 05       		.uleb128 0x5
 4301 09b3 04       		.byte	0x4
 4302 09b4 85030000 		.4byte	0x385
ARM GAS  /tmp/ccx4dzgE.s 			page 77


 4303 09b8 07       		.uleb128 0x7
 4304 09b9 D30B0000 		.4byte	.LASF200
 4305 09bd 0E       		.byte	0xe
 4306 09be DC       		.byte	0xdc
 4307 09bf C3090000 		.4byte	0x9c3
 4308 09c3 1B       		.uleb128 0x1b
 4309 09c4 D30B0000 		.4byte	.LASF200
 4310 09c8 9801     		.2byte	0x198
 4311 09ca 0F       		.byte	0xf
 4312 09cb 6501     		.2byte	0x165
 4313 09cd 1C0B0000 		.4byte	0xb1c
 4314 09d1 19       		.uleb128 0x19
 4315 09d2 7A010000 		.4byte	.LASF201
 4316 09d6 0F       		.byte	0xf
 4317 09d7 6901     		.2byte	0x169
 4318 09d9 4E0B0000 		.4byte	0xb4e
 4319 09dd 02       		.byte	0x2
 4320 09de 23       		.byte	0x23
 4321 09df 00       		.uleb128 0
 4322 09e0 19       		.uleb128 0x19
 4323 09e1 73010000 		.4byte	.LASF202
 4324 09e5 0F       		.byte	0xf
 4325 09e6 6D01     		.2byte	0x16d
 4326 09e8 54150000 		.4byte	0x1554
 4327 09ec 02       		.byte	0x2
 4328 09ed 23       		.byte	0x23
 4329 09ee 04       		.uleb128 0x4
 4330 09ef 19       		.uleb128 0x19
 4331 09f0 3D060000 		.4byte	.LASF203
 4332 09f4 0F       		.byte	0xf
 4333 09f5 7101     		.2byte	0x171
 4334 09f7 A0000000 		.4byte	0xa0
 4335 09fb 02       		.byte	0x2
 4336 09fc 23       		.byte	0x23
 4337 09fd 08       		.uleb128 0x8
 4338 09fe 19       		.uleb128 0x19
 4339 09ff 75050000 		.4byte	.LASF204
 4340 0a03 0F       		.byte	0xf
 4341 0a04 7501     		.2byte	0x175
 4342 0a06 A0000000 		.4byte	0xa0
 4343 0a0a 02       		.byte	0x2
 4344 0a0b 23       		.byte	0x23
 4345 0a0c 0A       		.uleb128 0xa
 4346 0a0d 0D       		.uleb128 0xd
 4347 0a0e 65706300 		.ascii	"epc\000"
 4348 0a12 0F       		.byte	0xf
 4349 0a13 7901     		.2byte	0x179
 4350 0a15 5F150000 		.4byte	0x155f
 4351 0a19 02       		.byte	0x2
 4352 0a1a 23       		.byte	0x23
 4353 0a1b 0C       		.uleb128 0xc
 4354 0a1c 19       		.uleb128 0x19
 4355 0a1d B00F0000 		.4byte	.LASF205
 4356 0a21 0F       		.byte	0xf
 4357 0a22 8001     		.2byte	0x180
 4358 0a24 7A150000 		.4byte	0x157a
 4359 0a28 02       		.byte	0x2
ARM GAS  /tmp/ccx4dzgE.s 			page 78


 4360 0a29 23       		.byte	0x23
 4361 0a2a 1C       		.uleb128 0x1c
 4362 0a2b 19       		.uleb128 0x19
 4363 0a2c F0120000 		.4byte	.LASF206
 4364 0a30 0F       		.byte	0xf
 4365 0a31 8701     		.2byte	0x187
 4366 0a33 7A150000 		.4byte	0x157a
 4367 0a37 02       		.byte	0x2
 4368 0a38 23       		.byte	0x23
 4369 0a39 28       		.uleb128 0x28
 4370 0a3a 19       		.uleb128 0x19
 4371 0a3b A4040000 		.4byte	.LASF207
 4372 0a3f 0F       		.byte	0xf
 4373 0a40 8B01     		.2byte	0x18b
 4374 0a42 B20B0000 		.4byte	0xbb2
 4375 0a46 02       		.byte	0x2
 4376 0a47 23       		.byte	0x23
 4377 0a48 34       		.uleb128 0x34
 4378 0a49 19       		.uleb128 0x19
 4379 0a4a 3B0A0000 		.4byte	.LASF208
 4380 0a4e 0F       		.byte	0xf
 4381 0a4f 8F01     		.2byte	0x18f
 4382 0a51 46050000 		.4byte	0x546
 4383 0a55 02       		.byte	0x2
 4384 0a56 23       		.byte	0x23
 4385 0a57 38       		.uleb128 0x38
 4386 0a58 19       		.uleb128 0x19
 4387 0a59 5B050000 		.4byte	.LASF209
 4388 0a5d 0F       		.byte	0xf
 4389 0a5e 9301     		.2byte	0x193
 4390 0a60 8A000000 		.4byte	0x8a
 4391 0a64 02       		.byte	0x2
 4392 0a65 23       		.byte	0x23
 4393 0a66 3C       		.uleb128 0x3c
 4394 0a67 19       		.uleb128 0x19
 4395 0a68 65080000 		.4byte	.LASF210
 4396 0a6c 0F       		.byte	0xf
 4397 0a6d 9701     		.2byte	0x197
 4398 0a6f 2C0C0000 		.4byte	0xc2c
 4399 0a73 02       		.byte	0x2
 4400 0a74 23       		.byte	0x23
 4401 0a75 40       		.uleb128 0x40
 4402 0a76 19       		.uleb128 0x19
 4403 0a77 CA060000 		.4byte	.LASF211
 4404 0a7b 0F       		.byte	0xf
 4405 0a7c 9B01     		.2byte	0x19b
 4406 0a7e 8A150000 		.4byte	0x158a
 4407 0a82 02       		.byte	0x2
 4408 0a83 23       		.byte	0x23
 4409 0a84 44       		.uleb128 0x44
 4410 0a85 19       		.uleb128 0x19
 4411 0a86 46080000 		.4byte	.LASF212
 4412 0a8a 0F       		.byte	0xf
 4413 0a8b 9F01     		.2byte	0x19f
 4414 0a8d A0000000 		.4byte	0xa0
 4415 0a91 02       		.byte	0x2
 4416 0a92 23       		.byte	0x23
ARM GAS  /tmp/ccx4dzgE.s 			page 79


 4417 0a93 4C       		.uleb128 0x4c
 4418 0a94 19       		.uleb128 0x19
 4419 0a95 4D080000 		.4byte	.LASF213
 4420 0a99 0F       		.byte	0xf
 4421 0a9a A301     		.2byte	0x1a3
 4422 0a9c 95000000 		.4byte	0x95
 4423 0aa0 02       		.byte	0x2
 4424 0aa1 23       		.byte	0x23
 4425 0aa2 4E       		.uleb128 0x4e
 4426 0aa3 19       		.uleb128 0x19
 4427 0aa4 FF130000 		.4byte	.LASF214
 4428 0aa8 0F       		.byte	0xf
 4429 0aa9 A701     		.2byte	0x1a7
 4430 0aab 95000000 		.4byte	0x95
 4431 0aaf 02       		.byte	0x2
 4432 0ab0 23       		.byte	0x23
 4433 0ab1 4F       		.uleb128 0x4f
 4434 0ab2 0D       		.uleb128 0xd
 4435 0ab3 6F746700 		.ascii	"otg\000"
 4436 0ab7 0F       		.byte	0xf
 4437 0ab8 AF01     		.2byte	0x1af
 4438 0aba 9A150000 		.4byte	0x159a
 4439 0abe 02       		.byte	0x2
 4440 0abf 23       		.byte	0x23
 4441 0ac0 50       		.uleb128 0x50
 4442 0ac1 19       		.uleb128 0x19
 4443 0ac2 D20C0000 		.4byte	.LASF215
 4444 0ac6 0F       		.byte	0xf
 4445 0ac7 B301     		.2byte	0x1b3
 4446 0ac9 A0150000 		.4byte	0x15a0
 4447 0acd 02       		.byte	0x2
 4448 0ace 23       		.byte	0x23
 4449 0acf 54       		.uleb128 0x54
 4450 0ad0 19       		.uleb128 0x19
 4451 0ad1 A5130000 		.4byte	.LASF216
 4452 0ad5 0F       		.byte	0xf
 4453 0ad6 B701     		.2byte	0x1b7
 4454 0ad8 B6000000 		.4byte	0xb6
 4455 0adc 02       		.byte	0x2
 4456 0add 23       		.byte	0x23
 4457 0ade 58       		.uleb128 0x58
 4458 0adf 19       		.uleb128 0x19
 4459 0ae0 2C0B0000 		.4byte	.LASF217
 4460 0ae4 0F       		.byte	0xf
 4461 0ae5 BB01     		.2byte	0x1bb
 4462 0ae7 B6000000 		.4byte	0xb6
 4463 0aeb 02       		.byte	0x2
 4464 0aec 23       		.byte	0x23
 4465 0aed 5C       		.uleb128 0x5c
 4466 0aee 19       		.uleb128 0x19
 4467 0aef CD080000 		.4byte	.LASF218
 4468 0af3 0F       		.byte	0xf
 4469 0af4 BF01     		.2byte	0x1bf
 4470 0af6 8B020000 		.4byte	0x28b
 4471 0afa 02       		.byte	0x2
 4472 0afb 23       		.byte	0x23
 4473 0afc 60       		.uleb128 0x60
ARM GAS  /tmp/ccx4dzgE.s 			page 80


 4474 0afd 19       		.uleb128 0x19
 4475 0afe F7020000 		.4byte	.LASF219
 4476 0b02 0F       		.byte	0xf
 4477 0b03 C301     		.2byte	0x1c3
 4478 0b05 8B020000 		.4byte	0x28b
 4479 0b09 02       		.byte	0x2
 4480 0b0a 23       		.byte	0x23
 4481 0b0b 64       		.uleb128 0x64
 4482 0b0c 19       		.uleb128 0x19
 4483 0b0d A80F0000 		.4byte	.LASF220
 4484 0b11 0F       		.byte	0xf
 4485 0b12 C701     		.2byte	0x1c7
 4486 0b14 AB150000 		.4byte	0x15ab
 4487 0b18 02       		.byte	0x2
 4488 0b19 23       		.byte	0x23
 4489 0b1a 68       		.uleb128 0x68
 4490 0b1b 00       		.byte	0
 4491 0b1c 07       		.uleb128 0x7
 4492 0b1d 0B120000 		.4byte	.LASF221
 4493 0b21 0E       		.byte	0xe
 4494 0b22 E1       		.byte	0xe1
 4495 0b23 95000000 		.4byte	0x95
 4496 0b27 1C       		.uleb128 0x1c
 4497 0b28 01       		.byte	0x1
 4498 0b29 0E       		.byte	0xe
 4499 0b2a E6       		.byte	0xe6
 4500 0b2b 4E0B0000 		.4byte	0xb4e
 4501 0b2f 15       		.uleb128 0x15
 4502 0b30 86060000 		.4byte	.LASF222
 4503 0b34 00       		.sleb128 0
 4504 0b35 15       		.uleb128 0x15
 4505 0b36 020C0000 		.4byte	.LASF223
 4506 0b3a 01       		.sleb128 1
 4507 0b3b 15       		.uleb128 0x15
 4508 0b3c E3090000 		.4byte	.LASF224
 4509 0b40 02       		.sleb128 2
 4510 0b41 15       		.uleb128 0x15
 4511 0b42 19070000 		.4byte	.LASF225
 4512 0b46 03       		.sleb128 3
 4513 0b47 15       		.uleb128 0x15
 4514 0b48 9A010000 		.4byte	.LASF226
 4515 0b4c 04       		.sleb128 4
 4516 0b4d 00       		.byte	0
 4517 0b4e 07       		.uleb128 0x7
 4518 0b4f E8080000 		.4byte	.LASF227
 4519 0b53 0E       		.byte	0xe
 4520 0b54 EC       		.byte	0xec
 4521 0b55 270B0000 		.4byte	0xb27
 4522 0b59 1C       		.uleb128 0x1c
 4523 0b5a 01       		.byte	0x1
 4524 0b5b 0E       		.byte	0xe
 4525 0b5c F1       		.byte	0xf1
 4526 0b5d 740B0000 		.4byte	0xb74
 4527 0b61 15       		.uleb128 0x15
 4528 0b62 14130000 		.4byte	.LASF228
 4529 0b66 00       		.sleb128 0
 4530 0b67 15       		.uleb128 0x15
ARM GAS  /tmp/ccx4dzgE.s 			page 81


 4531 0b68 61070000 		.4byte	.LASF229
 4532 0b6c 01       		.sleb128 1
 4533 0b6d 15       		.uleb128 0x15
 4534 0b6e DA030000 		.4byte	.LASF230
 4535 0b72 02       		.sleb128 2
 4536 0b73 00       		.byte	0
 4537 0b74 07       		.uleb128 0x7
 4538 0b75 47020000 		.4byte	.LASF231
 4539 0b79 0E       		.byte	0xe
 4540 0b7a F5       		.byte	0xf5
 4541 0b7b 590B0000 		.4byte	0xb59
 4542 0b7f 1C       		.uleb128 0x1c
 4543 0b80 01       		.byte	0x1
 4544 0b81 0E       		.byte	0xe
 4545 0b82 FA       		.byte	0xfa
 4546 0b83 B20B0000 		.4byte	0xbb2
 4547 0b87 15       		.uleb128 0x15
 4548 0b88 4A030000 		.4byte	.LASF232
 4549 0b8c 00       		.sleb128 0
 4550 0b8d 15       		.uleb128 0x15
 4551 0b8e D9000000 		.4byte	.LASF233
 4552 0b92 01       		.sleb128 1
 4553 0b93 15       		.uleb128 0x15
 4554 0b94 BE0C0000 		.4byte	.LASF234
 4555 0b98 02       		.sleb128 2
 4556 0b99 15       		.uleb128 0x15
 4557 0b9a 72130000 		.4byte	.LASF235
 4558 0b9e 03       		.sleb128 3
 4559 0b9f 15       		.uleb128 0x15
 4560 0ba0 CB130000 		.4byte	.LASF236
 4561 0ba4 04       		.sleb128 4
 4562 0ba5 15       		.uleb128 0x15
 4563 0ba6 4F130000 		.4byte	.LASF237
 4564 0baa 05       		.sleb128 5
 4565 0bab 15       		.uleb128 0x15
 4566 0bac 01090000 		.4byte	.LASF238
 4567 0bb0 06       		.sleb128 6
 4568 0bb1 00       		.byte	0
 4569 0bb2 1A       		.uleb128 0x1a
 4570 0bb3 FD010000 		.4byte	.LASF239
 4571 0bb7 0E       		.byte	0xe
 4572 0bb8 0201     		.2byte	0x102
 4573 0bba 7F0B0000 		.4byte	0xb7f
 4574 0bbe 1D       		.uleb128 0x1d
 4575 0bbf 01       		.byte	0x1
 4576 0bc0 0E       		.byte	0xe
 4577 0bc1 0701     		.2byte	0x107
 4578 0bc3 EC0B0000 		.4byte	0xbec
 4579 0bc7 15       		.uleb128 0x15
 4580 0bc8 48100000 		.4byte	.LASF240
 4581 0bcc 00       		.sleb128 0
 4582 0bcd 15       		.uleb128 0x15
 4583 0bce 5E020000 		.4byte	.LASF241
 4584 0bd2 01       		.sleb128 1
 4585 0bd3 15       		.uleb128 0x15
 4586 0bd4 110F0000 		.4byte	.LASF242
 4587 0bd8 02       		.sleb128 2
ARM GAS  /tmp/ccx4dzgE.s 			page 82


 4588 0bd9 15       		.uleb128 0x15
 4589 0bda 2E120000 		.4byte	.LASF243
 4590 0bde 03       		.sleb128 3
 4591 0bdf 15       		.uleb128 0x15
 4592 0be0 97090000 		.4byte	.LASF244
 4593 0be4 04       		.sleb128 4
 4594 0be5 15       		.uleb128 0x15
 4595 0be6 C8030000 		.4byte	.LASF245
 4596 0bea 05       		.sleb128 5
 4597 0beb 00       		.byte	0
 4598 0bec 1A       		.uleb128 0x1a
 4599 0bed EA060000 		.4byte	.LASF246
 4600 0bf1 0E       		.byte	0xe
 4601 0bf2 0E01     		.2byte	0x10e
 4602 0bf4 BE0B0000 		.4byte	0xbbe
 4603 0bf8 18       		.uleb128 0x18
 4604 0bf9 08       		.byte	0x8
 4605 0bfa 0E       		.byte	0xe
 4606 0bfb 1301     		.2byte	0x113
 4607 0bfd 200C0000 		.4byte	0xc20
 4608 0c01 19       		.uleb128 0x19
 4609 0c02 FE060000 		.4byte	.LASF247
 4610 0c06 0E       		.byte	0xe
 4611 0c07 1701     		.2byte	0x117
 4612 0c09 8A000000 		.4byte	0x8a
 4613 0c0d 02       		.byte	0x2
 4614 0c0e 23       		.byte	0x23
 4615 0c0f 00       		.uleb128 0
 4616 0c10 19       		.uleb128 0x19
 4617 0c11 B9050000 		.4byte	.LASF248
 4618 0c15 0E       		.byte	0xe
 4619 0c16 1B01     		.2byte	0x11b
 4620 0c18 62050000 		.4byte	0x562
 4621 0c1c 02       		.byte	0x2
 4622 0c1d 23       		.byte	0x23
 4623 0c1e 04       		.uleb128 0x4
 4624 0c1f 00       		.byte	0
 4625 0c20 1A       		.uleb128 0x1a
 4626 0c21 A9060000 		.4byte	.LASF249
 4627 0c25 0E       		.byte	0xe
 4628 0c26 1C01     		.2byte	0x11c
 4629 0c28 F80B0000 		.4byte	0xbf8
 4630 0c2c 1A       		.uleb128 0x1a
 4631 0c2d 25110000 		.4byte	.LASF250
 4632 0c31 0E       		.byte	0xe
 4633 0c32 2401     		.2byte	0x124
 4634 0c34 380C0000 		.4byte	0xc38
 4635 0c38 05       		.uleb128 0x5
 4636 0c39 04       		.byte	0x4
 4637 0c3a 3E0C0000 		.4byte	0xc3e
 4638 0c3e 13       		.uleb128 0x13
 4639 0c3f 01       		.byte	0x1
 4640 0c40 4A0C0000 		.4byte	0xc4a
 4641 0c44 12       		.uleb128 0x12
 4642 0c45 4A0C0000 		.4byte	0xc4a
 4643 0c49 00       		.byte	0
 4644 0c4a 05       		.uleb128 0x5
ARM GAS  /tmp/ccx4dzgE.s 			page 83


 4645 0c4b 04       		.byte	0x4
 4646 0c4c B8090000 		.4byte	0x9b8
 4647 0c50 1A       		.uleb128 0x1a
 4648 0c51 580A0000 		.4byte	.LASF251
 4649 0c55 0E       		.byte	0xe
 4650 0c56 2D01     		.2byte	0x12d
 4651 0c58 5C0C0000 		.4byte	0xc5c
 4652 0c5c 05       		.uleb128 0x5
 4653 0c5d 04       		.byte	0x4
 4654 0c5e 620C0000 		.4byte	0xc62
 4655 0c62 13       		.uleb128 0x13
 4656 0c63 01       		.byte	0x1
 4657 0c64 730C0000 		.4byte	0xc73
 4658 0c68 12       		.uleb128 0x12
 4659 0c69 4A0C0000 		.4byte	0xc4a
 4660 0c6d 12       		.uleb128 0x12
 4661 0c6e 1C0B0000 		.4byte	0xb1c
 4662 0c72 00       		.byte	0
 4663 0c73 1A       		.uleb128 0x1a
 4664 0c74 F8050000 		.4byte	.LASF252
 4665 0c78 0E       		.byte	0xe
 4666 0c79 3601     		.2byte	0x136
 4667 0c7b 7F0C0000 		.4byte	0xc7f
 4668 0c7f 05       		.uleb128 0x5
 4669 0c80 04       		.byte	0x4
 4670 0c81 850C0000 		.4byte	0xc85
 4671 0c85 13       		.uleb128 0x13
 4672 0c86 01       		.byte	0x1
 4673 0c87 960C0000 		.4byte	0xc96
 4674 0c8b 12       		.uleb128 0x12
 4675 0c8c 4A0C0000 		.4byte	0xc4a
 4676 0c90 12       		.uleb128 0x12
 4677 0c91 EC0B0000 		.4byte	0xbec
 4678 0c95 00       		.byte	0
 4679 0c96 1A       		.uleb128 0x1a
 4680 0c97 0D110000 		.4byte	.LASF253
 4681 0c9b 0E       		.byte	0xe
 4682 0c9c 4201     		.2byte	0x142
 4683 0c9e A20C0000 		.4byte	0xca2
 4684 0ca2 05       		.uleb128 0x5
 4685 0ca3 04       		.byte	0x4
 4686 0ca4 A80C0000 		.4byte	0xca8
 4687 0ca8 11       		.uleb128 0x11
 4688 0ca9 01       		.byte	0x1
 4689 0caa CC000000 		.4byte	0xcc
 4690 0cae B80C0000 		.4byte	0xcb8
 4691 0cb2 12       		.uleb128 0x12
 4692 0cb3 4A0C0000 		.4byte	0xc4a
 4693 0cb7 00       		.byte	0
 4694 0cb8 1A       		.uleb128 0x1a
 4695 0cb9 830F0000 		.4byte	.LASF254
 4696 0cbd 0E       		.byte	0xe
 4697 0cbe 4701     		.2byte	0x147
 4698 0cc0 C40C0000 		.4byte	0xcc4
 4699 0cc4 05       		.uleb128 0x5
 4700 0cc5 04       		.byte	0x4
 4701 0cc6 CA0C0000 		.4byte	0xcca
ARM GAS  /tmp/ccx4dzgE.s 			page 84


 4702 0cca 11       		.uleb128 0x11
 4703 0ccb 01       		.byte	0x1
 4704 0ccc E90C0000 		.4byte	0xce9
 4705 0cd0 E90C0000 		.4byte	0xce9
 4706 0cd4 12       		.uleb128 0x12
 4707 0cd5 4A0C0000 		.4byte	0xc4a
 4708 0cd9 12       		.uleb128 0x12
 4709 0cda 95000000 		.4byte	0x95
 4710 0cde 12       		.uleb128 0x12
 4711 0cdf 95000000 		.4byte	0x95
 4712 0ce3 12       		.uleb128 0x12
 4713 0ce4 A0000000 		.4byte	0xa0
 4714 0ce8 00       		.byte	0
 4715 0ce9 05       		.uleb128 0x5
 4716 0cea 04       		.byte	0x4
 4717 0ceb EF0C0000 		.4byte	0xcef
 4718 0cef 06       		.uleb128 0x6
 4719 0cf0 200C0000 		.4byte	0xc20
 4720 0cf4 0B       		.uleb128 0xb
 4721 0cf5 20       		.byte	0x20
 4722 0cf6 10       		.byte	0x10
 4723 0cf7 35       		.byte	0x35
 4724 0cf8 6D0D0000 		.4byte	0xd6d
 4725 0cfc 09       		.uleb128 0x9
 4726 0cfd 84080000 		.4byte	.LASF255
 4727 0d01 10       		.byte	0x10
 4728 0d02 36       		.byte	0x36
 4729 0d03 85030000 		.4byte	0x385
 4730 0d07 02       		.byte	0x2
 4731 0d08 23       		.byte	0x23
 4732 0d09 00       		.uleb128 0
 4733 0d0a 09       		.uleb128 0x9
 4734 0d0b 66000000 		.4byte	.LASF256
 4735 0d0f 10       		.byte	0x10
 4736 0d10 38       		.byte	0x38
 4737 0d11 85030000 		.4byte	0x385
 4738 0d15 02       		.byte	0x2
 4739 0d16 23       		.byte	0x23
 4740 0d17 04       		.uleb128 0x4
 4741 0d18 09       		.uleb128 0x9
 4742 0d19 B20D0000 		.4byte	.LASF257
 4743 0d1d 10       		.byte	0x10
 4744 0d1e 39       		.byte	0x39
 4745 0d1f 85030000 		.4byte	0x385
 4746 0d23 02       		.byte	0x2
 4747 0d24 23       		.byte	0x23
 4748 0d25 08       		.uleb128 0x8
 4749 0d26 09       		.uleb128 0x9
 4750 0d27 DC0D0000 		.4byte	.LASF258
 4751 0d2b 10       		.byte	0x10
 4752 0d2c 3A       		.byte	0x3a
 4753 0d2d 85030000 		.4byte	0x385
 4754 0d31 02       		.byte	0x2
 4755 0d32 23       		.byte	0x23
 4756 0d33 0C       		.uleb128 0xc
 4757 0d34 09       		.uleb128 0x9
 4758 0d35 4A060000 		.4byte	.LASF259
ARM GAS  /tmp/ccx4dzgE.s 			page 85


 4759 0d39 10       		.byte	0x10
 4760 0d3a 3C       		.byte	0x3c
 4761 0d3b 85030000 		.4byte	0x385
 4762 0d3f 02       		.byte	0x2
 4763 0d40 23       		.byte	0x23
 4764 0d41 10       		.uleb128 0x10
 4765 0d42 09       		.uleb128 0x9
 4766 0d43 58100000 		.4byte	.LASF260
 4767 0d47 10       		.byte	0x10
 4768 0d48 3E       		.byte	0x3e
 4769 0d49 85030000 		.4byte	0x385
 4770 0d4d 02       		.byte	0x2
 4771 0d4e 23       		.byte	0x23
 4772 0d4f 14       		.uleb128 0x14
 4773 0d50 09       		.uleb128 0x9
 4774 0d51 60100000 		.4byte	.LASF261
 4775 0d55 10       		.byte	0x10
 4776 0d56 3F       		.byte	0x3f
 4777 0d57 85030000 		.4byte	0x385
 4778 0d5b 02       		.byte	0x2
 4779 0d5c 23       		.byte	0x23
 4780 0d5d 18       		.uleb128 0x18
 4781 0d5e 09       		.uleb128 0x9
 4782 0d5f 05110000 		.4byte	.LASF262
 4783 0d63 10       		.byte	0x10
 4784 0d64 40       		.byte	0x40
 4785 0d65 85030000 		.4byte	0x385
 4786 0d69 02       		.byte	0x2
 4787 0d6a 23       		.byte	0x23
 4788 0d6b 1C       		.uleb128 0x1c
 4789 0d6c 00       		.byte	0
 4790 0d6d 07       		.uleb128 0x7
 4791 0d6e 28060000 		.4byte	.LASF263
 4792 0d72 10       		.byte	0x10
 4793 0d73 41       		.byte	0x41
 4794 0d74 F40C0000 		.4byte	0xcf4
 4795 0d78 0B       		.uleb128 0xb
 4796 0d79 20       		.byte	0x20
 4797 0d7a 10       		.byte	0x10
 4798 0d7b 46       		.byte	0x46
 4799 0d7c F10D0000 		.4byte	0xdf1
 4800 0d80 09       		.uleb128 0x9
 4801 0d81 1D110000 		.4byte	.LASF264
 4802 0d85 10       		.byte	0x10
 4803 0d86 47       		.byte	0x47
 4804 0d87 85030000 		.4byte	0x385
 4805 0d8b 02       		.byte	0x2
 4806 0d8c 23       		.byte	0x23
 4807 0d8d 00       		.uleb128 0
 4808 0d8e 09       		.uleb128 0x9
 4809 0d8f 5F000000 		.4byte	.LASF265
 4810 0d93 10       		.byte	0x10
 4811 0d94 49       		.byte	0x49
 4812 0d95 85030000 		.4byte	0x385
 4813 0d99 02       		.byte	0x2
 4814 0d9a 23       		.byte	0x23
 4815 0d9b 04       		.uleb128 0x4
ARM GAS  /tmp/ccx4dzgE.s 			page 86


 4816 0d9c 09       		.uleb128 0x9
 4817 0d9d 8A110000 		.4byte	.LASF266
 4818 0da1 10       		.byte	0x10
 4819 0da2 4A       		.byte	0x4a
 4820 0da3 85030000 		.4byte	0x385
 4821 0da7 02       		.byte	0x2
 4822 0da8 23       		.byte	0x23
 4823 0da9 08       		.uleb128 0x8
 4824 0daa 09       		.uleb128 0x9
 4825 0dab 85000000 		.4byte	.LASF267
 4826 0daf 10       		.byte	0x10
 4827 0db0 4C       		.byte	0x4c
 4828 0db1 85030000 		.4byte	0x385
 4829 0db5 02       		.byte	0x2
 4830 0db6 23       		.byte	0x23
 4831 0db7 0C       		.uleb128 0xc
 4832 0db8 09       		.uleb128 0x9
 4833 0db9 BB040000 		.4byte	.LASF268
 4834 0dbd 10       		.byte	0x10
 4835 0dbe 4D       		.byte	0x4d
 4836 0dbf 85030000 		.4byte	0x385
 4837 0dc3 02       		.byte	0x2
 4838 0dc4 23       		.byte	0x23
 4839 0dc5 10       		.uleb128 0x10
 4840 0dc6 09       		.uleb128 0x9
 4841 0dc7 58100000 		.4byte	.LASF260
 4842 0dcb 10       		.byte	0x10
 4843 0dcc 4F       		.byte	0x4f
 4844 0dcd 85030000 		.4byte	0x385
 4845 0dd1 02       		.byte	0x2
 4846 0dd2 23       		.byte	0x23
 4847 0dd3 14       		.uleb128 0x14
 4848 0dd4 09       		.uleb128 0x9
 4849 0dd5 68100000 		.4byte	.LASF269
 4850 0dd9 10       		.byte	0x10
 4851 0dda 50       		.byte	0x50
 4852 0ddb 85030000 		.4byte	0x385
 4853 0ddf 02       		.byte	0x2
 4854 0de0 23       		.byte	0x23
 4855 0de1 18       		.uleb128 0x18
 4856 0de2 09       		.uleb128 0x9
 4857 0de3 83100000 		.4byte	.LASF270
 4858 0de7 10       		.byte	0x10
 4859 0de8 52       		.byte	0x52
 4860 0de9 85030000 		.4byte	0x385
 4861 0ded 02       		.byte	0x2
 4862 0dee 23       		.byte	0x23
 4863 0def 1C       		.uleb128 0x1c
 4864 0df0 00       		.byte	0
 4865 0df1 07       		.uleb128 0x7
 4866 0df2 E10E0000 		.4byte	.LASF271
 4867 0df6 10       		.byte	0x10
 4868 0df7 53       		.byte	0x53
 4869 0df8 780D0000 		.4byte	0xd78
 4870 0dfc 0B       		.uleb128 0xb
 4871 0dfd 20       		.byte	0x20
 4872 0dfe 10       		.byte	0x10
ARM GAS  /tmp/ccx4dzgE.s 			page 87


 4873 0dff 58       		.byte	0x58
 4874 0e00 750E0000 		.4byte	0xe75
 4875 0e04 09       		.uleb128 0x9
 4876 0e05 85070000 		.4byte	.LASF272
 4877 0e09 10       		.byte	0x10
 4878 0e0a 59       		.byte	0x59
 4879 0e0b 85030000 		.4byte	0x385
 4880 0e0f 02       		.byte	0x2
 4881 0e10 23       		.byte	0x23
 4882 0e11 00       		.uleb128 0
 4883 0e12 09       		.uleb128 0x9
 4884 0e13 5F000000 		.4byte	.LASF265
 4885 0e17 10       		.byte	0x10
 4886 0e18 5B       		.byte	0x5b
 4887 0e19 85030000 		.4byte	0x385
 4888 0e1d 02       		.byte	0x2
 4889 0e1e 23       		.byte	0x23
 4890 0e1f 04       		.uleb128 0x4
 4891 0e20 09       		.uleb128 0x9
 4892 0e21 EB030000 		.4byte	.LASF273
 4893 0e25 10       		.byte	0x10
 4894 0e26 5C       		.byte	0x5c
 4895 0e27 85030000 		.4byte	0x385
 4896 0e2b 02       		.byte	0x2
 4897 0e2c 23       		.byte	0x23
 4898 0e2d 08       		.uleb128 0x8
 4899 0e2e 09       		.uleb128 0x9
 4900 0e2f 85000000 		.4byte	.LASF267
 4901 0e33 10       		.byte	0x10
 4902 0e34 5E       		.byte	0x5e
 4903 0e35 85030000 		.4byte	0x385
 4904 0e39 02       		.byte	0x2
 4905 0e3a 23       		.byte	0x23
 4906 0e3b 0C       		.uleb128 0xc
 4907 0e3c 09       		.uleb128 0x9
 4908 0e3d E10A0000 		.4byte	.LASF274
 4909 0e41 10       		.byte	0x10
 4910 0e42 5F       		.byte	0x5f
 4911 0e43 85030000 		.4byte	0x385
 4912 0e47 02       		.byte	0x2
 4913 0e48 23       		.byte	0x23
 4914 0e49 10       		.uleb128 0x10
 4915 0e4a 09       		.uleb128 0x9
 4916 0e4b 58100000 		.4byte	.LASF260
 4917 0e4f 10       		.byte	0x10
 4918 0e50 61       		.byte	0x61
 4919 0e51 85030000 		.4byte	0x385
 4920 0e55 02       		.byte	0x2
 4921 0e56 23       		.byte	0x23
 4922 0e57 14       		.uleb128 0x14
 4923 0e58 09       		.uleb128 0x9
 4924 0e59 60100000 		.4byte	.LASF261
 4925 0e5d 10       		.byte	0x10
 4926 0e5e 62       		.byte	0x62
 4927 0e5f 85030000 		.4byte	0x385
 4928 0e63 02       		.byte	0x2
 4929 0e64 23       		.byte	0x23
ARM GAS  /tmp/ccx4dzgE.s 			page 88


 4930 0e65 18       		.uleb128 0x18
 4931 0e66 09       		.uleb128 0x9
 4932 0e67 83100000 		.4byte	.LASF270
 4933 0e6b 10       		.byte	0x10
 4934 0e6c 63       		.byte	0x63
 4935 0e6d 85030000 		.4byte	0x385
 4936 0e71 02       		.byte	0x2
 4937 0e72 23       		.byte	0x23
 4938 0e73 1C       		.uleb128 0x1c
 4939 0e74 00       		.byte	0
 4940 0e75 07       		.uleb128 0x7
 4941 0e76 43050000 		.4byte	.LASF275
 4942 0e7a 10       		.byte	0x10
 4943 0e7b 64       		.byte	0x64
 4944 0e7c FC0D0000 		.4byte	0xdfc
 4945 0e80 1E       		.uleb128 0x1e
 4946 0e81 00100100 		.4byte	0x11000
 4947 0e85 10       		.byte	0x10
 4948 0e86 69       		.byte	0x69
 4949 0e87 CF110000 		.4byte	0x11cf
 4950 0e8b 09       		.uleb128 0x9
 4951 0e8c 37090000 		.4byte	.LASF276
 4952 0e90 10       		.byte	0x10
 4953 0e91 6A       		.byte	0x6a
 4954 0e92 85030000 		.4byte	0x385
 4955 0e96 02       		.byte	0x2
 4956 0e97 23       		.byte	0x23
 4957 0e98 00       		.uleb128 0
 4958 0e99 09       		.uleb128 0x9
 4959 0e9a 260E0000 		.4byte	.LASF277
 4960 0e9e 10       		.byte	0x10
 4961 0e9f 6B       		.byte	0x6b
 4962 0ea0 85030000 		.4byte	0x385
 4963 0ea4 02       		.byte	0x2
 4964 0ea5 23       		.byte	0x23
 4965 0ea6 04       		.uleb128 0x4
 4966 0ea7 09       		.uleb128 0x9
 4967 0ea8 7C080000 		.4byte	.LASF278
 4968 0eac 10       		.byte	0x10
 4969 0ead 6C       		.byte	0x6c
 4970 0eae 85030000 		.4byte	0x385
 4971 0eb2 02       		.byte	0x2
 4972 0eb3 23       		.byte	0x23
 4973 0eb4 08       		.uleb128 0x8
 4974 0eb5 09       		.uleb128 0x9
 4975 0eb6 C3130000 		.4byte	.LASF279
 4976 0eba 10       		.byte	0x10
 4977 0ebb 6D       		.byte	0x6d
 4978 0ebc 85030000 		.4byte	0x385
 4979 0ec0 02       		.byte	0x2
 4980 0ec1 23       		.byte	0x23
 4981 0ec2 0C       		.uleb128 0xc
 4982 0ec3 09       		.uleb128 0x9
 4983 0ec4 E2060000 		.4byte	.LASF280
 4984 0ec8 10       		.byte	0x10
 4985 0ec9 6E       		.byte	0x6e
 4986 0eca 85030000 		.4byte	0x385
ARM GAS  /tmp/ccx4dzgE.s 			page 89


 4987 0ece 02       		.byte	0x2
 4988 0ecf 23       		.byte	0x23
 4989 0ed0 10       		.uleb128 0x10
 4990 0ed1 09       		.uleb128 0x9
 4991 0ed2 3A110000 		.4byte	.LASF281
 4992 0ed6 10       		.byte	0x10
 4993 0ed7 6F       		.byte	0x6f
 4994 0ed8 85030000 		.4byte	0x385
 4995 0edc 02       		.byte	0x2
 4996 0edd 23       		.byte	0x23
 4997 0ede 14       		.uleb128 0x14
 4998 0edf 09       		.uleb128 0x9
 4999 0ee0 350C0000 		.4byte	.LASF282
 5000 0ee4 10       		.byte	0x10
 5001 0ee5 70       		.byte	0x70
 5002 0ee6 85030000 		.4byte	0x385
 5003 0eea 02       		.byte	0x2
 5004 0eeb 23       		.byte	0x23
 5005 0eec 18       		.uleb128 0x18
 5006 0eed 09       		.uleb128 0x9
 5007 0eee 8F090000 		.4byte	.LASF283
 5008 0ef2 10       		.byte	0x10
 5009 0ef3 71       		.byte	0x71
 5010 0ef4 85030000 		.4byte	0x385
 5011 0ef8 02       		.byte	0x2
 5012 0ef9 23       		.byte	0x23
 5013 0efa 1C       		.uleb128 0x1c
 5014 0efb 09       		.uleb128 0x9
 5015 0efc 7E090000 		.4byte	.LASF284
 5016 0f00 10       		.byte	0x10
 5017 0f01 73       		.byte	0x73
 5018 0f02 85030000 		.4byte	0x385
 5019 0f06 02       		.byte	0x2
 5020 0f07 23       		.byte	0x23
 5021 0f08 20       		.uleb128 0x20
 5022 0f09 09       		.uleb128 0x9
 5023 0f0a 59070000 		.4byte	.LASF285
 5024 0f0e 10       		.byte	0x10
 5025 0f0f 75       		.byte	0x75
 5026 0f10 85030000 		.4byte	0x385
 5027 0f14 02       		.byte	0x2
 5028 0f15 23       		.byte	0x23
 5029 0f16 24       		.uleb128 0x24
 5030 0f17 09       		.uleb128 0x9
 5031 0f18 70020000 		.4byte	.LASF286
 5032 0f1c 10       		.byte	0x10
 5033 0f1d 76       		.byte	0x76
 5034 0f1e 85030000 		.4byte	0x385
 5035 0f22 02       		.byte	0x2
 5036 0f23 23       		.byte	0x23
 5037 0f24 28       		.uleb128 0x28
 5038 0f25 09       		.uleb128 0x9
 5039 0f26 92110000 		.4byte	.LASF287
 5040 0f2a 10       		.byte	0x10
 5041 0f2b 78       		.byte	0x78
 5042 0f2c 85030000 		.4byte	0x385
 5043 0f30 02       		.byte	0x2
ARM GAS  /tmp/ccx4dzgE.s 			page 90


 5044 0f31 23       		.byte	0x23
 5045 0f32 2C       		.uleb128 0x2c
 5046 0f33 09       		.uleb128 0x9
 5047 0f34 DB110000 		.4byte	.LASF288
 5048 0f38 10       		.byte	0x10
 5049 0f39 7A       		.byte	0x7a
 5050 0f3a 85030000 		.4byte	0x385
 5051 0f3e 02       		.byte	0x2
 5052 0f3f 23       		.byte	0x23
 5053 0f40 30       		.uleb128 0x30
 5054 0f41 09       		.uleb128 0x9
 5055 0f42 EC110000 		.4byte	.LASF289
 5056 0f46 10       		.byte	0x10
 5057 0f47 7B       		.byte	0x7b
 5058 0f48 85030000 		.4byte	0x385
 5059 0f4c 02       		.byte	0x2
 5060 0f4d 23       		.byte	0x23
 5061 0f4e 34       		.uleb128 0x34
 5062 0f4f 09       		.uleb128 0x9
 5063 0f50 9E040000 		.4byte	.LASF290
 5064 0f54 10       		.byte	0x10
 5065 0f55 7C       		.byte	0x7c
 5066 0f56 85030000 		.4byte	0x385
 5067 0f5a 02       		.byte	0x2
 5068 0f5b 23       		.byte	0x23
 5069 0f5c 38       		.uleb128 0x38
 5070 0f5d 0A       		.uleb128 0xa
 5071 0f5e 43494400 		.ascii	"CID\000"
 5072 0f62 10       		.byte	0x10
 5073 0f63 7D       		.byte	0x7d
 5074 0f64 85030000 		.4byte	0x385
 5075 0f68 02       		.byte	0x2
 5076 0f69 23       		.byte	0x23
 5077 0f6a 3C       		.uleb128 0x3c
 5078 0f6b 09       		.uleb128 0x9
 5079 0f6c 47130000 		.4byte	.LASF291
 5080 0f70 10       		.byte	0x10
 5081 0f71 7E       		.byte	0x7e
 5082 0f72 DF110000 		.4byte	0x11df
 5083 0f76 02       		.byte	0x2
 5084 0f77 23       		.byte	0x23
 5085 0f78 40       		.uleb128 0x40
 5086 0f79 09       		.uleb128 0x9
 5087 0f7a 7E0D0000 		.4byte	.LASF292
 5088 0f7e 10       		.byte	0x10
 5089 0f7f 7F       		.byte	0x7f
 5090 0f80 85030000 		.4byte	0x385
 5091 0f84 03       		.byte	0x3
 5092 0f85 23       		.byte	0x23
 5093 0f86 8002     		.uleb128 0x100
 5094 0f88 09       		.uleb128 0x9
 5095 0f89 0C080000 		.4byte	.LASF293
 5096 0f8d 10       		.byte	0x10
 5097 0f8e 81       		.byte	0x81
 5098 0f8f E4110000 		.4byte	0x11e4
 5099 0f93 03       		.byte	0x3
 5100 0f94 23       		.byte	0x23
ARM GAS  /tmp/ccx4dzgE.s 			page 91


 5101 0f95 8402     		.uleb128 0x104
 5102 0f97 09       		.uleb128 0x9
 5103 0f98 D6130000 		.4byte	.LASF294
 5104 0f9c 10       		.byte	0x10
 5105 0f9d 83       		.byte	0x83
 5106 0f9e F9110000 		.4byte	0x11f9
 5107 0fa2 03       		.byte	0x3
 5108 0fa3 23       		.byte	0x23
 5109 0fa4 C002     		.uleb128 0x140
 5110 0fa6 09       		.uleb128 0x9
 5111 0fa7 07050000 		.4byte	.LASF295
 5112 0fab 10       		.byte	0x10
 5113 0fac 84       		.byte	0x84
 5114 0fad 85030000 		.4byte	0x385
 5115 0fb1 03       		.byte	0x3
 5116 0fb2 23       		.byte	0x23
 5117 0fb3 8008     		.uleb128 0x400
 5118 0fb5 09       		.uleb128 0x9
 5119 0fb6 6D130000 		.4byte	.LASF296
 5120 0fba 10       		.byte	0x10
 5121 0fbb 85       		.byte	0x85
 5122 0fbc 85030000 		.4byte	0x385
 5123 0fc0 03       		.byte	0x3
 5124 0fc1 23       		.byte	0x23
 5125 0fc2 8408     		.uleb128 0x404
 5126 0fc4 09       		.uleb128 0x9
 5127 0fc5 F2050000 		.4byte	.LASF297
 5128 0fc9 10       		.byte	0x10
 5129 0fca 86       		.byte	0x86
 5130 0fcb 85030000 		.4byte	0x385
 5131 0fcf 03       		.byte	0x3
 5132 0fd0 23       		.byte	0x23
 5133 0fd1 8808     		.uleb128 0x408
 5134 0fd3 09       		.uleb128 0x9
 5135 0fd4 0F090000 		.4byte	.LASF298
 5136 0fd8 10       		.byte	0x10
 5137 0fd9 88       		.byte	0x88
 5138 0fda 85030000 		.4byte	0x385
 5139 0fde 03       		.byte	0x3
 5140 0fdf 23       		.byte	0x23
 5141 0fe0 8C08     		.uleb128 0x40c
 5142 0fe2 09       		.uleb128 0x9
 5143 0fe3 3F130000 		.4byte	.LASF299
 5144 0fe7 10       		.byte	0x10
 5145 0fe8 89       		.byte	0x89
 5146 0fe9 85030000 		.4byte	0x385
 5147 0fed 03       		.byte	0x3
 5148 0fee 23       		.byte	0x23
 5149 0fef 9008     		.uleb128 0x410
 5150 0ff1 09       		.uleb128 0x9
 5151 0ff2 EA0A0000 		.4byte	.LASF300
 5152 0ff6 10       		.byte	0x10
 5153 0ff7 8B       		.byte	0x8b
 5154 0ff8 85030000 		.4byte	0x385
 5155 0ffc 03       		.byte	0x3
 5156 0ffd 23       		.byte	0x23
 5157 0ffe 9408     		.uleb128 0x414
ARM GAS  /tmp/ccx4dzgE.s 			page 92


 5158 1000 09       		.uleb128 0x9
 5159 1001 F90B0000 		.4byte	.LASF301
 5160 1005 10       		.byte	0x10
 5161 1006 8D       		.byte	0x8d
 5162 1007 85030000 		.4byte	0x385
 5163 100b 03       		.byte	0x3
 5164 100c 23       		.byte	0x23
 5165 100d 9808     		.uleb128 0x418
 5166 100f 09       		.uleb128 0x9
 5167 1010 7A0F0000 		.4byte	.LASF302
 5168 1014 10       		.byte	0x10
 5169 1015 8F       		.byte	0x8f
 5170 1016 0E120000 		.4byte	0x120e
 5171 101a 03       		.byte	0x3
 5172 101b 23       		.byte	0x23
 5173 101c 9C08     		.uleb128 0x41c
 5174 101e 09       		.uleb128 0x9
 5175 101f 69050000 		.4byte	.LASF303
 5176 1023 10       		.byte	0x10
 5177 1024 90       		.byte	0x90
 5178 1025 85030000 		.4byte	0x385
 5179 1029 03       		.byte	0x3
 5180 102a 23       		.byte	0x23
 5181 102b C008     		.uleb128 0x440
 5182 102d 09       		.uleb128 0x9
 5183 102e B90B0000 		.4byte	.LASF304
 5184 1032 10       		.byte	0x10
 5185 1033 92       		.byte	0x92
 5186 1034 23120000 		.4byte	0x1223
 5187 1038 03       		.byte	0x3
 5188 1039 23       		.byte	0x23
 5189 103a C408     		.uleb128 0x444
 5190 103c 0A       		.uleb128 0xa
 5191 103d 686300   		.ascii	"hc\000"
 5192 1040 10       		.byte	0x10
 5193 1041 93       		.byte	0x93
 5194 1042 28120000 		.4byte	0x1228
 5195 1046 03       		.byte	0x3
 5196 1047 23       		.byte	0x23
 5197 1048 800A     		.uleb128 0x500
 5198 104a 09       		.uleb128 0x9
 5199 104b 5A010000 		.4byte	.LASF305
 5200 104f 10       		.byte	0x10
 5201 1050 94       		.byte	0x94
 5202 1051 48120000 		.4byte	0x1248
 5203 1055 03       		.byte	0x3
 5204 1056 23       		.byte	0x23
 5205 1057 800E     		.uleb128 0x700
 5206 1059 09       		.uleb128 0x9
 5207 105a 84040000 		.4byte	.LASF306
 5208 105e 10       		.byte	0x10
 5209 105f 95       		.byte	0x95
 5210 1060 85030000 		.4byte	0x385
 5211 1064 03       		.byte	0x3
 5212 1065 23       		.byte	0x23
 5213 1066 8010     		.uleb128 0x800
 5214 1068 09       		.uleb128 0x9
ARM GAS  /tmp/ccx4dzgE.s 			page 93


 5215 1069 C50D0000 		.4byte	.LASF307
 5216 106d 10       		.byte	0x10
 5217 106e 96       		.byte	0x96
 5218 106f 85030000 		.4byte	0x385
 5219 1073 03       		.byte	0x3
 5220 1074 23       		.byte	0x23
 5221 1075 8410     		.uleb128 0x804
 5222 1077 09       		.uleb128 0x9
 5223 1078 89120000 		.4byte	.LASF308
 5224 107c 10       		.byte	0x10
 5225 107d 97       		.byte	0x97
 5226 107e 85030000 		.4byte	0x385
 5227 1082 03       		.byte	0x3
 5228 1083 23       		.byte	0x23
 5229 1084 8810     		.uleb128 0x808
 5230 1086 09       		.uleb128 0x9
 5231 1087 60050000 		.4byte	.LASF309
 5232 108b 10       		.byte	0x10
 5233 108c 98       		.byte	0x98
 5234 108d 85030000 		.4byte	0x385
 5235 1091 03       		.byte	0x3
 5236 1092 23       		.byte	0x23
 5237 1093 8C10     		.uleb128 0x80c
 5238 1095 09       		.uleb128 0x9
 5239 1096 8B100000 		.4byte	.LASF310
 5240 109a 10       		.byte	0x10
 5241 109b 99       		.byte	0x99
 5242 109c 85030000 		.4byte	0x385
 5243 10a0 03       		.byte	0x3
 5244 10a1 23       		.byte	0x23
 5245 10a2 9010     		.uleb128 0x810
 5246 10a4 09       		.uleb128 0x9
 5247 10a5 60030000 		.4byte	.LASF311
 5248 10a9 10       		.byte	0x10
 5249 10aa 9B       		.byte	0x9b
 5250 10ab 85030000 		.4byte	0x385
 5251 10af 03       		.byte	0x3
 5252 10b0 23       		.byte	0x23
 5253 10b1 9410     		.uleb128 0x814
 5254 10b3 09       		.uleb128 0x9
 5255 10b4 44030000 		.4byte	.LASF312
 5256 10b8 10       		.byte	0x10
 5257 10b9 9D       		.byte	0x9d
 5258 10ba 85030000 		.4byte	0x385
 5259 10be 03       		.byte	0x3
 5260 10bf 23       		.byte	0x23
 5261 10c0 9810     		.uleb128 0x818
 5262 10c2 09       		.uleb128 0x9
 5263 10c3 B80E0000 		.4byte	.LASF313
 5264 10c7 10       		.byte	0x10
 5265 10c8 9F       		.byte	0x9f
 5266 10c9 85030000 		.4byte	0x385
 5267 10cd 03       		.byte	0x3
 5268 10ce 23       		.byte	0x23
 5269 10cf 9C10     		.uleb128 0x81c
 5270 10d1 09       		.uleb128 0x9
 5271 10d2 64060000 		.4byte	.LASF314
ARM GAS  /tmp/ccx4dzgE.s 			page 94


 5272 10d6 10       		.byte	0x10
 5273 10d7 A1       		.byte	0xa1
 5274 10d8 85030000 		.4byte	0x385
 5275 10dc 03       		.byte	0x3
 5276 10dd 23       		.byte	0x23
 5277 10de A010     		.uleb128 0x820
 5278 10e0 09       		.uleb128 0x9
 5279 10e1 6D060000 		.4byte	.LASF315
 5280 10e5 10       		.byte	0x10
 5281 10e6 A2       		.byte	0xa2
 5282 10e7 85030000 		.4byte	0x385
 5283 10eb 03       		.byte	0x3
 5284 10ec 23       		.byte	0x23
 5285 10ed A410     		.uleb128 0x824
 5286 10ef 09       		.uleb128 0x9
 5287 10f0 D80E0000 		.4byte	.LASF316
 5288 10f4 10       		.byte	0x10
 5289 10f5 A3       		.byte	0xa3
 5290 10f6 85030000 		.4byte	0x385
 5291 10fa 03       		.byte	0x3
 5292 10fb 23       		.byte	0x23
 5293 10fc A810     		.uleb128 0x828
 5294 10fe 09       		.uleb128 0x9
 5295 10ff 7B060000 		.4byte	.LASF317
 5296 1103 10       		.byte	0x10
 5297 1104 A5       		.byte	0xa5
 5298 1105 85030000 		.4byte	0x385
 5299 1109 03       		.byte	0x3
 5300 110a 23       		.byte	0x23
 5301 110b AC10     		.uleb128 0x82c
 5302 110d 09       		.uleb128 0x9
 5303 110e DC0C0000 		.4byte	.LASF318
 5304 1112 10       		.byte	0x10
 5305 1113 A7       		.byte	0xa7
 5306 1114 85030000 		.4byte	0x385
 5307 1118 03       		.byte	0x3
 5308 1119 23       		.byte	0x23
 5309 111a B010     		.uleb128 0x830
 5310 111c 09       		.uleb128 0x9
 5311 111d 9E060000 		.4byte	.LASF319
 5312 1121 10       		.byte	0x10
 5313 1122 A8       		.byte	0xa8
 5314 1123 85030000 		.4byte	0x385
 5315 1127 03       		.byte	0x3
 5316 1128 23       		.byte	0x23
 5317 1129 B410     		.uleb128 0x834
 5318 112b 09       		.uleb128 0x9
 5319 112c F5060000 		.4byte	.LASF320
 5320 1130 10       		.byte	0x10
 5321 1131 AA       		.byte	0xaa
 5322 1132 85030000 		.4byte	0x385
 5323 1136 03       		.byte	0x3
 5324 1137 23       		.byte	0x23
 5325 1138 B810     		.uleb128 0x838
 5326 113a 09       		.uleb128 0x9
 5327 113b 7A0A0000 		.4byte	.LASF321
 5328 113f 10       		.byte	0x10
ARM GAS  /tmp/ccx4dzgE.s 			page 95


 5329 1140 AB       		.byte	0xab
 5330 1141 85030000 		.4byte	0x385
 5331 1145 03       		.byte	0x3
 5332 1146 23       		.byte	0x23
 5333 1147 BC10     		.uleb128 0x83c
 5334 1149 09       		.uleb128 0x9
 5335 114a E5070000 		.4byte	.LASF322
 5336 114e 10       		.byte	0x10
 5337 114f AC       		.byte	0xac
 5338 1150 5D120000 		.4byte	0x125d
 5339 1154 03       		.byte	0x3
 5340 1155 23       		.byte	0x23
 5341 1156 C010     		.uleb128 0x840
 5342 1158 09       		.uleb128 0x9
 5343 1159 680A0000 		.4byte	.LASF323
 5344 115d 10       		.byte	0x10
 5345 115e AD       		.byte	0xad
 5346 115f 62120000 		.4byte	0x1262
 5347 1163 03       		.byte	0x3
 5348 1164 23       		.byte	0x23
 5349 1165 8011     		.uleb128 0x880
 5350 1167 09       		.uleb128 0x9
 5351 1168 E3110000 		.4byte	.LASF324
 5352 116c 10       		.byte	0x10
 5353 116d AE       		.byte	0xae
 5354 116e 67120000 		.4byte	0x1267
 5355 1172 03       		.byte	0x3
 5356 1173 23       		.byte	0x23
 5357 1174 C011     		.uleb128 0x8c0
 5358 1176 0A       		.uleb128 0xa
 5359 1177 696500   		.ascii	"ie\000"
 5360 117a 10       		.byte	0x10
 5361 117b AF       		.byte	0xaf
 5362 117c 6C120000 		.4byte	0x126c
 5363 1180 03       		.byte	0x3
 5364 1181 23       		.byte	0x23
 5365 1182 8012     		.uleb128 0x900
 5366 1184 0A       		.uleb128 0xa
 5367 1185 6F6500   		.ascii	"oe\000"
 5368 1188 10       		.byte	0x10
 5369 1189 B0       		.byte	0xb0
 5370 118a 7C120000 		.4byte	0x127c
 5371 118e 03       		.byte	0x3
 5372 118f 23       		.byte	0x23
 5373 1190 8016     		.uleb128 0xb00
 5374 1192 09       		.uleb128 0x9
 5375 1193 70030000 		.4byte	.LASF325
 5376 1197 10       		.byte	0x10
 5377 1198 B1       		.byte	0xb1
 5378 1199 8C120000 		.4byte	0x128c
 5379 119d 03       		.byte	0x3
 5380 119e 23       		.byte	0x23
 5381 119f 801A     		.uleb128 0xd00
 5382 11a1 09       		.uleb128 0x9
 5383 11a2 A8090000 		.4byte	.LASF326
 5384 11a6 10       		.byte	0x10
 5385 11a7 B2       		.byte	0xb2
ARM GAS  /tmp/ccx4dzgE.s 			page 96


 5386 11a8 85030000 		.4byte	0x385
 5387 11ac 03       		.byte	0x3
 5388 11ad 23       		.byte	0x23
 5389 11ae 801C     		.uleb128 0xe00
 5390 11b0 09       		.uleb128 0x9
 5391 11b1 D2110000 		.4byte	.LASF327
 5392 11b5 10       		.byte	0x10
 5393 11b6 B4       		.byte	0xb4
 5394 11b7 A1120000 		.4byte	0x12a1
 5395 11bb 03       		.byte	0x3
 5396 11bc 23       		.byte	0x23
 5397 11bd 841C     		.uleb128 0xe04
 5398 11bf 09       		.uleb128 0x9
 5399 11c0 260F0000 		.4byte	.LASF328
 5400 11c4 10       		.byte	0x10
 5401 11c5 B5       		.byte	0xb5
 5402 11c6 BD120000 		.4byte	0x12bd
 5403 11ca 03       		.byte	0x3
 5404 11cb 23       		.byte	0x23
 5405 11cc 8020     		.uleb128 0x1000
 5406 11ce 00       		.byte	0
 5407 11cf 16       		.uleb128 0x16
 5408 11d0 B6000000 		.4byte	0xb6
 5409 11d4 DF110000 		.4byte	0x11df
 5410 11d8 17       		.uleb128 0x17
 5411 11d9 68000000 		.4byte	0x68
 5412 11dd 2F       		.byte	0x2f
 5413 11de 00       		.byte	0
 5414 11df 0E       		.uleb128 0xe
 5415 11e0 CF110000 		.4byte	0x11cf
 5416 11e4 0E       		.uleb128 0xe
 5417 11e5 B8070000 		.4byte	0x7b8
 5418 11e9 16       		.uleb128 0x16
 5419 11ea B6000000 		.4byte	0xb6
 5420 11ee F9110000 		.4byte	0x11f9
 5421 11f2 17       		.uleb128 0x17
 5422 11f3 68000000 		.4byte	0x68
 5423 11f7 AF       		.byte	0xaf
 5424 11f8 00       		.byte	0
 5425 11f9 0E       		.uleb128 0xe
 5426 11fa E9110000 		.4byte	0x11e9
 5427 11fe 16       		.uleb128 0x16
 5428 11ff B6000000 		.4byte	0xb6
 5429 1203 0E120000 		.4byte	0x120e
 5430 1207 17       		.uleb128 0x17
 5431 1208 68000000 		.4byte	0x68
 5432 120c 08       		.byte	0x8
 5433 120d 00       		.byte	0
 5434 120e 0E       		.uleb128 0xe
 5435 120f FE110000 		.4byte	0x11fe
 5436 1213 16       		.uleb128 0x16
 5437 1214 B6000000 		.4byte	0xb6
 5438 1218 23120000 		.4byte	0x1223
 5439 121c 17       		.uleb128 0x17
 5440 121d 68000000 		.4byte	0x68
 5441 1221 2E       		.byte	0x2e
 5442 1222 00       		.byte	0
ARM GAS  /tmp/ccx4dzgE.s 			page 97


 5443 1223 0E       		.uleb128 0xe
 5444 1224 13120000 		.4byte	0x1213
 5445 1228 16       		.uleb128 0x16
 5446 1229 6D0D0000 		.4byte	0xd6d
 5447 122d 38120000 		.4byte	0x1238
 5448 1231 17       		.uleb128 0x17
 5449 1232 68000000 		.4byte	0x68
 5450 1236 0F       		.byte	0xf
 5451 1237 00       		.byte	0
 5452 1238 16       		.uleb128 0x16
 5453 1239 B6000000 		.4byte	0xb6
 5454 123d 48120000 		.4byte	0x1248
 5455 1241 17       		.uleb128 0x17
 5456 1242 68000000 		.4byte	0x68
 5457 1246 3F       		.byte	0x3f
 5458 1247 00       		.byte	0
 5459 1248 0E       		.uleb128 0xe
 5460 1249 38120000 		.4byte	0x1238
 5461 124d 16       		.uleb128 0x16
 5462 124e B6000000 		.4byte	0xb6
 5463 1252 5D120000 		.4byte	0x125d
 5464 1256 17       		.uleb128 0x17
 5465 1257 68000000 		.4byte	0x68
 5466 125b 0F       		.byte	0xf
 5467 125c 00       		.byte	0
 5468 125d 0E       		.uleb128 0xe
 5469 125e 4D120000 		.4byte	0x124d
 5470 1262 0E       		.uleb128 0xe
 5471 1263 4D120000 		.4byte	0x124d
 5472 1267 0E       		.uleb128 0xe
 5473 1268 4D120000 		.4byte	0x124d
 5474 126c 16       		.uleb128 0x16
 5475 126d F10D0000 		.4byte	0xdf1
 5476 1271 7C120000 		.4byte	0x127c
 5477 1275 17       		.uleb128 0x17
 5478 1276 68000000 		.4byte	0x68
 5479 127a 0F       		.byte	0xf
 5480 127b 00       		.byte	0
 5481 127c 16       		.uleb128 0x16
 5482 127d 750E0000 		.4byte	0xe75
 5483 1281 8C120000 		.4byte	0x128c
 5484 1285 17       		.uleb128 0x17
 5485 1286 68000000 		.4byte	0x68
 5486 128a 0F       		.byte	0xf
 5487 128b 00       		.byte	0
 5488 128c 0E       		.uleb128 0xe
 5489 128d 38120000 		.4byte	0x1238
 5490 1291 16       		.uleb128 0x16
 5491 1292 B6000000 		.4byte	0xb6
 5492 1296 A1120000 		.4byte	0x12a1
 5493 129a 17       		.uleb128 0x17
 5494 129b 68000000 		.4byte	0x68
 5495 129f 7E       		.byte	0x7e
 5496 12a0 00       		.byte	0
 5497 12a1 0E       		.uleb128 0xe
 5498 12a2 91120000 		.4byte	0x1291
 5499 12a6 16       		.uleb128 0x16
ARM GAS  /tmp/ccx4dzgE.s 			page 98


 5500 12a7 B6000000 		.4byte	0xb6
 5501 12ab BD120000 		.4byte	0x12bd
 5502 12af 17       		.uleb128 0x17
 5503 12b0 68000000 		.4byte	0x68
 5504 12b4 0F       		.byte	0xf
 5505 12b5 1F       		.uleb128 0x1f
 5506 12b6 68000000 		.4byte	0x68
 5507 12ba FF03     		.2byte	0x3ff
 5508 12bc 00       		.byte	0
 5509 12bd 0E       		.uleb128 0xe
 5510 12be A6120000 		.4byte	0x12a6
 5511 12c2 07       		.uleb128 0x7
 5512 12c3 5C0B0000 		.4byte	.LASF329
 5513 12c7 10       		.byte	0x10
 5514 12c8 B6       		.byte	0xb6
 5515 12c9 800E0000 		.4byte	0xe80
 5516 12cd 0B       		.uleb128 0xb
 5517 12ce 0C       		.byte	0xc
 5518 12cf 0F       		.byte	0xf
 5519 12d0 BC       		.byte	0xbc
 5520 12d1 00130000 		.4byte	0x1300
 5521 12d5 09       		.uleb128 0x9
 5522 12d6 13100000 		.4byte	.LASF330
 5523 12da 0F       		.byte	0xf
 5524 12db BD       		.byte	0xbd
 5525 12dc B6000000 		.4byte	0xb6
 5526 12e0 02       		.byte	0x2
 5527 12e1 23       		.byte	0x23
 5528 12e2 00       		.uleb128 0
 5529 12e3 09       		.uleb128 0x9
 5530 12e4 F30E0000 		.4byte	.LASF331
 5531 12e8 0F       		.byte	0xf
 5532 12e9 BE       		.byte	0xbe
 5533 12ea B6000000 		.4byte	0xb6
 5534 12ee 02       		.byte	0x2
 5535 12ef 23       		.byte	0x23
 5536 12f0 04       		.uleb128 0x4
 5537 12f1 09       		.uleb128 0x9
 5538 12f2 B0080000 		.4byte	.LASF332
 5539 12f6 0F       		.byte	0xf
 5540 12f7 BF       		.byte	0xbf
 5541 12f8 B6000000 		.4byte	0xb6
 5542 12fc 02       		.byte	0x2
 5543 12fd 23       		.byte	0x23
 5544 12fe 08       		.uleb128 0x8
 5545 12ff 00       		.byte	0
 5546 1300 07       		.uleb128 0x7
 5547 1301 B7060000 		.4byte	.LASF333
 5548 1305 0F       		.byte	0xf
 5549 1306 C0       		.byte	0xc0
 5550 1307 CD120000 		.4byte	0x12cd
 5551 130b 0B       		.uleb128 0xb
 5552 130c 04       		.byte	0x4
 5553 130d 0F       		.byte	0xf
 5554 130e D3       		.byte	0xd3
 5555 130f 22130000 		.4byte	0x1322
 5556 1313 09       		.uleb128 0x9
ARM GAS  /tmp/ccx4dzgE.s 			page 99


 5557 1314 00030000 		.4byte	.LASF334
 5558 1318 0F       		.byte	0xf
 5559 1319 D7       		.byte	0xd7
 5560 131a 62050000 		.4byte	0x562
 5561 131e 02       		.byte	0x2
 5562 131f 23       		.byte	0x23
 5563 1320 00       		.uleb128 0
 5564 1321 00       		.byte	0
 5565 1322 0B       		.uleb128 0xb
 5566 1323 04       		.byte	0x4
 5567 1324 0F       		.byte	0xf
 5568 1325 D9       		.byte	0xd9
 5569 1326 39130000 		.4byte	0x1339
 5570 132a 09       		.uleb128 0x9
 5571 132b 70100000 		.4byte	.LASF335
 5572 132f 0F       		.byte	0xf
 5573 1330 DD       		.byte	0xdd
 5574 1331 39130000 		.4byte	0x1339
 5575 1335 02       		.byte	0x2
 5576 1336 23       		.byte	0x23
 5577 1337 00       		.uleb128 0
 5578 1338 00       		.byte	0
 5579 1339 05       		.uleb128 0x5
 5580 133a 04       		.byte	0x4
 5581 133b 57050000 		.4byte	0x557
 5582 133f 0F       		.uleb128 0xf
 5583 1340 04       		.byte	0x4
 5584 1341 0F       		.byte	0xf
 5585 1342 D2       		.byte	0xd2
 5586 1343 5E130000 		.4byte	0x135e
 5587 1347 10       		.uleb128 0x10
 5588 1348 B80D0000 		.4byte	.LASF336
 5589 134c 0F       		.byte	0xf
 5590 134d D8       		.byte	0xd8
 5591 134e 0B130000 		.4byte	0x130b
 5592 1352 10       		.uleb128 0x10
 5593 1353 430E0000 		.4byte	.LASF337
 5594 1357 0F       		.byte	0xf
 5595 1358 DE       		.byte	0xde
 5596 1359 22130000 		.4byte	0x1322
 5597 135d 00       		.byte	0
 5598 135e 0B       		.uleb128 0xb
 5599 135f 10       		.byte	0x10
 5600 1360 0F       		.byte	0xf
 5601 1361 C5       		.byte	0xc5
 5602 1362 9F130000 		.4byte	0x139f
 5603 1366 09       		.uleb128 0x9
 5604 1367 BA130000 		.4byte	.LASF338
 5605 136b 0F       		.byte	0xf
 5606 136c C9       		.byte	0xc9
 5607 136d CC000000 		.4byte	0xcc
 5608 1371 02       		.byte	0x2
 5609 1372 23       		.byte	0x23
 5610 1373 00       		.uleb128 0
 5611 1374 09       		.uleb128 0x9
 5612 1375 C6080000 		.4byte	.LASF339
 5613 1379 0F       		.byte	0xf
ARM GAS  /tmp/ccx4dzgE.s 			page 100


 5614 137a CD       		.byte	0xcd
 5615 137b 8A000000 		.4byte	0x8a
 5616 137f 02       		.byte	0x2
 5617 1380 23       		.byte	0x23
 5618 1381 04       		.uleb128 0x4
 5619 1382 09       		.uleb128 0x9
 5620 1383 AD0C0000 		.4byte	.LASF340
 5621 1387 0F       		.byte	0xf
 5622 1388 D1       		.byte	0xd1
 5623 1389 8A000000 		.4byte	0x8a
 5624 138d 02       		.byte	0x2
 5625 138e 23       		.byte	0x23
 5626 138f 08       		.uleb128 0x8
 5627 1390 09       		.uleb128 0x9
 5628 1391 32100000 		.4byte	.LASF341
 5629 1395 0F       		.byte	0xf
 5630 1396 DF       		.byte	0xdf
 5631 1397 3F130000 		.4byte	0x133f
 5632 139b 02       		.byte	0x2
 5633 139c 23       		.byte	0x23
 5634 139d 0C       		.uleb128 0xc
 5635 139e 00       		.byte	0
 5636 139f 07       		.uleb128 0x7
 5637 13a0 51060000 		.4byte	.LASF342
 5638 13a4 0F       		.byte	0xf
 5639 13a5 E0       		.byte	0xe0
 5640 13a6 5E130000 		.4byte	0x135e
 5641 13aa 0B       		.uleb128 0xb
 5642 13ab 04       		.byte	0x4
 5643 13ac 0F       		.byte	0xf
 5644 13ad F3       		.byte	0xf3
 5645 13ae C1130000 		.4byte	0x13c1
 5646 13b2 09       		.uleb128 0x9
 5647 13b3 78090000 		.4byte	.LASF343
 5648 13b7 0F       		.byte	0xf
 5649 13b8 F7       		.byte	0xf7
 5650 13b9 46050000 		.4byte	0x546
 5651 13bd 02       		.byte	0x2
 5652 13be 23       		.byte	0x23
 5653 13bf 00       		.uleb128 0
 5654 13c0 00       		.byte	0
 5655 13c1 0B       		.uleb128 0xb
 5656 13c2 04       		.byte	0x4
 5657 13c3 0F       		.byte	0xf
 5658 13c4 F9       		.byte	0xf9
 5659 13c5 D8130000 		.4byte	0x13d8
 5660 13c9 09       		.uleb128 0x9
 5661 13ca B00E0000 		.4byte	.LASF344
 5662 13ce 0F       		.byte	0xf
 5663 13cf FD       		.byte	0xfd
 5664 13d0 D8130000 		.4byte	0x13d8
 5665 13d4 02       		.byte	0x2
 5666 13d5 23       		.byte	0x23
 5667 13d6 00       		.uleb128 0
 5668 13d7 00       		.byte	0
 5669 13d8 05       		.uleb128 0x5
 5670 13d9 04       		.byte	0x4
ARM GAS  /tmp/ccx4dzgE.s 			page 101


 5671 13da 4C050000 		.4byte	0x54c
 5672 13de 0F       		.uleb128 0xf
 5673 13df 04       		.byte	0x4
 5674 13e0 0F       		.byte	0xf
 5675 13e1 F2       		.byte	0xf2
 5676 13e2 FD130000 		.4byte	0x13fd
 5677 13e6 10       		.uleb128 0x10
 5678 13e7 B80D0000 		.4byte	.LASF336
 5679 13eb 0F       		.byte	0xf
 5680 13ec F8       		.byte	0xf8
 5681 13ed AA130000 		.4byte	0x13aa
 5682 13f1 10       		.uleb128 0x10
 5683 13f2 430E0000 		.4byte	.LASF337
 5684 13f6 0F       		.byte	0xf
 5685 13f7 FE       		.byte	0xfe
 5686 13f8 C1130000 		.4byte	0x13c1
 5687 13fc 00       		.byte	0
 5688 13fd 0B       		.uleb128 0xb
 5689 13fe 10       		.byte	0x10
 5690 13ff 0F       		.byte	0xf
 5691 1400 E5       		.byte	0xe5
 5692 1401 3E140000 		.4byte	0x143e
 5693 1405 09       		.uleb128 0x9
 5694 1406 FB0D0000 		.4byte	.LASF345
 5695 140a 0F       		.byte	0xf
 5696 140b E9       		.byte	0xe9
 5697 140c CC000000 		.4byte	0xcc
 5698 1410 02       		.byte	0x2
 5699 1411 23       		.byte	0x23
 5700 1412 00       		.uleb128 0
 5701 1413 09       		.uleb128 0x9
 5702 1414 07040000 		.4byte	.LASF346
 5703 1418 0F       		.byte	0xf
 5704 1419 ED       		.byte	0xed
 5705 141a 8A000000 		.4byte	0x8a
 5706 141e 02       		.byte	0x2
 5707 141f 23       		.byte	0x23
 5708 1420 04       		.uleb128 0x4
 5709 1421 09       		.uleb128 0x9
 5710 1422 D5080000 		.4byte	.LASF347
 5711 1426 0F       		.byte	0xf
 5712 1427 F1       		.byte	0xf1
 5713 1428 8A000000 		.4byte	0x8a
 5714 142c 02       		.byte	0x2
 5715 142d 23       		.byte	0x23
 5716 142e 08       		.uleb128 0x8
 5717 142f 09       		.uleb128 0x9
 5718 1430 32100000 		.4byte	.LASF341
 5719 1434 0F       		.byte	0xf
 5720 1435 FF       		.byte	0xff
 5721 1436 DE130000 		.4byte	0x13de
 5722 143a 02       		.byte	0x2
 5723 143b 23       		.byte	0x23
 5724 143c 0C       		.uleb128 0xc
 5725 143d 00       		.byte	0
 5726 143e 1A       		.uleb128 0x1a
 5727 143f 170D0000 		.4byte	.LASF348
ARM GAS  /tmp/ccx4dzgE.s 			page 102


 5728 1443 0F       		.byte	0xf
 5729 1444 0001     		.2byte	0x100
 5730 1446 FD130000 		.4byte	0x13fd
 5731 144a 18       		.uleb128 0x18
 5732 144b 24       		.byte	0x24
 5733 144c 0F       		.byte	0xf
 5734 144d 0601     		.2byte	0x106
 5735 144f EA140000 		.4byte	0x14ea
 5736 1453 19       		.uleb128 0x19
 5737 1454 80010000 		.4byte	.LASF349
 5738 1458 0F       		.byte	0xf
 5739 1459 0A01     		.2byte	0x10a
 5740 145b B6000000 		.4byte	0xb6
 5741 145f 02       		.byte	0x2
 5742 1460 23       		.byte	0x23
 5743 1461 00       		.uleb128 0
 5744 1462 19       		.uleb128 0x19
 5745 1463 B0050000 		.4byte	.LASF350
 5746 1467 0F       		.byte	0xf
 5747 1468 1501     		.2byte	0x115
 5748 146a 500C0000 		.4byte	0xc50
 5749 146e 02       		.byte	0x2
 5750 146f 23       		.byte	0x23
 5751 1470 04       		.uleb128 0x4
 5752 1471 19       		.uleb128 0x19
 5753 1472 D5050000 		.4byte	.LASF351
 5754 1476 0F       		.byte	0xf
 5755 1477 1B01     		.2byte	0x11b
 5756 1479 500C0000 		.4byte	0xc50
 5757 147d 02       		.byte	0x2
 5758 147e 23       		.byte	0x23
 5759 147f 08       		.uleb128 0x8
 5760 1480 19       		.uleb128 0x19
 5761 1481 CC0B0000 		.4byte	.LASF352
 5762 1485 0F       		.byte	0xf
 5763 1486 2101     		.2byte	0x121
 5764 1488 500C0000 		.4byte	0xc50
 5765 148c 02       		.byte	0x2
 5766 148d 23       		.byte	0x23
 5767 148e 0C       		.uleb128 0xc
 5768 148f 19       		.uleb128 0x19
 5769 1490 1D0C0000 		.4byte	.LASF353
 5770 1494 0F       		.byte	0xf
 5771 1495 2701     		.2byte	0x127
 5772 1497 A0000000 		.4byte	0xa0
 5773 149b 02       		.byte	0x2
 5774 149c 23       		.byte	0x23
 5775 149d 10       		.uleb128 0x10
 5776 149e 19       		.uleb128 0x19
 5777 149f C9020000 		.4byte	.LASF354
 5778 14a3 0F       		.byte	0xf
 5779 14a4 2D01     		.2byte	0x12d
 5780 14a6 A0000000 		.4byte	0xa0
 5781 14aa 02       		.byte	0x2
 5782 14ab 23       		.byte	0x23
 5783 14ac 12       		.uleb128 0x12
 5784 14ad 19       		.uleb128 0x19
ARM GAS  /tmp/ccx4dzgE.s 			page 103


 5785 14ae 86090000 		.4byte	.LASF355
 5786 14b2 0F       		.byte	0xf
 5787 14b3 3201     		.2byte	0x132
 5788 14b5 EA140000 		.4byte	0x14ea
 5789 14b9 02       		.byte	0x2
 5790 14ba 23       		.byte	0x23
 5791 14bb 14       		.uleb128 0x14
 5792 14bc 19       		.uleb128 0x19
 5793 14bd 540C0000 		.4byte	.LASF356
 5794 14c1 0F       		.byte	0xf
 5795 14c2 3701     		.2byte	0x137
 5796 14c4 F0140000 		.4byte	0x14f0
 5797 14c8 02       		.byte	0x2
 5798 14c9 23       		.byte	0x23
 5799 14ca 18       		.uleb128 0x18
 5800 14cb 19       		.uleb128 0x19
 5801 14cc 8B080000 		.4byte	.LASF357
 5802 14d0 0F       		.byte	0xf
 5803 14d1 3E01     		.2byte	0x13e
 5804 14d3 A0000000 		.4byte	0xa0
 5805 14d7 02       		.byte	0x2
 5806 14d8 23       		.byte	0x23
 5807 14d9 1C       		.uleb128 0x1c
 5808 14da 19       		.uleb128 0x19
 5809 14db 900B0000 		.4byte	.LASF358
 5810 14df 0F       		.byte	0xf
 5811 14e0 4401     		.2byte	0x144
 5812 14e2 46050000 		.4byte	0x546
 5813 14e6 02       		.byte	0x2
 5814 14e7 23       		.byte	0x23
 5815 14e8 20       		.uleb128 0x20
 5816 14e9 00       		.byte	0
 5817 14ea 05       		.uleb128 0x5
 5818 14eb 04       		.byte	0x4
 5819 14ec 9F130000 		.4byte	0x139f
 5820 14f0 05       		.uleb128 0x5
 5821 14f1 04       		.byte	0x4
 5822 14f2 3E140000 		.4byte	0x143e
 5823 14f6 1A       		.uleb128 0x1a
 5824 14f7 CA0D0000 		.4byte	.LASF359
 5825 14fb 0F       		.byte	0xf
 5826 14fc 4501     		.2byte	0x145
 5827 14fe 4A140000 		.4byte	0x144a
 5828 1502 18       		.uleb128 0x18
 5829 1503 10       		.byte	0x10
 5830 1504 0F       		.byte	0xf
 5831 1505 4A01     		.2byte	0x14a
 5832 1507 48150000 		.4byte	0x1548
 5833 150b 19       		.uleb128 0x19
 5834 150c BC090000 		.4byte	.LASF360
 5835 1510 0F       		.byte	0xf
 5836 1511 4F01     		.2byte	0x14f
 5837 1513 730C0000 		.4byte	0xc73
 5838 1517 02       		.byte	0x2
 5839 1518 23       		.byte	0x23
 5840 1519 00       		.uleb128 0
 5841 151a 19       		.uleb128 0x19
ARM GAS  /tmp/ccx4dzgE.s 			page 104


 5842 151b 290A0000 		.4byte	.LASF361
 5843 151f 0F       		.byte	0xf
 5844 1520 5401     		.2byte	0x154
 5845 1522 B80C0000 		.4byte	0xcb8
 5846 1526 02       		.byte	0x2
 5847 1527 23       		.byte	0x23
 5848 1528 04       		.uleb128 0x4
 5849 1529 19       		.uleb128 0x19
 5850 152a C4040000 		.4byte	.LASF362
 5851 152e 0F       		.byte	0xf
 5852 152f 5A01     		.2byte	0x15a
 5853 1531 960C0000 		.4byte	0xc96
 5854 1535 02       		.byte	0x2
 5855 1536 23       		.byte	0x23
 5856 1537 08       		.uleb128 0x8
 5857 1538 19       		.uleb128 0x19
 5858 1539 BD110000 		.4byte	.LASF363
 5859 153d 0F       		.byte	0xf
 5860 153e 5E01     		.2byte	0x15e
 5861 1540 2C0C0000 		.4byte	0xc2c
 5862 1544 02       		.byte	0x2
 5863 1545 23       		.byte	0x23
 5864 1546 0C       		.uleb128 0xc
 5865 1547 00       		.byte	0
 5866 1548 1A       		.uleb128 0x1a
 5867 1549 180B0000 		.4byte	.LASF364
 5868 154d 0F       		.byte	0xf
 5869 154e 6001     		.2byte	0x160
 5870 1550 02150000 		.4byte	0x1502
 5871 1554 05       		.uleb128 0x5
 5872 1555 04       		.byte	0x4
 5873 1556 5A150000 		.4byte	0x155a
 5874 155a 06       		.uleb128 0x6
 5875 155b 48150000 		.4byte	0x1548
 5876 155f 16       		.uleb128 0x16
 5877 1560 6F150000 		.4byte	0x156f
 5878 1564 6F150000 		.4byte	0x156f
 5879 1568 17       		.uleb128 0x17
 5880 1569 68000000 		.4byte	0x68
 5881 156d 03       		.byte	0x3
 5882 156e 00       		.byte	0
 5883 156f 05       		.uleb128 0x5
 5884 1570 04       		.byte	0x4
 5885 1571 75150000 		.4byte	0x1575
 5886 1575 06       		.uleb128 0x6
 5887 1576 F6140000 		.4byte	0x14f6
 5888 157a 16       		.uleb128 0x16
 5889 157b 6F000000 		.4byte	0x6f
 5890 157f 8A150000 		.4byte	0x158a
 5891 1583 17       		.uleb128 0x17
 5892 1584 68000000 		.4byte	0x68
 5893 1588 02       		.byte	0x2
 5894 1589 00       		.byte	0
 5895 158a 16       		.uleb128 0x16
 5896 158b 95000000 		.4byte	0x95
 5897 158f 9A150000 		.4byte	0x159a
 5898 1593 17       		.uleb128 0x17
ARM GAS  /tmp/ccx4dzgE.s 			page 105


 5899 1594 68000000 		.4byte	0x68
 5900 1598 07       		.byte	0x7
 5901 1599 00       		.byte	0
 5902 159a 05       		.uleb128 0x5
 5903 159b 04       		.byte	0x4
 5904 159c C2120000 		.4byte	0x12c2
 5905 15a0 05       		.uleb128 0x5
 5906 15a1 04       		.byte	0x4
 5907 15a2 A6150000 		.4byte	0x15a6
 5908 15a6 06       		.uleb128 0x6
 5909 15a7 00130000 		.4byte	0x1300
 5910 15ab 16       		.uleb128 0x16
 5911 15ac C9020000 		.4byte	0x2c9
 5912 15b0 BB150000 		.4byte	0x15bb
 5913 15b4 17       		.uleb128 0x17
 5914 15b5 68000000 		.4byte	0x68
 5915 15b9 25       		.byte	0x25
 5916 15ba 00       		.byte	0
 5917 15bb 0F       		.uleb128 0xf
 5918 15bc 10       		.byte	0x10
 5919 15bd 01       		.byte	0x1
 5920 15be 3D       		.byte	0x3d
 5921 15bf D9150000 		.4byte	0x15d9
 5922 15c3 20       		.uleb128 0x20
 5923 15c4 696E00   		.ascii	"in\000"
 5924 15c7 01       		.byte	0x1
 5925 15c8 41       		.byte	0x41
 5926 15c9 9F130000 		.4byte	0x139f
 5927 15cd 20       		.uleb128 0x20
 5928 15ce 6F757400 		.ascii	"out\000"
 5929 15d2 01       		.byte	0x1
 5930 15d3 45       		.byte	0x45
 5931 15d4 3E140000 		.4byte	0x143e
 5932 15d8 00       		.byte	0
 5933 15d9 21       		.uleb128 0x21
 5934 15da B0090000 		.4byte	.LASF366
 5935 15de 01       		.byte	0x1
 5936 15df F0       		.byte	0xf0
 5937 15e0 01       		.byte	0x1
 5938 15e1 46050000 		.4byte	0x546
 5939 15e5 01       		.byte	0x1
 5940 15e6 0A160000 		.4byte	0x160a
 5941 15ea 22       		.uleb128 0x22
 5942 15eb F6000000 		.4byte	.LASF365
 5943 15ef 01       		.byte	0x1
 5944 15f0 F0       		.byte	0xf0
 5945 15f1 B2090000 		.4byte	0x9b2
 5946 15f5 23       		.uleb128 0x23
 5947 15f6 62756600 		.ascii	"buf\000"
 5948 15fa 01       		.byte	0x1
 5949 15fb F0       		.byte	0xf0
 5950 15fc 46050000 		.4byte	0x546
 5951 1600 23       		.uleb128 0x23
 5952 1601 6E00     		.ascii	"n\000"
 5953 1603 01       		.byte	0x1
 5954 1604 F0       		.byte	0xf0
 5955 1605 8A000000 		.4byte	0x8a
ARM GAS  /tmp/ccx4dzgE.s 			page 106


 5956 1609 00       		.byte	0
 5957 160a 24       		.uleb128 0x24
 5958 160b 78100000 		.4byte	.LASF367
 5959 160f 01       		.byte	0x1
 5960 1610 5201     		.2byte	0x152
 5961 1612 01       		.byte	0x1
 5962 1613 46050000 		.4byte	0x546
 5963 1617 01       		.byte	0x1
 5964 1618 4B160000 		.4byte	0x164b
 5965 161c 25       		.uleb128 0x25
 5966 161d F6000000 		.4byte	.LASF365
 5967 1621 01       		.byte	0x1
 5968 1622 5201     		.2byte	0x152
 5969 1624 B2090000 		.4byte	0x9b2
 5970 1628 26       		.uleb128 0x26
 5971 1629 62756600 		.ascii	"buf\000"
 5972 162d 01       		.byte	0x1
 5973 162e 5201     		.2byte	0x152
 5974 1630 46050000 		.4byte	0x546
 5975 1634 26       		.uleb128 0x26
 5976 1635 6E00     		.ascii	"n\000"
 5977 1637 01       		.byte	0x1
 5978 1638 5201     		.2byte	0x152
 5979 163a 8A000000 		.4byte	0x8a
 5980 163e 27       		.uleb128 0x27
 5981 163f 28       		.uleb128 0x28
 5982 1640 7700     		.ascii	"w\000"
 5983 1642 01       		.byte	0x1
 5984 1643 5501     		.2byte	0x155
 5985 1645 B6000000 		.4byte	0xb6
 5986 1649 00       		.byte	0
 5987 164a 00       		.byte	0
 5988 164b 21       		.uleb128 0x21
 5989 164c 99130000 		.4byte	.LASF368
 5990 1650 02       		.byte	0x2
 5991 1651 34       		.byte	0x34
 5992 1652 01       		.byte	0x1
 5993 1653 8B020000 		.4byte	0x28b
 5994 1657 03       		.byte	0x3
 5995 1658 72160000 		.4byte	0x1672
 5996 165c 23       		.uleb128 0x23
 5997 165d 74717000 		.ascii	"tqp\000"
 5998 1661 02       		.byte	0x2
 5999 1662 34       		.byte	0x34
 6000 1663 72160000 		.4byte	0x1672
 6001 1667 29       		.uleb128 0x29
 6002 1668 747000   		.ascii	"tp\000"
 6003 166b 02       		.byte	0x2
 6004 166c 35       		.byte	0x35
 6005 166d 8B020000 		.4byte	0x28b
 6006 1671 00       		.byte	0
 6007 1672 05       		.uleb128 0x5
 6008 1673 04       		.byte	0x4
 6009 1674 91020000 		.4byte	0x291
 6010 1678 2A       		.uleb128 0x2a
 6011 1679 6D000000 		.4byte	.LASF369
 6012 167d 01       		.byte	0x1
ARM GAS  /tmp/ccx4dzgE.s 			page 107


 6013 167e 6901     		.2byte	0x169
 6014 1680 01       		.byte	0x1
 6015 1681 01       		.byte	0x1
 6016 1682 C1160000 		.4byte	0x16c1
 6017 1686 25       		.uleb128 0x25
 6018 1687 F6000000 		.4byte	.LASF365
 6019 168b 01       		.byte	0x1
 6020 168c 6901     		.2byte	0x169
 6021 168e B2090000 		.4byte	0x9b2
 6022 1692 26       		.uleb128 0x26
 6023 1693 62756600 		.ascii	"buf\000"
 6024 1697 01       		.byte	0x1
 6025 1698 6A01     		.2byte	0x16a
 6026 169a 46050000 		.4byte	0x546
 6027 169e 26       		.uleb128 0x26
 6028 169f 6E00     		.ascii	"n\000"
 6029 16a1 01       		.byte	0x1
 6030 16a2 6B01     		.2byte	0x16b
 6031 16a4 8A000000 		.4byte	0x8a
 6032 16a8 26       		.uleb128 0x26
 6033 16a9 6D617800 		.ascii	"max\000"
 6034 16ad 01       		.byte	0x1
 6035 16ae 6C01     		.2byte	0x16c
 6036 16b0 8A000000 		.4byte	0x8a
 6037 16b4 27       		.uleb128 0x27
 6038 16b5 28       		.uleb128 0x28
 6039 16b6 7700     		.ascii	"w\000"
 6040 16b8 01       		.byte	0x1
 6041 16b9 7101     		.2byte	0x171
 6042 16bb B6000000 		.4byte	0xb6
 6043 16bf 00       		.byte	0
 6044 16c0 00       		.byte	0
 6045 16c1 2A       		.uleb128 0x2a
 6046 16c2 06030000 		.4byte	.LASF370
 6047 16c6 01       		.byte	0x1
 6048 16c7 0501     		.2byte	0x105
 6049 16c9 01       		.byte	0x1
 6050 16ca 01       		.byte	0x1
 6051 16cb F2160000 		.4byte	0x16f2
 6052 16cf 25       		.uleb128 0x25
 6053 16d0 F6000000 		.4byte	.LASF365
 6054 16d4 01       		.byte	0x1
 6055 16d5 0501     		.2byte	0x105
 6056 16d7 B2090000 		.4byte	0x9b2
 6057 16db 26       		.uleb128 0x26
 6058 16dc 62756600 		.ascii	"buf\000"
 6059 16e0 01       		.byte	0x1
 6060 16e1 0601     		.2byte	0x106
 6061 16e3 62050000 		.4byte	0x562
 6062 16e7 26       		.uleb128 0x26
 6063 16e8 6E00     		.ascii	"n\000"
 6064 16ea 01       		.byte	0x1
 6065 16eb 0701     		.2byte	0x107
 6066 16ed 8A000000 		.4byte	0x8a
 6067 16f1 00       		.byte	0
 6068 16f2 2B       		.uleb128 0x2b
 6069 16f3 F4110000 		.4byte	.LASF371
ARM GAS  /tmp/ccx4dzgE.s 			page 108


 6070 16f7 01       		.byte	0x1
 6071 16f8 CD       		.byte	0xcd
 6072 16f9 01       		.byte	0x1
 6073 16fa 01       		.byte	0x1
 6074 16fb 0B170000 		.4byte	0x170b
 6075 16ff 22       		.uleb128 0x22
 6076 1700 AB080000 		.4byte	.LASF372
 6077 1704 01       		.byte	0x1
 6078 1705 CD       		.byte	0xcd
 6079 1706 4A0C0000 		.4byte	0xc4a
 6080 170a 00       		.byte	0
 6081 170b 21       		.uleb128 0x21
 6082 170c AC130000 		.4byte	.LASF373
 6083 1710 01       		.byte	0x1
 6084 1711 DA       		.byte	0xda
 6085 1712 01       		.byte	0x1
 6086 1713 B6000000 		.4byte	0xb6
 6087 1717 01       		.byte	0x1
 6088 1718 3E170000 		.4byte	0x173e
 6089 171c 22       		.uleb128 0x22
 6090 171d AB080000 		.4byte	.LASF372
 6091 1721 01       		.byte	0x1
 6092 1722 DA       		.byte	0xda
 6093 1723 4A0C0000 		.4byte	0xc4a
 6094 1727 22       		.uleb128 0x22
 6095 1728 490D0000 		.4byte	.LASF374
 6096 172c 01       		.byte	0x1
 6097 172d DA       		.byte	0xda
 6098 172e 8A000000 		.4byte	0x8a
 6099 1732 2C       		.uleb128 0x2c
 6100 1733 8D130000 		.4byte	.LASF375
 6101 1737 01       		.byte	0x1
 6102 1738 DB       		.byte	0xdb
 6103 1739 B6000000 		.4byte	0xb6
 6104 173d 00       		.byte	0
 6105 173e 2A       		.uleb128 0x2a
 6106 173f C1070000 		.4byte	.LASF376
 6107 1743 01       		.byte	0x1
 6108 1744 5A02     		.2byte	0x25a
 6109 1746 01       		.byte	0x1
 6110 1747 01       		.byte	0x1
 6111 1748 9D170000 		.4byte	0x179d
 6112 174c 25       		.uleb128 0x25
 6113 174d AB080000 		.4byte	.LASF372
 6114 1751 01       		.byte	0x1
 6115 1752 5A02     		.2byte	0x25a
 6116 1754 4A0C0000 		.4byte	0xc4a
 6117 1758 2D       		.uleb128 0x2d
 6118 1759 D8120000 		.4byte	.LASF377
 6119 175d 01       		.byte	0x1
 6120 175e 5B02     		.2byte	0x25b
 6121 1760 9A150000 		.4byte	0x159a
 6122 1764 28       		.uleb128 0x28
 6123 1765 73747300 		.ascii	"sts\000"
 6124 1769 01       		.byte	0x1
 6125 176a 5C02     		.2byte	0x25c
 6126 176c B6000000 		.4byte	0xb6
ARM GAS  /tmp/ccx4dzgE.s 			page 109


 6127 1770 28       		.uleb128 0x28
 6128 1771 73726300 		.ascii	"src\000"
 6129 1775 01       		.byte	0x1
 6130 1776 5C02     		.2byte	0x25c
 6131 1778 B6000000 		.4byte	0xb6
 6132 177c 2E       		.uleb128 0x2e
 6133 177d 8E170000 		.4byte	0x178e
 6134 1781 28       		.uleb128 0x28
 6135 1782 746D7000 		.ascii	"tmp\000"
 6136 1786 01       		.byte	0x1
 6137 1787 7502     		.2byte	0x275
 6138 1789 B6000000 		.4byte	0xb6
 6139 178d 00       		.byte	0
 6140 178e 27       		.uleb128 0x27
 6141 178f 28       		.uleb128 0x28
 6142 1790 746D7000 		.ascii	"tmp\000"
 6143 1794 01       		.byte	0x1
 6144 1795 7802     		.2byte	0x278
 6145 1797 B6000000 		.4byte	0xb6
 6146 179b 00       		.byte	0
 6147 179c 00       		.byte	0
 6148 179d 2F       		.uleb128 0x2f
 6149 179e 30130000 		.4byte	.LASF378
 6150 17a2 01       		.byte	0x1
 6151 17a3 8D       		.byte	0x8d
 6152 17a4 01       		.byte	0x1
 6153 17a5 00000000 		.4byte	.LFB120
 6154 17a9 82000000 		.4byte	.LFE120
 6155 17ad 00000000 		.4byte	.LLST0
 6156 17b1 01       		.byte	0x1
 6157 17b2 E0170000 		.4byte	0x17e0
 6158 17b6 30       		.uleb128 0x30
 6159 17b7 AB080000 		.4byte	.LASF372
 6160 17bb 01       		.byte	0x1
 6161 17bc 8D       		.byte	0x8d
 6162 17bd 4A0C0000 		.4byte	0xc4a
 6163 17c1 20000000 		.4byte	.LLST1
 6164 17c5 31       		.uleb128 0x31
 6165 17c6 D8120000 		.4byte	.LASF377
 6166 17ca 01       		.byte	0x1
 6167 17cb 8E       		.byte	0x8e
 6168 17cc 9A150000 		.4byte	0x159a
 6169 17d0 01       		.byte	0x1
 6170 17d1 53       		.byte	0x53
 6171 17d2 32       		.uleb128 0x32
 6172 17d3 6900     		.ascii	"i\000"
 6173 17d5 01       		.byte	0x1
 6174 17d6 8F       		.byte	0x8f
 6175 17d7 29000000 		.4byte	0x29
 6176 17db 41000000 		.4byte	.LLST2
 6177 17df 00       		.byte	0
 6178 17e0 33       		.uleb128 0x33
 6179 17e1 C3050000 		.4byte	.LASF379
 6180 17e5 01       		.byte	0x1
 6181 17e6 4002     		.2byte	0x240
 6182 17e8 01       		.byte	0x1
 6183 17e9 00000000 		.4byte	.LFB134
ARM GAS  /tmp/ccx4dzgE.s 			page 110


 6184 17ed 5C000000 		.4byte	.LFE134
 6185 17f1 6B000000 		.4byte	.LLST3
 6186 17f5 01       		.byte	0x1
 6187 17f6 5E180000 		.4byte	0x185e
 6188 17fa 34       		.uleb128 0x34
 6189 17fb AB080000 		.4byte	.LASF372
 6190 17ff 01       		.byte	0x1
 6191 1800 4002     		.2byte	0x240
 6192 1802 4A0C0000 		.4byte	0xc4a
 6193 1806 8B000000 		.4byte	.LLST4
 6194 180a 35       		.uleb128 0x35
 6195 180b 657000   		.ascii	"ep\000"
 6196 180e 01       		.byte	0x1
 6197 180f 4002     		.2byte	0x240
 6198 1811 1C0B0000 		.4byte	0xb1c
 6199 1815 BF000000 		.4byte	.LLST5
 6200 1819 36       		.uleb128 0x36
 6201 181a D8120000 		.4byte	.LASF377
 6202 181e 01       		.byte	0x1
 6203 181f 4102     		.2byte	0x241
 6204 1821 9A150000 		.4byte	0x159a
 6205 1825 01       		.byte	0x1
 6206 1826 54       		.byte	0x54
 6207 1827 36       		.uleb128 0x36
 6208 1828 05060000 		.4byte	.LASF380
 6209 182c 01       		.byte	0x1
 6210 182d 4202     		.2byte	0x242
 6211 182f B6000000 		.4byte	0xb6
 6212 1833 01       		.byte	0x1
 6213 1834 56       		.byte	0x56
 6214 1835 37       		.uleb128 0x37
 6215 1836 4E000000 		.4byte	.LVL11
 6216 183a 4B180000 		.4byte	0x184b
 6217 183e 38       		.uleb128 0x38
 6218 183f 01       		.byte	0x1
 6219 1840 51       		.byte	0x51
 6220 1841 02       		.byte	0x2
 6221 1842 77       		.byte	0x77
 6222 1843 00       		.sleb128 0
 6223 1844 38       		.uleb128 0x38
 6224 1845 01       		.byte	0x1
 6225 1846 50       		.byte	0x50
 6226 1847 02       		.byte	0x2
 6227 1848 75       		.byte	0x75
 6228 1849 00       		.sleb128 0
 6229 184a 00       		.byte	0
 6230 184b 39       		.uleb128 0x39
 6231 184c 5A000000 		.4byte	.LVL13
 6232 1850 38       		.uleb128 0x38
 6233 1851 01       		.byte	0x1
 6234 1852 51       		.byte	0x51
 6235 1853 02       		.byte	0x2
 6236 1854 77       		.byte	0x77
 6237 1855 00       		.sleb128 0
 6238 1856 38       		.uleb128 0x38
 6239 1857 01       		.byte	0x1
 6240 1858 50       		.byte	0x50
ARM GAS  /tmp/ccx4dzgE.s 			page 111


 6241 1859 02       		.byte	0x2
 6242 185a 75       		.byte	0x75
 6243 185b 00       		.sleb128 0
 6244 185c 00       		.byte	0
 6245 185d 00       		.byte	0
 6246 185e 3A       		.uleb128 0x3a
 6247 185f EC0F0000 		.4byte	.LASF381
 6248 1863 01       		.byte	0x1
 6249 1864 BC       		.byte	0xbc
 6250 1865 01       		.byte	0x1
 6251 1866 00000000 		.4byte	.LFB122
 6252 186a 16000000 		.4byte	.LFE122
 6253 186e 02       		.byte	0x2
 6254 186f 7D       		.byte	0x7d
 6255 1870 00       		.sleb128 0
 6256 1871 01       		.byte	0x1
 6257 1872 B4180000 		.4byte	0x18b4
 6258 1876 30       		.uleb128 0x30
 6259 1877 AB080000 		.4byte	.LASF372
 6260 187b 01       		.byte	0x1
 6261 187c BC       		.byte	0xbc
 6262 187d 4A0C0000 		.4byte	0xc4a
 6263 1881 F9000000 		.4byte	.LLST6
 6264 1885 30       		.uleb128 0x30
 6265 1886 8A020000 		.4byte	.LASF382
 6266 188a 01       		.byte	0x1
 6267 188b BC       		.byte	0xbc
 6268 188c B6000000 		.4byte	0xb6
 6269 1890 1A010000 		.4byte	.LLST7
 6270 1894 3B       		.uleb128 0x3b
 6271 1895 D8120000 		.4byte	.LASF377
 6272 1899 01       		.byte	0x1
 6273 189a BD       		.byte	0xbd
 6274 189b 9A150000 		.4byte	0x159a
 6275 189f 3B010000 		.4byte	.LLST8
 6276 18a3 3C       		.uleb128 0x3c
 6277 18a4 16000000 		.4byte	.LVL18
 6278 18a8 01       		.byte	0x1
 6279 18a9 FE280000 		.4byte	0x28fe
 6280 18ad 38       		.uleb128 0x38
 6281 18ae 01       		.byte	0x1
 6282 18af 50       		.byte	0x50
 6283 18b0 01       		.byte	0x1
 6284 18b1 3C       		.byte	0x3c
 6285 18b2 00       		.byte	0
 6286 18b3 00       		.byte	0
 6287 18b4 2A       		.uleb128 0x2a
 6288 18b5 E0040000 		.4byte	.LASF383
 6289 18b9 01       		.byte	0x1
 6290 18ba BD01     		.2byte	0x1bd
 6291 18bc 01       		.byte	0x1
 6292 18bd 01       		.byte	0x1
 6293 18be F2180000 		.4byte	0x18f2
 6294 18c2 25       		.uleb128 0x25
 6295 18c3 AB080000 		.4byte	.LASF372
 6296 18c7 01       		.byte	0x1
 6297 18c8 BD01     		.2byte	0x1bd
ARM GAS  /tmp/ccx4dzgE.s 			page 112


 6298 18ca 4A0C0000 		.4byte	0xc4a
 6299 18ce 28       		.uleb128 0x28
 6300 18cf 73747300 		.ascii	"sts\000"
 6301 18d3 01       		.byte	0x1
 6302 18d4 BE01     		.2byte	0x1be
 6303 18d6 B6000000 		.4byte	0xb6
 6304 18da 28       		.uleb128 0x28
 6305 18db 636E7400 		.ascii	"cnt\000"
 6306 18df 01       		.byte	0x1
 6307 18e0 BE01     		.2byte	0x1be
 6308 18e2 B6000000 		.4byte	0xb6
 6309 18e6 28       		.uleb128 0x28
 6310 18e7 657000   		.ascii	"ep\000"
 6311 18ea 01       		.byte	0x1
 6312 18eb BE01     		.2byte	0x1be
 6313 18ed B6000000 		.4byte	0xb6
 6314 18f1 00       		.byte	0
 6315 18f2 2A       		.uleb128 0x2a
 6316 18f3 62110000 		.4byte	.LASF384
 6317 18f7 01       		.byte	0x1
 6318 18f8 8601     		.2byte	0x186
 6319 18fa 01       		.byte	0x1
 6320 18fb 01       		.byte	0x1
 6321 18fc 8E190000 		.4byte	0x198e
 6322 1900 25       		.uleb128 0x25
 6323 1901 F6000000 		.4byte	.LASF365
 6324 1905 01       		.byte	0x1
 6325 1906 8601     		.2byte	0x186
 6326 1908 B2090000 		.4byte	0x9b2
 6327 190c 26       		.uleb128 0x26
 6328 190d 69717000 		.ascii	"iqp\000"
 6329 1911 01       		.byte	0x1
 6330 1912 8701     		.2byte	0x187
 6331 1914 D8130000 		.4byte	0x13d8
 6332 1918 26       		.uleb128 0x26
 6333 1919 6E00     		.ascii	"n\000"
 6334 191b 01       		.byte	0x1
 6335 191c 8801     		.2byte	0x188
 6336 191e 8A000000 		.4byte	0x8a
 6337 1922 2D       		.uleb128 0x2d
 6338 1923 5E120000 		.4byte	.LASF385
 6339 1927 01       		.byte	0x1
 6340 1928 8901     		.2byte	0x189
 6341 192a 8A000000 		.4byte	0x8a
 6342 192e 2E       		.uleb128 0x2e
 6343 192f 6D190000 		.4byte	0x196d
 6344 1933 28       		.uleb128 0x28
 6345 1934 7700     		.ascii	"w\000"
 6346 1936 01       		.byte	0x1
 6347 1937 8D01     		.2byte	0x18d
 6348 1939 B6000000 		.4byte	0xb6
 6349 193d 28       		.uleb128 0x28
 6350 193e 6900     		.ascii	"i\000"
 6351 1940 01       		.byte	0x1
 6352 1941 8D01     		.2byte	0x18d
 6353 1943 B6000000 		.4byte	0xb6
 6354 1947 28       		.uleb128 0x28
ARM GAS  /tmp/ccx4dzgE.s 			page 113


 6355 1948 6E7700   		.ascii	"nw\000"
 6356 194b 01       		.byte	0x1
 6357 194c 8E01     		.2byte	0x18e
 6358 194e 8A000000 		.4byte	0x8a
 6359 1952 27       		.uleb128 0x27
 6360 1953 2D       		.uleb128 0x2d
 6361 1954 15060000 		.4byte	.LASF386
 6362 1958 01       		.byte	0x1
 6363 1959 9101     		.2byte	0x191
 6364 195b 8A000000 		.4byte	0x8a
 6365 195f 2D       		.uleb128 0x2d
 6366 1960 0D130000 		.4byte	.LASF387
 6367 1964 01       		.byte	0x1
 6368 1965 9201     		.2byte	0x192
 6369 1967 B6000000 		.4byte	0xb6
 6370 196b 00       		.byte	0
 6371 196c 00       		.byte	0
 6372 196d 2E       		.uleb128 0x2e
 6373 196e 7F190000 		.4byte	0x197f
 6374 1972 28       		.uleb128 0x28
 6375 1973 746D7000 		.ascii	"tmp\000"
 6376 1977 01       		.byte	0x1
 6377 1978 AE01     		.2byte	0x1ae
 6378 197a B6000000 		.4byte	0xb6
 6379 197e 00       		.byte	0
 6380 197f 27       		.uleb128 0x27
 6381 1980 28       		.uleb128 0x28
 6382 1981 746D7000 		.ascii	"tmp\000"
 6383 1985 01       		.byte	0x1
 6384 1986 B301     		.2byte	0x1b3
 6385 1988 B6000000 		.4byte	0xb6
 6386 198c 00       		.byte	0
 6387 198d 00       		.byte	0
 6388 198e 24       		.uleb128 0x24
 6389 198f 52090000 		.4byte	.LASF388
 6390 1993 01       		.byte	0x1
 6391 1994 EC01     		.2byte	0x1ec
 6392 1996 01       		.byte	0x1
 6393 1997 CC000000 		.4byte	0xcc
 6394 199b 01       		.byte	0x1
 6395 199c C4190000 		.4byte	0x19c4
 6396 19a0 25       		.uleb128 0x25
 6397 19a1 AB080000 		.4byte	.LASF372
 6398 19a5 01       		.byte	0x1
 6399 19a6 EC01     		.2byte	0x1ec
 6400 19a8 4A0C0000 		.4byte	0xc4a
 6401 19ac 26       		.uleb128 0x26
 6402 19ad 657000   		.ascii	"ep\000"
 6403 19b0 01       		.byte	0x1
 6404 19b1 EC01     		.2byte	0x1ec
 6405 19b3 1C0B0000 		.4byte	0xb1c
 6406 19b7 27       		.uleb128 0x27
 6407 19b8 28       		.uleb128 0x28
 6408 19b9 6E00     		.ascii	"n\000"
 6409 19bb 01       		.byte	0x1
 6410 19bc F001     		.2byte	0x1f0
 6411 19be B6000000 		.4byte	0xb6
ARM GAS  /tmp/ccx4dzgE.s 			page 114


 6412 19c2 00       		.byte	0
 6413 19c3 00       		.byte	0
 6414 19c4 2A       		.uleb128 0x2a
 6415 19c5 2A030000 		.4byte	.LASF389
 6416 19c9 01       		.byte	0x1
 6417 19ca 1501     		.2byte	0x115
 6418 19cc 01       		.byte	0x1
 6419 19cd 01       		.byte	0x1
 6420 19ce 601A0000 		.4byte	0x1a60
 6421 19d2 25       		.uleb128 0x25
 6422 19d3 F6000000 		.4byte	.LASF365
 6423 19d7 01       		.byte	0x1
 6424 19d8 1501     		.2byte	0x115
 6425 19da B2090000 		.4byte	0x9b2
 6426 19de 26       		.uleb128 0x26
 6427 19df 6F717000 		.ascii	"oqp\000"
 6428 19e3 01       		.byte	0x1
 6429 19e4 1601     		.2byte	0x116
 6430 19e6 39130000 		.4byte	0x1339
 6431 19ea 26       		.uleb128 0x26
 6432 19eb 6E00     		.ascii	"n\000"
 6433 19ed 01       		.byte	0x1
 6434 19ee 1701     		.2byte	0x117
 6435 19f0 8A000000 		.4byte	0x8a
 6436 19f4 2D       		.uleb128 0x2d
 6437 19f5 5E120000 		.4byte	.LASF385
 6438 19f9 01       		.byte	0x1
 6439 19fa 1801     		.2byte	0x118
 6440 19fc 8A000000 		.4byte	0x8a
 6441 1a00 2E       		.uleb128 0x2e
 6442 1a01 3F1A0000 		.4byte	0x1a3f
 6443 1a05 28       		.uleb128 0x28
 6444 1a06 7700     		.ascii	"w\000"
 6445 1a08 01       		.byte	0x1
 6446 1a09 1C01     		.2byte	0x11c
 6447 1a0b B6000000 		.4byte	0xb6
 6448 1a0f 28       		.uleb128 0x28
 6449 1a10 6900     		.ascii	"i\000"
 6450 1a12 01       		.byte	0x1
 6451 1a13 1C01     		.2byte	0x11c
 6452 1a15 B6000000 		.4byte	0xb6
 6453 1a19 28       		.uleb128 0x28
 6454 1a1a 6E7700   		.ascii	"nw\000"
 6455 1a1d 01       		.byte	0x1
 6456 1a1e 1D01     		.2byte	0x11d
 6457 1a20 8A000000 		.4byte	0x8a
 6458 1a24 27       		.uleb128 0x27
 6459 1a25 2D       		.uleb128 0x2d
 6460 1a26 15060000 		.4byte	.LASF386
 6461 1a2a 01       		.byte	0x1
 6462 1a2b 2001     		.2byte	0x120
 6463 1a2d 8A000000 		.4byte	0x8a
 6464 1a31 2D       		.uleb128 0x2d
 6465 1a32 0D130000 		.4byte	.LASF387
 6466 1a36 01       		.byte	0x1
 6467 1a37 2101     		.2byte	0x121
 6468 1a39 B6000000 		.4byte	0xb6
ARM GAS  /tmp/ccx4dzgE.s 			page 115


 6469 1a3d 00       		.byte	0
 6470 1a3e 00       		.byte	0
 6471 1a3f 2E       		.uleb128 0x2e
 6472 1a40 511A0000 		.4byte	0x1a51
 6473 1a44 28       		.uleb128 0x28
 6474 1a45 746D7000 		.ascii	"tmp\000"
 6475 1a49 01       		.byte	0x1
 6476 1a4a 3E01     		.2byte	0x13e
 6477 1a4c B6000000 		.4byte	0xb6
 6478 1a50 00       		.byte	0
 6479 1a51 27       		.uleb128 0x27
 6480 1a52 28       		.uleb128 0x28
 6481 1a53 746D7000 		.ascii	"tmp\000"
 6482 1a57 01       		.byte	0x1
 6483 1a58 4301     		.2byte	0x143
 6484 1a5a B6000000 		.4byte	0xb6
 6485 1a5e 00       		.byte	0
 6486 1a5f 00       		.byte	0
 6487 1a60 3D       		.uleb128 0x3d
 6488 1a61 970C0000 		.4byte	.LASF436
 6489 1a65 01       		.byte	0x1
 6490 1a66 A302     		.2byte	0x2a3
 6491 1a68 01       		.byte	0x1
 6492 1a69 15010000 		.4byte	0x115
 6493 1a6d 00000000 		.4byte	.LFB136
 6494 1a71 96040000 		.4byte	.LFE136
 6495 1a75 4E010000 		.4byte	.LLST9
 6496 1a79 01       		.byte	0x1
 6497 1a7a 221F0000 		.4byte	0x1f22
 6498 1a7e 35       		.uleb128 0x35
 6499 1a7f 7000     		.ascii	"p\000"
 6500 1a81 01       		.byte	0x1
 6501 1a82 A302     		.2byte	0x2a3
 6502 1a84 6F000000 		.4byte	0x6f
 6503 1a88 7B010000 		.4byte	.LLST10
 6504 1a8c 3E       		.uleb128 0x3e
 6505 1a8d AB080000 		.4byte	.LASF372
 6506 1a91 01       		.byte	0x1
 6507 1a92 A402     		.2byte	0x2a4
 6508 1a94 4A0C0000 		.4byte	0xc4a
 6509 1a98 99010000 		.4byte	.LLST11
 6510 1a9c 36       		.uleb128 0x36
 6511 1a9d D8120000 		.4byte	.LASF377
 6512 1aa1 01       		.byte	0x1
 6513 1aa2 A502     		.2byte	0x2a5
 6514 1aa4 9A150000 		.4byte	0x159a
 6515 1aa8 01       		.byte	0x1
 6516 1aa9 5A       		.byte	0x5a
 6517 1aaa 3F       		.uleb128 0x3f
 6518 1aab 00000000 		.4byte	.Ldebug_ranges0+0
 6519 1aaf C41A0000 		.4byte	0x1ac4
 6520 1ab3 40       		.uleb128 0x40
 6521 1ab4 746D7000 		.ascii	"tmp\000"
 6522 1ab8 01       		.byte	0x1
 6523 1ab9 A802     		.2byte	0x2a8
 6524 1abb B6000000 		.4byte	0xb6
 6525 1abf B7010000 		.4byte	.LLST12
ARM GAS  /tmp/ccx4dzgE.s 			page 116


 6526 1ac3 00       		.byte	0
 6527 1ac4 41       		.uleb128 0x41
 6528 1ac5 18000000 		.4byte	.Ldebug_ranges0+0x18
 6529 1ac9 40       		.uleb128 0x40
 6530 1aca 657000   		.ascii	"ep\000"
 6531 1acd 01       		.byte	0x1
 6532 1ace AA02     		.2byte	0x2aa
 6533 1ad0 1C0B0000 		.4byte	0xb1c
 6534 1ad4 CA010000 		.4byte	.LLST13
 6535 1ad8 3E       		.uleb128 0x3e
 6536 1ad9 94050000 		.4byte	.LASF390
 6537 1add 01       		.byte	0x1
 6538 1ade AB02     		.2byte	0x2ab
 6539 1ae0 B6000000 		.4byte	0xb6
 6540 1ae4 F4010000 		.4byte	.LLST14
 6541 1ae8 3F       		.uleb128 0x3f
 6542 1ae9 30000000 		.4byte	.Ldebug_ranges0+0x30
 6543 1aed 021B0000 		.4byte	0x1b02
 6544 1af1 40       		.uleb128 0x40
 6545 1af2 746D7000 		.ascii	"tmp\000"
 6546 1af6 01       		.byte	0x1
 6547 1af7 B402     		.2byte	0x2b4
 6548 1af9 B6000000 		.4byte	0xb6
 6549 1afd 2A020000 		.4byte	.LLST15
 6550 1b01 00       		.byte	0
 6551 1b02 42       		.uleb128 0x42
 6552 1b03 B4180000 		.4byte	0x18b4
 6553 1b07 6C000000 		.4byte	.LBB90
 6554 1b0b 48000000 		.4byte	.Ldebug_ranges0+0x48
 6555 1b0f 01       		.byte	0x1
 6556 1b10 BB02     		.2byte	0x2bb
 6557 1b12 C21C0000 		.4byte	0x1cc2
 6558 1b16 43       		.uleb128 0x43
 6559 1b17 C2180000 		.4byte	0x18c2
 6560 1b1b 53020000 		.4byte	.LLST16
 6561 1b1f 41       		.uleb128 0x41
 6562 1b20 60000000 		.4byte	.Ldebug_ranges0+0x60
 6563 1b24 44       		.uleb128 0x44
 6564 1b25 CE180000 		.4byte	0x18ce
 6565 1b29 71020000 		.4byte	.LLST17
 6566 1b2d 44       		.uleb128 0x44
 6567 1b2e DA180000 		.4byte	0x18da
 6568 1b32 8F020000 		.4byte	.LLST18
 6569 1b36 44       		.uleb128 0x44
 6570 1b37 E6180000 		.4byte	0x18e6
 6571 1b3b C0020000 		.4byte	.LLST19
 6572 1b3f 42       		.uleb128 0x42
 6573 1b40 78160000 		.4byte	0x1678
 6574 1b44 90000000 		.4byte	.LBB92
 6575 1b48 78000000 		.4byte	.Ldebug_ranges0+0x78
 6576 1b4c 01       		.byte	0x1
 6577 1b4d C701     		.2byte	0x1c7
 6578 1b4f 871B0000 		.4byte	0x1b87
 6579 1b53 43       		.uleb128 0x43
 6580 1b54 A8160000 		.4byte	0x16a8
 6581 1b58 FC020000 		.4byte	.LLST20
 6582 1b5c 43       		.uleb128 0x43
ARM GAS  /tmp/ccx4dzgE.s 			page 117


 6583 1b5d 9E160000 		.4byte	0x169e
 6584 1b61 32030000 		.4byte	.LLST21
 6585 1b65 43       		.uleb128 0x43
 6586 1b66 92160000 		.4byte	0x1692
 6587 1b6a 5F030000 		.4byte	.LLST22
 6588 1b6e 43       		.uleb128 0x43
 6589 1b6f 86160000 		.4byte	0x1686
 6590 1b73 72030000 		.4byte	.LLST23
 6591 1b77 41       		.uleb128 0x41
 6592 1b78 90000000 		.4byte	.Ldebug_ranges0+0x90
 6593 1b7c 44       		.uleb128 0x44
 6594 1b7d B5160000 		.4byte	0x16b5
 6595 1b81 A5030000 		.4byte	.LLST24
 6596 1b85 00       		.byte	0
 6597 1b86 00       		.byte	0
 6598 1b87 45       		.uleb128 0x45
 6599 1b88 78160000 		.4byte	0x1678
 6600 1b8c 2A010000 		.4byte	.LBB101
 6601 1b90 88010000 		.4byte	.LBE101
 6602 1b94 01       		.byte	0x1
 6603 1b95 D401     		.2byte	0x1d4
 6604 1b97 CF1B0000 		.4byte	0x1bcf
 6605 1b9b 43       		.uleb128 0x43
 6606 1b9c A8160000 		.4byte	0x16a8
 6607 1ba0 C4030000 		.4byte	.LLST25
 6608 1ba4 43       		.uleb128 0x43
 6609 1ba5 9E160000 		.4byte	0x169e
 6610 1ba9 12040000 		.4byte	.LLST26
 6611 1bad 43       		.uleb128 0x43
 6612 1bae 92160000 		.4byte	0x1692
 6613 1bb2 4E040000 		.4byte	.LLST27
 6614 1bb6 43       		.uleb128 0x43
 6615 1bb7 86160000 		.4byte	0x1686
 6616 1bbb 6C040000 		.4byte	.LLST28
 6617 1bbf 41       		.uleb128 0x41
 6618 1bc0 C0000000 		.4byte	.Ldebug_ranges0+0xc0
 6619 1bc4 44       		.uleb128 0x44
 6620 1bc5 B5160000 		.4byte	0x16b5
 6621 1bc9 9F040000 		.4byte	.LLST29
 6622 1bcd 00       		.byte	0
 6623 1bce 00       		.byte	0
 6624 1bcf 46       		.uleb128 0x46
 6625 1bd0 F2180000 		.4byte	0x18f2
 6626 1bd4 A2010000 		.4byte	.LBB106
 6627 1bd8 60020000 		.4byte	.LBE106
 6628 1bdc 01       		.byte	0x1
 6629 1bdd CF01     		.2byte	0x1cf
 6630 1bdf 43       		.uleb128 0x43
 6631 1be0 18190000 		.4byte	0x1918
 6632 1be4 B2040000 		.4byte	.LLST30
 6633 1be8 43       		.uleb128 0x43
 6634 1be9 0C190000 		.4byte	0x190c
 6635 1bed C5040000 		.4byte	.LLST31
 6636 1bf1 43       		.uleb128 0x43
 6637 1bf2 00190000 		.4byte	0x1900
 6638 1bf6 D8040000 		.4byte	.LLST32
 6639 1bfa 47       		.uleb128 0x47
ARM GAS  /tmp/ccx4dzgE.s 			page 118


 6640 1bfb A2010000 		.4byte	.LBB107
 6641 1bff 60020000 		.4byte	.LBE107
 6642 1c03 44       		.uleb128 0x44
 6643 1c04 22190000 		.4byte	0x1922
 6644 1c08 FD040000 		.4byte	.LLST33
 6645 1c0c 48       		.uleb128 0x48
 6646 1c0d AA010000 		.4byte	.LBB108
 6647 1c11 28020000 		.4byte	.LBE108
 6648 1c15 4D1C0000 		.4byte	0x1c4d
 6649 1c19 44       		.uleb128 0x44
 6650 1c1a 33190000 		.4byte	0x1933
 6651 1c1e 5A050000 		.4byte	.LLST34
 6652 1c22 44       		.uleb128 0x44
 6653 1c23 3D190000 		.4byte	0x193d
 6654 1c27 6D050000 		.4byte	.LLST35
 6655 1c2b 44       		.uleb128 0x44
 6656 1c2c 47190000 		.4byte	0x1947
 6657 1c30 A5050000 		.4byte	.LLST36
 6658 1c34 41       		.uleb128 0x41
 6659 1c35 E0000000 		.4byte	.Ldebug_ranges0+0xe0
 6660 1c39 44       		.uleb128 0x44
 6661 1c3a 53190000 		.4byte	0x1953
 6662 1c3e CB050000 		.4byte	.LLST37
 6663 1c42 44       		.uleb128 0x44
 6664 1c43 5F190000 		.4byte	0x195f
 6665 1c47 CB050000 		.4byte	.LLST37
 6666 1c4b 00       		.byte	0
 6667 1c4c 00       		.byte	0
 6668 1c4d 48       		.uleb128 0x48
 6669 1c4e 28020000 		.4byte	.LBB112
 6670 1c52 2E020000 		.4byte	.LBE112
 6671 1c56 641C0000 		.4byte	0x1c64
 6672 1c5a 44       		.uleb128 0x44
 6673 1c5b 72190000 		.4byte	0x1972
 6674 1c5f DF050000 		.4byte	.LLST39
 6675 1c63 00       		.byte	0
 6676 1c64 45       		.uleb128 0x45
 6677 1c65 4B160000 		.4byte	0x164b
 6678 1c69 3A020000 		.4byte	.LBB113
 6679 1c6d 40020000 		.4byte	.LBE113
 6680 1c71 01       		.byte	0x1
 6681 1c72 B101     		.2byte	0x1b1
 6682 1c74 951C0000 		.4byte	0x1c95
 6683 1c78 43       		.uleb128 0x43
 6684 1c79 5C160000 		.4byte	0x165c
 6685 1c7d FD050000 		.4byte	.LLST40
 6686 1c81 47       		.uleb128 0x47
 6687 1c82 3A020000 		.4byte	.LBB114
 6688 1c86 40020000 		.4byte	.LBE114
 6689 1c8a 44       		.uleb128 0x44
 6690 1c8b 67160000 		.4byte	0x1667
 6691 1c8f 10060000 		.4byte	.LLST41
 6692 1c93 00       		.byte	0
 6693 1c94 00       		.byte	0
 6694 1c95 48       		.uleb128 0x48
 6695 1c96 52020000 		.4byte	.LBB115
 6696 1c9a 60020000 		.4byte	.LBE115
ARM GAS  /tmp/ccx4dzgE.s 			page 119


 6697 1c9e AC1C0000 		.4byte	0x1cac
 6698 1ca2 44       		.uleb128 0x44
 6699 1ca3 80190000 		.4byte	0x1980
 6700 1ca7 23060000 		.4byte	.LLST42
 6701 1cab 00       		.byte	0
 6702 1cac 49       		.uleb128 0x49
 6703 1cad 44020000 		.4byte	.LVL102
 6704 1cb1 12290000 		.4byte	0x2912
 6705 1cb5 49       		.uleb128 0x49
 6706 1cb6 52020000 		.4byte	.LVL104
 6707 1cba 2A290000 		.4byte	0x292a
 6708 1cbe 00       		.byte	0
 6709 1cbf 00       		.byte	0
 6710 1cc0 00       		.byte	0
 6711 1cc1 00       		.byte	0
 6712 1cc2 48       		.uleb128 0x48
 6713 1cc3 04010000 		.4byte	.LBB117
 6714 1cc7 0A010000 		.4byte	.LBE117
 6715 1ccb E01C0000 		.4byte	0x1ce0
 6716 1ccf 40       		.uleb128 0x40
 6717 1cd0 746D7000 		.ascii	"tmp\000"
 6718 1cd4 01       		.byte	0x1
 6719 1cd5 D702     		.2byte	0x2d7
 6720 1cd7 B6000000 		.4byte	0xb6
 6721 1cdb 62060000 		.4byte	.LLST43
 6722 1cdf 00       		.byte	0
 6723 1ce0 48       		.uleb128 0x48
 6724 1ce1 60020000 		.4byte	.LBB119
 6725 1ce5 96040000 		.4byte	.LBE119
 6726 1ce9 111F0000 		.4byte	0x1f11
 6727 1ced 36       		.uleb128 0x36
 6728 1cee FC080000 		.4byte	.LASF391
 6729 1cf2 01       		.byte	0x1
 6730 1cf3 C002     		.2byte	0x2c0
 6731 1cf5 CC000000 		.4byte	0xcc
 6732 1cf9 01       		.byte	0x1
 6733 1cfa 52       		.byte	0x52
 6734 1cfb 48       		.uleb128 0x48
 6735 1cfc 60020000 		.4byte	.LBB120
 6736 1d00 66020000 		.4byte	.LBE120
 6737 1d04 191D0000 		.4byte	0x1d19
 6738 1d08 40       		.uleb128 0x40
 6739 1d09 746D7000 		.ascii	"tmp\000"
 6740 1d0d 01       		.byte	0x1
 6741 1d0e C202     		.2byte	0x2c2
 6742 1d10 B6000000 		.4byte	0xb6
 6743 1d14 80060000 		.4byte	.LLST44
 6744 1d18 00       		.byte	0
 6745 1d19 3F       		.uleb128 0x3f
 6746 1d1a 00010000 		.4byte	.Ldebug_ranges0+0x100
 6747 1d1e 331D0000 		.4byte	0x1d33
 6748 1d22 40       		.uleb128 0x40
 6749 1d23 746D7000 		.ascii	"tmp\000"
 6750 1d27 01       		.byte	0x1
 6751 1d28 CC02     		.2byte	0x2cc
 6752 1d2a B6000000 		.4byte	0xb6
 6753 1d2e 93060000 		.4byte	.LLST45
ARM GAS  /tmp/ccx4dzgE.s 			page 120


 6754 1d32 00       		.byte	0
 6755 1d33 42       		.uleb128 0x42
 6756 1d34 8E190000 		.4byte	0x198e
 6757 1d38 86020000 		.4byte	.LBB123
 6758 1d3c 18010000 		.4byte	.Ldebug_ranges0+0x118
 6759 1d40 01       		.byte	0x1
 6760 1d41 CE02     		.2byte	0x2ce
 6761 1d43 D81E0000 		.4byte	0x1ed8
 6762 1d47 43       		.uleb128 0x43
 6763 1d48 AC190000 		.4byte	0x19ac
 6764 1d4c A6060000 		.4byte	.LLST46
 6765 1d50 4A       		.uleb128 0x4a
 6766 1d51 A0190000 		.4byte	0x19a0
 6767 1d55 01       		.byte	0x1
 6768 1d56 5B       		.byte	0x5b
 6769 1d57 41       		.uleb128 0x41
 6770 1d58 30010000 		.4byte	.Ldebug_ranges0+0x130
 6771 1d5c 44       		.uleb128 0x44
 6772 1d5d B8190000 		.4byte	0x19b8
 6773 1d61 F1060000 		.4byte	.LLST47
 6774 1d65 42       		.uleb128 0x42
 6775 1d66 C1160000 		.4byte	0x16c1
 6776 1d6a CC020000 		.4byte	.LBB125
 6777 1d6e 48010000 		.4byte	.Ldebug_ranges0+0x148
 6778 1d72 01       		.byte	0x1
 6779 1d73 0C02     		.2byte	0x20c
 6780 1d75 C11D0000 		.4byte	0x1dc1
 6781 1d79 43       		.uleb128 0x43
 6782 1d7a E7160000 		.4byte	0x16e7
 6783 1d7e 46070000 		.4byte	.LLST48
 6784 1d82 43       		.uleb128 0x43
 6785 1d83 DB160000 		.4byte	0x16db
 6786 1d87 59070000 		.4byte	.LLST49
 6787 1d8b 43       		.uleb128 0x43
 6788 1d8c CF160000 		.4byte	0x16cf
 6789 1d90 6C070000 		.4byte	.LLST50
 6790 1d94 4B       		.uleb128 0x4b
 6791 1d95 D9150000 		.4byte	0x15d9
 6792 1d99 CE020000 		.4byte	.LBB127
 6793 1d9d 68010000 		.4byte	.Ldebug_ranges0+0x168
 6794 1da1 01       		.byte	0x1
 6795 1da2 0901     		.2byte	0x109
 6796 1da4 43       		.uleb128 0x43
 6797 1da5 00160000 		.4byte	0x1600
 6798 1da9 7F070000 		.4byte	.LLST51
 6799 1dad 43       		.uleb128 0x43
 6800 1dae F5150000 		.4byte	0x15f5
 6801 1db2 92070000 		.4byte	.LLST52
 6802 1db6 43       		.uleb128 0x43
 6803 1db7 EA150000 		.4byte	0x15ea
 6804 1dbb 6C070000 		.4byte	.LLST50
 6805 1dbf 00       		.byte	0
 6806 1dc0 00       		.byte	0
 6807 1dc1 4B       		.uleb128 0x4b
 6808 1dc2 C4190000 		.4byte	0x19c4
 6809 1dc6 4E030000 		.4byte	.LBB137
 6810 1dca 88010000 		.4byte	.Ldebug_ranges0+0x188
ARM GAS  /tmp/ccx4dzgE.s 			page 121


 6811 1dce 01       		.byte	0x1
 6812 1dcf 0602     		.2byte	0x206
 6813 1dd1 43       		.uleb128 0x43
 6814 1dd2 EA190000 		.4byte	0x19ea
 6815 1dd6 A5070000 		.4byte	.LLST54
 6816 1dda 43       		.uleb128 0x43
 6817 1ddb DE190000 		.4byte	0x19de
 6818 1ddf D9070000 		.4byte	.LLST55
 6819 1de3 43       		.uleb128 0x43
 6820 1de4 D2190000 		.4byte	0x19d2
 6821 1de8 EC070000 		.4byte	.LLST56
 6822 1dec 41       		.uleb128 0x41
 6823 1ded A0010000 		.4byte	.Ldebug_ranges0+0x1a0
 6824 1df1 44       		.uleb128 0x44
 6825 1df2 F4190000 		.4byte	0x19f4
 6826 1df6 0A080000 		.4byte	.LLST57
 6827 1dfa 3F       		.uleb128 0x3f
 6828 1dfb B8010000 		.4byte	.Ldebug_ranges0+0x1b8
 6829 1dff 631E0000 		.4byte	0x1e63
 6830 1e03 44       		.uleb128 0x44
 6831 1e04 051A0000 		.4byte	0x1a05
 6832 1e08 72080000 		.4byte	.LLST58
 6833 1e0c 44       		.uleb128 0x44
 6834 1e0d 0F1A0000 		.4byte	0x1a0f
 6835 1e11 91080000 		.4byte	.LLST59
 6836 1e15 44       		.uleb128 0x44
 6837 1e16 191A0000 		.4byte	0x1a19
 6838 1e1a D5080000 		.4byte	.LLST60
 6839 1e1e 47       		.uleb128 0x47
 6840 1e1f 8E030000 		.4byte	.LBB140
 6841 1e23 EA030000 		.4byte	.LBE140
 6842 1e27 44       		.uleb128 0x44
 6843 1e28 251A0000 		.4byte	0x1a25
 6844 1e2c F7080000 		.4byte	.LLST61
 6845 1e30 44       		.uleb128 0x44
 6846 1e31 311A0000 		.4byte	0x1a31
 6847 1e35 24090000 		.4byte	.LLST62
 6848 1e39 46       		.uleb128 0x46
 6849 1e3a D9150000 		.4byte	0x15d9
 6850 1e3e A6030000 		.4byte	.LBB141
 6851 1e42 E0030000 		.4byte	.LBE141
 6852 1e46 01       		.byte	0x1
 6853 1e47 2401     		.2byte	0x124
 6854 1e49 43       		.uleb128 0x43
 6855 1e4a F5150000 		.4byte	0x15f5
 6856 1e4e 64090000 		.4byte	.LLST63
 6857 1e52 43       		.uleb128 0x43
 6858 1e53 00160000 		.4byte	0x1600
 6859 1e57 77090000 		.4byte	.LLST64
 6860 1e5b 4C       		.uleb128 0x4c
 6861 1e5c EA150000 		.4byte	0x15ea
 6862 1e60 00       		.byte	0
 6863 1e61 00       		.byte	0
 6864 1e62 00       		.byte	0
 6865 1e63 48       		.uleb128 0x48
 6866 1e64 F0030000 		.4byte	.LBB143
 6867 1e68 F6030000 		.4byte	.LBE143
ARM GAS  /tmp/ccx4dzgE.s 			page 122


 6868 1e6c 7A1E0000 		.4byte	0x1e7a
 6869 1e70 44       		.uleb128 0x44
 6870 1e71 441A0000 		.4byte	0x1a44
 6871 1e75 A4090000 		.4byte	.LLST65
 6872 1e79 00       		.byte	0
 6873 1e7a 45       		.uleb128 0x45
 6874 1e7b 4B160000 		.4byte	0x164b
 6875 1e7f 02040000 		.4byte	.LBB144
 6876 1e83 08040000 		.4byte	.LBE144
 6877 1e87 01       		.byte	0x1
 6878 1e88 4101     		.2byte	0x141
 6879 1e8a AB1E0000 		.4byte	0x1eab
 6880 1e8e 43       		.uleb128 0x43
 6881 1e8f 5C160000 		.4byte	0x165c
 6882 1e93 C2090000 		.4byte	.LLST66
 6883 1e97 47       		.uleb128 0x47
 6884 1e98 02040000 		.4byte	.LBB145
 6885 1e9c 08040000 		.4byte	.LBE145
 6886 1ea0 44       		.uleb128 0x44
 6887 1ea1 67160000 		.4byte	0x1667
 6888 1ea5 D5090000 		.4byte	.LLST67
 6889 1ea9 00       		.byte	0
 6890 1eaa 00       		.byte	0
 6891 1eab 48       		.uleb128 0x48
 6892 1eac 1A040000 		.4byte	.LBB146
 6893 1eb0 22040000 		.4byte	.LBE146
 6894 1eb4 C21E0000 		.4byte	0x1ec2
 6895 1eb8 44       		.uleb128 0x44
 6896 1eb9 521A0000 		.4byte	0x1a52
 6897 1ebd E8090000 		.4byte	.LLST68
 6898 1ec1 00       		.byte	0
 6899 1ec2 49       		.uleb128 0x49
 6900 1ec3 0C040000 		.4byte	.LVL152
 6901 1ec7 12290000 		.4byte	0x2912
 6902 1ecb 49       		.uleb128 0x49
 6903 1ecc 1A040000 		.4byte	.LVL154
 6904 1ed0 2A290000 		.4byte	0x292a
 6905 1ed4 00       		.byte	0
 6906 1ed5 00       		.byte	0
 6907 1ed6 00       		.byte	0
 6908 1ed7 00       		.byte	0
 6909 1ed8 48       		.uleb128 0x48
 6910 1ed9 50030000 		.4byte	.LBB151
 6911 1edd 56030000 		.4byte	.LBE151
 6912 1ee1 F61E0000 		.4byte	0x1ef6
 6913 1ee5 40       		.uleb128 0x40
 6914 1ee6 746D7000 		.ascii	"tmp\000"
 6915 1eea 01       		.byte	0x1
 6916 1eeb D002     		.2byte	0x2d0
 6917 1eed B6000000 		.4byte	0xb6
 6918 1ef1 060A0000 		.4byte	.LLST69
 6919 1ef5 00       		.byte	0
 6920 1ef6 47       		.uleb128 0x47
 6921 1ef7 72030000 		.4byte	.LBB152
 6922 1efb 7A030000 		.4byte	.LBE152
 6923 1eff 40       		.uleb128 0x40
 6924 1f00 746D7000 		.ascii	"tmp\000"
ARM GAS  /tmp/ccx4dzgE.s 			page 123


 6925 1f04 01       		.byte	0x1
 6926 1f05 D402     		.2byte	0x2d4
 6927 1f07 B6000000 		.4byte	0xb6
 6928 1f0b 190A0000 		.4byte	.LLST70
 6929 1f0f 00       		.byte	0
 6930 1f10 00       		.byte	0
 6931 1f11 4D       		.uleb128 0x4d
 6932 1f12 5A000000 		.4byte	.LVL26
 6933 1f16 34290000 		.4byte	0x2934
 6934 1f1a 38       		.uleb128 0x38
 6935 1f1b 01       		.byte	0x1
 6936 1f1c 50       		.byte	0x50
 6937 1f1d 01       		.byte	0x1
 6938 1f1e 32       		.byte	0x32
 6939 1f1f 00       		.byte	0
 6940 1f20 00       		.byte	0
 6941 1f21 00       		.byte	0
 6942 1f22 2B       		.uleb128 0x2b
 6943 1f23 A00A0000 		.4byte	.LASF392
 6944 1f27 01       		.byte	0x1
 6945 1f28 78       		.byte	0x78
 6946 1f29 01       		.byte	0x1
 6947 1f2a 01       		.byte	0x1
 6948 1f2b 3B1F0000 		.4byte	0x1f3b
 6949 1f2f 22       		.uleb128 0x22
 6950 1f30 AB080000 		.4byte	.LASF372
 6951 1f34 01       		.byte	0x1
 6952 1f35 78       		.byte	0x78
 6953 1f36 4A0C0000 		.4byte	0xc4a
 6954 1f3a 00       		.byte	0
 6955 1f3b 33       		.uleb128 0x33
 6956 1f3c 4D120000 		.4byte	.LASF393
 6957 1f40 01       		.byte	0x1
 6958 1f41 2002     		.2byte	0x220
 6959 1f43 01       		.byte	0x1
 6960 1f44 00000000 		.4byte	.LFB133
 6961 1f48 80000000 		.4byte	.LFE133
 6962 1f4c 370A0000 		.4byte	.LLST71
 6963 1f50 01       		.byte	0x1
 6964 1f51 06200000 		.4byte	0x2006
 6965 1f55 34       		.uleb128 0x34
 6966 1f56 AB080000 		.4byte	.LASF372
 6967 1f5a 01       		.byte	0x1
 6968 1f5b 2002     		.2byte	0x220
 6969 1f5d 4A0C0000 		.4byte	0xc4a
 6970 1f61 570A0000 		.4byte	.LLST72
 6971 1f65 35       		.uleb128 0x35
 6972 1f66 657000   		.ascii	"ep\000"
 6973 1f69 01       		.byte	0x1
 6974 1f6a 2002     		.2byte	0x220
 6975 1f6c 1C0B0000 		.4byte	0xb1c
 6976 1f70 8B0A0000 		.4byte	.LLST73
 6977 1f74 36       		.uleb128 0x36
 6978 1f75 D8120000 		.4byte	.LASF377
 6979 1f79 01       		.byte	0x1
 6980 1f7a 2102     		.2byte	0x221
 6981 1f7c 9A150000 		.4byte	0x159a
ARM GAS  /tmp/ccx4dzgE.s 			page 124


 6982 1f80 01       		.byte	0x1
 6983 1f81 54       		.byte	0x54
 6984 1f82 36       		.uleb128 0x36
 6985 1f83 05060000 		.4byte	.LASF380
 6986 1f87 01       		.byte	0x1
 6987 1f88 2202     		.2byte	0x222
 6988 1f8a B6000000 		.4byte	0xb6
 6989 1f8e 01       		.byte	0x1
 6990 1f8f 56       		.byte	0x56
 6991 1f90 48       		.uleb128 0x48
 6992 1f91 38000000 		.4byte	.LBB159
 6993 1f95 3E000000 		.4byte	.LBE159
 6994 1f99 AE1F0000 		.4byte	0x1fae
 6995 1f9d 40       		.uleb128 0x40
 6996 1f9e 746D7000 		.ascii	"tmp\000"
 6997 1fa2 01       		.byte	0x1
 6998 1fa3 3002     		.2byte	0x230
 6999 1fa5 B6000000 		.4byte	0xb6
 7000 1fa9 C50A0000 		.4byte	.LLST74
 7001 1fad 00       		.byte	0
 7002 1fae 42       		.uleb128 0x42
 7003 1faf 221F0000 		.4byte	0x1f22
 7004 1fb3 44000000 		.4byte	.LBB160
 7005 1fb7 D0010000 		.4byte	.Ldebug_ranges0+0x1d0
 7006 1fbb 01       		.byte	0x1
 7007 1fbc 3302     		.2byte	0x233
 7008 1fbe D51F0000 		.4byte	0x1fd5
 7009 1fc2 43       		.uleb128 0x43
 7010 1fc3 2F1F0000 		.4byte	0x1f2f
 7011 1fc7 D80A0000 		.4byte	.LLST75
 7012 1fcb 49       		.uleb128 0x49
 7013 1fcc 58000000 		.4byte	.LVL176
 7014 1fd0 12290000 		.4byte	0x2912
 7015 1fd4 00       		.byte	0
 7016 1fd5 48       		.uleb128 0x48
 7017 1fd6 5C000000 		.4byte	.LBB164
 7018 1fda 64000000 		.4byte	.LBE164
 7019 1fde F31F0000 		.4byte	0x1ff3
 7020 1fe2 40       		.uleb128 0x40
 7021 1fe3 746D7000 		.ascii	"tmp\000"
 7022 1fe7 01       		.byte	0x1
 7023 1fe8 3402     		.2byte	0x234
 7024 1fea B6000000 		.4byte	0xb6
 7025 1fee EB0A0000 		.4byte	.LLST76
 7026 1ff2 00       		.byte	0
 7027 1ff3 39       		.uleb128 0x39
 7028 1ff4 7E000000 		.4byte	.LVL180
 7029 1ff8 38       		.uleb128 0x38
 7030 1ff9 01       		.byte	0x1
 7031 1ffa 51       		.byte	0x51
 7032 1ffb 02       		.byte	0x2
 7033 1ffc 77       		.byte	0x77
 7034 1ffd 00       		.sleb128 0
 7035 1ffe 38       		.uleb128 0x38
 7036 1fff 01       		.byte	0x1
 7037 2000 50       		.byte	0x50
 7038 2001 02       		.byte	0x2
ARM GAS  /tmp/ccx4dzgE.s 			page 125


 7039 2002 75       		.byte	0x75
 7040 2003 00       		.sleb128 0
 7041 2004 00       		.byte	0
 7042 2005 00       		.byte	0
 7043 2006 4E       		.uleb128 0x4e
 7044 2007 01       		.byte	0x1
 7045 2008 220B0000 		.4byte	.LASF394
 7046 200c 01       		.byte	0x1
 7047 200d E602     		.2byte	0x2e6
 7048 200f 01       		.byte	0x1
 7049 2010 00000000 		.4byte	.LFB137
 7050 2014 00010000 		.4byte	.LFE137
 7051 2018 FE0A0000 		.4byte	.LLST77
 7052 201c 01       		.byte	0x1
 7053 201d BE210000 		.4byte	0x21be
 7054 2021 42       		.uleb128 0x42
 7055 2022 3E170000 		.4byte	0x173e
 7056 2026 02000000 		.4byte	.LBB171
 7057 202a E8010000 		.4byte	.Ldebug_ranges0+0x1e8
 7058 202e 01       		.byte	0x1
 7059 202f EA02     		.2byte	0x2ea
 7060 2031 B3210000 		.4byte	0x21b3
 7061 2035 41       		.uleb128 0x41
 7062 2036 00020000 		.4byte	.Ldebug_ranges0+0x200
 7063 203a 44       		.uleb128 0x44
 7064 203b 58170000 		.4byte	0x1758
 7065 203f 1E0B0000 		.4byte	.LLST78
 7066 2043 4F       		.uleb128 0x4f
 7067 2044 64170000 		.4byte	0x1764
 7068 2048 01       		.byte	0x1
 7069 2049 54       		.byte	0x54
 7070 204a 44       		.uleb128 0x44
 7071 204b 70170000 		.4byte	0x1770
 7072 204f 3C0B0000 		.4byte	.LLST79
 7073 2053 4A       		.uleb128 0x4a
 7074 2054 4C170000 		.4byte	0x174c
 7075 2058 06       		.byte	0x6
 7076 2059 03       		.byte	0x3
 7077 205a 00000000 		.4byte	USBD1
 7078 205e 9F       		.byte	0x9f
 7079 205f 48       		.uleb128 0x48
 7080 2060 80000000 		.4byte	.LBB173
 7081 2064 86000000 		.4byte	.LBE173
 7082 2068 76200000 		.4byte	0x2076
 7083 206c 44       		.uleb128 0x44
 7084 206d 81170000 		.4byte	0x1781
 7085 2071 5A0B0000 		.4byte	.LLST80
 7086 2075 00       		.byte	0
 7087 2076 42       		.uleb128 0x42
 7088 2077 221F0000 		.4byte	0x1f22
 7089 207b 88000000 		.4byte	.LBB174
 7090 207f 18020000 		.4byte	.Ldebug_ranges0+0x218
 7091 2083 01       		.byte	0x1
 7092 2084 7702     		.2byte	0x277
 7093 2086 9D200000 		.4byte	0x209d
 7094 208a 43       		.uleb128 0x43
 7095 208b 2F1F0000 		.4byte	0x1f2f
ARM GAS  /tmp/ccx4dzgE.s 			page 126


 7096 208f 6D0B0000 		.4byte	.LLST81
 7097 2093 49       		.uleb128 0x49
 7098 2094 96000000 		.4byte	.LVL200
 7099 2098 12290000 		.4byte	0x2912
 7100 209c 00       		.byte	0
 7101 209d 48       		.uleb128 0x48
 7102 209e 9C000000 		.4byte	.LBB178
 7103 20a2 A4000000 		.4byte	.LBE178
 7104 20a6 B4200000 		.4byte	0x20b4
 7105 20aa 44       		.uleb128 0x44
 7106 20ab 8F170000 		.4byte	0x178f
 7107 20af 850B0000 		.4byte	.LLST82
 7108 20b3 00       		.byte	0
 7109 20b4 37       		.uleb128 0x37
 7110 20b5 28000000 		.4byte	.LVL184
 7111 20b9 C4200000 		.4byte	0x20c4
 7112 20bd 38       		.uleb128 0x38
 7113 20be 01       		.byte	0x1
 7114 20bf 50       		.byte	0x50
 7115 20c0 02       		.byte	0x2
 7116 20c1 76       		.byte	0x76
 7117 20c2 00       		.sleb128 0
 7118 20c3 00       		.byte	0
 7119 20c4 50       		.uleb128 0x50
 7120 20c5 68000000 		.4byte	.LVL192
 7121 20c9 E0170000 		.4byte	0x17e0
 7122 20cd DD200000 		.4byte	0x20dd
 7123 20d1 38       		.uleb128 0x38
 7124 20d2 01       		.byte	0x1
 7125 20d3 51       		.byte	0x51
 7126 20d4 01       		.byte	0x1
 7127 20d5 33       		.byte	0x33
 7128 20d6 38       		.uleb128 0x38
 7129 20d7 01       		.byte	0x1
 7130 20d8 50       		.byte	0x50
 7131 20d9 02       		.byte	0x2
 7132 20da 76       		.byte	0x76
 7133 20db 00       		.sleb128 0
 7134 20dc 00       		.byte	0
 7135 20dd 50       		.uleb128 0x50
 7136 20de 70000000 		.4byte	.LVL194
 7137 20e2 48290000 		.4byte	0x2948
 7138 20e6 F1200000 		.4byte	0x20f1
 7139 20ea 38       		.uleb128 0x38
 7140 20eb 01       		.byte	0x1
 7141 20ec 50       		.byte	0x50
 7142 20ed 02       		.byte	0x2
 7143 20ee 76       		.byte	0x76
 7144 20ef 00       		.sleb128 0
 7145 20f0 00       		.byte	0
 7146 20f1 37       		.uleb128 0x37
 7147 20f2 7E000000 		.4byte	.LVL195
 7148 20f6 06210000 		.4byte	0x2106
 7149 20fa 38       		.uleb128 0x38
 7150 20fb 01       		.byte	0x1
 7151 20fc 51       		.byte	0x51
 7152 20fd 01       		.byte	0x1
ARM GAS  /tmp/ccx4dzgE.s 			page 127


 7153 20fe 30       		.byte	0x30
 7154 20ff 38       		.uleb128 0x38
 7155 2100 01       		.byte	0x1
 7156 2101 50       		.byte	0x50
 7157 2102 02       		.byte	0x2
 7158 2103 76       		.byte	0x76
 7159 2104 00       		.sleb128 0
 7160 2105 00       		.byte	0
 7161 2106 50       		.uleb128 0x50
 7162 2107 AC000000 		.4byte	.LVL203
 7163 210b E0170000 		.4byte	0x17e0
 7164 210f 1F210000 		.4byte	0x211f
 7165 2113 38       		.uleb128 0x38
 7166 2114 01       		.byte	0x1
 7167 2115 51       		.byte	0x51
 7168 2116 01       		.byte	0x1
 7169 2117 32       		.byte	0x32
 7170 2118 38       		.uleb128 0x38
 7171 2119 01       		.byte	0x1
 7172 211a 50       		.byte	0x50
 7173 211b 02       		.byte	0x2
 7174 211c 76       		.byte	0x76
 7175 211d 00       		.sleb128 0
 7176 211e 00       		.byte	0
 7177 211f 50       		.uleb128 0x50
 7178 2120 BA000000 		.4byte	.LVL204
 7179 2124 E0170000 		.4byte	0x17e0
 7180 2128 38210000 		.4byte	0x2138
 7181 212c 38       		.uleb128 0x38
 7182 212d 01       		.byte	0x1
 7183 212e 51       		.byte	0x51
 7184 212f 01       		.byte	0x1
 7185 2130 30       		.byte	0x30
 7186 2131 38       		.uleb128 0x38
 7187 2132 01       		.byte	0x1
 7188 2133 50       		.byte	0x50
 7189 2134 02       		.byte	0x2
 7190 2135 76       		.byte	0x76
 7191 2136 00       		.sleb128 0
 7192 2137 00       		.byte	0
 7193 2138 50       		.uleb128 0x50
 7194 2139 C6000000 		.4byte	.LVL205
 7195 213d E0170000 		.4byte	0x17e0
 7196 2141 51210000 		.4byte	0x2151
 7197 2145 38       		.uleb128 0x38
 7198 2146 01       		.byte	0x1
 7199 2147 51       		.byte	0x51
 7200 2148 01       		.byte	0x1
 7201 2149 31       		.byte	0x31
 7202 214a 38       		.uleb128 0x38
 7203 214b 01       		.byte	0x1
 7204 214c 50       		.byte	0x50
 7205 214d 02       		.byte	0x2
 7206 214e 76       		.byte	0x76
 7207 214f 00       		.sleb128 0
 7208 2150 00       		.byte	0
 7209 2151 50       		.uleb128 0x50
ARM GAS  /tmp/ccx4dzgE.s 			page 128


 7210 2152 D4000000 		.4byte	.LVL207
 7211 2156 3B1F0000 		.4byte	0x1f3b
 7212 215a 6A210000 		.4byte	0x216a
 7213 215e 38       		.uleb128 0x38
 7214 215f 01       		.byte	0x1
 7215 2160 51       		.byte	0x51
 7216 2161 01       		.byte	0x1
 7217 2162 30       		.byte	0x30
 7218 2163 38       		.uleb128 0x38
 7219 2164 01       		.byte	0x1
 7220 2165 50       		.byte	0x50
 7221 2166 02       		.byte	0x2
 7222 2167 76       		.byte	0x76
 7223 2168 00       		.sleb128 0
 7224 2169 00       		.byte	0
 7225 216a 50       		.uleb128 0x50
 7226 216b E0000000 		.4byte	.LVL208
 7227 216f 3B1F0000 		.4byte	0x1f3b
 7228 2173 83210000 		.4byte	0x2183
 7229 2177 38       		.uleb128 0x38
 7230 2178 01       		.byte	0x1
 7231 2179 51       		.byte	0x51
 7232 217a 01       		.byte	0x1
 7233 217b 31       		.byte	0x31
 7234 217c 38       		.uleb128 0x38
 7235 217d 01       		.byte	0x1
 7236 217e 50       		.byte	0x50
 7237 217f 02       		.byte	0x2
 7238 2180 76       		.byte	0x76
 7239 2181 00       		.sleb128 0
 7240 2182 00       		.byte	0
 7241 2183 50       		.uleb128 0x50
 7242 2184 EC000000 		.4byte	.LVL209
 7243 2188 3B1F0000 		.4byte	0x1f3b
 7244 218c 9C210000 		.4byte	0x219c
 7245 2190 38       		.uleb128 0x38
 7246 2191 01       		.byte	0x1
 7247 2192 51       		.byte	0x51
 7248 2193 01       		.byte	0x1
 7249 2194 32       		.byte	0x32
 7250 2195 38       		.uleb128 0x38
 7251 2196 01       		.byte	0x1
 7252 2197 50       		.byte	0x50
 7253 2198 02       		.byte	0x2
 7254 2199 76       		.byte	0x76
 7255 219a 00       		.sleb128 0
 7256 219b 00       		.byte	0
 7257 219c 4D       		.uleb128 0x4d
 7258 219d F8000000 		.4byte	.LVL210
 7259 21a1 3B1F0000 		.4byte	0x1f3b
 7260 21a5 38       		.uleb128 0x38
 7261 21a6 01       		.byte	0x1
 7262 21a7 51       		.byte	0x51
 7263 21a8 01       		.byte	0x1
 7264 21a9 33       		.byte	0x33
 7265 21aa 38       		.uleb128 0x38
 7266 21ab 01       		.byte	0x1
ARM GAS  /tmp/ccx4dzgE.s 			page 129


 7267 21ac 50       		.byte	0x50
 7268 21ad 02       		.byte	0x2
 7269 21ae 76       		.byte	0x76
 7270 21af 00       		.sleb128 0
 7271 21b0 00       		.byte	0
 7272 21b1 00       		.byte	0
 7273 21b2 00       		.byte	0
 7274 21b3 51       		.uleb128 0x51
 7275 21b4 60000000 		.4byte	.LVL191
 7276 21b8 01       		.byte	0x1
 7277 21b9 5D290000 		.4byte	0x295d
 7278 21bd 00       		.byte	0
 7279 21be 4E       		.uleb128 0x4e
 7280 21bf 01       		.byte	0x1
 7281 21c0 0B0B0000 		.4byte	.LASF395
 7282 21c4 01       		.byte	0x1
 7283 21c5 0C03     		.2byte	0x30c
 7284 21c7 01       		.byte	0x1
 7285 21c8 00000000 		.4byte	.LFB138
 7286 21cc 28000000 		.4byte	.LFE138
 7287 21d0 C40B0000 		.4byte	.LLST83
 7288 21d4 01       		.byte	0x1
 7289 21d5 EA210000 		.4byte	0x21ea
 7290 21d9 4D       		.uleb128 0x4d
 7291 21da 10000000 		.4byte	.LVL211
 7292 21de 68290000 		.4byte	0x2968
 7293 21e2 38       		.uleb128 0x38
 7294 21e3 01       		.byte	0x1
 7295 21e4 50       		.byte	0x50
 7296 21e5 02       		.byte	0x2
 7297 21e6 74       		.byte	0x74
 7298 21e7 00       		.sleb128 0
 7299 21e8 00       		.byte	0
 7300 21e9 00       		.byte	0
 7301 21ea 2B       		.uleb128 0x2b
 7302 21eb 0D140000 		.4byte	.LASF396
 7303 21ef 01       		.byte	0x1
 7304 21f0 80       		.byte	0x80
 7305 21f1 01       		.byte	0x1
 7306 21f2 01       		.byte	0x1
 7307 21f3 0E220000 		.4byte	0x220e
 7308 21f7 22       		.uleb128 0x22
 7309 21f8 AB080000 		.4byte	.LASF372
 7310 21fc 01       		.byte	0x1
 7311 21fd 80       		.byte	0x80
 7312 21fe 4A0C0000 		.4byte	0xc4a
 7313 2202 2C       		.uleb128 0x2c
 7314 2203 D8120000 		.4byte	.LASF377
 7315 2207 01       		.byte	0x1
 7316 2208 81       		.byte	0x81
 7317 2209 9A150000 		.4byte	0x159a
 7318 220d 00       		.byte	0
 7319 220e 4E       		.uleb128 0x4e
 7320 220f 01       		.byte	0x1
 7321 2210 F0100000 		.4byte	.LASF397
 7322 2214 01       		.byte	0x1
 7323 2215 4603     		.2byte	0x346
ARM GAS  /tmp/ccx4dzgE.s 			page 130


 7324 2217 01       		.byte	0x1
 7325 2218 00000000 		.4byte	.LFB139
 7326 221c DC000000 		.4byte	.LFE139
 7327 2220 E40B0000 		.4byte	.LLST84
 7328 2224 01       		.byte	0x1
 7329 2225 DF220000 		.4byte	0x22df
 7330 2229 34       		.uleb128 0x34
 7331 222a AB080000 		.4byte	.LASF372
 7332 222e 01       		.byte	0x1
 7333 222f 4603     		.2byte	0x346
 7334 2231 4A0C0000 		.4byte	0xc4a
 7335 2235 100C0000 		.4byte	.LLST85
 7336 2239 36       		.uleb128 0x36
 7337 223a D8120000 		.4byte	.LASF377
 7338 223e 01       		.byte	0x1
 7339 223f 4703     		.2byte	0x347
 7340 2241 9A150000 		.4byte	0x159a
 7341 2245 01       		.byte	0x1
 7342 2246 55       		.byte	0x55
 7343 2247 42       		.uleb128 0x42
 7344 2248 EA210000 		.4byte	0x21ea
 7345 224c 26000000 		.4byte	.LBB183
 7346 2250 30020000 		.4byte	.Ldebug_ranges0+0x230
 7347 2254 01       		.byte	0x1
 7348 2255 7B03     		.2byte	0x37b
 7349 2257 83220000 		.4byte	0x2283
 7350 225b 43       		.uleb128 0x43
 7351 225c F7210000 		.4byte	0x21f7
 7352 2260 440C0000 		.4byte	.LLST86
 7353 2264 41       		.uleb128 0x41
 7354 2265 50020000 		.4byte	.Ldebug_ranges0+0x250
 7355 2269 44       		.uleb128 0x44
 7356 226a 02220000 		.4byte	0x2202
 7357 226e 570C0000 		.4byte	.LLST87
 7358 2272 4D       		.uleb128 0x4d
 7359 2273 54000000 		.4byte	.LVL218
 7360 2277 FE280000 		.4byte	0x28fe
 7361 227b 38       		.uleb128 0x38
 7362 227c 01       		.byte	0x1
 7363 227d 50       		.byte	0x50
 7364 227e 01       		.byte	0x1
 7365 227f 3C       		.byte	0x3c
 7366 2280 00       		.byte	0
 7367 2281 00       		.byte	0
 7368 2282 00       		.byte	0
 7369 2283 50       		.uleb128 0x50
 7370 2284 64000000 		.4byte	.LVL220
 7371 2288 9D170000 		.4byte	0x179d
 7372 228c 97220000 		.4byte	0x2297
 7373 2290 38       		.uleb128 0x38
 7374 2291 01       		.byte	0x1
 7375 2292 50       		.byte	0x50
 7376 2293 02       		.byte	0x2
 7377 2294 76       		.byte	0x76
 7378 2295 00       		.sleb128 0
 7379 2296 00       		.byte	0
 7380 2297 50       		.uleb128 0x50
ARM GAS  /tmp/ccx4dzgE.s 			page 131


 7381 2298 A6000000 		.4byte	.LVL222
 7382 229c 7D290000 		.4byte	0x297d
 7383 22a0 C8220000 		.4byte	0x22c8
 7384 22a4 38       		.uleb128 0x38
 7385 22a5 01       		.byte	0x1
 7386 22a6 53       		.byte	0x53
 7387 22a7 05       		.byte	0x5
 7388 22a8 03       		.byte	0x3
 7389 22a9 00000000 		.4byte	usb_lld_pump
 7390 22ad 38       		.uleb128 0x38
 7391 22ae 01       		.byte	0x1
 7392 22af 52       		.byte	0x52
 7393 22b0 01       		.byte	0x1
 7394 22b1 32       		.byte	0x32
 7395 22b2 38       		.uleb128 0x38
 7396 22b3 01       		.byte	0x1
 7397 22b4 51       		.byte	0x51
 7398 22b5 03       		.byte	0x3
 7399 22b6 0A       		.byte	0xa
 7400 22b7 3001     		.2byte	0x130
 7401 22b9 38       		.uleb128 0x38
 7402 22ba 01       		.byte	0x1
 7403 22bb 50       		.byte	0x50
 7404 22bc 03       		.byte	0x3
 7405 22bd 76       		.byte	0x76
 7406 22be E800     		.sleb128 104
 7407 22c0 38       		.uleb128 0x38
 7408 22c1 02       		.byte	0x2
 7409 22c2 7D       		.byte	0x7d
 7410 22c3 00       		.sleb128 0
 7411 22c4 02       		.byte	0x2
 7412 22c5 76       		.byte	0x76
 7413 22c6 00       		.sleb128 0
 7414 22c7 00       		.byte	0
 7415 22c8 4D       		.uleb128 0x4d
 7416 22c9 D0000000 		.4byte	.LVL223
 7417 22cd AA290000 		.4byte	0x29aa
 7418 22d1 38       		.uleb128 0x38
 7419 22d2 01       		.byte	0x1
 7420 22d3 51       		.byte	0x51
 7421 22d4 02       		.byte	0x2
 7422 22d5 08       		.byte	0x8
 7423 22d6 E0       		.byte	0xe0
 7424 22d7 38       		.uleb128 0x38
 7425 22d8 01       		.byte	0x1
 7426 22d9 50       		.byte	0x50
 7427 22da 02       		.byte	0x2
 7428 22db 08       		.byte	0x8
 7429 22dc 43       		.byte	0x43
 7430 22dd 00       		.byte	0
 7431 22de 00       		.byte	0
 7432 22df 4E       		.uleb128 0x4e
 7433 22e0 01       		.byte	0x1
 7434 22e1 DF010000 		.4byte	.LASF398
 7435 22e5 01       		.byte	0x1
 7436 22e6 9C03     		.2byte	0x39c
 7437 22e8 01       		.byte	0x1
ARM GAS  /tmp/ccx4dzgE.s 			page 132


 7438 22e9 00000000 		.4byte	.LFB140
 7439 22ed 1E000000 		.4byte	.LFE140
 7440 22f1 6A0C0000 		.4byte	.LLST88
 7441 22f5 01       		.byte	0x1
 7442 22f6 29230000 		.4byte	0x2329
 7443 22fa 34       		.uleb128 0x34
 7444 22fb AB080000 		.4byte	.LASF372
 7445 22ff 01       		.byte	0x1
 7446 2300 9C03     		.2byte	0x39c
 7447 2302 4A0C0000 		.4byte	0xc4a
 7448 2306 8A0C0000 		.4byte	.LLST89
 7449 230a 36       		.uleb128 0x36
 7450 230b D8120000 		.4byte	.LASF377
 7451 230f 01       		.byte	0x1
 7452 2310 9D03     		.2byte	0x39d
 7453 2312 9A150000 		.4byte	0x159a
 7454 2316 01       		.byte	0x1
 7455 2317 55       		.byte	0x55
 7456 2318 4D       		.uleb128 0x4d
 7457 2319 10000000 		.4byte	.LVL226
 7458 231d 9D170000 		.4byte	0x179d
 7459 2321 38       		.uleb128 0x38
 7460 2322 01       		.byte	0x1
 7461 2323 50       		.byte	0x50
 7462 2324 02       		.byte	0x2
 7463 2325 74       		.byte	0x74
 7464 2326 00       		.sleb128 0
 7465 2327 00       		.byte	0
 7466 2328 00       		.byte	0
 7467 2329 2B       		.uleb128 0x2b
 7468 232a A5120000 		.4byte	.LASF399
 7469 232e 01       		.byte	0x1
 7470 232f B2       		.byte	0xb2
 7471 2330 01       		.byte	0x1
 7472 2331 01       		.byte	0x1
 7473 2332 4D230000 		.4byte	0x234d
 7474 2336 22       		.uleb128 0x22
 7475 2337 AB080000 		.4byte	.LASF372
 7476 233b 01       		.byte	0x1
 7477 233c B2       		.byte	0xb2
 7478 233d 4A0C0000 		.4byte	0xc4a
 7479 2341 2C       		.uleb128 0x2c
 7480 2342 D8120000 		.4byte	.LASF377
 7481 2346 01       		.byte	0x1
 7482 2347 B3       		.byte	0xb3
 7483 2348 9A150000 		.4byte	0x159a
 7484 234c 00       		.byte	0
 7485 234d 4E       		.uleb128 0x4e
 7486 234e 01       		.byte	0x1
 7487 234f 5E0C0000 		.4byte	.LASF400
 7488 2353 01       		.byte	0x1
 7489 2354 C303     		.2byte	0x3c3
 7490 2356 01       		.byte	0x1
 7491 2357 00000000 		.4byte	.LFB141
 7492 235b 2C010000 		.4byte	.LFE141
 7493 235f A80C0000 		.4byte	.LLST90
 7494 2363 01       		.byte	0x1
ARM GAS  /tmp/ccx4dzgE.s 			page 133


 7495 2364 2D240000 		.4byte	0x242d
 7496 2368 34       		.uleb128 0x34
 7497 2369 AB080000 		.4byte	.LASF372
 7498 236d 01       		.byte	0x1
 7499 236e C303     		.2byte	0x3c3
 7500 2370 4A0C0000 		.4byte	0xc4a
 7501 2374 C80C0000 		.4byte	.LLST91
 7502 2378 28       		.uleb128 0x28
 7503 2379 6900     		.ascii	"i\000"
 7504 237b 01       		.byte	0x1
 7505 237c C403     		.2byte	0x3c4
 7506 237e 29000000 		.4byte	0x29
 7507 2382 36       		.uleb128 0x36
 7508 2383 D8120000 		.4byte	.LASF377
 7509 2387 01       		.byte	0x1
 7510 2388 C503     		.2byte	0x3c5
 7511 238a 9A150000 		.4byte	0x159a
 7512 238e 01       		.byte	0x1
 7513 238f 54       		.byte	0x54
 7514 2390 42       		.uleb128 0x42
 7515 2391 F2160000 		.4byte	0x16f2
 7516 2395 A0000000 		.4byte	.LBB195
 7517 2399 70020000 		.4byte	.Ldebug_ranges0+0x270
 7518 239d 01       		.byte	0x1
 7519 239e D703     		.2byte	0x3d7
 7520 23a0 AC230000 		.4byte	0x23ac
 7521 23a4 4A       		.uleb128 0x4a
 7522 23a5 FF160000 		.4byte	0x16ff
 7523 23a9 01       		.byte	0x1
 7524 23aa 58       		.byte	0x58
 7525 23ab 00       		.byte	0
 7526 23ac 42       		.uleb128 0x42
 7527 23ad 29230000 		.4byte	0x2329
 7528 23b1 A4000000 		.4byte	.LBB198
 7529 23b5 88020000 		.4byte	.Ldebug_ranges0+0x288
 7530 23b9 01       		.byte	0x1
 7531 23ba DB03     		.2byte	0x3db
 7532 23bc E6230000 		.4byte	0x23e6
 7533 23c0 4A       		.uleb128 0x4a
 7534 23c1 36230000 		.4byte	0x2336
 7535 23c5 01       		.byte	0x1
 7536 23c6 58       		.byte	0x58
 7537 23c7 41       		.uleb128 0x41
 7538 23c8 A8020000 		.4byte	.Ldebug_ranges0+0x2a8
 7539 23cc 44       		.uleb128 0x44
 7540 23cd 41230000 		.4byte	0x2341
 7541 23d1 E60C0000 		.4byte	.LLST92
 7542 23d5 4D       		.uleb128 0x4d
 7543 23d6 D0000000 		.4byte	.LVL232
 7544 23da FE280000 		.4byte	0x28fe
 7545 23de 38       		.uleb128 0x38
 7546 23df 01       		.byte	0x1
 7547 23e0 50       		.byte	0x50
 7548 23e1 01       		.byte	0x1
 7549 23e2 3C       		.byte	0x3c
 7550 23e3 00       		.byte	0
 7551 23e4 00       		.byte	0
ARM GAS  /tmp/ccx4dzgE.s 			page 134


 7552 23e5 00       		.byte	0
 7553 23e6 42       		.uleb128 0x42
 7554 23e7 0B170000 		.4byte	0x170b
 7555 23eb D4000000 		.4byte	.LBB205
 7556 23ef C8020000 		.4byte	.Ldebug_ranges0+0x2c8
 7557 23f3 01       		.byte	0x1
 7558 23f4 EE03     		.2byte	0x3ee
 7559 23f6 17240000 		.4byte	0x2417
 7560 23fa 52       		.uleb128 0x52
 7561 23fb 27170000 		.4byte	0x1727
 7562 23ff 10       		.byte	0x10
 7563 2400 4A       		.uleb128 0x4a
 7564 2401 1C170000 		.4byte	0x171c
 7565 2405 01       		.byte	0x1
 7566 2406 58       		.byte	0x58
 7567 2407 41       		.uleb128 0x41
 7568 2408 E8020000 		.4byte	.Ldebug_ranges0+0x2e8
 7569 240c 4F       		.uleb128 0x4f
 7570 240d 32170000 		.4byte	0x1732
 7571 2411 03       		.byte	0x3
 7572 2412 78       		.byte	0x78
 7573 2413 D800     		.sleb128 88
 7574 2415 00       		.byte	0
 7575 2416 00       		.byte	0
 7576 2417 4D       		.uleb128 0x4d
 7577 2418 0E000000 		.4byte	.LVL229
 7578 241c 5E180000 		.4byte	0x185e
 7579 2420 38       		.uleb128 0x38
 7580 2421 01       		.byte	0x1
 7581 2422 51       		.byte	0x51
 7582 2423 01       		.byte	0x1
 7583 2424 30       		.byte	0x30
 7584 2425 38       		.uleb128 0x38
 7585 2426 01       		.byte	0x1
 7586 2427 50       		.byte	0x50
 7587 2428 02       		.byte	0x2
 7588 2429 78       		.byte	0x78
 7589 242a 00       		.sleb128 0
 7590 242b 00       		.byte	0
 7591 242c 00       		.byte	0
 7592 242d 53       		.uleb128 0x53
 7593 242e 01       		.byte	0x1
 7594 242f 830C0000 		.4byte	.LASF401
 7595 2433 01       		.byte	0x1
 7596 2434 F903     		.2byte	0x3f9
 7597 2436 01       		.byte	0x1
 7598 2437 00000000 		.4byte	.LFB142
 7599 243b 18000000 		.4byte	.LFE142
 7600 243f 02       		.byte	0x2
 7601 2440 7D       		.byte	0x7d
 7602 2441 00       		.sleb128 0
 7603 2442 01       		.byte	0x1
 7604 2443 66240000 		.4byte	0x2466
 7605 2447 34       		.uleb128 0x34
 7606 2448 AB080000 		.4byte	.LASF372
 7607 244c 01       		.byte	0x1
 7608 244d F903     		.2byte	0x3f9
ARM GAS  /tmp/ccx4dzgE.s 			page 135


 7609 244f 4A0C0000 		.4byte	0xc4a
 7610 2453 F90C0000 		.4byte	.LLST93
 7611 2457 36       		.uleb128 0x36
 7612 2458 D8120000 		.4byte	.LASF377
 7613 245c 01       		.byte	0x1
 7614 245d FA03     		.2byte	0x3fa
 7615 245f 9A150000 		.4byte	0x159a
 7616 2463 01       		.byte	0x1
 7617 2464 53       		.byte	0x53
 7618 2465 00       		.byte	0
 7619 2466 4E       		.uleb128 0x4e
 7620 2467 01       		.byte	0x1
 7621 2468 AF010000 		.4byte	.LASF402
 7622 246c 01       		.byte	0x1
 7623 246d 0704     		.2byte	0x407
 7624 246f 01       		.byte	0x1
 7625 2470 00000000 		.4byte	.LFB143
 7626 2474 3A010000 		.4byte	.LFE143
 7627 2478 1A0D0000 		.4byte	.LLST94
 7628 247c 01       		.byte	0x1
 7629 247d 36250000 		.4byte	0x2536
 7630 2481 34       		.uleb128 0x34
 7631 2482 AB080000 		.4byte	.LASF372
 7632 2486 01       		.byte	0x1
 7633 2487 0704     		.2byte	0x407
 7634 2489 4A0C0000 		.4byte	0xc4a
 7635 248d 3A0D0000 		.4byte	.LLST95
 7636 2491 35       		.uleb128 0x35
 7637 2492 657000   		.ascii	"ep\000"
 7638 2495 01       		.byte	0x1
 7639 2496 0704     		.2byte	0x407
 7640 2498 1C0B0000 		.4byte	0xb1c
 7641 249c 7C0D0000 		.4byte	.LLST96
 7642 24a0 40       		.uleb128 0x40
 7643 24a1 63746C00 		.ascii	"ctl\000"
 7644 24a5 01       		.byte	0x1
 7645 24a6 0804     		.2byte	0x408
 7646 24a8 B6000000 		.4byte	0xb6
 7647 24ac B60D0000 		.4byte	.LLST97
 7648 24b0 3E       		.uleb128 0x3e
 7649 24b1 6D010000 		.4byte	.LASF403
 7650 24b5 01       		.byte	0x1
 7651 24b6 0804     		.2byte	0x408
 7652 24b8 B6000000 		.4byte	0xb6
 7653 24bc F40D0000 		.4byte	.LLST98
 7654 24c0 36       		.uleb128 0x36
 7655 24c1 D8120000 		.4byte	.LASF377
 7656 24c5 01       		.byte	0x1
 7657 24c6 0904     		.2byte	0x409
 7658 24c8 9A150000 		.4byte	0x159a
 7659 24cc 01       		.byte	0x1
 7660 24cd 54       		.byte	0x54
 7661 24ce 42       		.uleb128 0x42
 7662 24cf 0B170000 		.4byte	0x170b
 7663 24d3 82000000 		.4byte	.LBB211
 7664 24d7 08030000 		.4byte	.Ldebug_ranges0+0x308
 7665 24db 01       		.byte	0x1
ARM GAS  /tmp/ccx4dzgE.s 			page 136


 7666 24dc 3004     		.2byte	0x430
 7667 24de 04250000 		.4byte	0x2504
 7668 24e2 43       		.uleb128 0x43
 7669 24e3 27170000 		.4byte	0x1727
 7670 24e7 070E0000 		.4byte	.LLST99
 7671 24eb 43       		.uleb128 0x43
 7672 24ec 1C170000 		.4byte	0x171c
 7673 24f0 1A0E0000 		.4byte	.LLST100
 7674 24f4 41       		.uleb128 0x41
 7675 24f5 20030000 		.4byte	.Ldebug_ranges0+0x320
 7676 24f9 44       		.uleb128 0x44
 7677 24fa 32170000 		.4byte	0x1732
 7678 24fe 460E0000 		.4byte	.LLST101
 7679 2502 00       		.byte	0
 7680 2503 00       		.byte	0
 7681 2504 50       		.uleb128 0x50
 7682 2505 A2000000 		.4byte	.LVL247
 7683 2509 5E180000 		.4byte	0x185e
 7684 250d 1F250000 		.4byte	0x251f
 7685 2511 38       		.uleb128 0x38
 7686 2512 01       		.byte	0x1
 7687 2513 51       		.byte	0x51
 7688 2514 02       		.byte	0x2
 7689 2515 75       		.byte	0x75
 7690 2516 00       		.sleb128 0
 7691 2517 38       		.uleb128 0x38
 7692 2518 01       		.byte	0x1
 7693 2519 50       		.byte	0x50
 7694 251a 03       		.byte	0x3
 7695 251b F3       		.byte	0xf3
 7696 251c 01       		.uleb128 0x1
 7697 251d 50       		.byte	0x50
 7698 251e 00       		.byte	0
 7699 251f 4D       		.uleb128 0x4d
 7700 2520 16010000 		.4byte	.LVL253
 7701 2524 5E180000 		.4byte	0x185e
 7702 2528 38       		.uleb128 0x38
 7703 2529 01       		.byte	0x1
 7704 252a 51       		.byte	0x51
 7705 252b 02       		.byte	0x2
 7706 252c 75       		.byte	0x75
 7707 252d 00       		.sleb128 0
 7708 252e 38       		.uleb128 0x38
 7709 252f 01       		.byte	0x1
 7710 2530 50       		.byte	0x50
 7711 2531 02       		.byte	0x2
 7712 2532 76       		.byte	0x76
 7713 2533 00       		.sleb128 0
 7714 2534 00       		.byte	0
 7715 2535 00       		.byte	0
 7716 2536 53       		.uleb128 0x53
 7717 2537 01       		.byte	0x1
 7718 2538 870D0000 		.4byte	.LASF404
 7719 253c 01       		.byte	0x1
 7720 253d 4704     		.2byte	0x447
 7721 253f 01       		.byte	0x1
 7722 2540 00000000 		.4byte	.LFB144
ARM GAS  /tmp/ccx4dzgE.s 			page 137


 7723 2544 0A000000 		.4byte	.LFE144
 7724 2548 02       		.byte	0x2
 7725 2549 7D       		.byte	0x7d
 7726 254a 00       		.sleb128 0
 7727 254b 01       		.byte	0x1
 7728 254c 91250000 		.4byte	0x2591
 7729 2550 34       		.uleb128 0x34
 7730 2551 AB080000 		.4byte	.LASF372
 7731 2555 01       		.byte	0x1
 7732 2556 4704     		.2byte	0x447
 7733 2558 4A0C0000 		.4byte	0xc4a
 7734 255c 590E0000 		.4byte	.LLST102
 7735 2560 45       		.uleb128 0x45
 7736 2561 F2160000 		.4byte	0x16f2
 7737 2565 00000000 		.4byte	.LBB215
 7738 2569 06000000 		.4byte	.LBE215
 7739 256d 01       		.byte	0x1
 7740 256e 4A04     		.2byte	0x44a
 7741 2570 7E250000 		.4byte	0x257e
 7742 2574 43       		.uleb128 0x43
 7743 2575 FF160000 		.4byte	0x16ff
 7744 2579 590E0000 		.4byte	.LLST102
 7745 257d 00       		.byte	0
 7746 257e 3C       		.uleb128 0x3c
 7747 257f 0A000000 		.4byte	.LVL255
 7748 2583 01       		.byte	0x1
 7749 2584 9D170000 		.4byte	0x179d
 7750 2588 38       		.uleb128 0x38
 7751 2589 01       		.byte	0x1
 7752 258a 50       		.byte	0x50
 7753 258b 03       		.byte	0x3
 7754 258c F3       		.byte	0xf3
 7755 258d 01       		.uleb128 0x1
 7756 258e 50       		.byte	0x50
 7757 258f 00       		.byte	0
 7758 2590 00       		.byte	0
 7759 2591 54       		.uleb128 0x54
 7760 2592 01       		.byte	0x1
 7761 2593 D9100000 		.4byte	.LASF405
 7762 2597 01       		.byte	0x1
 7763 2598 5C04     		.2byte	0x45c
 7764 259a 01       		.byte	0x1
 7765 259b 740B0000 		.4byte	0xb74
 7766 259f 00000000 		.4byte	.LFB145
 7767 25a3 1A000000 		.4byte	.LFE145
 7768 25a7 02       		.byte	0x2
 7769 25a8 7D       		.byte	0x7d
 7770 25a9 00       		.sleb128 0
 7771 25aa 01       		.byte	0x1
 7772 25ab DD250000 		.4byte	0x25dd
 7773 25af 34       		.uleb128 0x34
 7774 25b0 AB080000 		.4byte	.LASF372
 7775 25b4 01       		.byte	0x1
 7776 25b5 5C04     		.2byte	0x45c
 7777 25b7 4A0C0000 		.4byte	0xc4a
 7778 25bb 7A0E0000 		.4byte	.LLST104
 7779 25bf 35       		.uleb128 0x35
ARM GAS  /tmp/ccx4dzgE.s 			page 138


 7780 25c0 657000   		.ascii	"ep\000"
 7781 25c3 01       		.byte	0x1
 7782 25c4 5C04     		.2byte	0x45c
 7783 25c6 1C0B0000 		.4byte	0xb1c
 7784 25ca 9B0E0000 		.4byte	.LLST105
 7785 25ce 55       		.uleb128 0x55
 7786 25cf 63746C00 		.ascii	"ctl\000"
 7787 25d3 01       		.byte	0x1
 7788 25d4 5D04     		.2byte	0x45d
 7789 25d6 B6000000 		.4byte	0xb6
 7790 25da 01       		.byte	0x1
 7791 25db 52       		.byte	0x52
 7792 25dc 00       		.byte	0
 7793 25dd 54       		.uleb128 0x54
 7794 25de 01       		.byte	0x1
 7795 25df C3000000 		.4byte	.LASF406
 7796 25e3 01       		.byte	0x1
 7797 25e4 7504     		.2byte	0x475
 7798 25e6 01       		.byte	0x1
 7799 25e7 740B0000 		.4byte	0xb74
 7800 25eb 00000000 		.4byte	.LFB146
 7801 25ef 1A000000 		.4byte	.LFE146
 7802 25f3 02       		.byte	0x2
 7803 25f4 7D       		.byte	0x7d
 7804 25f5 00       		.sleb128 0
 7805 25f6 01       		.byte	0x1
 7806 25f7 29260000 		.4byte	0x2629
 7807 25fb 34       		.uleb128 0x34
 7808 25fc AB080000 		.4byte	.LASF372
 7809 2600 01       		.byte	0x1
 7810 2601 7504     		.2byte	0x475
 7811 2603 4A0C0000 		.4byte	0xc4a
 7812 2607 BC0E0000 		.4byte	.LLST106
 7813 260b 35       		.uleb128 0x35
 7814 260c 657000   		.ascii	"ep\000"
 7815 260f 01       		.byte	0x1
 7816 2610 7504     		.2byte	0x475
 7817 2612 1C0B0000 		.4byte	0xb1c
 7818 2616 DD0E0000 		.4byte	.LLST107
 7819 261a 55       		.uleb128 0x55
 7820 261b 63746C00 		.ascii	"ctl\000"
 7821 261f 01       		.byte	0x1
 7822 2620 7604     		.2byte	0x476
 7823 2622 B6000000 		.4byte	0xb6
 7824 2626 01       		.byte	0x1
 7825 2627 52       		.byte	0x52
 7826 2628 00       		.byte	0
 7827 2629 53       		.uleb128 0x53
 7828 262a 01       		.byte	0x1
 7829 262b 30050000 		.4byte	.LASF407
 7830 262f 01       		.byte	0x1
 7831 2630 9004     		.2byte	0x490
 7832 2632 01       		.byte	0x1
 7833 2633 00000000 		.4byte	.LFB147
 7834 2637 12000000 		.4byte	.LFE147
 7835 263b 02       		.byte	0x2
 7836 263c 7D       		.byte	0x7d
ARM GAS  /tmp/ccx4dzgE.s 			page 139


 7837 263d 00       		.sleb128 0
 7838 263e 01       		.byte	0x1
 7839 263f 71260000 		.4byte	0x2671
 7840 2643 34       		.uleb128 0x34
 7841 2644 AB080000 		.4byte	.LASF372
 7842 2648 01       		.byte	0x1
 7843 2649 9004     		.2byte	0x490
 7844 264b 4A0C0000 		.4byte	0xc4a
 7845 264f FE0E0000 		.4byte	.LLST108
 7846 2653 35       		.uleb128 0x35
 7847 2654 657000   		.ascii	"ep\000"
 7848 2657 01       		.byte	0x1
 7849 2658 9004     		.2byte	0x490
 7850 265a 1C0B0000 		.4byte	0xb1c
 7851 265e 1F0F0000 		.4byte	.LLST109
 7852 2662 56       		.uleb128 0x56
 7853 2663 62756600 		.ascii	"buf\000"
 7854 2667 01       		.byte	0x1
 7855 2668 9004     		.2byte	0x490
 7856 266a 46050000 		.4byte	0x546
 7857 266e 01       		.byte	0x1
 7858 266f 52       		.byte	0x52
 7859 2670 00       		.byte	0
 7860 2671 4E       		.uleb128 0x4e
 7861 2672 01       		.byte	0x1
 7862 2673 0E0E0000 		.4byte	.LASF408
 7863 2677 01       		.byte	0x1
 7864 2678 9D04     		.2byte	0x49d
 7865 267a 01       		.byte	0x1
 7866 267b 00000000 		.4byte	.LFB148
 7867 267f 2C000000 		.4byte	.LFE148
 7868 2683 400F0000 		.4byte	.LLST110
 7869 2687 01       		.byte	0x1
 7870 2688 CC260000 		.4byte	0x26cc
 7871 268c 34       		.uleb128 0x34
 7872 268d AB080000 		.4byte	.LASF372
 7873 2691 01       		.byte	0x1
 7874 2692 9D04     		.2byte	0x49d
 7875 2694 4A0C0000 		.4byte	0xc4a
 7876 2698 600F0000 		.4byte	.LLST111
 7877 269c 35       		.uleb128 0x35
 7878 269d 657000   		.ascii	"ep\000"
 7879 26a0 01       		.byte	0x1
 7880 26a1 9D04     		.2byte	0x49d
 7881 26a3 1C0B0000 		.4byte	0xb1c
 7882 26a7 810F0000 		.4byte	.LLST112
 7883 26ab 3E       		.uleb128 0x3e
 7884 26ac D5040000 		.4byte	.LASF409
 7885 26b0 01       		.byte	0x1
 7886 26b1 9E04     		.2byte	0x49e
 7887 26b3 B6000000 		.4byte	0xb6
 7888 26b7 A20F0000 		.4byte	.LLST113
 7889 26bb 40       		.uleb128 0x40
 7890 26bc 6F737000 		.ascii	"osp\000"
 7891 26c0 01       		.byte	0x1
 7892 26c1 9F04     		.2byte	0x49f
 7893 26c3 F0140000 		.4byte	0x14f0
ARM GAS  /tmp/ccx4dzgE.s 			page 140


 7894 26c7 F30F0000 		.4byte	.LLST114
 7895 26cb 00       		.byte	0
 7896 26cc 4E       		.uleb128 0x4e
 7897 26cd 01       		.byte	0x1
 7898 26ce 8C000000 		.4byte	.LASF410
 7899 26d2 01       		.byte	0x1
 7900 26d3 B104     		.2byte	0x4b1
 7901 26d5 01       		.byte	0x1
 7902 26d6 00000000 		.4byte	.LFB149
 7903 26da 3A000000 		.4byte	.LFE149
 7904 26de 29100000 		.4byte	.LLST115
 7905 26e2 01       		.byte	0x1
 7906 26e3 31270000 		.4byte	0x2731
 7907 26e7 34       		.uleb128 0x34
 7908 26e8 AB080000 		.4byte	.LASF372
 7909 26ec 01       		.byte	0x1
 7910 26ed B104     		.2byte	0x4b1
 7911 26ef 4A0C0000 		.4byte	0xc4a
 7912 26f3 49100000 		.4byte	.LLST116
 7913 26f7 35       		.uleb128 0x35
 7914 26f8 657000   		.ascii	"ep\000"
 7915 26fb 01       		.byte	0x1
 7916 26fc B104     		.2byte	0x4b1
 7917 26fe 1C0B0000 		.4byte	0xb1c
 7918 2702 83100000 		.4byte	.LLST117
 7919 2706 40       		.uleb128 0x40
 7920 2707 69737000 		.ascii	"isp\000"
 7921 270b 01       		.byte	0x1
 7922 270c B204     		.2byte	0x4b2
 7923 270e EA140000 		.4byte	0x14ea
 7924 2712 BD100000 		.4byte	.LLST118
 7925 2716 47       		.uleb128 0x47
 7926 2717 0E000000 		.4byte	.LBB217
 7927 271b 26000000 		.4byte	.LBE217
 7928 271f 3E       		.uleb128 0x3e
 7929 2720 D5040000 		.4byte	.LASF409
 7930 2724 01       		.byte	0x1
 7931 2725 BB04     		.2byte	0x4bb
 7932 2727 B6000000 		.4byte	0xb6
 7933 272b 21110000 		.4byte	.LLST119
 7934 272f 00       		.byte	0
 7935 2730 00       		.byte	0
 7936 2731 53       		.uleb128 0x53
 7937 2732 01       		.byte	0x1
 7938 2733 6F0B0000 		.4byte	.LASF411
 7939 2737 01       		.byte	0x1
 7940 2738 CB04     		.2byte	0x4cb
 7941 273a 01       		.byte	0x1
 7942 273b 00000000 		.4byte	.LFB150
 7943 273f 10000000 		.4byte	.LFE150
 7944 2743 02       		.byte	0x2
 7945 2744 7D       		.byte	0x7d
 7946 2745 00       		.sleb128 0
 7947 2746 01       		.byte	0x1
 7948 2747 6B270000 		.4byte	0x276b
 7949 274b 34       		.uleb128 0x34
 7950 274c AB080000 		.4byte	.LASF372
ARM GAS  /tmp/ccx4dzgE.s 			page 141


 7951 2750 01       		.byte	0x1
 7952 2751 CB04     		.2byte	0x4cb
 7953 2753 4A0C0000 		.4byte	0xc4a
 7954 2757 81110000 		.4byte	.LLST120
 7955 275b 35       		.uleb128 0x35
 7956 275c 657000   		.ascii	"ep\000"
 7957 275f 01       		.byte	0x1
 7958 2760 CB04     		.2byte	0x4cb
 7959 2762 1C0B0000 		.4byte	0xb1c
 7960 2766 A2110000 		.4byte	.LLST121
 7961 276a 00       		.byte	0
 7962 276b 53       		.uleb128 0x53
 7963 276c 01       		.byte	0x1
 7964 276d 380D0000 		.4byte	.LASF412
 7965 2771 01       		.byte	0x1
 7966 2772 D804     		.2byte	0x4d8
 7967 2774 01       		.byte	0x1
 7968 2775 00000000 		.4byte	.LFB151
 7969 2779 22000000 		.4byte	.LFE151
 7970 277d 02       		.byte	0x2
 7971 277e 7D       		.byte	0x7d
 7972 277f 00       		.sleb128 0
 7973 2780 01       		.byte	0x1
 7974 2781 A5270000 		.4byte	0x27a5
 7975 2785 34       		.uleb128 0x34
 7976 2786 AB080000 		.4byte	.LASF372
 7977 278a 01       		.byte	0x1
 7978 278b D804     		.2byte	0x4d8
 7979 278d 4A0C0000 		.4byte	0xc4a
 7980 2791 C3110000 		.4byte	.LLST122
 7981 2795 35       		.uleb128 0x35
 7982 2796 657000   		.ascii	"ep\000"
 7983 2799 01       		.byte	0x1
 7984 279a D804     		.2byte	0x4d8
 7985 279c 1C0B0000 		.4byte	0xb1c
 7986 27a0 E4110000 		.4byte	.LLST123
 7987 27a4 00       		.byte	0
 7988 27a5 53       		.uleb128 0x53
 7989 27a6 01       		.byte	0x1
 7990 27a7 88010000 		.4byte	.LASF413
 7991 27ab 01       		.byte	0x1
 7992 27ac E604     		.2byte	0x4e6
 7993 27ae 01       		.byte	0x1
 7994 27af 00000000 		.4byte	.LFB152
 7995 27b3 10000000 		.4byte	.LFE152
 7996 27b7 02       		.byte	0x2
 7997 27b8 7D       		.byte	0x7d
 7998 27b9 00       		.sleb128 0
 7999 27ba 01       		.byte	0x1
 8000 27bb DF270000 		.4byte	0x27df
 8001 27bf 34       		.uleb128 0x34
 8002 27c0 AB080000 		.4byte	.LASF372
 8003 27c4 01       		.byte	0x1
 8004 27c5 E604     		.2byte	0x4e6
 8005 27c7 4A0C0000 		.4byte	0xc4a
 8006 27cb 05120000 		.4byte	.LLST124
 8007 27cf 35       		.uleb128 0x35
ARM GAS  /tmp/ccx4dzgE.s 			page 142


 8008 27d0 657000   		.ascii	"ep\000"
 8009 27d3 01       		.byte	0x1
 8010 27d4 E604     		.2byte	0x4e6
 8011 27d6 1C0B0000 		.4byte	0xb1c
 8012 27da 26120000 		.4byte	.LLST125
 8013 27de 00       		.byte	0
 8014 27df 53       		.uleb128 0x53
 8015 27e0 01       		.byte	0x1
 8016 27e1 4B0B0000 		.4byte	.LASF414
 8017 27e5 01       		.byte	0x1
 8018 27e6 F304     		.2byte	0x4f3
 8019 27e8 01       		.byte	0x1
 8020 27e9 00000000 		.4byte	.LFB153
 8021 27ed 10000000 		.4byte	.LFE153
 8022 27f1 02       		.byte	0x2
 8023 27f2 7D       		.byte	0x7d
 8024 27f3 00       		.sleb128 0
 8025 27f4 01       		.byte	0x1
 8026 27f5 19280000 		.4byte	0x2819
 8027 27f9 34       		.uleb128 0x34
 8028 27fa AB080000 		.4byte	.LASF372
 8029 27fe 01       		.byte	0x1
 8030 27ff F304     		.2byte	0x4f3
 8031 2801 4A0C0000 		.4byte	0xc4a
 8032 2805 47120000 		.4byte	.LLST126
 8033 2809 35       		.uleb128 0x35
 8034 280a 657000   		.ascii	"ep\000"
 8035 280d 01       		.byte	0x1
 8036 280e F304     		.2byte	0x4f3
 8037 2810 1C0B0000 		.4byte	0xb1c
 8038 2814 68120000 		.4byte	.LLST127
 8039 2818 00       		.byte	0
 8040 2819 53       		.uleb128 0x53
 8041 281a 01       		.byte	0x1
 8042 281b B1000000 		.4byte	.LASF415
 8043 281f 01       		.byte	0x1
 8044 2820 0005     		.2byte	0x500
 8045 2822 01       		.byte	0x1
 8046 2823 00000000 		.4byte	.LFB154
 8047 2827 10000000 		.4byte	.LFE154
 8048 282b 02       		.byte	0x2
 8049 282c 7D       		.byte	0x7d
 8050 282d 00       		.sleb128 0
 8051 282e 01       		.byte	0x1
 8052 282f 53280000 		.4byte	0x2853
 8053 2833 34       		.uleb128 0x34
 8054 2834 AB080000 		.4byte	.LASF372
 8055 2838 01       		.byte	0x1
 8056 2839 0005     		.2byte	0x500
 8057 283b 4A0C0000 		.4byte	0xc4a
 8058 283f 89120000 		.4byte	.LLST128
 8059 2843 35       		.uleb128 0x35
 8060 2844 657000   		.ascii	"ep\000"
 8061 2847 01       		.byte	0x1
 8062 2848 0005     		.2byte	0x500
 8063 284a 1C0B0000 		.4byte	0xb1c
 8064 284e AA120000 		.4byte	.LLST129
ARM GAS  /tmp/ccx4dzgE.s 			page 143


 8065 2852 00       		.byte	0
 8066 2853 53       		.uleb128 0x53
 8067 2854 01       		.byte	0x1
 8068 2855 79110000 		.4byte	.LASF416
 8069 2859 01       		.byte	0x1
 8070 285a 0D05     		.2byte	0x50d
 8071 285c 01       		.byte	0x1
 8072 285d 00000000 		.4byte	.LFB155
 8073 2861 10000000 		.4byte	.LFE155
 8074 2865 02       		.byte	0x2
 8075 2866 7D       		.byte	0x7d
 8076 2867 00       		.sleb128 0
 8077 2868 01       		.byte	0x1
 8078 2869 8D280000 		.4byte	0x288d
 8079 286d 34       		.uleb128 0x34
 8080 286e AB080000 		.4byte	.LASF372
 8081 2872 01       		.byte	0x1
 8082 2873 0D05     		.2byte	0x50d
 8083 2875 4A0C0000 		.4byte	0xc4a
 8084 2879 CB120000 		.4byte	.LLST130
 8085 287d 35       		.uleb128 0x35
 8086 287e 657000   		.ascii	"ep\000"
 8087 2881 01       		.byte	0x1
 8088 2882 0D05     		.2byte	0x50d
 8089 2884 1C0B0000 		.4byte	0xb1c
 8090 2888 EC120000 		.4byte	.LLST131
 8091 288c 00       		.byte	0
 8092 288d 31       		.uleb128 0x31
 8093 288e 0E040000 		.4byte	.LASF417
 8094 2892 01       		.byte	0x1
 8095 2893 46       		.byte	0x46
 8096 2894 BB150000 		.4byte	0x15bb
 8097 2898 05       		.byte	0x5
 8098 2899 03       		.byte	0x3
 8099 289a 00000000 		.4byte	ep0_state
 8100 289e 31       		.uleb128 0x31
 8101 289f 440C0000 		.4byte	.LASF418
 8102 28a3 01       		.byte	0x1
 8103 28a4 4B       		.byte	0x4b
 8104 28a5 8A150000 		.4byte	0x158a
 8105 28a9 05       		.byte	0x5
 8106 28aa 03       		.byte	0x3
 8107 28ab 00000000 		.4byte	ep0setup_buffer
 8108 28af 31       		.uleb128 0x31
 8109 28b0 C20B0000 		.4byte	.LASF419
 8110 28b4 01       		.byte	0x1
 8111 28b5 50       		.byte	0x50
 8112 28b6 75150000 		.4byte	0x1575
 8113 28ba 05       		.byte	0x5
 8114 28bb 03       		.byte	0x3
 8115 28bc 00000000 		.4byte	ep0config
 8116 28c0 31       		.uleb128 0x31
 8117 28c1 F3080000 		.4byte	.LASF420
 8118 28c5 01       		.byte	0x1
 8119 28c6 5E       		.byte	0x5e
 8120 28c7 A6150000 		.4byte	0x15a6
 8121 28cb 05       		.byte	0x5
ARM GAS  /tmp/ccx4dzgE.s 			page 144


 8122 28cc 03       		.byte	0x3
 8123 28cd 00000000 		.4byte	fsparams
 8124 28d1 57       		.uleb128 0x57
 8125 28d2 400F0000 		.4byte	.LASF421
 8126 28d6 09       		.byte	0x9
 8127 28d7 68       		.byte	0x68
 8128 28d8 EC030000 		.4byte	0x3ec
 8129 28dc 01       		.byte	0x1
 8130 28dd 01       		.byte	0x1
 8131 28de 58       		.uleb128 0x58
 8132 28df 55110000 		.4byte	.LASF422
 8133 28e3 11       		.byte	0x11
 8134 28e4 9806     		.2byte	0x698
 8135 28e6 C8070000 		.4byte	0x7c8
 8136 28ea 01       		.byte	0x1
 8137 28eb 01       		.byte	0x1
 8138 28ec 59       		.uleb128 0x59
 8139 28ed 9B110000 		.4byte	.LASF423
 8140 28f1 01       		.byte	0x1
 8141 28f2 2C       		.byte	0x2c
 8142 28f3 B8090000 		.4byte	0x9b8
 8143 28f7 01       		.byte	0x1
 8144 28f8 05       		.byte	0x5
 8145 28f9 03       		.byte	0x3
 8146 28fa 00000000 		.4byte	USBD1
 8147 28fe 5A       		.uleb128 0x5a
 8148 28ff 01       		.byte	0x1
 8149 2900 810B0000 		.4byte	.LASF424
 8150 2904 12       		.byte	0x12
 8151 2905 CD       		.byte	0xcd
 8152 2906 01       		.byte	0x1
 8153 2907 01       		.byte	0x1
 8154 2908 12290000 		.4byte	0x2912
 8155 290c 12       		.uleb128 0x12
 8156 290d A6090000 		.4byte	0x9a6
 8157 2911 00       		.byte	0
 8158 2912 5B       		.uleb128 0x5b
 8159 2913 01       		.byte	0x1
 8160 2914 A5000000 		.4byte	.LASF430
 8161 2918 09       		.byte	0x9
 8162 2919 89       		.byte	0x89
 8163 291a 01       		.byte	0x1
 8164 291b 8B020000 		.4byte	0x28b
 8165 291f 01       		.byte	0x1
 8166 2920 2A290000 		.4byte	0x292a
 8167 2924 12       		.uleb128 0x12
 8168 2925 8B020000 		.4byte	0x28b
 8169 2929 00       		.byte	0
 8170 292a 5C       		.uleb128 0x5c
 8171 292b 01       		.byte	0x1
 8172 292c 37100000 		.4byte	.LASF427
 8173 2930 09       		.byte	0x9
 8174 2931 95       		.byte	0x95
 8175 2932 01       		.byte	0x1
 8176 2933 01       		.byte	0x1
 8177 2934 5A       		.uleb128 0x5a
 8178 2935 01       		.byte	0x1
ARM GAS  /tmp/ccx4dzgE.s 			page 145


 8179 2936 0B070000 		.4byte	.LASF425
 8180 293a 09       		.byte	0x9
 8181 293b 8C       		.byte	0x8c
 8182 293c 01       		.byte	0x1
 8183 293d 01       		.byte	0x1
 8184 293e 48290000 		.4byte	0x2948
 8185 2942 12       		.uleb128 0x12
 8186 2943 E9000000 		.4byte	0xe9
 8187 2947 00       		.byte	0
 8188 2948 5D       		.uleb128 0x5d
 8189 2949 01       		.byte	0x1
 8190 294a 2A040000 		.4byte	.LASF426
 8191 294e 0E       		.byte	0xe
 8192 294f 3002     		.2byte	0x230
 8193 2951 01       		.byte	0x1
 8194 2952 01       		.byte	0x1
 8195 2953 5D290000 		.4byte	0x295d
 8196 2957 12       		.uleb128 0x12
 8197 2958 4A0C0000 		.4byte	0xc4a
 8198 295c 00       		.byte	0
 8199 295d 5E       		.uleb128 0x5e
 8200 295e 01       		.byte	0x1
 8201 295f 9A0B0000 		.4byte	.LASF428
 8202 2963 08       		.byte	0x8
 8203 2964 FC01     		.2byte	0x1fc
 8204 2966 01       		.byte	0x1
 8205 2967 01       		.byte	0x1
 8206 2968 5D       		.uleb128 0x5d
 8207 2969 01       		.byte	0x1
 8208 296a BA030000 		.4byte	.LASF429
 8209 296e 0E       		.byte	0xe
 8210 296f 1D02     		.2byte	0x21d
 8211 2971 01       		.byte	0x1
 8212 2972 01       		.byte	0x1
 8213 2973 7D290000 		.4byte	0x297d
 8214 2977 12       		.uleb128 0x12
 8215 2978 4A0C0000 		.4byte	0xc4a
 8216 297c 00       		.byte	0
 8217 297d 5F       		.uleb128 0x5f
 8218 297e 01       		.byte	0x1
 8219 297f C10E0000 		.4byte	.LASF431
 8220 2983 07       		.byte	0x7
 8221 2984 6701     		.2byte	0x167
 8222 2986 01       		.byte	0x1
 8223 2987 8B020000 		.4byte	0x28b
 8224 298b 01       		.byte	0x1
 8225 298c AA290000 		.4byte	0x29aa
 8226 2990 12       		.uleb128 0x12
 8227 2991 6F000000 		.4byte	0x6f
 8228 2995 12       		.uleb128 0x12
 8229 2996 8A000000 		.4byte	0x8a
 8230 299a 12       		.uleb128 0x12
 8231 299b 0A010000 		.4byte	0x10a
 8232 299f 12       		.uleb128 0x12
 8233 29a0 7A040000 		.4byte	0x47a
 8234 29a4 12       		.uleb128 0x12
 8235 29a5 6F000000 		.4byte	0x6f
ARM GAS  /tmp/ccx4dzgE.s 			page 146


 8236 29a9 00       		.byte	0
 8237 29aa 60       		.uleb128 0x60
 8238 29ab 01       		.byte	0x1
 8239 29ac 18090000 		.4byte	.LASF437
 8240 29b0 13       		.byte	0x13
 8241 29b1 1C01     		.2byte	0x11c
 8242 29b3 01       		.byte	0x1
 8243 29b4 01       		.byte	0x1
 8244 29b5 12       		.uleb128 0x12
 8245 29b6 B6000000 		.4byte	0xb6
 8246 29ba 12       		.uleb128 0x12
 8247 29bb B6000000 		.4byte	0xb6
 8248 29bf 00       		.byte	0
 8249 29c0 00       		.byte	0
 8250              		.section	.debug_abbrev,"",%progbits
 8251              	.Ldebug_abbrev0:
 8252 0000 01       		.uleb128 0x1
 8253 0001 11       		.uleb128 0x11
 8254 0002 01       		.byte	0x1
 8255 0003 25       		.uleb128 0x25
 8256 0004 0E       		.uleb128 0xe
 8257 0005 13       		.uleb128 0x13
 8258 0006 0B       		.uleb128 0xb
 8259 0007 03       		.uleb128 0x3
 8260 0008 0E       		.uleb128 0xe
 8261 0009 1B       		.uleb128 0x1b
 8262 000a 0E       		.uleb128 0xe
 8263 000b 55       		.uleb128 0x55
 8264 000c 06       		.uleb128 0x6
 8265 000d 11       		.uleb128 0x11
 8266 000e 01       		.uleb128 0x1
 8267 000f 52       		.uleb128 0x52
 8268 0010 01       		.uleb128 0x1
 8269 0011 10       		.uleb128 0x10
 8270 0012 06       		.uleb128 0x6
 8271 0013 00       		.byte	0
 8272 0014 00       		.byte	0
 8273 0015 02       		.uleb128 0x2
 8274 0016 24       		.uleb128 0x24
 8275 0017 00       		.byte	0
 8276 0018 0B       		.uleb128 0xb
 8277 0019 0B       		.uleb128 0xb
 8278 001a 3E       		.uleb128 0x3e
 8279 001b 0B       		.uleb128 0xb
 8280 001c 03       		.uleb128 0x3
 8281 001d 0E       		.uleb128 0xe
 8282 001e 00       		.byte	0
 8283 001f 00       		.byte	0
 8284 0020 03       		.uleb128 0x3
 8285 0021 24       		.uleb128 0x24
 8286 0022 00       		.byte	0
 8287 0023 0B       		.uleb128 0xb
 8288 0024 0B       		.uleb128 0xb
 8289 0025 3E       		.uleb128 0x3e
 8290 0026 0B       		.uleb128 0xb
 8291 0027 03       		.uleb128 0x3
 8292 0028 08       		.uleb128 0x8
ARM GAS  /tmp/ccx4dzgE.s 			page 147


 8293 0029 00       		.byte	0
 8294 002a 00       		.byte	0
 8295 002b 04       		.uleb128 0x4
 8296 002c 0F       		.uleb128 0xf
 8297 002d 00       		.byte	0
 8298 002e 0B       		.uleb128 0xb
 8299 002f 0B       		.uleb128 0xb
 8300 0030 00       		.byte	0
 8301 0031 00       		.byte	0
 8302 0032 05       		.uleb128 0x5
 8303 0033 0F       		.uleb128 0xf
 8304 0034 00       		.byte	0
 8305 0035 0B       		.uleb128 0xb
 8306 0036 0B       		.uleb128 0xb
 8307 0037 49       		.uleb128 0x49
 8308 0038 13       		.uleb128 0x13
 8309 0039 00       		.byte	0
 8310 003a 00       		.byte	0
 8311 003b 06       		.uleb128 0x6
 8312 003c 26       		.uleb128 0x26
 8313 003d 00       		.byte	0
 8314 003e 49       		.uleb128 0x49
 8315 003f 13       		.uleb128 0x13
 8316 0040 00       		.byte	0
 8317 0041 00       		.byte	0
 8318 0042 07       		.uleb128 0x7
 8319 0043 16       		.uleb128 0x16
 8320 0044 00       		.byte	0
 8321 0045 03       		.uleb128 0x3
 8322 0046 0E       		.uleb128 0xe
 8323 0047 3A       		.uleb128 0x3a
 8324 0048 0B       		.uleb128 0xb
 8325 0049 3B       		.uleb128 0x3b
 8326 004a 0B       		.uleb128 0xb
 8327 004b 49       		.uleb128 0x49
 8328 004c 13       		.uleb128 0x13
 8329 004d 00       		.byte	0
 8330 004e 00       		.byte	0
 8331 004f 08       		.uleb128 0x8
 8332 0050 13       		.uleb128 0x13
 8333 0051 01       		.byte	0x1
 8334 0052 03       		.uleb128 0x3
 8335 0053 0E       		.uleb128 0xe
 8336 0054 0B       		.uleb128 0xb
 8337 0055 0B       		.uleb128 0xb
 8338 0056 3A       		.uleb128 0x3a
 8339 0057 0B       		.uleb128 0xb
 8340 0058 3B       		.uleb128 0x3b
 8341 0059 0B       		.uleb128 0xb
 8342 005a 01       		.uleb128 0x1
 8343 005b 13       		.uleb128 0x13
 8344 005c 00       		.byte	0
 8345 005d 00       		.byte	0
 8346 005e 09       		.uleb128 0x9
 8347 005f 0D       		.uleb128 0xd
 8348 0060 00       		.byte	0
 8349 0061 03       		.uleb128 0x3
ARM GAS  /tmp/ccx4dzgE.s 			page 148


 8350 0062 0E       		.uleb128 0xe
 8351 0063 3A       		.uleb128 0x3a
 8352 0064 0B       		.uleb128 0xb
 8353 0065 3B       		.uleb128 0x3b
 8354 0066 0B       		.uleb128 0xb
 8355 0067 49       		.uleb128 0x49
 8356 0068 13       		.uleb128 0x13
 8357 0069 38       		.uleb128 0x38
 8358 006a 0A       		.uleb128 0xa
 8359 006b 00       		.byte	0
 8360 006c 00       		.byte	0
 8361 006d 0A       		.uleb128 0xa
 8362 006e 0D       		.uleb128 0xd
 8363 006f 00       		.byte	0
 8364 0070 03       		.uleb128 0x3
 8365 0071 08       		.uleb128 0x8
 8366 0072 3A       		.uleb128 0x3a
 8367 0073 0B       		.uleb128 0xb
 8368 0074 3B       		.uleb128 0x3b
 8369 0075 0B       		.uleb128 0xb
 8370 0076 49       		.uleb128 0x49
 8371 0077 13       		.uleb128 0x13
 8372 0078 38       		.uleb128 0x38
 8373 0079 0A       		.uleb128 0xa
 8374 007a 00       		.byte	0
 8375 007b 00       		.byte	0
 8376 007c 0B       		.uleb128 0xb
 8377 007d 13       		.uleb128 0x13
 8378 007e 01       		.byte	0x1
 8379 007f 0B       		.uleb128 0xb
 8380 0080 0B       		.uleb128 0xb
 8381 0081 3A       		.uleb128 0x3a
 8382 0082 0B       		.uleb128 0xb
 8383 0083 3B       		.uleb128 0x3b
 8384 0084 0B       		.uleb128 0xb
 8385 0085 01       		.uleb128 0x1
 8386 0086 13       		.uleb128 0x13
 8387 0087 00       		.byte	0
 8388 0088 00       		.byte	0
 8389 0089 0C       		.uleb128 0xc
 8390 008a 13       		.uleb128 0x13
 8391 008b 01       		.byte	0x1
 8392 008c 03       		.uleb128 0x3
 8393 008d 0E       		.uleb128 0xe
 8394 008e 0B       		.uleb128 0xb
 8395 008f 0B       		.uleb128 0xb
 8396 0090 3A       		.uleb128 0x3a
 8397 0091 0B       		.uleb128 0xb
 8398 0092 3B       		.uleb128 0x3b
 8399 0093 05       		.uleb128 0x5
 8400 0094 01       		.uleb128 0x1
 8401 0095 13       		.uleb128 0x13
 8402 0096 00       		.byte	0
 8403 0097 00       		.byte	0
 8404 0098 0D       		.uleb128 0xd
 8405 0099 0D       		.uleb128 0xd
 8406 009a 00       		.byte	0
ARM GAS  /tmp/ccx4dzgE.s 			page 149


 8407 009b 03       		.uleb128 0x3
 8408 009c 08       		.uleb128 0x8
 8409 009d 3A       		.uleb128 0x3a
 8410 009e 0B       		.uleb128 0xb
 8411 009f 3B       		.uleb128 0x3b
 8412 00a0 05       		.uleb128 0x5
 8413 00a1 49       		.uleb128 0x49
 8414 00a2 13       		.uleb128 0x13
 8415 00a3 38       		.uleb128 0x38
 8416 00a4 0A       		.uleb128 0xa
 8417 00a5 00       		.byte	0
 8418 00a6 00       		.byte	0
 8419 00a7 0E       		.uleb128 0xe
 8420 00a8 35       		.uleb128 0x35
 8421 00a9 00       		.byte	0
 8422 00aa 49       		.uleb128 0x49
 8423 00ab 13       		.uleb128 0x13
 8424 00ac 00       		.byte	0
 8425 00ad 00       		.byte	0
 8426 00ae 0F       		.uleb128 0xf
 8427 00af 17       		.uleb128 0x17
 8428 00b0 01       		.byte	0x1
 8429 00b1 0B       		.uleb128 0xb
 8430 00b2 0B       		.uleb128 0xb
 8431 00b3 3A       		.uleb128 0x3a
 8432 00b4 0B       		.uleb128 0xb
 8433 00b5 3B       		.uleb128 0x3b
 8434 00b6 0B       		.uleb128 0xb
 8435 00b7 01       		.uleb128 0x1
 8436 00b8 13       		.uleb128 0x13
 8437 00b9 00       		.byte	0
 8438 00ba 00       		.byte	0
 8439 00bb 10       		.uleb128 0x10
 8440 00bc 0D       		.uleb128 0xd
 8441 00bd 00       		.byte	0
 8442 00be 03       		.uleb128 0x3
 8443 00bf 0E       		.uleb128 0xe
 8444 00c0 3A       		.uleb128 0x3a
 8445 00c1 0B       		.uleb128 0xb
 8446 00c2 3B       		.uleb128 0x3b
 8447 00c3 0B       		.uleb128 0xb
 8448 00c4 49       		.uleb128 0x49
 8449 00c5 13       		.uleb128 0x13
 8450 00c6 00       		.byte	0
 8451 00c7 00       		.byte	0
 8452 00c8 11       		.uleb128 0x11
 8453 00c9 15       		.uleb128 0x15
 8454 00ca 01       		.byte	0x1
 8455 00cb 27       		.uleb128 0x27
 8456 00cc 0C       		.uleb128 0xc
 8457 00cd 49       		.uleb128 0x49
 8458 00ce 13       		.uleb128 0x13
 8459 00cf 01       		.uleb128 0x1
 8460 00d0 13       		.uleb128 0x13
 8461 00d1 00       		.byte	0
 8462 00d2 00       		.byte	0
 8463 00d3 12       		.uleb128 0x12
ARM GAS  /tmp/ccx4dzgE.s 			page 150


 8464 00d4 05       		.uleb128 0x5
 8465 00d5 00       		.byte	0
 8466 00d6 49       		.uleb128 0x49
 8467 00d7 13       		.uleb128 0x13
 8468 00d8 00       		.byte	0
 8469 00d9 00       		.byte	0
 8470 00da 13       		.uleb128 0x13
 8471 00db 15       		.uleb128 0x15
 8472 00dc 01       		.byte	0x1
 8473 00dd 27       		.uleb128 0x27
 8474 00de 0C       		.uleb128 0xc
 8475 00df 01       		.uleb128 0x1
 8476 00e0 13       		.uleb128 0x13
 8477 00e1 00       		.byte	0
 8478 00e2 00       		.byte	0
 8479 00e3 14       		.uleb128 0x14
 8480 00e4 04       		.uleb128 0x4
 8481 00e5 01       		.byte	0x1
 8482 00e6 03       		.uleb128 0x3
 8483 00e7 0E       		.uleb128 0xe
 8484 00e8 0B       		.uleb128 0xb
 8485 00e9 0B       		.uleb128 0xb
 8486 00ea 3A       		.uleb128 0x3a
 8487 00eb 0B       		.uleb128 0xb
 8488 00ec 3B       		.uleb128 0x3b
 8489 00ed 0B       		.uleb128 0xb
 8490 00ee 01       		.uleb128 0x1
 8491 00ef 13       		.uleb128 0x13
 8492 00f0 00       		.byte	0
 8493 00f1 00       		.byte	0
 8494 00f2 15       		.uleb128 0x15
 8495 00f3 28       		.uleb128 0x28
 8496 00f4 00       		.byte	0
 8497 00f5 03       		.uleb128 0x3
 8498 00f6 0E       		.uleb128 0xe
 8499 00f7 1C       		.uleb128 0x1c
 8500 00f8 0D       		.uleb128 0xd
 8501 00f9 00       		.byte	0
 8502 00fa 00       		.byte	0
 8503 00fb 16       		.uleb128 0x16
 8504 00fc 01       		.uleb128 0x1
 8505 00fd 01       		.byte	0x1
 8506 00fe 49       		.uleb128 0x49
 8507 00ff 13       		.uleb128 0x13
 8508 0100 01       		.uleb128 0x1
 8509 0101 13       		.uleb128 0x13
 8510 0102 00       		.byte	0
 8511 0103 00       		.byte	0
 8512 0104 17       		.uleb128 0x17
 8513 0105 21       		.uleb128 0x21
 8514 0106 00       		.byte	0
 8515 0107 49       		.uleb128 0x49
 8516 0108 13       		.uleb128 0x13
 8517 0109 2F       		.uleb128 0x2f
 8518 010a 0B       		.uleb128 0xb
 8519 010b 00       		.byte	0
 8520 010c 00       		.byte	0
ARM GAS  /tmp/ccx4dzgE.s 			page 151


 8521 010d 18       		.uleb128 0x18
 8522 010e 13       		.uleb128 0x13
 8523 010f 01       		.byte	0x1
 8524 0110 0B       		.uleb128 0xb
 8525 0111 0B       		.uleb128 0xb
 8526 0112 3A       		.uleb128 0x3a
 8527 0113 0B       		.uleb128 0xb
 8528 0114 3B       		.uleb128 0x3b
 8529 0115 05       		.uleb128 0x5
 8530 0116 01       		.uleb128 0x1
 8531 0117 13       		.uleb128 0x13
 8532 0118 00       		.byte	0
 8533 0119 00       		.byte	0
 8534 011a 19       		.uleb128 0x19
 8535 011b 0D       		.uleb128 0xd
 8536 011c 00       		.byte	0
 8537 011d 03       		.uleb128 0x3
 8538 011e 0E       		.uleb128 0xe
 8539 011f 3A       		.uleb128 0x3a
 8540 0120 0B       		.uleb128 0xb
 8541 0121 3B       		.uleb128 0x3b
 8542 0122 05       		.uleb128 0x5
 8543 0123 49       		.uleb128 0x49
 8544 0124 13       		.uleb128 0x13
 8545 0125 38       		.uleb128 0x38
 8546 0126 0A       		.uleb128 0xa
 8547 0127 00       		.byte	0
 8548 0128 00       		.byte	0
 8549 0129 1A       		.uleb128 0x1a
 8550 012a 16       		.uleb128 0x16
 8551 012b 00       		.byte	0
 8552 012c 03       		.uleb128 0x3
 8553 012d 0E       		.uleb128 0xe
 8554 012e 3A       		.uleb128 0x3a
 8555 012f 0B       		.uleb128 0xb
 8556 0130 3B       		.uleb128 0x3b
 8557 0131 05       		.uleb128 0x5
 8558 0132 49       		.uleb128 0x49
 8559 0133 13       		.uleb128 0x13
 8560 0134 00       		.byte	0
 8561 0135 00       		.byte	0
 8562 0136 1B       		.uleb128 0x1b
 8563 0137 13       		.uleb128 0x13
 8564 0138 01       		.byte	0x1
 8565 0139 03       		.uleb128 0x3
 8566 013a 0E       		.uleb128 0xe
 8567 013b 0B       		.uleb128 0xb
 8568 013c 05       		.uleb128 0x5
 8569 013d 3A       		.uleb128 0x3a
 8570 013e 0B       		.uleb128 0xb
 8571 013f 3B       		.uleb128 0x3b
 8572 0140 05       		.uleb128 0x5
 8573 0141 01       		.uleb128 0x1
 8574 0142 13       		.uleb128 0x13
 8575 0143 00       		.byte	0
 8576 0144 00       		.byte	0
 8577 0145 1C       		.uleb128 0x1c
ARM GAS  /tmp/ccx4dzgE.s 			page 152


 8578 0146 04       		.uleb128 0x4
 8579 0147 01       		.byte	0x1
 8580 0148 0B       		.uleb128 0xb
 8581 0149 0B       		.uleb128 0xb
 8582 014a 3A       		.uleb128 0x3a
 8583 014b 0B       		.uleb128 0xb
 8584 014c 3B       		.uleb128 0x3b
 8585 014d 0B       		.uleb128 0xb
 8586 014e 01       		.uleb128 0x1
 8587 014f 13       		.uleb128 0x13
 8588 0150 00       		.byte	0
 8589 0151 00       		.byte	0
 8590 0152 1D       		.uleb128 0x1d
 8591 0153 04       		.uleb128 0x4
 8592 0154 01       		.byte	0x1
 8593 0155 0B       		.uleb128 0xb
 8594 0156 0B       		.uleb128 0xb
 8595 0157 3A       		.uleb128 0x3a
 8596 0158 0B       		.uleb128 0xb
 8597 0159 3B       		.uleb128 0x3b
 8598 015a 05       		.uleb128 0x5
 8599 015b 01       		.uleb128 0x1
 8600 015c 13       		.uleb128 0x13
 8601 015d 00       		.byte	0
 8602 015e 00       		.byte	0
 8603 015f 1E       		.uleb128 0x1e
 8604 0160 13       		.uleb128 0x13
 8605 0161 01       		.byte	0x1
 8606 0162 0B       		.uleb128 0xb
 8607 0163 06       		.uleb128 0x6
 8608 0164 3A       		.uleb128 0x3a
 8609 0165 0B       		.uleb128 0xb
 8610 0166 3B       		.uleb128 0x3b
 8611 0167 0B       		.uleb128 0xb
 8612 0168 01       		.uleb128 0x1
 8613 0169 13       		.uleb128 0x13
 8614 016a 00       		.byte	0
 8615 016b 00       		.byte	0
 8616 016c 1F       		.uleb128 0x1f
 8617 016d 21       		.uleb128 0x21
 8618 016e 00       		.byte	0
 8619 016f 49       		.uleb128 0x49
 8620 0170 13       		.uleb128 0x13
 8621 0171 2F       		.uleb128 0x2f
 8622 0172 05       		.uleb128 0x5
 8623 0173 00       		.byte	0
 8624 0174 00       		.byte	0
 8625 0175 20       		.uleb128 0x20
 8626 0176 0D       		.uleb128 0xd
 8627 0177 00       		.byte	0
 8628 0178 03       		.uleb128 0x3
 8629 0179 08       		.uleb128 0x8
 8630 017a 3A       		.uleb128 0x3a
 8631 017b 0B       		.uleb128 0xb
 8632 017c 3B       		.uleb128 0x3b
 8633 017d 0B       		.uleb128 0xb
 8634 017e 49       		.uleb128 0x49
ARM GAS  /tmp/ccx4dzgE.s 			page 153


 8635 017f 13       		.uleb128 0x13
 8636 0180 00       		.byte	0
 8637 0181 00       		.byte	0
 8638 0182 21       		.uleb128 0x21
 8639 0183 2E       		.uleb128 0x2e
 8640 0184 01       		.byte	0x1
 8641 0185 03       		.uleb128 0x3
 8642 0186 0E       		.uleb128 0xe
 8643 0187 3A       		.uleb128 0x3a
 8644 0188 0B       		.uleb128 0xb
 8645 0189 3B       		.uleb128 0x3b
 8646 018a 0B       		.uleb128 0xb
 8647 018b 27       		.uleb128 0x27
 8648 018c 0C       		.uleb128 0xc
 8649 018d 49       		.uleb128 0x49
 8650 018e 13       		.uleb128 0x13
 8651 018f 20       		.uleb128 0x20
 8652 0190 0B       		.uleb128 0xb
 8653 0191 01       		.uleb128 0x1
 8654 0192 13       		.uleb128 0x13
 8655 0193 00       		.byte	0
 8656 0194 00       		.byte	0
 8657 0195 22       		.uleb128 0x22
 8658 0196 05       		.uleb128 0x5
 8659 0197 00       		.byte	0
 8660 0198 03       		.uleb128 0x3
 8661 0199 0E       		.uleb128 0xe
 8662 019a 3A       		.uleb128 0x3a
 8663 019b 0B       		.uleb128 0xb
 8664 019c 3B       		.uleb128 0x3b
 8665 019d 0B       		.uleb128 0xb
 8666 019e 49       		.uleb128 0x49
 8667 019f 13       		.uleb128 0x13
 8668 01a0 00       		.byte	0
 8669 01a1 00       		.byte	0
 8670 01a2 23       		.uleb128 0x23
 8671 01a3 05       		.uleb128 0x5
 8672 01a4 00       		.byte	0
 8673 01a5 03       		.uleb128 0x3
 8674 01a6 08       		.uleb128 0x8
 8675 01a7 3A       		.uleb128 0x3a
 8676 01a8 0B       		.uleb128 0xb
 8677 01a9 3B       		.uleb128 0x3b
 8678 01aa 0B       		.uleb128 0xb
 8679 01ab 49       		.uleb128 0x49
 8680 01ac 13       		.uleb128 0x13
 8681 01ad 00       		.byte	0
 8682 01ae 00       		.byte	0
 8683 01af 24       		.uleb128 0x24
 8684 01b0 2E       		.uleb128 0x2e
 8685 01b1 01       		.byte	0x1
 8686 01b2 03       		.uleb128 0x3
 8687 01b3 0E       		.uleb128 0xe
 8688 01b4 3A       		.uleb128 0x3a
 8689 01b5 0B       		.uleb128 0xb
 8690 01b6 3B       		.uleb128 0x3b
 8691 01b7 05       		.uleb128 0x5
ARM GAS  /tmp/ccx4dzgE.s 			page 154


 8692 01b8 27       		.uleb128 0x27
 8693 01b9 0C       		.uleb128 0xc
 8694 01ba 49       		.uleb128 0x49
 8695 01bb 13       		.uleb128 0x13
 8696 01bc 20       		.uleb128 0x20
 8697 01bd 0B       		.uleb128 0xb
 8698 01be 01       		.uleb128 0x1
 8699 01bf 13       		.uleb128 0x13
 8700 01c0 00       		.byte	0
 8701 01c1 00       		.byte	0
 8702 01c2 25       		.uleb128 0x25
 8703 01c3 05       		.uleb128 0x5
 8704 01c4 00       		.byte	0
 8705 01c5 03       		.uleb128 0x3
 8706 01c6 0E       		.uleb128 0xe
 8707 01c7 3A       		.uleb128 0x3a
 8708 01c8 0B       		.uleb128 0xb
 8709 01c9 3B       		.uleb128 0x3b
 8710 01ca 05       		.uleb128 0x5
 8711 01cb 49       		.uleb128 0x49
 8712 01cc 13       		.uleb128 0x13
 8713 01cd 00       		.byte	0
 8714 01ce 00       		.byte	0
 8715 01cf 26       		.uleb128 0x26
 8716 01d0 05       		.uleb128 0x5
 8717 01d1 00       		.byte	0
 8718 01d2 03       		.uleb128 0x3
 8719 01d3 08       		.uleb128 0x8
 8720 01d4 3A       		.uleb128 0x3a
 8721 01d5 0B       		.uleb128 0xb
 8722 01d6 3B       		.uleb128 0x3b
 8723 01d7 05       		.uleb128 0x5
 8724 01d8 49       		.uleb128 0x49
 8725 01d9 13       		.uleb128 0x13
 8726 01da 00       		.byte	0
 8727 01db 00       		.byte	0
 8728 01dc 27       		.uleb128 0x27
 8729 01dd 0B       		.uleb128 0xb
 8730 01de 01       		.byte	0x1
 8731 01df 00       		.byte	0
 8732 01e0 00       		.byte	0
 8733 01e1 28       		.uleb128 0x28
 8734 01e2 34       		.uleb128 0x34
 8735 01e3 00       		.byte	0
 8736 01e4 03       		.uleb128 0x3
 8737 01e5 08       		.uleb128 0x8
 8738 01e6 3A       		.uleb128 0x3a
 8739 01e7 0B       		.uleb128 0xb
 8740 01e8 3B       		.uleb128 0x3b
 8741 01e9 05       		.uleb128 0x5
 8742 01ea 49       		.uleb128 0x49
 8743 01eb 13       		.uleb128 0x13
 8744 01ec 00       		.byte	0
 8745 01ed 00       		.byte	0
 8746 01ee 29       		.uleb128 0x29
 8747 01ef 34       		.uleb128 0x34
 8748 01f0 00       		.byte	0
ARM GAS  /tmp/ccx4dzgE.s 			page 155


 8749 01f1 03       		.uleb128 0x3
 8750 01f2 08       		.uleb128 0x8
 8751 01f3 3A       		.uleb128 0x3a
 8752 01f4 0B       		.uleb128 0xb
 8753 01f5 3B       		.uleb128 0x3b
 8754 01f6 0B       		.uleb128 0xb
 8755 01f7 49       		.uleb128 0x49
 8756 01f8 13       		.uleb128 0x13
 8757 01f9 00       		.byte	0
 8758 01fa 00       		.byte	0
 8759 01fb 2A       		.uleb128 0x2a
 8760 01fc 2E       		.uleb128 0x2e
 8761 01fd 01       		.byte	0x1
 8762 01fe 03       		.uleb128 0x3
 8763 01ff 0E       		.uleb128 0xe
 8764 0200 3A       		.uleb128 0x3a
 8765 0201 0B       		.uleb128 0xb
 8766 0202 3B       		.uleb128 0x3b
 8767 0203 05       		.uleb128 0x5
 8768 0204 27       		.uleb128 0x27
 8769 0205 0C       		.uleb128 0xc
 8770 0206 20       		.uleb128 0x20
 8771 0207 0B       		.uleb128 0xb
 8772 0208 01       		.uleb128 0x1
 8773 0209 13       		.uleb128 0x13
 8774 020a 00       		.byte	0
 8775 020b 00       		.byte	0
 8776 020c 2B       		.uleb128 0x2b
 8777 020d 2E       		.uleb128 0x2e
 8778 020e 01       		.byte	0x1
 8779 020f 03       		.uleb128 0x3
 8780 0210 0E       		.uleb128 0xe
 8781 0211 3A       		.uleb128 0x3a
 8782 0212 0B       		.uleb128 0xb
 8783 0213 3B       		.uleb128 0x3b
 8784 0214 0B       		.uleb128 0xb
 8785 0215 27       		.uleb128 0x27
 8786 0216 0C       		.uleb128 0xc
 8787 0217 20       		.uleb128 0x20
 8788 0218 0B       		.uleb128 0xb
 8789 0219 01       		.uleb128 0x1
 8790 021a 13       		.uleb128 0x13
 8791 021b 00       		.byte	0
 8792 021c 00       		.byte	0
 8793 021d 2C       		.uleb128 0x2c
 8794 021e 34       		.uleb128 0x34
 8795 021f 00       		.byte	0
 8796 0220 03       		.uleb128 0x3
 8797 0221 0E       		.uleb128 0xe
 8798 0222 3A       		.uleb128 0x3a
 8799 0223 0B       		.uleb128 0xb
 8800 0224 3B       		.uleb128 0x3b
 8801 0225 0B       		.uleb128 0xb
 8802 0226 49       		.uleb128 0x49
 8803 0227 13       		.uleb128 0x13
 8804 0228 00       		.byte	0
 8805 0229 00       		.byte	0
ARM GAS  /tmp/ccx4dzgE.s 			page 156


 8806 022a 2D       		.uleb128 0x2d
 8807 022b 34       		.uleb128 0x34
 8808 022c 00       		.byte	0
 8809 022d 03       		.uleb128 0x3
 8810 022e 0E       		.uleb128 0xe
 8811 022f 3A       		.uleb128 0x3a
 8812 0230 0B       		.uleb128 0xb
 8813 0231 3B       		.uleb128 0x3b
 8814 0232 05       		.uleb128 0x5
 8815 0233 49       		.uleb128 0x49
 8816 0234 13       		.uleb128 0x13
 8817 0235 00       		.byte	0
 8818 0236 00       		.byte	0
 8819 0237 2E       		.uleb128 0x2e
 8820 0238 0B       		.uleb128 0xb
 8821 0239 01       		.byte	0x1
 8822 023a 01       		.uleb128 0x1
 8823 023b 13       		.uleb128 0x13
 8824 023c 00       		.byte	0
 8825 023d 00       		.byte	0
 8826 023e 2F       		.uleb128 0x2f
 8827 023f 2E       		.uleb128 0x2e
 8828 0240 01       		.byte	0x1
 8829 0241 03       		.uleb128 0x3
 8830 0242 0E       		.uleb128 0xe
 8831 0243 3A       		.uleb128 0x3a
 8832 0244 0B       		.uleb128 0xb
 8833 0245 3B       		.uleb128 0x3b
 8834 0246 0B       		.uleb128 0xb
 8835 0247 27       		.uleb128 0x27
 8836 0248 0C       		.uleb128 0xc
 8837 0249 11       		.uleb128 0x11
 8838 024a 01       		.uleb128 0x1
 8839 024b 12       		.uleb128 0x12
 8840 024c 01       		.uleb128 0x1
 8841 024d 40       		.uleb128 0x40
 8842 024e 06       		.uleb128 0x6
 8843 024f 9742     		.uleb128 0x2117
 8844 0251 0C       		.uleb128 0xc
 8845 0252 01       		.uleb128 0x1
 8846 0253 13       		.uleb128 0x13
 8847 0254 00       		.byte	0
 8848 0255 00       		.byte	0
 8849 0256 30       		.uleb128 0x30
 8850 0257 05       		.uleb128 0x5
 8851 0258 00       		.byte	0
 8852 0259 03       		.uleb128 0x3
 8853 025a 0E       		.uleb128 0xe
 8854 025b 3A       		.uleb128 0x3a
 8855 025c 0B       		.uleb128 0xb
 8856 025d 3B       		.uleb128 0x3b
 8857 025e 0B       		.uleb128 0xb
 8858 025f 49       		.uleb128 0x49
 8859 0260 13       		.uleb128 0x13
 8860 0261 02       		.uleb128 0x2
 8861 0262 06       		.uleb128 0x6
 8862 0263 00       		.byte	0
ARM GAS  /tmp/ccx4dzgE.s 			page 157


 8863 0264 00       		.byte	0
 8864 0265 31       		.uleb128 0x31
 8865 0266 34       		.uleb128 0x34
 8866 0267 00       		.byte	0
 8867 0268 03       		.uleb128 0x3
 8868 0269 0E       		.uleb128 0xe
 8869 026a 3A       		.uleb128 0x3a
 8870 026b 0B       		.uleb128 0xb
 8871 026c 3B       		.uleb128 0x3b
 8872 026d 0B       		.uleb128 0xb
 8873 026e 49       		.uleb128 0x49
 8874 026f 13       		.uleb128 0x13
 8875 0270 02       		.uleb128 0x2
 8876 0271 0A       		.uleb128 0xa
 8877 0272 00       		.byte	0
 8878 0273 00       		.byte	0
 8879 0274 32       		.uleb128 0x32
 8880 0275 34       		.uleb128 0x34
 8881 0276 00       		.byte	0
 8882 0277 03       		.uleb128 0x3
 8883 0278 08       		.uleb128 0x8
 8884 0279 3A       		.uleb128 0x3a
 8885 027a 0B       		.uleb128 0xb
 8886 027b 3B       		.uleb128 0x3b
 8887 027c 0B       		.uleb128 0xb
 8888 027d 49       		.uleb128 0x49
 8889 027e 13       		.uleb128 0x13
 8890 027f 02       		.uleb128 0x2
 8891 0280 06       		.uleb128 0x6
 8892 0281 00       		.byte	0
 8893 0282 00       		.byte	0
 8894 0283 33       		.uleb128 0x33
 8895 0284 2E       		.uleb128 0x2e
 8896 0285 01       		.byte	0x1
 8897 0286 03       		.uleb128 0x3
 8898 0287 0E       		.uleb128 0xe
 8899 0288 3A       		.uleb128 0x3a
 8900 0289 0B       		.uleb128 0xb
 8901 028a 3B       		.uleb128 0x3b
 8902 028b 05       		.uleb128 0x5
 8903 028c 27       		.uleb128 0x27
 8904 028d 0C       		.uleb128 0xc
 8905 028e 11       		.uleb128 0x11
 8906 028f 01       		.uleb128 0x1
 8907 0290 12       		.uleb128 0x12
 8908 0291 01       		.uleb128 0x1
 8909 0292 40       		.uleb128 0x40
 8910 0293 06       		.uleb128 0x6
 8911 0294 9742     		.uleb128 0x2117
 8912 0296 0C       		.uleb128 0xc
 8913 0297 01       		.uleb128 0x1
 8914 0298 13       		.uleb128 0x13
 8915 0299 00       		.byte	0
 8916 029a 00       		.byte	0
 8917 029b 34       		.uleb128 0x34
 8918 029c 05       		.uleb128 0x5
 8919 029d 00       		.byte	0
ARM GAS  /tmp/ccx4dzgE.s 			page 158


 8920 029e 03       		.uleb128 0x3
 8921 029f 0E       		.uleb128 0xe
 8922 02a0 3A       		.uleb128 0x3a
 8923 02a1 0B       		.uleb128 0xb
 8924 02a2 3B       		.uleb128 0x3b
 8925 02a3 05       		.uleb128 0x5
 8926 02a4 49       		.uleb128 0x49
 8927 02a5 13       		.uleb128 0x13
 8928 02a6 02       		.uleb128 0x2
 8929 02a7 06       		.uleb128 0x6
 8930 02a8 00       		.byte	0
 8931 02a9 00       		.byte	0
 8932 02aa 35       		.uleb128 0x35
 8933 02ab 05       		.uleb128 0x5
 8934 02ac 00       		.byte	0
 8935 02ad 03       		.uleb128 0x3
 8936 02ae 08       		.uleb128 0x8
 8937 02af 3A       		.uleb128 0x3a
 8938 02b0 0B       		.uleb128 0xb
 8939 02b1 3B       		.uleb128 0x3b
 8940 02b2 05       		.uleb128 0x5
 8941 02b3 49       		.uleb128 0x49
 8942 02b4 13       		.uleb128 0x13
 8943 02b5 02       		.uleb128 0x2
 8944 02b6 06       		.uleb128 0x6
 8945 02b7 00       		.byte	0
 8946 02b8 00       		.byte	0
 8947 02b9 36       		.uleb128 0x36
 8948 02ba 34       		.uleb128 0x34
 8949 02bb 00       		.byte	0
 8950 02bc 03       		.uleb128 0x3
 8951 02bd 0E       		.uleb128 0xe
 8952 02be 3A       		.uleb128 0x3a
 8953 02bf 0B       		.uleb128 0xb
 8954 02c0 3B       		.uleb128 0x3b
 8955 02c1 05       		.uleb128 0x5
 8956 02c2 49       		.uleb128 0x49
 8957 02c3 13       		.uleb128 0x13
 8958 02c4 02       		.uleb128 0x2
 8959 02c5 0A       		.uleb128 0xa
 8960 02c6 00       		.byte	0
 8961 02c7 00       		.byte	0
 8962 02c8 37       		.uleb128 0x37
 8963 02c9 898201   		.uleb128 0x4109
 8964 02cc 01       		.byte	0x1
 8965 02cd 11       		.uleb128 0x11
 8966 02ce 01       		.uleb128 0x1
 8967 02cf 01       		.uleb128 0x1
 8968 02d0 13       		.uleb128 0x13
 8969 02d1 00       		.byte	0
 8970 02d2 00       		.byte	0
 8971 02d3 38       		.uleb128 0x38
 8972 02d4 8A8201   		.uleb128 0x410a
 8973 02d7 00       		.byte	0
 8974 02d8 02       		.uleb128 0x2
 8975 02d9 0A       		.uleb128 0xa
 8976 02da 9142     		.uleb128 0x2111
ARM GAS  /tmp/ccx4dzgE.s 			page 159


 8977 02dc 0A       		.uleb128 0xa
 8978 02dd 00       		.byte	0
 8979 02de 00       		.byte	0
 8980 02df 39       		.uleb128 0x39
 8981 02e0 898201   		.uleb128 0x4109
 8982 02e3 01       		.byte	0x1
 8983 02e4 11       		.uleb128 0x11
 8984 02e5 01       		.uleb128 0x1
 8985 02e6 00       		.byte	0
 8986 02e7 00       		.byte	0
 8987 02e8 3A       		.uleb128 0x3a
 8988 02e9 2E       		.uleb128 0x2e
 8989 02ea 01       		.byte	0x1
 8990 02eb 03       		.uleb128 0x3
 8991 02ec 0E       		.uleb128 0xe
 8992 02ed 3A       		.uleb128 0x3a
 8993 02ee 0B       		.uleb128 0xb
 8994 02ef 3B       		.uleb128 0x3b
 8995 02f0 0B       		.uleb128 0xb
 8996 02f1 27       		.uleb128 0x27
 8997 02f2 0C       		.uleb128 0xc
 8998 02f3 11       		.uleb128 0x11
 8999 02f4 01       		.uleb128 0x1
 9000 02f5 12       		.uleb128 0x12
 9001 02f6 01       		.uleb128 0x1
 9002 02f7 40       		.uleb128 0x40
 9003 02f8 0A       		.uleb128 0xa
 9004 02f9 9742     		.uleb128 0x2117
 9005 02fb 0C       		.uleb128 0xc
 9006 02fc 01       		.uleb128 0x1
 9007 02fd 13       		.uleb128 0x13
 9008 02fe 00       		.byte	0
 9009 02ff 00       		.byte	0
 9010 0300 3B       		.uleb128 0x3b
 9011 0301 34       		.uleb128 0x34
 9012 0302 00       		.byte	0
 9013 0303 03       		.uleb128 0x3
 9014 0304 0E       		.uleb128 0xe
 9015 0305 3A       		.uleb128 0x3a
 9016 0306 0B       		.uleb128 0xb
 9017 0307 3B       		.uleb128 0x3b
 9018 0308 0B       		.uleb128 0xb
 9019 0309 49       		.uleb128 0x49
 9020 030a 13       		.uleb128 0x13
 9021 030b 02       		.uleb128 0x2
 9022 030c 06       		.uleb128 0x6
 9023 030d 00       		.byte	0
 9024 030e 00       		.byte	0
 9025 030f 3C       		.uleb128 0x3c
 9026 0310 898201   		.uleb128 0x4109
 9027 0313 01       		.byte	0x1
 9028 0314 11       		.uleb128 0x11
 9029 0315 01       		.uleb128 0x1
 9030 0316 9542     		.uleb128 0x2115
 9031 0318 0C       		.uleb128 0xc
 9032 0319 31       		.uleb128 0x31
 9033 031a 13       		.uleb128 0x13
ARM GAS  /tmp/ccx4dzgE.s 			page 160


 9034 031b 00       		.byte	0
 9035 031c 00       		.byte	0
 9036 031d 3D       		.uleb128 0x3d
 9037 031e 2E       		.uleb128 0x2e
 9038 031f 01       		.byte	0x1
 9039 0320 03       		.uleb128 0x3
 9040 0321 0E       		.uleb128 0xe
 9041 0322 3A       		.uleb128 0x3a
 9042 0323 0B       		.uleb128 0xb
 9043 0324 3B       		.uleb128 0x3b
 9044 0325 05       		.uleb128 0x5
 9045 0326 27       		.uleb128 0x27
 9046 0327 0C       		.uleb128 0xc
 9047 0328 49       		.uleb128 0x49
 9048 0329 13       		.uleb128 0x13
 9049 032a 11       		.uleb128 0x11
 9050 032b 01       		.uleb128 0x1
 9051 032c 12       		.uleb128 0x12
 9052 032d 01       		.uleb128 0x1
 9053 032e 40       		.uleb128 0x40
 9054 032f 06       		.uleb128 0x6
 9055 0330 9742     		.uleb128 0x2117
 9056 0332 0C       		.uleb128 0xc
 9057 0333 01       		.uleb128 0x1
 9058 0334 13       		.uleb128 0x13
 9059 0335 00       		.byte	0
 9060 0336 00       		.byte	0
 9061 0337 3E       		.uleb128 0x3e
 9062 0338 34       		.uleb128 0x34
 9063 0339 00       		.byte	0
 9064 033a 03       		.uleb128 0x3
 9065 033b 0E       		.uleb128 0xe
 9066 033c 3A       		.uleb128 0x3a
 9067 033d 0B       		.uleb128 0xb
 9068 033e 3B       		.uleb128 0x3b
 9069 033f 05       		.uleb128 0x5
 9070 0340 49       		.uleb128 0x49
 9071 0341 13       		.uleb128 0x13
 9072 0342 02       		.uleb128 0x2
 9073 0343 06       		.uleb128 0x6
 9074 0344 00       		.byte	0
 9075 0345 00       		.byte	0
 9076 0346 3F       		.uleb128 0x3f
 9077 0347 0B       		.uleb128 0xb
 9078 0348 01       		.byte	0x1
 9079 0349 55       		.uleb128 0x55
 9080 034a 06       		.uleb128 0x6
 9081 034b 01       		.uleb128 0x1
 9082 034c 13       		.uleb128 0x13
 9083 034d 00       		.byte	0
 9084 034e 00       		.byte	0
 9085 034f 40       		.uleb128 0x40
 9086 0350 34       		.uleb128 0x34
 9087 0351 00       		.byte	0
 9088 0352 03       		.uleb128 0x3
 9089 0353 08       		.uleb128 0x8
 9090 0354 3A       		.uleb128 0x3a
ARM GAS  /tmp/ccx4dzgE.s 			page 161


 9091 0355 0B       		.uleb128 0xb
 9092 0356 3B       		.uleb128 0x3b
 9093 0357 05       		.uleb128 0x5
 9094 0358 49       		.uleb128 0x49
 9095 0359 13       		.uleb128 0x13
 9096 035a 02       		.uleb128 0x2
 9097 035b 06       		.uleb128 0x6
 9098 035c 00       		.byte	0
 9099 035d 00       		.byte	0
 9100 035e 41       		.uleb128 0x41
 9101 035f 0B       		.uleb128 0xb
 9102 0360 01       		.byte	0x1
 9103 0361 55       		.uleb128 0x55
 9104 0362 06       		.uleb128 0x6
 9105 0363 00       		.byte	0
 9106 0364 00       		.byte	0
 9107 0365 42       		.uleb128 0x42
 9108 0366 1D       		.uleb128 0x1d
 9109 0367 01       		.byte	0x1
 9110 0368 31       		.uleb128 0x31
 9111 0369 13       		.uleb128 0x13
 9112 036a 52       		.uleb128 0x52
 9113 036b 01       		.uleb128 0x1
 9114 036c 55       		.uleb128 0x55
 9115 036d 06       		.uleb128 0x6
 9116 036e 58       		.uleb128 0x58
 9117 036f 0B       		.uleb128 0xb
 9118 0370 59       		.uleb128 0x59
 9119 0371 05       		.uleb128 0x5
 9120 0372 01       		.uleb128 0x1
 9121 0373 13       		.uleb128 0x13
 9122 0374 00       		.byte	0
 9123 0375 00       		.byte	0
 9124 0376 43       		.uleb128 0x43
 9125 0377 05       		.uleb128 0x5
 9126 0378 00       		.byte	0
 9127 0379 31       		.uleb128 0x31
 9128 037a 13       		.uleb128 0x13
 9129 037b 02       		.uleb128 0x2
 9130 037c 06       		.uleb128 0x6
 9131 037d 00       		.byte	0
 9132 037e 00       		.byte	0
 9133 037f 44       		.uleb128 0x44
 9134 0380 34       		.uleb128 0x34
 9135 0381 00       		.byte	0
 9136 0382 31       		.uleb128 0x31
 9137 0383 13       		.uleb128 0x13
 9138 0384 02       		.uleb128 0x2
 9139 0385 06       		.uleb128 0x6
 9140 0386 00       		.byte	0
 9141 0387 00       		.byte	0
 9142 0388 45       		.uleb128 0x45
 9143 0389 1D       		.uleb128 0x1d
 9144 038a 01       		.byte	0x1
 9145 038b 31       		.uleb128 0x31
 9146 038c 13       		.uleb128 0x13
 9147 038d 11       		.uleb128 0x11
ARM GAS  /tmp/ccx4dzgE.s 			page 162


 9148 038e 01       		.uleb128 0x1
 9149 038f 12       		.uleb128 0x12
 9150 0390 01       		.uleb128 0x1
 9151 0391 58       		.uleb128 0x58
 9152 0392 0B       		.uleb128 0xb
 9153 0393 59       		.uleb128 0x59
 9154 0394 05       		.uleb128 0x5
 9155 0395 01       		.uleb128 0x1
 9156 0396 13       		.uleb128 0x13
 9157 0397 00       		.byte	0
 9158 0398 00       		.byte	0
 9159 0399 46       		.uleb128 0x46
 9160 039a 1D       		.uleb128 0x1d
 9161 039b 01       		.byte	0x1
 9162 039c 31       		.uleb128 0x31
 9163 039d 13       		.uleb128 0x13
 9164 039e 11       		.uleb128 0x11
 9165 039f 01       		.uleb128 0x1
 9166 03a0 12       		.uleb128 0x12
 9167 03a1 01       		.uleb128 0x1
 9168 03a2 58       		.uleb128 0x58
 9169 03a3 0B       		.uleb128 0xb
 9170 03a4 59       		.uleb128 0x59
 9171 03a5 05       		.uleb128 0x5
 9172 03a6 00       		.byte	0
 9173 03a7 00       		.byte	0
 9174 03a8 47       		.uleb128 0x47
 9175 03a9 0B       		.uleb128 0xb
 9176 03aa 01       		.byte	0x1
 9177 03ab 11       		.uleb128 0x11
 9178 03ac 01       		.uleb128 0x1
 9179 03ad 12       		.uleb128 0x12
 9180 03ae 01       		.uleb128 0x1
 9181 03af 00       		.byte	0
 9182 03b0 00       		.byte	0
 9183 03b1 48       		.uleb128 0x48
 9184 03b2 0B       		.uleb128 0xb
 9185 03b3 01       		.byte	0x1
 9186 03b4 11       		.uleb128 0x11
 9187 03b5 01       		.uleb128 0x1
 9188 03b6 12       		.uleb128 0x12
 9189 03b7 01       		.uleb128 0x1
 9190 03b8 01       		.uleb128 0x1
 9191 03b9 13       		.uleb128 0x13
 9192 03ba 00       		.byte	0
 9193 03bb 00       		.byte	0
 9194 03bc 49       		.uleb128 0x49
 9195 03bd 898201   		.uleb128 0x4109
 9196 03c0 00       		.byte	0
 9197 03c1 11       		.uleb128 0x11
 9198 03c2 01       		.uleb128 0x1
 9199 03c3 31       		.uleb128 0x31
 9200 03c4 13       		.uleb128 0x13
 9201 03c5 00       		.byte	0
 9202 03c6 00       		.byte	0
 9203 03c7 4A       		.uleb128 0x4a
 9204 03c8 05       		.uleb128 0x5
ARM GAS  /tmp/ccx4dzgE.s 			page 163


 9205 03c9 00       		.byte	0
 9206 03ca 31       		.uleb128 0x31
 9207 03cb 13       		.uleb128 0x13
 9208 03cc 02       		.uleb128 0x2
 9209 03cd 0A       		.uleb128 0xa
 9210 03ce 00       		.byte	0
 9211 03cf 00       		.byte	0
 9212 03d0 4B       		.uleb128 0x4b
 9213 03d1 1D       		.uleb128 0x1d
 9214 03d2 01       		.byte	0x1
 9215 03d3 31       		.uleb128 0x31
 9216 03d4 13       		.uleb128 0x13
 9217 03d5 52       		.uleb128 0x52
 9218 03d6 01       		.uleb128 0x1
 9219 03d7 55       		.uleb128 0x55
 9220 03d8 06       		.uleb128 0x6
 9221 03d9 58       		.uleb128 0x58
 9222 03da 0B       		.uleb128 0xb
 9223 03db 59       		.uleb128 0x59
 9224 03dc 05       		.uleb128 0x5
 9225 03dd 00       		.byte	0
 9226 03de 00       		.byte	0
 9227 03df 4C       		.uleb128 0x4c
 9228 03e0 05       		.uleb128 0x5
 9229 03e1 00       		.byte	0
 9230 03e2 31       		.uleb128 0x31
 9231 03e3 13       		.uleb128 0x13
 9232 03e4 00       		.byte	0
 9233 03e5 00       		.byte	0
 9234 03e6 4D       		.uleb128 0x4d
 9235 03e7 898201   		.uleb128 0x4109
 9236 03ea 01       		.byte	0x1
 9237 03eb 11       		.uleb128 0x11
 9238 03ec 01       		.uleb128 0x1
 9239 03ed 31       		.uleb128 0x31
 9240 03ee 13       		.uleb128 0x13
 9241 03ef 00       		.byte	0
 9242 03f0 00       		.byte	0
 9243 03f1 4E       		.uleb128 0x4e
 9244 03f2 2E       		.uleb128 0x2e
 9245 03f3 01       		.byte	0x1
 9246 03f4 3F       		.uleb128 0x3f
 9247 03f5 0C       		.uleb128 0xc
 9248 03f6 03       		.uleb128 0x3
 9249 03f7 0E       		.uleb128 0xe
 9250 03f8 3A       		.uleb128 0x3a
 9251 03f9 0B       		.uleb128 0xb
 9252 03fa 3B       		.uleb128 0x3b
 9253 03fb 05       		.uleb128 0x5
 9254 03fc 27       		.uleb128 0x27
 9255 03fd 0C       		.uleb128 0xc
 9256 03fe 11       		.uleb128 0x11
 9257 03ff 01       		.uleb128 0x1
 9258 0400 12       		.uleb128 0x12
 9259 0401 01       		.uleb128 0x1
 9260 0402 40       		.uleb128 0x40
 9261 0403 06       		.uleb128 0x6
ARM GAS  /tmp/ccx4dzgE.s 			page 164


 9262 0404 9742     		.uleb128 0x2117
 9263 0406 0C       		.uleb128 0xc
 9264 0407 01       		.uleb128 0x1
 9265 0408 13       		.uleb128 0x13
 9266 0409 00       		.byte	0
 9267 040a 00       		.byte	0
 9268 040b 4F       		.uleb128 0x4f
 9269 040c 34       		.uleb128 0x34
 9270 040d 00       		.byte	0
 9271 040e 31       		.uleb128 0x31
 9272 040f 13       		.uleb128 0x13
 9273 0410 02       		.uleb128 0x2
 9274 0411 0A       		.uleb128 0xa
 9275 0412 00       		.byte	0
 9276 0413 00       		.byte	0
 9277 0414 50       		.uleb128 0x50
 9278 0415 898201   		.uleb128 0x4109
 9279 0418 01       		.byte	0x1
 9280 0419 11       		.uleb128 0x11
 9281 041a 01       		.uleb128 0x1
 9282 041b 31       		.uleb128 0x31
 9283 041c 13       		.uleb128 0x13
 9284 041d 01       		.uleb128 0x1
 9285 041e 13       		.uleb128 0x13
 9286 041f 00       		.byte	0
 9287 0420 00       		.byte	0
 9288 0421 51       		.uleb128 0x51
 9289 0422 898201   		.uleb128 0x4109
 9290 0425 00       		.byte	0
 9291 0426 11       		.uleb128 0x11
 9292 0427 01       		.uleb128 0x1
 9293 0428 9542     		.uleb128 0x2115
 9294 042a 0C       		.uleb128 0xc
 9295 042b 31       		.uleb128 0x31
 9296 042c 13       		.uleb128 0x13
 9297 042d 00       		.byte	0
 9298 042e 00       		.byte	0
 9299 042f 52       		.uleb128 0x52
 9300 0430 05       		.uleb128 0x5
 9301 0431 00       		.byte	0
 9302 0432 31       		.uleb128 0x31
 9303 0433 13       		.uleb128 0x13
 9304 0434 1C       		.uleb128 0x1c
 9305 0435 0B       		.uleb128 0xb
 9306 0436 00       		.byte	0
 9307 0437 00       		.byte	0
 9308 0438 53       		.uleb128 0x53
 9309 0439 2E       		.uleb128 0x2e
 9310 043a 01       		.byte	0x1
 9311 043b 3F       		.uleb128 0x3f
 9312 043c 0C       		.uleb128 0xc
 9313 043d 03       		.uleb128 0x3
 9314 043e 0E       		.uleb128 0xe
 9315 043f 3A       		.uleb128 0x3a
 9316 0440 0B       		.uleb128 0xb
 9317 0441 3B       		.uleb128 0x3b
 9318 0442 05       		.uleb128 0x5
ARM GAS  /tmp/ccx4dzgE.s 			page 165


 9319 0443 27       		.uleb128 0x27
 9320 0444 0C       		.uleb128 0xc
 9321 0445 11       		.uleb128 0x11
 9322 0446 01       		.uleb128 0x1
 9323 0447 12       		.uleb128 0x12
 9324 0448 01       		.uleb128 0x1
 9325 0449 40       		.uleb128 0x40
 9326 044a 0A       		.uleb128 0xa
 9327 044b 9742     		.uleb128 0x2117
 9328 044d 0C       		.uleb128 0xc
 9329 044e 01       		.uleb128 0x1
 9330 044f 13       		.uleb128 0x13
 9331 0450 00       		.byte	0
 9332 0451 00       		.byte	0
 9333 0452 54       		.uleb128 0x54
 9334 0453 2E       		.uleb128 0x2e
 9335 0454 01       		.byte	0x1
 9336 0455 3F       		.uleb128 0x3f
 9337 0456 0C       		.uleb128 0xc
 9338 0457 03       		.uleb128 0x3
 9339 0458 0E       		.uleb128 0xe
 9340 0459 3A       		.uleb128 0x3a
 9341 045a 0B       		.uleb128 0xb
 9342 045b 3B       		.uleb128 0x3b
 9343 045c 05       		.uleb128 0x5
 9344 045d 27       		.uleb128 0x27
 9345 045e 0C       		.uleb128 0xc
 9346 045f 49       		.uleb128 0x49
 9347 0460 13       		.uleb128 0x13
 9348 0461 11       		.uleb128 0x11
 9349 0462 01       		.uleb128 0x1
 9350 0463 12       		.uleb128 0x12
 9351 0464 01       		.uleb128 0x1
 9352 0465 40       		.uleb128 0x40
 9353 0466 0A       		.uleb128 0xa
 9354 0467 9742     		.uleb128 0x2117
 9355 0469 0C       		.uleb128 0xc
 9356 046a 01       		.uleb128 0x1
 9357 046b 13       		.uleb128 0x13
 9358 046c 00       		.byte	0
 9359 046d 00       		.byte	0
 9360 046e 55       		.uleb128 0x55
 9361 046f 34       		.uleb128 0x34
 9362 0470 00       		.byte	0
 9363 0471 03       		.uleb128 0x3
 9364 0472 08       		.uleb128 0x8
 9365 0473 3A       		.uleb128 0x3a
 9366 0474 0B       		.uleb128 0xb
 9367 0475 3B       		.uleb128 0x3b
 9368 0476 05       		.uleb128 0x5
 9369 0477 49       		.uleb128 0x49
 9370 0478 13       		.uleb128 0x13
 9371 0479 02       		.uleb128 0x2
 9372 047a 0A       		.uleb128 0xa
 9373 047b 00       		.byte	0
 9374 047c 00       		.byte	0
 9375 047d 56       		.uleb128 0x56
ARM GAS  /tmp/ccx4dzgE.s 			page 166


 9376 047e 05       		.uleb128 0x5
 9377 047f 00       		.byte	0
 9378 0480 03       		.uleb128 0x3
 9379 0481 08       		.uleb128 0x8
 9380 0482 3A       		.uleb128 0x3a
 9381 0483 0B       		.uleb128 0xb
 9382 0484 3B       		.uleb128 0x3b
 9383 0485 05       		.uleb128 0x5
 9384 0486 49       		.uleb128 0x49
 9385 0487 13       		.uleb128 0x13
 9386 0488 02       		.uleb128 0x2
 9387 0489 0A       		.uleb128 0xa
 9388 048a 00       		.byte	0
 9389 048b 00       		.byte	0
 9390 048c 57       		.uleb128 0x57
 9391 048d 34       		.uleb128 0x34
 9392 048e 00       		.byte	0
 9393 048f 03       		.uleb128 0x3
 9394 0490 0E       		.uleb128 0xe
 9395 0491 3A       		.uleb128 0x3a
 9396 0492 0B       		.uleb128 0xb
 9397 0493 3B       		.uleb128 0x3b
 9398 0494 0B       		.uleb128 0xb
 9399 0495 49       		.uleb128 0x49
 9400 0496 13       		.uleb128 0x13
 9401 0497 3F       		.uleb128 0x3f
 9402 0498 0C       		.uleb128 0xc
 9403 0499 3C       		.uleb128 0x3c
 9404 049a 0C       		.uleb128 0xc
 9405 049b 00       		.byte	0
 9406 049c 00       		.byte	0
 9407 049d 58       		.uleb128 0x58
 9408 049e 34       		.uleb128 0x34
 9409 049f 00       		.byte	0
 9410 04a0 03       		.uleb128 0x3
 9411 04a1 0E       		.uleb128 0xe
 9412 04a2 3A       		.uleb128 0x3a
 9413 04a3 0B       		.uleb128 0xb
 9414 04a4 3B       		.uleb128 0x3b
 9415 04a5 05       		.uleb128 0x5
 9416 04a6 49       		.uleb128 0x49
 9417 04a7 13       		.uleb128 0x13
 9418 04a8 3F       		.uleb128 0x3f
 9419 04a9 0C       		.uleb128 0xc
 9420 04aa 3C       		.uleb128 0x3c
 9421 04ab 0C       		.uleb128 0xc
 9422 04ac 00       		.byte	0
 9423 04ad 00       		.byte	0
 9424 04ae 59       		.uleb128 0x59
 9425 04af 34       		.uleb128 0x34
 9426 04b0 00       		.byte	0
 9427 04b1 03       		.uleb128 0x3
 9428 04b2 0E       		.uleb128 0xe
 9429 04b3 3A       		.uleb128 0x3a
 9430 04b4 0B       		.uleb128 0xb
 9431 04b5 3B       		.uleb128 0x3b
 9432 04b6 0B       		.uleb128 0xb
ARM GAS  /tmp/ccx4dzgE.s 			page 167


 9433 04b7 49       		.uleb128 0x49
 9434 04b8 13       		.uleb128 0x13
 9435 04b9 3F       		.uleb128 0x3f
 9436 04ba 0C       		.uleb128 0xc
 9437 04bb 02       		.uleb128 0x2
 9438 04bc 0A       		.uleb128 0xa
 9439 04bd 00       		.byte	0
 9440 04be 00       		.byte	0
 9441 04bf 5A       		.uleb128 0x5a
 9442 04c0 2E       		.uleb128 0x2e
 9443 04c1 01       		.byte	0x1
 9444 04c2 3F       		.uleb128 0x3f
 9445 04c3 0C       		.uleb128 0xc
 9446 04c4 03       		.uleb128 0x3
 9447 04c5 0E       		.uleb128 0xe
 9448 04c6 3A       		.uleb128 0x3a
 9449 04c7 0B       		.uleb128 0xb
 9450 04c8 3B       		.uleb128 0x3b
 9451 04c9 0B       		.uleb128 0xb
 9452 04ca 27       		.uleb128 0x27
 9453 04cb 0C       		.uleb128 0xc
 9454 04cc 3C       		.uleb128 0x3c
 9455 04cd 0C       		.uleb128 0xc
 9456 04ce 01       		.uleb128 0x1
 9457 04cf 13       		.uleb128 0x13
 9458 04d0 00       		.byte	0
 9459 04d1 00       		.byte	0
 9460 04d2 5B       		.uleb128 0x5b
 9461 04d3 2E       		.uleb128 0x2e
 9462 04d4 01       		.byte	0x1
 9463 04d5 3F       		.uleb128 0x3f
 9464 04d6 0C       		.uleb128 0xc
 9465 04d7 03       		.uleb128 0x3
 9466 04d8 0E       		.uleb128 0xe
 9467 04d9 3A       		.uleb128 0x3a
 9468 04da 0B       		.uleb128 0xb
 9469 04db 3B       		.uleb128 0x3b
 9470 04dc 0B       		.uleb128 0xb
 9471 04dd 27       		.uleb128 0x27
 9472 04de 0C       		.uleb128 0xc
 9473 04df 49       		.uleb128 0x49
 9474 04e0 13       		.uleb128 0x13
 9475 04e1 3C       		.uleb128 0x3c
 9476 04e2 0C       		.uleb128 0xc
 9477 04e3 01       		.uleb128 0x1
 9478 04e4 13       		.uleb128 0x13
 9479 04e5 00       		.byte	0
 9480 04e6 00       		.byte	0
 9481 04e7 5C       		.uleb128 0x5c
 9482 04e8 2E       		.uleb128 0x2e
 9483 04e9 00       		.byte	0
 9484 04ea 3F       		.uleb128 0x3f
 9485 04eb 0C       		.uleb128 0xc
 9486 04ec 03       		.uleb128 0x3
 9487 04ed 0E       		.uleb128 0xe
 9488 04ee 3A       		.uleb128 0x3a
 9489 04ef 0B       		.uleb128 0xb
ARM GAS  /tmp/ccx4dzgE.s 			page 168


 9490 04f0 3B       		.uleb128 0x3b
 9491 04f1 0B       		.uleb128 0xb
 9492 04f2 27       		.uleb128 0x27
 9493 04f3 0C       		.uleb128 0xc
 9494 04f4 3C       		.uleb128 0x3c
 9495 04f5 0C       		.uleb128 0xc
 9496 04f6 00       		.byte	0
 9497 04f7 00       		.byte	0
 9498 04f8 5D       		.uleb128 0x5d
 9499 04f9 2E       		.uleb128 0x2e
 9500 04fa 01       		.byte	0x1
 9501 04fb 3F       		.uleb128 0x3f
 9502 04fc 0C       		.uleb128 0xc
 9503 04fd 03       		.uleb128 0x3
 9504 04fe 0E       		.uleb128 0xe
 9505 04ff 3A       		.uleb128 0x3a
 9506 0500 0B       		.uleb128 0xb
 9507 0501 3B       		.uleb128 0x3b
 9508 0502 05       		.uleb128 0x5
 9509 0503 27       		.uleb128 0x27
 9510 0504 0C       		.uleb128 0xc
 9511 0505 3C       		.uleb128 0x3c
 9512 0506 0C       		.uleb128 0xc
 9513 0507 01       		.uleb128 0x1
 9514 0508 13       		.uleb128 0x13
 9515 0509 00       		.byte	0
 9516 050a 00       		.byte	0
 9517 050b 5E       		.uleb128 0x5e
 9518 050c 2E       		.uleb128 0x2e
 9519 050d 00       		.byte	0
 9520 050e 3F       		.uleb128 0x3f
 9521 050f 0C       		.uleb128 0xc
 9522 0510 03       		.uleb128 0x3
 9523 0511 0E       		.uleb128 0xe
 9524 0512 3A       		.uleb128 0x3a
 9525 0513 0B       		.uleb128 0xb
 9526 0514 3B       		.uleb128 0x3b
 9527 0515 05       		.uleb128 0x5
 9528 0516 27       		.uleb128 0x27
 9529 0517 0C       		.uleb128 0xc
 9530 0518 3C       		.uleb128 0x3c
 9531 0519 0C       		.uleb128 0xc
 9532 051a 00       		.byte	0
 9533 051b 00       		.byte	0
 9534 051c 5F       		.uleb128 0x5f
 9535 051d 2E       		.uleb128 0x2e
 9536 051e 01       		.byte	0x1
 9537 051f 3F       		.uleb128 0x3f
 9538 0520 0C       		.uleb128 0xc
 9539 0521 03       		.uleb128 0x3
 9540 0522 0E       		.uleb128 0xe
 9541 0523 3A       		.uleb128 0x3a
 9542 0524 0B       		.uleb128 0xb
 9543 0525 3B       		.uleb128 0x3b
 9544 0526 05       		.uleb128 0x5
 9545 0527 27       		.uleb128 0x27
 9546 0528 0C       		.uleb128 0xc
ARM GAS  /tmp/ccx4dzgE.s 			page 169


 9547 0529 49       		.uleb128 0x49
 9548 052a 13       		.uleb128 0x13
 9549 052b 3C       		.uleb128 0x3c
 9550 052c 0C       		.uleb128 0xc
 9551 052d 01       		.uleb128 0x1
 9552 052e 13       		.uleb128 0x13
 9553 052f 00       		.byte	0
 9554 0530 00       		.byte	0
 9555 0531 60       		.uleb128 0x60
 9556 0532 2E       		.uleb128 0x2e
 9557 0533 01       		.byte	0x1
 9558 0534 3F       		.uleb128 0x3f
 9559 0535 0C       		.uleb128 0xc
 9560 0536 03       		.uleb128 0x3
 9561 0537 0E       		.uleb128 0xe
 9562 0538 3A       		.uleb128 0x3a
 9563 0539 0B       		.uleb128 0xb
 9564 053a 3B       		.uleb128 0x3b
 9565 053b 05       		.uleb128 0x5
 9566 053c 27       		.uleb128 0x27
 9567 053d 0C       		.uleb128 0xc
 9568 053e 3C       		.uleb128 0x3c
 9569 053f 0C       		.uleb128 0xc
 9570 0540 00       		.byte	0
 9571 0541 00       		.byte	0
 9572 0542 00       		.byte	0
 9573              		.section	.debug_loc,"",%progbits
 9574              	.Ldebug_loc0:
 9575              	.LLST0:
 9576 0000 00000000 		.4byte	.LFB120
 9577 0004 0A000000 		.4byte	.LCFI0
 9578 0008 0200     		.2byte	0x2
 9579 000a 7D       		.byte	0x7d
 9580 000b 00       		.sleb128 0
 9581 000c 0A000000 		.4byte	.LCFI0
 9582 0010 82000000 		.4byte	.LFE120
 9583 0014 0200     		.2byte	0x2
 9584 0016 7D       		.byte	0x7d
 9585 0017 14       		.sleb128 20
 9586 0018 00000000 		.4byte	0
 9587 001c 00000000 		.4byte	0
 9588              	.LLST1:
 9589 0020 00000000 		.4byte	.LVL0
 9590 0024 0C000000 		.4byte	.LVL2
 9591 0028 0100     		.2byte	0x1
 9592 002a 50       		.byte	0x50
 9593 002b 0C000000 		.4byte	.LVL2
 9594 002f 82000000 		.4byte	.LFE120
 9595 0033 0400     		.2byte	0x4
 9596 0035 F3       		.byte	0xf3
 9597 0036 01       		.uleb128 0x1
 9598 0037 50       		.byte	0x50
 9599 0038 9F       		.byte	0x9f
 9600 0039 00000000 		.4byte	0
 9601 003d 00000000 		.4byte	0
 9602              	.LLST2:
 9603 0041 04000000 		.4byte	.LVL1
ARM GAS  /tmp/ccx4dzgE.s 			page 170


 9604 0045 18000000 		.4byte	.LVL3
 9605 0049 0200     		.2byte	0x2
 9606 004b 30       		.byte	0x30
 9607 004c 9F       		.byte	0x9f
 9608 004d 3C000000 		.4byte	.LVL4
 9609 0051 48000000 		.4byte	.LVL5
 9610 0055 0100     		.2byte	0x1
 9611 0057 52       		.byte	0x52
 9612 0058 74000000 		.4byte	.LVL6
 9613 005c 82000000 		.4byte	.LFE120
 9614 0060 0100     		.2byte	0x1
 9615 0062 52       		.byte	0x52
 9616 0063 00000000 		.4byte	0
 9617 0067 00000000 		.4byte	0
 9618              	.LLST3:
 9619 006b 00000000 		.4byte	.LFB134
 9620 006f 02000000 		.4byte	.LCFI1
 9621 0073 0200     		.2byte	0x2
 9622 0075 7D       		.byte	0x7d
 9623 0076 00       		.sleb128 0
 9624 0077 02000000 		.4byte	.LCFI1
 9625 007b 5C000000 		.4byte	.LFE134
 9626 007f 0200     		.2byte	0x2
 9627 0081 7D       		.byte	0x7d
 9628 0082 18       		.sleb128 24
 9629 0083 00000000 		.4byte	0
 9630 0087 00000000 		.4byte	0
 9631              	.LLST4:
 9632 008b 00000000 		.4byte	.LVL7
 9633 008f 24000000 		.4byte	.LVL10
 9634 0093 0100     		.2byte	0x1
 9635 0095 50       		.byte	0x50
 9636 0096 24000000 		.4byte	.LVL10
 9637 009a 50000000 		.4byte	.LVL12
 9638 009e 0100     		.2byte	0x1
 9639 00a0 55       		.byte	0x55
 9640 00a1 50000000 		.4byte	.LVL12
 9641 00a5 59000000 		.4byte	.LVL13-1
 9642 00a9 0100     		.2byte	0x1
 9643 00ab 50       		.byte	0x50
 9644 00ac 59000000 		.4byte	.LVL13-1
 9645 00b0 5C000000 		.4byte	.LFE134
 9646 00b4 0100     		.2byte	0x1
 9647 00b6 55       		.byte	0x55
 9648 00b7 00000000 		.4byte	0
 9649 00bb 00000000 		.4byte	0
 9650              	.LLST5:
 9651 00bf 00000000 		.4byte	.LVL7
 9652 00c3 24000000 		.4byte	.LVL10
 9653 00c7 0100     		.2byte	0x1
 9654 00c9 51       		.byte	0x51
 9655 00ca 24000000 		.4byte	.LVL10
 9656 00ce 50000000 		.4byte	.LVL12
 9657 00d2 0400     		.2byte	0x4
 9658 00d4 F3       		.byte	0xf3
 9659 00d5 01       		.uleb128 0x1
 9660 00d6 51       		.byte	0x51
ARM GAS  /tmp/ccx4dzgE.s 			page 171


 9661 00d7 9F       		.byte	0x9f
 9662 00d8 50000000 		.4byte	.LVL12
 9663 00dc 59000000 		.4byte	.LVL13-1
 9664 00e0 0100     		.2byte	0x1
 9665 00e2 51       		.byte	0x51
 9666 00e3 59000000 		.4byte	.LVL13-1
 9667 00e7 5C000000 		.4byte	.LFE134
 9668 00eb 0400     		.2byte	0x4
 9669 00ed F3       		.byte	0xf3
 9670 00ee 01       		.uleb128 0x1
 9671 00ef 51       		.byte	0x51
 9672 00f0 9F       		.byte	0x9f
 9673 00f1 00000000 		.4byte	0
 9674 00f5 00000000 		.4byte	0
 9675              	.LLST6:
 9676 00f9 00000000 		.4byte	.LVL14
 9677 00fd 0A000000 		.4byte	.LVL17
 9678 0101 0100     		.2byte	0x1
 9679 0103 50       		.byte	0x50
 9680 0104 0A000000 		.4byte	.LVL17
 9681 0108 16000000 		.4byte	.LFE122
 9682 010c 0400     		.2byte	0x4
 9683 010e F3       		.byte	0xf3
 9684 010f 01       		.uleb128 0x1
 9685 0110 50       		.byte	0x50
 9686 0111 9F       		.byte	0x9f
 9687 0112 00000000 		.4byte	0
 9688 0116 00000000 		.4byte	0
 9689              	.LLST7:
 9690 011a 00000000 		.4byte	.LVL14
 9691 011e 04000000 		.4byte	.LVL16
 9692 0122 0100     		.2byte	0x1
 9693 0124 51       		.byte	0x51
 9694 0125 04000000 		.4byte	.LVL16
 9695 0129 16000000 		.4byte	.LFE122
 9696 012d 0400     		.2byte	0x4
 9697 012f F3       		.byte	0xf3
 9698 0130 01       		.uleb128 0x1
 9699 0131 51       		.byte	0x51
 9700 0132 9F       		.byte	0x9f
 9701 0133 00000000 		.4byte	0
 9702 0137 00000000 		.4byte	0
 9703              	.LLST8:
 9704 013b 02000000 		.4byte	.LVL15
 9705 013f 15000000 		.4byte	.LVL18-1
 9706 0143 0100     		.2byte	0x1
 9707 0145 52       		.byte	0x52
 9708 0146 00000000 		.4byte	0
 9709 014a 00000000 		.4byte	0
 9710              	.LLST9:
 9711 014e 00000000 		.4byte	.LFB136
 9712 0152 04000000 		.4byte	.LCFI2
 9713 0156 0200     		.2byte	0x2
 9714 0158 7D       		.byte	0x7d
 9715 0159 00       		.sleb128 0
 9716 015a 04000000 		.4byte	.LCFI2
 9717 015e 18000000 		.4byte	.LCFI3
ARM GAS  /tmp/ccx4dzgE.s 			page 172


 9718 0162 0200     		.2byte	0x2
 9719 0164 7D       		.byte	0x7d
 9720 0165 24       		.sleb128 36
 9721 0166 18000000 		.4byte	.LCFI3
 9722 016a 96040000 		.4byte	.LFE136
 9723 016e 0300     		.2byte	0x3
 9724 0170 7D       		.byte	0x7d
 9725 0171 C000     		.sleb128 64
 9726 0173 00000000 		.4byte	0
 9727 0177 00000000 		.4byte	0
 9728              	.LLST10:
 9729 017b 00000000 		.4byte	.LVL19
 9730 017f 16000000 		.4byte	.LVL21
 9731 0183 0100     		.2byte	0x1
 9732 0185 50       		.byte	0x50
 9733 0186 16000000 		.4byte	.LVL21
 9734 018a 96040000 		.4byte	.LFE136
 9735 018e 0100     		.2byte	0x1
 9736 0190 5B       		.byte	0x5b
 9737 0191 00000000 		.4byte	0
 9738 0195 00000000 		.4byte	0
 9739              	.LLST11:
 9740 0199 14000000 		.4byte	.LVL20
 9741 019d 16000000 		.4byte	.LVL21
 9742 01a1 0100     		.2byte	0x1
 9743 01a3 50       		.byte	0x50
 9744 01a4 16000000 		.4byte	.LVL21
 9745 01a8 96040000 		.4byte	.LFE136
 9746 01ac 0100     		.2byte	0x1
 9747 01ae 5B       		.byte	0x5b
 9748 01af 00000000 		.4byte	0
 9749 01b3 00000000 		.4byte	0
 9750              	.LLST12:
 9751 01b7 20000000 		.4byte	.LVL23
 9752 01bb 28000000 		.4byte	.LVL25
 9753 01bf 0100     		.2byte	0x1
 9754 01c1 53       		.byte	0x53
 9755 01c2 00000000 		.4byte	0
 9756 01c6 00000000 		.4byte	0
 9757              	.LLST13:
 9758 01ca 60000000 		.4byte	.LVL28
 9759 01ce 62000000 		.4byte	.LVL29
 9760 01d2 0200     		.2byte	0x2
 9761 01d4 30       		.byte	0x30
 9762 01d5 9F       		.byte	0x9f
 9763 01d6 00010000 		.4byte	.LVL56
 9764 01da 06010000 		.4byte	.LVL57
 9765 01de 0100     		.2byte	0x1
 9766 01e0 53       		.byte	0x53
 9767 01e1 06010000 		.4byte	.LVL57
 9768 01e5 0C010000 		.4byte	.LVL59
 9769 01e9 0100     		.2byte	0x1
 9770 01eb 54       		.byte	0x54
 9771 01ec 00000000 		.4byte	0
 9772 01f0 00000000 		.4byte	0
 9773              	.LLST14:
 9774 01f4 EE000000 		.4byte	.LVL53
ARM GAS  /tmp/ccx4dzgE.s 			page 173


 9775 01f8 F6000000 		.4byte	.LVL54
 9776 01fc 0100     		.2byte	0x1
 9777 01fe 55       		.byte	0x55
 9778 01ff F6000000 		.4byte	.LVL54
 9779 0203 0C010000 		.4byte	.LVL59
 9780 0207 0200     		.2byte	0x2
 9781 0209 91       		.byte	0x91
 9782 020a 50       		.sleb128 -48
 9783 020b 60020000 		.4byte	.LVL106
 9784 020f 78020000 		.4byte	.LVL109
 9785 0213 0100     		.2byte	0x1
 9786 0215 55       		.byte	0x55
 9787 0216 78020000 		.4byte	.LVL109
 9788 021a 96040000 		.4byte	.LFE136
 9789 021e 0200     		.2byte	0x2
 9790 0220 91       		.byte	0x91
 9791 0221 50       		.sleb128 -48
 9792 0222 00000000 		.4byte	0
 9793 0226 00000000 		.4byte	0
 9794              	.LLST15:
 9795 022a 24000000 		.4byte	.LVL24
 9796 022e 5C000000 		.4byte	.LVL27
 9797 0232 0100     		.2byte	0x1
 9798 0234 58       		.byte	0x58
 9799 0235 60000000 		.4byte	.LVL28
 9800 0239 62000000 		.4byte	.LVL29
 9801 023d 0100     		.2byte	0x1
 9802 023f 53       		.byte	0x53
 9803 0240 62000000 		.4byte	.LVL29
 9804 0244 96040000 		.4byte	.LFE136
 9805 0248 0100     		.2byte	0x1
 9806 024a 58       		.byte	0x58
 9807 024b 00000000 		.4byte	0
 9808 024f 00000000 		.4byte	0
 9809              	.LLST16:
 9810 0253 6C000000 		.4byte	.LVL30
 9811 0257 E2000000 		.4byte	.LVL51
 9812 025b 0100     		.2byte	0x1
 9813 025d 5B       		.byte	0x5b
 9814 025e 0C010000 		.4byte	.LVL59
 9815 0262 60020000 		.4byte	.LVL106
 9816 0266 0100     		.2byte	0x1
 9817 0268 5B       		.byte	0x5b
 9818 0269 00000000 		.4byte	0
 9819 026d 00000000 		.4byte	0
 9820              	.LLST17:
 9821 0271 72000000 		.4byte	.LVL31
 9822 0275 92000000 		.4byte	.LVL35
 9823 0279 0100     		.2byte	0x1
 9824 027b 51       		.byte	0x51
 9825 027c 0C010000 		.4byte	.LVL59
 9826 0280 1E010000 		.4byte	.LVL61
 9827 0284 0100     		.2byte	0x1
 9828 0286 51       		.byte	0x51
 9829 0287 00000000 		.4byte	0
 9830 028b 00000000 		.4byte	0
 9831              	.LLST18:
ARM GAS  /tmp/ccx4dzgE.s 			page 174


 9832 028f 82000000 		.4byte	.LVL32
 9833 0293 92000000 		.4byte	.LVL35
 9834 0297 0900     		.2byte	0x9
 9835 0299 71       		.byte	0x71
 9836 029a 00       		.sleb128 0
 9837 029b 0A       		.byte	0xa
 9838 029c F07F     		.2byte	0x7ff0
 9839 029e 1A       		.byte	0x1a
 9840 029f 34       		.byte	0x34
 9841 02a0 25       		.byte	0x25
 9842 02a1 9F       		.byte	0x9f
 9843 02a2 1A010000 		.4byte	.LVL60
 9844 02a6 98010000 		.4byte	.LVL83
 9845 02aa 0100     		.2byte	0x1
 9846 02ac 56       		.byte	0x56
 9847 02ad 9C010000 		.4byte	.LVL84
 9848 02b1 60020000 		.4byte	.LVL106
 9849 02b5 0100     		.2byte	0x1
 9850 02b7 56       		.byte	0x56
 9851 02b8 00000000 		.4byte	0
 9852 02bc 00000000 		.4byte	0
 9853              	.LLST19:
 9854 02c0 82000000 		.4byte	.LVL32
 9855 02c4 86000000 		.4byte	.LVL33
 9856 02c8 0500     		.2byte	0x5
 9857 02ca 71       		.byte	0x71
 9858 02cb 00       		.sleb128 0
 9859 02cc 3F       		.byte	0x3f
 9860 02cd 1A       		.byte	0x1a
 9861 02ce 9F       		.byte	0x9f
 9862 02cf 86000000 		.4byte	.LVL33
 9863 02d3 96000000 		.4byte	.LVL36
 9864 02d7 0100     		.2byte	0x1
 9865 02d9 57       		.byte	0x57
 9866 02da 1A010000 		.4byte	.LVL60
 9867 02de 90010000 		.4byte	.LVL82
 9868 02e2 0300     		.2byte	0x3
 9869 02e4 77       		.byte	0x77
 9870 02e5 7E       		.sleb128 -2
 9871 02e6 9F       		.byte	0x9f
 9872 02e7 9C010000 		.4byte	.LVL84
 9873 02eb 60020000 		.4byte	.LVL106
 9874 02ef 0300     		.2byte	0x3
 9875 02f1 77       		.byte	0x77
 9876 02f2 7E       		.sleb128 -2
 9877 02f3 9F       		.byte	0x9f
 9878 02f4 00000000 		.4byte	0
 9879 02f8 00000000 		.4byte	0
 9880              	.LLST20:
 9881 02fc 96000000 		.4byte	.LVL36
 9882 0300 AC000000 		.4byte	.LVL40
 9883 0304 0200     		.2byte	0x2
 9884 0306 32       		.byte	0x32
 9885 0307 9F       		.byte	0x9f
 9886 0308 AC000000 		.4byte	.LVL40
 9887 030c B6000000 		.4byte	.LVL42
 9888 0310 0100     		.2byte	0x1
ARM GAS  /tmp/ccx4dzgE.s 			page 175


 9889 0312 53       		.byte	0x53
 9890 0313 B6000000 		.4byte	.LVL42
 9891 0317 BC000000 		.4byte	.LVL44
 9892 031b 0200     		.2byte	0x2
 9893 031d 31       		.byte	0x31
 9894 031e 9F       		.byte	0x9f
 9895 031f BC000000 		.4byte	.LVL44
 9896 0323 E2000000 		.4byte	.LVL51
 9897 0327 0100     		.2byte	0x1
 9898 0329 53       		.byte	0x53
 9899 032a 00000000 		.4byte	0
 9900 032e 00000000 		.4byte	0
 9901              	.LLST21:
 9902 0332 96000000 		.4byte	.LVL36
 9903 0336 B4000000 		.4byte	.LVL41
 9904 033a 0100     		.2byte	0x1
 9905 033c 55       		.byte	0x55
 9906 033d B4000000 		.4byte	.LVL41
 9907 0341 B8000000 		.4byte	.LVL43
 9908 0345 0300     		.2byte	0x3
 9909 0347 71       		.byte	0x71
 9910 0348 01       		.sleb128 1
 9911 0349 9F       		.byte	0x9f
 9912 034a B8000000 		.4byte	.LVL43
 9913 034e BC000000 		.4byte	.LVL44
 9914 0352 0300     		.2byte	0x3
 9915 0354 72       		.byte	0x72
 9916 0355 01       		.sleb128 1
 9917 0356 9F       		.byte	0x9f
 9918 0357 00000000 		.4byte	0
 9919 035b 00000000 		.4byte	0
 9920              	.LLST22:
 9921 035f 96000000 		.4byte	.LVL36
 9922 0363 E0000000 		.4byte	.LVL50
 9923 0367 0100     		.2byte	0x1
 9924 0369 57       		.byte	0x57
 9925 036a 00000000 		.4byte	0
 9926 036e 00000000 		.4byte	0
 9927              	.LLST23:
 9928 0372 96000000 		.4byte	.LVL36
 9929 0376 9C000000 		.4byte	.LVL37
 9930 037a 0400     		.2byte	0x4
 9931 037c 70       		.byte	0x70
 9932 037d 8020     		.sleb128 4096
 9933 037f 9F       		.byte	0x9f
 9934 0380 9C000000 		.4byte	.LVL37
 9935 0384 DC000000 		.4byte	.LVL49
 9936 0388 0100     		.2byte	0x1
 9937 038a 50       		.byte	0x50
 9938 038b DC000000 		.4byte	.LVL49
 9939 038f E2000000 		.4byte	.LVL51
 9940 0393 0800     		.2byte	0x8
 9941 0395 7B       		.byte	0x7b
 9942 0396 D000     		.sleb128 80
 9943 0398 06       		.byte	0x6
 9944 0399 23       		.byte	0x23
 9945 039a 8020     		.uleb128 0x1000
ARM GAS  /tmp/ccx4dzgE.s 			page 176


 9946 039c 9F       		.byte	0x9f
 9947 039d 00000000 		.4byte	0
 9948 03a1 00000000 		.4byte	0
 9949              	.LLST24:
 9950 03a5 A0000000 		.4byte	.LVL38
 9951 03a9 AC000000 		.4byte	.LVL40
 9952 03ad 0100     		.2byte	0x1
 9953 03af 53       		.byte	0x53
 9954 03b0 AC000000 		.4byte	.LVL40
 9955 03b4 B4000000 		.4byte	.LVL41
 9956 03b8 0200     		.2byte	0x2
 9957 03ba 77       		.byte	0x77
 9958 03bb 7C       		.sleb128 -4
 9959 03bc 00000000 		.4byte	0
 9960 03c0 00000000 		.4byte	0
 9961              	.LLST25:
 9962 03c4 28010000 		.4byte	.LVL63
 9963 03c8 2A010000 		.4byte	.LVL64
 9964 03cc 0700     		.2byte	0x7
 9965 03ce 72       		.byte	0x72
 9966 03cf 00       		.sleb128 0
 9967 03d0 71       		.byte	0x71
 9968 03d1 08       		.sleb128 8
 9969 03d2 06       		.byte	0x6
 9970 03d3 1C       		.byte	0x1c
 9971 03d4 9F       		.byte	0x9f
 9972 03d5 2A010000 		.4byte	.LVL64
 9973 03d9 30010000 		.4byte	.LVL66
 9974 03dd 0800     		.2byte	0x8
 9975 03df 71       		.byte	0x71
 9976 03e0 04       		.sleb128 4
 9977 03e1 06       		.byte	0x6
 9978 03e2 71       		.byte	0x71
 9979 03e3 08       		.sleb128 8
 9980 03e4 06       		.byte	0x6
 9981 03e5 1C       		.byte	0x1c
 9982 03e6 9F       		.byte	0x9f
 9983 03e7 30010000 		.4byte	.LVL66
 9984 03eb 4C010000 		.4byte	.LVL70
 9985 03ef 0100     		.2byte	0x1
 9986 03f1 53       		.byte	0x53
 9987 03f2 4C010000 		.4byte	.LVL70
 9988 03f6 50010000 		.4byte	.LVL71
 9989 03fa 0300     		.2byte	0x3
 9990 03fc 73       		.byte	0x73
 9991 03fd 01       		.sleb128 1
 9992 03fe 9F       		.byte	0x9f
 9993 03ff 50010000 		.4byte	.LVL71
 9994 0403 8C010000 		.4byte	.LVL81
 9995 0407 0100     		.2byte	0x1
 9996 0409 53       		.byte	0x53
 9997 040a 00000000 		.4byte	0
 9998 040e 00000000 		.4byte	0
 9999              	.LLST26:
 10000 0412 28010000 		.4byte	.LVL63
 10001 0416 2E010000 		.4byte	.LVL65
 10002 041a 0100     		.2byte	0x1
ARM GAS  /tmp/ccx4dzgE.s 			page 177


 10003 041c 56       		.byte	0x56
 10004 041d 2E010000 		.4byte	.LVL65
 10005 0421 32010000 		.4byte	.LVL67
 10006 0425 0500     		.2byte	0x5
 10007 0427 72       		.byte	0x72
 10008 0428 00       		.sleb128 0
 10009 0429 32       		.byte	0x32
 10010 042a 25       		.byte	0x25
 10011 042b 9F       		.byte	0x9f
 10012 042c 32010000 		.4byte	.LVL67
 10013 0430 52010000 		.4byte	.LVL72
 10014 0434 0100     		.2byte	0x1
 10015 0436 52       		.byte	0x52
 10016 0437 52010000 		.4byte	.LVL72
 10017 043b 66010000 		.4byte	.LVL75
 10018 043f 0500     		.2byte	0x5
 10019 0441 76       		.byte	0x76
 10020 0442 03       		.sleb128 3
 10021 0443 32       		.byte	0x32
 10022 0444 25       		.byte	0x25
 10023 0445 9F       		.byte	0x9f
 10024 0446 00000000 		.4byte	0
 10025 044a 00000000 		.4byte	0
 10026              	.LLST27:
 10027 044e 28010000 		.4byte	.LVL63
 10028 0452 50010000 		.4byte	.LVL71
 10029 0456 0100     		.2byte	0x1
 10030 0458 55       		.byte	0x55
 10031 0459 50010000 		.4byte	.LVL71
 10032 045d 88010000 		.4byte	.LVL80
 10033 0461 0100     		.2byte	0x1
 10034 0463 5E       		.byte	0x5e
 10035 0464 00000000 		.4byte	0
 10036 0468 00000000 		.4byte	0
 10037              	.LLST28:
 10038 046c 28010000 		.4byte	.LVL63
 10039 0470 38010000 		.4byte	.LVL68
 10040 0474 0400     		.2byte	0x4
 10041 0476 70       		.byte	0x70
 10042 0477 8020     		.sleb128 4096
 10043 0479 9F       		.byte	0x9f
 10044 047a 38010000 		.4byte	.LVL68
 10045 047e 88010000 		.4byte	.LVL80
 10046 0482 0100     		.2byte	0x1
 10047 0484 50       		.byte	0x50
 10048 0485 88010000 		.4byte	.LVL80
 10049 0489 8C010000 		.4byte	.LVL81
 10050 048d 0800     		.2byte	0x8
 10051 048f 7B       		.byte	0x7b
 10052 0490 D000     		.sleb128 80
 10053 0492 06       		.byte	0x6
 10054 0493 23       		.byte	0x23
 10055 0494 8020     		.uleb128 0x1000
 10056 0496 9F       		.byte	0x9f
 10057 0497 00000000 		.4byte	0
 10058 049b 00000000 		.4byte	0
 10059              	.LLST29:
ARM GAS  /tmp/ccx4dzgE.s 			page 178


 10060 049f 46010000 		.4byte	.LVL69
 10061 04a3 5E010000 		.4byte	.LVL73
 10062 04a7 0100     		.2byte	0x1
 10063 04a9 59       		.byte	0x59
 10064 04aa 00000000 		.4byte	0
 10065 04ae 00000000 		.4byte	0
 10066              	.LLST30:
 10067 04b2 A2010000 		.4byte	.LVL85
 10068 04b6 60020000 		.4byte	.LVL106
 10069 04ba 0100     		.2byte	0x1
 10070 04bc 56       		.byte	0x56
 10071 04bd 00000000 		.4byte	0
 10072 04c1 00000000 		.4byte	0
 10073              	.LLST31:
 10074 04c5 A2010000 		.4byte	.LVL85
 10075 04c9 60020000 		.4byte	.LVL106
 10076 04cd 0100     		.2byte	0x1
 10077 04cf 55       		.byte	0x55
 10078 04d0 00000000 		.4byte	0
 10079 04d4 00000000 		.4byte	0
 10080              	.LLST32:
 10081 04d8 A2010000 		.4byte	.LVL85
 10082 04dc 32020000 		.4byte	.LVL99
 10083 04e0 0100     		.2byte	0x1
 10084 04e2 50       		.byte	0x50
 10085 04e3 32020000 		.4byte	.LVL99
 10086 04e7 3A020000 		.4byte	.LVL100
 10087 04eb 0800     		.2byte	0x8
 10088 04ed 7B       		.byte	0x7b
 10089 04ee D000     		.sleb128 80
 10090 04f0 06       		.byte	0x6
 10091 04f1 23       		.byte	0x23
 10092 04f2 8020     		.uleb128 0x1000
 10093 04f4 9F       		.byte	0x9f
 10094 04f5 00000000 		.4byte	0
 10095 04f9 00000000 		.4byte	0
 10096              	.LLST33:
 10097 04fd A2010000 		.4byte	.LVL85
 10098 0501 AA010000 		.4byte	.LVL86
 10099 0505 0100     		.2byte	0x1
 10100 0507 56       		.byte	0x56
 10101 0508 AA010000 		.4byte	.LVL86
 10102 050c C2010000 		.4byte	.LVL90
 10103 0510 0100     		.2byte	0x1
 10104 0512 53       		.byte	0x53
 10105 0513 C2010000 		.4byte	.LVL90
 10106 0517 D6010000 		.4byte	.LVL91
 10107 051b 0300     		.2byte	0x3
 10108 051d 73       		.byte	0x73
 10109 051e 7F       		.sleb128 -1
 10110 051f 9F       		.byte	0x9f
 10111 0520 D6010000 		.4byte	.LVL91
 10112 0524 F2010000 		.4byte	.LVL92
 10113 0528 0300     		.2byte	0x3
 10114 052a 73       		.byte	0x73
 10115 052b 7E       		.sleb128 -2
 10116 052c 9F       		.byte	0x9f
ARM GAS  /tmp/ccx4dzgE.s 			page 179


 10117 052d F2010000 		.4byte	.LVL92
 10118 0531 0E020000 		.4byte	.LVL93
 10119 0535 0300     		.2byte	0x3
 10120 0537 73       		.byte	0x73
 10121 0538 7D       		.sleb128 -3
 10122 0539 9F       		.byte	0x9f
 10123 053a 0E020000 		.4byte	.LVL93
 10124 053e 24020000 		.4byte	.LVL95
 10125 0542 0300     		.2byte	0x3
 10126 0544 73       		.byte	0x73
 10127 0545 7C       		.sleb128 -4
 10128 0546 9F       		.byte	0x9f
 10129 0547 24020000 		.4byte	.LVL95
 10130 054b 26020000 		.4byte	.LVL96
 10131 054f 0100     		.2byte	0x1
 10132 0551 53       		.byte	0x53
 10133 0552 00000000 		.4byte	0
 10134 0556 00000000 		.4byte	0
 10135              	.LLST34:
 10136 055a C2010000 		.4byte	.LVL90
 10137 055e 12020000 		.4byte	.LVL94
 10138 0562 0100     		.2byte	0x1
 10139 0564 52       		.byte	0x52
 10140 0565 00000000 		.4byte	0
 10141 0569 00000000 		.4byte	0
 10142              	.LLST35:
 10143 056d C2010000 		.4byte	.LVL90
 10144 0571 D6010000 		.4byte	.LVL91
 10145 0575 0200     		.2byte	0x2
 10146 0577 31       		.byte	0x31
 10147 0578 9F       		.byte	0x9f
 10148 0579 D6010000 		.4byte	.LVL91
 10149 057d F2010000 		.4byte	.LVL92
 10150 0581 0200     		.2byte	0x2
 10151 0583 32       		.byte	0x32
 10152 0584 9F       		.byte	0x9f
 10153 0585 F2010000 		.4byte	.LVL92
 10154 0589 0E020000 		.4byte	.LVL93
 10155 058d 0200     		.2byte	0x2
 10156 058f 33       		.byte	0x33
 10157 0590 9F       		.byte	0x9f
 10158 0591 0E020000 		.4byte	.LVL93
 10159 0595 26020000 		.4byte	.LVL96
 10160 0599 0200     		.2byte	0x2
 10161 059b 34       		.byte	0x34
 10162 059c 9F       		.byte	0x9f
 10163 059d 00000000 		.4byte	0
 10164 05a1 00000000 		.4byte	0
 10165              	.LLST36:
 10166 05a5 AA010000 		.4byte	.LVL86
 10167 05a9 B0010000 		.4byte	.LVL87
 10168 05ad 0500     		.2byte	0x5
 10169 05af 73       		.byte	0x73
 10170 05b0 00       		.sleb128 0
 10171 05b1 32       		.byte	0x32
 10172 05b2 25       		.byte	0x25
 10173 05b3 9F       		.byte	0x9f
ARM GAS  /tmp/ccx4dzgE.s 			page 180


 10174 05b4 BC010000 		.4byte	.LVL88
 10175 05b8 C0010000 		.4byte	.LVL89
 10176 05bc 0500     		.2byte	0x5
 10177 05be 73       		.byte	0x73
 10178 05bf 00       		.sleb128 0
 10179 05c0 32       		.byte	0x32
 10180 05c1 25       		.byte	0x25
 10181 05c2 9F       		.byte	0x9f
 10182 05c3 00000000 		.4byte	0
 10183 05c7 00000000 		.4byte	0
 10184              	.LLST37:
 10185 05cb B0010000 		.4byte	.LVL87
 10186 05cf C0010000 		.4byte	.LVL89
 10187 05d3 0200     		.2byte	0x2
 10188 05d5 30       		.byte	0x30
 10189 05d6 9F       		.byte	0x9f
 10190 05d7 00000000 		.4byte	0
 10191 05db 00000000 		.4byte	0
 10192              	.LLST39:
 10193 05df 2E020000 		.4byte	.LVL98
 10194 05e3 3C020000 		.4byte	.LVL101
 10195 05e7 0100     		.2byte	0x1
 10196 05e9 53       		.byte	0x53
 10197 05ea 4E020000 		.4byte	.LVL103
 10198 05ee 51020000 		.4byte	.LVL104-1
 10199 05f2 0100     		.2byte	0x1
 10200 05f4 53       		.byte	0x53
 10201 05f5 00000000 		.4byte	0
 10202 05f9 00000000 		.4byte	0
 10203              	.LLST40:
 10204 05fd 3A020000 		.4byte	.LVL100
 10205 0601 4E020000 		.4byte	.LVL103
 10206 0605 0100     		.2byte	0x1
 10207 0607 55       		.byte	0x55
 10208 0608 00000000 		.4byte	0
 10209 060c 00000000 		.4byte	0
 10210              	.LLST41:
 10211 0610 3A020000 		.4byte	.LVL100
 10212 0614 43020000 		.4byte	.LVL102-1
 10213 0618 0100     		.2byte	0x1
 10214 061a 50       		.byte	0x50
 10215 061b 00000000 		.4byte	0
 10216 061f 00000000 		.4byte	0
 10217              	.LLST42:
 10218 0623 62000000 		.4byte	.LVL29
 10219 0627 90000000 		.4byte	.LVL34
 10220 062b 0100     		.2byte	0x1
 10221 062d 53       		.byte	0x53
 10222 062e E2000000 		.4byte	.LVL51
 10223 0632 E8000000 		.4byte	.LVL52
 10224 0636 0100     		.2byte	0x1
 10225 0638 53       		.byte	0x53
 10226 0639 0C010000 		.4byte	.LVL59
 10227 063d 20010000 		.4byte	.LVL62
 10228 0641 0100     		.2byte	0x1
 10229 0643 53       		.byte	0x53
 10230 0644 8C010000 		.4byte	.LVL81
ARM GAS  /tmp/ccx4dzgE.s 			page 181


 10231 0648 9C010000 		.4byte	.LVL84
 10232 064c 0100     		.2byte	0x1
 10233 064e 53       		.byte	0x53
 10234 064f 58020000 		.4byte	.LVL105
 10235 0653 60020000 		.4byte	.LVL106
 10236 0657 0100     		.2byte	0x1
 10237 0659 53       		.byte	0x53
 10238 065a 00000000 		.4byte	0
 10239 065e 00000000 		.4byte	0
 10240              	.LLST43:
 10241 0662 24000000 		.4byte	.LVL24
 10242 0666 28000000 		.4byte	.LVL25
 10243 066a 0100     		.2byte	0x1
 10244 066c 53       		.byte	0x53
 10245 066d 0A010000 		.4byte	.LVL58
 10246 0671 0C010000 		.4byte	.LVL59
 10247 0675 0100     		.2byte	0x1
 10248 0677 53       		.byte	0x53
 10249 0678 00000000 		.4byte	0
 10250 067c 00000000 		.4byte	0
 10251              	.LLST44:
 10252 0680 66020000 		.4byte	.LVL108
 10253 0684 7E020000 		.4byte	.LVL110
 10254 0688 0100     		.2byte	0x1
 10255 068a 53       		.byte	0x53
 10256 068b 00000000 		.4byte	0
 10257 068f 00000000 		.4byte	0
 10258              	.LLST45:
 10259 0693 86020000 		.4byte	.LVL111
 10260 0697 8C020000 		.4byte	.LVL112
 10261 069b 0100     		.2byte	0x1
 10262 069d 53       		.byte	0x53
 10263 069e 00000000 		.4byte	0
 10264 06a2 00000000 		.4byte	0
 10265              	.LLST46:
 10266 06a6 86020000 		.4byte	.LVL111
 10267 06aa B6020000 		.4byte	.LVL115
 10268 06ae 0100     		.2byte	0x1
 10269 06b0 54       		.byte	0x54
 10270 06b1 B6020000 		.4byte	.LVL115
 10271 06b5 C4020000 		.4byte	.LVL116
 10272 06b9 0300     		.2byte	0x3
 10273 06bb 74       		.byte	0x74
 10274 06bc 7F       		.sleb128 -1
 10275 06bd 9F       		.byte	0x9f
 10276 06be C4020000 		.4byte	.LVL116
 10277 06c2 50030000 		.4byte	.LVL126
 10278 06c6 0600     		.2byte	0x6
 10279 06c8 91       		.byte	0x91
 10280 06c9 54       		.sleb128 -44
 10281 06ca 06       		.byte	0x6
 10282 06cb 31       		.byte	0x31
 10283 06cc 1C       		.byte	0x1c
 10284 06cd 9F       		.byte	0x9f
 10285 06ce 7A030000 		.4byte	.LVL131
 10286 06d2 8E040000 		.4byte	.LVL166
 10287 06d6 0600     		.2byte	0x6
ARM GAS  /tmp/ccx4dzgE.s 			page 182


 10288 06d8 91       		.byte	0x91
 10289 06d9 54       		.sleb128 -44
 10290 06da 06       		.byte	0x6
 10291 06db 31       		.byte	0x31
 10292 06dc 1C       		.byte	0x1c
 10293 06dd 9F       		.byte	0x9f
 10294 06de 8E040000 		.4byte	.LVL166
 10295 06e2 92040000 		.4byte	.LVL167
 10296 06e6 0100     		.2byte	0x1
 10297 06e8 54       		.byte	0x54
 10298 06e9 00000000 		.4byte	0
 10299 06ed 00000000 		.4byte	0
 10300              	.LLST47:
 10301 06f1 A8020000 		.4byte	.LVL113
 10302 06f5 B2020000 		.4byte	.LVL114
 10303 06f9 0100     		.2byte	0x1
 10304 06fb 56       		.byte	0x56
 10305 06fc B2020000 		.4byte	.LVL114
 10306 0700 32030000 		.4byte	.LVL123
 10307 0704 0100     		.2byte	0x1
 10308 0706 55       		.byte	0x55
 10309 0707 3C030000 		.4byte	.LVL124
 10310 070b 50030000 		.4byte	.LVL126
 10311 070f 0100     		.2byte	0x1
 10312 0711 55       		.byte	0x55
 10313 0712 7A030000 		.4byte	.LVL131
 10314 0716 8A030000 		.4byte	.LVL133
 10315 071a 0100     		.2byte	0x1
 10316 071c 55       		.byte	0x55
 10317 071d 8A030000 		.4byte	.LVL133
 10318 0721 F0030000 		.4byte	.LVL146
 10319 0725 0100     		.2byte	0x1
 10320 0727 5E       		.byte	0x5e
 10321 0728 F0030000 		.4byte	.LVL146
 10322 072c 22040000 		.4byte	.LVL156
 10323 0730 0100     		.2byte	0x1
 10324 0732 55       		.byte	0x55
 10325 0733 22040000 		.4byte	.LVL156
 10326 0737 8E040000 		.4byte	.LVL166
 10327 073b 0100     		.2byte	0x1
 10328 073d 5E       		.byte	0x5e
 10329 073e 00000000 		.4byte	0
 10330 0742 00000000 		.4byte	0
 10331              	.LLST48:
 10332 0746 D8020000 		.4byte	.LVL117
 10333 074a 1C030000 		.4byte	.LVL121
 10334 074e 0100     		.2byte	0x1
 10335 0750 55       		.byte	0x55
 10336 0751 00000000 		.4byte	0
 10337 0755 00000000 		.4byte	0
 10338              	.LLST49:
 10339 0759 D8020000 		.4byte	.LVL117
 10340 075d 1C030000 		.4byte	.LVL121
 10341 0761 0100     		.2byte	0x1
 10342 0763 57       		.byte	0x57
 10343 0764 00000000 		.4byte	0
 10344 0768 00000000 		.4byte	0
ARM GAS  /tmp/ccx4dzgE.s 			page 183


 10345              	.LLST50:
 10346 076c D8020000 		.4byte	.LVL117
 10347 0770 1A030000 		.4byte	.LVL120
 10348 0774 0100     		.2byte	0x1
 10349 0776 54       		.byte	0x54
 10350 0777 00000000 		.4byte	0
 10351 077b 00000000 		.4byte	0
 10352              	.LLST51:
 10353 077f D8020000 		.4byte	.LVL117
 10354 0783 04030000 		.4byte	.LVL119
 10355 0787 0100     		.2byte	0x1
 10356 0789 5E       		.byte	0x5e
 10357 078a 00000000 		.4byte	0
 10358 078e 00000000 		.4byte	0
 10359              	.LLST52:
 10360 0792 D8020000 		.4byte	.LVL117
 10361 0796 F2020000 		.4byte	.LVL118
 10362 079a 0100     		.2byte	0x1
 10363 079c 57       		.byte	0x57
 10364 079d 00000000 		.4byte	0
 10365 07a1 00000000 		.4byte	0
 10366              	.LLST54:
 10367 07a5 80030000 		.4byte	.LVL132
 10368 07a9 8A030000 		.4byte	.LVL133
 10369 07ad 0100     		.2byte	0x1
 10370 07af 55       		.byte	0x55
 10371 07b0 8A030000 		.4byte	.LVL133
 10372 07b4 F0030000 		.4byte	.LVL146
 10373 07b8 0100     		.2byte	0x1
 10374 07ba 5E       		.byte	0x5e
 10375 07bb F0030000 		.4byte	.LVL146
 10376 07bf 22040000 		.4byte	.LVL156
 10377 07c3 0100     		.2byte	0x1
 10378 07c5 55       		.byte	0x55
 10379 07c6 22040000 		.4byte	.LVL156
 10380 07ca 8E040000 		.4byte	.LVL166
 10381 07ce 0100     		.2byte	0x1
 10382 07d0 5E       		.byte	0x5e
 10383 07d1 00000000 		.4byte	0
 10384 07d5 00000000 		.4byte	0
 10385              	.LLST55:
 10386 07d9 80030000 		.4byte	.LVL132
 10387 07dd 8E040000 		.4byte	.LVL166
 10388 07e1 0100     		.2byte	0x1
 10389 07e3 54       		.byte	0x54
 10390 07e4 00000000 		.4byte	0
 10391 07e8 00000000 		.4byte	0
 10392              	.LLST56:
 10393 07ec 80030000 		.4byte	.LVL132
 10394 07f0 F8030000 		.4byte	.LVL149
 10395 07f4 0100     		.2byte	0x1
 10396 07f6 51       		.byte	0x51
 10397 07f7 22040000 		.4byte	.LVL156
 10398 07fb 8E040000 		.4byte	.LVL166
 10399 07ff 0100     		.2byte	0x1
 10400 0801 51       		.byte	0x51
 10401 0802 00000000 		.4byte	0
ARM GAS  /tmp/ccx4dzgE.s 			page 184


 10402 0806 00000000 		.4byte	0
 10403              	.LLST57:
 10404 080a 80030000 		.4byte	.LVL132
 10405 080e 8A030000 		.4byte	.LVL133
 10406 0812 0100     		.2byte	0x1
 10407 0814 55       		.byte	0x55
 10408 0815 8A030000 		.4byte	.LVL133
 10409 0819 F0030000 		.4byte	.LVL146
 10410 081d 0100     		.2byte	0x1
 10411 081f 52       		.byte	0x52
 10412 0820 22040000 		.4byte	.LVL156
 10413 0824 2C040000 		.4byte	.LVL158
 10414 0828 0100     		.2byte	0x1
 10415 082a 52       		.byte	0x52
 10416 082b 2C040000 		.4byte	.LVL158
 10417 082f 50040000 		.4byte	.LVL159
 10418 0833 0300     		.2byte	0x3
 10419 0835 72       		.byte	0x72
 10420 0836 7F       		.sleb128 -1
 10421 0837 9F       		.byte	0x9f
 10422 0838 50040000 		.4byte	.LVL159
 10423 083c 68040000 		.4byte	.LVL160
 10424 0840 0300     		.2byte	0x3
 10425 0842 72       		.byte	0x72
 10426 0843 7E       		.sleb128 -2
 10427 0844 9F       		.byte	0x9f
 10428 0845 68040000 		.4byte	.LVL160
 10429 0849 7C040000 		.4byte	.LVL161
 10430 084d 0300     		.2byte	0x3
 10431 084f 72       		.byte	0x72
 10432 0850 7D       		.sleb128 -3
 10433 0851 9F       		.byte	0x9f
 10434 0852 7C040000 		.4byte	.LVL161
 10435 0856 80040000 		.4byte	.LVL162
 10436 085a 0300     		.2byte	0x3
 10437 085c 72       		.byte	0x72
 10438 085d 01       		.sleb128 1
 10439 085e 9F       		.byte	0x9f
 10440 085f 84040000 		.4byte	.LVL164
 10441 0863 8A040000 		.4byte	.LVL165
 10442 0867 0100     		.2byte	0x1
 10443 0869 52       		.byte	0x52
 10444 086a 00000000 		.4byte	0
 10445 086e 00000000 		.4byte	0
 10446              	.LLST58:
 10447 0872 26040000 		.4byte	.LVL157
 10448 0876 2C040000 		.4byte	.LVL158
 10449 087a 0200     		.2byte	0x2
 10450 087c 30       		.byte	0x30
 10451 087d 9F       		.byte	0x9f
 10452 087e 2C040000 		.4byte	.LVL158
 10453 0882 8E040000 		.4byte	.LVL166
 10454 0886 0100     		.2byte	0x1
 10455 0888 53       		.byte	0x53
 10456 0889 00000000 		.4byte	0
 10457 088d 00000000 		.4byte	0
 10458              	.LLST59:
ARM GAS  /tmp/ccx4dzgE.s 			page 185


 10459 0891 26040000 		.4byte	.LVL157
 10460 0895 2C040000 		.4byte	.LVL158
 10461 0899 0200     		.2byte	0x2
 10462 089b 30       		.byte	0x30
 10463 089c 9F       		.byte	0x9f
 10464 089d 2C040000 		.4byte	.LVL158
 10465 08a1 50040000 		.4byte	.LVL159
 10466 08a5 0200     		.2byte	0x2
 10467 08a7 31       		.byte	0x31
 10468 08a8 9F       		.byte	0x9f
 10469 08a9 50040000 		.4byte	.LVL159
 10470 08ad 68040000 		.4byte	.LVL160
 10471 08b1 0200     		.2byte	0x2
 10472 08b3 32       		.byte	0x32
 10473 08b4 9F       		.byte	0x9f
 10474 08b5 68040000 		.4byte	.LVL160
 10475 08b9 80040000 		.4byte	.LVL162
 10476 08bd 0200     		.2byte	0x2
 10477 08bf 33       		.byte	0x33
 10478 08c0 9F       		.byte	0x9f
 10479 08c1 80040000 		.4byte	.LVL162
 10480 08c5 82040000 		.4byte	.LVL163
 10481 08c9 0200     		.2byte	0x2
 10482 08cb 34       		.byte	0x34
 10483 08cc 9F       		.byte	0x9f
 10484 08cd 00000000 		.4byte	0
 10485 08d1 00000000 		.4byte	0
 10486              	.LLST60:
 10487 08d5 8A030000 		.4byte	.LVL133
 10488 08d9 8C030000 		.4byte	.LVL134
 10489 08dd 0500     		.2byte	0x5
 10490 08df 72       		.byte	0x72
 10491 08e0 00       		.sleb128 0
 10492 08e1 32       		.byte	0x32
 10493 08e2 25       		.byte	0x25
 10494 08e3 9F       		.byte	0x9f
 10495 08e4 8C030000 		.4byte	.LVL134
 10496 08e8 AC030000 		.4byte	.LVL138
 10497 08ec 0100     		.2byte	0x1
 10498 08ee 57       		.byte	0x57
 10499 08ef 00000000 		.4byte	0
 10500 08f3 00000000 		.4byte	0
 10501              	.LLST61:
 10502 08f7 9E030000 		.4byte	.LVL136
 10503 08fb B2030000 		.4byte	.LVL139
 10504 08ff 0100     		.2byte	0x1
 10505 0901 53       		.byte	0x53
 10506 0902 B2030000 		.4byte	.LVL139
 10507 0906 C8030000 		.4byte	.LVL141
 10508 090a 0300     		.2byte	0x3
 10509 090c 73       		.byte	0x73
 10510 090d 01       		.sleb128 1
 10511 090e 9F       		.byte	0x9f
 10512 090f C8030000 		.4byte	.LVL141
 10513 0913 CC030000 		.4byte	.LVL143
 10514 0917 0300     		.2byte	0x3
 10515 0919 73       		.byte	0x73
ARM GAS  /tmp/ccx4dzgE.s 			page 186


 10516 091a 02       		.sleb128 2
 10517 091b 9F       		.byte	0x9f
 10518 091c 00000000 		.4byte	0
 10519 0920 00000000 		.4byte	0
 10520              	.LLST62:
 10521 0924 90030000 		.4byte	.LVL135
 10522 0928 E0030000 		.4byte	.LVL144
 10523 092c 0800     		.2byte	0x8
 10524 092e 70       		.byte	0x70
 10525 092f 00       		.sleb128 0
 10526 0930 75       		.byte	0x75
 10527 0931 00       		.sleb128 0
 10528 0932 1C       		.byte	0x1c
 10529 0933 34       		.byte	0x34
 10530 0934 1B       		.byte	0x1b
 10531 0935 9F       		.byte	0x9f
 10532 0936 E0030000 		.4byte	.LVL144
 10533 093a EE030000 		.4byte	.LVL145
 10534 093e 0900     		.2byte	0x9
 10535 0940 70       		.byte	0x70
 10536 0941 00       		.sleb128 0
 10537 0942 74       		.byte	0x74
 10538 0943 18       		.sleb128 24
 10539 0944 06       		.byte	0x6
 10540 0945 1C       		.byte	0x1c
 10541 0946 34       		.byte	0x34
 10542 0947 1B       		.byte	0x1b
 10543 0948 9F       		.byte	0x9f
 10544 0949 22040000 		.4byte	.LVL156
 10545 094d 26040000 		.4byte	.LVL157
 10546 0951 0900     		.2byte	0x9
 10547 0953 70       		.byte	0x70
 10548 0954 00       		.sleb128 0
 10549 0955 74       		.byte	0x74
 10550 0956 18       		.sleb128 24
 10551 0957 06       		.byte	0x6
 10552 0958 1C       		.byte	0x1c
 10553 0959 34       		.byte	0x34
 10554 095a 1B       		.byte	0x1b
 10555 095b 9F       		.byte	0x9f
 10556 095c 00000000 		.4byte	0
 10557 0960 00000000 		.4byte	0
 10558              	.LLST63:
 10559 0964 A6030000 		.4byte	.LVL137
 10560 0968 B6030000 		.4byte	.LVL140
 10561 096c 0100     		.2byte	0x1
 10562 096e 55       		.byte	0x55
 10563 096f 00000000 		.4byte	0
 10564 0973 00000000 		.4byte	0
 10565              	.LLST64:
 10566 0977 A6030000 		.4byte	.LVL137
 10567 097b B2030000 		.4byte	.LVL139
 10568 097f 0100     		.2byte	0x1
 10569 0981 53       		.byte	0x53
 10570 0982 B2030000 		.4byte	.LVL139
 10571 0986 C8030000 		.4byte	.LVL141
 10572 098a 0300     		.2byte	0x3
ARM GAS  /tmp/ccx4dzgE.s 			page 187


 10573 098c 73       		.byte	0x73
 10574 098d 01       		.sleb128 1
 10575 098e 9F       		.byte	0x9f
 10576 098f C8030000 		.4byte	.LVL141
 10577 0993 CA030000 		.4byte	.LVL142
 10578 0997 0300     		.2byte	0x3
 10579 0999 73       		.byte	0x73
 10580 099a 02       		.sleb128 2
 10581 099b 9F       		.byte	0x9f
 10582 099c 00000000 		.4byte	0
 10583 09a0 00000000 		.4byte	0
 10584              	.LLST65:
 10585 09a4 F6030000 		.4byte	.LVL148
 10586 09a8 04040000 		.4byte	.LVL151
 10587 09ac 0100     		.2byte	0x1
 10588 09ae 53       		.byte	0x53
 10589 09af 16040000 		.4byte	.LVL153
 10590 09b3 19040000 		.4byte	.LVL154-1
 10591 09b7 0100     		.2byte	0x1
 10592 09b9 53       		.byte	0x53
 10593 09ba 00000000 		.4byte	0
 10594 09be 00000000 		.4byte	0
 10595              	.LLST66:
 10596 09c2 02040000 		.4byte	.LVL150
 10597 09c6 16040000 		.4byte	.LVL153
 10598 09ca 0100     		.2byte	0x1
 10599 09cc 54       		.byte	0x54
 10600 09cd 00000000 		.4byte	0
 10601 09d1 00000000 		.4byte	0
 10602              	.LLST67:
 10603 09d5 02040000 		.4byte	.LVL150
 10604 09d9 0B040000 		.4byte	.LVL152-1
 10605 09dd 0100     		.2byte	0x1
 10606 09df 50       		.byte	0x50
 10607 09e0 00000000 		.4byte	0
 10608 09e4 00000000 		.4byte	0
 10609              	.LLST68:
 10610 09e8 1C030000 		.4byte	.LVL121
 10611 09ec 28030000 		.4byte	.LVL122
 10612 09f0 0100     		.2byte	0x1
 10613 09f2 53       		.byte	0x53
 10614 09f3 20040000 		.4byte	.LVL155
 10615 09f7 22040000 		.4byte	.LVL156
 10616 09fb 0100     		.2byte	0x1
 10617 09fd 53       		.byte	0x53
 10618 09fe 00000000 		.4byte	0
 10619 0a02 00000000 		.4byte	0
 10620              	.LLST69:
 10621 0a06 56030000 		.4byte	.LVL128
 10622 0a0a 74030000 		.4byte	.LVL129
 10623 0a0e 0100     		.2byte	0x1
 10624 0a10 53       		.byte	0x53
 10625 0a11 00000000 		.4byte	0
 10626 0a15 00000000 		.4byte	0
 10627              	.LLST70:
 10628 0a19 F6000000 		.4byte	.LVL54
 10629 0a1d FC000000 		.4byte	.LVL55
ARM GAS  /tmp/ccx4dzgE.s 			page 188


 10630 0a21 0100     		.2byte	0x1
 10631 0a23 53       		.byte	0x53
 10632 0a24 78030000 		.4byte	.LVL130
 10633 0a28 7A030000 		.4byte	.LVL131
 10634 0a2c 0100     		.2byte	0x1
 10635 0a2e 53       		.byte	0x53
 10636 0a2f 00000000 		.4byte	0
 10637 0a33 00000000 		.4byte	0
 10638              	.LLST71:
 10639 0a37 00000000 		.4byte	.LFB133
 10640 0a3b 02000000 		.4byte	.LCFI4
 10641 0a3f 0200     		.2byte	0x2
 10642 0a41 7D       		.byte	0x7d
 10643 0a42 00       		.sleb128 0
 10644 0a43 02000000 		.4byte	.LCFI4
 10645 0a47 80000000 		.4byte	.LFE133
 10646 0a4b 0200     		.2byte	0x2
 10647 0a4d 7D       		.byte	0x7d
 10648 0a4e 18       		.sleb128 24
 10649 0a4f 00000000 		.4byte	0
 10650 0a53 00000000 		.4byte	0
 10651              	.LLST72:
 10652 0a57 00000000 		.4byte	.LVL168
 10653 0a5b 24000000 		.4byte	.LVL171
 10654 0a5f 0100     		.2byte	0x1
 10655 0a61 50       		.byte	0x50
 10656 0a62 24000000 		.4byte	.LVL171
 10657 0a66 64000000 		.4byte	.LVL179
 10658 0a6a 0100     		.2byte	0x1
 10659 0a6c 55       		.byte	0x55
 10660 0a6d 64000000 		.4byte	.LVL179
 10661 0a71 7D000000 		.4byte	.LVL180-1
 10662 0a75 0100     		.2byte	0x1
 10663 0a77 50       		.byte	0x50
 10664 0a78 7D000000 		.4byte	.LVL180-1
 10665 0a7c 80000000 		.4byte	.LFE133
 10666 0a80 0100     		.2byte	0x1
 10667 0a82 55       		.byte	0x55
 10668 0a83 00000000 		.4byte	0
 10669 0a87 00000000 		.4byte	0
 10670              	.LLST73:
 10671 0a8b 00000000 		.4byte	.LVL168
 10672 0a8f 24000000 		.4byte	.LVL171
 10673 0a93 0100     		.2byte	0x1
 10674 0a95 51       		.byte	0x51
 10675 0a96 24000000 		.4byte	.LVL171
 10676 0a9a 64000000 		.4byte	.LVL179
 10677 0a9e 0400     		.2byte	0x4
 10678 0aa0 F3       		.byte	0xf3
 10679 0aa1 01       		.uleb128 0x1
 10680 0aa2 51       		.byte	0x51
 10681 0aa3 9F       		.byte	0x9f
 10682 0aa4 64000000 		.4byte	.LVL179
 10683 0aa8 7D000000 		.4byte	.LVL180-1
 10684 0aac 0100     		.2byte	0x1
 10685 0aae 51       		.byte	0x51
 10686 0aaf 7D000000 		.4byte	.LVL180-1
ARM GAS  /tmp/ccx4dzgE.s 			page 189


 10687 0ab3 80000000 		.4byte	.LFE133
 10688 0ab7 0400     		.2byte	0x4
 10689 0ab9 F3       		.byte	0xf3
 10690 0aba 01       		.uleb128 0x1
 10691 0abb 51       		.byte	0x51
 10692 0abc 9F       		.byte	0x9f
 10693 0abd 00000000 		.4byte	0
 10694 0ac1 00000000 		.4byte	0
 10695              	.LLST74:
 10696 0ac5 3E000000 		.4byte	.LVL173
 10697 0ac9 40000000 		.4byte	.LVL174
 10698 0acd 0100     		.2byte	0x1
 10699 0acf 53       		.byte	0x53
 10700 0ad0 00000000 		.4byte	0
 10701 0ad4 00000000 		.4byte	0
 10702              	.LLST75:
 10703 0ad8 52000000 		.4byte	.LVL175
 10704 0adc 64000000 		.4byte	.LVL179
 10705 0ae0 0100     		.2byte	0x1
 10706 0ae2 55       		.byte	0x55
 10707 0ae3 00000000 		.4byte	0
 10708 0ae7 00000000 		.4byte	0
 10709              	.LLST76:
 10710 0aeb 62000000 		.4byte	.LVL178
 10711 0aef 64000000 		.4byte	.LVL179
 10712 0af3 0100     		.2byte	0x1
 10713 0af5 53       		.byte	0x53
 10714 0af6 00000000 		.4byte	0
 10715 0afa 00000000 		.4byte	0
 10716              	.LLST77:
 10717 0afe 00000000 		.4byte	.LFB137
 10718 0b02 02000000 		.4byte	.LCFI5
 10719 0b06 0200     		.2byte	0x2
 10720 0b08 7D       		.byte	0x7d
 10721 0b09 00       		.sleb128 0
 10722 0b0a 02000000 		.4byte	.LCFI5
 10723 0b0e 00010000 		.4byte	.LFE137
 10724 0b12 0200     		.2byte	0x2
 10725 0b14 7D       		.byte	0x7d
 10726 0b15 10       		.sleb128 16
 10727 0b16 00000000 		.4byte	0
 10728 0b1a 00000000 		.4byte	0
 10729              	.LLST78:
 10730 0b1e 06000000 		.4byte	.LVL182
 10731 0b22 32000000 		.4byte	.LVL186
 10732 0b26 0100     		.2byte	0x1
 10733 0b28 55       		.byte	0x55
 10734 0b29 6A000000 		.4byte	.LVL193
 10735 0b2d A4000000 		.4byte	.LVL202
 10736 0b31 0100     		.2byte	0x1
 10737 0b33 55       		.byte	0x55
 10738 0b34 00000000 		.4byte	0
 10739 0b38 00000000 		.4byte	0
 10740              	.LLST79:
 10741 0b3c 32000000 		.4byte	.LVL186
 10742 0b40 6A000000 		.4byte	.LVL193
 10743 0b44 0100     		.2byte	0x1
ARM GAS  /tmp/ccx4dzgE.s 			page 190


 10744 0b46 55       		.byte	0x55
 10745 0b47 A4000000 		.4byte	.LVL202
 10746 0b4b 00010000 		.4byte	.LFE137
 10747 0b4f 0100     		.2byte	0x1
 10748 0b51 55       		.byte	0x55
 10749 0b52 00000000 		.4byte	0
 10750 0b56 00000000 		.4byte	0
 10751              	.LLST80:
 10752 0b5a 86000000 		.4byte	.LVL197
 10753 0b5e 8E000000 		.4byte	.LVL198
 10754 0b62 0100     		.2byte	0x1
 10755 0b64 53       		.byte	0x53
 10756 0b65 00000000 		.4byte	0
 10757 0b69 00000000 		.4byte	0
 10758              	.LLST81:
 10759 0b6d 90000000 		.4byte	.LVL199
 10760 0b71 A4000000 		.4byte	.LVL202
 10761 0b75 0600     		.2byte	0x6
 10762 0b77 03       		.byte	0x3
 10763 0b78 00000000 		.4byte	USBD1
 10764 0b7c 9F       		.byte	0x9f
 10765 0b7d 00000000 		.4byte	0
 10766 0b81 00000000 		.4byte	0
 10767              	.LLST82:
 10768 0b85 2C000000 		.4byte	.LVL185
 10769 0b89 3A000000 		.4byte	.LVL187
 10770 0b8d 0100     		.2byte	0x1
 10771 0b8f 53       		.byte	0x53
 10772 0b90 44000000 		.4byte	.LVL188
 10773 0b94 4A000000 		.4byte	.LVL189
 10774 0b98 0100     		.2byte	0x1
 10775 0b9a 53       		.byte	0x53
 10776 0b9b 58000000 		.4byte	.LVL190
 10777 0b9f 5F000000 		.4byte	.LVL191-1
 10778 0ba3 0100     		.2byte	0x1
 10779 0ba5 53       		.byte	0x53
 10780 0ba6 A2000000 		.4byte	.LVL201
 10781 0baa A4000000 		.4byte	.LVL202
 10782 0bae 0100     		.2byte	0x1
 10783 0bb0 53       		.byte	0x53
 10784 0bb1 CC000000 		.4byte	.LVL206
 10785 0bb5 D3000000 		.4byte	.LVL207-1
 10786 0bb9 0100     		.2byte	0x1
 10787 0bbb 53       		.byte	0x53
 10788 0bbc 00000000 		.4byte	0
 10789 0bc0 00000000 		.4byte	0
 10790              	.LLST83:
 10791 0bc4 00000000 		.4byte	.LFB138
 10792 0bc8 02000000 		.4byte	.LCFI6
 10793 0bcc 0200     		.2byte	0x2
 10794 0bce 7D       		.byte	0x7d
 10795 0bcf 00       		.sleb128 0
 10796 0bd0 02000000 		.4byte	.LCFI6
 10797 0bd4 28000000 		.4byte	.LFE138
 10798 0bd8 0200     		.2byte	0x2
 10799 0bda 7D       		.byte	0x7d
 10800 0bdb 08       		.sleb128 8
ARM GAS  /tmp/ccx4dzgE.s 			page 191


 10801 0bdc 00000000 		.4byte	0
 10802 0be0 00000000 		.4byte	0
 10803              	.LLST84:
 10804 0be4 00000000 		.4byte	.LFB139
 10805 0be8 02000000 		.4byte	.LCFI7
 10806 0bec 0200     		.2byte	0x2
 10807 0bee 7D       		.byte	0x7d
 10808 0bef 00       		.sleb128 0
 10809 0bf0 02000000 		.4byte	.LCFI7
 10810 0bf4 0A000000 		.4byte	.LCFI8
 10811 0bf8 0200     		.2byte	0x2
 10812 0bfa 7D       		.byte	0x7d
 10813 0bfb 10       		.sleb128 16
 10814 0bfc 0A000000 		.4byte	.LCFI8
 10815 0c00 DC000000 		.4byte	.LFE139
 10816 0c04 0200     		.2byte	0x2
 10817 0c06 7D       		.byte	0x7d
 10818 0c07 18       		.sleb128 24
 10819 0c08 00000000 		.4byte	0
 10820 0c0c 00000000 		.4byte	0
 10821              	.LLST85:
 10822 0c10 00000000 		.4byte	.LVL212
 10823 0c14 0E000000 		.4byte	.LVL214
 10824 0c18 0100     		.2byte	0x1
 10825 0c1a 50       		.byte	0x50
 10826 0c1b 0E000000 		.4byte	.LVL214
 10827 0c1f 12000000 		.4byte	.LVL215
 10828 0c23 0100     		.2byte	0x1
 10829 0c25 56       		.byte	0x56
 10830 0c26 12000000 		.4byte	.LVL215
 10831 0c2a 14000000 		.4byte	.LVL216
 10832 0c2e 0100     		.2byte	0x1
 10833 0c30 50       		.byte	0x50
 10834 0c31 14000000 		.4byte	.LVL216
 10835 0c35 DC000000 		.4byte	.LFE139
 10836 0c39 0100     		.2byte	0x1
 10837 0c3b 56       		.byte	0x56
 10838 0c3c 00000000 		.4byte	0
 10839 0c40 00000000 		.4byte	0
 10840              	.LLST86:
 10841 0c44 46000000 		.4byte	.LVL217
 10842 0c48 94000000 		.4byte	.LVL221
 10843 0c4c 0100     		.2byte	0x1
 10844 0c4e 56       		.byte	0x56
 10845 0c4f 00000000 		.4byte	0
 10846 0c53 00000000 		.4byte	0
 10847              	.LLST87:
 10848 0c57 46000000 		.4byte	.LVL217
 10849 0c5b 5C000000 		.4byte	.LVL219
 10850 0c5f 0100     		.2byte	0x1
 10851 0c61 54       		.byte	0x54
 10852 0c62 00000000 		.4byte	0
 10853 0c66 00000000 		.4byte	0
 10854              	.LLST88:
 10855 0c6a 00000000 		.4byte	.LFB140
 10856 0c6e 02000000 		.4byte	.LCFI9
 10857 0c72 0200     		.2byte	0x2
ARM GAS  /tmp/ccx4dzgE.s 			page 192


 10858 0c74 7D       		.byte	0x7d
 10859 0c75 00       		.sleb128 0
 10860 0c76 02000000 		.4byte	.LCFI9
 10861 0c7a 1E000000 		.4byte	.LFE140
 10862 0c7e 0200     		.2byte	0x2
 10863 0c80 7D       		.byte	0x7d
 10864 0c81 10       		.sleb128 16
 10865 0c82 00000000 		.4byte	0
 10866 0c86 00000000 		.4byte	0
 10867              	.LLST89:
 10868 0c8a 00000000 		.4byte	.LVL224
 10869 0c8e 0F000000 		.4byte	.LVL226-1
 10870 0c92 0100     		.2byte	0x1
 10871 0c94 50       		.byte	0x50
 10872 0c95 0F000000 		.4byte	.LVL226-1
 10873 0c99 1E000000 		.4byte	.LFE140
 10874 0c9d 0100     		.2byte	0x1
 10875 0c9f 54       		.byte	0x54
 10876 0ca0 00000000 		.4byte	0
 10877 0ca4 00000000 		.4byte	0
 10878              	.LLST90:
 10879 0ca8 00000000 		.4byte	.LFB141
 10880 0cac 04000000 		.4byte	.LCFI10
 10881 0cb0 0200     		.2byte	0x2
 10882 0cb2 7D       		.byte	0x7d
 10883 0cb3 00       		.sleb128 0
 10884 0cb4 04000000 		.4byte	.LCFI10
 10885 0cb8 2C010000 		.4byte	.LFE141
 10886 0cbc 0200     		.2byte	0x2
 10887 0cbe 7D       		.byte	0x7d
 10888 0cbf 28       		.sleb128 40
 10889 0cc0 00000000 		.4byte	0
 10890 0cc4 00000000 		.4byte	0
 10891              	.LLST91:
 10892 0cc8 00000000 		.4byte	.LVL227
 10893 0ccc 0D000000 		.4byte	.LVL229-1
 10894 0cd0 0100     		.2byte	0x1
 10895 0cd2 50       		.byte	0x50
 10896 0cd3 0D000000 		.4byte	.LVL229-1
 10897 0cd7 2C010000 		.4byte	.LFE141
 10898 0cdb 0100     		.2byte	0x1
 10899 0cdd 58       		.byte	0x58
 10900 0cde 00000000 		.4byte	0
 10901 0ce2 00000000 		.4byte	0
 10902              	.LLST92:
 10903 0ce6 C0000000 		.4byte	.LVL231
 10904 0cea CF000000 		.4byte	.LVL232-1
 10905 0cee 0100     		.2byte	0x1
 10906 0cf0 52       		.byte	0x52
 10907 0cf1 00000000 		.4byte	0
 10908 0cf5 00000000 		.4byte	0
 10909              	.LLST93:
 10910 0cf9 00000000 		.4byte	.LVL234
 10911 0cfd 0E000000 		.4byte	.LVL236
 10912 0d01 0100     		.2byte	0x1
 10913 0d03 50       		.byte	0x50
 10914 0d04 0E000000 		.4byte	.LVL236
ARM GAS  /tmp/ccx4dzgE.s 			page 193


 10915 0d08 18000000 		.4byte	.LFE142
 10916 0d0c 0400     		.2byte	0x4
 10917 0d0e F3       		.byte	0xf3
 10918 0d0f 01       		.uleb128 0x1
 10919 0d10 50       		.byte	0x50
 10920 0d11 9F       		.byte	0x9f
 10921 0d12 00000000 		.4byte	0
 10922 0d16 00000000 		.4byte	0
 10923              	.LLST94:
 10924 0d1a 00000000 		.4byte	.LFB143
 10925 0d1e 04000000 		.4byte	.LCFI11
 10926 0d22 0200     		.2byte	0x2
 10927 0d24 7D       		.byte	0x7d
 10928 0d25 00       		.sleb128 0
 10929 0d26 04000000 		.4byte	.LCFI11
 10930 0d2a 3A010000 		.4byte	.LFE143
 10931 0d2e 0200     		.2byte	0x2
 10932 0d30 7D       		.byte	0x7d
 10933 0d31 18       		.sleb128 24
 10934 0d32 00000000 		.4byte	0
 10935 0d36 00000000 		.4byte	0
 10936              	.LLST95:
 10937 0d3a 00000000 		.4byte	.LVL237
 10938 0d3e 16000000 		.4byte	.LVL239
 10939 0d42 0100     		.2byte	0x1
 10940 0d44 50       		.byte	0x50
 10941 0d45 16000000 		.4byte	.LVL239
 10942 0d49 9A000000 		.4byte	.LVL246
 10943 0d4d 0100     		.2byte	0x1
 10944 0d4f 56       		.byte	0x56
 10945 0d50 9A000000 		.4byte	.LVL246
 10946 0d54 A1000000 		.4byte	.LVL247-1
 10947 0d58 0100     		.2byte	0x1
 10948 0d5a 50       		.byte	0x50
 10949 0d5b A1000000 		.4byte	.LVL247-1
 10950 0d5f CA000000 		.4byte	.LVL248
 10951 0d63 0400     		.2byte	0x4
 10952 0d65 F3       		.byte	0xf3
 10953 0d66 01       		.uleb128 0x1
 10954 0d67 50       		.byte	0x50
 10955 0d68 9F       		.byte	0x9f
 10956 0d69 CA000000 		.4byte	.LVL248
 10957 0d6d 3A010000 		.4byte	.LFE143
 10958 0d71 0100     		.2byte	0x1
 10959 0d73 56       		.byte	0x56
 10960 0d74 00000000 		.4byte	0
 10961 0d78 00000000 		.4byte	0
 10962              	.LLST96:
 10963 0d7c 00000000 		.4byte	.LVL237
 10964 0d80 26000000 		.4byte	.LVL240
 10965 0d84 0100     		.2byte	0x1
 10966 0d86 51       		.byte	0x51
 10967 0d87 26000000 		.4byte	.LVL240
 10968 0d8b CA000000 		.4byte	.LVL248
 10969 0d8f 0400     		.2byte	0x4
 10970 0d91 F3       		.byte	0xf3
 10971 0d92 01       		.uleb128 0x1
ARM GAS  /tmp/ccx4dzgE.s 			page 194


 10972 0d93 51       		.byte	0x51
 10973 0d94 9F       		.byte	0x9f
 10974 0d95 CA000000 		.4byte	.LVL248
 10975 0d99 D6000000 		.4byte	.LVL252
 10976 0d9d 0100     		.2byte	0x1
 10977 0d9f 51       		.byte	0x51
 10978 0da0 D6000000 		.4byte	.LVL252
 10979 0da4 3A010000 		.4byte	.LFE143
 10980 0da8 0400     		.2byte	0x4
 10981 0daa F3       		.byte	0xf3
 10982 0dab 01       		.uleb128 0x1
 10983 0dac 51       		.byte	0x51
 10984 0dad 9F       		.byte	0x9f
 10985 0dae 00000000 		.4byte	0
 10986 0db2 00000000 		.4byte	0
 10987              	.LLST97:
 10988 0db6 34000000 		.4byte	.LVL241
 10989 0dba CA000000 		.4byte	.LVL248
 10990 0dbe 0100     		.2byte	0x1
 10991 0dc0 58       		.byte	0x58
 10992 0dc1 CA000000 		.4byte	.LVL248
 10993 0dc5 CE000000 		.4byte	.LVL249
 10994 0dc9 0600     		.2byte	0x6
 10995 0dcb 0C       		.byte	0xc
 10996 0dcc 00800810 		.4byte	0x10088000
 10997 0dd0 9F       		.byte	0x9f
 10998 0dd1 D0000000 		.4byte	.LVL250
 10999 0dd5 D4000000 		.4byte	.LVL251
 11000 0dd9 0600     		.2byte	0x6
 11001 0ddb 0C       		.byte	0xc
 11002 0ddc 00800C10 		.4byte	0x100c8000
 11003 0de0 9F       		.byte	0x9f
 11004 0de1 D6000000 		.4byte	.LVL252
 11005 0de5 3A010000 		.4byte	.LFE143
 11006 0de9 0100     		.2byte	0x1
 11007 0deb 58       		.byte	0x58
 11008 0dec 00000000 		.4byte	0
 11009 0df0 00000000 		.4byte	0
 11010              	.LLST98:
 11011 0df4 7C000000 		.4byte	.LVL242
 11012 0df8 94000000 		.4byte	.LVL245
 11013 0dfc 0100     		.2byte	0x1
 11014 0dfe 53       		.byte	0x53
 11015 0dff 00000000 		.4byte	0
 11016 0e03 00000000 		.4byte	0
 11017              	.LLST99:
 11018 0e07 82000000 		.4byte	.LVL243
 11019 0e0b 94000000 		.4byte	.LVL245
 11020 0e0f 0100     		.2byte	0x1
 11021 0e11 53       		.byte	0x53
 11022 0e12 00000000 		.4byte	0
 11023 0e16 00000000 		.4byte	0
 11024              	.LLST100:
 11025 0e1a 82000000 		.4byte	.LVL243
 11026 0e1e 9A000000 		.4byte	.LVL246
 11027 0e22 0100     		.2byte	0x1
 11028 0e24 56       		.byte	0x56
ARM GAS  /tmp/ccx4dzgE.s 			page 195


 11029 0e25 9A000000 		.4byte	.LVL246
 11030 0e29 A1000000 		.4byte	.LVL247-1
 11031 0e2d 0100     		.2byte	0x1
 11032 0e2f 50       		.byte	0x50
 11033 0e30 A1000000 		.4byte	.LVL247-1
 11034 0e34 CA000000 		.4byte	.LVL248
 11035 0e38 0400     		.2byte	0x4
 11036 0e3a F3       		.byte	0xf3
 11037 0e3b 01       		.uleb128 0x1
 11038 0e3c 50       		.byte	0x50
 11039 0e3d 9F       		.byte	0x9f
 11040 0e3e 00000000 		.4byte	0
 11041 0e42 00000000 		.4byte	0
 11042              	.LLST101:
 11043 0e46 84000000 		.4byte	.LVL244
 11044 0e4a A1000000 		.4byte	.LVL247-1
 11045 0e4e 0100     		.2byte	0x1
 11046 0e50 52       		.byte	0x52
 11047 0e51 00000000 		.4byte	0
 11048 0e55 00000000 		.4byte	0
 11049              	.LLST102:
 11050 0e59 00000000 		.4byte	.LVL254
 11051 0e5d 09000000 		.4byte	.LVL255-1
 11052 0e61 0100     		.2byte	0x1
 11053 0e63 50       		.byte	0x50
 11054 0e64 09000000 		.4byte	.LVL255-1
 11055 0e68 0A000000 		.4byte	.LFE144
 11056 0e6c 0400     		.2byte	0x4
 11057 0e6e F3       		.byte	0xf3
 11058 0e6f 01       		.uleb128 0x1
 11059 0e70 50       		.byte	0x50
 11060 0e71 9F       		.byte	0x9f
 11061 0e72 00000000 		.4byte	0
 11062 0e76 00000000 		.4byte	0
 11063              	.LLST104:
 11064 0e7a 00000000 		.4byte	.LVL256
 11065 0e7e 0C000000 		.4byte	.LVL259
 11066 0e82 0100     		.2byte	0x1
 11067 0e84 50       		.byte	0x50
 11068 0e85 0C000000 		.4byte	.LVL259
 11069 0e89 1A000000 		.4byte	.LFE145
 11070 0e8d 0400     		.2byte	0x4
 11071 0e8f F3       		.byte	0xf3
 11072 0e90 01       		.uleb128 0x1
 11073 0e91 50       		.byte	0x50
 11074 0e92 9F       		.byte	0x9f
 11075 0e93 00000000 		.4byte	0
 11076 0e97 00000000 		.4byte	0
 11077              	.LLST105:
 11078 0e9b 00000000 		.4byte	.LVL256
 11079 0e9f 02000000 		.4byte	.LVL257
 11080 0ea3 0100     		.2byte	0x1
 11081 0ea5 51       		.byte	0x51
 11082 0ea6 02000000 		.4byte	.LVL257
 11083 0eaa 1A000000 		.4byte	.LFE145
 11084 0eae 0400     		.2byte	0x4
 11085 0eb0 F3       		.byte	0xf3
ARM GAS  /tmp/ccx4dzgE.s 			page 196


 11086 0eb1 01       		.uleb128 0x1
 11087 0eb2 51       		.byte	0x51
 11088 0eb3 9F       		.byte	0x9f
 11089 0eb4 00000000 		.4byte	0
 11090 0eb8 00000000 		.4byte	0
 11091              	.LLST106:
 11092 0ebc 00000000 		.4byte	.LVL260
 11093 0ec0 0C000000 		.4byte	.LVL263
 11094 0ec4 0100     		.2byte	0x1
 11095 0ec6 50       		.byte	0x50
 11096 0ec7 0C000000 		.4byte	.LVL263
 11097 0ecb 1A000000 		.4byte	.LFE146
 11098 0ecf 0400     		.2byte	0x4
 11099 0ed1 F3       		.byte	0xf3
 11100 0ed2 01       		.uleb128 0x1
 11101 0ed3 50       		.byte	0x50
 11102 0ed4 9F       		.byte	0x9f
 11103 0ed5 00000000 		.4byte	0
 11104 0ed9 00000000 		.4byte	0
 11105              	.LLST107:
 11106 0edd 00000000 		.4byte	.LVL260
 11107 0ee1 02000000 		.4byte	.LVL261
 11108 0ee5 0100     		.2byte	0x1
 11109 0ee7 51       		.byte	0x51
 11110 0ee8 02000000 		.4byte	.LVL261
 11111 0eec 1A000000 		.4byte	.LFE146
 11112 0ef0 0400     		.2byte	0x4
 11113 0ef2 F3       		.byte	0xf3
 11114 0ef3 01       		.uleb128 0x1
 11115 0ef4 51       		.byte	0x51
 11116 0ef5 9F       		.byte	0x9f
 11117 0ef6 00000000 		.4byte	0
 11118 0efa 00000000 		.4byte	0
 11119              	.LLST108:
 11120 0efe 00000000 		.4byte	.LVL264
 11121 0f02 08000000 		.4byte	.LVL266
 11122 0f06 0100     		.2byte	0x1
 11123 0f08 50       		.byte	0x50
 11124 0f09 08000000 		.4byte	.LVL266
 11125 0f0d 12000000 		.4byte	.LFE147
 11126 0f11 0400     		.2byte	0x4
 11127 0f13 F3       		.byte	0xf3
 11128 0f14 01       		.uleb128 0x1
 11129 0f15 50       		.byte	0x50
 11130 0f16 9F       		.byte	0x9f
 11131 0f17 00000000 		.4byte	0
 11132 0f1b 00000000 		.4byte	0
 11133              	.LLST109:
 11134 0f1f 00000000 		.4byte	.LVL264
 11135 0f23 04000000 		.4byte	.LVL265
 11136 0f27 0100     		.2byte	0x1
 11137 0f29 51       		.byte	0x51
 11138 0f2a 04000000 		.4byte	.LVL265
 11139 0f2e 12000000 		.4byte	.LFE147
 11140 0f32 0400     		.2byte	0x4
 11141 0f34 F3       		.byte	0xf3
 11142 0f35 01       		.uleb128 0x1
ARM GAS  /tmp/ccx4dzgE.s 			page 197


 11143 0f36 51       		.byte	0x51
 11144 0f37 9F       		.byte	0x9f
 11145 0f38 00000000 		.4byte	0
 11146 0f3c 00000000 		.4byte	0
 11147              	.LLST110:
 11148 0f40 00000000 		.4byte	.LFB148
 11149 0f44 06000000 		.4byte	.LCFI12
 11150 0f48 0200     		.2byte	0x2
 11151 0f4a 7D       		.byte	0x7d
 11152 0f4b 00       		.sleb128 0
 11153 0f4c 06000000 		.4byte	.LCFI12
 11154 0f50 2C000000 		.4byte	.LFE148
 11155 0f54 0200     		.2byte	0x2
 11156 0f56 7D       		.byte	0x7d
 11157 0f57 04       		.sleb128 4
 11158 0f58 00000000 		.4byte	0
 11159 0f5c 00000000 		.4byte	0
 11160              	.LLST111:
 11161 0f60 00000000 		.4byte	.LVL267
 11162 0f64 0A000000 		.4byte	.LVL269
 11163 0f68 0100     		.2byte	0x1
 11164 0f6a 50       		.byte	0x50
 11165 0f6b 0A000000 		.4byte	.LVL269
 11166 0f6f 2C000000 		.4byte	.LFE148
 11167 0f73 0400     		.2byte	0x4
 11168 0f75 F3       		.byte	0xf3
 11169 0f76 01       		.uleb128 0x1
 11170 0f77 50       		.byte	0x50
 11171 0f78 9F       		.byte	0x9f
 11172 0f79 00000000 		.4byte	0
 11173 0f7d 00000000 		.4byte	0
 11174              	.LLST112:
 11175 0f81 00000000 		.4byte	.LVL267
 11176 0f85 18000000 		.4byte	.LVL273
 11177 0f89 0100     		.2byte	0x1
 11178 0f8b 51       		.byte	0x51
 11179 0f8c 18000000 		.4byte	.LVL273
 11180 0f90 2C000000 		.4byte	.LFE148
 11181 0f94 0400     		.2byte	0x4
 11182 0f96 F3       		.byte	0xf3
 11183 0f97 01       		.uleb128 0x1
 11184 0f98 51       		.byte	0x51
 11185 0f99 9F       		.byte	0x9f
 11186 0f9a 00000000 		.4byte	0
 11187 0f9e 00000000 		.4byte	0
 11188              	.LLST113:
 11189 0fa2 0E000000 		.4byte	.LVL270
 11190 0fa6 10000000 		.4byte	.LVL271
 11191 0faa 1500     		.2byte	0x15
 11192 0fac 74       		.byte	0x74
 11193 0fad 18       		.sleb128 24
 11194 0fae 06       		.byte	0x6
 11195 0faf 23       		.byte	0x23
 11196 0fb0 04       		.uleb128 0x4
 11197 0fb1 06       		.byte	0x6
 11198 0fb2 73       		.byte	0x73
 11199 0fb3 00       		.sleb128 0
ARM GAS  /tmp/ccx4dzgE.s 			page 198


 11200 0fb4 22       		.byte	0x22
 11201 0fb5 31       		.byte	0x31
 11202 0fb6 1C       		.byte	0x1c
 11203 0fb7 F7       		.byte	0xf7
 11204 0fb8 29       		.uleb128 0x29
 11205 0fb9 73       		.byte	0x73
 11206 0fba 00       		.sleb128 0
 11207 0fbb F7       		.byte	0xf7
 11208 0fbc 29       		.uleb128 0x29
 11209 0fbd 1B       		.byte	0x1b
 11210 0fbe F7       		.byte	0xf7
 11211 0fbf 00       		.uleb128 0
 11212 0fc0 9F       		.byte	0x9f
 11213 0fc1 10000000 		.4byte	.LVL271
 11214 0fc5 18000000 		.4byte	.LVL273
 11215 0fc9 2000     		.2byte	0x20
 11216 0fcb 71       		.byte	0x71
 11217 0fcc 00       		.sleb128 0
 11218 0fcd 32       		.byte	0x32
 11219 0fce 24       		.byte	0x24
 11220 0fcf F3       		.byte	0xf3
 11221 0fd0 01       		.uleb128 0x1
 11222 0fd1 50       		.byte	0x50
 11223 0fd2 22       		.byte	0x22
 11224 0fd3 23       		.byte	0x23
 11225 0fd4 0C       		.uleb128 0xc
 11226 0fd5 06       		.byte	0x6
 11227 0fd6 23       		.byte	0x23
 11228 0fd7 18       		.uleb128 0x18
 11229 0fd8 06       		.byte	0x6
 11230 0fd9 23       		.byte	0x23
 11231 0fda 04       		.uleb128 0x4
 11232 0fdb 06       		.byte	0x6
 11233 0fdc 73       		.byte	0x73
 11234 0fdd 00       		.sleb128 0
 11235 0fde 22       		.byte	0x22
 11236 0fdf 31       		.byte	0x31
 11237 0fe0 1C       		.byte	0x1c
 11238 0fe1 F7       		.byte	0xf7
 11239 0fe2 29       		.uleb128 0x29
 11240 0fe3 73       		.byte	0x73
 11241 0fe4 00       		.sleb128 0
 11242 0fe5 F7       		.byte	0xf7
 11243 0fe6 29       		.uleb128 0x29
 11244 0fe7 1B       		.byte	0x1b
 11245 0fe8 F7       		.byte	0xf7
 11246 0fe9 00       		.uleb128 0
 11247 0fea 9F       		.byte	0x9f
 11248 0feb 00000000 		.4byte	0
 11249 0fef 00000000 		.4byte	0
 11250              	.LLST114:
 11251 0ff3 08000000 		.4byte	.LVL268
 11252 0ff7 10000000 		.4byte	.LVL271
 11253 0ffb 0200     		.2byte	0x2
 11254 0ffd 74       		.byte	0x74
 11255 0ffe 18       		.sleb128 24
 11256 0fff 10000000 		.4byte	.LVL271
ARM GAS  /tmp/ccx4dzgE.s 			page 199


 11257 1003 12000000 		.4byte	.LVL272
 11258 1007 0100     		.2byte	0x1
 11259 1009 52       		.byte	0x52
 11260 100a 12000000 		.4byte	.LVL272
 11261 100e 18000000 		.4byte	.LVL273
 11262 1012 0D00     		.2byte	0xd
 11263 1014 71       		.byte	0x71
 11264 1015 00       		.sleb128 0
 11265 1016 32       		.byte	0x32
 11266 1017 24       		.byte	0x24
 11267 1018 F3       		.byte	0xf3
 11268 1019 01       		.uleb128 0x1
 11269 101a 50       		.byte	0x50
 11270 101b 22       		.byte	0x22
 11271 101c 23       		.byte	0x23
 11272 101d 0C       		.uleb128 0xc
 11273 101e 06       		.byte	0x6
 11274 101f 23       		.byte	0x23
 11275 1020 18       		.uleb128 0x18
 11276 1021 00000000 		.4byte	0
 11277 1025 00000000 		.4byte	0
 11278              	.LLST115:
 11279 1029 00000000 		.4byte	.LFB149
 11280 102d 06000000 		.4byte	.LCFI13
 11281 1031 0200     		.2byte	0x2
 11282 1033 7D       		.byte	0x7d
 11283 1034 00       		.sleb128 0
 11284 1035 06000000 		.4byte	.LCFI13
 11285 1039 3A000000 		.4byte	.LFE149
 11286 103d 0200     		.2byte	0x2
 11287 103f 7D       		.byte	0x7d
 11288 1040 04       		.sleb128 4
 11289 1041 00000000 		.4byte	0
 11290 1045 00000000 		.4byte	0
 11291              	.LLST116:
 11292 1049 00000000 		.4byte	.LVL274
 11293 104d 12000000 		.4byte	.LVL277
 11294 1051 0100     		.2byte	0x1
 11295 1053 50       		.byte	0x50
 11296 1054 12000000 		.4byte	.LVL277
 11297 1058 2A000000 		.4byte	.LVL280
 11298 105c 0400     		.2byte	0x4
 11299 105e F3       		.byte	0xf3
 11300 105f 01       		.uleb128 0x1
 11301 1060 50       		.byte	0x50
 11302 1061 9F       		.byte	0x9f
 11303 1062 2A000000 		.4byte	.LVL280
 11304 1066 2C000000 		.4byte	.LVL281
 11305 106a 0100     		.2byte	0x1
 11306 106c 50       		.byte	0x50
 11307 106d 2C000000 		.4byte	.LVL281
 11308 1071 3A000000 		.4byte	.LFE149
 11309 1075 0400     		.2byte	0x4
 11310 1077 F3       		.byte	0xf3
 11311 1078 01       		.uleb128 0x1
 11312 1079 50       		.byte	0x50
 11313 107a 9F       		.byte	0x9f
ARM GAS  /tmp/ccx4dzgE.s 			page 200


 11314 107b 00000000 		.4byte	0
 11315 107f 00000000 		.4byte	0
 11316              	.LLST117:
 11317 1083 00000000 		.4byte	.LVL274
 11318 1087 1E000000 		.4byte	.LVL279
 11319 108b 0100     		.2byte	0x1
 11320 108d 51       		.byte	0x51
 11321 108e 1E000000 		.4byte	.LVL279
 11322 1092 2A000000 		.4byte	.LVL280
 11323 1096 0400     		.2byte	0x4
 11324 1098 F3       		.byte	0xf3
 11325 1099 01       		.uleb128 0x1
 11326 109a 51       		.byte	0x51
 11327 109b 9F       		.byte	0x9f
 11328 109c 2A000000 		.4byte	.LVL280
 11329 10a0 34000000 		.4byte	.LVL283
 11330 10a4 0100     		.2byte	0x1
 11331 10a6 51       		.byte	0x51
 11332 10a7 34000000 		.4byte	.LVL283
 11333 10ab 3A000000 		.4byte	.LFE149
 11334 10af 0400     		.2byte	0x4
 11335 10b1 F3       		.byte	0xf3
 11336 10b2 01       		.uleb128 0x1
 11337 10b3 51       		.byte	0x51
 11338 10b4 9F       		.byte	0x9f
 11339 10b5 00000000 		.4byte	0
 11340 10b9 00000000 		.4byte	0
 11341              	.LLST118:
 11342 10bd 08000000 		.4byte	.LVL275
 11343 10c1 10000000 		.4byte	.LVL276
 11344 10c5 0200     		.2byte	0x2
 11345 10c7 72       		.byte	0x72
 11346 10c8 14       		.sleb128 20
 11347 10c9 10000000 		.4byte	.LVL276
 11348 10cd 12000000 		.4byte	.LVL277
 11349 10d1 0C00     		.2byte	0xc
 11350 10d3 71       		.byte	0x71
 11351 10d4 00       		.sleb128 0
 11352 10d5 32       		.byte	0x32
 11353 10d6 24       		.byte	0x24
 11354 10d7 70       		.byte	0x70
 11355 10d8 00       		.sleb128 0
 11356 10d9 22       		.byte	0x22
 11357 10da 23       		.byte	0x23
 11358 10db 0C       		.uleb128 0xc
 11359 10dc 06       		.byte	0x6
 11360 10dd 23       		.byte	0x23
 11361 10de 14       		.uleb128 0x14
 11362 10df 12000000 		.4byte	.LVL277
 11363 10e3 1E000000 		.4byte	.LVL279
 11364 10e7 0D00     		.2byte	0xd
 11365 10e9 71       		.byte	0x71
 11366 10ea 00       		.sleb128 0
 11367 10eb 32       		.byte	0x32
 11368 10ec 24       		.byte	0x24
 11369 10ed F3       		.byte	0xf3
 11370 10ee 01       		.uleb128 0x1
ARM GAS  /tmp/ccx4dzgE.s 			page 201


 11371 10ef 50       		.byte	0x50
 11372 10f0 22       		.byte	0x22
 11373 10f1 23       		.byte	0x23
 11374 10f2 0C       		.uleb128 0xc
 11375 10f3 06       		.byte	0x6
 11376 10f4 23       		.byte	0x23
 11377 10f5 14       		.uleb128 0x14
 11378 10f6 2A000000 		.4byte	.LVL280
 11379 10fa 30000000 		.4byte	.LVL282
 11380 10fe 0200     		.2byte	0x2
 11381 1100 72       		.byte	0x72
 11382 1101 14       		.sleb128 20
 11383 1102 30000000 		.4byte	.LVL282
 11384 1106 34000000 		.4byte	.LVL283
 11385 110a 0D00     		.2byte	0xd
 11386 110c 71       		.byte	0x71
 11387 110d 00       		.sleb128 0
 11388 110e 32       		.byte	0x32
 11389 110f 24       		.byte	0x24
 11390 1110 F3       		.byte	0xf3
 11391 1111 01       		.uleb128 0x1
 11392 1112 50       		.byte	0x50
 11393 1113 22       		.byte	0x22
 11394 1114 23       		.byte	0x23
 11395 1115 0C       		.uleb128 0xc
 11396 1116 06       		.byte	0x6
 11397 1117 23       		.byte	0x23
 11398 1118 14       		.uleb128 0x14
 11399 1119 00000000 		.4byte	0
 11400 111d 00000000 		.4byte	0
 11401              	.LLST119:
 11402 1121 10000000 		.4byte	.LVL276
 11403 1125 1A000000 		.4byte	.LVL278
 11404 1129 1100     		.2byte	0x11
 11405 112b 72       		.byte	0x72
 11406 112c 00       		.sleb128 0
 11407 112d 73       		.byte	0x73
 11408 112e 00       		.sleb128 0
 11409 112f 22       		.byte	0x22
 11410 1130 31       		.byte	0x31
 11411 1131 1C       		.byte	0x1c
 11412 1132 F7       		.byte	0xf7
 11413 1133 29       		.uleb128 0x29
 11414 1134 72       		.byte	0x72
 11415 1135 00       		.sleb128 0
 11416 1136 F7       		.byte	0xf7
 11417 1137 29       		.uleb128 0x29
 11418 1138 1B       		.byte	0x1b
 11419 1139 F7       		.byte	0xf7
 11420 113a 00       		.uleb128 0
 11421 113b 9F       		.byte	0x9f
 11422 113c 1A000000 		.4byte	.LVL278
 11423 1140 1E000000 		.4byte	.LVL279
 11424 1144 3300     		.2byte	0x33
 11425 1146 71       		.byte	0x71
 11426 1147 00       		.sleb128 0
 11427 1148 32       		.byte	0x32
ARM GAS  /tmp/ccx4dzgE.s 			page 202


 11428 1149 24       		.byte	0x24
 11429 114a F3       		.byte	0xf3
 11430 114b 01       		.uleb128 0x1
 11431 114c 50       		.byte	0x50
 11432 114d 22       		.byte	0x22
 11433 114e 23       		.byte	0x23
 11434 114f 0C       		.uleb128 0xc
 11435 1150 06       		.byte	0x6
 11436 1151 23       		.byte	0x23
 11437 1152 10       		.uleb128 0x10
 11438 1153 94       		.byte	0x94
 11439 1154 02       		.byte	0x2
 11440 1155 0A       		.byte	0xa
 11441 1156 FFFF     		.2byte	0xffff
 11442 1158 1A       		.byte	0x1a
 11443 1159 73       		.byte	0x73
 11444 115a 00       		.sleb128 0
 11445 115b 22       		.byte	0x22
 11446 115c 31       		.byte	0x31
 11447 115d 1C       		.byte	0x1c
 11448 115e F7       		.byte	0xf7
 11449 115f 29       		.uleb128 0x29
 11450 1160 71       		.byte	0x71
 11451 1161 00       		.sleb128 0
 11452 1162 32       		.byte	0x32
 11453 1163 24       		.byte	0x24
 11454 1164 F3       		.byte	0xf3
 11455 1165 01       		.uleb128 0x1
 11456 1166 50       		.byte	0x50
 11457 1167 22       		.byte	0x22
 11458 1168 23       		.byte	0x23
 11459 1169 0C       		.uleb128 0xc
 11460 116a 06       		.byte	0x6
 11461 116b 23       		.byte	0x23
 11462 116c 10       		.uleb128 0x10
 11463 116d 94       		.byte	0x94
 11464 116e 02       		.byte	0x2
 11465 116f 0A       		.byte	0xa
 11466 1170 FFFF     		.2byte	0xffff
 11467 1172 1A       		.byte	0x1a
 11468 1173 F7       		.byte	0xf7
 11469 1174 29       		.uleb128 0x29
 11470 1175 1B       		.byte	0x1b
 11471 1176 F7       		.byte	0xf7
 11472 1177 00       		.uleb128 0
 11473 1178 9F       		.byte	0x9f
 11474 1179 00000000 		.4byte	0
 11475 117d 00000000 		.4byte	0
 11476              	.LLST120:
 11477 1181 00000000 		.4byte	.LVL284
 11478 1185 0C000000 		.4byte	.LVL286
 11479 1189 0100     		.2byte	0x1
 11480 118b 50       		.byte	0x50
 11481 118c 0C000000 		.4byte	.LVL286
 11482 1190 10000000 		.4byte	.LFE150
 11483 1194 0400     		.2byte	0x4
 11484 1196 F3       		.byte	0xf3
ARM GAS  /tmp/ccx4dzgE.s 			page 203


 11485 1197 01       		.uleb128 0x1
 11486 1198 50       		.byte	0x50
 11487 1199 9F       		.byte	0x9f
 11488 119a 00000000 		.4byte	0
 11489 119e 00000000 		.4byte	0
 11490              	.LLST121:
 11491 11a2 00000000 		.4byte	.LVL284
 11492 11a6 02000000 		.4byte	.LVL285
 11493 11aa 0100     		.2byte	0x1
 11494 11ac 51       		.byte	0x51
 11495 11ad 02000000 		.4byte	.LVL285
 11496 11b1 10000000 		.4byte	.LFE150
 11497 11b5 0400     		.2byte	0x4
 11498 11b7 F3       		.byte	0xf3
 11499 11b8 01       		.uleb128 0x1
 11500 11b9 51       		.byte	0x51
 11501 11ba 9F       		.byte	0x9f
 11502 11bb 00000000 		.4byte	0
 11503 11bf 00000000 		.4byte	0
 11504              	.LLST122:
 11505 11c3 00000000 		.4byte	.LVL287
 11506 11c7 0A000000 		.4byte	.LVL288
 11507 11cb 0100     		.2byte	0x1
 11508 11cd 50       		.byte	0x50
 11509 11ce 0A000000 		.4byte	.LVL288
 11510 11d2 22000000 		.4byte	.LFE151
 11511 11d6 0400     		.2byte	0x4
 11512 11d8 F3       		.byte	0xf3
 11513 11d9 01       		.uleb128 0x1
 11514 11da 50       		.byte	0x50
 11515 11db 9F       		.byte	0x9f
 11516 11dc 00000000 		.4byte	0
 11517 11e0 00000000 		.4byte	0
 11518              	.LLST123:
 11519 11e4 00000000 		.4byte	.LVL287
 11520 11e8 1A000000 		.4byte	.LVL289
 11521 11ec 0100     		.2byte	0x1
 11522 11ee 51       		.byte	0x51
 11523 11ef 1A000000 		.4byte	.LVL289
 11524 11f3 22000000 		.4byte	.LFE151
 11525 11f7 0400     		.2byte	0x4
 11526 11f9 F3       		.byte	0xf3
 11527 11fa 01       		.uleb128 0x1
 11528 11fb 51       		.byte	0x51
 11529 11fc 9F       		.byte	0x9f
 11530 11fd 00000000 		.4byte	0
 11531 1201 00000000 		.4byte	0
 11532              	.LLST124:
 11533 1205 00000000 		.4byte	.LVL290
 11534 1209 0C000000 		.4byte	.LVL292
 11535 120d 0100     		.2byte	0x1
 11536 120f 50       		.byte	0x50
 11537 1210 0C000000 		.4byte	.LVL292
 11538 1214 10000000 		.4byte	.LFE152
 11539 1218 0400     		.2byte	0x4
 11540 121a F3       		.byte	0xf3
 11541 121b 01       		.uleb128 0x1
ARM GAS  /tmp/ccx4dzgE.s 			page 204


 11542 121c 50       		.byte	0x50
 11543 121d 9F       		.byte	0x9f
 11544 121e 00000000 		.4byte	0
 11545 1222 00000000 		.4byte	0
 11546              	.LLST125:
 11547 1226 00000000 		.4byte	.LVL290
 11548 122a 02000000 		.4byte	.LVL291
 11549 122e 0100     		.2byte	0x1
 11550 1230 51       		.byte	0x51
 11551 1231 02000000 		.4byte	.LVL291
 11552 1235 10000000 		.4byte	.LFE152
 11553 1239 0400     		.2byte	0x4
 11554 123b F3       		.byte	0xf3
 11555 123c 01       		.uleb128 0x1
 11556 123d 51       		.byte	0x51
 11557 123e 9F       		.byte	0x9f
 11558 123f 00000000 		.4byte	0
 11559 1243 00000000 		.4byte	0
 11560              	.LLST126:
 11561 1247 00000000 		.4byte	.LVL293
 11562 124b 0C000000 		.4byte	.LVL295
 11563 124f 0100     		.2byte	0x1
 11564 1251 50       		.byte	0x50
 11565 1252 0C000000 		.4byte	.LVL295
 11566 1256 10000000 		.4byte	.LFE153
 11567 125a 0400     		.2byte	0x4
 11568 125c F3       		.byte	0xf3
 11569 125d 01       		.uleb128 0x1
 11570 125e 50       		.byte	0x50
 11571 125f 9F       		.byte	0x9f
 11572 1260 00000000 		.4byte	0
 11573 1264 00000000 		.4byte	0
 11574              	.LLST127:
 11575 1268 00000000 		.4byte	.LVL293
 11576 126c 02000000 		.4byte	.LVL294
 11577 1270 0100     		.2byte	0x1
 11578 1272 51       		.byte	0x51
 11579 1273 02000000 		.4byte	.LVL294
 11580 1277 10000000 		.4byte	.LFE153
 11581 127b 0400     		.2byte	0x4
 11582 127d F3       		.byte	0xf3
 11583 127e 01       		.uleb128 0x1
 11584 127f 51       		.byte	0x51
 11585 1280 9F       		.byte	0x9f
 11586 1281 00000000 		.4byte	0
 11587 1285 00000000 		.4byte	0
 11588              	.LLST128:
 11589 1289 00000000 		.4byte	.LVL296
 11590 128d 0C000000 		.4byte	.LVL298
 11591 1291 0100     		.2byte	0x1
 11592 1293 50       		.byte	0x50
 11593 1294 0C000000 		.4byte	.LVL298
 11594 1298 10000000 		.4byte	.LFE154
 11595 129c 0400     		.2byte	0x4
 11596 129e F3       		.byte	0xf3
 11597 129f 01       		.uleb128 0x1
 11598 12a0 50       		.byte	0x50
ARM GAS  /tmp/ccx4dzgE.s 			page 205


 11599 12a1 9F       		.byte	0x9f
 11600 12a2 00000000 		.4byte	0
 11601 12a6 00000000 		.4byte	0
 11602              	.LLST129:
 11603 12aa 00000000 		.4byte	.LVL296
 11604 12ae 02000000 		.4byte	.LVL297
 11605 12b2 0100     		.2byte	0x1
 11606 12b4 51       		.byte	0x51
 11607 12b5 02000000 		.4byte	.LVL297
 11608 12b9 10000000 		.4byte	.LFE154
 11609 12bd 0400     		.2byte	0x4
 11610 12bf F3       		.byte	0xf3
 11611 12c0 01       		.uleb128 0x1
 11612 12c1 51       		.byte	0x51
 11613 12c2 9F       		.byte	0x9f
 11614 12c3 00000000 		.4byte	0
 11615 12c7 00000000 		.4byte	0
 11616              	.LLST130:
 11617 12cb 00000000 		.4byte	.LVL299
 11618 12cf 0C000000 		.4byte	.LVL301
 11619 12d3 0100     		.2byte	0x1
 11620 12d5 50       		.byte	0x50
 11621 12d6 0C000000 		.4byte	.LVL301
 11622 12da 10000000 		.4byte	.LFE155
 11623 12de 0400     		.2byte	0x4
 11624 12e0 F3       		.byte	0xf3
 11625 12e1 01       		.uleb128 0x1
 11626 12e2 50       		.byte	0x50
 11627 12e3 9F       		.byte	0x9f
 11628 12e4 00000000 		.4byte	0
 11629 12e8 00000000 		.4byte	0
 11630              	.LLST131:
 11631 12ec 00000000 		.4byte	.LVL299
 11632 12f0 02000000 		.4byte	.LVL300
 11633 12f4 0100     		.2byte	0x1
 11634 12f6 51       		.byte	0x51
 11635 12f7 02000000 		.4byte	.LVL300
 11636 12fb 10000000 		.4byte	.LFE155
 11637 12ff 0400     		.2byte	0x4
 11638 1301 F3       		.byte	0xf3
 11639 1302 01       		.uleb128 0x1
 11640 1303 51       		.byte	0x51
 11641 1304 9F       		.byte	0x9f
 11642 1305 00000000 		.4byte	0
 11643 1309 00000000 		.4byte	0
 11644              		.section	.debug_aranges,"",%progbits
 11645 0000 D4000000 		.4byte	0xd4
 11646 0004 0200     		.2byte	0x2
 11647 0006 00000000 		.4byte	.Ldebug_info0
 11648 000a 04       		.byte	0x4
 11649 000b 00       		.byte	0
 11650 000c 0000     		.2byte	0
 11651 000e 0000     		.2byte	0
 11652 0010 00000000 		.4byte	.LFB120
 11653 0014 82000000 		.4byte	.LFE120-.LFB120
 11654 0018 00000000 		.4byte	.LFB134
 11655 001c 5C000000 		.4byte	.LFE134-.LFB134
ARM GAS  /tmp/ccx4dzgE.s 			page 206


 11656 0020 00000000 		.4byte	.LFB122
 11657 0024 16000000 		.4byte	.LFE122-.LFB122
 11658 0028 00000000 		.4byte	.LFB136
 11659 002c 96040000 		.4byte	.LFE136-.LFB136
 11660 0030 00000000 		.4byte	.LFB133
 11661 0034 80000000 		.4byte	.LFE133-.LFB133
 11662 0038 00000000 		.4byte	.LFB137
 11663 003c 00010000 		.4byte	.LFE137-.LFB137
 11664 0040 00000000 		.4byte	.LFB138
 11665 0044 28000000 		.4byte	.LFE138-.LFB138
 11666 0048 00000000 		.4byte	.LFB139
 11667 004c DC000000 		.4byte	.LFE139-.LFB139
 11668 0050 00000000 		.4byte	.LFB140
 11669 0054 1E000000 		.4byte	.LFE140-.LFB140
 11670 0058 00000000 		.4byte	.LFB141
 11671 005c 2C010000 		.4byte	.LFE141-.LFB141
 11672 0060 00000000 		.4byte	.LFB142
 11673 0064 18000000 		.4byte	.LFE142-.LFB142
 11674 0068 00000000 		.4byte	.LFB143
 11675 006c 3A010000 		.4byte	.LFE143-.LFB143
 11676 0070 00000000 		.4byte	.LFB144
 11677 0074 0A000000 		.4byte	.LFE144-.LFB144
 11678 0078 00000000 		.4byte	.LFB145
 11679 007c 1A000000 		.4byte	.LFE145-.LFB145
 11680 0080 00000000 		.4byte	.LFB146
 11681 0084 1A000000 		.4byte	.LFE146-.LFB146
 11682 0088 00000000 		.4byte	.LFB147
 11683 008c 12000000 		.4byte	.LFE147-.LFB147
 11684 0090 00000000 		.4byte	.LFB148
 11685 0094 2C000000 		.4byte	.LFE148-.LFB148
 11686 0098 00000000 		.4byte	.LFB149
 11687 009c 3A000000 		.4byte	.LFE149-.LFB149
 11688 00a0 00000000 		.4byte	.LFB150
 11689 00a4 10000000 		.4byte	.LFE150-.LFB150
 11690 00a8 00000000 		.4byte	.LFB151
 11691 00ac 22000000 		.4byte	.LFE151-.LFB151
 11692 00b0 00000000 		.4byte	.LFB152
 11693 00b4 10000000 		.4byte	.LFE152-.LFB152
 11694 00b8 00000000 		.4byte	.LFB153
 11695 00bc 10000000 		.4byte	.LFE153-.LFB153
 11696 00c0 00000000 		.4byte	.LFB154
 11697 00c4 10000000 		.4byte	.LFE154-.LFB154
 11698 00c8 00000000 		.4byte	.LFB155
 11699 00cc 10000000 		.4byte	.LFE155-.LFB155
 11700 00d0 00000000 		.4byte	0
 11701 00d4 00000000 		.4byte	0
 11702              		.section	.debug_ranges,"",%progbits
 11703              	.Ldebug_ranges0:
 11704 0000 18000000 		.4byte	.LBB85
 11705 0004 1A000000 		.4byte	.LBE85
 11706 0008 1C000000 		.4byte	.LBB86
 11707 000c 20000000 		.4byte	.LBE86
 11708 0010 00000000 		.4byte	0
 11709 0014 00000000 		.4byte	0
 11710 0018 20000000 		.4byte	.LBB87
 11711 001c 0A010000 		.4byte	.LBE87
 11712 0020 0C010000 		.4byte	.LBB154
ARM GAS  /tmp/ccx4dzgE.s 			page 207


 11713 0024 96040000 		.4byte	.LBE154
 11714 0028 00000000 		.4byte	0
 11715 002c 00000000 		.4byte	0
 11716 0030 20000000 		.4byte	.LBB88
 11717 0034 24000000 		.4byte	.LBE88
 11718 0038 5A000000 		.4byte	.LBB89
 11719 003c 62000000 		.4byte	.LBE89
 11720 0040 00000000 		.4byte	0
 11721 0044 00000000 		.4byte	0
 11722 0048 6C000000 		.4byte	.LBB90
 11723 004c D8000000 		.4byte	.LBE90
 11724 0050 0C010000 		.4byte	.LBB118
 11725 0054 60020000 		.4byte	.LBE118
 11726 0058 00000000 		.4byte	0
 11727 005c 00000000 		.4byte	0
 11728 0060 6C000000 		.4byte	.LBB91
 11729 0064 D8000000 		.4byte	.LBE91
 11730 0068 0C010000 		.4byte	.LBB116
 11731 006c 60020000 		.4byte	.LBE116
 11732 0070 00000000 		.4byte	0
 11733 0074 00000000 		.4byte	0
 11734 0078 90000000 		.4byte	.LBB92
 11735 007c 94000000 		.4byte	.LBE92
 11736 0080 96000000 		.4byte	.LBB100
 11737 0084 D8000000 		.4byte	.LBE100
 11738 0088 00000000 		.4byte	0
 11739 008c 00000000 		.4byte	0
 11740 0090 9E000000 		.4byte	.LBB94
 11741 0094 A0000000 		.4byte	.LBE94
 11742 0098 A2000000 		.4byte	.LBB95
 11743 009c AC000000 		.4byte	.LBE95
 11744 00a0 B2000000 		.4byte	.LBB96
 11745 00a4 B6000000 		.4byte	.LBE96
 11746 00a8 B8000000 		.4byte	.LBB97
 11747 00ac BC000000 		.4byte	.LBE97
 11748 00b0 BE000000 		.4byte	.LBB98
 11749 00b4 D4000000 		.4byte	.LBE98
 11750 00b8 00000000 		.4byte	0
 11751 00bc 00000000 		.4byte	0
 11752 00c0 42010000 		.4byte	.LBB103
 11753 00c4 50010000 		.4byte	.LBE103
 11754 00c8 5A010000 		.4byte	.LBB104
 11755 00cc 66010000 		.4byte	.LBE104
 11756 00d0 6C010000 		.4byte	.LBB105
 11757 00d4 82010000 		.4byte	.LBE105
 11758 00d8 00000000 		.4byte	0
 11759 00dc 00000000 		.4byte	0
 11760 00e0 AC010000 		.4byte	.LBB109
 11761 00e4 AE010000 		.4byte	.LBE109
 11762 00e8 B0010000 		.4byte	.LBB110
 11763 00ec B8010000 		.4byte	.LBE110
 11764 00f0 BA010000 		.4byte	.LBB111
 11765 00f4 BE010000 		.4byte	.LBE111
 11766 00f8 00000000 		.4byte	0
 11767 00fc 00000000 		.4byte	0
 11768 0100 7C020000 		.4byte	.LBB121
 11769 0104 7E020000 		.4byte	.LBE121
ARM GAS  /tmp/ccx4dzgE.s 			page 208


 11770 0108 82020000 		.4byte	.LBB122
 11771 010c 86020000 		.4byte	.LBE122
 11772 0110 00000000 		.4byte	0
 11773 0114 00000000 		.4byte	0
 11774 0118 86020000 		.4byte	.LBB123
 11775 011c 50030000 		.4byte	.LBE123
 11776 0120 7A030000 		.4byte	.LBB153
 11777 0124 96040000 		.4byte	.LBE153
 11778 0128 00000000 		.4byte	0
 11779 012c 00000000 		.4byte	0
 11780 0130 86020000 		.4byte	.LBB124
 11781 0134 50030000 		.4byte	.LBE124
 11782 0138 7A030000 		.4byte	.LBB150
 11783 013c 96040000 		.4byte	.LBE150
 11784 0140 00000000 		.4byte	0
 11785 0144 00000000 		.4byte	0
 11786 0148 CC020000 		.4byte	.LBB125
 11787 014c D2020000 		.4byte	.LBE125
 11788 0150 D8020000 		.4byte	.LBB135
 11789 0154 DA020000 		.4byte	.LBE135
 11790 0158 E0020000 		.4byte	.LBB136
 11791 015c 18030000 		.4byte	.LBE136
 11792 0160 00000000 		.4byte	0
 11793 0164 00000000 		.4byte	0
 11794 0168 CE020000 		.4byte	.LBB127
 11795 016c D2020000 		.4byte	.LBE127
 11796 0170 D8020000 		.4byte	.LBB131
 11797 0174 DA020000 		.4byte	.LBE131
 11798 0178 E0020000 		.4byte	.LBB132
 11799 017c 18030000 		.4byte	.LBE132
 11800 0180 00000000 		.4byte	0
 11801 0184 00000000 		.4byte	0
 11802 0188 4E030000 		.4byte	.LBB137
 11803 018c 50030000 		.4byte	.LBE137
 11804 0190 80030000 		.4byte	.LBB149
 11805 0194 96040000 		.4byte	.LBE149
 11806 0198 00000000 		.4byte	0
 11807 019c 00000000 		.4byte	0
 11808 01a0 4E030000 		.4byte	.LBB138
 11809 01a4 50030000 		.4byte	.LBE138
 11810 01a8 80030000 		.4byte	.LBB148
 11811 01ac 96040000 		.4byte	.LBE148
 11812 01b0 00000000 		.4byte	0
 11813 01b4 00000000 		.4byte	0
 11814 01b8 8A030000 		.4byte	.LBB139
 11815 01bc EA030000 		.4byte	.LBE139
 11816 01c0 22040000 		.4byte	.LBB147
 11817 01c4 84040000 		.4byte	.LBE147
 11818 01c8 00000000 		.4byte	0
 11819 01cc 00000000 		.4byte	0
 11820 01d0 44000000 		.4byte	.LBB160
 11821 01d4 46000000 		.4byte	.LBE160
 11822 01d8 52000000 		.4byte	.LBB163
 11823 01dc 5C000000 		.4byte	.LBE163
 11824 01e0 00000000 		.4byte	0
 11825 01e4 00000000 		.4byte	0
 11826 01e8 02000000 		.4byte	.LBB171
ARM GAS  /tmp/ccx4dzgE.s 			page 209


 11827 01ec 58000000 		.4byte	.LBE171
 11828 01f0 60000000 		.4byte	.LBB180
 11829 01f4 00010000 		.4byte	.LBE180
 11830 01f8 00000000 		.4byte	0
 11831 01fc 00000000 		.4byte	0
 11832 0200 02000000 		.4byte	.LBB172
 11833 0204 58000000 		.4byte	.LBE172
 11834 0208 60000000 		.4byte	.LBB179
 11835 020c 00010000 		.4byte	.LBE179
 11836 0210 00000000 		.4byte	0
 11837 0214 00000000 		.4byte	0
 11838 0218 88000000 		.4byte	.LBB174
 11839 021c 8A000000 		.4byte	.LBE174
 11840 0220 90000000 		.4byte	.LBB177
 11841 0224 9C000000 		.4byte	.LBE177
 11842 0228 00000000 		.4byte	0
 11843 022c 00000000 		.4byte	0
 11844 0230 26000000 		.4byte	.LBB183
 11845 0234 28000000 		.4byte	.LBE183
 11846 0238 3A000000 		.4byte	.LBB187
 11847 023c 3C000000 		.4byte	.LBE187
 11848 0240 46000000 		.4byte	.LBB188
 11849 0244 5A000000 		.4byte	.LBE188
 11850 0248 00000000 		.4byte	0
 11851 024c 00000000 		.4byte	0
 11852 0250 26000000 		.4byte	.LBB184
 11853 0254 28000000 		.4byte	.LBE184
 11854 0258 3A000000 		.4byte	.LBB185
 11855 025c 3C000000 		.4byte	.LBE185
 11856 0260 46000000 		.4byte	.LBB186
 11857 0264 5A000000 		.4byte	.LBE186
 11858 0268 00000000 		.4byte	0
 11859 026c 00000000 		.4byte	0
 11860 0270 A0000000 		.4byte	.LBB195
 11861 0274 A4000000 		.4byte	.LBE195
 11862 0278 BA000000 		.4byte	.LBB203
 11863 027c BE000000 		.4byte	.LBE203
 11864 0280 00000000 		.4byte	0
 11865 0284 00000000 		.4byte	0
 11866 0288 A4000000 		.4byte	.LBB198
 11867 028c A8000000 		.4byte	.LBE198
 11868 0290 B0000000 		.4byte	.LBB202
 11869 0294 B2000000 		.4byte	.LBE202
 11870 0298 C0000000 		.4byte	.LBB204
 11871 029c D0000000 		.4byte	.LBE204
 11872 02a0 00000000 		.4byte	0
 11873 02a4 00000000 		.4byte	0
 11874 02a8 A4000000 		.4byte	.LBB199
 11875 02ac A8000000 		.4byte	.LBE199
 11876 02b0 B0000000 		.4byte	.LBB200
 11877 02b4 B2000000 		.4byte	.LBE200
 11878 02b8 C0000000 		.4byte	.LBB201
 11879 02bc D0000000 		.4byte	.LBE201
 11880 02c0 00000000 		.4byte	0
 11881 02c4 00000000 		.4byte	0
 11882 02c8 D4000000 		.4byte	.LBB205
 11883 02cc D8000000 		.4byte	.LBE205
ARM GAS  /tmp/ccx4dzgE.s 			page 210


 11884 02d0 00010000 		.4byte	.LBB209
 11885 02d4 04010000 		.4byte	.LBE209
 11886 02d8 1C010000 		.4byte	.LBB210
 11887 02dc 20010000 		.4byte	.LBE210
 11888 02e0 00000000 		.4byte	0
 11889 02e4 00000000 		.4byte	0
 11890 02e8 D4000000 		.4byte	.LBB206
 11891 02ec D8000000 		.4byte	.LBE206
 11892 02f0 00010000 		.4byte	.LBB207
 11893 02f4 04010000 		.4byte	.LBE207
 11894 02f8 1C010000 		.4byte	.LBB208
 11895 02fc 20010000 		.4byte	.LBE208
 11896 0300 00000000 		.4byte	0
 11897 0304 00000000 		.4byte	0
 11898 0308 82000000 		.4byte	.LBB211
 11899 030c 84000000 		.4byte	.LBE211
 11900 0310 8C000000 		.4byte	.LBB214
 11901 0314 90000000 		.4byte	.LBE214
 11902 0318 00000000 		.4byte	0
 11903 031c 00000000 		.4byte	0
 11904 0320 82000000 		.4byte	.LBB212
 11905 0324 84000000 		.4byte	.LBE212
 11906 0328 8C000000 		.4byte	.LBB213
 11907 032c 90000000 		.4byte	.LBE213
 11908 0330 00000000 		.4byte	0
 11909 0334 00000000 		.4byte	0
 11910 0338 00000000 		.4byte	.LFB120
 11911 033c 82000000 		.4byte	.LFE120
 11912 0340 00000000 		.4byte	.LFB134
 11913 0344 5C000000 		.4byte	.LFE134
 11914 0348 00000000 		.4byte	.LFB122
 11915 034c 16000000 		.4byte	.LFE122
 11916 0350 00000000 		.4byte	.LFB136
 11917 0354 96040000 		.4byte	.LFE136
 11918 0358 00000000 		.4byte	.LFB133
 11919 035c 80000000 		.4byte	.LFE133
 11920 0360 00000000 		.4byte	.LFB137
 11921 0364 00010000 		.4byte	.LFE137
 11922 0368 00000000 		.4byte	.LFB138
 11923 036c 28000000 		.4byte	.LFE138
 11924 0370 00000000 		.4byte	.LFB139
 11925 0374 DC000000 		.4byte	.LFE139
 11926 0378 00000000 		.4byte	.LFB140
 11927 037c 1E000000 		.4byte	.LFE140
 11928 0380 00000000 		.4byte	.LFB141
 11929 0384 2C010000 		.4byte	.LFE141
 11930 0388 00000000 		.4byte	.LFB142
 11931 038c 18000000 		.4byte	.LFE142
 11932 0390 00000000 		.4byte	.LFB143
 11933 0394 3A010000 		.4byte	.LFE143
 11934 0398 00000000 		.4byte	.LFB144
 11935 039c 0A000000 		.4byte	.LFE144
 11936 03a0 00000000 		.4byte	.LFB145
 11937 03a4 1A000000 		.4byte	.LFE145
 11938 03a8 00000000 		.4byte	.LFB146
 11939 03ac 1A000000 		.4byte	.LFE146
 11940 03b0 00000000 		.4byte	.LFB147
ARM GAS  /tmp/ccx4dzgE.s 			page 211


 11941 03b4 12000000 		.4byte	.LFE147
 11942 03b8 00000000 		.4byte	.LFB148
 11943 03bc 2C000000 		.4byte	.LFE148
 11944 03c0 00000000 		.4byte	.LFB149
 11945 03c4 3A000000 		.4byte	.LFE149
 11946 03c8 00000000 		.4byte	.LFB150
 11947 03cc 10000000 		.4byte	.LFE150
 11948 03d0 00000000 		.4byte	.LFB151
 11949 03d4 22000000 		.4byte	.LFE151
 11950 03d8 00000000 		.4byte	.LFB152
 11951 03dc 10000000 		.4byte	.LFE152
 11952 03e0 00000000 		.4byte	.LFB153
 11953 03e4 10000000 		.4byte	.LFE153
 11954 03e8 00000000 		.4byte	.LFB154
 11955 03ec 10000000 		.4byte	.LFE154
 11956 03f0 00000000 		.4byte	.LFB155
 11957 03f4 10000000 		.4byte	.LFE155
 11958 03f8 00000000 		.4byte	0
 11959 03fc 00000000 		.4byte	0
 11960              		.section	.debug_line,"",%progbits
 11961              	.Ldebug_line0:
 11962 0000 09080000 		.section	.debug_str,"MS",%progbits,1
 11962      02005302 
 11962      00000201 
 11962      FB0E0D00 
 11962      01010101 
 11963              	.LASF11:
 11964 0000 73697A65 		.ascii	"size_t\000"
 11964      5F7400
 11965              	.LASF133:
 11966 0007 54494D38 		.ascii	"TIM8_UP_TIM13_IRQn\000"
 11966      5F55505F 
 11966      54494D31 
 11966      335F4952 
 11966      516E00
 11967              	.LASF8:
 11968 001a 73697A65 		.ascii	"sizetype\000"
 11968      74797065 
 11968      00
 11969              	.LASF26:
 11970 0023 73797374 		.ascii	"systime_t\000"
 11970      696D655F 
 11970      7400
 11971              	.LASF197:
 11972 002d 504C4C49 		.ascii	"PLLI2SCFGR\000"
 11972      32534346 
 11972      475200
 11973              	.LASF31:
 11974 0038 705F6374 		.ascii	"p_ctx\000"
 11974      7800
 11975              	.LASF23:
 11976 003e 74707269 		.ascii	"tprio_t\000"
 11976      6F5F7400 
 11977              	.LASF41:
 11978 0046 705F6D73 		.ascii	"p_msgqueue\000"
 11978      67717565 
 11978      756500
ARM GAS  /tmp/ccx4dzgE.s 			page 212


 11979              	.LASF55:
 11980 0051 725F6374 		.ascii	"r_ctx\000"
 11980      7800
 11981              	.LASF14:
 11982 0057 696E7433 		.ascii	"int32_t\000"
 11982      325F7400 
 11983              	.LASF265:
 11984 005f 72657376 		.ascii	"resvd4\000"
 11984      643400
 11985              	.LASF256:
 11986 0066 72657376 		.ascii	"resvd8\000"
 11986      643800
 11987              	.LASF369:
 11988 006d 6F74675F 		.ascii	"otg_fifo_read_to_buffer\000"
 11988      6669666F 
 11988      5F726561 
 11988      645F746F 
 11988      5F627566 
 11989              	.LASF267:
 11990 0085 72657376 		.ascii	"resvdC\000"
 11990      644300
 11991              	.LASF410:
 11992 008c 7573625F 		.ascii	"usb_lld_prepare_transmit\000"
 11992      6C6C645F 
 11992      70726570 
 11992      6172655F 
 11992      7472616E 
 11993              	.LASF430:
 11994 00a5 63685363 		.ascii	"chSchReadyI\000"
 11994      68526561 
 11994      64794900 
 11995              	.LASF415:
 11996 00b1 7573625F 		.ascii	"usb_lld_clear_out\000"
 11996      6C6C645F 
 11996      636C6561 
 11996      725F6F75 
 11996      7400
 11997              	.LASF406:
 11998 00c3 7573625F 		.ascii	"usb_lld_get_status_in\000"
 11998      6C6C645F 
 11998      6765745F 
 11998      73746174 
 11998      75735F69 
 11999              	.LASF233:
 12000 00d9 5553425F 		.ascii	"USB_EP0_TX\000"
 12000      4550305F 
 12000      545800
 12001              	.LASF146:
 12002 00e4 444D4132 		.ascii	"DMA2_Stream1_IRQn\000"
 12002      5F537472 
 12002      65616D31 
 12002      5F495251 
 12002      6E00
 12003              	.LASF365:
 12004 00f6 6669666F 		.ascii	"fifop\000"
 12004      7000
 12005              	.LASF432:
ARM GAS  /tmp/ccx4dzgE.s 			page 213


 12006 00fc 474E5520 		.ascii	"GNU C 4.7.4 20130613 (release) [ARM/embedded-4_7-br"
 12006      4320342E 
 12006      372E3420 
 12006      32303133 
 12006      30363133 
 12007 012f 616E6368 		.ascii	"anch revision 200083]\000"
 12007      20726576 
 12007      6973696F 
 12007      6E203230 
 12007      30303833 
 12008              	.LASF140:
 12009 0145 53504933 		.ascii	"SPI3_IRQn\000"
 12009      5F495251 
 12009      6E00
 12010              	.LASF93:
 12011 014f 464C4153 		.ascii	"FLASH_IRQn\000"
 12011      485F4952 
 12011      516E00
 12012              	.LASF305:
 12013 015a 72657376 		.ascii	"resvd700\000"
 12013      64373030 
 12013      00
 12014              	.LASF167:
 12015 0163 44434D49 		.ascii	"DCMI_IRQn\000"
 12015      5F495251 
 12015      6E00
 12016              	.LASF403:
 12017 016d 6673697A 		.ascii	"fsize\000"
 12017      6500
 12018              	.LASF202:
 12019 0173 636F6E66 		.ascii	"config\000"
 12019      696700
 12020              	.LASF201:
 12021 017a 73746174 		.ascii	"state\000"
 12021      6500
 12022              	.LASF349:
 12023 0180 65705F6D 		.ascii	"ep_mode\000"
 12023      6F646500 
 12024              	.LASF413:
 12025 0188 7573625F 		.ascii	"usb_lld_stall_out\000"
 12025      6C6C645F 
 12025      7374616C 
 12025      6C5F6F75 
 12025      7400
 12026              	.LASF226:
 12027 019a 5553425F 		.ascii	"USB_ACTIVE\000"
 12027      41435449 
 12027      564500
 12028              	.LASF117:
 12029 01a5 54494D32 		.ascii	"TIM2_IRQn\000"
 12029      5F495251 
 12029      6E00
 12030              	.LASF402:
 12031 01af 7573625F 		.ascii	"usb_lld_init_endpoint\000"
 12031      6C6C645F 
 12031      696E6974 
 12031      5F656E64 
ARM GAS  /tmp/ccx4dzgE.s 			page 214


 12031      706F696E 
 12032              	.LASF153:
 12033 01c5 43414E32 		.ascii	"CAN2_RX0_IRQn\000"
 12033      5F525830 
 12033      5F495251 
 12033      6E00
 12034              	.LASF160:
 12035 01d3 55534152 		.ascii	"USART6_IRQn\000"
 12035      54365F49 
 12035      52516E00 
 12036              	.LASF398:
 12037 01df 7573625F 		.ascii	"usb_lld_stop\000"
 12037      6C6C645F 
 12037      73746F70 
 12037      00
 12038              	.LASF62:
 12039 01ec 6D5F6F77 		.ascii	"m_owner\000"
 12039      6E657200 
 12040              	.LASF65:
 12041 01f4 65786974 		.ascii	"exitcode\000"
 12041      636F6465 
 12041      00
 12042              	.LASF239:
 12043 01fd 75736265 		.ascii	"usbep0state_t\000"
 12043      70307374 
 12043      6174655F 
 12043      7400
 12044              	.LASF165:
 12045 020b 4F54475F 		.ascii	"OTG_HS_WKUP_IRQn\000"
 12045      48535F57 
 12045      4B55505F 
 12045      4952516E 
 12045      00
 12046              	.LASF73:
 12047 021c 715F746F 		.ascii	"q_top\000"
 12047      7000
 12048              	.LASF67:
 12049 0222 65776D61 		.ascii	"ewmask\000"
 12049      736B00
 12050              	.LASF132:
 12051 0229 54494D38 		.ascii	"TIM8_BRK_TIM12_IRQn\000"
 12051      5F42524B 
 12051      5F54494D 
 12051      31325F49 
 12051      52516E00 
 12052              	.LASF188:
 12053 023d 41484232 		.ascii	"AHB2LPENR\000"
 12053      4C50454E 
 12053      5200
 12054              	.LASF231:
 12055 0247 75736265 		.ascii	"usbepstatus_t\000"
 12055      70737461 
 12055      7475735F 
 12055      7400
 12056              	.LASF72:
 12057 0255 715F6275 		.ascii	"q_buffer\000"
 12057      66666572 
ARM GAS  /tmp/ccx4dzgE.s 			page 215


 12057      00
 12058              	.LASF241:
 12059 025e 5553425F 		.ascii	"USB_EVENT_ADDRESS\000"
 12059      4556454E 
 12059      545F4144 
 12059      44524553 
 12059      5300
 12060              	.LASF286:
 12061 0270 44494550 		.ascii	"DIEPTXF0\000"
 12061      54584630 
 12061      00
 12062              	.LASF76:
 12063 0279 715F6E6F 		.ascii	"q_notify\000"
 12063      74696679 
 12063      00
 12064              	.LASF32:
 12065 0282 705F6E65 		.ascii	"p_newer\000"
 12065      77657200 
 12066              	.LASF382:
 12067 028a 6669666F 		.ascii	"fifo\000"
 12067      00
 12068              	.LASF7:
 12069 028f 6C6F6E67 		.ascii	"long int\000"
 12069      20696E74 
 12069      00
 12070              	.LASF28:
 12071 0298 705F6E65 		.ascii	"p_next\000"
 12071      787400
 12072              	.LASF75:
 12073 029f 715F7264 		.ascii	"q_rdptr\000"
 12073      70747200 
 12074              	.LASF29:
 12075 02a7 705F7072 		.ascii	"p_prev\000"
 12075      657600
 12076              	.LASF157:
 12077 02ae 444D4132 		.ascii	"DMA2_Stream5_IRQn\000"
 12077      5F537472 
 12077      65616D35 
 12077      5F495251 
 12077      6E00
 12078              	.LASF20:
 12079 02c0 74737461 		.ascii	"tstate_t\000"
 12079      74655F74 
 12079      00
 12080              	.LASF354:
 12081 02c9 6F75745F 		.ascii	"out_maxsize\000"
 12081      6D617873 
 12081      697A6500 
 12082              	.LASF44:
 12083 02d5 705F6D74 		.ascii	"p_mtxlist\000"
 12083      786C6973 
 12083      7400
 12084              	.LASF115:
 12085 02df 54494D31 		.ascii	"TIM1_TRG_COM_TIM11_IRQn\000"
 12085      5F545247 
 12085      5F434F4D 
 12085      5F54494D 
ARM GAS  /tmp/ccx4dzgE.s 			page 216


 12085      31315F49 
 12086              	.LASF219:
 12087 02f7 7468645F 		.ascii	"thd_wait\000"
 12087      77616974 
 12087      00
 12088              	.LASF334:
 12089 0300 74786275 		.ascii	"txbuf\000"
 12089      6600
 12090              	.LASF370:
 12091 0306 6F74675F 		.ascii	"otg_fifo_write_from_buffer\000"
 12091      6669666F 
 12091      5F777269 
 12091      74655F66 
 12091      726F6D5F 
 12092              	.LASF49:
 12093 0321 72656761 		.ascii	"regarm_t\000"
 12093      726D5F74 
 12093      00
 12094              	.LASF389:
 12095 032a 6F74675F 		.ascii	"otg_fifo_write_from_queue\000"
 12095      6669666F 
 12095      5F777269 
 12095      74655F66 
 12095      726F6D5F 
 12096              	.LASF312:
 12097 0344 4441494E 		.ascii	"DAINT\000"
 12097      5400
 12098              	.LASF232:
 12099 034a 5553425F 		.ascii	"USB_EP0_WAITING_SETUP\000"
 12099      4550305F 
 12099      57414954 
 12099      494E475F 
 12099      53455455 
 12100              	.LASF311:
 12101 0360 444F4550 		.ascii	"DOEPMSK\000"
 12101      4D534B00 
 12102              	.LASF185:
 12103 0368 41504232 		.ascii	"APB2ENR\000"
 12103      454E5200 
 12104              	.LASF325:
 12105 0370 72657376 		.ascii	"resvdD00\000"
 12105      64443030 
 12105      00
 12106              	.LASF187:
 12107 0379 41484231 		.ascii	"AHB1LPENR\000"
 12107      4C50454E 
 12107      5200
 12108              	.LASF88:
 12109 0383 53797354 		.ascii	"SysTick_IRQn\000"
 12109      69636B5F 
 12109      4952516E 
 12109      00
 12110              	.LASF128:
 12111 0390 55534152 		.ascii	"USART3_IRQn\000"
 12111      54335F49 
 12111      52516E00 
 12112              	.LASF1:
ARM GAS  /tmp/ccx4dzgE.s 			page 217


 12113 039c 7369676E 		.ascii	"signed char\000"
 12113      65642063 
 12113      68617200 
 12114              	.LASF38:
 12115 03a8 705F7072 		.ascii	"p_preempt\000"
 12115      65656D70 
 12115      7400
 12116              	.LASF12:
 12117 03b2 75696E74 		.ascii	"uint8_t\000"
 12117      385F7400 
 12118              	.LASF429:
 12119 03ba 7573624F 		.ascii	"usbObjectInit\000"
 12119      626A6563 
 12119      74496E69 
 12119      7400
 12120              	.LASF245:
 12121 03c8 5553425F 		.ascii	"USB_EVENT_STALLED\000"
 12121      4556454E 
 12121      545F5354 
 12121      414C4C45 
 12121      4400
 12122              	.LASF230:
 12123 03da 45505F53 		.ascii	"EP_STATUS_ACTIVE\000"
 12123      54415455 
 12123      535F4143 
 12123      54495645 
 12123      00
 12124              	.LASF273:
 12125 03eb 444F4550 		.ascii	"DOEPINT\000"
 12125      494E5400 
 12126              	.LASF25:
 12127 03f3 6576656E 		.ascii	"eventmask_t\000"
 12127      746D6173 
 12127      6B5F7400 
 12128              	.LASF52:
 12129 03ff 636F6E74 		.ascii	"context\000"
 12129      65787400 
 12130              	.LASF346:
 12131 0407 72787369 		.ascii	"rxsize\000"
 12131      7A6500
 12132              	.LASF417:
 12133 040e 6570305F 		.ascii	"ep0_state\000"
 12133      73746174 
 12133      6500
 12134              	.LASF102:
 12135 0418 444D4131 		.ascii	"DMA1_Stream2_IRQn\000"
 12135      5F537472 
 12135      65616D32 
 12135      5F495251 
 12135      6E00
 12136              	.LASF426:
 12137 042a 5F757362 		.ascii	"_usb_reset\000"
 12137      5F726573 
 12137      657400
 12138              	.LASF176:
 12139 0435 52455345 		.ascii	"RESERVED0\000"
 12139      52564544 
ARM GAS  /tmp/ccx4dzgE.s 			page 218


 12139      3000
 12140              	.LASF179:
 12141 043f 52455345 		.ascii	"RESERVED1\000"
 12141      52564544 
 12141      3100
 12142              	.LASF2:
 12143 0449 756E7369 		.ascii	"unsigned char\000"
 12143      676E6564 
 12143      20636861 
 12143      7200
 12144              	.LASF149:
 12145 0457 444D4132 		.ascii	"DMA2_Stream4_IRQn\000"
 12145      5F537472 
 12145      65616D34 
 12145      5F495251 
 12145      6E00
 12146              	.LASF190:
 12147 0469 52455345 		.ascii	"RESERVED4\000"
 12147      52564544 
 12147      3400
 12148              	.LASF77:
 12149 0473 715F6C69 		.ascii	"q_link\000"
 12149      6E6B00
 12150              	.LASF195:
 12151 047a 52455345 		.ascii	"RESERVED6\000"
 12151      52564544 
 12151      3600
 12152              	.LASF306:
 12153 0484 44434647 		.ascii	"DCFG\000"
 12153      00
 12154              	.LASF121:
 12155 0489 49324331 		.ascii	"I2C1_ER_IRQn\000"
 12155      5F45525F 
 12155      4952516E 
 12155      00
 12156              	.LASF56:
 12157 0496 725F6E65 		.ascii	"r_newer\000"
 12157      77657200 
 12158              	.LASF290:
 12159 049e 47434346 		.ascii	"GCCFG\000"
 12159      4700
 12160              	.LASF207:
 12161 04a4 65703073 		.ascii	"ep0state\000"
 12161      74617465 
 12161      00
 12162              	.LASF155:
 12163 04ad 43414E32 		.ascii	"CAN2_SCE_IRQn\000"
 12163      5F534345 
 12163      5F495251 
 12163      6E00
 12164              	.LASF268:
 12165 04bb 44494550 		.ascii	"DIEPTSIZ\000"
 12165      5453495A 
 12165      00
 12166              	.LASF362:
 12167 04c4 72657175 		.ascii	"requests_hook_cb\000"
 12167      65737473 
ARM GAS  /tmp/ccx4dzgE.s 			page 219


 12167      5F686F6F 
 12167      6B5F6362 
 12167      00
 12168              	.LASF409:
 12169 04d5 70636E74 		.ascii	"pcnt\000"
 12169      00
 12170              	.LASF18:
 12171 04da 5F426F6F 		.ascii	"_Bool\000"
 12171      6C00
 12172              	.LASF383:
 12173 04e0 6F74675F 		.ascii	"otg_rxfifo_handler\000"
 12173      72786669 
 12173      666F5F68 
 12173      616E646C 
 12173      657200
 12174              	.LASF183:
 12175 04f3 52455345 		.ascii	"RESERVED2\000"
 12175      52564544 
 12175      3200
 12176              	.LASF186:
 12177 04fd 52455345 		.ascii	"RESERVED3\000"
 12177      52564544 
 12177      3300
 12178              	.LASF295:
 12179 0507 48434647 		.ascii	"HCFG\000"
 12179      00
 12180              	.LASF139:
 12181 050c 54494D35 		.ascii	"TIM5_IRQn\000"
 12181      5F495251 
 12181      6E00
 12182              	.LASF193:
 12183 0516 52455345 		.ascii	"RESERVED5\000"
 12183      52564544 
 12183      3500
 12184              	.LASF84:
 12185 0520 55736167 		.ascii	"UsageFault_IRQn\000"
 12185      65466175 
 12185      6C745F49 
 12185      52516E00 
 12186              	.LASF407:
 12187 0530 7573625F 		.ascii	"usb_lld_read_setup\000"
 12187      6C6C645F 
 12187      72656164 
 12187      5F736574 
 12187      757000
 12188              	.LASF275:
 12189 0543 73746D33 		.ascii	"stm32_otg_out_ep_t\000"
 12189      325F6F74 
 12189      675F6F75 
 12189      745F6570 
 12189      5F7400
 12190              	.LASF10:
 12191 0556 63686172 		.ascii	"char\000"
 12191      00
 12192              	.LASF209:
 12193 055b 6570306E 		.ascii	"ep0n\000"
 12193      00
ARM GAS  /tmp/ccx4dzgE.s 			page 220


 12194              	.LASF309:
 12195 0560 72657376 		.ascii	"resvd80C\000"
 12195      64383043 
 12195      00
 12196              	.LASF303:
 12197 0569 48505254 		.ascii	"HPRT\000"
 12197      00
 12198              	.LASF30:
 12199 056e 705F7072 		.ascii	"p_prio\000"
 12199      696F00
 12200              	.LASF204:
 12201 0575 72656365 		.ascii	"receiving\000"
 12201      6976696E 
 12201      6700
 12202              	.LASF181:
 12203 057f 41484232 		.ascii	"AHB2ENR\000"
 12203      454E5200 
 12204              	.LASF69:
 12205 0587 47656E65 		.ascii	"GenericQueue\000"
 12205      72696351 
 12205      75657565 
 12205      00
 12206              	.LASF390:
 12207 0594 65706D61 		.ascii	"epmask\000"
 12207      736B00
 12208              	.LASF66:
 12209 059b 77746F62 		.ascii	"wtobjp\000"
 12209      6A7000
 12210              	.LASF109:
 12211 05a2 43414E31 		.ascii	"CAN1_RX0_IRQn\000"
 12211      5F525830 
 12211      5F495251 
 12211      6E00
 12212              	.LASF350:
 12213 05b0 73657475 		.ascii	"setup_cb\000"
 12213      705F6362 
 12213      00
 12214              	.LASF248:
 12215 05b9 75645F73 		.ascii	"ud_string\000"
 12215      7472696E 
 12215      6700
 12216              	.LASF379:
 12217 05c3 6F74675F 		.ascii	"otg_epout_handler\000"
 12217      65706F75 
 12217      745F6861 
 12217      6E646C65 
 12217      7200
 12218              	.LASF351:
 12219 05d5 696E5F63 		.ascii	"in_cb\000"
 12219      6200
 12220              	.LASF50:
 12221 05db 73746B61 		.ascii	"stkalign_t\000"
 12221      6C69676E 
 12221      5F7400
 12222              	.LASF80:
 12223 05e6 4F757470 		.ascii	"OutputQueue\000"
 12223      75745175 
ARM GAS  /tmp/ccx4dzgE.s 			page 221


 12223      65756500 
 12224              	.LASF297:
 12225 05f2 48464E55 		.ascii	"HFNUM\000"
 12225      4D00
 12226              	.LASF252:
 12227 05f8 75736265 		.ascii	"usbeventcb_t\000"
 12227      76656E74 
 12227      63625F74 
 12227      00
 12228              	.LASF380:
 12229 0605 6570696E 		.ascii	"epint\000"
 12229      7400
 12230              	.LASF119:
 12231 060b 54494D34 		.ascii	"TIM4_IRQn\000"
 12231      5F495251 
 12231      6E00
 12232              	.LASF386:
 12233 0615 73747265 		.ascii	"streak\000"
 12233      616B00
 12234              	.LASF127:
 12235 061c 55534152 		.ascii	"USART2_IRQn\000"
 12235      54325F49 
 12235      52516E00 
 12236              	.LASF263:
 12237 0628 73746D33 		.ascii	"stm32_otg_host_chn_t\000"
 12237      325F6F74 
 12237      675F686F 
 12237      73745F63 
 12237      686E5F74 
 12238              	.LASF203:
 12239 063d 7472616E 		.ascii	"transmitting\000"
 12239      736D6974 
 12239      74696E67 
 12239      00
 12240              	.LASF259:
 12241 064a 48435453 		.ascii	"HCTSIZ\000"
 12241      495A00
 12242              	.LASF342:
 12243 0651 55534249 		.ascii	"USBInEndpointState\000"
 12243      6E456E64 
 12243      706F696E 
 12243      74537461 
 12243      746500
 12244              	.LASF314:
 12245 0664 72657376 		.ascii	"resvd820\000"
 12245      64383230 
 12245      00
 12246              	.LASF315:
 12247 066d 72657376 		.ascii	"resvd824\000"
 12247      64383234 
 12247      00
 12248              	.LASF194:
 12249 0676 42444352 		.ascii	"BDCR\000"
 12249      00
 12250              	.LASF317:
 12251 067b 44564255 		.ascii	"DVBUSPULSE\000"
 12251      5350554C 
ARM GAS  /tmp/ccx4dzgE.s 			page 222


 12251      534500
 12252              	.LASF222:
 12253 0686 5553425F 		.ascii	"USB_UNINIT\000"
 12253      554E494E 
 12253      495400
 12254              	.LASF120:
 12255 0691 49324331 		.ascii	"I2C1_EV_IRQn\000"
 12255      5F45565F 
 12255      4952516E 
 12255      00
 12256              	.LASF319:
 12257 069e 44494550 		.ascii	"DIEPEMPMSK\000"
 12257      454D504D 
 12257      534B00
 12258              	.LASF249:
 12259 06a9 55534244 		.ascii	"USBDescriptor\000"
 12259      65736372 
 12259      6970746F 
 12259      7200
 12260              	.LASF333:
 12261 06b7 73746D33 		.ascii	"stm32_otg_params_t\000"
 12261      325F6F74 
 12261      675F7061 
 12261      72616D73 
 12261      5F7400
 12262              	.LASF211:
 12263 06ca 73657475 		.ascii	"setup\000"
 12263      7000
 12264              	.LASF51:
 12265 06d0 696E7463 		.ascii	"intctx\000"
 12265      747800
 12266              	.LASF43:
 12267 06d7 705F6570 		.ascii	"p_epending\000"
 12267      656E6469 
 12267      6E6700
 12268              	.LASF280:
 12269 06e2 47525354 		.ascii	"GRSTCTL\000"
 12269      43544C00 
 12270              	.LASF246:
 12271 06ea 75736265 		.ascii	"usbevent_t\000"
 12271      76656E74 
 12271      5F7400
 12272              	.LASF320:
 12273 06f5 72657376 		.ascii	"resvd838\000"
 12273      64383338 
 12273      00
 12274              	.LASF247:
 12275 06fe 75645F73 		.ascii	"ud_size\000"
 12275      697A6500 
 12276              	.LASF172:
 12277 0706 43464752 		.ascii	"CFGR\000"
 12277      00
 12278              	.LASF425:
 12279 070b 63685363 		.ascii	"chSchGoSleepS\000"
 12279      68476F53 
 12279      6C656570 
 12279      5300
ARM GAS  /tmp/ccx4dzgE.s 			page 223


 12280              	.LASF225:
 12281 0719 5553425F 		.ascii	"USB_SELECTED\000"
 12281      53454C45 
 12281      43544544 
 12281      00
 12282              	.LASF116:
 12283 0726 54494D31 		.ascii	"TIM1_CC_IRQn\000"
 12283      5F43435F 
 12283      4952516E 
 12283      00
 12284              	.LASF169:
 12285 0733 48415348 		.ascii	"HASH_RNG_IRQn\000"
 12285      5F524E47 
 12285      5F495251 
 12285      6E00
 12286              	.LASF96:
 12287 0741 45585449 		.ascii	"EXTI1_IRQn\000"
 12287      315F4952 
 12287      516E00
 12288              	.LASF108:
 12289 074c 43414E31 		.ascii	"CAN1_TX_IRQn\000"
 12289      5F54585F 
 12289      4952516E 
 12289      00
 12290              	.LASF285:
 12291 0759 47525846 		.ascii	"GRXFSIZ\000"
 12291      53495A00 
 12292              	.LASF229:
 12293 0761 45505F53 		.ascii	"EP_STATUS_STALLED\000"
 12293      54415455 
 12293      535F5354 
 12293      414C4C45 
 12293      4400
 12294              	.LASF105:
 12295 0773 444D4131 		.ascii	"DMA1_Stream5_IRQn\000"
 12295      5F537472 
 12295      65616D35 
 12295      5F495251 
 12295      6E00
 12296              	.LASF272:
 12297 0785 444F4550 		.ascii	"DOEPCTL\000"
 12297      43544C00 
 12298              	.LASF134:
 12299 078d 54494D38 		.ascii	"TIM8_TRG_COM_TIM14_IRQn\000"
 12299      5F545247 
 12299      5F434F4D 
 12299      5F54494D 
 12299      31345F49 
 12300              	.LASF159:
 12301 07a5 444D4132 		.ascii	"DMA2_Stream7_IRQn\000"
 12301      5F537472 
 12301      65616D37 
 12301      5F495251 
 12301      6E00
 12302              	.LASF71:
 12303 07b7 715F636F 		.ascii	"q_counter\000"
 12303      756E7465 
ARM GAS  /tmp/ccx4dzgE.s 			page 224


 12303      7200
 12304              	.LASF376:
 12305 07c1 7573625F 		.ascii	"usb_lld_serve_interrupt\000"
 12305      6C6C645F 
 12305      73657276 
 12305      655F696E 
 12305      74657272 
 12306              	.LASF156:
 12307 07d9 4F54475F 		.ascii	"OTG_FS_IRQn\000"
 12307      46535F49 
 12307      52516E00 
 12308              	.LASF322:
 12309 07e5 72657376 		.ascii	"resvd840\000"
 12309      64383430 
 12309      00
 12310              	.LASF81:
 12311 07ee 4E6F6E4D 		.ascii	"NonMaskableInt_IRQn\000"
 12311      61736B61 
 12311      626C6549 
 12311      6E745F49 
 12311      52516E00 
 12312              	.LASF137:
 12313 0802 46534D43 		.ascii	"FSMC_IRQn\000"
 12313      5F495251 
 12313      6E00
 12314              	.LASF293:
 12315 080c 44494550 		.ascii	"DIEPTXF\000"
 12315      54584600 
 12316              	.LASF89:
 12317 0814 57574447 		.ascii	"WWDG_IRQn\000"
 12317      5F495251 
 12317      6E00
 12318              	.LASF9:
 12319 081e 6C6F6E67 		.ascii	"long unsigned int\000"
 12319      20756E73 
 12319      69676E65 
 12319      6420696E 
 12319      7400
 12320              	.LASF82:
 12321 0830 4D656D6F 		.ascii	"MemoryManagement_IRQn\000"
 12321      72794D61 
 12321      6E616765 
 12321      6D656E74 
 12321      5F495251 
 12322              	.LASF212:
 12323 0846 73746174 		.ascii	"status\000"
 12323      757300
 12324              	.LASF213:
 12325 084d 61646472 		.ascii	"address\000"
 12325      65737300 
 12326              	.LASF91:
 12327 0855 54414D50 		.ascii	"TAMP_STAMP_IRQn\000"
 12327      5F535441 
 12327      4D505F49 
 12327      52516E00 
 12328              	.LASF210:
 12329 0865 65703065 		.ascii	"ep0endcb\000"
ARM GAS  /tmp/ccx4dzgE.s 			page 225


 12329      6E646362 
 12329      00
 12330              	.LASF111:
 12331 086e 43414E31 		.ascii	"CAN1_SCE_IRQn\000"
 12331      5F534345 
 12331      5F495251 
 12331      6E00
 12332              	.LASF278:
 12333 087c 47414842 		.ascii	"GAHBCFG\000"
 12333      43464700 
 12334              	.LASF255:
 12335 0884 48434348 		.ascii	"HCCHAR\000"
 12335      415200
 12336              	.LASF357:
 12337 088b 696E5F6D 		.ascii	"in_multiplier\000"
 12337      756C7469 
 12337      706C6965 
 12337      7200
 12338              	.LASF145:
 12339 0899 444D4132 		.ascii	"DMA2_Stream0_IRQn\000"
 12339      5F537472 
 12339      65616D30 
 12339      5F495251 
 12339      6E00
 12340              	.LASF372:
 12341 08ab 75736270 		.ascii	"usbp\000"
 12341      00
 12342              	.LASF332:
 12343 08b0 6E756D5F 		.ascii	"num_endpoints\000"
 12343      656E6470 
 12343      6F696E74 
 12343      7300
 12344              	.LASF74:
 12345 08be 715F7772 		.ascii	"q_wrptr\000"
 12345      70747200 
 12346              	.LASF339:
 12347 08c6 74787369 		.ascii	"txsize\000"
 12347      7A6500
 12348              	.LASF218:
 12349 08cd 7468645F 		.ascii	"thd_ptr\000"
 12349      70747200 
 12350              	.LASF347:
 12351 08d5 7278636E 		.ascii	"rxcnt\000"
 12351      7400
 12352              	.LASF123:
 12353 08db 49324332 		.ascii	"I2C2_ER_IRQn\000"
 12353      5F45525F 
 12353      4952516E 
 12353      00
 12354              	.LASF227:
 12355 08e8 75736273 		.ascii	"usbstate_t\000"
 12355      74617465 
 12355      5F7400
 12356              	.LASF420:
 12357 08f3 66737061 		.ascii	"fsparams\000"
 12357      72616D73 
 12357      00
ARM GAS  /tmp/ccx4dzgE.s 			page 226


 12358              	.LASF391:
 12359 08fc 646F6E65 		.ascii	"done\000"
 12359      00
 12360              	.LASF238:
 12361 0901 5553425F 		.ascii	"USB_EP0_ERROR\000"
 12361      4550305F 
 12361      4552524F 
 12361      5200
 12362              	.LASF298:
 12363 090f 72657376 		.ascii	"resvd40C\000"
 12363      64343043 
 12363      00
 12364              	.LASF437:
 12365 0918 6E766963 		.ascii	"nvicEnableVector\000"
 12365      456E6162 
 12365      6C655665 
 12365      63746F72 
 12365      00
 12366              	.LASF83:
 12367 0929 42757346 		.ascii	"BusFault_IRQn\000"
 12367      61756C74 
 12367      5F495251 
 12367      6E00
 12368              	.LASF276:
 12369 0937 474F5447 		.ascii	"GOTGCTL\000"
 12369      43544C00 
 12370              	.LASF171:
 12371 093f 504C4C43 		.ascii	"PLLCFGR\000"
 12371      46475200 
 12372              	.LASF142:
 12373 0947 55415254 		.ascii	"UART5_IRQn\000"
 12373      355F4952 
 12373      516E00
 12374              	.LASF388:
 12375 0952 6F74675F 		.ascii	"otg_txfifo_handler\000"
 12375      74786669 
 12375      666F5F68 
 12375      616E646C 
 12375      657200
 12376              	.LASF113:
 12377 0965 54494D31 		.ascii	"TIM1_BRK_TIM9_IRQn\000"
 12377      5F42524B 
 12377      5F54494D 
 12377      395F4952 
 12377      516E00
 12378              	.LASF343:
 12379 0978 72786275 		.ascii	"rxbuf\000"
 12379      6600
 12380              	.LASF284:
 12381 097e 47525853 		.ascii	"GRXSTSP\000"
 12381      54535000 
 12382              	.LASF355:
 12383 0986 696E5F73 		.ascii	"in_state\000"
 12383      74617465 
 12383      00
 12384              	.LASF283:
 12385 098f 47525853 		.ascii	"GRXSTSR\000"
ARM GAS  /tmp/ccx4dzgE.s 			page 227


 12385      54535200 
 12386              	.LASF244:
 12387 0997 5553425F 		.ascii	"USB_EVENT_WAKEUP\000"
 12387      4556454E 
 12387      545F5741 
 12387      4B455550 
 12387      00
 12388              	.LASF326:
 12389 09a8 50434743 		.ascii	"PCGCCTL\000"
 12389      43544C00 
 12390              	.LASF366:
 12391 09b0 6F74675F 		.ascii	"otg_do_push\000"
 12391      646F5F70 
 12391      75736800 
 12392              	.LASF360:
 12393 09bc 6576656E 		.ascii	"event_cb\000"
 12393      745F6362 
 12393      00
 12394              	.LASF60:
 12395 09c5 4D757465 		.ascii	"Mutex\000"
 12395      7800
 12396              	.LASF144:
 12397 09cb 54494D37 		.ascii	"TIM7_IRQn\000"
 12397      5F495251 
 12397      6E00
 12398              	.LASF5:
 12399 09d5 6C6F6E67 		.ascii	"long long int\000"
 12399      206C6F6E 
 12399      6720696E 
 12399      7400
 12400              	.LASF224:
 12401 09e3 5553425F 		.ascii	"USB_READY\000"
 12401      52454144 
 12401      5900
 12402              	.LASF151:
 12403 09ed 4554485F 		.ascii	"ETH_WKUP_IRQn\000"
 12403      574B5550 
 12403      5F495251 
 12403      6E00
 12404              	.LASF125:
 12405 09fb 53504932 		.ascii	"SPI2_IRQn\000"
 12405      5F495251 
 12405      6E00
 12406              	.LASF166:
 12407 0a05 4F54475F 		.ascii	"OTG_HS_IRQn\000"
 12407      48535F49 
 12407      52516E00 
 12408              	.LASF61:
 12409 0a11 6D5F7175 		.ascii	"m_queue\000"
 12409      65756500 
 12410              	.LASF196:
 12411 0a19 53534347 		.ascii	"SSCGR\000"
 12411      5200
 12412              	.LASF124:
 12413 0a1f 53504931 		.ascii	"SPI1_IRQn\000"
 12413      5F495251 
 12413      6E00
ARM GAS  /tmp/ccx4dzgE.s 			page 228


 12414              	.LASF361:
 12415 0a29 6765745F 		.ascii	"get_descriptor_cb\000"
 12415      64657363 
 12415      72697074 
 12415      6F725F63 
 12415      6200
 12416              	.LASF208:
 12417 0a3b 6570306E 		.ascii	"ep0next\000"
 12417      65787400 
 12418              	.LASF85:
 12419 0a43 53564361 		.ascii	"SVCall_IRQn\000"
 12419      6C6C5F49 
 12419      52516E00 
 12420              	.LASF178:
 12421 0a4f 41504232 		.ascii	"APB2RSTR\000"
 12421      52535452 
 12421      00
 12422              	.LASF251:
 12423 0a58 75736265 		.ascii	"usbepcallback_t\000"
 12423      7063616C 
 12423      6C626163 
 12423      6B5F7400 
 12424              	.LASF323:
 12425 0a68 72657376 		.ascii	"resvd880\000"
 12425      64383830 
 12425      00
 12426              	.LASF170:
 12427 0a71 4650555F 		.ascii	"FPU_IRQn\000"
 12427      4952516E 
 12427      00
 12428              	.LASF321:
 12429 0a7a 72657376 		.ascii	"resvd83C\000"
 12429      64383343 
 12429      00
 12430              	.LASF68:
 12431 0a83 7466756E 		.ascii	"tfunc_t\000"
 12431      635F7400 
 12432              	.LASF141:
 12433 0a8b 55415254 		.ascii	"UART4_IRQn\000"
 12433      345F4952 
 12433      516E00
 12434              	.LASF192:
 12435 0a96 41504232 		.ascii	"APB2LPENR\000"
 12435      4C50454E 
 12435      5200
 12436              	.LASF392:
 12437 0aa0 7573625F 		.ascii	"usb_lld_wakeup_pump\000"
 12437      6C6C645F 
 12437      77616B65 
 12437      75705F70 
 12437      756D7000 
 12438              	.LASF78:
 12439 0ab4 716E6F74 		.ascii	"qnotify_t\000"
 12439      6966795F 
 12439      7400
 12440              	.LASF40:
 12441 0abe 705F7761 		.ascii	"p_waiting\000"
ARM GAS  /tmp/ccx4dzgE.s 			page 229


 12441      6974696E 
 12441      6700
 12442              	.LASF131:
 12443 0ac8 4F54475F 		.ascii	"OTG_FS_WKUP_IRQn\000"
 12443      46535F57 
 12443      4B55505F 
 12443      4952516E 
 12443      00
 12444              	.LASF36:
 12445 0ad9 705F666C 		.ascii	"p_flags\000"
 12445      61677300 
 12446              	.LASF274:
 12447 0ae1 444F4550 		.ascii	"DOEPTSIZ\000"
 12447      5453495A 
 12447      00
 12448              	.LASF300:
 12449 0aea 4841494E 		.ascii	"HAINT\000"
 12449      5400
 12450              	.LASF0:
 12451 0af0 756E7369 		.ascii	"unsigned int\000"
 12451      676E6564 
 12451      20696E74 
 12451      00
 12452              	.LASF143:
 12453 0afd 54494D36 		.ascii	"TIM6_DAC_IRQn\000"
 12453      5F444143 
 12453      5F495251 
 12453      6E00
 12454              	.LASF395:
 12455 0b0b 7573625F 		.ascii	"usb_lld_init\000"
 12455      6C6C645F 
 12455      696E6974 
 12455      00
 12456              	.LASF364:
 12457 0b18 55534243 		.ascii	"USBConfig\000"
 12457      6F6E6669 
 12457      6700
 12458              	.LASF394:
 12459 0b22 56656374 		.ascii	"Vector14C\000"
 12459      6F723134 
 12459      4300
 12460              	.LASF217:
 12461 0b2c 74787065 		.ascii	"txpending\000"
 12461      6E64696E 
 12461      6700
 12462              	.LASF46:
 12463 0b36 705F6D70 		.ascii	"p_mpool\000"
 12463      6F6F6C00 
 12464              	.LASF122:
 12465 0b3e 49324332 		.ascii	"I2C2_EV_IRQn\000"
 12465      5F45565F 
 12465      4952516E 
 12465      00
 12466              	.LASF414:
 12467 0b4b 7573625F 		.ascii	"usb_lld_stall_in\000"
 12467      6C6C645F 
 12467      7374616C 
ARM GAS  /tmp/ccx4dzgE.s 			page 230


 12467      6C5F696E 
 12467      00
 12468              	.LASF329:
 12469 0b5c 73746D33 		.ascii	"stm32_otg_t\000"
 12469      325F6F74 
 12469      675F7400 
 12470              	.LASF37:
 12471 0b68 705F7265 		.ascii	"p_refs\000"
 12471      667300
 12472              	.LASF411:
 12473 0b6f 7573625F 		.ascii	"usb_lld_start_out\000"
 12473      6C6C645F 
 12473      73746172 
 12473      745F6F75 
 12473      7400
 12474              	.LASF424:
 12475 0b81 68616C50 		.ascii	"halPolledDelay\000"
 12475      6F6C6C65 
 12475      6444656C 
 12475      617900
 12476              	.LASF358:
 12477 0b90 73657475 		.ascii	"setup_buf\000"
 12477      705F6275 
 12477      6600
 12478              	.LASF428:
 12479 0b9a 5F706F72 		.ascii	"_port_irq_epilogue\000"
 12479      745F6972 
 12479      715F6570 
 12479      696C6F67 
 12479      756500
 12480              	.LASF48:
 12481 0bad 54687265 		.ascii	"ThreadsList\000"
 12481      6164734C 
 12481      69737400 
 12482              	.LASF304:
 12483 0bb9 72657376 		.ascii	"resvd444\000"
 12483      64343434 
 12483      00
 12484              	.LASF419:
 12485 0bc2 65703063 		.ascii	"ep0config\000"
 12485      6F6E6669 
 12485      6700
 12486              	.LASF352:
 12487 0bcc 6F75745F 		.ascii	"out_cb\000"
 12487      636200
 12488              	.LASF200:
 12489 0bd3 55534244 		.ascii	"USBDriver\000"
 12489      72697665 
 12489      7200
 12490              	.LASF191:
 12491 0bdd 41504231 		.ascii	"APB1LPENR\000"
 12491      4C50454E 
 12491      5200
 12492              	.LASF101:
 12493 0be7 444D4131 		.ascii	"DMA1_Stream1_IRQn\000"
 12493      5F537472 
 12493      65616D31 
ARM GAS  /tmp/ccx4dzgE.s 			page 231


 12493      5F495251 
 12493      6E00
 12494              	.LASF301:
 12495 0bf9 4841494E 		.ascii	"HAINTMSK\000"
 12495      544D534B 
 12495      00
 12496              	.LASF223:
 12497 0c02 5553425F 		.ascii	"USB_STOP\000"
 12497      53544F50 
 12497      00
 12498              	.LASF148:
 12499 0c0b 444D4132 		.ascii	"DMA2_Stream3_IRQn\000"
 12499      5F537472 
 12499      65616D33 
 12499      5F495251 
 12499      6E00
 12500              	.LASF353:
 12501 0c1d 696E5F6D 		.ascii	"in_maxsize\000"
 12501      61787369 
 12501      7A6500
 12502              	.LASF152:
 12503 0c28 43414E32 		.ascii	"CAN2_TX_IRQn\000"
 12503      5F54585F 
 12503      4952516E 
 12503      00
 12504              	.LASF282:
 12505 0c35 47494E54 		.ascii	"GINTMSK\000"
 12505      4D534B00 
 12506              	.LASF39:
 12507 0c3d 705F7469 		.ascii	"p_time\000"
 12507      6D6500
 12508              	.LASF418:
 12509 0c44 65703073 		.ascii	"ep0setup_buffer\000"
 12509      65747570 
 12509      5F627566 
 12509      66657200 
 12510              	.LASF356:
 12511 0c54 6F75745F 		.ascii	"out_state\000"
 12511      73746174 
 12511      6500
 12512              	.LASF400:
 12513 0c5e 7573625F 		.ascii	"usb_lld_reset\000"
 12513      6C6C645F 
 12513      72657365 
 12513      7400
 12514              	.LASF435:
 12515 0c6c 4952516E 		.ascii	"IRQn\000"
 12515      00
 12516              	.LASF106:
 12517 0c71 444D4131 		.ascii	"DMA1_Stream6_IRQn\000"
 12517      5F537472 
 12517      65616D36 
 12517      5F495251 
 12517      6E00
 12518              	.LASF401:
 12519 0c83 7573625F 		.ascii	"usb_lld_set_address\000"
 12519      6C6C645F 
ARM GAS  /tmp/ccx4dzgE.s 			page 232


 12519      7365745F 
 12519      61646472 
 12519      65737300 
 12520              	.LASF436:
 12521 0c97 7573625F 		.ascii	"usb_lld_pump\000"
 12521      6C6C645F 
 12521      70756D70 
 12521      00
 12522              	.LASF175:
 12523 0ca4 41484233 		.ascii	"AHB3RSTR\000"
 12523      52535452 
 12523      00
 12524              	.LASF340:
 12525 0cad 7478636E 		.ascii	"txcnt\000"
 12525      7400
 12526              	.LASF45:
 12527 0cb3 705F7265 		.ascii	"p_realprio\000"
 12527      616C7072 
 12527      696F00
 12528              	.LASF234:
 12529 0cbe 5553425F 		.ascii	"USB_EP0_WAITING_TX0\000"
 12529      4550305F 
 12529      57414954 
 12529      494E475F 
 12529      54583000 
 12530              	.LASF215:
 12531 0cd2 6F746770 		.ascii	"otgparams\000"
 12531      6172616D 
 12531      7300
 12532              	.LASF318:
 12533 0cdc 72657376 		.ascii	"resvd830\000"
 12533      64383330 
 12533      00
 12534              	.LASF100:
 12535 0ce5 444D4131 		.ascii	"DMA1_Stream0_IRQn\000"
 12535      5F537472 
 12535      65616D30 
 12535      5F495251 
 12535      6E00
 12536              	.LASF177:
 12537 0cf7 41504231 		.ascii	"APB1RSTR\000"
 12537      52535452 
 12537      00
 12538              	.LASF130:
 12539 0d00 5254435F 		.ascii	"RTC_Alarm_IRQn\000"
 12539      416C6172 
 12539      6D5F4952 
 12539      516E00
 12540              	.LASF184:
 12541 0d0f 41504231 		.ascii	"APB1ENR\000"
 12541      454E5200 
 12542              	.LASF348:
 12543 0d17 5553424F 		.ascii	"USBOutEndpointState\000"
 12543      7574456E 
 12543      64706F69 
 12543      6E745374 
 12543      61746500 
ARM GAS  /tmp/ccx4dzgE.s 			page 233


 12544              	.LASF162:
 12545 0d2b 49324333 		.ascii	"I2C3_ER_IRQn\000"
 12545      5F45525F 
 12545      4952516E 
 12545      00
 12546              	.LASF412:
 12547 0d38 7573625F 		.ascii	"usb_lld_start_in\000"
 12547      6C6C645F 
 12547      73746172 
 12547      745F696E 
 12547      00
 12548              	.LASF374:
 12549 0d49 73697A65 		.ascii	"size\000"
 12549      00
 12550              	.LASF168:
 12551 0d4e 43525950 		.ascii	"CRYP_IRQn\000"
 12551      5F495251 
 12551      6E00
 12552              	.LASF129:
 12553 0d58 45585449 		.ascii	"EXTI15_10_IRQn\000"
 12553      31355F31 
 12553      305F4952 
 12553      516E00
 12554              	.LASF6:
 12555 0d67 6C6F6E67 		.ascii	"long long unsigned int\000"
 12555      206C6F6E 
 12555      6720756E 
 12555      7369676E 
 12555      65642069 
 12556              	.LASF292:
 12557 0d7e 48505458 		.ascii	"HPTXFSIZ\000"
 12557      4653495A 
 12557      00
 12558              	.LASF404:
 12559 0d87 7573625F 		.ascii	"usb_lld_disable_endpoints\000"
 12559      6C6C645F 
 12559      64697361 
 12559      626C655F 
 12559      656E6470 
 12560              	.LASF33:
 12561 0da1 705F6F6C 		.ascii	"p_older\000"
 12561      64657200 
 12562              	.LASF13:
 12563 0da9 75696E74 		.ascii	"uint16_t\000"
 12563      31365F74 
 12563      00
 12564              	.LASF257:
 12565 0db2 4843494E 		.ascii	"HCINT\000"
 12565      5400
 12566              	.LASF336:
 12567 0db8 6C696E65 		.ascii	"linear\000"
 12567      617200
 12568              	.LASF24:
 12569 0dbf 6D73675F 		.ascii	"msg_t\000"
 12569      7400
 12570              	.LASF307:
 12571 0dc5 4443544C 		.ascii	"DCTL\000"
ARM GAS  /tmp/ccx4dzgE.s 			page 234


 12571      00
 12572              	.LASF359:
 12573 0dca 55534245 		.ascii	"USBEndpointConfig\000"
 12573      6E64706F 
 12573      696E7443 
 12573      6F6E6669 
 12573      6700
 12574              	.LASF258:
 12575 0ddc 4843494E 		.ascii	"HCINTMSK\000"
 12575      544D534B 
 12575      00
 12576              	.LASF118:
 12577 0de5 54494D33 		.ascii	"TIM3_IRQn\000"
 12577      5F495251 
 12577      6E00
 12578              	.LASF126:
 12579 0def 55534152 		.ascii	"USART1_IRQn\000"
 12579      54315F49 
 12579      52516E00 
 12580              	.LASF345:
 12581 0dfb 72787175 		.ascii	"rxqueued\000"
 12581      65756564 
 12581      00
 12582              	.LASF22:
 12583 0e04 74736C69 		.ascii	"tslices_t\000"
 12583      6365735F 
 12583      7400
 12584              	.LASF408:
 12585 0e0e 7573625F 		.ascii	"usb_lld_prepare_receive\000"
 12585      6C6C645F 
 12585      70726570 
 12585      6172655F 
 12585      72656365 
 12586              	.LASF277:
 12587 0e26 474F5447 		.ascii	"GOTGINT\000"
 12587      494E5400 
 12588              	.LASF58:
 12589 0e2e 725F6375 		.ascii	"r_current\000"
 12589      7272656E 
 12589      7400
 12590              	.LASF97:
 12591 0e38 45585449 		.ascii	"EXTI2_IRQn\000"
 12591      325F4952 
 12591      516E00
 12592              	.LASF337:
 12593 0e43 71756575 		.ascii	"queue\000"
 12593      6500
 12594              	.LASF154:
 12595 0e49 43414E32 		.ascii	"CAN2_RX1_IRQn\000"
 12595      5F525831 
 12595      5F495251 
 12595      6E00
 12596              	.LASF107:
 12597 0e57 4144435F 		.ascii	"ADC_IRQn\000"
 12597      4952516E 
 12597      00
 12598              	.LASF434:
ARM GAS  /tmp/ccx4dzgE.s 			page 235


 12599 0e60 2F686F6D 		.ascii	"/home/witold/Dokumenty/arm/ChibiOS-master/demos/ARM"
 12599      652F7769 
 12599      746F6C64 
 12599      2F446F6B 
 12599      756D656E 
 12600 0e93 434D342D 		.ascii	"CM4-STM32F407-DISCOVERY-MEMS\000"
 12600      53544D33 
 12600      32463430 
 12600      372D4449 
 12600      53434F56 
 12601              	.LASF344:
 12602 0eb0 72787175 		.ascii	"rxqueue\000"
 12602      65756500 
 12603              	.LASF313:
 12604 0eb8 4441494E 		.ascii	"DAINTMSK\000"
 12604      544D534B 
 12604      00
 12605              	.LASF431:
 12606 0ec1 63685468 		.ascii	"chThdCreateI\000"
 12606      64437265 
 12606      61746549 
 12606      00
 12607              	.LASF189:
 12608 0ece 41484233 		.ascii	"AHB3LPENR\000"
 12608      4C50454E 
 12608      5200
 12609              	.LASF316:
 12610 0ed8 44564255 		.ascii	"DVBUSDIS\000"
 12610      53444953 
 12610      00
 12611              	.LASF271:
 12612 0ee1 73746D33 		.ascii	"stm32_otg_in_ep_t\000"
 12612      325F6F74 
 12612      675F696E 
 12612      5F65705F 
 12612      7400
 12613              	.LASF331:
 12614 0ef3 6F74675F 		.ascii	"otg_ram_size\000"
 12614      72616D5F 
 12614      73697A65 
 12614      00
 12615              	.LASF53:
 12616 0f00 725F7175 		.ascii	"r_queue\000"
 12616      65756500 
 12617              	.LASF90:
 12618 0f08 5056445F 		.ascii	"PVD_IRQn\000"
 12618      4952516E 
 12618      00
 12619              	.LASF242:
 12620 0f11 5553425F 		.ascii	"USB_EVENT_CONFIGURED\000"
 12620      4556454E 
 12620      545F434F 
 12620      4E464947 
 12620      55524544 
 12621              	.LASF328:
 12622 0f26 4649464F 		.ascii	"FIFO\000"
 12622      00
ARM GAS  /tmp/ccx4dzgE.s 			page 236


 12623              	.LASF70:
 12624 0f2b 715F7761 		.ascii	"q_waiting\000"
 12624      6974696E 
 12624      6700
 12625              	.LASF95:
 12626 0f35 45585449 		.ascii	"EXTI0_IRQn\000"
 12626      305F4952 
 12626      516E00
 12627              	.LASF421:
 12628 0f40 726C6973 		.ascii	"rlist\000"
 12628      7400
 12629              	.LASF19:
 12630 0f46 746D6F64 		.ascii	"tmode_t\000"
 12630      655F7400 
 12631              	.LASF104:
 12632 0f4e 444D4131 		.ascii	"DMA1_Stream4_IRQn\000"
 12632      5F537472 
 12632      65616D34 
 12632      5F495251 
 12632      6E00
 12633              	.LASF158:
 12634 0f60 444D4132 		.ascii	"DMA2_Stream6_IRQn\000"
 12634      5F537472 
 12634      65616D36 
 12634      5F495251 
 12634      6E00
 12635              	.LASF180:
 12636 0f72 41484231 		.ascii	"AHB1ENR\000"
 12636      454E5200 
 12637              	.LASF302:
 12638 0f7a 72657376 		.ascii	"resvd41C\000"
 12638      64343143 
 12638      00
 12639              	.LASF254:
 12640 0f83 75736267 		.ascii	"usbgetdescriptor_t\000"
 12640      65746465 
 12640      73637269 
 12640      70746F72 
 12640      5F7400
 12641              	.LASF86:
 12642 0f96 44656275 		.ascii	"DebugMonitor_IRQn\000"
 12642      674D6F6E 
 12642      69746F72 
 12642      5F495251 
 12642      6E00
 12643              	.LASF220:
 12644 0fa8 77615F70 		.ascii	"wa_pump\000"
 12644      756D7000 
 12645              	.LASF205:
 12646 0fb0 696E5F70 		.ascii	"in_params\000"
 12646      6172616D 
 12646      7300
 12647              	.LASF199:
 12648 0fba 68616C72 		.ascii	"halrtcnt_t\000"
 12648      74636E74 
 12648      5F7400
 12649              	.LASF161:
ARM GAS  /tmp/ccx4dzgE.s 			page 237


 12650 0fc5 49324333 		.ascii	"I2C3_EV_IRQn\000"
 12650      5F45565F 
 12650      4952516E 
 12650      00
 12651              	.LASF57:
 12652 0fd2 725F6F6C 		.ascii	"r_older\000"
 12652      64657200 
 12653              	.LASF174:
 12654 0fda 41484232 		.ascii	"AHB2RSTR\000"
 12654      52535452 
 12654      00
 12655              	.LASF150:
 12656 0fe3 4554485F 		.ascii	"ETH_IRQn\000"
 12656      4952516E 
 12656      00
 12657              	.LASF381:
 12658 0fec 6F74675F 		.ascii	"otg_txfifo_flush\000"
 12658      74786669 
 12658      666F5F66 
 12658      6C757368 
 12658      00
 12659              	.LASF198:
 12660 0ffd 5243435F 		.ascii	"RCC_TypeDef\000"
 12660      54797065 
 12660      44656600 
 12661              	.LASF3:
 12662 1009 73686F72 		.ascii	"short int\000"
 12662      7420696E 
 12662      7400
 12663              	.LASF330:
 12664 1013 72785F66 		.ascii	"rx_fifo_size\000"
 12664      69666F5F 
 12664      73697A65 
 12664      00
 12665              	.LASF16:
 12666 1020 75696E74 		.ascii	"uint64_t\000"
 12666      36345F74 
 12666      00
 12667              	.LASF94:
 12668 1029 5243435F 		.ascii	"RCC_IRQn\000"
 12668      4952516E 
 12668      00
 12669              	.LASF341:
 12670 1032 6D6F6465 		.ascii	"mode\000"
 12670      00
 12671              	.LASF427:
 12672 1037 63685363 		.ascii	"chSchRescheduleS\000"
 12672      68526573 
 12672      63686564 
 12672      756C6553 
 12672      00
 12673              	.LASF240:
 12674 1048 5553425F 		.ascii	"USB_EVENT_RESET\000"
 12674      4556454E 
 12674      545F5245 
 12674      53455400 
 12675              	.LASF260:
ARM GAS  /tmp/ccx4dzgE.s 			page 238


 12676 1058 72657376 		.ascii	"resvd14\000"
 12676      64313400 
 12677              	.LASF261:
 12678 1060 72657376 		.ascii	"resvd18\000"
 12678      64313800 
 12679              	.LASF269:
 12680 1068 44545846 		.ascii	"DTXFSTS\000"
 12680      53545300 
 12681              	.LASF335:
 12682 1070 74787175 		.ascii	"txqueue\000"
 12682      65756500 
 12683              	.LASF367:
 12684 1078 6F74675F 		.ascii	"otg_do_pop\000"
 12684      646F5F70 
 12684      6F7000
 12685              	.LASF270:
 12686 1083 72657376 		.ascii	"resvd1C\000"
 12686      64314300 
 12687              	.LASF310:
 12688 108b 44494550 		.ascii	"DIEPMSK\000"
 12688      4D534B00 
 12689              	.LASF54:
 12690 1093 725F7072 		.ascii	"r_prio\000"
 12690      696F00
 12691              	.LASF103:
 12692 109a 444D4131 		.ascii	"DMA1_Stream3_IRQn\000"
 12692      5F537472 
 12692      65616D33 
 12692      5F495251 
 12692      6E00
 12693              	.LASF433:
 12694 10ac 2E2E2F2E 		.ascii	"../../os/hal/platforms/STM32/OTGv1/usb_lld.c\000"
 12694      2E2F6F73 
 12694      2F68616C 
 12694      2F706C61 
 12694      74666F72 
 12695              	.LASF405:
 12696 10d9 7573625F 		.ascii	"usb_lld_get_status_out\000"
 12696      6C6C645F 
 12696      6765745F 
 12696      73746174 
 12696      75735F6F 
 12697              	.LASF397:
 12698 10f0 7573625F 		.ascii	"usb_lld_start\000"
 12698      6C6C645F 
 12698      73746172 
 12698      7400
 12699              	.LASF17:
 12700 10fe 626F6F6C 		.ascii	"bool_t\000"
 12700      5F7400
 12701              	.LASF262:
 12702 1105 72657376 		.ascii	"resvd1c\000"
 12702      64316300 
 12703              	.LASF253:
 12704 110d 75736272 		.ascii	"usbreqhandler_t\000"
 12704      65716861 
 12704      6E646C65 
ARM GAS  /tmp/ccx4dzgE.s 			page 239


 12704      725F7400 
 12705              	.LASF264:
 12706 111d 44494550 		.ascii	"DIEPCTL\000"
 12706      43544C00 
 12707              	.LASF250:
 12708 1125 75736263 		.ascii	"usbcallback_t\000"
 12708      616C6C62 
 12708      61636B5F 
 12708      7400
 12709              	.LASF27:
 12710 1133 54687265 		.ascii	"Thread\000"
 12710      616400
 12711              	.LASF281:
 12712 113a 47494E54 		.ascii	"GINTSTS\000"
 12712      53545300 
 12713              	.LASF114:
 12714 1142 54494D31 		.ascii	"TIM1_UP_TIM10_IRQn\000"
 12714      5F55505F 
 12714      54494D31 
 12714      305F4952 
 12714      516E00
 12715              	.LASF422:
 12716 1155 49544D5F 		.ascii	"ITM_RxBuffer\000"
 12716      52784275 
 12716      66666572 
 12716      00
 12717              	.LASF384:
 12718 1162 6F74675F 		.ascii	"otg_fifo_read_to_queue\000"
 12718      6669666F 
 12718      5F726561 
 12718      645F746F 
 12718      5F717565 
 12719              	.LASF416:
 12720 1179 7573625F 		.ascii	"usb_lld_clear_in\000"
 12720      6C6C645F 
 12720      636C6561 
 12720      725F696E 
 12720      00
 12721              	.LASF266:
 12722 118a 44494550 		.ascii	"DIEPINT\000"
 12722      494E5400 
 12723              	.LASF287:
 12724 1192 484E5054 		.ascii	"HNPTXSTS\000"
 12724      58535453 
 12724      00
 12725              	.LASF423:
 12726 119b 55534244 		.ascii	"USBD1\000"
 12726      3100
 12727              	.LASF21:
 12728 11a1 74726566 		.ascii	"trefs_t\000"
 12728      735F7400 
 12729              	.LASF163:
 12730 11a9 4F54475F 		.ascii	"OTG_HS_EP1_OUT_IRQn\000"
 12730      48535F45 
 12730      50315F4F 
 12730      55545F49 
 12730      52516E00 
ARM GAS  /tmp/ccx4dzgE.s 			page 240


 12731              	.LASF363:
 12732 11bd 736F665F 		.ascii	"sof_cb\000"
 12732      636200
 12733              	.LASF92:
 12734 11c4 5254435F 		.ascii	"RTC_WKUP_IRQn\000"
 12734      574B5550 
 12734      5F495251 
 12734      6E00
 12735              	.LASF327:
 12736 11d2 72657376 		.ascii	"resvdE04\000"
 12736      64453034 
 12736      00
 12737              	.LASF288:
 12738 11db 72657376 		.ascii	"resvd30\000"
 12738      64333000 
 12739              	.LASF324:
 12740 11e3 72657376 		.ascii	"resvd8C0\000"
 12740      64384330 
 12740      00
 12741              	.LASF289:
 12742 11ec 72657376 		.ascii	"resvd34\000"
 12742      64333400 
 12743              	.LASF371:
 12744 11f4 6F74675F 		.ascii	"otg_ram_reset\000"
 12744      72616D5F 
 12744      72657365 
 12744      7400
 12745              	.LASF15:
 12746 1202 75696E74 		.ascii	"uint32_t\000"
 12746      33325F74 
 12746      00
 12747              	.LASF221:
 12748 120b 75736265 		.ascii	"usbep_t\000"
 12748      705F7400 
 12749              	.LASF110:
 12750 1213 43414E31 		.ascii	"CAN1_RX1_IRQn\000"
 12750      5F525831 
 12750      5F495251 
 12750      6E00
 12751              	.LASF47:
 12752 1221 54687265 		.ascii	"ThreadsQueue\000"
 12752      61647351 
 12752      75657565 
 12752      00
 12753              	.LASF243:
 12754 122e 5553425F 		.ascii	"USB_EVENT_SUSPEND\000"
 12754      4556454E 
 12754      545F5355 
 12754      5350454E 
 12754      4400
 12755              	.LASF112:
 12756 1240 45585449 		.ascii	"EXTI9_5_IRQn\000"
 12756      395F355F 
 12756      4952516E 
 12756      00
 12757              	.LASF393:
 12758 124d 6F74675F 		.ascii	"otg_epin_handler\000"
ARM GAS  /tmp/ccx4dzgE.s 			page 241


 12758      6570696E 
 12758      5F68616E 
 12758      646C6572 
 12758      00
 12759              	.LASF385:
 12760 125e 6E746F67 		.ascii	"ntogo\000"
 12760      6F00
 12761              	.LASF64:
 12762 1264 7264796D 		.ascii	"rdymsg\000"
 12762      736700
 12763              	.LASF99:
 12764 126b 45585449 		.ascii	"EXTI4_IRQn\000"
 12764      345F4952 
 12764      516E00
 12765              	.LASF4:
 12766 1276 73686F72 		.ascii	"short unsigned int\000"
 12766      7420756E 
 12766      7369676E 
 12766      65642069 
 12766      6E7400
 12767              	.LASF308:
 12768 1289 44535453 		.ascii	"DSTS\000"
 12768      00
 12769              	.LASF135:
 12770 128e 54494D38 		.ascii	"TIM8_CC_IRQn\000"
 12770      5F43435F 
 12770      4952516E 
 12770      00
 12771              	.LASF138:
 12772 129b 5344494F 		.ascii	"SDIO_IRQn\000"
 12772      5F495251 
 12772      6E00
 12773              	.LASF399:
 12774 12a5 6F74675F 		.ascii	"otg_rxfifo_flush\000"
 12774      72786669 
 12774      666F5F66 
 12774      6C757368 
 12774      00
 12775              	.LASF79:
 12776 12b6 496E7075 		.ascii	"InputQueue\000"
 12776      74517565 
 12776      756500
 12777              	.LASF98:
 12778 12c1 45585449 		.ascii	"EXTI3_IRQn\000"
 12778      335F4952 
 12778      516E00
 12779              	.LASF87:
 12780 12cc 50656E64 		.ascii	"PendSV_IRQn\000"
 12780      53565F49 
 12780      52516E00 
 12781              	.LASF377:
 12782 12d8 6F746770 		.ascii	"otgp\000"
 12782      00
 12783              	.LASF164:
 12784 12dd 4F54475F 		.ascii	"OTG_HS_EP1_IN_IRQn\000"
 12784      48535F45 
 12784      50315F49 
ARM GAS  /tmp/ccx4dzgE.s 			page 242


 12784      4E5F4952 
 12784      516E00
 12785              	.LASF206:
 12786 12f0 6F75745F 		.ascii	"out_params\000"
 12786      70617261 
 12786      6D7300
 12787              	.LASF136:
 12788 12fb 444D4131 		.ascii	"DMA1_Stream7_IRQn\000"
 12788      5F537472 
 12788      65616D37 
 12788      5F495251 
 12788      6E00
 12789              	.LASF387:
 12790 130d 6E773265 		.ascii	"nw2end\000"
 12790      6E6400
 12791              	.LASF228:
 12792 1314 45505F53 		.ascii	"EP_STATUS_DISABLED\000"
 12792      54415455 
 12792      535F4449 
 12792      5341424C 
 12792      454400
 12793              	.LASF173:
 12794 1327 41484231 		.ascii	"AHB1RSTR\000"
 12794      52535452 
 12794      00
 12795              	.LASF378:
 12796 1330 6F74675F 		.ascii	"otg_disable_ep\000"
 12796      64697361 
 12796      626C655F 
 12796      657000
 12797              	.LASF299:
 12798 133f 48505458 		.ascii	"HPTXSTS\000"
 12798      53545300 
 12799              	.LASF291:
 12800 1347 72657376 		.ascii	"resvd58\000"
 12800      64353800 
 12801              	.LASF237:
 12802 134f 5553425F 		.ascii	"USB_EP0_SENDING_STS\000"
 12802      4550305F 
 12802      53454E44 
 12802      494E475F 
 12802      53545300 
 12803              	.LASF59:
 12804 1363 52656164 		.ascii	"ReadyList\000"
 12804      794C6973 
 12804      7400
 12805              	.LASF296:
 12806 136d 48464952 		.ascii	"HFIR\000"
 12806      00
 12807              	.LASF235:
 12808 1372 5553425F 		.ascii	"USB_EP0_WAITING_STS\000"
 12808      4550305F 
 12808      57414954 
 12808      494E475F 
 12808      53545300 
 12809              	.LASF34:
 12810 1386 705F6E61 		.ascii	"p_name\000"
ARM GAS  /tmp/ccx4dzgE.s 			page 243


 12810      6D6500
 12811              	.LASF375:
 12812 138d 6E657874 		.ascii	"next\000"
 12812      00
 12813              	.LASF63:
 12814 1392 6D5F6E65 		.ascii	"m_next\000"
 12814      787400
 12815              	.LASF368:
 12816 1399 6669666F 		.ascii	"fifo_remove\000"
 12816      5F72656D 
 12816      6F766500 
 12817              	.LASF216:
 12818 13a5 706D6E65 		.ascii	"pmnext\000"
 12818      787400
 12819              	.LASF373:
 12820 13ac 6F74675F 		.ascii	"otg_ram_alloc\000"
 12820      72616D5F 
 12820      616C6C6F 
 12820      6300
 12821              	.LASF338:
 12822 13ba 74787175 		.ascii	"txqueued\000"
 12822      65756564 
 12822      00
 12823              	.LASF279:
 12824 13c3 47555342 		.ascii	"GUSBCFG\000"
 12824      43464700 
 12825              	.LASF236:
 12826 13cb 5553425F 		.ascii	"USB_EP0_RX\000"
 12826      4550305F 
 12826      525800
 12827              	.LASF294:
 12828 13d6 72657376 		.ascii	"resvd140\000"
 12828      64313430 
 12828      00
 12829              	.LASF182:
 12830 13df 41484233 		.ascii	"AHB3ENR\000"
 12830      454E5200 
 12831              	.LASF147:
 12832 13e7 444D4132 		.ascii	"DMA2_Stream2_IRQn\000"
 12832      5F537472 
 12832      65616D32 
 12832      5F495251 
 12832      6E00
 12833              	.LASF42:
 12834 13f9 705F6D73 		.ascii	"p_msg\000"
 12834      6700
 12835              	.LASF214:
 12836 13ff 636F6E66 		.ascii	"configuration\000"
 12836      69677572 
 12836      6174696F 
 12836      6E00
 12837              	.LASF396:
 12838 140d 6F74675F 		.ascii	"otg_core_reset\000"
 12838      636F7265 
 12838      5F726573 
 12838      657400
 12839              	.LASF35:
ARM GAS  /tmp/ccx4dzgE.s 			page 244


 12840 141c 705F7374 		.ascii	"p_state\000"
 12840      61746500 
 12841              		.ident	"GCC: (GNU Tools for ARM Embedded Processors) 4.7.4 20130613 (release) [ARM/embedded-4_7-br
ARM GAS  /tmp/ccx4dzgE.s 			page 245


DEFINED SYMBOLS
                            *ABS*:00000000 usb_lld.c
     /tmp/ccx4dzgE.s:19     .text.otg_disable_ep:00000000 $t
     /tmp/ccx4dzgE.s:24     .text.otg_disable_ep:00000000 otg_disable_ep
     /tmp/ccx4dzgE.s:131    .text.otg_epout_handler:00000000 $t
     /tmp/ccx4dzgE.s:136    .text.otg_epout_handler:00000000 otg_epout_handler
     /tmp/ccx4dzgE.s:214    .text.otg_txfifo_flush:00000000 $t
     /tmp/ccx4dzgE.s:219    .text.otg_txfifo_flush:00000000 otg_txfifo_flush
     /tmp/ccx4dzgE.s:251    .text.usb_lld_pump:00000000 $t
     /tmp/ccx4dzgE.s:256    .text.usb_lld_pump:00000000 usb_lld_pump
     /tmp/ccx4dzgE.s:850    .text.usb_lld_pump:0000025c $d
     /tmp/ccx4dzgE.s:861    .text.usb_lld_pump:00000260 $t
     /tmp/ccx4dzgE.s:1382   .text.otg_epin_handler:00000000 $t
     /tmp/ccx4dzgE.s:1387   .text.otg_epin_handler:00000000 otg_epin_handler
     /tmp/ccx4dzgE.s:1513   .text.Vector14C:00000000 $t
     /tmp/ccx4dzgE.s:1519   .text.Vector14C:00000000 Vector14C
     /tmp/ccx4dzgE.s:1764   .text.Vector14C:000000fc $d
     /tmp/ccx4dzgE.s:1771   .text.usb_lld_init:00000000 $t
     /tmp/ccx4dzgE.s:1777   .text.usb_lld_init:00000000 usb_lld_init
     /tmp/ccx4dzgE.s:2960   .bss.USBD1:00000000 .LANCHOR0
     /tmp/ccx4dzgE.s:2951   .rodata.fsparams:00000000 .LANCHOR1
     /tmp/ccx4dzgE.s:1815   .text.usb_lld_start:00000000 $t
     /tmp/ccx4dzgE.s:1821   .text.usb_lld_start:00000000 usb_lld_start
     /tmp/ccx4dzgE.s:1999   .text.usb_lld_start:000000d4 $d
     /tmp/ccx4dzgE.s:2005   .text.usb_lld_stop:00000000 $t
     /tmp/ccx4dzgE.s:2011   .text.usb_lld_stop:00000000 usb_lld_stop
     /tmp/ccx4dzgE.s:2054   .text.usb_lld_reset:00000000 $t
     /tmp/ccx4dzgE.s:2060   .text.usb_lld_reset:00000000 usb_lld_reset
     /tmp/ccx4dzgE.s:2278   .text.usb_lld_reset:00000128 $d
     /tmp/ccx4dzgE.s:2283   .text.usb_lld_set_address:00000000 $t
     /tmp/ccx4dzgE.s:2289   .text.usb_lld_set_address:00000000 usb_lld_set_address
     /tmp/ccx4dzgE.s:2312   .text.usb_lld_init_endpoint:00000000 $t
     /tmp/ccx4dzgE.s:2318   .text.usb_lld_init_endpoint:00000000 usb_lld_init_endpoint
     /tmp/ccx4dzgE.s:2523   .text.usb_lld_disable_endpoints:00000000 $t
     /tmp/ccx4dzgE.s:2529   .text.usb_lld_disable_endpoints:00000000 usb_lld_disable_endpoints
     /tmp/ccx4dzgE.s:2553   .text.usb_lld_get_status_out:00000000 $t
     /tmp/ccx4dzgE.s:2559   .text.usb_lld_get_status_out:00000000 usb_lld_get_status_out
     /tmp/ccx4dzgE.s:2591   .text.usb_lld_get_status_in:00000000 $t
     /tmp/ccx4dzgE.s:2597   .text.usb_lld_get_status_in:00000000 usb_lld_get_status_in
     /tmp/ccx4dzgE.s:2629   .text.usb_lld_read_setup:00000000 $t
     /tmp/ccx4dzgE.s:2635   .text.usb_lld_read_setup:00000000 usb_lld_read_setup
     /tmp/ccx4dzgE.s:2658   .text.usb_lld_prepare_receive:00000000 $t
     /tmp/ccx4dzgE.s:2664   .text.usb_lld_prepare_receive:00000000 usb_lld_prepare_receive
     /tmp/ccx4dzgE.s:2710   .text.usb_lld_prepare_transmit:00000000 $t
     /tmp/ccx4dzgE.s:2716   .text.usb_lld_prepare_transmit:00000000 usb_lld_prepare_transmit
     /tmp/ccx4dzgE.s:2775   .text.usb_lld_start_out:00000000 $t
     /tmp/ccx4dzgE.s:2781   .text.usb_lld_start_out:00000000 usb_lld_start_out
     /tmp/ccx4dzgE.s:2803   .text.usb_lld_start_in:00000000 $t
     /tmp/ccx4dzgE.s:2809   .text.usb_lld_start_in:00000000 usb_lld_start_in
     /tmp/ccx4dzgE.s:2837   .text.usb_lld_stall_out:00000000 $t
     /tmp/ccx4dzgE.s:2843   .text.usb_lld_stall_out:00000000 usb_lld_stall_out
     /tmp/ccx4dzgE.s:2865   .text.usb_lld_stall_in:00000000 $t
     /tmp/ccx4dzgE.s:2871   .text.usb_lld_stall_in:00000000 usb_lld_stall_in
     /tmp/ccx4dzgE.s:2893   .text.usb_lld_clear_out:00000000 $t
     /tmp/ccx4dzgE.s:2899   .text.usb_lld_clear_out:00000000 usb_lld_clear_out
     /tmp/ccx4dzgE.s:2921   .text.usb_lld_clear_in:00000000 $t
     /tmp/ccx4dzgE.s:2927   .text.usb_lld_clear_in:00000000 usb_lld_clear_in
ARM GAS  /tmp/ccx4dzgE.s 			page 246


     /tmp/ccx4dzgE.s:2963   .bss.USBD1:00000000 USBD1
     /tmp/ccx4dzgE.s:2950   .rodata.fsparams:00000000 $d
     /tmp/ccx4dzgE.s:2954   .rodata.fsparams:00000000 fsparams
     /tmp/ccx4dzgE.s:2959   .bss.USBD1:00000000 $d
     /tmp/ccx4dzgE.s:2966   .rodata.str1.4:00000000 $d
     /tmp/ccx4dzgE.s:2970   .rodata.ep0config:00000000 $d
     /tmp/ccx4dzgE.s:2974   .rodata.ep0config:00000000 ep0config
     /tmp/ccx4dzgE.s:2990   .bss.ep0_state:00000000 ep0_state
     /tmp/ccx4dzgE.s:2996   .bss.ep0setup_buffer:00000000 ep0setup_buffer
     /tmp/ccx4dzgE.s:2987   .bss.ep0_state:00000000 $d
     /tmp/ccx4dzgE.s:2993   .bss.ep0setup_buffer:00000000 $d
                     .debug_frame:00000010 $d
     /tmp/ccx4dzgE.s:2004   .text.usb_lld_start:000000dc $t
     /tmp/ccx4dzgE.s:2282   .text.usb_lld_reset:0000012c $t

UNDEFINED SYMBOLS
halPolledDelay
rlist
chSchGoSleepS
chSchReadyI
chSchRescheduleS
_port_irq_epilogue
_usb_reset
usbObjectInit
chThdCreateI
nvicEnableVector
_usb_ep0setup
_usb_ep0in
_usb_ep0out
