ARM GAS  /tmp/ccx4dzgE.s 			page 1


   1              		.syntax unified
   2              		.cpu cortex-m4
   3              		.fpu softvfp
   4              		.eabi_attribute 20, 1
   5              		.eabi_attribute 21, 1
   6              		.eabi_attribute 23, 3
   7              		.eabi_attribute 24, 1
   8              		.eabi_attribute 25, 1
   9              		.eabi_attribute 26, 1
  10              		.eabi_attribute 30, 2
  11              		.eabi_attribute 34, 1
  12              		.eabi_attribute 18, 4
  13              		.thumb
  14              		.file	"usb_lld.c"
  15              		.text
  16              	.Ltext0:
  17              		.cfi_sections	.debug_frame
  18              		.section	.text.otg_disable_ep,"ax",%progbits
  19              		.align	2
  20              		.p2align 4,,15
  21              		.thumb
  22              		.thumb_func
  23              		.type	otg_disable_ep, %function
  24              	otg_disable_ep:
  25              	.LFB120:
  26              		.file 1 "../../os/hal/platforms/STM32/OTGv1/usb_lld.c"
  27              		.loc 1 141 0
  28              		.cfi_startproc
  29              		@ args = 0, pretend = 0, frame = 0
  30              		@ frame_needed = 0, uses_anonymous_args = 0
  31              		@ link register save eliminated.
  32              	.LVL0:
  33 0000 416D     		ldr	r1, [r0, #84]
  34              		.loc 1 142 0
  35 0002 036D     		ldr	r3, [r0, #80]
  36              	.LVL1:
  37              		.loc 1 145 0
  38 0004 0022     		movs	r2, #0
  39              		.loc 1 141 0
  40 0006 2DE9F001 		push	{r4, r5, r6, r7, r8}
  41              	.LCFI0:
  42              		.cfi_def_cfa_offset 20
  43              		.cfi_offset 4, -20
  44              		.cfi_offset 5, -16
  45              		.cfi_offset 6, -12
  46              		.cfi_offset 7, -8
  47              		.cfi_offset 8, -4
  48              		.loc 1 156 0
  49 000a 1046     		mov	r0, r2
  50              	.LVL2:
  51 000c 8F68     		ldr	r7, [r1, #8]
  52              		.loc 1 150 0
  53 000e 4FF0804C 		mov	ip, #1073741824
  54              		.loc 1 158 0
  55 0012 4FF0FF36 		mov	r6, #-1
  56 0016 17E0     		b	.L8
  57              	.LVL3:
ARM GAS  /tmp/ccx4dzgE.s 			page 2


  58              	.L2:
  59              		.loc 1 156 0
  60 0018 5850     		str	r0, [r3, r1]
  61 001a 5501     		lsls	r5, r2, #5
  62              	.L4:
  63              		.loc 1 157 0
  64 001c 5C19     		adds	r4, r3, r5
  65              		.loc 1 164 0
  66 001e 02F15801 		add	r1, r2, #88
  67 0022 4901     		lsls	r1, r1, #5
  68              		.loc 1 157 0
  69 0024 C4F81009 		str	r0, [r4, #2320]
  70              		.loc 1 158 0
  71 0028 C4F80869 		str	r6, [r4, #2312]
  72              		.loc 1 164 0
  73 002c 53F80180 		ldr	r8, [r3, r1]
  74 0030 B8F1000F 		cmp	r8, #0
  75 0034 17DB     		blt	.L19
  76              		.loc 1 171 0
  77 0036 5850     		str	r0, [r3, r1]
  78              	.L7:
  79              		.loc 1 172 0
  80 0038 5D19     		adds	r5, r3, r5
  81              		.loc 1 145 0
  82 003a 0132     		adds	r2, r2, #1
  83              	.LVL4:
  84 003c BA42     		cmp	r2, r7
  85              		.loc 1 172 0
  86 003e C5F8100B 		str	r0, [r5, #2832]
  87              		.loc 1 173 0
  88 0042 C5F8086B 		str	r6, [r5, #2824]
  89              		.loc 1 145 0
  90 0046 15D8     		bhi	.L20
  91              	.LVL5:
  92              	.L8:
  93              		.loc 1 149 0
  94 0048 02F14804 		add	r4, r2, #72
  95 004c 6101     		lsls	r1, r4, #5
  96 004e 5D58     		ldr	r5, [r3, r1]
  97 0050 002D     		cmp	r5, #0
  98 0052 E1DA     		bge	.L2
  99 0054 5501     		lsls	r5, r2, #5
 100              		.loc 1 150 0
 101 0056 43F801C0 		str	ip, [r3, r1]
 102              		.loc 1 152 0
 103 005a 5C19     		adds	r4, r3, r5
 104              	.L3:
 105              		.loc 1 152 0 is_stmt 0 discriminator 1
 106 005c D4F80819 		ldr	r1, [r4, #2312]
 107 0060 8907     		lsls	r1, r1, #30
 108 0062 FBD5     		bpl	.L3
 109 0064 DAE7     		b	.L4
 110              	.L19:
 111              		.loc 1 165 0 is_stmt 1
 112 0066 43F801C0 		str	ip, [r3, r1]
 113              	.L6:
 114              		.loc 1 167 0 discriminator 1
ARM GAS  /tmp/ccx4dzgE.s 			page 3


 115 006a D4F8081B 		ldr	r1, [r4, #2824]
 116 006e C906     		lsls	r1, r1, #27
 117 0070 FBD5     		bpl	.L6
 118 0072 E1E7     		b	.L7
 119              	.LVL6:
 120              	.L20:
 121              		.loc 1 175 0
 122 0074 4FF00110 		mov	r0, #65537
 123 0078 C3F81C08 		str	r0, [r3, #2076]
 124              		.loc 1 176 0
 125 007c BDE8F001 		pop	{r4, r5, r6, r7, r8}
 126 0080 7047     		bx	lr
 127              		.cfi_endproc
 128              	.LFE120:
 129              		.size	otg_disable_ep, .-otg_disable_ep
 130 0082 00BFAFF3 		.section	.text.otg_epout_handler,"ax",%progbits
 130      0080AFF3 
 130      0080AFF3 
 130      0080
 131              		.align	2
 132              		.p2align 4,,15
 133              		.thumb
 134              		.thumb_func
 135              		.type	otg_epout_handler, %function
 136              	otg_epout_handler:
 137              	.LFB134:
 138              		.loc 1 576 0
 139              		.cfi_startproc
 140              		@ args = 0, pretend = 0, frame = 0
 141              		@ frame_needed = 0, uses_anonymous_args = 0
 142              	.LVL7:
 143 0000 F8B5     		push	{r3, r4, r5, r6, r7, lr}
 144              	.LCFI1:
 145              		.cfi_def_cfa_offset 24
 146              		.cfi_offset 3, -24
 147              		.cfi_offset 4, -20
 148              		.cfi_offset 5, -16
 149              		.cfi_offset 6, -12
 150              		.cfi_offset 7, -8
 151              		.cfi_offset 14, -4
 152              		.loc 1 577 0
 153 0002 046D     		ldr	r4, [r0, #80]
 154              	.LVL8:
 155              		.loc 1 578 0
 156 0004 04EB4113 		add	r3, r4, r1, lsl #5
 157              		.loc 1 581 0
 158 0008 4FF0FF32 		mov	r2, #-1
 159              		.loc 1 578 0
 160 000c D3F8086B 		ldr	r6, [r3, #2824]
 161              	.LVL9:
 162              		.loc 1 581 0
 163 0010 C3F8082B 		str	r2, [r3, #2824]
 164              		.loc 1 583 0
 165 0014 3307     		lsls	r3, r6, #28
 166              		.loc 1 576 0
 167 0016 0546     		mov	r5, r0
 168 0018 0F46     		mov	r7, r1
ARM GAS  /tmp/ccx4dzgE.s 			page 4


 169              		.loc 1 583 0
 170 001a 03D5     		bpl	.L22
 171              		.loc 1 583 0 is_stmt 0 discriminator 1
 172 001c D4F81438 		ldr	r3, [r4, #2068]
 173 0020 1A07     		lsls	r2, r3, #28
 174 0022 15D4     		bmi	.L36
 175              	.LVL10:
 176              	.L22:
 177              		.loc 1 589 0 is_stmt 1
 178 0024 F307     		lsls	r3, r6, #31
 179 0026 03D5     		bpl	.L21
 180              		.loc 1 589 0 is_stmt 0 discriminator 1
 181 0028 D4F81408 		ldr	r0, [r4, #2068]
 182 002c C007     		lsls	r0, r0, #31
 183 002e 00D4     		bmi	.L37
 184              	.L21:
 185 0030 F8BD     		pop	{r3, r4, r5, r6, r7, pc}
 186              	.L37:
 187              		.loc 1 591 0 is_stmt 1
 188 0032 05EB8703 		add	r3, r5, r7, lsl #2
 189 0036 6989     		ldrh	r1, [r5, #10]
 190 0038 D868     		ldr	r0, [r3, #12]
 191 003a 0122     		movs	r2, #1
 192 003c 02FA07F2 		lsl	r2, r2, r7
 193 0040 21EA0203 		bic	r3, r1, r2
 194 0044 6B81     		strh	r3, [r5, #10]	@ movhi
 195 0046 C268     		ldr	r2, [r0, #12]
 196 0048 3946     		mov	r1, r7
 197 004a 2846     		mov	r0, r5
 198 004c 9047     		blx	r2
 199              	.LVL11:
 200 004e F8BD     		pop	{r3, r4, r5, r6, r7, pc}
 201              	.LVL12:
 202              	.L36:
 203              		.loc 1 586 0
 204 0050 00EB8102 		add	r2, r0, r1, lsl #2
 205 0054 D368     		ldr	r3, [r2, #12]
 206 0056 5A68     		ldr	r2, [r3, #4]
 207 0058 9047     		blx	r2
 208              	.LVL13:
 209 005a E3E7     		b	.L22
 210              		.cfi_endproc
 211              	.LFE134:
 212              		.size	otg_epout_handler, .-otg_epout_handler
 213 005c AFF30080 		.section	.text.otg_txfifo_flush,"ax",%progbits
 214              		.align	2
 215              		.p2align 4,,15
 216              		.thumb
 217              		.thumb_func
 218              		.type	otg_txfifo_flush, %function
 219              	otg_txfifo_flush:
 220              	.LFB122:
 221              		.loc 1 188 0
 222              		.cfi_startproc
 223              		@ args = 0, pretend = 0, frame = 0
 224              		@ frame_needed = 0, uses_anonymous_args = 0
 225              		@ link register save eliminated.
ARM GAS  /tmp/ccx4dzgE.s 			page 5


 226              	.LVL14:
 227              		.loc 1 189 0
 228 0000 026D     		ldr	r2, [r0, #80]
 229              	.LVL15:
 230              		.loc 1 191 0
 231 0002 8901     		lsls	r1, r1, #6
 232              	.LVL16:
 233 0004 41F02003 		orr	r3, r1, #32
 234 0008 1361     		str	r3, [r2, #16]
 235              	.LVL17:
 236              	.L39:
 237              		.loc 1 192 0 discriminator 1
 238 000a 1069     		ldr	r0, [r2, #16]
 239 000c 8106     		lsls	r1, r0, #26
 240 000e FCD4     		bmi	.L39
 241              		.loc 1 195 0
 242 0010 0C20     		movs	r0, #12
 243              		.loc 1 196 0
 244              		.loc 1 195 0
 245 0012 FFF7FEBF 		b	halPolledDelay
 246              	.LVL18:
 247              		.cfi_endproc
 248              	.LFE122:
 249              		.size	otg_txfifo_flush, .-otg_txfifo_flush
 250 0016 00BFAFF3 		.section	.text.usb_lld_pump,"ax",%progbits
 250      0080AFF3 
 250      0080
 251              		.align	2
 252              		.p2align 4,,15
 253              		.thumb
 254              		.thumb_func
 255              		.type	usb_lld_pump, %function
 256              	usb_lld_pump:
 257              	.LFB136:
 258              		.loc 1 675 0
 259              		.cfi_startproc
 260              		@ args = 0, pretend = 0, frame = 24
 261              		@ frame_needed = 0, uses_anonymous_args = 0
 262              	.LVL19:
 263 0000 2DE9F04F 		push	{r4, r5, r6, r7, r8, r9, sl, fp, lr}
 264              	.LCFI2:
 265              		.cfi_def_cfa_offset 36
 266              		.cfi_offset 4, -36
 267              		.cfi_offset 5, -32
 268              		.cfi_offset 6, -28
 269              		.cfi_offset 7, -24
 270              		.cfi_offset 8, -20
 271              		.cfi_offset 9, -16
 272              		.cfi_offset 10, -12
 273              		.cfi_offset 11, -8
 274              		.cfi_offset 14, -4
 275              		.loc 1 679 0
 276 0004 40F20001 		movw	r1, #:lower16:rlist
 277 0008 C0F20001 		movt	r1, #:upper16:rlist
 278              		.loc 1 677 0
 279 000c D0F850A0 		ldr	sl, [r0, #80]
 280              		.loc 1 679 0
ARM GAS  /tmp/ccx4dzgE.s 			page 6


 281 0010 8A69     		ldr	r2, [r1, #24]
 282              		.loc 1 675 0
 283 0012 8346     		mov	fp, r0
 284              	.LVL20:
 285              		.loc 1 679 0
 286 0014 9148     		ldr	r0, .L225
 287              	.LVL21:
 288              		.loc 1 675 0
 289 0016 87B0     		sub	sp, sp, #28
 290              	.LCFI3:
 291              		.cfi_def_cfa_offset 64
 292              	.LBB85:
 293              		.loc 1 680 0
 294 0018 2023     		movs	r3, #32
 295              	.LVL22:
 296              	.LBE85:
 297              		.loc 1 679 0
 298 001a 9061     		str	r0, [r2, #24]
 299              	.LBB86:
 300              		.loc 1 680 0
 301              	@ 680 "../../os/hal/platforms/STM32/OTGv1/usb_lld.c" 1
 302 001c 83F31188 		msr     BASEPRI, r3
 303              	@ 0 "" 2
 304              	.LVL23:
 305              		.thumb
 306              	.LBE86:
 307              	.LBB87:
 308              	.LBB88:
 309              		.loc 1 692 0
 310 0020 4FF00008 		mov	r8, #0
 311              	.LVL24:
 312              	.L104:
 313              	.LBE88:
 314              		.loc 1 686 0
 315 0024 9BF80030 		ldrb	r3, [fp, #0]	@ zero_extendqisi2
 316              	.LVL25:
 317 0028 012B     		cmp	r3, #1
 318 002a 06D0     		beq	.L42
 319              		.loc 1 686 0 is_stmt 0 discriminator 1
 320 002c DBF85C40 		ldr	r4, [fp, #92]
 321 0030 9CB9     		cbnz	r4, .L43
 322              		.loc 1 687 0 is_stmt 1
 323 0032 DAF81450 		ldr	r5, [sl, #20]
 324 0036 E806     		lsls	r0, r5, #27
 325 0038 0FD4     		bmi	.L43
 326              	.L42:
 327              		.loc 1 689 0
 328 003a 40F20007 		movw	r7, #:lower16:rlist
 329 003e C0F20007 		movt	r7, #:upper16:rlist
 330              		.loc 1 688 0
 331 0042 DAF81860 		ldr	r6, [sl, #24]
 332              		.loc 1 689 0
 333 0046 B969     		ldr	r1, [r7, #24]
 334              		.loc 1 688 0
 335 0048 46F01002 		orr	r2, r6, #16
 336 004c CAF81820 		str	r2, [sl, #24]
 337              		.loc 1 690 0
ARM GAS  /tmp/ccx4dzgE.s 			page 7


 338 0050 0220     		movs	r0, #2
 339              		.loc 1 689 0
 340 0052 CBF86410 		str	r1, [fp, #100]
 341              		.loc 1 690 0
 342 0056 FFF7FEFF 		bl	chSchGoSleepS
 343              	.LVL26:
 344              	.L43:
 345              	.LBB89:
 346              		.loc 1 692 0
 347 005a 0023     		movs	r3, #0
 348              	.LVL27:
 349              	@ 692 "../../os/hal/platforms/STM32/OTGv1/usb_lld.c" 1
 350 005c 83F31188 		msr     BASEPRI, r3
 351              	@ 0 "" 2
 352              	.LVL28:
 353              		.loc 1 695 0
 354              		.thumb
 355 0060 1C46     		mov	r4, r3
 356              	.LVL29:
 357              	.L197:
 358              	.LBE89:
 359              		.loc 1 698 0 discriminator 1
 360 0062 DAF81400 		ldr	r0, [sl, #20]
 361 0066 10F01007 		ands	r7, r0, #16
 362 006a 3AD0     		beq	.L221
 363              	.L69:
 364              	.LVL30:
 365              	.LBB90:
 366              	.LBB91:
 367              		.loc 1 448 0
 368 006c DBF85000 		ldr	r0, [fp, #80]
 369 0070 016A     		ldr	r1, [r0, #32]
 370              	.LVL31:
 371              		.loc 1 449 0
 372 0072 01F4F015 		and	r5, r1, #1966080
 373 0076 B5F5802F 		cmp	r5, #262144
 374 007a 47D0     		beq	.L46
 375 007c B5F5402F 		cmp	r5, #786432
 376 0080 EFD1     		bne	.L197
 377              	.LVL32:
 378              		.loc 1 454 0
 379 0082 01F00F07 		and	r7, r1, #15
 380              	.LVL33:
 381              		.loc 1 455 0
 382 0086 0BEB8702 		add	r2, fp, r7, lsl #2
 383              		.loc 1 453 0
 384 008a C1F30A16 		ubfx	r6, r1, #4, #11
 385              		.loc 1 455 0
 386 008e D368     		ldr	r3, [r2, #12]
 387              	.LVL34:
 388              	.LBB92:
 389              	.LBB93:
 390              		.loc 1 366 0
 391 0090 F11C     		adds	r1, r6, #3
 392              	.LVL35:
 393              		.loc 1 368 0
 394 0092 8D08     		lsrs	r5, r1, #2
ARM GAS  /tmp/ccx4dzgE.s 			page 8


 395              	.LBE93:
 396              	.LBE92:
 397              		.loc 1 455 0
 398 0094 1F6A     		ldr	r7, [r3, #32]
 399              	.LVL36:
 400              	.LBB100:
 401              	.LBB99:
 402              		.loc 1 368 0
 403 0096 E4D0     		beq	.L197
 404 0098 00F58050 		add	r0, r0, #4096
 405              	.LVL37:
 406 009c 6A1E     		subs	r2, r5, #1
 407              	.LBB94:
 408              		.loc 1 369 0
 409 009e 0368     		ldr	r3, [r0, #0]
 410              	.LVL38:
 411              	.LBE94:
 412              		.loc 1 368 0
 413 00a0 1146     		mov	r1, r2
 414              	.LBB95:
 415              		.loc 1 373 0
 416 00a2 47F8043B 		str	r3, [r7], #4
 417              	.LVL39:
 418 00a6 02F00106 		and	r6, r2, #1
 419              		.loc 1 375 0
 420 00aa 0123     		movs	r3, #1
 421              	.LVL40:
 422              	.LBE95:
 423              		.loc 1 368 0
 424 00ac 002A     		cmp	r2, #0
 425 00ae D8D0     		beq	.L197
 426 00b0 2EB1     		cbz	r6, .L48
 427              	.LBB96:
 428              		.loc 1 369 0
 429 00b2 0568     		ldr	r5, [r0, #0]
 430              	.LVL41:
 431              		.loc 1 375 0
 432 00b4 0023     		movs	r3, #0
 433              	.LVL42:
 434              	.LBE96:
 435              		.loc 1 368 0
 436 00b6 511E     		subs	r1, r2, #1
 437              	.LVL43:
 438              	.LBB97:
 439              		.loc 1 373 0
 440 00b8 47F8045B 		str	r5, [r7], #4
 441              	.LVL44:
 442              	.LBE97:
 443              		.loc 1 368 0
 444 00bc D1D0     		beq	.L197
 445              	.L48:
 446              	.LBB98:
 447              		.loc 1 369 0
 448 00be 0268     		ldr	r2, [r0, #0]
 449              		.loc 1 370 0
 450 00c0 13B1     		cbz	r3, .L50
 451              		.loc 1 373 0
ARM GAS  /tmp/ccx4dzgE.s 			page 9


 452 00c2 47F8042B 		str	r2, [r7], #4
 453              	.LVL45:
 454              		.loc 1 375 0
 455 00c6 013B     		subs	r3, r3, #1
 456              	.LVL46:
 457              	.L50:
 458              		.loc 1 377 0
 459 00c8 0139     		subs	r1, r1, #1
 460              		.loc 1 369 0
 461 00ca 0668     		ldr	r6, [r0, #0]
 462              		.loc 1 370 0
 463 00cc 13B1     		cbz	r3, .L158
 464              		.loc 1 373 0
 465 00ce 47F8046B 		str	r6, [r7], #4
 466              	.LVL47:
 467              		.loc 1 375 0
 468 00d2 013B     		subs	r3, r3, #1
 469              	.LVL48:
 470              	.L158:
 471              	.LBE98:
 472              		.loc 1 368 0
 473 00d4 0139     		subs	r1, r1, #1
 474 00d6 F2D1     		bne	.L48
 475              	.LBE99:
 476              	.LBE100:
 477              	.LBE91:
 478              	.LBE90:
 479              		.loc 1 698 0
 480 00d8 DAF81400 		ldr	r0, [sl, #20]
 481              	.LVL49:
 482 00dc 10F01007 		ands	r7, r0, #16
 483              	.LVL50:
 484 00e0 C4D1     		bne	.L69
 485              	.LVL51:
 486              	.L221:
 487              		.loc 1 702 0
 488 00e2 0125     		movs	r5, #1
 489              		.loc 1 703 0
 490 00e4 DBF85C30 		ldr	r3, [fp, #92]
 491              	.LVL52:
 492              		.loc 1 702 0
 493 00e8 A540     		lsls	r5, r5, r4
 494              		.loc 1 703 0
 495 00ea 1D42     		tst	r5, r3
 496              		.loc 1 702 0
 497 00ec 0495     		str	r5, [sp, #16]
 498              	.LVL53:
 499              		.loc 1 703 0
 500 00ee 40F0B780 		bne	.L202
 501 00f2 0134     		adds	r4, r4, #1
 502 00f4 0594     		str	r4, [sp, #20]
 503              	.LVL54:
 504              	.L70:
 505              		.loc 1 695 0
 506 00f6 DBF85420 		ldr	r2, [fp, #84]
 507 00fa 059B     		ldr	r3, [sp, #20]
 508              	.LVL55:
ARM GAS  /tmp/ccx4dzgE.s 			page 10


 509 00fc 9068     		ldr	r0, [r2, #8]
 510 00fe DCB2     		uxtb	r4, r3
 511              	.LVL56:
 512 0100 8442     		cmp	r4, r0
 513 0102 AED9     		bls	.L197
 514              	.LBB117:
 515              		.loc 1 727 0
 516 0104 2023     		movs	r3, #32
 517              	.LVL57:
 518              	@ 727 "../../os/hal/platforms/STM32/OTGv1/usb_lld.c" 1
 519 0106 83F31188 		msr     BASEPRI, r3
 520              	@ 0 "" 2
 521              	.LVL58:
 522              		.thumb
 523              	.LBE117:
 524              	.LBE87:
 525              		.loc 1 728 0
 526 010a 8BE7     		b	.L104
 527              	.LVL59:
 528              	.L46:
 529              	.LBB154:
 530              	.LBB118:
 531              	.LBB116:
 532              		.loc 1 460 0
 533 010c 01F00F07 		and	r7, r1, #15
 534              		.loc 1 461 0
 535 0110 0237     		adds	r7, r7, #2
 536 0112 0BEB8705 		add	r5, fp, r7, lsl #2
 537              		.loc 1 459 0
 538 0116 C1F30A16 		ubfx	r6, r1, #4, #11
 539              	.LVL60:
 540              		.loc 1 461 0
 541 011a 6A68     		ldr	r2, [r5, #4]
 542 011c 9169     		ldr	r1, [r2, #24]
 543              	.LVL61:
 544 011e 0B78     		ldrb	r3, [r1, #0]	@ zero_extendqisi2
 545              	.LVL62:
 546 0120 002B     		cmp	r3, #0
 547 0122 3BD1     		bne	.L222
 548              		.loc 1 468 0
 549 0124 0D1D     		adds	r5, r1, #4
 550 0126 2CCD     		ldmia	r5, {r2, r3, r5}
 551              	.LVL63:
 552 0128 0332     		adds	r2, r2, #3
 553              	.LVL64:
 554              	.LBB101:
 555              	.LBB102:
 556              		.loc 1 367 0
 557 012a D31A     		subs	r3, r2, r3
 558              		.loc 1 366 0
 559 012c F21C     		adds	r2, r6, #3
 560              	.LVL65:
 561              		.loc 1 367 0
 562 012e 9B08     		lsrs	r3, r3, #2
 563              	.LVL66:
 564              		.loc 1 368 0
 565 0130 9208     		lsrs	r2, r2, #2
ARM GAS  /tmp/ccx4dzgE.s 			page 11


 566              	.LVL67:
 567 0132 29D0     		beq	.L68
 568 0134 00F58050 		add	r0, r0, #4096
 569              	.LVL68:
 570 0138 02F1FF39 		add	r9, r2, #-1
 571 013c 09F0010C 		and	ip, r9, #1
 572 0140 AE46     		mov	lr, r5
 573              	.LBB103:
 574              		.loc 1 369 0
 575 0142 D0F80090 		ldr	r9, [r0, #0]
 576              	.LVL69:
 577              		.loc 1 370 0
 578 0146 1BB1     		cbz	r3, .L146
 579              		.loc 1 373 0
 580 0148 AE46     		mov	lr, r5
 581              		.loc 1 375 0
 582 014a 013B     		subs	r3, r3, #1
 583              	.LVL70:
 584              		.loc 1 373 0
 585 014c 4EF8049B 		str	r9, [lr], #4
 586              	.LVL71:
 587              	.L146:
 588              	.LBE103:
 589              		.loc 1 368 0
 590 0150 013A     		subs	r2, r2, #1
 591              	.LVL72:
 592 0152 19D0     		beq	.L68
 593 0154 BCF1000F 		cmp	ip, #0
 594 0158 07D0     		beq	.L214
 595              	.LBB104:
 596              		.loc 1 369 0
 597 015a D0F800C0 		ldr	ip, [r0, #0]
 598              	.LVL73:
 599              		.loc 1 370 0
 600 015e 13B1     		cbz	r3, .L148
 601              		.loc 1 373 0
 602 0160 4EF804CB 		str	ip, [lr], #4
 603              	.LVL74:
 604              		.loc 1 375 0
 605 0164 013B     		subs	r3, r3, #1
 606              	.LVL75:
 607              	.L148:
 608              	.LBE104:
 609              		.loc 1 368 0
 610 0166 013A     		subs	r2, r2, #1
 611 0168 0ED0     		beq	.L68
 612              	.L214:
 613 016a 8946     		mov	r9, r1
 614              	.L67:
 615              	.LBB105:
 616              		.loc 1 369 0
 617 016c 0168     		ldr	r1, [r0, #0]
 618              		.loc 1 370 0
 619 016e 13B1     		cbz	r3, .L66
 620              		.loc 1 373 0
 621 0170 4EF8041B 		str	r1, [lr], #4
 622              	.LVL76:
ARM GAS  /tmp/ccx4dzgE.s 			page 12


 623              		.loc 1 375 0
 624 0174 013B     		subs	r3, r3, #1
 625              	.LVL77:
 626              	.L66:
 627              		.loc 1 377 0
 628 0176 013A     		subs	r2, r2, #1
 629              		.loc 1 369 0
 630 0178 0168     		ldr	r1, [r0, #0]
 631              		.loc 1 370 0
 632 017a 13B1     		cbz	r3, .L151
 633              		.loc 1 373 0
 634 017c 4EF8041B 		str	r1, [lr], #4
 635              	.LVL78:
 636              		.loc 1 375 0
 637 0180 013B     		subs	r3, r3, #1
 638              	.LVL79:
 639              	.L151:
 640              	.LBE105:
 641              		.loc 1 368 0
 642 0182 013A     		subs	r2, r2, #1
 643 0184 F2D1     		bne	.L67
 644 0186 4946     		mov	r1, r9
 645              	.LVL80:
 646              	.L68:
 647              	.LBE102:
 648              	.LBE101:
 649              		.loc 1 473 0
 650 0188 AD19     		adds	r5, r5, r6
 651 018a CD60     		str	r5, [r1, #12]
 652              	.LVL81:
 653              	.L62:
 654              		.loc 1 475 0
 655 018c 0BEB8707 		add	r7, fp, r7, lsl #2
 656              	.LVL82:
 657 0190 7868     		ldr	r0, [r7, #4]
 658 0192 8569     		ldr	r5, [r0, #24]
 659 0194 A968     		ldr	r1, [r5, #8]
 660 0196 8E19     		adds	r6, r1, r6
 661              	.LVL83:
 662 0198 AE60     		str	r6, [r5, #8]
 663 019a 62E7     		b	.L197
 664              	.LVL84:
 665              	.L222:
 666              		.loc 1 463 0
 667 019c 00F58050 		add	r0, r0, #4096
 668 01a0 CD68     		ldr	r5, [r1, #12]
 669              	.LVL85:
 670              	.LBB106:
 671              	.LBB107:
 672              		.loc 1 396 0
 673 01a2 002E     		cmp	r6, #0
 674 01a4 40D0     		beq	.L53
 675 01a6 3346     		mov	r3, r6
 676 01a8 A446     		mov	ip, r4
 677              	.LVL86:
 678              	.L196:
 679              	.LBB108:
ARM GAS  /tmp/ccx4dzgE.s 			page 13


 680              		.loc 1 400 0
 681 01aa 032B     		cmp	r3, #3
 682              	.LBB109:
 683              		.loc 1 406 0
 684 01ac 6969     		ldr	r1, [r5, #20]
 685              	.LBE109:
 686              		.loc 1 400 0
 687 01ae 07D9     		bls	.L55
 688              	.LVL87:
 689              	.L199:
 690              	.LBB110:
 691              		.loc 1 406 0
 692 01b0 2C69     		ldr	r4, [r5, #16]
 693 01b2 A142     		cmp	r1, r4
 694 01b4 04D3     		bcc	.L55
 695              		.loc 1 407 0
 696 01b6 EC68     		ldr	r4, [r5, #12]
 697              	.LBE110:
 698              		.loc 1 400 0
 699 01b8 032B     		cmp	r3, #3
 700              	.LBB111:
 701              		.loc 1 407 0
 702 01ba 6C61     		str	r4, [r5, #20]
 703              	.LVL88:
 704              		.loc 1 406 0
 705 01bc 6969     		ldr	r1, [r5, #20]
 706              	.LBE111:
 707              		.loc 1 400 0
 708 01be F7D8     		bhi	.L199
 709              	.LVL89:
 710              	.L55:
 711              		.loc 1 418 0
 712 01c0 0268     		ldr	r2, [r0, #0]
 713              	.LVL90:
 714              		.loc 1 421 0
 715 01c2 01F8012B 		strb	r2, [r1], #1
 716              		.loc 1 422 0
 717 01c6 2C69     		ldr	r4, [r5, #16]
 718              		.loc 1 421 0
 719 01c8 6961     		str	r1, [r5, #20]
 720              		.loc 1 422 0
 721 01ca A142     		cmp	r1, r4
 722              		.loc 1 423 0
 723 01cc 24BF     		itt	cs
 724 01ce E968     		ldrcs	r1, [r5, #12]
 725 01d0 6961     		strcs	r1, [r5, #20]
 726              		.loc 1 420 0
 727 01d2 012B     		cmp	r3, #1
 728 01d4 27D0     		beq	.L208
 729              	.LVL91:
 730              		.loc 1 421 0
 731 01d6 D5F814E0 		ldr	lr, [r5, #20]
 732 01da 110A     		lsrs	r1, r2, #8
 733 01dc 0EF8011B 		strb	r1, [lr], #1
 734              		.loc 1 422 0
 735 01e0 2C69     		ldr	r4, [r5, #16]
 736              		.loc 1 421 0
ARM GAS  /tmp/ccx4dzgE.s 			page 14


 737 01e2 C5F814E0 		str	lr, [r5, #20]
 738              		.loc 1 422 0
 739 01e6 A645     		cmp	lr, r4
 740              		.loc 1 423 0
 741 01e8 24BF     		itt	cs
 742 01ea EC68     		ldrcs	r4, [r5, #12]
 743 01ec 6C61     		strcs	r4, [r5, #20]
 744              		.loc 1 420 0
 745 01ee 022B     		cmp	r3, #2
 746 01f0 19D0     		beq	.L208
 747              	.LVL92:
 748              		.loc 1 421 0
 749 01f2 D5F81490 		ldr	r9, [r5, #20]
 750 01f6 110C     		lsrs	r1, r2, #16
 751 01f8 09F8011B 		strb	r1, [r9], #1
 752              		.loc 1 422 0
 753 01fc 2C69     		ldr	r4, [r5, #16]
 754              		.loc 1 421 0
 755 01fe C5F81490 		str	r9, [r5, #20]
 756              		.loc 1 422 0
 757 0202 A145     		cmp	r9, r4
 758              		.loc 1 423 0
 759 0204 24BF     		itt	cs
 760 0206 EC68     		ldrcs	r4, [r5, #12]
 761 0208 6C61     		strcs	r4, [r5, #20]
 762              		.loc 1 420 0
 763 020a 032B     		cmp	r3, #3
 764 020c 0BD0     		beq	.L208
 765              	.LVL93:
 766              		.loc 1 421 0
 767 020e 6969     		ldr	r1, [r5, #20]
 768 0210 120E     		lsrs	r2, r2, #24
 769              	.LVL94:
 770 0212 01F8012B 		strb	r2, [r1], #1
 771              		.loc 1 422 0
 772 0216 2C69     		ldr	r4, [r5, #16]
 773              		.loc 1 421 0
 774 0218 6961     		str	r1, [r5, #20]
 775              		.loc 1 422 0
 776 021a A142     		cmp	r1, r4
 777              		.loc 1 423 0
 778 021c 24BF     		itt	cs
 779 021e EC68     		ldrcs	r4, [r5, #12]
 780 0220 6C61     		strcs	r4, [r5, #20]
 781              		.loc 1 420 0
 782 0222 043B     		subs	r3, r3, #4
 783              	.LVL95:
 784 0224 C1D1     		bne	.L196
 785              	.LVL96:
 786              	.L208:
 787 0226 6446     		mov	r4, ip
 788              	.L53:
 789              	.LBE108:
 790              	.LBB112:
 791              		.loc 1 430 0
 792 0228 2023     		movs	r3, #32
 793              	.LVL97:
ARM GAS  /tmp/ccx4dzgE.s 			page 15


 794              	@ 430 "../../os/hal/platforms/STM32/OTGv1/usb_lld.c" 1
 795 022a 83F31188 		msr     BASEPRI, r3
 796              	@ 0 "" 2
 797              	.LVL98:
 798              		.thumb
 799              	.LBE112:
 800              		.loc 1 431 0
 801 022e A968     		ldr	r1, [r5, #8]
 802              		.loc 1 432 0
 803 0230 2868     		ldr	r0, [r5, #0]
 804              	.LVL99:
 805              		.loc 1 431 0
 806 0232 8A19     		adds	r2, r1, r6
 807              		.loc 1 432 0
 808 0234 A842     		cmp	r0, r5
 809              		.loc 1 431 0
 810 0236 AA60     		str	r2, [r5, #8]
 811              		.loc 1 432 0
 812 0238 09D0     		beq	.L64
 813              	.LVL100:
 814              	.L137:
 815              	.LBB113:
 816              	.LBB114:
 817              		.file 2 "../../os/kernel/include/chinline.h"
 818              		.loc 2 55 0
 819 023a 0368     		ldr	r3, [r0, #0]
 820              	.LVL101:
 821 023c 2B60     		str	r3, [r5, #0]
 822 023e 5D60     		str	r5, [r3, #4]
 823              	.LBE114:
 824              	.LBE113:
 825              		.loc 1 433 0
 826 0240 FFF7FEFF 		bl	chSchReadyI
 827              	.LVL102:
 828 0244 C0F82480 		str	r8, [r0, #36]
 829              		.loc 1 432 0
 830 0248 2868     		ldr	r0, [r5, #0]
 831 024a A842     		cmp	r0, r5
 832 024c F5D1     		bne	.L137
 833              	.LVL103:
 834              	.L64:
 835              		.loc 1 434 0
 836 024e FFF7FEFF 		bl	chSchRescheduleS
 837              	.LVL104:
 838              	.LBB115:
 839              		.loc 1 435 0
 840 0252 0023     		movs	r3, #0
 841              	@ 435 "../../os/hal/platforms/STM32/OTGv1/usb_lld.c" 1
 842 0254 83F31188 		msr     BASEPRI, r3
 843              	@ 0 "" 2
 844              	.LVL105:
 845              		.thumb
 846 0258 98E7     		b	.L62
 847              	.L226:
 848 025a 00BF     		.align	2
 849              	.L225:
 850 025c 00000000 		.word	.LC0
ARM GAS  /tmp/ccx4dzgE.s 			page 16


 851              	.LVL106:
 852              	.L202:
 853              	.LBE115:
 854              	.LBE107:
 855              	.LBE106:
 856              	.LBE116:
 857              	.LBE118:
 858              	.LBB119:
 859              	.LBB120:
 860              		.loc 1 706 0
 861 0260 2023     		movs	r3, #32
 862              	.LVL107:
 863              	@ 706 "../../os/hal/platforms/STM32/OTGv1/usb_lld.c" 1
 864 0262 83F31188 		msr     BASEPRI, r3
 865              	@ 0 "" 2
 866              	.LVL108:
 867              		.thumb
 868              	.LBE120:
 869              		.loc 1 714 0
 870 0266 DAF80860 		ldr	r6, [sl, #8]
 871              		.loc 1 715 0
 872 026a DBF85C10 		ldr	r1, [fp, #92]
 873 026e 0498     		ldr	r0, [sp, #16]
 874              		.loc 1 714 0
 875 0270 26F00102 		bic	r2, r6, #1
 876              		.loc 1 715 0
 877 0274 21EA0005 		bic	r5, r1, r0
 878              	.LVL109:
 879              		.loc 1 714 0
 880 0278 CAF80820 		str	r2, [sl, #8]
 881              	.LBB121:
 882              		.loc 1 716 0
 883 027c 3B46     		mov	r3, r7
 884              	.LVL110:
 885              	.LBE121:
 886              		.loc 1 715 0
 887 027e CBF85C50 		str	r5, [fp, #92]
 888              	.LBB122:
 889              		.loc 1 716 0
 890              	@ 716 "../../os/hal/platforms/STM32/OTGv1/usb_lld.c" 1
 891 0282 83F31188 		msr     BASEPRI, r3
 892              	@ 0 "" 2
 893              	.LVL111:
 894              		.thumb
 895              	.LBE122:
 896              	.LBB123:
 897              	.LBB124:
 898              		.loc 1 499 0
 899 0286 A71C     		adds	r7, r4, #2
 900 0288 0BEB8703 		add	r3, fp, r7, lsl #2
 901              	.LVL112:
 902 028c 5D68     		ldr	r5, [r3, #4]
 903 028e 6869     		ldr	r0, [r5, #20]
 904 0290 8268     		ldr	r2, [r0, #8]
 905 0292 4668     		ldr	r6, [r0, #4]
 906 0294 9642     		cmp	r6, r2
 907 0296 40F2FA80 		bls	.L223
ARM GAS  /tmp/ccx4dzgE.s 			page 17


 908              		.loc 1 509 0
 909 029a DBF85010 		ldr	r1, [fp, #80]
 910              		.loc 1 504 0
 911 029e 2D8A     		ldrh	r5, [r5, #16]
 912              		.loc 1 509 0
 913 02a0 6701     		lsls	r7, r4, #5
 914 02a2 0297     		str	r7, [sp, #8]
 915 02a4 CF19     		adds	r7, r1, r7
 916              		.loc 1 503 0
 917 02a6 B61A     		subs	r6, r6, r2
 918              	.LVL113:
 919              		.loc 1 509 0
 920 02a8 D7F81829 		ldr	r2, [r7, #2328]
 921 02ac B542     		cmp	r5, r6
 922 02ae 28BF     		it	cs
 923 02b0 3546     		movcs	r5, r6
 924              	.LVL114:
 925 02b2 97B2     		uxth	r7, r2
 926 02b4 0134     		adds	r4, r4, #1
 927              	.LVL115:
 928 02b6 B5EB870F 		cmp	r5, r7, lsl #2
 929 02ba 0594     		str	r4, [sp, #20]
 930 02bc 47D8     		bhi	.L74
 931              		.loc 1 524 0
 932 02be 2603     		lsls	r6, r4, #12
 933 02c0 0196     		str	r6, [sp, #4]
 934              		.loc 1 529 0
 935 02c2 0393     		str	r3, [sp, #12]
 936              	.LVL116:
 937              	.L75:
 938              		.loc 1 516 0
 939 02c4 0378     		ldrb	r3, [r0, #0]	@ zero_extendqisi2
 940 02c6 002B     		cmp	r3, #0
 941 02c8 57D1     		bne	.L224
 942              		.loc 1 524 0
 943 02ca 019F     		ldr	r7, [sp, #4]
 944              	.LBB125:
 945              	.LBB126:
 946              		.loc 1 265 0
 947 02cc EA1C     		adds	r2, r5, #3
 948              	.LBB127:
 949              	.LBB128:
 950              		.loc 1 242 0
 951 02ce 5FEA920E 		lsrs	lr, r2, #2
 952              	.LBE128:
 953              	.LBE127:
 954              	.LBE126:
 955              	.LBE125:
 956              		.loc 1 524 0
 957 02d2 01EB0704 		add	r4, r1, r7
 958 02d6 C768     		ldr	r7, [r0, #12]
 959              	.LVL117:
 960              	.LBB135:
 961              	.LBB133:
 962              	.LBB131:
 963              	.LBB129:
 964              		.loc 1 242 0
ARM GAS  /tmp/ccx4dzgE.s 			page 18


 965 02d8 1ED0     		beq	.L98
 966              	.LBE129:
 967              	.LBE131:
 968              	.LBE133:
 969              	.LBE135:
 970              		.loc 1 675 0
 971 02da 3A46     		mov	r2, r7
 972 02dc 0EF1FF36 		add	r6, lr, #-1
 973              	.LBB136:
 974              	.LBB134:
 975              	.LBB132:
 976              	.LBB130:
 977              		.loc 1 245 0
 978 02e0 52F804CB 		ldr	ip, [r2], #4
 979              		.loc 1 242 0
 980 02e4 3346     		mov	r3, r6
 981 02e6 06F00109 		and	r9, r6, #1
 982              		.loc 1 245 0
 983 02ea 019E     		ldr	r6, [sp, #4]
 984 02ec 0432     		adds	r2, r2, #4
 985 02ee 41F806C0 		str	ip, [r1, r6]
 986              	.LVL118:
 987              		.loc 1 242 0
 988 02f2 8BB1     		cbz	r3, .L98
 989 02f4 B9F1000F 		cmp	r9, #0
 990 02f8 05D0     		beq	.L97
 991              		.loc 1 245 0
 992 02fa 52F8041C 		ldr	r1, [r2, #-4]
 993 02fe 0432     		adds	r2, r2, #4
 994              		.loc 1 242 0
 995 0300 013B     		subs	r3, r3, #1
 996              		.loc 1 245 0
 997 0302 2160     		str	r1, [r4, #0]
 998              	.LVL119:
 999              		.loc 1 242 0
 1000 0304 08D0     		beq	.L98
 1001              	.L97:
 1002              		.loc 1 245 0
 1003 0306 52F8046C 		ldr	r6, [r2, #-4]
 1004 030a 2660     		str	r6, [r4, #0]
 1005 030c 52F8041B 		ldr	r1, [r2], #4
 1006 0310 0432     		adds	r2, r2, #4
 1007              		.loc 1 242 0
 1008 0312 023B     		subs	r3, r3, #2
 1009              		.loc 1 245 0
 1010 0314 2160     		str	r1, [r4, #0]
 1011              		.loc 1 242 0
 1012 0316 F6D1     		bne	.L97
 1013              	.L98:
 1014              	.LBE130:
 1015              	.LBE132:
 1016              	.LBE134:
 1017              	.LBE136:
 1018              		.loc 1 527 0
 1019 0318 7C19     		adds	r4, r7, r5
 1020              	.LVL120:
 1021 031a C460     		str	r4, [r0, #12]
ARM GAS  /tmp/ccx4dzgE.s 			page 19


 1022              	.LVL121:
 1023              	.L94:
 1024              		.loc 1 529 0
 1025 031c 0398     		ldr	r0, [sp, #12]
 1026 031e 4468     		ldr	r4, [r0, #4]
 1027 0320 6069     		ldr	r0, [r4, #20]
 1028 0322 8668     		ldr	r6, [r0, #8]
 1029              		.loc 1 499 0
 1030 0324 4268     		ldr	r2, [r0, #4]
 1031              		.loc 1 529 0
 1032 0326 AB19     		adds	r3, r5, r6
 1033              	.LVL122:
 1034              		.loc 1 499 0
 1035 0328 9A42     		cmp	r2, r3
 1036              		.loc 1 529 0
 1037 032a 8360     		str	r3, [r0, #8]
 1038              		.loc 1 499 0
 1039 032c 40F2B180 		bls	.L99
 1040              		.loc 1 509 0
 1041 0330 029D     		ldr	r5, [sp, #8]
 1042              	.LVL123:
 1043 0332 DBF85010 		ldr	r1, [fp, #80]
 1044              		.loc 1 504 0
 1045 0336 248A     		ldrh	r4, [r4, #16]
 1046              		.loc 1 509 0
 1047 0338 4F19     		adds	r7, r1, r5
 1048              		.loc 1 503 0
 1049 033a D51A     		subs	r5, r2, r3
 1050              	.LVL124:
 1051              		.loc 1 509 0
 1052 033c D7F81869 		ldr	r6, [r7, #2328]
 1053 0340 A542     		cmp	r5, r4
 1054 0342 28BF     		it	cs
 1055 0344 2546     		movcs	r5, r4
 1056              	.LVL125:
 1057 0346 B2B2     		uxth	r2, r6
 1058 0348 B5EB820F 		cmp	r5, r2, lsl #2
 1059 034c BAD9     		bls	.L75
 1060              	.L74:
 1061              	.LBB137:
 1062              	.LBB138:
 1063              		.loc 1 510 0
 1064 034e 0020     		movs	r0, #0
 1065              	.LVL126:
 1066              	.L72:
 1067              	.LBE138:
 1068              	.LBE137:
 1069              	.LBE124:
 1070              	.LBE123:
 1071              	.LBB151:
 1072              		.loc 1 720 0
 1073 0350 2023     		movs	r3, #32
 1074              	.LVL127:
 1075              	@ 720 "../../os/hal/platforms/STM32/OTGv1/usb_lld.c" 1
 1076 0352 83F31188 		msr     BASEPRI, r3
 1077              	@ 0 "" 2
 1078              	.LVL128:
ARM GAS  /tmp/ccx4dzgE.s 			page 20


 1079              		.thumb
 1080              	.LBE151:
 1081              		.loc 1 721 0
 1082 0356 DAF80810 		ldr	r1, [sl, #8]
 1083 035a 41F00104 		orr	r4, r1, #1
 1084 035e CAF80840 		str	r4, [sl, #8]
 1085              		.loc 1 722 0
 1086 0362 30B9     		cbnz	r0, .L101
 1087              		.loc 1 723 0
 1088 0364 DAF83458 		ldr	r5, [sl, #2100]
 1089 0368 049F     		ldr	r7, [sp, #16]
 1090 036a 47EA0506 		orr	r6, r7, r5
 1091 036e CAF83468 		str	r6, [sl, #2100]
 1092              	.L101:
 1093              	.LBB152:
 1094              		.loc 1 724 0
 1095 0372 0023     		movs	r3, #0
 1096              	.LVL129:
 1097              	@ 724 "../../os/hal/platforms/STM32/OTGv1/usb_lld.c" 1
 1098 0374 83F31188 		msr     BASEPRI, r3
 1099              	@ 0 "" 2
 1100              	.LVL130:
 1101              		.thumb
 1102 0378 BDE6     		b	.L70
 1103              	.LVL131:
 1104              	.L224:
 1105              	.LBE152:
 1106              	.LBB153:
 1107              	.LBB150:
 1108              		.loc 1 518 0
 1109 037a 019A     		ldr	r2, [sp, #4]
 1110 037c C468     		ldr	r4, [r0, #12]
 1111 037e 8918     		adds	r1, r1, r2
 1112              	.LVL132:
 1113              	.LBB149:
 1114              	.LBB148:
 1115              		.loc 1 283 0
 1116 0380 002D     		cmp	r5, #0
 1117 0382 35D0     		beq	.L86
 1118 0384 2069     		ldr	r0, [r4, #16]
 1119 0386 2A46     		mov	r2, r5
 1120 0388 AE46     		mov	lr, r5
 1121              	.LVL133:
 1122              	.L93:
 1123              	.LBB139:
 1124              		.loc 1 287 0
 1125 038a 9708     		lsrs	r7, r2, #2
 1126              	.LVL134:
 1127 038c 4BD0     		beq	.L80
 1128              	.LBB140:
 1129              		.loc 1 289 0
 1130 038e A569     		ldr	r5, [r4, #24]
 1131              	.LVL135:
 1132 0390 431B     		subs	r3, r0, r5
 1133 0392 48BF     		it	mi
 1134 0394 0333     		addmi	r3, r3, #3
 1135 0396 9B10     		asrs	r3, r3, #2
ARM GAS  /tmp/ccx4dzgE.s 			page 21


 1136              		.loc 1 291 0
 1137 0398 9F42     		cmp	r7, r3
 1138 039a 38BF     		it	cc
 1139 039c 3B46     		movcc	r3, r7
 1140              	.LVL136:
 1141 039e 4FEA830C 		lsl	ip, r3, #2
 1142 03a2 CCEB0202 		rsb	r2, ip, r2
 1143              	.LVL137:
 1144              	.LBB141:
 1145              	.LBB142:
 1146              		.loc 1 242 0
 1147 03a6 DBB1     		cbz	r3, .L82
 1148              		.loc 1 675 0
 1149 03a8 2E46     		mov	r6, r5
 1150 03aa 5F1E     		subs	r7, r3, #1
 1151              	.LVL138:
 1152              		.loc 1 245 0
 1153 03ac 56F8049B 		ldr	r9, [r6], #4
 1154              		.loc 1 242 0
 1155 03b0 3B46     		mov	r3, r7
 1156              	.LVL139:
 1157              		.loc 1 245 0
 1158 03b2 C1F80090 		str	r9, [r1, #0]
 1159              	.LVL140:
 1160 03b6 07F00107 		and	r7, r7, #1
 1161 03ba 0436     		adds	r6, r6, #4
 1162              		.loc 1 242 0
 1163 03bc 7BB1     		cbz	r3, .L204
 1164 03be 2FB1     		cbz	r7, .L83
 1165              		.loc 1 245 0
 1166 03c0 56F8047C 		ldr	r7, [r6, #-4]
 1167 03c4 0436     		adds	r6, r6, #4
 1168              		.loc 1 242 0
 1169 03c6 013B     		subs	r3, r3, #1
 1170              	.LVL141:
 1171              		.loc 1 245 0
 1172 03c8 0F60     		str	r7, [r1, #0]
 1173              	.LVL142:
 1174              		.loc 1 242 0
 1175 03ca 08D0     		beq	.L204
 1176              	.LVL143:
 1177              	.L83:
 1178              		.loc 1 245 0
 1179 03cc 56F8047C 		ldr	r7, [r6, #-4]
 1180 03d0 0F60     		str	r7, [r1, #0]
 1181 03d2 56F8047B 		ldr	r7, [r6], #4
 1182 03d6 0436     		adds	r6, r6, #4
 1183              		.loc 1 242 0
 1184 03d8 023B     		subs	r3, r3, #2
 1185              		.loc 1 245 0
 1186 03da 0F60     		str	r7, [r1, #0]
 1187              		.loc 1 242 0
 1188 03dc F6D1     		bne	.L83
 1189              	.L204:
 1190 03de 6544     		add	r5, r5, ip
 1191              	.LVL144:
 1192              	.L82:
ARM GAS  /tmp/ccx4dzgE.s 			page 22


 1193              	.LBE142:
 1194              	.LBE141:
 1195              		.loc 1 293 0
 1196 03e0 A842     		cmp	r0, r5
 1197              		.loc 1 292 0
 1198 03e2 A561     		str	r5, [r4, #24]
 1199              		.loc 1 293 0
 1200 03e4 1DD8     		bhi	.L84
 1201              		.loc 1 294 0
 1202 03e6 E668     		ldr	r6, [r4, #12]
 1203 03e8 A661     		str	r6, [r4, #24]
 1204              	.LBE140:
 1205              	.LBE139:
 1206              		.loc 1 283 0
 1207 03ea 002A     		cmp	r2, #0
 1208 03ec CDD1     		bne	.L93
 1209              	.LVL145:
 1210              	.L212:
 1211 03ee 7546     		mov	r5, lr
 1212              	.LVL146:
 1213              	.L86:
 1214              	.LBB143:
 1215              		.loc 1 318 0
 1216 03f0 2023     		movs	r3, #32
 1217              	.LVL147:
 1218              	@ 318 "../../os/hal/platforms/STM32/OTGv1/usb_lld.c" 1
 1219 03f2 83F31188 		msr     BASEPRI, r3
 1220              	@ 0 "" 2
 1221              	.LVL148:
 1222              		.thumb
 1223              	.LBE143:
 1224              		.loc 1 319 0
 1225 03f6 A168     		ldr	r1, [r4, #8]
 1226              	.LVL149:
 1227              		.loc 1 320 0
 1228 03f8 2068     		ldr	r0, [r4, #0]
 1229              		.loc 1 319 0
 1230 03fa 4F19     		adds	r7, r1, r5
 1231              		.loc 1 320 0
 1232 03fc A042     		cmp	r0, r4
 1233              		.loc 1 319 0
 1234 03fe A760     		str	r7, [r4, #8]
 1235              		.loc 1 320 0
 1236 0400 09D0     		beq	.L79
 1237              	.L138:
 1238              	.LVL150:
 1239              	.LBB144:
 1240              	.LBB145:
 1241              		.loc 2 55 0
 1242 0402 0368     		ldr	r3, [r0, #0]
 1243              	.LVL151:
 1244 0404 2360     		str	r3, [r4, #0]
 1245 0406 5C60     		str	r4, [r3, #4]
 1246              	.LBE145:
 1247              	.LBE144:
 1248              		.loc 1 321 0
 1249 0408 FFF7FEFF 		bl	chSchReadyI
ARM GAS  /tmp/ccx4dzgE.s 			page 23


 1250              	.LVL152:
 1251 040c C0F82480 		str	r8, [r0, #36]
 1252              		.loc 1 320 0
 1253 0410 2068     		ldr	r0, [r4, #0]
 1254 0412 A042     		cmp	r0, r4
 1255 0414 F5D1     		bne	.L138
 1256              	.LVL153:
 1257              	.L79:
 1258              		.loc 1 322 0
 1259 0416 FFF7FEFF 		bl	chSchRescheduleS
 1260              	.LVL154:
 1261              	.LBB146:
 1262              		.loc 1 323 0
 1263 041a 0023     		movs	r3, #0
 1264              	@ 323 "../../os/hal/platforms/STM32/OTGv1/usb_lld.c" 1
 1265 041c 83F31188 		msr     BASEPRI, r3
 1266              	@ 0 "" 2
 1267              	.LVL155:
 1268              		.thumb
 1269 0420 7CE7     		b	.L94
 1270              	.LVL156:
 1271              	.L84:
 1272              	.LBE146:
 1273              	.LBB147:
 1274              		.loc 1 301 0
 1275 0422 002A     		cmp	r2, #0
 1276 0424 E3D0     		beq	.L212
 1277              	.LVL157:
 1278              	.L80:
 1279              		.loc 1 308 0
 1280 0426 A669     		ldr	r6, [r4, #24]
 1281 0428 16F8013B 		ldrb	r3, [r6], #1	@ zero_extendqisi2
 1282              	.LVL158:
 1283              		.loc 1 309 0
 1284 042c B042     		cmp	r0, r6
 1285              		.loc 1 308 0
 1286 042e A661     		str	r6, [r4, #24]
 1287              		.loc 1 310 0
 1288 0430 9CBF     		itt	ls
 1289 0432 E668     		ldrls	r6, [r4, #12]
 1290 0434 A661     		strls	r6, [r4, #24]
 1291              		.loc 1 307 0
 1292 0436 012A     		cmp	r2, #1
 1293 0438 27D0     		beq	.L88
 1294              		.loc 1 308 0
 1295 043a A769     		ldr	r7, [r4, #24]
 1296 043c 17F8015B 		ldrb	r5, [r7], #1	@ zero_extendqisi2
 1297              		.loc 1 309 0
 1298 0440 B842     		cmp	r0, r7
 1299              		.loc 1 308 0
 1300 0442 A761     		str	r7, [r4, #24]
 1301              		.loc 1 310 0
 1302 0444 9CBF     		itt	ls
 1303 0446 E768     		ldrls	r7, [r4, #12]
 1304 0448 A761     		strls	r7, [r4, #24]
 1305              		.loc 1 307 0
 1306 044a 022A     		cmp	r2, #2
ARM GAS  /tmp/ccx4dzgE.s 			page 24


 1307              		.loc 1 308 0
 1308 044c 43EA0523 		orr	r3, r3, r5, lsl #8
 1309              	.LVL159:
 1310              		.loc 1 307 0
 1311 0450 1BD0     		beq	.L88
 1312              		.loc 1 308 0
 1313 0452 A769     		ldr	r7, [r4, #24]
 1314 0454 17F8016B 		ldrb	r6, [r7], #1	@ zero_extendqisi2
 1315              		.loc 1 309 0
 1316 0458 B842     		cmp	r0, r7
 1317              		.loc 1 308 0
 1318 045a A761     		str	r7, [r4, #24]
 1319              		.loc 1 310 0
 1320 045c 9CBF     		itt	ls
 1321 045e E768     		ldrls	r7, [r4, #12]
 1322 0460 A761     		strls	r7, [r4, #24]
 1323              		.loc 1 307 0
 1324 0462 032A     		cmp	r2, #3
 1325              		.loc 1 308 0
 1326 0464 43EA0643 		orr	r3, r3, r6, lsl #16
 1327              	.LVL160:
 1328              		.loc 1 307 0
 1329 0468 0FD0     		beq	.L88
 1330              		.loc 1 308 0
 1331 046a A569     		ldr	r5, [r4, #24]
 1332 046c 15F8017B 		ldrb	r7, [r5], #1	@ zero_extendqisi2
 1333              		.loc 1 309 0
 1334 0470 8542     		cmp	r5, r0
 1335              		.loc 1 308 0
 1336 0472 A561     		str	r5, [r4, #24]
 1337              		.loc 1 310 0
 1338 0474 24BF     		itt	cs
 1339 0476 E568     		ldrcs	r5, [r4, #12]
 1340 0478 A561     		strcs	r5, [r4, #24]
 1341              		.loc 1 307 0
 1342 047a 043A     		subs	r2, r2, #4
 1343              	.LVL161:
 1344              		.loc 1 308 0
 1345 047c 43EA0763 		orr	r3, r3, r7, lsl #24
 1346              	.LVL162:
 1347              		.loc 1 307 0
 1348 0480 03D0     		beq	.L88
 1349              	.LVL163:
 1350              	.L92:
 1351              		.loc 1 314 0
 1352 0482 0B60     		str	r3, [r1, #0]
 1353              	.LVL164:
 1354              	.LBE147:
 1355              		.loc 1 283 0
 1356 0484 002A     		cmp	r2, #0
 1357 0486 80D1     		bne	.L93
 1358 0488 B1E7     		b	.L212
 1359              	.LVL165:
 1360              	.L88:
 1361 048a 0022     		movs	r2, #0
 1362 048c F9E7     		b	.L92
 1363              	.LVL166:
ARM GAS  /tmp/ccx4dzgE.s 			page 25


 1364              	.L223:
 1365 048e 631C     		adds	r3, r4, #1
 1366 0490 0593     		str	r3, [sp, #20]
 1367              	.LVL167:
 1368              	.L99:
 1369              		.loc 1 500 0
 1370 0492 0120     		movs	r0, #1
 1371 0494 5CE7     		b	.L72
 1372              	.LBE148:
 1373              	.LBE149:
 1374              	.LBE150:
 1375              	.LBE153:
 1376              	.LBE119:
 1377              	.LBE154:
 1378              		.cfi_endproc
 1379              	.LFE136:
 1380              		.size	usb_lld_pump, .-usb_lld_pump
 1381 0496 00BFAFF3 		.section	.text.otg_epin_handler,"ax",%progbits
 1381      0080AFF3 
 1381      0080
 1382              		.align	2
 1383              		.p2align 4,,15
 1384              		.thumb
 1385              		.thumb_func
 1386              		.type	otg_epin_handler, %function
 1387              	otg_epin_handler:
 1388              	.LFB133:
 1389              		.loc 1 544 0
 1390              		.cfi_startproc
 1391              		@ args = 0, pretend = 0, frame = 0
 1392              		@ frame_needed = 0, uses_anonymous_args = 0
 1393              	.LVL168:
 1394 0000 F8B5     		push	{r3, r4, r5, r6, r7, lr}
 1395              	.LCFI4:
 1396              		.cfi_def_cfa_offset 24
 1397              		.cfi_offset 3, -24
 1398              		.cfi_offset 4, -20
 1399              		.cfi_offset 5, -16
 1400              		.cfi_offset 6, -12
 1401              		.cfi_offset 7, -8
 1402              		.cfi_offset 14, -4
 1403              		.loc 1 545 0
 1404 0002 046D     		ldr	r4, [r0, #80]
 1405              	.LVL169:
 1406              		.loc 1 546 0
 1407 0004 04EB4113 		add	r3, r4, r1, lsl #5
 1408              		.loc 1 548 0
 1409 0008 4FF0FF32 		mov	r2, #-1
 1410              		.loc 1 546 0
 1411 000c D3F80869 		ldr	r6, [r3, #2312]
 1412              	.LVL170:
 1413              		.loc 1 548 0
 1414 0010 C3F80829 		str	r2, [r3, #2312]
 1415              		.loc 1 553 0
 1416 0014 F307     		lsls	r3, r6, #31
 1417              		.loc 1 544 0
 1418 0016 0546     		mov	r5, r0
ARM GAS  /tmp/ccx4dzgE.s 			page 26


 1419 0018 0F46     		mov	r7, r1
 1420              		.loc 1 553 0
 1421 001a 03D5     		bpl	.L228
 1422              		.loc 1 553 0 is_stmt 0 discriminator 1
 1423 001c D4F81038 		ldr	r3, [r4, #2064]
 1424 0020 DA07     		lsls	r2, r3, #31
 1425 0022 1FD4     		bmi	.L246
 1426              	.LVL171:
 1427              	.L228:
 1428              		.loc 1 557 0 is_stmt 1
 1429 0024 3306     		lsls	r3, r6, #24
 1430 0026 06D5     		bpl	.L227
 1431              		.loc 1 558 0 discriminator 1
 1432 0028 0121     		movs	r1, #1
 1433 002a D4F83408 		ldr	r0, [r4, #2100]
 1434 002e 01FA07F7 		lsl	r7, r1, r7
 1435              		.loc 1 557 0 discriminator 1
 1436 0032 0742     		tst	r7, r0
 1437 0034 00D1     		bne	.L247
 1438              	.L227:
 1439 0036 F8BD     		pop	{r3, r4, r5, r6, r7, pc}
 1440              	.L247:
 1441              	.LBB159:
 1442              		.loc 1 560 0
 1443 0038 2023     		movs	r3, #32
 1444              	.LVL172:
 1445              	@ 560 "../../os/hal/platforms/STM32/OTGv1/usb_lld.c" 1
 1446 003a 83F31188 		msr     BASEPRI, r3
 1447              	@ 0 "" 2
 1448              	.LVL173:
 1449              		.thumb
 1450              	.LBE159:
 1451              		.loc 1 561 0
 1452 003e EB6D     		ldr	r3, [r5, #92]
 1453              	.LVL174:
 1454              		.loc 1 562 0
 1455 0040 D4F83428 		ldr	r2, [r4, #2100]
 1456              	.LBB160:
 1457              	.LBB161:
 1458              		.loc 1 122 0
 1459 0044 686E     		ldr	r0, [r5, #100]
 1460              	.LBE161:
 1461              	.LBE160:
 1462              		.loc 1 561 0
 1463 0046 3B43     		orrs	r3, r3, r7
 1464              		.loc 1 562 0
 1465 0048 22EA0707 		bic	r7, r2, r7
 1466              		.loc 1 561 0
 1467 004c EB65     		str	r3, [r5, #92]
 1468              		.loc 1 562 0
 1469 004e C4F83478 		str	r7, [r4, #2100]
 1470              	.LVL175:
 1471              	.LBB163:
 1472              	.LBB162:
 1473              		.loc 1 122 0
 1474 0052 18B1     		cbz	r0, .L230
 1475              		.loc 1 123 0
ARM GAS  /tmp/ccx4dzgE.s 			page 27


 1476 0054 FFF7FEFF 		bl	chSchReadyI
 1477              	.LVL176:
 1478              		.loc 1 124 0
 1479 0058 0020     		movs	r0, #0
 1480 005a 6866     		str	r0, [r5, #100]
 1481              	.L230:
 1482              	.LBE162:
 1483              	.LBE163:
 1484              	.LBB164:
 1485              		.loc 1 564 0
 1486 005c 0023     		movs	r3, #0
 1487              	.LVL177:
 1488              	@ 564 "../../os/hal/platforms/STM32/OTGv1/usb_lld.c" 1
 1489 005e 83F31188 		msr     BASEPRI, r3
 1490              	@ 0 "" 2
 1491              	.LVL178:
 1492              		.thumb
 1493 0062 F8BD     		pop	{r3, r4, r5, r6, r7, pc}
 1494              	.LVL179:
 1495              	.L246:
 1496              	.LBE164:
 1497              		.loc 1 555 0
 1498 0064 00EB8102 		add	r2, r0, r1, lsl #2
 1499 0068 B0F808E0 		ldrh	lr, [r0, #8]
 1500 006c D368     		ldr	r3, [r2, #12]
 1501 006e 0122     		movs	r2, #1
 1502 0070 02FA01F2 		lsl	r2, r2, r1
 1503 0074 2EEA0202 		bic	r2, lr, r2
 1504 0078 0281     		strh	r2, [r0, #8]	@ movhi
 1505 007a 9B68     		ldr	r3, [r3, #8]
 1506 007c 9847     		blx	r3
 1507              	.LVL180:
 1508 007e D1E7     		b	.L228
 1509              		.cfi_endproc
 1510              	.LFE133:
 1511              		.size	otg_epin_handler, .-otg_epin_handler
 1512              		.section	.text.Vector14C,"ax",%progbits
 1513              		.align	2
 1514              		.p2align 4,,15
 1515              		.global	Vector14C
 1516              		.thumb
 1517              		.thumb_func
 1518              		.type	Vector14C, %function
 1519              	Vector14C:
 1520              	.LFB137:
 1521              		.loc 1 742 0
 1522              		.cfi_startproc
 1523              		@ args = 0, pretend = 0, frame = 0
 1524              		@ frame_needed = 0, uses_anonymous_args = 0
 1525              	.LVL181:
 1526 0000 70B5     		push	{r4, r5, r6, lr}
 1527              	.LCFI5:
 1528              		.cfi_def_cfa_offset 16
 1529              		.cfi_offset 4, -16
 1530              		.cfi_offset 5, -12
 1531              		.cfi_offset 6, -8
 1532              		.cfi_offset 14, -4
ARM GAS  /tmp/ccx4dzgE.s 			page 28


 1533              	.LBB171:
 1534              	.LBB172:
 1535              		.loc 1 603 0
 1536 0002 3E4E     		ldr	r6, .L320
 1537 0004 356D     		ldr	r5, [r6, #80]
 1538              	.LVL182:
 1539              		.loc 1 606 0
 1540 0006 6B69     		ldr	r3, [r5, #20]
 1541 0008 AC69     		ldr	r4, [r5, #24]
 1542 000a 1C40     		ands	r4, r4, r3
 1543              	.LVL183:
 1544              		.loc 1 610 0
 1545 000c E104     		lsls	r1, r4, #19
 1546              		.loc 1 607 0
 1547 000e 6C61     		str	r4, [r5, #20]
 1548              		.loc 1 610 0
 1549 0010 2BD4     		bmi	.L310
 1550              	.L250:
 1551              		.loc 1 616 0
 1552 0012 A204     		lsls	r2, r4, #18
 1553              		.loc 1 617 0
 1554 0014 48BF     		it	mi
 1555 0016 D5F80838 		ldrmi	r3, [r5, #2056]
 1556              		.loc 1 621 0
 1557 001a 2307     		lsls	r3, r4, #28
 1558 001c 04D5     		bpl	.L253
 1559              		.loc 1 622 0
 1560 001e 7068     		ldr	r0, [r6, #4]
 1561 0020 C168     		ldr	r1, [r0, #12]
 1562 0022 09B1     		cbz	r1, .L253
 1563 0024 3548     		ldr	r0, .L320
 1564 0026 8847     		blx	r1
 1565              	.LVL184:
 1566              	.L253:
 1567              		.loc 1 626 0
 1568 0028 E006     		lsls	r0, r4, #27
 1569 002a 29D4     		bmi	.L311
 1570              	.LVL185:
 1571              	.L254:
 1572              		.loc 1 637 0
 1573 002c 6103     		lsls	r1, r4, #13
 1574              		.loc 1 636 0
 1575 002e D5F81858 		ldr	r5, [r5, #2072]
 1576              	.LVL186:
 1577              		.loc 1 637 0
 1578 0032 07D5     		bpl	.L257
 1579              		.loc 1 638 0
 1580 0034 EA07     		lsls	r2, r5, #31
 1581 0036 49D4     		bmi	.L312
 1582              		.loc 1 640 0
 1583 0038 AB07     		lsls	r3, r5, #30
 1584              	.LVL187:
 1585 003a 4DD4     		bmi	.L313
 1586              	.L259:
 1587              		.loc 1 642 0
 1588 003c 6807     		lsls	r0, r5, #29
 1589 003e 51D4     		bmi	.L314
ARM GAS  /tmp/ccx4dzgE.s 			page 29


 1590              	.L260:
 1591              		.loc 1 644 0
 1592 0040 2907     		lsls	r1, r5, #28
 1593 0042 55D4     		bmi	.L315
 1594              	.LVL188:
 1595              	.L257:
 1596              		.loc 1 653 0
 1597 0044 2203     		lsls	r2, r4, #12
 1598 0046 07D5     		bpl	.L263
 1599              		.loc 1 654 0
 1600 0048 EB03     		lsls	r3, r5, #15
 1601              	.LVL189:
 1602 004a 32D4     		bmi	.L316
 1603              		.loc 1 656 0
 1604 004c A803     		lsls	r0, r5, #14
 1605 004e 36D4     		bmi	.L317
 1606              	.L265:
 1607              		.loc 1 658 0
 1608 0050 6903     		lsls	r1, r5, #13
 1609 0052 27D4     		bmi	.L318
 1610              	.L266:
 1611              		.loc 1 660 0
 1612 0054 2A03     		lsls	r2, r5, #12
 1613 0056 03D4     		bmi	.L319
 1614              	.LVL190:
 1615              	.L263:
 1616              	.LBE172:
 1617              	.LBE171:
 1618              		.loc 1 749 0
 1619 0058 BDE87040 		pop	{r4, r5, r6, lr}
 1620              		.loc 1 748 0
 1621 005c FFF7FEBF 		b	_port_irq_epilogue
 1622              	.LVL191:
 1623              	.L319:
 1624              	.LBB180:
 1625              	.LBB179:
 1626              		.loc 1 661 0
 1627 0060 2648     		ldr	r0, .L320
 1628 0062 0321     		movs	r1, #3
 1629 0064 FFF7FEFF 		bl	otg_epout_handler
 1630              	.LVL192:
 1631 0068 F6E7     		b	.L263
 1632              	.LVL193:
 1633              	.L310:
 1634              		.loc 1 611 0
 1635 006a 3046     		mov	r0, r6
 1636 006c FFF7FEFF 		bl	_usb_reset
 1637              	.LVL194:
 1638              		.loc 1 612 0
 1639 0070 7368     		ldr	r3, [r6, #4]
 1640 0072 1B68     		ldr	r3, [r3, #0]
 1641 0074 002B     		cmp	r3, #0
 1642 0076 CCD0     		beq	.L250
 1643 0078 3046     		mov	r0, r6
 1644 007a 0021     		movs	r1, #0
 1645 007c 9847     		blx	r3
 1646              	.LVL195:
ARM GAS  /tmp/ccx4dzgE.s 			page 30


 1647 007e C8E7     		b	.L250
 1648              	.L311:
 1649              	.LBB173:
 1650              		.loc 1 629 0
 1651 0080 2023     		movs	r3, #32
 1652              	.LVL196:
 1653              	@ 629 "../../os/hal/platforms/STM32/OTGv1/usb_lld.c" 1
 1654 0082 83F31188 		msr     BASEPRI, r3
 1655              	@ 0 "" 2
 1656              	.LVL197:
 1657              		.thumb
 1658              	.LBE173:
 1659              		.loc 1 630 0
 1660 0086 AA69     		ldr	r2, [r5, #24]
 1661              	.LBB174:
 1662              	.LBB175:
 1663              		.loc 1 122 0
 1664 0088 706E     		ldr	r0, [r6, #100]
 1665              	.LBE175:
 1666              	.LBE174:
 1667              		.loc 1 630 0
 1668 008a 22F01003 		bic	r3, r2, #16
 1669              	.LVL198:
 1670 008e AB61     		str	r3, [r5, #24]
 1671              	.LVL199:
 1672              	.LBB177:
 1673              	.LBB176:
 1674              		.loc 1 122 0
 1675 0090 20B1     		cbz	r0, .L255
 1676              		.loc 1 123 0
 1677 0092 FFF7FEFF 		bl	chSchReadyI
 1678              	.LVL200:
 1679              		.loc 1 124 0
 1680 0096 1949     		ldr	r1, .L320
 1681 0098 0020     		movs	r0, #0
 1682 009a 4866     		str	r0, [r1, #100]
 1683              	.L255:
 1684              	.LBE176:
 1685              	.LBE177:
 1686              	.LBB178:
 1687              		.loc 1 632 0
 1688 009c 0023     		movs	r3, #0
 1689              	@ 632 "../../os/hal/platforms/STM32/OTGv1/usb_lld.c" 1
 1690 009e 83F31188 		msr     BASEPRI, r3
 1691              	@ 0 "" 2
 1692              	.LVL201:
 1693              		.thumb
 1694 00a2 C3E7     		b	.L254
 1695              	.LVL202:
 1696              	.L318:
 1697              	.LBE178:
 1698              		.loc 1 659 0
 1699 00a4 0221     		movs	r1, #2
 1700 00a6 1548     		ldr	r0, .L320
 1701 00a8 FFF7FEFF 		bl	otg_epout_handler
 1702              	.LVL203:
 1703              		.loc 1 660 0
ARM GAS  /tmp/ccx4dzgE.s 			page 31


 1704 00ac 2A03     		lsls	r2, r5, #12
 1705 00ae D3D5     		bpl	.L263
 1706 00b0 D6E7     		b	.L319
 1707              	.L316:
 1708              		.loc 1 655 0
 1709 00b2 1248     		ldr	r0, .L320
 1710 00b4 0021     		movs	r1, #0
 1711 00b6 FFF7FEFF 		bl	otg_epout_handler
 1712              	.LVL204:
 1713              		.loc 1 656 0
 1714 00ba A803     		lsls	r0, r5, #14
 1715 00bc C8D5     		bpl	.L265
 1716              	.L317:
 1717              		.loc 1 657 0
 1718 00be 0121     		movs	r1, #1
 1719 00c0 0E48     		ldr	r0, .L320
 1720 00c2 FFF7FEFF 		bl	otg_epout_handler
 1721              	.LVL205:
 1722              		.loc 1 658 0
 1723 00c6 6903     		lsls	r1, r5, #13
 1724 00c8 C4D5     		bpl	.L266
 1725 00ca EBE7     		b	.L318
 1726              	.LVL206:
 1727              	.L312:
 1728              		.loc 1 639 0
 1729 00cc 0021     		movs	r1, #0
 1730 00ce 0B48     		ldr	r0, .L320
 1731 00d0 FFF7FEFF 		bl	otg_epin_handler
 1732              	.LVL207:
 1733              		.loc 1 640 0
 1734 00d4 AB07     		lsls	r3, r5, #30
 1735 00d6 B1D5     		bpl	.L259
 1736              	.L313:
 1737              		.loc 1 641 0
 1738 00d8 0848     		ldr	r0, .L320
 1739 00da 0121     		movs	r1, #1
 1740 00dc FFF7FEFF 		bl	otg_epin_handler
 1741              	.LVL208:
 1742              		.loc 1 642 0
 1743 00e0 6807     		lsls	r0, r5, #29
 1744 00e2 ADD5     		bpl	.L260
 1745              	.L314:
 1746              		.loc 1 643 0
 1747 00e4 0221     		movs	r1, #2
 1748 00e6 0548     		ldr	r0, .L320
 1749 00e8 FFF7FEFF 		bl	otg_epin_handler
 1750              	.LVL209:
 1751              		.loc 1 644 0
 1752 00ec 2907     		lsls	r1, r5, #28
 1753 00ee A9D5     		bpl	.L257
 1754              	.L315:
 1755              		.loc 1 645 0
 1756 00f0 0248     		ldr	r0, .L320
 1757 00f2 0321     		movs	r1, #3
 1758 00f4 FFF7FEFF 		bl	otg_epin_handler
 1759              	.LVL210:
 1760 00f8 A4E7     		b	.L257
ARM GAS  /tmp/ccx4dzgE.s 			page 32


 1761              	.L321:
 1762 00fa 00BF     		.align	2
 1763              	.L320:
 1764 00fc 00000000 		.word	.LANCHOR0
 1765              	.LBE179:
 1766              	.LBE180:
 1767              		.cfi_endproc
 1768              	.LFE137:
 1769              		.size	Vector14C, .-Vector14C
 1770              		.section	.text.usb_lld_init,"ax",%progbits
 1771              		.align	2
 1772              		.p2align 4,,15
 1773              		.global	usb_lld_init
 1774              		.thumb
 1775              		.thumb_func
 1776              		.type	usb_lld_init, %function
 1777              	usb_lld_init:
 1778              	.LFB138:
 1779              		.loc 1 780 0
 1780              		.cfi_startproc
 1781              		@ args = 0, pretend = 0, frame = 0
 1782              		@ frame_needed = 0, uses_anonymous_args = 0
 1783 0000 10B5     		push	{r4, lr}
 1784              	.LCFI6:
 1785              		.cfi_def_cfa_offset 8
 1786              		.cfi_offset 4, -8
 1787              		.cfi_offset 14, -4
 1788              		.loc 1 784 0
 1789 0002 40F20004 		movw	r4, #:lower16:.LANCHOR0
 1790 0006 C0F20004 		movt	r4, #:upper16:.LANCHOR0
 1791 000a 2046     		mov	r0, r4
 1792 000c FFF7FEFF 		bl	usbObjectInit
 1793              	.LVL211:
 1794              		.loc 1 788 0
 1795 0010 40F20001 		movw	r1, #:lower16:.LANCHOR1
 1796              		.loc 1 785 0
 1797 0014 0023     		movs	r3, #0
 1798              		.loc 1 787 0
 1799 0016 4FF0A040 		mov	r0, #1342177280
 1800              		.loc 1 788 0
 1801 001a C0F20001 		movt	r1, #:upper16:.LANCHOR1
 1802              		.loc 1 785 0
 1803 001e 2366     		str	r3, [r4, #96]
 1804              		.loc 1 786 0
 1805 0020 6366     		str	r3, [r4, #100]
 1806              		.loc 1 787 0
 1807 0022 2065     		str	r0, [r4, #80]
 1808              		.loc 1 788 0
 1809 0024 6165     		str	r1, [r4, #84]
 1810 0026 10BD     		pop	{r4, pc}
 1811              		.cfi_endproc
 1812              	.LFE138:
 1813              		.size	usb_lld_init, .-usb_lld_init
 1814              		.section	.text.usb_lld_start,"ax",%progbits
 1815              		.align	2
 1816              		.p2align 4,,15
 1817              		.global	usb_lld_start
ARM GAS  /tmp/ccx4dzgE.s 			page 33


 1818              		.thumb
 1819              		.thumb_func
 1820              		.type	usb_lld_start, %function
 1821              	usb_lld_start:
 1822              	.LFB139:
 1823              		.loc 1 838 0
 1824              		.cfi_startproc
 1825              		@ args = 0, pretend = 0, frame = 0
 1826              		@ frame_needed = 0, uses_anonymous_args = 0
 1827              	.LVL212:
 1828 0000 70B5     		push	{r4, r5, r6, lr}
 1829              	.LCFI7:
 1830              		.cfi_def_cfa_offset 16
 1831              		.cfi_offset 4, -16
 1832              		.cfi_offset 5, -12
 1833              		.cfi_offset 6, -8
 1834              		.cfi_offset 14, -4
 1835              		.loc 1 841 0
 1836 0002 0378     		ldrb	r3, [r0, #0]	@ zero_extendqisi2
 1837              		.loc 1 839 0
 1838 0004 056D     		ldr	r5, [r0, #80]
 1839              	.LVL213:
 1840              		.loc 1 841 0
 1841 0006 012B     		cmp	r3, #1
 1842              		.loc 1 838 0
 1843 0008 82B0     		sub	sp, sp, #8
 1844              	.LCFI8:
 1845              		.cfi_def_cfa_offset 24
 1846              		.loc 1 838 0
 1847 000a 0646     		mov	r6, r0
 1848              		.loc 1 841 0
 1849 000c 01D0     		beq	.L333
 1850              	.LVL214:
 1851              	.L323:
 1852              		.loc 1 915 0
 1853 000e 02B0     		add	sp, sp, #8
 1854 0010 70BD     		pop	{r4, r5, r6, pc}
 1855              	.LVL215:
 1856              	.L333:
 1857              		.loc 1 844 0
 1858 0012 3048     		ldr	r0, .L337
 1859              	.LVL216:
 1860 0014 8642     		cmp	r6, r0
 1861 0016 49D0     		beq	.L334
 1862              	.L325:
 1863              		.loc 1 869 0
 1864 0018 316E     		ldr	r1, [r6, #96]
 1865              		.loc 1 868 0
 1866 001a 0024     		movs	r4, #0
 1867 001c F465     		str	r4, [r6, #92]
 1868              		.loc 1 869 0
 1869 001e 0029     		cmp	r1, #0
 1870 0020 38D0     		beq	.L335
 1871              	.L326:
 1872              		.loc 1 879 0
 1873 0022 4FF4A250 		mov	r0, #5184
 1874              	.LBB183:
ARM GAS  /tmp/ccx4dzgE.s 			page 34


 1875              	.LBB184:
 1876              		.loc 1 129 0
 1877 0026 346D     		ldr	r4, [r6, #80]
 1878              	.LBE184:
 1879              	.LBE183:
 1880              		.loc 1 879 0
 1881 0028 C4F20000 		movt	r0, 16384
 1882              		.loc 1 882 0
 1883 002c 0323     		movs	r3, #3
 1884              		.loc 1 879 0
 1885 002e E860     		str	r0, [r5, #12]
 1886              		.loc 1 882 0
 1887 0030 C0F22023 		movt	r3, 544
 1888              		.loc 1 885 0
 1889 0034 0022     		movs	r2, #0
 1890              		.loc 1 888 0
 1891 0036 4FF45021 		mov	r1, #851968
 1892              	.LBB187:
 1893              	.LBB185:
 1894              		.loc 1 132 0
 1895 003a 0120     		movs	r0, #1
 1896              	.LBE185:
 1897              	.LBE187:
 1898              		.loc 1 882 0
 1899 003c C5F80038 		str	r3, [r5, #2048]
 1900              		.loc 1 885 0
 1901 0040 C5F8002E 		str	r2, [r5, #3584]
 1902              		.loc 1 888 0
 1903 0044 A963     		str	r1, [r5, #56]
 1904              	.LVL217:
 1905              	.LBB188:
 1906              	.LBB186:
 1907              		.loc 1 132 0
 1908 0046 2061     		str	r0, [r4, #16]
 1909              	.L327:
 1910              		.loc 1 133 0
 1911 0048 2369     		ldr	r3, [r4, #16]
 1912 004a D807     		lsls	r0, r3, #31
 1913 004c FCD4     		bmi	.L327
 1914              		.loc 1 135 0
 1915 004e 0C20     		movs	r0, #12
 1916 0050 FFF7FEFF 		bl	halPolledDelay
 1917              	.LVL218:
 1918              	.L328:
 1919              		.loc 1 137 0
 1920 0054 2269     		ldr	r2, [r4, #16]
 1921 0056 002A     		cmp	r2, #0
 1922 0058 FCDA     		bge	.L328
 1923              	.LBE186:
 1924              	.LBE188:
 1925              		.loc 1 894 0
 1926 005a 0024     		movs	r4, #0
 1927              	.LVL219:
 1928              		.loc 1 897 0
 1929 005c 3046     		mov	r0, r6
 1930              		.loc 1 894 0
 1931 005e AC60     		str	r4, [r5, #8]
ARM GAS  /tmp/ccx4dzgE.s 			page 35


 1932              		.loc 1 897 0
 1933 0060 FFF7FEFF 		bl	otg_disable_ep
 1934              	.LVL220:
 1935              		.loc 1 904 0
 1936 0064 7168     		ldr	r1, [r6, #4]
 1937              		.loc 1 901 0
 1938 0066 C5F81048 		str	r4, [r5, #2064]
 1939              		.loc 1 904 0
 1940 006a C868     		ldr	r0, [r1, #12]
 1941              		.loc 1 902 0
 1942 006c C5F81448 		str	r4, [r5, #2068]
 1943              		.loc 1 903 0
 1944 0070 C5F81C48 		str	r4, [r5, #2076]
 1945              		.loc 1 904 0
 1946 0074 50B1     		cbz	r0, .L336
 1947              		.loc 1 908 0
 1948 0076 43F20803 		movw	r3, #12296
 1949 007a AB61     		str	r3, [r5, #24]
 1950              	.L330:
 1951              		.loc 1 910 0
 1952 007c 4FF0FF31 		mov	r1, #-1
 1953 0080 6961     		str	r1, [r5, #20]
 1954              		.loc 1 913 0
 1955 0082 A868     		ldr	r0, [r5, #8]
 1956 0084 40F00103 		orr	r3, r0, #1
 1957 0088 AB60     		str	r3, [r5, #8]
 1958 008a C0E7     		b	.L323
 1959              	.L336:
 1960              		.loc 1 905 0
 1961 008c 4FF44052 		mov	r2, #12288
 1962 0090 AA61     		str	r2, [r5, #24]
 1963 0092 F3E7     		b	.L330
 1964              	.LVL221:
 1965              	.L335:
 1966              		.loc 1 870 0
 1967 0094 0096     		str	r6, [sp, #0]
 1968 0096 06F16800 		add	r0, r6, #104
 1969 009a 4FF49871 		mov	r1, #304
 1970 009e 0222     		movs	r2, #2
 1971 00a0 0D4B     		ldr	r3, .L337+4
 1972 00a2 FFF7FEFF 		bl	chThdCreateI
 1973              	.LVL222:
 1974 00a6 7066     		str	r0, [r6, #100]
 1975 00a8 3066     		str	r0, [r6, #96]
 1976 00aa BAE7     		b	.L326
 1977              	.L334:
 1978              		.loc 1 846 0
 1979 00ac 4FF46051 		mov	r1, #14336
 1980 00b0 C4F20201 		movt	r1, 16386
 1981 00b4 4A6B     		ldr	r2, [r1, #52]
 1982 00b6 42F08004 		orr	r4, r2, #128
 1983 00ba 4C63     		str	r4, [r1, #52]
 1984              		.loc 1 847 0
 1985 00bc 4B69     		ldr	r3, [r1, #20]
 1986 00be 0022     		movs	r2, #0
 1987 00c0 43F08000 		orr	r0, r3, #128
 1988 00c4 4861     		str	r0, [r1, #20]
ARM GAS  /tmp/ccx4dzgE.s 			page 36


 1989 00c6 4A61     		str	r2, [r1, #20]
 1990              		.loc 1 850 0
 1991 00c8 4320     		movs	r0, #67
 1992 00ca E021     		movs	r1, #224
 1993 00cc FFF7FEFF 		bl	nvicEnableVector
 1994              	.LVL223:
 1995 00d0 A2E7     		b	.L325
 1996              	.L338:
 1997 00d2 00BF     		.align	2
 1998              	.L337:
 1999 00d4 00000000 		.word	.LANCHOR0
 2000 00d8 00000000 		.word	usb_lld_pump
 2001              		.cfi_endproc
 2002              	.LFE139:
 2003              		.size	usb_lld_start, .-usb_lld_start
 2004 00dc AFF30080 		.section	.text.usb_lld_stop,"ax",%progbits
 2005              		.align	2
 2006              		.p2align 4,,15
 2007              		.global	usb_lld_stop
 2008              		.thumb
 2009              		.thumb_func
 2010              		.type	usb_lld_stop, %function
 2011              	usb_lld_stop:
 2012              	.LFB140:
 2013              		.loc 1 924 0
 2014              		.cfi_startproc
 2015              		@ args = 0, pretend = 0, frame = 0
 2016              		@ frame_needed = 0, uses_anonymous_args = 0
 2017              	.LVL224:
 2018 0000 38B5     		push	{r3, r4, r5, lr}
 2019              	.LCFI9:
 2020              		.cfi_def_cfa_offset 16
 2021              		.cfi_offset 3, -16
 2022              		.cfi_offset 4, -12
 2023              		.cfi_offset 5, -8
 2024              		.cfi_offset 14, -4
 2025              		.loc 1 928 0
 2026 0002 0378     		ldrb	r3, [r0, #0]	@ zero_extendqisi2
 2027              		.loc 1 925 0
 2028 0004 056D     		ldr	r5, [r0, #80]
 2029              	.LVL225:
 2030              		.loc 1 928 0
 2031 0006 012B     		cmp	r3, #1
 2032              		.loc 1 924 0
 2033 0008 0446     		mov	r4, r0
 2034              		.loc 1 928 0
 2035 000a 07D0     		beq	.L339
 2036              		.loc 1 932 0
 2037 000c FFF7FEFF 		bl	otg_disable_ep
 2038              	.LVL226:
 2039              		.loc 1 934 0
 2040 0010 0020     		movs	r0, #0
 2041 0012 E065     		str	r0, [r4, #92]
 2042              		.loc 1 936 0
 2043 0014 C5F81C08 		str	r0, [r5, #2076]
 2044              		.loc 1 937 0
 2045 0018 A860     		str	r0, [r5, #8]
ARM GAS  /tmp/ccx4dzgE.s 			page 37


 2046              		.loc 1 938 0
 2047 001a A863     		str	r0, [r5, #56]
 2048              	.L339:
 2049 001c 38BD     		pop	{r3, r4, r5, pc}
 2050              		.cfi_endproc
 2051              	.LFE140:
 2052              		.size	usb_lld_stop, .-usb_lld_stop
 2053 001e 00BF     		.section	.text.usb_lld_reset,"ax",%progbits
 2054              		.align	2
 2055              		.p2align 4,,15
 2056              		.global	usb_lld_reset
 2057              		.thumb
 2058              		.thumb_func
 2059              		.type	usb_lld_reset, %function
 2060              	usb_lld_reset:
 2061              	.LFB141:
 2062              		.loc 1 963 0
 2063              		.cfi_startproc
 2064              		@ args = 0, pretend = 0, frame = 0
 2065              		@ frame_needed = 0, uses_anonymous_args = 0
 2066              	.LVL227:
 2067 0000 2DE9F84F 		push	{r3, r4, r5, r6, r7, r8, r9, sl, fp, lr}
 2068              	.LCFI10:
 2069              		.cfi_def_cfa_offset 40
 2070              		.cfi_offset 3, -40
 2071              		.cfi_offset 4, -36
 2072              		.cfi_offset 5, -32
 2073              		.cfi_offset 6, -28
 2074              		.cfi_offset 7, -24
 2075              		.cfi_offset 8, -20
 2076              		.cfi_offset 9, -16
 2077              		.cfi_offset 10, -12
 2078              		.cfi_offset 11, -8
 2079              		.cfi_offset 14, -4
 2080              		.loc 1 963 0
 2081 0004 8046     		mov	r8, r0
 2082              		.loc 1 968 0
 2083 0006 0021     		movs	r1, #0
 2084              		.loc 1 965 0
 2085 0008 046D     		ldr	r4, [r0, #80]
 2086              	.LVL228:
 2087              		.loc 1 968 0
 2088 000a FFF7FEFF 		bl	otg_txfifo_flush
 2089              	.LVL229:
 2090 000e D8F854B0 		ldr	fp, [r8, #84]
 2091 0012 DBF808A0 		ldr	sl, [fp, #8]
 2092              		.loc 1 972 0
 2093 0016 4FF00061 		mov	r1, #134217728
 2094              		.loc 1 974 0
 2095 001a FF22     		movs	r2, #255
 2096              		.loc 1 972 0
 2097 001c C4F80019 		str	r1, [r4, #2304]
 2098 0020 0AF00106 		and	r6, sl, #1
 2099              		.loc 1 973 0
 2100 0024 C4F8001B 		str	r1, [r4, #2816]
 2101              		.loc 1 971 0
 2102 0028 0123     		movs	r3, #1
ARM GAS  /tmp/ccx4dzgE.s 			page 38


 2103              		.loc 1 974 0
 2104 002a C4F80829 		str	r2, [r4, #2312]
 2105              		.loc 1 975 0
 2106 002e C4F8082B 		str	r2, [r4, #2824]
 2107              		.loc 1 971 0
 2108 0032 BAF1000F 		cmp	sl, #0
 2109 0036 33D0     		beq	.L355
 2110 0038 66B1     		cbz	r6, .L345
 2111 003a 0223     		movs	r3, #2
 2112 003c 5345     		cmp	r3, sl
 2113              		.loc 1 972 0
 2114 003e C4F82019 		str	r1, [r4, #2336]
 2115 0042 04F51267 		add	r7, r4, #2336
 2116              		.loc 1 973 0
 2117 0046 C4F8201B 		str	r1, [r4, #2848]
 2118              		.loc 1 974 0
 2119 004a C4F82829 		str	r2, [r4, #2344]
 2120              		.loc 1 975 0
 2121 004e C4F8282B 		str	r2, [r4, #2856]
 2122              		.loc 1 971 0
 2123 0052 25D8     		bhi	.L355
 2124              	.L345:
 2125              		.loc 1 971 0 is_stmt 0 discriminator 2
 2126 0054 5F1C     		adds	r7, r3, #1
 2127              		.loc 1 972 0 is_stmt 1 discriminator 2
 2128 0056 03F14809 		add	r9, r3, #72
 2129              		.loc 1 973 0 discriminator 2
 2130 005a 03F15800 		add	r0, r3, #88
 2131              		.loc 1 972 0 discriminator 2
 2132 005e 03F1490C 		add	ip, r3, #73
 2133              		.loc 1 973 0 discriminator 2
 2134 0062 03F1590E 		add	lr, r3, #89
 2135              		.loc 1 974 0 discriminator 2
 2136 0066 04EB4316 		add	r6, r4, r3, lsl #5
 2137 006a 04EB4715 		add	r5, r4, r7, lsl #5
 2138              		.loc 1 973 0 discriminator 2
 2139 006e 4001     		lsls	r0, r0, #5
 2140              		.loc 1 972 0 discriminator 2
 2141 0070 4FEA4919 		lsl	r9, r9, #5
 2142 0074 4FEA4C1C 		lsl	ip, ip, #5
 2143              		.loc 1 973 0 discriminator 2
 2144 0078 4FEA4E1E 		lsl	lr, lr, #5
 2145              		.loc 1 971 0 discriminator 2
 2146 007c 0233     		adds	r3, r3, #2
 2147 007e 5345     		cmp	r3, sl
 2148              		.loc 1 972 0 discriminator 2
 2149 0080 44F80910 		str	r1, [r4, r9]
 2150              		.loc 1 973 0 discriminator 2
 2151 0084 2150     		str	r1, [r4, r0]
 2152              		.loc 1 974 0 discriminator 2
 2153 0086 C6F80829 		str	r2, [r6, #2312]
 2154              		.loc 1 975 0 discriminator 2
 2155 008a C6F8082B 		str	r2, [r6, #2824]
 2156              		.loc 1 972 0 discriminator 2
 2157 008e 44F80C10 		str	r1, [r4, ip]
 2158              		.loc 1 973 0 discriminator 2
 2159 0092 44F80E10 		str	r1, [r4, lr]
ARM GAS  /tmp/ccx4dzgE.s 			page 39


 2160              		.loc 1 974 0 discriminator 2
 2161 0096 C5F80829 		str	r2, [r5, #2312]
 2162              		.loc 1 975 0 discriminator 2
 2163 009a C5F8082B 		str	r2, [r5, #2824]
 2164              		.loc 1 971 0 discriminator 2
 2165 009e D9D9     		bls	.L345
 2166              	.L355:
 2167              	.LBB195:
 2168              	.LBB196:
 2169              		.loc 1 207 0
 2170 00a0 DBF80030 		ldr	r3, [fp, #0]
 2171              	.LBE196:
 2172              	.LBE195:
 2173              	.LBB198:
 2174              	.LBB199:
 2175              		.loc 1 179 0
 2176 00a4 D8F85020 		ldr	r2, [r8, #80]
 2177              	.LBE199:
 2178              	.LBE198:
 2179              		.loc 1 979 0
 2180 00a8 4FF0FF31 		mov	r1, #-1
 2181              		.loc 1 980 0
 2182 00ac 4FF00116 		mov	r6, #65537
 2183              	.LBB202:
 2184              	.LBB200:
 2185              		.loc 1 181 0
 2186 00b0 1025     		movs	r5, #16
 2187              	.LBE200:
 2188              	.LBE202:
 2189              		.loc 1 979 0
 2190 00b2 C4F81818 		str	r1, [r4, #2072]
 2191              		.loc 1 980 0
 2192 00b6 C4F81C68 		str	r6, [r4, #2076]
 2193              	.LVL230:
 2194              	.LBB203:
 2195              	.LBB197:
 2196              		.loc 1 207 0
 2197 00ba C8F85830 		str	r3, [r8, #88]
 2198              	.LBE197:
 2199              	.LBE203:
 2200              		.loc 1 986 0
 2201 00be 6362     		str	r3, [r4, #36]
 2202              	.LVL231:
 2203              	.LBB204:
 2204              	.LBB201:
 2205              		.loc 1 181 0
 2206 00c0 1561     		str	r5, [r2, #16]
 2207              	.L346:
 2208              		.loc 1 182 0
 2209 00c2 1069     		ldr	r0, [r2, #16]
 2210 00c4 10F01005 		ands	r5, r0, #16
 2211 00c8 FBD1     		bne	.L346
 2212              		.loc 1 185 0
 2213 00ca 0C20     		movs	r0, #12
 2214 00cc FFF7FEFF 		bl	halPolledDelay
 2215              	.LVL232:
 2216              	.LBE201:
ARM GAS  /tmp/ccx4dzgE.s 			page 40


 2217              	.LBE204:
 2218              		.loc 1 990 0
 2219 00d0 D4F80038 		ldr	r3, [r4, #2048]
 2220              	.LBB205:
 2221              	.LBB206:
 2222              		.loc 1 221 0
 2223 00d4 D8F85810 		ldr	r1, [r8, #88]
 2224              	.LBE206:
 2225              	.LBE205:
 2226              		.loc 1 990 0
 2227 00d8 23F4FE62 		bic	r2, r3, #2032
 2228 00dc C4F80028 		str	r2, [r4, #2048]
 2229              		.loc 1 993 0
 2230 00e0 A669     		ldr	r6, [r4, #24]
 2231 00e2 46F44020 		orr	r0, r6, #786432
 2232              		.loc 1 994 0
 2233 00e6 0922     		movs	r2, #9
 2234              		.loc 1 993 0
 2235 00e8 40F01006 		orr	r6, r0, #16
 2236 00ec A661     		str	r6, [r4, #24]
 2237              		.loc 1 1000 0
 2238 00ee 48F24003 		movw	r3, #32832
 2239              		.loc 1 994 0
 2240 00f2 C4F81028 		str	r2, [r4, #2064]
 2241              		.loc 1 995 0
 2242 00f6 C4F81428 		str	r2, [r4, #2068]
 2243              		.loc 1 998 0
 2244 00fa 0B4A     		ldr	r2, .L356
 2245              		.loc 1 1000 0
 2246 00fc C1F20003 		movt	r3, 4096
 2247              	.LBB209:
 2248              	.LBB207:
 2249              		.loc 1 222 0
 2250 0100 01F11000 		add	r0, r1, #16
 2251              	.LBE207:
 2252              	.LBE209:
 2253              		.loc 1 1005 0
 2254 0104 41F48011 		orr	r1, r1, #1048576
 2255              		.loc 1 998 0
 2256 0108 C8F80C20 		str	r2, [r8, #12]
 2257              		.loc 1 999 0
 2258 010c C4F8105B 		str	r5, [r4, #2832]
 2259              		.loc 1 1000 0
 2260 0110 C4F8003B 		str	r3, [r4, #2816]
 2261              		.loc 1 1002 0
 2262 0114 C4F81059 		str	r5, [r4, #2320]
 2263              		.loc 1 1003 0
 2264 0118 C4F80039 		str	r3, [r4, #2304]
 2265              	.LVL233:
 2266              	.LBB210:
 2267              	.LBB208:
 2268              		.loc 1 222 0
 2269 011c C8F85800 		str	r0, [r8, #88]
 2270              	.LBE208:
 2271              	.LBE210:
 2272              		.loc 1 1005 0
 2273 0120 A162     		str	r1, [r4, #40]
ARM GAS  /tmp/ccx4dzgE.s 			page 41


 2274 0122 BDE8F88F 		pop	{r3, r4, r5, r6, r7, r8, r9, sl, fp, pc}
 2275              	.L357:
 2276 0126 00BF     		.align	2
 2277              	.L356:
 2278 0128 00000000 		.word	.LANCHOR2
 2279              		.cfi_endproc
 2280              	.LFE141:
 2281              		.size	usb_lld_reset, .-usb_lld_reset
 2282 012c AFF30080 		.section	.text.usb_lld_set_address,"ax",%progbits
 2283              		.align	2
 2284              		.p2align 4,,15
 2285              		.global	usb_lld_set_address
 2286              		.thumb
 2287              		.thumb_func
 2288              		.type	usb_lld_set_address, %function
 2289              	usb_lld_set_address:
 2290              	.LFB142:
 2291              		.loc 1 1017 0
 2292              		.cfi_startproc
 2293              		@ args = 0, pretend = 0, frame = 0
 2294              		@ frame_needed = 0, uses_anonymous_args = 0
 2295              		@ link register save eliminated.
 2296              	.LVL234:
 2297              		.loc 1 1018 0
 2298 0000 036D     		ldr	r3, [r0, #80]
 2299              	.LVL235:
 2300              		.loc 1 1020 0
 2301 0002 90F84E10 		ldrb	r1, [r0, #78]	@ zero_extendqisi2
 2302 0006 D3F80028 		ldr	r2, [r3, #2048]
 2303 000a 22F4FE60 		bic	r0, r2, #2032
 2304              	.LVL236:
 2305 000e 40EA0111 		orr	r1, r0, r1, lsl #4
 2306 0012 C3F80018 		str	r1, [r3, #2048]
 2307 0016 7047     		bx	lr
 2308              		.cfi_endproc
 2309              	.LFE142:
 2310              		.size	usb_lld_set_address, .-usb_lld_set_address
 2311 0018 AFF30080 		.section	.text.usb_lld_init_endpoint,"ax",%progbits
 2311      AFF30080 
 2312              		.align	2
 2313              		.p2align 4,,15
 2314              		.global	usb_lld_init_endpoint
 2315              		.thumb
 2316              		.thumb_func
 2317              		.type	usb_lld_init_endpoint, %function
 2318              	usb_lld_init_endpoint:
 2319              	.LFB143:
 2320              		.loc 1 1031 0
 2321              		.cfi_startproc
 2322              		@ args = 0, pretend = 0, frame = 0
 2323              		@ frame_needed = 0, uses_anonymous_args = 0
 2324              	.LVL237:
 2325 0000 2DE9F041 		push	{r4, r5, r6, r7, r8, lr}
 2326              	.LCFI11:
 2327              		.cfi_def_cfa_offset 24
 2328              		.cfi_offset 4, -24
 2329              		.cfi_offset 5, -20
ARM GAS  /tmp/ccx4dzgE.s 			page 42


 2330              		.cfi_offset 6, -16
 2331              		.cfi_offset 7, -12
 2332              		.cfi_offset 8, -8
 2333              		.cfi_offset 14, -4
 2334              		.loc 1 1036 0
 2335 0004 8F1C     		adds	r7, r1, #2
 2336 0006 00EB8703 		add	r3, r0, r7, lsl #2
 2337              		.loc 1 1031 0
 2338 000a 0646     		mov	r6, r0
 2339              		.loc 1 1036 0
 2340 000c 5B68     		ldr	r3, [r3, #4]
 2341              		.loc 1 1033 0
 2342 000e 046D     		ldr	r4, [r0, #80]
 2343              	.LVL238:
 2344              		.loc 1 1036 0
 2345 0010 1A68     		ldr	r2, [r3, #0]
 2346 0012 02F00300 		and	r0, r2, #3
 2347              	.LVL239:
 2348 0016 0228     		cmp	r0, #2
 2349              		.loc 1 1031 0
 2350 0018 0D46     		mov	r5, r1
 2351              		.loc 1 1044 0
 2352 001a 4FF40048 		mov	r8, #32768
 2353              		.loc 1 1036 0
 2354 001e 54D0     		beq	.L362
 2355 0020 0328     		cmp	r0, #3
 2356 0022 55D0     		beq	.L363
 2357              		.loc 1 1038 0
 2358 0024 4146     		mov	r1, r8
 2359              	.LVL240:
 2360 0026 C1F20001 		movt	r1, 4096
 2361 002a C1F20408 		movt	r8, 4100
 2362 002e 0128     		cmp	r0, #1
 2363 0030 18BF     		it	ne
 2364 0032 8846     		movne	r8, r1
 2365              	.L361:
 2366              	.LVL241:
 2367              		.loc 1 1054 0
 2368 0034 6A01     		lsls	r2, r5, #5
 2369 0036 A018     		adds	r0, r4, r2
 2370 0038 0021     		movs	r1, #0
 2371 003a C0F8101B 		str	r1, [r0, #2832]
 2372              		.loc 1 1055 0
 2373 003e D868     		ldr	r0, [r3, #12]
 2374 0040 0028     		cmp	r0, #0
 2375 0042 48D0     		beq	.L364
 2376              		.loc 1 1056 0
 2377 0044 588A     		ldrh	r0, [r3, #18]
 2378 0046 05F15801 		add	r1, r5, #88
 2379 004a 4901     		lsls	r1, r1, #5
 2380 004c 48EA0000 		orr	r0, r8, r0
 2381 0050 6050     		str	r0, [r4, r1]
 2382              		.loc 1 1057 0
 2383 0052 4FF0010C 		mov	ip, #1
 2384 0056 D4F81C08 		ldr	r0, [r4, #2076]
 2385 005a 05F11001 		add	r1, r5, #16
 2386 005e 0CFA01F1 		lsl	r1, ip, r1
ARM GAS  /tmp/ccx4dzgE.s 			page 43


 2387 0062 0143     		orrs	r1, r1, r0
 2388 0064 C4F81C18 		str	r1, [r4, #2076]
 2389              	.L365:
 2390              		.loc 1 1065 0
 2391 0068 A218     		adds	r2, r4, r2
 2392              		.loc 1 1066 0
 2393 006a 9968     		ldr	r1, [r3, #8]
 2394              		.loc 1 1065 0
 2395 006c 0020     		movs	r0, #0
 2396 006e C2F81009 		str	r0, [r2, #2320]
 2397              		.loc 1 1066 0
 2398 0072 0029     		cmp	r1, #0
 2399 0074 42D0     		beq	.L366
 2400              		.loc 1 1069 0
 2401 0076 9A8B     		ldrh	r2, [r3, #28]
 2402              		.loc 1 1068 0
 2403 0078 198A     		ldrh	r1, [r3, #16]
 2404 007a 8B08     		lsrs	r3, r1, #2
 2405              	.LVL242:
 2406              		.loc 1 1069 0
 2407 007c 012A     		cmp	r2, #1
 2408              		.loc 1 1070 0
 2409 007e 88BF     		it	hi
 2410 0080 5343     		mulhi	r3, r2, r3
 2411              	.LVL243:
 2412              	.LBB211:
 2413              	.LBB212:
 2414              		.loc 1 221 0
 2415 0082 B26D     		ldr	r2, [r6, #88]
 2416              	.LVL244:
 2417              	.LBE212:
 2418              	.LBE211:
 2419              		.loc 1 1071 0
 2420 0084 05F13F00 		add	r0, r5, #63
 2421 0088 04EB8001 		add	r1, r4, r0, lsl #2
 2422              	.LBB214:
 2423              	.LBB213:
 2424              		.loc 1 222 0
 2425 008c 9818     		adds	r0, r3, r2
 2426 008e B065     		str	r0, [r6, #88]
 2427              	.LBE213:
 2428              	.LBE214:
 2429              		.loc 1 1071 0
 2430 0090 42EA0343 		orr	r3, r2, r3, lsl #16
 2431              	.LVL245:
 2432              		.loc 1 1073 0
 2433 0094 3046     		mov	r0, r6
 2434              		.loc 1 1077 0
 2435 0096 06EB8706 		add	r6, r6, r7, lsl #2
 2436              	.LVL246:
 2437              		.loc 1 1071 0
 2438 009a 4B60     		str	r3, [r1, #4]
 2439              		.loc 1 1073 0
 2440 009c 2946     		mov	r1, r5
 2441 009e FFF7FEFF 		bl	otg_txfifo_flush
 2442              	.LVL247:
 2443              		.loc 1 1077 0
ARM GAS  /tmp/ccx4dzgE.s 			page 44


 2444 00a2 7268     		ldr	r2, [r6, #4]
 2445              		.loc 1 1076 0
 2446 00a4 108A     		ldrh	r0, [r2, #16]
 2447              		.loc 1 1075 0
 2448 00a6 05F14801 		add	r1, r5, #72
 2449 00aa 4B01     		lsls	r3, r1, #5
 2450 00ac 40EA8551 		orr	r1, r0, r5, lsl #22
 2451              		.loc 1 1076 0
 2452 00b0 41EA0802 		orr	r2, r1, r8
 2453              		.loc 1 1075 0
 2454 00b4 E250     		str	r2, [r4, r3]
 2455              		.loc 1 1078 0
 2456 00b6 0123     		movs	r3, #1
 2457 00b8 D4F81C08 		ldr	r0, [r4, #2076]
 2458 00bc 03FA05F5 		lsl	r5, r3, r5
 2459 00c0 0543     		orrs	r5, r5, r0
 2460 00c2 C4F81C58 		str	r5, [r4, #2076]
 2461 00c6 BDE8F081 		pop	{r4, r5, r6, r7, r8, pc}
 2462              	.LVL248:
 2463              	.L362:
 2464              		.loc 1 1044 0
 2465 00ca C1F20808 		movt	r8, 4104
 2466              	.LVL249:
 2467              		.loc 1 1045 0
 2468 00ce B1E7     		b	.L361
 2469              	.L363:
 2470              	.LVL250:
 2471              		.loc 1 1047 0
 2472 00d0 C1F20C08 		movt	r8, 4108
 2473              	.LVL251:
 2474              		.loc 1 1048 0
 2475 00d4 AEE7     		b	.L361
 2476              	.LVL252:
 2477              	.L364:
 2478              		.loc 1 1060 0
 2479 00d6 05F15801 		add	r1, r5, #88
 2480 00da 4901     		lsls	r1, r1, #5
 2481              		.loc 1 1061 0
 2482 00dc 05F1100E 		add	lr, r5, #16
 2483              		.loc 1 1060 0
 2484 00e0 6058     		ldr	r0, [r4, r1]
 2485 00e2 20F40040 		bic	r0, r0, #32768
 2486 00e6 6050     		str	r0, [r4, r1]
 2487              		.loc 1 1061 0
 2488 00e8 0121     		movs	r1, #1
 2489 00ea D4F81C08 		ldr	r0, [r4, #2076]
 2490 00ee 01FA0EF1 		lsl	r1, r1, lr
 2491 00f2 20EA0100 		bic	r0, r0, r1
 2492 00f6 C4F81C08 		str	r0, [r4, #2076]
 2493 00fa B5E7     		b	.L365
 2494              	.L366:
 2495              		.loc 1 1081 0
 2496 00fc 05F13F03 		add	r3, r5, #63
 2497 0100 04EB8302 		add	r2, r4, r3, lsl #2
 2498 0104 4FF48061 		mov	r1, #1024
 2499 0108 C0F20021 		movt	r1, 512
 2500 010c 5160     		str	r1, [r2, #4]
ARM GAS  /tmp/ccx4dzgE.s 			page 45


 2501              		.loc 1 1082 0
 2502 010e 3046     		mov	r0, r6
 2503 0110 2946     		mov	r1, r5
 2504 0112 FFF7FEFF 		bl	otg_txfifo_flush
 2505              	.LVL253:
 2506              		.loc 1 1083 0
 2507 0116 05F14800 		add	r0, r5, #72
 2508 011a 4301     		lsls	r3, r0, #5
 2509 011c E258     		ldr	r2, [r4, r3]
 2510 011e 22F40041 		bic	r1, r2, #32768
 2511 0122 E150     		str	r1, [r4, r3]
 2512              		.loc 1 1084 0
 2513 0124 0123     		movs	r3, #1
 2514 0126 D4F81C08 		ldr	r0, [r4, #2076]
 2515 012a 03FA05F5 		lsl	r5, r3, r5
 2516 012e 20EA0505 		bic	r5, r0, r5
 2517 0132 C4F81C58 		str	r5, [r4, #2076]
 2518 0136 BDE8F081 		pop	{r4, r5, r6, r7, r8, pc}
 2519              		.cfi_endproc
 2520              	.LFE143:
 2521              		.size	usb_lld_init_endpoint, .-usb_lld_init_endpoint
 2522 013a 00BFAFF3 		.section	.text.usb_lld_disable_endpoints,"ax",%progbits
 2522      0080
 2523              		.align	2
 2524              		.p2align 4,,15
 2525              		.global	usb_lld_disable_endpoints
 2526              		.thumb
 2527              		.thumb_func
 2528              		.type	usb_lld_disable_endpoints, %function
 2529              	usb_lld_disable_endpoints:
 2530              	.LFB144:
 2531              		.loc 1 1095 0
 2532              		.cfi_startproc
 2533              		@ args = 0, pretend = 0, frame = 0
 2534              		@ frame_needed = 0, uses_anonymous_args = 0
 2535              		@ link register save eliminated.
 2536              	.LVL254:
 2537              	.LBB215:
 2538              	.LBB216:
 2539              		.loc 1 207 0
 2540 0000 426D     		ldr	r2, [r0, #84]
 2541 0002 1168     		ldr	r1, [r2, #0]
 2542 0004 8165     		str	r1, [r0, #88]
 2543              	.LBE216:
 2544              	.LBE215:
 2545              		.loc 1 1102 0
 2546              		.loc 1 1101 0
 2547 0006 FFF7FEBF 		b	otg_disable_ep
 2548              	.LVL255:
 2549              		.cfi_endproc
 2550              	.LFE144:
 2551              		.size	usb_lld_disable_endpoints, .-usb_lld_disable_endpoints
 2552 000a 00BFAFF3 		.section	.text.usb_lld_get_status_out,"ax",%progbits
 2552      0080
 2553              		.align	2
 2554              		.p2align 4,,15
 2555              		.global	usb_lld_get_status_out
ARM GAS  /tmp/ccx4dzgE.s 			page 46


 2556              		.thumb
 2557              		.thumb_func
 2558              		.type	usb_lld_get_status_out, %function
 2559              	usb_lld_get_status_out:
 2560              	.LFB145:
 2561              		.loc 1 1116 0
 2562              		.cfi_startproc
 2563              		@ args = 0, pretend = 0, frame = 0
 2564              		@ frame_needed = 0, uses_anonymous_args = 0
 2565              		@ link register save eliminated.
 2566              	.LVL256:
 2567              		.loc 1 1121 0
 2568 0000 5831     		adds	r1, r1, #88
 2569              	.LVL257:
 2570 0002 036D     		ldr	r3, [r0, #80]
 2571 0004 4901     		lsls	r1, r1, #5
 2572 0006 5A58     		ldr	r2, [r3, r1]
 2573              	.LVL258:
 2574              		.loc 1 1122 0
 2575 0008 12F40040 		ands	r0, r2, #32768
 2576              	.LVL259:
 2577 000c 04D0     		beq	.L372
 2578              		.loc 1 1124 0
 2579 000e 12F4001F 		tst	r2, #2097152
 2580              		.loc 1 1125 0
 2581 0012 0CBF     		ite	eq
 2582 0014 0220     		moveq	r0, #2
 2583 0016 0120     		movne	r0, #1
 2584              	.L372:
 2585              		.loc 1 1127 0
 2586 0018 7047     		bx	lr
 2587              		.cfi_endproc
 2588              	.LFE145:
 2589              		.size	usb_lld_get_status_out, .-usb_lld_get_status_out
 2590 001a 00BFAFF3 		.section	.text.usb_lld_get_status_in,"ax",%progbits
 2590      0080
 2591              		.align	2
 2592              		.p2align 4,,15
 2593              		.global	usb_lld_get_status_in
 2594              		.thumb
 2595              		.thumb_func
 2596              		.type	usb_lld_get_status_in, %function
 2597              	usb_lld_get_status_in:
 2598              	.LFB146:
 2599              		.loc 1 1141 0
 2600              		.cfi_startproc
 2601              		@ args = 0, pretend = 0, frame = 0
 2602              		@ frame_needed = 0, uses_anonymous_args = 0
 2603              		@ link register save eliminated.
 2604              	.LVL260:
 2605              		.loc 1 1146 0
 2606 0000 4831     		adds	r1, r1, #72
 2607              	.LVL261:
 2608 0002 036D     		ldr	r3, [r0, #80]
 2609 0004 4901     		lsls	r1, r1, #5
 2610 0006 5A58     		ldr	r2, [r3, r1]
 2611              	.LVL262:
ARM GAS  /tmp/ccx4dzgE.s 			page 47


 2612              		.loc 1 1147 0
 2613 0008 12F40040 		ands	r0, r2, #32768
 2614              	.LVL263:
 2615 000c 04D0     		beq	.L376
 2616              		.loc 1 1149 0
 2617 000e 12F4001F 		tst	r2, #2097152
 2618              		.loc 1 1150 0
 2619 0012 0CBF     		ite	eq
 2620 0014 0220     		moveq	r0, #2
 2621 0016 0120     		movne	r0, #1
 2622              	.L376:
 2623              		.loc 1 1152 0
 2624 0018 7047     		bx	lr
 2625              		.cfi_endproc
 2626              	.LFE146:
 2627              		.size	usb_lld_get_status_in, .-usb_lld_get_status_in
 2628 001a 00BFAFF3 		.section	.text.usb_lld_read_setup,"ax",%progbits
 2628      0080
 2629              		.align	2
 2630              		.p2align 4,,15
 2631              		.global	usb_lld_read_setup
 2632              		.thumb
 2633              		.thumb_func
 2634              		.type	usb_lld_read_setup, %function
 2635              	usb_lld_read_setup:
 2636              	.LFB147:
 2637              		.loc 1 1168 0
 2638              		.cfi_startproc
 2639              		@ args = 0, pretend = 0, frame = 0
 2640              		@ frame_needed = 0, uses_anonymous_args = 0
 2641              		@ link register save eliminated.
 2642              	.LVL264:
 2643              		.loc 1 1170 0
 2644 0000 00EB8101 		add	r1, r0, r1, lsl #2
 2645              	.LVL265:
 2646 0004 CB68     		ldr	r3, [r1, #12]
 2647 0006 186A     		ldr	r0, [r3, #32]
 2648              	.LVL266:
 2649 0008 0168     		ldr	r1, [r0, #0]	@ unaligned
 2650 000a 4368     		ldr	r3, [r0, #4]	@ unaligned
 2651 000c 1160     		str	r1, [r2, #0]	@ unaligned
 2652 000e 5360     		str	r3, [r2, #4]	@ unaligned
 2653 0010 7047     		bx	lr
 2654              		.cfi_endproc
 2655              	.LFE147:
 2656              		.size	usb_lld_read_setup, .-usb_lld_read_setup
 2657 0012 00BFAFF3 		.section	.text.usb_lld_prepare_receive,"ax",%progbits
 2657      0080AFF3 
 2657      0080AFF3 
 2657      0080
 2658              		.align	2
 2659              		.p2align 4,,15
 2660              		.global	usb_lld_prepare_receive
 2661              		.thumb
 2662              		.thumb_func
 2663              		.type	usb_lld_prepare_receive, %function
 2664              	usb_lld_prepare_receive:
ARM GAS  /tmp/ccx4dzgE.s 			page 48


 2665              	.LFB148:
 2666              		.loc 1 1181 0
 2667              		.cfi_startproc
 2668              		@ args = 0, pretend = 0, frame = 0
 2669              		@ frame_needed = 0, uses_anonymous_args = 0
 2670              		@ link register save eliminated.
 2671              	.LVL267:
 2672              		.loc 1 1183 0
 2673 0000 00EB8103 		add	r3, r0, r1, lsl #2
 2674              		.loc 1 1181 0
 2675 0004 10B4     		push	{r4}
 2676              	.LCFI12:
 2677              		.cfi_def_cfa_offset 4
 2678              		.cfi_offset 4, -4
 2679              		.loc 1 1183 0
 2680 0006 DC68     		ldr	r4, [r3, #12]
 2681              	.LVL268:
 2682              		.loc 1 1188 0
 2683 0008 006D     		ldr	r0, [r0, #80]
 2684              	.LVL269:
 2685              		.loc 1 1186 0
 2686 000a A269     		ldr	r2, [r4, #24]
 2687 000c 638A     		ldrh	r3, [r4, #18]
 2688              	.LVL270:
 2689 000e 5468     		ldr	r4, [r2, #4]
 2690              	.LVL271:
 2691 0010 621E     		subs	r2, r4, #1
 2692              	.LVL272:
 2693 0012 D418     		adds	r4, r2, r3
 2694              		.loc 1 1188 0
 2695 0014 00EB4111 		add	r1, r0, r1, lsl #5
 2696              	.LVL273:
 2697 0018 43F0C042 		orr	r2, r3, #1610612736
 2698              		.loc 1 1186 0
 2699 001c B4FBF3F3 		udiv	r3, r4, r3
 2700              		.loc 1 1188 0
 2701 0020 42EAC340 		orr	r0, r2, r3, lsl #19
 2702 0024 C1F8100B 		str	r0, [r1, #2832]
 2703              		.loc 1 1191 0
 2704 0028 10BC     		pop	{r4}
 2705 002a 7047     		bx	lr
 2706              		.cfi_endproc
 2707              	.LFE148:
 2708              		.size	usb_lld_prepare_receive, .-usb_lld_prepare_receive
 2709 002c AFF30080 		.section	.text.usb_lld_prepare_transmit,"ax",%progbits
 2710              		.align	2
 2711              		.p2align 4,,15
 2712              		.global	usb_lld_prepare_transmit
 2713              		.thumb
 2714              		.thumb_func
 2715              		.type	usb_lld_prepare_transmit, %function
 2716              	usb_lld_prepare_transmit:
 2717              	.LFB149:
 2718              		.loc 1 1201 0
 2719              		.cfi_startproc
 2720              		@ args = 0, pretend = 0, frame = 0
 2721              		@ frame_needed = 0, uses_anonymous_args = 0
ARM GAS  /tmp/ccx4dzgE.s 			page 49


 2722              		@ link register save eliminated.
 2723              	.LVL274:
 2724              		.loc 1 1202 0
 2725 0000 00EB8103 		add	r3, r0, r1, lsl #2
 2726              		.loc 1 1201 0
 2727 0004 10B4     		push	{r4}
 2728              	.LCFI13:
 2729              		.cfi_def_cfa_offset 4
 2730              		.cfi_offset 4, -4
 2731              		.loc 1 1202 0
 2732 0006 DA68     		ldr	r2, [r3, #12]
 2733              	.LVL275:
 2734              		.loc 1 1205 0
 2735 0008 5369     		ldr	r3, [r2, #20]
 2736 000a 5B68     		ldr	r3, [r3, #4]
 2737 000c 6BB1     		cbz	r3, .L384
 2738              	.LBB217:
 2739              		.loc 1 1211 0
 2740 000e 128A     		ldrh	r2, [r2, #16]
 2741              	.LVL276:
 2742              		.loc 1 1213 0
 2743 0010 006D     		ldr	r0, [r0, #80]
 2744              	.LVL277:
 2745              		.loc 1 1211 0
 2746 0012 5C1E     		subs	r4, r3, #1
 2747 0014 A418     		adds	r4, r4, r2
 2748 0016 B4FBF2F2 		udiv	r2, r4, r2
 2749              	.LVL278:
 2750              		.loc 1 1213 0
 2751 001a 00EB4111 		add	r1, r0, r1, lsl #5
 2752              	.LVL279:
 2753 001e 43EAC243 		orr	r3, r3, r2, lsl #19
 2754 0022 C1F81039 		str	r3, [r1, #2320]
 2755              	.L381:
 2756              	.LBE217:
 2757              		.loc 1 1217 0
 2758 0026 10BC     		pop	{r4}
 2759 0028 7047     		bx	lr
 2760              	.LVL280:
 2761              	.L384:
 2762              		.loc 1 1207 0
 2763 002a 006D     		ldr	r0, [r0, #80]
 2764              	.LVL281:
 2765 002c 00EB4112 		add	r2, r0, r1, lsl #5
 2766              	.LVL282:
 2767 0030 4FF40021 		mov	r1, #524288
 2768              	.LVL283:
 2769 0034 C2F81019 		str	r1, [r2, #2320]
 2770 0038 F5E7     		b	.L381
 2771              		.cfi_endproc
 2772              	.LFE149:
 2773              		.size	usb_lld_prepare_transmit, .-usb_lld_prepare_transmit
 2774 003a 00BFAFF3 		.section	.text.usb_lld_start_out,"ax",%progbits
 2774      0080
 2775              		.align	2
 2776              		.p2align 4,,15
 2777              		.global	usb_lld_start_out
ARM GAS  /tmp/ccx4dzgE.s 			page 50


 2778              		.thumb
 2779              		.thumb_func
 2780              		.type	usb_lld_start_out, %function
 2781              	usb_lld_start_out:
 2782              	.LFB150:
 2783              		.loc 1 1227 0
 2784              		.cfi_startproc
 2785              		@ args = 0, pretend = 0, frame = 0
 2786              		@ frame_needed = 0, uses_anonymous_args = 0
 2787              		@ link register save eliminated.
 2788              	.LVL284:
 2789              		.loc 1 1229 0
 2790 0000 5831     		adds	r1, r1, #88
 2791              	.LVL285:
 2792 0002 036D     		ldr	r3, [r0, #80]
 2793 0004 4901     		lsls	r1, r1, #5
 2794 0006 5A58     		ldr	r2, [r3, r1]
 2795 0008 42F08060 		orr	r0, r2, #67108864
 2796              	.LVL286:
 2797 000c 5850     		str	r0, [r3, r1]
 2798 000e 7047     		bx	lr
 2799              		.cfi_endproc
 2800              	.LFE150:
 2801              		.size	usb_lld_start_out, .-usb_lld_start_out
 2802              		.section	.text.usb_lld_start_in,"ax",%progbits
 2803              		.align	2
 2804              		.p2align 4,,15
 2805              		.global	usb_lld_start_in
 2806              		.thumb
 2807              		.thumb_func
 2808              		.type	usb_lld_start_in, %function
 2809              	usb_lld_start_in:
 2810              	.LFB151:
 2811              		.loc 1 1240 0
 2812              		.cfi_startproc
 2813              		@ args = 0, pretend = 0, frame = 0
 2814              		@ frame_needed = 0, uses_anonymous_args = 0
 2815              		@ link register save eliminated.
 2816              	.LVL287:
 2817              		.loc 1 1242 0
 2818 0000 01F14802 		add	r2, r1, #72
 2819 0004 036D     		ldr	r3, [r0, #80]
 2820 0006 5201     		lsls	r2, r2, #5
 2821 0008 9858     		ldr	r0, [r3, r2]
 2822              	.LVL288:
 2823 000a 40F00440 		orr	r0, r0, #-2080374784
 2824 000e 9850     		str	r0, [r3, r2]
 2825              		.loc 1 1243 0
 2826 0010 0120     		movs	r0, #1
 2827 0012 D3F83428 		ldr	r2, [r3, #2100]
 2828 0016 00FA01F1 		lsl	r1, r0, r1
 2829              	.LVL289:
 2830 001a 1143     		orrs	r1, r1, r2
 2831 001c C3F83418 		str	r1, [r3, #2100]
 2832 0020 7047     		bx	lr
 2833              		.cfi_endproc
 2834              	.LFE151:
ARM GAS  /tmp/ccx4dzgE.s 			page 51


 2835              		.size	usb_lld_start_in, .-usb_lld_start_in
 2836 0022 00BFAFF3 		.section	.text.usb_lld_stall_out,"ax",%progbits
 2836      0080AFF3 
 2836      0080AFF3 
 2836      0080
 2837              		.align	2
 2838              		.p2align 4,,15
 2839              		.global	usb_lld_stall_out
 2840              		.thumb
 2841              		.thumb_func
 2842              		.type	usb_lld_stall_out, %function
 2843              	usb_lld_stall_out:
 2844              	.LFB152:
 2845              		.loc 1 1254 0
 2846              		.cfi_startproc
 2847              		@ args = 0, pretend = 0, frame = 0
 2848              		@ frame_needed = 0, uses_anonymous_args = 0
 2849              		@ link register save eliminated.
 2850              	.LVL290:
 2851              		.loc 1 1256 0
 2852 0000 5831     		adds	r1, r1, #88
 2853              	.LVL291:
 2854 0002 036D     		ldr	r3, [r0, #80]
 2855 0004 4901     		lsls	r1, r1, #5
 2856 0006 5A58     		ldr	r2, [r3, r1]
 2857 0008 42F40010 		orr	r0, r2, #2097152
 2858              	.LVL292:
 2859 000c 5850     		str	r0, [r3, r1]
 2860 000e 7047     		bx	lr
 2861              		.cfi_endproc
 2862              	.LFE152:
 2863              		.size	usb_lld_stall_out, .-usb_lld_stall_out
 2864              		.section	.text.usb_lld_stall_in,"ax",%progbits
 2865              		.align	2
 2866              		.p2align 4,,15
 2867              		.global	usb_lld_stall_in
 2868              		.thumb
 2869              		.thumb_func
 2870              		.type	usb_lld_stall_in, %function
 2871              	usb_lld_stall_in:
 2872              	.LFB153:
 2873              		.loc 1 1267 0
 2874              		.cfi_startproc
 2875              		@ args = 0, pretend = 0, frame = 0
 2876              		@ frame_needed = 0, uses_anonymous_args = 0
 2877              		@ link register save eliminated.
 2878              	.LVL293:
 2879              		.loc 1 1269 0
 2880 0000 4831     		adds	r1, r1, #72
 2881              	.LVL294:
 2882 0002 036D     		ldr	r3, [r0, #80]
 2883 0004 4901     		lsls	r1, r1, #5
 2884 0006 5A58     		ldr	r2, [r3, r1]
 2885 0008 42F40010 		orr	r0, r2, #2097152
 2886              	.LVL295:
 2887 000c 5850     		str	r0, [r3, r1]
 2888 000e 7047     		bx	lr
ARM GAS  /tmp/ccx4dzgE.s 			page 52


 2889              		.cfi_endproc
 2890              	.LFE153:
 2891              		.size	usb_lld_stall_in, .-usb_lld_stall_in
 2892              		.section	.text.usb_lld_clear_out,"ax",%progbits
 2893              		.align	2
 2894              		.p2align 4,,15
 2895              		.global	usb_lld_clear_out
 2896              		.thumb
 2897              		.thumb_func
 2898              		.type	usb_lld_clear_out, %function
 2899              	usb_lld_clear_out:
 2900              	.LFB154:
 2901              		.loc 1 1280 0
 2902              		.cfi_startproc
 2903              		@ args = 0, pretend = 0, frame = 0
 2904              		@ frame_needed = 0, uses_anonymous_args = 0
 2905              		@ link register save eliminated.
 2906              	.LVL296:
 2907              		.loc 1 1282 0
 2908 0000 5831     		adds	r1, r1, #88
 2909              	.LVL297:
 2910 0002 036D     		ldr	r3, [r0, #80]
 2911 0004 4901     		lsls	r1, r1, #5
 2912 0006 5A58     		ldr	r2, [r3, r1]
 2913 0008 22F40010 		bic	r0, r2, #2097152
 2914              	.LVL298:
 2915 000c 5850     		str	r0, [r3, r1]
 2916 000e 7047     		bx	lr
 2917              		.cfi_endproc
 2918              	.LFE154:
 2919              		.size	usb_lld_clear_out, .-usb_lld_clear_out
 2920              		.section	.text.usb_lld_clear_in,"ax",%progbits
 2921              		.align	2
 2922              		.p2align 4,,15
 2923              		.global	usb_lld_clear_in
 2924              		.thumb
 2925              		.thumb_func
 2926              		.type	usb_lld_clear_in, %function
 2927              	usb_lld_clear_in:
 2928              	.LFB155:
 2929              		.loc 1 1293 0
 2930              		.cfi_startproc
 2931              		@ args = 0, pretend = 0, frame = 0
 2932              		@ frame_needed = 0, uses_anonymous_args = 0
 2933              		@ link register save eliminated.
 2934              	.LVL299:
 2935              		.loc 1 1295 0
 2936 0000 4831     		adds	r1, r1, #72
 2937              	.LVL300:
 2938 0002 036D     		ldr	r3, [r0, #80]
 2939 0004 4901     		lsls	r1, r1, #5
 2940 0006 5A58     		ldr	r2, [r3, r1]
 2941 0008 22F40010 		bic	r0, r2, #2097152
 2942              	.LVL301:
 2943 000c 5850     		str	r0, [r3, r1]
 2944 000e 7047     		bx	lr
 2945              		.cfi_endproc
ARM GAS  /tmp/ccx4dzgE.s 			page 53


 2946              	.LFE155:
 2947              		.size	usb_lld_clear_in, .-usb_lld_clear_in
 2948              		.global	USBD1
 2949              		.section	.rodata.fsparams,"a",%progbits
 2950              		.align	2
 2951              		.set	.LANCHOR1,. + 0
 2952              		.type	fsparams, %object
 2953              		.size	fsparams, 12
 2954              	fsparams:
 2955 0000 80000000 		.word	128
 2956 0004 80010000 		.word	384
 2957 0008 03000000 		.word	3
 2958              		.section	.bss.USBD1,"aw",%nobits
 2959              		.align	3
 2960              		.set	.LANCHOR0,. + 0
 2961              		.type	USBD1, %object
 2962              		.size	USBD1, 408
 2963              	USBD1:
 2964 0000 00000000 		.space	408
 2964      00000000 
 2964      00000000 
 2964      00000000 
 2964      00000000 
 2965              		.section	.rodata.str1.4,"aMS",%progbits,1
 2966              		.align	2
 2967              	.LC0:
 2968 0000 7573625F 		.ascii	"usb_lld_pump\000"
 2968      6C6C645F 
 2968      70756D70 
 2968      00
 2969 000d 000000   		.section	.rodata.ep0config,"a",%progbits
 2970              		.align	2
 2971              		.set	.LANCHOR2,. + 0
 2972              		.type	ep0config, %object
 2973              		.size	ep0config, 36
 2974              	ep0config:
 2975 0000 00000000 		.word	0
 2976 0004 00000000 		.word	_usb_ep0setup
 2977 0008 00000000 		.word	_usb_ep0in
 2978 000c 00000000 		.word	_usb_ep0out
 2979 0010 4000     		.short	64
 2980 0012 4000     		.short	64
 2981 0014 00000000 		.word	ep0_state
 2982 0018 00000000 		.word	ep0_state
 2983 001c 0100     		.short	1
 2984 001e 0000     		.space	2
 2985 0020 00000000 		.word	ep0setup_buffer
 2986              		.section	.bss.ep0_state,"aw",%nobits
 2987              		.align	2
 2988              		.type	ep0_state, %object
 2989              		.size	ep0_state, 16
 2990              	ep0_state:
 2991 0000 00000000 		.space	16
 2991      00000000 
 2991      00000000 
 2991      00000000 
 2992              		.section	.bss.ep0setup_buffer,"aw",%nobits
ARM GAS  /tmp/ccx4dzgE.s 			page 54


 2993              		.align	2
 2994              		.type	ep0setup_buffer, %object
 2995              		.size	ep0setup_buffer, 8
 2996              	ep0setup_buffer:
 2997 0000 00000000 		.space	8
 2997      00000000 
 2998              		.text
 2999              	.Letext0:
 3000              		.file 3 "/usr/bin/../lib/gcc/arm-none-eabi/4.7.4/include/stddef.h"
 3001              		.file 4 "/usr/bin/../lib/gcc/arm-none-eabi/4.7.4/../../../../arm-none-eabi/include/stdint.h"
 3002              		.file 5 "../../os/ports/GCC/ARMCMx/chtypes.h"
 3003              		.file 6 "../../os/kernel/include/chlists.h"
 3004              		.file 7 "../../os/kernel/include/chthreads.h"
 3005              		.file 8 "../../os/ports/GCC/ARMCMx/chcore_v7m.h"
 3006              		.file 9 "../../os/kernel/include/chschd.h"
 3007              		.file 10 "../../os/kernel/include/chmtx.h"
 3008              		.file 11 "../../os/kernel/include/chqueues.h"
 3009              		.file 12 "../../os/hal/platforms/STM32F4xx/stm32f4xx.h"
 3010              		.file 13 "../../os/hal/platforms/STM32F4xx/hal_lld.h"
 3011              		.file 14 "../../os/hal/include/usb.h"
 3012              		.file 15 "../../os/hal/platforms/STM32/OTGv1/usb_lld.h"
 3013              		.file 16 "../../os/hal/platforms/STM32/OTGv1/stm32_otg.h"
 3014              		.file 17 "../../os/ports/common/ARMCMx/CMSIS/include/core_cm4.h"
 3015              		.file 18 "../../os/hal/include/hal.h"
 3016              		.file 19 "../../os/ports/common/ARMCMx/nvic.h"