ARM GAS  /tmp/ccHvIWiZ.s 			page 1


   1              		.syntax unified
   2              		.cpu cortex-m4
   3              		.fpu softvfp
   4              		.eabi_attribute 20, 1
   5              		.eabi_attribute 21, 1
   6              		.eabi_attribute 23, 3
   7              		.eabi_attribute 24, 1
   8              		.eabi_attribute 25, 1
   9              		.eabi_attribute 26, 1
  10              		.eabi_attribute 30, 6
  11              		.eabi_attribute 34, 1
  12              		.eabi_attribute 18, 4
  13              		.thumb
  14              		.file	"chcore_v7m.c"
  15              		.text
  16              	.Ltext0:
  17              		.cfi_sections	.debug_frame
  18              		.section	.text.SysTickVector,"ax",%progbits
  19              		.align	2
  20              		.p2align 4,,15
  21              		.global	SysTickVector
  22              		.thumb
  23              		.thumb_func
  24              		.type	SysTickVector, %function
  25              	SysTickVector:
  26              	.LFB7:
  27              		.file 1 "../../os/ports/GCC/ARMCMx/chcore_v7m.c"
  28              		.loc 1 40 0
  29              		.cfi_startproc
  30              		@ args = 0, pretend = 0, frame = 0
  31              		@ frame_needed = 0, uses_anonymous_args = 0
  32 0000 08B5     		push	{r3, lr}
  33              	.LCFI0:
  34              		.cfi_def_cfa_offset 8
  35              		.cfi_offset 3, -8
  36              		.cfi_offset 14, -4
  37              		.loc 1 42 0
  38 0002 FFF7FEFF 		bl	dbg_check_enter_isr
  39              	.LBB2:
  40              		.loc 1 44 0
  41 0006 4FF02003 		mov	r3, #32
  42              	@ 44 "../../os/ports/GCC/ARMCMx/chcore_v7m.c" 1
  43 000a 83F31188 		msr     BASEPRI, r3
  44              	@ 0 "" 2
  45              		.thumb
  46              	.LBE2:
  47 000e FFF7FEFF 		bl	dbg_check_lock_from_isr
  48              		.loc 1 45 0
  49 0012 FFF7FEFF 		bl	chSysTimerHandlerI
  50              		.loc 1 46 0
  51 0016 FFF7FEFF 		bl	dbg_check_unlock_from_isr
  52              	.LBB3:
  53 001a 4FF00003 		mov	r3, #0
  54              	@ 46 "../../os/ports/GCC/ARMCMx/chcore_v7m.c" 1
  55 001e 83F31188 		msr     BASEPRI, r3
  56              	@ 0 "" 2
  57              		.thumb
ARM GAS  /tmp/ccHvIWiZ.s 			page 2


  58              	.LBE3:
  59              		.loc 1 48 0
  60 0022 FFF7FEFF 		bl	dbg_check_leave_isr
  61 0026 FFF7FEFF 		bl	_port_irq_epilogue
  62              		.loc 1 49 0
  63 002a 08BD     		pop	{r3, pc}
  64              		.cfi_endproc
  65              	.LFE7:
  66              		.size	SysTickVector, .-SysTickVector
  67 002c AFF30080 		.section	.text.SVCallVector,"ax",%progbits
  68              		.align	2
  69              		.p2align 4,,15
  70              		.global	SVCallVector
  71              		.thumb
  72              		.thumb_func
  73              		.type	SVCallVector, %function
  74              	SVCallVector:
  75              	.LFB8:
  76              		.loc 1 58 0
  77              		.cfi_startproc
  78              		@ args = 0, pretend = 0, frame = 8
  79              		@ frame_needed = 0, uses_anonymous_args = 0
  80              		@ link register save eliminated.
  81 0000 10B4     		push	{r4}
  82              	.LCFI1:
  83              		.cfi_def_cfa_offset 4
  84              		.cfi_offset 4, -4
  85 0002 83B0     		sub	sp, sp, #12
  86              	.LCFI2:
  87              		.cfi_def_cfa_offset 16
  88              		.loc 1 62 0
  89              	@ 62 "../../os/ports/GCC/ARMCMx/chcore_v7m.c" 1
  90 0004 EFF30984 		mrs     r4, PSP
  91              	@ 0 "" 2
  92              		.thumb
  93 0008 0194     		str	r4, [sp, #4]
  94              		.loc 1 66 0
  95 000a 019B     		ldr	r3, [sp, #4]
  96 000c 03F12003 		add	r3, r3, #32
  97 0010 0193     		str	r3, [sp, #4]
  98              		.loc 1 73 0
  99 0012 019B     		ldr	r3, [sp, #4]
 100              	@ 73 "../../os/ports/GCC/ARMCMx/chcore_v7m.c" 1
 101 0014 83F30988 		msr     PSP, r3
 102              	@ 0 "" 2
 103              		.thumb
 104              	.LBB4:
 105              		.loc 1 74 0
 106 0018 4FF00003 		mov	r3, #0
 107              	@ 74 "../../os/ports/GCC/ARMCMx/chcore_v7m.c" 1
 108 001c 83F31188 		msr     BASEPRI, r3
 109              	@ 0 "" 2
 110              		.thumb
 111              	.LBE4:
 112              		.loc 1 75 0
 113 0020 03B0     		add	sp, sp, #12
 114 0022 10BC     		pop	{r4}
ARM GAS  /tmp/ccHvIWiZ.s 			page 3


 115 0024 7047     		bx	lr
 116              		.cfi_endproc
 117              	.LFE8:
 118              		.size	SVCallVector, .-SVCallVector
 119 0026 00BFAFF3 		.section	.text._port_init,"ax",%progbits
 119      0080AFF3 
 119      0080
 120              		.align	2
 121              		.p2align 4,,15
 122              		.global	_port_init
 123              		.thumb
 124              		.thumb_func
 125              		.type	_port_init, %function
 126              	_port_init:
 127              	.LFB9:
 128              		.loc 1 111 0
 129              		.cfi_startproc
 130              		@ args = 0, pretend = 0, frame = 0
 131              		@ frame_needed = 0, uses_anonymous_args = 0
 132 0000 08B5     		push	{r3, lr}
 133              	.LCFI3:
 134              		.cfi_def_cfa_offset 8
 135              		.cfi_offset 3, -8
 136              		.cfi_offset 14, -4
 137              		.loc 1 114 0
 138 0002 4FF46D43 		mov	r3, #60672
 139 0006 CEF20003 		movt	r3, 57344
 140 000a 4FF00002 		mov	r2, #0
 141 000e 9A60     		str	r2, [r3, #8]
 142              		.loc 1 115 0
 143 0010 4FF46D43 		mov	r3, #60672
 144 0014 CEF20003 		movt	r3, 57344
 145 0018 4FF44072 		mov	r2, #768
 146 001c C0F2FA52 		movt	r2, 1530
 147 0020 DA60     		str	r2, [r3, #12]
 148              		.loc 1 118 0
 149 0022 4FF00700 		mov	r0, #7
 150 0026 4FF01001 		mov	r1, #16
 151 002a FFF7FEFF 		bl	nvicSetSystemHandlerPriority
 152              		.loc 1 120 0
 153 002e 4FF00A00 		mov	r0, #10
 154 0032 4FF40071 		mov	r1, #512
 155 0036 FFF7FEFF 		bl	nvicSetSystemHandlerPriority
 156              		.loc 1 122 0
 157 003a 4FF00B00 		mov	r0, #11
 158 003e 4FF08001 		mov	r1, #128
 159 0042 FFF7FEFF 		bl	nvicSetSystemHandlerPriority
 160              		.loc 1 124 0
 161 0046 08BD     		pop	{r3, pc}
 162              		.cfi_endproc
 163              	.LFE9:
 164              		.size	_port_init, .-_port_init
 165 0048 AFF30080 		.section	.text._port_irq_epilogue,"ax",%progbits
 165      AFF30080 
 166              		.align	2
 167              		.p2align 4,,15
 168              		.global	_port_irq_epilogue
ARM GAS  /tmp/ccHvIWiZ.s 			page 4


 169              		.thumb
 170              		.thumb_func
 171              		.type	_port_irq_epilogue, %function
 172              	_port_irq_epilogue:
 173              	.LFB10:
 174              		.loc 1 141 0
 175              		.cfi_startproc
 176              		@ args = 0, pretend = 0, frame = 8
 177              		@ frame_needed = 0, uses_anonymous_args = 0
 178              		@ link register save eliminated.
 179 0000 10B4     		push	{r4}
 180              	.LCFI4:
 181              		.cfi_def_cfa_offset 4
 182              		.cfi_offset 4, -4
 183 0002 83B0     		sub	sp, sp, #12
 184              	.LCFI5:
 185              		.cfi_def_cfa_offset 16
 186              	.LBB5:
 187              		.loc 1 143 0
 188 0004 4FF02003 		mov	r3, #32
 189              	@ 143 "../../os/ports/GCC/ARMCMx/chcore_v7m.c" 1
 190 0008 83F31188 		msr     BASEPRI, r3
 191              	@ 0 "" 2
 192              		.thumb
 193              	.LBE5:
 194              		.loc 1 144 0
 195 000c 4FF46D43 		mov	r3, #60672
 196 0010 CEF20003 		movt	r3, 57344
 197 0014 5B68     		ldr	r3, [r3, #4]
 198 0016 03F40063 		and	r3, r3, #2048
 199 001a 002B     		cmp	r3, #0
 200 001c 49D0     		beq	.L5
 201              	.LBB6:
 202              		.loc 1 148 0
 203              	@ 148 "../../os/ports/GCC/ARMCMx/chcore_v7m.c" 1
 204 001e EFF30984 		mrs     r4, PSP
 205              	@ 0 "" 2
 206              		.thumb
 207 0022 0194     		str	r4, [sp, #4]
 208              		.loc 1 152 0
 209 0024 019B     		ldr	r3, [sp, #4]
 210 0026 A3F12003 		sub	r3, r3, #32
 211 002a 0193     		str	r3, [sp, #4]
 212              		.loc 1 153 0
 213 002c 019B     		ldr	r3, [sp, #4]
 214              	@ 153 "../../os/ports/GCC/ARMCMx/chcore_v7m.c" 1
 215 002e 83F30988 		msr     PSP, r3
 216              	@ 0 "" 2
 217              		.loc 1 154 0
 218              		.thumb
 219 0032 019B     		ldr	r3, [sp, #4]
 220 0034 4FF08072 		mov	r2, #16777216
 221 0038 DA61     		str	r2, [r3, #28]
 222              		.loc 1 158 0
 223 003a 40F20003 		movw	r3, #:lower16:rlist
 224 003e C0F20003 		movt	r3, #:upper16:rlist
 225 0042 9B69     		ldr	r3, [r3, #24]
ARM GAS  /tmp/ccHvIWiZ.s 			page 5


 226 0044 93F82330 		ldrb	r3, [r3, #35]	@ zero_extendqisi2
 227 0048 002B     		cmp	r3, #0
 228 004a 11D0     		beq	.L6
 229              		.loc 1 158 0 is_stmt 0 discriminator 1
 230 004c 40F20003 		movw	r3, #:lower16:rlist
 231 0050 C0F20003 		movt	r3, #:upper16:rlist
 232 0054 1B68     		ldr	r3, [r3, #0]
 233 0056 9A68     		ldr	r2, [r3, #8]
 234 0058 40F20003 		movw	r3, #:lower16:rlist
 235 005c C0F20003 		movt	r3, #:upper16:rlist
 236 0060 9B69     		ldr	r3, [r3, #24]
 237 0062 9B68     		ldr	r3, [r3, #8]
 238 0064 9A42     		cmp	r2, r3
 239 0066 94BF     		ite	ls
 240 0068 0023     		movls	r3, #0
 241 006a 0123     		movhi	r3, #1
 242 006c DBB2     		uxtb	r3, r3
 243 006e 10E0     		b	.L7
 244              	.L6:
 245              		.loc 1 158 0 discriminator 2
 246 0070 40F20003 		movw	r3, #:lower16:rlist
 247 0074 C0F20003 		movt	r3, #:upper16:rlist
 248 0078 1B68     		ldr	r3, [r3, #0]
 249 007a 9A68     		ldr	r2, [r3, #8]
 250 007c 40F20003 		movw	r3, #:lower16:rlist
 251 0080 C0F20003 		movt	r3, #:upper16:rlist
 252 0084 9B69     		ldr	r3, [r3, #24]
 253 0086 9B68     		ldr	r3, [r3, #8]
 254 0088 9A42     		cmp	r2, r3
 255 008a 34BF     		ite	cc
 256 008c 0023     		movcc	r3, #0
 257 008e 0123     		movcs	r3, #1
 258 0090 DBB2     		uxtb	r3, r3
 259              	.L7:
 260              		.loc 1 158 0 discriminator 3
 261 0092 002B     		cmp	r3, #0
 262 0094 06D0     		beq	.L8
 263              		.loc 1 160 0 is_stmt 1
 264 0096 019A     		ldr	r2, [sp, #4]
 265 0098 40F20003 		movw	r3, #:lower16:_port_switch_from_isr
 266 009c C0F20003 		movt	r3, #:upper16:_port_switch_from_isr
 267 00a0 9361     		str	r3, [r2, #24]
 268              		.loc 1 188 0
 269 00a2 0AE0     		b	.L4
 270              	.L8:
 271              		.loc 1 169 0
 272 00a4 019A     		ldr	r2, [sp, #4]
 273 00a6 40F20003 		movw	r3, #:lower16:_port_exit_from_isr
 274 00aa C0F20003 		movt	r3, #:upper16:_port_exit_from_isr
 275 00ae 9361     		str	r3, [r2, #24]
 276              		.loc 1 188 0
 277 00b0 03E0     		b	.L4
 278              	.L5:
 279              	.LBE6:
 280              	.LBB7:
 281              		.loc 1 190 0
 282 00b2 4FF00003 		mov	r3, #0
ARM GAS  /tmp/ccHvIWiZ.s 			page 6


 283              	@ 190 "../../os/ports/GCC/ARMCMx/chcore_v7m.c" 1
 284 00b6 83F31188 		msr     BASEPRI, r3
 285              	@ 0 "" 2
 286              		.thumb
 287              	.L4:
 288              	.LBE7:
 289              		.loc 1 191 0
 290 00ba 03B0     		add	sp, sp, #12
 291 00bc 10BC     		pop	{r4}
 292 00be 7047     		bx	lr
 293              		.cfi_endproc
 294              	.LFE10:
 295              		.size	_port_irq_epilogue, .-_port_irq_epilogue
 296              		.section	.text._port_switch_from_isr,"ax",%progbits
 297              		.align	2
 298              		.p2align 4,,15
 299              		.global	_port_switch_from_isr
 300              		.thumb
 301              		.thumb_func
 302              		.type	_port_switch_from_isr, %function
 303              	_port_switch_from_isr:
 304              	.LFB11:
 305              		.loc 1 200 0
 306              		.cfi_startproc
 307              		@ Naked Function: prologue and epilogue provided by programmer.
 308              		@ args = 0, pretend = 0, frame = 0
 309              		@ frame_needed = 0, uses_anonymous_args = 0
 310              		.loc 1 202 0
 311 0000 FFF7FEFF 		bl	dbg_check_lock
 312              		.loc 1 203 0
 313 0004 FFF7FEFF 		bl	chSchDoReschedule
 314              		.loc 1 204 0
 315 0008 FFF7FEFF 		bl	dbg_check_unlock
 316              		.loc 1 205 0
 317              	@ 205 "../../os/ports/GCC/ARMCMx/chcore_v7m.c" 1
 318              		_port_exit_from_isr:
 319              	@ 0 "" 2
 320              		.loc 1 207 0
 321              	@ 207 "../../os/ports/GCC/ARMCMx/chcore_v7m.c" 1
 322 000c 00DF     		svc     #0
 323              	@ 0 "" 2
 324              		.loc 1 214 0
 325              		.thumb
 326              		.cfi_endproc
 327              	.LFE11:
 328              		.size	_port_switch_from_isr, .-_port_switch_from_isr
 329 000e 00BF     		.section	.text._port_switch,"ax",%progbits
 330              		.align	2
 331              		.p2align 4,,15
 332              		.global	_port_switch
 333              		.thumb
 334              		.thumb_func
 335              		.type	_port_switch, %function
 336              	_port_switch:
 337              	.LFB12:
 338              		.loc 1 229 0
 339              		.cfi_startproc
ARM GAS  /tmp/ccHvIWiZ.s 			page 7


 340              		@ Naked Function: prologue and epilogue provided by programmer.
 341              		@ args = 0, pretend = 0, frame = 0
 342              		@ frame_needed = 0, uses_anonymous_args = 0
 343 0000 0346     		mov	r3, r0
 344 0002 0A46     		mov	r2, r1
 345              		.loc 1 231 0
 346              	@ 231 "../../os/ports/GCC/ARMCMx/chcore_v7m.c" 1
 347 0004 2DE9F04F 		push    {r4, r5, r6, r7, r8, r9, r10, r11, lr}
 348              	@ 0 "" 2
 349              		.loc 1 237 0
 350              	@ 237 "../../os/ports/GCC/ARMCMx/chcore_v7m.c" 1
 351 0008 C2F80CD0 		str     sp, [r2, #12]                          
 352 000c D3F80CD0 		ldr     sp, [r3, #12]
 353              	@ 0 "" 2
 354              		.loc 1 243 0
 355              	@ 243 "../../os/ports/GCC/ARMCMx/chcore_v7m.c" 1
 356 0010 BDE8F08F 		pop     {r4, r5, r6, r7, r8, r9, r10, r11, pc}
 357              	@ 0 "" 2
 358              		.loc 1 245 0
 359              		.thumb
 360              		.cfi_endproc
 361              	.LFE12:
 362              		.size	_port_switch, .-_port_switch
 363 0014 AFF30080 		.section	.text._port_thread_start,"ax",%progbits
 363      AFF30080 
 363      AFF30080 
 364              		.align	2
 365              		.p2align 4,,15
 366              		.global	_port_thread_start
 367              		.thumb
 368              		.thumb_func
 369              		.type	_port_thread_start, %function
 370              	_port_thread_start:
 371              	.LFB13:
 372              		.loc 1 252 0
 373              		.cfi_startproc
 374              		@ args = 0, pretend = 0, frame = 0
 375              		@ frame_needed = 0, uses_anonymous_args = 0
 376 0000 08B5     		push	{r3, lr}
 377              	.LCFI6:
 378              		.cfi_def_cfa_offset 8
 379              		.cfi_offset 3, -8
 380              		.cfi_offset 14, -4
 381              		.loc 1 254 0
 382 0002 FFF7FEFF 		bl	dbg_check_unlock
 383              	.LBB8:
 384 0006 4FF00003 		mov	r3, #0
 385              	@ 254 "../../os/ports/GCC/ARMCMx/chcore_v7m.c" 1
 386 000a 83F31188 		msr     BASEPRI, r3
 387              	@ 0 "" 2
 388              		.thumb
 389              	.LBE8:
 390              		.loc 1 255 0
 391              	@ 255 "../../os/ports/GCC/ARMCMx/chcore_v7m.c" 1
 392 000e 2846     		mov     r0, r5                                 
 393 0010 A047     		blx     r4                                     
 394 0012 FFF7FEFF 		bl      chThdExit
ARM GAS  /tmp/ccHvIWiZ.s 			page 8


 395              	@ 0 "" 2
 396              		.loc 1 258 0
 397              		.thumb
 398 0016 08BD     		pop	{r3, pc}
 399              		.cfi_endproc
 400              	.LFE13:
 401              		.size	_port_thread_start, .-_port_thread_start
 402 0018 AFF30080 		.text
 402      AFF30080 
 403              	.Letext0:
 404              		.file 2 "/usr/bin/../lib/gcc/arm-none-eabi/4.7.4/../../../../arm-none-eabi/include/stdint.h"
 405              		.file 3 "../../os/ports/GCC/ARMCMx/chtypes.h"
 406              		.file 4 "../../os/kernel/include/chlists.h"
 407              		.file 5 "../../os/kernel/include/chthreads.h"
 408              		.file 6 "../../os/ports/GCC/ARMCMx/chcore_v7m.h"
 409              		.file 7 "../../os/ports/common/ARMCMx/nvic.h"
 410              		.file 8 "../../os/kernel/include/chschd.h"
 411              		.file 9 "../../os/kernel/include/chmtx.h"