ARM GAS  /tmp/cc3y2hs2.s 			page 1


   1              		.syntax unified
   2              		.cpu cortex-m4
   3              		.fpu softvfp
   4              		.eabi_attribute 20, 1
   5              		.eabi_attribute 21, 1
   6              		.eabi_attribute 23, 3
   7              		.eabi_attribute 24, 1
   8              		.eabi_attribute 25, 1
   9              		.eabi_attribute 26, 1
  10              		.eabi_attribute 30, 6
  11              		.eabi_attribute 34, 1
  12              		.eabi_attribute 18, 4
  13              		.thumb
  14              		.file	"chmemcore.c"
  15              		.text
  16              	.Ltext0:
  17              		.cfi_sections	.debug_frame
  18              		.section	.bss.nextmem,"aw",%nobits
  19              		.align	2
  20              		.type	nextmem, %object
  21              		.size	nextmem, 4
  22              	nextmem:
  23 0000 00000000 		.space	4
  24              		.section	.bss.endmem,"aw",%nobits
  25              		.align	2
  26              		.type	endmem, %object
  27              		.size	endmem, 4
  28              	endmem:
  29 0000 00000000 		.space	4
  30              		.section	.text._core_init,"ax",%progbits
  31              		.align	2
  32              		.p2align 4,,15
  33              		.global	_core_init
  34              		.thumb
  35              		.thumb_func
  36              		.type	_core_init, %function
  37              	_core_init:
  38              	.LFB7:
  39              		.file 1 "../../os/kernel/src/chmemcore.c"
  40              		.loc 1 59 0
  41              		.cfi_startproc
  42              		@ args = 0, pretend = 0, frame = 0
  43              		@ frame_needed = 0, uses_anonymous_args = 0
  44              		@ link register save eliminated.
  45              		.loc 1 63 0
  46 0000 40F20003 		movw	r3, #:lower16:__heap_base__
  47 0004 C0F20003 		movt	r3, #:upper16:__heap_base__
  48 0008 03F10703 		add	r3, r3, #7
  49 000c 23F00703 		bic	r3, r3, #7
  50 0010 1A46     		mov	r2, r3
  51 0012 40F20003 		movw	r3, #:lower16:nextmem
  52 0016 C0F20003 		movt	r3, #:upper16:nextmem
  53 001a 1A60     		str	r2, [r3, #0]
  54              		.loc 1 64 0
  55 001c 40F20003 		movw	r3, #:lower16:__heap_end__
  56 0020 C0F20003 		movt	r3, #:upper16:__heap_end__
  57 0024 23F00703 		bic	r3, r3, #7
ARM GAS  /tmp/cc3y2hs2.s 			page 2


  58 0028 1A46     		mov	r2, r3
  59 002a 40F20003 		movw	r3, #:lower16:endmem
  60 002e C0F20003 		movt	r3, #:upper16:endmem
  61 0032 1A60     		str	r2, [r3, #0]
  62              		.loc 1 70 0
  63 0034 7047     		bx	lr
  64              		.cfi_endproc
  65              	.LFE7:
  66              		.size	_core_init, .-_core_init
  67 0036 00BFAFF3 		.section	.text.chCoreAlloc,"ax",%progbits
  67      0080AFF3 
  67      0080
  68              		.align	2
  69              		.p2align 4,,15
  70              		.global	chCoreAlloc
  71              		.thumb
  72              		.thumb_func
  73              		.type	chCoreAlloc, %function
  74              	chCoreAlloc:
  75              	.LFB8:
  76              		.loc 1 84 0
  77              		.cfi_startproc
  78              		@ args = 0, pretend = 0, frame = 16
  79              		@ frame_needed = 0, uses_anonymous_args = 0
  80 0000 00B5     		push	{lr}
  81              	.LCFI0:
  82              		.cfi_def_cfa_offset 4
  83              		.cfi_offset 14, -4
  84 0002 85B0     		sub	sp, sp, #20
  85              	.LCFI1:
  86              		.cfi_def_cfa_offset 24
  87 0004 0190     		str	r0, [sp, #4]
  88              	.LBB2:
  89              		.loc 1 87 0
  90 0006 4FF02003 		mov	r3, #32
  91              	@ 87 "../../os/kernel/src/chmemcore.c" 1
  92 000a 83F31188 		msr     BASEPRI, r3
  93              	@ 0 "" 2
  94              		.thumb
  95              	.LBE2:
  96 000e FFF7FEFF 		bl	dbg_check_lock
  97              		.loc 1 88 0
  98 0012 0198     		ldr	r0, [sp, #4]
  99 0014 FFF7FEFF 		bl	chCoreAllocI
 100 0018 0390     		str	r0, [sp, #12]
 101              		.loc 1 89 0
 102 001a FFF7FEFF 		bl	dbg_check_unlock
 103              	.LBB3:
 104 001e 4FF00003 		mov	r3, #0
 105              	@ 89 "../../os/kernel/src/chmemcore.c" 1
 106 0022 83F31188 		msr     BASEPRI, r3
 107              	@ 0 "" 2
 108              		.thumb
 109              	.LBE3:
 110              		.loc 1 90 0
 111 0026 039B     		ldr	r3, [sp, #12]
 112              		.loc 1 91 0
ARM GAS  /tmp/cc3y2hs2.s 			page 3


 113 0028 1846     		mov	r0, r3
 114 002a 05B0     		add	sp, sp, #20
 115 002c 00BD     		pop	{pc}
 116              		.cfi_endproc
 117              	.LFE8:
 118              		.size	chCoreAlloc, .-chCoreAlloc
 119 002e 00BF     		.section	.text.chCoreAllocI,"ax",%progbits
 120              		.align	2
 121              		.p2align 4,,15
 122              		.global	chCoreAllocI
 123              		.thumb
 124              		.thumb_func
 125              		.type	chCoreAllocI, %function
 126              	chCoreAllocI:
 127              	.LFB9:
 128              		.loc 1 105 0
 129              		.cfi_startproc
 130              		@ args = 0, pretend = 0, frame = 16
 131              		@ frame_needed = 0, uses_anonymous_args = 0
 132 0000 00B5     		push	{lr}
 133              	.LCFI2:
 134              		.cfi_def_cfa_offset 4
 135              		.cfi_offset 14, -4
 136 0002 85B0     		sub	sp, sp, #20
 137              	.LCFI3:
 138              		.cfi_def_cfa_offset 24
 139 0004 0190     		str	r0, [sp, #4]
 140              		.loc 1 108 0
 141 0006 FFF7FEFF 		bl	chDbgCheckClassI
 142              		.loc 1 110 0
 143 000a 019B     		ldr	r3, [sp, #4]
 144 000c 03F10703 		add	r3, r3, #7
 145 0010 23F00703 		bic	r3, r3, #7
 146 0014 0193     		str	r3, [sp, #4]
 147              		.loc 1 111 0
 148 0016 40F20003 		movw	r3, #:lower16:endmem
 149 001a C0F20003 		movt	r3, #:upper16:endmem
 150 001e 1B68     		ldr	r3, [r3, #0]
 151 0020 1A46     		mov	r2, r3
 152 0022 40F20003 		movw	r3, #:lower16:nextmem
 153 0026 C0F20003 		movt	r3, #:upper16:nextmem
 154 002a 1B68     		ldr	r3, [r3, #0]
 155 002c D31A     		subs	r3, r2, r3
 156 002e 1A46     		mov	r2, r3
 157 0030 019B     		ldr	r3, [sp, #4]
 158 0032 9A42     		cmp	r2, r3
 159 0034 02D2     		bcs	.L5
 160              		.loc 1 112 0
 161 0036 4FF00003 		mov	r3, #0
 162 003a 12E0     		b	.L6
 163              	.L5:
 164              		.loc 1 113 0
 165 003c 40F20003 		movw	r3, #:lower16:nextmem
 166 0040 C0F20003 		movt	r3, #:upper16:nextmem
 167 0044 1B68     		ldr	r3, [r3, #0]
 168 0046 0393     		str	r3, [sp, #12]
 169              		.loc 1 114 0
ARM GAS  /tmp/cc3y2hs2.s 			page 4


 170 0048 40F20003 		movw	r3, #:lower16:nextmem
 171 004c C0F20003 		movt	r3, #:upper16:nextmem
 172 0050 1A68     		ldr	r2, [r3, #0]
 173 0052 019B     		ldr	r3, [sp, #4]
 174 0054 D218     		adds	r2, r2, r3
 175 0056 40F20003 		movw	r3, #:lower16:nextmem
 176 005a C0F20003 		movt	r3, #:upper16:nextmem
 177 005e 1A60     		str	r2, [r3, #0]
 178              		.loc 1 115 0
 179 0060 039B     		ldr	r3, [sp, #12]
 180              	.L6:
 181              		.loc 1 116 0
 182 0062 1846     		mov	r0, r3
 183 0064 05B0     		add	sp, sp, #20
 184 0066 00BD     		pop	{pc}
 185              		.cfi_endproc
 186              	.LFE9:
 187              		.size	chCoreAllocI, .-chCoreAllocI
 188 0068 AFF30080 		.section	.text.chCoreStatus,"ax",%progbits
 188      AFF30080 
 189              		.align	2
 190              		.p2align 4,,15
 191              		.global	chCoreStatus
 192              		.thumb
 193              		.thumb_func
 194              		.type	chCoreStatus, %function
 195              	chCoreStatus:
 196              	.LFB10:
 197              		.loc 1 125 0
 198              		.cfi_startproc
 199              		@ args = 0, pretend = 0, frame = 0
 200              		@ frame_needed = 0, uses_anonymous_args = 0
 201              		@ link register save eliminated.
 202              		.loc 1 127 0
 203 0000 40F20003 		movw	r3, #:lower16:endmem
 204 0004 C0F20003 		movt	r3, #:upper16:endmem
 205 0008 1B68     		ldr	r3, [r3, #0]
 206 000a 1A46     		mov	r2, r3
 207 000c 40F20003 		movw	r3, #:lower16:nextmem
 208 0010 C0F20003 		movt	r3, #:upper16:nextmem
 209 0014 1B68     		ldr	r3, [r3, #0]
 210 0016 D31A     		subs	r3, r2, r3
 211              		.loc 1 128 0
 212 0018 1846     		mov	r0, r3
 213 001a 7047     		bx	lr
 214              		.cfi_endproc
 215              	.LFE10:
 216              		.size	chCoreStatus, .-chCoreStatus
 217 001c AFF30080 		.text
 218              	.Letext0:
 219              		.file 2 "/usr/bin/../lib/gcc/arm-none-eabi/4.7.4/include/stddef.h"
 220              		.file 3 "/usr/bin/../lib/gcc/arm-none-eabi/4.7.4/../../../../arm-none-eabi/include/stdint.h"