ARM GAS  /tmp/ccqGzjWh.s 			page 1


   1              		.syntax unified
   2              		.cpu cortex-m4
   3              		.fpu softvfp
   4              		.eabi_attribute 20, 1
   5              		.eabi_attribute 21, 1
   6              		.eabi_attribute 23, 3
   7              		.eabi_attribute 24, 1
   8              		.eabi_attribute 25, 1
   9              		.eabi_attribute 26, 1
  10              		.eabi_attribute 30, 6
  11              		.eabi_attribute 34, 1
  12              		.eabi_attribute 18, 4
  13              		.thumb
  14              		.file	"chmempools.c"
  15              		.text
  16              	.Ltext0:
  17              		.cfi_sections	.debug_frame
  18              		.section	.rodata
  19              		.align	2
  20              	.LC0:
  21 0000 22636850 		.ascii	"\"chPoolInit\"()\000"
  21      6F6F6C49 
  21      6E697422 
  21      282900
  22              		.section	.text.chPoolInit,"ax",%progbits
  23              		.align	2
  24              		.p2align 4,,15
  25              		.global	chPoolInit
  26              		.thumb
  27              		.thumb_func
  28              		.type	chPoolInit, %function
  29              	chPoolInit:
  30              	.LFB7:
  31              		.file 1 "../../os/kernel/src/chmempools.c"
  32              		.loc 1 55 0
  33              		.cfi_startproc
  34              		@ args = 0, pretend = 0, frame = 16
  35              		@ frame_needed = 0, uses_anonymous_args = 0
  36 0000 00B5     		push	{lr}
  37              	.LCFI0:
  38              		.cfi_def_cfa_offset 4
  39              		.cfi_offset 14, -4
  40 0002 85B0     		sub	sp, sp, #20
  41              	.LCFI1:
  42              		.cfi_def_cfa_offset 24
  43 0004 0390     		str	r0, [sp, #12]
  44 0006 0291     		str	r1, [sp, #8]
  45 0008 0192     		str	r2, [sp, #4]
  46              		.loc 1 57 0
  47 000a 039B     		ldr	r3, [sp, #12]
  48 000c 002B     		cmp	r3, #0
  49 000e 02D0     		beq	.L2
  50              		.loc 1 57 0 is_stmt 0 discriminator 2
  51 0010 029B     		ldr	r3, [sp, #8]
  52 0012 032B     		cmp	r3, #3
  53 0014 05D8     		bhi	.L3
  54              	.L2:
ARM GAS  /tmp/ccqGzjWh.s 			page 2


  55              		.loc 1 57 0 discriminator 1
  56 0016 40F20000 		movw	r0, #:lower16:.LC0
  57 001a C0F20000 		movt	r0, #:upper16:.LC0
  58 001e FFF7FEFF 		bl	chDbgPanic
  59              	.L3:
  60              		.loc 1 59 0 is_stmt 1
  61 0022 039B     		ldr	r3, [sp, #12]
  62 0024 4FF00002 		mov	r2, #0
  63 0028 1A60     		str	r2, [r3, #0]
  64              		.loc 1 60 0
  65 002a 039B     		ldr	r3, [sp, #12]
  66 002c 029A     		ldr	r2, [sp, #8]
  67 002e 5A60     		str	r2, [r3, #4]
  68              		.loc 1 61 0
  69 0030 039B     		ldr	r3, [sp, #12]
  70 0032 019A     		ldr	r2, [sp, #4]
  71 0034 9A60     		str	r2, [r3, #8]
  72              		.loc 1 62 0
  73 0036 05B0     		add	sp, sp, #20
  74 0038 00BD     		pop	{pc}
  75              		.cfi_endproc
  76              	.LFE7:
  77              		.size	chPoolInit, .-chPoolInit
  78 003a 00BFAFF3 		.section	.rodata
  78      0080
  79 000f 00       		.align	2
  80              	.LC1:
  81 0010 22636850 		.ascii	"\"chPoolLoadArray\"()\000"
  81      6F6F6C4C 
  81      6F616441 
  81      72726179 
  81      22282900 
  82              		.section	.text.chPoolLoadArray,"ax",%progbits
  83              		.align	2
  84              		.p2align 4,,15
  85              		.global	chPoolLoadArray
  86              		.thumb
  87              		.thumb_func
  88              		.type	chPoolLoadArray, %function
  89              	chPoolLoadArray:
  90              	.LFB8:
  91              		.loc 1 77 0
  92              		.cfi_startproc
  93              		@ args = 0, pretend = 0, frame = 16
  94              		@ frame_needed = 0, uses_anonymous_args = 0
  95 0000 00B5     		push	{lr}
  96              	.LCFI2:
  97              		.cfi_def_cfa_offset 4
  98              		.cfi_offset 14, -4
  99 0002 85B0     		sub	sp, sp, #20
 100              	.LCFI3:
 101              		.cfi_def_cfa_offset 24
 102 0004 0390     		str	r0, [sp, #12]
 103 0006 0291     		str	r1, [sp, #8]
 104 0008 0192     		str	r2, [sp, #4]
 105              		.loc 1 79 0
 106 000a 039B     		ldr	r3, [sp, #12]
ARM GAS  /tmp/ccqGzjWh.s 			page 3


 107 000c 002B     		cmp	r3, #0
 108 000e 02D0     		beq	.L5
 109              		.loc 1 79 0 is_stmt 0 discriminator 2
 110 0010 019B     		ldr	r3, [sp, #4]
 111 0012 002B     		cmp	r3, #0
 112 0014 13D1     		bne	.L7
 113              	.L5:
 114              		.loc 1 79 0 discriminator 1
 115 0016 40F20000 		movw	r0, #:lower16:.LC1
 116 001a C0F20000 		movt	r0, #:upper16:.LC1
 117 001e FFF7FEFF 		bl	chDbgPanic
 118              		.loc 1 81 0 is_stmt 1 discriminator 1
 119 0022 0CE0     		b	.L7
 120              	.L8:
 121              		.loc 1 82 0
 122 0024 0398     		ldr	r0, [sp, #12]
 123 0026 0299     		ldr	r1, [sp, #8]
 124 0028 FFF7FEFF 		bl	chPoolFree
 125              		.loc 1 83 0
 126 002c 039B     		ldr	r3, [sp, #12]
 127 002e 5B68     		ldr	r3, [r3, #4]
 128 0030 029A     		ldr	r2, [sp, #8]
 129 0032 D318     		adds	r3, r2, r3
 130 0034 0293     		str	r3, [sp, #8]
 131              		.loc 1 84 0
 132 0036 019B     		ldr	r3, [sp, #4]
 133 0038 03F1FF33 		add	r3, r3, #-1
 134 003c 0193     		str	r3, [sp, #4]
 135              	.L7:
 136              		.loc 1 81 0 discriminator 1
 137 003e 019B     		ldr	r3, [sp, #4]
 138 0040 002B     		cmp	r3, #0
 139 0042 EFD1     		bne	.L8
 140              		.loc 1 86 0
 141 0044 05B0     		add	sp, sp, #20
 142 0046 00BD     		pop	{pc}
 143              		.cfi_endproc
 144              	.LFE8:
 145              		.size	chPoolLoadArray, .-chPoolLoadArray
 146 0048 AFF30080 		.section	.rodata
 146      AFF30080 
 147              		.align	2
 148              	.LC2:
 149 0024 22636850 		.ascii	"\"chPoolAllocI\"()\000"
 149      6F6F6C41 
 149      6C6C6F63 
 149      49222829 
 149      00
 150              		.section	.text.chPoolAllocI,"ax",%progbits
 151              		.align	2
 152              		.p2align 4,,15
 153              		.global	chPoolAllocI
 154              		.thumb
 155              		.thumb_func
 156              		.type	chPoolAllocI, %function
 157              	chPoolAllocI:
 158              	.LFB9:
ARM GAS  /tmp/ccqGzjWh.s 			page 4


 159              		.loc 1 98 0
 160              		.cfi_startproc
 161              		@ args = 0, pretend = 0, frame = 16
 162              		@ frame_needed = 0, uses_anonymous_args = 0
 163 0000 00B5     		push	{lr}
 164              	.LCFI4:
 165              		.cfi_def_cfa_offset 4
 166              		.cfi_offset 14, -4
 167 0002 85B0     		sub	sp, sp, #20
 168              	.LCFI5:
 169              		.cfi_def_cfa_offset 24
 170 0004 0190     		str	r0, [sp, #4]
 171              		.loc 1 101 0
 172 0006 FFF7FEFF 		bl	chDbgCheckClassI
 173              		.loc 1 102 0
 174 000a 019B     		ldr	r3, [sp, #4]
 175 000c 002B     		cmp	r3, #0
 176 000e 05D1     		bne	.L10
 177              		.loc 1 102 0 is_stmt 0 discriminator 1
 178 0010 40F20000 		movw	r0, #:lower16:.LC2
 179 0014 C0F20000 		movt	r0, #:upper16:.LC2
 180 0018 FFF7FEFF 		bl	chDbgPanic
 181              	.L10:
 182              		.loc 1 104 0 is_stmt 1
 183 001c 019B     		ldr	r3, [sp, #4]
 184 001e 1B68     		ldr	r3, [r3, #0]
 185 0020 0393     		str	r3, [sp, #12]
 186 0022 039B     		ldr	r3, [sp, #12]
 187 0024 002B     		cmp	r3, #0
 188 0026 05D0     		beq	.L11
 189              		.loc 1 105 0
 190 0028 019B     		ldr	r3, [sp, #4]
 191 002a 1B68     		ldr	r3, [r3, #0]
 192 002c 1A68     		ldr	r2, [r3, #0]
 193 002e 019B     		ldr	r3, [sp, #4]
 194 0030 1A60     		str	r2, [r3, #0]
 195 0032 0AE0     		b	.L12
 196              	.L11:
 197              		.loc 1 106 0
 198 0034 019B     		ldr	r3, [sp, #4]
 199 0036 9B68     		ldr	r3, [r3, #8]
 200 0038 002B     		cmp	r3, #0
 201 003a 06D0     		beq	.L12
 202              		.loc 1 107 0
 203 003c 019B     		ldr	r3, [sp, #4]
 204 003e 9B68     		ldr	r3, [r3, #8]
 205 0040 019A     		ldr	r2, [sp, #4]
 206 0042 5268     		ldr	r2, [r2, #4]
 207 0044 1046     		mov	r0, r2
 208 0046 9847     		blx	r3
 209 0048 0390     		str	r0, [sp, #12]
 210              	.L12:
 211              		.loc 1 108 0
 212 004a 039B     		ldr	r3, [sp, #12]
 213              		.loc 1 109 0
 214 004c 1846     		mov	r0, r3
 215 004e 05B0     		add	sp, sp, #20
ARM GAS  /tmp/ccqGzjWh.s 			page 5


 216 0050 00BD     		pop	{pc}
 217              		.cfi_endproc
 218              	.LFE9:
 219              		.size	chPoolAllocI, .-chPoolAllocI
 220 0052 00BFAFF3 		.section	.text.chPoolAlloc,"ax",%progbits
 220      0080AFF3 
 220      0080AFF3 
 220      0080
 221              		.align	2
 222              		.p2align 4,,15
 223              		.global	chPoolAlloc
 224              		.thumb
 225              		.thumb_func
 226              		.type	chPoolAlloc, %function
 227              	chPoolAlloc:
 228              	.LFB10:
 229              		.loc 1 121 0
 230              		.cfi_startproc
 231              		@ args = 0, pretend = 0, frame = 16
 232              		@ frame_needed = 0, uses_anonymous_args = 0
 233 0000 00B5     		push	{lr}
 234              	.LCFI6:
 235              		.cfi_def_cfa_offset 4
 236              		.cfi_offset 14, -4
 237 0002 85B0     		sub	sp, sp, #20
 238              	.LCFI7:
 239              		.cfi_def_cfa_offset 24
 240 0004 0190     		str	r0, [sp, #4]
 241              	.LBB2:
 242              		.loc 1 124 0
 243 0006 4FF02003 		mov	r3, #32
 244              	@ 124 "../../os/kernel/src/chmempools.c" 1
 245 000a 83F31188 		msr     BASEPRI, r3
 246              	@ 0 "" 2
 247              		.thumb
 248              	.LBE2:
 249 000e FFF7FEFF 		bl	dbg_check_lock
 250              		.loc 1 125 0
 251 0012 0198     		ldr	r0, [sp, #4]
 252 0014 FFF7FEFF 		bl	chPoolAllocI
 253 0018 0390     		str	r0, [sp, #12]
 254              		.loc 1 126 0
 255 001a FFF7FEFF 		bl	dbg_check_unlock
 256              	.LBB3:
 257 001e 4FF00003 		mov	r3, #0
 258              	@ 126 "../../os/kernel/src/chmempools.c" 1
 259 0022 83F31188 		msr     BASEPRI, r3
 260              	@ 0 "" 2
 261              		.thumb
 262              	.LBE3:
 263              		.loc 1 127 0
 264 0026 039B     		ldr	r3, [sp, #12]
 265              		.loc 1 128 0
 266 0028 1846     		mov	r0, r3
 267 002a 05B0     		add	sp, sp, #20
 268 002c 00BD     		pop	{pc}
 269              		.cfi_endproc
ARM GAS  /tmp/ccqGzjWh.s 			page 6


 270              	.LFE10:
 271              		.size	chPoolAlloc, .-chPoolAlloc
 272 002e 00BF     		.section	.rodata
 273 0035 000000   		.align	2
 274              	.LC3:
 275 0038 22636850 		.ascii	"\"chPoolFreeI\"()\000"
 275      6F6F6C46 
 275      72656549 
 275      22282900 
 276              		.section	.text.chPoolFreeI,"ax",%progbits
 277              		.align	2
 278              		.p2align 4,,15
 279              		.global	chPoolFreeI
 280              		.thumb
 281              		.thumb_func
 282              		.type	chPoolFreeI, %function
 283              	chPoolFreeI:
 284              	.LFB11:
 285              		.loc 1 142 0
 286              		.cfi_startproc
 287              		@ args = 0, pretend = 0, frame = 16
 288              		@ frame_needed = 0, uses_anonymous_args = 0
 289 0000 00B5     		push	{lr}
 290              	.LCFI8:
 291              		.cfi_def_cfa_offset 4
 292              		.cfi_offset 14, -4
 293 0002 85B0     		sub	sp, sp, #20
 294              	.LCFI9:
 295              		.cfi_def_cfa_offset 24
 296 0004 0190     		str	r0, [sp, #4]
 297 0006 0091     		str	r1, [sp, #0]
 298              		.loc 1 143 0
 299 0008 009B     		ldr	r3, [sp, #0]
 300 000a 0393     		str	r3, [sp, #12]
 301              		.loc 1 145 0
 302 000c FFF7FEFF 		bl	chDbgCheckClassI
 303              		.loc 1 146 0
 304 0010 019B     		ldr	r3, [sp, #4]
 305 0012 002B     		cmp	r3, #0
 306 0014 02D0     		beq	.L17
 307              		.loc 1 146 0 is_stmt 0 discriminator 2
 308 0016 009B     		ldr	r3, [sp, #0]
 309 0018 002B     		cmp	r3, #0
 310 001a 05D1     		bne	.L18
 311              	.L17:
 312              		.loc 1 146 0 discriminator 1
 313 001c 40F20000 		movw	r0, #:lower16:.LC3
 314 0020 C0F20000 		movt	r0, #:upper16:.LC3
 315 0024 FFF7FEFF 		bl	chDbgPanic
 316              	.L18:
 317              		.loc 1 148 0 is_stmt 1
 318 0028 019B     		ldr	r3, [sp, #4]
 319 002a 1A68     		ldr	r2, [r3, #0]
 320 002c 039B     		ldr	r3, [sp, #12]
 321 002e 1A60     		str	r2, [r3, #0]
 322              		.loc 1 149 0
 323 0030 019B     		ldr	r3, [sp, #4]
ARM GAS  /tmp/ccqGzjWh.s 			page 7


 324 0032 039A     		ldr	r2, [sp, #12]
 325 0034 1A60     		str	r2, [r3, #0]
 326              		.loc 1 150 0
 327 0036 05B0     		add	sp, sp, #20
 328 0038 00BD     		pop	{pc}
 329              		.cfi_endproc
 330              	.LFE11:
 331              		.size	chPoolFreeI, .-chPoolFreeI
 332 003a 00BFAFF3 		.section	.text.chPoolFree,"ax",%progbits
 332      0080
 333              		.align	2
 334              		.p2align 4,,15
 335              		.global	chPoolFree
 336              		.thumb
 337              		.thumb_func
 338              		.type	chPoolFree, %function
 339              	chPoolFree:
 340              	.LFB12:
 341              		.loc 1 164 0
 342              		.cfi_startproc
 343              		@ args = 0, pretend = 0, frame = 8
 344              		@ frame_needed = 0, uses_anonymous_args = 0
 345 0000 00B5     		push	{lr}
 346              	.LCFI10:
 347              		.cfi_def_cfa_offset 4
 348              		.cfi_offset 14, -4
 349 0002 83B0     		sub	sp, sp, #12
 350              	.LCFI11:
 351              		.cfi_def_cfa_offset 16
 352 0004 0190     		str	r0, [sp, #4]
 353 0006 0091     		str	r1, [sp, #0]
 354              	.LBB4:
 355              		.loc 1 166 0
 356 0008 4FF02003 		mov	r3, #32
 357              	@ 166 "../../os/kernel/src/chmempools.c" 1
 358 000c 83F31188 		msr     BASEPRI, r3
 359              	@ 0 "" 2
 360              		.thumb
 361              	.LBE4:
 362 0010 FFF7FEFF 		bl	dbg_check_lock
 363              		.loc 1 167 0
 364 0014 0198     		ldr	r0, [sp, #4]
 365 0016 0099     		ldr	r1, [sp, #0]
 366 0018 FFF7FEFF 		bl	chPoolFreeI
 367              		.loc 1 168 0
 368 001c FFF7FEFF 		bl	dbg_check_unlock
 369              	.LBB5:
 370 0020 4FF00003 		mov	r3, #0
 371              	@ 168 "../../os/kernel/src/chmempools.c" 1
 372 0024 83F31188 		msr     BASEPRI, r3
 373              	@ 0 "" 2
 374              		.thumb
 375              	.LBE5:
 376              		.loc 1 169 0
 377 0028 03B0     		add	sp, sp, #12
 378 002a 00BD     		pop	{pc}
 379              		.cfi_endproc
ARM GAS  /tmp/ccqGzjWh.s 			page 8


 380              	.LFE12:
 381              		.size	chPoolFree, .-chPoolFree
 382 002c AFF30080 		.text
 383              	.Letext0:
 384              		.file 2 "/usr/bin/../lib/gcc/arm-none-eabi/4.7.4/include/stddef.h"
 385              		.file 3 "/usr/bin/../lib/gcc/arm-none-eabi/4.7.4/../../../../arm-none-eabi/include/stdint.h"
 386              		.file 4 "../../os/kernel/include/chmemcore.h"
 387              		.file 5 "../../os/kernel/include/chmempools.h"