ARM GAS  /tmp/cc4tvnNg.s 			page 1


   1              		.syntax unified
   2              		.cpu cortex-m4
   3              		.fpu softvfp
   4              		.eabi_attribute 20, 1
   5              		.eabi_attribute 21, 1
   6              		.eabi_attribute 23, 3
   7              		.eabi_attribute 24, 1
   8              		.eabi_attribute 25, 1
   9              		.eabi_attribute 26, 1
  10              		.eabi_attribute 30, 6
  11              		.eabi_attribute 34, 1
  12              		.eabi_attribute 18, 4
  13              		.thumb
  14              		.file	"chmtx.c"
  15              		.text
  16              	.Ltext0:
  17              		.cfi_sections	.debug_frame
  18              		.section	.text.prio_insert,"ax",%progbits
  19              		.align	2
  20              		.p2align 4,,15
  21              		.thumb
  22              		.thumb_func
  23              		.type	prio_insert, %function
  24              	prio_insert:
  25              	.LFB0:
  26              		.file 1 "../../os/kernel/include/chinline.h"
  27              		.loc 1 34 0
  28              		.cfi_startproc
  29              		@ args = 0, pretend = 0, frame = 16
  30              		@ frame_needed = 0, uses_anonymous_args = 0
  31              		@ link register save eliminated.
  32 0000 84B0     		sub	sp, sp, #16
  33              	.LCFI0:
  34              		.cfi_def_cfa_offset 16
  35 0002 0190     		str	r0, [sp, #4]
  36 0004 0091     		str	r1, [sp, #0]
  37              		.loc 1 36 0
  38 0006 009B     		ldr	r3, [sp, #0]
  39 0008 0393     		str	r3, [sp, #12]
  40              	.L3:
  41              		.loc 1 38 0 discriminator 1
  42 000a 039B     		ldr	r3, [sp, #12]
  43 000c 1B68     		ldr	r3, [r3, #0]
  44 000e 0393     		str	r3, [sp, #12]
  45              		.loc 1 39 0 discriminator 1
  46 0010 039A     		ldr	r2, [sp, #12]
  47 0012 009B     		ldr	r3, [sp, #0]
  48 0014 9A42     		cmp	r2, r3
  49 0016 05D0     		beq	.L2
  50 0018 039B     		ldr	r3, [sp, #12]
  51 001a 9A68     		ldr	r2, [r3, #8]
  52 001c 019B     		ldr	r3, [sp, #4]
  53 001e 9B68     		ldr	r3, [r3, #8]
  54 0020 9A42     		cmp	r2, r3
  55 0022 F2D2     		bcs	.L3
  56              	.L2:
  57              		.loc 1 40 0
ARM GAS  /tmp/cc4tvnNg.s 			page 2


  58 0024 019B     		ldr	r3, [sp, #4]
  59 0026 039A     		ldr	r2, [sp, #12]
  60 0028 1A60     		str	r2, [r3, #0]
  61              		.loc 1 41 0
  62 002a 039B     		ldr	r3, [sp, #12]
  63 002c 5A68     		ldr	r2, [r3, #4]
  64 002e 019B     		ldr	r3, [sp, #4]
  65 0030 5A60     		str	r2, [r3, #4]
  66              		.loc 1 42 0
  67 0032 019B     		ldr	r3, [sp, #4]
  68 0034 5B68     		ldr	r3, [r3, #4]
  69 0036 039A     		ldr	r2, [sp, #12]
  70 0038 0199     		ldr	r1, [sp, #4]
  71 003a 5160     		str	r1, [r2, #4]
  72 003c 039A     		ldr	r2, [sp, #12]
  73 003e 5268     		ldr	r2, [r2, #4]
  74 0040 1A60     		str	r2, [r3, #0]
  75              		.loc 1 43 0
  76 0042 04B0     		add	sp, sp, #16
  77 0044 7047     		bx	lr
  78              		.cfi_endproc
  79              	.LFE0:
  80              		.size	prio_insert, .-prio_insert
  81 0046 00BFAFF3 		.section	.text.fifo_remove,"ax",%progbits
  81      0080AFF3 
  81      0080
  82              		.align	2
  83              		.p2align 4,,15
  84              		.thumb
  85              		.thumb_func
  86              		.type	fifo_remove, %function
  87              	fifo_remove:
  88              	.LFB2:
  89              		.loc 1 52 0
  90              		.cfi_startproc
  91              		@ args = 0, pretend = 0, frame = 16
  92              		@ frame_needed = 0, uses_anonymous_args = 0
  93              		@ link register save eliminated.
  94 0000 84B0     		sub	sp, sp, #16
  95              	.LCFI1:
  96              		.cfi_def_cfa_offset 16
  97 0002 0190     		str	r0, [sp, #4]
  98              		.loc 1 53 0
  99 0004 019B     		ldr	r3, [sp, #4]
 100 0006 1B68     		ldr	r3, [r3, #0]
 101 0008 0393     		str	r3, [sp, #12]
 102              		.loc 1 55 0
 103 000a 039B     		ldr	r3, [sp, #12]
 104 000c 1A68     		ldr	r2, [r3, #0]
 105 000e 019B     		ldr	r3, [sp, #4]
 106 0010 1A60     		str	r2, [r3, #0]
 107 0012 019B     		ldr	r3, [sp, #4]
 108 0014 1B68     		ldr	r3, [r3, #0]
 109 0016 019A     		ldr	r2, [sp, #4]
 110 0018 5A60     		str	r2, [r3, #4]
 111              		.loc 1 56 0
 112 001a 039B     		ldr	r3, [sp, #12]
ARM GAS  /tmp/cc4tvnNg.s 			page 3


 113              		.loc 1 57 0
 114 001c 1846     		mov	r0, r3
 115 001e 04B0     		add	sp, sp, #16
 116 0020 7047     		bx	lr
 117              		.cfi_endproc
 118              	.LFE2:
 119              		.size	fifo_remove, .-fifo_remove
 120 0022 00BFAFF3 		.section	.text.dequeue,"ax",%progbits
 120      0080AFF3 
 120      0080AFF3 
 120      0080
 121              		.align	2
 122              		.p2align 4,,15
 123              		.thumb
 124              		.thumb_func
 125              		.type	dequeue, %function
 126              	dequeue:
 127              	.LFB4:
 128              		.loc 1 66 0
 129              		.cfi_startproc
 130              		@ args = 0, pretend = 0, frame = 8
 131              		@ frame_needed = 0, uses_anonymous_args = 0
 132              		@ link register save eliminated.
 133 0000 82B0     		sub	sp, sp, #8
 134              	.LCFI2:
 135              		.cfi_def_cfa_offset 8
 136 0002 0190     		str	r0, [sp, #4]
 137              		.loc 1 68 0
 138 0004 019B     		ldr	r3, [sp, #4]
 139 0006 5B68     		ldr	r3, [r3, #4]
 140 0008 019A     		ldr	r2, [sp, #4]
 141 000a 1268     		ldr	r2, [r2, #0]
 142 000c 1A60     		str	r2, [r3, #0]
 143              		.loc 1 69 0
 144 000e 019B     		ldr	r3, [sp, #4]
 145 0010 1B68     		ldr	r3, [r3, #0]
 146 0012 019A     		ldr	r2, [sp, #4]
 147 0014 5268     		ldr	r2, [r2, #4]
 148 0016 5A60     		str	r2, [r3, #4]
 149              		.loc 1 70 0
 150 0018 019B     		ldr	r3, [sp, #4]
 151              		.loc 1 71 0
 152 001a 1846     		mov	r0, r3
 153 001c 02B0     		add	sp, sp, #8
 154 001e 7047     		bx	lr
 155              		.cfi_endproc
 156              	.LFE4:
 157              		.size	dequeue, .-dequeue
 158              		.section	.rodata
 159              		.align	2
 160              	.LC0:
 161 0000 2263684D 		.ascii	"\"chMtxInit\"()\000"
 161      7478496E 
 161      69742228 
 161      2900
 162              		.section	.text.chMtxInit,"ax",%progbits
 163              		.align	2
ARM GAS  /tmp/cc4tvnNg.s 			page 4


 164              		.p2align 4,,15
 165              		.global	chMtxInit
 166              		.thumb
 167              		.thumb_func
 168              		.type	chMtxInit, %function
 169              	chMtxInit:
 170              	.LFB7:
 171              		.file 2 "../../os/kernel/src/chmtx.c"
 172              		.loc 2 79 0
 173              		.cfi_startproc
 174              		@ args = 0, pretend = 0, frame = 8
 175              		@ frame_needed = 0, uses_anonymous_args = 0
 176 0000 00B5     		push	{lr}
 177              	.LCFI3:
 178              		.cfi_def_cfa_offset 4
 179              		.cfi_offset 14, -4
 180 0002 83B0     		sub	sp, sp, #12
 181              	.LCFI4:
 182              		.cfi_def_cfa_offset 16
 183 0004 0190     		str	r0, [sp, #4]
 184              		.loc 2 81 0
 185 0006 019B     		ldr	r3, [sp, #4]
 186 0008 002B     		cmp	r3, #0
 187 000a 05D1     		bne	.L9
 188              		.loc 2 81 0 is_stmt 0 discriminator 1
 189 000c 40F20000 		movw	r0, #:lower16:.LC0
 190 0010 C0F20000 		movt	r0, #:upper16:.LC0
 191 0014 FFF7FEFF 		bl	chDbgPanic
 192              	.L9:
 193              		.loc 2 83 0 is_stmt 1
 194 0018 019A     		ldr	r2, [sp, #4]
 195 001a 019B     		ldr	r3, [sp, #4]
 196 001c 5A60     		str	r2, [r3, #4]
 197 001e 019B     		ldr	r3, [sp, #4]
 198 0020 5A68     		ldr	r2, [r3, #4]
 199 0022 019B     		ldr	r3, [sp, #4]
 200 0024 1A60     		str	r2, [r3, #0]
 201              		.loc 2 84 0
 202 0026 019B     		ldr	r3, [sp, #4]
 203 0028 4FF00002 		mov	r2, #0
 204 002c 9A60     		str	r2, [r3, #8]
 205              		.loc 2 85 0
 206 002e 03B0     		add	sp, sp, #12
 207 0030 00BD     		pop	{pc}
 208              		.cfi_endproc
 209              	.LFE7:
 210              		.size	chMtxInit, .-chMtxInit
 211 0032 00BFAFF3 		.section	.text.chMtxLock,"ax",%progbits
 211      0080AFF3 
 211      0080AFF3 
 211      0080
 212              		.align	2
 213              		.p2align 4,,15
 214              		.global	chMtxLock
 215              		.thumb
 216              		.thumb_func
 217              		.type	chMtxLock, %function
ARM GAS  /tmp/cc4tvnNg.s 			page 5


 218              	chMtxLock:
 219              	.LFB8:
 220              		.loc 2 96 0
 221              		.cfi_startproc
 222              		@ args = 0, pretend = 0, frame = 8
 223              		@ frame_needed = 0, uses_anonymous_args = 0
 224 0000 00B5     		push	{lr}
 225              	.LCFI5:
 226              		.cfi_def_cfa_offset 4
 227              		.cfi_offset 14, -4
 228 0002 83B0     		sub	sp, sp, #12
 229              	.LCFI6:
 230              		.cfi_def_cfa_offset 16
 231 0004 0190     		str	r0, [sp, #4]
 232              	.LBB2:
 233              		.loc 2 98 0
 234 0006 4FF02003 		mov	r3, #32
 235              	@ 98 "../../os/kernel/src/chmtx.c" 1
 236 000a 83F31188 		msr     BASEPRI, r3
 237              	@ 0 "" 2
 238              		.thumb
 239              	.LBE2:
 240 000e FFF7FEFF 		bl	dbg_check_lock
 241              		.loc 2 100 0
 242 0012 0198     		ldr	r0, [sp, #4]
 243 0014 FFF7FEFF 		bl	chMtxLockS
 244              		.loc 2 102 0
 245 0018 FFF7FEFF 		bl	dbg_check_unlock
 246              	.LBB3:
 247 001c 4FF00003 		mov	r3, #0
 248              	@ 102 "../../os/kernel/src/chmtx.c" 1
 249 0020 83F31188 		msr     BASEPRI, r3
 250              	@ 0 "" 2
 251              		.thumb
 252              	.LBE3:
 253              		.loc 2 103 0
 254 0024 03B0     		add	sp, sp, #12
 255 0026 00BD     		pop	{pc}
 256              		.cfi_endproc
 257              	.LFE8:
 258              		.size	chMtxLock, .-chMtxLock
 259 0028 AFF30080 		.section	.rodata
 259      AFF30080 
 260 000e 0000     		.align	2
 261              	.LC1:
 262 0010 2263684D 		.ascii	"\"chMtxLockS\"()\000"
 262      74784C6F 
 262      636B5322 
 262      282900
 263 001f 00       		.align	2
 264              	.LC2:
 265 0020 63684D74 		.ascii	"chMtxLockS(), #1\000"
 265      784C6F63 
 265      6B532829 
 265      2C202331 
 265      00
 266 0031 000000   		.align	2
ARM GAS  /tmp/cc4tvnNg.s 			page 6


 267              	.LC3:
 268 0034 63684D74 		.ascii	"chMtxLockS(), #2\000"
 268      784C6F63 
 268      6B532829 
 268      2C202332 
 268      00
 269              		.section	.text.chMtxLockS,"ax",%progbits
 270              		.align	2
 271              		.p2align 4,,15
 272              		.global	chMtxLockS
 273              		.thumb
 274              		.thumb_func
 275              		.type	chMtxLockS, %function
 276              	chMtxLockS:
 277              	.LFB9:
 278              		.loc 2 114 0
 279              		.cfi_startproc
 280              		@ args = 0, pretend = 0, frame = 16
 281              		@ frame_needed = 0, uses_anonymous_args = 0
 282 0000 00B5     		push	{lr}
 283              	.LCFI7:
 284              		.cfi_def_cfa_offset 4
 285              		.cfi_offset 14, -4
 286 0002 85B0     		sub	sp, sp, #20
 287              	.LCFI8:
 288              		.cfi_def_cfa_offset 24
 289 0004 0190     		str	r0, [sp, #4]
 290              		.loc 2 115 0
 291 0006 40F20003 		movw	r3, #:lower16:rlist
 292 000a C0F20003 		movt	r3, #:upper16:rlist
 293 000e 9B69     		ldr	r3, [r3, #24]
 294 0010 0293     		str	r3, [sp, #8]
 295              		.loc 2 117 0
 296 0012 FFF7FEFF 		bl	chDbgCheckClassS
 297              		.loc 2 118 0
 298 0016 019B     		ldr	r3, [sp, #4]
 299 0018 002B     		cmp	r3, #0
 300 001a 05D1     		bne	.L12
 301              		.loc 2 118 0 is_stmt 0 discriminator 1
 302 001c 40F20000 		movw	r0, #:lower16:.LC1
 303 0020 C0F20000 		movt	r0, #:upper16:.LC1
 304 0024 FFF7FEFF 		bl	chDbgPanic
 305              	.L12:
 306              		.loc 2 121 0 is_stmt 1
 307 0028 019B     		ldr	r3, [sp, #4]
 308 002a 9B68     		ldr	r3, [r3, #8]
 309 002c 002B     		cmp	r3, #0
 310 002e 62D0     		beq	.L13
 311              	.LBB4:
 312              		.loc 2 125 0
 313 0030 019B     		ldr	r3, [sp, #4]
 314 0032 9B68     		ldr	r3, [r3, #8]
 315 0034 0393     		str	r3, [sp, #12]
 316              		.loc 2 128 0
 317 0036 35E0     		b	.L14
 318              	.L20:
 319              		.loc 2 130 0
ARM GAS  /tmp/cc4tvnNg.s 			page 7


 320 0038 029B     		ldr	r3, [sp, #8]
 321 003a 9A68     		ldr	r2, [r3, #8]
 322 003c 039B     		ldr	r3, [sp, #12]
 323 003e 9A60     		str	r2, [r3, #8]
 324              		.loc 2 132 0
 325 0040 039B     		ldr	r3, [sp, #12]
 326 0042 93F82030 		ldrb	r3, [r3, #32]	@ zero_extendqisi2
 327 0046 042B     		cmp	r3, #4
 328 0048 04D0     		beq	.L17
 329 004a 052B     		cmp	r3, #5
 330 004c 11D0     		beq	.L18
 331 004e 002B     		cmp	r3, #0
 332 0050 1AD0     		beq	.L16
 333 0052 26E0     		b	.L15
 334              	.L17:
 335              		.loc 2 135 0
 336 0054 0398     		ldr	r0, [sp, #12]
 337 0056 FFF7FEFF 		bl	dequeue
 338 005a 0246     		mov	r2, r0
 339 005c 039B     		ldr	r3, [sp, #12]
 340 005e 9B6A     		ldr	r3, [r3, #40]
 341 0060 1046     		mov	r0, r2
 342 0062 1946     		mov	r1, r3
 343 0064 FFF7FEFF 		bl	prio_insert
 344              		.loc 2 136 0
 345 0068 039B     		ldr	r3, [sp, #12]
 346 006a 9B6A     		ldr	r3, [r3, #40]
 347 006c 9B68     		ldr	r3, [r3, #8]
 348 006e 0393     		str	r3, [sp, #12]
 349              		.loc 2 137 0
 350 0070 18E0     		b	.L14
 351              	.L18:
 352              		.loc 2 151 0
 353 0072 0398     		ldr	r0, [sp, #12]
 354 0074 FFF7FEFF 		bl	dequeue
 355 0078 0246     		mov	r2, r0
 356 007a 039B     		ldr	r3, [sp, #12]
 357 007c 9B6A     		ldr	r3, [r3, #40]
 358 007e 1046     		mov	r0, r2
 359 0080 1946     		mov	r1, r3
 360 0082 FFF7FEFF 		bl	prio_insert
 361              		.loc 2 152 0
 362 0086 0CE0     		b	.L15
 363              	.L16:
 364              		.loc 2 157 0
 365 0088 039B     		ldr	r3, [sp, #12]
 366 008a 4FF00102 		mov	r2, #1
 367 008e 83F82020 		strb	r2, [r3, #32]
 368              		.loc 2 160 0
 369 0092 0398     		ldr	r0, [sp, #12]
 370 0094 FFF7FEFF 		bl	dequeue
 371 0098 0346     		mov	r3, r0
 372 009a 1846     		mov	r0, r3
 373 009c FFF7FEFF 		bl	chSchReadyI
 374              		.loc 2 161 0
 375 00a0 00BF     		nop
 376              	.L15:
ARM GAS  /tmp/cc4tvnNg.s 			page 8


 377              		.loc 2 163 0
 378 00a2 05E0     		b	.L19
 379              	.L14:
 380              		.loc 2 128 0 discriminator 1
 381 00a4 039B     		ldr	r3, [sp, #12]
 382 00a6 9A68     		ldr	r2, [r3, #8]
 383 00a8 029B     		ldr	r3, [sp, #8]
 384 00aa 9B68     		ldr	r3, [r3, #8]
 385 00ac 9A42     		cmp	r2, r3
 386 00ae C3D3     		bcc	.L20
 387              	.L19:
 388              		.loc 2 166 0
 389 00b0 019B     		ldr	r3, [sp, #4]
 390 00b2 0298     		ldr	r0, [sp, #8]
 391 00b4 1946     		mov	r1, r3
 392 00b6 FFF7FEFF 		bl	prio_insert
 393              		.loc 2 167 0
 394 00ba 029B     		ldr	r3, [sp, #8]
 395 00bc 019A     		ldr	r2, [sp, #4]
 396 00be 9A62     		str	r2, [r3, #40]
 397              		.loc 2 168 0
 398 00c0 4FF00400 		mov	r0, #4
 399 00c4 FFF7FEFF 		bl	chSchGoSleepS
 400              		.loc 2 171 0
 401 00c8 019B     		ldr	r3, [sp, #4]
 402 00ca 9A68     		ldr	r2, [r3, #8]
 403 00cc 029B     		ldr	r3, [sp, #8]
 404 00ce 9A42     		cmp	r2, r3
 405 00d0 05D0     		beq	.L21
 406              		.loc 2 171 0 is_stmt 0 discriminator 1
 407 00d2 40F20000 		movw	r0, #:lower16:.LC2
 408 00d6 C0F20000 		movt	r0, #:upper16:.LC2
 409 00da FFF7FEFF 		bl	chDbgPanic
 410              	.L21:
 411              		.loc 2 172 0 is_stmt 1
 412 00de 029B     		ldr	r3, [sp, #8]
 413 00e0 1A6C     		ldr	r2, [r3, #64]
 414 00e2 019B     		ldr	r3, [sp, #4]
 415 00e4 9A42     		cmp	r2, r3
 416 00e6 10D0     		beq	.L11
 417              		.loc 2 172 0 is_stmt 0 discriminator 1
 418 00e8 40F20000 		movw	r0, #:lower16:.LC3
 419 00ec C0F20000 		movt	r0, #:upper16:.LC3
 420 00f0 FFF7FEFF 		bl	chDbgPanic
 421 00f4 09E0     		b	.L11
 422              	.L13:
 423              	.LBE4:
 424              		.loc 2 176 0 is_stmt 1
 425 00f6 019B     		ldr	r3, [sp, #4]
 426 00f8 029A     		ldr	r2, [sp, #8]
 427 00fa 9A60     		str	r2, [r3, #8]
 428              		.loc 2 177 0
 429 00fc 029B     		ldr	r3, [sp, #8]
 430 00fe 1A6C     		ldr	r2, [r3, #64]
 431 0100 019B     		ldr	r3, [sp, #4]
 432 0102 DA60     		str	r2, [r3, #12]
 433              		.loc 2 178 0
ARM GAS  /tmp/cc4tvnNg.s 			page 9


 434 0104 029B     		ldr	r3, [sp, #8]
 435 0106 019A     		ldr	r2, [sp, #4]
 436 0108 1A64     		str	r2, [r3, #64]
 437              	.L11:
 438              		.loc 2 180 0
 439 010a 05B0     		add	sp, sp, #20
 440 010c 00BD     		pop	{pc}
 441              		.cfi_endproc
 442              	.LFE9:
 443              		.size	chMtxLockS, .-chMtxLockS
 444 010e 00BF     		.section	.text.chMtxTryLock,"ax",%progbits
 445              		.align	2
 446              		.p2align 4,,15
 447              		.global	chMtxTryLock
 448              		.thumb
 449              		.thumb_func
 450              		.type	chMtxTryLock, %function
 451              	chMtxTryLock:
 452              	.LFB10:
 453              		.loc 2 199 0
 454              		.cfi_startproc
 455              		@ args = 0, pretend = 0, frame = 16
 456              		@ frame_needed = 0, uses_anonymous_args = 0
 457 0000 00B5     		push	{lr}
 458              	.LCFI9:
 459              		.cfi_def_cfa_offset 4
 460              		.cfi_offset 14, -4
 461 0002 85B0     		sub	sp, sp, #20
 462              	.LCFI10:
 463              		.cfi_def_cfa_offset 24
 464 0004 0190     		str	r0, [sp, #4]
 465              	.LBB5:
 466              		.loc 2 202 0
 467 0006 4FF02003 		mov	r3, #32
 468              	@ 202 "../../os/kernel/src/chmtx.c" 1
 469 000a 83F31188 		msr     BASEPRI, r3
 470              	@ 0 "" 2
 471              		.thumb
 472              	.LBE5:
 473 000e FFF7FEFF 		bl	dbg_check_lock
 474              		.loc 2 204 0
 475 0012 0198     		ldr	r0, [sp, #4]
 476 0014 FFF7FEFF 		bl	chMtxTryLockS
 477 0018 0346     		mov	r3, r0
 478 001a 8DF80F30 		strb	r3, [sp, #15]
 479              		.loc 2 206 0
 480 001e FFF7FEFF 		bl	dbg_check_unlock
 481              	.LBB6:
 482 0022 4FF00003 		mov	r3, #0
 483              	@ 206 "../../os/kernel/src/chmtx.c" 1
 484 0026 83F31188 		msr     BASEPRI, r3
 485              	@ 0 "" 2
 486              		.thumb
 487              	.LBE6:
 488              		.loc 2 207 0
 489 002a 9DF80F30 		ldrb	r3, [sp, #15]	@ zero_extendqisi2
 490              		.loc 2 208 0
ARM GAS  /tmp/cc4tvnNg.s 			page 10


 491 002e 1846     		mov	r0, r3
 492 0030 05B0     		add	sp, sp, #20
 493 0032 00BD     		pop	{pc}
 494              		.cfi_endproc
 495              	.LFE10:
 496              		.size	chMtxTryLock, .-chMtxTryLock
 497 0034 AFF30080 		.section	.rodata
 497      AFF30080 
 497      AFF30080 
 498 0045 000000   		.align	2
 499              	.LC4:
 500 0048 2263684D 		.ascii	"\"chMtxTryLockS\"()\000"
 500      74785472 
 500      794C6F63 
 500      6B532228 
 500      2900
 501              		.section	.text.chMtxTryLockS,"ax",%progbits
 502              		.align	2
 503              		.p2align 4,,15
 504              		.global	chMtxTryLockS
 505              		.thumb
 506              		.thumb_func
 507              		.type	chMtxTryLockS, %function
 508              	chMtxTryLockS:
 509              	.LFB11:
 510              		.loc 2 227 0
 511              		.cfi_startproc
 512              		@ args = 0, pretend = 0, frame = 8
 513              		@ frame_needed = 0, uses_anonymous_args = 0
 514 0000 00B5     		push	{lr}
 515              	.LCFI11:
 516              		.cfi_def_cfa_offset 4
 517              		.cfi_offset 14, -4
 518 0002 83B0     		sub	sp, sp, #12
 519              	.LCFI12:
 520              		.cfi_def_cfa_offset 16
 521 0004 0190     		str	r0, [sp, #4]
 522              		.loc 2 229 0
 523 0006 FFF7FEFF 		bl	chDbgCheckClassS
 524              		.loc 2 230 0
 525 000a 019B     		ldr	r3, [sp, #4]
 526 000c 002B     		cmp	r3, #0
 527 000e 05D1     		bne	.L26
 528              		.loc 2 230 0 is_stmt 0 discriminator 1
 529 0010 40F20000 		movw	r0, #:lower16:.LC4
 530 0014 C0F20000 		movt	r0, #:upper16:.LC4
 531 0018 FFF7FEFF 		bl	chDbgPanic
 532              	.L26:
 533              		.loc 2 232 0 is_stmt 1
 534 001c 019B     		ldr	r3, [sp, #4]
 535 001e 9B68     		ldr	r3, [r3, #8]
 536 0020 002B     		cmp	r3, #0
 537 0022 02D0     		beq	.L27
 538              		.loc 2 233 0
 539 0024 4FF00003 		mov	r3, #0
 540 0028 17E0     		b	.L28
 541              	.L27:
ARM GAS  /tmp/cc4tvnNg.s 			page 11


 542              		.loc 2 234 0
 543 002a 40F20003 		movw	r3, #:lower16:rlist
 544 002e C0F20003 		movt	r3, #:upper16:rlist
 545 0032 9A69     		ldr	r2, [r3, #24]
 546 0034 019B     		ldr	r3, [sp, #4]
 547 0036 9A60     		str	r2, [r3, #8]
 548              		.loc 2 235 0
 549 0038 40F20003 		movw	r3, #:lower16:rlist
 550 003c C0F20003 		movt	r3, #:upper16:rlist
 551 0040 9B69     		ldr	r3, [r3, #24]
 552 0042 1A6C     		ldr	r2, [r3, #64]
 553 0044 019B     		ldr	r3, [sp, #4]
 554 0046 DA60     		str	r2, [r3, #12]
 555              		.loc 2 236 0
 556 0048 40F20003 		movw	r3, #:lower16:rlist
 557 004c C0F20003 		movt	r3, #:upper16:rlist
 558 0050 9B69     		ldr	r3, [r3, #24]
 559 0052 019A     		ldr	r2, [sp, #4]
 560 0054 1A64     		str	r2, [r3, #64]
 561              		.loc 2 237 0
 562 0056 4FF00103 		mov	r3, #1
 563              	.L28:
 564              		.loc 2 238 0
 565 005a 1846     		mov	r0, r3
 566 005c 03B0     		add	sp, sp, #12
 567 005e 00BD     		pop	{pc}
 568              		.cfi_endproc
 569              	.LFE11:
 570              		.size	chMtxTryLockS, .-chMtxTryLockS
 571              		.section	.rodata
 572 005a 0000     		.align	2
 573              	.LC5:
 574 005c 63684D74 		.ascii	"chMtxUnlock(), #1\000"
 574      78556E6C 
 574      6F636B28 
 574      292C2023 
 574      3100
 575 006e 0000     		.align	2
 576              	.LC6:
 577 0070 63684D74 		.ascii	"chMtxUnlock(), #2\000"
 577      78556E6C 
 577      6F636B28 
 577      292C2023 
 577      3200
 578              		.section	.text.chMtxUnlock,"ax",%progbits
 579              		.align	2
 580              		.p2align 4,,15
 581              		.global	chMtxUnlock
 582              		.thumb
 583              		.thumb_func
 584              		.type	chMtxUnlock, %function
 585              	chMtxUnlock:
 586              	.LFB12:
 587              		.loc 2 250 0
 588              		.cfi_startproc
 589              		@ args = 0, pretend = 0, frame = 24
 590              		@ frame_needed = 0, uses_anonymous_args = 0
ARM GAS  /tmp/cc4tvnNg.s 			page 12


 591 0000 00B5     		push	{lr}
 592              	.LCFI13:
 593              		.cfi_def_cfa_offset 4
 594              		.cfi_offset 14, -4
 595 0002 87B0     		sub	sp, sp, #28
 596              	.LCFI14:
 597              		.cfi_def_cfa_offset 32
 598              		.loc 2 251 0
 599 0004 40F20003 		movw	r3, #:lower16:rlist
 600 0008 C0F20003 		movt	r3, #:upper16:rlist
 601 000c 9B69     		ldr	r3, [r3, #24]
 602 000e 0393     		str	r3, [sp, #12]
 603              	.LBB7:
 604              		.loc 2 254 0
 605 0010 4FF02003 		mov	r3, #32
 606              	@ 254 "../../os/kernel/src/chmtx.c" 1
 607 0014 83F31188 		msr     BASEPRI, r3
 608              	@ 0 "" 2
 609              		.thumb
 610              	.LBE7:
 611 0018 FFF7FEFF 		bl	dbg_check_lock
 612              		.loc 2 255 0
 613 001c 039B     		ldr	r3, [sp, #12]
 614 001e 1B6C     		ldr	r3, [r3, #64]
 615 0020 002B     		cmp	r3, #0
 616 0022 05D1     		bne	.L30
 617              		.loc 2 255 0 is_stmt 0 discriminator 1
 618 0024 40F20000 		movw	r0, #:lower16:.LC5
 619 0028 C0F20000 		movt	r0, #:upper16:.LC5
 620 002c FFF7FEFF 		bl	chDbgPanic
 621              	.L30:
 622              		.loc 2 258 0 is_stmt 1
 623 0030 039B     		ldr	r3, [sp, #12]
 624 0032 1B6C     		ldr	r3, [r3, #64]
 625 0034 9A68     		ldr	r2, [r3, #8]
 626 0036 039B     		ldr	r3, [sp, #12]
 627 0038 9A42     		cmp	r2, r3
 628 003a 05D0     		beq	.L31
 629              		.loc 2 258 0 is_stmt 0 discriminator 1
 630 003c 40F20000 		movw	r0, #:lower16:.LC6
 631 0040 C0F20000 		movt	r0, #:upper16:.LC6
 632 0044 FFF7FEFF 		bl	chDbgPanic
 633              	.L31:
 634              		.loc 2 263 0 is_stmt 1
 635 0048 039B     		ldr	r3, [sp, #12]
 636 004a 1B6C     		ldr	r3, [r3, #64]
 637 004c 0293     		str	r3, [sp, #8]
 638              		.loc 2 264 0
 639 004e 029B     		ldr	r3, [sp, #8]
 640 0050 DA68     		ldr	r2, [r3, #12]
 641 0052 039B     		ldr	r3, [sp, #12]
 642 0054 1A64     		str	r2, [r3, #64]
 643              		.loc 2 266 0
 644 0056 029B     		ldr	r3, [sp, #8]
 645 0058 1A68     		ldr	r2, [r3, #0]
 646 005a 029B     		ldr	r3, [sp, #8]
 647 005c 9A42     		cmp	r2, r3
ARM GAS  /tmp/cc4tvnNg.s 			page 13


 648 005e 33D0     		beq	.L32
 649              	.LBB8:
 650              		.loc 2 271 0
 651 0060 039B     		ldr	r3, [sp, #12]
 652 0062 5B6C     		ldr	r3, [r3, #68]
 653 0064 0493     		str	r3, [sp, #16]
 654              		.loc 2 272 0
 655 0066 039B     		ldr	r3, [sp, #12]
 656 0068 1B6C     		ldr	r3, [r3, #64]
 657 006a 0593     		str	r3, [sp, #20]
 658              		.loc 2 273 0
 659 006c 11E0     		b	.L33
 660              	.L35:
 661              		.loc 2 277 0
 662 006e 059B     		ldr	r3, [sp, #20]
 663 0070 1A68     		ldr	r2, [r3, #0]
 664 0072 059B     		ldr	r3, [sp, #20]
 665 0074 9A42     		cmp	r2, r3
 666 0076 09D0     		beq	.L34
 667              		.loc 2 277 0 is_stmt 0 discriminator 1
 668 0078 059B     		ldr	r3, [sp, #20]
 669 007a 1B68     		ldr	r3, [r3, #0]
 670 007c 9A68     		ldr	r2, [r3, #8]
 671 007e 049B     		ldr	r3, [sp, #16]
 672 0080 9A42     		cmp	r2, r3
 673 0082 03D9     		bls	.L34
 674              		.loc 2 278 0 is_stmt 1
 675 0084 059B     		ldr	r3, [sp, #20]
 676 0086 1B68     		ldr	r3, [r3, #0]
 677 0088 9B68     		ldr	r3, [r3, #8]
 678 008a 0493     		str	r3, [sp, #16]
 679              	.L34:
 680              		.loc 2 279 0
 681 008c 059B     		ldr	r3, [sp, #20]
 682 008e DB68     		ldr	r3, [r3, #12]
 683 0090 0593     		str	r3, [sp, #20]
 684              	.L33:
 685              		.loc 2 273 0 discriminator 1
 686 0092 059B     		ldr	r3, [sp, #20]
 687 0094 002B     		cmp	r3, #0
 688 0096 EAD1     		bne	.L35
 689              		.loc 2 283 0
 690 0098 039B     		ldr	r3, [sp, #12]
 691 009a 049A     		ldr	r2, [sp, #16]
 692 009c 9A60     		str	r2, [r3, #8]
 693              		.loc 2 286 0
 694 009e 029B     		ldr	r3, [sp, #8]
 695 00a0 1846     		mov	r0, r3
 696 00a2 FFF7FEFF 		bl	fifo_remove
 697 00a6 0190     		str	r0, [sp, #4]
 698              		.loc 2 287 0
 699 00a8 029B     		ldr	r3, [sp, #8]
 700 00aa 019A     		ldr	r2, [sp, #4]
 701 00ac 9A60     		str	r2, [r3, #8]
 702              		.loc 2 288 0
 703 00ae 019B     		ldr	r3, [sp, #4]
 704 00b0 1A6C     		ldr	r2, [r3, #64]
ARM GAS  /tmp/cc4tvnNg.s 			page 14


 705 00b2 029B     		ldr	r3, [sp, #8]
 706 00b4 DA60     		str	r2, [r3, #12]
 707              		.loc 2 289 0
 708 00b6 019B     		ldr	r3, [sp, #4]
 709 00b8 029A     		ldr	r2, [sp, #8]
 710 00ba 1A64     		str	r2, [r3, #64]
 711              		.loc 2 290 0
 712 00bc 0198     		ldr	r0, [sp, #4]
 713 00be 4FF00001 		mov	r1, #0
 714 00c2 FFF7FEFF 		bl	chSchWakeupS
 715 00c6 03E0     		b	.L36
 716              	.L32:
 717              	.LBE8:
 718              		.loc 2 293 0
 719 00c8 029B     		ldr	r3, [sp, #8]
 720 00ca 4FF00002 		mov	r2, #0
 721 00ce 9A60     		str	r2, [r3, #8]
 722              	.L36:
 723              		.loc 2 294 0
 724 00d0 FFF7FEFF 		bl	dbg_check_unlock
 725              	.LBB9:
 726 00d4 4FF00003 		mov	r3, #0
 727              	@ 294 "../../os/kernel/src/chmtx.c" 1
 728 00d8 83F31188 		msr     BASEPRI, r3
 729              	@ 0 "" 2
 730              		.thumb
 731              	.LBE9:
 732              		.loc 2 295 0
 733 00dc 029B     		ldr	r3, [sp, #8]
 734              		.loc 2 296 0
 735 00de 1846     		mov	r0, r3
 736 00e0 07B0     		add	sp, sp, #28
 737 00e2 00BD     		pop	{pc}
 738              		.cfi_endproc
 739              	.LFE12:
 740              		.size	chMtxUnlock, .-chMtxUnlock
 741 00e4 AFF30080 		.section	.rodata
 741      AFF30080 
 741      AFF30080 
 742 0082 0000     		.align	2
 743              	.LC7:
 744 0084 63684D74 		.ascii	"chMtxUnlockS(), #1\000"
 744      78556E6C 
 744      6F636B53 
 744      28292C20 
 744      233100
 745 0097 00       		.align	2
 746              	.LC8:
 747 0098 63684D74 		.ascii	"chMtxUnlockS(), #2\000"
 747      78556E6C 
 747      6F636B53 
 747      28292C20 
 747      233200
 748 00ab 00       		.section	.text.chMtxUnlockS,"ax",%progbits
 749              		.align	2
 750              		.p2align 4,,15
 751              		.global	chMtxUnlockS
ARM GAS  /tmp/cc4tvnNg.s 			page 15


 752              		.thumb
 753              		.thumb_func
 754              		.type	chMtxUnlockS, %function
 755              	chMtxUnlockS:
 756              	.LFB13:
 757              		.loc 2 310 0
 758              		.cfi_startproc
 759              		@ args = 0, pretend = 0, frame = 24
 760              		@ frame_needed = 0, uses_anonymous_args = 0
 761 0000 00B5     		push	{lr}
 762              	.LCFI15:
 763              		.cfi_def_cfa_offset 4
 764              		.cfi_offset 14, -4
 765 0002 87B0     		sub	sp, sp, #28
 766              	.LCFI16:
 767              		.cfi_def_cfa_offset 32
 768              		.loc 2 311 0
 769 0004 40F20003 		movw	r3, #:lower16:rlist
 770 0008 C0F20003 		movt	r3, #:upper16:rlist
 771 000c 9B69     		ldr	r3, [r3, #24]
 772 000e 0393     		str	r3, [sp, #12]
 773              		.loc 2 314 0
 774 0010 FFF7FEFF 		bl	chDbgCheckClassS
 775              		.loc 2 315 0
 776 0014 039B     		ldr	r3, [sp, #12]
 777 0016 1B6C     		ldr	r3, [r3, #64]
 778 0018 002B     		cmp	r3, #0
 779 001a 05D1     		bne	.L39
 780              		.loc 2 315 0 is_stmt 0 discriminator 1
 781 001c 40F20000 		movw	r0, #:lower16:.LC7
 782 0020 C0F20000 		movt	r0, #:upper16:.LC7
 783 0024 FFF7FEFF 		bl	chDbgPanic
 784              	.L39:
 785              		.loc 2 318 0 is_stmt 1
 786 0028 039B     		ldr	r3, [sp, #12]
 787 002a 1B6C     		ldr	r3, [r3, #64]
 788 002c 9A68     		ldr	r2, [r3, #8]
 789 002e 039B     		ldr	r3, [sp, #12]
 790 0030 9A42     		cmp	r2, r3
 791 0032 05D0     		beq	.L40
 792              		.loc 2 318 0 is_stmt 0 discriminator 1
 793 0034 40F20000 		movw	r0, #:lower16:.LC8
 794 0038 C0F20000 		movt	r0, #:upper16:.LC8
 795 003c FFF7FEFF 		bl	chDbgPanic
 796              	.L40:
 797              		.loc 2 324 0 is_stmt 1
 798 0040 039B     		ldr	r3, [sp, #12]
 799 0042 1B6C     		ldr	r3, [r3, #64]
 800 0044 0293     		str	r3, [sp, #8]
 801              		.loc 2 325 0
 802 0046 029B     		ldr	r3, [sp, #8]
 803 0048 DA68     		ldr	r2, [r3, #12]
 804 004a 039B     		ldr	r3, [sp, #12]
 805 004c 1A64     		str	r2, [r3, #64]
 806              		.loc 2 327 0
 807 004e 029B     		ldr	r3, [sp, #8]
 808 0050 1A68     		ldr	r2, [r3, #0]
ARM GAS  /tmp/cc4tvnNg.s 			page 16


 809 0052 029B     		ldr	r3, [sp, #8]
 810 0054 9A42     		cmp	r2, r3
 811 0056 31D0     		beq	.L41
 812              	.LBB10:
 813              		.loc 2 332 0
 814 0058 039B     		ldr	r3, [sp, #12]
 815 005a 5B6C     		ldr	r3, [r3, #68]
 816 005c 0493     		str	r3, [sp, #16]
 817              		.loc 2 333 0
 818 005e 039B     		ldr	r3, [sp, #12]
 819 0060 1B6C     		ldr	r3, [r3, #64]
 820 0062 0593     		str	r3, [sp, #20]
 821              		.loc 2 334 0
 822 0064 11E0     		b	.L42
 823              	.L44:
 824              		.loc 2 338 0
 825 0066 059B     		ldr	r3, [sp, #20]
 826 0068 1A68     		ldr	r2, [r3, #0]
 827 006a 059B     		ldr	r3, [sp, #20]
 828 006c 9A42     		cmp	r2, r3
 829 006e 09D0     		beq	.L43
 830              		.loc 2 338 0 is_stmt 0 discriminator 1
 831 0070 059B     		ldr	r3, [sp, #20]
 832 0072 1B68     		ldr	r3, [r3, #0]
 833 0074 9A68     		ldr	r2, [r3, #8]
 834 0076 049B     		ldr	r3, [sp, #16]
 835 0078 9A42     		cmp	r2, r3
 836 007a 03D9     		bls	.L43
 837              		.loc 2 339 0 is_stmt 1
 838 007c 059B     		ldr	r3, [sp, #20]
 839 007e 1B68     		ldr	r3, [r3, #0]
 840 0080 9B68     		ldr	r3, [r3, #8]
 841 0082 0493     		str	r3, [sp, #16]
 842              	.L43:
 843              		.loc 2 340 0
 844 0084 059B     		ldr	r3, [sp, #20]
 845 0086 DB68     		ldr	r3, [r3, #12]
 846 0088 0593     		str	r3, [sp, #20]
 847              	.L42:
 848              		.loc 2 334 0 discriminator 1
 849 008a 059B     		ldr	r3, [sp, #20]
 850 008c 002B     		cmp	r3, #0
 851 008e EAD1     		bne	.L44
 852              		.loc 2 342 0
 853 0090 039B     		ldr	r3, [sp, #12]
 854 0092 049A     		ldr	r2, [sp, #16]
 855 0094 9A60     		str	r2, [r3, #8]
 856              		.loc 2 345 0
 857 0096 029B     		ldr	r3, [sp, #8]
 858 0098 1846     		mov	r0, r3
 859 009a FFF7FEFF 		bl	fifo_remove
 860 009e 0190     		str	r0, [sp, #4]
 861              		.loc 2 346 0
 862 00a0 029B     		ldr	r3, [sp, #8]
 863 00a2 019A     		ldr	r2, [sp, #4]
 864 00a4 9A60     		str	r2, [r3, #8]
 865              		.loc 2 347 0
ARM GAS  /tmp/cc4tvnNg.s 			page 17


 866 00a6 019B     		ldr	r3, [sp, #4]
 867 00a8 1A6C     		ldr	r2, [r3, #64]
 868 00aa 029B     		ldr	r3, [sp, #8]
 869 00ac DA60     		str	r2, [r3, #12]
 870              		.loc 2 348 0
 871 00ae 019B     		ldr	r3, [sp, #4]
 872 00b0 029A     		ldr	r2, [sp, #8]
 873 00b2 1A64     		str	r2, [r3, #64]
 874              		.loc 2 349 0
 875 00b4 0198     		ldr	r0, [sp, #4]
 876 00b6 FFF7FEFF 		bl	chSchReadyI
 877 00ba 03E0     		b	.L45
 878              	.L41:
 879              	.LBE10:
 880              		.loc 2 352 0
 881 00bc 029B     		ldr	r3, [sp, #8]
 882 00be 4FF00002 		mov	r2, #0
 883 00c2 9A60     		str	r2, [r3, #8]
 884              	.L45:
 885              		.loc 2 353 0
 886 00c4 029B     		ldr	r3, [sp, #8]
 887              		.loc 2 354 0
 888 00c6 1846     		mov	r0, r3
 889 00c8 07B0     		add	sp, sp, #28
 890 00ca 00BD     		pop	{pc}
 891              		.cfi_endproc
 892              	.LFE13:
 893              		.size	chMtxUnlockS, .-chMtxUnlockS
 894 00cc AFF30080 		.section	.text.chMtxUnlockAll,"ax",%progbits
 895              		.align	2
 896              		.p2align 4,,15
 897              		.global	chMtxUnlockAll
 898              		.thumb
 899              		.thumb_func
 900              		.type	chMtxUnlockAll, %function
 901              	chMtxUnlockAll:
 902              	.LFB14:
 903              		.loc 2 367 0
 904              		.cfi_startproc
 905              		@ args = 0, pretend = 0, frame = 16
 906              		@ frame_needed = 0, uses_anonymous_args = 0
 907 0000 00B5     		push	{lr}
 908              	.LCFI17:
 909              		.cfi_def_cfa_offset 4
 910              		.cfi_offset 14, -4
 911 0002 85B0     		sub	sp, sp, #20
 912              	.LCFI18:
 913              		.cfi_def_cfa_offset 24
 914              		.loc 2 368 0
 915 0004 40F20003 		movw	r3, #:lower16:rlist
 916 0008 C0F20003 		movt	r3, #:upper16:rlist
 917 000c 9B69     		ldr	r3, [r3, #24]
 918 000e 0393     		str	r3, [sp, #12]
 919              	.LBB11:
 920              		.loc 2 370 0
 921 0010 4FF02003 		mov	r3, #32
 922              	@ 370 "../../os/kernel/src/chmtx.c" 1
ARM GAS  /tmp/cc4tvnNg.s 			page 18


 923 0014 83F31188 		msr     BASEPRI, r3
 924              	@ 0 "" 2
 925              		.thumb
 926              	.LBE11:
 927 0018 FFF7FEFF 		bl	dbg_check_lock
 928              		.loc 2 371 0
 929 001c 039B     		ldr	r3, [sp, #12]
 930 001e 1B6C     		ldr	r3, [r3, #64]
 931 0020 002B     		cmp	r3, #0
 932 0022 2CD0     		beq	.L48
 933              	.L51:
 934              	.LBB12:
 935              		.loc 2 373 0
 936 0024 039B     		ldr	r3, [sp, #12]
 937 0026 1B6C     		ldr	r3, [r3, #64]
 938 0028 0293     		str	r3, [sp, #8]
 939              		.loc 2 374 0
 940 002a 029B     		ldr	r3, [sp, #8]
 941 002c DA68     		ldr	r2, [r3, #12]
 942 002e 039B     		ldr	r3, [sp, #12]
 943 0030 1A64     		str	r2, [r3, #64]
 944              		.loc 2 375 0
 945 0032 029B     		ldr	r3, [sp, #8]
 946 0034 1A68     		ldr	r2, [r3, #0]
 947 0036 029B     		ldr	r3, [sp, #8]
 948 0038 9A42     		cmp	r2, r3
 949 003a 12D0     		beq	.L49
 950              	.LBB13:
 951              		.loc 2 376 0
 952 003c 029B     		ldr	r3, [sp, #8]
 953 003e 1846     		mov	r0, r3
 954 0040 FFF7FEFF 		bl	fifo_remove
 955 0044 0190     		str	r0, [sp, #4]
 956              		.loc 2 377 0
 957 0046 029B     		ldr	r3, [sp, #8]
 958 0048 019A     		ldr	r2, [sp, #4]
 959 004a 9A60     		str	r2, [r3, #8]
 960              		.loc 2 378 0
 961 004c 019B     		ldr	r3, [sp, #4]
 962 004e 1A6C     		ldr	r2, [r3, #64]
 963 0050 029B     		ldr	r3, [sp, #8]
 964 0052 DA60     		str	r2, [r3, #12]
 965              		.loc 2 379 0
 966 0054 019B     		ldr	r3, [sp, #4]
 967 0056 029A     		ldr	r2, [sp, #8]
 968 0058 1A64     		str	r2, [r3, #64]
 969              		.loc 2 380 0
 970 005a 0198     		ldr	r0, [sp, #4]
 971 005c FFF7FEFF 		bl	chSchReadyI
 972 0060 03E0     		b	.L50
 973              	.L49:
 974              	.LBE13:
 975              		.loc 2 383 0
 976 0062 029B     		ldr	r3, [sp, #8]
 977 0064 4FF00002 		mov	r2, #0
 978 0068 9A60     		str	r2, [r3, #8]
 979              	.L50:
ARM GAS  /tmp/cc4tvnNg.s 			page 19


 980              	.LBE12:
 981              		.loc 2 384 0
 982 006a 039B     		ldr	r3, [sp, #12]
 983 006c 1B6C     		ldr	r3, [r3, #64]
 984 006e 002B     		cmp	r3, #0
 985 0070 D8D1     		bne	.L51
 986              		.loc 2 385 0
 987 0072 039B     		ldr	r3, [sp, #12]
 988 0074 5A6C     		ldr	r2, [r3, #68]
 989 0076 039B     		ldr	r3, [sp, #12]
 990 0078 9A60     		str	r2, [r3, #8]
 991              		.loc 2 386 0
 992 007a FFF7FEFF 		bl	chSchRescheduleS
 993              	.L48:
 994              		.loc 2 388 0
 995 007e FFF7FEFF 		bl	dbg_check_unlock
 996              	.LBB14:
 997 0082 4FF00003 		mov	r3, #0
 998              	@ 388 "../../os/kernel/src/chmtx.c" 1
 999 0086 83F31188 		msr     BASEPRI, r3
 1000              	@ 0 "" 2
 1001              		.thumb
 1002              	.LBE14:
 1003              		.loc 2 389 0
 1004 008a 05B0     		add	sp, sp, #20
 1005 008c 00BD     		pop	{pc}
 1006              		.cfi_endproc
 1007              	.LFE14:
 1008              		.size	chMtxUnlockAll, .-chMtxUnlockAll
 1009 008e 00BF     		.text
 1010              	.Letext0:
 1011              		.file 3 "/usr/bin/../lib/gcc/arm-none-eabi/4.7.4/../../../../arm-none-eabi/include/stdint.h"
 1012              		.file 4 "../../os/ports/GCC/ARMCMx/chtypes.h"
 1013              		.file 5 "../../os/kernel/include/chlists.h"
 1014              		.file 6 "../../os/kernel/include/chthreads.h"
 1015              		.file 7 "../../os/ports/GCC/ARMCMx/chcore_v7m.h"
 1016              		.file 8 "../../os/kernel/include/chschd.h"
 1017              		.file 9 "../../os/kernel/include/chmtx.h"