ARM GAS  /tmp/ccZbeHKc.s 			page 1


   1              		.syntax unified
   2              		.cpu cortex-m4
   3              		.fpu softvfp
   4              		.eabi_attribute 20, 1
   5              		.eabi_attribute 21, 1
   6              		.eabi_attribute 23, 3
   7              		.eabi_attribute 24, 1
   8              		.eabi_attribute 25, 1
   9              		.eabi_attribute 26, 1
  10              		.eabi_attribute 30, 6
  11              		.eabi_attribute 34, 1
  12              		.eabi_attribute 18, 4
  13              		.thumb
  14              		.file	"chthreads.c"
  15              		.text
  16              	.Ltext0:
  17              		.cfi_sections	.debug_frame
  18              		.section	.text.list_insert,"ax",%progbits
  19              		.align	2
  20              		.p2align 4,,15
  21              		.thumb
  22              		.thumb_func
  23              		.type	list_insert, %function
  24              	list_insert:
  25              	.LFB5:
  26              		.file 1 "../../os/kernel/include/chinline.h"
  27              		.loc 1 73 0
  28              		.cfi_startproc
  29              		@ args = 0, pretend = 0, frame = 8
  30              		@ frame_needed = 0, uses_anonymous_args = 0
  31              		@ link register save eliminated.
  32 0000 82B0     		sub	sp, sp, #8
  33              	.LCFI0:
  34              		.cfi_def_cfa_offset 8
  35 0002 0190     		str	r0, [sp, #4]
  36 0004 0091     		str	r1, [sp, #0]
  37              		.loc 1 75 0
  38 0006 009B     		ldr	r3, [sp, #0]
  39 0008 1A68     		ldr	r2, [r3, #0]
  40 000a 019B     		ldr	r3, [sp, #4]
  41 000c 1A60     		str	r2, [r3, #0]
  42              		.loc 1 76 0
  43 000e 009B     		ldr	r3, [sp, #0]
  44 0010 019A     		ldr	r2, [sp, #4]
  45 0012 1A60     		str	r2, [r3, #0]
  46              		.loc 1 77 0
  47 0014 02B0     		add	sp, sp, #8
  48 0016 7047     		bx	lr
  49              		.cfi_endproc
  50              	.LFE5:
  51              		.size	list_insert, .-list_insert
  52 0018 AFF30080 		.section	.text.list_remove,"ax",%progbits
  52      AFF30080 
  53              		.align	2
  54              		.p2align 4,,15
  55              		.thumb
  56              		.thumb_func
ARM GAS  /tmp/ccZbeHKc.s 			page 2


  57              		.type	list_remove, %function
  58              	list_remove:
  59              	.LFB6:
  60              		.loc 1 79 0
  61              		.cfi_startproc
  62              		@ args = 0, pretend = 0, frame = 16
  63              		@ frame_needed = 0, uses_anonymous_args = 0
  64              		@ link register save eliminated.
  65 0000 84B0     		sub	sp, sp, #16
  66              	.LCFI1:
  67              		.cfi_def_cfa_offset 16
  68 0002 0190     		str	r0, [sp, #4]
  69              		.loc 1 81 0
  70 0004 019B     		ldr	r3, [sp, #4]
  71 0006 1B68     		ldr	r3, [r3, #0]
  72 0008 0393     		str	r3, [sp, #12]
  73              		.loc 1 82 0
  74 000a 039B     		ldr	r3, [sp, #12]
  75 000c 1A68     		ldr	r2, [r3, #0]
  76 000e 019B     		ldr	r3, [sp, #4]
  77 0010 1A60     		str	r2, [r3, #0]
  78              		.loc 1 83 0
  79 0012 039B     		ldr	r3, [sp, #12]
  80              		.loc 1 84 0
  81 0014 1846     		mov	r0, r3
  82 0016 04B0     		add	sp, sp, #16
  83 0018 7047     		bx	lr
  84              		.cfi_endproc
  85              	.LFE6:
  86              		.size	list_remove, .-list_remove
  87 001a 00BFAFF3 		.section	.text._thread_init,"ax",%progbits
  87      0080
  88              		.align	2
  89              		.p2align 4,,15
  90              		.global	_thread_init
  91              		.thumb
  92              		.thumb_func
  93              		.type	_thread_init, %function
  94              	_thread_init:
  95              	.LFB7:
  96              		.file 2 "../../os/kernel/src/chthreads.c"
  97              		.loc 2 69 0
  98              		.cfi_startproc
  99              		@ args = 0, pretend = 0, frame = 8
 100              		@ frame_needed = 0, uses_anonymous_args = 0
 101              		@ link register save eliminated.
 102 0000 82B0     		sub	sp, sp, #8
 103              	.LCFI2:
 104              		.cfi_def_cfa_offset 8
 105 0002 0190     		str	r0, [sp, #4]
 106 0004 0091     		str	r1, [sp, #0]
 107              		.loc 2 71 0
 108 0006 019B     		ldr	r3, [sp, #4]
 109 0008 009A     		ldr	r2, [sp, #0]
 110 000a 9A60     		str	r2, [r3, #8]
 111              		.loc 2 72 0
 112 000c 019B     		ldr	r3, [sp, #4]
ARM GAS  /tmp/ccZbeHKc.s 			page 3


 113 000e 4FF00202 		mov	r2, #2
 114 0012 83F82020 		strb	r2, [r3, #32]
 115              		.loc 2 73 0
 116 0016 019B     		ldr	r3, [sp, #4]
 117 0018 4FF00002 		mov	r2, #0
 118 001c 83F82120 		strb	r2, [r3, #33]
 119              		.loc 2 75 0
 120 0020 019B     		ldr	r3, [sp, #4]
 121 0022 4FF01402 		mov	r2, #20
 122 0026 83F82320 		strb	r2, [r3, #35]
 123              		.loc 2 78 0
 124 002a 019B     		ldr	r3, [sp, #4]
 125 002c 009A     		ldr	r2, [sp, #0]
 126 002e 5A64     		str	r2, [r3, #68]
 127              		.loc 2 79 0
 128 0030 019B     		ldr	r3, [sp, #4]
 129 0032 4FF00002 		mov	r2, #0
 130 0036 1A64     		str	r2, [r3, #64]
 131              		.loc 2 82 0
 132 0038 019B     		ldr	r3, [sp, #4]
 133 003a 4FF00002 		mov	r2, #0
 134 003e DA63     		str	r2, [r3, #60]
 135              		.loc 2 85 0
 136 0040 019B     		ldr	r3, [sp, #4]
 137 0042 4FF00002 		mov	r2, #0
 138 0046 5A62     		str	r2, [r3, #36]
 139              		.loc 2 88 0
 140 0048 019B     		ldr	r3, [sp, #4]
 141 004a 4FF00102 		mov	r2, #1
 142 004e 83F82220 		strb	r2, [r3, #34]
 143              		.loc 2 91 0
 144 0052 019B     		ldr	r3, [sp, #4]
 145 0054 4FF00002 		mov	r2, #0
 146 0058 9A61     		str	r2, [r3, #24]
 147              		.loc 2 92 0
 148 005a 019A     		ldr	r2, [sp, #4]
 149 005c 40F20003 		movw	r3, #:lower16:rlist
 150 0060 C0F20003 		movt	r3, #:upper16:rlist
 151 0064 1361     		str	r3, [r2, #16]
 152 0066 40F20003 		movw	r3, #:lower16:rlist
 153 006a C0F20003 		movt	r3, #:upper16:rlist
 154 006e 5A69     		ldr	r2, [r3, #20]
 155 0070 019B     		ldr	r3, [sp, #4]
 156 0072 5A61     		str	r2, [r3, #20]
 157 0074 019B     		ldr	r3, [sp, #4]
 158 0076 5A69     		ldr	r2, [r3, #20]
 159 0078 40F20003 		movw	r3, #:lower16:rlist
 160 007c C0F20003 		movt	r3, #:upper16:rlist
 161 0080 0199     		ldr	r1, [sp, #4]
 162 0082 5961     		str	r1, [r3, #20]
 163 0084 40F20003 		movw	r3, #:lower16:rlist
 164 0088 C0F20003 		movt	r3, #:upper16:rlist
 165 008c 5B69     		ldr	r3, [r3, #20]
 166 008e 1361     		str	r3, [r2, #16]
 167              		.loc 2 95 0
 168 0090 019B     		ldr	r3, [sp, #4]
 169 0092 03F12C02 		add	r2, r3, #44
ARM GAS  /tmp/ccZbeHKc.s 			page 4


 170 0096 019B     		ldr	r3, [sp, #4]
 171 0098 DA62     		str	r2, [r3, #44]
 172              		.loc 2 98 0
 173 009a 019B     		ldr	r3, [sp, #4]
 174 009c 03F13002 		add	r2, r3, #48
 175 00a0 019B     		ldr	r3, [sp, #4]
 176 00a2 5A63     		str	r2, [r3, #52]
 177 00a4 019B     		ldr	r3, [sp, #4]
 178 00a6 5A6B     		ldr	r2, [r3, #52]
 179 00a8 019B     		ldr	r3, [sp, #4]
 180 00aa 1A63     		str	r2, [r3, #48]
 181              		.loc 2 101 0
 182 00ac 019B     		ldr	r3, [sp, #4]
 183 00ae 03F14C02 		add	r2, r3, #76
 184 00b2 019B     		ldr	r3, [sp, #4]
 185 00b4 DA61     		str	r2, [r3, #28]
 186              		.loc 2 106 0
 187 00b6 019B     		ldr	r3, [sp, #4]
 188              		.loc 2 107 0
 189 00b8 1846     		mov	r0, r3
 190 00ba 02B0     		add	sp, sp, #8
 191 00bc 7047     		bx	lr
 192              		.cfi_endproc
 193              	.LFE7:
 194              		.size	_thread_init, .-_thread_init
 195 00be 00BF     		.section	.text._thread_memfill,"ax",%progbits
 196              		.align	2
 197              		.p2align 4,,15
 198              		.global	_thread_memfill
 199              		.thumb
 200              		.thumb_func
 201              		.type	_thread_memfill, %function
 202              	_thread_memfill:
 203              	.LFB8:
 204              		.loc 2 119 0
 205              		.cfi_startproc
 206              		@ args = 0, pretend = 0, frame = 16
 207              		@ frame_needed = 0, uses_anonymous_args = 0
 208              		@ link register save eliminated.
 209 0000 84B0     		sub	sp, sp, #16
 210              	.LCFI3:
 211              		.cfi_def_cfa_offset 16
 212 0002 0390     		str	r0, [sp, #12]
 213 0004 0291     		str	r1, [sp, #8]
 214 0006 1346     		mov	r3, r2
 215 0008 8DF80730 		strb	r3, [sp, #7]
 216              		.loc 2 121 0
 217 000c 07E0     		b	.L7
 218              	.L8:
 219              		.loc 2 122 0
 220 000e 039B     		ldr	r3, [sp, #12]
 221 0010 9DF80720 		ldrb	r2, [sp, #7]
 222 0014 1A70     		strb	r2, [r3, #0]
 223 0016 039B     		ldr	r3, [sp, #12]
 224 0018 03F10103 		add	r3, r3, #1
 225 001c 0393     		str	r3, [sp, #12]
 226              	.L7:
ARM GAS  /tmp/ccZbeHKc.s 			page 5


 227              		.loc 2 121 0 discriminator 1
 228 001e 039A     		ldr	r2, [sp, #12]
 229 0020 029B     		ldr	r3, [sp, #8]
 230 0022 9A42     		cmp	r2, r3
 231 0024 F3D3     		bcc	.L8
 232              		.loc 2 123 0
 233 0026 04B0     		add	sp, sp, #16
 234 0028 7047     		bx	lr
 235              		.cfi_endproc
 236              	.LFE8:
 237              		.size	_thread_memfill, .-_thread_memfill
 238 002a 00BFAFF3 		.section	.rodata
 238      0080
 239              		.align	2
 240              	.LC0:
 241 0000 22636854 		.ascii	"\"chThdCreateI\"()\000"
 241      68644372 
 241      65617465 
 241      49222829 
 241      00
 242              		.section	.text.chThdCreateI,"ax",%progbits
 243              		.align	2
 244              		.p2align 4,,15
 245              		.global	chThdCreateI
 246              		.thumb
 247              		.thumb_func
 248              		.type	chThdCreateI, %function
 249              	chThdCreateI:
 250              	.LFB9:
 251              		.loc 2 151 0
 252              		.cfi_startproc
 253              		@ args = 4, pretend = 0, frame = 24
 254              		@ frame_needed = 0, uses_anonymous_args = 0
 255 0000 00B5     		push	{lr}
 256              	.LCFI4:
 257              		.cfi_def_cfa_offset 4
 258              		.cfi_offset 14, -4
 259 0002 87B0     		sub	sp, sp, #28
 260              	.LCFI5:
 261              		.cfi_def_cfa_offset 32
 262 0004 0390     		str	r0, [sp, #12]
 263 0006 0291     		str	r1, [sp, #8]
 264 0008 0192     		str	r2, [sp, #4]
 265 000a 0093     		str	r3, [sp, #0]
 266              		.loc 2 153 0
 267 000c 039B     		ldr	r3, [sp, #12]
 268 000e 0593     		str	r3, [sp, #20]
 269              		.loc 2 155 0
 270 0010 FFF7FEFF 		bl	chDbgCheckClassI
 271              		.loc 2 157 0
 272 0014 039B     		ldr	r3, [sp, #12]
 273 0016 002B     		cmp	r3, #0
 274 0018 08D0     		beq	.L10
 275              		.loc 2 157 0 is_stmt 0 discriminator 2
 276 001a 029B     		ldr	r3, [sp, #8]
 277 001c AF2B     		cmp	r3, #175
 278 001e 05D9     		bls	.L10
ARM GAS  /tmp/ccZbeHKc.s 			page 6


 279              		.loc 2 157 0 discriminator 3
 280 0020 019B     		ldr	r3, [sp, #4]
 281 0022 7F2B     		cmp	r3, #127
 282 0024 02D8     		bhi	.L10
 283              		.loc 2 157 0 discriminator 4
 284 0026 009B     		ldr	r3, [sp, #0]
 285 0028 002B     		cmp	r3, #0
 286 002a 05D1     		bne	.L11
 287              	.L10:
 288              		.loc 2 157 0 discriminator 1
 289 002c 40F20000 		movw	r0, #:lower16:.LC0
 290 0030 C0F20000 		movt	r0, #:upper16:.LC0
 291 0034 FFF7FEFF 		bl	chDbgPanic
 292              	.L11:
 293              		.loc 2 160 0 is_stmt 1
 294 0038 029B     		ldr	r3, [sp, #8]
 295 003a A3F12403 		sub	r3, r3, #36
 296 003e 039A     		ldr	r2, [sp, #12]
 297 0040 D218     		adds	r2, r2, r3
 298 0042 059B     		ldr	r3, [sp, #20]
 299 0044 DA60     		str	r2, [r3, #12]
 300 0046 059B     		ldr	r3, [sp, #20]
 301 0048 DB68     		ldr	r3, [r3, #12]
 302 004a 009A     		ldr	r2, [sp, #0]
 303 004c 1A60     		str	r2, [r3, #0]
 304 004e 059B     		ldr	r3, [sp, #20]
 305 0050 DB68     		ldr	r3, [r3, #12]
 306 0052 089A     		ldr	r2, [sp, #32]
 307 0054 5A60     		str	r2, [r3, #4]
 308 0056 059B     		ldr	r3, [sp, #20]
 309 0058 DA68     		ldr	r2, [r3, #12]
 310 005a 40F20003 		movw	r3, #:lower16:_port_thread_start
 311 005e C0F20003 		movt	r3, #:upper16:_port_thread_start
 312 0062 1362     		str	r3, [r2, #32]
 313              		.loc 2 161 0
 314 0064 0598     		ldr	r0, [sp, #20]
 315 0066 0199     		ldr	r1, [sp, #4]
 316 0068 FFF7FEFF 		bl	_thread_init
 317 006c 0346     		mov	r3, r0
 318              		.loc 2 162 0
 319 006e 1846     		mov	r0, r3
 320 0070 07B0     		add	sp, sp, #28
 321 0072 00BD     		pop	{pc}
 322              		.cfi_endproc
 323              	.LFE9:
 324              		.size	chThdCreateI, .-chThdCreateI
 325 0074 AFF30080 		.section	.text.chThdCreateStatic,"ax",%progbits
 325      AFF30080 
 325      AFF30080 
 326              		.align	2
 327              		.p2align 4,,15
 328              		.global	chThdCreateStatic
 329              		.thumb
 330              		.thumb_func
 331              		.type	chThdCreateStatic, %function
 332              	chThdCreateStatic:
 333              	.LFB10:
ARM GAS  /tmp/ccZbeHKc.s 			page 7


 334              		.loc 2 181 0
 335              		.cfi_startproc
 336              		@ args = 4, pretend = 0, frame = 24
 337              		@ frame_needed = 0, uses_anonymous_args = 0
 338 0000 00B5     		push	{lr}
 339              	.LCFI6:
 340              		.cfi_def_cfa_offset 4
 341              		.cfi_offset 14, -4
 342 0002 89B0     		sub	sp, sp, #36
 343              	.LCFI7:
 344              		.cfi_def_cfa_offset 40
 345 0004 0590     		str	r0, [sp, #20]
 346 0006 0491     		str	r1, [sp, #16]
 347 0008 0392     		str	r2, [sp, #12]
 348 000a 0293     		str	r3, [sp, #8]
 349              		.loc 2 185 0
 350 000c 059B     		ldr	r3, [sp, #20]
 351 000e 03F14C03 		add	r3, r3, #76
 352 0012 0598     		ldr	r0, [sp, #20]
 353 0014 1946     		mov	r1, r3
 354 0016 4FF0FF02 		mov	r2, #255
 355 001a FFF7FEFF 		bl	_thread_memfill
 356              		.loc 2 188 0
 357 001e 059B     		ldr	r3, [sp, #20]
 358 0020 03F14C02 		add	r2, r3, #76
 359 0024 0599     		ldr	r1, [sp, #20]
 360 0026 049B     		ldr	r3, [sp, #16]
 361 0028 CB18     		adds	r3, r1, r3
 362 002a 1046     		mov	r0, r2
 363 002c 1946     		mov	r1, r3
 364 002e 4FF05502 		mov	r2, #85
 365 0032 FFF7FEFF 		bl	_thread_memfill
 366              	.LBB2:
 367              		.loc 2 192 0
 368 0036 4FF02003 		mov	r3, #32
 369              	@ 192 "../../os/kernel/src/chthreads.c" 1
 370 003a 83F31188 		msr     BASEPRI, r3
 371              	@ 0 "" 2
 372              		.thumb
 373              	.LBE2:
 374 003e FFF7FEFF 		bl	dbg_check_lock
 375              		.loc 2 193 0
 376 0042 0A9B     		ldr	r3, [sp, #40]
 377 0044 0093     		str	r3, [sp, #0]
 378 0046 0598     		ldr	r0, [sp, #20]
 379 0048 0499     		ldr	r1, [sp, #16]
 380 004a 039A     		ldr	r2, [sp, #12]
 381 004c 029B     		ldr	r3, [sp, #8]
 382 004e FFF7FEFF 		bl	chThdCreateI
 383 0052 0790     		str	r0, [sp, #28]
 384 0054 0798     		ldr	r0, [sp, #28]
 385 0056 4FF00001 		mov	r1, #0
 386 005a FFF7FEFF 		bl	chSchWakeupS
 387              		.loc 2 194 0
 388 005e FFF7FEFF 		bl	dbg_check_unlock
 389              	.LBB3:
 390 0062 4FF00003 		mov	r3, #0
ARM GAS  /tmp/ccZbeHKc.s 			page 8


 391              	@ 194 "../../os/kernel/src/chthreads.c" 1
 392 0066 83F31188 		msr     BASEPRI, r3
 393              	@ 0 "" 2
 394              		.thumb
 395              	.LBE3:
 396              		.loc 2 195 0
 397 006a 079B     		ldr	r3, [sp, #28]
 398              		.loc 2 196 0
 399 006c 1846     		mov	r0, r3
 400 006e 09B0     		add	sp, sp, #36
 401 0070 00BD     		pop	{pc}
 402              		.cfi_endproc
 403              	.LFE10:
 404              		.size	chThdCreateStatic, .-chThdCreateStatic
 405 0072 00BFAFF3 		.section	.rodata
 405      0080AFF3 
 405      0080AFF3 
 405      0080
 406 0011 000000   		.align	2
 407              	.LC1:
 408 0014 22636854 		.ascii	"\"chThdSetPriority\"()\000"
 408      68645365 
 408      74507269 
 408      6F726974 
 408      79222829 
 409              		.section	.text.chThdSetPriority,"ax",%progbits
 410              		.align	2
 411              		.p2align 4,,15
 412              		.global	chThdSetPriority
 413              		.thumb
 414              		.thumb_func
 415              		.type	chThdSetPriority, %function
 416              	chThdSetPriority:
 417              	.LFB11:
 418              		.loc 2 210 0
 419              		.cfi_startproc
 420              		@ args = 0, pretend = 0, frame = 16
 421              		@ frame_needed = 0, uses_anonymous_args = 0
 422 0000 00B5     		push	{lr}
 423              	.LCFI8:
 424              		.cfi_def_cfa_offset 4
 425              		.cfi_offset 14, -4
 426 0002 85B0     		sub	sp, sp, #20
 427              	.LCFI9:
 428              		.cfi_def_cfa_offset 24
 429 0004 0190     		str	r0, [sp, #4]
 430              		.loc 2 213 0
 431 0006 019B     		ldr	r3, [sp, #4]
 432 0008 7F2B     		cmp	r3, #127
 433 000a 05D9     		bls	.L16
 434              		.loc 2 213 0 is_stmt 0 discriminator 1
 435 000c 40F20000 		movw	r0, #:lower16:.LC1
 436 0010 C0F20000 		movt	r0, #:upper16:.LC1
 437 0014 FFF7FEFF 		bl	chDbgPanic
 438              	.L16:
 439              	.LBB4:
 440              		.loc 2 215 0 is_stmt 1
ARM GAS  /tmp/ccZbeHKc.s 			page 9


 441 0018 4FF02003 		mov	r3, #32
 442              	@ 215 "../../os/kernel/src/chthreads.c" 1
 443 001c 83F31188 		msr     BASEPRI, r3
 444              	@ 0 "" 2
 445              		.thumb
 446              	.LBE4:
 447 0020 FFF7FEFF 		bl	dbg_check_lock
 448              		.loc 2 217 0
 449 0024 40F20003 		movw	r3, #:lower16:rlist
 450 0028 C0F20003 		movt	r3, #:upper16:rlist
 451 002c 9B69     		ldr	r3, [r3, #24]
 452 002e 5B6C     		ldr	r3, [r3, #68]
 453 0030 0393     		str	r3, [sp, #12]
 454              		.loc 2 218 0
 455 0032 40F20003 		movw	r3, #:lower16:rlist
 456 0036 C0F20003 		movt	r3, #:upper16:rlist
 457 003a 9B69     		ldr	r3, [r3, #24]
 458 003c 9A68     		ldr	r2, [r3, #8]
 459 003e 40F20003 		movw	r3, #:lower16:rlist
 460 0042 C0F20003 		movt	r3, #:upper16:rlist
 461 0046 9B69     		ldr	r3, [r3, #24]
 462 0048 5B6C     		ldr	r3, [r3, #68]
 463 004a 9A42     		cmp	r2, r3
 464 004c 08D0     		beq	.L17
 465              		.loc 2 218 0 is_stmt 0 discriminator 1
 466 004e 40F20003 		movw	r3, #:lower16:rlist
 467 0052 C0F20003 		movt	r3, #:upper16:rlist
 468 0056 9B69     		ldr	r3, [r3, #24]
 469 0058 9A68     		ldr	r2, [r3, #8]
 470 005a 019B     		ldr	r3, [sp, #4]
 471 005c 9A42     		cmp	r2, r3
 472 005e 06D2     		bcs	.L18
 473              	.L17:
 474              		.loc 2 219 0 is_stmt 1
 475 0060 40F20003 		movw	r3, #:lower16:rlist
 476 0064 C0F20003 		movt	r3, #:upper16:rlist
 477 0068 9B69     		ldr	r3, [r3, #24]
 478 006a 019A     		ldr	r2, [sp, #4]
 479 006c 9A60     		str	r2, [r3, #8]
 480              	.L18:
 481              		.loc 2 220 0
 482 006e 40F20003 		movw	r3, #:lower16:rlist
 483 0072 C0F20003 		movt	r3, #:upper16:rlist
 484 0076 9B69     		ldr	r3, [r3, #24]
 485 0078 019A     		ldr	r2, [sp, #4]
 486 007a 5A64     		str	r2, [r3, #68]
 487              		.loc 2 225 0
 488 007c FFF7FEFF 		bl	chSchRescheduleS
 489              		.loc 2 226 0
 490 0080 FFF7FEFF 		bl	dbg_check_unlock
 491              	.LBB5:
 492 0084 4FF00003 		mov	r3, #0
 493              	@ 226 "../../os/kernel/src/chthreads.c" 1
 494 0088 83F31188 		msr     BASEPRI, r3
 495              	@ 0 "" 2
 496              		.thumb
 497              	.LBE5:
ARM GAS  /tmp/ccZbeHKc.s 			page 10


 498              		.loc 2 227 0
 499 008c 039B     		ldr	r3, [sp, #12]
 500              		.loc 2 228 0
 501 008e 1846     		mov	r0, r3
 502 0090 05B0     		add	sp, sp, #20
 503 0092 00BD     		pop	{pc}
 504              		.cfi_endproc
 505              	.LFE11:
 506              		.size	chThdSetPriority, .-chThdSetPriority
 507 0094 AFF30080 		.section	.rodata
 507      AFF30080 
 507      AFF30080 
 508 0029 000000   		.align	2
 509              	.LC2:
 510 002c 63685468 		.ascii	"chThdResume(), #1\000"
 510      64526573 
 510      756D6528 
 510      292C2023 
 510      3100
 511              		.section	.text.chThdResume,"ax",%progbits
 512              		.align	2
 513              		.p2align 4,,15
 514              		.global	chThdResume
 515              		.thumb
 516              		.thumb_func
 517              		.type	chThdResume, %function
 518              	chThdResume:
 519              	.LFB12:
 520              		.loc 2 243 0
 521              		.cfi_startproc
 522              		@ args = 0, pretend = 0, frame = 8
 523              		@ frame_needed = 0, uses_anonymous_args = 0
 524 0000 00B5     		push	{lr}
 525              	.LCFI10:
 526              		.cfi_def_cfa_offset 4
 527              		.cfi_offset 14, -4
 528 0002 83B0     		sub	sp, sp, #12
 529              	.LCFI11:
 530              		.cfi_def_cfa_offset 16
 531 0004 0190     		str	r0, [sp, #4]
 532              	.LBB6:
 533              		.loc 2 245 0
 534 0006 4FF02003 		mov	r3, #32
 535              	@ 245 "../../os/kernel/src/chthreads.c" 1
 536 000a 83F31188 		msr     BASEPRI, r3
 537              	@ 0 "" 2
 538              		.thumb
 539              	.LBE6:
 540 000e FFF7FEFF 		bl	dbg_check_lock
 541              		.loc 2 246 0
 542 0012 019B     		ldr	r3, [sp, #4]
 543 0014 93F82030 		ldrb	r3, [r3, #32]	@ zero_extendqisi2
 544 0018 022B     		cmp	r3, #2
 545 001a 05D0     		beq	.L21
 546              		.loc 2 246 0 is_stmt 0 discriminator 1
 547 001c 40F20000 		movw	r0, #:lower16:.LC2
 548 0020 C0F20000 		movt	r0, #:upper16:.LC2
ARM GAS  /tmp/ccZbeHKc.s 			page 11


 549 0024 FFF7FEFF 		bl	chDbgPanic
 550              	.L21:
 551              		.loc 2 249 0 is_stmt 1
 552 0028 0198     		ldr	r0, [sp, #4]
 553 002a 4FF00001 		mov	r1, #0
 554 002e FFF7FEFF 		bl	chSchWakeupS
 555              		.loc 2 250 0
 556 0032 FFF7FEFF 		bl	dbg_check_unlock
 557              	.LBB7:
 558 0036 4FF00003 		mov	r3, #0
 559              	@ 250 "../../os/kernel/src/chthreads.c" 1
 560 003a 83F31188 		msr     BASEPRI, r3
 561              	@ 0 "" 2
 562              		.thumb
 563              	.LBE7:
 564              		.loc 2 251 0
 565 003e 019B     		ldr	r3, [sp, #4]
 566              		.loc 2 252 0
 567 0040 1846     		mov	r0, r3
 568 0042 03B0     		add	sp, sp, #12
 569 0044 00BD     		pop	{pc}
 570              		.cfi_endproc
 571              	.LFE12:
 572              		.size	chThdResume, .-chThdResume
 573 0046 00BFAFF3 		.section	.text.chThdTerminate,"ax",%progbits
 573      0080AFF3 
 573      0080
 574              		.align	2
 575              		.p2align 4,,15
 576              		.global	chThdTerminate
 577              		.thumb
 578              		.thumb_func
 579              		.type	chThdTerminate, %function
 580              	chThdTerminate:
 581              	.LFB13:
 582              		.loc 2 266 0
 583              		.cfi_startproc
 584              		@ args = 0, pretend = 0, frame = 8
 585              		@ frame_needed = 0, uses_anonymous_args = 0
 586 0000 00B5     		push	{lr}
 587              	.LCFI12:
 588              		.cfi_def_cfa_offset 4
 589              		.cfi_offset 14, -4
 590 0002 83B0     		sub	sp, sp, #12
 591              	.LCFI13:
 592              		.cfi_def_cfa_offset 16
 593 0004 0190     		str	r0, [sp, #4]
 594              	.LBB8:
 595              		.loc 2 268 0
 596 0006 4FF02003 		mov	r3, #32
 597              	@ 268 "../../os/kernel/src/chthreads.c" 1
 598 000a 83F31188 		msr     BASEPRI, r3
 599              	@ 0 "" 2
 600              		.thumb
 601              	.LBE8:
 602 000e FFF7FEFF 		bl	dbg_check_lock
 603              		.loc 2 269 0
ARM GAS  /tmp/ccZbeHKc.s 			page 12


 604 0012 019B     		ldr	r3, [sp, #4]
 605 0014 93F82130 		ldrb	r3, [r3, #33]	@ zero_extendqisi2
 606 0018 43F00403 		orr	r3, r3, #4
 607 001c DAB2     		uxtb	r2, r3
 608 001e 019B     		ldr	r3, [sp, #4]
 609 0020 83F82120 		strb	r2, [r3, #33]
 610              		.loc 2 270 0
 611 0024 FFF7FEFF 		bl	dbg_check_unlock
 612              	.LBB9:
 613 0028 4FF00003 		mov	r3, #0
 614              	@ 270 "../../os/kernel/src/chthreads.c" 1
 615 002c 83F31188 		msr     BASEPRI, r3
 616              	@ 0 "" 2
 617              		.thumb
 618              	.LBE9:
 619              		.loc 2 271 0
 620 0030 03B0     		add	sp, sp, #12
 621 0032 00BD     		pop	{pc}
 622              		.cfi_endproc
 623              	.LFE13:
 624              		.size	chThdTerminate, .-chThdTerminate
 625 0034 AFF30080 		.section	.rodata
 625      AFF30080 
 625      AFF30080 
 626 003e 0000     		.align	2
 627              	.LC3:
 628 0040 22636854 		.ascii	"\"chThdSleep\"()\000"
 628      6864536C 
 628      65657022 
 628      282900
 629              		.section	.text.chThdSleep,"ax",%progbits
 630              		.align	2
 631              		.p2align 4,,15
 632              		.global	chThdSleep
 633              		.thumb
 634              		.thumb_func
 635              		.type	chThdSleep, %function
 636              	chThdSleep:
 637              	.LFB14:
 638              		.loc 2 285 0
 639              		.cfi_startproc
 640              		@ args = 0, pretend = 0, frame = 8
 641              		@ frame_needed = 0, uses_anonymous_args = 0
 642 0000 00B5     		push	{lr}
 643              	.LCFI14:
 644              		.cfi_def_cfa_offset 4
 645              		.cfi_offset 14, -4
 646 0002 83B0     		sub	sp, sp, #12
 647              	.LCFI15:
 648              		.cfi_def_cfa_offset 16
 649 0004 0190     		str	r0, [sp, #4]
 650              		.loc 2 287 0
 651 0006 019B     		ldr	r3, [sp, #4]
 652 0008 002B     		cmp	r3, #0
 653 000a 05D1     		bne	.L25
 654              		.loc 2 287 0 is_stmt 0 discriminator 1
 655 000c 40F20000 		movw	r0, #:lower16:.LC3
ARM GAS  /tmp/ccZbeHKc.s 			page 13


 656 0010 C0F20000 		movt	r0, #:upper16:.LC3
 657 0014 FFF7FEFF 		bl	chDbgPanic
 658              	.L25:
 659              	.LBB10:
 660              		.loc 2 289 0 is_stmt 1
 661 0018 4FF02003 		mov	r3, #32
 662              	@ 289 "../../os/kernel/src/chthreads.c" 1
 663 001c 83F31188 		msr     BASEPRI, r3
 664              	@ 0 "" 2
 665              		.thumb
 666              	.LBE10:
 667 0020 FFF7FEFF 		bl	dbg_check_lock
 668              		.loc 2 290 0
 669 0024 4FF00600 		mov	r0, #6
 670 0028 0199     		ldr	r1, [sp, #4]
 671 002a FFF7FEFF 		bl	chSchGoSleepTimeoutS
 672              		.loc 2 291 0
 673 002e FFF7FEFF 		bl	dbg_check_unlock
 674              	.LBB11:
 675 0032 4FF00003 		mov	r3, #0
 676              	@ 291 "../../os/kernel/src/chthreads.c" 1
 677 0036 83F31188 		msr     BASEPRI, r3
 678              	@ 0 "" 2
 679              		.thumb
 680              	.LBE11:
 681              		.loc 2 292 0
 682 003a 03B0     		add	sp, sp, #12
 683 003c 00BD     		pop	{pc}
 684              		.cfi_endproc
 685              	.LFE14:
 686              		.size	chThdSleep, .-chThdSleep
 687 003e 00BF     		.section	.text.chThdSleepUntil,"ax",%progbits
 688              		.align	2
 689              		.p2align 4,,15
 690              		.global	chThdSleepUntil
 691              		.thumb
 692              		.thumb_func
 693              		.type	chThdSleepUntil, %function
 694              	chThdSleepUntil:
 695              	.LFB15:
 696              		.loc 2 302 0
 697              		.cfi_startproc
 698              		@ args = 0, pretend = 0, frame = 8
 699              		@ frame_needed = 0, uses_anonymous_args = 0
 700 0000 00B5     		push	{lr}
 701              	.LCFI16:
 702              		.cfi_def_cfa_offset 4
 703              		.cfi_offset 14, -4
 704 0002 83B0     		sub	sp, sp, #12
 705              	.LCFI17:
 706              		.cfi_def_cfa_offset 16
 707 0004 0190     		str	r0, [sp, #4]
 708              	.LBB12:
 709              		.loc 2 304 0
 710 0006 4FF02003 		mov	r3, #32
 711              	@ 304 "../../os/kernel/src/chthreads.c" 1
 712 000a 83F31188 		msr     BASEPRI, r3
ARM GAS  /tmp/ccZbeHKc.s 			page 14


 713              	@ 0 "" 2
 714              		.thumb
 715              	.LBE12:
 716 000e FFF7FEFF 		bl	dbg_check_lock
 717              		.loc 2 305 0
 718 0012 40F20003 		movw	r3, #:lower16:vtlist
 719 0016 C0F20003 		movt	r3, #:upper16:vtlist
 720 001a DB68     		ldr	r3, [r3, #12]
 721 001c 019A     		ldr	r2, [sp, #4]
 722 001e D31A     		subs	r3, r2, r3
 723 0020 0193     		str	r3, [sp, #4]
 724 0022 019B     		ldr	r3, [sp, #4]
 725 0024 002B     		cmp	r3, #0
 726 0026 04D0     		beq	.L27
 727              		.loc 2 306 0
 728 0028 4FF00600 		mov	r0, #6
 729 002c 0199     		ldr	r1, [sp, #4]
 730 002e FFF7FEFF 		bl	chSchGoSleepTimeoutS
 731              	.L27:
 732              		.loc 2 307 0
 733 0032 FFF7FEFF 		bl	dbg_check_unlock
 734              	.LBB13:
 735 0036 4FF00003 		mov	r3, #0
 736              	@ 307 "../../os/kernel/src/chthreads.c" 1
 737 003a 83F31188 		msr     BASEPRI, r3
 738              	@ 0 "" 2
 739              		.thumb
 740              	.LBE13:
 741              		.loc 2 308 0
 742 003e 03B0     		add	sp, sp, #12
 743 0040 00BD     		pop	{pc}
 744              		.cfi_endproc
 745              	.LFE15:
 746              		.size	chThdSleepUntil, .-chThdSleepUntil
 747 0042 00BFAFF3 		.section	.text.chThdYield,"ax",%progbits
 747      0080AFF3 
 747      0080AFF3 
 747      0080
 748              		.align	2
 749              		.p2align 4,,15
 750              		.global	chThdYield
 751              		.thumb
 752              		.thumb_func
 753              		.type	chThdYield, %function
 754              	chThdYield:
 755              	.LFB16:
 756              		.loc 2 317 0
 757              		.cfi_startproc
 758              		@ args = 0, pretend = 0, frame = 0
 759              		@ frame_needed = 0, uses_anonymous_args = 0
 760 0000 08B5     		push	{r3, lr}
 761              	.LCFI18:
 762              		.cfi_def_cfa_offset 8
 763              		.cfi_offset 3, -8
 764              		.cfi_offset 14, -4
 765              	.LBB14:
 766              		.loc 2 319 0
ARM GAS  /tmp/ccZbeHKc.s 			page 15


 767 0002 4FF02003 		mov	r3, #32
 768              	@ 319 "../../os/kernel/src/chthreads.c" 1
 769 0006 83F31188 		msr     BASEPRI, r3
 770              	@ 0 "" 2
 771              		.thumb
 772              	.LBE14:
 773 000a FFF7FEFF 		bl	dbg_check_lock
 774              		.loc 2 320 0
 775 000e 40F20003 		movw	r3, #:lower16:rlist
 776 0012 C0F20003 		movt	r3, #:upper16:rlist
 777 0016 1B68     		ldr	r3, [r3, #0]
 778 0018 9A68     		ldr	r2, [r3, #8]
 779 001a 40F20003 		movw	r3, #:lower16:rlist
 780 001e C0F20003 		movt	r3, #:upper16:rlist
 781 0022 9B69     		ldr	r3, [r3, #24]
 782 0024 9B68     		ldr	r3, [r3, #8]
 783 0026 9A42     		cmp	r2, r3
 784 0028 01D3     		bcc	.L29
 785              		.loc 2 320 0 is_stmt 0 discriminator 1
 786 002a FFF7FEFF 		bl	chSchDoRescheduleBehind
 787              	.L29:
 788              		.loc 2 321 0 is_stmt 1
 789 002e FFF7FEFF 		bl	dbg_check_unlock
 790              	.LBB15:
 791 0032 4FF00003 		mov	r3, #0
 792              	@ 321 "../../os/kernel/src/chthreads.c" 1
 793 0036 83F31188 		msr     BASEPRI, r3
 794              	@ 0 "" 2
 795              		.thumb
 796              	.LBE15:
 797              		.loc 2 322 0
 798 003a 08BD     		pop	{r3, pc}
 799              		.cfi_endproc
 800              	.LFE16:
 801              		.size	chThdYield, .-chThdYield
 802 003c AFF30080 		.section	.text.chThdExit,"ax",%progbits
 803              		.align	2
 804              		.p2align 4,,15
 805              		.global	chThdExit
 806              		.thumb
 807              		.thumb_func
 808              		.type	chThdExit, %function
 809              	chThdExit:
 810              	.LFB17:
 811              		.loc 2 338 0
 812              		.cfi_startproc
 813              		@ args = 0, pretend = 0, frame = 8
 814              		@ frame_needed = 0, uses_anonymous_args = 0
 815 0000 00B5     		push	{lr}
 816              	.LCFI19:
 817              		.cfi_def_cfa_offset 4
 818              		.cfi_offset 14, -4
 819 0002 83B0     		sub	sp, sp, #12
 820              	.LCFI20:
 821              		.cfi_def_cfa_offset 16
 822 0004 0190     		str	r0, [sp, #4]
 823              	.LBB16:
ARM GAS  /tmp/ccZbeHKc.s 			page 16


 824              		.loc 2 340 0
 825 0006 4FF02003 		mov	r3, #32
 826              	@ 340 "../../os/kernel/src/chthreads.c" 1
 827 000a 83F31188 		msr     BASEPRI, r3
 828              	@ 0 "" 2
 829              		.thumb
 830              	.LBE16:
 831 000e FFF7FEFF 		bl	dbg_check_lock
 832              		.loc 2 341 0
 833 0012 0198     		ldr	r0, [sp, #4]
 834 0014 FFF7FEFF 		bl	chThdExitS
 835              		.loc 2 343 0
 836 0018 03B0     		add	sp, sp, #12
 837 001a 00BD     		pop	{pc}
 838              		.cfi_endproc
 839              	.LFE17:
 840              		.size	chThdExit, .-chThdExit
 841 001c AFF30080 		.section	.rodata
 842 004f 00       		.align	2
 843              	.LC4:
 844 0050 63685468 		.ascii	"chThdExitS(), #1\000"
 844      64457869 
 844      74532829 
 844      2C202331 
 844      00
 845              		.section	.text.chThdExitS,"ax",%progbits
 846              		.align	2
 847              		.p2align 4,,15
 848              		.global	chThdExitS
 849              		.thumb
 850              		.thumb_func
 851              		.type	chThdExitS, %function
 852              	chThdExitS:
 853              	.LFB18:
 854              		.loc 2 359 0
 855              		.cfi_startproc
 856              		@ args = 0, pretend = 0, frame = 16
 857              		@ frame_needed = 0, uses_anonymous_args = 0
 858 0000 00B5     		push	{lr}
 859              	.LCFI21:
 860              		.cfi_def_cfa_offset 4
 861              		.cfi_offset 14, -4
 862 0002 85B0     		sub	sp, sp, #20
 863              	.LCFI22:
 864              		.cfi_def_cfa_offset 24
 865 0004 0190     		str	r0, [sp, #4]
 866              		.loc 2 360 0
 867 0006 40F20003 		movw	r3, #:lower16:rlist
 868 000a C0F20003 		movt	r3, #:upper16:rlist
 869 000e 9B69     		ldr	r3, [r3, #24]
 870 0010 0393     		str	r3, [sp, #12]
 871              		.loc 2 362 0
 872 0012 039B     		ldr	r3, [sp, #12]
 873 0014 019A     		ldr	r2, [sp, #4]
 874 0016 9A62     		str	r2, [r3, #40]
 875              		.loc 2 367 0
 876 0018 09E0     		b	.L32
ARM GAS  /tmp/ccZbeHKc.s 			page 17


 877              	.L33:
 878              		.loc 2 368 0
 879 001a 039B     		ldr	r3, [sp, #12]
 880 001c 03F12C03 		add	r3, r3, #44
 881 0020 1846     		mov	r0, r3
 882 0022 FFF7FEFF 		bl	list_remove
 883 0026 0346     		mov	r3, r0
 884 0028 1846     		mov	r0, r3
 885 002a FFF7FEFF 		bl	chSchReadyI
 886              	.L32:
 887              		.loc 2 367 0 discriminator 1
 888 002e 039B     		ldr	r3, [sp, #12]
 889 0030 DA6A     		ldr	r2, [r3, #44]
 890 0032 039B     		ldr	r3, [sp, #12]
 891 0034 03F12C03 		add	r3, r3, #44
 892 0038 9A42     		cmp	r2, r3
 893 003a EED1     		bne	.L33
 894              		.loc 2 373 0
 895 003c 039B     		ldr	r3, [sp, #12]
 896 003e 93F82130 		ldrb	r3, [r3, #33]	@ zero_extendqisi2
 897 0042 03F00303 		and	r3, r3, #3
 898 0046 002B     		cmp	r3, #0
 899 0048 09D1     		bne	.L34
 900              		.loc 2 374 0
 901 004a 039B     		ldr	r3, [sp, #12]
 902 004c 5B69     		ldr	r3, [r3, #20]
 903 004e 039A     		ldr	r2, [sp, #12]
 904 0050 1269     		ldr	r2, [r2, #16]
 905 0052 1A61     		str	r2, [r3, #16]
 906 0054 039B     		ldr	r3, [sp, #12]
 907 0056 1B69     		ldr	r3, [r3, #16]
 908 0058 039A     		ldr	r2, [sp, #12]
 909 005a 5269     		ldr	r2, [r2, #20]
 910 005c 5A61     		str	r2, [r3, #20]
 911              	.L34:
 912              		.loc 2 376 0
 913 005e 4FF00E00 		mov	r0, #14
 914 0062 FFF7FEFF 		bl	chSchGoSleepS
 915              		.loc 2 378 0
 916 0066 40F20000 		movw	r0, #:lower16:.LC4
 917 006a C0F20000 		movt	r0, #:upper16:.LC4
 918 006e FFF7FEFF 		bl	chDbgPanic
 919              		.loc 2 379 0
 920 0072 05B0     		add	sp, sp, #20
 921 0074 00BD     		pop	{pc}
 922              		.cfi_endproc
 923              	.LFE18:
 924              		.size	chThdExitS, .-chThdExitS
 925 0076 00BFAFF3 		.section	.rodata
 925      0080AFF3 
 925      0080
 926 0061 000000   		.align	2
 927              	.LC5:
 928 0064 22636854 		.ascii	"\"chThdWait\"()\000"
 928      68645761 
 928      69742228 
 928      2900
ARM GAS  /tmp/ccZbeHKc.s 			page 18


 929 0072 0000     		.align	2
 930              	.LC6:
 931 0074 63685468 		.ascii	"chThdWait(), #1\000"
 931      64576169 
 931      7428292C 
 931      20233100 
 932              		.align	2
 933              	.LC7:
 934 0084 63685468 		.ascii	"chThdWait(), #2\000"
 934      64576169 
 934      7428292C 
 934      20233200 
 935              		.section	.text.chThdWait,"ax",%progbits
 936              		.align	2
 937              		.p2align 4,,15
 938              		.global	chThdWait
 939              		.thumb
 940              		.thumb_func
 941              		.type	chThdWait, %function
 942              	chThdWait:
 943              	.LFB19:
 944              		.loc 2 413 0
 945              		.cfi_startproc
 946              		@ args = 0, pretend = 0, frame = 16
 947              		@ frame_needed = 0, uses_anonymous_args = 0
 948 0000 00B5     		push	{lr}
 949              	.LCFI23:
 950              		.cfi_def_cfa_offset 4
 951              		.cfi_offset 14, -4
 952 0002 85B0     		sub	sp, sp, #20
 953              	.LCFI24:
 954              		.cfi_def_cfa_offset 24
 955 0004 0190     		str	r0, [sp, #4]
 956              		.loc 2 416 0
 957 0006 019B     		ldr	r3, [sp, #4]
 958 0008 002B     		cmp	r3, #0
 959 000a 05D1     		bne	.L36
 960              		.loc 2 416 0 is_stmt 0 discriminator 1
 961 000c 40F20000 		movw	r0, #:lower16:.LC5
 962 0010 C0F20000 		movt	r0, #:upper16:.LC5
 963 0014 FFF7FEFF 		bl	chDbgPanic
 964              	.L36:
 965              	.LBB17:
 966              		.loc 2 418 0 is_stmt 1
 967 0018 4FF02003 		mov	r3, #32
 968              	@ 418 "../../os/kernel/src/chthreads.c" 1
 969 001c 83F31188 		msr     BASEPRI, r3
 970              	@ 0 "" 2
 971              		.thumb
 972              	.LBE17:
 973 0020 FFF7FEFF 		bl	dbg_check_lock
 974              		.loc 2 419 0
 975 0024 40F20003 		movw	r3, #:lower16:rlist
 976 0028 C0F20003 		movt	r3, #:upper16:rlist
 977 002c 9A69     		ldr	r2, [r3, #24]
 978 002e 019B     		ldr	r3, [sp, #4]
 979 0030 9A42     		cmp	r2, r3
ARM GAS  /tmp/ccZbeHKc.s 			page 19


 980 0032 05D1     		bne	.L37
 981              		.loc 2 419 0 is_stmt 0 discriminator 1
 982 0034 40F20000 		movw	r0, #:lower16:.LC6
 983 0038 C0F20000 		movt	r0, #:upper16:.LC6
 984 003c FFF7FEFF 		bl	chDbgPanic
 985              	.L37:
 986              		.loc 2 421 0 is_stmt 1
 987 0040 019B     		ldr	r3, [sp, #4]
 988 0042 93F82230 		ldrb	r3, [r3, #34]	@ zero_extendqisi2
 989 0046 002B     		cmp	r3, #0
 990 0048 05D1     		bne	.L38
 991              		.loc 2 421 0 is_stmt 0 discriminator 1
 992 004a 40F20000 		movw	r0, #:lower16:.LC7
 993 004e C0F20000 		movt	r0, #:upper16:.LC7
 994 0052 FFF7FEFF 		bl	chDbgPanic
 995              	.L38:
 996              		.loc 2 423 0 is_stmt 1
 997 0056 019B     		ldr	r3, [sp, #4]
 998 0058 93F82030 		ldrb	r3, [r3, #32]	@ zero_extendqisi2
 999 005c 0E2B     		cmp	r3, #14
 1000 005e 0FD0     		beq	.L39
 1001              		.loc 2 424 0
 1002 0060 40F20003 		movw	r3, #:lower16:rlist
 1003 0064 C0F20003 		movt	r3, #:upper16:rlist
 1004 0068 9A69     		ldr	r2, [r3, #24]
 1005 006a 019B     		ldr	r3, [sp, #4]
 1006 006c 03F12C03 		add	r3, r3, #44
 1007 0070 1046     		mov	r0, r2
 1008 0072 1946     		mov	r1, r3
 1009 0074 FFF7FEFF 		bl	list_insert
 1010              		.loc 2 425 0
 1011 0078 4FF00700 		mov	r0, #7
 1012 007c FFF7FEFF 		bl	chSchGoSleepS
 1013              	.L39:
 1014              		.loc 2 427 0
 1015 0080 019B     		ldr	r3, [sp, #4]
 1016 0082 9B6A     		ldr	r3, [r3, #40]
 1017 0084 0393     		str	r3, [sp, #12]
 1018              		.loc 2 428 0
 1019 0086 FFF7FEFF 		bl	dbg_check_unlock
 1020              	.LBB18:
 1021 008a 4FF00003 		mov	r3, #0
 1022              	@ 428 "../../os/kernel/src/chthreads.c" 1
 1023 008e 83F31188 		msr     BASEPRI, r3
 1024              	@ 0 "" 2
 1025              		.thumb
 1026              	.LBE18:
 1027              		.loc 2 430 0
 1028 0092 0198     		ldr	r0, [sp, #4]
 1029 0094 FFF7FEFF 		bl	chThdRelease
 1030              		.loc 2 432 0
 1031 0098 039B     		ldr	r3, [sp, #12]
 1032              		.loc 2 433 0
 1033 009a 1846     		mov	r0, r3
 1034 009c 05B0     		add	sp, sp, #20
 1035 009e 00BD     		pop	{pc}
 1036              		.cfi_endproc
ARM GAS  /tmp/ccZbeHKc.s 			page 20


 1037              	.LFE19:
 1038              		.size	chThdWait, .-chThdWait
 1039              		.text
 1040              	.Letext0:
 1041              		.file 3 "/usr/bin/../lib/gcc/arm-none-eabi/4.7.4/include/stddef.h"
 1042              		.file 4 "/usr/bin/../lib/gcc/arm-none-eabi/4.7.4/../../../../arm-none-eabi/include/stdint.h"
 1043              		.file 5 "../../os/ports/GCC/ARMCMx/chtypes.h"
 1044              		.file 6 "../../os/kernel/include/chlists.h"
 1045              		.file 7 "../../os/kernel/include/chthreads.h"
 1046              		.file 8 "../../os/ports/GCC/ARMCMx/chcore_v7m.h"
 1047              		.file 9 "../../os/kernel/include/chvt.h"
 1048              		.file 10 "../../os/kernel/include/chschd.h"
 1049              		.file 11 "../../os/kernel/include/chmtx.h"