ARM GAS  /tmp/ccYZfokR.s 			page 1


   1              		.syntax unified
   2              		.cpu cortex-m4
   3              		.fpu softvfp
   4              		.eabi_attribute 20, 1
   5              		.eabi_attribute 21, 1
   6              		.eabi_attribute 23, 3
   7              		.eabi_attribute 24, 1
   8              		.eabi_attribute 25, 1
   9              		.eabi_attribute 26, 1
  10              		.eabi_attribute 30, 6
  11              		.eabi_attribute 34, 1
  12              		.eabi_attribute 18, 4
  13              		.thumb
  14              		.file	"chvt.c"
  15              		.text
  16              	.Ltext0:
  17              		.cfi_sections	.debug_frame
  18              		.global	vtlist
  19              		.section	.bss.vtlist,"aw",%nobits
  20              		.align	2
  21              		.type	vtlist, %object
  22              		.size	vtlist, 16
  23              	vtlist:
  24 0000 00000000 		.space	16
  24      00000000 
  24      00000000 
  24      00000000 
  25              		.section	.text._vt_init,"ax",%progbits
  26              		.align	2
  27              		.p2align 4,,15
  28              		.global	_vt_init
  29              		.thumb
  30              		.thumb_func
  31              		.type	_vt_init, %function
  32              	_vt_init:
  33              	.LFB7:
  34              		.file 1 "../../os/kernel/src/chvt.c"
  35              		.loc 1 43 0
  36              		.cfi_startproc
  37              		@ args = 0, pretend = 0, frame = 0
  38              		@ frame_needed = 0, uses_anonymous_args = 0
  39              		@ link register save eliminated.
  40              		.loc 1 45 0
  41 0000 40F20003 		movw	r3, #:lower16:vtlist
  42 0004 C0F20003 		movt	r3, #:upper16:vtlist
  43 0008 40F20002 		movw	r2, #:lower16:vtlist
  44 000c C0F20002 		movt	r2, #:upper16:vtlist
  45 0010 5A60     		str	r2, [r3, #4]
  46 0012 40F20003 		movw	r3, #:lower16:vtlist
  47 0016 C0F20003 		movt	r3, #:upper16:vtlist
  48 001a 5A68     		ldr	r2, [r3, #4]
  49 001c 40F20003 		movw	r3, #:lower16:vtlist
  50 0020 C0F20003 		movt	r3, #:upper16:vtlist
  51 0024 1A60     		str	r2, [r3, #0]
  52              		.loc 1 46 0
  53 0026 40F20003 		movw	r3, #:lower16:vtlist
  54 002a C0F20003 		movt	r3, #:upper16:vtlist
ARM GAS  /tmp/ccYZfokR.s 			page 2


  55 002e 4FF0FF32 		mov	r2, #-1
  56 0032 9A60     		str	r2, [r3, #8]
  57              		.loc 1 47 0
  58 0034 40F20003 		movw	r3, #:lower16:vtlist
  59 0038 C0F20003 		movt	r3, #:upper16:vtlist
  60 003c 4FF00002 		mov	r2, #0
  61 0040 DA60     		str	r2, [r3, #12]
  62              		.loc 1 48 0
  63 0042 7047     		bx	lr
  64              		.cfi_endproc
  65              	.LFE7:
  66              		.size	_vt_init, .-_vt_init
  67 0044 AFF30080 		.section	.rodata
  67      AFF30080 
  67      AFF30080 
  68              		.align	2
  69              	.LC0:
  70 0000 22636856 		.ascii	"\"chVTSetI\"()\000"
  70      54536574 
  70      49222829 
  70      00
  71              		.section	.text.chVTSetI,"ax",%progbits
  72              		.align	2
  73              		.p2align 4,,15
  74              		.global	chVTSetI
  75              		.thumb
  76              		.thumb_func
  77              		.type	chVTSetI, %function
  78              	chVTSetI:
  79              	.LFB8:
  80              		.loc 1 69 0
  81              		.cfi_startproc
  82              		@ args = 0, pretend = 0, frame = 24
  83              		@ frame_needed = 0, uses_anonymous_args = 0
  84 0000 00B5     		push	{lr}
  85              	.LCFI0:
  86              		.cfi_def_cfa_offset 4
  87              		.cfi_offset 14, -4
  88 0002 87B0     		sub	sp, sp, #28
  89              	.LCFI1:
  90              		.cfi_def_cfa_offset 32
  91 0004 0390     		str	r0, [sp, #12]
  92 0006 0291     		str	r1, [sp, #8]
  93 0008 0192     		str	r2, [sp, #4]
  94 000a 0093     		str	r3, [sp, #0]
  95              		.loc 1 72 0
  96 000c FFF7FEFF 		bl	chDbgCheckClassI
  97              		.loc 1 73 0
  98 0010 039B     		ldr	r3, [sp, #12]
  99 0012 002B     		cmp	r3, #0
 100 0014 05D0     		beq	.L3
 101              		.loc 1 73 0 is_stmt 0 discriminator 2
 102 0016 019B     		ldr	r3, [sp, #4]
 103 0018 002B     		cmp	r3, #0
 104 001a 02D0     		beq	.L3
 105              		.loc 1 73 0 discriminator 3
 106 001c 029B     		ldr	r3, [sp, #8]
ARM GAS  /tmp/ccYZfokR.s 			page 3


 107 001e 002B     		cmp	r3, #0
 108 0020 05D1     		bne	.L4
 109              	.L3:
 110              		.loc 1 73 0 discriminator 1
 111 0022 40F20000 		movw	r0, #:lower16:.LC0
 112 0026 C0F20000 		movt	r0, #:upper16:.LC0
 113 002a FFF7FEFF 		bl	chDbgPanic
 114              	.L4:
 115              		.loc 1 76 0 is_stmt 1
 116 002e 039B     		ldr	r3, [sp, #12]
 117 0030 009A     		ldr	r2, [sp, #0]
 118 0032 1A61     		str	r2, [r3, #16]
 119              		.loc 1 77 0
 120 0034 039B     		ldr	r3, [sp, #12]
 121 0036 019A     		ldr	r2, [sp, #4]
 122 0038 DA60     		str	r2, [r3, #12]
 123              		.loc 1 78 0
 124 003a 40F20003 		movw	r3, #:lower16:vtlist
 125 003e C0F20003 		movt	r3, #:upper16:vtlist
 126 0042 1B68     		ldr	r3, [r3, #0]
 127 0044 0593     		str	r3, [sp, #20]
 128              		.loc 1 79 0
 129 0046 07E0     		b	.L5
 130              	.L6:
 131              		.loc 1 80 0
 132 0048 059B     		ldr	r3, [sp, #20]
 133 004a 9B68     		ldr	r3, [r3, #8]
 134 004c 029A     		ldr	r2, [sp, #8]
 135 004e D31A     		subs	r3, r2, r3
 136 0050 0293     		str	r3, [sp, #8]
 137              		.loc 1 81 0
 138 0052 059B     		ldr	r3, [sp, #20]
 139 0054 1B68     		ldr	r3, [r3, #0]
 140 0056 0593     		str	r3, [sp, #20]
 141              	.L5:
 142              		.loc 1 79 0 discriminator 1
 143 0058 059B     		ldr	r3, [sp, #20]
 144 005a 9A68     		ldr	r2, [r3, #8]
 145 005c 029B     		ldr	r3, [sp, #8]
 146 005e 9A42     		cmp	r2, r3
 147 0060 F2D3     		bcc	.L6
 148              		.loc 1 84 0
 149 0062 039B     		ldr	r3, [sp, #12]
 150 0064 059A     		ldr	r2, [sp, #20]
 151 0066 1A60     		str	r2, [r3, #0]
 152 0068 039B     		ldr	r3, [sp, #12]
 153 006a 1B68     		ldr	r3, [r3, #0]
 154 006c 5A68     		ldr	r2, [r3, #4]
 155 006e 039B     		ldr	r3, [sp, #12]
 156 0070 5A60     		str	r2, [r3, #4]
 157              		.loc 1 85 0
 158 0072 039B     		ldr	r3, [sp, #12]
 159 0074 5B68     		ldr	r3, [r3, #4]
 160 0076 059A     		ldr	r2, [sp, #20]
 161 0078 0399     		ldr	r1, [sp, #12]
 162 007a 5160     		str	r1, [r2, #4]
 163 007c 059A     		ldr	r2, [sp, #20]
ARM GAS  /tmp/ccYZfokR.s 			page 4


 164 007e 5268     		ldr	r2, [r2, #4]
 165 0080 1A60     		str	r2, [r3, #0]
 166              		.loc 1 86 0
 167 0082 039B     		ldr	r3, [sp, #12]
 168 0084 029A     		ldr	r2, [sp, #8]
 169 0086 9A60     		str	r2, [r3, #8]
 170              		.loc 1 87 0
 171 0088 059A     		ldr	r2, [sp, #20]
 172 008a 40F20003 		movw	r3, #:lower16:vtlist
 173 008e C0F20003 		movt	r3, #:upper16:vtlist
 174 0092 9A42     		cmp	r2, r3
 175 0094 05D0     		beq	.L2
 176              		.loc 1 88 0
 177 0096 059B     		ldr	r3, [sp, #20]
 178 0098 9A68     		ldr	r2, [r3, #8]
 179 009a 029B     		ldr	r3, [sp, #8]
 180 009c D21A     		subs	r2, r2, r3
 181 009e 059B     		ldr	r3, [sp, #20]
 182 00a0 9A60     		str	r2, [r3, #8]
 183              	.L2:
 184              		.loc 1 89 0
 185 00a2 07B0     		add	sp, sp, #28
 186 00a4 00BD     		pop	{pc}
 187              		.cfi_endproc
 188              	.LFE8:
 189              		.size	chVTSetI, .-chVTSetI
 190 00a6 00BFAFF3 		.section	.rodata
 190      0080AFF3 
 190      0080
 191 000d 000000   		.align	2
 192              	.LC1:
 193 0010 22636856 		.ascii	"\"chVTResetI\"()\000"
 193      54526573 
 193      65744922 
 193      282900
 194 001f 00       		.align	2
 195              	.LC2:
 196 0020 63685654 		.ascii	"chVTResetI(), #1\000"
 196      52657365 
 196      74492829 
 196      2C202331 
 196      00
 197 0031 000000   		.section	.text.chVTResetI,"ax",%progbits
 198              		.align	2
 199              		.p2align 4,,15
 200              		.global	chVTResetI
 201              		.thumb
 202              		.thumb_func
 203              		.type	chVTResetI, %function
 204              	chVTResetI:
 205              	.LFB9:
 206              		.loc 1 99 0
 207              		.cfi_startproc
 208              		@ args = 0, pretend = 0, frame = 8
 209              		@ frame_needed = 0, uses_anonymous_args = 0
 210 0000 00B5     		push	{lr}
 211              	.LCFI2:
ARM GAS  /tmp/ccYZfokR.s 			page 5


 212              		.cfi_def_cfa_offset 4
 213              		.cfi_offset 14, -4
 214 0002 83B0     		sub	sp, sp, #12
 215              	.LCFI3:
 216              		.cfi_def_cfa_offset 16
 217 0004 0190     		str	r0, [sp, #4]
 218              		.loc 1 101 0
 219 0006 FFF7FEFF 		bl	chDbgCheckClassI
 220              		.loc 1 102 0
 221 000a 019B     		ldr	r3, [sp, #4]
 222 000c 002B     		cmp	r3, #0
 223 000e 05D1     		bne	.L9
 224              		.loc 1 102 0 is_stmt 0 discriminator 1
 225 0010 40F20000 		movw	r0, #:lower16:.LC1
 226 0014 C0F20000 		movt	r0, #:upper16:.LC1
 227 0018 FFF7FEFF 		bl	chDbgPanic
 228              	.L9:
 229              		.loc 1 103 0 is_stmt 1
 230 001c 019B     		ldr	r3, [sp, #4]
 231 001e DB68     		ldr	r3, [r3, #12]
 232 0020 002B     		cmp	r3, #0
 233 0022 05D1     		bne	.L10
 234              		.loc 1 103 0 is_stmt 0 discriminator 1
 235 0024 40F20000 		movw	r0, #:lower16:.LC2
 236 0028 C0F20000 		movt	r0, #:upper16:.LC2
 237 002c FFF7FEFF 		bl	chDbgPanic
 238              	.L10:
 239              		.loc 1 107 0 is_stmt 1
 240 0030 019B     		ldr	r3, [sp, #4]
 241 0032 1A68     		ldr	r2, [r3, #0]
 242 0034 40F20003 		movw	r3, #:lower16:vtlist
 243 0038 C0F20003 		movt	r3, #:upper16:vtlist
 244 003c 9A42     		cmp	r2, r3
 245 003e 08D0     		beq	.L11
 246              		.loc 1 108 0
 247 0040 019B     		ldr	r3, [sp, #4]
 248 0042 1B68     		ldr	r3, [r3, #0]
 249 0044 019A     		ldr	r2, [sp, #4]
 250 0046 1268     		ldr	r2, [r2, #0]
 251 0048 9168     		ldr	r1, [r2, #8]
 252 004a 019A     		ldr	r2, [sp, #4]
 253 004c 9268     		ldr	r2, [r2, #8]
 254 004e 8A18     		adds	r2, r1, r2
 255 0050 9A60     		str	r2, [r3, #8]
 256              	.L11:
 257              		.loc 1 109 0
 258 0052 019B     		ldr	r3, [sp, #4]
 259 0054 5B68     		ldr	r3, [r3, #4]
 260 0056 019A     		ldr	r2, [sp, #4]
 261 0058 1268     		ldr	r2, [r2, #0]
 262 005a 1A60     		str	r2, [r3, #0]
 263              		.loc 1 110 0
 264 005c 019B     		ldr	r3, [sp, #4]
 265 005e 1B68     		ldr	r3, [r3, #0]
 266 0060 019A     		ldr	r2, [sp, #4]
 267 0062 5268     		ldr	r2, [r2, #4]
 268 0064 5A60     		str	r2, [r3, #4]
ARM GAS  /tmp/ccYZfokR.s 			page 6


 269              		.loc 1 111 0
 270 0066 019B     		ldr	r3, [sp, #4]
 271 0068 4FF00002 		mov	r2, #0
 272 006c DA60     		str	r2, [r3, #12]
 273              		.loc 1 112 0
 274 006e 03B0     		add	sp, sp, #12
 275 0070 00BD     		pop	{pc}
 276              		.cfi_endproc
 277              	.LFE9:
 278              		.size	chVTResetI, .-chVTResetI
 279 0072 00BFAFF3 		.section	.text.chTimeIsWithin,"ax",%progbits
 279      0080AFF3 
 279      0080AFF3 
 279      0080
 280              		.align	2
 281              		.p2align 4,,15
 282              		.global	chTimeIsWithin
 283              		.thumb
 284              		.thumb_func
 285              		.type	chTimeIsWithin, %function
 286              	chTimeIsWithin:
 287              	.LFB10:
 288              		.loc 1 127 0
 289              		.cfi_startproc
 290              		@ args = 0, pretend = 0, frame = 16
 291              		@ frame_needed = 0, uses_anonymous_args = 0
 292              		@ link register save eliminated.
 293 0000 84B0     		sub	sp, sp, #16
 294              	.LCFI4:
 295              		.cfi_def_cfa_offset 16
 296 0002 0190     		str	r0, [sp, #4]
 297 0004 0091     		str	r1, [sp, #0]
 298              		.loc 1 129 0
 299 0006 40F20003 		movw	r3, #:lower16:vtlist
 300 000a C0F20003 		movt	r3, #:upper16:vtlist
 301 000e DB68     		ldr	r3, [r3, #12]
 302 0010 0393     		str	r3, [sp, #12]
 303              		.loc 1 130 0
 304 0012 009A     		ldr	r2, [sp, #0]
 305 0014 019B     		ldr	r3, [sp, #4]
 306 0016 9A42     		cmp	r2, r3
 307 0018 10D9     		bls	.L13
 308              		.loc 1 130 0 is_stmt 0 discriminator 1
 309 001a 039A     		ldr	r2, [sp, #12]
 310 001c 019B     		ldr	r3, [sp, #4]
 311 001e 9A42     		cmp	r2, r3
 312 0020 06D3     		bcc	.L14
 313 0022 039A     		ldr	r2, [sp, #12]
 314 0024 009B     		ldr	r3, [sp, #0]
 315 0026 9A42     		cmp	r2, r3
 316 0028 02D2     		bcs	.L14
 317              		.loc 1 130 0 discriminator 3
 318 002a 4FF00103 		mov	r3, #1
 319 002e 01E0     		b	.L15
 320              	.L14:
 321              		.loc 1 130 0 discriminator 2
 322 0030 4FF00003 		mov	r3, #0
ARM GAS  /tmp/ccYZfokR.s 			page 7


 323              	.L15:
 324              		.loc 1 130 0 discriminator 4
 325 0034 03F00103 		and	r3, r3, #1
 326 0038 DBB2     		uxtb	r3, r3
 327 003a 0FE0     		b	.L16
 328              	.L13:
 329              		.loc 1 131 0 is_stmt 1
 330 003c 039A     		ldr	r2, [sp, #12]
 331 003e 019B     		ldr	r3, [sp, #4]
 332 0040 9A42     		cmp	r2, r3
 333 0042 03D2     		bcs	.L17
 334              		.loc 1 131 0 is_stmt 0 discriminator 2
 335 0044 039A     		ldr	r2, [sp, #12]
 336 0046 009B     		ldr	r3, [sp, #0]
 337 0048 9A42     		cmp	r2, r3
 338 004a 02D2     		bcs	.L18
 339              	.L17:
 340              		.loc 1 131 0 discriminator 1
 341 004c 4FF00103 		mov	r3, #1
 342 0050 01E0     		b	.L19
 343              	.L18:
 344              		.loc 1 131 0 discriminator 3
 345 0052 4FF00003 		mov	r3, #0
 346              	.L19:
 347              		.loc 1 130 0 is_stmt 1
 348 0056 03F00103 		and	r3, r3, #1
 349 005a DBB2     		uxtb	r3, r3
 350              	.L16:
 351              		.loc 1 132 0 discriminator 2
 352 005c 1846     		mov	r0, r3
 353 005e 04B0     		add	sp, sp, #16
 354 0060 7047     		bx	lr
 355              		.cfi_endproc
 356              	.LFE10:
 357              		.size	chTimeIsWithin, .-chTimeIsWithin
 358 0062 00BFAFF3 		.text
 358      0080AFF3 
 358      0080AFF3 
 358      0080
 359              	.Letext0:
 360              		.file 2 "/usr/bin/../lib/gcc/arm-none-eabi/4.7.4/../../../../arm-none-eabi/include/stdint.h"
 361              		.file 3 "../../os/ports/GCC/ARMCMx/chtypes.h"
 362              		.file 4 "../../os/kernel/include/chvt.h"