ARM GAS  /tmp/ccTnWS6q.s 			page 1


   1              		.syntax unified
   2              		.cpu cortex-m4
   3              		.fpu softvfp
   4              		.eabi_attribute 20, 1
   5              		.eabi_attribute 21, 1
   6              		.eabi_attribute 23, 3
   7              		.eabi_attribute 24, 1
   8              		.eabi_attribute 25, 1
   9              		.eabi_attribute 26, 1
  10              		.eabi_attribute 30, 6
  11              		.eabi_attribute 34, 1
  12              		.eabi_attribute 18, 4
  13              		.thumb
  14              		.file	"crt0.c"
  15              		.text
  16              	.Ltext0:
  17              		.cfi_sections	.debug_frame
  18              		.section	.text.__early_init,"ax",%progbits
  19              		.align	2
  20              		.p2align 4,,15
  21              		.weak	__early_init
  22              		.thumb
  23              		.thumb_func
  24              		.type	__early_init, %function
  25              	__early_init:
  26              	.LFB0:
  27              		.file 1 "../../os/ports/GCC/ARMCMx/crt0.c"
  28              		.loc 1 227 0
  29              		.cfi_startproc
  30              		@ args = 0, pretend = 0, frame = 0
  31              		@ frame_needed = 0, uses_anonymous_args = 0
  32              		@ link register save eliminated.
  33              		.loc 1 227 0
  34 0000 7047     		bx	lr
  35              		.cfi_endproc
  36              	.LFE0:
  37              		.size	__early_init, .-__early_init
  38 0002 00BFAFF3 		.section	.text.__late_init,"ax",%progbits
  38      0080AFF3 
  38      0080AFF3 
  38      0080
  39              		.align	2
  40              		.p2align 4,,15
  41              		.weak	__late_init
  42              		.thumb
  43              		.thumb_func
  44              		.type	__late_init, %function
  45              	__late_init:
  46              	.LFB1:
  47              		.loc 1 239 0
  48              		.cfi_startproc
  49              		@ args = 0, pretend = 0, frame = 0
  50              		@ frame_needed = 0, uses_anonymous_args = 0
  51              		@ link register save eliminated.
  52              		.loc 1 239 0
  53 0000 7047     		bx	lr
  54              		.cfi_endproc
ARM GAS  /tmp/ccTnWS6q.s 			page 2


  55              	.LFE1:
  56              		.size	__late_init, .-__late_init
  57 0002 00BFAFF3 		.section	.text._default_exit,"ax",%progbits
  57      0080AFF3 
  57      0080AFF3 
  57      0080
  58              		.align	2
  59              		.p2align 4,,15
  60              		.weak	_default_exit
  61              		.thumb
  62              		.thumb_func
  63              		.type	_default_exit, %function
  64              	_default_exit:
  65              	.LFB2:
  66              		.loc 1 250 0
  67              		.cfi_startproc
  68              		@ Naked Function: prologue and epilogue provided by programmer.
  69              		@ args = 0, pretend = 0, frame = 0
  70              		@ frame_needed = 0, uses_anonymous_args = 0
  71              	.L4:
  72              		.loc 1 252 0 discriminator 1
  73 0000 FEE7     		b	.L4
  74              		.cfi_endproc
  75              	.LFE2:
  76              		.size	_default_exit, .-_default_exit
  77 0002 00BFAFF3 		.section	.text.ResetHandler,"ax",%progbits
  77      0080AFF3 
  77      0080AFF3 
  77      0080
  78              		.align	2
  79              		.p2align 4,,15
  80              		.global	ResetHandler
  81              		.thumb
  82              		.thumb_func
  83              		.type	ResetHandler, %function
  84              	ResetHandler:
  85              	.LFB3:
  86              		.loc 1 261 0
  87              		.cfi_startproc
  88              		@ Naked Function: prologue and epilogue provided by programmer.
  89              		@ args = 0, pretend = 0, frame = 0
  90              		@ frame_needed = 0, uses_anonymous_args = 0
  91              		.loc 1 267 0
  92              	@ 267 "../../os/ports/GCC/ARMCMx/crt0.c" 1
  93 0000 72B6     		cpsid   i
  94              	@ 0 "" 2
  95              		.loc 1 268 0
  96              		.thumb
  97 0002 40F20004 		movw	r4, #:lower16:__process_stack_end__
  98 0006 C0F20004 		movt	r4, #:upper16:__process_stack_end__
  99              		.loc 1 269 0
 100              	@ 269 "../../os/ports/GCC/ARMCMx/crt0.c" 1
 101 000a 84F30988 		msr     PSP, r4
 102              	@ 0 "" 2
 103              		.loc 1 287 0
 104              		.thumb
 105 000e 4FF00204 		mov	r4, #2
ARM GAS  /tmp/ccTnWS6q.s 			page 3


 106              		.loc 1 289 0
 107              	@ 289 "../../os/ports/GCC/ARMCMx/crt0.c" 1
 108 0012 84F31488 		msr     CONTROL, r4
 109              	@ 0 "" 2
 110              		.loc 1 290 0
 111              	@ 290 "../../os/ports/GCC/ARMCMx/crt0.c" 1
 112 0016 BFF36F8F 		isb
 113              	@ 0 "" 2
 114              		.thumb
 115              	.LBB2:
 116              		.loc 1 294 0
 117 001a 40F20004 		movw	r4, #:lower16:__main_stack_base__
 118 001e C0F20004 		movt	r4, #:upper16:__main_stack_base__
 119 0022 40F20005 		movw	r5, #:lower16:__main_stack_end__
 120 0026 C0F20005 		movt	r5, #:upper16:__main_stack_end__
 121 002a 04E0     		b	.L6
 122              	.L7:
 123              		.loc 1 294 0 is_stmt 0 discriminator 2
 124 002c 4FF05533 		mov	r3, #1431655765
 125 0030 2360     		str	r3, [r4, #0]
 126 0032 04F10404 		add	r4, r4, #4
 127              	.L6:
 128              		.loc 1 294 0 discriminator 1
 129 0036 AC42     		cmp	r4, r5
 130 0038 F8D3     		bcc	.L7
 131              	.LBE2:
 132              	.LBB3:
 133              		.loc 1 297 0 is_stmt 1
 134 003a 40F20004 		movw	r4, #:lower16:__process_stack_base__
 135 003e C0F20004 		movt	r4, #:upper16:__process_stack_base__
 136 0042 40F20005 		movw	r5, #:lower16:__process_stack_end__
 137 0046 C0F20005 		movt	r5, #:upper16:__process_stack_end__
 138 004a 04E0     		b	.L8
 139              	.L9:
 140              		.loc 1 297 0 is_stmt 0 discriminator 2
 141 004c 4FF05533 		mov	r3, #1431655765
 142 0050 2360     		str	r3, [r4, #0]
 143 0052 04F10404 		add	r4, r4, #4
 144              	.L8:
 145              		.loc 1 297 0 discriminator 1
 146 0056 AC42     		cmp	r4, r5
 147 0058 F8D3     		bcc	.L9
 148              	.LBE3:
 149              		.loc 1 303 0 is_stmt 1
 150 005a FFF7FEFF 		bl	__early_init
 151              	.LBB4:
 152              		.loc 1 310 0
 153 005e 40F20005 		movw	r5, #:lower16:_textdata
 154 0062 C0F20005 		movt	r5, #:upper16:_textdata
 155              		.loc 1 311 0
 156 0066 40F20004 		movw	r4, #:lower16:_data
 157 006a C0F20004 		movt	r4, #:upper16:_data
 158              		.loc 1 312 0
 159 006e 05E0     		b	.L10
 160              	.L11:
 161              		.loc 1 313 0
 162 0070 2B68     		ldr	r3, [r5, #0]
ARM GAS  /tmp/ccTnWS6q.s 			page 4


 163 0072 2360     		str	r3, [r4, #0]
 164 0074 04F10404 		add	r4, r4, #4
 165 0078 05F10405 		add	r5, r5, #4
 166              	.L10:
 167              		.loc 1 312 0 discriminator 1
 168 007c 40F20003 		movw	r3, #:lower16:_edata
 169 0080 C0F20003 		movt	r3, #:upper16:_edata
 170 0084 9C42     		cmp	r4, r3
 171 0086 F3D3     		bcc	.L11
 172              	.LBE4:
 173              	.LBB5:
 174              		.loc 1 319 0
 175 0088 40F20004 		movw	r4, #:lower16:_bss_start
 176 008c C0F20004 		movt	r4, #:upper16:_bss_start
 177 0090 40F20005 		movw	r5, #:lower16:_bss_end
 178 0094 C0F20005 		movt	r5, #:upper16:_bss_end
 179 0098 04E0     		b	.L12
 180              	.L13:
 181              		.loc 1 319 0 is_stmt 0 discriminator 2
 182 009a 4FF00003 		mov	r3, #0
 183 009e 2360     		str	r3, [r4, #0]
 184 00a0 04F10404 		add	r4, r4, #4
 185              	.L12:
 186              		.loc 1 319 0 discriminator 1
 187 00a4 AC42     		cmp	r4, r5
 188 00a6 F8D3     		bcc	.L13
 189              	.LBE5:
 190              		.loc 1 323 0 is_stmt 1
 191 00a8 FFF7FEFF 		bl	__late_init
 192              	.LBB6:
 193              		.loc 1 328 0
 194 00ac 40F20004 		movw	r4, #:lower16:__init_array_start
 195 00b0 C0F20004 		movt	r4, #:upper16:__init_array_start
 196              		.loc 1 329 0
 197 00b4 03E0     		b	.L14
 198              	.L15:
 199              		.loc 1 330 0
 200 00b6 2368     		ldr	r3, [r4, #0]
 201 00b8 9847     		blx	r3
 202              		.loc 1 331 0
 203 00ba 04F10404 		add	r4, r4, #4
 204              	.L14:
 205              		.loc 1 329 0 discriminator 1
 206 00be 40F20003 		movw	r3, #:lower16:__init_array_end
 207 00c2 C0F20003 		movt	r3, #:upper16:__init_array_end
 208 00c6 9C42     		cmp	r4, r3
 209 00c8 F5D3     		bcc	.L15
 210              	.LBE6:
 211              		.loc 1 337 0
 212 00ca FFF7FEFF 		bl	main
 213              	.LBB7:
 214              		.loc 1 342 0
 215 00ce 40F20004 		movw	r4, #:lower16:__fini_array_start
 216 00d2 C0F20004 		movt	r4, #:upper16:__fini_array_start
 217              		.loc 1 343 0
 218 00d6 03E0     		b	.L16
 219              	.L17:
ARM GAS  /tmp/ccTnWS6q.s 			page 5


 220              		.loc 1 344 0
 221 00d8 2368     		ldr	r3, [r4, #0]
 222 00da 9847     		blx	r3
 223              		.loc 1 345 0
 224 00dc 04F10404 		add	r4, r4, #4
 225              	.L16:
 226              		.loc 1 343 0 discriminator 1
 227 00e0 40F20003 		movw	r3, #:lower16:__fini_array_end
 228 00e4 C0F20003 		movt	r3, #:upper16:__fini_array_end
 229 00e8 9C42     		cmp	r4, r3
 230 00ea F5D3     		bcc	.L17
 231              	.LBE7:
 232              		.loc 1 351 0
 233 00ec FFF7FEFF 		bl	_default_exit
 234              		.loc 1 352 0
 235              		.cfi_endproc
 236              	.LFE3:
 237              		.size	ResetHandler, .-ResetHandler
 238              		.text
 239              	.Letext0:
 240              		.file 2 "/usr/bin/../lib/gcc/arm-none-eabi/4.7.4/../../../../arm-none-eabi/include/stdint.h"