ARM GAS  /tmp/ccn2y3Yf.s 			page 1


   1              		.syntax unified
   2              		.cpu cortex-m4
   3              		.fpu softvfp
   4              		.eabi_attribute 20, 1
   5              		.eabi_attribute 21, 1
   6              		.eabi_attribute 23, 3
   7              		.eabi_attribute 24, 1
   8              		.eabi_attribute 25, 1
   9              		.eabi_attribute 26, 1
  10              		.eabi_attribute 30, 6
  11              		.eabi_attribute 34, 1
  12              		.eabi_attribute 18, 4
  13              		.thumb
  14              		.file	"hal.c"
  15              		.text
  16              	.Ltext0:
  17              		.cfi_sections	.debug_frame
  18              		.section	.text.halInit,"ax",%progbits
  19              		.align	2
  20              		.p2align 4,,15
  21              		.global	halInit
  22              		.thumb
  23              		.thumb_func
  24              		.type	halInit, %function
  25              	halInit:
  26              	.LFB118:
  27              		.file 1 "../../os/hal/src/hal.c"
  28              		.loc 1 61 0
  29              		.cfi_startproc
  30              		@ args = 0, pretend = 0, frame = 0
  31              		@ frame_needed = 0, uses_anonymous_args = 0
  32 0000 08B5     		push	{r3, lr}
  33              	.LCFI0:
  34              		.cfi_def_cfa_offset 8
  35              		.cfi_offset 3, -8
  36              		.cfi_offset 14, -4
  37              		.loc 1 63 0
  38 0002 FFF7FEFF 		bl	hal_lld_init
  39              		.loc 1 69 0
  40 0006 40F20000 		movw	r0, #:lower16:pal_default_config
  41 000a C0F20000 		movt	r0, #:upper16:pal_default_config
  42 000e FFF7FEFF 		bl	_pal_lld_init
  43              		.loc 1 93 0
  44 0012 FFF7FEFF 		bl	pwmInit
  45              		.loc 1 96 0
  46 0016 FFF7FEFF 		bl	sdInit
  47              		.loc 1 102 0
  48 001a FFF7FEFF 		bl	spiInit
  49              		.loc 1 108 0
  50 001e FFF7FEFF 		bl	usbInit
  51              		.loc 1 114 0
  52 0022 FFF7FEFF 		bl	sduInit
  53              		.loc 1 120 0
  54 0026 FFF7FEFF 		bl	boardInit
  55              		.loc 1 121 0
  56 002a 08BD     		pop	{r3, pc}
  57              		.cfi_endproc
ARM GAS  /tmp/ccn2y3Yf.s 			page 2


  58              	.LFE118:
  59              		.size	halInit, .-halInit
  60 002c AFF30080 		.section	.text.halIsCounterWithin,"ax",%progbits
  61              		.align	2
  62              		.p2align 4,,15
  63              		.global	halIsCounterWithin
  64              		.thumb
  65              		.thumb_func
  66              		.type	halIsCounterWithin, %function
  67              	halIsCounterWithin:
  68              	.LFB119:
  69              		.loc 1 167 0
  70              		.cfi_startproc
  71              		@ args = 0, pretend = 0, frame = 16
  72              		@ frame_needed = 0, uses_anonymous_args = 0
  73              		@ link register save eliminated.
  74 0000 84B0     		sub	sp, sp, #16
  75              	.LCFI1:
  76              		.cfi_def_cfa_offset 16
  77 0002 0190     		str	r0, [sp, #4]
  78 0004 0091     		str	r1, [sp, #0]
  79              		.loc 1 168 0
  80 0006 4FF48053 		mov	r3, #4096
  81 000a CEF20003 		movt	r3, 57344
  82 000e 5B68     		ldr	r3, [r3, #4]
  83 0010 0393     		str	r3, [sp, #12]
  84              		.loc 1 170 0
  85 0012 009A     		ldr	r2, [sp, #0]
  86 0014 019B     		ldr	r3, [sp, #4]
  87 0016 9A42     		cmp	r2, r3
  88 0018 10D9     		bls	.L3
  89              		.loc 1 170 0 is_stmt 0 discriminator 1
  90 001a 039A     		ldr	r2, [sp, #12]
  91 001c 019B     		ldr	r3, [sp, #4]
  92 001e 9A42     		cmp	r2, r3
  93 0020 06D3     		bcc	.L4
  94 0022 039A     		ldr	r2, [sp, #12]
  95 0024 009B     		ldr	r3, [sp, #0]
  96 0026 9A42     		cmp	r2, r3
  97 0028 02D2     		bcs	.L4
  98              		.loc 1 170 0 discriminator 3
  99 002a 4FF00103 		mov	r3, #1
 100 002e 01E0     		b	.L5
 101              	.L4:
 102              		.loc 1 170 0 discriminator 2
 103 0030 4FF00003 		mov	r3, #0
 104              	.L5:
 105              		.loc 1 170 0 discriminator 4
 106 0034 03F00103 		and	r3, r3, #1
 107 0038 DBB2     		uxtb	r3, r3
 108 003a 0FE0     		b	.L6
 109              	.L3:
 110              		.loc 1 171 0 is_stmt 1
 111 003c 039A     		ldr	r2, [sp, #12]
 112 003e 019B     		ldr	r3, [sp, #4]
 113 0040 9A42     		cmp	r2, r3
 114 0042 03D2     		bcs	.L7
ARM GAS  /tmp/ccn2y3Yf.s 			page 3


 115              		.loc 1 171 0 is_stmt 0 discriminator 2
 116 0044 039A     		ldr	r2, [sp, #12]
 117 0046 009B     		ldr	r3, [sp, #0]
 118 0048 9A42     		cmp	r2, r3
 119 004a 02D2     		bcs	.L8
 120              	.L7:
 121              		.loc 1 171 0 discriminator 1
 122 004c 4FF00103 		mov	r3, #1
 123 0050 01E0     		b	.L9
 124              	.L8:
 125              		.loc 1 171 0 discriminator 3
 126 0052 4FF00003 		mov	r3, #0
 127              	.L9:
 128              		.loc 1 170 0 is_stmt 1
 129 0056 03F00103 		and	r3, r3, #1
 130 005a DBB2     		uxtb	r3, r3
 131              	.L6:
 132              		.loc 1 172 0 discriminator 2
 133 005c 1846     		mov	r0, r3
 134 005e 04B0     		add	sp, sp, #16
 135 0060 7047     		bx	lr
 136              		.cfi_endproc
 137              	.LFE119:
 138              		.size	halIsCounterWithin, .-halIsCounterWithin
 139 0062 00BFAFF3 		.section	.text.halPolledDelay,"ax",%progbits
 139      0080AFF3 
 139      0080AFF3 
 139      0080
 140              		.align	2
 141              		.p2align 4,,15
 142              		.global	halPolledDelay
 143              		.thumb
 144              		.thumb_func
 145              		.type	halPolledDelay, %function
 146              	halPolledDelay:
 147              	.LFB120:
 148              		.loc 1 186 0
 149              		.cfi_startproc
 150              		@ args = 0, pretend = 0, frame = 16
 151              		@ frame_needed = 0, uses_anonymous_args = 0
 152 0000 00B5     		push	{lr}
 153              	.LCFI2:
 154              		.cfi_def_cfa_offset 4
 155              		.cfi_offset 14, -4
 156 0002 85B0     		sub	sp, sp, #20
 157              	.LCFI3:
 158              		.cfi_def_cfa_offset 24
 159 0004 0190     		str	r0, [sp, #4]
 160              		.loc 1 187 0
 161 0006 4FF48053 		mov	r3, #4096
 162 000a CEF20003 		movt	r3, 57344
 163 000e 5B68     		ldr	r3, [r3, #4]
 164 0010 0393     		str	r3, [sp, #12]
 165              		.loc 1 188 0
 166 0012 039A     		ldr	r2, [sp, #12]
 167 0014 019B     		ldr	r3, [sp, #4]
 168 0016 D318     		adds	r3, r2, r3
ARM GAS  /tmp/ccn2y3Yf.s 			page 4


 169 0018 0293     		str	r3, [sp, #8]
 170              		.loc 1 189 0
 171 001a 00BF     		nop
 172              	.L12:
 173              		.loc 1 189 0 is_stmt 0 discriminator 1
 174 001c 0398     		ldr	r0, [sp, #12]
 175 001e 0299     		ldr	r1, [sp, #8]
 176 0020 FFF7FEFF 		bl	halIsCounterWithin
 177 0024 0346     		mov	r3, r0
 178 0026 002B     		cmp	r3, #0
 179 0028 F8D1     		bne	.L12
 180              		.loc 1 191 0 is_stmt 1
 181 002a 05B0     		add	sp, sp, #20
 182 002c 00BD     		pop	{pc}
 183              		.cfi_endproc
 184              	.LFE120:
 185              		.size	halPolledDelay, .-halPolledDelay
 186 002e 00BF     		.text
 187              	.Letext0:
 188              		.file 2 "/usr/bin/../lib/gcc/arm-none-eabi/4.7.4/../../../../arm-none-eabi/include/stdint.h"
 189              		.file 3 "../../os/ports/GCC/ARMCMx/chtypes.h"
 190              		.file 4 "../../os/ports/common/ARMCMx/nvic.h"
 191              		.file 5 "../../os/hal/platforms/STM32F4xx/hal_lld.h"
 192              		.file 6 "../../os/hal/platforms/STM32/GPIOv2/pal_lld.h"
 193              		.file 7 "../../os/ports/common/ARMCMx/CMSIS/include/core_cm4.h"