ARM GAS  /tmp/ccR7rGjI.s 			page 1


   1              		.syntax unified
   2              		.cpu cortex-m4
   3              		.fpu softvfp
   4              		.eabi_attribute 20, 1
   5              		.eabi_attribute 21, 1
   6              		.eabi_attribute 23, 3
   7              		.eabi_attribute 24, 1
   8              		.eabi_attribute 25, 1
   9              		.eabi_attribute 26, 1
  10              		.eabi_attribute 30, 6
  11              		.eabi_attribute 34, 1
  12              		.eabi_attribute 18, 4
  13              		.thumb
  14              		.file	"hal_lld.c"
  15              		.text
  16              	.Ltext0:
  17              		.cfi_sections	.debug_frame
  18              		.section	.text.hal_lld_backup_domain_init,"ax",%progbits
  19              		.align	2
  20              		.p2align 4,,15
  21              		.thumb
  22              		.thumb_func
  23              		.type	hal_lld_backup_domain_init, %function
  24              	hal_lld_backup_domain_init:
  25              	.LFB118:
  26              		.file 1 "../../os/hal/platforms/STM32F4xx/hal_lld.c"
  27              		.loc 1 51 0
  28              		.cfi_startproc
  29              		@ args = 0, pretend = 0, frame = 0
  30              		@ frame_needed = 0, uses_anonymous_args = 0
  31              		@ link register save eliminated.
  32              		.loc 1 54 0
  33 0000 4FF4E043 		mov	r3, #28672
  34 0004 C4F20003 		movt	r3, 16384
  35 0008 4FF4E042 		mov	r2, #28672
  36 000c C4F20002 		movt	r2, 16384
  37 0010 1268     		ldr	r2, [r2, #0]
  38 0012 42F48072 		orr	r2, r2, #256
  39 0016 1A60     		str	r2, [r3, #0]
  40              		.loc 1 84 0
  41 0018 4FF4E043 		mov	r3, #28672
  42 001c C4F20003 		movt	r3, 16384
  43 0020 4FF4E042 		mov	r2, #28672
  44 0024 C4F20002 		movt	r2, 16384
  45 0028 5268     		ldr	r2, [r2, #4]
  46 002a 22F40072 		bic	r2, r2, #512
  47 002e 5A60     		str	r2, [r3, #4]
  48              		.loc 1 86 0
  49 0030 7047     		bx	lr
  50              		.cfi_endproc
  51              	.LFE118:
  52              		.size	hal_lld_backup_domain_init, .-hal_lld_backup_domain_init
  53 0032 00BFAFF3 		.section	.text.hal_lld_init,"ax",%progbits
  53      0080AFF3 
  53      0080AFF3 
  53      0080
  54              		.align	2
ARM GAS  /tmp/ccR7rGjI.s 			page 2


  55              		.p2align 4,,15
  56              		.global	hal_lld_init
  57              		.thumb
  58              		.thumb_func
  59              		.type	hal_lld_init, %function
  60              	hal_lld_init:
  61              	.LFB119:
  62              		.loc 1 101 0
  63              		.cfi_startproc
  64              		@ args = 0, pretend = 0, frame = 0
  65              		@ frame_needed = 0, uses_anonymous_args = 0
  66 0000 08B5     		push	{r3, lr}
  67              	.LCFI0:
  68              		.cfi_def_cfa_offset 8
  69              		.cfi_offset 3, -8
  70              		.cfi_offset 14, -4
  71              		.loc 1 105 0
  72 0002 4FF46053 		mov	r3, #14336
  73 0006 C4F20203 		movt	r3, 16386
  74 000a 1B69     		ldr	r3, [r3, #16]
  75 000c 4FF46053 		mov	r3, #14336
  76 0010 C4F20203 		movt	r3, 16386
  77 0014 4FF0FF32 		mov	r2, #-1
  78 0018 1A61     		str	r2, [r3, #16]
  79 001a 4FF46053 		mov	r3, #14336
  80 001e C4F20203 		movt	r3, 16386
  81 0022 4FF00002 		mov	r2, #0
  82 0026 1A61     		str	r2, [r3, #16]
  83              		.loc 1 106 0
  84 0028 4FF46053 		mov	r3, #14336
  85 002c C4F20203 		movt	r3, 16386
  86 0030 5B69     		ldr	r3, [r3, #20]
  87 0032 4FF46053 		mov	r3, #14336
  88 0036 C4F20203 		movt	r3, 16386
  89 003a 4FF0FF32 		mov	r2, #-1
  90 003e 5A61     		str	r2, [r3, #20]
  91 0040 4FF46053 		mov	r3, #14336
  92 0044 C4F20203 		movt	r3, 16386
  93 0048 4FF00002 		mov	r2, #0
  94 004c 5A61     		str	r2, [r3, #20]
  95              		.loc 1 107 0
  96 004e 4FF46053 		mov	r3, #14336
  97 0052 C4F20203 		movt	r3, 16386
  98 0056 4FF46052 		mov	r2, #14336
  99 005a C4F20202 		movt	r2, 16386
 100 005e 126A     		ldr	r2, [r2, #32]
 101 0060 62F08052 		orn	r2, r2, #268435456
 102 0064 1A62     		str	r2, [r3, #32]
 103 0066 4FF46053 		mov	r3, #14336
 104 006a C4F20203 		movt	r3, 16386
 105 006e 4FF00002 		mov	r2, #0
 106 0072 1A62     		str	r2, [r3, #32]
 107              		.loc 1 108 0
 108 0074 4FF46053 		mov	r3, #14336
 109 0078 C4F20203 		movt	r3, 16386
 110 007c 5B6A     		ldr	r3, [r3, #36]
 111 007e 4FF46053 		mov	r3, #14336
ARM GAS  /tmp/ccR7rGjI.s 			page 3


 112 0082 C4F20203 		movt	r3, 16386
 113 0086 4FF0FF32 		mov	r2, #-1
 114 008a 5A62     		str	r2, [r3, #36]
 115 008c 4FF46053 		mov	r3, #14336
 116 0090 C4F20203 		movt	r3, 16386
 117 0094 4FF00002 		mov	r2, #0
 118 0098 5A62     		str	r2, [r3, #36]
 119              		.loc 1 111 0
 120 009a 4EF21003 		movw	r3, #57360
 121 009e CEF20003 		movt	r3, 57344
 122 00a2 49F23F02 		movw	r2, #36927
 123 00a6 C0F20202 		movt	r2, 2
 124 00aa 5A60     		str	r2, [r3, #4]
 125              		.loc 1 112 0
 126 00ac 4EF21003 		movw	r3, #57360
 127 00b0 CEF20003 		movt	r3, 57344
 128 00b4 4FF00002 		mov	r2, #0
 129 00b8 9A60     		str	r2, [r3, #8]
 130              		.loc 1 113 0
 131 00ba 4EF21003 		movw	r3, #57360
 132 00be CEF20003 		movt	r3, 57344
 133 00c2 4FF00702 		mov	r2, #7
 134 00c6 1A60     		str	r2, [r3, #0]
 135              		.loc 1 118 0
 136 00c8 4EF6F053 		movw	r3, #60912
 137 00cc CEF20003 		movt	r3, 57344
 138 00d0 4EF6F052 		movw	r2, #60912
 139 00d4 CEF20002 		movt	r2, 57344
 140 00d8 D268     		ldr	r2, [r2, #12]
 141 00da 42F08072 		orr	r2, r2, #16777216
 142 00de DA60     		str	r2, [r3, #12]
 143              		.loc 1 119 0
 144 00e0 4FF48053 		mov	r3, #4096
 145 00e4 CEF20003 		movt	r3, 57344
 146 00e8 4FF48052 		mov	r2, #4096
 147 00ec CEF20002 		movt	r2, 57344
 148 00f0 1268     		ldr	r2, [r2, #0]
 149 00f2 42F00102 		orr	r2, r2, #1
 150 00f6 1A60     		str	r2, [r3, #0]
 151              		.loc 1 122 0
 152 00f8 4FF46053 		mov	r3, #14336
 153 00fc C4F20203 		movt	r3, 16386
 154 0100 4FF46052 		mov	r2, #14336
 155 0104 C4F20202 		movt	r2, 16386
 156 0108 126C     		ldr	r2, [r2, #64]
 157 010a 42F08052 		orr	r2, r2, #268435456
 158 010e 1A64     		str	r2, [r3, #64]
 159              		.loc 1 125 0
 160 0110 FFF7FEFF 		bl	hal_lld_backup_domain_init
 161              		.loc 1 128 0
 162 0114 FFF7FEFF 		bl	dmaInit
 163              		.loc 1 135 0
 164 0118 08BD     		pop	{r3, pc}
 165              		.cfi_endproc
 166              	.LFE119:
 167              		.size	hal_lld_init, .-hal_lld_init
 168 011a 00BFAFF3 		.section	.text.stm32_clock_init,"ax",%progbits
ARM GAS  /tmp/ccR7rGjI.s 			page 4


 168      0080
 169              		.align	2
 170              		.p2align 4,,15
 171              		.global	stm32_clock_init
 172              		.thumb
 173              		.thumb_func
 174              		.type	stm32_clock_init, %function
 175              	stm32_clock_init:
 176              	.LFB120:
 177              		.loc 1 144 0
 178              		.cfi_startproc
 179              		@ args = 0, pretend = 0, frame = 0
 180              		@ frame_needed = 0, uses_anonymous_args = 0
 181              		@ link register save eliminated.
 182              		.loc 1 148 0
 183 0000 4FF46053 		mov	r3, #14336
 184 0004 C4F20203 		movt	r3, 16386
 185 0008 4FF08052 		mov	r2, #268435456
 186 000c 1A64     		str	r2, [r3, #64]
 187              		.loc 1 152 0
 188 000e 4FF4E043 		mov	r3, #28672
 189 0012 C4F20003 		movt	r3, 16384
 190 0016 4FF48042 		mov	r2, #16384
 191 001a 1A60     		str	r2, [r3, #0]
 192              		.loc 1 153 0
 193 001c 00BF     		nop
 194              	.L4:
 195              		.loc 1 153 0 is_stmt 0 discriminator 1
 196 001e 4FF4E043 		mov	r3, #28672
 197 0022 C4F20003 		movt	r3, 16384
 198 0026 5B68     		ldr	r3, [r3, #4]
 199 0028 03F48043 		and	r3, r3, #16384
 200 002c 002B     		cmp	r3, #0
 201 002e F6D0     		beq	.L4
 202              		.loc 1 161 0 is_stmt 1
 203 0030 4FF46053 		mov	r3, #14336
 204 0034 C4F20203 		movt	r3, 16386
 205 0038 4FF46052 		mov	r2, #14336
 206 003c C4F20202 		movt	r2, 16386
 207 0040 1268     		ldr	r2, [r2, #0]
 208 0042 42F00102 		orr	r2, r2, #1
 209 0046 1A60     		str	r2, [r3, #0]
 210              		.loc 1 162 0
 211 0048 00BF     		nop
 212              	.L5:
 213              		.loc 1 162 0 is_stmt 0 discriminator 1
 214 004a 4FF46053 		mov	r3, #14336
 215 004e C4F20203 		movt	r3, 16386
 216 0052 1B68     		ldr	r3, [r3, #0]
 217 0054 03F00203 		and	r3, r3, #2
 218 0058 002B     		cmp	r3, #0
 219 005a F6D0     		beq	.L5
 220              		.loc 1 172 0 is_stmt 1
 221 005c 4FF46053 		mov	r3, #14336
 222 0060 C4F20203 		movt	r3, 16386
 223 0064 4FF46052 		mov	r2, #14336
 224 0068 C4F20202 		movt	r2, 16386
ARM GAS  /tmp/ccR7rGjI.s 			page 5


 225 006c 1268     		ldr	r2, [r2, #0]
 226 006e 42F48032 		orr	r2, r2, #65536
 227 0072 1A60     		str	r2, [r3, #0]
 228              		.loc 1 174 0
 229 0074 00BF     		nop
 230              	.L6:
 231              		.loc 1 174 0 is_stmt 0 discriminator 1
 232 0076 4FF46053 		mov	r3, #14336
 233 007a C4F20203 		movt	r3, 16386
 234 007e 1B68     		ldr	r3, [r3, #0]
 235 0080 03F40033 		and	r3, r3, #131072
 236 0084 002B     		cmp	r3, #0
 237 0086 F6D0     		beq	.L6
 238              		.loc 1 180 0 is_stmt 1
 239 0088 4FF46053 		mov	r3, #14336
 240 008c C4F20203 		movt	r3, 16386
 241 0090 4FF46052 		mov	r2, #14336
 242 0094 C4F20202 		movt	r2, 16386
 243 0098 526F     		ldr	r2, [r2, #116]
 244 009a 42F00102 		orr	r2, r2, #1
 245 009e 5A67     		str	r2, [r3, #116]
 246              		.loc 1 181 0
 247 00a0 00BF     		nop
 248              	.L7:
 249              		.loc 1 181 0 is_stmt 0 discriminator 1
 250 00a2 4FF46053 		mov	r3, #14336
 251 00a6 C4F20203 		movt	r3, 16386
 252 00aa 5B6F     		ldr	r3, [r3, #116]
 253 00ac 03F00203 		and	r3, r3, #2
 254 00b0 002B     		cmp	r3, #0
 255 00b2 F6D0     		beq	.L7
 256              		.loc 1 198 0 is_stmt 1
 257 00b4 4FF46053 		mov	r3, #14336
 258 00b8 C4F20203 		movt	r3, 16386
 259 00bc 45F20842 		movw	r2, #21512
 260 00c0 C0F24072 		movt	r2, 1856
 261 00c4 5A60     		str	r2, [r3, #4]
 262              		.loc 1 200 0
 263 00c6 4FF46053 		mov	r3, #14336
 264 00ca C4F20203 		movt	r3, 16386
 265 00ce 4FF46052 		mov	r2, #14336
 266 00d2 C4F20202 		movt	r2, 16386
 267 00d6 1268     		ldr	r2, [r2, #0]
 268 00d8 42F08072 		orr	r2, r2, #16777216
 269 00dc 1A60     		str	r2, [r3, #0]
 270              		.loc 1 201 0
 271 00de 00BF     		nop
 272              	.L8:
 273              		.loc 1 201 0 is_stmt 0 discriminator 1
 274 00e0 4FF46053 		mov	r3, #14336
 275 00e4 C4F20203 		movt	r3, 16386
 276 00e8 1B68     		ldr	r3, [r3, #0]
 277 00ea 03F00073 		and	r3, r3, #33554432
 278 00ee 002B     		cmp	r3, #0
 279 00f0 F6D0     		beq	.L8
 280              		.loc 1 214 0 is_stmt 1
 281 00f2 4FF46052 		mov	r2, #14336
ARM GAS  /tmp/ccR7rGjI.s 			page 6


 282 00f6 C4F20202 		movt	r2, 16386
 283 00fa 4FF46053 		mov	r3, #14336
 284 00fe C4F20203 		movt	r3, 16386
 285 0102 9968     		ldr	r1, [r3, #8]
 286 0104 4FF41443 		mov	r3, #37888
 287 0108 C3F60803 		movt	r3, 14344
 288 010c 0B43     		orrs	r3, r3, r1
 289 010e 9360     		str	r3, [r2, #8]
 290              		.loc 1 227 0
 291 0110 4FF47053 		mov	r3, #15360
 292 0114 C4F20203 		movt	r3, 16386
 293 0118 40F20572 		movw	r2, #1797
 294 011c 1A60     		str	r2, [r3, #0]
 295              		.loc 1 233 0
 296 011e 4FF46053 		mov	r3, #14336
 297 0122 C4F20203 		movt	r3, 16386
 298 0126 4FF46052 		mov	r2, #14336
 299 012a C4F20202 		movt	r2, 16386
 300 012e 9268     		ldr	r2, [r2, #8]
 301 0130 42F00202 		orr	r2, r2, #2
 302 0134 9A60     		str	r2, [r3, #8]
 303              		.loc 1 234 0
 304 0136 00BF     		nop
 305              	.L9:
 306              		.loc 1 234 0 is_stmt 0 discriminator 1
 307 0138 4FF46053 		mov	r3, #14336
 308 013c C4F20203 		movt	r3, 16386
 309 0140 9B68     		ldr	r3, [r3, #8]
 310 0142 03F00C03 		and	r3, r3, #12
 311 0146 082B     		cmp	r3, #8
 312 0148 F6D1     		bne	.L9
 313              		.loc 1 241 0 is_stmt 1
 314 014a 4FF46053 		mov	r3, #14336
 315 014e C4F20203 		movt	r3, 16386
 316 0152 4FF46052 		mov	r2, #14336
 317 0156 C4F20202 		movt	r2, 16386
 318 015a 526C     		ldr	r2, [r2, #68]
 319 015c 42F48042 		orr	r2, r2, #16384
 320 0160 5A64     		str	r2, [r3, #68]
 321 0162 4FF46053 		mov	r3, #14336
 322 0166 C4F20203 		movt	r3, 16386
 323 016a 4FF46052 		mov	r2, #14336
 324 016e C4F20202 		movt	r2, 16386
 325 0172 526E     		ldr	r2, [r2, #100]
 326 0174 42F48042 		orr	r2, r2, #16384
 327 0178 5A66     		str	r2, [r3, #100]
 328              		.loc 1 242 0
 329 017a 7047     		bx	lr
 330              		.cfi_endproc
 331              	.LFE120:
 332              		.size	stm32_clock_init, .-stm32_clock_init
 333 017c AFF30080 		.text
 334              	.Letext0:
 335              		.file 2 "/usr/bin/../lib/gcc/arm-none-eabi/4.7.4/../../../../arm-none-eabi/include/stdint.h"
 336              		.file 3 "../../os/ports/common/ARMCMx/nvic.h"
 337              		.file 4 "../../os/ports/common/ARMCMx/CMSIS/include/core_cm4.h"
 338              		.file 5 "../../os/hal/platforms/STM32F4xx/stm32f4xx.h"
ARM GAS  /tmp/ccR7rGjI.s 			page 7

