ARM GAS  /tmp/ccPMjPDN.s 			page 1


   1              		.syntax unified
   2              		.cpu cortex-m4
   3              		.fpu softvfp
   4              		.eabi_attribute 20, 1
   5              		.eabi_attribute 21, 1
   6              		.eabi_attribute 23, 3
   7              		.eabi_attribute 24, 1
   8              		.eabi_attribute 25, 1
   9              		.eabi_attribute 26, 1
  10              		.eabi_attribute 30, 6
  11              		.eabi_attribute 34, 1
  12              		.eabi_attribute 18, 4
  13              		.thumb
  14              		.file	"main.c"
  15              		.text
  16              	.Ltext0:
  17              		.cfi_sections	.debug_frame
  18              		.section	.bss.SDU1,"aw",%nobits
  19              		.align	2
  20              		.type	SDU1, %object
  21              		.size	SDU1, 600
  22              	SDU1:
  23 0000 00000000 		.space	600
  23      00000000 
  23      00000000 
  23      00000000 
  23      00000000 
  24              		.section	.rodata
  25              		.align	2
  26              	.LC0:
  27 0000 55736167 		.ascii	"Usage: mem\015\012\000"
  27      653A206D 
  27      656D0D0A 
  27      00
  28 000d 000000   		.align	2
  29              	.LC1:
  30 0010 636F7265 		.ascii	"core free memory : %u bytes\015\012\000"
  30      20667265 
  30      65206D65 
  30      6D6F7279 
  30      203A2025 
  31 002e 0000     		.align	2
  32              	.LC2:
  33 0030 68656170 		.ascii	"heap fragments   : %u\015\012\000"
  33      20667261 
  33      676D656E 
  33      74732020 
  33      203A2025 
  34              		.align	2
  35              	.LC3:
  36 0048 68656170 		.ascii	"heap free total  : %u bytes\015\012\000"
  36      20667265 
  36      6520746F 
  36      74616C20 
  36      203A2025 
  37              		.section	.text.cmd_mem,"ax",%progbits
  38              		.align	2
ARM GAS  /tmp/ccPMjPDN.s 			page 2


  39              		.p2align 4,,15
  40              		.thumb
  41              		.thumb_func
  42              		.type	cmd_mem, %function
  43              	cmd_mem:
  44              	.LFB118:
  45              		.file 1 "main.c"
  46              		.loc 1 50 0
  47              		.cfi_startproc
  48              		@ args = 0, pretend = 0, frame = 24
  49              		@ frame_needed = 0, uses_anonymous_args = 0
  50 0000 00B5     		push	{lr}
  51              	.LCFI0:
  52              		.cfi_def_cfa_offset 4
  53              		.cfi_offset 14, -4
  54 0002 87B0     		sub	sp, sp, #28
  55              	.LCFI1:
  56              		.cfi_def_cfa_offset 32
  57 0004 0390     		str	r0, [sp, #12]
  58 0006 0291     		str	r1, [sp, #8]
  59 0008 0192     		str	r2, [sp, #4]
  60              		.loc 1 54 0
  61 000a 029B     		ldr	r3, [sp, #8]
  62 000c 002B     		cmp	r3, #0
  63 000e 07DD     		ble	.L2
  64              		.loc 1 55 0
  65 0010 0398     		ldr	r0, [sp, #12]
  66 0012 40F20001 		movw	r1, #:lower16:.LC0
  67 0016 C0F20001 		movt	r1, #:upper16:.LC0
  68 001a FFF7FEFF 		bl	chprintf
  69 001e 22E0     		b	.L1
  70              	.L2:
  71              		.loc 1 58 0
  72 0020 04AB     		add	r3, sp, #16
  73 0022 4FF00000 		mov	r0, #0
  74 0026 1946     		mov	r1, r3
  75 0028 FFF7FEFF 		bl	chHeapStatus
  76 002c 0590     		str	r0, [sp, #20]
  77              		.loc 1 59 0
  78 002e FFF7FEFF 		bl	chCoreStatus
  79 0032 0346     		mov	r3, r0
  80 0034 0398     		ldr	r0, [sp, #12]
  81 0036 40F20001 		movw	r1, #:lower16:.LC1
  82 003a C0F20001 		movt	r1, #:upper16:.LC1
  83 003e 1A46     		mov	r2, r3
  84 0040 FFF7FEFF 		bl	chprintf
  85              		.loc 1 60 0
  86 0044 0398     		ldr	r0, [sp, #12]
  87 0046 40F20001 		movw	r1, #:lower16:.LC2
  88 004a C0F20001 		movt	r1, #:upper16:.LC2
  89 004e 059A     		ldr	r2, [sp, #20]
  90 0050 FFF7FEFF 		bl	chprintf
  91              		.loc 1 61 0
  92 0054 049B     		ldr	r3, [sp, #16]
  93 0056 0398     		ldr	r0, [sp, #12]
  94 0058 40F20001 		movw	r1, #:lower16:.LC3
  95 005c C0F20001 		movt	r1, #:upper16:.LC3
ARM GAS  /tmp/ccPMjPDN.s 			page 3


  96 0060 1A46     		mov	r2, r3
  97 0062 FFF7FEFF 		bl	chprintf
  98              	.L1:
  99              		.loc 1 62 0
 100 0066 07B0     		add	sp, sp, #28
 101 0068 00BD     		pop	{pc}
 102              		.cfi_endproc
 103              	.LFE118:
 104              		.size	cmd_mem, .-cmd_mem
 105 006a 00BFAFF3 		.section	.rodata
 105      0080
 106 0066 0000     		.align	2
 107              	.LC4:
 108 0068 55736167 		.ascii	"Usage: threads\015\012\000"
 108      653A2074 
 108      68726561 
 108      64730D0A 
 108      00
 109 0079 000000   		.align	2
 110              	.LC5:
 111 007c 20202020 		.ascii	"    addr    stack prio refs     state time\015\012\000"
 111      61646472 
 111      20202020 
 111      73746163 
 111      6B207072 
 112 00a9 000000   		.align	2
 113              	.LC6:
 114 00ac 252E386C 		.ascii	"%.8lx %.8lx %4lu %4lu %9s %lu\015\012\000"
 114      7820252E 
 114      386C7820 
 114      25346C75 
 114      2025346C 
 115              		.section	.text.cmd_threads,"ax",%progbits
 116              		.align	2
 117              		.p2align 4,,15
 118              		.thumb
 119              		.thumb_func
 120              		.type	cmd_threads, %function
 121              	cmd_threads:
 122              	.LFB119:
 123              		.loc 1 64 0
 124              		.cfi_startproc
 125              		@ args = 0, pretend = 0, frame = 24
 126              		@ frame_needed = 0, uses_anonymous_args = 0
 127 0000 30B5     		push	{r4, r5, lr}
 128              	.LCFI2:
 129              		.cfi_def_cfa_offset 12
 130              		.cfi_offset 4, -12
 131              		.cfi_offset 5, -8
 132              		.cfi_offset 14, -4
 133 0002 8BB0     		sub	sp, sp, #44
 134              	.LCFI3:
 135              		.cfi_def_cfa_offset 56
 136 0004 0790     		str	r0, [sp, #28]
 137 0006 0691     		str	r1, [sp, #24]
 138 0008 0592     		str	r2, [sp, #20]
 139              		.loc 1 69 0
ARM GAS  /tmp/ccPMjPDN.s 			page 4


 140 000a 069B     		ldr	r3, [sp, #24]
 141 000c 002B     		cmp	r3, #0
 142 000e 07DD     		ble	.L5
 143              		.loc 1 70 0
 144 0010 0798     		ldr	r0, [sp, #28]
 145 0012 40F20001 		movw	r1, #:lower16:.LC4
 146 0016 C0F20001 		movt	r1, #:upper16:.LC4
 147 001a FFF7FEFF 		bl	chprintf
 148              		.loc 1 71 0
 149 001e 34E0     		b	.L4
 150              	.L5:
 151              		.loc 1 73 0
 152 0020 0798     		ldr	r0, [sp, #28]
 153 0022 40F20001 		movw	r1, #:lower16:.LC5
 154 0026 C0F20001 		movt	r1, #:upper16:.LC5
 155 002a FFF7FEFF 		bl	chprintf
 156              		.loc 1 74 0
 157 002e FFF7FEFF 		bl	chRegFirstThread
 158 0032 0990     		str	r0, [sp, #36]
 159              	.L7:
 160              		.loc 1 76 0 discriminator 1
 161 0034 099A     		ldr	r2, [sp, #36]
 162              		.loc 1 77 0 discriminator 1
 163 0036 099B     		ldr	r3, [sp, #36]
 164 0038 DB68     		ldr	r3, [r3, #12]
 165              		.loc 1 76 0 discriminator 1
 166 003a 1C46     		mov	r4, r3
 167              		.loc 1 78 0 discriminator 1
 168 003c 099B     		ldr	r3, [sp, #36]
 169              		.loc 1 76 0 discriminator 1
 170 003e 9D68     		ldr	r5, [r3, #8]
 171              		.loc 1 78 0 discriminator 1
 172 0040 099B     		ldr	r3, [sp, #36]
 173 0042 93F82230 		ldrb	r3, [r3, #34]	@ zero_extendqisi2
 174 0046 03F1FF33 		add	r3, r3, #-1
 175              		.loc 1 76 0 discriminator 1
 176 004a 1846     		mov	r0, r3
 177              		.loc 1 79 0 discriminator 1
 178 004c 099B     		ldr	r3, [sp, #36]
 179 004e 93F82030 		ldrb	r3, [r3, #32]	@ zero_extendqisi2
 180              		.loc 1 76 0 discriminator 1
 181 0052 1946     		mov	r1, r3
 182 0054 40F20003 		movw	r3, #:lower16:states.9281
 183 0058 C0F20003 		movt	r3, #:upper16:states.9281
 184 005c 53F82110 		ldr	r1, [r3, r1, lsl #2]
 185              		.loc 1 79 0 discriminator 1
 186 0060 099B     		ldr	r3, [sp, #36]
 187              		.loc 1 76 0 discriminator 1
 188 0062 5B6A     		ldr	r3, [r3, #36]
 189 0064 0095     		str	r5, [sp, #0]
 190 0066 0190     		str	r0, [sp, #4]
 191 0068 0291     		str	r1, [sp, #8]
 192 006a 0393     		str	r3, [sp, #12]
 193 006c 0798     		ldr	r0, [sp, #28]
 194 006e 40F20001 		movw	r1, #:lower16:.LC6
 195 0072 C0F20001 		movt	r1, #:upper16:.LC6
 196 0076 2346     		mov	r3, r4
ARM GAS  /tmp/ccPMjPDN.s 			page 5


 197 0078 FFF7FEFF 		bl	chprintf
 198              		.loc 1 80 0 discriminator 1
 199 007c 0998     		ldr	r0, [sp, #36]
 200 007e FFF7FEFF 		bl	chRegNextThread
 201 0082 0990     		str	r0, [sp, #36]
 202              		.loc 1 81 0 discriminator 1
 203 0084 099B     		ldr	r3, [sp, #36]
 204 0086 002B     		cmp	r3, #0
 205 0088 D4D1     		bne	.L7
 206              	.L4:
 207              		.loc 1 82 0
 208 008a 0BB0     		add	sp, sp, #44
 209 008c 30BD     		pop	{r4, r5, pc}
 210              		.cfi_endproc
 211              	.LFE119:
 212              		.size	cmd_threads, .-cmd_threads
 213 008e 00BF     		.section	.rodata
 214              		.align	2
 215              	.LC7:
 216 00cc 55736167 		.ascii	"Usage: test\015\012\000"
 216      653A2074 
 216      6573740D 
 216      0A00
 217 00da 0000     		.align	2
 218              	.LC8:
 219 00dc 6F757420 		.ascii	"out of memory\015\012\000"
 219      6F66206D 
 219      656D6F72 
 219      790D0A00 
 220              		.section	.text.cmd_test,"ax",%progbits
 221              		.align	2
 222              		.p2align 4,,15
 223              		.thumb
 224              		.thumb_func
 225              		.type	cmd_test, %function
 226              	cmd_test:
 227              	.LFB120:
 228              		.loc 1 84 0
 229              		.cfi_startproc
 230              		@ args = 0, pretend = 0, frame = 24
 231              		@ frame_needed = 0, uses_anonymous_args = 0
 232 0000 00B5     		push	{lr}
 233              	.LCFI4:
 234              		.cfi_def_cfa_offset 4
 235              		.cfi_offset 14, -4
 236 0002 89B0     		sub	sp, sp, #36
 237              	.LCFI5:
 238              		.cfi_def_cfa_offset 40
 239 0004 0590     		str	r0, [sp, #20]
 240 0006 0491     		str	r1, [sp, #16]
 241 0008 0392     		str	r2, [sp, #12]
 242              		.loc 1 88 0
 243 000a 049B     		ldr	r3, [sp, #16]
 244 000c 002B     		cmp	r3, #0
 245 000e 07DD     		ble	.L9
 246              		.loc 1 89 0
 247 0010 0598     		ldr	r0, [sp, #20]
ARM GAS  /tmp/ccPMjPDN.s 			page 6


 248 0012 40F20001 		movw	r1, #:lower16:.LC7
 249 0016 C0F20001 		movt	r1, #:upper16:.LC7
 250 001a FFF7FEFF 		bl	chprintf
 251              		.loc 1 90 0
 252 001e 21E0     		b	.L8
 253              	.L9:
 254              		.loc 1 92 0
 255 0020 40F20003 		movw	r3, #:lower16:rlist
 256 0024 C0F20003 		movt	r3, #:upper16:rlist
 257 0028 9B69     		ldr	r3, [r3, #24]
 258 002a 9B68     		ldr	r3, [r3, #8]
 259 002c 059A     		ldr	r2, [sp, #20]
 260 002e 0092     		str	r2, [sp, #0]
 261 0030 4FF00000 		mov	r0, #0
 262 0034 4FF4D871 		mov	r1, #432
 263 0038 1A46     		mov	r2, r3
 264 003a 40F20003 		movw	r3, #:lower16:TestThread
 265 003e C0F20003 		movt	r3, #:upper16:TestThread
 266 0042 FFF7FEFF 		bl	chThdCreateFromHeap
 267 0046 0790     		str	r0, [sp, #28]
 268              		.loc 1 94 0
 269 0048 079B     		ldr	r3, [sp, #28]
 270 004a 002B     		cmp	r3, #0
 271 004c 07D1     		bne	.L11
 272              		.loc 1 95 0
 273 004e 0598     		ldr	r0, [sp, #20]
 274 0050 40F20001 		movw	r1, #:lower16:.LC8
 275 0054 C0F20001 		movt	r1, #:upper16:.LC8
 276 0058 FFF7FEFF 		bl	chprintf
 277              		.loc 1 96 0
 278 005c 02E0     		b	.L8
 279              	.L11:
 280              		.loc 1 98 0
 281 005e 0798     		ldr	r0, [sp, #28]
 282 0060 FFF7FEFF 		bl	chThdWait
 283              	.L8:
 284              		.loc 1 99 0
 285 0064 09B0     		add	sp, sp, #36
 286 0066 00BD     		pop	{pc}
 287              		.cfi_endproc
 288              	.LFE120:
 289              		.size	cmd_test, .-cmd_test
 290 0068 AFF30080 		.section	.bss.owDrv,"aw",%nobits
 290      AFF30080 
 291              		.align	2
 292              		.type	owDrv, %object
 293              		.size	owDrv, 60
 294              	owDrv:
 295 0000 00000000 		.space	60
 295      00000000 
 295      00000000 
 295      00000000 
 295      00000000 
 296              		.section	.rodata.owCfg,"a",%progbits
 297              		.align	2
 298              		.type	owCfg, %object
 299              		.size	owCfg, 12
ARM GAS  /tmp/ccPMjPDN.s 			page 7


 300              	owCfg:
 301 0000 000C0240 		.word	1073875968
 302 0004 08       		.byte	8
 303 0005 07       		.byte	7
 304 0006 0000     		.space	2
 305 0008 00000000 		.word	UARTD3
 306              		.section	.bss.romAddr,"aw",%nobits
 307              		.align	2
 308              		.type	romAddr, %object
 309              		.size	romAddr, 64
 310              	romAddr:
 311 0000 00000000 		.space	64
 311      00000000 
 311      00000000 
 311      00000000 
 311      00000000 
 312              		.section	.bss.searched,"aw",%nobits
 313              		.type	searched, %object
 314              		.size	searched, 1
 315              	searched:
 316 0000 00       		.space	1
 317              		.section	.bss.initialized,"aw",%nobits
 318              		.type	initialized, %object
 319              		.size	initialized, 1
 320              	initialized:
 321 0000 00       		.space	1
 322              		.section	.rodata
 323              		.align	2
 324              	.LC9:
 325 00ec 726F6D00 		.ascii	"rom\000"
 326              		.align	2
 327              	.LC10:
 328 00f0 53554343 		.ascii	"SUCCESS\000"
 328      45535300 
 329              		.align	2
 330              	.LC11:
 331 00f8 4641494C 		.ascii	"FAILED\000"
 331      454400
 332 00ff 00       		.align	2
 333              	.LC12:
 334 0100 72656164 		.ascii	"read rom : 0x%x 0x%x 0x%x 0x%x     0x%x 0x%x 0x%x 0"
 334      20726F6D 
 334      203A2030 
 334      78257820 
 334      30782578 
 335 0133 78257820 		.ascii	"x%x %s\015\012\000"
 335      25730D0A 
 335      00
 336              		.align	2
 337              	.LC13:
 338 013c 7400     		.ascii	"t\000"
 339              		.global	__aeabi_f2d
 340 013e 0000     		.align	2
 341              	.LC14:
 342 0140 73656E73 		.ascii	"sensor %d temp =%.2f\015\012\000"
 342      6F722025 
 342      64207465 
ARM GAS  /tmp/ccPMjPDN.s 			page 8


 342      6D70203D 
 342      252E3266 
 343 0157 00       		.align	2
 344              	.LC15:
 345 0158 647400   		.ascii	"dt\000"
 346 015b 00       		.align	2
 347              	.LC16:
 348 015c 73656E73 		.ascii	"sensor %d temp(ram) =%.2f\015\012\000"
 348      6F722025 
 348      64207465 
 348      6D702872 
 348      616D2920 
 349              		.align	2
 350              	.LC17:
 351 0178 73656172 		.ascii	"search\000"
 351      636800
 352 017f 00       		.align	2
 353              	.LC18:
 354 0180 61646472 		.ascii	"addr[%d] = 0x%x 0x%x 0x%x 0x%x     0x%x 0x%x 0x%x 0"
 354      5B25645D 
 354      203D2030 
 354      78257820 
 354      30782578 
 355 01b3 7825780D 		.ascii	"x%x\015\012\000"
 355      0A00
 356 01b9 000000   		.align	2
 357              	.LC19:
 358 01bc 55736167 		.ascii	"Usage: ow rom, search, temp\015\012\000"
 358      653A206F 
 358      7720726F 
 358      6D2C2073 
 358      65617263 
 359              		.section	.text.cmd_oneWire,"ax",%progbits
 360              		.align	2
 361              		.p2align 4,,15
 362              		.thumb
 363              		.thumb_func
 364              		.type	cmd_oneWire, %function
 365              	cmd_oneWire:
 366              	.LFB121:
 367              		.loc 1 109 0
 368              		.cfi_startproc
 369              		@ args = 0, pretend = 0, frame = 40
 370              		@ frame_needed = 0, uses_anonymous_args = 0
 371 0000 F0B5     		push	{r4, r5, r6, r7, lr}
 372              	.LCFI6:
 373              		.cfi_def_cfa_offset 20
 374              		.cfi_offset 4, -20
 375              		.cfi_offset 5, -16
 376              		.cfi_offset 6, -12
 377              		.cfi_offset 7, -8
 378              		.cfi_offset 14, -4
 379 0002 93B0     		sub	sp, sp, #76
 380              	.LCFI7:
 381              		.cfi_def_cfa_offset 96
 382 0004 0B90     		str	r0, [sp, #44]
 383 0006 0A91     		str	r1, [sp, #40]
ARM GAS  /tmp/ccPMjPDN.s 			page 9


 384 0008 0992     		str	r2, [sp, #36]
 385              		.loc 1 110 0
 386 000a 0A9B     		ldr	r3, [sp, #40]
 387 000c 012B     		cmp	r3, #1
 388 000e 03D0     		beq	.L13
 389              		.loc 1 110 0 is_stmt 0 discriminator 1
 390 0010 0A9B     		ldr	r3, [sp, #40]
 391 0012 022B     		cmp	r3, #2
 392 0014 40F05D82 		bne	.L40
 393              	.L13:
 394              		.loc 1 113 0 is_stmt 1
 395 0018 40F20003 		movw	r3, #:lower16:initialized
 396 001c C0F20003 		movt	r3, #:upper16:initialized
 397 0020 1B78     		ldrb	r3, [r3, #0]	@ zero_extendqisi2
 398 0022 83F00103 		eor	r3, r3, #1
 399 0026 DBB2     		uxtb	r3, r3
 400 0028 002B     		cmp	r3, #0
 401 002a 10D0     		beq	.L15
 402              		.loc 1 114 0
 403 002c 40F20000 		movw	r0, #:lower16:owDrv
 404 0030 C0F20000 		movt	r0, #:upper16:owDrv
 405 0034 40F20001 		movw	r1, #:lower16:owCfg
 406 0038 C0F20001 		movt	r1, #:upper16:owCfg
 407 003c FFF7FEFF 		bl	oneWireInit
 408              		.loc 1 115 0
 409 0040 40F20003 		movw	r3, #:lower16:initialized
 410 0044 C0F20003 		movt	r3, #:upper16:initialized
 411 0048 4FF00102 		mov	r2, #1
 412 004c 1A70     		strb	r2, [r3, #0]
 413              	.L15:
 414              		.loc 1 118 0
 415 004e 099B     		ldr	r3, [sp, #36]
 416 0050 1B68     		ldr	r3, [r3, #0]
 417 0052 1846     		mov	r0, r3
 418 0054 40F20001 		movw	r1, #:lower16:.LC9
 419 0058 C0F20001 		movt	r1, #:upper16:.LC9
 420 005c FFF7FEFF 		bl	strcmp
 421 0060 0346     		mov	r3, r0
 422 0062 002B     		cmp	r3, #0
 423 0064 40D1     		bne	.L16
 424              	.LBB2:
 425              		.loc 1 120 0
 426 0066 0CAB     		add	r3, sp, #48
 427 0068 40F20000 		movw	r0, #:lower16:owDrv
 428 006c C0F20000 		movt	r0, #:upper16:owDrv
 429 0070 1946     		mov	r1, r3
 430 0072 FFF7FEFF 		bl	oneWireReadRom
 431 0076 0346     		mov	r3, r0
 432 0078 8DF84030 		strb	r3, [sp, #64]
 433              		.loc 1 122 0
 434 007c 9DF83030 		ldrb	r3, [sp, #48]	@ zero_extendqisi2
 435              		.loc 1 121 0
 436 0080 1A46     		mov	r2, r3
 437              		.loc 1 122 0
 438 0082 9DF83130 		ldrb	r3, [sp, #49]	@ zero_extendqisi2
 439              		.loc 1 121 0
 440 0086 1C46     		mov	r4, r3
ARM GAS  /tmp/ccPMjPDN.s 			page 10


 441              		.loc 1 122 0
 442 0088 9DF83230 		ldrb	r3, [sp, #50]	@ zero_extendqisi2
 443              		.loc 1 121 0
 444 008c 9E46     		mov	lr, r3
 445              		.loc 1 122 0
 446 008e 9DF83330 		ldrb	r3, [sp, #51]	@ zero_extendqisi2
 447              		.loc 1 121 0
 448 0092 1F46     		mov	r7, r3
 449              		.loc 1 122 0
 450 0094 9DF83430 		ldrb	r3, [sp, #52]	@ zero_extendqisi2
 451              		.loc 1 121 0
 452 0098 1E46     		mov	r6, r3
 453              		.loc 1 123 0
 454 009a 9DF83530 		ldrb	r3, [sp, #53]	@ zero_extendqisi2
 455              		.loc 1 121 0
 456 009e 1D46     		mov	r5, r3
 457              		.loc 1 123 0
 458 00a0 9DF83630 		ldrb	r3, [sp, #54]	@ zero_extendqisi2
 459              		.loc 1 121 0
 460 00a4 1846     		mov	r0, r3
 461              		.loc 1 123 0
 462 00a6 9DF83730 		ldrb	r3, [sp, #55]	@ zero_extendqisi2
 463              		.loc 1 121 0
 464 00aa 1946     		mov	r1, r3
 465 00ac 9DF84030 		ldrb	r3, [sp, #64]	@ zero_extendqisi2
 466 00b0 002B     		cmp	r3, #0
 467 00b2 04D0     		beq	.L17
 468              		.loc 1 121 0 is_stmt 0 discriminator 1
 469 00b4 40F20003 		movw	r3, #:lower16:.LC10
 470 00b8 C0F20003 		movt	r3, #:upper16:.LC10
 471 00bc 03E0     		b	.L18
 472              	.L17:
 473              		.loc 1 121 0 discriminator 2
 474 00be 40F20003 		movw	r3, #:lower16:.LC11
 475 00c2 C0F20003 		movt	r3, #:upper16:.LC11
 476              	.L18:
 477              		.loc 1 121 0 discriminator 3
 478 00c6 CDF800E0 		str	lr, [sp, #0]
 479 00ca 0197     		str	r7, [sp, #4]
 480 00cc 0296     		str	r6, [sp, #8]
 481 00ce 0395     		str	r5, [sp, #12]
 482 00d0 0490     		str	r0, [sp, #16]
 483 00d2 0591     		str	r1, [sp, #20]
 484 00d4 0693     		str	r3, [sp, #24]
 485 00d6 0B98     		ldr	r0, [sp, #44]
 486 00d8 40F20001 		movw	r1, #:lower16:.LC12
 487 00dc C0F20001 		movt	r1, #:upper16:.LC12
 488 00e0 2346     		mov	r3, r4
 489 00e2 FFF7FEFF 		bl	chprintf
 490              	.LBE2:
 491              		.loc 1 187 0 is_stmt 1 discriminator 3
 492 00e6 FEE1     		b	.L12
 493              	.L16:
 494              		.loc 1 125 0
 495 00e8 099B     		ldr	r3, [sp, #36]
 496 00ea 1B68     		ldr	r3, [r3, #0]
 497 00ec 1846     		mov	r0, r3
ARM GAS  /tmp/ccPMjPDN.s 			page 11


 498 00ee 40F20001 		movw	r1, #:lower16:.LC13
 499 00f2 C0F20001 		movt	r1, #:upper16:.LC13
 500 00f6 FFF7FEFF 		bl	strcmp
 501 00fa 0346     		mov	r3, r0
 502 00fc 002B     		cmp	r3, #0
 503 00fe 7ED1     		bne	.L20
 504              	.LBB3:
 505              		.loc 1 126 0
 506 0100 40F20003 		movw	r3, #:lower16:searched
 507 0104 C0F20003 		movt	r3, #:upper16:searched
 508 0108 1B78     		ldrb	r3, [r3, #0]	@ zero_extendqisi2
 509 010a 83F00103 		eor	r3, r3, #1
 510 010e DBB2     		uxtb	r3, r3
 511 0110 002B     		cmp	r3, #0
 512 0112 14D0     		beq	.L21
 513              		.loc 1 127 0
 514 0114 40F20000 		movw	r0, #:lower16:owDrv
 515 0118 C0F20000 		movt	r0, #:upper16:owDrv
 516 011c 4FF00001 		mov	r1, #0
 517 0120 40F20002 		movw	r2, #:lower16:romAddr
 518 0124 C0F20002 		movt	r2, #:upper16:romAddr
 519 0128 4FF00803 		mov	r3, #8
 520 012c FFF7FEFF 		bl	oneWireSearchRom
 521              		.loc 1 128 0
 522 0130 40F20003 		movw	r3, #:lower16:searched
 523 0134 C0F20003 		movt	r3, #:upper16:searched
 524 0138 4FF00102 		mov	r2, #1
 525 013c 1A70     		strb	r2, [r3, #0]
 526              	.L21:
 527              		.loc 1 130 0
 528 013e 4FF00C03 		mov	r3, #12
 529 0142 8DF84730 		strb	r3, [sp, #71]
 530              		.loc 1 131 0
 531 0146 0A9B     		ldr	r3, [sp, #40]
 532 0148 022B     		cmp	r3, #2
 533 014a 09D1     		bne	.L22
 534              		.loc 1 132 0
 535 014c 099B     		ldr	r3, [sp, #36]
 536 014e 03F10403 		add	r3, r3, #4
 537 0152 1B68     		ldr	r3, [r3, #0]
 538 0154 1846     		mov	r0, r3
 539 0156 FFF7FEFF 		bl	atoi
 540 015a 0346     		mov	r3, r0
 541 015c 8DF84730 		strb	r3, [sp, #71]
 542              	.L22:
 543              	.LBB4:
 544              		.loc 1 135 0
 545 0160 4FF00003 		mov	r3, #0
 546 0164 8DF84630 		strb	r3, [sp, #70]
 547 0168 44E0     		b	.L23
 548              	.L25:
 549              		.loc 1 136 0
 550 016a 9DF84620 		ldrb	r2, [sp, #70]	@ zero_extendqisi2
 551 016e 40F20003 		movw	r3, #:lower16:romAddr
 552 0172 C0F20003 		movt	r3, #:upper16:romAddr
 553 0176 13F83230 		ldrb	r3, [r3, r2, lsl #3]	@ zero_extendqisi2
 554 017a 282B     		cmp	r3, #40
ARM GAS  /tmp/ccPMjPDN.s 			page 12


 555 017c 34D1     		bne	.L24
 556              	.LBB5:
 557              		.loc 1 137 0
 558 017e 9DF84630 		ldrb	r3, [sp, #70]	@ zero_extendqisi2
 559 0182 4FEAC302 		lsl	r2, r3, #3
 560 0186 40F20003 		movw	r3, #:lower16:romAddr
 561 018a C0F20003 		movt	r3, #:upper16:romAddr
 562 018e D218     		adds	r2, r2, r3
 563 0190 9DF84730 		ldrb	r3, [sp, #71]	@ zero_extendqisi2
 564 0194 40F20000 		movw	r0, #:lower16:owDrv
 565 0198 C0F20000 		movt	r0, #:upper16:owDrv
 566 019c 1146     		mov	r1, r2
 567 019e 1A46     		mov	r2, r3
 568 01a0 FFF7FEFF 		bl	ds1820BInit
 569              		.loc 1 138 0
 570 01a4 9DF84630 		ldrb	r3, [sp, #70]	@ zero_extendqisi2
 571 01a8 4FEAC302 		lsl	r2, r3, #3
 572 01ac 40F20003 		movw	r3, #:lower16:romAddr
 573 01b0 C0F20003 		movt	r3, #:upper16:romAddr
 574 01b4 D318     		adds	r3, r2, r3
 575 01b6 40F20000 		movw	r0, #:lower16:owDrv
 576 01ba C0F20000 		movt	r0, #:upper16:owDrv
 577 01be 1946     		mov	r1, r3
 578 01c0 FFF7FEFF 		bl	ds1820BGetTemp
 579 01c4 0F90     		str	r0, [sp, #60]	@ float
 580              		.loc 1 139 0
 581 01c6 9DF84640 		ldrb	r4, [sp, #70]	@ zero_extendqisi2
 582 01ca 0F98     		ldr	r0, [sp, #60]	@ float
 583 01cc FFF7FEFF 		bl	__aeabi_f2d
 584 01d0 0246     		mov	r2, r0
 585 01d2 0B46     		mov	r3, r1
 586 01d4 CDE90023 		strd	r2, [sp]
 587 01d8 0B98     		ldr	r0, [sp, #44]
 588 01da 40F20001 		movw	r1, #:lower16:.LC14
 589 01de C0F20001 		movt	r1, #:upper16:.LC14
 590 01e2 2246     		mov	r2, r4
 591 01e4 FFF7FEFF 		bl	chprintf
 592              	.L24:
 593              	.LBE5:
 594              		.loc 1 135 0
 595 01e8 9DF84630 		ldrb	r3, [sp, #70]
 596 01ec 03F10103 		add	r3, r3, #1
 597 01f0 8DF84630 		strb	r3, [sp, #70]
 598              	.L23:
 599              		.loc 1 135 0 is_stmt 0 discriminator 1
 600 01f4 9DF84630 		ldrb	r3, [sp, #70]	@ zero_extendqisi2
 601 01f8 072B     		cmp	r3, #7
 602 01fa B6D9     		bls	.L25
 603              		.loc 1 135 0
 604 01fc 68E1     		b	.L19
 605              	.L20:
 606              	.LBE4:
 607              	.LBE3:
 608              		.loc 1 142 0 is_stmt 1
 609 01fe 099B     		ldr	r3, [sp, #36]
 610 0200 1B68     		ldr	r3, [r3, #0]
 611 0202 1846     		mov	r0, r3
ARM GAS  /tmp/ccPMjPDN.s 			page 13


 612 0204 40F20001 		movw	r1, #:lower16:.LC15
 613 0208 C0F20001 		movt	r1, #:upper16:.LC15
 614 020c FFF7FEFF 		bl	strcmp
 615 0210 0346     		mov	r3, r0
 616 0212 002B     		cmp	r3, #0
 617 0214 40F0AC80 		bne	.L26
 618              	.LBB6:
 619              		.loc 1 143 0
 620 0218 40F20003 		movw	r3, #:lower16:searched
 621 021c C0F20003 		movt	r3, #:upper16:searched
 622 0220 1B78     		ldrb	r3, [r3, #0]	@ zero_extendqisi2
 623 0222 83F00103 		eor	r3, r3, #1
 624 0226 DBB2     		uxtb	r3, r3
 625 0228 002B     		cmp	r3, #0
 626 022a 14D0     		beq	.L27
 627              		.loc 1 144 0
 628 022c 40F20000 		movw	r0, #:lower16:owDrv
 629 0230 C0F20000 		movt	r0, #:upper16:owDrv
 630 0234 4FF00001 		mov	r1, #0
 631 0238 40F20002 		movw	r2, #:lower16:romAddr
 632 023c C0F20002 		movt	r2, #:upper16:romAddr
 633 0240 4FF00803 		mov	r3, #8
 634 0244 FFF7FEFF 		bl	oneWireSearchRom
 635              		.loc 1 145 0
 636 0248 40F20003 		movw	r3, #:lower16:searched
 637 024c C0F20003 		movt	r3, #:upper16:searched
 638 0250 4FF00102 		mov	r2, #1
 639 0254 1A70     		strb	r2, [r3, #0]
 640              	.L27:
 641              		.loc 1 147 0
 642 0256 4FF00C03 		mov	r3, #12
 643 025a 8DF84530 		strb	r3, [sp, #69]
 644              		.loc 1 148 0
 645 025e 0A9B     		ldr	r3, [sp, #40]
 646 0260 022B     		cmp	r3, #2
 647 0262 09D1     		bne	.L28
 648              		.loc 1 149 0
 649 0264 099B     		ldr	r3, [sp, #36]
 650 0266 03F10403 		add	r3, r3, #4
 651 026a 1B68     		ldr	r3, [r3, #0]
 652 026c 1846     		mov	r0, r3
 653 026e FFF7FEFF 		bl	atoi
 654 0272 0346     		mov	r3, r0
 655 0274 8DF84530 		strb	r3, [sp, #69]
 656              	.L28:
 657              	.LBB7:
 658              		.loc 1 152 0
 659 0278 4FF00003 		mov	r3, #0
 660 027c 8DF84430 		strb	r3, [sp, #68]
 661 0280 32E0     		b	.L29
 662              	.L31:
 663              		.loc 1 153 0
 664 0282 9DF84420 		ldrb	r2, [sp, #68]	@ zero_extendqisi2
 665 0286 40F20003 		movw	r3, #:lower16:romAddr
 666 028a C0F20003 		movt	r3, #:upper16:romAddr
 667 028e 13F83230 		ldrb	r3, [r3, r2, lsl #3]	@ zero_extendqisi2
 668 0292 282B     		cmp	r3, #40
ARM GAS  /tmp/ccPMjPDN.s 			page 14


 669 0294 22D1     		bne	.L30
 670              		.loc 1 154 0
 671 0296 9DF84430 		ldrb	r3, [sp, #68]	@ zero_extendqisi2
 672 029a 4FEAC302 		lsl	r2, r3, #3
 673 029e 40F20003 		movw	r3, #:lower16:romAddr
 674 02a2 C0F20003 		movt	r3, #:upper16:romAddr
 675 02a6 D218     		adds	r2, r2, r3
 676 02a8 9DF84530 		ldrb	r3, [sp, #69]	@ zero_extendqisi2
 677 02ac 40F20000 		movw	r0, #:lower16:owDrv
 678 02b0 C0F20000 		movt	r0, #:upper16:owDrv
 679 02b4 1146     		mov	r1, r2
 680 02b6 1A46     		mov	r2, r3
 681 02b8 FFF7FEFF 		bl	ds1820BInit
 682              		.loc 1 155 0
 683 02bc 9DF84430 		ldrb	r3, [sp, #68]	@ zero_extendqisi2
 684 02c0 4FEAC302 		lsl	r2, r3, #3
 685 02c4 40F20003 		movw	r3, #:lower16:romAddr
 686 02c8 C0F20003 		movt	r3, #:upper16:romAddr
 687 02cc D318     		adds	r3, r2, r3
 688 02ce 40F20000 		movw	r0, #:lower16:owDrv
 689 02d2 C0F20000 		movt	r0, #:upper16:owDrv
 690 02d6 1946     		mov	r1, r3
 691 02d8 FFF7FEFF 		bl	ds1820BAskTemp
 692              	.L30:
 693              		.loc 1 152 0
 694 02dc 9DF84430 		ldrb	r3, [sp, #68]
 695 02e0 03F10103 		add	r3, r3, #1
 696 02e4 8DF84430 		strb	r3, [sp, #68]
 697              	.L29:
 698              		.loc 1 152 0 is_stmt 0 discriminator 1
 699 02e8 9DF84430 		ldrb	r3, [sp, #68]	@ zero_extendqisi2
 700 02ec 072B     		cmp	r3, #7
 701 02ee C8D9     		bls	.L31
 702              	.LBE7:
 703              		.loc 1 159 0 is_stmt 1
 704 02f0 40F2EE20 		movw	r0, #750
 705 02f4 FFF7FEFF 		bl	chThdSleep
 706              	.LBB8:
 707              		.loc 1 161 0
 708 02f8 4FF00003 		mov	r3, #0
 709 02fc 8DF84330 		strb	r3, [sp, #67]
 710 0300 31E0     		b	.L32
 711              	.L34:
 712              		.loc 1 162 0
 713 0302 9DF84320 		ldrb	r2, [sp, #67]	@ zero_extendqisi2
 714 0306 40F20003 		movw	r3, #:lower16:romAddr
 715 030a C0F20003 		movt	r3, #:upper16:romAddr
 716 030e 13F83230 		ldrb	r3, [r3, r2, lsl #3]	@ zero_extendqisi2
 717 0312 282B     		cmp	r3, #40
 718 0314 21D1     		bne	.L33
 719              	.LBB9:
 720              		.loc 1 163 0
 721 0316 9DF84330 		ldrb	r3, [sp, #67]	@ zero_extendqisi2
 722 031a 4FEAC302 		lsl	r2, r3, #3
 723 031e 40F20003 		movw	r3, #:lower16:romAddr
 724 0322 C0F20003 		movt	r3, #:upper16:romAddr
 725 0326 D318     		adds	r3, r2, r3
ARM GAS  /tmp/ccPMjPDN.s 			page 15


 726 0328 40F20000 		movw	r0, #:lower16:owDrv
 727 032c C0F20000 		movt	r0, #:upper16:owDrv
 728 0330 1946     		mov	r1, r3
 729 0332 FFF7FEFF 		bl	ds1820BGGetTempFromRam
 730 0336 0E90     		str	r0, [sp, #56]	@ float
 731              		.loc 1 164 0
 732 0338 9DF84340 		ldrb	r4, [sp, #67]	@ zero_extendqisi2
 733 033c 0E98     		ldr	r0, [sp, #56]	@ float
 734 033e FFF7FEFF 		bl	__aeabi_f2d
 735 0342 0246     		mov	r2, r0
 736 0344 0B46     		mov	r3, r1
 737 0346 CDE90023 		strd	r2, [sp]
 738 034a 0B98     		ldr	r0, [sp, #44]
 739 034c 40F20001 		movw	r1, #:lower16:.LC16
 740 0350 C0F20001 		movt	r1, #:upper16:.LC16
 741 0354 2246     		mov	r2, r4
 742 0356 FFF7FEFF 		bl	chprintf
 743              	.L33:
 744              	.LBE9:
 745              		.loc 1 161 0
 746 035a 9DF84330 		ldrb	r3, [sp, #67]
 747 035e 03F10103 		add	r3, r3, #1
 748 0362 8DF84330 		strb	r3, [sp, #67]
 749              	.L32:
 750              		.loc 1 161 0 is_stmt 0 discriminator 1
 751 0366 9DF84330 		ldrb	r3, [sp, #67]	@ zero_extendqisi2
 752 036a 072B     		cmp	r3, #7
 753 036c C9D9     		bls	.L34
 754              		.loc 1 161 0
 755 036e AFE0     		b	.L19
 756              	.L26:
 757              	.LBE8:
 758              	.LBE6:
 759              		.loc 1 172 0 is_stmt 1
 760 0370 099B     		ldr	r3, [sp, #36]
 761 0372 1B68     		ldr	r3, [r3, #0]
 762 0374 1846     		mov	r0, r3
 763 0376 40F20001 		movw	r1, #:lower16:.LC17
 764 037a C0F20001 		movt	r1, #:upper16:.LC17
 765 037e FFF7FEFF 		bl	strcmp
 766 0382 0346     		mov	r3, r0
 767 0384 002B     		cmp	r3, #0
 768 0386 40F0A680 		bne	.L41
 769              	.LBB10:
 770              		.loc 1 173 0
 771 038a 4FF00003 		mov	r3, #0
 772 038e 8DF84230 		strb	r3, [sp, #66]
 773              		.loc 1 174 0
 774 0392 0A9B     		ldr	r3, [sp, #40]
 775 0394 022B     		cmp	r3, #2
 776 0396 0DD1     		bne	.L36
 777              		.loc 1 175 0
 778 0398 099B     		ldr	r3, [sp, #36]
 779 039a 03F10403 		add	r3, r3, #4
 780 039e 1B68     		ldr	r3, [r3, #0]
 781 03a0 1846     		mov	r0, r3
 782 03a2 FFF7FEFF 		bl	atoi
ARM GAS  /tmp/ccPMjPDN.s 			page 16


 783 03a6 0346     		mov	r3, r0
 784 03a8 002B     		cmp	r3, #0
 785 03aa 0CBF     		ite	eq
 786 03ac 0023     		moveq	r3, #0
 787 03ae 0123     		movne	r3, #1
 788 03b0 8DF84230 		strb	r3, [sp, #66]
 789              	.L36:
 790              		.loc 1 177 0
 791 03b4 9DF84230 		ldrb	r3, [sp, #66]	@ zero_extendqisi2
 792 03b8 40F20000 		movw	r0, #:lower16:owDrv
 793 03bc C0F20000 		movt	r0, #:upper16:owDrv
 794 03c0 1946     		mov	r1, r3
 795 03c2 40F20002 		movw	r2, #:lower16:romAddr
 796 03c6 C0F20002 		movt	r2, #:upper16:romAddr
 797 03ca 4FF00803 		mov	r3, #8
 798 03ce FFF7FEFF 		bl	oneWireSearchRom
 799              		.loc 1 178 0
 800 03d2 40F20003 		movw	r3, #:lower16:searched
 801 03d6 C0F20003 		movt	r3, #:upper16:searched
 802 03da 4FF00102 		mov	r2, #1
 803 03de 1A70     		strb	r2, [r3, #0]
 804              	.LBB11:
 805              		.loc 1 179 0
 806 03e0 4FF00003 		mov	r3, #0
 807 03e4 8DF84130 		strb	r3, [sp, #65]
 808 03e8 6EE0     		b	.L37
 809              	.L38:
 810              		.loc 1 180 0 discriminator 2
 811 03ea 9DF84150 		ldrb	r5, [sp, #65]	@ zero_extendqisi2
 812              		.loc 1 181 0 discriminator 2
 813 03ee 9DF84120 		ldrb	r2, [sp, #65]	@ zero_extendqisi2
 814 03f2 40F20003 		movw	r3, #:lower16:romAddr
 815 03f6 C0F20003 		movt	r3, #:upper16:romAddr
 816 03fa 13F83230 		ldrb	r3, [r3, r2, lsl #3]	@ zero_extendqisi2
 817              		.loc 1 180 0 discriminator 2
 818 03fe 1C46     		mov	r4, r3
 819              		.loc 1 181 0 discriminator 2
 820 0400 9DF84130 		ldrb	r3, [sp, #65]	@ zero_extendqisi2
 821 0404 40F20002 		movw	r2, #:lower16:romAddr
 822 0408 C0F20002 		movt	r2, #:upper16:romAddr
 823 040c 4FEAC303 		lsl	r3, r3, #3
 824 0410 D318     		adds	r3, r2, r3
 825 0412 5B78     		ldrb	r3, [r3, #1]	@ zero_extendqisi2
 826              		.loc 1 180 0 discriminator 2
 827 0414 9C46     		mov	ip, r3
 828              		.loc 1 181 0 discriminator 2
 829 0416 9DF84130 		ldrb	r3, [sp, #65]	@ zero_extendqisi2
 830 041a 40F20002 		movw	r2, #:lower16:romAddr
 831 041e C0F20002 		movt	r2, #:upper16:romAddr
 832 0422 4FEAC303 		lsl	r3, r3, #3
 833 0426 D318     		adds	r3, r2, r3
 834 0428 9B78     		ldrb	r3, [r3, #2]	@ zero_extendqisi2
 835              		.loc 1 180 0 discriminator 2
 836 042a 9E46     		mov	lr, r3
 837              		.loc 1 181 0 discriminator 2
 838 042c 9DF84130 		ldrb	r3, [sp, #65]	@ zero_extendqisi2
 839 0430 40F20002 		movw	r2, #:lower16:romAddr
ARM GAS  /tmp/ccPMjPDN.s 			page 17


 840 0434 C0F20002 		movt	r2, #:upper16:romAddr
 841 0438 4FEAC303 		lsl	r3, r3, #3
 842 043c D318     		adds	r3, r2, r3
 843 043e DB78     		ldrb	r3, [r3, #3]	@ zero_extendqisi2
 844              		.loc 1 180 0 discriminator 2
 845 0440 1F46     		mov	r7, r3
 846              		.loc 1 182 0 discriminator 2
 847 0442 9DF84130 		ldrb	r3, [sp, #65]	@ zero_extendqisi2
 848 0446 40F20002 		movw	r2, #:lower16:romAddr
 849 044a C0F20002 		movt	r2, #:upper16:romAddr
 850 044e 4FEAC303 		lsl	r3, r3, #3
 851 0452 D318     		adds	r3, r2, r3
 852 0454 1B79     		ldrb	r3, [r3, #4]	@ zero_extendqisi2
 853              		.loc 1 180 0 discriminator 2
 854 0456 1E46     		mov	r6, r3
 855              		.loc 1 182 0 discriminator 2
 856 0458 9DF84130 		ldrb	r3, [sp, #65]	@ zero_extendqisi2
 857 045c 40F20002 		movw	r2, #:lower16:romAddr
 858 0460 C0F20002 		movt	r2, #:upper16:romAddr
 859 0464 4FEAC303 		lsl	r3, r3, #3
 860 0468 D318     		adds	r3, r2, r3
 861 046a 5B79     		ldrb	r3, [r3, #5]	@ zero_extendqisi2
 862              		.loc 1 180 0 discriminator 2
 863 046c 1846     		mov	r0, r3
 864              		.loc 1 182 0 discriminator 2
 865 046e 9DF84130 		ldrb	r3, [sp, #65]	@ zero_extendqisi2
 866 0472 40F20002 		movw	r2, #:lower16:romAddr
 867 0476 C0F20002 		movt	r2, #:upper16:romAddr
 868 047a 4FEAC303 		lsl	r3, r3, #3
 869 047e D318     		adds	r3, r2, r3
 870 0480 9B79     		ldrb	r3, [r3, #6]	@ zero_extendqisi2
 871              		.loc 1 180 0 discriminator 2
 872 0482 1946     		mov	r1, r3
 873              		.loc 1 182 0 discriminator 2
 874 0484 9DF84130 		ldrb	r3, [sp, #65]	@ zero_extendqisi2
 875 0488 40F20002 		movw	r2, #:lower16:romAddr
 876 048c C0F20002 		movt	r2, #:upper16:romAddr
 877 0490 4FEAC303 		lsl	r3, r3, #3
 878 0494 D318     		adds	r3, r2, r3
 879 0496 DB79     		ldrb	r3, [r3, #7]	@ zero_extendqisi2
 880              		.loc 1 180 0 discriminator 2
 881 0498 CDF800C0 		str	ip, [sp, #0]
 882 049c CDF804E0 		str	lr, [sp, #4]
 883 04a0 0297     		str	r7, [sp, #8]
 884 04a2 0396     		str	r6, [sp, #12]
 885 04a4 0490     		str	r0, [sp, #16]
 886 04a6 0591     		str	r1, [sp, #20]
 887 04a8 0693     		str	r3, [sp, #24]
 888 04aa 0B98     		ldr	r0, [sp, #44]
 889 04ac 40F20001 		movw	r1, #:lower16:.LC18
 890 04b0 C0F20001 		movt	r1, #:upper16:.LC18
 891 04b4 2A46     		mov	r2, r5
 892 04b6 2346     		mov	r3, r4
 893 04b8 FFF7FEFF 		bl	chprintf
 894              		.loc 1 179 0 discriminator 2
 895 04bc 9DF84130 		ldrb	r3, [sp, #65]
 896 04c0 03F10103 		add	r3, r3, #1
ARM GAS  /tmp/ccPMjPDN.s 			page 18


 897 04c4 8DF84130 		strb	r3, [sp, #65]
 898              	.L37:
 899              		.loc 1 179 0 is_stmt 0 discriminator 1
 900 04c8 9DF84130 		ldrb	r3, [sp, #65]	@ zero_extendqisi2
 901 04cc 072B     		cmp	r3, #7
 902 04ce 8CD9     		bls	.L38
 903              	.L19:
 904              	.LBE11:
 905              	.LBE10:
 906              		.loc 1 187 0 is_stmt 1
 907 04d0 09E0     		b	.L12
 908              	.L40:
 909              		.loc 1 111 0
 910 04d2 00BF     		nop
 911 04d4 00E0     		b	.L14
 912              	.L41:
 913              		.loc 1 185 0
 914 04d6 00BF     		nop
 915              	.L14:
 916              		.loc 1 189 0
 917 04d8 0B98     		ldr	r0, [sp, #44]
 918 04da 40F20001 		movw	r1, #:lower16:.LC19
 919 04de C0F20001 		movt	r1, #:upper16:.LC19
 920 04e2 FFF7FEFF 		bl	chprintf
 921              	.L12:
 922              		.loc 1 190 0
 923 04e6 13B0     		add	sp, sp, #76
 924 04e8 F0BD     		pop	{r4, r5, r6, r7, pc}
 925              		.cfi_endproc
 926              	.LFE121:
 927              		.size	cmd_oneWire, .-cmd_oneWire
 928 04ea 00BFAFF3 		.section	.rodata
 928      0080
 929 01da 0000     		.align	2
 930              	.LC20:
 931 01dc 6D656D00 		.ascii	"mem\000"
 932              		.align	2
 933              	.LC21:
 934 01e0 74687265 		.ascii	"threads\000"
 934      61647300 
 935              		.align	2
 936              	.LC22:
 937 01e8 74657374 		.ascii	"test\000"
 937      00
 938 01ed 000000   		.align	2
 939              	.LC23:
 940 01f0 6F7700   		.ascii	"ow\000"
 941              		.section	.rodata.commands,"a",%progbits
 942              		.align	2
 943              		.type	commands, %object
 944              		.size	commands, 40
 945              	commands:
 946 0000 DC010000 		.word	.LC20
 947 0004 00000000 		.word	cmd_mem
 948 0008 E0010000 		.word	.LC21
 949 000c 00000000 		.word	cmd_threads
 950 0010 E8010000 		.word	.LC22
ARM GAS  /tmp/ccPMjPDN.s 			page 19


 951 0014 00000000 		.word	cmd_test
 952 0018 F0010000 		.word	.LC23
 953 001c 00000000 		.word	cmd_oneWire
 954 0020 00000000 		.word	0
 955 0024 00000000 		.word	0
 956              		.section	.rodata.shell_cfg1,"a",%progbits
 957              		.align	2
 958              		.type	shell_cfg1, %object
 959              		.size	shell_cfg1, 8
 960              	shell_cfg1:
 961 0000 00000000 		.word	SDU1
 962 0004 00000000 		.word	commands
 963              		.section	.text.main,"ax",%progbits
 964              		.align	2
 965              		.p2align 4,,15
 966              		.global	main
 967              		.thumb
 968              		.thumb_func
 969              		.type	main, %function
 970              	main:
 971              	.LFB122:
 972              		.loc 1 214 0
 973              		.cfi_startproc
 974              		@ args = 0, pretend = 0, frame = 8
 975              		@ frame_needed = 0, uses_anonymous_args = 0
 976 0000 00B5     		push	{lr}
 977              	.LCFI8:
 978              		.cfi_def_cfa_offset 4
 979              		.cfi_offset 14, -4
 980 0002 83B0     		sub	sp, sp, #12
 981              	.LCFI9:
 982              		.cfi_def_cfa_offset 16
 983              		.loc 1 215 0
 984 0004 4FF00003 		mov	r3, #0
 985 0008 0193     		str	r3, [sp, #4]
 986              		.loc 1 224 0
 987 000a FFF7FEFF 		bl	halInit
 988              		.loc 1 225 0
 989 000e FFF7FEFF 		bl	chSysInit
 990              		.loc 1 230 0
 991 0012 FFF7FEFF 		bl	shellInit
 992              		.loc 1 235 0
 993 0016 40F20000 		movw	r0, #:lower16:SDU1
 994 001a C0F20000 		movt	r0, #:upper16:SDU1
 995 001e FFF7FEFF 		bl	sduObjectInit
 996              		.loc 1 236 0
 997 0022 40F20000 		movw	r0, #:lower16:SDU1
 998 0026 C0F20000 		movt	r0, #:upper16:SDU1
 999 002a 40F20001 		movw	r1, #:lower16:serusbcfg
 1000 002e C0F20001 		movt	r1, #:upper16:serusbcfg
 1001 0032 FFF7FEFF 		bl	sduStart
 1002              		.loc 1 243 0
 1003 0036 40F20003 		movw	r3, #:lower16:serusbcfg
 1004 003a C0F20003 		movt	r3, #:upper16:serusbcfg
 1005 003e 1B68     		ldr	r3, [r3, #0]
 1006 0040 1A6D     		ldr	r2, [r3, #80]
 1007 0042 40F20003 		movw	r3, #:lower16:serusbcfg
ARM GAS  /tmp/ccPMjPDN.s 			page 20


 1008 0046 C0F20003 		movt	r3, #:upper16:serusbcfg
 1009 004a 1B68     		ldr	r3, [r3, #0]
 1010 004c 1B6D     		ldr	r3, [r3, #80]
 1011 004e 9B6B     		ldr	r3, [r3, #56]
 1012 0050 23F40023 		bic	r3, r3, #524288
 1013 0054 9363     		str	r3, [r2, #56]
 1014              		.loc 1 244 0
 1015 0056 4FF47A70 		mov	r0, #1000
 1016 005a FFF7FEFF 		bl	chThdSleep
 1017              		.loc 1 245 0
 1018 005e 40F20003 		movw	r3, #:lower16:serusbcfg
 1019 0062 C0F20003 		movt	r3, #:upper16:serusbcfg
 1020 0066 1B68     		ldr	r3, [r3, #0]
 1021 0068 1846     		mov	r0, r3
 1022 006a 40F20001 		movw	r1, #:lower16:usbcfg
 1023 006e C0F20001 		movt	r1, #:upper16:usbcfg
 1024 0072 FFF7FEFF 		bl	usbStart
 1025              		.loc 1 246 0
 1026 0076 40F20003 		movw	r3, #:lower16:serusbcfg
 1027 007a C0F20003 		movt	r3, #:upper16:serusbcfg
 1028 007e 1B68     		ldr	r3, [r3, #0]
 1029 0080 1A6D     		ldr	r2, [r3, #80]
 1030 0082 40F20003 		movw	r3, #:lower16:serusbcfg
 1031 0086 C0F20003 		movt	r3, #:upper16:serusbcfg
 1032 008a 1B68     		ldr	r3, [r3, #0]
 1033 008c 1B6D     		ldr	r3, [r3, #80]
 1034 008e 9B6B     		ldr	r3, [r3, #56]
 1035 0090 43F40023 		orr	r3, r3, #524288
 1036 0094 9363     		str	r3, [r2, #56]
 1037              	.L45:
 1038              		.loc 1 256 0
 1039 0096 4FF44063 		mov	r3, #3072
 1040 009a C4F20203 		movt	r3, 16386
 1041 009e 4FF44062 		mov	r2, #3072
 1042 00a2 C4F20202 		movt	r2, 16386
 1043 00a6 5269     		ldr	r2, [r2, #20]
 1044 00a8 82F48052 		eor	r2, r2, #4096
 1045 00ac 5A61     		str	r2, [r3, #20]
 1046              		.loc 1 257 0
 1047 00ae 019B     		ldr	r3, [sp, #4]
 1048 00b0 002B     		cmp	r3, #0
 1049 00b2 15D1     		bne	.L43
 1050              		.loc 1 258 0
 1051 00b4 40F20003 		movw	r3, #:lower16:SDU1
 1052 00b8 C0F20003 		movt	r3, #:upper16:SDU1
 1053 00bc D3F85432 		ldr	r3, [r3, #596]
 1054 00c0 1B68     		ldr	r3, [r3, #0]
 1055 00c2 1B78     		ldrb	r3, [r3, #0]	@ zero_extendqisi2
 1056 00c4 042B     		cmp	r3, #4
 1057 00c6 16D1     		bne	.L44
 1058              		.loc 1 260 0
 1059 00c8 40F20000 		movw	r0, #:lower16:shell_cfg1
 1060 00cc C0F20000 		movt	r0, #:upper16:shell_cfg1
 1061 00d0 4FF40B61 		mov	r1, #2224
 1062 00d4 4FF04002 		mov	r2, #64
 1063 00d8 FFF7FEFF 		bl	shellCreate
 1064 00dc 0190     		str	r0, [sp, #4]
ARM GAS  /tmp/ccPMjPDN.s 			page 21


 1065 00de 0AE0     		b	.L44
 1066              	.L43:
 1067              		.loc 1 265 0
 1068 00e0 019B     		ldr	r3, [sp, #4]
 1069 00e2 93F82030 		ldrb	r3, [r3, #32]	@ zero_extendqisi2
 1070 00e6 0E2B     		cmp	r3, #14
 1071 00e8 05D1     		bne	.L44
 1072              		.loc 1 267 0
 1073 00ea 0198     		ldr	r0, [sp, #4]
 1074 00ec FFF7FEFF 		bl	chThdRelease
 1075              		.loc 1 268 0
 1076 00f0 4FF00003 		mov	r3, #0
 1077 00f4 0193     		str	r3, [sp, #4]
 1078              	.L44:
 1079              		.loc 1 271 0
 1080 00f6 4FF4FA70 		mov	r0, #500
 1081 00fa FFF7FEFF 		bl	chThdSleep
 1082              		.loc 1 272 0
 1083 00fe CAE7     		b	.L45
 1084              		.cfi_endproc
 1085              	.LFE122:
 1086              		.size	main, .-main
 1087              		.section	.rodata
 1088 01f3 00       		.align	2
 1089              	.LC24:
 1090 01f4 52454144 		.ascii	"READY\000"
 1090      5900
 1091 01fa 0000     		.align	2
 1092              	.LC25:
 1093 01fc 43555252 		.ascii	"CURRENT\000"
 1093      454E5400 
 1094              		.align	2
 1095              	.LC26:
 1096 0204 53555350 		.ascii	"SUSPENDED\000"
 1096      454E4445 
 1096      4400
 1097 020e 0000     		.align	2
 1098              	.LC27:
 1099 0210 57545345 		.ascii	"WTSEM\000"
 1099      4D00
 1100 0216 0000     		.align	2
 1101              	.LC28:
 1102 0218 57544D54 		.ascii	"WTMTX\000"
 1102      5800
 1103 021e 0000     		.align	2
 1104              	.LC29:
 1105 0220 5754434F 		.ascii	"WTCOND\000"
 1105      4E4400
 1106 0227 00       		.align	2
 1107              	.LC30:
 1108 0228 534C4545 		.ascii	"SLEEPING\000"
 1108      50494E47 
 1108      00
 1109 0231 000000   		.align	2
 1110              	.LC31:
 1111 0234 57544558 		.ascii	"WTEXIT\000"
 1111      495400
ARM GAS  /tmp/ccPMjPDN.s 			page 22


 1112 023b 00       		.align	2
 1113              	.LC32:
 1114 023c 57544F52 		.ascii	"WTOREVT\000"
 1114      45565400 
 1115              		.align	2
 1116              	.LC33:
 1117 0244 5754414E 		.ascii	"WTANDEVT\000"
 1117      44455654 
 1117      00
 1118 024d 000000   		.align	2
 1119              	.LC34:
 1120 0250 534E444D 		.ascii	"SNDMSGQ\000"
 1120      53475100 
 1121              		.align	2
 1122              	.LC35:
 1123 0258 534E444D 		.ascii	"SNDMSG\000"
 1123      534700
 1124 025f 00       		.align	2
 1125              	.LC36:
 1126 0260 57544D53 		.ascii	"WTMSG\000"
 1126      4700
 1127 0266 0000     		.align	2
 1128              	.LC37:
 1129 0268 57545155 		.ascii	"WTQUEUE\000"
 1129      45554500 
 1130              		.align	2
 1131              	.LC38:
 1132 0270 46494E41 		.ascii	"FINAL\000"
 1132      4C00
 1133 0276 0000     		.section	.data.states.9281,"aw",%progbits
 1134              		.align	2
 1135              		.type	states.9281, %object
 1136              		.size	states.9281, 60
 1137              	states.9281:
 1138 0000 F4010000 		.word	.LC24
 1139 0004 FC010000 		.word	.LC25
 1140 0008 04020000 		.word	.LC26
 1141 000c 10020000 		.word	.LC27
 1142 0010 18020000 		.word	.LC28
 1143 0014 20020000 		.word	.LC29
 1144 0018 28020000 		.word	.LC30
 1145 001c 34020000 		.word	.LC31
 1146 0020 3C020000 		.word	.LC32
 1147 0024 44020000 		.word	.LC33
 1148 0028 50020000 		.word	.LC34
 1149 002c 58020000 		.word	.LC35
 1150 0030 60020000 		.word	.LC36
 1151 0034 68020000 		.word	.LC37
 1152 0038 70020000 		.word	.LC38
 1153              		.text
 1154              	.Letext0:
 1155              		.file 2 "/usr/bin/../lib/gcc/arm-none-eabi/4.7.4/include/stddef.h"
 1156              		.file 3 "/usr/bin/../lib/gcc/arm-none-eabi/4.7.4/../../../../arm-none-eabi/include/stdint.h"
 1157              		.file 4 "../../os/ports/GCC/ARMCMx/chtypes.h"
 1158              		.file 5 "../../os/kernel/include/chlists.h"
 1159              		.file 6 "../../os/kernel/include/chthreads.h"
 1160              		.file 7 "../../os/ports/GCC/ARMCMx/chcore_v7m.h"
ARM GAS  /tmp/ccPMjPDN.s 			page 23


 1161              		.file 8 "../../os/kernel/include/chschd.h"
 1162              		.file 9 "../../os/kernel/include/chsem.h"
 1163              		.file 10 "../../os/kernel/include/chbsem.h"
 1164              		.file 11 "../../os/kernel/include/chmtx.h"
 1165              		.file 12 "../../os/kernel/include/chevents.h"
 1166              		.file 13 "../../os/kernel/include/chqueues.h"
 1167              		.file 14 "../../os/kernel/include/chstreams.h"
 1168              		.file 15 "../../os/hal/platforms/STM32F4xx/stm32f4xx.h"
 1169              		.file 16 "../../os/hal/platforms/STM32F4xx/stm32_dma.h"
 1170              		.file 17 "../../os/hal/platforms/STM32/GPIOv2/pal_lld.h"
 1171              		.file 18 "../../os/hal/include/uart.h"
 1172              		.file 19 "../../os/hal/platforms/STM32/USARTv1/uart_lld.h"
 1173              		.file 20 "../../os/hal/include/usb.h"
 1174              		.file 21 "../../os/hal/platforms/STM32/OTGv1/usb_lld.h"
 1175              		.file 22 "../../os/hal/platforms/STM32/OTGv1/stm32_otg.h"
 1176              		.file 23 "../../os/hal/include/serial_usb.h"
 1177              		.file 24 "../../os/various/shell.h"
 1178              		.file 25 "oneWire.h"
 1179              		.file 26 "../../os/ports/common/ARMCMx/CMSIS/include/core_cm4.h"
 1180              		.file 27 "usbcfg.h"