ARM GAS  /tmp/cc3AmGNb.s 			page 1


   1              		.syntax unified
   2              		.cpu cortex-m4
   3              		.fpu softvfp
   4              		.eabi_attribute 20, 1
   5              		.eabi_attribute 21, 1
   6              		.eabi_attribute 23, 3
   7              		.eabi_attribute 24, 1
   8              		.eabi_attribute 25, 1
   9              		.eabi_attribute 26, 1
  10              		.eabi_attribute 30, 6
  11              		.eabi_attribute 34, 1
  12              		.eabi_attribute 18, 4
  13              		.thumb
  14              		.file	"nvic.c"
  15              		.text
  16              	.Ltext0:
  17              		.cfi_sections	.debug_frame
  18              		.section	.text.nvicEnableVector,"ax",%progbits
  19              		.align	2
  20              		.p2align 4,,15
  21              		.global	nvicEnableVector
  22              		.thumb
  23              		.thumb_func
  24              		.type	nvicEnableVector, %function
  25              	nvicEnableVector:
  26              	.LFB7:
  27              		.file 1 "../../os/ports/common/ARMCMx/nvic.c"
  28              		.loc 1 39 0
  29              		.cfi_startproc
  30              		@ args = 0, pretend = 0, frame = 16
  31              		@ frame_needed = 0, uses_anonymous_args = 0
  32              		@ link register save eliminated.
  33 0000 10B4     		push	{r4}
  34              	.LCFI0:
  35              		.cfi_def_cfa_offset 4
  36              		.cfi_offset 4, -4
  37 0002 85B0     		sub	sp, sp, #20
  38              	.LCFI1:
  39              		.cfi_def_cfa_offset 24
  40 0004 0190     		str	r0, [sp, #4]
  41 0006 0091     		str	r1, [sp, #0]
  42              		.loc 1 40 0
  43 0008 019B     		ldr	r3, [sp, #4]
  44 000a 03F00303 		and	r3, r3, #3
  45 000e 4FEAC303 		lsl	r3, r3, #3
  46 0012 0393     		str	r3, [sp, #12]
  47              		.loc 1 42 0
  48 0014 4FF46143 		mov	r3, #57600
  49 0018 CEF20003 		movt	r3, 57344
  50 001c 019A     		ldr	r2, [sp, #4]
  51 001e 4FEA9200 		lsr	r0, r2, #2
  52 0022 4FF46142 		mov	r2, #57600
  53 0026 CEF20002 		movt	r2, 57344
  54 002a 0199     		ldr	r1, [sp, #4]
  55 002c 4FEA9101 		lsr	r1, r1, #2
  56 0030 01F1C001 		add	r1, r1, #192
  57 0034 52F82110 		ldr	r1, [r2, r1, lsl #2]
ARM GAS  /tmp/cc3AmGNb.s 			page 2


  58 0038 039A     		ldr	r2, [sp, #12]
  59 003a 4FF0FF04 		mov	r4, #255
  60 003e 04FA02F2 		lsl	r2, r4, r2
  61 0042 6FEA0202 		mvn	r2, r2
  62 0046 1140     		ands	r1, r1, r2
  63 0048 039A     		ldr	r2, [sp, #12]
  64 004a 009C     		ldr	r4, [sp, #0]
  65 004c 04FA02F2 		lsl	r2, r4, r2
  66 0050 1143     		orrs	r1, r1, r2
  67 0052 00F1C002 		add	r2, r0, #192
  68 0056 43F82210 		str	r1, [r3, r2, lsl #2]
  69              		.loc 1 43 0
  70 005a 4FF46143 		mov	r3, #57600
  71 005e CEF20003 		movt	r3, 57344
  72 0062 019A     		ldr	r2, [sp, #4]
  73 0064 4FEA5212 		lsr	r2, r2, #5
  74 0068 0199     		ldr	r1, [sp, #4]
  75 006a 01F01F01 		and	r1, r1, #31
  76 006e 4FF00100 		mov	r0, #1
  77 0072 00FA01F1 		lsl	r1, r0, r1
  78 0076 02F16002 		add	r2, r2, #96
  79 007a 43F82210 		str	r1, [r3, r2, lsl #2]
  80              		.loc 1 44 0
  81 007e 4FF46143 		mov	r3, #57600
  82 0082 CEF20003 		movt	r3, 57344
  83 0086 019A     		ldr	r2, [sp, #4]
  84 0088 4FEA5212 		lsr	r2, r2, #5
  85 008c 0199     		ldr	r1, [sp, #4]
  86 008e 01F01F01 		and	r1, r1, #31
  87 0092 4FF00100 		mov	r0, #1
  88 0096 00FA01F1 		lsl	r1, r0, r1
  89 009a 43F82210 		str	r1, [r3, r2, lsl #2]
  90              		.loc 1 45 0
  91 009e 05B0     		add	sp, sp, #20
  92 00a0 10BC     		pop	{r4}
  93 00a2 7047     		bx	lr
  94              		.cfi_endproc
  95              	.LFE7:
  96              		.size	nvicEnableVector, .-nvicEnableVector
  97 00a4 AFF30080 		.section	.text.nvicDisableVector,"ax",%progbits
  97      AFF30080 
  97      AFF30080 
  98              		.align	2
  99              		.p2align 4,,15
 100              		.global	nvicDisableVector
 101              		.thumb
 102              		.thumb_func
 103              		.type	nvicDisableVector, %function
 104              	nvicDisableVector:
 105              	.LFB8:
 106              		.loc 1 53 0
 107              		.cfi_startproc
 108              		@ args = 0, pretend = 0, frame = 16
 109              		@ frame_needed = 0, uses_anonymous_args = 0
 110              		@ link register save eliminated.
 111 0000 10B4     		push	{r4}
 112              	.LCFI2:
ARM GAS  /tmp/cc3AmGNb.s 			page 3


 113              		.cfi_def_cfa_offset 4
 114              		.cfi_offset 4, -4
 115 0002 85B0     		sub	sp, sp, #20
 116              	.LCFI3:
 117              		.cfi_def_cfa_offset 24
 118 0004 0190     		str	r0, [sp, #4]
 119              		.loc 1 54 0
 120 0006 019B     		ldr	r3, [sp, #4]
 121 0008 03F00303 		and	r3, r3, #3
 122 000c 4FEAC303 		lsl	r3, r3, #3
 123 0010 0393     		str	r3, [sp, #12]
 124              		.loc 1 56 0
 125 0012 4FF46143 		mov	r3, #57600
 126 0016 CEF20003 		movt	r3, 57344
 127 001a 019A     		ldr	r2, [sp, #4]
 128 001c 4FEA5212 		lsr	r2, r2, #5
 129 0020 0199     		ldr	r1, [sp, #4]
 130 0022 01F01F01 		and	r1, r1, #31
 131 0026 4FF00100 		mov	r0, #1
 132 002a 00FA01F1 		lsl	r1, r0, r1
 133 002e 02F12002 		add	r2, r2, #32
 134 0032 43F82210 		str	r1, [r3, r2, lsl #2]
 135              		.loc 1 57 0
 136 0036 4FF46143 		mov	r3, #57600
 137 003a CEF20003 		movt	r3, 57344
 138 003e 019A     		ldr	r2, [sp, #4]
 139 0040 4FEA9200 		lsr	r0, r2, #2
 140 0044 4FF46142 		mov	r2, #57600
 141 0048 CEF20002 		movt	r2, 57344
 142 004c 0199     		ldr	r1, [sp, #4]
 143 004e 4FEA9101 		lsr	r1, r1, #2
 144 0052 01F1C001 		add	r1, r1, #192
 145 0056 52F82110 		ldr	r1, [r2, r1, lsl #2]
 146 005a 039A     		ldr	r2, [sp, #12]
 147 005c 4FF0FF04 		mov	r4, #255
 148 0060 04FA02F2 		lsl	r2, r4, r2
 149 0064 6FEA0202 		mvn	r2, r2
 150 0068 1140     		ands	r1, r1, r2
 151 006a 00F1C002 		add	r2, r0, #192
 152 006e 43F82210 		str	r1, [r3, r2, lsl #2]
 153              		.loc 1 58 0
 154 0072 05B0     		add	sp, sp, #20
 155 0074 10BC     		pop	{r4}
 156 0076 7047     		bx	lr
 157              		.cfi_endproc
 158              	.LFE8:
 159              		.size	nvicDisableVector, .-nvicDisableVector
 160 0078 AFF30080 		.section	.text.nvicSetSystemHandlerPriority,"ax",%progbits
 160      AFF30080 
 161              		.align	2
 162              		.p2align 4,,15
 163              		.global	nvicSetSystemHandlerPriority
 164              		.thumb
 165              		.thumb_func
 166              		.type	nvicSetSystemHandlerPriority, %function
 167              	nvicSetSystemHandlerPriority:
 168              	.LFB9:
ARM GAS  /tmp/cc3AmGNb.s 			page 4


 169              		.loc 1 67 0
 170              		.cfi_startproc
 171              		@ args = 0, pretend = 0, frame = 16
 172              		@ frame_needed = 0, uses_anonymous_args = 0
 173              		@ link register save eliminated.
 174 0000 10B4     		push	{r4}
 175              	.LCFI4:
 176              		.cfi_def_cfa_offset 4
 177              		.cfi_offset 4, -4
 178 0002 85B0     		sub	sp, sp, #20
 179              	.LCFI5:
 180              		.cfi_def_cfa_offset 24
 181 0004 0190     		str	r0, [sp, #4]
 182 0006 0091     		str	r1, [sp, #0]
 183              		.loc 1 68 0
 184 0008 019B     		ldr	r3, [sp, #4]
 185 000a 03F00303 		and	r3, r3, #3
 186 000e 4FEAC303 		lsl	r3, r3, #3
 187 0012 0393     		str	r3, [sp, #12]
 188              		.loc 1 70 0
 189 0014 4FF46D43 		mov	r3, #60672
 190 0018 CEF20003 		movt	r3, 57344
 191 001c 019A     		ldr	r2, [sp, #4]
 192 001e 4FEA9200 		lsr	r0, r2, #2
 193 0022 4FF46D42 		mov	r2, #60672
 194 0026 CEF20002 		movt	r2, 57344
 195 002a 0199     		ldr	r1, [sp, #4]
 196 002c 4FEA9101 		lsr	r1, r1, #2
 197 0030 01F10601 		add	r1, r1, #6
 198 0034 52F82110 		ldr	r1, [r2, r1, lsl #2]
 199              		.loc 1 71 0
 200 0038 039A     		ldr	r2, [sp, #12]
 201 003a 4FF0FF04 		mov	r4, #255
 202 003e 04FA02F2 		lsl	r2, r4, r2
 203 0042 6FEA0202 		mvn	r2, r2
 204              		.loc 1 70 0
 205 0046 1140     		ands	r1, r1, r2
 206              		.loc 1 71 0
 207 0048 039A     		ldr	r2, [sp, #12]
 208 004a 009C     		ldr	r4, [sp, #0]
 209 004c 04FA02F2 		lsl	r2, r4, r2
 210 0050 1143     		orrs	r1, r1, r2
 211              		.loc 1 70 0
 212 0052 00F10602 		add	r2, r0, #6
 213 0056 43F82210 		str	r1, [r3, r2, lsl #2]
 214              		.loc 1 72 0
 215 005a 05B0     		add	sp, sp, #20
 216 005c 10BC     		pop	{r4}
 217 005e 7047     		bx	lr
 218              		.cfi_endproc
 219              	.LFE9:
 220              		.size	nvicSetSystemHandlerPriority, .-nvicSetSystemHandlerPriority
 221              		.text
 222              	.Letext0:
 223              		.file 2 "/usr/bin/../lib/gcc/arm-none-eabi/4.7.4/../../../../arm-none-eabi/include/stdint.h"
 224              		.file 3 "../../os/ports/common/ARMCMx/nvic.h"