ARM GAS  /tmp/ccIFh2YN.s 			page 1


   1              		.syntax unified
   2              		.cpu cortex-m4
   3              		.fpu softvfp
   4              		.eabi_attribute 20, 1
   5              		.eabi_attribute 21, 1
   6              		.eabi_attribute 23, 3
   7              		.eabi_attribute 24, 1
   8              		.eabi_attribute 25, 1
   9              		.eabi_attribute 26, 1
  10              		.eabi_attribute 30, 6
  11              		.eabi_attribute 34, 1
  12              		.eabi_attribute 18, 4
  13              		.thumb
  14              		.file	"oneWire.c"
  15              		.text
  16              	.Ltext0:
  17              		.cfi_sections	.debug_frame
  18              		.section	.bss.usartDict,"aw",%nobits
  19              		.align	2
  20              		.type	usartDict, %object
  21              		.size	usartDict, 48
  22              	usartDict:
  23 0000 00000000 		.space	48
  23      00000000 
  23      00000000 
  23      00000000 
  23      00000000 
  24              		.section	.rodata.uartCfgReset,"a",%progbits
  25              		.align	2
  26              		.type	uartCfgReset, %object
  27              		.size	uartCfgReset, 32
  28              	uartCfgReset:
  29 0000 00000000 		.word	0
  30 0004 00000000 		.word	txBufferEmpty
  31 0008 00000000 		.word	rxEnd
  32 000c 00000000 		.word	0
  33 0010 00000000 		.word	rxErr
  34 0014 80250000 		.word	9600
  35 0018 0000     		.short	0
  36 001a 0000     		.short	0
  37 001c 0800     		.short	8
  38 001e 0000     		.space	2
  39              		.section	.rodata.uartCfgTransfert,"a",%progbits
  40              		.align	2
  41              		.type	uartCfgTransfert, %object
  42              		.size	uartCfgTransfert, 32
  43              	uartCfgTransfert:
  44 0000 00000000 		.word	0
  45 0004 00000000 		.word	txBufferEmpty
  46 0008 00000000 		.word	rxEnd
  47 000c 00000000 		.word	0
  48 0010 00000000 		.word	rxErr
  49 0014 00C20100 		.word	115200
  50 0018 0000     		.short	0
  51 001a 0000     		.short	0
  52 001c 0800     		.short	8
  53 001e 0000     		.space	2
ARM GAS  /tmp/ccIFh2YN.s 			page 2


  54              		.section	.rodata.dscrc_table,"a",%progbits
  55              		.align	2
  56              		.type	dscrc_table, %object
  57              		.size	dscrc_table, 256
  58              	dscrc_table:
  59 0000 00       		.byte	0
  60 0001 5E       		.byte	94
  61 0002 BC       		.byte	-68
  62 0003 E2       		.byte	-30
  63 0004 61       		.byte	97
  64 0005 3F       		.byte	63
  65 0006 DD       		.byte	-35
  66 0007 83       		.byte	-125
  67 0008 C2       		.byte	-62
  68 0009 9C       		.byte	-100
  69 000a 7E       		.byte	126
  70 000b 20       		.byte	32
  71 000c A3       		.byte	-93
  72 000d FD       		.byte	-3
  73 000e 1F       		.byte	31
  74 000f 41       		.byte	65
  75 0010 9D       		.byte	-99
  76 0011 C3       		.byte	-61
  77 0012 21       		.byte	33
  78 0013 7F       		.byte	127
  79 0014 FC       		.byte	-4
  80 0015 A2       		.byte	-94
  81 0016 40       		.byte	64
  82 0017 1E       		.byte	30
  83 0018 5F       		.byte	95
  84 0019 01       		.byte	1
  85 001a E3       		.byte	-29
  86 001b BD       		.byte	-67
  87 001c 3E       		.byte	62
  88 001d 60       		.byte	96
  89 001e 82       		.byte	-126
  90 001f DC       		.byte	-36
  91 0020 23       		.byte	35
  92 0021 7D       		.byte	125
  93 0022 9F       		.byte	-97
  94 0023 C1       		.byte	-63
  95 0024 42       		.byte	66
  96 0025 1C       		.byte	28
  97 0026 FE       		.byte	-2
  98 0027 A0       		.byte	-96
  99 0028 E1       		.byte	-31
 100 0029 BF       		.byte	-65
 101 002a 5D       		.byte	93
 102 002b 03       		.byte	3
 103 002c 80       		.byte	-128
 104 002d DE       		.byte	-34
 105 002e 3C       		.byte	60
 106 002f 62       		.byte	98
 107 0030 BE       		.byte	-66
 108 0031 E0       		.byte	-32
 109 0032 02       		.byte	2
 110 0033 5C       		.byte	92
ARM GAS  /tmp/ccIFh2YN.s 			page 3


 111 0034 DF       		.byte	-33
 112 0035 81       		.byte	-127
 113 0036 63       		.byte	99
 114 0037 3D       		.byte	61
 115 0038 7C       		.byte	124
 116 0039 22       		.byte	34
 117 003a C0       		.byte	-64
 118 003b 9E       		.byte	-98
 119 003c 1D       		.byte	29
 120 003d 43       		.byte	67
 121 003e A1       		.byte	-95
 122 003f FF       		.byte	-1
 123 0040 46       		.byte	70
 124 0041 18       		.byte	24
 125 0042 FA       		.byte	-6
 126 0043 A4       		.byte	-92
 127 0044 27       		.byte	39
 128 0045 79       		.byte	121
 129 0046 9B       		.byte	-101
 130 0047 C5       		.byte	-59
 131 0048 84       		.byte	-124
 132 0049 DA       		.byte	-38
 133 004a 38       		.byte	56
 134 004b 66       		.byte	102
 135 004c E5       		.byte	-27
 136 004d BB       		.byte	-69
 137 004e 59       		.byte	89
 138 004f 07       		.byte	7
 139 0050 DB       		.byte	-37
 140 0051 85       		.byte	-123
 141 0052 67       		.byte	103
 142 0053 39       		.byte	57
 143 0054 BA       		.byte	-70
 144 0055 E4       		.byte	-28
 145 0056 06       		.byte	6
 146 0057 58       		.byte	88
 147 0058 19       		.byte	25
 148 0059 47       		.byte	71
 149 005a A5       		.byte	-91
 150 005b FB       		.byte	-5
 151 005c 78       		.byte	120
 152 005d 26       		.byte	38
 153 005e C4       		.byte	-60
 154 005f 9A       		.byte	-102
 155 0060 65       		.byte	101
 156 0061 3B       		.byte	59
 157 0062 D9       		.byte	-39
 158 0063 87       		.byte	-121
 159 0064 04       		.byte	4
 160 0065 5A       		.byte	90
 161 0066 B8       		.byte	-72
 162 0067 E6       		.byte	-26
 163 0068 A7       		.byte	-89
 164 0069 F9       		.byte	-7
 165 006a 1B       		.byte	27
 166 006b 45       		.byte	69
 167 006c C6       		.byte	-58
ARM GAS  /tmp/ccIFh2YN.s 			page 4


 168 006d 98       		.byte	-104
 169 006e 7A       		.byte	122
 170 006f 24       		.byte	36
 171 0070 F8       		.byte	-8
 172 0071 A6       		.byte	-90
 173 0072 44       		.byte	68
 174 0073 1A       		.byte	26
 175 0074 99       		.byte	-103
 176 0075 C7       		.byte	-57
 177 0076 25       		.byte	37
 178 0077 7B       		.byte	123
 179 0078 3A       		.byte	58
 180 0079 64       		.byte	100
 181 007a 86       		.byte	-122
 182 007b D8       		.byte	-40
 183 007c 5B       		.byte	91
 184 007d 05       		.byte	5
 185 007e E7       		.byte	-25
 186 007f B9       		.byte	-71
 187 0080 8C       		.byte	-116
 188 0081 D2       		.byte	-46
 189 0082 30       		.byte	48
 190 0083 6E       		.byte	110
 191 0084 ED       		.byte	-19
 192 0085 B3       		.byte	-77
 193 0086 51       		.byte	81
 194 0087 0F       		.byte	15
 195 0088 4E       		.byte	78
 196 0089 10       		.byte	16
 197 008a F2       		.byte	-14
 198 008b AC       		.byte	-84
 199 008c 2F       		.byte	47
 200 008d 71       		.byte	113
 201 008e 93       		.byte	-109
 202 008f CD       		.byte	-51
 203 0090 11       		.byte	17
 204 0091 4F       		.byte	79
 205 0092 AD       		.byte	-83
 206 0093 F3       		.byte	-13
 207 0094 70       		.byte	112
 208 0095 2E       		.byte	46
 209 0096 CC       		.byte	-52
 210 0097 92       		.byte	-110
 211 0098 D3       		.byte	-45
 212 0099 8D       		.byte	-115
 213 009a 6F       		.byte	111
 214 009b 31       		.byte	49
 215 009c B2       		.byte	-78
 216 009d EC       		.byte	-20
 217 009e 0E       		.byte	14
 218 009f 50       		.byte	80
 219 00a0 AF       		.byte	-81
 220 00a1 F1       		.byte	-15
 221 00a2 13       		.byte	19
 222 00a3 4D       		.byte	77
 223 00a4 CE       		.byte	-50
 224 00a5 90       		.byte	-112
ARM GAS  /tmp/ccIFh2YN.s 			page 5


 225 00a6 72       		.byte	114
 226 00a7 2C       		.byte	44
 227 00a8 6D       		.byte	109
 228 00a9 33       		.byte	51
 229 00aa D1       		.byte	-47
 230 00ab 8F       		.byte	-113
 231 00ac 0C       		.byte	12
 232 00ad 52       		.byte	82
 233 00ae B0       		.byte	-80
 234 00af EE       		.byte	-18
 235 00b0 32       		.byte	50
 236 00b1 6C       		.byte	108
 237 00b2 8E       		.byte	-114
 238 00b3 D0       		.byte	-48
 239 00b4 53       		.byte	83
 240 00b5 0D       		.byte	13
 241 00b6 EF       		.byte	-17
 242 00b7 B1       		.byte	-79
 243 00b8 F0       		.byte	-16
 244 00b9 AE       		.byte	-82
 245 00ba 4C       		.byte	76
 246 00bb 12       		.byte	18
 247 00bc 91       		.byte	-111
 248 00bd CF       		.byte	-49
 249 00be 2D       		.byte	45
 250 00bf 73       		.byte	115
 251 00c0 CA       		.byte	-54
 252 00c1 94       		.byte	-108
 253 00c2 76       		.byte	118
 254 00c3 28       		.byte	40
 255 00c4 AB       		.byte	-85
 256 00c5 F5       		.byte	-11
 257 00c6 17       		.byte	23
 258 00c7 49       		.byte	73
 259 00c8 08       		.byte	8
 260 00c9 56       		.byte	86
 261 00ca B4       		.byte	-76
 262 00cb EA       		.byte	-22
 263 00cc 69       		.byte	105
 264 00cd 37       		.byte	55
 265 00ce D5       		.byte	-43
 266 00cf 8B       		.byte	-117
 267 00d0 57       		.byte	87
 268 00d1 09       		.byte	9
 269 00d2 EB       		.byte	-21
 270 00d3 B5       		.byte	-75
 271 00d4 36       		.byte	54
 272 00d5 68       		.byte	104
 273 00d6 8A       		.byte	-118
 274 00d7 D4       		.byte	-44
 275 00d8 95       		.byte	-107
 276 00d9 CB       		.byte	-53
 277 00da 29       		.byte	41
 278 00db 77       		.byte	119
 279 00dc F4       		.byte	-12
 280 00dd AA       		.byte	-86
 281 00de 48       		.byte	72
ARM GAS  /tmp/ccIFh2YN.s 			page 6


 282 00df 16       		.byte	22
 283 00e0 E9       		.byte	-23
 284 00e1 B7       		.byte	-73
 285 00e2 55       		.byte	85
 286 00e3 0B       		.byte	11
 287 00e4 88       		.byte	-120
 288 00e5 D6       		.byte	-42
 289 00e6 34       		.byte	52
 290 00e7 6A       		.byte	106
 291 00e8 2B       		.byte	43
 292 00e9 75       		.byte	117
 293 00ea 97       		.byte	-105
 294 00eb C9       		.byte	-55
 295 00ec 4A       		.byte	74
 296 00ed 14       		.byte	20
 297 00ee F6       		.byte	-10
 298 00ef A8       		.byte	-88
 299 00f0 74       		.byte	116
 300 00f1 2A       		.byte	42
 301 00f2 C8       		.byte	-56
 302 00f3 96       		.byte	-106
 303 00f4 15       		.byte	21
 304 00f5 4B       		.byte	75
 305 00f6 A9       		.byte	-87
 306 00f7 F7       		.byte	-9
 307 00f8 B6       		.byte	-74
 308 00f9 E8       		.byte	-24
 309 00fa 0A       		.byte	10
 310 00fb 54       		.byte	84
 311 00fc D7       		.byte	-41
 312 00fd 89       		.byte	-119
 313 00fe 6B       		.byte	107
 314 00ff 35       		.byte	53
 315              		.section	.rodata.owBufferWrite,"a",%progbits
 316              		.align	2
 317              		.type	owBufferWrite, %object
 318              		.size	owBufferWrite, 512
 319              	owBufferWrite:
 320 0000 FF       		.byte	-1
 321 0001 FF       		.byte	-1
 322 0002 FF       		.byte	-1
 323 0003 FF       		.byte	-1
 324 0004 FF       		.byte	-1
 325 0005 FF       		.byte	-1
 326 0006 FF       		.byte	-1
 327 0007 FF       		.byte	-1
 328 0008 FF       		.byte	-1
 329 0009 FF       		.byte	-1
 330 000a FF       		.byte	-1
 331 000b FF       		.byte	-1
 332 000c FF       		.byte	-1
 333 000d FF       		.byte	-1
 334 000e FF       		.byte	-1
 335 000f FF       		.byte	-1
 336 0010 FF       		.byte	-1
 337 0011 FF       		.byte	-1
 338 0012 FF       		.byte	-1
ARM GAS  /tmp/ccIFh2YN.s 			page 7


 339 0013 FF       		.byte	-1
 340 0014 FF       		.byte	-1
 341 0015 FF       		.byte	-1
 342 0016 FF       		.byte	-1
 343 0017 FF       		.byte	-1
 344 0018 FF       		.byte	-1
 345 0019 FF       		.byte	-1
 346 001a FF       		.byte	-1
 347 001b FF       		.byte	-1
 348 001c FF       		.byte	-1
 349 001d FF       		.byte	-1
 350 001e FF       		.byte	-1
 351 001f FF       		.byte	-1
 352 0020 FF       		.byte	-1
 353 0021 FF       		.byte	-1
 354 0022 FF       		.byte	-1
 355 0023 FF       		.byte	-1
 356 0024 FF       		.byte	-1
 357 0025 FF       		.byte	-1
 358 0026 FF       		.byte	-1
 359 0027 FF       		.byte	-1
 360 0028 FF       		.byte	-1
 361 0029 FF       		.byte	-1
 362 002a FF       		.byte	-1
 363 002b FF       		.byte	-1
 364 002c FF       		.byte	-1
 365 002d FF       		.byte	-1
 366 002e FF       		.byte	-1
 367 002f FF       		.byte	-1
 368 0030 FF       		.byte	-1
 369 0031 FF       		.byte	-1
 370 0032 FF       		.byte	-1
 371 0033 FF       		.byte	-1
 372 0034 FF       		.byte	-1
 373 0035 FF       		.byte	-1
 374 0036 FF       		.byte	-1
 375 0037 FF       		.byte	-1
 376 0038 FF       		.byte	-1
 377 0039 FF       		.byte	-1
 378 003a FF       		.byte	-1
 379 003b FF       		.byte	-1
 380 003c FF       		.byte	-1
 381 003d FF       		.byte	-1
 382 003e FF       		.byte	-1
 383 003f FF       		.byte	-1
 384 0040 FF       		.byte	-1
 385 0041 FF       		.byte	-1
 386 0042 FF       		.byte	-1
 387 0043 FF       		.byte	-1
 388 0044 FF       		.byte	-1
 389 0045 FF       		.byte	-1
 390 0046 FF       		.byte	-1
 391 0047 FF       		.byte	-1
 392 0048 FF       		.byte	-1
 393 0049 FF       		.byte	-1
 394 004a FF       		.byte	-1
 395 004b FF       		.byte	-1
ARM GAS  /tmp/ccIFh2YN.s 			page 8


 396 004c FF       		.byte	-1
 397 004d FF       		.byte	-1
 398 004e FF       		.byte	-1
 399 004f FF       		.byte	-1
 400 0050 FF       		.byte	-1
 401 0051 FF       		.byte	-1
 402 0052 FF       		.byte	-1
 403 0053 FF       		.byte	-1
 404 0054 FF       		.byte	-1
 405 0055 FF       		.byte	-1
 406 0056 FF       		.byte	-1
 407 0057 FF       		.byte	-1
 408 0058 FF       		.byte	-1
 409 0059 FF       		.byte	-1
 410 005a FF       		.byte	-1
 411 005b FF       		.byte	-1
 412 005c FF       		.byte	-1
 413 005d FF       		.byte	-1
 414 005e FF       		.byte	-1
 415 005f FF       		.byte	-1
 416 0060 FF       		.byte	-1
 417 0061 FF       		.byte	-1
 418 0062 FF       		.byte	-1
 419 0063 FF       		.byte	-1
 420 0064 FF       		.byte	-1
 421 0065 FF       		.byte	-1
 422 0066 FF       		.byte	-1
 423 0067 FF       		.byte	-1
 424 0068 FF       		.byte	-1
 425 0069 FF       		.byte	-1
 426 006a FF       		.byte	-1
 427 006b FF       		.byte	-1
 428 006c FF       		.byte	-1
 429 006d FF       		.byte	-1
 430 006e FF       		.byte	-1
 431 006f FF       		.byte	-1
 432 0070 FF       		.byte	-1
 433 0071 FF       		.byte	-1
 434 0072 FF       		.byte	-1
 435 0073 FF       		.byte	-1
 436 0074 FF       		.byte	-1
 437 0075 FF       		.byte	-1
 438 0076 FF       		.byte	-1
 439 0077 FF       		.byte	-1
 440 0078 FF       		.byte	-1
 441 0079 FF       		.byte	-1
 442 007a FF       		.byte	-1
 443 007b FF       		.byte	-1
 444 007c FF       		.byte	-1
 445 007d FF       		.byte	-1
 446 007e FF       		.byte	-1
 447 007f FF       		.byte	-1
 448 0080 FF       		.byte	-1
 449 0081 FF       		.byte	-1
 450 0082 FF       		.byte	-1
 451 0083 FF       		.byte	-1
 452 0084 FF       		.byte	-1
ARM GAS  /tmp/ccIFh2YN.s 			page 9


 453 0085 FF       		.byte	-1
 454 0086 FF       		.byte	-1
 455 0087 FF       		.byte	-1
 456 0088 FF       		.byte	-1
 457 0089 FF       		.byte	-1
 458 008a FF       		.byte	-1
 459 008b FF       		.byte	-1
 460 008c FF       		.byte	-1
 461 008d FF       		.byte	-1
 462 008e FF       		.byte	-1
 463 008f FF       		.byte	-1
 464 0090 FF       		.byte	-1
 465 0091 FF       		.byte	-1
 466 0092 FF       		.byte	-1
 467 0093 FF       		.byte	-1
 468 0094 FF       		.byte	-1
 469 0095 FF       		.byte	-1
 470 0096 FF       		.byte	-1
 471 0097 FF       		.byte	-1
 472 0098 FF       		.byte	-1
 473 0099 FF       		.byte	-1
 474 009a FF       		.byte	-1
 475 009b FF       		.byte	-1
 476 009c FF       		.byte	-1
 477 009d FF       		.byte	-1
 478 009e FF       		.byte	-1
 479 009f FF       		.byte	-1
 480 00a0 FF       		.byte	-1
 481 00a1 FF       		.byte	-1
 482 00a2 FF       		.byte	-1
 483 00a3 FF       		.byte	-1
 484 00a4 FF       		.byte	-1
 485 00a5 FF       		.byte	-1
 486 00a6 FF       		.byte	-1
 487 00a7 FF       		.byte	-1
 488 00a8 FF       		.byte	-1
 489 00a9 FF       		.byte	-1
 490 00aa FF       		.byte	-1
 491 00ab FF       		.byte	-1
 492 00ac FF       		.byte	-1
 493 00ad FF       		.byte	-1
 494 00ae FF       		.byte	-1
 495 00af FF       		.byte	-1
 496 00b0 FF       		.byte	-1
 497 00b1 FF       		.byte	-1
 498 00b2 FF       		.byte	-1
 499 00b3 FF       		.byte	-1
 500 00b4 FF       		.byte	-1
 501 00b5 FF       		.byte	-1
 502 00b6 FF       		.byte	-1
 503 00b7 FF       		.byte	-1
 504 00b8 FF       		.byte	-1
 505 00b9 FF       		.byte	-1
 506 00ba FF       		.byte	-1
 507 00bb FF       		.byte	-1
 508 00bc FF       		.byte	-1
 509 00bd FF       		.byte	-1
ARM GAS  /tmp/ccIFh2YN.s 			page 10


 510 00be FF       		.byte	-1
 511 00bf FF       		.byte	-1
 512 00c0 FF       		.byte	-1
 513 00c1 FF       		.byte	-1
 514 00c2 FF       		.byte	-1
 515 00c3 FF       		.byte	-1
 516 00c4 FF       		.byte	-1
 517 00c5 FF       		.byte	-1
 518 00c6 FF       		.byte	-1
 519 00c7 FF       		.byte	-1
 520 00c8 FF       		.byte	-1
 521 00c9 FF       		.byte	-1
 522 00ca FF       		.byte	-1
 523 00cb FF       		.byte	-1
 524 00cc FF       		.byte	-1
 525 00cd FF       		.byte	-1
 526 00ce FF       		.byte	-1
 527 00cf FF       		.byte	-1
 528 00d0 FF       		.byte	-1
 529 00d1 FF       		.byte	-1
 530 00d2 FF       		.byte	-1
 531 00d3 FF       		.byte	-1
 532 00d4 FF       		.byte	-1
 533 00d5 FF       		.byte	-1
 534 00d6 FF       		.byte	-1
 535 00d7 FF       		.byte	-1
 536 00d8 FF       		.byte	-1
 537 00d9 FF       		.byte	-1
 538 00da FF       		.byte	-1
 539 00db FF       		.byte	-1
 540 00dc FF       		.byte	-1
 541 00dd FF       		.byte	-1
 542 00de FF       		.byte	-1
 543 00df FF       		.byte	-1
 544 00e0 FF       		.byte	-1
 545 00e1 FF       		.byte	-1
 546 00e2 FF       		.byte	-1
 547 00e3 FF       		.byte	-1
 548 00e4 FF       		.byte	-1
 549 00e5 FF       		.byte	-1
 550 00e6 FF       		.byte	-1
 551 00e7 FF       		.byte	-1
 552 00e8 FF       		.byte	-1
 553 00e9 FF       		.byte	-1
 554 00ea FF       		.byte	-1
 555 00eb FF       		.byte	-1
 556 00ec FF       		.byte	-1
 557 00ed FF       		.byte	-1
 558 00ee FF       		.byte	-1
 559 00ef FF       		.byte	-1
 560 00f0 FF       		.byte	-1
 561 00f1 FF       		.byte	-1
 562 00f2 FF       		.byte	-1
 563 00f3 FF       		.byte	-1
 564 00f4 FF       		.byte	-1
 565 00f5 FF       		.byte	-1
 566 00f6 FF       		.byte	-1
ARM GAS  /tmp/ccIFh2YN.s 			page 11


 567 00f7 FF       		.byte	-1
 568 00f8 FF       		.byte	-1
 569 00f9 FF       		.byte	-1
 570 00fa FF       		.byte	-1
 571 00fb FF       		.byte	-1
 572 00fc FF       		.byte	-1
 573 00fd FF       		.byte	-1
 574 00fe FF       		.byte	-1
 575 00ff FF       		.byte	-1
 576 0100 FF       		.byte	-1
 577 0101 FF       		.byte	-1
 578 0102 FF       		.byte	-1
 579 0103 FF       		.byte	-1
 580 0104 FF       		.byte	-1
 581 0105 FF       		.byte	-1
 582 0106 FF       		.byte	-1
 583 0107 FF       		.byte	-1
 584 0108 FF       		.byte	-1
 585 0109 FF       		.byte	-1
 586 010a FF       		.byte	-1
 587 010b FF       		.byte	-1
 588 010c FF       		.byte	-1
 589 010d FF       		.byte	-1
 590 010e FF       		.byte	-1
 591 010f FF       		.byte	-1
 592 0110 FF       		.byte	-1
 593 0111 FF       		.byte	-1
 594 0112 FF       		.byte	-1
 595 0113 FF       		.byte	-1
 596 0114 FF       		.byte	-1
 597 0115 FF       		.byte	-1
 598 0116 FF       		.byte	-1
 599 0117 FF       		.byte	-1
 600 0118 FF       		.byte	-1
 601 0119 FF       		.byte	-1
 602 011a FF       		.byte	-1
 603 011b FF       		.byte	-1
 604 011c FF       		.byte	-1
 605 011d FF       		.byte	-1
 606 011e FF       		.byte	-1
 607 011f FF       		.byte	-1
 608 0120 FF       		.byte	-1
 609 0121 FF       		.byte	-1
 610 0122 FF       		.byte	-1
 611 0123 FF       		.byte	-1
 612 0124 FF       		.byte	-1
 613 0125 FF       		.byte	-1
 614 0126 FF       		.byte	-1
 615 0127 FF       		.byte	-1
 616 0128 FF       		.byte	-1
 617 0129 FF       		.byte	-1
 618 012a FF       		.byte	-1
 619 012b FF       		.byte	-1
 620 012c FF       		.byte	-1
 621 012d FF       		.byte	-1
 622 012e FF       		.byte	-1
 623 012f FF       		.byte	-1
ARM GAS  /tmp/ccIFh2YN.s 			page 12


 624 0130 FF       		.byte	-1
 625 0131 FF       		.byte	-1
 626 0132 FF       		.byte	-1
 627 0133 FF       		.byte	-1
 628 0134 FF       		.byte	-1
 629 0135 FF       		.byte	-1
 630 0136 FF       		.byte	-1
 631 0137 FF       		.byte	-1
 632 0138 FF       		.byte	-1
 633 0139 FF       		.byte	-1
 634 013a FF       		.byte	-1
 635 013b FF       		.byte	-1
 636 013c FF       		.byte	-1
 637 013d FF       		.byte	-1
 638 013e FF       		.byte	-1
 639 013f FF       		.byte	-1
 640 0140 FF       		.byte	-1
 641 0141 FF       		.byte	-1
 642 0142 FF       		.byte	-1
 643 0143 FF       		.byte	-1
 644 0144 FF       		.byte	-1
 645 0145 FF       		.byte	-1
 646 0146 FF       		.byte	-1
 647 0147 FF       		.byte	-1
 648 0148 FF       		.byte	-1
 649 0149 FF       		.byte	-1
 650 014a FF       		.byte	-1
 651 014b FF       		.byte	-1
 652 014c FF       		.byte	-1
 653 014d FF       		.byte	-1
 654 014e FF       		.byte	-1
 655 014f FF       		.byte	-1
 656 0150 FF       		.byte	-1
 657 0151 FF       		.byte	-1
 658 0152 FF       		.byte	-1
 659 0153 FF       		.byte	-1
 660 0154 FF       		.byte	-1
 661 0155 FF       		.byte	-1
 662 0156 FF       		.byte	-1
 663 0157 FF       		.byte	-1
 664 0158 FF       		.byte	-1
 665 0159 FF       		.byte	-1
 666 015a FF       		.byte	-1
 667 015b FF       		.byte	-1
 668 015c FF       		.byte	-1
 669 015d FF       		.byte	-1
 670 015e FF       		.byte	-1
 671 015f FF       		.byte	-1
 672 0160 FF       		.byte	-1
 673 0161 FF       		.byte	-1
 674 0162 FF       		.byte	-1
 675 0163 FF       		.byte	-1
 676 0164 FF       		.byte	-1
 677 0165 FF       		.byte	-1
 678 0166 FF       		.byte	-1
 679 0167 FF       		.byte	-1
 680 0168 FF       		.byte	-1
ARM GAS  /tmp/ccIFh2YN.s 			page 13


 681 0169 FF       		.byte	-1
 682 016a FF       		.byte	-1
 683 016b FF       		.byte	-1
 684 016c FF       		.byte	-1
 685 016d FF       		.byte	-1
 686 016e FF       		.byte	-1
 687 016f FF       		.byte	-1
 688 0170 FF       		.byte	-1
 689 0171 FF       		.byte	-1
 690 0172 FF       		.byte	-1
 691 0173 FF       		.byte	-1
 692 0174 FF       		.byte	-1
 693 0175 FF       		.byte	-1
 694 0176 FF       		.byte	-1
 695 0177 FF       		.byte	-1
 696 0178 FF       		.byte	-1
 697 0179 FF       		.byte	-1
 698 017a FF       		.byte	-1
 699 017b FF       		.byte	-1
 700 017c FF       		.byte	-1
 701 017d FF       		.byte	-1
 702 017e FF       		.byte	-1
 703 017f FF       		.byte	-1
 704 0180 FF       		.byte	-1
 705 0181 FF       		.byte	-1
 706 0182 FF       		.byte	-1
 707 0183 FF       		.byte	-1
 708 0184 FF       		.byte	-1
 709 0185 FF       		.byte	-1
 710 0186 FF       		.byte	-1
 711 0187 FF       		.byte	-1
 712 0188 FF       		.byte	-1
 713 0189 FF       		.byte	-1
 714 018a FF       		.byte	-1
 715 018b FF       		.byte	-1
 716 018c FF       		.byte	-1
 717 018d FF       		.byte	-1
 718 018e FF       		.byte	-1
 719 018f FF       		.byte	-1
 720 0190 FF       		.byte	-1
 721 0191 FF       		.byte	-1
 722 0192 FF       		.byte	-1
 723 0193 FF       		.byte	-1
 724 0194 FF       		.byte	-1
 725 0195 FF       		.byte	-1
 726 0196 FF       		.byte	-1
 727 0197 FF       		.byte	-1
 728 0198 FF       		.byte	-1
 729 0199 FF       		.byte	-1
 730 019a FF       		.byte	-1
 731 019b FF       		.byte	-1
 732 019c FF       		.byte	-1
 733 019d FF       		.byte	-1
 734 019e FF       		.byte	-1
 735 019f FF       		.byte	-1
 736 01a0 FF       		.byte	-1
 737 01a1 FF       		.byte	-1
ARM GAS  /tmp/ccIFh2YN.s 			page 14


 738 01a2 FF       		.byte	-1
 739 01a3 FF       		.byte	-1
 740 01a4 FF       		.byte	-1
 741 01a5 FF       		.byte	-1
 742 01a6 FF       		.byte	-1
 743 01a7 FF       		.byte	-1
 744 01a8 FF       		.byte	-1
 745 01a9 FF       		.byte	-1
 746 01aa FF       		.byte	-1
 747 01ab FF       		.byte	-1
 748 01ac FF       		.byte	-1
 749 01ad FF       		.byte	-1
 750 01ae FF       		.byte	-1
 751 01af FF       		.byte	-1
 752 01b0 FF       		.byte	-1
 753 01b1 FF       		.byte	-1
 754 01b2 FF       		.byte	-1
 755 01b3 FF       		.byte	-1
 756 01b4 FF       		.byte	-1
 757 01b5 FF       		.byte	-1
 758 01b6 FF       		.byte	-1
 759 01b7 FF       		.byte	-1
 760 01b8 FF       		.byte	-1
 761 01b9 FF       		.byte	-1
 762 01ba FF       		.byte	-1
 763 01bb FF       		.byte	-1
 764 01bc FF       		.byte	-1
 765 01bd FF       		.byte	-1
 766 01be FF       		.byte	-1
 767 01bf FF       		.byte	-1
 768 01c0 FF       		.byte	-1
 769 01c1 FF       		.byte	-1
 770 01c2 FF       		.byte	-1
 771 01c3 FF       		.byte	-1
 772 01c4 FF       		.byte	-1
 773 01c5 FF       		.byte	-1
 774 01c6 FF       		.byte	-1
 775 01c7 FF       		.byte	-1
 776 01c8 FF       		.byte	-1
 777 01c9 FF       		.byte	-1
 778 01ca FF       		.byte	-1
 779 01cb FF       		.byte	-1
 780 01cc FF       		.byte	-1
 781 01cd FF       		.byte	-1
 782 01ce FF       		.byte	-1
 783 01cf FF       		.byte	-1
 784 01d0 FF       		.byte	-1
 785 01d1 FF       		.byte	-1
 786 01d2 FF       		.byte	-1
 787 01d3 FF       		.byte	-1
 788 01d4 FF       		.byte	-1
 789 01d5 FF       		.byte	-1
 790 01d6 FF       		.byte	-1
 791 01d7 FF       		.byte	-1
 792 01d8 FF       		.byte	-1
 793 01d9 FF       		.byte	-1
 794 01da FF       		.byte	-1
ARM GAS  /tmp/ccIFh2YN.s 			page 15


 795 01db FF       		.byte	-1
 796 01dc FF       		.byte	-1
 797 01dd FF       		.byte	-1
 798 01de FF       		.byte	-1
 799 01df FF       		.byte	-1
 800 01e0 FF       		.byte	-1
 801 01e1 FF       		.byte	-1
 802 01e2 FF       		.byte	-1
 803 01e3 FF       		.byte	-1
 804 01e4 FF       		.byte	-1
 805 01e5 FF       		.byte	-1
 806 01e6 FF       		.byte	-1
 807 01e7 FF       		.byte	-1
 808 01e8 FF       		.byte	-1
 809 01e9 FF       		.byte	-1
 810 01ea FF       		.byte	-1
 811 01eb FF       		.byte	-1
 812 01ec FF       		.byte	-1
 813 01ed FF       		.byte	-1
 814 01ee FF       		.byte	-1
 815 01ef FF       		.byte	-1
 816 01f0 FF       		.byte	-1
 817 01f1 FF       		.byte	-1
 818 01f2 FF       		.byte	-1
 819 01f3 FF       		.byte	-1
 820 01f4 FF       		.byte	-1
 821 01f5 FF       		.byte	-1
 822 01f6 FF       		.byte	-1
 823 01f7 FF       		.byte	-1
 824 01f8 FF       		.byte	-1
 825 01f9 FF       		.byte	-1
 826 01fa FF       		.byte	-1
 827 01fb FF       		.byte	-1
 828 01fc FF       		.byte	-1
 829 01fd FF       		.byte	-1
 830 01fe FF       		.byte	-1
 831 01ff FF       		.byte	-1
 832              		.section	.text.oneWireInit,"ax",%progbits
 833              		.align	2
 834              		.p2align 4,,15
 835              		.global	oneWireInit
 836              		.thumb
 837              		.thumb_func
 838              		.type	oneWireInit, %function
 839              	oneWireInit:
 840              	.LFB118:
 841              		.file 1 "oneWire.c"
 842              		.loc 1 134 0
 843              		.cfi_startproc
 844              		@ args = 0, pretend = 0, frame = 8
 845              		@ frame_needed = 0, uses_anonymous_args = 0
 846 0000 00B5     		push	{lr}
 847              	.LCFI0:
 848              		.cfi_def_cfa_offset 4
 849              		.cfi_offset 14, -4
 850 0002 83B0     		sub	sp, sp, #12
 851              	.LCFI1:
ARM GAS  /tmp/ccIFh2YN.s 			page 16


 852              		.cfi_def_cfa_offset 16
 853 0004 0190     		str	r0, [sp, #4]
 854 0006 0091     		str	r1, [sp, #0]
 855              		.loc 1 135 0
 856 0008 019B     		ldr	r3, [sp, #4]
 857 000a 1846     		mov	r0, r3
 858 000c 0099     		ldr	r1, [sp, #0]
 859 000e 4FF00C02 		mov	r2, #12
 860 0012 FFF7FEFF 		bl	memcpy
 861              		.loc 1 136 0
 862 0016 0198     		ldr	r0, [sp, #4]
 863 0018 4FF00001 		mov	r1, #0
 864 001c FFF7FEFF 		bl	oneWireSerialMode
 865              		.loc 1 137 0
 866 0020 019B     		ldr	r3, [sp, #4]
 867 0022 03F12003 		add	r3, r3, #32
 868 0026 1846     		mov	r0, r3
 869 0028 4FF00001 		mov	r1, #0
 870 002c FFF7FEFF 		bl	chSemInit
 871              		.loc 1 138 0
 872 0030 019B     		ldr	r3, [sp, #4]
 873 0032 03F12C03 		add	r3, r3, #44
 874 0036 1846     		mov	r0, r3
 875 0038 4FF00001 		mov	r1, #0
 876 003c FFF7FEFF 		bl	chSemInit
 877              		.loc 1 139 0
 878 0040 019B     		ldr	r3, [sp, #4]
 879 0042 03F11003 		add	r3, r3, #16
 880 0046 1846     		mov	r0, r3
 881 0048 FFF7FEFF 		bl	chMtxInit
 882              		.loc 1 140 0
 883 004c 019B     		ldr	r3, [sp, #4]
 884 004e 4FF00002 		mov	r2, #0
 885 0052 83F83820 		strb	r2, [r3, #56]
 886              		.loc 1 141 0
 887 0056 019B     		ldr	r3, [sp, #4]
 888 0058 4FF00002 		mov	r2, #0
 889 005c 83F83920 		strb	r2, [r3, #57]
 890              		.loc 1 142 0
 891 0060 009B     		ldr	r3, [sp, #0]
 892 0062 9B68     		ldr	r3, [r3, #8]
 893 0064 0198     		ldr	r0, [sp, #4]
 894 0066 1946     		mov	r1, r3
 895 0068 FFF7FEFF 		bl	usartDictionnaryAddPair
 896              		.loc 1 143 0
 897 006c 03B0     		add	sp, sp, #12
 898 006e 00BD     		pop	{pc}
 899              		.cfi_endproc
 900              	.LFE118:
 901              		.size	oneWireInit, .-oneWireInit
 902              		.section	.text.oneWireReset,"ax",%progbits
 903              		.align	2
 904              		.p2align 4,,15
 905              		.global	oneWireReset
 906              		.thumb
 907              		.thumb_func
 908              		.type	oneWireReset, %function
ARM GAS  /tmp/ccIFh2YN.s 			page 17


 909              	oneWireReset:
 910              	.LFB119:
 911              		.loc 1 149 0
 912              		.cfi_startproc
 913              		@ args = 0, pretend = 0, frame = 16
 914              		@ frame_needed = 0, uses_anonymous_args = 0
 915 0000 00B5     		push	{lr}
 916              	.LCFI2:
 917              		.cfi_def_cfa_offset 4
 918              		.cfi_offset 14, -4
 919 0002 85B0     		sub	sp, sp, #20
 920              	.LCFI3:
 921              		.cfi_def_cfa_offset 24
 922 0004 0190     		str	r0, [sp, #4]
 923              		.loc 1 151 0
 924 0006 4FF0F003 		mov	r3, #240
 925 000a 8DF80E30 		strb	r3, [sp, #14]
 926              		.loc 1 153 0
 927 000e 0198     		ldr	r0, [sp, #4]
 928 0010 4FF00101 		mov	r1, #1
 929 0014 FFF7FEFF 		bl	oneWireSerialMode
 930              		.loc 1 155 0
 931 0018 019B     		ldr	r3, [sp, #4]
 932 001a 03F12003 		add	r3, r3, #32
 933 001e 1846     		mov	r0, r3
 934 0020 4FF00001 		mov	r1, #0
 935 0024 FFF7FEFF 		bl	chSemReset
 936              		.loc 1 156 0
 937 0028 019B     		ldr	r3, [sp, #4]
 938 002a 03F12C03 		add	r3, r3, #44
 939 002e 1846     		mov	r0, r3
 940 0030 4FF00001 		mov	r1, #0
 941 0034 FFF7FEFF 		bl	chSemReset
 942              		.loc 1 157 0
 943 0038 019B     		ldr	r3, [sp, #4]
 944 003a 9A68     		ldr	r2, [r3, #8]
 945 003c 0DF10F03 		add	r3, sp, #15
 946 0040 1046     		mov	r0, r2
 947 0042 4FF00101 		mov	r1, #1
 948 0046 1A46     		mov	r2, r3
 949 0048 FFF7FEFF 		bl	uartStartReceive
 950              		.loc 1 158 0
 951 004c 019B     		ldr	r3, [sp, #4]
 952 004e 9A68     		ldr	r2, [r3, #8]
 953 0050 0DF10E03 		add	r3, sp, #14
 954 0054 1046     		mov	r0, r2
 955 0056 4FF00101 		mov	r1, #1
 956 005a 1A46     		mov	r2, r3
 957 005c FFF7FEFF 		bl	uartStartSend
 958              		.loc 1 159 0
 959 0060 019B     		ldr	r3, [sp, #4]
 960 0062 03F12003 		add	r3, r3, #32
 961 0066 1846     		mov	r0, r3
 962 0068 FFF7FEFF 		bl	chSemWait
 963              		.loc 1 160 0
 964 006c 019B     		ldr	r3, [sp, #4]
 965 006e 03F12C03 		add	r3, r3, #44
ARM GAS  /tmp/ccIFh2YN.s 			page 18


 966 0072 1846     		mov	r0, r3
 967 0074 FFF7FEFF 		bl	chSemWait
 968              		.loc 1 162 0
 969 0078 0198     		ldr	r0, [sp, #4]
 970 007a 4FF00201 		mov	r1, #2
 971 007e FFF7FEFF 		bl	oneWireSerialMode
 972              		.loc 1 164 0
 973 0082 9DF80F20 		ldrb	r2, [sp, #15]	@ zero_extendqisi2
 974 0086 9DF80E30 		ldrb	r3, [sp, #14]	@ zero_extendqisi2
 975 008a 9A42     		cmp	r2, r3
 976 008c 0CBF     		ite	eq
 977 008e 0023     		moveq	r3, #0
 978 0090 0123     		movne	r3, #1
 979 0092 DBB2     		uxtb	r3, r3
 980              		.loc 1 165 0
 981 0094 1846     		mov	r0, r3
 982 0096 05B0     		add	sp, sp, #20
 983 0098 00BD     		pop	{pc}
 984              		.cfi_endproc
 985              	.LFE119:
 986              		.size	oneWireReset, .-oneWireReset
 987 009a 00BFAFF3 		.section	.text.oneWireSendByte,"ax",%progbits
 987      0080
 988              		.align	2
 989              		.p2align 4,,15
 990              		.global	oneWireSendByte
 991              		.thumb
 992              		.thumb_func
 993              		.type	oneWireSendByte, %function
 994              	oneWireSendByte:
 995              	.LFB120:
 996              		.loc 1 169 0
 997              		.cfi_startproc
 998              		@ args = 0, pretend = 0, frame = 8
 999              		@ frame_needed = 0, uses_anonymous_args = 0
 1000 0000 00B5     		push	{lr}
 1001              	.LCFI4:
 1002              		.cfi_def_cfa_offset 4
 1003              		.cfi_offset 14, -4
 1004 0002 83B0     		sub	sp, sp, #12
 1005              	.LCFI5:
 1006              		.cfi_def_cfa_offset 16
 1007 0004 0190     		str	r0, [sp, #4]
 1008 0006 0B46     		mov	r3, r1
 1009 0008 8DF80330 		strb	r3, [sp, #3]
 1010              		.loc 1 170 0
 1011 000c 0DF10303 		add	r3, sp, #3
 1012 0010 0198     		ldr	r0, [sp, #4]
 1013 0012 1946     		mov	r1, r3
 1014 0014 4FF00102 		mov	r2, #1
 1015 0018 FFF7FEFF 		bl	oneWireSend
 1016              		.loc 1 171 0
 1017 001c 03B0     		add	sp, sp, #12
 1018 001e 00BD     		pop	{pc}
 1019              		.cfi_endproc
 1020              	.LFE120:
 1021              		.size	oneWireSendByte, .-oneWireSendByte
ARM GAS  /tmp/ccIFh2YN.s 			page 19


 1022              		.section	.text.oneWireReceiveByte,"ax",%progbits
 1023              		.align	2
 1024              		.p2align 4,,15
 1025              		.global	oneWireReceiveByte
 1026              		.thumb
 1027              		.thumb_func
 1028              		.type	oneWireReceiveByte, %function
 1029              	oneWireReceiveByte:
 1030              	.LFB121:
 1031              		.loc 1 174 0
 1032              		.cfi_startproc
 1033              		@ args = 0, pretend = 0, frame = 16
 1034              		@ frame_needed = 0, uses_anonymous_args = 0
 1035 0000 00B5     		push	{lr}
 1036              	.LCFI6:
 1037              		.cfi_def_cfa_offset 4
 1038              		.cfi_offset 14, -4
 1039 0002 85B0     		sub	sp, sp, #20
 1040              	.LCFI7:
 1041              		.cfi_def_cfa_offset 24
 1042 0004 0190     		str	r0, [sp, #4]
 1043              		.loc 1 176 0
 1044 0006 0DF10F03 		add	r3, sp, #15
 1045 000a 0198     		ldr	r0, [sp, #4]
 1046 000c 1946     		mov	r1, r3
 1047 000e 4FF00102 		mov	r2, #1
 1048 0012 FFF7FEFF 		bl	oneWireReceive
 1049              		.loc 1 178 0
 1050 0016 9DF80F30 		ldrb	r3, [sp, #15]	@ zero_extendqisi2
 1051              		.loc 1 179 0
 1052 001a 1846     		mov	r0, r3
 1053 001c 05B0     		add	sp, sp, #20
 1054 001e 00BD     		pop	{pc}
 1055              		.cfi_endproc
 1056              	.LFE121:
 1057              		.size	oneWireReceiveByte, .-oneWireReceiveByte
 1058              		.section	.text.oneWireSendBit,"ax",%progbits
 1059              		.align	2
 1060              		.p2align 4,,15
 1061              		.global	oneWireSendBit
 1062              		.thumb
 1063              		.thumb_func
 1064              		.type	oneWireSendBit, %function
 1065              	oneWireSendBit:
 1066              	.LFB122:
 1067              		.loc 1 183 0
 1068              		.cfi_startproc
 1069              		@ args = 0, pretend = 0, frame = 16
 1070              		@ frame_needed = 0, uses_anonymous_args = 0
 1071 0000 00B5     		push	{lr}
 1072              	.LCFI8:
 1073              		.cfi_def_cfa_offset 4
 1074              		.cfi_offset 14, -4
 1075 0002 85B0     		sub	sp, sp, #20
 1076              	.LCFI9:
 1077              		.cfi_def_cfa_offset 24
 1078 0004 0190     		str	r0, [sp, #4]
ARM GAS  /tmp/ccIFh2YN.s 			page 20


 1079 0006 0B46     		mov	r3, r1
 1080 0008 8DF80330 		strb	r3, [sp, #3]
 1081              		.loc 1 185 0
 1082 000c 9DF80330 		ldrb	r3, [sp, #3]	@ zero_extendqisi2
 1083 0010 002B     		cmp	r3, #0
 1084 0012 02D0     		beq	.L8
 1085              		.loc 1 185 0 is_stmt 0 discriminator 1
 1086 0014 4FF0FF03 		mov	r3, #255
 1087 0018 01E0     		b	.L9
 1088              	.L8:
 1089              		.loc 1 185 0 discriminator 2
 1090 001a 4FF00003 		mov	r3, #0
 1091              	.L9:
 1092              		.loc 1 185 0 discriminator 3
 1093 001e 8DF80F30 		strb	r3, [sp, #15]
 1094              		.loc 1 187 0 is_stmt 1 discriminator 3
 1095 0022 019B     		ldr	r3, [sp, #4]
 1096 0024 03F12003 		add	r3, r3, #32
 1097 0028 1846     		mov	r0, r3
 1098 002a 4FF00001 		mov	r1, #0
 1099 002e FFF7FEFF 		bl	chSemReset
 1100              		.loc 1 188 0 discriminator 3
 1101 0032 019B     		ldr	r3, [sp, #4]
 1102 0034 9A68     		ldr	r2, [r3, #8]
 1103 0036 0DF10F03 		add	r3, sp, #15
 1104 003a 1046     		mov	r0, r2
 1105 003c 4FF00101 		mov	r1, #1
 1106 0040 1A46     		mov	r2, r3
 1107 0042 FFF7FEFF 		bl	uartStartSend
 1108              		.loc 1 189 0 discriminator 3
 1109 0046 019B     		ldr	r3, [sp, #4]
 1110 0048 03F12003 		add	r3, r3, #32
 1111 004c 1846     		mov	r0, r3
 1112 004e FFF7FEFF 		bl	chSemWait
 1113              		.loc 1 191 0 discriminator 3
 1114 0052 05B0     		add	sp, sp, #20
 1115 0054 00BD     		pop	{pc}
 1116              		.cfi_endproc
 1117              	.LFE122:
 1118              		.size	oneWireSendBit, .-oneWireSendBit
 1119 0056 00BFAFF3 		.section	.text.oneWireSend,"ax",%progbits
 1119      0080AFF3 
 1119      0080
 1120              		.align	2
 1121              		.p2align 4,,15
 1122              		.global	oneWireSend
 1123              		.thumb
 1124              		.thumb_func
 1125              		.type	oneWireSend, %function
 1126              	oneWireSend:
 1127              	.LFB123:
 1128              		.loc 1 196 0
 1129              		.cfi_startproc
 1130              		@ args = 0, pretend = 0, frame = 32
 1131              		@ frame_needed = 1, uses_anonymous_args = 0
 1132 0000 2DE9F043 		push	{r4, r5, r6, r7, r8, r9, lr}
 1133              	.LCFI10:
ARM GAS  /tmp/ccIFh2YN.s 			page 21


 1134              		.cfi_def_cfa_offset 28
 1135              		.cfi_offset 4, -28
 1136              		.cfi_offset 5, -24
 1137              		.cfi_offset 6, -20
 1138              		.cfi_offset 7, -16
 1139              		.cfi_offset 8, -12
 1140              		.cfi_offset 9, -8
 1141              		.cfi_offset 14, -4
 1142 0004 89B0     		sub	sp, sp, #36
 1143              	.LCFI11:
 1144              		.cfi_def_cfa_offset 64
 1145 0006 00AF     		add	r7, sp, #0
 1146              	.LCFI12:
 1147              		.cfi_def_cfa_register 7
 1148 0008 F860     		str	r0, [r7, #12]
 1149 000a B960     		str	r1, [r7, #8]
 1150 000c 1346     		mov	r3, r2
 1151 000e FB71     		strb	r3, [r7, #7]
 1152 0010 6B46     		mov	r3, sp
 1153 0012 1E46     		mov	r6, r3
 1154              		.loc 1 197 0
 1155 0014 FB79     		ldrb	r3, [r7, #7]	@ zero_extendqisi2
 1156 0016 4FEAC303 		lsl	r3, r3, #3
 1157 001a BB61     		str	r3, [r7, #24]
 1158              		.loc 1 198 0
 1159 001c BB69     		ldr	r3, [r7, #24]
 1160 001e 03F1FF33 		add	r3, r3, #-1
 1161 0022 7B61     		str	r3, [r7, #20]
 1162 0024 B969     		ldr	r1, [r7, #24]
 1163 0026 0A46     		mov	r2, r1
 1164 0028 4FF00003 		mov	r3, #0
 1165 002c 4FEA5271 		lsr	r1, r2, #29
 1166 0030 4FEAC309 		lsl	r9, r3, #3
 1167 0034 41EA0909 		orr	r9, r1, r9
 1168 0038 4FEAC208 		lsl	r8, r2, #3
 1169 003c B969     		ldr	r1, [r7, #24]
 1170 003e 0A46     		mov	r2, r1
 1171 0040 4FF00003 		mov	r3, #0
 1172 0044 4FEA5271 		lsr	r1, r2, #29
 1173 0048 4FEAC305 		lsl	r5, r3, #3
 1174 004c 0D43     		orrs	r5, r5, r1
 1175 004e 4FEAC204 		lsl	r4, r2, #3
 1176 0052 BB69     		ldr	r3, [r7, #24]
 1177 0054 03F10703 		add	r3, r3, #7
 1178 0058 4FEAD303 		lsr	r3, r3, #3
 1179 005c 4FEAC303 		lsl	r3, r3, #3
 1180 0060 ADEB030D 		sub	sp, sp, r3
 1181 0064 6B46     		mov	r3, sp
 1182 0066 03F10003 		add	r3, r3, #0
 1183 006a 3B61     		str	r3, [r7, #16]
 1184              	.LBB2:
 1185              		.loc 1 200 0
 1186 006c 4FF00003 		mov	r3, #0
 1187 0070 FB61     		str	r3, [r7, #28]
 1188 0072 10E0     		b	.L11
 1189              	.L12:
 1190              		.loc 1 201 0 discriminator 2
ARM GAS  /tmp/ccIFh2YN.s 			page 22


 1191 0074 BA68     		ldr	r2, [r7, #8]
 1192 0076 FB69     		ldr	r3, [r7, #28]
 1193 0078 D318     		adds	r3, r2, r3
 1194 007a 1A78     		ldrb	r2, [r3, #0]	@ zero_extendqisi2
 1195 007c FB69     		ldr	r3, [r7, #28]
 1196 007e 4FEAC303 		lsl	r3, r3, #3
 1197 0082 3969     		ldr	r1, [r7, #16]
 1198 0084 CB18     		adds	r3, r1, r3
 1199 0086 1046     		mov	r0, r2
 1200 0088 1946     		mov	r1, r3
 1201 008a FFF7FEFF 		bl	oneWirePack
 1202              		.loc 1 200 0 discriminator 2
 1203 008e FB69     		ldr	r3, [r7, #28]
 1204 0090 03F10103 		add	r3, r3, #1
 1205 0094 FB61     		str	r3, [r7, #28]
 1206              	.L11:
 1207              		.loc 1 200 0 is_stmt 0 discriminator 1
 1208 0096 FA79     		ldrb	r2, [r7, #7]	@ zero_extendqisi2
 1209 0098 FB69     		ldr	r3, [r7, #28]
 1210 009a 9A42     		cmp	r2, r3
 1211 009c EAD8     		bhi	.L12
 1212              	.LBE2:
 1213              		.loc 1 204 0 is_stmt 1
 1214 009e FB68     		ldr	r3, [r7, #12]
 1215 00a0 03F12003 		add	r3, r3, #32
 1216 00a4 1846     		mov	r0, r3
 1217 00a6 4FF00001 		mov	r1, #0
 1218 00aa FFF7FEFF 		bl	chSemReset
 1219              		.loc 1 205 0
 1220 00ae FB68     		ldr	r3, [r7, #12]
 1221 00b0 9A68     		ldr	r2, [r3, #8]
 1222 00b2 3B69     		ldr	r3, [r7, #16]
 1223 00b4 1046     		mov	r0, r2
 1224 00b6 B969     		ldr	r1, [r7, #24]
 1225 00b8 1A46     		mov	r2, r3
 1226 00ba FFF7FEFF 		bl	uartStartSend
 1227              		.loc 1 206 0
 1228 00be FB68     		ldr	r3, [r7, #12]
 1229 00c0 03F12003 		add	r3, r3, #32
 1230 00c4 1846     		mov	r0, r3
 1231 00c6 FFF7FEFF 		bl	chSemWait
 1232              		.loc 1 208 0
 1233 00ca 4FF00103 		mov	r3, #1
 1234 00ce B546     		mov	sp, r6
 1235              		.loc 1 209 0
 1236 00d0 1846     		mov	r0, r3
 1237 00d2 07F12407 		add	r7, r7, #36
 1238 00d6 BD46     		mov	sp, r7
 1239 00d8 BDE8F083 		pop	{r4, r5, r6, r7, r8, r9, pc}
 1240              		.cfi_endproc
 1241              	.LFE123:
 1242              		.size	oneWireSend, .-oneWireSend
 1243 00dc AFF30080 		.section	.text.oneWireReceive,"ax",%progbits
 1244              		.align	2
 1245              		.p2align 4,,15
 1246              		.global	oneWireReceive
 1247              		.thumb
ARM GAS  /tmp/ccIFh2YN.s 			page 23


 1248              		.thumb_func
 1249              		.type	oneWireReceive, %function
 1250              	oneWireReceive:
 1251              	.LFB124:
 1252              		.loc 1 212 0
 1253              		.cfi_startproc
 1254              		@ args = 0, pretend = 0, frame = 32
 1255              		@ frame_needed = 1, uses_anonymous_args = 0
 1256 0000 2DE9F043 		push	{r4, r5, r6, r7, r8, r9, lr}
 1257              	.LCFI13:
 1258              		.cfi_def_cfa_offset 28
 1259              		.cfi_offset 4, -28
 1260              		.cfi_offset 5, -24
 1261              		.cfi_offset 6, -20
 1262              		.cfi_offset 7, -16
 1263              		.cfi_offset 8, -12
 1264              		.cfi_offset 9, -8
 1265              		.cfi_offset 14, -4
 1266 0004 89B0     		sub	sp, sp, #36
 1267              	.LCFI14:
 1268              		.cfi_def_cfa_offset 64
 1269 0006 00AF     		add	r7, sp, #0
 1270              	.LCFI15:
 1271              		.cfi_def_cfa_register 7
 1272 0008 F860     		str	r0, [r7, #12]
 1273 000a B960     		str	r1, [r7, #8]
 1274 000c 1346     		mov	r3, r2
 1275 000e FB71     		strb	r3, [r7, #7]
 1276 0010 6B46     		mov	r3, sp
 1277 0012 1E46     		mov	r6, r3
 1278              		.loc 1 213 0
 1279 0014 FB79     		ldrb	r3, [r7, #7]	@ zero_extendqisi2
 1280 0016 4FEAC303 		lsl	r3, r3, #3
 1281 001a BB61     		str	r3, [r7, #24]
 1282              		.loc 1 214 0
 1283 001c BB69     		ldr	r3, [r7, #24]
 1284 001e 03F1FF33 		add	r3, r3, #-1
 1285 0022 7B61     		str	r3, [r7, #20]
 1286 0024 B969     		ldr	r1, [r7, #24]
 1287 0026 0A46     		mov	r2, r1
 1288 0028 4FF00003 		mov	r3, #0
 1289 002c 4FEA5271 		lsr	r1, r2, #29
 1290 0030 4FEAC309 		lsl	r9, r3, #3
 1291 0034 41EA0909 		orr	r9, r1, r9
 1292 0038 4FEAC208 		lsl	r8, r2, #3
 1293 003c B969     		ldr	r1, [r7, #24]
 1294 003e 0A46     		mov	r2, r1
 1295 0040 4FF00003 		mov	r3, #0
 1296 0044 4FEA5271 		lsr	r1, r2, #29
 1297 0048 4FEAC305 		lsl	r5, r3, #3
 1298 004c 0D43     		orrs	r5, r5, r1
 1299 004e 4FEAC204 		lsl	r4, r2, #3
 1300 0052 BB69     		ldr	r3, [r7, #24]
 1301 0054 03F10703 		add	r3, r3, #7
 1302 0058 4FEAD303 		lsr	r3, r3, #3
 1303 005c 4FEAC303 		lsl	r3, r3, #3
 1304 0060 ADEB030D 		sub	sp, sp, r3
ARM GAS  /tmp/ccIFh2YN.s 			page 24


 1305 0064 6B46     		mov	r3, sp
 1306 0066 03F10003 		add	r3, r3, #0
 1307 006a 3B61     		str	r3, [r7, #16]
 1308              		.loc 1 216 0
 1309 006c BB69     		ldr	r3, [r7, #24]
 1310 006e B3F5007F 		cmp	r3, #512
 1311 0072 02D9     		bls	.L15
 1312              		.loc 1 217 0
 1313 0074 4FF00003 		mov	r3, #0
 1314 0078 48E0     		b	.L16
 1315              	.L15:
 1316              		.loc 1 219 0
 1317 007a FB68     		ldr	r3, [r7, #12]
 1318 007c 03F12C03 		add	r3, r3, #44
 1319 0080 1846     		mov	r0, r3
 1320 0082 4FF00001 		mov	r1, #0
 1321 0086 FFF7FEFF 		bl	chSemReset
 1322              		.loc 1 220 0
 1323 008a FB68     		ldr	r3, [r7, #12]
 1324 008c 9A68     		ldr	r2, [r3, #8]
 1325 008e 3B69     		ldr	r3, [r7, #16]
 1326 0090 1046     		mov	r0, r2
 1327 0092 B969     		ldr	r1, [r7, #24]
 1328 0094 1A46     		mov	r2, r3
 1329 0096 FFF7FEFF 		bl	uartStartReceive
 1330              		.loc 1 221 0
 1331 009a FB68     		ldr	r3, [r7, #12]
 1332 009c 03F12003 		add	r3, r3, #32
 1333 00a0 1846     		mov	r0, r3
 1334 00a2 4FF00001 		mov	r1, #0
 1335 00a6 FFF7FEFF 		bl	chSemReset
 1336              		.loc 1 222 0
 1337 00aa FB68     		ldr	r3, [r7, #12]
 1338 00ac 9B68     		ldr	r3, [r3, #8]
 1339 00ae 1846     		mov	r0, r3
 1340 00b0 B969     		ldr	r1, [r7, #24]
 1341 00b2 40F20002 		movw	r2, #:lower16:owBufferWrite
 1342 00b6 C0F20002 		movt	r2, #:upper16:owBufferWrite
 1343 00ba FFF7FEFF 		bl	uartStartSend
 1344              		.loc 1 223 0
 1345 00be FB68     		ldr	r3, [r7, #12]
 1346 00c0 03F12003 		add	r3, r3, #32
 1347 00c4 1846     		mov	r0, r3
 1348 00c6 FFF7FEFF 		bl	chSemWait
 1349              		.loc 1 224 0
 1350 00ca FB68     		ldr	r3, [r7, #12]
 1351 00cc 03F12C03 		add	r3, r3, #44
 1352 00d0 1846     		mov	r0, r3
 1353 00d2 FFF7FEFF 		bl	chSemWait
 1354              	.LBB3:
 1355              		.loc 1 226 0
 1356 00d6 4FF00003 		mov	r3, #0
 1357 00da FB61     		str	r3, [r7, #28]
 1358 00dc 10E0     		b	.L17
 1359              	.L18:
 1360              		.loc 1 227 0 discriminator 2
 1361 00de BA68     		ldr	r2, [r7, #8]
ARM GAS  /tmp/ccIFh2YN.s 			page 25


 1362 00e0 FB69     		ldr	r3, [r7, #28]
 1363 00e2 D418     		adds	r4, r2, r3
 1364 00e4 FB69     		ldr	r3, [r7, #28]
 1365 00e6 4FEAC303 		lsl	r3, r3, #3
 1366 00ea 3A69     		ldr	r2, [r7, #16]
 1367 00ec D318     		adds	r3, r2, r3
 1368 00ee 1846     		mov	r0, r3
 1369 00f0 FFF7FEFF 		bl	oneWireUnpack
 1370 00f4 0346     		mov	r3, r0
 1371 00f6 2370     		strb	r3, [r4, #0]
 1372              		.loc 1 226 0 discriminator 2
 1373 00f8 FB69     		ldr	r3, [r7, #28]
 1374 00fa 03F10103 		add	r3, r3, #1
 1375 00fe FB61     		str	r3, [r7, #28]
 1376              	.L17:
 1377              		.loc 1 226 0 is_stmt 0 discriminator 1
 1378 0100 FA79     		ldrb	r2, [r7, #7]	@ zero_extendqisi2
 1379 0102 FB69     		ldr	r3, [r7, #28]
 1380 0104 9A42     		cmp	r2, r3
 1381 0106 EAD8     		bhi	.L18
 1382              	.LBE3:
 1383              		.loc 1 230 0 is_stmt 1
 1384 0108 4FF00103 		mov	r3, #1
 1385              	.L16:
 1386 010c B546     		mov	sp, r6
 1387              		.loc 1 231 0
 1388 010e 1846     		mov	r0, r3
 1389 0110 07F12407 		add	r7, r7, #36
 1390 0114 BD46     		mov	sp, r7
 1391 0116 BDE8F083 		pop	{r4, r5, r6, r7, r8, r9, pc}
 1392              		.cfi_endproc
 1393              	.LFE124:
 1394              		.size	oneWireReceive, .-oneWireReceive
 1395 011a 00BFAFF3 		.section	.text.oneWireReceiveBit,"ax",%progbits
 1395      0080
 1396              		.align	2
 1397              		.p2align 4,,15
 1398              		.global	oneWireReceiveBit
 1399              		.thumb
 1400              		.thumb_func
 1401              		.type	oneWireReceiveBit, %function
 1402              	oneWireReceiveBit:
 1403              	.LFB125:
 1404              		.loc 1 235 0
 1405              		.cfi_startproc
 1406              		@ args = 0, pretend = 0, frame = 16
 1407              		@ frame_needed = 0, uses_anonymous_args = 0
 1408 0000 00B5     		push	{lr}
 1409              	.LCFI16:
 1410              		.cfi_def_cfa_offset 4
 1411              		.cfi_offset 14, -4
 1412 0002 85B0     		sub	sp, sp, #20
 1413              	.LCFI17:
 1414              		.cfi_def_cfa_offset 24
 1415 0004 0190     		str	r0, [sp, #4]
 1416              		.loc 1 238 0
 1417 0006 019B     		ldr	r3, [sp, #4]
ARM GAS  /tmp/ccIFh2YN.s 			page 26


 1418 0008 03F12C03 		add	r3, r3, #44
 1419 000c 1846     		mov	r0, r3
 1420 000e 4FF00001 		mov	r1, #0
 1421 0012 FFF7FEFF 		bl	chSemReset
 1422              		.loc 1 239 0
 1423 0016 019B     		ldr	r3, [sp, #4]
 1424 0018 9A68     		ldr	r2, [r3, #8]
 1425 001a 0DF10F03 		add	r3, sp, #15
 1426 001e 1046     		mov	r0, r2
 1427 0020 4FF00101 		mov	r1, #1
 1428 0024 1A46     		mov	r2, r3
 1429 0026 FFF7FEFF 		bl	uartStartReceive
 1430              		.loc 1 240 0
 1431 002a 019B     		ldr	r3, [sp, #4]
 1432 002c 03F12003 		add	r3, r3, #32
 1433 0030 1846     		mov	r0, r3
 1434 0032 4FF00001 		mov	r1, #0
 1435 0036 FFF7FEFF 		bl	chSemReset
 1436              		.loc 1 241 0
 1437 003a 019B     		ldr	r3, [sp, #4]
 1438 003c 9B68     		ldr	r3, [r3, #8]
 1439 003e 1846     		mov	r0, r3
 1440 0040 4FF00101 		mov	r1, #1
 1441 0044 40F20002 		movw	r2, #:lower16:owBufferWrite
 1442 0048 C0F20002 		movt	r2, #:upper16:owBufferWrite
 1443 004c FFF7FEFF 		bl	uartStartSend
 1444              		.loc 1 242 0
 1445 0050 019B     		ldr	r3, [sp, #4]
 1446 0052 03F12003 		add	r3, r3, #32
 1447 0056 1846     		mov	r0, r3
 1448 0058 FFF7FEFF 		bl	chSemWait
 1449              		.loc 1 243 0
 1450 005c 019B     		ldr	r3, [sp, #4]
 1451 005e 03F12C03 		add	r3, r3, #44
 1452 0062 1846     		mov	r0, r3
 1453 0064 FFF7FEFF 		bl	chSemWait
 1454              		.loc 1 245 0
 1455 0068 9DF80F30 		ldrb	r3, [sp, #15]	@ zero_extendqisi2
 1456 006c FF2B     		cmp	r3, #255
 1457 006e 14BF     		ite	ne
 1458 0070 0023     		movne	r3, #0
 1459 0072 0123     		moveq	r3, #1
 1460 0074 DBB2     		uxtb	r3, r3
 1461              		.loc 1 246 0
 1462 0076 1846     		mov	r0, r3
 1463 0078 05B0     		add	sp, sp, #20
 1464 007a 00BD     		pop	{pc}
 1465              		.cfi_endproc
 1466              	.LFE125:
 1467              		.size	oneWireReceiveBit, .-oneWireReceiveBit
 1468 007c AFF30080 		.section	.text.oneWireReadRom,"ax",%progbits
 1469              		.align	2
 1470              		.p2align 4,,15
 1471              		.global	oneWireReadRom
 1472              		.thumb
 1473              		.thumb_func
 1474              		.type	oneWireReadRom, %function
ARM GAS  /tmp/ccIFh2YN.s 			page 27


 1475              	oneWireReadRom:
 1476              	.LFB126:
 1477              		.loc 1 249 0
 1478              		.cfi_startproc
 1479              		@ args = 0, pretend = 0, frame = 16
 1480              		@ frame_needed = 0, uses_anonymous_args = 0
 1481 0000 00B5     		push	{lr}
 1482              	.LCFI18:
 1483              		.cfi_def_cfa_offset 4
 1484              		.cfi_offset 14, -4
 1485 0002 85B0     		sub	sp, sp, #20
 1486              	.LCFI19:
 1487              		.cfi_def_cfa_offset 24
 1488 0004 0190     		str	r0, [sp, #4]
 1489 0006 0091     		str	r1, [sp, #0]
 1490              		.loc 1 250 0
 1491 0008 0198     		ldr	r0, [sp, #4]
 1492 000a FFF7FEFF 		bl	oneWireReset
 1493              		.loc 1 251 0
 1494 000e 0198     		ldr	r0, [sp, #4]
 1495 0010 4FF03301 		mov	r1, #51
 1496 0014 FFF7FEFF 		bl	oneWireSendByte
 1497              		.loc 1 252 0
 1498 0018 009B     		ldr	r3, [sp, #0]
 1499 001a 0198     		ldr	r0, [sp, #4]
 1500 001c 1946     		mov	r1, r3
 1501 001e 4FF00802 		mov	r2, #8
 1502 0022 FFF7FEFF 		bl	oneWireReceive
 1503              		.loc 1 253 0
 1504 0026 009B     		ldr	r3, [sp, #0]
 1505 0028 1846     		mov	r0, r3
 1506 002a 4FF00701 		mov	r1, #7
 1507 002e FFF7FEFF 		bl	oneWireCrc8
 1508 0032 0346     		mov	r3, r0
 1509 0034 8DF80F30 		strb	r3, [sp, #15]
 1510              		.loc 1 254 0
 1511 0038 009B     		ldr	r3, [sp, #0]
 1512 003a DB79     		ldrb	r3, [r3, #7]	@ zero_extendqisi2
 1513 003c 9DF80F20 		ldrb	r2, [sp, #15]	@ zero_extendqisi2
 1514 0040 9A42     		cmp	r2, r3
 1515 0042 02D0     		beq	.L23
 1516              		.loc 1 255 0
 1517 0044 4FF00003 		mov	r3, #0
 1518 0048 01E0     		b	.L24
 1519              	.L23:
 1520              		.loc 1 257 0
 1521 004a 4FF00103 		mov	r3, #1
 1522              	.L24:
 1523              		.loc 1 259 0
 1524 004e 1846     		mov	r0, r3
 1525 0050 05B0     		add	sp, sp, #20
 1526 0052 00BD     		pop	{pc}
 1527              		.cfi_endproc
 1528              	.LFE126:
 1529              		.size	oneWireReadRom, .-oneWireReadRom
 1530 0054 AFF30080 		.section	.text.oneWireSearchRom,"ax",%progbits
 1530      AFF30080 
ARM GAS  /tmp/ccIFh2YN.s 			page 28


 1530      AFF30080 
 1531              		.align	2
 1532              		.p2align 4,,15
 1533              		.global	oneWireSearchRom
 1534              		.thumb
 1535              		.thumb_func
 1536              		.type	oneWireSearchRom, %function
 1537              	oneWireSearchRom:
 1538              	.LFB127:
 1539              		.loc 1 266 0
 1540              		.cfi_startproc
 1541              		@ args = 0, pretend = 0, frame = 32
 1542              		@ frame_needed = 0, uses_anonymous_args = 0
 1543 0000 00B5     		push	{lr}
 1544              	.LCFI20:
 1545              		.cfi_def_cfa_offset 4
 1546              		.cfi_offset 14, -4
 1547 0002 89B0     		sub	sp, sp, #36
 1548              	.LCFI21:
 1549              		.cfi_def_cfa_offset 40
 1550 0004 0390     		str	r0, [sp, #12]
 1551 0006 0192     		str	r2, [sp, #4]
 1552 0008 0A46     		mov	r2, r1
 1553 000a 8DF80B20 		strb	r2, [sp, #11]
 1554 000e 8DF80A30 		strb	r3, [sp, #10]
 1555              		.loc 1 267 0
 1556 0012 4FF00003 		mov	r3, #0
 1557 0016 8DF81E30 		strb	r3, [sp, #30]
 1558              		.loc 1 268 0
 1559 001a 4FF00003 		mov	r3, #0
 1560 001e 8DF81430 		strb	r3, [sp, #20]
 1561 0022 4FF00003 		mov	r3, #0
 1562 0026 8DF81530 		strb	r3, [sp, #21]
 1563 002a 4FF00003 		mov	r3, #0
 1564 002e 8DF81630 		strb	r3, [sp, #22]
 1565 0032 4FF00003 		mov	r3, #0
 1566 0036 8DF81730 		strb	r3, [sp, #23]
 1567 003a 4FF00003 		mov	r3, #0
 1568 003e 8DF81830 		strb	r3, [sp, #24]
 1569 0042 4FF00003 		mov	r3, #0
 1570 0046 8DF81930 		strb	r3, [sp, #25]
 1571 004a 4FF00003 		mov	r3, #0
 1572 004e 8DF81A30 		strb	r3, [sp, #26]
 1573 0052 4FF00003 		mov	r3, #0
 1574 0056 8DF81B30 		strb	r3, [sp, #27]
 1575              		.loc 1 270 0
 1576 005a 0398     		ldr	r0, [sp, #12]
 1577 005c FFF7FEFF 		bl	oneWireAcquireBus
 1578              		.loc 1 271 0
 1579 0060 0398     		ldr	r0, [sp, #12]
 1580 0062 FFF7FEFF 		bl	oneWireReset
 1581 0066 0346     		mov	r3, r0
 1582 0068 002B     		cmp	r3, #0
 1583 006a 70D0     		beq	.L26
 1584              		.loc 1 272 0
 1585 006c 05AA     		add	r2, sp, #20
 1586 006e 9DF80B30 		ldrb	r3, [sp, #11]	@ zero_extendqisi2
ARM GAS  /tmp/ccIFh2YN.s 			page 29


 1587 0072 0398     		ldr	r0, [sp, #12]
 1588 0074 1146     		mov	r1, r2
 1589 0076 1A46     		mov	r2, r3
 1590 0078 FFF7FEFF 		bl	oneWireFirst
 1591 007c 0346     		mov	r3, r0
 1592 007e 002B     		cmp	r3, #0
 1593 0080 65D0     		beq	.L26
 1594              	.LBB4:
 1595              		.loc 1 274 0
 1596 0082 4FF00003 		mov	r3, #0
 1597 0086 8DF81D30 		strb	r3, [sp, #29]
 1598              	.L30:
 1599              		.loc 1 276 0
 1600 008a 9DF81E30 		ldrb	r3, [sp, #30]
 1601 008e 03F10103 		add	r3, r3, #1
 1602 0092 8DF81E30 		strb	r3, [sp, #30]
 1603              		.loc 1 277 0
 1604 0096 4FF00003 		mov	r3, #0
 1605 009a 8DF81F30 		strb	r3, [sp, #31]
 1606 009e 14E0     		b	.L27
 1607              	.L28:
 1608              		.loc 1 278 0 discriminator 2
 1609 00a0 9DF81D30 		ldrb	r3, [sp, #29]	@ zero_extendqisi2
 1610 00a4 4FEAC303 		lsl	r3, r3, #3
 1611 00a8 019A     		ldr	r2, [sp, #4]
 1612 00aa D218     		adds	r2, r2, r3
 1613 00ac 9DF81F30 		ldrb	r3, [sp, #31]	@ zero_extendqisi2
 1614 00b0 9DF81F10 		ldrb	r1, [sp, #31]	@ zero_extendqisi2
 1615 00b4 08A8     		add	r0, sp, #32
 1616 00b6 4118     		adds	r1, r0, r1
 1617 00b8 11F80C1C 		ldrb	r1, [r1, #-12]	@ zero_extendqisi2
 1618 00bc D154     		strb	r1, [r2, r3]
 1619              		.loc 1 277 0 discriminator 2
 1620 00be 9DF81F30 		ldrb	r3, [sp, #31]
 1621 00c2 03F10103 		add	r3, r3, #1
 1622 00c6 8DF81F30 		strb	r3, [sp, #31]
 1623              	.L27:
 1624              		.loc 1 277 0 is_stmt 0 discriminator 1
 1625 00ca 9DF81F30 		ldrb	r3, [sp, #31]	@ zero_extendqisi2
 1626 00ce 072B     		cmp	r3, #7
 1627 00d0 E6D9     		bls	.L28
 1628              		.loc 1 280 0 is_stmt 1
 1629 00d2 9DF81D30 		ldrb	r3, [sp, #29]
 1630 00d6 03F10103 		add	r3, r3, #1
 1631 00da 8DF81D30 		strb	r3, [sp, #29]
 1632              		.loc 1 281 0
 1633 00de 9DF81D20 		ldrb	r2, [sp, #29]	@ zero_extendqisi2
 1634 00e2 9DF80A30 		ldrb	r3, [sp, #10]	@ zero_extendqisi2
 1635 00e6 9A42     		cmp	r2, r3
 1636 00e8 2BD2     		bcs	.L31
 1637              		.loc 1 281 0 is_stmt 0 discriminator 1
 1638 00ea 05AA     		add	r2, sp, #20
 1639 00ec 9DF80B30 		ldrb	r3, [sp, #11]	@ zero_extendqisi2
 1640 00f0 0398     		ldr	r0, [sp, #12]
 1641 00f2 1146     		mov	r1, r2
 1642 00f4 1A46     		mov	r2, r3
 1643 00f6 FFF7FEFF 		bl	oneWireNext
ARM GAS  /tmp/ccIFh2YN.s 			page 30


 1644 00fa 0346     		mov	r3, r0
 1645 00fc 002B     		cmp	r3, #0
 1646 00fe C4D1     		bne	.L30
 1647              		.loc 1 283 0 is_stmt 1
 1648 0100 1FE0     		b	.L31
 1649              	.L34:
 1650              		.loc 1 284 0
 1651 0102 4FF00003 		mov	r3, #0
 1652 0106 8DF81F30 		strb	r3, [sp, #31]
 1653 010a 10E0     		b	.L32
 1654              	.L33:
 1655              		.loc 1 285 0 discriminator 2
 1656 010c 9DF81D30 		ldrb	r3, [sp, #29]	@ zero_extendqisi2
 1657 0110 4FEAC303 		lsl	r3, r3, #3
 1658 0114 019A     		ldr	r2, [sp, #4]
 1659 0116 D218     		adds	r2, r2, r3
 1660 0118 9DF81F30 		ldrb	r3, [sp, #31]	@ zero_extendqisi2
 1661 011c 4FF00001 		mov	r1, #0
 1662 0120 D154     		strb	r1, [r2, r3]
 1663              		.loc 1 284 0 discriminator 2
 1664 0122 9DF81F30 		ldrb	r3, [sp, #31]
 1665 0126 03F10103 		add	r3, r3, #1
 1666 012a 8DF81F30 		strb	r3, [sp, #31]
 1667              	.L32:
 1668              		.loc 1 284 0 is_stmt 0 discriminator 1
 1669 012e 9DF81F30 		ldrb	r3, [sp, #31]	@ zero_extendqisi2
 1670 0132 072B     		cmp	r3, #7
 1671 0134 EAD9     		bls	.L33
 1672              		.loc 1 287 0 is_stmt 1
 1673 0136 9DF81D30 		ldrb	r3, [sp, #29]
 1674 013a 03F10103 		add	r3, r3, #1
 1675 013e 8DF81D30 		strb	r3, [sp, #29]
 1676              	.L31:
 1677              		.loc 1 283 0 discriminator 1
 1678 0142 9DF81D20 		ldrb	r2, [sp, #29]	@ zero_extendqisi2
 1679 0146 9DF80A30 		ldrb	r3, [sp, #10]	@ zero_extendqisi2
 1680 014a 9A42     		cmp	r2, r3
 1681 014c D9D3     		bcc	.L34
 1682              	.L26:
 1683              	.LBE4:
 1684              		.loc 1 291 0
 1685 014e FFF7FEFF 		bl	oneWireRealeaseBus
 1686              		.loc 1 292 0
 1687 0152 9DF81E30 		ldrb	r3, [sp, #30]	@ zero_extendqisi2
 1688              		.loc 1 293 0
 1689 0156 1846     		mov	r0, r3
 1690 0158 09B0     		add	sp, sp, #36
 1691 015a 00BD     		pop	{pc}
 1692              		.cfi_endproc
 1693              	.LFE127:
 1694              		.size	oneWireSearchRom, .-oneWireSearchRom
 1695 015c AFF30080 		.section	.text.oneWireCrc8,"ax",%progbits
 1696              		.align	2
 1697              		.p2align 4,,15
 1698              		.global	oneWireCrc8
 1699              		.thumb
 1700              		.thumb_func
ARM GAS  /tmp/ccIFh2YN.s 			page 31


 1701              		.type	oneWireCrc8, %function
 1702              	oneWireCrc8:
 1703              	.LFB128:
 1704              		.loc 1 297 0
 1705              		.cfi_startproc
 1706              		@ args = 0, pretend = 0, frame = 16
 1707              		@ frame_needed = 0, uses_anonymous_args = 0
 1708              		@ link register save eliminated.
 1709 0000 84B0     		sub	sp, sp, #16
 1710              	.LCFI22:
 1711              		.cfi_def_cfa_offset 16
 1712 0002 0190     		str	r0, [sp, #4]
 1713 0004 0B46     		mov	r3, r1
 1714 0006 8DF80330 		strb	r3, [sp, #3]
 1715              		.loc 1 298 0
 1716 000a 4FF00003 		mov	r3, #0
 1717 000e 8DF80F30 		strb	r3, [sp, #15]
 1718              		.loc 1 300 0
 1719 0012 11E0     		b	.L37
 1720              	.L38:
 1721              		.loc 1 301 0
 1722 0014 019B     		ldr	r3, [sp, #4]
 1723 0016 1A78     		ldrb	r2, [r3, #0]	@ zero_extendqisi2
 1724 0018 9DF80F30 		ldrb	r3, [sp, #15]
 1725 001c 5340     		eors	r3, r3, r2
 1726 001e DBB2     		uxtb	r3, r3
 1727 0020 1A46     		mov	r2, r3
 1728 0022 40F20003 		movw	r3, #:lower16:dscrc_table
 1729 0026 C0F20003 		movt	r3, #:upper16:dscrc_table
 1730 002a 9B5C     		ldrb	r3, [r3, r2]
 1731 002c 8DF80F30 		strb	r3, [sp, #15]
 1732 0030 019B     		ldr	r3, [sp, #4]
 1733 0032 03F10103 		add	r3, r3, #1
 1734 0036 0193     		str	r3, [sp, #4]
 1735              	.L37:
 1736              		.loc 1 300 0 discriminator 1
 1737 0038 9DF80330 		ldrb	r3, [sp, #3]	@ zero_extendqisi2
 1738 003c 002B     		cmp	r3, #0
 1739 003e 0CBF     		ite	eq
 1740 0040 0023     		moveq	r3, #0
 1741 0042 0123     		movne	r3, #1
 1742 0044 DBB2     		uxtb	r3, r3
 1743 0046 9DF80320 		ldrb	r2, [sp, #3]
 1744 004a 02F1FF32 		add	r2, r2, #-1
 1745 004e 8DF80320 		strb	r2, [sp, #3]
 1746 0052 002B     		cmp	r3, #0
 1747 0054 DED1     		bne	.L38
 1748              		.loc 1 303 0
 1749 0056 9DF80F30 		ldrb	r3, [sp, #15]	@ zero_extendqisi2
 1750              		.loc 1 304 0
 1751 005a 1846     		mov	r0, r3
 1752 005c 04B0     		add	sp, sp, #16
 1753 005e 7047     		bx	lr
 1754              		.cfi_endproc
 1755              	.LFE128:
 1756              		.size	oneWireCrc8, .-oneWireCrc8
 1757              		.section	.text.oneWireAcquireBus,"ax",%progbits
ARM GAS  /tmp/ccIFh2YN.s 			page 32


 1758              		.align	2
 1759              		.p2align 4,,15
 1760              		.global	oneWireAcquireBus
 1761              		.thumb
 1762              		.thumb_func
 1763              		.type	oneWireAcquireBus, %function
 1764              	oneWireAcquireBus:
 1765              	.LFB129:
 1766              		.loc 1 307 0
 1767              		.cfi_startproc
 1768              		@ args = 0, pretend = 0, frame = 8
 1769              		@ frame_needed = 0, uses_anonymous_args = 0
 1770 0000 00B5     		push	{lr}
 1771              	.LCFI23:
 1772              		.cfi_def_cfa_offset 4
 1773              		.cfi_offset 14, -4
 1774 0002 83B0     		sub	sp, sp, #12
 1775              	.LCFI24:
 1776              		.cfi_def_cfa_offset 16
 1777 0004 0190     		str	r0, [sp, #4]
 1778              		.loc 1 308 0
 1779 0006 019B     		ldr	r3, [sp, #4]
 1780 0008 03F11003 		add	r3, r3, #16
 1781 000c 1846     		mov	r0, r3
 1782 000e FFF7FEFF 		bl	chMtxLock
 1783              		.loc 1 309 0
 1784 0012 03B0     		add	sp, sp, #12
 1785 0014 00BD     		pop	{pc}
 1786              		.cfi_endproc
 1787              	.LFE129:
 1788              		.size	oneWireAcquireBus, .-oneWireAcquireBus
 1789 0016 00BFAFF3 		.section	.text.oneWireRealeaseBus,"ax",%progbits
 1789      0080AFF3 
 1789      0080
 1790              		.align	2
 1791              		.p2align 4,,15
 1792              		.global	oneWireRealeaseBus
 1793              		.thumb
 1794              		.thumb_func
 1795              		.type	oneWireRealeaseBus, %function
 1796              	oneWireRealeaseBus:
 1797              	.LFB130:
 1798              		.loc 1 312 0
 1799              		.cfi_startproc
 1800              		@ args = 0, pretend = 0, frame = 0
 1801              		@ frame_needed = 0, uses_anonymous_args = 0
 1802 0000 08B5     		push	{r3, lr}
 1803              	.LCFI25:
 1804              		.cfi_def_cfa_offset 8
 1805              		.cfi_offset 3, -8
 1806              		.cfi_offset 14, -4
 1807              		.loc 1 313 0
 1808 0002 FFF7FEFF 		bl	chMtxUnlock
 1809              		.loc 1 314 0
 1810 0006 08BD     		pop	{r3, pc}
 1811              		.cfi_endproc
 1812              	.LFE130:
ARM GAS  /tmp/ccIFh2YN.s 			page 33


 1813              		.size	oneWireRealeaseBus, .-oneWireRealeaseBus
 1814 0008 AFF30080 		.section	.text.oneWirePack,"ax",%progbits
 1814      AFF30080 
 1815              		.align	2
 1816              		.p2align 4,,15
 1817              		.thumb
 1818              		.thumb_func
 1819              		.type	oneWirePack, %function
 1820              	oneWirePack:
 1821              	.LFB131:
 1822              		.loc 1 327 0
 1823              		.cfi_startproc
 1824              		@ args = 0, pretend = 0, frame = 16
 1825              		@ frame_needed = 0, uses_anonymous_args = 0
 1826              		@ link register save eliminated.
 1827 0000 84B0     		sub	sp, sp, #16
 1828              	.LCFI26:
 1829              		.cfi_def_cfa_offset 16
 1830 0002 0346     		mov	r3, r0
 1831 0004 0091     		str	r1, [sp, #0]
 1832 0006 8DF80730 		strb	r3, [sp, #7]
 1833              	.LBB5:
 1834              		.loc 1 328 0
 1835 000a 4FF00003 		mov	r3, #0
 1836 000e 0393     		str	r3, [sp, #12]
 1837 0010 15E0     		b	.L43
 1838              	.L46:
 1839              		.loc 1 329 0
 1840 0012 009A     		ldr	r2, [sp, #0]
 1841 0014 039B     		ldr	r3, [sp, #12]
 1842 0016 D218     		adds	r2, r2, r3
 1843 0018 9DF80710 		ldrb	r1, [sp, #7]	@ zero_extendqisi2
 1844 001c 039B     		ldr	r3, [sp, #12]
 1845 001e 41FA03F3 		asr	r3, r1, r3
 1846 0022 03F00103 		and	r3, r3, #1
 1847 0026 002B     		cmp	r3, #0
 1848 0028 02D0     		beq	.L44
 1849              		.loc 1 329 0 is_stmt 0 discriminator 1
 1850 002a 4FF0FF03 		mov	r3, #255
 1851 002e 01E0     		b	.L45
 1852              	.L44:
 1853              		.loc 1 329 0 discriminator 2
 1854 0030 4FF00003 		mov	r3, #0
 1855              	.L45:
 1856              		.loc 1 329 0 discriminator 3
 1857 0034 1370     		strb	r3, [r2, #0]
 1858              		.loc 1 328 0 is_stmt 1 discriminator 3
 1859 0036 039B     		ldr	r3, [sp, #12]
 1860 0038 03F10103 		add	r3, r3, #1
 1861 003c 0393     		str	r3, [sp, #12]
 1862              	.L43:
 1863              		.loc 1 328 0 is_stmt 0 discriminator 1
 1864 003e 039B     		ldr	r3, [sp, #12]
 1865 0040 072B     		cmp	r3, #7
 1866 0042 E6D9     		bls	.L46
 1867              	.LBE5:
 1868              		.loc 1 331 0 is_stmt 1
ARM GAS  /tmp/ccIFh2YN.s 			page 34


 1869 0044 04B0     		add	sp, sp, #16
 1870 0046 7047     		bx	lr
 1871              		.cfi_endproc
 1872              	.LFE131:
 1873              		.size	oneWirePack, .-oneWirePack
 1874 0048 AFF30080 		.section	.text.oneWireUnpack,"ax",%progbits
 1874      AFF30080 
 1875              		.align	2
 1876              		.p2align 4,,15
 1877              		.thumb
 1878              		.thumb_func
 1879              		.type	oneWireUnpack, %function
 1880              	oneWireUnpack:
 1881              	.LFB132:
 1882              		.loc 1 334 0
 1883              		.cfi_startproc
 1884              		@ args = 0, pretend = 0, frame = 16
 1885              		@ frame_needed = 0, uses_anonymous_args = 0
 1886              		@ link register save eliminated.
 1887 0000 84B0     		sub	sp, sp, #16
 1888              	.LCFI27:
 1889              		.cfi_def_cfa_offset 16
 1890 0002 0190     		str	r0, [sp, #4]
 1891              		.loc 1 335 0
 1892 0004 4FF00003 		mov	r3, #0
 1893 0008 8DF80F30 		strb	r3, [sp, #15]
 1894              	.LBB6:
 1895              		.loc 1 337 0
 1896 000c 4FF00003 		mov	r3, #0
 1897 0010 0293     		str	r3, [sp, #8]
 1898 0012 15E0     		b	.L48
 1899              	.L50:
 1900              		.loc 1 338 0
 1901 0014 019A     		ldr	r2, [sp, #4]
 1902 0016 029B     		ldr	r3, [sp, #8]
 1903 0018 D318     		adds	r3, r2, r3
 1904 001a 1B78     		ldrb	r3, [r3, #0]	@ zero_extendqisi2
 1905 001c FF2B     		cmp	r3, #255
 1906 001e 0BD1     		bne	.L49
 1907              		.loc 1 339 0
 1908 0020 029B     		ldr	r3, [sp, #8]
 1909 0022 4FF00102 		mov	r2, #1
 1910 0026 02FA03F3 		lsl	r3, r2, r3
 1911 002a DAB2     		uxtb	r2, r3
 1912 002c 9DF80F30 		ldrb	r3, [sp, #15]	@ zero_extendqisi2
 1913 0030 1343     		orrs	r3, r3, r2
 1914 0032 DBB2     		uxtb	r3, r3
 1915 0034 8DF80F30 		strb	r3, [sp, #15]
 1916              	.L49:
 1917              		.loc 1 337 0
 1918 0038 029B     		ldr	r3, [sp, #8]
 1919 003a 03F10103 		add	r3, r3, #1
 1920 003e 0293     		str	r3, [sp, #8]
 1921              	.L48:
 1922              		.loc 1 337 0 is_stmt 0 discriminator 1
 1923 0040 029B     		ldr	r3, [sp, #8]
 1924 0042 072B     		cmp	r3, #7
ARM GAS  /tmp/ccIFh2YN.s 			page 35


 1925 0044 E6D9     		bls	.L50
 1926              	.LBE6:
 1927              		.loc 1 343 0 is_stmt 1
 1928 0046 9DF80F30 		ldrb	r3, [sp, #15]	@ zero_extendqisi2
 1929              		.loc 1 344 0
 1930 004a 1846     		mov	r0, r3
 1931 004c 04B0     		add	sp, sp, #16
 1932 004e 7047     		bx	lr
 1933              		.cfi_endproc
 1934              	.LFE132:
 1935              		.size	oneWireUnpack, .-oneWireUnpack
 1936              		.section	.text.oneWireSerialMode,"ax",%progbits
 1937              		.align	2
 1938              		.p2align 4,,15
 1939              		.thumb
 1940              		.thumb_func
 1941              		.type	oneWireSerialMode, %function
 1942              	oneWireSerialMode:
 1943              	.LFB133:
 1944              		.loc 1 347 0
 1945              		.cfi_startproc
 1946              		@ args = 0, pretend = 0, frame = 16
 1947              		@ frame_needed = 0, uses_anonymous_args = 0
 1948 0000 00B5     		push	{lr}
 1949              	.LCFI28:
 1950              		.cfi_def_cfa_offset 4
 1951              		.cfi_offset 14, -4
 1952 0002 85B0     		sub	sp, sp, #20
 1953              	.LCFI29:
 1954              		.cfi_def_cfa_offset 24
 1955 0004 0190     		str	r0, [sp, #4]
 1956 0006 0B46     		mov	r3, r1
 1957 0008 8DF80330 		strb	r3, [sp, #3]
 1958              		.loc 1 349 0
 1959 000c 019B     		ldr	r3, [sp, #4]
 1960 000e 5B79     		ldrb	r3, [r3, #5]	@ zero_extendqisi2
 1961 0010 4FEAC313 		lsl	r3, r3, #7
 1962              		.loc 1 350 0
 1963 0014 43F03E03 		orr	r3, r3, #62
 1964              		.loc 1 348 0
 1965 0018 0393     		str	r3, [sp, #12]
 1966              		.loc 1 352 0
 1967 001a 019B     		ldr	r3, [sp, #4]
 1968 001c 1B7B     		ldrb	r3, [r3, #12]	@ zero_extendqisi2
 1969 001e 9DF80320 		ldrb	r2, [sp, #3]	@ zero_extendqisi2
 1970 0022 9A42     		cmp	r2, r3
 1971 0024 4BD0     		beq	.L59
 1972              	.L53:
 1973              		.loc 1 355 0
 1974 0026 9DF80330 		ldrb	r3, [sp, #3]	@ zero_extendqisi2
 1975 002a 012B     		cmp	r3, #1
 1976 002c 17D0     		beq	.L57
 1977 002e 022B     		cmp	r3, #2
 1978 0030 31D0     		beq	.L58
 1979 0032 002B     		cmp	r3, #0
 1980 0034 3ED1     		bne	.L55
 1981              	.L56:
ARM GAS  /tmp/ccIFh2YN.s 			page 36


 1982              		.loc 1 357 0
 1983 0036 019B     		ldr	r3, [sp, #4]
 1984 0038 9B68     		ldr	r3, [r3, #8]
 1985 003a 1846     		mov	r0, r3
 1986 003c FFF7FEFF 		bl	uartStop
 1987              		.loc 1 358 0
 1988 0040 019B     		ldr	r3, [sp, #4]
 1989 0042 1A68     		ldr	r2, [r3, #0]
 1990 0044 019B     		ldr	r3, [sp, #4]
 1991 0046 1B79     		ldrb	r3, [r3, #4]	@ zero_extendqisi2
 1992 0048 4FF00101 		mov	r1, #1
 1993 004c 01FA03F3 		lsl	r3, r1, r3
 1994 0050 1046     		mov	r0, r2
 1995 0052 1946     		mov	r1, r3
 1996 0054 4FF02002 		mov	r2, #32
 1997 0058 FFF7FEFF 		bl	_pal_lld_setgroupmode
 1998              		.loc 1 359 0
 1999 005c 2AE0     		b	.L55
 2000              	.L57:
 2001              		.loc 1 362 0
 2002 005e 019B     		ldr	r3, [sp, #4]
 2003 0060 9B68     		ldr	r3, [r3, #8]
 2004 0062 1846     		mov	r0, r3
 2005 0064 FFF7FEFF 		bl	uartStop
 2006              		.loc 1 363 0
 2007 0068 019B     		ldr	r3, [sp, #4]
 2008 006a 9B68     		ldr	r3, [r3, #8]
 2009 006c 1846     		mov	r0, r3
 2010 006e 40F20001 		movw	r1, #:lower16:uartCfgReset
 2011 0072 C0F20001 		movt	r1, #:upper16:uartCfgReset
 2012 0076 FFF7FEFF 		bl	uartStart
 2013              		.loc 1 365 0
 2014 007a 019B     		ldr	r3, [sp, #4]
 2015 007c 1A68     		ldr	r2, [r3, #0]
 2016 007e 019B     		ldr	r3, [sp, #4]
 2017 0080 1B79     		ldrb	r3, [r3, #4]	@ zero_extendqisi2
 2018 0082 4FF00101 		mov	r1, #1
 2019 0086 01FA03F3 		lsl	r3, r1, r3
 2020 008a 1046     		mov	r0, r2
 2021 008c 1946     		mov	r1, r3
 2022 008e 039A     		ldr	r2, [sp, #12]
 2023 0090 FFF7FEFF 		bl	_pal_lld_setgroupmode
 2024              		.loc 1 366 0
 2025 0094 0EE0     		b	.L55
 2026              	.L58:
 2027              		.loc 1 369 0
 2028 0096 019B     		ldr	r3, [sp, #4]
 2029 0098 9B68     		ldr	r3, [r3, #8]
 2030 009a 1846     		mov	r0, r3
 2031 009c FFF7FEFF 		bl	uartStop
 2032              		.loc 1 370 0
 2033 00a0 019B     		ldr	r3, [sp, #4]
 2034 00a2 9B68     		ldr	r3, [r3, #8]
 2035 00a4 1846     		mov	r0, r3
 2036 00a6 40F20001 		movw	r1, #:lower16:uartCfgTransfert
 2037 00aa C0F20001 		movt	r1, #:upper16:uartCfgTransfert
 2038 00ae FFF7FEFF 		bl	uartStart
ARM GAS  /tmp/ccIFh2YN.s 			page 37


 2039              		.loc 1 372 0
 2040 00b2 00BF     		nop
 2041              	.L55:
 2042              		.loc 1 374 0
 2043 00b4 019B     		ldr	r3, [sp, #4]
 2044 00b6 9DF80320 		ldrb	r2, [sp, #3]
 2045 00ba 1A73     		strb	r2, [r3, #12]
 2046 00bc 00E0     		b	.L52
 2047              	.L59:
 2048              		.loc 1 353 0
 2049 00be 00BF     		nop
 2050              	.L52:
 2051              		.loc 1 375 0
 2052 00c0 05B0     		add	sp, sp, #20
 2053 00c2 00BD     		pop	{pc}
 2054              		.cfi_endproc
 2055              	.LFE133:
 2056              		.size	oneWireSerialMode, .-oneWireSerialMode
 2057 00c4 AFF30080 		.section	.text.txBufferEmpty,"ax",%progbits
 2057      AFF30080 
 2057      AFF30080 
 2058              		.align	2
 2059              		.p2align 4,,15
 2060              		.thumb
 2061              		.thumb_func
 2062              		.type	txBufferEmpty, %function
 2063              	txBufferEmpty:
 2064              	.LFB134:
 2065              		.loc 1 380 0
 2066              		.cfi_startproc
 2067              		@ args = 0, pretend = 0, frame = 16
 2068              		@ frame_needed = 0, uses_anonymous_args = 0
 2069 0000 00B5     		push	{lr}
 2070              	.LCFI30:
 2071              		.cfi_def_cfa_offset 4
 2072              		.cfi_offset 14, -4
 2073 0002 85B0     		sub	sp, sp, #20
 2074              	.LCFI31:
 2075              		.cfi_def_cfa_offset 24
 2076 0004 0190     		str	r0, [sp, #4]
 2077              		.loc 1 382 0
 2078 0006 0198     		ldr	r0, [sp, #4]
 2079 0008 FFF7FEFF 		bl	usartDictionnaryGetDriverByUart
 2080 000c 0390     		str	r0, [sp, #12]
 2081              		.loc 1 383 0
 2082 000e 039B     		ldr	r3, [sp, #12]
 2083 0010 002B     		cmp	r3, #0
 2084 0012 15D0     		beq	.L60
 2085              	.LBB7:
 2086              		.loc 1 384 0
 2087 0014 4FF02003 		mov	r3, #32
 2088              	@ 384 "oneWire.c" 1
 2089 0018 83F31188 		msr     BASEPRI, r3
 2090              	@ 0 "" 2
 2091              		.thumb
 2092              	.LBE7:
 2093 001c FFF7FEFF 		bl	dbg_check_lock_from_isr
ARM GAS  /tmp/ccIFh2YN.s 			page 38


 2094              		.loc 1 385 0
 2095 0020 039B     		ldr	r3, [sp, #12]
 2096 0022 9B6A     		ldr	r3, [r3, #40]
 2097 0024 002B     		cmp	r3, #0
 2098 0026 05DC     		bgt	.L62
 2099              		.loc 1 385 0 is_stmt 0 discriminator 1
 2100 0028 039B     		ldr	r3, [sp, #12]
 2101 002a 03F12003 		add	r3, r3, #32
 2102 002e 1846     		mov	r0, r3
 2103 0030 FFF7FEFF 		bl	chSemSignalI
 2104              	.L62:
 2105              		.loc 1 386 0 is_stmt 1
 2106 0034 FFF7FEFF 		bl	dbg_check_unlock_from_isr
 2107              	.LBB8:
 2108 0038 4FF00003 		mov	r3, #0
 2109              	@ 386 "oneWire.c" 1
 2110 003c 83F31188 		msr     BASEPRI, r3
 2111              	@ 0 "" 2
 2112              		.thumb
 2113              	.L60:
 2114              	.LBE8:
 2115              		.loc 1 388 0
 2116 0040 05B0     		add	sp, sp, #20
 2117 0042 00BD     		pop	{pc}
 2118              		.cfi_endproc
 2119              	.LFE134:
 2120              		.size	txBufferEmpty, .-txBufferEmpty
 2121 0044 AFF30080 		.section	.text.rxErr,"ax",%progbits
 2121      AFF30080 
 2121      AFF30080 
 2122              		.align	2
 2123              		.p2align 4,,15
 2124              		.thumb
 2125              		.thumb_func
 2126              		.type	rxErr, %function
 2127              	rxErr:
 2128              	.LFB135:
 2129              		.loc 1 391 0
 2130              		.cfi_startproc
 2131              		@ args = 0, pretend = 0, frame = 8
 2132              		@ frame_needed = 0, uses_anonymous_args = 0
 2133              		@ link register save eliminated.
 2134 0000 82B0     		sub	sp, sp, #8
 2135              	.LCFI32:
 2136              		.cfi_def_cfa_offset 8
 2137 0002 0190     		str	r0, [sp, #4]
 2138 0004 0091     		str	r1, [sp, #0]
 2139              		.loc 1 394 0
 2140 0006 02B0     		add	sp, sp, #8
 2141 0008 7047     		bx	lr
 2142              		.cfi_endproc
 2143              	.LFE135:
 2144              		.size	rxErr, .-rxErr
 2145 000a 00BFAFF3 		.section	.text.rxEnd,"ax",%progbits
 2145      0080
 2146              		.align	2
 2147              		.p2align 4,,15
ARM GAS  /tmp/ccIFh2YN.s 			page 39


 2148              		.thumb
 2149              		.thumb_func
 2150              		.type	rxEnd, %function
 2151              	rxEnd:
 2152              	.LFB136:
 2153              		.loc 1 398 0
 2154              		.cfi_startproc
 2155              		@ args = 0, pretend = 0, frame = 16
 2156              		@ frame_needed = 0, uses_anonymous_args = 0
 2157 0000 00B5     		push	{lr}
 2158              	.LCFI33:
 2159              		.cfi_def_cfa_offset 4
 2160              		.cfi_offset 14, -4
 2161 0002 85B0     		sub	sp, sp, #20
 2162              	.LCFI34:
 2163              		.cfi_def_cfa_offset 24
 2164 0004 0190     		str	r0, [sp, #4]
 2165              		.loc 1 400 0
 2166 0006 0198     		ldr	r0, [sp, #4]
 2167 0008 FFF7FEFF 		bl	usartDictionnaryGetDriverByUart
 2168 000c 0390     		str	r0, [sp, #12]
 2169              		.loc 1 401 0
 2170 000e 039B     		ldr	r3, [sp, #12]
 2171 0010 002B     		cmp	r3, #0
 2172 0012 15D0     		beq	.L64
 2173              	.LBB9:
 2174              		.loc 1 402 0
 2175 0014 4FF02003 		mov	r3, #32
 2176              	@ 402 "oneWire.c" 1
 2177 0018 83F31188 		msr     BASEPRI, r3
 2178              	@ 0 "" 2
 2179              		.thumb
 2180              	.LBE9:
 2181 001c FFF7FEFF 		bl	dbg_check_lock_from_isr
 2182              		.loc 1 403 0
 2183 0020 039B     		ldr	r3, [sp, #12]
 2184 0022 5B6B     		ldr	r3, [r3, #52]
 2185 0024 002B     		cmp	r3, #0
 2186 0026 05DC     		bgt	.L66
 2187              		.loc 1 403 0 is_stmt 0 discriminator 1
 2188 0028 039B     		ldr	r3, [sp, #12]
 2189 002a 03F12C03 		add	r3, r3, #44
 2190 002e 1846     		mov	r0, r3
 2191 0030 FFF7FEFF 		bl	chSemSignalI
 2192              	.L66:
 2193              		.loc 1 404 0 is_stmt 1
 2194 0034 FFF7FEFF 		bl	dbg_check_unlock_from_isr
 2195              	.LBB10:
 2196 0038 4FF00003 		mov	r3, #0
 2197              	@ 404 "oneWire.c" 1
 2198 003c 83F31188 		msr     BASEPRI, r3
 2199              	@ 0 "" 2
 2200              		.thumb
 2201              	.L64:
 2202              	.LBE10:
 2203              		.loc 1 406 0
 2204 0040 05B0     		add	sp, sp, #20
ARM GAS  /tmp/ccIFh2YN.s 			page 40


 2205 0042 00BD     		pop	{pc}
 2206              		.cfi_endproc
 2207              	.LFE136:
 2208              		.size	rxEnd, .-rxEnd
 2209 0044 AFF30080 		.section	.text.oneWireFirst,"ax",%progbits
 2209      AFF30080 
 2209      AFF30080 
 2210              		.align	2
 2211              		.p2align 4,,15
 2212              		.thumb
 2213              		.thumb_func
 2214              		.type	oneWireFirst, %function
 2215              	oneWireFirst:
 2216              	.LFB137:
 2217              		.loc 1 417 0
 2218              		.cfi_startproc
 2219              		@ args = 0, pretend = 0, frame = 16
 2220              		@ frame_needed = 0, uses_anonymous_args = 0
 2221 0000 00B5     		push	{lr}
 2222              	.LCFI35:
 2223              		.cfi_def_cfa_offset 4
 2224              		.cfi_offset 14, -4
 2225 0002 85B0     		sub	sp, sp, #20
 2226              	.LCFI36:
 2227              		.cfi_def_cfa_offset 24
 2228 0004 0390     		str	r0, [sp, #12]
 2229 0006 0291     		str	r1, [sp, #8]
 2230 0008 1346     		mov	r3, r2
 2231 000a 8DF80730 		strb	r3, [sp, #7]
 2232              		.loc 1 418 0
 2233 000e 039B     		ldr	r3, [sp, #12]
 2234 0010 4FF00002 		mov	r2, #0
 2235 0014 83F83820 		strb	r2, [r3, #56]
 2236              		.loc 1 419 0
 2237 0018 039B     		ldr	r3, [sp, #12]
 2238 001a 4FF00002 		mov	r2, #0
 2239 001e 83F83920 		strb	r2, [r3, #57]
 2240              		.loc 1 421 0
 2241 0022 9DF80730 		ldrb	r3, [sp, #7]	@ zero_extendqisi2
 2242 0026 0398     		ldr	r0, [sp, #12]
 2243 0028 0299     		ldr	r1, [sp, #8]
 2244 002a 1A46     		mov	r2, r3
 2245 002c FFF7FEFF 		bl	oneWireNext
 2246 0030 0346     		mov	r3, r0
 2247              		.loc 1 422 0
 2248 0032 1846     		mov	r0, r3
 2249 0034 05B0     		add	sp, sp, #20
 2250 0036 00BD     		pop	{pc}
 2251              		.cfi_endproc
 2252              	.LFE137:
 2253              		.size	oneWireFirst, .-oneWireFirst
 2254 0038 AFF30080 		.section	.text.oneWireNext,"ax",%progbits
 2254      AFF30080 
 2255              		.align	2
 2256              		.p2align 4,,15
 2257              		.thumb
 2258              		.thumb_func
ARM GAS  /tmp/ccIFh2YN.s 			page 41


 2259              		.type	oneWireNext, %function
 2260              	oneWireNext:
 2261              	.LFB138:
 2262              		.loc 1 428 0
 2263              		.cfi_startproc
 2264              		@ args = 0, pretend = 0, frame = 32
 2265              		@ frame_needed = 0, uses_anonymous_args = 0
 2266 0000 00B5     		push	{lr}
 2267              	.LCFI37:
 2268              		.cfi_def_cfa_offset 4
 2269              		.cfi_offset 14, -4
 2270 0002 89B0     		sub	sp, sp, #36
 2271              	.LCFI38:
 2272              		.cfi_def_cfa_offset 40
 2273 0004 0390     		str	r0, [sp, #12]
 2274 0006 0291     		str	r1, [sp, #8]
 2275 0008 1346     		mov	r3, r2
 2276 000a 8DF80730 		strb	r3, [sp, #7]
 2277              		.loc 1 429 0
 2278 000e 4FF00103 		mov	r3, #1
 2279 0012 8DF81F30 		strb	r3, [sp, #31]
 2280              		.loc 1 430 0
 2281 0016 4FF00003 		mov	r3, #0
 2282 001a 8DF81E30 		strb	r3, [sp, #30]
 2283              		.loc 1 431 0
 2284 001e 4FF00103 		mov	r3, #1
 2285 0022 8DF81D30 		strb	r3, [sp, #29]
 2286              		.loc 1 432 0
 2287 0026 4FF00003 		mov	r3, #0
 2288 002a 8DF81C30 		strb	r3, [sp, #28]
 2289              		.loc 1 433 0
 2290 002e 4FF00003 		mov	r3, #0
 2291 0032 8DF81B30 		strb	r3, [sp, #27]
 2292              		.loc 1 434 0
 2293 0036 4FF00003 		mov	r3, #0
 2294 003a 8DF81A30 		strb	r3, [sp, #26]
 2295              		.loc 1 435 0
 2296 003e 4FF00003 		mov	r3, #0
 2297 0042 8DF81930 		strb	r3, [sp, #25]
 2298              		.loc 1 436 0
 2299 0046 4FF00003 		mov	r3, #0
 2300 004a ADF81630 		strh	r3, [sp, #22]	@ movhi
 2301              		.loc 1 439 0
 2302 004e 4FF00003 		mov	r3, #0
 2303 0052 8DF81930 		strb	r3, [sp, #25]
 2304              		.loc 1 440 0
 2305 0056 40F20003 		movw	r3, #:lower16:dowcrc.7683
 2306 005a C0F20003 		movt	r3, #:upper16:dowcrc.7683
 2307 005e 4FF00002 		mov	r2, #0
 2308 0062 1A70     		strb	r2, [r3, #0]
 2309              		.loc 1 441 0
 2310 0064 0398     		ldr	r0, [sp, #12]
 2311 0066 FFF7FEFF 		bl	oneWireReset
 2312 006a 0346     		mov	r3, r0
 2313 006c 83F00103 		eor	r3, r3, #1
 2314 0070 DBB2     		uxtb	r3, r3
 2315 0072 ADF81630 		strh	r3, [sp, #22]	@ movhi
ARM GAS  /tmp/ccIFh2YN.s 			page 42


 2316              		.loc 1 443 0
 2317 0076 BDF91630 		ldrsh	r3, [sp, #22]
 2318 007a 002B     		cmp	r3, #0
 2319 007c 04D1     		bne	.L70
 2320              		.loc 1 443 0 is_stmt 0 discriminator 1
 2321 007e 039B     		ldr	r3, [sp, #12]
 2322 0080 93F83930 		ldrb	r3, [r3, #57]	@ zero_extendqisi2
 2323 0084 002B     		cmp	r3, #0
 2324 0086 07D0     		beq	.L71
 2325              	.L70:
 2326              		.loc 1 445 0 is_stmt 1
 2327 0088 039B     		ldr	r3, [sp, #12]
 2328 008a 4FF00002 		mov	r2, #0
 2329 008e 83F83820 		strb	r2, [r3, #56]
 2330              		.loc 1 446 0
 2331 0092 4FF00003 		mov	r3, #0
 2332 0096 EDE0     		b	.L72
 2333              	.L71:
 2334              		.loc 1 450 0
 2335 0098 9DF80730 		ldrb	r3, [sp, #7]	@ zero_extendqisi2
 2336 009c 002B     		cmp	r3, #0
 2337 009e 02D0     		beq	.L73
 2338              		.loc 1 450 0 is_stmt 0 discriminator 1
 2339 00a0 4FF0EC03 		mov	r3, #236
 2340 00a4 01E0     		b	.L74
 2341              	.L73:
 2342              		.loc 1 450 0 discriminator 2
 2343 00a6 4FF0F003 		mov	r3, #240
 2344              	.L74:
 2345              		.loc 1 450 0 discriminator 3
 2346 00aa 0398     		ldr	r0, [sp, #12]
 2347 00ac 1946     		mov	r1, r3
 2348 00ae FFF7FEFF 		bl	oneWireSendByte
 2349              	.L86:
 2350              		.loc 1 453 0 is_stmt 1
 2351 00b2 4FF00003 		mov	r3, #0
 2352 00b6 8DF81C30 		strb	r3, [sp, #28]
 2353              		.loc 1 454 0
 2354 00ba 0398     		ldr	r0, [sp, #12]
 2355 00bc FFF7FEFF 		bl	oneWireReceiveBit
 2356 00c0 0346     		mov	r3, r0
 2357 00c2 002B     		cmp	r3, #0
 2358 00c4 03D0     		beq	.L75
 2359              		.loc 1 455 0
 2360 00c6 4FF00203 		mov	r3, #2
 2361 00ca 8DF81C30 		strb	r3, [sp, #28]
 2362              	.L75:
 2363              		.loc 1 456 0
 2364 00ce 0398     		ldr	r0, [sp, #12]
 2365 00d0 FFF7FEFF 		bl	oneWireReceiveBit
 2366 00d4 0346     		mov	r3, r0
 2367 00d6 002B     		cmp	r3, #0
 2368 00d8 05D0     		beq	.L76
 2369              		.loc 1 457 0
 2370 00da 9DF81C30 		ldrb	r3, [sp, #28]
 2371 00de 43F00103 		orr	r3, r3, #1
 2372 00e2 8DF81C30 		strb	r3, [sp, #28]
ARM GAS  /tmp/ccIFh2YN.s 			page 43


 2373              	.L76:
 2374              		.loc 1 458 0
 2375 00e6 9DF81C30 		ldrb	r3, [sp, #28]	@ zero_extendqisi2
 2376 00ea 032B     		cmp	r3, #3
 2377 00ec 00F0A180 		beq	.L89
 2378              	.L77:
 2379              		.loc 1 462 0
 2380 00f0 9DF81C30 		ldrb	r3, [sp, #28]	@ zero_extendqisi2
 2381 00f4 002B     		cmp	r3, #0
 2382 00f6 06D0     		beq	.L79
 2383              		.loc 1 463 0
 2384 00f8 9DF81C30 		ldrb	r3, [sp, #28]	@ zero_extendqisi2
 2385 00fc 4FEA5303 		lsr	r3, r3, #1
 2386 0100 8DF81A30 		strb	r3, [sp, #26]
 2387 0104 2BE0     		b	.L80
 2388              	.L79:
 2389              		.loc 1 469 0
 2390 0106 039B     		ldr	r3, [sp, #12]
 2391 0108 93F83830 		ldrb	r3, [r3, #56]	@ zero_extendqisi2
 2392 010c 9DF81F20 		ldrb	r2, [sp, #31]	@ zero_extendqisi2
 2393 0110 9A42     		cmp	r2, r3
 2394 0112 10D2     		bcs	.L81
 2395              		.loc 1 470 0
 2396 0114 9DF81E30 		ldrb	r3, [sp, #30]	@ zero_extendqisi2
 2397 0118 029A     		ldr	r2, [sp, #8]
 2398 011a D318     		adds	r3, r2, r3
 2399 011c 1A78     		ldrb	r2, [r3, #0]	@ zero_extendqisi2
 2400 011e 9DF81D30 		ldrb	r3, [sp, #29]
 2401 0122 1340     		ands	r3, r3, r2
 2402 0124 DBB2     		uxtb	r3, r3
 2403 0126 002B     		cmp	r3, #0
 2404 0128 0CBF     		ite	eq
 2405 012a 0023     		moveq	r3, #0
 2406 012c 0123     		movne	r3, #1
 2407 012e DBB2     		uxtb	r3, r3
 2408 0130 8DF81A30 		strb	r3, [sp, #26]
 2409 0134 0BE0     		b	.L82
 2410              	.L81:
 2411              		.loc 1 473 0
 2412 0136 039B     		ldr	r3, [sp, #12]
 2413 0138 93F83830 		ldrb	r3, [r3, #56]	@ zero_extendqisi2
 2414 013c 9DF81F20 		ldrb	r2, [sp, #31]	@ zero_extendqisi2
 2415 0140 9A42     		cmp	r2, r3
 2416 0142 14BF     		ite	ne
 2417 0144 0023     		movne	r3, #0
 2418 0146 0123     		moveq	r3, #1
 2419 0148 DBB2     		uxtb	r3, r3
 2420 014a 8DF81A30 		strb	r3, [sp, #26]
 2421              	.L82:
 2422              		.loc 1 476 0
 2423 014e 9DF81A30 		ldrb	r3, [sp, #26]	@ zero_extendqisi2
 2424 0152 002B     		cmp	r3, #0
 2425 0154 03D1     		bne	.L80
 2426              		.loc 1 476 0 is_stmt 0 discriminator 1
 2427 0156 9DF81F30 		ldrb	r3, [sp, #31]
 2428 015a 8DF81B30 		strb	r3, [sp, #27]
 2429              	.L80:
ARM GAS  /tmp/ccIFh2YN.s 			page 44


 2430              		.loc 1 480 0 is_stmt 1
 2431 015e 9DF81A30 		ldrb	r3, [sp, #26]	@ zero_extendqisi2
 2432 0162 012B     		cmp	r3, #1
 2433 0164 0ED1     		bne	.L83
 2434              		.loc 1 480 0 is_stmt 0 discriminator 1
 2435 0166 9DF81E30 		ldrb	r3, [sp, #30]	@ zero_extendqisi2
 2436 016a 029A     		ldr	r2, [sp, #8]
 2437 016c D318     		adds	r3, r2, r3
 2438 016e 9DF81E20 		ldrb	r2, [sp, #30]	@ zero_extendqisi2
 2439 0172 0299     		ldr	r1, [sp, #8]
 2440 0174 8A18     		adds	r2, r1, r2
 2441 0176 1178     		ldrb	r1, [r2, #0]	@ zero_extendqisi2
 2442 0178 9DF81D20 		ldrb	r2, [sp, #29]
 2443 017c 0A43     		orrs	r2, r2, r1
 2444 017e D2B2     		uxtb	r2, r2
 2445 0180 1A70     		strb	r2, [r3, #0]
 2446 0182 12E0     		b	.L84
 2447              	.L83:
 2448              		.loc 1 481 0 is_stmt 1
 2449 0184 9DF81E30 		ldrb	r3, [sp, #30]	@ zero_extendqisi2
 2450 0188 029A     		ldr	r2, [sp, #8]
 2451 018a D318     		adds	r3, r2, r3
 2452 018c 9DF81E20 		ldrb	r2, [sp, #30]	@ zero_extendqisi2
 2453 0190 0299     		ldr	r1, [sp, #8]
 2454 0192 8A18     		adds	r2, r1, r2
 2455 0194 1278     		ldrb	r2, [r2, #0]	@ zero_extendqisi2
 2456 0196 D1B2     		uxtb	r1, r2
 2457 0198 9DF81D20 		ldrb	r2, [sp, #29]	@ zero_extendqisi2
 2458 019c 6FEA0202 		mvn	r2, r2
 2459 01a0 D2B2     		uxtb	r2, r2
 2460 01a2 0A40     		ands	r2, r2, r1
 2461 01a4 D2B2     		uxtb	r2, r2
 2462 01a6 D2B2     		uxtb	r2, r2
 2463 01a8 1A70     		strb	r2, [r3, #0]
 2464              	.L84:
 2465              		.loc 1 483 0
 2466 01aa 9DF81A30 		ldrb	r3, [sp, #26]	@ zero_extendqisi2
 2467 01ae 002B     		cmp	r3, #0
 2468 01b0 0CBF     		ite	eq
 2469 01b2 0023     		moveq	r3, #0
 2470 01b4 0123     		movne	r3, #1
 2471 01b6 DBB2     		uxtb	r3, r3
 2472 01b8 0398     		ldr	r0, [sp, #12]
 2473 01ba 1946     		mov	r1, r3
 2474 01bc FFF7FEFF 		bl	oneWireSendBit
 2475              		.loc 1 485 0
 2476 01c0 9DF81F30 		ldrb	r3, [sp, #31]
 2477 01c4 03F10103 		add	r3, r3, #1
 2478 01c8 8DF81F30 		strb	r3, [sp, #31]
 2479              		.loc 1 486 0
 2480 01cc 9DF81D30 		ldrb	r3, [sp, #29]
 2481 01d0 4FEA4303 		lsl	r3, r3, #1
 2482 01d4 8DF81D30 		strb	r3, [sp, #29]
 2483              		.loc 1 488 0
 2484 01d8 9DF81D30 		ldrb	r3, [sp, #29]	@ zero_extendqisi2
 2485 01dc 002B     		cmp	r3, #0
 2486 01de 22D1     		bne	.L85
ARM GAS  /tmp/ccIFh2YN.s 			page 45


 2487              		.loc 1 490 0
 2488 01e0 9DF81E30 		ldrb	r3, [sp, #30]	@ zero_extendqisi2
 2489 01e4 029A     		ldr	r2, [sp, #8]
 2490 01e6 D318     		adds	r3, r2, r3
 2491 01e8 1A78     		ldrb	r2, [r3, #0]	@ zero_extendqisi2
 2492 01ea 40F20003 		movw	r3, #:lower16:dowcrc.7683
 2493 01ee C0F20003 		movt	r3, #:upper16:dowcrc.7683
 2494 01f2 1B78     		ldrb	r3, [r3, #0]	@ zero_extendqisi2
 2495 01f4 5340     		eors	r3, r3, r2
 2496 01f6 DBB2     		uxtb	r3, r3
 2497 01f8 1A46     		mov	r2, r3
 2498 01fa 40F20003 		movw	r3, #:lower16:dscrc_table
 2499 01fe C0F20003 		movt	r3, #:upper16:dscrc_table
 2500 0202 9A5C     		ldrb	r2, [r3, r2]	@ zero_extendqisi2
 2501 0204 40F20003 		movw	r3, #:lower16:dowcrc.7683
 2502 0208 C0F20003 		movt	r3, #:upper16:dowcrc.7683
 2503 020c 1A70     		strb	r2, [r3, #0]
 2504              		.loc 1 491 0
 2505 020e 9DF81E30 		ldrb	r3, [sp, #30]
 2506 0212 03F10103 		add	r3, r3, #1
 2507 0216 8DF81E30 		strb	r3, [sp, #30]
 2508              		.loc 1 492 0
 2509 021a 9DF81D30 		ldrb	r3, [sp, #29]
 2510 021e 03F10103 		add	r3, r3, #1
 2511 0222 8DF81D30 		strb	r3, [sp, #29]
 2512              	.L85:
 2513              		.loc 1 495 0
 2514 0226 9DF81E30 		ldrb	r3, [sp, #30]	@ zero_extendqisi2
 2515 022a 072B     		cmp	r3, #7
 2516 022c 7FF641AF 		bls	.L86
 2517 0230 00E0     		b	.L78
 2518              	.L89:
 2519              		.loc 1 459 0
 2520 0232 00BF     		nop
 2521              	.L78:
 2522              		.loc 1 497 0
 2523 0234 9DF81F30 		ldrb	r3, [sp, #31]	@ zero_extendqisi2
 2524 0238 002B     		cmp	r3, #0
 2525 023a 05DC     		bgt	.L87
 2526              		.loc 1 498 0
 2527 023c 039B     		ldr	r3, [sp, #12]
 2528 023e 4FF00002 		mov	r2, #0
 2529 0242 83F83820 		strb	r2, [r3, #56]
 2530 0246 13E0     		b	.L88
 2531              	.L87:
 2532              		.loc 1 501 0
 2533 0248 039B     		ldr	r3, [sp, #12]
 2534 024a 9DF81B20 		ldrb	r2, [sp, #27]
 2535 024e 83F83820 		strb	r2, [r3, #56]
 2536              		.loc 1 502 0
 2537 0252 039B     		ldr	r3, [sp, #12]
 2538 0254 93F83830 		ldrb	r3, [r3, #56]	@ zero_extendqisi2
 2539 0258 002B     		cmp	r3, #0
 2540 025a 14BF     		ite	ne
 2541 025c 0023     		movne	r3, #0
 2542 025e 0123     		moveq	r3, #1
 2543 0260 DAB2     		uxtb	r2, r3
ARM GAS  /tmp/ccIFh2YN.s 			page 46


 2544 0262 039B     		ldr	r3, [sp, #12]
 2545 0264 83F83920 		strb	r2, [r3, #57]
 2546              		.loc 1 503 0
 2547 0268 4FF00103 		mov	r3, #1
 2548 026c 8DF81930 		strb	r3, [sp, #25]
 2549              	.L88:
 2550              		.loc 1 506 0
 2551 0270 9DF81930 		ldrb	r3, [sp, #25]	@ zero_extendqisi2
 2552              	.L72:
 2553              		.loc 1 507 0
 2554 0274 1846     		mov	r0, r3
 2555 0276 09B0     		add	sp, sp, #36
 2556 0278 00BD     		pop	{pc}
 2557              		.cfi_endproc
 2558              	.LFE138:
 2559              		.size	oneWireNext, .-oneWireNext
 2560 027a 00BFAFF3 		.section	.text.usartDictionnaryAddPair,"ax",%progbits
 2560      0080
 2561              		.align	2
 2562              		.p2align 4,,15
 2563              		.thumb
 2564              		.thumb_func
 2565              		.type	usartDictionnaryAddPair, %function
 2566              	usartDictionnaryAddPair:
 2567              	.LFB139:
 2568              		.loc 1 510 0
 2569              		.cfi_startproc
 2570              		@ args = 0, pretend = 0, frame = 16
 2571              		@ frame_needed = 0, uses_anonymous_args = 0
 2572              		@ link register save eliminated.
 2573 0000 84B0     		sub	sp, sp, #16
 2574              	.LCFI39:
 2575              		.cfi_def_cfa_offset 16
 2576 0002 0190     		str	r0, [sp, #4]
 2577 0004 0091     		str	r1, [sp, #0]
 2578              		.loc 1 511 0
 2579 0006 4FF00003 		mov	r3, #0
 2580 000a 8DF80F30 		strb	r3, [sp, #15]
 2581              		.loc 1 513 0
 2582 000e 16E0     		b	.L91
 2583              	.L93:
 2584              		.loc 1 514 0
 2585 0010 9DF80F20 		ldrb	r2, [sp, #15]	@ zero_extendqisi2
 2586 0014 40F20003 		movw	r3, #:lower16:usartDict
 2587 0018 C0F20003 		movt	r3, #:upper16:usartDict
 2588 001c 53F82220 		ldr	r2, [r3, r2, lsl #2]
 2589 0020 019B     		ldr	r3, [sp, #4]
 2590 0022 9A42     		cmp	r2, r3
 2591 0024 0BD1     		bne	.L91
 2592              		.loc 1 515 0
 2593 0026 9DF80F20 		ldrb	r2, [sp, #15]	@ zero_extendqisi2
 2594 002a 40F20003 		movw	r3, #:lower16:usartDict
 2595 002e C0F20003 		movt	r3, #:upper16:usartDict
 2596 0032 02F10602 		add	r2, r2, #6
 2597 0036 0099     		ldr	r1, [sp, #0]
 2598 0038 43F82210 		str	r1, [r3, r2, lsl #2]
 2599              		.loc 1 516 0
ARM GAS  /tmp/ccIFh2YN.s 			page 47


 2600 003c 3FE0     		b	.L90
 2601              	.L91:
 2602              		.loc 1 513 0 discriminator 1
 2603 003e 9DF80F30 		ldrb	r3, [sp, #15]	@ zero_extendqisi2
 2604 0042 052B     		cmp	r3, #5
 2605 0044 8CBF     		ite	hi
 2606 0046 0023     		movhi	r3, #0
 2607 0048 0123     		movls	r3, #1
 2608 004a DBB2     		uxtb	r3, r3
 2609 004c 9DF80F20 		ldrb	r2, [sp, #15]
 2610 0050 02F10102 		add	r2, r2, #1
 2611 0054 8DF80F20 		strb	r2, [sp, #15]
 2612 0058 002B     		cmp	r3, #0
 2613 005a D9D1     		bne	.L93
 2614              		.loc 1 520 0
 2615 005c 4FF00003 		mov	r3, #0
 2616 0060 8DF80F30 		strb	r3, [sp, #15]
 2617              		.loc 1 521 0
 2618 0064 05E0     		b	.L94
 2619              	.L96:
 2620              		.loc 1 522 0
 2621 0066 9DF80F30 		ldrb	r3, [sp, #15]
 2622 006a 03F10103 		add	r3, r3, #1
 2623 006e 8DF80F30 		strb	r3, [sp, #15]
 2624              	.L94:
 2625              		.loc 1 521 0 discriminator 1
 2626 0072 9DF80F30 		ldrb	r3, [sp, #15]	@ zero_extendqisi2
 2627 0076 052B     		cmp	r3, #5
 2628 0078 09D8     		bhi	.L95
 2629              		.loc 1 521 0 is_stmt 0 discriminator 2
 2630 007a 9DF80F20 		ldrb	r2, [sp, #15]	@ zero_extendqisi2
 2631 007e 40F20003 		movw	r3, #:lower16:usartDict
 2632 0082 C0F20003 		movt	r3, #:upper16:usartDict
 2633 0086 53F82230 		ldr	r3, [r3, r2, lsl #2]
 2634 008a 002B     		cmp	r3, #0
 2635 008c EBD1     		bne	.L96
 2636              	.L95:
 2637              		.loc 1 525 0 is_stmt 1
 2638 008e 9DF80F30 		ldrb	r3, [sp, #15]	@ zero_extendqisi2
 2639 0092 052B     		cmp	r3, #5
 2640 0094 13D8     		bhi	.L90
 2641              		.loc 1 526 0
 2642 0096 9DF80F20 		ldrb	r2, [sp, #15]	@ zero_extendqisi2
 2643 009a 40F20003 		movw	r3, #:lower16:usartDict
 2644 009e C0F20003 		movt	r3, #:upper16:usartDict
 2645 00a2 0199     		ldr	r1, [sp, #4]
 2646 00a4 43F82210 		str	r1, [r3, r2, lsl #2]
 2647              		.loc 1 527 0
 2648 00a8 9DF80F20 		ldrb	r2, [sp, #15]	@ zero_extendqisi2
 2649 00ac 40F20003 		movw	r3, #:lower16:usartDict
 2650 00b0 C0F20003 		movt	r3, #:upper16:usartDict
 2651 00b4 02F10602 		add	r2, r2, #6
 2652 00b8 0099     		ldr	r1, [sp, #0]
 2653 00ba 43F82210 		str	r1, [r3, r2, lsl #2]
 2654              	.L90:
 2655              		.loc 1 529 0
 2656 00be 04B0     		add	sp, sp, #16
ARM GAS  /tmp/ccIFh2YN.s 			page 48


 2657 00c0 7047     		bx	lr
 2658              		.cfi_endproc
 2659              	.LFE139:
 2660              		.size	usartDictionnaryAddPair, .-usartDictionnaryAddPair
 2661 00c2 00BFAFF3 		.section	.text.usartDictionnaryGetDriverByUart,"ax",%progbits
 2661      0080AFF3 
 2661      0080AFF3 
 2661      0080
 2662              		.align	2
 2663              		.p2align 4,,15
 2664              		.thumb
 2665              		.thumb_func
 2666              		.type	usartDictionnaryGetDriverByUart, %function
 2667              	usartDictionnaryGetDriverByUart:
 2668              	.LFB140:
 2669              		.loc 1 532 0
 2670              		.cfi_startproc
 2671              		@ args = 0, pretend = 0, frame = 16
 2672              		@ frame_needed = 0, uses_anonymous_args = 0
 2673              		@ link register save eliminated.
 2674 0000 84B0     		sub	sp, sp, #16
 2675              	.LCFI40:
 2676              		.cfi_def_cfa_offset 16
 2677 0002 0190     		str	r0, [sp, #4]
 2678              		.loc 1 533 0
 2679 0004 4FF00003 		mov	r3, #0
 2680 0008 8DF80F30 		strb	r3, [sp, #15]
 2681              		.loc 1 534 0
 2682 000c 05E0     		b	.L98
 2683              	.L100:
 2684              		.loc 1 535 0
 2685 000e 9DF80F30 		ldrb	r3, [sp, #15]
 2686 0012 03F10103 		add	r3, r3, #1
 2687 0016 8DF80F30 		strb	r3, [sp, #15]
 2688              	.L98:
 2689              		.loc 1 534 0 discriminator 1
 2690 001a 9DF80F30 		ldrb	r3, [sp, #15]	@ zero_extendqisi2
 2691 001e 052B     		cmp	r3, #5
 2692 0020 0CD8     		bhi	.L99
 2693              		.loc 1 534 0 is_stmt 0 discriminator 2
 2694 0022 9DF80F20 		ldrb	r2, [sp, #15]	@ zero_extendqisi2
 2695 0026 40F20003 		movw	r3, #:lower16:usartDict
 2696 002a C0F20003 		movt	r3, #:upper16:usartDict
 2697 002e 02F10602 		add	r2, r2, #6
 2698 0032 53F82220 		ldr	r2, [r3, r2, lsl #2]
 2699 0036 019B     		ldr	r3, [sp, #4]
 2700 0038 9A42     		cmp	r2, r3
 2701 003a E8D1     		bne	.L100
 2702              	.L99:
 2703              		.loc 1 537 0 is_stmt 1
 2704 003c 9DF80F30 		ldrb	r3, [sp, #15]	@ zero_extendqisi2
 2705 0040 052B     		cmp	r3, #5
 2706 0042 08D8     		bhi	.L101
 2707              		.loc 1 538 0
 2708 0044 9DF80F20 		ldrb	r2, [sp, #15]	@ zero_extendqisi2
 2709 0048 40F20003 		movw	r3, #:lower16:usartDict
 2710 004c C0F20003 		movt	r3, #:upper16:usartDict
ARM GAS  /tmp/ccIFh2YN.s 			page 49


 2711 0050 53F82230 		ldr	r3, [r3, r2, lsl #2]
 2712 0054 01E0     		b	.L102
 2713              	.L101:
 2714              		.loc 1 540 0
 2715 0056 4FF00003 		mov	r3, #0
 2716              	.L102:
 2717              		.loc 1 542 0
 2718 005a 1846     		mov	r0, r3
 2719 005c 04B0     		add	sp, sp, #16
 2720 005e 7047     		bx	lr
 2721              		.cfi_endproc
 2722              	.LFE140:
 2723              		.size	usartDictionnaryGetDriverByUart, .-usartDictionnaryGetDriverByUart
 2724              		.section	.bss.dowcrc.7683,"aw",%nobits
 2725              		.type	dowcrc.7683, %object
 2726              		.size	dowcrc.7683, 1
 2727              	dowcrc.7683:
 2728 0000 00       		.space	1
 2729              		.text
 2730              	.Letext0:
 2731              		.file 2 "/usr/bin/../lib/gcc/arm-none-eabi/4.7.4/../../../../arm-none-eabi/include/stdint.h"
 2732              		.file 3 "../../os/ports/GCC/ARMCMx/chtypes.h"
 2733              		.file 4 "../../os/kernel/include/chlists.h"
 2734              		.file 5 "../../os/kernel/include/chthreads.h"
 2735              		.file 6 "../../os/ports/GCC/ARMCMx/chcore_v7m.h"
 2736              		.file 7 "../../os/kernel/include/chsem.h"
 2737              		.file 8 "../../os/kernel/include/chbsem.h"
 2738              		.file 9 "../../os/kernel/include/chmtx.h"
 2739              		.file 10 "../../os/hal/platforms/STM32F4xx/stm32f4xx.h"
 2740              		.file 11 "../../os/hal/platforms/STM32F4xx/stm32_dma.h"
 2741              		.file 12 "../../os/hal/platforms/STM32/GPIOv2/pal_lld.h"
 2742              		.file 13 "../../os/hal/include/uart.h"
 2743              		.file 14 "../../os/hal/platforms/STM32/USARTv1/uart_lld.h"
 2744              		.file 15 "oneWire.h"
 2745              		.file 16 "../../os/ports/common/ARMCMx/CMSIS/include/core_cm4.h"