ARM GAS  /tmp/cckommA9.s 			page 1


   1              		.syntax unified
   2              		.cpu cortex-m4
   3              		.fpu softvfp
   4              		.eabi_attribute 20, 1
   5              		.eabi_attribute 21, 1
   6              		.eabi_attribute 23, 3
   7              		.eabi_attribute 24, 1
   8              		.eabi_attribute 25, 1
   9              		.eabi_attribute 26, 1
  10              		.eabi_attribute 30, 6
  11              		.eabi_attribute 34, 1
  12              		.eabi_attribute 18, 4
  13              		.thumb
  14              		.file	"pal_lld.c"
  15              		.text
  16              	.Ltext0:
  17              		.cfi_sections	.debug_frame
  18              		.section	.text.initgpio,"ax",%progbits
  19              		.align	2
  20              		.p2align 4,,15
  21              		.thumb
  22              		.thumb_func
  23              		.type	initgpio, %function
  24              	initgpio:
  25              	.LFB118:
  26              		.file 1 "../../os/hal/platforms/STM32/GPIOv2/pal_lld.c"
  27              		.loc 1 77 0
  28              		.cfi_startproc
  29              		@ args = 0, pretend = 0, frame = 8
  30              		@ frame_needed = 0, uses_anonymous_args = 0
  31              		@ link register save eliminated.
  32 0000 82B0     		sub	sp, sp, #8
  33              	.LCFI0:
  34              		.cfi_def_cfa_offset 8
  35 0002 0190     		str	r0, [sp, #4]
  36 0004 0091     		str	r1, [sp, #0]
  37              		.loc 1 79 0
  38 0006 009B     		ldr	r3, [sp, #0]
  39 0008 5A68     		ldr	r2, [r3, #4]
  40 000a 019B     		ldr	r3, [sp, #4]
  41 000c 5A60     		str	r2, [r3, #4]
  42              		.loc 1 80 0
  43 000e 009B     		ldr	r3, [sp, #0]
  44 0010 9A68     		ldr	r2, [r3, #8]
  45 0012 019B     		ldr	r3, [sp, #4]
  46 0014 9A60     		str	r2, [r3, #8]
  47              		.loc 1 81 0
  48 0016 009B     		ldr	r3, [sp, #0]
  49 0018 DA68     		ldr	r2, [r3, #12]
  50 001a 019B     		ldr	r3, [sp, #4]
  51 001c DA60     		str	r2, [r3, #12]
  52              		.loc 1 82 0
  53 001e 009B     		ldr	r3, [sp, #0]
  54 0020 1A69     		ldr	r2, [r3, #16]
  55 0022 019B     		ldr	r3, [sp, #4]
  56 0024 5A61     		str	r2, [r3, #20]
  57              		.loc 1 83 0
ARM GAS  /tmp/cckommA9.s 			page 2


  58 0026 009B     		ldr	r3, [sp, #0]
  59 0028 5A69     		ldr	r2, [r3, #20]
  60 002a 019B     		ldr	r3, [sp, #4]
  61 002c 1A62     		str	r2, [r3, #32]
  62              		.loc 1 84 0
  63 002e 009B     		ldr	r3, [sp, #0]
  64 0030 9A69     		ldr	r2, [r3, #24]
  65 0032 019B     		ldr	r3, [sp, #4]
  66 0034 5A62     		str	r2, [r3, #36]
  67              		.loc 1 85 0
  68 0036 009B     		ldr	r3, [sp, #0]
  69 0038 1A68     		ldr	r2, [r3, #0]
  70 003a 019B     		ldr	r3, [sp, #4]
  71 003c 1A60     		str	r2, [r3, #0]
  72              		.loc 1 86 0
  73 003e 02B0     		add	sp, sp, #8
  74 0040 7047     		bx	lr
  75              		.cfi_endproc
  76              	.LFE118:
  77              		.size	initgpio, .-initgpio
  78              		.section	.text._pal_lld_init,"ax",%progbits
  79              		.align	2
  80              		.p2align 4,,15
  81              		.global	_pal_lld_init
  82              		.thumb
  83              		.thumb_func
  84              		.type	_pal_lld_init, %function
  85              	_pal_lld_init:
  86              	.LFB119:
  87              		.loc 1 104 0
  88              		.cfi_startproc
  89              		@ args = 0, pretend = 0, frame = 8
  90              		@ frame_needed = 0, uses_anonymous_args = 0
  91 0000 00B5     		push	{lr}
  92              	.LCFI1:
  93              		.cfi_def_cfa_offset 4
  94              		.cfi_offset 14, -4
  95 0002 83B0     		sub	sp, sp, #12
  96              	.LCFI2:
  97              		.cfi_def_cfa_offset 16
  98 0004 0190     		str	r0, [sp, #4]
  99              		.loc 1 117 0
 100 0006 4FF46053 		mov	r3, #14336
 101 000a C4F20203 		movt	r3, 16386
 102 000e 4FF46052 		mov	r2, #14336
 103 0012 C4F20202 		movt	r2, 16386
 104 0016 126B     		ldr	r2, [r2, #48]
 105 0018 6FEA5222 		mvn	r2, r2, lsr #9
 106 001c 6FEA4222 		mvn	r2, r2, lsl #9
 107 0020 1A63     		str	r2, [r3, #48]
 108              		.loc 1 118 0
 109 0022 4FF46053 		mov	r3, #14336
 110 0026 C4F20203 		movt	r3, 16386
 111 002a 4FF46052 		mov	r2, #14336
 112 002e C4F20202 		movt	r2, 16386
 113 0032 126D     		ldr	r2, [r2, #80]
 114 0034 6FEA5222 		mvn	r2, r2, lsr #9
ARM GAS  /tmp/cckommA9.s 			page 3


 115 0038 6FEA4222 		mvn	r2, r2, lsl #9
 116 003c 1A65     		str	r2, [r3, #80]
 117              		.loc 1 124 0
 118 003e 019B     		ldr	r3, [sp, #4]
 119 0040 4FF00000 		mov	r0, #0
 120 0044 C4F20200 		movt	r0, 16386
 121 0048 1946     		mov	r1, r3
 122 004a FFF7FEFF 		bl	initgpio
 123              		.loc 1 125 0
 124 004e 019B     		ldr	r3, [sp, #4]
 125 0050 03F11C03 		add	r3, r3, #28
 126 0054 4FF48060 		mov	r0, #1024
 127 0058 C4F20200 		movt	r0, 16386
 128 005c 1946     		mov	r1, r3
 129 005e FFF7FEFF 		bl	initgpio
 130              		.loc 1 126 0
 131 0062 019B     		ldr	r3, [sp, #4]
 132 0064 03F13803 		add	r3, r3, #56
 133 0068 4FF40060 		mov	r0, #2048
 134 006c C4F20200 		movt	r0, 16386
 135 0070 1946     		mov	r1, r3
 136 0072 FFF7FEFF 		bl	initgpio
 137              		.loc 1 127 0
 138 0076 019B     		ldr	r3, [sp, #4]
 139 0078 03F15403 		add	r3, r3, #84
 140 007c 4FF44060 		mov	r0, #3072
 141 0080 C4F20200 		movt	r0, 16386
 142 0084 1946     		mov	r1, r3
 143 0086 FFF7FEFF 		bl	initgpio
 144              		.loc 1 129 0
 145 008a 019B     		ldr	r3, [sp, #4]
 146 008c 03F17003 		add	r3, r3, #112
 147 0090 4FF48050 		mov	r0, #4096
 148 0094 C4F20200 		movt	r0, 16386
 149 0098 1946     		mov	r1, r3
 150 009a FFF7FEFF 		bl	initgpio
 151              		.loc 1 132 0
 152 009e 019B     		ldr	r3, [sp, #4]
 153 00a0 03F18C03 		add	r3, r3, #140
 154 00a4 4FF4A050 		mov	r0, #5120
 155 00a8 C4F20200 		movt	r0, 16386
 156 00ac 1946     		mov	r1, r3
 157 00ae FFF7FEFF 		bl	initgpio
 158              		.loc 1 135 0
 159 00b2 019B     		ldr	r3, [sp, #4]
 160 00b4 03F1A803 		add	r3, r3, #168
 161 00b8 4FF4C050 		mov	r0, #6144
 162 00bc C4F20200 		movt	r0, 16386
 163 00c0 1946     		mov	r1, r3
 164 00c2 FFF7FEFF 		bl	initgpio
 165              		.loc 1 138 0
 166 00c6 019B     		ldr	r3, [sp, #4]
 167 00c8 03F1C403 		add	r3, r3, #196
 168 00cc 4FF4E050 		mov	r0, #7168
 169 00d0 C4F20200 		movt	r0, 16386
 170 00d4 1946     		mov	r1, r3
 171 00d6 FFF7FEFF 		bl	initgpio
ARM GAS  /tmp/cckommA9.s 			page 4


 172              		.loc 1 141 0
 173 00da 019B     		ldr	r3, [sp, #4]
 174 00dc 03F1E003 		add	r3, r3, #224
 175 00e0 4FF40050 		mov	r0, #8192
 176 00e4 C4F20200 		movt	r0, 16386
 177 00e8 1946     		mov	r1, r3
 178 00ea FFF7FEFF 		bl	initgpio
 179              		.loc 1 143 0
 180 00ee 03B0     		add	sp, sp, #12
 181 00f0 00BD     		pop	{pc}
 182              		.cfi_endproc
 183              	.LFE119:
 184              		.size	_pal_lld_init, .-_pal_lld_init
 185 00f2 00BFAFF3 		.section	.text._pal_lld_setgroupmode,"ax",%progbits
 185      0080AFF3 
 185      0080AFF3 
 185      0080
 186              		.align	2
 187              		.p2align 4,,15
 188              		.global	_pal_lld_setgroupmode
 189              		.thumb
 190              		.thumb_func
 191              		.type	_pal_lld_setgroupmode, %function
 192              	_pal_lld_setgroupmode:
 193              	.LFB120:
 194              		.loc 1 161 0
 195              		.cfi_startproc
 196              		@ args = 0, pretend = 0, frame = 56
 197              		@ frame_needed = 0, uses_anonymous_args = 0
 198              		@ link register save eliminated.
 199 0000 8EB0     		sub	sp, sp, #56
 200              	.LCFI3:
 201              		.cfi_def_cfa_offset 56
 202 0002 0390     		str	r0, [sp, #12]
 203 0004 0291     		str	r1, [sp, #8]
 204 0006 0192     		str	r2, [sp, #4]
 205              		.loc 1 163 0
 206 0008 019B     		ldr	r3, [sp, #4]
 207 000a 03F00303 		and	r3, r3, #3
 208 000e 0D93     		str	r3, [sp, #52]
 209              		.loc 1 164 0
 210 0010 019B     		ldr	r3, [sp, #4]
 211 0012 03F00403 		and	r3, r3, #4
 212 0016 4FEA9303 		lsr	r3, r3, #2
 213 001a 0C93     		str	r3, [sp, #48]
 214              		.loc 1 165 0
 215 001c 019B     		ldr	r3, [sp, #4]
 216 001e 03F01803 		and	r3, r3, #24
 217 0022 4FEAD303 		lsr	r3, r3, #3
 218 0026 0B93     		str	r3, [sp, #44]
 219              		.loc 1 166 0
 220 0028 019B     		ldr	r3, [sp, #4]
 221 002a 03F06003 		and	r3, r3, #96
 222 002e 4FEA5313 		lsr	r3, r3, #5
 223 0032 0A93     		str	r3, [sp, #40]
 224              		.loc 1 167 0
 225 0034 019B     		ldr	r3, [sp, #4]
ARM GAS  /tmp/cckommA9.s 			page 5


 226 0036 03F4F063 		and	r3, r3, #1920
 227 003a 4FEAD313 		lsr	r3, r3, #7
 228 003e 0893     		str	r3, [sp, #32]
 229              		.loc 1 168 0
 230 0040 4FF00003 		mov	r3, #0
 231 0044 0993     		str	r3, [sp, #36]
 232              	.L9:
 233              		.loc 1 170 0
 234 0046 029B     		ldr	r3, [sp, #8]
 235 0048 03F00103 		and	r3, r3, #1
 236 004c 002B     		cmp	r3, #0
 237 004e 60D0     		beq	.L4
 238              	.LBB2:
 239              		.loc 1 173 0
 240 0050 099B     		ldr	r3, [sp, #36]
 241 0052 03F00703 		and	r3, r3, #7
 242 0056 4FEA8303 		lsl	r3, r3, #2
 243 005a 089A     		ldr	r2, [sp, #32]
 244 005c 02FA03F3 		lsl	r3, r2, r3
 245 0060 0793     		str	r3, [sp, #28]
 246              		.loc 1 174 0
 247 0062 099B     		ldr	r3, [sp, #36]
 248 0064 03F00703 		and	r3, r3, #7
 249 0068 4FEA8303 		lsl	r3, r3, #2
 250 006c 4FF00F02 		mov	r2, #15
 251 0070 02FA03F3 		lsl	r3, r2, r3
 252 0074 0693     		str	r3, [sp, #24]
 253              		.loc 1 175 0
 254 0076 099B     		ldr	r3, [sp, #36]
 255 0078 072B     		cmp	r3, #7
 256 007a 0AD8     		bhi	.L5
 257              		.loc 1 176 0
 258 007c 039B     		ldr	r3, [sp, #12]
 259 007e 1A6A     		ldr	r2, [r3, #32]
 260 0080 069B     		ldr	r3, [sp, #24]
 261 0082 6FEA0303 		mvn	r3, r3
 262 0086 1A40     		ands	r2, r2, r3
 263 0088 079B     		ldr	r3, [sp, #28]
 264 008a 1A43     		orrs	r2, r2, r3
 265 008c 039B     		ldr	r3, [sp, #12]
 266 008e 1A62     		str	r2, [r3, #32]
 267 0090 09E0     		b	.L6
 268              	.L5:
 269              		.loc 1 178 0
 270 0092 039B     		ldr	r3, [sp, #12]
 271 0094 5A6A     		ldr	r2, [r3, #36]
 272 0096 069B     		ldr	r3, [sp, #24]
 273 0098 6FEA0303 		mvn	r3, r3
 274 009c 1A40     		ands	r2, r2, r3
 275 009e 079B     		ldr	r3, [sp, #28]
 276 00a0 1A43     		orrs	r2, r2, r3
 277 00a2 039B     		ldr	r3, [sp, #12]
 278 00a4 5A62     		str	r2, [r3, #36]
 279              	.L6:
 280              		.loc 1 179 0
 281 00a6 099B     		ldr	r3, [sp, #36]
 282 00a8 4FF00102 		mov	r2, #1
ARM GAS  /tmp/cckommA9.s 			page 6


 283 00ac 02FA03F3 		lsl	r3, r2, r3
 284 00b0 0593     		str	r3, [sp, #20]
 285              		.loc 1 180 0
 286 00b2 039B     		ldr	r3, [sp, #12]
 287 00b4 5A68     		ldr	r2, [r3, #4]
 288 00b6 059B     		ldr	r3, [sp, #20]
 289 00b8 6FEA0303 		mvn	r3, r3
 290 00bc 1A40     		ands	r2, r2, r3
 291 00be 0C9B     		ldr	r3, [sp, #48]
 292 00c0 1A43     		orrs	r2, r2, r3
 293 00c2 039B     		ldr	r3, [sp, #12]
 294 00c4 5A60     		str	r2, [r3, #4]
 295              		.loc 1 181 0
 296 00c6 099B     		ldr	r3, [sp, #36]
 297 00c8 4FEA4303 		lsl	r3, r3, #1
 298 00cc 4FF00302 		mov	r2, #3
 299 00d0 02FA03F3 		lsl	r3, r2, r3
 300 00d4 0493     		str	r3, [sp, #16]
 301              		.loc 1 182 0
 302 00d6 039B     		ldr	r3, [sp, #12]
 303 00d8 9A68     		ldr	r2, [r3, #8]
 304 00da 049B     		ldr	r3, [sp, #16]
 305 00dc 6FEA0303 		mvn	r3, r3
 306 00e0 1A40     		ands	r2, r2, r3
 307 00e2 0B9B     		ldr	r3, [sp, #44]
 308 00e4 1A43     		orrs	r2, r2, r3
 309 00e6 039B     		ldr	r3, [sp, #12]
 310 00e8 9A60     		str	r2, [r3, #8]
 311              		.loc 1 183 0
 312 00ea 039B     		ldr	r3, [sp, #12]
 313 00ec DA68     		ldr	r2, [r3, #12]
 314 00ee 049B     		ldr	r3, [sp, #16]
 315 00f0 6FEA0303 		mvn	r3, r3
 316 00f4 1A40     		ands	r2, r2, r3
 317 00f6 0A9B     		ldr	r3, [sp, #40]
 318 00f8 1A43     		orrs	r2, r2, r3
 319 00fa 039B     		ldr	r3, [sp, #12]
 320 00fc DA60     		str	r2, [r3, #12]
 321              		.loc 1 184 0
 322 00fe 039B     		ldr	r3, [sp, #12]
 323 0100 1A68     		ldr	r2, [r3, #0]
 324 0102 049B     		ldr	r3, [sp, #16]
 325 0104 6FEA0303 		mvn	r3, r3
 326 0108 1A40     		ands	r2, r2, r3
 327 010a 0D9B     		ldr	r3, [sp, #52]
 328 010c 1A43     		orrs	r2, r2, r3
 329 010e 039B     		ldr	r3, [sp, #12]
 330 0110 1A60     		str	r2, [r3, #0]
 331              	.L4:
 332              	.LBE2:
 333              		.loc 1 186 0
 334 0112 029B     		ldr	r3, [sp, #8]
 335 0114 4FEA5303 		lsr	r3, r3, #1
 336 0118 0293     		str	r3, [sp, #8]
 337              		.loc 1 187 0
 338 011a 029B     		ldr	r3, [sp, #8]
 339 011c 002B     		cmp	r3, #0
ARM GAS  /tmp/cckommA9.s 			page 7


 340 011e 14D0     		beq	.L11
 341              	.L7:
 342              		.loc 1 189 0
 343 0120 0C9B     		ldr	r3, [sp, #48]
 344 0122 4FEA4303 		lsl	r3, r3, #1
 345 0126 0C93     		str	r3, [sp, #48]
 346              		.loc 1 190 0
 347 0128 0B9B     		ldr	r3, [sp, #44]
 348 012a 4FEA8303 		lsl	r3, r3, #2
 349 012e 0B93     		str	r3, [sp, #44]
 350              		.loc 1 191 0
 351 0130 0A9B     		ldr	r3, [sp, #40]
 352 0132 4FEA8303 		lsl	r3, r3, #2
 353 0136 0A93     		str	r3, [sp, #40]
 354              		.loc 1 192 0
 355 0138 0D9B     		ldr	r3, [sp, #52]
 356 013a 4FEA8303 		lsl	r3, r3, #2
 357 013e 0D93     		str	r3, [sp, #52]
 358              		.loc 1 193 0
 359 0140 099B     		ldr	r3, [sp, #36]
 360 0142 03F10103 		add	r3, r3, #1
 361 0146 0993     		str	r3, [sp, #36]
 362              		.loc 1 194 0
 363 0148 7DE7     		b	.L9
 364              	.L11:
 365              		.loc 1 188 0
 366 014a 00BF     		nop
 367              	.L10:
 368              		.loc 1 195 0
 369 014c 0EB0     		add	sp, sp, #56
 370 014e 7047     		bx	lr
 371              		.cfi_endproc
 372              	.LFE120:
 373              		.size	_pal_lld_setgroupmode, .-_pal_lld_setgroupmode
 374              		.text
 375              	.Letext0:
 376              		.file 2 "/usr/bin/../lib/gcc/arm-none-eabi/4.7.4/../../../../arm-none-eabi/include/stdint.h"
 377              		.file 3 "../../os/hal/platforms/STM32F4xx/stm32f4xx.h"
 378              		.file 4 "../../os/hal/platforms/STM32/GPIOv2/pal_lld.h"
 379              		.file 5 "../../os/ports/common/ARMCMx/CMSIS/include/core_cm4.h"