ARM GAS  /tmp/ccjGxILm.s 			page 1


   1              		.syntax unified
   2              		.cpu cortex-m4
   3              		.fpu softvfp
   4              		.eabi_attribute 20, 1
   5              		.eabi_attribute 21, 1
   6              		.eabi_attribute 23, 3
   7              		.eabi_attribute 24, 1
   8              		.eabi_attribute 25, 1
   9              		.eabi_attribute 26, 1
  10              		.eabi_attribute 30, 6
  11              		.eabi_attribute 34, 1
  12              		.eabi_attribute 18, 4
  13              		.thumb
  14              		.file	"pwm.c"
  15              		.text
  16              	.Ltext0:
  17              		.cfi_sections	.debug_frame
  18              		.section	.text.pwmInit,"ax",%progbits
  19              		.align	2
  20              		.p2align 4,,15
  21              		.global	pwmInit
  22              		.thumb
  23              		.thumb_func
  24              		.type	pwmInit, %function
  25              	pwmInit:
  26              	.LFB118:
  27              		.file 1 "../../os/hal/src/pwm.c"
  28              		.loc 1 61 0
  29              		.cfi_startproc
  30              		@ args = 0, pretend = 0, frame = 0
  31              		@ frame_needed = 0, uses_anonymous_args = 0
  32 0000 08B5     		push	{r3, lr}
  33              	.LCFI0:
  34              		.cfi_def_cfa_offset 8
  35              		.cfi_offset 3, -8
  36              		.cfi_offset 14, -4
  37              		.loc 1 63 0
  38 0002 FFF7FEFF 		bl	pwm_lld_init
  39              		.loc 1 64 0
  40 0006 08BD     		pop	{r3, pc}
  41              		.cfi_endproc
  42              	.LFE118:
  43              		.size	pwmInit, .-pwmInit
  44 0008 AFF30080 		.section	.text.pwmObjectInit,"ax",%progbits
  44      AFF30080 
  45              		.align	2
  46              		.p2align 4,,15
  47              		.global	pwmObjectInit
  48              		.thumb
  49              		.thumb_func
  50              		.type	pwmObjectInit, %function
  51              	pwmObjectInit:
  52              	.LFB119:
  53              		.loc 1 73 0
  54              		.cfi_startproc
  55              		@ args = 0, pretend = 0, frame = 8
  56              		@ frame_needed = 0, uses_anonymous_args = 0
ARM GAS  /tmp/ccjGxILm.s 			page 2


  57              		@ link register save eliminated.
  58 0000 82B0     		sub	sp, sp, #8
  59              	.LCFI1:
  60              		.cfi_def_cfa_offset 8
  61 0002 0190     		str	r0, [sp, #4]
  62              		.loc 1 75 0
  63 0004 019B     		ldr	r3, [sp, #4]
  64 0006 4FF00102 		mov	r2, #1
  65 000a 1A70     		strb	r2, [r3, #0]
  66              		.loc 1 76 0
  67 000c 019B     		ldr	r3, [sp, #4]
  68 000e 4FF00002 		mov	r2, #0
  69 0012 5A60     		str	r2, [r3, #4]
  70              		.loc 1 80 0
  71 0014 02B0     		add	sp, sp, #8
  72 0016 7047     		bx	lr
  73              		.cfi_endproc
  74              	.LFE119:
  75              		.size	pwmObjectInit, .-pwmObjectInit
  76 0018 AFF30080 		.section	.text.pwmStart,"ax",%progbits
  76      AFF30080 
  77              		.align	2
  78              		.p2align 4,,15
  79              		.global	pwmStart
  80              		.thumb
  81              		.thumb_func
  82              		.type	pwmStart, %function
  83              	pwmStart:
  84              	.LFB120:
  85              		.loc 1 92 0
  86              		.cfi_startproc
  87              		@ args = 0, pretend = 0, frame = 8
  88              		@ frame_needed = 0, uses_anonymous_args = 0
  89 0000 00B5     		push	{lr}
  90              	.LCFI2:
  91              		.cfi_def_cfa_offset 4
  92              		.cfi_offset 14, -4
  93 0002 83B0     		sub	sp, sp, #12
  94              	.LCFI3:
  95              		.cfi_def_cfa_offset 16
  96 0004 0190     		str	r0, [sp, #4]
  97 0006 0091     		str	r1, [sp, #0]
  98              		.loc 1 94 0
  99 0008 019B     		ldr	r3, [sp, #4]
 100 000a 002B     		cmp	r3, #0
 101 000c 01D0     		beq	.L5
 102              		.loc 1 94 0 is_stmt 0 discriminator 1
 103 000e 009B     		ldr	r3, [sp, #0]
 104 0010 002B     		cmp	r3, #0
 105              	.L5:
 106              	.LBB2:
 107              		.loc 1 96 0 is_stmt 1
 108 0012 4FF02003 		mov	r3, #32
 109              	@ 96 "../../os/hal/src/pwm.c" 1
 110 0016 83F31188 		msr     BASEPRI, r3
 111              	@ 0 "" 2
 112              		.thumb
ARM GAS  /tmp/ccjGxILm.s 			page 3


 113              	.LBE2:
 114              		.loc 1 97 0
 115 001a 019B     		ldr	r3, [sp, #4]
 116 001c 1B78     		ldrb	r3, [r3, #0]	@ zero_extendqisi2
 117 001e 012B     		cmp	r3, #1
 118 0020 02D0     		beq	.L8
 119              		.loc 1 97 0 is_stmt 0 discriminator 2
 120 0022 019B     		ldr	r3, [sp, #4]
 121 0024 1B78     		ldrb	r3, [r3, #0]	@ zero_extendqisi2
 122 0026 022B     		cmp	r3, #2
 123              	.L8:
 124              		.loc 1 99 0 is_stmt 1
 125 0028 019B     		ldr	r3, [sp, #4]
 126 002a 009A     		ldr	r2, [sp, #0]
 127 002c 5A60     		str	r2, [r3, #4]
 128              		.loc 1 100 0
 129 002e 009B     		ldr	r3, [sp, #0]
 130 0030 9A88     		ldrh	r2, [r3, #4]
 131 0032 019B     		ldr	r3, [sp, #4]
 132 0034 1A81     		strh	r2, [r3, #8]	@ movhi
 133              		.loc 1 101 0
 134 0036 0198     		ldr	r0, [sp, #4]
 135 0038 FFF7FEFF 		bl	pwm_lld_start
 136              		.loc 1 102 0
 137 003c 019B     		ldr	r3, [sp, #4]
 138 003e 4FF00202 		mov	r2, #2
 139 0042 1A70     		strb	r2, [r3, #0]
 140              	.LBB3:
 141              		.loc 1 103 0
 142 0044 4FF00003 		mov	r3, #0
 143              	@ 103 "../../os/hal/src/pwm.c" 1
 144 0048 83F31188 		msr     BASEPRI, r3
 145              	@ 0 "" 2
 146              		.thumb
 147              	.LBE3:
 148              		.loc 1 104 0
 149 004c 03B0     		add	sp, sp, #12
 150 004e 00BD     		pop	{pc}
 151              		.cfi_endproc
 152              	.LFE120:
 153              		.size	pwmStart, .-pwmStart
 154              		.section	.text.pwmStop,"ax",%progbits
 155              		.align	2
 156              		.p2align 4,,15
 157              		.global	pwmStop
 158              		.thumb
 159              		.thumb_func
 160              		.type	pwmStop, %function
 161              	pwmStop:
 162              	.LFB121:
 163              		.loc 1 113 0
 164              		.cfi_startproc
 165              		@ args = 0, pretend = 0, frame = 8
 166              		@ frame_needed = 0, uses_anonymous_args = 0
 167 0000 00B5     		push	{lr}
 168              	.LCFI4:
 169              		.cfi_def_cfa_offset 4
ARM GAS  /tmp/ccjGxILm.s 			page 4


 170              		.cfi_offset 14, -4
 171 0002 83B0     		sub	sp, sp, #12
 172              	.LCFI5:
 173              		.cfi_def_cfa_offset 16
 174 0004 0190     		str	r0, [sp, #4]
 175              	.LBB4:
 176              		.loc 1 117 0
 177 0006 4FF02003 		mov	r3, #32
 178              	@ 117 "../../os/hal/src/pwm.c" 1
 179 000a 83F31188 		msr     BASEPRI, r3
 180              	@ 0 "" 2
 181              		.thumb
 182              	.LBE4:
 183              		.loc 1 118 0
 184 000e 019B     		ldr	r3, [sp, #4]
 185 0010 1B78     		ldrb	r3, [r3, #0]	@ zero_extendqisi2
 186 0012 012B     		cmp	r3, #1
 187 0014 02D0     		beq	.L12
 188              		.loc 1 118 0 is_stmt 0 discriminator 2
 189 0016 019B     		ldr	r3, [sp, #4]
 190 0018 1B78     		ldrb	r3, [r3, #0]	@ zero_extendqisi2
 191 001a 022B     		cmp	r3, #2
 192              	.L12:
 193              		.loc 1 120 0 is_stmt 1
 194 001c 0198     		ldr	r0, [sp, #4]
 195 001e FFF7FEFF 		bl	pwm_lld_stop
 196              		.loc 1 121 0
 197 0022 019B     		ldr	r3, [sp, #4]
 198 0024 4FF00102 		mov	r2, #1
 199 0028 1A70     		strb	r2, [r3, #0]
 200              	.LBB5:
 201              		.loc 1 122 0
 202 002a 4FF00003 		mov	r3, #0
 203              	@ 122 "../../os/hal/src/pwm.c" 1
 204 002e 83F31188 		msr     BASEPRI, r3
 205              	@ 0 "" 2
 206              		.thumb
 207              	.LBE5:
 208              		.loc 1 123 0
 209 0032 03B0     		add	sp, sp, #12
 210 0034 00BD     		pop	{pc}
 211              		.cfi_endproc
 212              	.LFE121:
 213              		.size	pwmStop, .-pwmStop
 214 0036 00BFAFF3 		.section	.text.pwmChangePeriod,"ax",%progbits
 214      0080AFF3 
 214      0080
 215              		.align	2
 216              		.p2align 4,,15
 217              		.global	pwmChangePeriod
 218              		.thumb
 219              		.thumb_func
 220              		.type	pwmChangePeriod, %function
 221              	pwmChangePeriod:
 222              	.LFB122:
 223              		.loc 1 140 0
 224              		.cfi_startproc
ARM GAS  /tmp/ccjGxILm.s 			page 5


 225              		@ args = 0, pretend = 0, frame = 8
 226              		@ frame_needed = 0, uses_anonymous_args = 0
 227              		@ link register save eliminated.
 228 0000 82B0     		sub	sp, sp, #8
 229              	.LCFI6:
 230              		.cfi_def_cfa_offset 8
 231 0002 0190     		str	r0, [sp, #4]
 232 0004 0B46     		mov	r3, r1
 233 0006 ADF80230 		strh	r3, [sp, #2]	@ movhi
 234              	.LBB6:
 235              		.loc 1 144 0
 236 000a 4FF02003 		mov	r3, #32
 237              	@ 144 "../../os/hal/src/pwm.c" 1
 238 000e 83F31188 		msr     BASEPRI, r3
 239              	@ 0 "" 2
 240              		.thumb
 241              	.LBE6:
 242              		.loc 1 147 0
 243 0012 019B     		ldr	r3, [sp, #4]
 244 0014 BDF80220 		ldrh	r2, [sp, #2]	@ movhi
 245 0018 1A81     		strh	r2, [r3, #8]	@ movhi
 246 001a 019B     		ldr	r3, [sp, #4]
 247 001c 1B69     		ldr	r3, [r3, #16]
 248 001e BDF80220 		ldrh	r2, [sp, #2]	@ movhi
 249 0022 02F1FF32 		add	r2, r2, #-1
 250 0026 92B2     		uxth	r2, r2
 251 0028 DA62     		str	r2, [r3, #44]
 252              	.LBB7:
 253              		.loc 1 148 0
 254 002a 4FF00003 		mov	r3, #0
 255              	@ 148 "../../os/hal/src/pwm.c" 1
 256 002e 83F31188 		msr     BASEPRI, r3
 257              	@ 0 "" 2
 258              		.thumb
 259              	.LBE7:
 260              		.loc 1 149 0
 261 0032 02B0     		add	sp, sp, #8
 262 0034 7047     		bx	lr
 263              		.cfi_endproc
 264              	.LFE122:
 265              		.size	pwmChangePeriod, .-pwmChangePeriod
 266 0036 00BFAFF3 		.section	.text.pwmEnableChannel,"ax",%progbits
 266      0080AFF3 
 266      0080
 267              		.align	2
 268              		.p2align 4,,15
 269              		.global	pwmEnableChannel
 270              		.thumb
 271              		.thumb_func
 272              		.type	pwmEnableChannel, %function
 273              	pwmEnableChannel:
 274              	.LFB123:
 275              		.loc 1 167 0
 276              		.cfi_startproc
 277              		@ args = 0, pretend = 0, frame = 8
 278              		@ frame_needed = 0, uses_anonymous_args = 0
 279 0000 00B5     		push	{lr}
ARM GAS  /tmp/ccjGxILm.s 			page 6


 280              	.LCFI7:
 281              		.cfi_def_cfa_offset 4
 282              		.cfi_offset 14, -4
 283 0002 83B0     		sub	sp, sp, #12
 284              	.LCFI8:
 285              		.cfi_def_cfa_offset 16
 286 0004 0190     		str	r0, [sp, #4]
 287 0006 1346     		mov	r3, r2
 288 0008 0A46     		mov	r2, r1
 289 000a 8DF80320 		strb	r2, [sp, #3]
 290 000e ADF80030 		strh	r3, [sp, #0]	@ movhi
 291              		.loc 1 169 0
 292 0012 019B     		ldr	r3, [sp, #4]
 293 0014 002B     		cmp	r3, #0
 294 0016 02D0     		beq	.L16
 295              		.loc 1 169 0 is_stmt 0 discriminator 1
 296 0018 9DF80330 		ldrb	r3, [sp, #3]	@ zero_extendqisi2
 297 001c 032B     		cmp	r3, #3
 298              	.L16:
 299              	.LBB8:
 300              		.loc 1 172 0 is_stmt 1
 301 001e 4FF02003 		mov	r3, #32
 302              	@ 172 "../../os/hal/src/pwm.c" 1
 303 0022 83F31188 		msr     BASEPRI, r3
 304              	@ 0 "" 2
 305              		.thumb
 306              	.LBE8:
 307              		.loc 1 175 0
 308 0026 9DF80320 		ldrb	r2, [sp, #3]	@ zero_extendqisi2
 309 002a BDF80030 		ldrh	r3, [sp, #0]
 310 002e 0198     		ldr	r0, [sp, #4]
 311 0030 1146     		mov	r1, r2
 312 0032 1A46     		mov	r2, r3
 313 0034 FFF7FEFF 		bl	pwm_lld_enable_channel
 314              	.LBB9:
 315              		.loc 1 176 0
 316 0038 4FF00003 		mov	r3, #0
 317              	@ 176 "../../os/hal/src/pwm.c" 1
 318 003c 83F31188 		msr     BASEPRI, r3
 319              	@ 0 "" 2
 320              		.thumb
 321              	.LBE9:
 322              		.loc 1 177 0
 323 0040 03B0     		add	sp, sp, #12
 324 0042 00BD     		pop	{pc}
 325              		.cfi_endproc
 326              	.LFE123:
 327              		.size	pwmEnableChannel, .-pwmEnableChannel
 328 0044 AFF30080 		.section	.text.pwmDisableChannel,"ax",%progbits
 328      AFF30080 
 328      AFF30080 
 329              		.align	2
 330              		.p2align 4,,15
 331              		.global	pwmDisableChannel
 332              		.thumb
 333              		.thumb_func
 334              		.type	pwmDisableChannel, %function
ARM GAS  /tmp/ccjGxILm.s 			page 7


 335              	pwmDisableChannel:
 336              	.LFB124:
 337              		.loc 1 193 0
 338              		.cfi_startproc
 339              		@ args = 0, pretend = 0, frame = 8
 340              		@ frame_needed = 0, uses_anonymous_args = 0
 341 0000 00B5     		push	{lr}
 342              	.LCFI9:
 343              		.cfi_def_cfa_offset 4
 344              		.cfi_offset 14, -4
 345 0002 83B0     		sub	sp, sp, #12
 346              	.LCFI10:
 347              		.cfi_def_cfa_offset 16
 348 0004 0190     		str	r0, [sp, #4]
 349 0006 0B46     		mov	r3, r1
 350 0008 8DF80330 		strb	r3, [sp, #3]
 351              		.loc 1 195 0
 352 000c 019B     		ldr	r3, [sp, #4]
 353 000e 002B     		cmp	r3, #0
 354 0010 02D0     		beq	.L19
 355              		.loc 1 195 0 is_stmt 0 discriminator 1
 356 0012 9DF80330 		ldrb	r3, [sp, #3]	@ zero_extendqisi2
 357 0016 032B     		cmp	r3, #3
 358              	.L19:
 359              	.LBB10:
 360              		.loc 1 198 0 is_stmt 1
 361 0018 4FF02003 		mov	r3, #32
 362              	@ 198 "../../os/hal/src/pwm.c" 1
 363 001c 83F31188 		msr     BASEPRI, r3
 364              	@ 0 "" 2
 365              		.thumb
 366              	.LBE10:
 367              		.loc 1 201 0
 368 0020 9DF80330 		ldrb	r3, [sp, #3]	@ zero_extendqisi2
 369 0024 0198     		ldr	r0, [sp, #4]
 370 0026 1946     		mov	r1, r3
 371 0028 FFF7FEFF 		bl	pwm_lld_disable_channel
 372              	.LBB11:
 373              		.loc 1 202 0
 374 002c 4FF00003 		mov	r3, #0
 375              	@ 202 "../../os/hal/src/pwm.c" 1
 376 0030 83F31188 		msr     BASEPRI, r3
 377              	@ 0 "" 2
 378              		.thumb
 379              	.LBE11:
 380              		.loc 1 203 0
 381 0034 03B0     		add	sp, sp, #12
 382 0036 00BD     		pop	{pc}
 383              		.cfi_endproc
 384              	.LFE124:
 385              		.size	pwmDisableChannel, .-pwmDisableChannel
 386 0038 AFF30080 		.text
 386      AFF30080 
 387              	.Letext0:
 388              		.file 2 "/usr/bin/../lib/gcc/arm-none-eabi/4.7.4/../../../../arm-none-eabi/include/stdint.h"
 389              		.file 3 "../../os/hal/platforms/STM32/stm32.h"
 390              		.file 4 "../../os/hal/include/pwm.h"
ARM GAS  /tmp/ccjGxILm.s 			page 8


 391              		.file 5 "../../os/hal/platforms/STM32/pwm_lld.h"
 392              		.file 6 "../../os/ports/common/ARMCMx/CMSIS/include/core_cm4.h"