ARM GAS  /tmp/ccTLdLGj.s 			page 1


   1              		.syntax unified
   2              		.cpu cortex-m4
   3              		.fpu softvfp
   4              		.eabi_attribute 20, 1
   5              		.eabi_attribute 21, 1
   6              		.eabi_attribute 23, 3
   7              		.eabi_attribute 24, 1
   8              		.eabi_attribute 25, 1
   9              		.eabi_attribute 26, 1
  10              		.eabi_attribute 30, 6
  11              		.eabi_attribute 34, 1
  12              		.eabi_attribute 18, 4
  13              		.thumb
  14              		.file	"pwm_lld.c"
  15              		.text
  16              	.Ltext0:
  17              		.cfi_sections	.debug_frame
  18              		.global	PWMD4
  19              		.section	.bss.PWMD4,"aw",%nobits
  20              		.align	2
  21              		.type	PWMD4, %object
  22              		.size	PWMD4, 20
  23              	PWMD4:
  24 0000 00000000 		.space	20
  24      00000000 
  24      00000000 
  24      00000000 
  24      00000000 
  25              		.section	.text.pwm_lld_serve_interrupt,"ax",%progbits
  26              		.align	2
  27              		.p2align 4,,15
  28              		.thumb
  29              		.thumb_func
  30              		.type	pwm_lld_serve_interrupt, %function
  31              	pwm_lld_serve_interrupt:
  32              	.LFB118:
  33              		.file 1 "../../os/hal/platforms/STM32/pwm_lld.c"
  34              		.loc 1 112 0
  35              		.cfi_startproc
  36              		@ args = 0, pretend = 0, frame = 16
  37              		@ frame_needed = 0, uses_anonymous_args = 0
  38 0000 00B5     		push	{lr}
  39              	.LCFI0:
  40              		.cfi_def_cfa_offset 4
  41              		.cfi_offset 14, -4
  42 0002 85B0     		sub	sp, sp, #20
  43              	.LCFI1:
  44              		.cfi_def_cfa_offset 24
  45 0004 0190     		str	r0, [sp, #4]
  46              		.loc 1 115 0
  47 0006 019B     		ldr	r3, [sp, #4]
  48 0008 1B69     		ldr	r3, [r3, #16]
  49 000a 1B8A     		ldrh	r3, [r3, #16]	@ movhi
  50 000c ADF80E30 		strh	r3, [sp, #14]	@ movhi
  51              		.loc 1 116 0
  52 0010 019B     		ldr	r3, [sp, #4]
  53 0012 1B69     		ldr	r3, [r3, #16]
ARM GAS  /tmp/ccTLdLGj.s 			page 2


  54 0014 9B89     		ldrh	r3, [r3, #12]	@ movhi
  55 0016 9AB2     		uxth	r2, r3
  56 0018 BDF80E30 		ldrh	r3, [sp, #14]	@ movhi
  57 001c 1340     		ands	r3, r3, r2
  58 001e ADF80E30 		strh	r3, [sp, #14]	@ movhi
  59              		.loc 1 117 0
  60 0022 019B     		ldr	r3, [sp, #4]
  61 0024 1B69     		ldr	r3, [r3, #16]
  62 0026 BDF80E20 		ldrh	r2, [sp, #14]	@ movhi
  63 002a 6FEA0202 		mvn	r2, r2
  64 002e 92B2     		uxth	r2, r2
  65 0030 1A82     		strh	r2, [r3, #16]	@ movhi
  66              		.loc 1 118 0
  67 0032 BDF80E30 		ldrh	r3, [sp, #14]
  68 0036 03F00203 		and	r3, r3, #2
  69 003a 002B     		cmp	r3, #0
  70 003c 04D0     		beq	.L2
  71              		.loc 1 119 0
  72 003e 019B     		ldr	r3, [sp, #4]
  73 0040 5B68     		ldr	r3, [r3, #4]
  74 0042 1B69     		ldr	r3, [r3, #16]
  75 0044 0198     		ldr	r0, [sp, #4]
  76 0046 9847     		blx	r3
  77              	.L2:
  78              		.loc 1 120 0
  79 0048 BDF80E30 		ldrh	r3, [sp, #14]
  80 004c 03F00403 		and	r3, r3, #4
  81 0050 002B     		cmp	r3, #0
  82 0052 04D0     		beq	.L3
  83              		.loc 1 121 0
  84 0054 019B     		ldr	r3, [sp, #4]
  85 0056 5B68     		ldr	r3, [r3, #4]
  86 0058 9B69     		ldr	r3, [r3, #24]
  87 005a 0198     		ldr	r0, [sp, #4]
  88 005c 9847     		blx	r3
  89              	.L3:
  90              		.loc 1 122 0
  91 005e BDF80E30 		ldrh	r3, [sp, #14]
  92 0062 03F00803 		and	r3, r3, #8
  93 0066 002B     		cmp	r3, #0
  94 0068 04D0     		beq	.L4
  95              		.loc 1 123 0
  96 006a 019B     		ldr	r3, [sp, #4]
  97 006c 5B68     		ldr	r3, [r3, #4]
  98 006e 1B6A     		ldr	r3, [r3, #32]
  99 0070 0198     		ldr	r0, [sp, #4]
 100 0072 9847     		blx	r3
 101              	.L4:
 102              		.loc 1 124 0
 103 0074 BDF80E30 		ldrh	r3, [sp, #14]
 104 0078 03F01003 		and	r3, r3, #16
 105 007c 002B     		cmp	r3, #0
 106 007e 04D0     		beq	.L5
 107              		.loc 1 125 0
 108 0080 019B     		ldr	r3, [sp, #4]
 109 0082 5B68     		ldr	r3, [r3, #4]
 110 0084 9B6A     		ldr	r3, [r3, #40]
ARM GAS  /tmp/ccTLdLGj.s 			page 3


 111 0086 0198     		ldr	r0, [sp, #4]
 112 0088 9847     		blx	r3
 113              	.L5:
 114              		.loc 1 126 0
 115 008a BDF80E30 		ldrh	r3, [sp, #14]
 116 008e 03F00103 		and	r3, r3, #1
 117 0092 002B     		cmp	r3, #0
 118 0094 04D0     		beq	.L1
 119              		.loc 1 127 0
 120 0096 019B     		ldr	r3, [sp, #4]
 121 0098 5B68     		ldr	r3, [r3, #4]
 122 009a 9B68     		ldr	r3, [r3, #8]
 123 009c 0198     		ldr	r0, [sp, #4]
 124 009e 9847     		blx	r3
 125              	.L1:
 126              		.loc 1 128 0
 127 00a0 05B0     		add	sp, sp, #20
 128 00a2 00BD     		pop	{pc}
 129              		.cfi_endproc
 130              	.LFE118:
 131              		.size	pwm_lld_serve_interrupt, .-pwm_lld_serve_interrupt
 132              		.section	.text.VectorB8,"ax",%progbits
 133              		.align	2
 134              		.p2align 4,,15
 135              		.global	VectorB8
 136              		.thumb
 137              		.thumb_func
 138              		.type	VectorB8, %function
 139              	VectorB8:
 140              	.LFB119:
 141              		.loc 1 236 0
 142              		.cfi_startproc
 143              		@ args = 0, pretend = 0, frame = 0
 144              		@ frame_needed = 0, uses_anonymous_args = 0
 145 0000 08B5     		push	{r3, lr}
 146              	.LCFI2:
 147              		.cfi_def_cfa_offset 8
 148              		.cfi_offset 3, -8
 149              		.cfi_offset 14, -4
 150              		.loc 1 240 0
 151 0002 40F20000 		movw	r0, #:lower16:PWMD4
 152 0006 C0F20000 		movt	r0, #:upper16:PWMD4
 153 000a FFF7FEFF 		bl	pwm_lld_serve_interrupt
 154              		.loc 1 242 0
 155 000e FFF7FEFF 		bl	_port_irq_epilogue
 156              		.loc 1 243 0
 157 0012 08BD     		pop	{r3, pc}
 158              		.cfi_endproc
 159              	.LFE119:
 160              		.size	VectorB8, .-VectorB8
 161 0014 AFF30080 		.section	.text.pwm_lld_init,"ax",%progbits
 161      AFF30080 
 161      AFF30080 
 162              		.align	2
 163              		.p2align 4,,15
 164              		.global	pwm_lld_init
 165              		.thumb
ARM GAS  /tmp/ccTLdLGj.s 			page 4


 166              		.thumb_func
 167              		.type	pwm_lld_init, %function
 168              	pwm_lld_init:
 169              	.LFB120:
 170              		.loc 1 347 0
 171              		.cfi_startproc
 172              		@ args = 0, pretend = 0, frame = 0
 173              		@ frame_needed = 0, uses_anonymous_args = 0
 174 0000 08B5     		push	{r3, lr}
 175              	.LCFI3:
 176              		.cfi_def_cfa_offset 8
 177              		.cfi_offset 3, -8
 178              		.cfi_offset 14, -4
 179              		.loc 1 369 0
 180 0002 40F20000 		movw	r0, #:lower16:PWMD4
 181 0006 C0F20000 		movt	r0, #:upper16:PWMD4
 182 000a FFF7FEFF 		bl	pwmObjectInit
 183              		.loc 1 370 0
 184 000e 40F20003 		movw	r3, #:lower16:PWMD4
 185 0012 C0F20003 		movt	r3, #:upper16:PWMD4
 186 0016 4FF40062 		mov	r2, #2048
 187 001a C4F20002 		movt	r2, 16384
 188 001e 1A61     		str	r2, [r3, #16]
 189              		.loc 1 390 0
 190 0020 08BD     		pop	{r3, pc}
 191              		.cfi_endproc
 192              	.LFE120:
 193              		.size	pwm_lld_init, .-pwm_lld_init
 194 0022 00BFAFF3 		.section	.text.pwm_lld_start,"ax",%progbits
 194      0080AFF3 
 194      0080AFF3 
 194      0080
 195              		.align	2
 196              		.p2align 4,,15
 197              		.global	pwm_lld_start
 198              		.thumb
 199              		.thumb_func
 200              		.type	pwm_lld_start, %function
 201              	pwm_lld_start:
 202              	.LFB121:
 203              		.loc 1 401 0
 204              		.cfi_startproc
 205              		@ args = 0, pretend = 0, frame = 16
 206              		@ frame_needed = 0, uses_anonymous_args = 0
 207 0000 00B5     		push	{lr}
 208              	.LCFI4:
 209              		.cfi_def_cfa_offset 4
 210              		.cfi_offset 14, -4
 211 0002 85B0     		sub	sp, sp, #20
 212              	.LCFI5:
 213              		.cfi_def_cfa_offset 24
 214 0004 0190     		str	r0, [sp, #4]
 215              		.loc 1 405 0
 216 0006 019B     		ldr	r3, [sp, #4]
 217 0008 1B78     		ldrb	r3, [r3, #0]	@ zero_extendqisi2
 218 000a 012B     		cmp	r3, #1
 219 000c 3CD1     		bne	.L10
ARM GAS  /tmp/ccTLdLGj.s 			page 5


 220              		.loc 1 437 0
 221 000e 019A     		ldr	r2, [sp, #4]
 222 0010 40F20003 		movw	r3, #:lower16:PWMD4
 223 0014 C0F20003 		movt	r3, #:upper16:PWMD4
 224 0018 9A42     		cmp	r2, r3
 225 001a 2AD1     		bne	.L11
 226              		.loc 1 438 0
 227 001c 4FF46053 		mov	r3, #14336
 228 0020 C4F20203 		movt	r3, 16386
 229 0024 4FF46052 		mov	r2, #14336
 230 0028 C4F20202 		movt	r2, 16386
 231 002c 126C     		ldr	r2, [r2, #64]
 232 002e 42F00402 		orr	r2, r2, #4
 233 0032 1A64     		str	r2, [r3, #64]
 234              		.loc 1 439 0
 235 0034 4FF46053 		mov	r3, #14336
 236 0038 C4F20203 		movt	r3, 16386
 237 003c 4FF46052 		mov	r2, #14336
 238 0040 C4F20202 		movt	r2, 16386
 239 0044 126A     		ldr	r2, [r2, #32]
 240 0046 42F00402 		orr	r2, r2, #4
 241 004a 1A62     		str	r2, [r3, #32]
 242 004c 4FF46053 		mov	r3, #14336
 243 0050 C4F20203 		movt	r3, 16386
 244 0054 4FF00002 		mov	r2, #0
 245 0058 1A62     		str	r2, [r3, #32]
 246              		.loc 1 440 0
 247 005a 4FF01E00 		mov	r0, #30
 248 005e 4FF07001 		mov	r1, #112
 249 0062 FFF7FEFF 		bl	nvicEnableVector
 250              		.loc 1 442 0
 251 0066 019A     		ldr	r2, [sp, #4]
 252 0068 4FF43D43 		mov	r3, #48384
 253 006c C0F20153 		movt	r3, 1281
 254 0070 D360     		str	r3, [r2, #12]
 255              	.L11:
 256              		.loc 1 478 0
 257 0072 019B     		ldr	r3, [sp, #4]
 258 0074 1B69     		ldr	r3, [r3, #16]
 259 0076 46F66802 		movw	r2, #26728
 260 007a 1A83     		strh	r2, [r3, #24]	@ movhi
 261              		.loc 1 482 0
 262 007c 019B     		ldr	r3, [sp, #4]
 263 007e 1B69     		ldr	r3, [r3, #16]
 264 0080 46F66802 		movw	r2, #26728
 265 0084 9A83     		strh	r2, [r3, #28]	@ movhi
 266 0086 27E0     		b	.L12
 267              	.L10:
 268              		.loc 1 489 0
 269 0088 019B     		ldr	r3, [sp, #4]
 270 008a 1B69     		ldr	r3, [r3, #16]
 271 008c 4FF00002 		mov	r2, #0
 272 0090 1A80     		strh	r2, [r3, #0]	@ movhi
 273              		.loc 1 490 0
 274 0092 019B     		ldr	r3, [sp, #4]
 275 0094 1B69     		ldr	r3, [r3, #16]
 276 0096 4FF00002 		mov	r2, #0
ARM GAS  /tmp/ccTLdLGj.s 			page 6


 277 009a 9A81     		strh	r2, [r3, #12]	@ movhi
 278              		.loc 1 491 0
 279 009c 019B     		ldr	r3, [sp, #4]
 280 009e 1B69     		ldr	r3, [r3, #16]
 281 00a0 4FF00002 		mov	r2, #0
 282 00a4 1A82     		strh	r2, [r3, #16]	@ movhi
 283              		.loc 1 492 0
 284 00a6 019B     		ldr	r3, [sp, #4]
 285 00a8 1B69     		ldr	r3, [r3, #16]
 286 00aa 4FF00002 		mov	r2, #0
 287 00ae 5A63     		str	r2, [r3, #52]
 288              		.loc 1 493 0
 289 00b0 019B     		ldr	r3, [sp, #4]
 290 00b2 1B69     		ldr	r3, [r3, #16]
 291 00b4 4FF00002 		mov	r2, #0
 292 00b8 9A63     		str	r2, [r3, #56]
 293              		.loc 1 494 0
 294 00ba 019B     		ldr	r3, [sp, #4]
 295 00bc 1B69     		ldr	r3, [r3, #16]
 296 00be 4FF00002 		mov	r2, #0
 297 00c2 DA63     		str	r2, [r3, #60]
 298              		.loc 1 495 0
 299 00c4 019B     		ldr	r3, [sp, #4]
 300 00c6 1B69     		ldr	r3, [r3, #16]
 301 00c8 4FF00002 		mov	r2, #0
 302 00cc 1A64     		str	r2, [r3, #64]
 303              		.loc 1 496 0
 304 00ce 019B     		ldr	r3, [sp, #4]
 305 00d0 1B69     		ldr	r3, [r3, #16]
 306 00d2 4FF00002 		mov	r2, #0
 307 00d6 5A62     		str	r2, [r3, #36]
 308              	.L12:
 309              		.loc 1 500 0
 310 00d8 019B     		ldr	r3, [sp, #4]
 311 00da DA68     		ldr	r2, [r3, #12]
 312 00dc 019B     		ldr	r3, [sp, #4]
 313 00de 5B68     		ldr	r3, [r3, #4]
 314 00e0 1B68     		ldr	r3, [r3, #0]
 315 00e2 B2FBF3F3 		udiv	r3, r2, r3
 316 00e6 03F1FF33 		add	r3, r3, #-1
 317 00ea 0293     		str	r3, [sp, #8]
 318              		.loc 1 501 0
 319 00ec 029A     		ldr	r2, [sp, #8]
 320 00ee 4FF6FF73 		movw	r3, #65535
 321 00f2 9A42     		cmp	r2, r3
 322 00f4 0AD8     		bhi	.L14
 323              		.loc 1 501 0 is_stmt 0 discriminator 1
 324 00f6 029B     		ldr	r3, [sp, #8]
 325 00f8 03F10103 		add	r3, r3, #1
 326 00fc 019A     		ldr	r2, [sp, #4]
 327 00fe 5268     		ldr	r2, [r2, #4]
 328 0100 1268     		ldr	r2, [r2, #0]
 329 0102 02FB03F2 		mul	r2, r2, r3
 330 0106 019B     		ldr	r3, [sp, #4]
 331 0108 DB68     		ldr	r3, [r3, #12]
 332 010a 9A42     		cmp	r2, r3
 333              	.L14:
ARM GAS  /tmp/ccTLdLGj.s 			page 7


 334              		.loc 1 504 0 is_stmt 1
 335 010c 019B     		ldr	r3, [sp, #4]
 336 010e 1B69     		ldr	r3, [r3, #16]
 337 0110 029A     		ldr	r2, [sp, #8]
 338 0112 92B2     		uxth	r2, r2
 339 0114 1A85     		strh	r2, [r3, #40]	@ movhi
 340              		.loc 1 505 0
 341 0116 019B     		ldr	r3, [sp, #4]
 342 0118 1B69     		ldr	r3, [r3, #16]
 343 011a 019A     		ldr	r2, [sp, #4]
 344 011c 1289     		ldrh	r2, [r2, #8]
 345 011e 02F1FF32 		add	r2, r2, #-1
 346 0122 92B2     		uxth	r2, r2
 347 0124 DA62     		str	r2, [r3, #44]
 348              		.loc 1 506 0
 349 0126 019B     		ldr	r3, [sp, #4]
 350 0128 1B69     		ldr	r3, [r3, #16]
 351 012a 019A     		ldr	r2, [sp, #4]
 352 012c 5268     		ldr	r2, [r2, #4]
 353 012e 928D     		ldrh	r2, [r2, #44]
 354 0130 9A80     		strh	r2, [r3, #4]	@ movhi
 355              		.loc 1 509 0
 356 0132 4FF00003 		mov	r3, #0
 357 0136 ADF80E30 		strh	r3, [sp, #14]	@ movhi
 358              		.loc 1 510 0
 359 013a 019B     		ldr	r3, [sp, #4]
 360 013c 5B68     		ldr	r3, [r3, #4]
 361 013e DB68     		ldr	r3, [r3, #12]
 362 0140 03F00F03 		and	r3, r3, #15
 363 0144 012B     		cmp	r3, #1
 364 0146 07D0     		beq	.L16
 365 0148 022B     		cmp	r3, #2
 366 014a 0BD1     		bne	.L15
 367              	.L17:
 368              		.loc 1 512 0
 369 014c BDF80E30 		ldrh	r3, [sp, #14]	@ movhi
 370 0150 43F00203 		orr	r3, r3, #2
 371 0154 ADF80E30 		strh	r3, [sp, #14]	@ movhi
 372              	.L16:
 373              		.loc 1 514 0
 374 0158 BDF80E30 		ldrh	r3, [sp, #14]	@ movhi
 375 015c 43F00103 		orr	r3, r3, #1
 376 0160 ADF80E30 		strh	r3, [sp, #14]	@ movhi
 377              	.L15:
 378              		.loc 1 518 0
 379 0164 019B     		ldr	r3, [sp, #4]
 380 0166 5B68     		ldr	r3, [r3, #4]
 381 0168 5B69     		ldr	r3, [r3, #20]
 382 016a 03F00F03 		and	r3, r3, #15
 383 016e 012B     		cmp	r3, #1
 384 0170 07D0     		beq	.L19
 385 0172 022B     		cmp	r3, #2
 386 0174 0BD1     		bne	.L18
 387              	.L20:
 388              		.loc 1 520 0
 389 0176 BDF80E30 		ldrh	r3, [sp, #14]	@ movhi
 390 017a 43F02003 		orr	r3, r3, #32
ARM GAS  /tmp/ccTLdLGj.s 			page 8


 391 017e ADF80E30 		strh	r3, [sp, #14]	@ movhi
 392              	.L19:
 393              		.loc 1 522 0
 394 0182 BDF80E30 		ldrh	r3, [sp, #14]	@ movhi
 395 0186 43F01003 		orr	r3, r3, #16
 396 018a ADF80E30 		strh	r3, [sp, #14]	@ movhi
 397              	.L18:
 398              		.loc 1 526 0
 399 018e 019B     		ldr	r3, [sp, #4]
 400 0190 5B68     		ldr	r3, [r3, #4]
 401 0192 DB69     		ldr	r3, [r3, #28]
 402 0194 03F00F03 		and	r3, r3, #15
 403 0198 012B     		cmp	r3, #1
 404 019a 07D0     		beq	.L22
 405 019c 022B     		cmp	r3, #2
 406 019e 0BD1     		bne	.L21
 407              	.L23:
 408              		.loc 1 528 0
 409 01a0 BDF80E30 		ldrh	r3, [sp, #14]	@ movhi
 410 01a4 43F40073 		orr	r3, r3, #512
 411 01a8 ADF80E30 		strh	r3, [sp, #14]	@ movhi
 412              	.L22:
 413              		.loc 1 530 0
 414 01ac BDF80E30 		ldrh	r3, [sp, #14]	@ movhi
 415 01b0 43F48073 		orr	r3, r3, #256
 416 01b4 ADF80E30 		strh	r3, [sp, #14]	@ movhi
 417              	.L21:
 418              		.loc 1 534 0
 419 01b8 019B     		ldr	r3, [sp, #4]
 420 01ba 5B68     		ldr	r3, [r3, #4]
 421 01bc 5B6A     		ldr	r3, [r3, #36]
 422 01be 03F00F03 		and	r3, r3, #15
 423 01c2 012B     		cmp	r3, #1
 424 01c4 07D0     		beq	.L25
 425 01c6 022B     		cmp	r3, #2
 426 01c8 0BD1     		bne	.L24
 427              	.L26:
 428              		.loc 1 536 0
 429 01ca BDF80E30 		ldrh	r3, [sp, #14]	@ movhi
 430 01ce 43F40053 		orr	r3, r3, #8192
 431 01d2 ADF80E30 		strh	r3, [sp, #14]	@ movhi
 432              	.L25:
 433              		.loc 1 538 0
 434 01d6 BDF80E30 		ldrh	r3, [sp, #14]	@ movhi
 435 01da 43F48053 		orr	r3, r3, #4096
 436 01de ADF80E30 		strh	r3, [sp, #14]	@ movhi
 437              	.L24:
 438              		.loc 1 579 0
 439 01e2 019B     		ldr	r3, [sp, #4]
 440 01e4 1B69     		ldr	r3, [r3, #16]
 441 01e6 BDF80E20 		ldrh	r2, [sp, #14]	@ movhi
 442 01ea 1A84     		strh	r2, [r3, #32]	@ movhi
 443              		.loc 1 580 0
 444 01ec 019B     		ldr	r3, [sp, #4]
 445 01ee 1B69     		ldr	r3, [r3, #16]
 446 01f0 4FF00102 		mov	r2, #1
 447 01f4 9A82     		strh	r2, [r3, #20]	@ movhi
ARM GAS  /tmp/ccTLdLGj.s 			page 9


 448              		.loc 1 581 0
 449 01f6 019B     		ldr	r3, [sp, #4]
 450 01f8 1B69     		ldr	r3, [r3, #16]
 451 01fa 019A     		ldr	r2, [sp, #4]
 452 01fc 5268     		ldr	r2, [r2, #4]
 453 01fe 9268     		ldr	r2, [r2, #8]
 454 0200 002A     		cmp	r2, #0
 455 0202 0CBF     		ite	eq
 456 0204 0022     		moveq	r2, #0
 457 0206 0122     		movne	r2, #1
 458 0208 D2B2     		uxtb	r2, r2
 459 020a 9A81     		strh	r2, [r3, #12]	@ movhi
 460              		.loc 1 582 0
 461 020c 019B     		ldr	r3, [sp, #4]
 462 020e 1B69     		ldr	r3, [r3, #16]
 463 0210 4FF00002 		mov	r2, #0
 464 0214 1A82     		strh	r2, [r3, #16]	@ movhi
 465              		.loc 1 591 0
 466 0216 019B     		ldr	r3, [sp, #4]
 467 0218 1B69     		ldr	r3, [r3, #16]
 468 021a 4FF08502 		mov	r2, #133
 469 021e 1A80     		strh	r2, [r3, #0]	@ movhi
 470              		.loc 1 592 0
 471 0220 05B0     		add	sp, sp, #20
 472 0222 00BD     		pop	{pc}
 473              		.cfi_endproc
 474              	.LFE121:
 475              		.size	pwm_lld_start, .-pwm_lld_start
 476 0224 AFF30080 		.section	.text.pwm_lld_stop,"ax",%progbits
 476      AFF30080 
 476      AFF30080 
 477              		.align	2
 478              		.p2align 4,,15
 479              		.global	pwm_lld_stop
 480              		.thumb
 481              		.thumb_func
 482              		.type	pwm_lld_stop, %function
 483              	pwm_lld_stop:
 484              	.LFB122:
 485              		.loc 1 601 0
 486              		.cfi_startproc
 487              		@ args = 0, pretend = 0, frame = 8
 488              		@ frame_needed = 0, uses_anonymous_args = 0
 489 0000 00B5     		push	{lr}
 490              	.LCFI6:
 491              		.cfi_def_cfa_offset 4
 492              		.cfi_offset 14, -4
 493 0002 83B0     		sub	sp, sp, #12
 494              	.LCFI7:
 495              		.cfi_def_cfa_offset 16
 496 0004 0190     		str	r0, [sp, #4]
 497              		.loc 1 604 0
 498 0006 019B     		ldr	r3, [sp, #4]
 499 0008 1B78     		ldrb	r3, [r3, #0]	@ zero_extendqisi2
 500 000a 022B     		cmp	r3, #2
 501 000c 25D1     		bne	.L27
 502              		.loc 1 605 0
ARM GAS  /tmp/ccTLdLGj.s 			page 10


 503 000e 019B     		ldr	r3, [sp, #4]
 504 0010 1B69     		ldr	r3, [r3, #16]
 505 0012 4FF00002 		mov	r2, #0
 506 0016 1A80     		strh	r2, [r3, #0]	@ movhi
 507              		.loc 1 606 0
 508 0018 019B     		ldr	r3, [sp, #4]
 509 001a 1B69     		ldr	r3, [r3, #16]
 510 001c 4FF00002 		mov	r2, #0
 511 0020 9A81     		strh	r2, [r3, #12]	@ movhi
 512              		.loc 1 607 0
 513 0022 019B     		ldr	r3, [sp, #4]
 514 0024 1B69     		ldr	r3, [r3, #16]
 515 0026 4FF00002 		mov	r2, #0
 516 002a 1A82     		strh	r2, [r3, #16]	@ movhi
 517              		.loc 1 632 0
 518 002c 019A     		ldr	r2, [sp, #4]
 519 002e 40F20003 		movw	r3, #:lower16:PWMD4
 520 0032 C0F20003 		movt	r3, #:upper16:PWMD4
 521 0036 9A42     		cmp	r2, r3
 522 0038 0FD1     		bne	.L27
 523              		.loc 1 633 0
 524 003a 4FF01E00 		mov	r0, #30
 525 003e FFF7FEFF 		bl	nvicDisableVector
 526              		.loc 1 634 0
 527 0042 4FF46053 		mov	r3, #14336
 528 0046 C4F20203 		movt	r3, 16386
 529 004a 4FF46052 		mov	r2, #14336
 530 004e C4F20202 		movt	r2, 16386
 531 0052 126C     		ldr	r2, [r2, #64]
 532 0054 22F00402 		bic	r2, r2, #4
 533 0058 1A64     		str	r2, [r3, #64]
 534              	.L27:
 535              		.loc 1 657 0
 536 005a 03B0     		add	sp, sp, #12
 537 005c 00BD     		pop	{pc}
 538              		.cfi_endproc
 539              	.LFE122:
 540              		.size	pwm_lld_stop, .-pwm_lld_stop
 541 005e 00BF     		.section	.text.pwm_lld_enable_channel,"ax",%progbits
 542              		.align	2
 543              		.p2align 4,,15
 544              		.global	pwm_lld_enable_channel
 545              		.thumb
 546              		.thumb_func
 547              		.type	pwm_lld_enable_channel, %function
 548              	pwm_lld_enable_channel:
 549              	.LFB123:
 550              		.loc 1 673 0
 551              		.cfi_startproc
 552              		@ args = 0, pretend = 0, frame = 16
 553              		@ frame_needed = 0, uses_anonymous_args = 0
 554              		@ link register save eliminated.
 555 0000 84B0     		sub	sp, sp, #16
 556              	.LCFI8:
 557              		.cfi_def_cfa_offset 16
 558 0002 0190     		str	r0, [sp, #4]
 559 0004 1346     		mov	r3, r2
ARM GAS  /tmp/ccTLdLGj.s 			page 11


 560 0006 0A46     		mov	r2, r1
 561 0008 8DF80320 		strb	r2, [sp, #3]
 562 000c ADF80030 		strh	r3, [sp, #0]	@ movhi
 563              		.loc 1 675 0
 564 0010 019B     		ldr	r3, [sp, #4]
 565 0012 1969     		ldr	r1, [r3, #16]
 566 0014 9DF80330 		ldrb	r3, [sp, #3]	@ zero_extendqisi2
 567 0018 BDF80020 		ldrh	r2, [sp, #0]
 568 001c 03F10C03 		add	r3, r3, #12
 569 0020 4FEA8303 		lsl	r3, r3, #2
 570 0024 CB18     		adds	r3, r1, r3
 571 0026 5A60     		str	r2, [r3, #4]
 572              		.loc 1 678 0
 573 0028 019B     		ldr	r3, [sp, #4]
 574 002a 5A68     		ldr	r2, [r3, #4]
 575 002c 9DF80330 		ldrb	r3, [sp, #3]	@ zero_extendqisi2
 576 0030 03F10103 		add	r3, r3, #1
 577 0034 4FEAC303 		lsl	r3, r3, #3
 578 0038 D318     		adds	r3, r2, r3
 579 003a 9B68     		ldr	r3, [r3, #8]
 580 003c 002B     		cmp	r3, #0
 581 003e 2AD0     		beq	.L29
 582              	.LBB2:
 583              		.loc 1 679 0
 584 0040 019B     		ldr	r3, [sp, #4]
 585 0042 1B69     		ldr	r3, [r3, #16]
 586 0044 9B89     		ldrh	r3, [r3, #12]	@ movhi
 587 0046 9BB2     		uxth	r3, r3
 588 0048 0393     		str	r3, [sp, #12]
 589              		.loc 1 682 0
 590 004a 9DF80330 		ldrb	r3, [sp, #3]	@ zero_extendqisi2
 591 004e 4FF00202 		mov	r2, #2
 592 0052 02FA03F3 		lsl	r3, r2, r3
 593 0056 1A46     		mov	r2, r3
 594 0058 039B     		ldr	r3, [sp, #12]
 595 005a 1340     		ands	r3, r3, r2
 596 005c 002B     		cmp	r3, #0
 597 005e 1AD1     		bne	.L29
 598              		.loc 1 683 0
 599 0060 019B     		ldr	r3, [sp, #4]
 600 0062 1B69     		ldr	r3, [r3, #16]
 601 0064 9DF80320 		ldrb	r2, [sp, #3]	@ zero_extendqisi2
 602 0068 4FF00201 		mov	r1, #2
 603 006c 01FA02F2 		lsl	r2, r1, r2
 604 0070 91B2     		uxth	r1, r2
 605 0072 039A     		ldr	r2, [sp, #12]
 606 0074 92B2     		uxth	r2, r2
 607 0076 0A43     		orrs	r2, r2, r1
 608 0078 92B2     		uxth	r2, r2
 609 007a 9A81     		strh	r2, [r3, #12]	@ movhi
 610              		.loc 1 684 0
 611 007c 019B     		ldr	r3, [sp, #4]
 612 007e 1B69     		ldr	r3, [r3, #16]
 613 0080 9DF80320 		ldrb	r2, [sp, #3]	@ zero_extendqisi2
 614 0084 4FF00201 		mov	r1, #2
 615 0088 01FA02F2 		lsl	r2, r1, r2
 616 008c 92B2     		uxth	r2, r2
ARM GAS  /tmp/ccTLdLGj.s 			page 12


 617 008e 6FEA0202 		mvn	r2, r2
 618 0092 92B2     		uxth	r2, r2
 619 0094 1A82     		strh	r2, [r3, #16]	@ movhi
 620              	.L29:
 621              	.LBE2:
 622              		.loc 1 687 0
 623 0096 04B0     		add	sp, sp, #16
 624 0098 7047     		bx	lr
 625              		.cfi_endproc
 626              	.LFE123:
 627              		.size	pwm_lld_enable_channel, .-pwm_lld_enable_channel
 628 009a 00BFAFF3 		.section	.text.pwm_lld_disable_channel,"ax",%progbits
 628      0080
 629              		.align	2
 630              		.p2align 4,,15
 631              		.global	pwm_lld_disable_channel
 632              		.thumb
 633              		.thumb_func
 634              		.type	pwm_lld_disable_channel, %function
 635              	pwm_lld_disable_channel:
 636              	.LFB124:
 637              		.loc 1 701 0
 638              		.cfi_startproc
 639              		@ args = 0, pretend = 0, frame = 8
 640              		@ frame_needed = 0, uses_anonymous_args = 0
 641              		@ link register save eliminated.
 642 0000 82B0     		sub	sp, sp, #8
 643              	.LCFI9:
 644              		.cfi_def_cfa_offset 8
 645 0002 0190     		str	r0, [sp, #4]
 646 0004 0B46     		mov	r3, r1
 647 0006 8DF80330 		strb	r3, [sp, #3]
 648              		.loc 1 703 0
 649 000a 019B     		ldr	r3, [sp, #4]
 650 000c 1A69     		ldr	r2, [r3, #16]
 651 000e 9DF80330 		ldrb	r3, [sp, #3]	@ zero_extendqisi2
 652 0012 03F10C03 		add	r3, r3, #12
 653 0016 4FEA8303 		lsl	r3, r3, #2
 654 001a D318     		adds	r3, r2, r3
 655 001c 4FF00002 		mov	r2, #0
 656 0020 5A60     		str	r2, [r3, #4]
 657              		.loc 1 704 0
 658 0022 019B     		ldr	r3, [sp, #4]
 659 0024 1B69     		ldr	r3, [r3, #16]
 660 0026 019A     		ldr	r2, [sp, #4]
 661 0028 1269     		ldr	r2, [r2, #16]
 662 002a 9289     		ldrh	r2, [r2, #12]	@ movhi
 663 002c 92B2     		uxth	r2, r2
 664 002e 91B2     		uxth	r1, r2
 665 0030 9DF80320 		ldrb	r2, [sp, #3]	@ zero_extendqisi2
 666 0034 4FF00200 		mov	r0, #2
 667 0038 00FA02F2 		lsl	r2, r0, r2
 668 003c 92B2     		uxth	r2, r2
 669 003e 6FEA0202 		mvn	r2, r2
 670 0042 92B2     		uxth	r2, r2
 671 0044 0A40     		ands	r2, r2, r1
 672 0046 92B2     		uxth	r2, r2
ARM GAS  /tmp/ccTLdLGj.s 			page 13


 673 0048 92B2     		uxth	r2, r2
 674 004a 9A81     		strh	r2, [r3, #12]	@ movhi
 675              		.loc 1 705 0
 676 004c 02B0     		add	sp, sp, #8
 677 004e 7047     		bx	lr
 678              		.cfi_endproc
 679              	.LFE124:
 680              		.size	pwm_lld_disable_channel, .-pwm_lld_disable_channel
 681              		.text
 682              	.Letext0:
 683              		.file 2 "/usr/bin/../lib/gcc/arm-none-eabi/4.7.4/../../../../arm-none-eabi/include/stdint.h"
 684              		.file 3 "../../os/hal/platforms/STM32F4xx/stm32f4xx.h"
 685              		.file 4 "../../os/hal/platforms/STM32/stm32.h"
 686              		.file 5 "../../os/hal/include/pwm.h"
 687              		.file 6 "../../os/hal/platforms/STM32/pwm_lld.h"
 688              		.file 7 "../../os/ports/common/ARMCMx/CMSIS/include/core_cm4.h"