ARM GAS  /tmp/ccft4r9u.s 			page 1


   1              		.syntax unified
   2              		.cpu cortex-m4
   3              		.fpu softvfp
   4              		.eabi_attribute 20, 1
   5              		.eabi_attribute 21, 1
   6              		.eabi_attribute 23, 3
   7              		.eabi_attribute 24, 1
   8              		.eabi_attribute 25, 1
   9              		.eabi_attribute 26, 1
  10              		.eabi_attribute 30, 6
  11              		.eabi_attribute 34, 1
  12              		.eabi_attribute 18, 4
  13              		.thumb
  14              		.file	"serial_lld.c"
  15              		.text
  16              	.Ltext0:
  17              		.cfi_sections	.debug_frame
  18              		.global	SD2
  19              		.section	.bss.SD2,"aw",%nobits
  20              		.align	2
  21              		.type	SD2, %object
  22              		.size	SD2, 120
  23              	SD2:
  24 0000 00000000 		.space	120
  24      00000000 
  24      00000000 
  24      00000000 
  24      00000000 
  25              		.section	.rodata.default_config,"a",%progbits
  26              		.align	2
  27              		.type	default_config, %object
  28              		.size	default_config, 12
  29              	default_config:
  30 0000 00960000 		.word	38400
  31 0004 0000     		.short	0
  32 0006 0040     		.short	16384
  33 0008 0000     		.short	0
  34 000a 0000     		.space	2
  35              		.section	.text.usart_init,"ax",%progbits
  36              		.align	2
  37              		.p2align 4,,15
  38              		.thumb
  39              		.thumb_func
  40              		.type	usart_init, %function
  41              	usart_init:
  42              	.LFB118:
  43              		.file 1 "../../os/hal/platforms/STM32/USARTv1/serial_lld.c"
  44              		.loc 1 92 0
  45              		.cfi_startproc
  46              		@ args = 0, pretend = 0, frame = 16
  47              		@ frame_needed = 0, uses_anonymous_args = 0
  48              		@ link register save eliminated.
  49 0000 84B0     		sub	sp, sp, #16
  50              	.LCFI0:
  51              		.cfi_def_cfa_offset 16
  52 0002 0190     		str	r0, [sp, #4]
  53 0004 0091     		str	r1, [sp, #0]
ARM GAS  /tmp/ccft4r9u.s 			page 2


  54              		.loc 1 93 0
  55 0006 019B     		ldr	r3, [sp, #4]
  56 0008 5B6F     		ldr	r3, [r3, #116]
  57 000a 0393     		str	r3, [sp, #12]
  58              		.loc 1 97 0
  59 000c 019B     		ldr	r3, [sp, #4]
  60 000e 5A6F     		ldr	r2, [r3, #116]
  61 0010 4FF48053 		mov	r3, #4096
  62 0014 C4F20103 		movt	r3, 16385
  63 0018 9A42     		cmp	r2, r3
  64 001a 07D0     		beq	.L2
  65              		.loc 1 97 0 is_stmt 0 discriminator 1
  66 001c 019B     		ldr	r3, [sp, #4]
  67 001e 5A6F     		ldr	r2, [r3, #116]
  68 0020 4FF4A053 		mov	r3, #5120
  69 0024 C4F20103 		movt	r3, 16385
  70 0028 9A42     		cmp	r2, r3
  71 002a 0BD1     		bne	.L3
  72              	.L2:
  73              		.loc 1 101 0 is_stmt 1
  74 002c 009B     		ldr	r3, [sp, #0]
  75 002e 1A68     		ldr	r2, [r3, #0]
  76 0030 4FF43D43 		mov	r3, #48384
  77 0034 C0F20153 		movt	r3, 1281
  78 0038 B3FBF2F3 		udiv	r3, r3, r2
  79 003c 9AB2     		uxth	r2, r3
  80 003e 039B     		ldr	r3, [sp, #12]
  81 0040 1A81     		strh	r2, [r3, #8]	@ movhi
  82 0042 0AE0     		b	.L4
  83              	.L3:
  84              		.loc 1 103 0
  85 0044 009B     		ldr	r3, [sp, #0]
  86 0046 1A68     		ldr	r2, [r3, #0]
  87 0048 4DF68063 		movw	r3, #56960
  88 004c C0F28023 		movt	r3, 640
  89 0050 B3FBF2F3 		udiv	r3, r3, r2
  90 0054 9AB2     		uxth	r2, r3
  91 0056 039B     		ldr	r3, [sp, #12]
  92 0058 1A81     		strh	r2, [r3, #8]	@ movhi
  93              	.L4:
  94              		.loc 1 106 0
  95 005a 009B     		ldr	r3, [sp, #0]
  96 005c DB88     		ldrh	r3, [r3, #6]
  97 005e 43F04003 		orr	r3, r3, #64
  98 0062 9AB2     		uxth	r2, r3
  99 0064 039B     		ldr	r3, [sp, #12]
 100 0066 1A82     		strh	r2, [r3, #16]	@ movhi
 101              		.loc 1 107 0
 102 0068 009B     		ldr	r3, [sp, #0]
 103 006a 1B89     		ldrh	r3, [r3, #8]
 104 006c 43F00103 		orr	r3, r3, #1
 105 0070 9AB2     		uxth	r2, r3
 106 0072 039B     		ldr	r3, [sp, #12]
 107 0074 9A82     		strh	r2, [r3, #20]	@ movhi
 108              		.loc 1 108 0
 109 0076 009B     		ldr	r3, [sp, #0]
 110 0078 9B88     		ldrh	r3, [r3, #4]
ARM GAS  /tmp/ccft4r9u.s 			page 3


 111 007a 43F40453 		orr	r3, r3, #8448
 112 007e 43F02C03 		orr	r3, r3, #44
 113 0082 9AB2     		uxth	r2, r3
 114 0084 039B     		ldr	r3, [sp, #12]
 115 0086 9A81     		strh	r2, [r3, #12]	@ movhi
 116              		.loc 1 111 0
 117 0088 039B     		ldr	r3, [sp, #12]
 118 008a 4FF00002 		mov	r2, #0
 119 008e 1A80     		strh	r2, [r3, #0]	@ movhi
 120              		.loc 1 112 0
 121 0090 039B     		ldr	r3, [sp, #12]
 122 0092 1B88     		ldrh	r3, [r3, #0]	@ movhi
 123              		.loc 1 113 0
 124 0094 039B     		ldr	r3, [sp, #12]
 125 0096 9B88     		ldrh	r3, [r3, #4]	@ movhi
 126              		.loc 1 114 0
 127 0098 04B0     		add	sp, sp, #16
 128 009a 7047     		bx	lr
 129              		.cfi_endproc
 130              	.LFE118:
 131              		.size	usart_init, .-usart_init
 132 009c AFF30080 		.section	.text.usart_deinit,"ax",%progbits
 133              		.align	2
 134              		.p2align 4,,15
 135              		.thumb
 136              		.thumb_func
 137              		.type	usart_deinit, %function
 138              	usart_deinit:
 139              	.LFB119:
 140              		.loc 1 122 0
 141              		.cfi_startproc
 142              		@ args = 0, pretend = 0, frame = 8
 143              		@ frame_needed = 0, uses_anonymous_args = 0
 144              		@ link register save eliminated.
 145 0000 82B0     		sub	sp, sp, #8
 146              	.LCFI1:
 147              		.cfi_def_cfa_offset 8
 148 0002 0190     		str	r0, [sp, #4]
 149              		.loc 1 124 0
 150 0004 019B     		ldr	r3, [sp, #4]
 151 0006 4FF00002 		mov	r2, #0
 152 000a 9A81     		strh	r2, [r3, #12]	@ movhi
 153              		.loc 1 125 0
 154 000c 019B     		ldr	r3, [sp, #4]
 155 000e 4FF00002 		mov	r2, #0
 156 0012 1A82     		strh	r2, [r3, #16]	@ movhi
 157              		.loc 1 126 0
 158 0014 019B     		ldr	r3, [sp, #4]
 159 0016 4FF00002 		mov	r2, #0
 160 001a 9A82     		strh	r2, [r3, #20]	@ movhi
 161              		.loc 1 127 0
 162 001c 02B0     		add	sp, sp, #8
 163 001e 7047     		bx	lr
 164              		.cfi_endproc
 165              	.LFE119:
 166              		.size	usart_deinit, .-usart_deinit
 167              		.section	.text.set_error,"ax",%progbits
ARM GAS  /tmp/ccft4r9u.s 			page 4


 168              		.align	2
 169              		.p2align 4,,15
 170              		.thumb
 171              		.thumb_func
 172              		.type	set_error, %function
 173              	set_error:
 174              	.LFB120:
 175              		.loc 1 135 0
 176              		.cfi_startproc
 177              		@ args = 0, pretend = 0, frame = 16
 178              		@ frame_needed = 0, uses_anonymous_args = 0
 179 0000 00B5     		push	{lr}
 180              	.LCFI2:
 181              		.cfi_def_cfa_offset 4
 182              		.cfi_offset 14, -4
 183 0002 85B0     		sub	sp, sp, #20
 184              	.LCFI3:
 185              		.cfi_def_cfa_offset 24
 186 0004 0190     		str	r0, [sp, #4]
 187 0006 0B46     		mov	r3, r1
 188 0008 ADF80230 		strh	r3, [sp, #2]	@ movhi
 189              		.loc 1 136 0
 190 000c 4FF00003 		mov	r3, #0
 191 0010 0393     		str	r3, [sp, #12]
 192              		.loc 1 138 0
 193 0012 BDF80230 		ldrh	r3, [sp, #2]
 194 0016 03F00803 		and	r3, r3, #8
 195 001a 002B     		cmp	r3, #0
 196 001c 03D0     		beq	.L7
 197              		.loc 1 139 0
 198 001e 039B     		ldr	r3, [sp, #12]
 199 0020 43F08003 		orr	r3, r3, #128
 200 0024 0393     		str	r3, [sp, #12]
 201              	.L7:
 202              		.loc 1 140 0
 203 0026 BDF80230 		ldrh	r3, [sp, #2]
 204 002a 03F00103 		and	r3, r3, #1
 205 002e 002B     		cmp	r3, #0
 206 0030 03D0     		beq	.L8
 207              		.loc 1 141 0
 208 0032 039B     		ldr	r3, [sp, #12]
 209 0034 43F02003 		orr	r3, r3, #32
 210 0038 0393     		str	r3, [sp, #12]
 211              	.L8:
 212              		.loc 1 142 0
 213 003a BDF80230 		ldrh	r3, [sp, #2]
 214 003e 03F00203 		and	r3, r3, #2
 215 0042 002B     		cmp	r3, #0
 216 0044 03D0     		beq	.L9
 217              		.loc 1 143 0
 218 0046 039B     		ldr	r3, [sp, #12]
 219 0048 43F04003 		orr	r3, r3, #64
 220 004c 0393     		str	r3, [sp, #12]
 221              	.L9:
 222              		.loc 1 144 0
 223 004e BDF80230 		ldrh	r3, [sp, #2]
 224 0052 03F00403 		and	r3, r3, #4
ARM GAS  /tmp/ccft4r9u.s 			page 5


 225 0056 002B     		cmp	r3, #0
 226 0058 03D0     		beq	.L10
 227              		.loc 1 145 0
 228 005a 039B     		ldr	r3, [sp, #12]
 229 005c 43F48073 		orr	r3, r3, #256
 230 0060 0393     		str	r3, [sp, #12]
 231              	.L10:
 232              	.LBB2:
 233              		.loc 1 146 0
 234 0062 4FF02003 		mov	r3, #32
 235              	@ 146 "../../os/hal/platforms/STM32/USARTv1/serial_lld.c" 1
 236 0066 83F31188 		msr     BASEPRI, r3
 237              	@ 0 "" 2
 238              		.thumb
 239              	.LBE2:
 240              		.loc 1 147 0
 241 006a 019B     		ldr	r3, [sp, #4]
 242 006c 03F10403 		add	r3, r3, #4
 243 0070 1846     		mov	r0, r3
 244 0072 0399     		ldr	r1, [sp, #12]
 245 0074 FFF7FEFF 		bl	chEvtBroadcastFlagsI
 246              	.LBB3:
 247              		.loc 1 148 0
 248 0078 4FF00003 		mov	r3, #0
 249              	@ 148 "../../os/hal/platforms/STM32/USARTv1/serial_lld.c" 1
 250 007c 83F31188 		msr     BASEPRI, r3
 251              	@ 0 "" 2
 252              		.thumb
 253              	.LBE3:
 254              		.loc 1 149 0
 255 0080 05B0     		add	sp, sp, #20
 256 0082 00BD     		pop	{pc}
 257              		.cfi_endproc
 258              	.LFE120:
 259              		.size	set_error, .-set_error
 260 0084 AFF30080 		.section	.text.serve_interrupt,"ax",%progbits
 260      AFF30080 
 260      AFF30080 
 261              		.align	2
 262              		.p2align 4,,15
 263              		.thumb
 264              		.thumb_func
 265              		.type	serve_interrupt, %function
 266              	serve_interrupt:
 267              	.LFB121:
 268              		.loc 1 156 0
 269              		.cfi_startproc
 270              		@ args = 0, pretend = 0, frame = 24
 271              		@ frame_needed = 0, uses_anonymous_args = 0
 272 0000 00B5     		push	{lr}
 273              	.LCFI4:
 274              		.cfi_def_cfa_offset 4
 275              		.cfi_offset 14, -4
 276 0002 87B0     		sub	sp, sp, #28
 277              	.LCFI5:
 278              		.cfi_def_cfa_offset 32
 279 0004 0190     		str	r0, [sp, #4]
ARM GAS  /tmp/ccft4r9u.s 			page 6


 280              		.loc 1 157 0
 281 0006 019B     		ldr	r3, [sp, #4]
 282 0008 5B6F     		ldr	r3, [r3, #116]
 283 000a 0593     		str	r3, [sp, #20]
 284              		.loc 1 158 0
 285 000c 059B     		ldr	r3, [sp, #20]
 286 000e 9B89     		ldrh	r3, [r3, #12]	@ movhi
 287 0010 ADF81230 		strh	r3, [sp, #18]	@ movhi
 288              		.loc 1 159 0
 289 0014 059B     		ldr	r3, [sp, #20]
 290 0016 1B88     		ldrh	r3, [r3, #0]	@ movhi
 291 0018 ADF81030 		strh	r3, [sp, #16]	@ movhi
 292              		.loc 1 160 0
 293 001c 059B     		ldr	r3, [sp, #20]
 294 001e 9B88     		ldrh	r3, [r3, #4]	@ movhi
 295 0020 ADF80E30 		strh	r3, [sp, #14]	@ movhi
 296              		.loc 1 163 0
 297 0024 BDF81030 		ldrh	r3, [sp, #16]
 298 0028 03F00F03 		and	r3, r3, #15
 299 002c 002B     		cmp	r3, #0
 300 002e 05D0     		beq	.L12
 301              		.loc 1 164 0
 302 0030 BDF81030 		ldrh	r3, [sp, #16]
 303 0034 0198     		ldr	r0, [sp, #4]
 304 0036 1946     		mov	r1, r3
 305 0038 FFF7FEFF 		bl	set_error
 306              	.L12:
 307              		.loc 1 166 0
 308 003c BDF81030 		ldrh	r3, [sp, #16]
 309 0040 03F48073 		and	r3, r3, #256
 310 0044 002B     		cmp	r3, #0
 311 0046 17D0     		beq	.L13
 312              	.LBB4:
 313              		.loc 1 167 0
 314 0048 4FF02003 		mov	r3, #32
 315              	@ 167 "../../os/hal/platforms/STM32/USARTv1/serial_lld.c" 1
 316 004c 83F31188 		msr     BASEPRI, r3
 317              	@ 0 "" 2
 318              		.thumb
 319              	.LBE4:
 320              		.loc 1 168 0
 321 0050 019B     		ldr	r3, [sp, #4]
 322 0052 03F10403 		add	r3, r3, #4
 323 0056 1846     		mov	r0, r3
 324 0058 4FF40071 		mov	r1, #512
 325 005c FFF7FEFF 		bl	chEvtBroadcastFlagsI
 326              	.LBB5:
 327              		.loc 1 169 0
 328 0060 4FF00003 		mov	r3, #0
 329              	@ 169 "../../os/hal/platforms/STM32/USARTv1/serial_lld.c" 1
 330 0064 83F31188 		msr     BASEPRI, r3
 331              	@ 0 "" 2
 332              		.thumb
 333              	.LBE5:
 334              		.loc 1 170 0
 335 0068 059B     		ldr	r3, [sp, #20]
 336 006a 1B88     		ldrh	r3, [r3, #0]	@ movhi
ARM GAS  /tmp/ccft4r9u.s 			page 7


 337 006c 9BB2     		uxth	r3, r3
 338 006e 23F48073 		bic	r3, r3, #256
 339 0072 9AB2     		uxth	r2, r3
 340 0074 059B     		ldr	r3, [sp, #20]
 341 0076 1A80     		strh	r2, [r3, #0]	@ movhi
 342              	.L13:
 343              		.loc 1 173 0
 344 0078 BDF81030 		ldrh	r3, [sp, #16]
 345 007c 03F02003 		and	r3, r3, #32
 346 0080 002B     		cmp	r3, #0
 347 0082 0ED0     		beq	.L14
 348              	.LBB6:
 349              		.loc 1 174 0
 350 0084 4FF02003 		mov	r3, #32
 351              	@ 174 "../../os/hal/platforms/STM32/USARTv1/serial_lld.c" 1
 352 0088 83F31188 		msr     BASEPRI, r3
 353              	@ 0 "" 2
 354              		.thumb
 355              	.LBE6:
 356              		.loc 1 175 0
 357 008c BDF80E30 		ldrh	r3, [sp, #14]	@ movhi
 358 0090 DBB2     		uxtb	r3, r3
 359 0092 0198     		ldr	r0, [sp, #4]
 360 0094 1946     		mov	r1, r3
 361 0096 FFF7FEFF 		bl	sdIncomingDataI
 362              	.LBB7:
 363              		.loc 1 176 0
 364 009a 4FF00003 		mov	r3, #0
 365              	@ 176 "../../os/hal/platforms/STM32/USARTv1/serial_lld.c" 1
 366 009e 83F31188 		msr     BASEPRI, r3
 367              	@ 0 "" 2
 368              		.thumb
 369              	.L14:
 370              	.LBE7:
 371              		.loc 1 179 0
 372 00a2 BDF81230 		ldrh	r3, [sp, #18]
 373 00a6 03F08003 		and	r3, r3, #128
 374 00aa 002B     		cmp	r3, #0
 375 00ac 2FD0     		beq	.L15
 376              		.loc 1 179 0 is_stmt 0 discriminator 1
 377 00ae BDF81030 		ldrh	r3, [sp, #16]
 378 00b2 03F08003 		and	r3, r3, #128
 379 00b6 002B     		cmp	r3, #0
 380 00b8 29D0     		beq	.L15
 381              	.LBB8:
 382              	.LBB9:
 383              		.loc 1 181 0 is_stmt 1
 384 00ba 4FF02003 		mov	r3, #32
 385              	@ 181 "../../os/hal/platforms/STM32/USARTv1/serial_lld.c" 1
 386 00be 83F31188 		msr     BASEPRI, r3
 387              	@ 0 "" 2
 388              		.thumb
 389              	.LBE9:
 390              		.loc 1 182 0
 391 00c2 019B     		ldr	r3, [sp, #4]
 392 00c4 03F13003 		add	r3, r3, #48
 393 00c8 1846     		mov	r0, r3
ARM GAS  /tmp/ccft4r9u.s 			page 8


 394 00ca FFF7FEFF 		bl	chOQGetI
 395 00ce 0290     		str	r0, [sp, #8]
 396              		.loc 1 183 0
 397 00d0 029B     		ldr	r3, [sp, #8]
 398 00d2 002B     		cmp	r3, #0
 399 00d4 13DA     		bge	.L16
 400              		.loc 1 184 0
 401 00d6 019B     		ldr	r3, [sp, #4]
 402 00d8 03F10403 		add	r3, r3, #4
 403 00dc 1846     		mov	r0, r3
 404 00de 4FF00801 		mov	r1, #8
 405 00e2 FFF7FEFF 		bl	chEvtBroadcastFlagsI
 406              		.loc 1 185 0
 407 00e6 BDF81230 		ldrh	r3, [sp, #18]
 408 00ea 23F0C003 		bic	r3, r3, #192
 409 00ee 9BB2     		uxth	r3, r3
 410 00f0 43F04003 		orr	r3, r3, #64
 411 00f4 9BB2     		uxth	r3, r3
 412 00f6 9AB2     		uxth	r2, r3
 413 00f8 059B     		ldr	r3, [sp, #20]
 414 00fa 9A81     		strh	r2, [r3, #12]	@ movhi
 415 00fc 03E0     		b	.L17
 416              	.L16:
 417              		.loc 1 188 0
 418 00fe 029B     		ldr	r3, [sp, #8]
 419 0100 9AB2     		uxth	r2, r3
 420 0102 059B     		ldr	r3, [sp, #20]
 421 0104 9A80     		strh	r2, [r3, #4]	@ movhi
 422              	.L17:
 423              	.LBB10:
 424              		.loc 1 189 0
 425 0106 4FF00003 		mov	r3, #0
 426              	@ 189 "../../os/hal/platforms/STM32/USARTv1/serial_lld.c" 1
 427 010a 83F31188 		msr     BASEPRI, r3
 428              	@ 0 "" 2
 429              		.thumb
 430              	.L15:
 431              	.LBE10:
 432              	.LBE8:
 433              		.loc 1 192 0
 434 010e BDF81030 		ldrh	r3, [sp, #16]
 435 0112 03F04003 		and	r3, r3, #64
 436 0116 002B     		cmp	r3, #0
 437 0118 1ED0     		beq	.L11
 438              	.LBB11:
 439              		.loc 1 193 0
 440 011a 4FF02003 		mov	r3, #32
 441              	@ 193 "../../os/hal/platforms/STM32/USARTv1/serial_lld.c" 1
 442 011e 83F31188 		msr     BASEPRI, r3
 443              	@ 0 "" 2
 444              		.thumb
 445              	.LBE11:
 446              		.loc 1 194 0
 447 0122 019B     		ldr	r3, [sp, #4]
 448 0124 03F10403 		add	r3, r3, #4
 449 0128 1846     		mov	r0, r3
 450 012a 4FF01001 		mov	r1, #16
ARM GAS  /tmp/ccft4r9u.s 			page 9


 451 012e FFF7FEFF 		bl	chEvtBroadcastFlagsI
 452              	.LBB12:
 453              		.loc 1 195 0
 454 0132 4FF00003 		mov	r3, #0
 455              	@ 195 "../../os/hal/platforms/STM32/USARTv1/serial_lld.c" 1
 456 0136 83F31188 		msr     BASEPRI, r3
 457              	@ 0 "" 2
 458              		.thumb
 459              	.LBE12:
 460              		.loc 1 196 0
 461 013a BDF81230 		ldrh	r3, [sp, #18]	@ movhi
 462 013e 23F04003 		bic	r3, r3, #64
 463 0142 9AB2     		uxth	r2, r3
 464 0144 059B     		ldr	r3, [sp, #20]
 465 0146 9A81     		strh	r2, [r3, #12]	@ movhi
 466              		.loc 1 197 0
 467 0148 059B     		ldr	r3, [sp, #20]
 468 014a 1B88     		ldrh	r3, [r3, #0]	@ movhi
 469 014c 9BB2     		uxth	r3, r3
 470 014e 23F04003 		bic	r3, r3, #64
 471 0152 9AB2     		uxth	r2, r3
 472 0154 059B     		ldr	r3, [sp, #20]
 473 0156 1A80     		strh	r2, [r3, #0]	@ movhi
 474              	.L11:
 475              		.loc 1 199 0
 476 0158 07B0     		add	sp, sp, #28
 477 015a 00BD     		pop	{pc}
 478              		.cfi_endproc
 479              	.LFE121:
 480              		.size	serve_interrupt, .-serve_interrupt
 481 015c AFF30080 		.section	.text.notify2,"ax",%progbits
 482              		.align	2
 483              		.p2align 4,,15
 484              		.thumb
 485              		.thumb_func
 486              		.type	notify2, %function
 487              	notify2:
 488              	.LFB122:
 489              		.loc 1 210 0
 490              		.cfi_startproc
 491              		@ args = 0, pretend = 0, frame = 8
 492              		@ frame_needed = 0, uses_anonymous_args = 0
 493              		@ link register save eliminated.
 494 0000 82B0     		sub	sp, sp, #8
 495              	.LCFI6:
 496              		.cfi_def_cfa_offset 8
 497 0002 0190     		str	r0, [sp, #4]
 498              		.loc 1 213 0
 499 0004 4FF48843 		mov	r3, #17408
 500 0008 C4F20003 		movt	r3, 16384
 501 000c 4FF48842 		mov	r2, #17408
 502 0010 C4F20002 		movt	r2, 16384
 503 0014 9289     		ldrh	r2, [r2, #12]	@ movhi
 504 0016 92B2     		uxth	r2, r2
 505 0018 42F08002 		orr	r2, r2, #128
 506 001c 92B2     		uxth	r2, r2
 507 001e 9A81     		strh	r2, [r3, #12]	@ movhi
ARM GAS  /tmp/ccft4r9u.s 			page 10


 508              		.loc 1 214 0
 509 0020 02B0     		add	sp, sp, #8
 510 0022 7047     		bx	lr
 511              		.cfi_endproc
 512              	.LFE122:
 513              		.size	notify2, .-notify2
 514 0024 AFF30080 		.section	.text.VectorD8,"ax",%progbits
 514      AFF30080 
 514      AFF30080 
 515              		.align	2
 516              		.p2align 4,,15
 517              		.global	VectorD8
 518              		.thumb
 519              		.thumb_func
 520              		.type	VectorD8, %function
 521              	VectorD8:
 522              	.LFB123:
 523              		.loc 1 281 0
 524              		.cfi_startproc
 525              		@ args = 0, pretend = 0, frame = 0
 526              		@ frame_needed = 0, uses_anonymous_args = 0
 527 0000 08B5     		push	{r3, lr}
 528              	.LCFI7:
 529              		.cfi_def_cfa_offset 8
 530              		.cfi_offset 3, -8
 531              		.cfi_offset 14, -4
 532              		.loc 1 285 0
 533 0002 40F20000 		movw	r0, #:lower16:SD2
 534 0006 C0F20000 		movt	r0, #:upper16:SD2
 535 000a FFF7FEFF 		bl	serve_interrupt
 536              		.loc 1 287 0
 537 000e FFF7FEFF 		bl	_port_irq_epilogue
 538              		.loc 1 288 0
 539 0012 08BD     		pop	{r3, pc}
 540              		.cfi_endproc
 541              	.LFE123:
 542              		.size	VectorD8, .-VectorD8
 543 0014 AFF30080 		.section	.text.sd_lld_init,"ax",%progbits
 543      AFF30080 
 543      AFF30080 
 544              		.align	2
 545              		.p2align 4,,15
 546              		.global	sd_lld_init
 547              		.thumb
 548              		.thumb_func
 549              		.type	sd_lld_init, %function
 550              	sd_lld_init:
 551              	.LFB124:
 552              		.loc 1 376 0
 553              		.cfi_startproc
 554              		@ args = 0, pretend = 0, frame = 0
 555              		@ frame_needed = 0, uses_anonymous_args = 0
 556 0000 08B5     		push	{r3, lr}
 557              	.LCFI8:
 558              		.cfi_def_cfa_offset 8
 559              		.cfi_offset 3, -8
 560              		.cfi_offset 14, -4
ARM GAS  /tmp/ccft4r9u.s 			page 11


 561              		.loc 1 384 0
 562 0002 40F20000 		movw	r0, #:lower16:SD2
 563 0006 C0F20000 		movt	r0, #:upper16:SD2
 564 000a 4FF00001 		mov	r1, #0
 565 000e 40F20002 		movw	r2, #:lower16:notify2
 566 0012 C0F20002 		movt	r2, #:upper16:notify2
 567 0016 FFF7FEFF 		bl	sdObjectInit
 568              		.loc 1 385 0
 569 001a 40F20003 		movw	r3, #:lower16:SD2
 570 001e C0F20003 		movt	r3, #:upper16:SD2
 571 0022 4FF48842 		mov	r2, #17408
 572 0026 C4F20002 		movt	r2, 16384
 573 002a 5A67     		str	r2, [r3, #116]
 574              		.loc 1 407 0
 575 002c 08BD     		pop	{r3, pc}
 576              		.cfi_endproc
 577              	.LFE124:
 578              		.size	sd_lld_init, .-sd_lld_init
 579 002e 00BF     		.section	.text.sd_lld_start,"ax",%progbits
 580              		.align	2
 581              		.p2align 4,,15
 582              		.global	sd_lld_start
 583              		.thumb
 584              		.thumb_func
 585              		.type	sd_lld_start, %function
 586              	sd_lld_start:
 587              	.LFB125:
 588              		.loc 1 419 0
 589              		.cfi_startproc
 590              		@ args = 0, pretend = 0, frame = 8
 591              		@ frame_needed = 0, uses_anonymous_args = 0
 592 0000 00B5     		push	{lr}
 593              	.LCFI9:
 594              		.cfi_def_cfa_offset 4
 595              		.cfi_offset 14, -4
 596 0002 83B0     		sub	sp, sp, #12
 597              	.LCFI10:
 598              		.cfi_def_cfa_offset 16
 599 0004 0190     		str	r0, [sp, #4]
 600 0006 0091     		str	r1, [sp, #0]
 601              		.loc 1 421 0
 602 0008 009B     		ldr	r3, [sp, #0]
 603 000a 002B     		cmp	r3, #0
 604 000c 04D1     		bne	.L23
 605              		.loc 1 422 0
 606 000e 40F20003 		movw	r3, #:lower16:default_config
 607 0012 C0F20003 		movt	r3, #:upper16:default_config
 608 0016 0093     		str	r3, [sp, #0]
 609              	.L23:
 610              		.loc 1 424 0
 611 0018 019B     		ldr	r3, [sp, #4]
 612 001a 1B7A     		ldrb	r3, [r3, #8]	@ zero_extendqisi2
 613 001c 012B     		cmp	r3, #1
 614 001e 18D1     		bne	.L24
 615              		.loc 1 433 0
 616 0020 019A     		ldr	r2, [sp, #4]
 617 0022 40F20003 		movw	r3, #:lower16:SD2
ARM GAS  /tmp/ccft4r9u.s 			page 12


 618 0026 C0F20003 		movt	r3, #:upper16:SD2
 619 002a 9A42     		cmp	r2, r3
 620 002c 11D1     		bne	.L24
 621              		.loc 1 434 0
 622 002e 4FF46053 		mov	r3, #14336
 623 0032 C4F20203 		movt	r3, 16386
 624 0036 4FF46052 		mov	r2, #14336
 625 003a C4F20202 		movt	r2, 16386
 626 003e 126C     		ldr	r2, [r2, #64]
 627 0040 42F40032 		orr	r2, r2, #131072
 628 0044 1A64     		str	r2, [r3, #64]
 629              		.loc 1 435 0
 630 0046 4FF02600 		mov	r0, #38
 631 004a 4FF0C001 		mov	r1, #192
 632 004e FFF7FEFF 		bl	nvicEnableVector
 633              	.L24:
 634              		.loc 1 468 0
 635 0052 0198     		ldr	r0, [sp, #4]
 636 0054 0099     		ldr	r1, [sp, #0]
 637 0056 FFF7FEFF 		bl	usart_init
 638              		.loc 1 469 0
 639 005a 03B0     		add	sp, sp, #12
 640 005c 00BD     		pop	{pc}
 641              		.cfi_endproc
 642              	.LFE125:
 643              		.size	sd_lld_start, .-sd_lld_start
 644 005e 00BF     		.section	.text.sd_lld_stop,"ax",%progbits
 645              		.align	2
 646              		.p2align 4,,15
 647              		.global	sd_lld_stop
 648              		.thumb
 649              		.thumb_func
 650              		.type	sd_lld_stop, %function
 651              	sd_lld_stop:
 652              	.LFB126:
 653              		.loc 1 480 0
 654              		.cfi_startproc
 655              		@ args = 0, pretend = 0, frame = 8
 656              		@ frame_needed = 0, uses_anonymous_args = 0
 657 0000 00B5     		push	{lr}
 658              	.LCFI11:
 659              		.cfi_def_cfa_offset 4
 660              		.cfi_offset 14, -4
 661 0002 83B0     		sub	sp, sp, #12
 662              	.LCFI12:
 663              		.cfi_def_cfa_offset 16
 664 0004 0190     		str	r0, [sp, #4]
 665              		.loc 1 482 0
 666 0006 019B     		ldr	r3, [sp, #4]
 667 0008 1B7A     		ldrb	r3, [r3, #8]	@ zero_extendqisi2
 668 000a 022B     		cmp	r3, #2
 669 000c 1CD1     		bne	.L25
 670              		.loc 1 483 0
 671 000e 019B     		ldr	r3, [sp, #4]
 672 0010 5B6F     		ldr	r3, [r3, #116]
 673 0012 1846     		mov	r0, r3
 674 0014 FFF7FEFF 		bl	usart_deinit
ARM GAS  /tmp/ccft4r9u.s 			page 13


 675              		.loc 1 492 0
 676 0018 019A     		ldr	r2, [sp, #4]
 677 001a 40F20003 		movw	r3, #:lower16:SD2
 678 001e C0F20003 		movt	r3, #:upper16:SD2
 679 0022 9A42     		cmp	r2, r3
 680 0024 10D1     		bne	.L25
 681              		.loc 1 493 0
 682 0026 4FF46053 		mov	r3, #14336
 683 002a C4F20203 		movt	r3, 16386
 684 002e 4FF46052 		mov	r2, #14336
 685 0032 C4F20202 		movt	r2, 16386
 686 0036 126C     		ldr	r2, [r2, #64]
 687 0038 22F40032 		bic	r2, r2, #131072
 688 003c 1A64     		str	r2, [r3, #64]
 689              		.loc 1 494 0
 690 003e 4FF02600 		mov	r0, #38
 691 0042 FFF7FEFF 		bl	nvicDisableVector
 692              		.loc 1 495 0
 693 0046 00BF     		nop
 694              	.L25:
 695              		.loc 1 527 0
 696 0048 03B0     		add	sp, sp, #12
 697 004a 00BD     		pop	{pc}
 698              		.cfi_endproc
 699              	.LFE126:
 700              		.size	sd_lld_stop, .-sd_lld_stop
 701 004c AFF30080 		.text
 702              	.Letext0:
 703              		.file 2 "/usr/bin/../lib/gcc/arm-none-eabi/4.7.4/include/stddef.h"
 704              		.file 3 "/usr/bin/../lib/gcc/arm-none-eabi/4.7.4/../../../../arm-none-eabi/include/stdint.h"
 705              		.file 4 "../../os/ports/GCC/ARMCMx/chtypes.h"
 706              		.file 5 "../../os/kernel/include/chlists.h"
 707              		.file 6 "../../os/kernel/include/chthreads.h"
 708              		.file 7 "../../os/ports/GCC/ARMCMx/chcore_v7m.h"
 709              		.file 8 "../../os/kernel/include/chmtx.h"
 710              		.file 9 "../../os/kernel/include/chevents.h"
 711              		.file 10 "../../os/kernel/include/chqueues.h"
 712              		.file 11 "../../os/hal/platforms/STM32F4xx/stm32f4xx.h"
 713              		.file 12 "../../os/hal/include/serial.h"
 714              		.file 13 "../../os/hal/platforms/STM32/USARTv1/serial_lld.h"
 715              		.file 14 "../../os/ports/common/ARMCMx/CMSIS/include/core_cm4.h"
 716              		.section	.debug_info,"",%progbits
 717              	.Ldebug_info0:
 718 0000 06100000 		.4byte	0x1006
 719 0004 0200     		.2byte	0x2
 720 0006 00000000 		.4byte	.Ldebug_abbrev0
 721 000a 04       		.byte	0x4
 722 000b 01       		.uleb128 0x1
 723 000c 93000000 		.4byte	.LASF229
 724 0010 01       		.byte	0x1
 725 0011 7A020000 		.4byte	.LASF230
 726 0015 D8030000 		.4byte	.LASF231
 727 0019 00000000 		.4byte	.Ldebug_ranges0+0
 728 001d 00000000 		.4byte	0
 729 0021 00000000 		.4byte	0
 730 0025 00000000 		.4byte	.Ldebug_line0
 731 0029 02       		.uleb128 0x2
ARM GAS  /tmp/ccft4r9u.s 			page 14


 732 002a 04       		.byte	0x4
 733 002b 05       		.byte	0x5
 734 002c 696E7400 		.ascii	"int\000"
 735 0030 03       		.uleb128 0x3
 736 0031 00000000 		.4byte	.LASF2
 737 0035 02       		.byte	0x2
 738 0036 D5       		.byte	0xd5
 739 0037 3B000000 		.4byte	0x3b
 740 003b 04       		.uleb128 0x4
 741 003c 04       		.byte	0x4
 742 003d 07       		.byte	0x7
 743 003e C2060000 		.4byte	.LASF0
 744 0042 04       		.uleb128 0x4
 745 0043 01       		.byte	0x1
 746 0044 06       		.byte	0x6
 747 0045 AC020000 		.4byte	.LASF1
 748 0049 03       		.uleb128 0x3
 749 004a C2020000 		.4byte	.LASF3
 750 004e 03       		.byte	0x3
 751 004f 2A       		.byte	0x2a
 752 0050 54000000 		.4byte	0x54
 753 0054 04       		.uleb128 0x4
 754 0055 01       		.byte	0x1
 755 0056 08       		.byte	0x8
 756 0057 04030000 		.4byte	.LASF4
 757 005b 04       		.uleb128 0x4
 758 005c 02       		.byte	0x2
 759 005d 05       		.byte	0x5
 760 005e 24090000 		.4byte	.LASF5
 761 0062 03       		.uleb128 0x3
 762 0063 12080000 		.4byte	.LASF6
 763 0067 03       		.byte	0x3
 764 0068 36       		.byte	0x36
 765 0069 6D000000 		.4byte	0x6d
 766 006d 04       		.uleb128 0x4
 767 006e 02       		.byte	0x2
 768 006f 07       		.byte	0x7
 769 0070 F2090000 		.4byte	.LASF7
 770 0074 03       		.uleb128 0x3
 771 0075 51000000 		.4byte	.LASF8
 772 0079 03       		.byte	0x3
 773 007a 4F       		.byte	0x4f
 774 007b 7F000000 		.4byte	0x7f
 775 007f 04       		.uleb128 0x4
 776 0080 04       		.byte	0x4
 777 0081 05       		.byte	0x5
 778 0082 CE010000 		.4byte	.LASF9
 779 0086 03       		.uleb128 0x3
 780 0087 AF090000 		.4byte	.LASF10
 781 008b 03       		.byte	0x3
 782 008c 50       		.byte	0x50
 783 008d 91000000 		.4byte	0x91
 784 0091 04       		.uleb128 0x4
 785 0092 04       		.byte	0x4
 786 0093 07       		.byte	0x7
 787 0094 2B050000 		.4byte	.LASF11
 788 0098 04       		.uleb128 0x4
ARM GAS  /tmp/ccft4r9u.s 			page 15


 789 0099 08       		.byte	0x8
 790 009a 05       		.byte	0x5
 791 009b FB050000 		.4byte	.LASF12
 792 009f 04       		.uleb128 0x4
 793 00a0 08       		.byte	0x8
 794 00a1 07       		.byte	0x7
 795 00a2 F3070000 		.4byte	.LASF13
 796 00a6 04       		.uleb128 0x4
 797 00a7 01       		.byte	0x1
 798 00a8 02       		.byte	0x2
 799 00a9 64030000 		.4byte	.LASF14
 800 00ad 03       		.uleb128 0x3
 801 00ae 98080000 		.4byte	.LASF15
 802 00b2 04       		.byte	0x4
 803 00b3 25       		.byte	0x25
 804 00b4 49000000 		.4byte	0x49
 805 00b8 03       		.uleb128 0x3
 806 00b9 0E020000 		.4byte	.LASF16
 807 00bd 04       		.byte	0x4
 808 00be 26       		.byte	0x26
 809 00bf 49000000 		.4byte	0x49
 810 00c3 03       		.uleb128 0x3
 811 00c4 77090000 		.4byte	.LASF17
 812 00c8 04       		.byte	0x4
 813 00c9 27       		.byte	0x27
 814 00ca 49000000 		.4byte	0x49
 815 00ce 03       		.uleb128 0x3
 816 00cf 37080000 		.4byte	.LASF18
 817 00d3 04       		.byte	0x4
 818 00d4 28       		.byte	0x28
 819 00d5 49000000 		.4byte	0x49
 820 00d9 03       		.uleb128 0x3
 821 00da 3E000000 		.4byte	.LASF19
 822 00de 04       		.byte	0x4
 823 00df 29       		.byte	0x29
 824 00e0 86000000 		.4byte	0x86
 825 00e4 03       		.uleb128 0x3
 826 00e5 1B080000 		.4byte	.LASF20
 827 00e9 04       		.byte	0x4
 828 00ea 2A       		.byte	0x2a
 829 00eb 74000000 		.4byte	0x74
 830 00ef 03       		.uleb128 0x3
 831 00f0 CA020000 		.4byte	.LASF21
 832 00f4 04       		.byte	0x4
 833 00f5 2C       		.byte	0x2c
 834 00f6 86000000 		.4byte	0x86
 835 00fa 03       		.uleb128 0x3
 836 00fb 21070000 		.4byte	.LASF22
 837 00ff 04       		.byte	0x4
 838 0100 2D       		.byte	0x2d
 839 0101 86000000 		.4byte	0x86
 840 0105 03       		.uleb128 0x3
 841 0106 23000000 		.4byte	.LASF23
 842 010a 04       		.byte	0x4
 843 010b 2E       		.byte	0x2e
 844 010c 86000000 		.4byte	0x86
 845 0110 03       		.uleb128 0x3
ARM GAS  /tmp/ccft4r9u.s 			page 16


 846 0111 50090000 		.4byte	.LASF24
 847 0115 05       		.byte	0x5
 848 0116 23       		.byte	0x23
 849 0117 1B010000 		.4byte	0x11b
 850 011b 05       		.uleb128 0x5
 851 011c 50090000 		.4byte	.LASF24
 852 0120 48       		.byte	0x48
 853 0121 06       		.byte	0x6
 854 0122 57       		.byte	0x57
 855 0123 40020000 		.4byte	0x240
 856 0127 06       		.uleb128 0x6
 857 0128 D7010000 		.4byte	.LASF25
 858 012c 06       		.byte	0x6
 859 012d 58       		.byte	0x58
 860 012e 65020000 		.4byte	0x265
 861 0132 02       		.byte	0x2
 862 0133 23       		.byte	0x23
 863 0134 00       		.uleb128 0
 864 0135 06       		.uleb128 0x6
 865 0136 E6010000 		.4byte	.LASF26
 866 013a 06       		.byte	0x6
 867 013b 5A       		.byte	0x5a
 868 013c 65020000 		.4byte	0x265
 869 0140 02       		.byte	0x2
 870 0141 23       		.byte	0x23
 871 0142 04       		.uleb128 0x4
 872 0143 06       		.uleb128 0x6
 873 0144 A7030000 		.4byte	.LASF27
 874 0148 06       		.byte	0x6
 875 0149 5C       		.byte	0x5c
 876 014a D9000000 		.4byte	0xd9
 877 014e 02       		.byte	0x2
 878 014f 23       		.byte	0x23
 879 0150 08       		.uleb128 0x8
 880 0151 06       		.uleb128 0x6
 881 0152 38000000 		.4byte	.LASF28
 882 0156 06       		.byte	0x6
 883 0157 5D       		.byte	0x5d
 884 0158 33030000 		.4byte	0x333
 885 015c 02       		.byte	0x2
 886 015d 23       		.byte	0x23
 887 015e 0C       		.uleb128 0xc
 888 015f 06       		.uleb128 0x6
 889 0160 C6010000 		.4byte	.LASF29
 890 0164 06       		.byte	0x6
 891 0165 5F       		.byte	0x5f
 892 0166 65020000 		.4byte	0x265
 893 016a 02       		.byte	0x2
 894 016b 23       		.byte	0x23
 895 016c 10       		.uleb128 0x10
 896 016d 06       		.uleb128 0x6
 897 016e 0A080000 		.4byte	.LASF30
 898 0172 06       		.byte	0x6
 899 0173 60       		.byte	0x60
 900 0174 65020000 		.4byte	0x265
 901 0178 02       		.byte	0x2
 902 0179 23       		.byte	0x23
ARM GAS  /tmp/ccft4r9u.s 			page 17


 903 017a 14       		.uleb128 0x14
 904 017b 06       		.uleb128 0x6
 905 017c 880A0000 		.4byte	.LASF31
 906 0180 06       		.byte	0x6
 907 0181 67       		.byte	0x67
 908 0182 60040000 		.4byte	0x460
 909 0186 02       		.byte	0x2
 910 0187 23       		.byte	0x23
 911 0188 18       		.uleb128 0x18
 912 0189 06       		.uleb128 0x6
 913 018a C20A0000 		.4byte	.LASF32
 914 018e 06       		.byte	0x6
 915 018f 72       		.byte	0x72
 916 0190 B8000000 		.4byte	0xb8
 917 0194 02       		.byte	0x2
 918 0195 23       		.byte	0x23
 919 0196 1C       		.uleb128 0x1c
 920 0197 06       		.uleb128 0x6
 921 0198 B5060000 		.4byte	.LASF33
 922 019c 06       		.byte	0x6
 923 019d 76       		.byte	0x76
 924 019e AD000000 		.4byte	0xad
 925 01a2 02       		.byte	0x2
 926 01a3 23       		.byte	0x23
 927 01a4 1D       		.uleb128 0x1d
 928 01a5 06       		.uleb128 0x6
 929 01a6 F2060000 		.4byte	.LASF34
 930 01aa 06       		.byte	0x6
 931 01ab 7B       		.byte	0x7b
 932 01ac C3000000 		.4byte	0xc3
 933 01b0 02       		.byte	0x2
 934 01b1 23       		.byte	0x23
 935 01b2 1E       		.uleb128 0x1e
 936 01b3 06       		.uleb128 0x6
 937 01b4 B8020000 		.4byte	.LASF35
 938 01b8 06       		.byte	0x6
 939 01b9 81       		.byte	0x81
 940 01ba CE000000 		.4byte	0xce
 941 01be 02       		.byte	0x2
 942 01bf 23       		.byte	0x23
 943 01c0 1F       		.uleb128 0x1f
 944 01c1 06       		.uleb128 0x6
 945 01c2 4C070000 		.4byte	.LASF36
 946 01c6 06       		.byte	0x6
 947 01c7 88       		.byte	0x88
 948 01c8 62030000 		.4byte	0x362
 949 01cc 02       		.byte	0x2
 950 01cd 23       		.byte	0x23
 951 01ce 20       		.uleb128 0x20
 952 01cf 07       		.uleb128 0x7
 953 01d0 705F7500 		.ascii	"p_u\000"
 954 01d4 06       		.byte	0x6
 955 01d5 AD       		.byte	0xad
 956 01d6 2B040000 		.4byte	0x42b
 957 01da 02       		.byte	0x2
 958 01db 23       		.byte	0x23
 959 01dc 24       		.uleb128 0x24
ARM GAS  /tmp/ccft4r9u.s 			page 18


 960 01dd 06       		.uleb128 0x6
 961 01de 82060000 		.4byte	.LASF37
 962 01e2 06       		.byte	0x6
 963 01e3 B2       		.byte	0xb2
 964 01e4 8D020000 		.4byte	0x28d
 965 01e8 02       		.byte	0x2
 966 01e9 23       		.byte	0x23
 967 01ea 28       		.uleb128 0x28
 968 01eb 06       		.uleb128 0x6
 969 01ec 46000000 		.4byte	.LASF38
 970 01f0 06       		.byte	0x6
 971 01f1 B8       		.byte	0xb8
 972 01f2 6B020000 		.4byte	0x26b
 973 01f6 02       		.byte	0x2
 974 01f7 23       		.byte	0x23
 975 01f8 2C       		.uleb128 0x2c
 976 01f9 06       		.uleb128 0x6
 977 01fa B00A0000 		.4byte	.LASF39
 978 01fe 06       		.byte	0x6
 979 01ff BC       		.byte	0xbc
 980 0200 E4000000 		.4byte	0xe4
 981 0204 02       		.byte	0x2
 982 0205 23       		.byte	0x23
 983 0206 34       		.uleb128 0x34
 984 0207 06       		.uleb128 0x6
 985 0208 6C040000 		.4byte	.LASF40
 986 020c 06       		.byte	0x6
 987 020d C2       		.byte	0xc2
 988 020e EF000000 		.4byte	0xef
 989 0212 02       		.byte	0x2
 990 0213 23       		.byte	0x23
 991 0214 38       		.uleb128 0x38
 992 0215 06       		.uleb128 0x6
 993 0216 17020000 		.4byte	.LASF41
 994 021a 06       		.byte	0x6
 995 021b C9       		.byte	0xc9
 996 021c 72040000 		.4byte	0x472
 997 0220 02       		.byte	0x2
 998 0221 23       		.byte	0x23
 999 0222 3C       		.uleb128 0x3c
 1000 0223 06       		.uleb128 0x6
 1001 0224 73070000 		.4byte	.LASF42
 1002 0228 06       		.byte	0x6
 1003 0229 CD       		.byte	0xcd
 1004 022a D9000000 		.4byte	0xd9
 1005 022e 02       		.byte	0x2
 1006 022f 23       		.byte	0x23
 1007 0230 40       		.uleb128 0x40
 1008 0231 06       		.uleb128 0x6
 1009 0232 DD060000 		.4byte	.LASF43
 1010 0236 06       		.byte	0x6
 1011 0237 D3       		.byte	0xd3
 1012 0238 A3020000 		.4byte	0x2a3
 1013 023c 02       		.byte	0x2
 1014 023d 23       		.byte	0x23
 1015 023e 44       		.uleb128 0x44
 1016 023f 00       		.byte	0
ARM GAS  /tmp/ccft4r9u.s 			page 19


 1017 0240 08       		.uleb128 0x8
 1018 0241 08       		.byte	0x8
 1019 0242 05       		.byte	0x5
 1020 0243 5A       		.byte	0x5a
 1021 0244 65020000 		.4byte	0x265
 1022 0248 06       		.uleb128 0x6
 1023 0249 D7010000 		.4byte	.LASF25
 1024 024d 05       		.byte	0x5
 1025 024e 5B       		.byte	0x5b
 1026 024f 65020000 		.4byte	0x265
 1027 0253 02       		.byte	0x2
 1028 0254 23       		.byte	0x23
 1029 0255 00       		.uleb128 0
 1030 0256 06       		.uleb128 0x6
 1031 0257 E6010000 		.4byte	.LASF26
 1032 025b 05       		.byte	0x5
 1033 025c 5D       		.byte	0x5d
 1034 025d 65020000 		.4byte	0x265
 1035 0261 02       		.byte	0x2
 1036 0262 23       		.byte	0x23
 1037 0263 04       		.uleb128 0x4
 1038 0264 00       		.byte	0
 1039 0265 09       		.uleb128 0x9
 1040 0266 04       		.byte	0x4
 1041 0267 10010000 		.4byte	0x110
 1042 026b 03       		.uleb128 0x3
 1043 026c C6090000 		.4byte	.LASF44
 1044 0270 05       		.byte	0x5
 1045 0271 5F       		.byte	0x5f
 1046 0272 40020000 		.4byte	0x240
 1047 0276 08       		.uleb128 0x8
 1048 0277 04       		.byte	0x4
 1049 0278 05       		.byte	0x5
 1050 0279 64       		.byte	0x64
 1051 027a 8D020000 		.4byte	0x28d
 1052 027e 06       		.uleb128 0x6
 1053 027f D7010000 		.4byte	.LASF25
 1054 0283 05       		.byte	0x5
 1055 0284 66       		.byte	0x66
 1056 0285 65020000 		.4byte	0x265
 1057 0289 02       		.byte	0x2
 1058 028a 23       		.byte	0x23
 1059 028b 00       		.uleb128 0
 1060 028c 00       		.byte	0
 1061 028d 03       		.uleb128 0x3
 1062 028e F9060000 		.4byte	.LASF45
 1063 0292 05       		.byte	0x5
 1064 0293 69       		.byte	0x69
 1065 0294 76020000 		.4byte	0x276
 1066 0298 03       		.uleb128 0x3
 1067 0299 40020000 		.4byte	.LASF46
 1068 029d 07       		.byte	0x7
 1069 029e DE       		.byte	0xde
 1070 029f A3020000 		.4byte	0x2a3
 1071 02a3 0A       		.uleb128 0xa
 1072 02a4 04       		.byte	0x4
 1073 02a5 0B       		.uleb128 0xb
ARM GAS  /tmp/ccft4r9u.s 			page 20


 1074 02a6 5F040000 		.4byte	.LASF47
 1075 02aa 24       		.byte	0x24
 1076 02ab 07       		.byte	0x7
 1077 02ac 0501     		.2byte	0x105
 1078 02ae 33030000 		.4byte	0x333
 1079 02b2 0C       		.uleb128 0xc
 1080 02b3 723400   		.ascii	"r4\000"
 1081 02b6 07       		.byte	0x7
 1082 02b7 1801     		.2byte	0x118
 1083 02b9 98020000 		.4byte	0x298
 1084 02bd 02       		.byte	0x2
 1085 02be 23       		.byte	0x23
 1086 02bf 00       		.uleb128 0
 1087 02c0 0C       		.uleb128 0xc
 1088 02c1 723500   		.ascii	"r5\000"
 1089 02c4 07       		.byte	0x7
 1090 02c5 1901     		.2byte	0x119
 1091 02c7 98020000 		.4byte	0x298
 1092 02cb 02       		.byte	0x2
 1093 02cc 23       		.byte	0x23
 1094 02cd 04       		.uleb128 0x4
 1095 02ce 0C       		.uleb128 0xc
 1096 02cf 723600   		.ascii	"r6\000"
 1097 02d2 07       		.byte	0x7
 1098 02d3 1A01     		.2byte	0x11a
 1099 02d5 98020000 		.4byte	0x298
 1100 02d9 02       		.byte	0x2
 1101 02da 23       		.byte	0x23
 1102 02db 08       		.uleb128 0x8
 1103 02dc 0C       		.uleb128 0xc
 1104 02dd 723700   		.ascii	"r7\000"
 1105 02e0 07       		.byte	0x7
 1106 02e1 1B01     		.2byte	0x11b
 1107 02e3 98020000 		.4byte	0x298
 1108 02e7 02       		.byte	0x2
 1109 02e8 23       		.byte	0x23
 1110 02e9 0C       		.uleb128 0xc
 1111 02ea 0C       		.uleb128 0xc
 1112 02eb 723800   		.ascii	"r8\000"
 1113 02ee 07       		.byte	0x7
 1114 02ef 1C01     		.2byte	0x11c
 1115 02f1 98020000 		.4byte	0x298
 1116 02f5 02       		.byte	0x2
 1117 02f6 23       		.byte	0x23
 1118 02f7 10       		.uleb128 0x10
 1119 02f8 0C       		.uleb128 0xc
 1120 02f9 723900   		.ascii	"r9\000"
 1121 02fc 07       		.byte	0x7
 1122 02fd 1D01     		.2byte	0x11d
 1123 02ff 98020000 		.4byte	0x298
 1124 0303 02       		.byte	0x2
 1125 0304 23       		.byte	0x23
 1126 0305 14       		.uleb128 0x14
 1127 0306 0C       		.uleb128 0xc
 1128 0307 72313000 		.ascii	"r10\000"
 1129 030b 07       		.byte	0x7
 1130 030c 1E01     		.2byte	0x11e
ARM GAS  /tmp/ccft4r9u.s 			page 21


 1131 030e 98020000 		.4byte	0x298
 1132 0312 02       		.byte	0x2
 1133 0313 23       		.byte	0x23
 1134 0314 18       		.uleb128 0x18
 1135 0315 0C       		.uleb128 0xc
 1136 0316 72313100 		.ascii	"r11\000"
 1137 031a 07       		.byte	0x7
 1138 031b 1F01     		.2byte	0x11f
 1139 031d 98020000 		.4byte	0x298
 1140 0321 02       		.byte	0x2
 1141 0322 23       		.byte	0x23
 1142 0323 1C       		.uleb128 0x1c
 1143 0324 0C       		.uleb128 0xc
 1144 0325 6C7200   		.ascii	"lr\000"
 1145 0328 07       		.byte	0x7
 1146 0329 2001     		.2byte	0x120
 1147 032b 98020000 		.4byte	0x298
 1148 032f 02       		.byte	0x2
 1149 0330 23       		.byte	0x23
 1150 0331 20       		.uleb128 0x20
 1151 0332 00       		.byte	0
 1152 0333 0B       		.uleb128 0xb
 1153 0334 D6020000 		.4byte	.LASF48
 1154 0338 04       		.byte	0x4
 1155 0339 07       		.byte	0x7
 1156 033a 2A01     		.2byte	0x12a
 1157 033c 50030000 		.4byte	0x350
 1158 0340 0C       		.uleb128 0xc
 1159 0341 72313300 		.ascii	"r13\000"
 1160 0345 07       		.byte	0x7
 1161 0346 2B01     		.2byte	0x12b
 1162 0348 50030000 		.4byte	0x350
 1163 034c 02       		.byte	0x2
 1164 034d 23       		.byte	0x23
 1165 034e 00       		.uleb128 0
 1166 034f 00       		.byte	0
 1167 0350 09       		.uleb128 0x9
 1168 0351 04       		.byte	0x4
 1169 0352 A5020000 		.4byte	0x2a5
 1170 0356 0D       		.uleb128 0xd
 1171 0357 86000000 		.4byte	0x86
 1172 035b 04       		.uleb128 0x4
 1173 035c 04       		.byte	0x4
 1174 035d 07       		.byte	0x7
 1175 035e 1A000000 		.4byte	.LASF49
 1176 0362 0D       		.uleb128 0xd
 1177 0363 05010000 		.4byte	0x105
 1178 0367 05       		.uleb128 0x5
 1179 0368 EB050000 		.4byte	.LASF50
 1180 036c 10       		.byte	0x10
 1181 036d 08       		.byte	0x8
 1182 036e 25       		.byte	0x25
 1183 036f 9E030000 		.4byte	0x39e
 1184 0373 06       		.uleb128 0x6
 1185 0374 2D060000 		.4byte	.LASF51
 1186 0378 08       		.byte	0x8
 1187 0379 26       		.byte	0x26
ARM GAS  /tmp/ccft4r9u.s 			page 22


 1188 037a 6B020000 		.4byte	0x26b
 1189 037e 02       		.byte	0x2
 1190 037f 23       		.byte	0x23
 1191 0380 00       		.uleb128 0
 1192 0381 06       		.uleb128 0x6
 1193 0382 54010000 		.4byte	.LASF52
 1194 0386 08       		.byte	0x8
 1195 0387 28       		.byte	0x28
 1196 0388 65020000 		.4byte	0x265
 1197 038c 02       		.byte	0x2
 1198 038d 23       		.byte	0x23
 1199 038e 08       		.uleb128 0x8
 1200 038f 06       		.uleb128 0x6
 1201 0390 8F0A0000 		.4byte	.LASF53
 1202 0394 08       		.byte	0x8
 1203 0395 2A       		.byte	0x2a
 1204 0396 9E030000 		.4byte	0x39e
 1205 039a 02       		.byte	0x2
 1206 039b 23       		.byte	0x23
 1207 039c 0C       		.uleb128 0xc
 1208 039d 00       		.byte	0
 1209 039e 09       		.uleb128 0x9
 1210 039f 04       		.byte	0x4
 1211 03a0 67030000 		.4byte	0x367
 1212 03a4 03       		.uleb128 0x3
 1213 03a5 EB050000 		.4byte	.LASF50
 1214 03a9 08       		.byte	0x8
 1215 03aa 2C       		.byte	0x2c
 1216 03ab 67030000 		.4byte	0x367
 1217 03af 03       		.uleb128 0x3
 1218 03b0 A1090000 		.4byte	.LASF54
 1219 03b4 09       		.byte	0x9
 1220 03b5 25       		.byte	0x25
 1221 03b6 BA030000 		.4byte	0x3ba
 1222 03ba 05       		.uleb128 0x5
 1223 03bb A1090000 		.4byte	.LASF54
 1224 03bf 10       		.byte	0x10
 1225 03c0 09       		.byte	0x9
 1226 03c1 2A       		.byte	0x2a
 1227 03c2 FF030000 		.4byte	0x3ff
 1228 03c6 06       		.uleb128 0x6
 1229 03c7 71050000 		.4byte	.LASF55
 1230 03cb 09       		.byte	0x9
 1231 03cc 2B       		.byte	0x2b
 1232 03cd FF030000 		.4byte	0x3ff
 1233 03d1 02       		.byte	0x2
 1234 03d2 23       		.byte	0x23
 1235 03d3 00       		.uleb128 0
 1236 03d4 06       		.uleb128 0x6
 1237 03d5 B60A0000 		.4byte	.LASF56
 1238 03d9 09       		.byte	0x9
 1239 03da 2E       		.byte	0x2e
 1240 03db 65020000 		.4byte	0x265
 1241 03df 02       		.byte	0x2
 1242 03e0 23       		.byte	0x23
 1243 03e1 04       		.uleb128 0x4
 1244 03e2 06       		.uleb128 0x6
ARM GAS  /tmp/ccft4r9u.s 			page 23


 1245 03e3 800A0000 		.4byte	.LASF57
 1246 03e7 09       		.byte	0x9
 1247 03e8 30       		.byte	0x30
 1248 03e9 EF000000 		.4byte	0xef
 1249 03ed 02       		.byte	0x2
 1250 03ee 23       		.byte	0x23
 1251 03ef 08       		.uleb128 0x8
 1252 03f0 06       		.uleb128 0x6
 1253 03f1 FB000000 		.4byte	.LASF58
 1254 03f5 09       		.byte	0x9
 1255 03f6 33       		.byte	0x33
 1256 03f7 FA000000 		.4byte	0xfa
 1257 03fb 02       		.byte	0x2
 1258 03fc 23       		.byte	0x23
 1259 03fd 0C       		.uleb128 0xc
 1260 03fe 00       		.byte	0
 1261 03ff 09       		.uleb128 0x9
 1262 0400 04       		.byte	0x4
 1263 0401 AF030000 		.4byte	0x3af
 1264 0405 05       		.uleb128 0x5
 1265 0406 15050000 		.4byte	.LASF59
 1266 040a 04       		.byte	0x4
 1267 040b 09       		.byte	0x9
 1268 040c 3A       		.byte	0x3a
 1269 040d 20040000 		.4byte	0x420
 1270 0411 06       		.uleb128 0x6
 1271 0412 D9040000 		.4byte	.LASF60
 1272 0416 09       		.byte	0x9
 1273 0417 3B       		.byte	0x3b
 1274 0418 FF030000 		.4byte	0x3ff
 1275 041c 02       		.byte	0x2
 1276 041d 23       		.byte	0x23
 1277 041e 00       		.uleb128 0
 1278 041f 00       		.byte	0
 1279 0420 03       		.uleb128 0x3
 1280 0421 15050000 		.4byte	.LASF59
 1281 0425 09       		.byte	0x9
 1282 0426 3E       		.byte	0x3e
 1283 0427 05040000 		.4byte	0x405
 1284 042b 0E       		.uleb128 0xe
 1285 042c 04       		.byte	0x4
 1286 042d 06       		.byte	0x6
 1287 042e 8F       		.byte	0x8f
 1288 042f 60040000 		.4byte	0x460
 1289 0433 0F       		.uleb128 0xf
 1290 0434 E0090000 		.4byte	.LASF61
 1291 0438 06       		.byte	0x6
 1292 0439 96       		.byte	0x96
 1293 043a E4000000 		.4byte	0xe4
 1294 043e 0F       		.uleb128 0xf
 1295 043f 5C010000 		.4byte	.LASF62
 1296 0443 06       		.byte	0x6
 1297 0444 9D       		.byte	0x9d
 1298 0445 E4000000 		.4byte	0xe4
 1299 0449 0F       		.uleb128 0xf
 1300 044a C3030000 		.4byte	.LASF63
 1301 044e 06       		.byte	0x6
ARM GAS  /tmp/ccft4r9u.s 			page 24


 1302 044f A4       		.byte	0xa4
 1303 0450 A3020000 		.4byte	0x2a3
 1304 0454 0F       		.uleb128 0xf
 1305 0455 7C010000 		.4byte	.LASF64
 1306 0459 06       		.byte	0x6
 1307 045a AB       		.byte	0xab
 1308 045b EF000000 		.4byte	0xef
 1309 045f 00       		.byte	0
 1310 0460 09       		.uleb128 0x9
 1311 0461 04       		.byte	0x4
 1312 0462 66040000 		.4byte	0x466
 1313 0466 10       		.uleb128 0x10
 1314 0467 6B040000 		.4byte	0x46b
 1315 046b 04       		.uleb128 0x4
 1316 046c 01       		.byte	0x1
 1317 046d 08       		.byte	0x8
 1318 046e A2030000 		.4byte	.LASF65
 1319 0472 09       		.uleb128 0x9
 1320 0473 04       		.byte	0x4
 1321 0474 A4030000 		.4byte	0x3a4
 1322 0478 09       		.uleb128 0x9
 1323 0479 04       		.byte	0x4
 1324 047a 7E040000 		.4byte	0x47e
 1325 047e 11       		.uleb128 0x11
 1326 047f 01       		.byte	0x1
 1327 0480 E4000000 		.4byte	0xe4
 1328 0484 8E040000 		.4byte	0x48e
 1329 0488 12       		.uleb128 0x12
 1330 0489 A3020000 		.4byte	0x2a3
 1331 048d 00       		.byte	0
 1332 048e 03       		.uleb128 0x3
 1333 048f B6030000 		.4byte	.LASF66
 1334 0493 0A       		.byte	0xa
 1335 0494 30       		.byte	0x30
 1336 0495 99040000 		.4byte	0x499
 1337 0499 05       		.uleb128 0x5
 1338 049a B6030000 		.4byte	.LASF66
 1339 049e 24       		.byte	0x24
 1340 049f 0A       		.byte	0xa
 1341 04a0 3E       		.byte	0x3e
 1342 04a1 16050000 		.4byte	0x516
 1343 04a5 06       		.uleb128 0x6
 1344 04a6 83080000 		.4byte	.LASF67
 1345 04aa 0A       		.byte	0xa
 1346 04ab 3F       		.byte	0x3f
 1347 04ac 6B020000 		.4byte	0x26b
 1348 04b0 02       		.byte	0x2
 1349 04b1 23       		.byte	0x23
 1350 04b2 00       		.uleb128 0
 1351 04b3 06       		.uleb128 0x6
 1352 04b4 E1040000 		.4byte	.LASF68
 1353 04b8 0A       		.byte	0xa
 1354 04b9 40       		.byte	0x40
 1355 04ba 30000000 		.4byte	0x30
 1356 04be 02       		.byte	0x2
 1357 04bf 23       		.byte	0x23
 1358 04c0 08       		.uleb128 0x8
ARM GAS  /tmp/ccft4r9u.s 			page 25


 1359 04c1 06       		.uleb128 0x6
 1360 04c2 B4010000 		.4byte	.LASF69
 1361 04c6 0A       		.byte	0xa
 1362 04c7 41       		.byte	0x41
 1363 04c8 39050000 		.4byte	0x539
 1364 04cc 02       		.byte	0x2
 1365 04cd 23       		.byte	0x23
 1366 04ce 0C       		.uleb128 0xc
 1367 04cf 06       		.uleb128 0x6
 1368 04d0 76010000 		.4byte	.LASF70
 1369 04d4 0A       		.byte	0xa
 1370 04d5 42       		.byte	0x42
 1371 04d6 39050000 		.4byte	0x539
 1372 04da 02       		.byte	0x2
 1373 04db 23       		.byte	0x23
 1374 04dc 10       		.uleb128 0x10
 1375 04dd 06       		.uleb128 0x6
 1376 04de 79050000 		.4byte	.LASF71
 1377 04e2 0A       		.byte	0xa
 1378 04e3 44       		.byte	0x44
 1379 04e4 39050000 		.4byte	0x539
 1380 04e8 02       		.byte	0x2
 1381 04e9 23       		.byte	0x23
 1382 04ea 14       		.uleb128 0x14
 1383 04eb 06       		.uleb128 0x6
 1384 04ec DE010000 		.4byte	.LASF72
 1385 04f0 0A       		.byte	0xa
 1386 04f1 45       		.byte	0x45
 1387 04f2 39050000 		.4byte	0x539
 1388 04f6 02       		.byte	0x2
 1389 04f7 23       		.byte	0x23
 1390 04f8 18       		.uleb128 0x18
 1391 04f9 06       		.uleb128 0x6
 1392 04fa BD010000 		.4byte	.LASF73
 1393 04fe 0A       		.byte	0xa
 1394 04ff 46       		.byte	0x46
 1395 0500 16050000 		.4byte	0x516
 1396 0504 02       		.byte	0x2
 1397 0505 23       		.byte	0x23
 1398 0506 1C       		.uleb128 0x1c
 1399 0507 06       		.uleb128 0x6
 1400 0508 2E030000 		.4byte	.LASF74
 1401 050c 0A       		.byte	0xa
 1402 050d 47       		.byte	0x47
 1403 050e A3020000 		.4byte	0x2a3
 1404 0512 02       		.byte	0x2
 1405 0513 23       		.byte	0x23
 1406 0514 20       		.uleb128 0x20
 1407 0515 00       		.byte	0
 1408 0516 03       		.uleb128 0x3
 1409 0517 78060000 		.4byte	.LASF75
 1410 051b 0A       		.byte	0xa
 1411 051c 33       		.byte	0x33
 1412 051d 21050000 		.4byte	0x521
 1413 0521 09       		.uleb128 0x9
 1414 0522 04       		.byte	0x4
 1415 0523 27050000 		.4byte	0x527
ARM GAS  /tmp/ccft4r9u.s 			page 26


 1416 0527 13       		.uleb128 0x13
 1417 0528 01       		.byte	0x1
 1418 0529 33050000 		.4byte	0x533
 1419 052d 12       		.uleb128 0x12
 1420 052e 33050000 		.4byte	0x533
 1421 0532 00       		.byte	0
 1422 0533 09       		.uleb128 0x9
 1423 0534 04       		.byte	0x4
 1424 0535 8E040000 		.4byte	0x48e
 1425 0539 09       		.uleb128 0x9
 1426 053a 04       		.byte	0x4
 1427 053b 49000000 		.4byte	0x49
 1428 053f 03       		.uleb128 0x3
 1429 0540 280A0000 		.4byte	.LASF76
 1430 0544 0A       		.byte	0xa
 1431 0545 7B       		.byte	0x7b
 1432 0546 8E040000 		.4byte	0x48e
 1433 054a 03       		.uleb128 0x3
 1434 054b 2B040000 		.4byte	.LASF77
 1435 054f 0A       		.byte	0xa
 1436 0550 EE       		.byte	0xee
 1437 0551 8E040000 		.4byte	0x48e
 1438 0555 11       		.uleb128 0x11
 1439 0556 01       		.byte	0x1
 1440 0557 30000000 		.4byte	0x30
 1441 055b 6F050000 		.4byte	0x56f
 1442 055f 12       		.uleb128 0x12
 1443 0560 A3020000 		.4byte	0x2a3
 1444 0564 12       		.uleb128 0x12
 1445 0565 6F050000 		.4byte	0x56f
 1446 0569 12       		.uleb128 0x12
 1447 056a 30000000 		.4byte	0x30
 1448 056e 00       		.byte	0
 1449 056f 09       		.uleb128 0x9
 1450 0570 04       		.byte	0x4
 1451 0571 75050000 		.4byte	0x575
 1452 0575 10       		.uleb128 0x10
 1453 0576 49000000 		.4byte	0x49
 1454 057a 09       		.uleb128 0x9
 1455 057b 04       		.byte	0x4
 1456 057c 55050000 		.4byte	0x555
 1457 0580 11       		.uleb128 0x11
 1458 0581 01       		.byte	0x1
 1459 0582 30000000 		.4byte	0x30
 1460 0586 9A050000 		.4byte	0x59a
 1461 058a 12       		.uleb128 0x12
 1462 058b A3020000 		.4byte	0x2a3
 1463 058f 12       		.uleb128 0x12
 1464 0590 39050000 		.4byte	0x539
 1465 0594 12       		.uleb128 0x12
 1466 0595 30000000 		.4byte	0x30
 1467 0599 00       		.byte	0
 1468 059a 09       		.uleb128 0x9
 1469 059b 04       		.byte	0x4
 1470 059c 80050000 		.4byte	0x580
 1471 05a0 11       		.uleb128 0x11
 1472 05a1 01       		.byte	0x1
ARM GAS  /tmp/ccft4r9u.s 			page 27


 1473 05a2 E4000000 		.4byte	0xe4
 1474 05a6 B5050000 		.4byte	0x5b5
 1475 05aa 12       		.uleb128 0x12
 1476 05ab A3020000 		.4byte	0x2a3
 1477 05af 12       		.uleb128 0x12
 1478 05b0 49000000 		.4byte	0x49
 1479 05b4 00       		.byte	0
 1480 05b5 09       		.uleb128 0x9
 1481 05b6 04       		.byte	0x4
 1482 05b7 A0050000 		.4byte	0x5a0
 1483 05bb 14       		.uleb128 0x14
 1484 05bc 53070000 		.4byte	.LASF232
 1485 05c0 01       		.byte	0x1
 1486 05c1 0B       		.byte	0xb
 1487 05c2 8C       		.byte	0x8c
 1488 05c3 F6070000 		.4byte	0x7f6
 1489 05c7 15       		.uleb128 0x15
 1490 05c8 F7040000 		.4byte	.LASF78
 1491 05cc 72       		.sleb128 -14
 1492 05cd 15       		.uleb128 0x15
 1493 05ce 3D050000 		.4byte	.LASF79
 1494 05d2 74       		.sleb128 -12
 1495 05d3 15       		.uleb128 0x15
 1496 05d4 AB050000 		.4byte	.LASF80
 1497 05d8 75       		.sleb128 -11
 1498 05d9 15       		.uleb128 0x15
 1499 05da 92030000 		.4byte	.LASF81
 1500 05de 76       		.sleb128 -10
 1501 05df 15       		.uleb128 0x15
 1502 05e0 45060000 		.4byte	.LASF82
 1503 05e4 7B       		.sleb128 -5
 1504 05e5 15       		.uleb128 0x15
 1505 05e6 D6080000 		.4byte	.LASF83
 1506 05ea 7C       		.sleb128 -4
 1507 05eb 15       		.uleb128 0x15
 1508 05ec 3E0A0000 		.4byte	.LASF84
 1509 05f0 7E       		.sleb128 -2
 1510 05f1 15       		.uleb128 0x15
 1511 05f2 5B020000 		.4byte	.LASF85
 1512 05f6 7F       		.sleb128 -1
 1513 05f7 15       		.uleb128 0x15
 1514 05f8 21050000 		.4byte	.LASF86
 1515 05fc 00       		.sleb128 0
 1516 05fd 15       		.uleb128 0x15
 1517 05fe 6D080000 		.4byte	.LASF87
 1518 0602 01       		.sleb128 1
 1519 0603 15       		.uleb128 0x15
 1520 0604 53050000 		.4byte	.LASF88
 1521 0608 02       		.sleb128 2
 1522 0609 15       		.uleb128 0x15
 1523 060a 93090000 		.4byte	.LASF89
 1524 060e 03       		.sleb128 3
 1525 060f 15       		.uleb128 0x15
 1526 0610 E6000000 		.4byte	.LASF90
 1527 0614 04       		.sleb128 4
 1528 0615 15       		.uleb128 0x15
 1529 0616 2E090000 		.4byte	.LASF91
ARM GAS  /tmp/ccft4r9u.s 			page 28


 1530 061a 05       		.sleb128 5
 1531 061b 15       		.uleb128 0x15
 1532 061c 8D080000 		.4byte	.LASF92
 1533 0620 06       		.sleb128 6
 1534 0621 15       		.uleb128 0x15
 1535 0622 97040000 		.4byte	.LASF93
 1536 0626 07       		.sleb128 7
 1537 0627 15       		.uleb128 0x15
 1538 0628 41080000 		.4byte	.LASF94
 1539 062c 08       		.sleb128 8
 1540 062d 15       		.uleb128 0x15
 1541 062e 330A0000 		.4byte	.LASF95
 1542 0632 09       		.sleb128 9
 1543 0633 15       		.uleb128 0x15
 1544 0634 E7090000 		.4byte	.LASF96
 1545 0638 0A       		.sleb128 10
 1546 0639 15       		.uleb128 0x15
 1547 063a 90070000 		.4byte	.LASF97
 1548 063e 0B       		.sleb128 11
 1549 063f 15       		.uleb128 0x15
 1550 0640 0F070000 		.4byte	.LASF98
 1551 0644 0C       		.sleb128 12
 1552 0645 15       		.uleb128 0x15
 1553 0646 DE020000 		.4byte	.LASF99
 1554 064a 0D       		.sleb128 13
 1555 064b 15       		.uleb128 0x15
 1556 064c 3E090000 		.4byte	.LASF100
 1557 0650 0E       		.sleb128 14
 1558 0651 15       		.uleb128 0x15
 1559 0652 A0080000 		.4byte	.LASF101
 1560 0656 0F       		.sleb128 15
 1561 0657 15       		.uleb128 0x15
 1562 0658 AF040000 		.4byte	.LASF102
 1563 065c 10       		.sleb128 16
 1564 065d 15       		.uleb128 0x15
 1565 065e 58070000 		.4byte	.LASF103
 1566 0662 11       		.sleb128 17
 1567 0663 15       		.uleb128 0x15
 1568 0664 5A080000 		.4byte	.LASF104
 1569 0668 12       		.sleb128 18
 1570 0669 15       		.uleb128 0x15
 1571 066a A2040000 		.4byte	.LASF105
 1572 066e 13       		.sleb128 19
 1573 066f 15       		.uleb128 0x15
 1574 0670 CA030000 		.4byte	.LASF106
 1575 0674 14       		.sleb128 20
 1576 0675 15       		.uleb128 0x15
 1577 0676 B8090000 		.4byte	.LASF107
 1578 067a 15       		.sleb128 21
 1579 067b 15       		.uleb128 0x15
 1580 067c 63050000 		.4byte	.LASF108
 1581 0680 16       		.sleb128 22
 1582 0681 15       		.uleb128 0x15
 1583 0682 D3090000 		.4byte	.LASF109
 1584 0686 17       		.sleb128 23
 1585 0687 15       		.uleb128 0x15
 1586 0688 D8050000 		.4byte	.LASF110
ARM GAS  /tmp/ccft4r9u.s 			page 29


 1587 068c 18       		.sleb128 24
 1588 068d 15       		.uleb128 0x15
 1589 068e 57090000 		.4byte	.LASF111
 1590 0692 19       		.sleb128 25
 1591 0693 15       		.uleb128 0x15
 1592 0694 21020000 		.4byte	.LASF112
 1593 0698 1A       		.sleb128 26
 1594 0699 15       		.uleb128 0x15
 1595 069a 7C040000 		.4byte	.LASF113
 1596 069e 1B       		.sleb128 27
 1597 069f 15       		.uleb128 0x15
 1598 06a0 16010000 		.4byte	.LASF114
 1599 06a4 1C       		.sleb128 28
 1600 06a5 15       		.uleb128 0x15
 1601 06a6 21080000 		.4byte	.LASF115
 1602 06aa 1D       		.sleb128 29
 1603 06ab 15       		.uleb128 0x15
 1604 06ac 37040000 		.4byte	.LASF116
 1605 06b0 1E       		.sleb128 30
 1606 06b1 15       		.uleb128 0x15
 1607 06b2 52040000 		.4byte	.LASF117
 1608 06b6 1F       		.sleb128 31
 1609 06b7 15       		.uleb128 0x15
 1610 06b8 3F030000 		.4byte	.LASF118
 1611 06bc 20       		.sleb128 32
 1612 06bd 15       		.uleb128 0x15
 1613 06be E5060000 		.4byte	.LASF119
 1614 06c2 21       		.sleb128 33
 1615 06c3 15       		.uleb128 0x15
 1616 06c4 9E050000 		.4byte	.LASF120
 1617 06c8 22       		.sleb128 34
 1618 06c9 15       		.uleb128 0x15
 1619 06ca 3B060000 		.4byte	.LASF121
 1620 06ce 23       		.sleb128 35
 1621 06cf 15       		.uleb128 0x15
 1622 06d0 17060000 		.4byte	.LASF122
 1623 06d4 24       		.sleb128 36
 1624 06d5 15       		.uleb128 0x15
 1625 06d6 2B080000 		.4byte	.LASF123
 1626 06da 25       		.sleb128 37
 1627 06db 15       		.uleb128 0x15
 1628 06dc 41040000 		.4byte	.LASF124
 1629 06e0 26       		.sleb128 38
 1630 06e1 15       		.uleb128 0x15
 1631 06e2 68020000 		.4byte	.LASF125
 1632 06e6 27       		.sleb128 39
 1633 06e7 15       		.uleb128 0x15
 1634 06e8 E4070000 		.4byte	.LASF126
 1635 06ec 28       		.sleb128 40
 1636 06ed 15       		.uleb128 0x15
 1637 06ee B6070000 		.4byte	.LASF127
 1638 06f2 29       		.sleb128 41
 1639 06f3 15       		.uleb128 0x15
 1640 06f4 A4060000 		.4byte	.LASF128
 1641 06f8 2A       		.sleb128 42
 1642 06f9 15       		.uleb128 0x15
 1643 06fa 83010000 		.4byte	.LASF129
ARM GAS  /tmp/ccft4r9u.s 			page 30


 1644 06fe 2B       		.sleb128 43
 1645 06ff 15       		.uleb128 0x15
 1646 0700 07000000 		.4byte	.LASF130
 1647 0704 2C       		.sleb128 44
 1648 0705 15       		.uleb128 0x15
 1649 0706 C1040000 		.4byte	.LASF131
 1650 070a 2D       		.sleb128 45
 1651 070b 15       		.uleb128 0x15
 1652 070c 110A0000 		.4byte	.LASF132
 1653 0710 2E       		.sleb128 46
 1654 0711 15       		.uleb128 0x15
 1655 0712 5D0A0000 		.4byte	.LASF133
 1656 0716 2F       		.sleb128 47
 1657 0717 15       		.uleb128 0x15
 1658 0718 0B050000 		.4byte	.LASF134
 1659 071c 30       		.sleb128 48
 1660 071d 15       		.uleb128 0x15
 1661 071e 1E0A0000 		.4byte	.LASF135
 1662 0722 31       		.sleb128 49
 1663 0723 15       		.uleb128 0x15
 1664 0724 7E030000 		.4byte	.LASF136
 1665 0728 32       		.sleb128 50
 1666 0729 15       		.uleb128 0x15
 1667 072a DC000000 		.4byte	.LASF137
 1668 072e 33       		.sleb128 51
 1669 072f 15       		.uleb128 0x15
 1670 0730 63060000 		.4byte	.LASF138
 1671 0734 34       		.sleb128 52
 1672 0735 15       		.uleb128 0x15
 1673 0736 CD050000 		.4byte	.LASF139
 1674 073a 35       		.sleb128 53
 1675 073b 15       		.uleb128 0x15
 1676 073c CF060000 		.4byte	.LASF140
 1677 0740 36       		.sleb128 54
 1678 0741 15       		.uleb128 0x15
 1679 0742 F1050000 		.4byte	.LASF141
 1680 0746 37       		.sleb128 55
 1681 0747 15       		.uleb128 0x15
 1682 0748 8C060000 		.4byte	.LASF142
 1683 074c 38       		.sleb128 56
 1684 074d 15       		.uleb128 0x15
 1685 074e 78000000 		.4byte	.LASF143
 1686 0752 39       		.sleb128 57
 1687 0753 15       		.uleb128 0x15
 1688 0754 9E0A0000 		.4byte	.LASF144
 1689 0758 3A       		.sleb128 58
 1690 0759 15       		.uleb128 0x15
 1691 075a 2D070000 		.4byte	.LASF145
 1692 075e 3B       		.sleb128 59
 1693 075f 15       		.uleb128 0x15
 1694 0760 12030000 		.4byte	.LASF146
 1695 0764 3C       		.sleb128 60
 1696 0765 15       		.uleb128 0x15
 1697 0766 07090000 		.4byte	.LASF147
 1698 076a 3D       		.sleb128 61
 1699 076b 15       		.uleb128 0x15
 1700 076c 09060000 		.4byte	.LASF148
ARM GAS  /tmp/ccft4r9u.s 			page 31


 1701 0770 3E       		.sleb128 62
 1702 0771 15       		.uleb128 0x15
 1703 0772 3F070000 		.4byte	.LASF149
 1704 0776 3F       		.sleb128 63
 1705 0777 15       		.uleb128 0x15
 1706 0778 3A010000 		.4byte	.LASF150
 1707 077c C000     		.sleb128 64
 1708 077e 15       		.uleb128 0x15
 1709 077f 4C080000 		.4byte	.LASF151
 1710 0783 C100     		.sleb128 65
 1711 0785 15       		.uleb128 0x15
 1712 0786 4C030000 		.4byte	.LASF152
 1713 078a C200     		.sleb128 66
 1714 078c 15       		.uleb128 0x15
 1715 078d EB040000 		.4byte	.LASF153
 1716 0791 C300     		.sleb128 67
 1717 0793 15       		.uleb128 0x15
 1718 0794 FC010000 		.4byte	.LASF154
 1719 0798 C400     		.sleb128 68
 1720 079a 15       		.uleb128 0x15
 1721 079b BC080000 		.4byte	.LASF155
 1722 079f C500     		.sleb128 69
 1723 07a1 15       		.uleb128 0x15
 1724 07a2 7E070000 		.4byte	.LASF156
 1725 07a6 C600     		.sleb128 70
 1726 07a8 15       		.uleb128 0x15
 1727 07a9 48010000 		.4byte	.LASF157
 1728 07ad C700     		.sleb128 71
 1729 07af 15       		.uleb128 0x15
 1730 07b0 F1080000 		.4byte	.LASF158
 1731 07b4 C800     		.sleb128 72
 1732 07b6 15       		.uleb128 0x15
 1733 07b7 CD070000 		.4byte	.LASF159
 1734 07bb C900     		.sleb128 73
 1735 07bd 15       		.uleb128 0x15
 1736 07be 7F090000 		.4byte	.LASF160
 1737 07c2 CA00     		.sleb128 74
 1738 07c4 15       		.uleb128 0x15
 1739 07c5 4A0A0000 		.4byte	.LASF161
 1740 07c9 CB00     		.sleb128 75
 1741 07cb 15       		.uleb128 0x15
 1742 07cc 65010000 		.4byte	.LASF162
 1743 07d0 CC00     		.sleb128 76
 1744 07d2 15       		.uleb128 0x15
 1745 07d3 21060000 		.4byte	.LASF163
 1746 07d7 CD00     		.sleb128 77
 1747 07d9 15       		.uleb128 0x15
 1748 07da F1000000 		.4byte	.LASF164
 1749 07de CE00     		.sleb128 78
 1750 07e0 15       		.uleb128 0x15
 1751 07e1 DA070000 		.4byte	.LASF165
 1752 07e5 CF00     		.sleb128 79
 1753 07e7 15       		.uleb128 0x15
 1754 07e8 89040000 		.4byte	.LASF166
 1755 07ec D000     		.sleb128 80
 1756 07ee 15       		.uleb128 0x15
 1757 07ef 5A060000 		.4byte	.LASF167
ARM GAS  /tmp/ccft4r9u.s 			page 32


 1758 07f3 D100     		.sleb128 81
 1759 07f5 00       		.byte	0
 1760 07f6 16       		.uleb128 0x16
 1761 07f7 86000000 		.4byte	0x86
 1762 07fb 06080000 		.4byte	0x806
 1763 07ff 17       		.uleb128 0x17
 1764 0800 5B030000 		.4byte	0x35b
 1765 0804 01       		.byte	0x1
 1766 0805 00       		.byte	0
 1767 0806 0D       		.uleb128 0xd
 1768 0807 62000000 		.4byte	0x62
 1769 080b 0D       		.uleb128 0xd
 1770 080c 74000000 		.4byte	0x74
 1771 0810 18       		.uleb128 0x18
 1772 0811 88       		.byte	0x88
 1773 0812 0B       		.byte	0xb
 1774 0813 DB02     		.2byte	0x2db
 1775 0815 DD090000 		.4byte	0x9dd
 1776 0819 0C       		.uleb128 0xc
 1777 081a 435200   		.ascii	"CR\000"
 1778 081d 0B       		.byte	0xb
 1779 081e DD02     		.2byte	0x2dd
 1780 0820 56030000 		.4byte	0x356
 1781 0824 02       		.byte	0x2
 1782 0825 23       		.byte	0x23
 1783 0826 00       		.uleb128 0
 1784 0827 19       		.uleb128 0x19
 1785 0828 C5050000 		.4byte	.LASF168
 1786 082c 0B       		.byte	0xb
 1787 082d DE02     		.2byte	0x2de
 1788 082f 56030000 		.4byte	0x356
 1789 0833 02       		.byte	0x2
 1790 0834 23       		.byte	0x23
 1791 0835 04       		.uleb128 0x4
 1792 0836 19       		.uleb128 0x19
 1793 0837 77040000 		.4byte	.LASF169
 1794 083b 0B       		.byte	0xb
 1795 083c DF02     		.2byte	0x2df
 1796 083e 56030000 		.4byte	0x356
 1797 0842 02       		.byte	0x2
 1798 0843 23       		.byte	0x23
 1799 0844 08       		.uleb128 0x8
 1800 0845 0C       		.uleb128 0xc
 1801 0846 43495200 		.ascii	"CIR\000"
 1802 084a 0B       		.byte	0xb
 1803 084b E002     		.2byte	0x2e0
 1804 084d 56030000 		.4byte	0x356
 1805 0851 02       		.byte	0x2
 1806 0852 23       		.byte	0x23
 1807 0853 0C       		.uleb128 0xc
 1808 0854 19       		.uleb128 0x19
 1809 0855 6F0A0000 		.4byte	.LASF170
 1810 0859 0B       		.byte	0xb
 1811 085a E102     		.2byte	0x2e1
 1812 085c 56030000 		.4byte	0x356
 1813 0860 02       		.byte	0x2
 1814 0861 23       		.byte	0x23
ARM GAS  /tmp/ccft4r9u.s 			page 33


 1815 0862 10       		.uleb128 0x10
 1816 0863 19       		.uleb128 0x19
 1817 0864 FE080000 		.4byte	.LASF171
 1818 0868 0B       		.byte	0xb
 1819 0869 E202     		.2byte	0x2e2
 1820 086b 56030000 		.4byte	0x356
 1821 086f 02       		.byte	0x2
 1822 0870 23       		.byte	0x23
 1823 0871 14       		.uleb128 0x14
 1824 0872 19       		.uleb128 0x19
 1825 0873 6A070000 		.4byte	.LASF172
 1826 0877 0B       		.byte	0xb
 1827 0878 E302     		.2byte	0x2e3
 1828 087a 56030000 		.4byte	0x356
 1829 087e 02       		.byte	0x2
 1830 087f 23       		.byte	0x23
 1831 0880 18       		.uleb128 0x18
 1832 0881 19       		.uleb128 0x19
 1833 0882 F0020000 		.4byte	.LASF173
 1834 0886 0B       		.byte	0xb
 1835 0887 E402     		.2byte	0x2e4
 1836 0889 86000000 		.4byte	0x86
 1837 088d 02       		.byte	0x2
 1838 088e 23       		.byte	0x23
 1839 088f 1C       		.uleb128 0x1c
 1840 0890 19       		.uleb128 0x19
 1841 0891 A2070000 		.4byte	.LASF174
 1842 0895 0B       		.byte	0xb
 1843 0896 E502     		.2byte	0x2e5
 1844 0898 56030000 		.4byte	0x356
 1845 089c 02       		.byte	0x2
 1846 089d 23       		.byte	0x23
 1847 089e 20       		.uleb128 0x20
 1848 089f 19       		.uleb128 0x19
 1849 08a0 51060000 		.4byte	.LASF175
 1850 08a4 0B       		.byte	0xb
 1851 08a5 E602     		.2byte	0x2e6
 1852 08a7 56030000 		.4byte	0x356
 1853 08ab 02       		.byte	0x2
 1854 08ac 23       		.byte	0x23
 1855 08ad 24       		.uleb128 0x24
 1856 08ae 19       		.uleb128 0x19
 1857 08af FA020000 		.4byte	.LASF176
 1858 08b3 0B       		.byte	0xb
 1859 08b4 E702     		.2byte	0x2e7
 1860 08b6 F6070000 		.4byte	0x7f6
 1861 08ba 02       		.byte	0x2
 1862 08bb 23       		.byte	0x23
 1863 08bc 28       		.uleb128 0x28
 1864 08bd 19       		.uleb128 0x19
 1865 08be CE080000 		.4byte	.LASF177
 1866 08c2 0B       		.byte	0xb
 1867 08c3 E802     		.2byte	0x2e8
 1868 08c5 56030000 		.4byte	0x356
 1869 08c9 02       		.byte	0x2
 1870 08ca 23       		.byte	0x23
 1871 08cb 30       		.uleb128 0x30
ARM GAS  /tmp/ccft4r9u.s 			page 34


 1872 08cc 19       		.uleb128 0x19
 1873 08cd AE030000 		.4byte	.LASF178
 1874 08d1 0B       		.byte	0xb
 1875 08d2 E902     		.2byte	0x2e9
 1876 08d4 56030000 		.4byte	0x356
 1877 08d8 02       		.byte	0x2
 1878 08d9 23       		.byte	0x23
 1879 08da 34       		.uleb128 0x34
 1880 08db 19       		.uleb128 0x19
 1881 08dc 960A0000 		.4byte	.LASF179
 1882 08e0 0B       		.byte	0xb
 1883 08e1 EA02     		.2byte	0x2ea
 1884 08e3 56030000 		.4byte	0x356
 1885 08e7 02       		.byte	0x2
 1886 08e8 23       		.byte	0x23
 1887 08e9 38       		.uleb128 0x38
 1888 08ea 19       		.uleb128 0x19
 1889 08eb 6A030000 		.4byte	.LASF180
 1890 08ef 0B       		.byte	0xb
 1891 08f0 EB02     		.2byte	0x2eb
 1892 08f2 86000000 		.4byte	0x86
 1893 08f6 02       		.byte	0x2
 1894 08f7 23       		.byte	0x23
 1895 08f8 3C       		.uleb128 0x3c
 1896 08f9 19       		.uleb128 0x19
 1897 08fa C5070000 		.4byte	.LASF181
 1898 08fe 0B       		.byte	0xb
 1899 08ff EC02     		.2byte	0x2ec
 1900 0901 56030000 		.4byte	0x356
 1901 0905 02       		.byte	0x2
 1902 0906 23       		.byte	0x23
 1903 0907 40       		.uleb128 0x40
 1904 0908 19       		.uleb128 0x19
 1905 0909 49020000 		.4byte	.LASF182
 1906 090d 0B       		.byte	0xb
 1907 090e ED02     		.2byte	0x2ed
 1908 0910 56030000 		.4byte	0x356
 1909 0914 02       		.byte	0x2
 1910 0915 23       		.byte	0x23
 1911 0916 44       		.uleb128 0x44
 1912 0917 19       		.uleb128 0x19
 1913 0918 74030000 		.4byte	.LASF183
 1914 091c 0B       		.byte	0xb
 1915 091d EE02     		.2byte	0x2ee
 1916 091f F6070000 		.4byte	0x7f6
 1917 0923 02       		.byte	0x2
 1918 0924 23       		.byte	0x23
 1919 0925 48       		.uleb128 0x48
 1920 0926 19       		.uleb128 0x19
 1921 0927 51020000 		.4byte	.LASF184
 1922 092b 0B       		.byte	0xb
 1923 092c EF02     		.2byte	0x2ef
 1924 092e 56030000 		.4byte	0x356
 1925 0932 02       		.byte	0x2
 1926 0933 23       		.byte	0x23
 1927 0934 50       		.uleb128 0x50
 1928 0935 19       		.uleb128 0x19
ARM GAS  /tmp/ccft4r9u.s 			page 35


 1929 0936 97010000 		.4byte	.LASF185
 1930 093a 0B       		.byte	0xb
 1931 093b F002     		.2byte	0x2f0
 1932 093d 56030000 		.4byte	0x356
 1933 0941 02       		.byte	0x2
 1934 0942 23       		.byte	0x23
 1935 0943 54       		.uleb128 0x54
 1936 0944 19       		.uleb128 0x19
 1937 0945 63080000 		.4byte	.LASF186
 1938 0949 0B       		.byte	0xb
 1939 094a F102     		.2byte	0x2f1
 1940 094c 56030000 		.4byte	0x356
 1941 0950 02       		.byte	0x2
 1942 0951 23       		.byte	0x23
 1943 0952 58       		.uleb128 0x58
 1944 0953 19       		.uleb128 0x19
 1945 0954 24030000 		.4byte	.LASF187
 1946 0958 0B       		.byte	0xb
 1947 0959 F202     		.2byte	0x2f2
 1948 095b 86000000 		.4byte	0x86
 1949 095f 02       		.byte	0x2
 1950 0960 23       		.byte	0x23
 1951 0961 5C       		.uleb128 0x5c
 1952 0962 19       		.uleb128 0x19
 1953 0963 05070000 		.4byte	.LASF188
 1954 0967 0B       		.byte	0xb
 1955 0968 F302     		.2byte	0x2f3
 1956 096a 56030000 		.4byte	0x356
 1957 096e 02       		.byte	0x2
 1958 096f 23       		.byte	0x23
 1959 0970 60       		.uleb128 0x60
 1960 0971 19       		.uleb128 0x19
 1961 0972 6E060000 		.4byte	.LASF189
 1962 0976 0B       		.byte	0xb
 1963 0977 F402     		.2byte	0x2f4
 1964 0979 56030000 		.4byte	0x356
 1965 097d 02       		.byte	0x2
 1966 097e 23       		.byte	0x23
 1967 097f 64       		.uleb128 0x64
 1968 0980 19       		.uleb128 0x19
 1969 0981 88030000 		.4byte	.LASF190
 1970 0985 0B       		.byte	0xb
 1971 0986 F502     		.2byte	0x2f5
 1972 0988 F6070000 		.4byte	0x7f6
 1973 098c 02       		.byte	0x2
 1974 098d 23       		.byte	0x23
 1975 098e 68       		.uleb128 0x68
 1976 098f 19       		.uleb128 0x19
 1977 0990 4D040000 		.4byte	.LASF191
 1978 0994 0B       		.byte	0xb
 1979 0995 F602     		.2byte	0x2f6
 1980 0997 56030000 		.4byte	0x356
 1981 099b 02       		.byte	0x2
 1982 099c 23       		.byte	0x23
 1983 099d 70       		.uleb128 0x70
 1984 099e 0C       		.uleb128 0xc
 1985 099f 43535200 		.ascii	"CSR\000"
ARM GAS  /tmp/ccft4r9u.s 			page 36


 1986 09a3 0B       		.byte	0xb
 1987 09a4 F702     		.2byte	0x2f7
 1988 09a6 56030000 		.4byte	0x356
 1989 09aa 02       		.byte	0x2
 1990 09ab 23       		.byte	0x23
 1991 09ac 74       		.uleb128 0x74
 1992 09ad 19       		.uleb128 0x19
 1993 09ae 35030000 		.4byte	.LASF192
 1994 09b2 0B       		.byte	0xb
 1995 09b3 F802     		.2byte	0x2f8
 1996 09b5 F6070000 		.4byte	0x7f6
 1997 09b9 02       		.byte	0x2
 1998 09ba 23       		.byte	0x23
 1999 09bb 78       		.uleb128 0x78
 2000 09bc 19       		.uleb128 0x19
 2001 09bd 35060000 		.4byte	.LASF193
 2002 09c1 0B       		.byte	0xb
 2003 09c2 F902     		.2byte	0x2f9
 2004 09c4 56030000 		.4byte	0x356
 2005 09c8 03       		.byte	0x3
 2006 09c9 23       		.byte	0x23
 2007 09ca 8001     		.uleb128 0x80
 2008 09cc 19       		.uleb128 0x19
 2009 09cd 2D000000 		.4byte	.LASF194
 2010 09d1 0B       		.byte	0xb
 2011 09d2 FA02     		.2byte	0x2fa
 2012 09d4 56030000 		.4byte	0x356
 2013 09d8 03       		.byte	0x3
 2014 09d9 23       		.byte	0x23
 2015 09da 8401     		.uleb128 0x84
 2016 09dc 00       		.byte	0
 2017 09dd 1A       		.uleb128 0x1a
 2018 09de 18090000 		.4byte	.LASF195
 2019 09e2 0B       		.byte	0xb
 2020 09e3 FB02     		.2byte	0x2fb
 2021 09e5 10080000 		.4byte	0x810
 2022 09e9 18       		.uleb128 0x18
 2023 09ea 1C       		.byte	0x1c
 2024 09eb 0B       		.byte	0xb
 2025 09ec 9303     		.2byte	0x393
 2026 09ee C30A0000 		.4byte	0xac3
 2027 09f2 0C       		.uleb128 0xc
 2028 09f3 535200   		.ascii	"SR\000"
 2029 09f6 0B       		.byte	0xb
 2030 09f7 9503     		.2byte	0x395
 2031 09f9 06080000 		.4byte	0x806
 2032 09fd 02       		.byte	0x2
 2033 09fe 23       		.byte	0x23
 2034 09ff 00       		.uleb128 0
 2035 0a00 19       		.uleb128 0x19
 2036 0a01 F0020000 		.4byte	.LASF173
 2037 0a05 0B       		.byte	0xb
 2038 0a06 9603     		.2byte	0x396
 2039 0a08 62000000 		.4byte	0x62
 2040 0a0c 02       		.byte	0x2
 2041 0a0d 23       		.byte	0x23
 2042 0a0e 02       		.uleb128 0x2
ARM GAS  /tmp/ccft4r9u.s 			page 37


 2043 0a0f 0C       		.uleb128 0xc
 2044 0a10 445200   		.ascii	"DR\000"
 2045 0a13 0B       		.byte	0xb
 2046 0a14 9703     		.2byte	0x397
 2047 0a16 06080000 		.4byte	0x806
 2048 0a1a 02       		.byte	0x2
 2049 0a1b 23       		.byte	0x23
 2050 0a1c 04       		.uleb128 0x4
 2051 0a1d 19       		.uleb128 0x19
 2052 0a1e FA020000 		.4byte	.LASF176
 2053 0a22 0B       		.byte	0xb
 2054 0a23 9803     		.2byte	0x398
 2055 0a25 62000000 		.4byte	0x62
 2056 0a29 02       		.byte	0x2
 2057 0a2a 23       		.byte	0x23
 2058 0a2b 06       		.uleb128 0x6
 2059 0a2c 0C       		.uleb128 0xc
 2060 0a2d 42525200 		.ascii	"BRR\000"
 2061 0a31 0B       		.byte	0xb
 2062 0a32 9903     		.2byte	0x399
 2063 0a34 06080000 		.4byte	0x806
 2064 0a38 02       		.byte	0x2
 2065 0a39 23       		.byte	0x23
 2066 0a3a 08       		.uleb128 0x8
 2067 0a3b 19       		.uleb128 0x19
 2068 0a3c 6A030000 		.4byte	.LASF180
 2069 0a40 0B       		.byte	0xb
 2070 0a41 9A03     		.2byte	0x39a
 2071 0a43 62000000 		.4byte	0x62
 2072 0a47 02       		.byte	0x2
 2073 0a48 23       		.byte	0x23
 2074 0a49 0A       		.uleb128 0xa
 2075 0a4a 0C       		.uleb128 0xc
 2076 0a4b 43523100 		.ascii	"CR1\000"
 2077 0a4f 0B       		.byte	0xb
 2078 0a50 9B03     		.2byte	0x39b
 2079 0a52 06080000 		.4byte	0x806
 2080 0a56 02       		.byte	0x2
 2081 0a57 23       		.byte	0x23
 2082 0a58 0C       		.uleb128 0xc
 2083 0a59 19       		.uleb128 0x19
 2084 0a5a 74030000 		.4byte	.LASF183
 2085 0a5e 0B       		.byte	0xb
 2086 0a5f 9C03     		.2byte	0x39c
 2087 0a61 62000000 		.4byte	0x62
 2088 0a65 02       		.byte	0x2
 2089 0a66 23       		.byte	0x23
 2090 0a67 0E       		.uleb128 0xe
 2091 0a68 0C       		.uleb128 0xc
 2092 0a69 43523200 		.ascii	"CR2\000"
 2093 0a6d 0B       		.byte	0xb
 2094 0a6e 9D03     		.2byte	0x39d
 2095 0a70 06080000 		.4byte	0x806
 2096 0a74 02       		.byte	0x2
 2097 0a75 23       		.byte	0x23
 2098 0a76 10       		.uleb128 0x10
 2099 0a77 19       		.uleb128 0x19
ARM GAS  /tmp/ccft4r9u.s 			page 38


 2100 0a78 24030000 		.4byte	.LASF187
 2101 0a7c 0B       		.byte	0xb
 2102 0a7d 9E03     		.2byte	0x39e
 2103 0a7f 62000000 		.4byte	0x62
 2104 0a83 02       		.byte	0x2
 2105 0a84 23       		.byte	0x23
 2106 0a85 12       		.uleb128 0x12
 2107 0a86 0C       		.uleb128 0xc
 2108 0a87 43523300 		.ascii	"CR3\000"
 2109 0a8b 0B       		.byte	0xb
 2110 0a8c 9F03     		.2byte	0x39f
 2111 0a8e 06080000 		.4byte	0x806
 2112 0a92 02       		.byte	0x2
 2113 0a93 23       		.byte	0x23
 2114 0a94 14       		.uleb128 0x14
 2115 0a95 19       		.uleb128 0x19
 2116 0a96 88030000 		.4byte	.LASF190
 2117 0a9a 0B       		.byte	0xb
 2118 0a9b A003     		.2byte	0x3a0
 2119 0a9d 62000000 		.4byte	0x62
 2120 0aa1 02       		.byte	0x2
 2121 0aa2 23       		.byte	0x23
 2122 0aa3 16       		.uleb128 0x16
 2123 0aa4 19       		.uleb128 0x19
 2124 0aa5 6D000000 		.4byte	.LASF196
 2125 0aa9 0B       		.byte	0xb
 2126 0aaa A103     		.2byte	0x3a1
 2127 0aac 06080000 		.4byte	0x806
 2128 0ab0 02       		.byte	0x2
 2129 0ab1 23       		.byte	0x23
 2130 0ab2 18       		.uleb128 0x18
 2131 0ab3 19       		.uleb128 0x19
 2132 0ab4 35030000 		.4byte	.LASF192
 2133 0ab8 0B       		.byte	0xb
 2134 0ab9 A203     		.2byte	0x3a2
 2135 0abb 62000000 		.4byte	0x62
 2136 0abf 02       		.byte	0x2
 2137 0ac0 23       		.byte	0x23
 2138 0ac1 1A       		.uleb128 0x1a
 2139 0ac2 00       		.byte	0
 2140 0ac3 1A       		.uleb128 0x1a
 2141 0ac4 1D040000 		.4byte	.LASF197
 2142 0ac8 0B       		.byte	0xb
 2143 0ac9 A303     		.2byte	0x3a3
 2144 0acb E9090000 		.4byte	0x9e9
 2145 0acf 11       		.uleb128 0x11
 2146 0ad0 01       		.byte	0x1
 2147 0ad1 E4000000 		.4byte	0xe4
 2148 0ad5 E90A0000 		.4byte	0xae9
 2149 0ad9 12       		.uleb128 0x12
 2150 0ada A3020000 		.4byte	0x2a3
 2151 0ade 12       		.uleb128 0x12
 2152 0adf 49000000 		.4byte	0x49
 2153 0ae3 12       		.uleb128 0x12
 2154 0ae4 05010000 		.4byte	0x105
 2155 0ae8 00       		.byte	0
 2156 0ae9 09       		.uleb128 0x9
ARM GAS  /tmp/ccft4r9u.s 			page 39


 2157 0aea 04       		.byte	0x4
 2158 0aeb CF0A0000 		.4byte	0xacf
 2159 0aef 11       		.uleb128 0x11
 2160 0af0 01       		.byte	0x1
 2161 0af1 E4000000 		.4byte	0xe4
 2162 0af5 040B0000 		.4byte	0xb04
 2163 0af9 12       		.uleb128 0x12
 2164 0afa A3020000 		.4byte	0x2a3
 2165 0afe 12       		.uleb128 0x12
 2166 0aff 05010000 		.4byte	0x105
 2167 0b03 00       		.byte	0
 2168 0b04 09       		.uleb128 0x9
 2169 0b05 04       		.byte	0x4
 2170 0b06 EF0A0000 		.4byte	0xaef
 2171 0b0a 11       		.uleb128 0x11
 2172 0b0b 01       		.byte	0x1
 2173 0b0c 30000000 		.4byte	0x30
 2174 0b10 290B0000 		.4byte	0xb29
 2175 0b14 12       		.uleb128 0x12
 2176 0b15 A3020000 		.4byte	0x2a3
 2177 0b19 12       		.uleb128 0x12
 2178 0b1a 6F050000 		.4byte	0x56f
 2179 0b1e 12       		.uleb128 0x12
 2180 0b1f 30000000 		.4byte	0x30
 2181 0b23 12       		.uleb128 0x12
 2182 0b24 05010000 		.4byte	0x105
 2183 0b28 00       		.byte	0
 2184 0b29 09       		.uleb128 0x9
 2185 0b2a 04       		.byte	0x4
 2186 0b2b 0A0B0000 		.4byte	0xb0a
 2187 0b2f 11       		.uleb128 0x11
 2188 0b30 01       		.byte	0x1
 2189 0b31 30000000 		.4byte	0x30
 2190 0b35 4E0B0000 		.4byte	0xb4e
 2191 0b39 12       		.uleb128 0x12
 2192 0b3a A3020000 		.4byte	0x2a3
 2193 0b3e 12       		.uleb128 0x12
 2194 0b3f 39050000 		.4byte	0x539
 2195 0b43 12       		.uleb128 0x12
 2196 0b44 30000000 		.4byte	0x30
 2197 0b48 12       		.uleb128 0x12
 2198 0b49 05010000 		.4byte	0x105
 2199 0b4d 00       		.byte	0
 2200 0b4e 09       		.uleb128 0x9
 2201 0b4f 04       		.byte	0x4
 2202 0b50 2F0B0000 		.4byte	0xb2f
 2203 0b54 1B       		.uleb128 0x1b
 2204 0b55 01       		.byte	0x1
 2205 0b56 0C       		.byte	0xc
 2206 0b57 5D       		.byte	0x5d
 2207 0b58 6F0B0000 		.4byte	0xb6f
 2208 0b5c 15       		.uleb128 0x15
 2209 0b5d 5A030000 		.4byte	.LASF198
 2210 0b61 00       		.sleb128 0
 2211 0b62 15       		.uleb128 0x15
 2212 0b63 780A0000 		.4byte	.LASF199
 2213 0b67 01       		.sleb128 1
ARM GAS  /tmp/ccft4r9u.s 			page 40


 2214 0b68 15       		.uleb128 0x15
 2215 0b69 E8080000 		.4byte	.LASF200
 2216 0b6d 02       		.sleb128 2
 2217 0b6e 00       		.byte	0
 2218 0b6f 03       		.uleb128 0x3
 2219 0b70 B2080000 		.4byte	.LASF201
 2220 0b74 0C       		.byte	0xc
 2221 0b75 61       		.byte	0x61
 2222 0b76 540B0000 		.4byte	0xb54
 2223 0b7a 03       		.uleb128 0x3
 2224 0b7b 76080000 		.4byte	.LASF202
 2225 0b7f 0C       		.byte	0xc
 2226 0b80 66       		.byte	0x66
 2227 0b81 850B0000 		.4byte	0xb85
 2228 0b85 05       		.uleb128 0x5
 2229 0b86 76080000 		.4byte	.LASF202
 2230 0b8a 78       		.byte	0x78
 2231 0b8b 0C       		.byte	0xc
 2232 0b8c 80       		.byte	0x80
 2233 0b8d 000C0000 		.4byte	0xc00
 2234 0b91 07       		.uleb128 0x7
 2235 0b92 766D7400 		.ascii	"vmt\000"
 2236 0b96 0C       		.byte	0xc
 2237 0b97 82       		.byte	0x82
 2238 0b98 C90C0000 		.4byte	0xcc9
 2239 0b9c 02       		.byte	0x2
 2240 0b9d 23       		.byte	0x23
 2241 0b9e 00       		.uleb128 0
 2242 0b9f 06       		.uleb128 0x6
 2243 0ba0 9E060000 		.4byte	.LASF203
 2244 0ba4 0C       		.byte	0xc
 2245 0ba5 83       		.byte	0x83
 2246 0ba6 20040000 		.4byte	0x420
 2247 0baa 02       		.byte	0x2
 2248 0bab 23       		.byte	0x23
 2249 0bac 04       		.uleb128 0x4
 2250 0bad 06       		.uleb128 0x6
 2251 0bae 0B010000 		.4byte	.LASF204
 2252 0bb2 0C       		.byte	0xc
 2253 0bb3 83       		.byte	0x83
 2254 0bb4 6F0B0000 		.4byte	0xb6f
 2255 0bb8 02       		.byte	0x2
 2256 0bb9 23       		.byte	0x23
 2257 0bba 08       		.uleb128 0x8
 2258 0bbb 06       		.uleb128 0x6
 2259 0bbc 37090000 		.4byte	.LASF205
 2260 0bc0 0C       		.byte	0xc
 2261 0bc1 83       		.byte	0x83
 2262 0bc2 3F050000 		.4byte	0x53f
 2263 0bc6 02       		.byte	0x2
 2264 0bc7 23       		.byte	0x23
 2265 0bc8 0C       		.uleb128 0xc
 2266 0bc9 06       		.uleb128 0x6
 2267 0bca 39020000 		.4byte	.LASF206
 2268 0bce 0C       		.byte	0xc
 2269 0bcf 83       		.byte	0x83
 2270 0bd0 4A050000 		.4byte	0x54a
ARM GAS  /tmp/ccft4r9u.s 			page 41


 2271 0bd4 02       		.byte	0x2
 2272 0bd5 23       		.byte	0x23
 2273 0bd6 30       		.uleb128 0x30
 2274 0bd7 07       		.uleb128 0x7
 2275 0bd8 696200   		.ascii	"ib\000"
 2276 0bdb 0C       		.byte	0xc
 2277 0bdc 83       		.byte	0x83
 2278 0bdd D40C0000 		.4byte	0xcd4
 2279 0be1 02       		.byte	0x2
 2280 0be2 23       		.byte	0x23
 2281 0be3 54       		.uleb128 0x54
 2282 0be4 07       		.uleb128 0x7
 2283 0be5 6F6200   		.ascii	"ob\000"
 2284 0be8 0C       		.byte	0xc
 2285 0be9 83       		.byte	0x83
 2286 0bea D40C0000 		.4byte	0xcd4
 2287 0bee 02       		.byte	0x2
 2288 0bef 23       		.byte	0x23
 2289 0bf0 64       		.uleb128 0x64
 2290 0bf1 06       		.uleb128 0x6
 2291 0bf2 74020000 		.4byte	.LASF207
 2292 0bf6 0C       		.byte	0xc
 2293 0bf7 83       		.byte	0x83
 2294 0bf8 E40C0000 		.4byte	0xce4
 2295 0bfc 02       		.byte	0x2
 2296 0bfd 23       		.byte	0x23
 2297 0bfe 74       		.uleb128 0x74
 2298 0bff 00       		.byte	0
 2299 0c00 08       		.uleb128 0x8
 2300 0c01 0C       		.byte	0xc
 2301 0c02 0D       		.byte	0xd
 2302 0c03 D7       		.byte	0xd7
 2303 0c04 410C0000 		.4byte	0xc41
 2304 0c08 06       		.uleb128 0x6
 2305 0c09 66040000 		.4byte	.LASF208
 2306 0c0d 0D       		.byte	0xd
 2307 0c0e DB       		.byte	0xdb
 2308 0c0f 86000000 		.4byte	0x86
 2309 0c13 02       		.byte	0x2
 2310 0c14 23       		.byte	0x23
 2311 0c15 00       		.uleb128 0
 2312 0c16 07       		.uleb128 0x7
 2313 0c17 63723100 		.ascii	"cr1\000"
 2314 0c1b 0D       		.byte	0xd
 2315 0c1c E0       		.byte	0xe0
 2316 0c1d 62000000 		.4byte	0x62
 2317 0c21 02       		.byte	0x2
 2318 0c22 23       		.byte	0x23
 2319 0c23 04       		.uleb128 0x4
 2320 0c24 07       		.uleb128 0x7
 2321 0c25 63723200 		.ascii	"cr2\000"
 2322 0c29 0D       		.byte	0xd
 2323 0c2a E4       		.byte	0xe4
 2324 0c2b 62000000 		.4byte	0x62
 2325 0c2f 02       		.byte	0x2
 2326 0c30 23       		.byte	0x23
 2327 0c31 06       		.uleb128 0x6
ARM GAS  /tmp/ccft4r9u.s 			page 42


 2328 0c32 07       		.uleb128 0x7
 2329 0c33 63723300 		.ascii	"cr3\000"
 2330 0c37 0D       		.byte	0xd
 2331 0c38 E8       		.byte	0xe8
 2332 0c39 62000000 		.4byte	0x62
 2333 0c3d 02       		.byte	0x2
 2334 0c3e 23       		.byte	0x23
 2335 0c3f 08       		.uleb128 0x8
 2336 0c40 00       		.byte	0
 2337 0c41 03       		.uleb128 0x3
 2338 0c42 59000000 		.4byte	.LASF209
 2339 0c46 0D       		.byte	0xd
 2340 0c47 E9       		.byte	0xe9
 2341 0c48 000C0000 		.4byte	0xc00
 2342 0c4c 05       		.uleb128 0x5
 2343 0c4d 81050000 		.4byte	.LASF210
 2344 0c51 20       		.byte	0x20
 2345 0c52 0C       		.byte	0xc
 2346 0c53 75       		.byte	0x75
 2347 0c54 C90C0000 		.4byte	0xcc9
 2348 0c58 06       		.uleb128 0x6
 2349 0c59 72000000 		.4byte	.LASF211
 2350 0c5d 0C       		.byte	0xc
 2351 0c5e 76       		.byte	0x76
 2352 0c5f 7A050000 		.4byte	0x57a
 2353 0c63 02       		.byte	0x2
 2354 0c64 23       		.byte	0x23
 2355 0c65 00       		.uleb128 0
 2356 0c66 06       		.uleb128 0x6
 2357 0c67 BD060000 		.4byte	.LASF212
 2358 0c6b 0C       		.byte	0xc
 2359 0c6c 76       		.byte	0x76
 2360 0c6d 9A050000 		.4byte	0x59a
 2361 0c71 02       		.byte	0x2
 2362 0c72 23       		.byte	0x23
 2363 0c73 04       		.uleb128 0x4
 2364 0c74 07       		.uleb128 0x7
 2365 0c75 70757400 		.ascii	"put\000"
 2366 0c79 0C       		.byte	0xc
 2367 0c7a 76       		.byte	0x76
 2368 0c7b B5050000 		.4byte	0x5b5
 2369 0c7f 02       		.byte	0x2
 2370 0c80 23       		.byte	0x23
 2371 0c81 08       		.uleb128 0x8
 2372 0c82 07       		.uleb128 0x7
 2373 0c83 67657400 		.ascii	"get\000"
 2374 0c87 0C       		.byte	0xc
 2375 0c88 76       		.byte	0x76
 2376 0c89 78040000 		.4byte	0x478
 2377 0c8d 02       		.byte	0x2
 2378 0c8e 23       		.byte	0x23
 2379 0c8f 0C       		.uleb128 0xc
 2380 0c90 06       		.uleb128 0x6
 2381 0c91 11010000 		.4byte	.LASF213
 2382 0c95 0C       		.byte	0xc
 2383 0c96 76       		.byte	0x76
 2384 0c97 E90A0000 		.4byte	0xae9
ARM GAS  /tmp/ccft4r9u.s 			page 43


 2385 0c9b 02       		.byte	0x2
 2386 0c9c 23       		.byte	0x23
 2387 0c9d 10       		.uleb128 0x10
 2388 0c9e 06       		.uleb128 0x6
 2389 0c9f 18040000 		.4byte	.LASF214
 2390 0ca3 0C       		.byte	0xc
 2391 0ca4 76       		.byte	0x76
 2392 0ca5 040B0000 		.4byte	0xb04
 2393 0ca9 02       		.byte	0x2
 2394 0caa 23       		.byte	0x23
 2395 0cab 14       		.uleb128 0x14
 2396 0cac 06       		.uleb128 0x6
 2397 0cad 66000000 		.4byte	.LASF215
 2398 0cb1 0C       		.byte	0xc
 2399 0cb2 76       		.byte	0x76
 2400 0cb3 290B0000 		.4byte	0xb29
 2401 0cb7 02       		.byte	0x2
 2402 0cb8 23       		.byte	0x23
 2403 0cb9 18       		.uleb128 0x18
 2404 0cba 06       		.uleb128 0x6
 2405 0cbb A1010000 		.4byte	.LASF216
 2406 0cbf 0C       		.byte	0xc
 2407 0cc0 76       		.byte	0x76
 2408 0cc1 4E0B0000 		.4byte	0xb4e
 2409 0cc5 02       		.byte	0x2
 2410 0cc6 23       		.byte	0x23
 2411 0cc7 1C       		.uleb128 0x1c
 2412 0cc8 00       		.byte	0
 2413 0cc9 09       		.uleb128 0x9
 2414 0cca 04       		.byte	0x4
 2415 0ccb CF0C0000 		.4byte	0xccf
 2416 0ccf 10       		.uleb128 0x10
 2417 0cd0 4C0C0000 		.4byte	0xc4c
 2418 0cd4 16       		.uleb128 0x16
 2419 0cd5 49000000 		.4byte	0x49
 2420 0cd9 E40C0000 		.4byte	0xce4
 2421 0cdd 17       		.uleb128 0x17
 2422 0cde 5B030000 		.4byte	0x35b
 2423 0ce2 0F       		.byte	0xf
 2424 0ce3 00       		.byte	0
 2425 0ce4 09       		.uleb128 0x9
 2426 0ce5 04       		.byte	0x4
 2427 0ce6 C30A0000 		.4byte	0xac3
 2428 0cea 1C       		.uleb128 0x1c
 2429 0ceb AB070000 		.4byte	.LASF218
 2430 0cef 01       		.byte	0x1
 2431 0cf0 5C       		.byte	0x5c
 2432 0cf1 01       		.byte	0x1
 2433 0cf2 00000000 		.4byte	.LFB118
 2434 0cf6 9C000000 		.4byte	.LFE118
 2435 0cfa 00000000 		.4byte	.LLST0
 2436 0cfe 01       		.byte	0x1
 2437 0cff 2C0D0000 		.4byte	0xd2c
 2438 0d03 1D       		.uleb128 0x1d
 2439 0d04 73647000 		.ascii	"sdp\000"
 2440 0d08 01       		.byte	0x1
 2441 0d09 5C       		.byte	0x5c
ARM GAS  /tmp/ccft4r9u.s 			page 44


 2442 0d0a 2C0D0000 		.4byte	0xd2c
 2443 0d0e 02       		.byte	0x2
 2444 0d0f 91       		.byte	0x91
 2445 0d10 74       		.sleb128 -12
 2446 0d11 1E       		.uleb128 0x1e
 2447 0d12 04010000 		.4byte	.LASF217
 2448 0d16 01       		.byte	0x1
 2449 0d17 5C       		.byte	0x5c
 2450 0d18 320D0000 		.4byte	0xd32
 2451 0d1c 02       		.byte	0x2
 2452 0d1d 91       		.byte	0x91
 2453 0d1e 70       		.sleb128 -16
 2454 0d1f 1F       		.uleb128 0x1f
 2455 0d20 7500     		.ascii	"u\000"
 2456 0d22 01       		.byte	0x1
 2457 0d23 5D       		.byte	0x5d
 2458 0d24 E40C0000 		.4byte	0xce4
 2459 0d28 02       		.byte	0x2
 2460 0d29 91       		.byte	0x91
 2461 0d2a 7C       		.sleb128 -4
 2462 0d2b 00       		.byte	0
 2463 0d2c 09       		.uleb128 0x9
 2464 0d2d 04       		.byte	0x4
 2465 0d2e 7A0B0000 		.4byte	0xb7a
 2466 0d32 09       		.uleb128 0x9
 2467 0d33 04       		.byte	0x4
 2468 0d34 380D0000 		.4byte	0xd38
 2469 0d38 10       		.uleb128 0x10
 2470 0d39 410C0000 		.4byte	0xc41
 2471 0d3d 1C       		.uleb128 0x1c
 2472 0d3e 91050000 		.4byte	.LASF219
 2473 0d42 01       		.byte	0x1
 2474 0d43 7A       		.byte	0x7a
 2475 0d44 01       		.byte	0x1
 2476 0d45 00000000 		.4byte	.LFB119
 2477 0d49 20000000 		.4byte	.LFE119
 2478 0d4d 20000000 		.4byte	.LLST1
 2479 0d51 01       		.byte	0x1
 2480 0d52 630D0000 		.4byte	0xd63
 2481 0d56 1D       		.uleb128 0x1d
 2482 0d57 7500     		.ascii	"u\000"
 2483 0d59 01       		.byte	0x1
 2484 0d5a 7A       		.byte	0x7a
 2485 0d5b E40C0000 		.4byte	0xce4
 2486 0d5f 02       		.byte	0x2
 2487 0d60 91       		.byte	0x91
 2488 0d61 7C       		.sleb128 -4
 2489 0d62 00       		.byte	0
 2490 0d63 20       		.uleb128 0x20
 2491 0d64 30010000 		.4byte	.LASF220
 2492 0d68 01       		.byte	0x1
 2493 0d69 87       		.byte	0x87
 2494 0d6a 01       		.byte	0x1
 2495 0d6b 00000000 		.4byte	.LFB120
 2496 0d6f 84000000 		.4byte	.LFE120
 2497 0d73 40000000 		.4byte	.LLST2
 2498 0d77 01       		.byte	0x1
ARM GAS  /tmp/ccft4r9u.s 			page 45


 2499 0d78 D80D0000 		.4byte	0xdd8
 2500 0d7c 1D       		.uleb128 0x1d
 2501 0d7d 73647000 		.ascii	"sdp\000"
 2502 0d81 01       		.byte	0x1
 2503 0d82 87       		.byte	0x87
 2504 0d83 2C0D0000 		.4byte	0xd2c
 2505 0d87 02       		.byte	0x2
 2506 0d88 91       		.byte	0x91
 2507 0d89 6C       		.sleb128 -20
 2508 0d8a 1D       		.uleb128 0x1d
 2509 0d8b 737200   		.ascii	"sr\000"
 2510 0d8e 01       		.byte	0x1
 2511 0d8f 87       		.byte	0x87
 2512 0d90 62000000 		.4byte	0x62
 2513 0d94 02       		.byte	0x2
 2514 0d95 91       		.byte	0x91
 2515 0d96 6A       		.sleb128 -22
 2516 0d97 1F       		.uleb128 0x1f
 2517 0d98 73747300 		.ascii	"sts\000"
 2518 0d9c 01       		.byte	0x1
 2519 0d9d 88       		.byte	0x88
 2520 0d9e FA000000 		.4byte	0xfa
 2521 0da2 02       		.byte	0x2
 2522 0da3 91       		.byte	0x91
 2523 0da4 74       		.sleb128 -12
 2524 0da5 21       		.uleb128 0x21
 2525 0da6 62000000 		.4byte	.LBB2
 2526 0daa 6A000000 		.4byte	.LBE2
 2527 0dae C00D0000 		.4byte	0xdc0
 2528 0db2 1F       		.uleb128 0x1f
 2529 0db3 746D7000 		.ascii	"tmp\000"
 2530 0db7 01       		.byte	0x1
 2531 0db8 92       		.byte	0x92
 2532 0db9 86000000 		.4byte	0x86
 2533 0dbd 01       		.byte	0x1
 2534 0dbe 53       		.byte	0x53
 2535 0dbf 00       		.byte	0
 2536 0dc0 22       		.uleb128 0x22
 2537 0dc1 78000000 		.4byte	.LBB3
 2538 0dc5 80000000 		.4byte	.LBE3
 2539 0dc9 1F       		.uleb128 0x1f
 2540 0dca 746D7000 		.ascii	"tmp\000"
 2541 0dce 01       		.byte	0x1
 2542 0dcf 94       		.byte	0x94
 2543 0dd0 86000000 		.4byte	0x86
 2544 0dd4 01       		.byte	0x1
 2545 0dd5 53       		.byte	0x53
 2546 0dd6 00       		.byte	0
 2547 0dd7 00       		.byte	0
 2548 0dd8 20       		.uleb128 0x20
 2549 0dd9 20010000 		.4byte	.LASF221
 2550 0ddd 01       		.byte	0x1
 2551 0dde 9C       		.byte	0x9c
 2552 0ddf 01       		.byte	0x1
 2553 0de0 00000000 		.4byte	.LFB121
 2554 0de4 5C010000 		.4byte	.LFE121
 2555 0de8 6C000000 		.4byte	.LLST3
ARM GAS  /tmp/ccft4r9u.s 			page 46


 2556 0dec 01       		.byte	0x1
 2557 0ded 1E0F0000 		.4byte	0xf1e
 2558 0df1 1D       		.uleb128 0x1d
 2559 0df2 73647000 		.ascii	"sdp\000"
 2560 0df6 01       		.byte	0x1
 2561 0df7 9C       		.byte	0x9c
 2562 0df8 2C0D0000 		.4byte	0xd2c
 2563 0dfc 02       		.byte	0x2
 2564 0dfd 91       		.byte	0x91
 2565 0dfe 64       		.sleb128 -28
 2566 0dff 1F       		.uleb128 0x1f
 2567 0e00 7500     		.ascii	"u\000"
 2568 0e02 01       		.byte	0x1
 2569 0e03 9D       		.byte	0x9d
 2570 0e04 E40C0000 		.4byte	0xce4
 2571 0e08 02       		.byte	0x2
 2572 0e09 91       		.byte	0x91
 2573 0e0a 74       		.sleb128 -12
 2574 0e0b 1F       		.uleb128 0x1f
 2575 0e0c 63723100 		.ascii	"cr1\000"
 2576 0e10 01       		.byte	0x1
 2577 0e11 9E       		.byte	0x9e
 2578 0e12 62000000 		.4byte	0x62
 2579 0e16 02       		.byte	0x2
 2580 0e17 91       		.byte	0x91
 2581 0e18 72       		.sleb128 -14
 2582 0e19 1F       		.uleb128 0x1f
 2583 0e1a 737200   		.ascii	"sr\000"
 2584 0e1d 01       		.byte	0x1
 2585 0e1e 9F       		.byte	0x9f
 2586 0e1f 62000000 		.4byte	0x62
 2587 0e23 02       		.byte	0x2
 2588 0e24 91       		.byte	0x91
 2589 0e25 70       		.sleb128 -16
 2590 0e26 1F       		.uleb128 0x1f
 2591 0e27 647200   		.ascii	"dr\000"
 2592 0e2a 01       		.byte	0x1
 2593 0e2b A0       		.byte	0xa0
 2594 0e2c 62000000 		.4byte	0x62
 2595 0e30 02       		.byte	0x2
 2596 0e31 91       		.byte	0x91
 2597 0e32 6E       		.sleb128 -18
 2598 0e33 21       		.uleb128 0x21
 2599 0e34 48000000 		.4byte	.LBB4
 2600 0e38 50000000 		.4byte	.LBE4
 2601 0e3c 4E0E0000 		.4byte	0xe4e
 2602 0e40 1F       		.uleb128 0x1f
 2603 0e41 746D7000 		.ascii	"tmp\000"
 2604 0e45 01       		.byte	0x1
 2605 0e46 A7       		.byte	0xa7
 2606 0e47 86000000 		.4byte	0x86
 2607 0e4b 01       		.byte	0x1
 2608 0e4c 53       		.byte	0x53
 2609 0e4d 00       		.byte	0
 2610 0e4e 21       		.uleb128 0x21
 2611 0e4f 60000000 		.4byte	.LBB5
 2612 0e53 68000000 		.4byte	.LBE5
ARM GAS  /tmp/ccft4r9u.s 			page 47


 2613 0e57 690E0000 		.4byte	0xe69
 2614 0e5b 1F       		.uleb128 0x1f
 2615 0e5c 746D7000 		.ascii	"tmp\000"
 2616 0e60 01       		.byte	0x1
 2617 0e61 A9       		.byte	0xa9
 2618 0e62 86000000 		.4byte	0x86
 2619 0e66 01       		.byte	0x1
 2620 0e67 53       		.byte	0x53
 2621 0e68 00       		.byte	0
 2622 0e69 21       		.uleb128 0x21
 2623 0e6a 84000000 		.4byte	.LBB6
 2624 0e6e 8C000000 		.4byte	.LBE6
 2625 0e72 840E0000 		.4byte	0xe84
 2626 0e76 1F       		.uleb128 0x1f
 2627 0e77 746D7000 		.ascii	"tmp\000"
 2628 0e7b 01       		.byte	0x1
 2629 0e7c AE       		.byte	0xae
 2630 0e7d 86000000 		.4byte	0x86
 2631 0e81 01       		.byte	0x1
 2632 0e82 53       		.byte	0x53
 2633 0e83 00       		.byte	0
 2634 0e84 21       		.uleb128 0x21
 2635 0e85 9A000000 		.4byte	.LBB7
 2636 0e89 A2000000 		.4byte	.LBE7
 2637 0e8d 9F0E0000 		.4byte	0xe9f
 2638 0e91 1F       		.uleb128 0x1f
 2639 0e92 746D7000 		.ascii	"tmp\000"
 2640 0e96 01       		.byte	0x1
 2641 0e97 B0       		.byte	0xb0
 2642 0e98 86000000 		.4byte	0x86
 2643 0e9c 01       		.byte	0x1
 2644 0e9d 53       		.byte	0x53
 2645 0e9e 00       		.byte	0
 2646 0e9f 21       		.uleb128 0x21
 2647 0ea0 BA000000 		.4byte	.LBB8
 2648 0ea4 0E010000 		.4byte	.LBE8
 2649 0ea8 EB0E0000 		.4byte	0xeeb
 2650 0eac 1F       		.uleb128 0x1f
 2651 0ead 6200     		.ascii	"b\000"
 2652 0eaf 01       		.byte	0x1
 2653 0eb0 B4       		.byte	0xb4
 2654 0eb1 E4000000 		.4byte	0xe4
 2655 0eb5 02       		.byte	0x2
 2656 0eb6 91       		.byte	0x91
 2657 0eb7 68       		.sleb128 -24
 2658 0eb8 21       		.uleb128 0x21
 2659 0eb9 BA000000 		.4byte	.LBB9
 2660 0ebd C2000000 		.4byte	.LBE9
 2661 0ec1 D30E0000 		.4byte	0xed3
 2662 0ec5 1F       		.uleb128 0x1f
 2663 0ec6 746D7000 		.ascii	"tmp\000"
 2664 0eca 01       		.byte	0x1
 2665 0ecb B5       		.byte	0xb5
 2666 0ecc 86000000 		.4byte	0x86
 2667 0ed0 01       		.byte	0x1
 2668 0ed1 53       		.byte	0x53
 2669 0ed2 00       		.byte	0
ARM GAS  /tmp/ccft4r9u.s 			page 48


 2670 0ed3 22       		.uleb128 0x22
 2671 0ed4 06010000 		.4byte	.LBB10
 2672 0ed8 0E010000 		.4byte	.LBE10
 2673 0edc 1F       		.uleb128 0x1f
 2674 0edd 746D7000 		.ascii	"tmp\000"
 2675 0ee1 01       		.byte	0x1
 2676 0ee2 BD       		.byte	0xbd
 2677 0ee3 86000000 		.4byte	0x86
 2678 0ee7 01       		.byte	0x1
 2679 0ee8 53       		.byte	0x53
 2680 0ee9 00       		.byte	0
 2681 0eea 00       		.byte	0
 2682 0eeb 21       		.uleb128 0x21
 2683 0eec 1A010000 		.4byte	.LBB11
 2684 0ef0 22010000 		.4byte	.LBE11
 2685 0ef4 060F0000 		.4byte	0xf06
 2686 0ef8 1F       		.uleb128 0x1f
 2687 0ef9 746D7000 		.ascii	"tmp\000"
 2688 0efd 01       		.byte	0x1
 2689 0efe C1       		.byte	0xc1
 2690 0eff 86000000 		.4byte	0x86
 2691 0f03 01       		.byte	0x1
 2692 0f04 53       		.byte	0x53
 2693 0f05 00       		.byte	0
 2694 0f06 22       		.uleb128 0x22
 2695 0f07 32010000 		.4byte	.LBB12
 2696 0f0b 3A010000 		.4byte	.LBE12
 2697 0f0f 1F       		.uleb128 0x1f
 2698 0f10 746D7000 		.ascii	"tmp\000"
 2699 0f14 01       		.byte	0x1
 2700 0f15 C3       		.byte	0xc3
 2701 0f16 86000000 		.4byte	0x86
 2702 0f1a 01       		.byte	0x1
 2703 0f1b 53       		.byte	0x53
 2704 0f1c 00       		.byte	0
 2705 0f1d 00       		.byte	0
 2706 0f1e 1C       		.uleb128 0x1c
 2707 0f1f 10090000 		.4byte	.LASF222
 2708 0f23 01       		.byte	0x1
 2709 0f24 D2       		.byte	0xd2
 2710 0f25 01       		.byte	0x1
 2711 0f26 00000000 		.4byte	.LFB122
 2712 0f2a 24000000 		.4byte	.LFE122
 2713 0f2e 98000000 		.4byte	.LLST4
 2714 0f32 01       		.byte	0x1
 2715 0f33 450F0000 		.4byte	0xf45
 2716 0f37 1D       		.uleb128 0x1d
 2717 0f38 717000   		.ascii	"qp\000"
 2718 0f3b 01       		.byte	0x1
 2719 0f3c D2       		.byte	0xd2
 2720 0f3d 33050000 		.4byte	0x533
 2721 0f41 02       		.byte	0x2
 2722 0f42 91       		.byte	0x91
 2723 0f43 7C       		.sleb128 -4
 2724 0f44 00       		.byte	0
 2725 0f45 23       		.uleb128 0x23
 2726 0f46 01       		.byte	0x1
ARM GAS  /tmp/ccft4r9u.s 			page 49


 2727 0f47 8A000000 		.4byte	.LASF223
 2728 0f4b 01       		.byte	0x1
 2729 0f4c 1901     		.2byte	0x119
 2730 0f4e 01       		.byte	0x1
 2731 0f4f 00000000 		.4byte	.LFB123
 2732 0f53 14000000 		.4byte	.LFE123
 2733 0f57 B8000000 		.4byte	.LLST5
 2734 0f5b 01       		.byte	0x1
 2735 0f5c 23       		.uleb128 0x23
 2736 0f5d 01       		.byte	0x1
 2737 0f5e B9050000 		.4byte	.LASF224
 2738 0f62 01       		.byte	0x1
 2739 0f63 7801     		.2byte	0x178
 2740 0f65 01       		.byte	0x1
 2741 0f66 00000000 		.4byte	.LFB124
 2742 0f6a 2E000000 		.4byte	.LFE124
 2743 0f6e D8000000 		.4byte	.LLST6
 2744 0f72 01       		.byte	0x1
 2745 0f73 24       		.uleb128 0x24
 2746 0f74 01       		.byte	0x1
 2747 0f75 A7010000 		.4byte	.LASF225
 2748 0f79 01       		.byte	0x1
 2749 0f7a A301     		.2byte	0x1a3
 2750 0f7c 01       		.byte	0x1
 2751 0f7d 00000000 		.4byte	.LFB125
 2752 0f81 5E000000 		.4byte	.LFE125
 2753 0f85 F8000000 		.4byte	.LLST7
 2754 0f89 01       		.byte	0x1
 2755 0f8a AD0F0000 		.4byte	0xfad
 2756 0f8e 25       		.uleb128 0x25
 2757 0f8f 73647000 		.ascii	"sdp\000"
 2758 0f93 01       		.byte	0x1
 2759 0f94 A301     		.2byte	0x1a3
 2760 0f96 2C0D0000 		.4byte	0xd2c
 2761 0f9a 02       		.byte	0x2
 2762 0f9b 91       		.byte	0x91
 2763 0f9c 74       		.sleb128 -12
 2764 0f9d 26       		.uleb128 0x26
 2765 0f9e 04010000 		.4byte	.LASF217
 2766 0fa2 01       		.byte	0x1
 2767 0fa3 A301     		.2byte	0x1a3
 2768 0fa5 320D0000 		.4byte	0xd32
 2769 0fa9 02       		.byte	0x2
 2770 0faa 91       		.byte	0x91
 2771 0fab 70       		.sleb128 -16
 2772 0fac 00       		.byte	0
 2773 0fad 24       		.uleb128 0x24
 2774 0fae 01       		.byte	0x1
 2775 0faf 050A0000 		.4byte	.LASF226
 2776 0fb3 01       		.byte	0x1
 2777 0fb4 E001     		.2byte	0x1e0
 2778 0fb6 01       		.byte	0x1
 2779 0fb7 00000000 		.4byte	.LFB126
 2780 0fbb 4C000000 		.4byte	.LFE126
 2781 0fbf 24010000 		.4byte	.LLST8
 2782 0fc3 01       		.byte	0x1
 2783 0fc4 D80F0000 		.4byte	0xfd8
ARM GAS  /tmp/ccft4r9u.s 			page 50


 2784 0fc8 25       		.uleb128 0x25
 2785 0fc9 73647000 		.ascii	"sdp\000"
 2786 0fcd 01       		.byte	0x1
 2787 0fce E001     		.2byte	0x1e0
 2788 0fd0 2C0D0000 		.4byte	0xd2c
 2789 0fd4 02       		.byte	0x2
 2790 0fd5 91       		.byte	0x91
 2791 0fd6 74       		.sleb128 -12
 2792 0fd7 00       		.byte	0
 2793 0fd8 27       		.uleb128 0x27
 2794 0fd9 ED010000 		.4byte	.LASF227
 2795 0fdd 01       		.byte	0x1
 2796 0fde 49       		.byte	0x49
 2797 0fdf 380D0000 		.4byte	0xd38
 2798 0fe3 05       		.byte	0x5
 2799 0fe4 03       		.byte	0x3
 2800 0fe5 00000000 		.4byte	default_config
 2801 0fe9 28       		.uleb128 0x28
 2802 0fea 6A090000 		.4byte	.LASF228
 2803 0fee 0E       		.byte	0xe
 2804 0fef 9806     		.2byte	0x698
 2805 0ff1 0B080000 		.4byte	0x80b
 2806 0ff5 01       		.byte	0x1
 2807 0ff6 01       		.byte	0x1
 2808 0ff7 29       		.uleb128 0x29
 2809 0ff8 53443200 		.ascii	"SD2\000"
 2810 0ffc 01       		.byte	0x1
 2811 0ffd 2D       		.byte	0x2d
 2812 0ffe 7A0B0000 		.4byte	0xb7a
 2813 1002 01       		.byte	0x1
 2814 1003 05       		.byte	0x5
 2815 1004 03       		.byte	0x3
 2816 1005 00000000 		.4byte	SD2
 2817 1009 00       		.byte	0
 2818              		.section	.debug_abbrev,"",%progbits
 2819              	.Ldebug_abbrev0:
 2820 0000 01       		.uleb128 0x1
 2821 0001 11       		.uleb128 0x11
 2822 0002 01       		.byte	0x1
 2823 0003 25       		.uleb128 0x25
 2824 0004 0E       		.uleb128 0xe
 2825 0005 13       		.uleb128 0x13
 2826 0006 0B       		.uleb128 0xb
 2827 0007 03       		.uleb128 0x3
 2828 0008 0E       		.uleb128 0xe
 2829 0009 1B       		.uleb128 0x1b
 2830 000a 0E       		.uleb128 0xe
 2831 000b 55       		.uleb128 0x55
 2832 000c 06       		.uleb128 0x6
 2833 000d 11       		.uleb128 0x11
 2834 000e 01       		.uleb128 0x1
 2835 000f 52       		.uleb128 0x52
 2836 0010 01       		.uleb128 0x1
 2837 0011 10       		.uleb128 0x10
 2838 0012 06       		.uleb128 0x6
 2839 0013 00       		.byte	0
 2840 0014 00       		.byte	0
ARM GAS  /tmp/ccft4r9u.s 			page 51


 2841 0015 02       		.uleb128 0x2
 2842 0016 24       		.uleb128 0x24
 2843 0017 00       		.byte	0
 2844 0018 0B       		.uleb128 0xb
 2845 0019 0B       		.uleb128 0xb
 2846 001a 3E       		.uleb128 0x3e
 2847 001b 0B       		.uleb128 0xb
 2848 001c 03       		.uleb128 0x3
 2849 001d 08       		.uleb128 0x8
 2850 001e 00       		.byte	0
 2851 001f 00       		.byte	0
 2852 0020 03       		.uleb128 0x3
 2853 0021 16       		.uleb128 0x16
 2854 0022 00       		.byte	0
 2855 0023 03       		.uleb128 0x3
 2856 0024 0E       		.uleb128 0xe
 2857 0025 3A       		.uleb128 0x3a
 2858 0026 0B       		.uleb128 0xb
 2859 0027 3B       		.uleb128 0x3b
 2860 0028 0B       		.uleb128 0xb
 2861 0029 49       		.uleb128 0x49
 2862 002a 13       		.uleb128 0x13
 2863 002b 00       		.byte	0
 2864 002c 00       		.byte	0
 2865 002d 04       		.uleb128 0x4
 2866 002e 24       		.uleb128 0x24
 2867 002f 00       		.byte	0
 2868 0030 0B       		.uleb128 0xb
 2869 0031 0B       		.uleb128 0xb
 2870 0032 3E       		.uleb128 0x3e
 2871 0033 0B       		.uleb128 0xb
 2872 0034 03       		.uleb128 0x3
 2873 0035 0E       		.uleb128 0xe
 2874 0036 00       		.byte	0
 2875 0037 00       		.byte	0
 2876 0038 05       		.uleb128 0x5
 2877 0039 13       		.uleb128 0x13
 2878 003a 01       		.byte	0x1
 2879 003b 03       		.uleb128 0x3
 2880 003c 0E       		.uleb128 0xe
 2881 003d 0B       		.uleb128 0xb
 2882 003e 0B       		.uleb128 0xb
 2883 003f 3A       		.uleb128 0x3a
 2884 0040 0B       		.uleb128 0xb
 2885 0041 3B       		.uleb128 0x3b
 2886 0042 0B       		.uleb128 0xb
 2887 0043 01       		.uleb128 0x1
 2888 0044 13       		.uleb128 0x13
 2889 0045 00       		.byte	0
 2890 0046 00       		.byte	0
 2891 0047 06       		.uleb128 0x6
 2892 0048 0D       		.uleb128 0xd
 2893 0049 00       		.byte	0
 2894 004a 03       		.uleb128 0x3
 2895 004b 0E       		.uleb128 0xe
 2896 004c 3A       		.uleb128 0x3a
 2897 004d 0B       		.uleb128 0xb
ARM GAS  /tmp/ccft4r9u.s 			page 52


 2898 004e 3B       		.uleb128 0x3b
 2899 004f 0B       		.uleb128 0xb
 2900 0050 49       		.uleb128 0x49
 2901 0051 13       		.uleb128 0x13
 2902 0052 38       		.uleb128 0x38
 2903 0053 0A       		.uleb128 0xa
 2904 0054 00       		.byte	0
 2905 0055 00       		.byte	0
 2906 0056 07       		.uleb128 0x7
 2907 0057 0D       		.uleb128 0xd
 2908 0058 00       		.byte	0
 2909 0059 03       		.uleb128 0x3
 2910 005a 08       		.uleb128 0x8
 2911 005b 3A       		.uleb128 0x3a
 2912 005c 0B       		.uleb128 0xb
 2913 005d 3B       		.uleb128 0x3b
 2914 005e 0B       		.uleb128 0xb
 2915 005f 49       		.uleb128 0x49
 2916 0060 13       		.uleb128 0x13
 2917 0061 38       		.uleb128 0x38
 2918 0062 0A       		.uleb128 0xa
 2919 0063 00       		.byte	0
 2920 0064 00       		.byte	0
 2921 0065 08       		.uleb128 0x8
 2922 0066 13       		.uleb128 0x13
 2923 0067 01       		.byte	0x1
 2924 0068 0B       		.uleb128 0xb
 2925 0069 0B       		.uleb128 0xb
 2926 006a 3A       		.uleb128 0x3a
 2927 006b 0B       		.uleb128 0xb
 2928 006c 3B       		.uleb128 0x3b
 2929 006d 0B       		.uleb128 0xb
 2930 006e 01       		.uleb128 0x1
 2931 006f 13       		.uleb128 0x13
 2932 0070 00       		.byte	0
 2933 0071 00       		.byte	0
 2934 0072 09       		.uleb128 0x9
 2935 0073 0F       		.uleb128 0xf
 2936 0074 00       		.byte	0
 2937 0075 0B       		.uleb128 0xb
 2938 0076 0B       		.uleb128 0xb
 2939 0077 49       		.uleb128 0x49
 2940 0078 13       		.uleb128 0x13
 2941 0079 00       		.byte	0
 2942 007a 00       		.byte	0
 2943 007b 0A       		.uleb128 0xa
 2944 007c 0F       		.uleb128 0xf
 2945 007d 00       		.byte	0
 2946 007e 0B       		.uleb128 0xb
 2947 007f 0B       		.uleb128 0xb
 2948 0080 00       		.byte	0
 2949 0081 00       		.byte	0
 2950 0082 0B       		.uleb128 0xb
 2951 0083 13       		.uleb128 0x13
 2952 0084 01       		.byte	0x1
 2953 0085 03       		.uleb128 0x3
 2954 0086 0E       		.uleb128 0xe
ARM GAS  /tmp/ccft4r9u.s 			page 53


 2955 0087 0B       		.uleb128 0xb
 2956 0088 0B       		.uleb128 0xb
 2957 0089 3A       		.uleb128 0x3a
 2958 008a 0B       		.uleb128 0xb
 2959 008b 3B       		.uleb128 0x3b
 2960 008c 05       		.uleb128 0x5
 2961 008d 01       		.uleb128 0x1
 2962 008e 13       		.uleb128 0x13
 2963 008f 00       		.byte	0
 2964 0090 00       		.byte	0
 2965 0091 0C       		.uleb128 0xc
 2966 0092 0D       		.uleb128 0xd
 2967 0093 00       		.byte	0
 2968 0094 03       		.uleb128 0x3
 2969 0095 08       		.uleb128 0x8
 2970 0096 3A       		.uleb128 0x3a
 2971 0097 0B       		.uleb128 0xb
 2972 0098 3B       		.uleb128 0x3b
 2973 0099 05       		.uleb128 0x5
 2974 009a 49       		.uleb128 0x49
 2975 009b 13       		.uleb128 0x13
 2976 009c 38       		.uleb128 0x38
 2977 009d 0A       		.uleb128 0xa
 2978 009e 00       		.byte	0
 2979 009f 00       		.byte	0
 2980 00a0 0D       		.uleb128 0xd
 2981 00a1 35       		.uleb128 0x35
 2982 00a2 00       		.byte	0
 2983 00a3 49       		.uleb128 0x49
 2984 00a4 13       		.uleb128 0x13
 2985 00a5 00       		.byte	0
 2986 00a6 00       		.byte	0
 2987 00a7 0E       		.uleb128 0xe
 2988 00a8 17       		.uleb128 0x17
 2989 00a9 01       		.byte	0x1
 2990 00aa 0B       		.uleb128 0xb
 2991 00ab 0B       		.uleb128 0xb
 2992 00ac 3A       		.uleb128 0x3a
 2993 00ad 0B       		.uleb128 0xb
 2994 00ae 3B       		.uleb128 0x3b
 2995 00af 0B       		.uleb128 0xb
 2996 00b0 01       		.uleb128 0x1
 2997 00b1 13       		.uleb128 0x13
 2998 00b2 00       		.byte	0
 2999 00b3 00       		.byte	0
 3000 00b4 0F       		.uleb128 0xf
 3001 00b5 0D       		.uleb128 0xd
 3002 00b6 00       		.byte	0
 3003 00b7 03       		.uleb128 0x3
 3004 00b8 0E       		.uleb128 0xe
 3005 00b9 3A       		.uleb128 0x3a
 3006 00ba 0B       		.uleb128 0xb
 3007 00bb 3B       		.uleb128 0x3b
 3008 00bc 0B       		.uleb128 0xb
 3009 00bd 49       		.uleb128 0x49
 3010 00be 13       		.uleb128 0x13
 3011 00bf 00       		.byte	0
ARM GAS  /tmp/ccft4r9u.s 			page 54


 3012 00c0 00       		.byte	0
 3013 00c1 10       		.uleb128 0x10
 3014 00c2 26       		.uleb128 0x26
 3015 00c3 00       		.byte	0
 3016 00c4 49       		.uleb128 0x49
 3017 00c5 13       		.uleb128 0x13
 3018 00c6 00       		.byte	0
 3019 00c7 00       		.byte	0
 3020 00c8 11       		.uleb128 0x11
 3021 00c9 15       		.uleb128 0x15
 3022 00ca 01       		.byte	0x1
 3023 00cb 27       		.uleb128 0x27
 3024 00cc 0C       		.uleb128 0xc
 3025 00cd 49       		.uleb128 0x49
 3026 00ce 13       		.uleb128 0x13
 3027 00cf 01       		.uleb128 0x1
 3028 00d0 13       		.uleb128 0x13
 3029 00d1 00       		.byte	0
 3030 00d2 00       		.byte	0
 3031 00d3 12       		.uleb128 0x12
 3032 00d4 05       		.uleb128 0x5
 3033 00d5 00       		.byte	0
 3034 00d6 49       		.uleb128 0x49
 3035 00d7 13       		.uleb128 0x13
 3036 00d8 00       		.byte	0
 3037 00d9 00       		.byte	0
 3038 00da 13       		.uleb128 0x13
 3039 00db 15       		.uleb128 0x15
 3040 00dc 01       		.byte	0x1
 3041 00dd 27       		.uleb128 0x27
 3042 00de 0C       		.uleb128 0xc
 3043 00df 01       		.uleb128 0x1
 3044 00e0 13       		.uleb128 0x13
 3045 00e1 00       		.byte	0
 3046 00e2 00       		.byte	0
 3047 00e3 14       		.uleb128 0x14
 3048 00e4 04       		.uleb128 0x4
 3049 00e5 01       		.byte	0x1
 3050 00e6 03       		.uleb128 0x3
 3051 00e7 0E       		.uleb128 0xe
 3052 00e8 0B       		.uleb128 0xb
 3053 00e9 0B       		.uleb128 0xb
 3054 00ea 3A       		.uleb128 0x3a
 3055 00eb 0B       		.uleb128 0xb
 3056 00ec 3B       		.uleb128 0x3b
 3057 00ed 0B       		.uleb128 0xb
 3058 00ee 01       		.uleb128 0x1
 3059 00ef 13       		.uleb128 0x13
 3060 00f0 00       		.byte	0
 3061 00f1 00       		.byte	0
 3062 00f2 15       		.uleb128 0x15
 3063 00f3 28       		.uleb128 0x28
 3064 00f4 00       		.byte	0
 3065 00f5 03       		.uleb128 0x3
 3066 00f6 0E       		.uleb128 0xe
 3067 00f7 1C       		.uleb128 0x1c
 3068 00f8 0D       		.uleb128 0xd
ARM GAS  /tmp/ccft4r9u.s 			page 55


 3069 00f9 00       		.byte	0
 3070 00fa 00       		.byte	0
 3071 00fb 16       		.uleb128 0x16
 3072 00fc 01       		.uleb128 0x1
 3073 00fd 01       		.byte	0x1
 3074 00fe 49       		.uleb128 0x49
 3075 00ff 13       		.uleb128 0x13
 3076 0100 01       		.uleb128 0x1
 3077 0101 13       		.uleb128 0x13
 3078 0102 00       		.byte	0
 3079 0103 00       		.byte	0
 3080 0104 17       		.uleb128 0x17
 3081 0105 21       		.uleb128 0x21
 3082 0106 00       		.byte	0
 3083 0107 49       		.uleb128 0x49
 3084 0108 13       		.uleb128 0x13
 3085 0109 2F       		.uleb128 0x2f
 3086 010a 0B       		.uleb128 0xb
 3087 010b 00       		.byte	0
 3088 010c 00       		.byte	0
 3089 010d 18       		.uleb128 0x18
 3090 010e 13       		.uleb128 0x13
 3091 010f 01       		.byte	0x1
 3092 0110 0B       		.uleb128 0xb
 3093 0111 0B       		.uleb128 0xb
 3094 0112 3A       		.uleb128 0x3a
 3095 0113 0B       		.uleb128 0xb
 3096 0114 3B       		.uleb128 0x3b
 3097 0115 05       		.uleb128 0x5
 3098 0116 01       		.uleb128 0x1
 3099 0117 13       		.uleb128 0x13
 3100 0118 00       		.byte	0
 3101 0119 00       		.byte	0
 3102 011a 19       		.uleb128 0x19
 3103 011b 0D       		.uleb128 0xd
 3104 011c 00       		.byte	0
 3105 011d 03       		.uleb128 0x3
 3106 011e 0E       		.uleb128 0xe
 3107 011f 3A       		.uleb128 0x3a
 3108 0120 0B       		.uleb128 0xb
 3109 0121 3B       		.uleb128 0x3b
 3110 0122 05       		.uleb128 0x5
 3111 0123 49       		.uleb128 0x49
 3112 0124 13       		.uleb128 0x13
 3113 0125 38       		.uleb128 0x38
 3114 0126 0A       		.uleb128 0xa
 3115 0127 00       		.byte	0
 3116 0128 00       		.byte	0
 3117 0129 1A       		.uleb128 0x1a
 3118 012a 16       		.uleb128 0x16
 3119 012b 00       		.byte	0
 3120 012c 03       		.uleb128 0x3
 3121 012d 0E       		.uleb128 0xe
 3122 012e 3A       		.uleb128 0x3a
 3123 012f 0B       		.uleb128 0xb
 3124 0130 3B       		.uleb128 0x3b
 3125 0131 05       		.uleb128 0x5
ARM GAS  /tmp/ccft4r9u.s 			page 56


 3126 0132 49       		.uleb128 0x49
 3127 0133 13       		.uleb128 0x13
 3128 0134 00       		.byte	0
 3129 0135 00       		.byte	0
 3130 0136 1B       		.uleb128 0x1b
 3131 0137 04       		.uleb128 0x4
 3132 0138 01       		.byte	0x1
 3133 0139 0B       		.uleb128 0xb
 3134 013a 0B       		.uleb128 0xb
 3135 013b 3A       		.uleb128 0x3a
 3136 013c 0B       		.uleb128 0xb
 3137 013d 3B       		.uleb128 0x3b
 3138 013e 0B       		.uleb128 0xb
 3139 013f 01       		.uleb128 0x1
 3140 0140 13       		.uleb128 0x13
 3141 0141 00       		.byte	0
 3142 0142 00       		.byte	0
 3143 0143 1C       		.uleb128 0x1c
 3144 0144 2E       		.uleb128 0x2e
 3145 0145 01       		.byte	0x1
 3146 0146 03       		.uleb128 0x3
 3147 0147 0E       		.uleb128 0xe
 3148 0148 3A       		.uleb128 0x3a
 3149 0149 0B       		.uleb128 0xb
 3150 014a 3B       		.uleb128 0x3b
 3151 014b 0B       		.uleb128 0xb
 3152 014c 27       		.uleb128 0x27
 3153 014d 0C       		.uleb128 0xc
 3154 014e 11       		.uleb128 0x11
 3155 014f 01       		.uleb128 0x1
 3156 0150 12       		.uleb128 0x12
 3157 0151 01       		.uleb128 0x1
 3158 0152 40       		.uleb128 0x40
 3159 0153 06       		.uleb128 0x6
 3160 0154 9742     		.uleb128 0x2117
 3161 0156 0C       		.uleb128 0xc
 3162 0157 01       		.uleb128 0x1
 3163 0158 13       		.uleb128 0x13
 3164 0159 00       		.byte	0
 3165 015a 00       		.byte	0
 3166 015b 1D       		.uleb128 0x1d
 3167 015c 05       		.uleb128 0x5
 3168 015d 00       		.byte	0
 3169 015e 03       		.uleb128 0x3
 3170 015f 08       		.uleb128 0x8
 3171 0160 3A       		.uleb128 0x3a
 3172 0161 0B       		.uleb128 0xb
 3173 0162 3B       		.uleb128 0x3b
 3174 0163 0B       		.uleb128 0xb
 3175 0164 49       		.uleb128 0x49
 3176 0165 13       		.uleb128 0x13
 3177 0166 02       		.uleb128 0x2
 3178 0167 0A       		.uleb128 0xa
 3179 0168 00       		.byte	0
 3180 0169 00       		.byte	0
 3181 016a 1E       		.uleb128 0x1e
 3182 016b 05       		.uleb128 0x5
ARM GAS  /tmp/ccft4r9u.s 			page 57


 3183 016c 00       		.byte	0
 3184 016d 03       		.uleb128 0x3
 3185 016e 0E       		.uleb128 0xe
 3186 016f 3A       		.uleb128 0x3a
 3187 0170 0B       		.uleb128 0xb
 3188 0171 3B       		.uleb128 0x3b
 3189 0172 0B       		.uleb128 0xb
 3190 0173 49       		.uleb128 0x49
 3191 0174 13       		.uleb128 0x13
 3192 0175 02       		.uleb128 0x2
 3193 0176 0A       		.uleb128 0xa
 3194 0177 00       		.byte	0
 3195 0178 00       		.byte	0
 3196 0179 1F       		.uleb128 0x1f
 3197 017a 34       		.uleb128 0x34
 3198 017b 00       		.byte	0
 3199 017c 03       		.uleb128 0x3
 3200 017d 08       		.uleb128 0x8
 3201 017e 3A       		.uleb128 0x3a
 3202 017f 0B       		.uleb128 0xb
 3203 0180 3B       		.uleb128 0x3b
 3204 0181 0B       		.uleb128 0xb
 3205 0182 49       		.uleb128 0x49
 3206 0183 13       		.uleb128 0x13
 3207 0184 02       		.uleb128 0x2
 3208 0185 0A       		.uleb128 0xa
 3209 0186 00       		.byte	0
 3210 0187 00       		.byte	0
 3211 0188 20       		.uleb128 0x20
 3212 0189 2E       		.uleb128 0x2e
 3213 018a 01       		.byte	0x1
 3214 018b 03       		.uleb128 0x3
 3215 018c 0E       		.uleb128 0xe
 3216 018d 3A       		.uleb128 0x3a
 3217 018e 0B       		.uleb128 0xb
 3218 018f 3B       		.uleb128 0x3b
 3219 0190 0B       		.uleb128 0xb
 3220 0191 27       		.uleb128 0x27
 3221 0192 0C       		.uleb128 0xc
 3222 0193 11       		.uleb128 0x11
 3223 0194 01       		.uleb128 0x1
 3224 0195 12       		.uleb128 0x12
 3225 0196 01       		.uleb128 0x1
 3226 0197 40       		.uleb128 0x40
 3227 0198 06       		.uleb128 0x6
 3228 0199 9642     		.uleb128 0x2116
 3229 019b 0C       		.uleb128 0xc
 3230 019c 01       		.uleb128 0x1
 3231 019d 13       		.uleb128 0x13
 3232 019e 00       		.byte	0
 3233 019f 00       		.byte	0
 3234 01a0 21       		.uleb128 0x21
 3235 01a1 0B       		.uleb128 0xb
 3236 01a2 01       		.byte	0x1
 3237 01a3 11       		.uleb128 0x11
 3238 01a4 01       		.uleb128 0x1
 3239 01a5 12       		.uleb128 0x12
ARM GAS  /tmp/ccft4r9u.s 			page 58


 3240 01a6 01       		.uleb128 0x1
 3241 01a7 01       		.uleb128 0x1
 3242 01a8 13       		.uleb128 0x13
 3243 01a9 00       		.byte	0
 3244 01aa 00       		.byte	0
 3245 01ab 22       		.uleb128 0x22
 3246 01ac 0B       		.uleb128 0xb
 3247 01ad 01       		.byte	0x1
 3248 01ae 11       		.uleb128 0x11
 3249 01af 01       		.uleb128 0x1
 3250 01b0 12       		.uleb128 0x12
 3251 01b1 01       		.uleb128 0x1
 3252 01b2 00       		.byte	0
 3253 01b3 00       		.byte	0
 3254 01b4 23       		.uleb128 0x23
 3255 01b5 2E       		.uleb128 0x2e
 3256 01b6 00       		.byte	0
 3257 01b7 3F       		.uleb128 0x3f
 3258 01b8 0C       		.uleb128 0xc
 3259 01b9 03       		.uleb128 0x3
 3260 01ba 0E       		.uleb128 0xe
 3261 01bb 3A       		.uleb128 0x3a
 3262 01bc 0B       		.uleb128 0xb
 3263 01bd 3B       		.uleb128 0x3b
 3264 01be 05       		.uleb128 0x5
 3265 01bf 27       		.uleb128 0x27
 3266 01c0 0C       		.uleb128 0xc
 3267 01c1 11       		.uleb128 0x11
 3268 01c2 01       		.uleb128 0x1
 3269 01c3 12       		.uleb128 0x12
 3270 01c4 01       		.uleb128 0x1
 3271 01c5 40       		.uleb128 0x40
 3272 01c6 06       		.uleb128 0x6
 3273 01c7 9642     		.uleb128 0x2116
 3274 01c9 0C       		.uleb128 0xc
 3275 01ca 00       		.byte	0
 3276 01cb 00       		.byte	0
 3277 01cc 24       		.uleb128 0x24
 3278 01cd 2E       		.uleb128 0x2e
 3279 01ce 01       		.byte	0x1
 3280 01cf 3F       		.uleb128 0x3f
 3281 01d0 0C       		.uleb128 0xc
 3282 01d1 03       		.uleb128 0x3
 3283 01d2 0E       		.uleb128 0xe
 3284 01d3 3A       		.uleb128 0x3a
 3285 01d4 0B       		.uleb128 0xb
 3286 01d5 3B       		.uleb128 0x3b
 3287 01d6 05       		.uleb128 0x5
 3288 01d7 27       		.uleb128 0x27
 3289 01d8 0C       		.uleb128 0xc
 3290 01d9 11       		.uleb128 0x11
 3291 01da 01       		.uleb128 0x1
 3292 01db 12       		.uleb128 0x12
 3293 01dc 01       		.uleb128 0x1
 3294 01dd 40       		.uleb128 0x40
 3295 01de 06       		.uleb128 0x6
 3296 01df 9642     		.uleb128 0x2116
ARM GAS  /tmp/ccft4r9u.s 			page 59


 3297 01e1 0C       		.uleb128 0xc
 3298 01e2 01       		.uleb128 0x1
 3299 01e3 13       		.uleb128 0x13
 3300 01e4 00       		.byte	0
 3301 01e5 00       		.byte	0
 3302 01e6 25       		.uleb128 0x25
 3303 01e7 05       		.uleb128 0x5
 3304 01e8 00       		.byte	0
 3305 01e9 03       		.uleb128 0x3
 3306 01ea 08       		.uleb128 0x8
 3307 01eb 3A       		.uleb128 0x3a
 3308 01ec 0B       		.uleb128 0xb
 3309 01ed 3B       		.uleb128 0x3b
 3310 01ee 05       		.uleb128 0x5
 3311 01ef 49       		.uleb128 0x49
 3312 01f0 13       		.uleb128 0x13
 3313 01f1 02       		.uleb128 0x2
 3314 01f2 0A       		.uleb128 0xa
 3315 01f3 00       		.byte	0
 3316 01f4 00       		.byte	0
 3317 01f5 26       		.uleb128 0x26
 3318 01f6 05       		.uleb128 0x5
 3319 01f7 00       		.byte	0
 3320 01f8 03       		.uleb128 0x3
 3321 01f9 0E       		.uleb128 0xe
 3322 01fa 3A       		.uleb128 0x3a
 3323 01fb 0B       		.uleb128 0xb
 3324 01fc 3B       		.uleb128 0x3b
 3325 01fd 05       		.uleb128 0x5
 3326 01fe 49       		.uleb128 0x49
 3327 01ff 13       		.uleb128 0x13
 3328 0200 02       		.uleb128 0x2
 3329 0201 0A       		.uleb128 0xa
 3330 0202 00       		.byte	0
 3331 0203 00       		.byte	0
 3332 0204 27       		.uleb128 0x27
 3333 0205 34       		.uleb128 0x34
 3334 0206 00       		.byte	0
 3335 0207 03       		.uleb128 0x3
 3336 0208 0E       		.uleb128 0xe
 3337 0209 3A       		.uleb128 0x3a
 3338 020a 0B       		.uleb128 0xb
 3339 020b 3B       		.uleb128 0x3b
 3340 020c 0B       		.uleb128 0xb
 3341 020d 49       		.uleb128 0x49
 3342 020e 13       		.uleb128 0x13
 3343 020f 02       		.uleb128 0x2
 3344 0210 0A       		.uleb128 0xa
 3345 0211 00       		.byte	0
 3346 0212 00       		.byte	0
 3347 0213 28       		.uleb128 0x28
 3348 0214 34       		.uleb128 0x34
 3349 0215 00       		.byte	0
 3350 0216 03       		.uleb128 0x3
 3351 0217 0E       		.uleb128 0xe
 3352 0218 3A       		.uleb128 0x3a
 3353 0219 0B       		.uleb128 0xb
ARM GAS  /tmp/ccft4r9u.s 			page 60


 3354 021a 3B       		.uleb128 0x3b
 3355 021b 05       		.uleb128 0x5
 3356 021c 49       		.uleb128 0x49
 3357 021d 13       		.uleb128 0x13
 3358 021e 3F       		.uleb128 0x3f
 3359 021f 0C       		.uleb128 0xc
 3360 0220 3C       		.uleb128 0x3c
 3361 0221 0C       		.uleb128 0xc
 3362 0222 00       		.byte	0
 3363 0223 00       		.byte	0
 3364 0224 29       		.uleb128 0x29
 3365 0225 34       		.uleb128 0x34
 3366 0226 00       		.byte	0
 3367 0227 03       		.uleb128 0x3
 3368 0228 08       		.uleb128 0x8
 3369 0229 3A       		.uleb128 0x3a
 3370 022a 0B       		.uleb128 0xb
 3371 022b 3B       		.uleb128 0x3b
 3372 022c 0B       		.uleb128 0xb
 3373 022d 49       		.uleb128 0x49
 3374 022e 13       		.uleb128 0x13
 3375 022f 3F       		.uleb128 0x3f
 3376 0230 0C       		.uleb128 0xc
 3377 0231 02       		.uleb128 0x2
 3378 0232 0A       		.uleb128 0xa
 3379 0233 00       		.byte	0
 3380 0234 00       		.byte	0
 3381 0235 00       		.byte	0
 3382              		.section	.debug_loc,"",%progbits
 3383              	.Ldebug_loc0:
 3384              	.LLST0:
 3385 0000 00000000 		.4byte	.LFB118
 3386 0004 02000000 		.4byte	.LCFI0
 3387 0008 0200     		.2byte	0x2
 3388 000a 7D       		.byte	0x7d
 3389 000b 00       		.sleb128 0
 3390 000c 02000000 		.4byte	.LCFI0
 3391 0010 9C000000 		.4byte	.LFE118
 3392 0014 0200     		.2byte	0x2
 3393 0016 7D       		.byte	0x7d
 3394 0017 10       		.sleb128 16
 3395 0018 00000000 		.4byte	0
 3396 001c 00000000 		.4byte	0
 3397              	.LLST1:
 3398 0020 00000000 		.4byte	.LFB119
 3399 0024 02000000 		.4byte	.LCFI1
 3400 0028 0200     		.2byte	0x2
 3401 002a 7D       		.byte	0x7d
 3402 002b 00       		.sleb128 0
 3403 002c 02000000 		.4byte	.LCFI1
 3404 0030 20000000 		.4byte	.LFE119
 3405 0034 0200     		.2byte	0x2
 3406 0036 7D       		.byte	0x7d
 3407 0037 08       		.sleb128 8
 3408 0038 00000000 		.4byte	0
 3409 003c 00000000 		.4byte	0
 3410              	.LLST2:
ARM GAS  /tmp/ccft4r9u.s 			page 61


 3411 0040 00000000 		.4byte	.LFB120
 3412 0044 02000000 		.4byte	.LCFI2
 3413 0048 0200     		.2byte	0x2
 3414 004a 7D       		.byte	0x7d
 3415 004b 00       		.sleb128 0
 3416 004c 02000000 		.4byte	.LCFI2
 3417 0050 04000000 		.4byte	.LCFI3
 3418 0054 0200     		.2byte	0x2
 3419 0056 7D       		.byte	0x7d
 3420 0057 04       		.sleb128 4
 3421 0058 04000000 		.4byte	.LCFI3
 3422 005c 84000000 		.4byte	.LFE120
 3423 0060 0200     		.2byte	0x2
 3424 0062 7D       		.byte	0x7d
 3425 0063 18       		.sleb128 24
 3426 0064 00000000 		.4byte	0
 3427 0068 00000000 		.4byte	0
 3428              	.LLST3:
 3429 006c 00000000 		.4byte	.LFB121
 3430 0070 02000000 		.4byte	.LCFI4
 3431 0074 0200     		.2byte	0x2
 3432 0076 7D       		.byte	0x7d
 3433 0077 00       		.sleb128 0
 3434 0078 02000000 		.4byte	.LCFI4
 3435 007c 04000000 		.4byte	.LCFI5
 3436 0080 0200     		.2byte	0x2
 3437 0082 7D       		.byte	0x7d
 3438 0083 04       		.sleb128 4
 3439 0084 04000000 		.4byte	.LCFI5
 3440 0088 5C010000 		.4byte	.LFE121
 3441 008c 0200     		.2byte	0x2
 3442 008e 7D       		.byte	0x7d
 3443 008f 20       		.sleb128 32
 3444 0090 00000000 		.4byte	0
 3445 0094 00000000 		.4byte	0
 3446              	.LLST4:
 3447 0098 00000000 		.4byte	.LFB122
 3448 009c 02000000 		.4byte	.LCFI6
 3449 00a0 0200     		.2byte	0x2
 3450 00a2 7D       		.byte	0x7d
 3451 00a3 00       		.sleb128 0
 3452 00a4 02000000 		.4byte	.LCFI6
 3453 00a8 24000000 		.4byte	.LFE122
 3454 00ac 0200     		.2byte	0x2
 3455 00ae 7D       		.byte	0x7d
 3456 00af 08       		.sleb128 8
 3457 00b0 00000000 		.4byte	0
 3458 00b4 00000000 		.4byte	0
 3459              	.LLST5:
 3460 00b8 00000000 		.4byte	.LFB123
 3461 00bc 02000000 		.4byte	.LCFI7
 3462 00c0 0200     		.2byte	0x2
 3463 00c2 7D       		.byte	0x7d
 3464 00c3 00       		.sleb128 0
 3465 00c4 02000000 		.4byte	.LCFI7
 3466 00c8 14000000 		.4byte	.LFE123
 3467 00cc 0200     		.2byte	0x2
ARM GAS  /tmp/ccft4r9u.s 			page 62


 3468 00ce 7D       		.byte	0x7d
 3469 00cf 08       		.sleb128 8
 3470 00d0 00000000 		.4byte	0
 3471 00d4 00000000 		.4byte	0
 3472              	.LLST6:
 3473 00d8 00000000 		.4byte	.LFB124
 3474 00dc 02000000 		.4byte	.LCFI8
 3475 00e0 0200     		.2byte	0x2
 3476 00e2 7D       		.byte	0x7d
 3477 00e3 00       		.sleb128 0
 3478 00e4 02000000 		.4byte	.LCFI8
 3479 00e8 2E000000 		.4byte	.LFE124
 3480 00ec 0200     		.2byte	0x2
 3481 00ee 7D       		.byte	0x7d
 3482 00ef 08       		.sleb128 8
 3483 00f0 00000000 		.4byte	0
 3484 00f4 00000000 		.4byte	0
 3485              	.LLST7:
 3486 00f8 00000000 		.4byte	.LFB125
 3487 00fc 02000000 		.4byte	.LCFI9
 3488 0100 0200     		.2byte	0x2
 3489 0102 7D       		.byte	0x7d
 3490 0103 00       		.sleb128 0
 3491 0104 02000000 		.4byte	.LCFI9
 3492 0108 04000000 		.4byte	.LCFI10
 3493 010c 0200     		.2byte	0x2
 3494 010e 7D       		.byte	0x7d
 3495 010f 04       		.sleb128 4
 3496 0110 04000000 		.4byte	.LCFI10
 3497 0114 5E000000 		.4byte	.LFE125
 3498 0118 0200     		.2byte	0x2
 3499 011a 7D       		.byte	0x7d
 3500 011b 10       		.sleb128 16
 3501 011c 00000000 		.4byte	0
 3502 0120 00000000 		.4byte	0
 3503              	.LLST8:
 3504 0124 00000000 		.4byte	.LFB126
 3505 0128 02000000 		.4byte	.LCFI11
 3506 012c 0200     		.2byte	0x2
 3507 012e 7D       		.byte	0x7d
 3508 012f 00       		.sleb128 0
 3509 0130 02000000 		.4byte	.LCFI11
 3510 0134 04000000 		.4byte	.LCFI12
 3511 0138 0200     		.2byte	0x2
 3512 013a 7D       		.byte	0x7d
 3513 013b 04       		.sleb128 4
 3514 013c 04000000 		.4byte	.LCFI12
 3515 0140 4C000000 		.4byte	.LFE126
 3516 0144 0200     		.2byte	0x2
 3517 0146 7D       		.byte	0x7d
 3518 0147 10       		.sleb128 16
 3519 0148 00000000 		.4byte	0
 3520 014c 00000000 		.4byte	0
 3521              		.section	.debug_aranges,"",%progbits
 3522 0000 5C000000 		.4byte	0x5c
 3523 0004 0200     		.2byte	0x2
 3524 0006 00000000 		.4byte	.Ldebug_info0
ARM GAS  /tmp/ccft4r9u.s 			page 63


 3525 000a 04       		.byte	0x4
 3526 000b 00       		.byte	0
 3527 000c 0000     		.2byte	0
 3528 000e 0000     		.2byte	0
 3529 0010 00000000 		.4byte	.LFB118
 3530 0014 9C000000 		.4byte	.LFE118-.LFB118
 3531 0018 00000000 		.4byte	.LFB119
 3532 001c 20000000 		.4byte	.LFE119-.LFB119
 3533 0020 00000000 		.4byte	.LFB120
 3534 0024 84000000 		.4byte	.LFE120-.LFB120
 3535 0028 00000000 		.4byte	.LFB121
 3536 002c 5C010000 		.4byte	.LFE121-.LFB121
 3537 0030 00000000 		.4byte	.LFB122
 3538 0034 24000000 		.4byte	.LFE122-.LFB122
 3539 0038 00000000 		.4byte	.LFB123
 3540 003c 14000000 		.4byte	.LFE123-.LFB123
 3541 0040 00000000 		.4byte	.LFB124
 3542 0044 2E000000 		.4byte	.LFE124-.LFB124
 3543 0048 00000000 		.4byte	.LFB125
 3544 004c 5E000000 		.4byte	.LFE125-.LFB125
 3545 0050 00000000 		.4byte	.LFB126
 3546 0054 4C000000 		.4byte	.LFE126-.LFB126
 3547 0058 00000000 		.4byte	0
 3548 005c 00000000 		.4byte	0
 3549              		.section	.debug_ranges,"",%progbits
 3550              	.Ldebug_ranges0:
 3551 0000 00000000 		.4byte	.LFB118
 3552 0004 9C000000 		.4byte	.LFE118
 3553 0008 00000000 		.4byte	.LFB119
 3554 000c 20000000 		.4byte	.LFE119
 3555 0010 00000000 		.4byte	.LFB120
 3556 0014 84000000 		.4byte	.LFE120
 3557 0018 00000000 		.4byte	.LFB121
 3558 001c 5C010000 		.4byte	.LFE121
 3559 0020 00000000 		.4byte	.LFB122
 3560 0024 24000000 		.4byte	.LFE122
 3561 0028 00000000 		.4byte	.LFB123
 3562 002c 14000000 		.4byte	.LFE123
 3563 0030 00000000 		.4byte	.LFB124
 3564 0034 2E000000 		.4byte	.LFE124
 3565 0038 00000000 		.4byte	.LFB125
 3566 003c 5E000000 		.4byte	.LFE125
 3567 0040 00000000 		.4byte	.LFB126
 3568 0044 4C000000 		.4byte	.LFE126
 3569 0048 00000000 		.4byte	0
 3570 004c 00000000 		.4byte	0
 3571              		.section	.debug_line,"",%progbits
 3572              	.Ldebug_line0:
 3573 0000 05030000 		.section	.debug_str,"MS",%progbits,1
 3573      02000602 
 3573      00000201 
 3573      FB0E0D00 
 3573      01010101 
 3574              	.LASF2:
 3575 0000 73697A65 		.ascii	"size_t\000"
 3575      5F7400
 3576              	.LASF130:
ARM GAS  /tmp/ccft4r9u.s 			page 64


 3577 0007 54494D38 		.ascii	"TIM8_UP_TIM13_IRQn\000"
 3577      5F55505F 
 3577      54494D31 
 3577      335F4952 
 3577      516E00
 3578              	.LASF49:
 3579 001a 73697A65 		.ascii	"sizetype\000"
 3579      74797065 
 3579      00
 3580              	.LASF23:
 3581 0023 73797374 		.ascii	"systime_t\000"
 3581      696D655F 
 3581      7400
 3582              	.LASF194:
 3583 002d 504C4C49 		.ascii	"PLLI2SCFGR\000"
 3583      32534346 
 3583      475200
 3584              	.LASF28:
 3585 0038 705F6374 		.ascii	"p_ctx\000"
 3585      7800
 3586              	.LASF19:
 3587 003e 74707269 		.ascii	"tprio_t\000"
 3587      6F5F7400 
 3588              	.LASF38:
 3589 0046 705F6D73 		.ascii	"p_msgqueue\000"
 3589      67717565 
 3589      756500
 3590              	.LASF8:
 3591 0051 696E7433 		.ascii	"int32_t\000"
 3591      325F7400 
 3592              	.LASF209:
 3593 0059 53657269 		.ascii	"SerialConfig\000"
 3593      616C436F 
 3593      6E666967 
 3593      00
 3594              	.LASF215:
 3595 0066 77726974 		.ascii	"writet\000"
 3595      657400
 3596              	.LASF196:
 3597 006d 47545052 		.ascii	"GTPR\000"
 3597      00
 3598              	.LASF211:
 3599 0072 77726974 		.ascii	"write\000"
 3599      6500
 3600              	.LASF143:
 3601 0078 444D4132 		.ascii	"DMA2_Stream1_IRQn\000"
 3601      5F537472 
 3601      65616D31 
 3601      5F495251 
 3601      6E00
 3602              	.LASF223:
 3603 008a 56656374 		.ascii	"VectorD8\000"
 3603      6F724438 
 3603      00
 3604              	.LASF229:
 3605 0093 474E5520 		.ascii	"GNU C 4.7.4 20130613 (release) [ARM/embedded-4_7-br"
 3605      4320342E 
ARM GAS  /tmp/ccft4r9u.s 			page 65


 3605      372E3420 
 3605      32303133 
 3605      30363133 
 3606 00c6 616E6368 		.ascii	"anch revision 200083]\000"
 3606      20726576 
 3606      6973696F 
 3606      6E203230 
 3606      30303833 
 3607              	.LASF137:
 3608 00dc 53504933 		.ascii	"SPI3_IRQn\000"
 3608      5F495251 
 3608      6E00
 3609              	.LASF90:
 3610 00e6 464C4153 		.ascii	"FLASH_IRQn\000"
 3610      485F4952 
 3610      516E00
 3611              	.LASF164:
 3612 00f1 44434D49 		.ascii	"DCMI_IRQn\000"
 3612      5F495251 
 3612      6E00
 3613              	.LASF58:
 3614 00fb 656C5F66 		.ascii	"el_flags\000"
 3614      6C616773 
 3614      00
 3615              	.LASF217:
 3616 0104 636F6E66 		.ascii	"config\000"
 3616      696700
 3617              	.LASF204:
 3618 010b 73746174 		.ascii	"state\000"
 3618      6500
 3619              	.LASF213:
 3620 0111 70757474 		.ascii	"putt\000"
 3620      00
 3621              	.LASF114:
 3622 0116 54494D32 		.ascii	"TIM2_IRQn\000"
 3622      5F495251 
 3622      6E00
 3623              	.LASF221:
 3624 0120 73657276 		.ascii	"serve_interrupt\000"
 3624      655F696E 
 3624      74657272 
 3624      75707400 
 3625              	.LASF220:
 3626 0130 7365745F 		.ascii	"set_error\000"
 3626      6572726F 
 3626      7200
 3627              	.LASF150:
 3628 013a 43414E32 		.ascii	"CAN2_RX0_IRQn\000"
 3628      5F525830 
 3628      5F495251 
 3628      6E00
 3629              	.LASF157:
 3630 0148 55534152 		.ascii	"USART6_IRQn\000"
 3630      54365F49 
 3630      52516E00 
 3631              	.LASF52:
 3632 0154 6D5F6F77 		.ascii	"m_owner\000"
ARM GAS  /tmp/ccft4r9u.s 			page 66


 3632      6E657200 
 3633              	.LASF62:
 3634 015c 65786974 		.ascii	"exitcode\000"
 3634      636F6465 
 3634      00
 3635              	.LASF162:
 3636 0165 4F54475F 		.ascii	"OTG_HS_WKUP_IRQn\000"
 3636      48535F57 
 3636      4B55505F 
 3636      4952516E 
 3636      00
 3637              	.LASF70:
 3638 0176 715F746F 		.ascii	"q_top\000"
 3638      7000
 3639              	.LASF64:
 3640 017c 65776D61 		.ascii	"ewmask\000"
 3640      736B00
 3641              	.LASF129:
 3642 0183 54494D38 		.ascii	"TIM8_BRK_TIM12_IRQn\000"
 3642      5F42524B 
 3642      5F54494D 
 3642      31325F49 
 3642      52516E00 
 3643              	.LASF185:
 3644 0197 41484232 		.ascii	"AHB2LPENR\000"
 3644      4C50454E 
 3644      5200
 3645              	.LASF216:
 3646 01a1 72656164 		.ascii	"readt\000"
 3646      7400
 3647              	.LASF225:
 3648 01a7 73645F6C 		.ascii	"sd_lld_start\000"
 3648      6C645F73 
 3648      74617274 
 3648      00
 3649              	.LASF69:
 3650 01b4 715F6275 		.ascii	"q_buffer\000"
 3650      66666572 
 3650      00
 3651              	.LASF73:
 3652 01bd 715F6E6F 		.ascii	"q_notify\000"
 3652      74696679 
 3652      00
 3653              	.LASF29:
 3654 01c6 705F6E65 		.ascii	"p_newer\000"
 3654      77657200 
 3655              	.LASF9:
 3656 01ce 6C6F6E67 		.ascii	"long int\000"
 3656      20696E74 
 3656      00
 3657              	.LASF25:
 3658 01d7 705F6E65 		.ascii	"p_next\000"
 3658      787400
 3659              	.LASF72:
 3660 01de 715F7264 		.ascii	"q_rdptr\000"
 3660      70747200 
 3661              	.LASF26:
ARM GAS  /tmp/ccft4r9u.s 			page 67


 3662 01e6 705F7072 		.ascii	"p_prev\000"
 3662      657600
 3663              	.LASF227:
 3664 01ed 64656661 		.ascii	"default_config\000"
 3664      756C745F 
 3664      636F6E66 
 3664      696700
 3665              	.LASF154:
 3666 01fc 444D4132 		.ascii	"DMA2_Stream5_IRQn\000"
 3666      5F537472 
 3666      65616D35 
 3666      5F495251 
 3666      6E00
 3667              	.LASF16:
 3668 020e 74737461 		.ascii	"tstate_t\000"
 3668      74655F74 
 3668      00
 3669              	.LASF41:
 3670 0217 705F6D74 		.ascii	"p_mtxlist\000"
 3670      786C6973 
 3670      7400
 3671              	.LASF112:
 3672 0221 54494D31 		.ascii	"TIM1_TRG_COM_TIM11_IRQn\000"
 3672      5F545247 
 3672      5F434F4D 
 3672      5F54494D 
 3672      31315F49 
 3673              	.LASF206:
 3674 0239 6F717565 		.ascii	"oqueue\000"
 3674      756500
 3675              	.LASF46:
 3676 0240 72656761 		.ascii	"regarm_t\000"
 3676      726D5F74 
 3676      00
 3677              	.LASF182:
 3678 0249 41504232 		.ascii	"APB2ENR\000"
 3678      454E5200 
 3679              	.LASF184:
 3680 0251 41484231 		.ascii	"AHB1LPENR\000"
 3680      4C50454E 
 3680      5200
 3681              	.LASF85:
 3682 025b 53797354 		.ascii	"SysTick_IRQn\000"
 3682      69636B5F 
 3682      4952516E 
 3682      00
 3683              	.LASF125:
 3684 0268 55534152 		.ascii	"USART3_IRQn\000"
 3684      54335F49 
 3684      52516E00 
 3685              	.LASF207:
 3686 0274 75736172 		.ascii	"usart\000"
 3686      7400
 3687              	.LASF230:
 3688 027a 2E2E2F2E 		.ascii	"../../os/hal/platforms/STM32/USARTv1/serial_lld.c\000"
 3688      2E2F6F73 
 3688      2F68616C 
ARM GAS  /tmp/ccft4r9u.s 			page 68


 3688      2F706C61 
 3688      74666F72 
 3689              	.LASF1:
 3690 02ac 7369676E 		.ascii	"signed char\000"
 3690      65642063 
 3690      68617200 
 3691              	.LASF35:
 3692 02b8 705F7072 		.ascii	"p_preempt\000"
 3692      65656D70 
 3692      7400
 3693              	.LASF3:
 3694 02c2 75696E74 		.ascii	"uint8_t\000"
 3694      385F7400 
 3695              	.LASF21:
 3696 02ca 6576656E 		.ascii	"eventmask_t\000"
 3696      746D6173 
 3696      6B5F7400 
 3697              	.LASF48:
 3698 02d6 636F6E74 		.ascii	"context\000"
 3698      65787400 
 3699              	.LASF99:
 3700 02de 444D4131 		.ascii	"DMA1_Stream2_IRQn\000"
 3700      5F537472 
 3700      65616D32 
 3700      5F495251 
 3700      6E00
 3701              	.LASF173:
 3702 02f0 52455345 		.ascii	"RESERVED0\000"
 3702      52564544 
 3702      3000
 3703              	.LASF176:
 3704 02fa 52455345 		.ascii	"RESERVED1\000"
 3704      52564544 
 3704      3100
 3705              	.LASF4:
 3706 0304 756E7369 		.ascii	"unsigned char\000"
 3706      676E6564 
 3706      20636861 
 3706      7200
 3707              	.LASF146:
 3708 0312 444D4132 		.ascii	"DMA2_Stream4_IRQn\000"
 3708      5F537472 
 3708      65616D34 
 3708      5F495251 
 3708      6E00
 3709              	.LASF187:
 3710 0324 52455345 		.ascii	"RESERVED4\000"
 3710      52564544 
 3710      3400
 3711              	.LASF74:
 3712 032e 715F6C69 		.ascii	"q_link\000"
 3712      6E6B00
 3713              	.LASF192:
 3714 0335 52455345 		.ascii	"RESERVED6\000"
 3714      52564544 
 3714      3600
 3715              	.LASF118:
ARM GAS  /tmp/ccft4r9u.s 			page 69


 3716 033f 49324331 		.ascii	"I2C1_ER_IRQn\000"
 3716      5F45525F 
 3716      4952516E 
 3716      00
 3717              	.LASF152:
 3718 034c 43414E32 		.ascii	"CAN2_SCE_IRQn\000"
 3718      5F534345 
 3718      5F495251 
 3718      6E00
 3719              	.LASF198:
 3720 035a 53445F55 		.ascii	"SD_UNINIT\000"
 3720      4E494E49 
 3720      5400
 3721              	.LASF14:
 3722 0364 5F426F6F 		.ascii	"_Bool\000"
 3722      6C00
 3723              	.LASF180:
 3724 036a 52455345 		.ascii	"RESERVED2\000"
 3724      52564544 
 3724      3200
 3725              	.LASF183:
 3726 0374 52455345 		.ascii	"RESERVED3\000"
 3726      52564544 
 3726      3300
 3727              	.LASF136:
 3728 037e 54494D35 		.ascii	"TIM5_IRQn\000"
 3728      5F495251 
 3728      6E00
 3729              	.LASF190:
 3730 0388 52455345 		.ascii	"RESERVED5\000"
 3730      52564544 
 3730      3500
 3731              	.LASF81:
 3732 0392 55736167 		.ascii	"UsageFault_IRQn\000"
 3732      65466175 
 3732      6C745F49 
 3732      52516E00 
 3733              	.LASF65:
 3734 03a2 63686172 		.ascii	"char\000"
 3734      00
 3735              	.LASF27:
 3736 03a7 705F7072 		.ascii	"p_prio\000"
 3736      696F00
 3737              	.LASF178:
 3738 03ae 41484232 		.ascii	"AHB2ENR\000"
 3738      454E5200 
 3739              	.LASF66:
 3740 03b6 47656E65 		.ascii	"GenericQueue\000"
 3740      72696351 
 3740      75657565 
 3740      00
 3741              	.LASF63:
 3742 03c3 77746F62 		.ascii	"wtobjp\000"
 3742      6A7000
 3743              	.LASF106:
 3744 03ca 43414E31 		.ascii	"CAN1_RX0_IRQn\000"
 3744      5F525830 
ARM GAS  /tmp/ccft4r9u.s 			page 70


 3744      5F495251 
 3744      6E00
 3745              	.LASF231:
 3746 03d8 2F686F6D 		.ascii	"/home/witold/Dokumenty/arm/ChibiOS-master/demos/dis"
 3746      652F7769 
 3746      746F6C64 
 3746      2F446F6B 
 3746      756D656E 
 3747 040b 636F7665 		.ascii	"covery_1wire\000"
 3747      72795F31 
 3747      77697265 
 3747      00
 3748              	.LASF214:
 3749 0418 67657474 		.ascii	"gett\000"
 3749      00
 3750              	.LASF197:
 3751 041d 55534152 		.ascii	"USART_TypeDef\000"
 3751      545F5479 
 3751      70654465 
 3751      6600
 3752              	.LASF77:
 3753 042b 4F757470 		.ascii	"OutputQueue\000"
 3753      75745175 
 3753      65756500 
 3754              	.LASF116:
 3755 0437 54494D34 		.ascii	"TIM4_IRQn\000"
 3755      5F495251 
 3755      6E00
 3756              	.LASF124:
 3757 0441 55534152 		.ascii	"USART2_IRQn\000"
 3757      54325F49 
 3757      52516E00 
 3758              	.LASF191:
 3759 044d 42444352 		.ascii	"BDCR\000"
 3759      00
 3760              	.LASF117:
 3761 0452 49324331 		.ascii	"I2C1_EV_IRQn\000"
 3761      5F45565F 
 3761      4952516E 
 3761      00
 3762              	.LASF47:
 3763 045f 696E7463 		.ascii	"intctx\000"
 3763      747800
 3764              	.LASF208:
 3765 0466 73706565 		.ascii	"speed\000"
 3765      6400
 3766              	.LASF40:
 3767 046c 705F6570 		.ascii	"p_epending\000"
 3767      656E6469 
 3767      6E6700
 3768              	.LASF169:
 3769 0477 43464752 		.ascii	"CFGR\000"
 3769      00
 3770              	.LASF113:
 3771 047c 54494D31 		.ascii	"TIM1_CC_IRQn\000"
 3771      5F43435F 
 3771      4952516E 
ARM GAS  /tmp/ccft4r9u.s 			page 71


 3771      00
 3772              	.LASF166:
 3773 0489 48415348 		.ascii	"HASH_RNG_IRQn\000"
 3773      5F524E47 
 3773      5F495251 
 3773      6E00
 3774              	.LASF93:
 3775 0497 45585449 		.ascii	"EXTI1_IRQn\000"
 3775      315F4952 
 3775      516E00
 3776              	.LASF105:
 3777 04a2 43414E31 		.ascii	"CAN1_TX_IRQn\000"
 3777      5F54585F 
 3777      4952516E 
 3777      00
 3778              	.LASF102:
 3779 04af 444D4131 		.ascii	"DMA1_Stream5_IRQn\000"
 3779      5F537472 
 3779      65616D35 
 3779      5F495251 
 3779      6E00
 3780              	.LASF131:
 3781 04c1 54494D38 		.ascii	"TIM8_TRG_COM_TIM14_IRQn\000"
 3781      5F545247 
 3781      5F434F4D 
 3781      5F54494D 
 3781      31345F49 
 3782              	.LASF60:
 3783 04d9 65735F6E 		.ascii	"es_next\000"
 3783      65787400 
 3784              	.LASF68:
 3785 04e1 715F636F 		.ascii	"q_counter\000"
 3785      756E7465 
 3785      7200
 3786              	.LASF153:
 3787 04eb 4F54475F 		.ascii	"OTG_FS_IRQn\000"
 3787      46535F49 
 3787      52516E00 
 3788              	.LASF78:
 3789 04f7 4E6F6E4D 		.ascii	"NonMaskableInt_IRQn\000"
 3789      61736B61 
 3789      626C6549 
 3789      6E745F49 
 3789      52516E00 
 3790              	.LASF134:
 3791 050b 46534D43 		.ascii	"FSMC_IRQn\000"
 3791      5F495251 
 3791      6E00
 3792              	.LASF59:
 3793 0515 4576656E 		.ascii	"EventSource\000"
 3793      74536F75 
 3793      72636500 
 3794              	.LASF86:
 3795 0521 57574447 		.ascii	"WWDG_IRQn\000"
 3795      5F495251 
 3795      6E00
 3796              	.LASF11:
ARM GAS  /tmp/ccft4r9u.s 			page 72


 3797 052b 6C6F6E67 		.ascii	"long unsigned int\000"
 3797      20756E73 
 3797      69676E65 
 3797      6420696E 
 3797      7400
 3798              	.LASF79:
 3799 053d 4D656D6F 		.ascii	"MemoryManagement_IRQn\000"
 3799      72794D61 
 3799      6E616765 
 3799      6D656E74 
 3799      5F495251 
 3800              	.LASF88:
 3801 0553 54414D50 		.ascii	"TAMP_STAMP_IRQn\000"
 3801      5F535441 
 3801      4D505F49 
 3801      52516E00 
 3802              	.LASF108:
 3803 0563 43414E31 		.ascii	"CAN1_SCE_IRQn\000"
 3803      5F534345 
 3803      5F495251 
 3803      6E00
 3804              	.LASF55:
 3805 0571 656C5F6E 		.ascii	"el_next\000"
 3805      65787400 
 3806              	.LASF71:
 3807 0579 715F7772 		.ascii	"q_wrptr\000"
 3807      70747200 
 3808              	.LASF210:
 3809 0581 53657269 		.ascii	"SerialDriverVMT\000"
 3809      616C4472 
 3809      69766572 
 3809      564D5400 
 3810              	.LASF219:
 3811 0591 75736172 		.ascii	"usart_deinit\000"
 3811      745F6465 
 3811      696E6974 
 3811      00
 3812              	.LASF120:
 3813 059e 49324332 		.ascii	"I2C2_ER_IRQn\000"
 3813      5F45525F 
 3813      4952516E 
 3813      00
 3814              	.LASF80:
 3815 05ab 42757346 		.ascii	"BusFault_IRQn\000"
 3815      61756C74 
 3815      5F495251 
 3815      6E00
 3816              	.LASF224:
 3817 05b9 73645F6C 		.ascii	"sd_lld_init\000"
 3817      6C645F69 
 3817      6E697400 
 3818              	.LASF168:
 3819 05c5 504C4C43 		.ascii	"PLLCFGR\000"
 3819      46475200 
 3820              	.LASF139:
 3821 05cd 55415254 		.ascii	"UART5_IRQn\000"
 3821      355F4952 
ARM GAS  /tmp/ccft4r9u.s 			page 73


 3821      516E00
 3822              	.LASF110:
 3823 05d8 54494D31 		.ascii	"TIM1_BRK_TIM9_IRQn\000"
 3823      5F42524B 
 3823      5F54494D 
 3823      395F4952 
 3823      516E00
 3824              	.LASF50:
 3825 05eb 4D757465 		.ascii	"Mutex\000"
 3825      7800
 3826              	.LASF141:
 3827 05f1 54494D37 		.ascii	"TIM7_IRQn\000"
 3827      5F495251 
 3827      6E00
 3828              	.LASF12:
 3829 05fb 6C6F6E67 		.ascii	"long long int\000"
 3829      206C6F6E 
 3829      6720696E 
 3829      7400
 3830              	.LASF148:
 3831 0609 4554485F 		.ascii	"ETH_WKUP_IRQn\000"
 3831      574B5550 
 3831      5F495251 
 3831      6E00
 3832              	.LASF122:
 3833 0617 53504932 		.ascii	"SPI2_IRQn\000"
 3833      5F495251 
 3833      6E00
 3834              	.LASF163:
 3835 0621 4F54475F 		.ascii	"OTG_HS_IRQn\000"
 3835      48535F49 
 3835      52516E00 
 3836              	.LASF51:
 3837 062d 6D5F7175 		.ascii	"m_queue\000"
 3837      65756500 
 3838              	.LASF193:
 3839 0635 53534347 		.ascii	"SSCGR\000"
 3839      5200
 3840              	.LASF121:
 3841 063b 53504931 		.ascii	"SPI1_IRQn\000"
 3841      5F495251 
 3841      6E00
 3842              	.LASF82:
 3843 0645 53564361 		.ascii	"SVCall_IRQn\000"
 3843      6C6C5F49 
 3843      52516E00 
 3844              	.LASF175:
 3845 0651 41504232 		.ascii	"APB2RSTR\000"
 3845      52535452 
 3845      00
 3846              	.LASF167:
 3847 065a 4650555F 		.ascii	"FPU_IRQn\000"
 3847      4952516E 
 3847      00
 3848              	.LASF138:
 3849 0663 55415254 		.ascii	"UART4_IRQn\000"
 3849      345F4952 
ARM GAS  /tmp/ccft4r9u.s 			page 74


 3849      516E00
 3850              	.LASF189:
 3851 066e 41504232 		.ascii	"APB2LPENR\000"
 3851      4C50454E 
 3851      5200
 3852              	.LASF75:
 3853 0678 716E6F74 		.ascii	"qnotify_t\000"
 3853      6966795F 
 3853      7400
 3854              	.LASF37:
 3855 0682 705F7761 		.ascii	"p_waiting\000"
 3855      6974696E 
 3855      6700
 3856              	.LASF142:
 3857 068c 444D4132 		.ascii	"DMA2_Stream0_IRQn\000"
 3857      5F537472 
 3857      65616D30 
 3857      5F495251 
 3857      6E00
 3858              	.LASF203:
 3859 069e 6576656E 		.ascii	"event\000"
 3859      7400
 3860              	.LASF128:
 3861 06a4 4F54475F 		.ascii	"OTG_FS_WKUP_IRQn\000"
 3861      46535F57 
 3861      4B55505F 
 3861      4952516E 
 3861      00
 3862              	.LASF33:
 3863 06b5 705F666C 		.ascii	"p_flags\000"
 3863      61677300 
 3864              	.LASF212:
 3865 06bd 72656164 		.ascii	"read\000"
 3865      00
 3866              	.LASF0:
 3867 06c2 756E7369 		.ascii	"unsigned int\000"
 3867      676E6564 
 3867      20696E74 
 3867      00
 3868              	.LASF140:
 3869 06cf 54494D36 		.ascii	"TIM6_DAC_IRQn\000"
 3869      5F444143 
 3869      5F495251 
 3869      6E00
 3870              	.LASF43:
 3871 06dd 705F6D70 		.ascii	"p_mpool\000"
 3871      6F6F6C00 
 3872              	.LASF119:
 3873 06e5 49324332 		.ascii	"I2C2_EV_IRQn\000"
 3873      5F45565F 
 3873      4952516E 
 3873      00
 3874              	.LASF34:
 3875 06f2 705F7265 		.ascii	"p_refs\000"
 3875      667300
 3876              	.LASF45:
 3877 06f9 54687265 		.ascii	"ThreadsList\000"
ARM GAS  /tmp/ccft4r9u.s 			page 75


 3877      6164734C 
 3877      69737400 
 3878              	.LASF188:
 3879 0705 41504231 		.ascii	"APB1LPENR\000"
 3879      4C50454E 
 3879      5200
 3880              	.LASF98:
 3881 070f 444D4131 		.ascii	"DMA1_Stream1_IRQn\000"
 3881      5F537472 
 3881      65616D31 
 3881      5F495251 
 3881      6E00
 3882              	.LASF22:
 3883 0721 666C6167 		.ascii	"flagsmask_t\000"
 3883      736D6173 
 3883      6B5F7400 
 3884              	.LASF145:
 3885 072d 444D4132 		.ascii	"DMA2_Stream3_IRQn\000"
 3885      5F537472 
 3885      65616D33 
 3885      5F495251 
 3885      6E00
 3886              	.LASF149:
 3887 073f 43414E32 		.ascii	"CAN2_TX_IRQn\000"
 3887      5F54585F 
 3887      4952516E 
 3887      00
 3888              	.LASF36:
 3889 074c 705F7469 		.ascii	"p_time\000"
 3889      6D6500
 3890              	.LASF232:
 3891 0753 4952516E 		.ascii	"IRQn\000"
 3891      00
 3892              	.LASF103:
 3893 0758 444D4131 		.ascii	"DMA1_Stream6_IRQn\000"
 3893      5F537472 
 3893      65616D36 
 3893      5F495251 
 3893      6E00
 3894              	.LASF172:
 3895 076a 41484233 		.ascii	"AHB3RSTR\000"
 3895      52535452 
 3895      00
 3896              	.LASF42:
 3897 0773 705F7265 		.ascii	"p_realprio\000"
 3897      616C7072 
 3897      696F00
 3898              	.LASF156:
 3899 077e 444D4132 		.ascii	"DMA2_Stream7_IRQn\000"
 3899      5F537472 
 3899      65616D37 
 3899      5F495251 
 3899      6E00
 3900              	.LASF97:
 3901 0790 444D4131 		.ascii	"DMA1_Stream0_IRQn\000"
 3901      5F537472 
 3901      65616D30 
ARM GAS  /tmp/ccft4r9u.s 			page 76


 3901      5F495251 
 3901      6E00
 3902              	.LASF174:
 3903 07a2 41504231 		.ascii	"APB1RSTR\000"
 3903      52535452 
 3903      00
 3904              	.LASF218:
 3905 07ab 75736172 		.ascii	"usart_init\000"
 3905      745F696E 
 3905      697400
 3906              	.LASF127:
 3907 07b6 5254435F 		.ascii	"RTC_Alarm_IRQn\000"
 3907      416C6172 
 3907      6D5F4952 
 3907      516E00
 3908              	.LASF181:
 3909 07c5 41504231 		.ascii	"APB1ENR\000"
 3909      454E5200 
 3910              	.LASF159:
 3911 07cd 49324333 		.ascii	"I2C3_ER_IRQn\000"
 3911      5F45525F 
 3911      4952516E 
 3911      00
 3912              	.LASF165:
 3913 07da 43525950 		.ascii	"CRYP_IRQn\000"
 3913      5F495251 
 3913      6E00
 3914              	.LASF126:
 3915 07e4 45585449 		.ascii	"EXTI15_10_IRQn\000"
 3915      31355F31 
 3915      305F4952 
 3915      516E00
 3916              	.LASF13:
 3917 07f3 6C6F6E67 		.ascii	"long long unsigned int\000"
 3917      206C6F6E 
 3917      6720756E 
 3917      7369676E 
 3917      65642069 
 3918              	.LASF30:
 3919 080a 705F6F6C 		.ascii	"p_older\000"
 3919      64657200 
 3920              	.LASF6:
 3921 0812 75696E74 		.ascii	"uint16_t\000"
 3921      31365F74 
 3921      00
 3922              	.LASF20:
 3923 081b 6D73675F 		.ascii	"msg_t\000"
 3923      7400
 3924              	.LASF115:
 3925 0821 54494D33 		.ascii	"TIM3_IRQn\000"
 3925      5F495251 
 3925      6E00
 3926              	.LASF123:
 3927 082b 55534152 		.ascii	"USART1_IRQn\000"
 3927      54315F49 
 3927      52516E00 
 3928              	.LASF18:
ARM GAS  /tmp/ccft4r9u.s 			page 77


 3929 0837 74736C69 		.ascii	"tslices_t\000"
 3929      6365735F 
 3929      7400
 3930              	.LASF94:
 3931 0841 45585449 		.ascii	"EXTI2_IRQn\000"
 3931      325F4952 
 3931      516E00
 3932              	.LASF151:
 3933 084c 43414E32 		.ascii	"CAN2_RX1_IRQn\000"
 3933      5F525831 
 3933      5F495251 
 3933      6E00
 3934              	.LASF104:
 3935 085a 4144435F 		.ascii	"ADC_IRQn\000"
 3935      4952516E 
 3935      00
 3936              	.LASF186:
 3937 0863 41484233 		.ascii	"AHB3LPENR\000"
 3937      4C50454E 
 3937      5200
 3938              	.LASF87:
 3939 086d 5056445F 		.ascii	"PVD_IRQn\000"
 3939      4952516E 
 3939      00
 3940              	.LASF202:
 3941 0876 53657269 		.ascii	"SerialDriver\000"
 3941      616C4472 
 3941      69766572 
 3941      00
 3942              	.LASF67:
 3943 0883 715F7761 		.ascii	"q_waiting\000"
 3943      6974696E 
 3943      6700
 3944              	.LASF92:
 3945 088d 45585449 		.ascii	"EXTI0_IRQn\000"
 3945      305F4952 
 3945      516E00
 3946              	.LASF15:
 3947 0898 746D6F64 		.ascii	"tmode_t\000"
 3947      655F7400 
 3948              	.LASF101:
 3949 08a0 444D4131 		.ascii	"DMA1_Stream4_IRQn\000"
 3949      5F537472 
 3949      65616D34 
 3949      5F495251 
 3949      6E00
 3950              	.LASF201:
 3951 08b2 73647374 		.ascii	"sdstate_t\000"
 3951      6174655F 
 3951      7400
 3952              	.LASF155:
 3953 08bc 444D4132 		.ascii	"DMA2_Stream6_IRQn\000"
 3953      5F537472 
 3953      65616D36 
 3953      5F495251 
 3953      6E00
 3954              	.LASF177:
ARM GAS  /tmp/ccft4r9u.s 			page 78


 3955 08ce 41484231 		.ascii	"AHB1ENR\000"
 3955      454E5200 
 3956              	.LASF83:
 3957 08d6 44656275 		.ascii	"DebugMonitor_IRQn\000"
 3957      674D6F6E 
 3957      69746F72 
 3957      5F495251 
 3957      6E00
 3958              	.LASF200:
 3959 08e8 53445F52 		.ascii	"SD_READY\000"
 3959      45414459 
 3959      00
 3960              	.LASF158:
 3961 08f1 49324333 		.ascii	"I2C3_EV_IRQn\000"
 3961      5F45565F 
 3961      4952516E 
 3961      00
 3962              	.LASF171:
 3963 08fe 41484232 		.ascii	"AHB2RSTR\000"
 3963      52535452 
 3963      00
 3964              	.LASF147:
 3965 0907 4554485F 		.ascii	"ETH_IRQn\000"
 3965      4952516E 
 3965      00
 3966              	.LASF222:
 3967 0910 6E6F7469 		.ascii	"notify2\000"
 3967      66793200 
 3968              	.LASF195:
 3969 0918 5243435F 		.ascii	"RCC_TypeDef\000"
 3969      54797065 
 3969      44656600 
 3970              	.LASF5:
 3971 0924 73686F72 		.ascii	"short int\000"
 3971      7420696E 
 3971      7400
 3972              	.LASF91:
 3973 092e 5243435F 		.ascii	"RCC_IRQn\000"
 3973      4952516E 
 3973      00
 3974              	.LASF205:
 3975 0937 69717565 		.ascii	"iqueue\000"
 3975      756500
 3976              	.LASF100:
 3977 093e 444D4131 		.ascii	"DMA1_Stream3_IRQn\000"
 3977      5F537472 
 3977      65616D33 
 3977      5F495251 
 3977      6E00
 3978              	.LASF24:
 3979 0950 54687265 		.ascii	"Thread\000"
 3979      616400
 3980              	.LASF111:
 3981 0957 54494D31 		.ascii	"TIM1_UP_TIM10_IRQn\000"
 3981      5F55505F 
 3981      54494D31 
 3981      305F4952 
ARM GAS  /tmp/ccft4r9u.s 			page 79


 3981      516E00
 3982              	.LASF228:
 3983 096a 49544D5F 		.ascii	"ITM_RxBuffer\000"
 3983      52784275 
 3983      66666572 
 3983      00
 3984              	.LASF17:
 3985 0977 74726566 		.ascii	"trefs_t\000"
 3985      735F7400 
 3986              	.LASF160:
 3987 097f 4F54475F 		.ascii	"OTG_HS_EP1_OUT_IRQn\000"
 3987      48535F45 
 3987      50315F4F 
 3987      55545F49 
 3987      52516E00 
 3988              	.LASF89:
 3989 0993 5254435F 		.ascii	"RTC_WKUP_IRQn\000"
 3989      574B5550 
 3989      5F495251 
 3989      6E00
 3990              	.LASF54:
 3991 09a1 4576656E 		.ascii	"EventListener\000"
 3991      744C6973 
 3991      74656E65 
 3991      7200
 3992              	.LASF10:
 3993 09af 75696E74 		.ascii	"uint32_t\000"
 3993      33325F74 
 3993      00
 3994              	.LASF107:
 3995 09b8 43414E31 		.ascii	"CAN1_RX1_IRQn\000"
 3995      5F525831 
 3995      5F495251 
 3995      6E00
 3996              	.LASF44:
 3997 09c6 54687265 		.ascii	"ThreadsQueue\000"
 3997      61647351 
 3997      75657565 
 3997      00
 3998              	.LASF109:
 3999 09d3 45585449 		.ascii	"EXTI9_5_IRQn\000"
 3999      395F355F 
 3999      4952516E 
 3999      00
 4000              	.LASF61:
 4001 09e0 7264796D 		.ascii	"rdymsg\000"
 4001      736700
 4002              	.LASF96:
 4003 09e7 45585449 		.ascii	"EXTI4_IRQn\000"
 4003      345F4952 
 4003      516E00
 4004              	.LASF7:
 4005 09f2 73686F72 		.ascii	"short unsigned int\000"
 4005      7420756E 
 4005      7369676E 
 4005      65642069 
 4005      6E7400
ARM GAS  /tmp/ccft4r9u.s 			page 80


 4006              	.LASF226:
 4007 0a05 73645F6C 		.ascii	"sd_lld_stop\000"
 4007      6C645F73 
 4007      746F7000 
 4008              	.LASF132:
 4009 0a11 54494D38 		.ascii	"TIM8_CC_IRQn\000"
 4009      5F43435F 
 4009      4952516E 
 4009      00
 4010              	.LASF135:
 4011 0a1e 5344494F 		.ascii	"SDIO_IRQn\000"
 4011      5F495251 
 4011      6E00
 4012              	.LASF76:
 4013 0a28 496E7075 		.ascii	"InputQueue\000"
 4013      74517565 
 4013      756500
 4014              	.LASF95:
 4015 0a33 45585449 		.ascii	"EXTI3_IRQn\000"
 4015      335F4952 
 4015      516E00
 4016              	.LASF84:
 4017 0a3e 50656E64 		.ascii	"PendSV_IRQn\000"
 4017      53565F49 
 4017      52516E00 
 4018              	.LASF161:
 4019 0a4a 4F54475F 		.ascii	"OTG_HS_EP1_IN_IRQn\000"
 4019      48535F45 
 4019      50315F49 
 4019      4E5F4952 
 4019      516E00
 4020              	.LASF133:
 4021 0a5d 444D4131 		.ascii	"DMA1_Stream7_IRQn\000"
 4021      5F537472 
 4021      65616D37 
 4021      5F495251 
 4021      6E00
 4022              	.LASF170:
 4023 0a6f 41484231 		.ascii	"AHB1RSTR\000"
 4023      52535452 
 4023      00
 4024              	.LASF199:
 4025 0a78 53445F53 		.ascii	"SD_STOP\000"
 4025      544F5000 
 4026              	.LASF57:
 4027 0a80 656C5F6D 		.ascii	"el_mask\000"
 4027      61736B00 
 4028              	.LASF31:
 4029 0a88 705F6E61 		.ascii	"p_name\000"
 4029      6D6500
 4030              	.LASF53:
 4031 0a8f 6D5F6E65 		.ascii	"m_next\000"
 4031      787400
 4032              	.LASF179:
 4033 0a96 41484233 		.ascii	"AHB3ENR\000"
 4033      454E5200 
 4034              	.LASF144:
ARM GAS  /tmp/ccft4r9u.s 			page 81


 4035 0a9e 444D4132 		.ascii	"DMA2_Stream2_IRQn\000"
 4035      5F537472 
 4035      65616D32 
 4035      5F495251 
 4035      6E00
 4036              	.LASF39:
 4037 0ab0 705F6D73 		.ascii	"p_msg\000"
 4037      6700
 4038              	.LASF56:
 4039 0ab6 656C5F6C 		.ascii	"el_listener\000"
 4039      69737465 
 4039      6E657200 
 4040              	.LASF32:
 4041 0ac2 705F7374 		.ascii	"p_state\000"
 4041      61746500 
 4042              		.ident	"GCC: (GNU Tools for ARM Embedded Processors) 4.7.4 20130613 (release) [ARM/embedded-4_7-br
ARM GAS  /tmp/ccft4r9u.s 			page 82


DEFINED SYMBOLS
                            *ABS*:00000000 serial_lld.c
     /tmp/ccft4r9u.s:23     .bss.SD2:00000000 SD2
     /tmp/ccft4r9u.s:20     .bss.SD2:00000000 $d
     /tmp/ccft4r9u.s:26     .rodata.default_config:00000000 $d
     /tmp/ccft4r9u.s:29     .rodata.default_config:00000000 default_config
     /tmp/ccft4r9u.s:36     .text.usart_init:00000000 $t
     /tmp/ccft4r9u.s:41     .text.usart_init:00000000 usart_init
     /tmp/ccft4r9u.s:133    .text.usart_deinit:00000000 $t
     /tmp/ccft4r9u.s:138    .text.usart_deinit:00000000 usart_deinit
     /tmp/ccft4r9u.s:168    .text.set_error:00000000 $t
     /tmp/ccft4r9u.s:173    .text.set_error:00000000 set_error
     /tmp/ccft4r9u.s:261    .text.serve_interrupt:00000000 $t
     /tmp/ccft4r9u.s:266    .text.serve_interrupt:00000000 serve_interrupt
     /tmp/ccft4r9u.s:482    .text.notify2:00000000 $t
     /tmp/ccft4r9u.s:487    .text.notify2:00000000 notify2
     /tmp/ccft4r9u.s:515    .text.VectorD8:00000000 $t
     /tmp/ccft4r9u.s:521    .text.VectorD8:00000000 VectorD8
     /tmp/ccft4r9u.s:544    .text.sd_lld_init:00000000 $t
     /tmp/ccft4r9u.s:550    .text.sd_lld_init:00000000 sd_lld_init
     /tmp/ccft4r9u.s:580    .text.sd_lld_start:00000000 $t
     /tmp/ccft4r9u.s:586    .text.sd_lld_start:00000000 sd_lld_start
     /tmp/ccft4r9u.s:645    .text.sd_lld_stop:00000000 $t
     /tmp/ccft4r9u.s:651    .text.sd_lld_stop:00000000 sd_lld_stop
                     .debug_frame:00000010 $d

UNDEFINED SYMBOLS
chEvtBroadcastFlagsI
sdIncomingDataI
chOQGetI
_port_irq_epilogue
sdObjectInit
nvicEnableVector
nvicDisableVector
