ARM GAS  /tmp/ccft4r9u.s 			page 1


   1              		.syntax unified
   2              		.cpu cortex-m4
   3              		.fpu softvfp
   4              		.eabi_attribute 20, 1
   5              		.eabi_attribute 21, 1
   6              		.eabi_attribute 23, 3
   7              		.eabi_attribute 24, 1
   8              		.eabi_attribute 25, 1
   9              		.eabi_attribute 26, 1
  10              		.eabi_attribute 30, 6
  11              		.eabi_attribute 34, 1
  12              		.eabi_attribute 18, 4
  13              		.thumb
  14              		.file	"serial_lld.c"
  15              		.text
  16              	.Ltext0:
  17              		.cfi_sections	.debug_frame
  18              		.global	SD2
  19              		.section	.bss.SD2,"aw",%nobits
  20              		.align	2
  21              		.type	SD2, %object
  22              		.size	SD2, 120
  23              	SD2:
  24 0000 00000000 		.space	120
  24      00000000 
  24      00000000 
  24      00000000 
  24      00000000 
  25              		.section	.rodata.default_config,"a",%progbits
  26              		.align	2
  27              		.type	default_config, %object
  28              		.size	default_config, 12
  29              	default_config:
  30 0000 00960000 		.word	38400
  31 0004 0000     		.short	0
  32 0006 0040     		.short	16384
  33 0008 0000     		.short	0
  34 000a 0000     		.space	2
  35              		.section	.text.usart_init,"ax",%progbits
  36              		.align	2
  37              		.p2align 4,,15
  38              		.thumb
  39              		.thumb_func
  40              		.type	usart_init, %function
  41              	usart_init:
  42              	.LFB118:
  43              		.file 1 "../../os/hal/platforms/STM32/USARTv1/serial_lld.c"
  44              		.loc 1 92 0
  45              		.cfi_startproc
  46              		@ args = 0, pretend = 0, frame = 16
  47              		@ frame_needed = 0, uses_anonymous_args = 0
  48              		@ link register save eliminated.
  49 0000 84B0     		sub	sp, sp, #16
  50              	.LCFI0:
  51              		.cfi_def_cfa_offset 16
  52 0002 0190     		str	r0, [sp, #4]
  53 0004 0091     		str	r1, [sp, #0]
ARM GAS  /tmp/ccft4r9u.s 			page 2


  54              		.loc 1 93 0
  55 0006 019B     		ldr	r3, [sp, #4]
  56 0008 5B6F     		ldr	r3, [r3, #116]
  57 000a 0393     		str	r3, [sp, #12]
  58              		.loc 1 97 0
  59 000c 019B     		ldr	r3, [sp, #4]
  60 000e 5A6F     		ldr	r2, [r3, #116]
  61 0010 4FF48053 		mov	r3, #4096
  62 0014 C4F20103 		movt	r3, 16385
  63 0018 9A42     		cmp	r2, r3
  64 001a 07D0     		beq	.L2
  65              		.loc 1 97 0 is_stmt 0 discriminator 1
  66 001c 019B     		ldr	r3, [sp, #4]
  67 001e 5A6F     		ldr	r2, [r3, #116]
  68 0020 4FF4A053 		mov	r3, #5120
  69 0024 C4F20103 		movt	r3, 16385
  70 0028 9A42     		cmp	r2, r3
  71 002a 0BD1     		bne	.L3
  72              	.L2:
  73              		.loc 1 101 0 is_stmt 1
  74 002c 009B     		ldr	r3, [sp, #0]
  75 002e 1A68     		ldr	r2, [r3, #0]
  76 0030 4FF43D43 		mov	r3, #48384
  77 0034 C0F20153 		movt	r3, 1281
  78 0038 B3FBF2F3 		udiv	r3, r3, r2
  79 003c 9AB2     		uxth	r2, r3
  80 003e 039B     		ldr	r3, [sp, #12]
  81 0040 1A81     		strh	r2, [r3, #8]	@ movhi
  82 0042 0AE0     		b	.L4
  83              	.L3:
  84              		.loc 1 103 0
  85 0044 009B     		ldr	r3, [sp, #0]
  86 0046 1A68     		ldr	r2, [r3, #0]
  87 0048 4DF68063 		movw	r3, #56960
  88 004c C0F28023 		movt	r3, 640
  89 0050 B3FBF2F3 		udiv	r3, r3, r2
  90 0054 9AB2     		uxth	r2, r3
  91 0056 039B     		ldr	r3, [sp, #12]
  92 0058 1A81     		strh	r2, [r3, #8]	@ movhi
  93              	.L4:
  94              		.loc 1 106 0
  95 005a 009B     		ldr	r3, [sp, #0]
  96 005c DB88     		ldrh	r3, [r3, #6]
  97 005e 43F04003 		orr	r3, r3, #64
  98 0062 9AB2     		uxth	r2, r3
  99 0064 039B     		ldr	r3, [sp, #12]
 100 0066 1A82     		strh	r2, [r3, #16]	@ movhi
 101              		.loc 1 107 0
 102 0068 009B     		ldr	r3, [sp, #0]
 103 006a 1B89     		ldrh	r3, [r3, #8]
 104 006c 43F00103 		orr	r3, r3, #1
 105 0070 9AB2     		uxth	r2, r3
 106 0072 039B     		ldr	r3, [sp, #12]
 107 0074 9A82     		strh	r2, [r3, #20]	@ movhi
 108              		.loc 1 108 0
 109 0076 009B     		ldr	r3, [sp, #0]
 110 0078 9B88     		ldrh	r3, [r3, #4]
ARM GAS  /tmp/ccft4r9u.s 			page 3


 111 007a 43F40453 		orr	r3, r3, #8448
 112 007e 43F02C03 		orr	r3, r3, #44
 113 0082 9AB2     		uxth	r2, r3
 114 0084 039B     		ldr	r3, [sp, #12]
 115 0086 9A81     		strh	r2, [r3, #12]	@ movhi
 116              		.loc 1 111 0
 117 0088 039B     		ldr	r3, [sp, #12]
 118 008a 4FF00002 		mov	r2, #0
 119 008e 1A80     		strh	r2, [r3, #0]	@ movhi
 120              		.loc 1 112 0
 121 0090 039B     		ldr	r3, [sp, #12]
 122 0092 1B88     		ldrh	r3, [r3, #0]	@ movhi
 123              		.loc 1 113 0
 124 0094 039B     		ldr	r3, [sp, #12]
 125 0096 9B88     		ldrh	r3, [r3, #4]	@ movhi
 126              		.loc 1 114 0
 127 0098 04B0     		add	sp, sp, #16
 128 009a 7047     		bx	lr
 129              		.cfi_endproc
 130              	.LFE118:
 131              		.size	usart_init, .-usart_init
 132 009c AFF30080 		.section	.text.usart_deinit,"ax",%progbits
 133              		.align	2
 134              		.p2align 4,,15
 135              		.thumb
 136              		.thumb_func
 137              		.type	usart_deinit, %function
 138              	usart_deinit:
 139              	.LFB119:
 140              		.loc 1 122 0
 141              		.cfi_startproc
 142              		@ args = 0, pretend = 0, frame = 8
 143              		@ frame_needed = 0, uses_anonymous_args = 0
 144              		@ link register save eliminated.
 145 0000 82B0     		sub	sp, sp, #8
 146              	.LCFI1:
 147              		.cfi_def_cfa_offset 8
 148 0002 0190     		str	r0, [sp, #4]
 149              		.loc 1 124 0
 150 0004 019B     		ldr	r3, [sp, #4]
 151 0006 4FF00002 		mov	r2, #0
 152 000a 9A81     		strh	r2, [r3, #12]	@ movhi
 153              		.loc 1 125 0
 154 000c 019B     		ldr	r3, [sp, #4]
 155 000e 4FF00002 		mov	r2, #0
 156 0012 1A82     		strh	r2, [r3, #16]	@ movhi
 157              		.loc 1 126 0
 158 0014 019B     		ldr	r3, [sp, #4]
 159 0016 4FF00002 		mov	r2, #0
 160 001a 9A82     		strh	r2, [r3, #20]	@ movhi
 161              		.loc 1 127 0
 162 001c 02B0     		add	sp, sp, #8
 163 001e 7047     		bx	lr
 164              		.cfi_endproc
 165              	.LFE119:
 166              		.size	usart_deinit, .-usart_deinit
 167              		.section	.text.set_error,"ax",%progbits
ARM GAS  /tmp/ccft4r9u.s 			page 4


 168              		.align	2
 169              		.p2align 4,,15
 170              		.thumb
 171              		.thumb_func
 172              		.type	set_error, %function
 173              	set_error:
 174              	.LFB120:
 175              		.loc 1 135 0
 176              		.cfi_startproc
 177              		@ args = 0, pretend = 0, frame = 16
 178              		@ frame_needed = 0, uses_anonymous_args = 0
 179 0000 00B5     		push	{lr}
 180              	.LCFI2:
 181              		.cfi_def_cfa_offset 4
 182              		.cfi_offset 14, -4
 183 0002 85B0     		sub	sp, sp, #20
 184              	.LCFI3:
 185              		.cfi_def_cfa_offset 24
 186 0004 0190     		str	r0, [sp, #4]
 187 0006 0B46     		mov	r3, r1
 188 0008 ADF80230 		strh	r3, [sp, #2]	@ movhi
 189              		.loc 1 136 0
 190 000c 4FF00003 		mov	r3, #0
 191 0010 0393     		str	r3, [sp, #12]
 192              		.loc 1 138 0
 193 0012 BDF80230 		ldrh	r3, [sp, #2]
 194 0016 03F00803 		and	r3, r3, #8
 195 001a 002B     		cmp	r3, #0
 196 001c 03D0     		beq	.L7
 197              		.loc 1 139 0
 198 001e 039B     		ldr	r3, [sp, #12]
 199 0020 43F08003 		orr	r3, r3, #128
 200 0024 0393     		str	r3, [sp, #12]
 201              	.L7:
 202              		.loc 1 140 0
 203 0026 BDF80230 		ldrh	r3, [sp, #2]
 204 002a 03F00103 		and	r3, r3, #1
 205 002e 002B     		cmp	r3, #0
 206 0030 03D0     		beq	.L8
 207              		.loc 1 141 0
 208 0032 039B     		ldr	r3, [sp, #12]
 209 0034 43F02003 		orr	r3, r3, #32
 210 0038 0393     		str	r3, [sp, #12]
 211              	.L8:
 212              		.loc 1 142 0
 213 003a BDF80230 		ldrh	r3, [sp, #2]
 214 003e 03F00203 		and	r3, r3, #2
 215 0042 002B     		cmp	r3, #0
 216 0044 03D0     		beq	.L9
 217              		.loc 1 143 0
 218 0046 039B     		ldr	r3, [sp, #12]
 219 0048 43F04003 		orr	r3, r3, #64
 220 004c 0393     		str	r3, [sp, #12]
 221              	.L9:
 222              		.loc 1 144 0
 223 004e BDF80230 		ldrh	r3, [sp, #2]
 224 0052 03F00403 		and	r3, r3, #4
ARM GAS  /tmp/ccft4r9u.s 			page 5


 225 0056 002B     		cmp	r3, #0
 226 0058 03D0     		beq	.L10
 227              		.loc 1 145 0
 228 005a 039B     		ldr	r3, [sp, #12]
 229 005c 43F48073 		orr	r3, r3, #256
 230 0060 0393     		str	r3, [sp, #12]
 231              	.L10:
 232              	.LBB2:
 233              		.loc 1 146 0
 234 0062 4FF02003 		mov	r3, #32
 235              	@ 146 "../../os/hal/platforms/STM32/USARTv1/serial_lld.c" 1
 236 0066 83F31188 		msr     BASEPRI, r3
 237              	@ 0 "" 2
 238              		.thumb
 239              	.LBE2:
 240              		.loc 1 147 0
 241 006a 019B     		ldr	r3, [sp, #4]
 242 006c 03F10403 		add	r3, r3, #4
 243 0070 1846     		mov	r0, r3
 244 0072 0399     		ldr	r1, [sp, #12]
 245 0074 FFF7FEFF 		bl	chEvtBroadcastFlagsI
 246              	.LBB3:
 247              		.loc 1 148 0
 248 0078 4FF00003 		mov	r3, #0
 249              	@ 148 "../../os/hal/platforms/STM32/USARTv1/serial_lld.c" 1
 250 007c 83F31188 		msr     BASEPRI, r3
 251              	@ 0 "" 2
 252              		.thumb
 253              	.LBE3:
 254              		.loc 1 149 0
 255 0080 05B0     		add	sp, sp, #20
 256 0082 00BD     		pop	{pc}
 257              		.cfi_endproc
 258              	.LFE120:
 259              		.size	set_error, .-set_error
 260 0084 AFF30080 		.section	.text.serve_interrupt,"ax",%progbits
 260      AFF30080 
 260      AFF30080 
 261              		.align	2
 262              		.p2align 4,,15
 263              		.thumb
 264              		.thumb_func
 265              		.type	serve_interrupt, %function
 266              	serve_interrupt:
 267              	.LFB121:
 268              		.loc 1 156 0
 269              		.cfi_startproc
 270              		@ args = 0, pretend = 0, frame = 24
 271              		@ frame_needed = 0, uses_anonymous_args = 0
 272 0000 00B5     		push	{lr}
 273              	.LCFI4:
 274              		.cfi_def_cfa_offset 4
 275              		.cfi_offset 14, -4
 276 0002 87B0     		sub	sp, sp, #28
 277              	.LCFI5:
 278              		.cfi_def_cfa_offset 32
 279 0004 0190     		str	r0, [sp, #4]
ARM GAS  /tmp/ccft4r9u.s 			page 6


 280              		.loc 1 157 0
 281 0006 019B     		ldr	r3, [sp, #4]
 282 0008 5B6F     		ldr	r3, [r3, #116]
 283 000a 0593     		str	r3, [sp, #20]
 284              		.loc 1 158 0
 285 000c 059B     		ldr	r3, [sp, #20]
 286 000e 9B89     		ldrh	r3, [r3, #12]	@ movhi
 287 0010 ADF81230 		strh	r3, [sp, #18]	@ movhi
 288              		.loc 1 159 0
 289 0014 059B     		ldr	r3, [sp, #20]
 290 0016 1B88     		ldrh	r3, [r3, #0]	@ movhi
 291 0018 ADF81030 		strh	r3, [sp, #16]	@ movhi
 292              		.loc 1 160 0
 293 001c 059B     		ldr	r3, [sp, #20]
 294 001e 9B88     		ldrh	r3, [r3, #4]	@ movhi
 295 0020 ADF80E30 		strh	r3, [sp, #14]	@ movhi
 296              		.loc 1 163 0
 297 0024 BDF81030 		ldrh	r3, [sp, #16]
 298 0028 03F00F03 		and	r3, r3, #15
 299 002c 002B     		cmp	r3, #0
 300 002e 05D0     		beq	.L12
 301              		.loc 1 164 0
 302 0030 BDF81030 		ldrh	r3, [sp, #16]
 303 0034 0198     		ldr	r0, [sp, #4]
 304 0036 1946     		mov	r1, r3
 305 0038 FFF7FEFF 		bl	set_error
 306              	.L12:
 307              		.loc 1 166 0
 308 003c BDF81030 		ldrh	r3, [sp, #16]
 309 0040 03F48073 		and	r3, r3, #256
 310 0044 002B     		cmp	r3, #0
 311 0046 17D0     		beq	.L13
 312              	.LBB4:
 313              		.loc 1 167 0
 314 0048 4FF02003 		mov	r3, #32
 315              	@ 167 "../../os/hal/platforms/STM32/USARTv1/serial_lld.c" 1
 316 004c 83F31188 		msr     BASEPRI, r3
 317              	@ 0 "" 2
 318              		.thumb
 319              	.LBE4:
 320              		.loc 1 168 0
 321 0050 019B     		ldr	r3, [sp, #4]
 322 0052 03F10403 		add	r3, r3, #4
 323 0056 1846     		mov	r0, r3
 324 0058 4FF40071 		mov	r1, #512
 325 005c FFF7FEFF 		bl	chEvtBroadcastFlagsI
 326              	.LBB5:
 327              		.loc 1 169 0
 328 0060 4FF00003 		mov	r3, #0
 329              	@ 169 "../../os/hal/platforms/STM32/USARTv1/serial_lld.c" 1
 330 0064 83F31188 		msr     BASEPRI, r3
 331              	@ 0 "" 2
 332              		.thumb
 333              	.LBE5:
 334              		.loc 1 170 0
 335 0068 059B     		ldr	r3, [sp, #20]
 336 006a 1B88     		ldrh	r3, [r3, #0]	@ movhi
ARM GAS  /tmp/ccft4r9u.s 			page 7


 337 006c 9BB2     		uxth	r3, r3
 338 006e 23F48073 		bic	r3, r3, #256
 339 0072 9AB2     		uxth	r2, r3
 340 0074 059B     		ldr	r3, [sp, #20]
 341 0076 1A80     		strh	r2, [r3, #0]	@ movhi
 342              	.L13:
 343              		.loc 1 173 0
 344 0078 BDF81030 		ldrh	r3, [sp, #16]
 345 007c 03F02003 		and	r3, r3, #32
 346 0080 002B     		cmp	r3, #0
 347 0082 0ED0     		beq	.L14
 348              	.LBB6:
 349              		.loc 1 174 0
 350 0084 4FF02003 		mov	r3, #32
 351              	@ 174 "../../os/hal/platforms/STM32/USARTv1/serial_lld.c" 1
 352 0088 83F31188 		msr     BASEPRI, r3
 353              	@ 0 "" 2
 354              		.thumb
 355              	.LBE6:
 356              		.loc 1 175 0
 357 008c BDF80E30 		ldrh	r3, [sp, #14]	@ movhi
 358 0090 DBB2     		uxtb	r3, r3
 359 0092 0198     		ldr	r0, [sp, #4]
 360 0094 1946     		mov	r1, r3
 361 0096 FFF7FEFF 		bl	sdIncomingDataI
 362              	.LBB7:
 363              		.loc 1 176 0
 364 009a 4FF00003 		mov	r3, #0
 365              	@ 176 "../../os/hal/platforms/STM32/USARTv1/serial_lld.c" 1
 366 009e 83F31188 		msr     BASEPRI, r3
 367              	@ 0 "" 2
 368              		.thumb
 369              	.L14:
 370              	.LBE7:
 371              		.loc 1 179 0
 372 00a2 BDF81230 		ldrh	r3, [sp, #18]
 373 00a6 03F08003 		and	r3, r3, #128
 374 00aa 002B     		cmp	r3, #0
 375 00ac 2FD0     		beq	.L15
 376              		.loc 1 179 0 is_stmt 0 discriminator 1
 377 00ae BDF81030 		ldrh	r3, [sp, #16]
 378 00b2 03F08003 		and	r3, r3, #128
 379 00b6 002B     		cmp	r3, #0
 380 00b8 29D0     		beq	.L15
 381              	.LBB8:
 382              	.LBB9:
 383              		.loc 1 181 0 is_stmt 1
 384 00ba 4FF02003 		mov	r3, #32
 385              	@ 181 "../../os/hal/platforms/STM32/USARTv1/serial_lld.c" 1
 386 00be 83F31188 		msr     BASEPRI, r3
 387              	@ 0 "" 2
 388              		.thumb
 389              	.LBE9:
 390              		.loc 1 182 0
 391 00c2 019B     		ldr	r3, [sp, #4]
 392 00c4 03F13003 		add	r3, r3, #48
 393 00c8 1846     		mov	r0, r3
ARM GAS  /tmp/ccft4r9u.s 			page 8


 394 00ca FFF7FEFF 		bl	chOQGetI
 395 00ce 0290     		str	r0, [sp, #8]
 396              		.loc 1 183 0
 397 00d0 029B     		ldr	r3, [sp, #8]
 398 00d2 002B     		cmp	r3, #0
 399 00d4 13DA     		bge	.L16
 400              		.loc 1 184 0
 401 00d6 019B     		ldr	r3, [sp, #4]
 402 00d8 03F10403 		add	r3, r3, #4
 403 00dc 1846     		mov	r0, r3
 404 00de 4FF00801 		mov	r1, #8
 405 00e2 FFF7FEFF 		bl	chEvtBroadcastFlagsI
 406              		.loc 1 185 0
 407 00e6 BDF81230 		ldrh	r3, [sp, #18]
 408 00ea 23F0C003 		bic	r3, r3, #192
 409 00ee 9BB2     		uxth	r3, r3
 410 00f0 43F04003 		orr	r3, r3, #64
 411 00f4 9BB2     		uxth	r3, r3
 412 00f6 9AB2     		uxth	r2, r3
 413 00f8 059B     		ldr	r3, [sp, #20]
 414 00fa 9A81     		strh	r2, [r3, #12]	@ movhi
 415 00fc 03E0     		b	.L17
 416              	.L16:
 417              		.loc 1 188 0
 418 00fe 029B     		ldr	r3, [sp, #8]
 419 0100 9AB2     		uxth	r2, r3
 420 0102 059B     		ldr	r3, [sp, #20]
 421 0104 9A80     		strh	r2, [r3, #4]	@ movhi
 422              	.L17:
 423              	.LBB10:
 424              		.loc 1 189 0
 425 0106 4FF00003 		mov	r3, #0
 426              	@ 189 "../../os/hal/platforms/STM32/USARTv1/serial_lld.c" 1
 427 010a 83F31188 		msr     BASEPRI, r3
 428              	@ 0 "" 2
 429              		.thumb
 430              	.L15:
 431              	.LBE10:
 432              	.LBE8:
 433              		.loc 1 192 0
 434 010e BDF81030 		ldrh	r3, [sp, #16]
 435 0112 03F04003 		and	r3, r3, #64
 436 0116 002B     		cmp	r3, #0
 437 0118 1ED0     		beq	.L11
 438              	.LBB11:
 439              		.loc 1 193 0
 440 011a 4FF02003 		mov	r3, #32
 441              	@ 193 "../../os/hal/platforms/STM32/USARTv1/serial_lld.c" 1
 442 011e 83F31188 		msr     BASEPRI, r3
 443              	@ 0 "" 2
 444              		.thumb
 445              	.LBE11:
 446              		.loc 1 194 0
 447 0122 019B     		ldr	r3, [sp, #4]
 448 0124 03F10403 		add	r3, r3, #4
 449 0128 1846     		mov	r0, r3
 450 012a 4FF01001 		mov	r1, #16
ARM GAS  /tmp/ccft4r9u.s 			page 9


 451 012e FFF7FEFF 		bl	chEvtBroadcastFlagsI
 452              	.LBB12:
 453              		.loc 1 195 0
 454 0132 4FF00003 		mov	r3, #0
 455              	@ 195 "../../os/hal/platforms/STM32/USARTv1/serial_lld.c" 1
 456 0136 83F31188 		msr     BASEPRI, r3
 457              	@ 0 "" 2
 458              		.thumb
 459              	.LBE12:
 460              		.loc 1 196 0
 461 013a BDF81230 		ldrh	r3, [sp, #18]	@ movhi
 462 013e 23F04003 		bic	r3, r3, #64
 463 0142 9AB2     		uxth	r2, r3
 464 0144 059B     		ldr	r3, [sp, #20]
 465 0146 9A81     		strh	r2, [r3, #12]	@ movhi
 466              		.loc 1 197 0
 467 0148 059B     		ldr	r3, [sp, #20]
 468 014a 1B88     		ldrh	r3, [r3, #0]	@ movhi
 469 014c 9BB2     		uxth	r3, r3
 470 014e 23F04003 		bic	r3, r3, #64
 471 0152 9AB2     		uxth	r2, r3
 472 0154 059B     		ldr	r3, [sp, #20]
 473 0156 1A80     		strh	r2, [r3, #0]	@ movhi
 474              	.L11:
 475              		.loc 1 199 0
 476 0158 07B0     		add	sp, sp, #28
 477 015a 00BD     		pop	{pc}
 478              		.cfi_endproc
 479              	.LFE121:
 480              		.size	serve_interrupt, .-serve_interrupt
 481 015c AFF30080 		.section	.text.notify2,"ax",%progbits
 482              		.align	2
 483              		.p2align 4,,15
 484              		.thumb
 485              		.thumb_func
 486              		.type	notify2, %function
 487              	notify2:
 488              	.LFB122:
 489              		.loc 1 210 0
 490              		.cfi_startproc
 491              		@ args = 0, pretend = 0, frame = 8
 492              		@ frame_needed = 0, uses_anonymous_args = 0
 493              		@ link register save eliminated.
 494 0000 82B0     		sub	sp, sp, #8
 495              	.LCFI6:
 496              		.cfi_def_cfa_offset 8
 497 0002 0190     		str	r0, [sp, #4]
 498              		.loc 1 213 0
 499 0004 4FF48843 		mov	r3, #17408
 500 0008 C4F20003 		movt	r3, 16384
 501 000c 4FF48842 		mov	r2, #17408
 502 0010 C4F20002 		movt	r2, 16384
 503 0014 9289     		ldrh	r2, [r2, #12]	@ movhi
 504 0016 92B2     		uxth	r2, r2
 505 0018 42F08002 		orr	r2, r2, #128
 506 001c 92B2     		uxth	r2, r2
 507 001e 9A81     		strh	r2, [r3, #12]	@ movhi
ARM GAS  /tmp/ccft4r9u.s 			page 10


 508              		.loc 1 214 0
 509 0020 02B0     		add	sp, sp, #8
 510 0022 7047     		bx	lr
 511              		.cfi_endproc
 512              	.LFE122:
 513              		.size	notify2, .-notify2
 514 0024 AFF30080 		.section	.text.VectorD8,"ax",%progbits
 514      AFF30080 
 514      AFF30080 
 515              		.align	2
 516              		.p2align 4,,15
 517              		.global	VectorD8
 518              		.thumb
 519              		.thumb_func
 520              		.type	VectorD8, %function
 521              	VectorD8:
 522              	.LFB123:
 523              		.loc 1 281 0
 524              		.cfi_startproc
 525              		@ args = 0, pretend = 0, frame = 0
 526              		@ frame_needed = 0, uses_anonymous_args = 0
 527 0000 08B5     		push	{r3, lr}
 528              	.LCFI7:
 529              		.cfi_def_cfa_offset 8
 530              		.cfi_offset 3, -8
 531              		.cfi_offset 14, -4
 532              		.loc 1 285 0
 533 0002 40F20000 		movw	r0, #:lower16:SD2
 534 0006 C0F20000 		movt	r0, #:upper16:SD2
 535 000a FFF7FEFF 		bl	serve_interrupt
 536              		.loc 1 287 0
 537 000e FFF7FEFF 		bl	_port_irq_epilogue
 538              		.loc 1 288 0
 539 0012 08BD     		pop	{r3, pc}
 540              		.cfi_endproc
 541              	.LFE123:
 542              		.size	VectorD8, .-VectorD8
 543 0014 AFF30080 		.section	.text.sd_lld_init,"ax",%progbits
 543      AFF30080 
 543      AFF30080 
 544              		.align	2
 545              		.p2align 4,,15
 546              		.global	sd_lld_init
 547              		.thumb
 548              		.thumb_func
 549              		.type	sd_lld_init, %function
 550              	sd_lld_init:
 551              	.LFB124:
 552              		.loc 1 376 0
 553              		.cfi_startproc
 554              		@ args = 0, pretend = 0, frame = 0
 555              		@ frame_needed = 0, uses_anonymous_args = 0
 556 0000 08B5     		push	{r3, lr}
 557              	.LCFI8:
 558              		.cfi_def_cfa_offset 8
 559              		.cfi_offset 3, -8
 560              		.cfi_offset 14, -4
ARM GAS  /tmp/ccft4r9u.s 			page 11


 561              		.loc 1 384 0
 562 0002 40F20000 		movw	r0, #:lower16:SD2
 563 0006 C0F20000 		movt	r0, #:upper16:SD2
 564 000a 4FF00001 		mov	r1, #0
 565 000e 40F20002 		movw	r2, #:lower16:notify2
 566 0012 C0F20002 		movt	r2, #:upper16:notify2
 567 0016 FFF7FEFF 		bl	sdObjectInit
 568              		.loc 1 385 0
 569 001a 40F20003 		movw	r3, #:lower16:SD2
 570 001e C0F20003 		movt	r3, #:upper16:SD2
 571 0022 4FF48842 		mov	r2, #17408
 572 0026 C4F20002 		movt	r2, 16384
 573 002a 5A67     		str	r2, [r3, #116]
 574              		.loc 1 407 0
 575 002c 08BD     		pop	{r3, pc}
 576              		.cfi_endproc
 577              	.LFE124:
 578              		.size	sd_lld_init, .-sd_lld_init
 579 002e 00BF     		.section	.text.sd_lld_start,"ax",%progbits
 580              		.align	2
 581              		.p2align 4,,15
 582              		.global	sd_lld_start
 583              		.thumb
 584              		.thumb_func
 585              		.type	sd_lld_start, %function
 586              	sd_lld_start:
 587              	.LFB125:
 588              		.loc 1 419 0
 589              		.cfi_startproc
 590              		@ args = 0, pretend = 0, frame = 8
 591              		@ frame_needed = 0, uses_anonymous_args = 0
 592 0000 00B5     		push	{lr}
 593              	.LCFI9:
 594              		.cfi_def_cfa_offset 4
 595              		.cfi_offset 14, -4
 596 0002 83B0     		sub	sp, sp, #12
 597              	.LCFI10:
 598              		.cfi_def_cfa_offset 16
 599 0004 0190     		str	r0, [sp, #4]
 600 0006 0091     		str	r1, [sp, #0]
 601              		.loc 1 421 0
 602 0008 009B     		ldr	r3, [sp, #0]
 603 000a 002B     		cmp	r3, #0
 604 000c 04D1     		bne	.L23
 605              		.loc 1 422 0
 606 000e 40F20003 		movw	r3, #:lower16:default_config
 607 0012 C0F20003 		movt	r3, #:upper16:default_config
 608 0016 0093     		str	r3, [sp, #0]
 609              	.L23:
 610              		.loc 1 424 0
 611 0018 019B     		ldr	r3, [sp, #4]
 612 001a 1B7A     		ldrb	r3, [r3, #8]	@ zero_extendqisi2
 613 001c 012B     		cmp	r3, #1
 614 001e 18D1     		bne	.L24
 615              		.loc 1 433 0
 616 0020 019A     		ldr	r2, [sp, #4]
 617 0022 40F20003 		movw	r3, #:lower16:SD2
ARM GAS  /tmp/ccft4r9u.s 			page 12


 618 0026 C0F20003 		movt	r3, #:upper16:SD2
 619 002a 9A42     		cmp	r2, r3
 620 002c 11D1     		bne	.L24
 621              		.loc 1 434 0
 622 002e 4FF46053 		mov	r3, #14336
 623 0032 C4F20203 		movt	r3, 16386
 624 0036 4FF46052 		mov	r2, #14336
 625 003a C4F20202 		movt	r2, 16386
 626 003e 126C     		ldr	r2, [r2, #64]
 627 0040 42F40032 		orr	r2, r2, #131072
 628 0044 1A64     		str	r2, [r3, #64]
 629              		.loc 1 435 0
 630 0046 4FF02600 		mov	r0, #38
 631 004a 4FF0C001 		mov	r1, #192
 632 004e FFF7FEFF 		bl	nvicEnableVector
 633              	.L24:
 634              		.loc 1 468 0
 635 0052 0198     		ldr	r0, [sp, #4]
 636 0054 0099     		ldr	r1, [sp, #0]
 637 0056 FFF7FEFF 		bl	usart_init
 638              		.loc 1 469 0
 639 005a 03B0     		add	sp, sp, #12
 640 005c 00BD     		pop	{pc}
 641              		.cfi_endproc
 642              	.LFE125:
 643              		.size	sd_lld_start, .-sd_lld_start
 644 005e 00BF     		.section	.text.sd_lld_stop,"ax",%progbits
 645              		.align	2
 646              		.p2align 4,,15
 647              		.global	sd_lld_stop
 648              		.thumb
 649              		.thumb_func
 650              		.type	sd_lld_stop, %function
 651              	sd_lld_stop:
 652              	.LFB126:
 653              		.loc 1 480 0
 654              		.cfi_startproc
 655              		@ args = 0, pretend = 0, frame = 8
 656              		@ frame_needed = 0, uses_anonymous_args = 0
 657 0000 00B5     		push	{lr}
 658              	.LCFI11:
 659              		.cfi_def_cfa_offset 4
 660              		.cfi_offset 14, -4
 661 0002 83B0     		sub	sp, sp, #12
 662              	.LCFI12:
 663              		.cfi_def_cfa_offset 16
 664 0004 0190     		str	r0, [sp, #4]
 665              		.loc 1 482 0
 666 0006 019B     		ldr	r3, [sp, #4]
 667 0008 1B7A     		ldrb	r3, [r3, #8]	@ zero_extendqisi2
 668 000a 022B     		cmp	r3, #2
 669 000c 1CD1     		bne	.L25
 670              		.loc 1 483 0
 671 000e 019B     		ldr	r3, [sp, #4]
 672 0010 5B6F     		ldr	r3, [r3, #116]
 673 0012 1846     		mov	r0, r3
 674 0014 FFF7FEFF 		bl	usart_deinit
ARM GAS  /tmp/ccft4r9u.s 			page 13


 675              		.loc 1 492 0
 676 0018 019A     		ldr	r2, [sp, #4]
 677 001a 40F20003 		movw	r3, #:lower16:SD2
 678 001e C0F20003 		movt	r3, #:upper16:SD2
 679 0022 9A42     		cmp	r2, r3
 680 0024 10D1     		bne	.L25
 681              		.loc 1 493 0
 682 0026 4FF46053 		mov	r3, #14336
 683 002a C4F20203 		movt	r3, 16386
 684 002e 4FF46052 		mov	r2, #14336
 685 0032 C4F20202 		movt	r2, 16386
 686 0036 126C     		ldr	r2, [r2, #64]
 687 0038 22F40032 		bic	r2, r2, #131072
 688 003c 1A64     		str	r2, [r3, #64]
 689              		.loc 1 494 0
 690 003e 4FF02600 		mov	r0, #38
 691 0042 FFF7FEFF 		bl	nvicDisableVector
 692              		.loc 1 495 0
 693 0046 00BF     		nop
 694              	.L25:
 695              		.loc 1 527 0
 696 0048 03B0     		add	sp, sp, #12
 697 004a 00BD     		pop	{pc}
 698              		.cfi_endproc
 699              	.LFE126:
 700              		.size	sd_lld_stop, .-sd_lld_stop
 701 004c AFF30080 		.text
 702              	.Letext0:
 703              		.file 2 "/usr/bin/../lib/gcc/arm-none-eabi/4.7.4/include/stddef.h"
 704              		.file 3 "/usr/bin/../lib/gcc/arm-none-eabi/4.7.4/../../../../arm-none-eabi/include/stdint.h"
 705              		.file 4 "../../os/ports/GCC/ARMCMx/chtypes.h"
 706              		.file 5 "../../os/kernel/include/chlists.h"
 707              		.file 6 "../../os/kernel/include/chthreads.h"
 708              		.file 7 "../../os/ports/GCC/ARMCMx/chcore_v7m.h"
 709              		.file 8 "../../os/kernel/include/chmtx.h"
 710              		.file 9 "../../os/kernel/include/chevents.h"
 711              		.file 10 "../../os/kernel/include/chqueues.h"
 712              		.file 11 "../../os/hal/platforms/STM32F4xx/stm32f4xx.h"
 713              		.file 12 "../../os/hal/include/serial.h"
 714              		.file 13 "../../os/hal/platforms/STM32/USARTv1/serial_lld.h"
 715              		.file 14 "../../os/ports/common/ARMCMx/CMSIS/include/core_cm4.h"