ARM GAS  /tmp/ccyPXS5v.s 			page 1


   1              		.syntax unified
   2              		.cpu cortex-m4
   3              		.fpu softvfp
   4              		.eabi_attribute 20, 1
   5              		.eabi_attribute 21, 1
   6              		.eabi_attribute 23, 3
   7              		.eabi_attribute 24, 1
   8              		.eabi_attribute 25, 1
   9              		.eabi_attribute 26, 1
  10              		.eabi_attribute 30, 6
  11              		.eabi_attribute 34, 1
  12              		.eabi_attribute 18, 4
  13              		.thumb
  14              		.file	"shell.c"
  15              		.text
  16              	.Ltext0:
  17              		.cfi_sections	.debug_frame
  18              		.global	shell_terminated
  19              		.section	.bss.shell_terminated,"aw",%nobits
  20              		.align	2
  21              		.type	shell_terminated, %object
  22              		.size	shell_terminated, 4
  23              	shell_terminated:
  24 0000 00000000 		.space	4
  25              		.section	.text._strtok,"ax",%progbits
  26              		.align	2
  27              		.p2align 4,,15
  28              		.thumb
  29              		.thumb_func
  30              		.type	_strtok, %function
  31              	_strtok:
  32              	.LFB118:
  33              		.file 1 "../../os/various/shell.c"
  34              		.loc 1 37 0
  35              		.cfi_startproc
  36              		@ args = 0, pretend = 0, frame = 24
  37              		@ frame_needed = 0, uses_anonymous_args = 0
  38 0000 00B5     		push	{lr}
  39              	.LCFI0:
  40              		.cfi_def_cfa_offset 4
  41              		.cfi_offset 14, -4
  42 0002 87B0     		sub	sp, sp, #28
  43              	.LCFI1:
  44              		.cfi_def_cfa_offset 32
  45 0004 0390     		str	r0, [sp, #12]
  46 0006 0291     		str	r1, [sp, #8]
  47 0008 0192     		str	r2, [sp, #4]
  48              		.loc 1 39 0
  49 000a 039B     		ldr	r3, [sp, #12]
  50 000c 002B     		cmp	r3, #0
  51 000e 02D0     		beq	.L2
  52              		.loc 1 40 0
  53 0010 019B     		ldr	r3, [sp, #4]
  54 0012 039A     		ldr	r2, [sp, #12]
  55 0014 1A60     		str	r2, [r3, #0]
  56              	.L2:
  57              		.loc 1 41 0
ARM GAS  /tmp/ccyPXS5v.s 			page 2


  58 0016 019B     		ldr	r3, [sp, #4]
  59 0018 1B68     		ldr	r3, [r3, #0]
  60 001a 0593     		str	r3, [sp, #20]
  61              		.loc 1 43 0
  62 001c 059B     		ldr	r3, [sp, #20]
  63 001e 002B     		cmp	r3, #0
  64 0020 02D1     		bne	.L3
  65              		.loc 1 44 0
  66 0022 4FF00003 		mov	r3, #0
  67 0026 23E0     		b	.L4
  68              	.L3:
  69              		.loc 1 46 0
  70 0028 0598     		ldr	r0, [sp, #20]
  71 002a 0299     		ldr	r1, [sp, #8]
  72 002c FFF7FEFF 		bl	strspn
  73 0030 0346     		mov	r3, r0
  74 0032 059A     		ldr	r2, [sp, #20]
  75 0034 D318     		adds	r3, r2, r3
  76 0036 0593     		str	r3, [sp, #20]
  77              		.loc 1 47 0
  78 0038 0598     		ldr	r0, [sp, #20]
  79 003a 0299     		ldr	r1, [sp, #8]
  80 003c FFF7FEFF 		bl	strpbrk
  81 0040 0246     		mov	r2, r0
  82 0042 019B     		ldr	r3, [sp, #4]
  83 0044 1A60     		str	r2, [r3, #0]
  84              		.loc 1 48 0
  85 0046 019B     		ldr	r3, [sp, #4]
  86 0048 1B68     		ldr	r3, [r3, #0]
  87 004a 002B     		cmp	r3, #0
  88 004c 08D0     		beq	.L5
  89              		.loc 1 49 0
  90 004e 019B     		ldr	r3, [sp, #4]
  91 0050 1B68     		ldr	r3, [r3, #0]
  92 0052 4FF00002 		mov	r2, #0
  93 0056 1A70     		strb	r2, [r3, #0]
  94 0058 03F10102 		add	r2, r3, #1
  95 005c 019B     		ldr	r3, [sp, #4]
  96 005e 1A60     		str	r2, [r3, #0]
  97              	.L5:
  98              		.loc 1 51 0
  99 0060 059B     		ldr	r3, [sp, #20]
 100 0062 1B78     		ldrb	r3, [r3, #0]	@ zero_extendqisi2
 101 0064 002B     		cmp	r3, #0
 102 0066 01D0     		beq	.L6
 103              		.loc 1 51 0 is_stmt 0 discriminator 1
 104 0068 059B     		ldr	r3, [sp, #20]
 105 006a 01E0     		b	.L7
 106              	.L6:
 107              		.loc 1 51 0 discriminator 2
 108 006c 4FF00003 		mov	r3, #0
 109              	.L7:
 110              	.L4:
 111              		.loc 1 52 0 is_stmt 1
 112 0070 1846     		mov	r0, r3
 113 0072 07B0     		add	sp, sp, #28
 114 0074 00BD     		pop	{pc}
ARM GAS  /tmp/ccyPXS5v.s 			page 3


 115              		.cfi_endproc
 116              	.LFE118:
 117              		.size	_strtok, .-_strtok
 118 0076 00BFAFF3 		.section	.rodata
 118      0080AFF3 
 118      0080
 119              		.align	2
 120              	.LC0:
 121 0000 55736167 		.ascii	"Usage: %s\015\012\000"
 121      653A2025 
 121      730D0A00 
 122              		.section	.text.usage,"ax",%progbits
 123              		.align	2
 124              		.p2align 4,,15
 125              		.thumb
 126              		.thumb_func
 127              		.type	usage, %function
 128              	usage:
 129              	.LFB119:
 130              		.loc 1 54 0
 131              		.cfi_startproc
 132              		@ args = 0, pretend = 0, frame = 8
 133              		@ frame_needed = 0, uses_anonymous_args = 0
 134 0000 00B5     		push	{lr}
 135              	.LCFI2:
 136              		.cfi_def_cfa_offset 4
 137              		.cfi_offset 14, -4
 138 0002 83B0     		sub	sp, sp, #12
 139              	.LCFI3:
 140              		.cfi_def_cfa_offset 16
 141 0004 0190     		str	r0, [sp, #4]
 142 0006 0091     		str	r1, [sp, #0]
 143              		.loc 1 56 0
 144 0008 0198     		ldr	r0, [sp, #4]
 145 000a 40F20001 		movw	r1, #:lower16:.LC0
 146 000e C0F20001 		movt	r1, #:upper16:.LC0
 147 0012 009A     		ldr	r2, [sp, #0]
 148 0014 FFF7FEFF 		bl	chprintf
 149              		.loc 1 57 0
 150 0018 03B0     		add	sp, sp, #12
 151 001a 00BD     		pop	{pc}
 152              		.cfi_endproc
 153              	.LFE119:
 154              		.size	usage, .-usage
 155 001c AFF30080 		.section	.rodata
 156              		.align	2
 157              	.LC1:
 158 000c 25732000 		.ascii	"%s \000"
 159              		.section	.text.list_commands,"ax",%progbits
 160              		.align	2
 161              		.p2align 4,,15
 162              		.thumb
 163              		.thumb_func
 164              		.type	list_commands, %function
 165              	list_commands:
 166              	.LFB120:
 167              		.loc 1 59 0
ARM GAS  /tmp/ccyPXS5v.s 			page 4


 168              		.cfi_startproc
 169              		@ args = 0, pretend = 0, frame = 8
 170              		@ frame_needed = 0, uses_anonymous_args = 0
 171 0000 00B5     		push	{lr}
 172              	.LCFI4:
 173              		.cfi_def_cfa_offset 4
 174              		.cfi_offset 14, -4
 175 0002 83B0     		sub	sp, sp, #12
 176              	.LCFI5:
 177              		.cfi_def_cfa_offset 16
 178 0004 0190     		str	r0, [sp, #4]
 179 0006 0091     		str	r1, [sp, #0]
 180              		.loc 1 61 0
 181 0008 0DE0     		b	.L10
 182              	.L11:
 183              		.loc 1 62 0
 184 000a 009B     		ldr	r3, [sp, #0]
 185 000c 1B68     		ldr	r3, [r3, #0]
 186 000e 0198     		ldr	r0, [sp, #4]
 187 0010 40F20001 		movw	r1, #:lower16:.LC1
 188 0014 C0F20001 		movt	r1, #:upper16:.LC1
 189 0018 1A46     		mov	r2, r3
 190 001a FFF7FEFF 		bl	chprintf
 191              		.loc 1 63 0
 192 001e 009B     		ldr	r3, [sp, #0]
 193 0020 03F10803 		add	r3, r3, #8
 194 0024 0093     		str	r3, [sp, #0]
 195              	.L10:
 196              		.loc 1 61 0 discriminator 1
 197 0026 009B     		ldr	r3, [sp, #0]
 198 0028 1B68     		ldr	r3, [r3, #0]
 199 002a 002B     		cmp	r3, #0
 200 002c EDD1     		bne	.L11
 201              		.loc 1 65 0
 202 002e 03B0     		add	sp, sp, #12
 203 0030 00BD     		pop	{pc}
 204              		.cfi_endproc
 205              	.LFE120:
 206              		.size	list_commands, .-list_commands
 207 0032 00BFAFF3 		.section	.rodata
 207      0080AFF3 
 207      0080AFF3 
 207      0080
 208              		.align	2
 209              	.LC2:
 210 0010 696E666F 		.ascii	"info\000"
 210      00
 211 0015 000000   		.align	2
 212              	.LC3:
 213 0018 4B65726E 		.ascii	"Kernel:       %s\015\012\000"
 213      656C3A20 
 213      20202020 
 213      20202573 
 213      0D0A00
 214 002b 00       		.align	2
 215              	.LC4:
 216 002c 322E372E 		.ascii	"2.7.0unstable\000"
ARM GAS  /tmp/ccyPXS5v.s 			page 5


 216      30756E73 
 216      7461626C 
 216      6500
 217 003a 0000     		.align	2
 218              	.LC5:
 219 003c 436F6D70 		.ascii	"Compiler:     %s\015\012\000"
 219      696C6572 
 219      3A202020 
 219      20202573 
 219      0D0A00
 220 004f 00       		.align	2
 221              	.LC6:
 222 0050 47434320 		.ascii	"GCC 4.7.4 20130613 (release) [ARM/embedded-4_7-bran"
 222      342E372E 
 222      34203230 
 222      31333036 
 222      31332028 
 223 0083 63682072 		.ascii	"ch revision 200083]\000"
 223      65766973 
 223      696F6E20 
 223      32303030 
 223      38335D00 
 224 0097 00       		.align	2
 225              	.LC7:
 226 0098 41726368 		.ascii	"Architecture: %s\015\012\000"
 226      69746563 
 226      74757265 
 226      3A202573 
 226      0D0A00
 227 00ab 00       		.align	2
 228              	.LC8:
 229 00ac 41524D76 		.ascii	"ARMv7-ME\000"
 229      372D4D45 
 229      00
 230 00b5 000000   		.align	2
 231              	.LC9:
 232 00b8 436F7265 		.ascii	"Core Variant: %s\015\012\000"
 232      20566172 
 232      69616E74 
 232      3A202573 
 232      0D0A00
 233 00cb 00       		.align	2
 234              	.LC10:
 235 00cc 436F7274 		.ascii	"Cortex-M4\000"
 235      65782D4D 
 235      3400
 236 00d6 0000     		.align	2
 237              	.LC11:
 238 00d8 506F7274 		.ascii	"Port Info:    %s\015\012\000"
 238      20496E66 
 238      6F3A2020 
 238      20202573 
 238      0D0A00
 239 00eb 00       		.align	2
 240              	.LC12:
 241 00ec 41647661 		.ascii	"Advanced kernel mode\000"
 241      6E636564 
ARM GAS  /tmp/ccyPXS5v.s 			page 6


 241      206B6572 
 241      6E656C20 
 241      6D6F6465 
 242 0101 000000   		.align	2
 243              	.LC13:
 244 0104 506C6174 		.ascii	"Platform:     %s\015\012\000"
 244      666F726D 
 244      3A202020 
 244      20202573 
 244      0D0A00
 245 0117 00       		.align	2
 246              	.LC14:
 247 0118 53544D33 		.ascii	"STM32F4xx High Performance\000"
 247      32463478 
 247      78204869 
 247      67682050 
 247      6572666F 
 248 0133 00       		.align	2
 249              	.LC15:
 250 0134 426F6172 		.ascii	"Board:        %s\015\012\000"
 250      643A2020 
 250      20202020 
 250      20202573 
 250      0D0A00
 251 0147 00       		.align	2
 252              	.LC16:
 253 0148 53544D69 		.ascii	"STMicroelectronics STM32F4-Discovery\000"
 253      63726F65 
 253      6C656374 
 253      726F6E69 
 253      63732053 
 254 016d 000000   		.align	2
 255              	.LC17:
 256 0170 4275696C 		.ascii	"Build time:   %s%s%s\015\012\000"
 256      64207469 
 256      6D653A20 
 256      20202573 
 256      25732573 
 257 0187 00       		.align	2
 258              	.LC18:
 259 0188 41756720 		.ascii	"Aug  7 2013\000"
 259      20372032 
 259      30313300 
 260              		.align	2
 261              	.LC19:
 262 0194 202D2000 		.ascii	" - \000"
 263              		.align	2
 264              	.LC20:
 265 0198 31373A31 		.ascii	"17:17:33\000"
 265      373A3333 
 265      00
 266              		.section	.text.cmd_info,"ax",%progbits
 267              		.align	2
 268              		.p2align 4,,15
 269              		.thumb
 270              		.thumb_func
 271              		.type	cmd_info, %function
ARM GAS  /tmp/ccyPXS5v.s 			page 7


 272              	cmd_info:
 273              	.LFB121:
 274              		.loc 1 67 0
 275              		.cfi_startproc
 276              		@ args = 0, pretend = 0, frame = 16
 277              		@ frame_needed = 0, uses_anonymous_args = 0
 278 0000 00B5     		push	{lr}
 279              	.LCFI6:
 280              		.cfi_def_cfa_offset 4
 281              		.cfi_offset 14, -4
 282 0002 87B0     		sub	sp, sp, #28
 283              	.LCFI7:
 284              		.cfi_def_cfa_offset 32
 285 0004 0590     		str	r0, [sp, #20]
 286 0006 0491     		str	r1, [sp, #16]
 287 0008 0392     		str	r2, [sp, #12]
 288              		.loc 1 70 0
 289 000a 049B     		ldr	r3, [sp, #16]
 290 000c 002B     		cmp	r3, #0
 291 000e 07DD     		ble	.L13
 292              		.loc 1 71 0
 293 0010 0598     		ldr	r0, [sp, #20]
 294 0012 40F20001 		movw	r1, #:lower16:.LC2
 295 0016 C0F20001 		movt	r1, #:upper16:.LC2
 296 001a FFF7FEFF 		bl	usage
 297              		.loc 1 72 0
 298 001e 60E0     		b	.L12
 299              	.L13:
 300              		.loc 1 75 0
 301 0020 0598     		ldr	r0, [sp, #20]
 302 0022 40F20001 		movw	r1, #:lower16:.LC3
 303 0026 C0F20001 		movt	r1, #:upper16:.LC3
 304 002a 40F20002 		movw	r2, #:lower16:.LC4
 305 002e C0F20002 		movt	r2, #:upper16:.LC4
 306 0032 FFF7FEFF 		bl	chprintf
 307              		.loc 1 77 0
 308 0036 0598     		ldr	r0, [sp, #20]
 309 0038 40F20001 		movw	r1, #:lower16:.LC5
 310 003c C0F20001 		movt	r1, #:upper16:.LC5
 311 0040 40F20002 		movw	r2, #:lower16:.LC6
 312 0044 C0F20002 		movt	r2, #:upper16:.LC6
 313 0048 FFF7FEFF 		bl	chprintf
 314              		.loc 1 79 0
 315 004c 0598     		ldr	r0, [sp, #20]
 316 004e 40F20001 		movw	r1, #:lower16:.LC7
 317 0052 C0F20001 		movt	r1, #:upper16:.LC7
 318 0056 40F20002 		movw	r2, #:lower16:.LC8
 319 005a C0F20002 		movt	r2, #:upper16:.LC8
 320 005e FFF7FEFF 		bl	chprintf
 321              		.loc 1 81 0
 322 0062 0598     		ldr	r0, [sp, #20]
 323 0064 40F20001 		movw	r1, #:lower16:.LC9
 324 0068 C0F20001 		movt	r1, #:upper16:.LC9
 325 006c 40F20002 		movw	r2, #:lower16:.LC10
 326 0070 C0F20002 		movt	r2, #:upper16:.LC10
 327 0074 FFF7FEFF 		bl	chprintf
 328              		.loc 1 84 0
ARM GAS  /tmp/ccyPXS5v.s 			page 8


 329 0078 0598     		ldr	r0, [sp, #20]
 330 007a 40F20001 		movw	r1, #:lower16:.LC11
 331 007e C0F20001 		movt	r1, #:upper16:.LC11
 332 0082 40F20002 		movw	r2, #:lower16:.LC12
 333 0086 C0F20002 		movt	r2, #:upper16:.LC12
 334 008a FFF7FEFF 		bl	chprintf
 335              		.loc 1 87 0
 336 008e 0598     		ldr	r0, [sp, #20]
 337 0090 40F20001 		movw	r1, #:lower16:.LC13
 338 0094 C0F20001 		movt	r1, #:upper16:.LC13
 339 0098 40F20002 		movw	r2, #:lower16:.LC14
 340 009c C0F20002 		movt	r2, #:upper16:.LC14
 341 00a0 FFF7FEFF 		bl	chprintf
 342              		.loc 1 90 0
 343 00a4 0598     		ldr	r0, [sp, #20]
 344 00a6 40F20001 		movw	r1, #:lower16:.LC15
 345 00aa C0F20001 		movt	r1, #:upper16:.LC15
 346 00ae 40F20002 		movw	r2, #:lower16:.LC16
 347 00b2 C0F20002 		movt	r2, #:upper16:.LC16
 348 00b6 FFF7FEFF 		bl	chprintf
 349              		.loc 1 94 0
 350 00ba 40F20003 		movw	r3, #:lower16:.LC20
 351 00be C0F20003 		movt	r3, #:upper16:.LC20
 352 00c2 0093     		str	r3, [sp, #0]
 353 00c4 0598     		ldr	r0, [sp, #20]
 354 00c6 40F20001 		movw	r1, #:lower16:.LC17
 355 00ca C0F20001 		movt	r1, #:upper16:.LC17
 356 00ce 40F20002 		movw	r2, #:lower16:.LC18
 357 00d2 C0F20002 		movt	r2, #:upper16:.LC18
 358 00d6 40F20003 		movw	r3, #:lower16:.LC19
 359 00da C0F20003 		movt	r3, #:upper16:.LC19
 360 00de FFF7FEFF 		bl	chprintf
 361              	.L12:
 362              		.loc 1 97 0
 363 00e2 07B0     		add	sp, sp, #28
 364 00e4 00BD     		pop	{pc}
 365              		.cfi_endproc
 366              	.LFE121:
 367              		.size	cmd_info, .-cmd_info
 368 00e6 00BFAFF3 		.section	.rodata
 368      0080AFF3 
 368      0080
 369 01a1 000000   		.align	2
 370              	.LC21:
 371 01a4 73797374 		.ascii	"systime\000"
 371      696D6500 
 372              		.align	2
 373              	.LC22:
 374 01ac 256C750D 		.ascii	"%lu\015\012\000"
 374      0A00
 375              		.section	.text.cmd_systime,"ax",%progbits
 376              		.align	2
 377              		.p2align 4,,15
 378              		.thumb
 379              		.thumb_func
 380              		.type	cmd_systime, %function
 381              	cmd_systime:
ARM GAS  /tmp/ccyPXS5v.s 			page 9


 382              	.LFB122:
 383              		.loc 1 99 0
 384              		.cfi_startproc
 385              		@ args = 0, pretend = 0, frame = 16
 386              		@ frame_needed = 0, uses_anonymous_args = 0
 387 0000 00B5     		push	{lr}
 388              	.LCFI8:
 389              		.cfi_def_cfa_offset 4
 390              		.cfi_offset 14, -4
 391 0002 85B0     		sub	sp, sp, #20
 392              	.LCFI9:
 393              		.cfi_def_cfa_offset 24
 394 0004 0390     		str	r0, [sp, #12]
 395 0006 0291     		str	r1, [sp, #8]
 396 0008 0192     		str	r2, [sp, #4]
 397              		.loc 1 102 0
 398 000a 029B     		ldr	r3, [sp, #8]
 399 000c 002B     		cmp	r3, #0
 400 000e 07DD     		ble	.L16
 401              		.loc 1 103 0
 402 0010 0398     		ldr	r0, [sp, #12]
 403 0012 40F20001 		movw	r1, #:lower16:.LC21
 404 0016 C0F20001 		movt	r1, #:upper16:.LC21
 405 001a FFF7FEFF 		bl	usage
 406              		.loc 1 104 0
 407 001e 0CE0     		b	.L15
 408              	.L16:
 409              		.loc 1 106 0
 410 0020 40F20003 		movw	r3, #:lower16:vtlist
 411 0024 C0F20003 		movt	r3, #:upper16:vtlist
 412 0028 DB68     		ldr	r3, [r3, #12]
 413 002a 0398     		ldr	r0, [sp, #12]
 414 002c 40F20001 		movw	r1, #:lower16:.LC22
 415 0030 C0F20001 		movt	r1, #:upper16:.LC22
 416 0034 1A46     		mov	r2, r3
 417 0036 FFF7FEFF 		bl	chprintf
 418              	.L15:
 419              		.loc 1 107 0
 420 003a 05B0     		add	sp, sp, #20
 421 003c 00BD     		pop	{pc}
 422              		.cfi_endproc
 423              	.LFE122:
 424              		.size	cmd_systime, .-cmd_systime
 425 003e 00BF     		.section	.data.local_commands,"aw",%progbits
 426              		.align	2
 427              		.type	local_commands, %object
 428              		.size	local_commands, 24
 429              	local_commands:
 430 0000 10000000 		.word	.LC2
 431 0004 00000000 		.word	cmd_info
 432 0008 A4010000 		.word	.LC21
 433 000c 00000000 		.word	cmd_systime
 434 0010 00000000 		.word	0
 435 0014 00000000 		.word	0
 436              		.section	.text.cmdexec,"ax",%progbits
 437              		.align	2
 438              		.p2align 4,,15
ARM GAS  /tmp/ccyPXS5v.s 			page 10


 439              		.thumb
 440              		.thumb_func
 441              		.type	cmdexec, %function
 442              	cmdexec:
 443              	.LFB123:
 444              		.loc 1 119 0
 445              		.cfi_startproc
 446              		@ args = 4, pretend = 0, frame = 16
 447              		@ frame_needed = 0, uses_anonymous_args = 0
 448 0000 00B5     		push	{lr}
 449              	.LCFI10:
 450              		.cfi_def_cfa_offset 4
 451              		.cfi_offset 14, -4
 452 0002 85B0     		sub	sp, sp, #20
 453              	.LCFI11:
 454              		.cfi_def_cfa_offset 24
 455 0004 0390     		str	r0, [sp, #12]
 456 0006 0291     		str	r1, [sp, #8]
 457 0008 0192     		str	r2, [sp, #4]
 458 000a 0093     		str	r3, [sp, #0]
 459              		.loc 1 121 0
 460 000c 15E0     		b	.L19
 461              	.L22:
 462              		.loc 1 122 0
 463 000e 039B     		ldr	r3, [sp, #12]
 464 0010 1B68     		ldr	r3, [r3, #0]
 465 0012 1846     		mov	r0, r3
 466 0014 0199     		ldr	r1, [sp, #4]
 467 0016 FFF7FEFF 		bl	strcasecmp
 468 001a 0346     		mov	r3, r0
 469 001c 002B     		cmp	r3, #0
 470 001e 08D1     		bne	.L20
 471              		.loc 1 123 0
 472 0020 039B     		ldr	r3, [sp, #12]
 473 0022 5B68     		ldr	r3, [r3, #4]
 474 0024 0298     		ldr	r0, [sp, #8]
 475 0026 0099     		ldr	r1, [sp, #0]
 476 0028 069A     		ldr	r2, [sp, #24]
 477 002a 9847     		blx	r3
 478              		.loc 1 124 0
 479 002c 4FF00003 		mov	r3, #0
 480 0030 09E0     		b	.L21
 481              	.L20:
 482              		.loc 1 126 0
 483 0032 039B     		ldr	r3, [sp, #12]
 484 0034 03F10803 		add	r3, r3, #8
 485 0038 0393     		str	r3, [sp, #12]
 486              	.L19:
 487              		.loc 1 121 0 discriminator 1
 488 003a 039B     		ldr	r3, [sp, #12]
 489 003c 1B68     		ldr	r3, [r3, #0]
 490 003e 002B     		cmp	r3, #0
 491 0040 E5D1     		bne	.L22
 492              		.loc 1 128 0
 493 0042 4FF00103 		mov	r3, #1
 494              	.L21:
 495              		.loc 1 129 0
ARM GAS  /tmp/ccyPXS5v.s 			page 11


 496 0046 1846     		mov	r0, r3
 497 0048 05B0     		add	sp, sp, #20
 498 004a 00BD     		pop	{pc}
 499              		.cfi_endproc
 500              	.LFE123:
 501              		.size	cmdexec, .-cmdexec
 502 004c AFF30080 		.section	.rodata
 503 01b2 0000     		.align	2
 504              	.LC23:
 505 01b4 7368656C 		.ascii	"shell\000"
 505      6C00
 506 01ba 0000     		.align	2
 507              	.LC24:
 508 01bc 0D0A4368 		.ascii	"\015\012ChibiOS/RT Shell\015\012\000"
 508      6962694F 
 508      532F5254 
 508      20536865 
 508      6C6C0D0A 
 509 01d1 000000   		.align	2
 510              	.LC25:
 511 01d4 63683E20 		.ascii	"ch> \000"
 511      00
 512 01d9 000000   		.align	2
 513              	.LC26:
 514 01dc 0D0A6C6F 		.ascii	"\015\012logout\000"
 514      676F7574 
 514      00
 515 01e5 000000   		.align	2
 516              	.LC27:
 517 01e8 200900   		.ascii	" \011\000"
 518 01eb 00       		.align	2
 519              	.LC28:
 520 01ec 746F6F20 		.ascii	"too many arguments\015\012\000"
 520      6D616E79 
 520      20617267 
 520      756D656E 
 520      74730D0A 
 521 0201 000000   		.align	2
 522              	.LC29:
 523 0204 65786974 		.ascii	"exit\000"
 523      00
 524 0209 000000   		.align	2
 525              	.LC30:
 526 020c 68656C70 		.ascii	"help\000"
 526      00
 527 0211 000000   		.align	2
 528              	.LC31:
 529 0214 436F6D6D 		.ascii	"Commands: help exit \000"
 529      616E6473 
 529      3A206865 
 529      6C702065 
 529      78697420 
 530 0229 000000   		.align	2
 531              	.LC32:
 532 022c 0D0A00   		.ascii	"\015\012\000"
 533 022f 00       		.align	2
 534              	.LC33:
ARM GAS  /tmp/ccyPXS5v.s 			page 12


 535 0230 257300   		.ascii	"%s\000"
 536 0233 00       		.align	2
 537              	.LC34:
 538 0234 203F0D0A 		.ascii	" ?\015\012\000"
 538      00
 539              		.section	.text.shell_thread,"ax",%progbits
 540              		.align	2
 541              		.p2align 4,,15
 542              		.thumb
 543              		.thumb_func
 544              		.type	shell_thread, %function
 545              	shell_thread:
 546              	.LFB124:
 547              		.loc 1 139 0
 548              		.cfi_startproc
 549              		@ args = 0, pretend = 0, frame = 120
 550              		@ frame_needed = 0, uses_anonymous_args = 0
 551 0000 00B5     		push	{lr}
 552              	.LCFI12:
 553              		.cfi_def_cfa_offset 4
 554              		.cfi_offset 14, -4
 555 0002 A1B0     		sub	sp, sp, #132
 556              	.LCFI13:
 557              		.cfi_def_cfa_offset 136
 558 0004 0390     		str	r0, [sp, #12]
 559              		.loc 1 141 0
 560 0006 4FF00003 		mov	r3, #0
 561 000a 1D93     		str	r3, [sp, #116]
 562              		.loc 1 142 0
 563 000c 039B     		ldr	r3, [sp, #12]
 564 000e 1B68     		ldr	r3, [r3, #0]
 565 0010 1C93     		str	r3, [sp, #112]
 566              		.loc 1 143 0
 567 0012 039B     		ldr	r3, [sp, #12]
 568 0014 5B68     		ldr	r3, [r3, #4]
 569 0016 1B93     		str	r3, [sp, #108]
 570              		.loc 1 147 0
 571 0018 40F20003 		movw	r3, #:lower16:rlist
 572 001c C0F20003 		movt	r3, #:upper16:rlist
 573 0020 9A69     		ldr	r2, [r3, #24]
 574 0022 40F20003 		movw	r3, #:lower16:.LC23
 575 0026 C0F20003 		movt	r3, #:upper16:.LC23
 576 002a 9361     		str	r3, [r2, #24]
 577              		.loc 1 148 0
 578 002c 1C98     		ldr	r0, [sp, #112]
 579 002e 40F20001 		movw	r1, #:lower16:.LC24
 580 0032 C0F20001 		movt	r1, #:upper16:.LC24
 581 0036 FFF7FEFF 		bl	chprintf
 582 003a 00E0     		b	.L37
 583              	.L39:
 584              		.loc 1 192 0
 585 003c 00BF     		nop
 586              	.L37:
 587              		.loc 1 150 0
 588 003e 1C98     		ldr	r0, [sp, #112]
 589 0040 40F20001 		movw	r1, #:lower16:.LC25
 590 0044 C0F20001 		movt	r1, #:upper16:.LC25
ARM GAS  /tmp/ccyPXS5v.s 			page 13


 591 0048 FFF7FEFF 		bl	chprintf
 592              		.loc 1 151 0
 593 004c 09AB     		add	r3, sp, #36
 594 004e 1C98     		ldr	r0, [sp, #112]
 595 0050 1946     		mov	r1, r3
 596 0052 4FF04002 		mov	r2, #64
 597 0056 FFF7FEFF 		bl	shellGetLine
 598 005a 0346     		mov	r3, r0
 599 005c 002B     		cmp	r3, #0
 600 005e 07D0     		beq	.L24
 601              		.loc 1 152 0
 602 0060 1C98     		ldr	r0, [sp, #112]
 603 0062 40F20001 		movw	r1, #:lower16:.LC26
 604 0066 C0F20001 		movt	r1, #:upper16:.LC26
 605 006a FFF7FEFF 		bl	chprintf
 606              		.loc 1 153 0
 607 006e BBE0     		b	.L25
 608              	.L24:
 609              		.loc 1 155 0
 610 0070 09AA     		add	r2, sp, #36
 611 0072 19AB     		add	r3, sp, #100
 612 0074 1046     		mov	r0, r2
 613 0076 40F20001 		movw	r1, #:lower16:.LC27
 614 007a C0F20001 		movt	r1, #:upper16:.LC27
 615 007e 1A46     		mov	r2, r3
 616 0080 FFF7FEFF 		bl	_strtok
 617 0084 1A90     		str	r0, [sp, #104]
 618              		.loc 1 156 0
 619 0086 1A9B     		ldr	r3, [sp, #104]
 620 0088 1E93     		str	r3, [sp, #120]
 621              		.loc 1 157 0
 622 008a 4FF00003 		mov	r3, #0
 623 008e 1F93     		str	r3, [sp, #124]
 624              		.loc 1 158 0
 625 0090 19E0     		b	.L26
 626              	.L29:
 627              		.loc 1 159 0
 628 0092 1F9B     		ldr	r3, [sp, #124]
 629 0094 032B     		cmp	r3, #3
 630 0096 0ADD     		ble	.L27
 631              		.loc 1 160 0
 632 0098 1C98     		ldr	r0, [sp, #112]
 633 009a 40F20001 		movw	r1, #:lower16:.LC28
 634 009e C0F20001 		movt	r1, #:upper16:.LC28
 635 00a2 FFF7FEFF 		bl	chprintf
 636              		.loc 1 161 0
 637 00a6 4FF00003 		mov	r3, #0
 638 00aa 1E93     		str	r3, [sp, #120]
 639              		.loc 1 162 0
 640 00ac 19E0     		b	.L28
 641              	.L27:
 642              		.loc 1 164 0
 643 00ae 1F9B     		ldr	r3, [sp, #124]
 644 00b0 4FEA8303 		lsl	r3, r3, #2
 645 00b4 20AA     		add	r2, sp, #128
 646 00b6 D318     		adds	r3, r2, r3
 647 00b8 1A9A     		ldr	r2, [sp, #104]
ARM GAS  /tmp/ccyPXS5v.s 			page 14


 648 00ba 43F8702C 		str	r2, [r3, #-112]
 649 00be 1F9B     		ldr	r3, [sp, #124]
 650 00c0 03F10103 		add	r3, r3, #1
 651 00c4 1F93     		str	r3, [sp, #124]
 652              	.L26:
 653              		.loc 1 158 0 discriminator 1
 654 00c6 19AB     		add	r3, sp, #100
 655 00c8 4FF00000 		mov	r0, #0
 656 00cc 40F20001 		movw	r1, #:lower16:.LC27
 657 00d0 C0F20001 		movt	r1, #:upper16:.LC27
 658 00d4 1A46     		mov	r2, r3
 659 00d6 FFF7FEFF 		bl	_strtok
 660 00da 1A90     		str	r0, [sp, #104]
 661 00dc 1A9B     		ldr	r3, [sp, #104]
 662 00de 002B     		cmp	r3, #0
 663 00e0 D7D1     		bne	.L29
 664              	.L28:
 665              		.loc 1 166 0
 666 00e2 1F9B     		ldr	r3, [sp, #124]
 667 00e4 4FEA8303 		lsl	r3, r3, #2
 668 00e8 20AA     		add	r2, sp, #128
 669 00ea D318     		adds	r3, r2, r3
 670 00ec 4FF00002 		mov	r2, #0
 671 00f0 43F8702C 		str	r2, [r3, #-112]
 672              		.loc 1 167 0
 673 00f4 1E9B     		ldr	r3, [sp, #120]
 674 00f6 002B     		cmp	r3, #0
 675 00f8 A0D0     		beq	.L39
 676              		.loc 1 168 0
 677 00fa 1E98     		ldr	r0, [sp, #120]
 678 00fc 40F20001 		movw	r1, #:lower16:.LC29
 679 0100 C0F20001 		movt	r1, #:upper16:.LC29
 680 0104 FFF7FEFF 		bl	strcasecmp
 681 0108 0346     		mov	r3, r0
 682 010a 002B     		cmp	r3, #0
 683 010c 0AD1     		bne	.L31
 684              		.loc 1 169 0
 685 010e 1F9B     		ldr	r3, [sp, #124]
 686 0110 002B     		cmp	r3, #0
 687 0112 68DD     		ble	.L40
 688              		.loc 1 170 0
 689 0114 1C98     		ldr	r0, [sp, #112]
 690 0116 40F20001 		movw	r1, #:lower16:.LC29
 691 011a C0F20001 		movt	r1, #:upper16:.LC29
 692 011e FFF7FEFF 		bl	usage
 693              		.loc 1 171 0
 694 0122 5FE0     		b	.L30
 695              	.L31:
 696              		.loc 1 175 0
 697 0124 1E98     		ldr	r0, [sp, #120]
 698 0126 40F20001 		movw	r1, #:lower16:.LC30
 699 012a C0F20001 		movt	r1, #:upper16:.LC30
 700 012e FFF7FEFF 		bl	strcasecmp
 701 0132 0346     		mov	r3, r0
 702 0134 002B     		cmp	r3, #0
 703 0136 27D1     		bne	.L33
 704              		.loc 1 176 0
ARM GAS  /tmp/ccyPXS5v.s 			page 15


 705 0138 1F9B     		ldr	r3, [sp, #124]
 706 013a 002B     		cmp	r3, #0
 707 013c 07DD     		ble	.L34
 708              		.loc 1 177 0
 709 013e 1C98     		ldr	r0, [sp, #112]
 710 0140 40F20001 		movw	r1, #:lower16:.LC30
 711 0144 C0F20001 		movt	r1, #:upper16:.LC30
 712 0148 FFF7FEFF 		bl	usage
 713              		.loc 1 178 0
 714 014c 4AE0     		b	.L30
 715              	.L34:
 716              		.loc 1 180 0
 717 014e 1C98     		ldr	r0, [sp, #112]
 718 0150 40F20001 		movw	r1, #:lower16:.LC31
 719 0154 C0F20001 		movt	r1, #:upper16:.LC31
 720 0158 FFF7FEFF 		bl	chprintf
 721              		.loc 1 181 0
 722 015c 1C98     		ldr	r0, [sp, #112]
 723 015e 40F20001 		movw	r1, #:lower16:local_commands
 724 0162 C0F20001 		movt	r1, #:upper16:local_commands
 725 0166 FFF7FEFF 		bl	list_commands
 726              		.loc 1 182 0
 727 016a 1B9B     		ldr	r3, [sp, #108]
 728 016c 002B     		cmp	r3, #0
 729 016e 03D0     		beq	.L35
 730              		.loc 1 183 0
 731 0170 1C98     		ldr	r0, [sp, #112]
 732 0172 1B99     		ldr	r1, [sp, #108]
 733 0174 FFF7FEFF 		bl	list_commands
 734              	.L35:
 735              		.loc 1 184 0
 736 0178 1C98     		ldr	r0, [sp, #112]
 737 017a 40F20001 		movw	r1, #:lower16:.LC32
 738 017e C0F20001 		movt	r1, #:upper16:.LC32
 739 0182 FFF7FEFF 		bl	chprintf
 740              		.loc 1 192 0
 741 0186 59E7     		b	.L39
 742              	.L33:
 743              		.loc 1 186 0
 744 0188 04AB     		add	r3, sp, #16
 745 018a 0093     		str	r3, [sp, #0]
 746 018c 40F20000 		movw	r0, #:lower16:local_commands
 747 0190 C0F20000 		movt	r0, #:upper16:local_commands
 748 0194 1C99     		ldr	r1, [sp, #112]
 749 0196 1E9A     		ldr	r2, [sp, #120]
 750 0198 1F9B     		ldr	r3, [sp, #124]
 751 019a FFF7FEFF 		bl	cmdexec
 752 019e 0346     		mov	r3, r0
 753 01a0 002B     		cmp	r3, #0
 754 01a2 3FF44BAF 		beq	.L39
 755              		.loc 1 186 0 is_stmt 0 discriminator 1
 756 01a6 1B9B     		ldr	r3, [sp, #108]
 757 01a8 002B     		cmp	r3, #0
 758 01aa 0BD0     		beq	.L36
 759              		.loc 1 187 0 is_stmt 1
 760 01ac 04AB     		add	r3, sp, #16
 761 01ae 0093     		str	r3, [sp, #0]
ARM GAS  /tmp/ccyPXS5v.s 			page 16


 762 01b0 1B98     		ldr	r0, [sp, #108]
 763 01b2 1C99     		ldr	r1, [sp, #112]
 764 01b4 1E9A     		ldr	r2, [sp, #120]
 765 01b6 1F9B     		ldr	r3, [sp, #124]
 766 01b8 FFF7FEFF 		bl	cmdexec
 767 01bc 0346     		mov	r3, r0
 768 01be 002B     		cmp	r3, #0
 769 01c0 3FF43CAF 		beq	.L39
 770              	.L36:
 771              		.loc 1 188 0
 772 01c4 1C98     		ldr	r0, [sp, #112]
 773 01c6 40F20001 		movw	r1, #:lower16:.LC33
 774 01ca C0F20001 		movt	r1, #:upper16:.LC33
 775 01ce 1E9A     		ldr	r2, [sp, #120]
 776 01d0 FFF7FEFF 		bl	chprintf
 777              		.loc 1 189 0
 778 01d4 1C98     		ldr	r0, [sp, #112]
 779 01d6 40F20001 		movw	r1, #:lower16:.LC34
 780 01da C0F20001 		movt	r1, #:upper16:.LC34
 781 01de FFF7FEFF 		bl	chprintf
 782              		.loc 1 192 0
 783 01e2 2BE7     		b	.L39
 784              	.L30:
 785 01e4 2AE7     		b	.L39
 786              	.L40:
 787              		.loc 1 173 0
 788 01e6 00BF     		nop
 789              	.L25:
 790              	.LBB2:
 791              		.loc 1 195 0
 792 01e8 4FF02003 		mov	r3, #32
 793              	@ 195 "../../os/various/shell.c" 1
 794 01ec 83F31188 		msr     BASEPRI, r3
 795              	@ 0 "" 2
 796              		.thumb
 797              	.LBE2:
 798              		.loc 1 196 0
 799 01f0 40F20000 		movw	r0, #:lower16:shell_terminated
 800 01f4 C0F20000 		movt	r0, #:upper16:shell_terminated
 801 01f8 4FF00001 		mov	r1, #0
 802 01fc FFF7FEFF 		bl	chEvtBroadcastFlagsI
 803              		.loc 1 197 0
 804 0200 1D98     		ldr	r0, [sp, #116]
 805 0202 FFF7FEFF 		bl	chThdExitS
 806              		.loc 1 198 0
 807 0206 4FF00003 		mov	r3, #0
 808              		.loc 1 199 0
 809 020a 1846     		mov	r0, r3
 810 020c 21B0     		add	sp, sp, #132
 811 020e 00BD     		pop	{pc}
 812              		.cfi_endproc
 813              	.LFE124:
 814              		.size	shell_thread, .-shell_thread
 815              		.section	.text.shellInit,"ax",%progbits
 816              		.align	2
 817              		.p2align 4,,15
 818              		.global	shellInit
ARM GAS  /tmp/ccyPXS5v.s 			page 17


 819              		.thumb
 820              		.thumb_func
 821              		.type	shellInit, %function
 822              	shellInit:
 823              	.LFB125:
 824              		.loc 1 204 0
 825              		.cfi_startproc
 826              		@ args = 0, pretend = 0, frame = 0
 827              		@ frame_needed = 0, uses_anonymous_args = 0
 828              		@ link register save eliminated.
 829              		.loc 1 206 0
 830 0000 40F20003 		movw	r3, #:lower16:shell_terminated
 831 0004 C0F20003 		movt	r3, #:upper16:shell_terminated
 832 0008 40F20002 		movw	r2, #:lower16:shell_terminated
 833 000c C0F20002 		movt	r2, #:upper16:shell_terminated
 834 0010 1A60     		str	r2, [r3, #0]
 835              		.loc 1 207 0
 836 0012 7047     		bx	lr
 837              		.cfi_endproc
 838              	.LFE125:
 839              		.size	shellInit, .-shellInit
 840 0014 AFF30080 		.section	.text.shellCreate,"ax",%progbits
 840      AFF30080 
 840      AFF30080 
 841              		.align	2
 842              		.p2align 4,,15
 843              		.global	shellCreate
 844              		.thumb
 845              		.thumb_func
 846              		.type	shellCreate, %function
 847              	shellCreate:
 848              	.LFB126:
 849              		.loc 1 220 0
 850              		.cfi_startproc
 851              		@ args = 0, pretend = 0, frame = 16
 852              		@ frame_needed = 0, uses_anonymous_args = 0
 853 0000 00B5     		push	{lr}
 854              	.LCFI14:
 855              		.cfi_def_cfa_offset 4
 856              		.cfi_offset 14, -4
 857 0002 87B0     		sub	sp, sp, #28
 858              	.LCFI15:
 859              		.cfi_def_cfa_offset 32
 860 0004 0590     		str	r0, [sp, #20]
 861 0006 0491     		str	r1, [sp, #16]
 862 0008 0392     		str	r2, [sp, #12]
 863              		.loc 1 222 0
 864 000a 059B     		ldr	r3, [sp, #20]
 865 000c 0093     		str	r3, [sp, #0]
 866 000e 4FF00000 		mov	r0, #0
 867 0012 0499     		ldr	r1, [sp, #16]
 868 0014 039A     		ldr	r2, [sp, #12]
 869 0016 40F20003 		movw	r3, #:lower16:shell_thread
 870 001a C0F20003 		movt	r3, #:upper16:shell_thread
 871 001e FFF7FEFF 		bl	chThdCreateFromHeap
 872 0022 0346     		mov	r3, r0
 873              		.loc 1 223 0
ARM GAS  /tmp/ccyPXS5v.s 			page 18


 874 0024 1846     		mov	r0, r3
 875 0026 07B0     		add	sp, sp, #28
 876 0028 00BD     		pop	{pc}
 877              		.cfi_endproc
 878              	.LFE126:
 879              		.size	shellCreate, .-shellCreate
 880 002a 00BFAFF3 		.section	.text.shellCreateStatic,"ax",%progbits
 880      0080
 881              		.align	2
 882              		.p2align 4,,15
 883              		.global	shellCreateStatic
 884              		.thumb
 885              		.thumb_func
 886              		.type	shellCreateStatic, %function
 887              	shellCreateStatic:
 888              	.LFB127:
 889              		.loc 1 236 0
 890              		.cfi_startproc
 891              		@ args = 0, pretend = 0, frame = 16
 892              		@ frame_needed = 0, uses_anonymous_args = 0
 893 0000 00B5     		push	{lr}
 894              	.LCFI16:
 895              		.cfi_def_cfa_offset 4
 896              		.cfi_offset 14, -4
 897 0002 87B0     		sub	sp, sp, #28
 898              	.LCFI17:
 899              		.cfi_def_cfa_offset 32
 900 0004 0590     		str	r0, [sp, #20]
 901 0006 0491     		str	r1, [sp, #16]
 902 0008 0392     		str	r2, [sp, #12]
 903 000a 0293     		str	r3, [sp, #8]
 904              		.loc 1 238 0
 905 000c 059B     		ldr	r3, [sp, #20]
 906 000e 0093     		str	r3, [sp, #0]
 907 0010 0498     		ldr	r0, [sp, #16]
 908 0012 0399     		ldr	r1, [sp, #12]
 909 0014 029A     		ldr	r2, [sp, #8]
 910 0016 40F20003 		movw	r3, #:lower16:shell_thread
 911 001a C0F20003 		movt	r3, #:upper16:shell_thread
 912 001e FFF7FEFF 		bl	chThdCreateStatic
 913 0022 0346     		mov	r3, r0
 914              		.loc 1 239 0
 915 0024 1846     		mov	r0, r3
 916 0026 07B0     		add	sp, sp, #28
 917 0028 00BD     		pop	{pc}
 918              		.cfi_endproc
 919              	.LFE127:
 920              		.size	shellCreateStatic, .-shellCreateStatic
 921 002a 00BFAFF3 		.section	.rodata
 921      0080
 922 0239 000000   		.align	2
 923              	.LC35:
 924 023c 5E4400   		.ascii	"^D\000"
 925 023f 00       		.section	.text.shellGetLine,"ax",%progbits
 926              		.align	2
 927              		.p2align 4,,15
 928              		.global	shellGetLine
ARM GAS  /tmp/ccyPXS5v.s 			page 19


 929              		.thumb
 930              		.thumb_func
 931              		.type	shellGetLine, %function
 932              	shellGetLine:
 933              	.LFB128:
 934              		.loc 1 251 0
 935              		.cfi_startproc
 936              		@ args = 0, pretend = 0, frame = 24
 937              		@ frame_needed = 0, uses_anonymous_args = 0
 938 0000 00B5     		push	{lr}
 939              	.LCFI18:
 940              		.cfi_def_cfa_offset 4
 941              		.cfi_offset 14, -4
 942 0002 87B0     		sub	sp, sp, #28
 943              	.LCFI19:
 944              		.cfi_def_cfa_offset 32
 945 0004 0390     		str	r0, [sp, #12]
 946 0006 0291     		str	r1, [sp, #8]
 947 0008 0192     		str	r2, [sp, #4]
 948              		.loc 1 252 0
 949 000a 029B     		ldr	r3, [sp, #8]
 950 000c 0593     		str	r3, [sp, #20]
 951 000e 00E0     		b	.L58
 952              	.L61:
 953              		.loc 1 283 0
 954 0010 00BF     		nop
 955              	.L58:
 956              	.LBB3:
 957              		.loc 1 257 0
 958 0012 039B     		ldr	r3, [sp, #12]
 959 0014 1B68     		ldr	r3, [r3, #0]
 960 0016 5B68     		ldr	r3, [r3, #4]
 961 0018 0DF11302 		add	r2, sp, #19
 962 001c 0398     		ldr	r0, [sp, #12]
 963 001e 1146     		mov	r1, r2
 964 0020 4FF00102 		mov	r2, #1
 965 0024 9847     		blx	r3
 966 0026 0346     		mov	r3, r0
 967 0028 002B     		cmp	r3, #0
 968 002a 02D1     		bne	.L47
 969              		.loc 1 258 0
 970 002c 4FF00103 		mov	r3, #1
 971 0030 64E0     		b	.L57
 972              	.L47:
 973              		.loc 1 259 0
 974 0032 9DF81330 		ldrb	r3, [sp, #19]	@ zero_extendqisi2
 975 0036 042B     		cmp	r3, #4
 976 0038 09D1     		bne	.L49
 977              		.loc 1 260 0
 978 003a 0398     		ldr	r0, [sp, #12]
 979 003c 40F20001 		movw	r1, #:lower16:.LC35
 980 0040 C0F20001 		movt	r1, #:upper16:.LC35
 981 0044 FFF7FEFF 		bl	chprintf
 982              		.loc 1 261 0
 983 0048 4FF00103 		mov	r3, #1
 984 004c 56E0     		b	.L57
 985              	.L49:
ARM GAS  /tmp/ccyPXS5v.s 			page 20


 986              		.loc 1 263 0
 987 004e 9DF81330 		ldrb	r3, [sp, #19]	@ zero_extendqisi2
 988 0052 082B     		cmp	r3, #8
 989 0054 1FD1     		bne	.L50
 990              		.loc 1 264 0
 991 0056 059A     		ldr	r2, [sp, #20]
 992 0058 029B     		ldr	r3, [sp, #8]
 993 005a 9A42     		cmp	r2, r3
 994 005c 4AD0     		beq	.L59
 995              		.loc 1 265 0
 996 005e 039B     		ldr	r3, [sp, #12]
 997 0060 1B68     		ldr	r3, [r3, #0]
 998 0062 9B68     		ldr	r3, [r3, #8]
 999 0064 9DF81320 		ldrb	r2, [sp, #19]	@ zero_extendqisi2
 1000 0068 0398     		ldr	r0, [sp, #12]
 1001 006a 1146     		mov	r1, r2
 1002 006c 9847     		blx	r3
 1003              		.loc 1 266 0
 1004 006e 039B     		ldr	r3, [sp, #12]
 1005 0070 1B68     		ldr	r3, [r3, #0]
 1006 0072 9B68     		ldr	r3, [r3, #8]
 1007 0074 0398     		ldr	r0, [sp, #12]
 1008 0076 4FF02001 		mov	r1, #32
 1009 007a 9847     		blx	r3
 1010              		.loc 1 267 0
 1011 007c 039B     		ldr	r3, [sp, #12]
 1012 007e 1B68     		ldr	r3, [r3, #0]
 1013 0080 9B68     		ldr	r3, [r3, #8]
 1014 0082 9DF81320 		ldrb	r2, [sp, #19]	@ zero_extendqisi2
 1015 0086 0398     		ldr	r0, [sp, #12]
 1016 0088 1146     		mov	r1, r2
 1017 008a 9847     		blx	r3
 1018              		.loc 1 268 0
 1019 008c 059B     		ldr	r3, [sp, #20]
 1020 008e 03F1FF33 		add	r3, r3, #-1
 1021 0092 0593     		str	r3, [sp, #20]
 1022              	.LBE3:
 1023              		.loc 1 283 0
 1024 0094 BCE7     		b	.L61
 1025              	.L50:
 1026              	.LBB4:
 1027              		.loc 1 272 0
 1028 0096 9DF81330 		ldrb	r3, [sp, #19]	@ zero_extendqisi2
 1029 009a 0D2B     		cmp	r3, #13
 1030 009c 0DD1     		bne	.L53
 1031              		.loc 1 273 0
 1032 009e 0398     		ldr	r0, [sp, #12]
 1033 00a0 40F20001 		movw	r1, #:lower16:.LC32
 1034 00a4 C0F20001 		movt	r1, #:upper16:.LC32
 1035 00a8 FFF7FEFF 		bl	chprintf
 1036              		.loc 1 274 0
 1037 00ac 059B     		ldr	r3, [sp, #20]
 1038 00ae 4FF00002 		mov	r2, #0
 1039 00b2 1A70     		strb	r2, [r3, #0]
 1040              		.loc 1 275 0
 1041 00b4 4FF00003 		mov	r3, #0
 1042 00b8 20E0     		b	.L57
ARM GAS  /tmp/ccyPXS5v.s 			page 21


 1043              	.L53:
 1044              		.loc 1 277 0
 1045 00ba 9DF81330 		ldrb	r3, [sp, #19]	@ zero_extendqisi2
 1046 00be 1F2B     		cmp	r3, #31
 1047 00c0 1AD9     		bls	.L60
 1048              	.L54:
 1049              		.loc 1 279 0
 1050 00c2 019B     		ldr	r3, [sp, #4]
 1051 00c4 03F1FF33 		add	r3, r3, #-1
 1052 00c8 029A     		ldr	r2, [sp, #8]
 1053 00ca D218     		adds	r2, r2, r3
 1054 00cc 059B     		ldr	r3, [sp, #20]
 1055 00ce 9A42     		cmp	r2, r3
 1056 00d0 9ED9     		bls	.L61
 1057              		.loc 1 280 0
 1058 00d2 039B     		ldr	r3, [sp, #12]
 1059 00d4 1B68     		ldr	r3, [r3, #0]
 1060 00d6 9B68     		ldr	r3, [r3, #8]
 1061 00d8 9DF81320 		ldrb	r2, [sp, #19]	@ zero_extendqisi2
 1062 00dc 0398     		ldr	r0, [sp, #12]
 1063 00de 1146     		mov	r1, r2
 1064 00e0 9847     		blx	r3
 1065              		.loc 1 281 0
 1066 00e2 9DF81320 		ldrb	r2, [sp, #19]	@ zero_extendqisi2
 1067 00e6 059B     		ldr	r3, [sp, #20]
 1068 00e8 1A70     		strb	r2, [r3, #0]
 1069 00ea 059B     		ldr	r3, [sp, #20]
 1070 00ec 03F10103 		add	r3, r3, #1
 1071 00f0 0593     		str	r3, [sp, #20]
 1072              	.LBE4:
 1073              		.loc 1 283 0
 1074 00f2 8DE7     		b	.L61
 1075              	.L59:
 1076              	.LBB5:
 1077              		.loc 1 270 0
 1078 00f4 00BF     		nop
 1079 00f6 00E0     		b	.L56
 1080              	.L60:
 1081              		.loc 1 278 0
 1082 00f8 00BF     		nop
 1083              	.L56:
 1084              	.LBE5:
 1085              		.loc 1 283 0
 1086 00fa 89E7     		b	.L61
 1087              	.L57:
 1088              		.loc 1 284 0
 1089 00fc 1846     		mov	r0, r3
 1090 00fe 07B0     		add	sp, sp, #28
 1091 0100 00BD     		pop	{pc}
 1092              		.cfi_endproc
 1093              	.LFE128:
 1094              		.size	shellGetLine, .-shellGetLine
 1095 0102 00BFAFF3 		.text
 1095      0080AFF3 
 1095      0080AFF3 
 1095      0080
 1096              	.Letext0:
ARM GAS  /tmp/ccyPXS5v.s 			page 22


 1097              		.file 2 "/usr/bin/../lib/gcc/arm-none-eabi/4.7.4/include/stddef.h"
 1098              		.file 3 "/usr/bin/../lib/gcc/arm-none-eabi/4.7.4/../../../../arm-none-eabi/include/stdint.h"
 1099              		.file 4 "../../os/ports/GCC/ARMCMx/chtypes.h"
 1100              		.file 5 "../../os/kernel/include/chlists.h"
 1101              		.file 6 "../../os/kernel/include/chthreads.h"
 1102              		.file 7 "../../os/ports/GCC/ARMCMx/chcore_v7m.h"
 1103              		.file 8 "../../os/kernel/include/chvt.h"
 1104              		.file 9 "../../os/kernel/include/chschd.h"
 1105              		.file 10 "../../os/kernel/include/chmtx.h"
 1106              		.file 11 "../../os/kernel/include/chevents.h"
 1107              		.file 12 "../../os/kernel/include/chstreams.h"
 1108              		.file 13 "../../os/various/shell.h"
 1109              		.file 14 "../../os/ports/common/ARMCMx/CMSIS/include/core_cm4.h"