ARM GAS  /tmp/cc0CY7eb.s 			page 1


   1              		.syntax unified
   2              		.cpu cortex-m4
   3              		.fpu softvfp
   4              		.eabi_attribute 20, 1
   5              		.eabi_attribute 21, 1
   6              		.eabi_attribute 23, 3
   7              		.eabi_attribute 24, 1
   8              		.eabi_attribute 25, 1
   9              		.eabi_attribute 26, 1
  10              		.eabi_attribute 30, 6
  11              		.eabi_attribute 34, 1
  12              		.eabi_attribute 18, 4
  13              		.thumb
  14              		.file	"spi_lld.c"
  15              		.text
  16              	.Ltext0:
  17              		.cfi_sections	.debug_frame
  18              		.global	SPID1
  19              		.section	.bss.SPID1,"aw",%nobits
  20              		.align	2
  21              		.type	SPID1, %object
  22              		.size	SPID1, 48
  23              	SPID1:
  24 0000 00000000 		.space	48
  24      00000000 
  24      00000000 
  24      00000000 
  24      00000000 
  25              		.global	SPID2
  26              		.section	.bss.SPID2,"aw",%nobits
  27              		.align	2
  28              		.type	SPID2, %object
  29              		.size	SPID2, 48
  30              	SPID2:
  31 0000 00000000 		.space	48
  31      00000000 
  31      00000000 
  31      00000000 
  31      00000000 
  32              		.section	.bss.dummytx,"aw",%nobits
  33              		.align	1
  34              		.type	dummytx, %object
  35              		.size	dummytx, 2
  36              	dummytx:
  37 0000 0000     		.space	2
  38              		.section	.bss.dummyrx,"aw",%nobits
  39              		.align	1
  40              		.type	dummyrx, %object
  41              		.size	dummyrx, 2
  42              	dummyrx:
  43 0000 0000     		.space	2
  44              		.section	.text.spi_lld_serve_rx_interrupt,"ax",%progbits
  45              		.align	2
  46              		.p2align 4,,15
  47              		.thumb
  48              		.thumb_func
  49              		.type	spi_lld_serve_rx_interrupt, %function
ARM GAS  /tmp/cc0CY7eb.s 			page 2


  50              	spi_lld_serve_rx_interrupt:
  51              	.LFB118:
  52              		.file 1 "../../os/hal/platforms/STM32/SPIv1/spi_lld.c"
  53              		.loc 1 94 0
  54              		.cfi_startproc
  55              		@ args = 0, pretend = 0, frame = 16
  56              		@ frame_needed = 0, uses_anonymous_args = 0
  57 0000 00B5     		push	{lr}
  58              	.LCFI0:
  59              		.cfi_def_cfa_offset 4
  60              		.cfi_offset 14, -4
  61 0002 85B0     		sub	sp, sp, #20
  62              	.LCFI1:
  63              		.cfi_def_cfa_offset 24
  64 0004 0190     		str	r0, [sp, #4]
  65 0006 0091     		str	r1, [sp, #0]
  66              		.loc 1 98 0
  67 0008 009B     		ldr	r3, [sp, #0]
  68 000a 03F00C03 		and	r3, r3, #12
  69 000e 002B     		cmp	r3, #0
  70 0010 01D0     		beq	.L2
  71              		.loc 1 99 0
  72 0012 FFF7FEFF 		bl	port_halt
  73              	.L2:
  74              		.loc 1 106 0
  75 0016 019B     		ldr	r3, [sp, #4]
  76 0018 5B6A     		ldr	r3, [r3, #36]
  77 001a 1B68     		ldr	r3, [r3, #0]
  78 001c 019A     		ldr	r2, [sp, #4]
  79 001e 526A     		ldr	r2, [r2, #36]
  80 0020 1268     		ldr	r2, [r2, #0]
  81 0022 1268     		ldr	r2, [r2, #0]
  82 0024 22F01F02 		bic	r2, r2, #31
  83 0028 1A60     		str	r2, [r3, #0]
  84              	.L3:
  85              		.loc 1 106 0 is_stmt 0 discriminator 1
  86 002a 019B     		ldr	r3, [sp, #4]
  87 002c 5B6A     		ldr	r3, [r3, #36]
  88 002e 1B68     		ldr	r3, [r3, #0]
  89 0030 1B68     		ldr	r3, [r3, #0]
  90 0032 03F00103 		and	r3, r3, #1
  91 0036 002B     		cmp	r3, #0
  92 0038 F7D1     		bne	.L3
  93              		.loc 1 106 0 discriminator 2
  94 003a 019B     		ldr	r3, [sp, #4]
  95 003c 5B6A     		ldr	r3, [r3, #36]
  96 003e 5B68     		ldr	r3, [r3, #4]
  97 0040 019A     		ldr	r2, [sp, #4]
  98 0042 526A     		ldr	r2, [r2, #36]
  99 0044 127A     		ldrb	r2, [r2, #8]	@ zero_extendqisi2
 100 0046 4FF03D01 		mov	r1, #61
 101 004a 01FA02F2 		lsl	r2, r1, r2
 102 004e 1A60     		str	r2, [r3, #0]
 103              		.loc 1 107 0 is_stmt 1 discriminator 2
 104 0050 019B     		ldr	r3, [sp, #4]
 105 0052 1B6A     		ldr	r3, [r3, #32]
 106 0054 1B68     		ldr	r3, [r3, #0]
ARM GAS  /tmp/cc0CY7eb.s 			page 3


 107 0056 019A     		ldr	r2, [sp, #4]
 108 0058 126A     		ldr	r2, [r2, #32]
 109 005a 1268     		ldr	r2, [r2, #0]
 110 005c 1268     		ldr	r2, [r2, #0]
 111 005e 22F01F02 		bic	r2, r2, #31
 112 0062 1A60     		str	r2, [r3, #0]
 113              	.L4:
 114              		.loc 1 107 0 is_stmt 0 discriminator 1
 115 0064 019B     		ldr	r3, [sp, #4]
 116 0066 1B6A     		ldr	r3, [r3, #32]
 117 0068 1B68     		ldr	r3, [r3, #0]
 118 006a 1B68     		ldr	r3, [r3, #0]
 119 006c 03F00103 		and	r3, r3, #1
 120 0070 002B     		cmp	r3, #0
 121 0072 F7D1     		bne	.L4
 122              		.loc 1 107 0 discriminator 2
 123 0074 019B     		ldr	r3, [sp, #4]
 124 0076 1B6A     		ldr	r3, [r3, #32]
 125 0078 5B68     		ldr	r3, [r3, #4]
 126 007a 019A     		ldr	r2, [sp, #4]
 127 007c 126A     		ldr	r2, [r2, #32]
 128 007e 127A     		ldrb	r2, [r2, #8]	@ zero_extendqisi2
 129 0080 4FF03D01 		mov	r1, #61
 130 0084 01FA02F2 		lsl	r2, r1, r2
 131 0088 1A60     		str	r2, [r3, #0]
 132              		.loc 1 111 0 is_stmt 1 discriminator 2
 133 008a 019B     		ldr	r3, [sp, #4]
 134 008c 5B68     		ldr	r3, [r3, #4]
 135 008e 1B68     		ldr	r3, [r3, #0]
 136 0090 002B     		cmp	r3, #0
 137 0092 11D0     		beq	.L5
 138              		.loc 1 111 0 is_stmt 0 discriminator 1
 139 0094 019B     		ldr	r3, [sp, #4]
 140 0096 4FF00402 		mov	r2, #4
 141 009a 1A70     		strb	r2, [r3, #0]
 142 009c 019B     		ldr	r3, [sp, #4]
 143 009e 5B68     		ldr	r3, [r3, #4]
 144 00a0 1B68     		ldr	r3, [r3, #0]
 145 00a2 0198     		ldr	r0, [sp, #4]
 146 00a4 9847     		blx	r3
 147 00a6 019B     		ldr	r3, [sp, #4]
 148 00a8 1B78     		ldrb	r3, [r3, #0]	@ zero_extendqisi2
 149 00aa 042B     		cmp	r3, #4
 150 00ac 08D1     		bne	.L6
 151              		.loc 1 111 0 discriminator 3
 152 00ae 019B     		ldr	r3, [sp, #4]
 153 00b0 4FF00202 		mov	r2, #2
 154 00b4 1A70     		strb	r2, [r3, #0]
 155 00b6 03E0     		b	.L6
 156              	.L5:
 157              		.loc 1 111 0 discriminator 2
 158 00b8 019B     		ldr	r3, [sp, #4]
 159 00ba 4FF00202 		mov	r2, #2
 160 00be 1A70     		strb	r2, [r3, #0]
 161              	.L6:
 162              	.LBB2:
 163              		.loc 1 111 0 discriminator 4
ARM GAS  /tmp/cc0CY7eb.s 			page 4


 164 00c0 4FF02003 		mov	r3, #32
 165              	@ 111 "../../os/hal/platforms/STM32/SPIv1/spi_lld.c" 1
 166 00c4 83F31188 		msr     BASEPRI, r3
 167              	@ 0 "" 2
 168              		.thumb
 169              	.LBE2:
 170 00c8 019B     		ldr	r3, [sp, #4]
 171 00ca 9B68     		ldr	r3, [r3, #8]
 172 00cc 002B     		cmp	r3, #0
 173 00ce 0DD0     		beq	.L7
 174              	.LBB3:
 175              		.loc 1 111 0 discriminator 5
 176 00d0 019B     		ldr	r3, [sp, #4]
 177 00d2 9B68     		ldr	r3, [r3, #8]
 178 00d4 0393     		str	r3, [sp, #12]
 179 00d6 019B     		ldr	r3, [sp, #4]
 180 00d8 4FF00002 		mov	r2, #0
 181 00dc 9A60     		str	r2, [r3, #8]
 182 00de 039B     		ldr	r3, [sp, #12]
 183 00e0 4FF00002 		mov	r2, #0
 184 00e4 5A62     		str	r2, [r3, #36]
 185 00e6 0398     		ldr	r0, [sp, #12]
 186 00e8 FFF7FEFF 		bl	chSchReadyI
 187              	.L7:
 188              	.LBE3:
 189              	.LBB4:
 190              		.loc 1 111 0 discriminator 6
 191 00ec 4FF00003 		mov	r3, #0
 192              	@ 111 "../../os/hal/platforms/STM32/SPIv1/spi_lld.c" 1
 193 00f0 83F31188 		msr     BASEPRI, r3
 194              	@ 0 "" 2
 195              		.thumb
 196              	.LBE4:
 197              		.loc 1 112 0 is_stmt 1 discriminator 6
 198 00f4 05B0     		add	sp, sp, #20
 199 00f6 00BD     		pop	{pc}
 200              		.cfi_endproc
 201              	.LFE118:
 202              		.size	spi_lld_serve_rx_interrupt, .-spi_lld_serve_rx_interrupt
 203 00f8 AFF30080 		.section	.text.spi_lld_serve_tx_interrupt,"ax",%progbits
 203      AFF30080 
 204              		.align	2
 205              		.p2align 4,,15
 206              		.thumb
 207              		.thumb_func
 208              		.type	spi_lld_serve_tx_interrupt, %function
 209              	spi_lld_serve_tx_interrupt:
 210              	.LFB119:
 211              		.loc 1 120 0
 212              		.cfi_startproc
 213              		@ args = 0, pretend = 0, frame = 8
 214              		@ frame_needed = 0, uses_anonymous_args = 0
 215 0000 00B5     		push	{lr}
 216              	.LCFI2:
 217              		.cfi_def_cfa_offset 4
 218              		.cfi_offset 14, -4
 219 0002 83B0     		sub	sp, sp, #12
ARM GAS  /tmp/cc0CY7eb.s 			page 5


 220              	.LCFI3:
 221              		.cfi_def_cfa_offset 16
 222 0004 0190     		str	r0, [sp, #4]
 223 0006 0091     		str	r1, [sp, #0]
 224              		.loc 1 125 0
 225 0008 009B     		ldr	r3, [sp, #0]
 226 000a 03F00C03 		and	r3, r3, #12
 227 000e 002B     		cmp	r3, #0
 228 0010 01D0     		beq	.L8
 229              		.loc 1 126 0
 230 0012 FFF7FEFF 		bl	port_halt
 231              	.L8:
 232              		.loc 1 132 0
 233 0016 03B0     		add	sp, sp, #12
 234 0018 00BD     		pop	{pc}
 235              		.cfi_endproc
 236              	.LFE119:
 237              		.size	spi_lld_serve_tx_interrupt, .-spi_lld_serve_tx_interrupt
 238 001a 00BFAFF3 		.section	.text.spi_lld_init,"ax",%progbits
 238      0080
 239              		.align	2
 240              		.p2align 4,,15
 241              		.global	spi_lld_init
 242              		.thumb
 243              		.thumb_func
 244              		.type	spi_lld_init, %function
 245              	spi_lld_init:
 246              	.LFB120:
 247              		.loc 1 147 0
 248              		.cfi_startproc
 249              		@ args = 0, pretend = 0, frame = 0
 250              		@ frame_needed = 0, uses_anonymous_args = 0
 251 0000 08B5     		push	{r3, lr}
 252              	.LCFI4:
 253              		.cfi_def_cfa_offset 8
 254              		.cfi_offset 3, -8
 255              		.cfi_offset 14, -4
 256              		.loc 1 149 0
 257 0002 40F20003 		movw	r3, #:lower16:dummytx
 258 0006 C0F20003 		movt	r3, #:upper16:dummytx
 259 000a 4FF6FF72 		movw	r2, #65535
 260 000e 1A80     		strh	r2, [r3, #0]	@ movhi
 261              		.loc 1 152 0
 262 0010 40F20000 		movw	r0, #:lower16:SPID1
 263 0014 C0F20000 		movt	r0, #:upper16:SPID1
 264 0018 FFF7FEFF 		bl	spiObjectInit
 265              		.loc 1 153 0
 266 001c 40F20003 		movw	r3, #:lower16:SPID1
 267 0020 C0F20003 		movt	r3, #:upper16:SPID1
 268 0024 4FF44052 		mov	r2, #12288
 269 0028 C4F20102 		movt	r2, 16385
 270 002c DA61     		str	r2, [r3, #28]
 271              		.loc 1 154 0
 272 002e 40F20003 		movw	r3, #:lower16:SPID1
 273 0032 C0F20003 		movt	r3, #:upper16:SPID1
 274 0036 244A     		ldr	r2, .L11
 275 0038 1A62     		str	r2, [r3, #32]
ARM GAS  /tmp/cc0CY7eb.s 			page 6


 276              		.loc 1 155 0
 277 003a 40F20003 		movw	r3, #:lower16:SPID1
 278 003e C0F20003 		movt	r3, #:upper16:SPID1
 279 0042 224A     		ldr	r2, .L11+4
 280 0044 5A62     		str	r2, [r3, #36]
 281              		.loc 1 156 0
 282 0046 40F20003 		movw	r3, #:lower16:SPID1
 283 004a C0F20003 		movt	r3, #:upper16:SPID1
 284 004e 4FF01602 		mov	r2, #22
 285 0052 C0F20162 		movt	r2, 1537
 286 0056 9A62     		str	r2, [r3, #40]
 287              		.loc 1 162 0
 288 0058 40F20003 		movw	r3, #:lower16:SPID1
 289 005c C0F20003 		movt	r3, #:upper16:SPID1
 290 0060 4FF04602 		mov	r2, #70
 291 0064 C0F20162 		movt	r2, 1537
 292 0068 DA62     		str	r2, [r3, #44]
 293              		.loc 1 170 0
 294 006a 40F20000 		movw	r0, #:lower16:SPID2
 295 006e C0F20000 		movt	r0, #:upper16:SPID2
 296 0072 FFF7FEFF 		bl	spiObjectInit
 297              		.loc 1 171 0
 298 0076 40F20003 		movw	r3, #:lower16:SPID2
 299 007a C0F20003 		movt	r3, #:upper16:SPID2
 300 007e 4FF46052 		mov	r2, #14336
 301 0082 C4F20002 		movt	r2, 16384
 302 0086 DA61     		str	r2, [r3, #28]
 303              		.loc 1 172 0
 304 0088 40F20003 		movw	r3, #:lower16:SPID2
 305 008c C0F20003 		movt	r3, #:upper16:SPID2
 306 0090 0F4A     		ldr	r2, .L11+8
 307 0092 1A62     		str	r2, [r3, #32]
 308              		.loc 1 173 0
 309 0094 40F20003 		movw	r3, #:lower16:SPID2
 310 0098 C0F20003 		movt	r3, #:upper16:SPID2
 311 009c 0D4A     		ldr	r2, .L11+12
 312 009e 5A62     		str	r2, [r3, #36]
 313              		.loc 1 174 0
 314 00a0 40F20003 		movw	r3, #:lower16:SPID2
 315 00a4 C0F20003 		movt	r3, #:upper16:SPID2
 316 00a8 4FF01602 		mov	r2, #22
 317 00ac C0F20102 		movt	r2, 1
 318 00b0 9A62     		str	r2, [r3, #40]
 319              		.loc 1 180 0
 320 00b2 40F20003 		movw	r3, #:lower16:SPID2
 321 00b6 C0F20003 		movt	r3, #:upper16:SPID2
 322 00ba 4FF04602 		mov	r2, #70
 323 00be C0F20102 		movt	r2, 1
 324 00c2 DA62     		str	r2, [r3, #44]
 325              		.loc 1 204 0
 326 00c4 08BD     		pop	{r3, pc}
 327              	.L12:
 328 00c6 00BF     		.align	2
 329              	.L11:
 330 00c8 60000000 		.word	_stm32_dma_streams+96
 331 00cc 84000000 		.word	_stm32_dma_streams+132
 332 00d0 24000000 		.word	_stm32_dma_streams+36
ARM GAS  /tmp/cc0CY7eb.s 			page 7


 333 00d4 30000000 		.word	_stm32_dma_streams+48
 334              		.cfi_endproc
 335              	.LFE120:
 336              		.size	spi_lld_init, .-spi_lld_init
 337 00d8 AFF30080 		.section	.text.spi_lld_start,"ax",%progbits
 337      AFF30080 
 338              		.align	2
 339              		.p2align 4,,15
 340              		.global	spi_lld_start
 341              		.thumb
 342              		.thumb_func
 343              		.type	spi_lld_start, %function
 344              	spi_lld_start:
 345              	.LFB121:
 346              		.loc 1 213 0
 347              		.cfi_startproc
 348              		@ args = 0, pretend = 0, frame = 16
 349              		@ frame_needed = 0, uses_anonymous_args = 0
 350 0000 00B5     		push	{lr}
 351              	.LCFI5:
 352              		.cfi_def_cfa_offset 4
 353              		.cfi_offset 14, -4
 354 0002 85B0     		sub	sp, sp, #20
 355              	.LCFI6:
 356              		.cfi_def_cfa_offset 24
 357 0004 0190     		str	r0, [sp, #4]
 358              		.loc 1 216 0
 359 0006 019B     		ldr	r3, [sp, #4]
 360 0008 1B78     		ldrb	r3, [r3, #0]	@ zero_extendqisi2
 361 000a 012B     		cmp	r3, #1
 362 000c 71D1     		bne	.L14
 363              		.loc 1 218 0
 364 000e 019A     		ldr	r2, [sp, #4]
 365 0010 40F20003 		movw	r3, #:lower16:SPID1
 366 0014 C0F20003 		movt	r3, #:upper16:SPID1
 367 0018 9A42     		cmp	r2, r3
 368 001a 29D1     		bne	.L15
 369              	.LBB5:
 370              		.loc 1 220 0
 371 001c 019B     		ldr	r3, [sp, #4]
 372 001e 1B6A     		ldr	r3, [r3, #32]
 373 0020 1846     		mov	r0, r3
 374 0022 4FF00A01 		mov	r1, #10
 375 0026 40F20002 		movw	r2, #:lower16:spi_lld_serve_rx_interrupt
 376 002a C0F20002 		movt	r2, #:upper16:spi_lld_serve_rx_interrupt
 377 002e 019B     		ldr	r3, [sp, #4]
 378 0030 FFF7FEFF 		bl	dmaStreamAllocate
 379 0034 0346     		mov	r3, r0
 380 0036 8DF80F30 		strb	r3, [sp, #15]
 381              		.loc 1 225 0
 382 003a 019B     		ldr	r3, [sp, #4]
 383 003c 5B6A     		ldr	r3, [r3, #36]
 384 003e 1846     		mov	r0, r3
 385 0040 4FF00A01 		mov	r1, #10
 386 0044 40F20002 		movw	r2, #:lower16:spi_lld_serve_tx_interrupt
 387 0048 C0F20002 		movt	r2, #:upper16:spi_lld_serve_tx_interrupt
 388 004c 019B     		ldr	r3, [sp, #4]
ARM GAS  /tmp/cc0CY7eb.s 			page 8


 389 004e FFF7FEFF 		bl	dmaStreamAllocate
 390 0052 0346     		mov	r3, r0
 391 0054 8DF80F30 		strb	r3, [sp, #15]
 392              		.loc 1 230 0
 393 0058 4FF46053 		mov	r3, #14336
 394 005c C4F20203 		movt	r3, 16386
 395 0060 4FF46052 		mov	r2, #14336
 396 0064 C4F20202 		movt	r2, 16386
 397 0068 526C     		ldr	r2, [r2, #68]
 398 006a 42F48052 		orr	r2, r2, #4096
 399 006e 5A64     		str	r2, [r3, #68]
 400              	.L15:
 401              	.LBE5:
 402              		.loc 1 234 0
 403 0070 019A     		ldr	r2, [sp, #4]
 404 0072 40F20003 		movw	r3, #:lower16:SPID2
 405 0076 C0F20003 		movt	r3, #:upper16:SPID2
 406 007a 9A42     		cmp	r2, r3
 407 007c 29D1     		bne	.L16
 408              	.LBB6:
 409              		.loc 1 236 0
 410 007e 019B     		ldr	r3, [sp, #4]
 411 0080 1B6A     		ldr	r3, [r3, #32]
 412 0082 1846     		mov	r0, r3
 413 0084 4FF00A01 		mov	r1, #10
 414 0088 40F20002 		movw	r2, #:lower16:spi_lld_serve_rx_interrupt
 415 008c C0F20002 		movt	r2, #:upper16:spi_lld_serve_rx_interrupt
 416 0090 019B     		ldr	r3, [sp, #4]
 417 0092 FFF7FEFF 		bl	dmaStreamAllocate
 418 0096 0346     		mov	r3, r0
 419 0098 8DF80E30 		strb	r3, [sp, #14]
 420              		.loc 1 241 0
 421 009c 019B     		ldr	r3, [sp, #4]
 422 009e 5B6A     		ldr	r3, [r3, #36]
 423 00a0 1846     		mov	r0, r3
 424 00a2 4FF00A01 		mov	r1, #10
 425 00a6 40F20002 		movw	r2, #:lower16:spi_lld_serve_tx_interrupt
 426 00aa C0F20002 		movt	r2, #:upper16:spi_lld_serve_tx_interrupt
 427 00ae 019B     		ldr	r3, [sp, #4]
 428 00b0 FFF7FEFF 		bl	dmaStreamAllocate
 429 00b4 0346     		mov	r3, r0
 430 00b6 8DF80E30 		strb	r3, [sp, #14]
 431              		.loc 1 246 0
 432 00ba 4FF46053 		mov	r3, #14336
 433 00be C4F20203 		movt	r3, 16386
 434 00c2 4FF46052 		mov	r2, #14336
 435 00c6 C4F20202 		movt	r2, 16386
 436 00ca 126C     		ldr	r2, [r2, #64]
 437 00cc 42F48042 		orr	r2, r2, #16384
 438 00d0 1A64     		str	r2, [r3, #64]
 439              	.L16:
 440              	.LBE6:
 441              		.loc 1 267 0
 442 00d2 019B     		ldr	r3, [sp, #4]
 443 00d4 1B6A     		ldr	r3, [r3, #32]
 444 00d6 1B68     		ldr	r3, [r3, #0]
 445 00d8 019A     		ldr	r2, [sp, #4]
ARM GAS  /tmp/cc0CY7eb.s 			page 9


 446 00da D269     		ldr	r2, [r2, #28]
 447 00dc 02F10C02 		add	r2, r2, #12
 448 00e0 9A60     		str	r2, [r3, #8]
 449              		.loc 1 268 0
 450 00e2 019B     		ldr	r3, [sp, #4]
 451 00e4 5B6A     		ldr	r3, [r3, #36]
 452 00e6 1B68     		ldr	r3, [r3, #0]
 453 00e8 019A     		ldr	r2, [sp, #4]
 454 00ea D269     		ldr	r2, [r2, #28]
 455 00ec 02F10C02 		add	r2, r2, #12
 456 00f0 9A60     		str	r2, [r3, #8]
 457              	.L14:
 458              		.loc 1 272 0
 459 00f2 019B     		ldr	r3, [sp, #4]
 460 00f4 5B68     		ldr	r3, [r3, #4]
 461 00f6 5B89     		ldrh	r3, [r3, #10]
 462 00f8 03F40063 		and	r3, r3, #2048
 463 00fc 002B     		cmp	r3, #0
 464 00fe 0CD1     		bne	.L17
 465              		.loc 1 274 0
 466 0100 019B     		ldr	r3, [sp, #4]
 467 0102 9B6A     		ldr	r3, [r3, #40]
 468              		.loc 1 275 0
 469 0104 23F4F042 		bic	r2, r3, #30720
 470              		.loc 1 274 0
 471 0108 019B     		ldr	r3, [sp, #4]
 472 010a 9A62     		str	r2, [r3, #40]
 473              		.loc 1 276 0
 474 010c 019B     		ldr	r3, [sp, #4]
 475 010e DB6A     		ldr	r3, [r3, #44]
 476              		.loc 1 277 0
 477 0110 23F4F042 		bic	r2, r3, #30720
 478              		.loc 1 276 0
 479 0114 019B     		ldr	r3, [sp, #4]
 480 0116 DA62     		str	r2, [r3, #44]
 481 0118 0FE0     		b	.L18
 482              	.L17:
 483              		.loc 1 281 0
 484 011a 019B     		ldr	r3, [sp, #4]
 485 011c 9B6A     		ldr	r3, [r3, #40]
 486 011e 23F4F043 		bic	r3, r3, #30720
 487              		.loc 1 282 0
 488 0122 43F42052 		orr	r2, r3, #10240
 489              		.loc 1 281 0
 490 0126 019B     		ldr	r3, [sp, #4]
 491 0128 9A62     		str	r2, [r3, #40]
 492              		.loc 1 283 0
 493 012a 019B     		ldr	r3, [sp, #4]
 494 012c DB6A     		ldr	r3, [r3, #44]
 495 012e 23F4F043 		bic	r3, r3, #30720
 496              		.loc 1 284 0
 497 0132 43F42052 		orr	r2, r3, #10240
 498              		.loc 1 283 0
 499 0136 019B     		ldr	r3, [sp, #4]
 500 0138 DA62     		str	r2, [r3, #44]
 501              	.L18:
 502              		.loc 1 287 0
ARM GAS  /tmp/cc0CY7eb.s 			page 10


 503 013a 019B     		ldr	r3, [sp, #4]
 504 013c DB69     		ldr	r3, [r3, #28]
 505 013e 4FF00002 		mov	r2, #0
 506 0142 1A80     		strh	r2, [r3, #0]	@ movhi
 507              		.loc 1 288 0
 508 0144 019B     		ldr	r3, [sp, #4]
 509 0146 DB69     		ldr	r3, [r3, #28]
 510 0148 019A     		ldr	r2, [sp, #4]
 511 014a 5268     		ldr	r2, [r2, #4]
 512 014c 5289     		ldrh	r2, [r2, #10]
 513 014e 42F44172 		orr	r2, r2, #772
 514 0152 92B2     		uxth	r2, r2
 515 0154 1A80     		strh	r2, [r3, #0]	@ movhi
 516              		.loc 1 290 0
 517 0156 019B     		ldr	r3, [sp, #4]
 518 0158 DB69     		ldr	r3, [r3, #28]
 519 015a 4FF00702 		mov	r2, #7
 520 015e 9A80     		strh	r2, [r3, #4]	@ movhi
 521              		.loc 1 291 0
 522 0160 019B     		ldr	r3, [sp, #4]
 523 0162 DB69     		ldr	r3, [r3, #28]
 524 0164 019A     		ldr	r2, [sp, #4]
 525 0166 D269     		ldr	r2, [r2, #28]
 526 0168 1288     		ldrh	r2, [r2, #0]	@ movhi
 527 016a 92B2     		uxth	r2, r2
 528 016c 42F04002 		orr	r2, r2, #64
 529 0170 92B2     		uxth	r2, r2
 530 0172 1A80     		strh	r2, [r3, #0]	@ movhi
 531              		.loc 1 292 0
 532 0174 05B0     		add	sp, sp, #20
 533 0176 00BD     		pop	{pc}
 534              		.cfi_endproc
 535              	.LFE121:
 536              		.size	spi_lld_start, .-spi_lld_start
 537 0178 AFF30080 		.section	.text.spi_lld_stop,"ax",%progbits
 537      AFF30080 
 538              		.align	2
 539              		.p2align 4,,15
 540              		.global	spi_lld_stop
 541              		.thumb
 542              		.thumb_func
 543              		.type	spi_lld_stop, %function
 544              	spi_lld_stop:
 545              	.LFB122:
 546              		.loc 1 301 0
 547              		.cfi_startproc
 548              		@ args = 0, pretend = 0, frame = 8
 549              		@ frame_needed = 0, uses_anonymous_args = 0
 550 0000 00B5     		push	{lr}
 551              	.LCFI7:
 552              		.cfi_def_cfa_offset 4
 553              		.cfi_offset 14, -4
 554 0002 83B0     		sub	sp, sp, #12
 555              	.LCFI8:
 556              		.cfi_def_cfa_offset 16
 557 0004 0190     		str	r0, [sp, #4]
 558              		.loc 1 304 0
ARM GAS  /tmp/cc0CY7eb.s 			page 11


 559 0006 019B     		ldr	r3, [sp, #4]
 560 0008 1B78     		ldrb	r3, [r3, #0]	@ zero_extendqisi2
 561 000a 022B     		cmp	r3, #2
 562 000c 39D1     		bne	.L19
 563              		.loc 1 307 0
 564 000e 019B     		ldr	r3, [sp, #4]
 565 0010 DB69     		ldr	r3, [r3, #28]
 566 0012 4FF00002 		mov	r2, #0
 567 0016 1A80     		strh	r2, [r3, #0]	@ movhi
 568              		.loc 1 308 0
 569 0018 019B     		ldr	r3, [sp, #4]
 570 001a DB69     		ldr	r3, [r3, #28]
 571 001c 4FF00002 		mov	r2, #0
 572 0020 9A80     		strh	r2, [r3, #4]	@ movhi
 573              		.loc 1 309 0
 574 0022 019B     		ldr	r3, [sp, #4]
 575 0024 1B6A     		ldr	r3, [r3, #32]
 576 0026 1846     		mov	r0, r3
 577 0028 FFF7FEFF 		bl	dmaStreamRelease
 578              		.loc 1 310 0
 579 002c 019B     		ldr	r3, [sp, #4]
 580 002e 5B6A     		ldr	r3, [r3, #36]
 581 0030 1846     		mov	r0, r3
 582 0032 FFF7FEFF 		bl	dmaStreamRelease
 583              		.loc 1 313 0
 584 0036 019A     		ldr	r2, [sp, #4]
 585 0038 40F20003 		movw	r3, #:lower16:SPID1
 586 003c C0F20003 		movt	r3, #:upper16:SPID1
 587 0040 9A42     		cmp	r2, r3
 588 0042 0BD1     		bne	.L21
 589              		.loc 1 314 0
 590 0044 4FF46053 		mov	r3, #14336
 591 0048 C4F20203 		movt	r3, 16386
 592 004c 4FF46052 		mov	r2, #14336
 593 0050 C4F20202 		movt	r2, 16386
 594 0054 526C     		ldr	r2, [r2, #68]
 595 0056 22F48052 		bic	r2, r2, #4096
 596 005a 5A64     		str	r2, [r3, #68]
 597              	.L21:
 598              		.loc 1 317 0
 599 005c 019A     		ldr	r2, [sp, #4]
 600 005e 40F20003 		movw	r3, #:lower16:SPID2
 601 0062 C0F20003 		movt	r3, #:upper16:SPID2
 602 0066 9A42     		cmp	r2, r3
 603 0068 0BD1     		bne	.L19
 604              		.loc 1 318 0
 605 006a 4FF46053 		mov	r3, #14336
 606 006e C4F20203 		movt	r3, 16386
 607 0072 4FF46052 		mov	r2, #14336
 608 0076 C4F20202 		movt	r2, 16386
 609 007a 126C     		ldr	r2, [r2, #64]
 610 007c 22F48042 		bic	r2, r2, #16384
 611 0080 1A64     		str	r2, [r3, #64]
 612              	.L19:
 613              		.loc 1 325 0
 614 0082 03B0     		add	sp, sp, #12
 615 0084 00BD     		pop	{pc}
ARM GAS  /tmp/cc0CY7eb.s 			page 12


 616              		.cfi_endproc
 617              	.LFE122:
 618              		.size	spi_lld_stop, .-spi_lld_stop
 619 0086 00BFAFF3 		.section	.text.spi_lld_select,"ax",%progbits
 619      0080AFF3 
 619      0080
 620              		.align	2
 621              		.p2align 4,,15
 622              		.global	spi_lld_select
 623              		.thumb
 624              		.thumb_func
 625              		.type	spi_lld_select, %function
 626              	spi_lld_select:
 627              	.LFB123:
 628              		.loc 1 334 0
 629              		.cfi_startproc
 630              		@ args = 0, pretend = 0, frame = 8
 631              		@ frame_needed = 0, uses_anonymous_args = 0
 632              		@ link register save eliminated.
 633 0000 82B0     		sub	sp, sp, #8
 634              	.LCFI9:
 635              		.cfi_def_cfa_offset 8
 636 0002 0190     		str	r0, [sp, #4]
 637              		.loc 1 336 0
 638 0004 019B     		ldr	r3, [sp, #4]
 639 0006 5B68     		ldr	r3, [r3, #4]
 640 0008 5B68     		ldr	r3, [r3, #4]
 641 000a 019A     		ldr	r2, [sp, #4]
 642 000c 5268     		ldr	r2, [r2, #4]
 643 000e 1289     		ldrh	r2, [r2, #8]
 644 0010 4FF00101 		mov	r1, #1
 645 0014 01FA02F2 		lsl	r2, r1, r2
 646 0018 92B2     		uxth	r2, r2
 647 001a 5A83     		strh	r2, [r3, #26]	@ movhi
 648              		.loc 1 337 0
 649 001c 02B0     		add	sp, sp, #8
 650 001e 7047     		bx	lr
 651              		.cfi_endproc
 652              	.LFE123:
 653              		.size	spi_lld_select, .-spi_lld_select
 654              		.section	.text.spi_lld_unselect,"ax",%progbits
 655              		.align	2
 656              		.p2align 4,,15
 657              		.global	spi_lld_unselect
 658              		.thumb
 659              		.thumb_func
 660              		.type	spi_lld_unselect, %function
 661              	spi_lld_unselect:
 662              	.LFB124:
 663              		.loc 1 347 0
 664              		.cfi_startproc
 665              		@ args = 0, pretend = 0, frame = 8
 666              		@ frame_needed = 0, uses_anonymous_args = 0
 667              		@ link register save eliminated.
 668 0000 82B0     		sub	sp, sp, #8
 669              	.LCFI10:
 670              		.cfi_def_cfa_offset 8
ARM GAS  /tmp/cc0CY7eb.s 			page 13


 671 0002 0190     		str	r0, [sp, #4]
 672              		.loc 1 349 0
 673 0004 019B     		ldr	r3, [sp, #4]
 674 0006 5B68     		ldr	r3, [r3, #4]
 675 0008 5B68     		ldr	r3, [r3, #4]
 676 000a 019A     		ldr	r2, [sp, #4]
 677 000c 5268     		ldr	r2, [r2, #4]
 678 000e 1289     		ldrh	r2, [r2, #8]
 679 0010 4FF00101 		mov	r1, #1
 680 0014 01FA02F2 		lsl	r2, r1, r2
 681 0018 92B2     		uxth	r2, r2
 682 001a 1A83     		strh	r2, [r3, #24]	@ movhi
 683              		.loc 1 350 0
 684 001c 02B0     		add	sp, sp, #8
 685 001e 7047     		bx	lr
 686              		.cfi_endproc
 687              	.LFE124:
 688              		.size	spi_lld_unselect, .-spi_lld_unselect
 689              		.section	.text.spi_lld_ignore,"ax",%progbits
 690              		.align	2
 691              		.p2align 4,,15
 692              		.global	spi_lld_ignore
 693              		.thumb
 694              		.thumb_func
 695              		.type	spi_lld_ignore, %function
 696              	spi_lld_ignore:
 697              	.LFB125:
 698              		.loc 1 363 0
 699              		.cfi_startproc
 700              		@ args = 0, pretend = 0, frame = 8
 701              		@ frame_needed = 0, uses_anonymous_args = 0
 702              		@ link register save eliminated.
 703 0000 82B0     		sub	sp, sp, #8
 704              	.LCFI11:
 705              		.cfi_def_cfa_offset 8
 706 0002 0190     		str	r0, [sp, #4]
 707 0004 0091     		str	r1, [sp, #0]
 708              		.loc 1 365 0
 709 0006 019B     		ldr	r3, [sp, #4]
 710 0008 1B6A     		ldr	r3, [r3, #32]
 711 000a 1A68     		ldr	r2, [r3, #0]
 712 000c 40F20003 		movw	r3, #:lower16:dummyrx
 713 0010 C0F20003 		movt	r3, #:upper16:dummyrx
 714 0014 D360     		str	r3, [r2, #12]
 715              		.loc 1 366 0
 716 0016 019B     		ldr	r3, [sp, #4]
 717 0018 1B6A     		ldr	r3, [r3, #32]
 718 001a 1B68     		ldr	r3, [r3, #0]
 719 001c 009A     		ldr	r2, [sp, #0]
 720 001e 5A60     		str	r2, [r3, #4]
 721              		.loc 1 367 0
 722 0020 019B     		ldr	r3, [sp, #4]
 723 0022 1B6A     		ldr	r3, [r3, #32]
 724 0024 1B68     		ldr	r3, [r3, #0]
 725 0026 019A     		ldr	r2, [sp, #4]
 726 0028 926A     		ldr	r2, [r2, #40]
 727 002a 1A60     		str	r2, [r3, #0]
ARM GAS  /tmp/cc0CY7eb.s 			page 14


 728              		.loc 1 369 0
 729 002c 019B     		ldr	r3, [sp, #4]
 730 002e 5B6A     		ldr	r3, [r3, #36]
 731 0030 1A68     		ldr	r2, [r3, #0]
 732 0032 40F20003 		movw	r3, #:lower16:dummytx
 733 0036 C0F20003 		movt	r3, #:upper16:dummytx
 734 003a D360     		str	r3, [r2, #12]
 735              		.loc 1 370 0
 736 003c 019B     		ldr	r3, [sp, #4]
 737 003e 5B6A     		ldr	r3, [r3, #36]
 738 0040 1B68     		ldr	r3, [r3, #0]
 739 0042 009A     		ldr	r2, [sp, #0]
 740 0044 5A60     		str	r2, [r3, #4]
 741              		.loc 1 371 0
 742 0046 019B     		ldr	r3, [sp, #4]
 743 0048 5B6A     		ldr	r3, [r3, #36]
 744 004a 1B68     		ldr	r3, [r3, #0]
 745 004c 019A     		ldr	r2, [sp, #4]
 746 004e D26A     		ldr	r2, [r2, #44]
 747 0050 1A60     		str	r2, [r3, #0]
 748              		.loc 1 373 0
 749 0052 019B     		ldr	r3, [sp, #4]
 750 0054 1B6A     		ldr	r3, [r3, #32]
 751 0056 1B68     		ldr	r3, [r3, #0]
 752 0058 019A     		ldr	r2, [sp, #4]
 753 005a 126A     		ldr	r2, [r2, #32]
 754 005c 1268     		ldr	r2, [r2, #0]
 755 005e 1268     		ldr	r2, [r2, #0]
 756 0060 42F00102 		orr	r2, r2, #1
 757 0064 1A60     		str	r2, [r3, #0]
 758              		.loc 1 374 0
 759 0066 019B     		ldr	r3, [sp, #4]
 760 0068 5B6A     		ldr	r3, [r3, #36]
 761 006a 1B68     		ldr	r3, [r3, #0]
 762 006c 019A     		ldr	r2, [sp, #4]
 763 006e 526A     		ldr	r2, [r2, #36]
 764 0070 1268     		ldr	r2, [r2, #0]
 765 0072 1268     		ldr	r2, [r2, #0]
 766 0074 42F00102 		orr	r2, r2, #1
 767 0078 1A60     		str	r2, [r3, #0]
 768              		.loc 1 375 0
 769 007a 02B0     		add	sp, sp, #8
 770 007c 7047     		bx	lr
 771              		.cfi_endproc
 772              	.LFE125:
 773              		.size	spi_lld_ignore, .-spi_lld_ignore
 774 007e 00BF     		.section	.text.spi_lld_exchange,"ax",%progbits
 775              		.align	2
 776              		.p2align 4,,15
 777              		.global	spi_lld_exchange
 778              		.thumb
 779              		.thumb_func
 780              		.type	spi_lld_exchange, %function
 781              	spi_lld_exchange:
 782              	.LFB126:
 783              		.loc 1 393 0
 784              		.cfi_startproc
ARM GAS  /tmp/cc0CY7eb.s 			page 15


 785              		@ args = 0, pretend = 0, frame = 16
 786              		@ frame_needed = 0, uses_anonymous_args = 0
 787              		@ link register save eliminated.
 788 0000 84B0     		sub	sp, sp, #16
 789              	.LCFI12:
 790              		.cfi_def_cfa_offset 16
 791 0002 0390     		str	r0, [sp, #12]
 792 0004 0291     		str	r1, [sp, #8]
 793 0006 0192     		str	r2, [sp, #4]
 794 0008 0093     		str	r3, [sp, #0]
 795              		.loc 1 395 0
 796 000a 039B     		ldr	r3, [sp, #12]
 797 000c 1B6A     		ldr	r3, [r3, #32]
 798 000e 1B68     		ldr	r3, [r3, #0]
 799 0010 009A     		ldr	r2, [sp, #0]
 800 0012 DA60     		str	r2, [r3, #12]
 801              		.loc 1 396 0
 802 0014 039B     		ldr	r3, [sp, #12]
 803 0016 1B6A     		ldr	r3, [r3, #32]
 804 0018 1B68     		ldr	r3, [r3, #0]
 805 001a 029A     		ldr	r2, [sp, #8]
 806 001c 5A60     		str	r2, [r3, #4]
 807              		.loc 1 397 0
 808 001e 039B     		ldr	r3, [sp, #12]
 809 0020 1B6A     		ldr	r3, [r3, #32]
 810 0022 1B68     		ldr	r3, [r3, #0]
 811 0024 039A     		ldr	r2, [sp, #12]
 812 0026 926A     		ldr	r2, [r2, #40]
 813 0028 42F48062 		orr	r2, r2, #1024
 814 002c 1A60     		str	r2, [r3, #0]
 815              		.loc 1 399 0
 816 002e 039B     		ldr	r3, [sp, #12]
 817 0030 5B6A     		ldr	r3, [r3, #36]
 818 0032 1B68     		ldr	r3, [r3, #0]
 819 0034 019A     		ldr	r2, [sp, #4]
 820 0036 DA60     		str	r2, [r3, #12]
 821              		.loc 1 400 0
 822 0038 039B     		ldr	r3, [sp, #12]
 823 003a 5B6A     		ldr	r3, [r3, #36]
 824 003c 1B68     		ldr	r3, [r3, #0]
 825 003e 029A     		ldr	r2, [sp, #8]
 826 0040 5A60     		str	r2, [r3, #4]
 827              		.loc 1 401 0
 828 0042 039B     		ldr	r3, [sp, #12]
 829 0044 5B6A     		ldr	r3, [r3, #36]
 830 0046 1B68     		ldr	r3, [r3, #0]
 831 0048 039A     		ldr	r2, [sp, #12]
 832 004a D26A     		ldr	r2, [r2, #44]
 833 004c 42F48062 		orr	r2, r2, #1024
 834 0050 1A60     		str	r2, [r3, #0]
 835              		.loc 1 403 0
 836 0052 039B     		ldr	r3, [sp, #12]
 837 0054 1B6A     		ldr	r3, [r3, #32]
 838 0056 1B68     		ldr	r3, [r3, #0]
 839 0058 039A     		ldr	r2, [sp, #12]
 840 005a 126A     		ldr	r2, [r2, #32]
 841 005c 1268     		ldr	r2, [r2, #0]
ARM GAS  /tmp/cc0CY7eb.s 			page 16


 842 005e 1268     		ldr	r2, [r2, #0]
 843 0060 42F00102 		orr	r2, r2, #1
 844 0064 1A60     		str	r2, [r3, #0]
 845              		.loc 1 404 0
 846 0066 039B     		ldr	r3, [sp, #12]
 847 0068 5B6A     		ldr	r3, [r3, #36]
 848 006a 1B68     		ldr	r3, [r3, #0]
 849 006c 039A     		ldr	r2, [sp, #12]
 850 006e 526A     		ldr	r2, [r2, #36]
 851 0070 1268     		ldr	r2, [r2, #0]
 852 0072 1268     		ldr	r2, [r2, #0]
 853 0074 42F00102 		orr	r2, r2, #1
 854 0078 1A60     		str	r2, [r3, #0]
 855              		.loc 1 405 0
 856 007a 04B0     		add	sp, sp, #16
 857 007c 7047     		bx	lr
 858              		.cfi_endproc
 859              	.LFE126:
 860              		.size	spi_lld_exchange, .-spi_lld_exchange
 861 007e 00BF     		.section	.text.spi_lld_send,"ax",%progbits
 862              		.align	2
 863              		.p2align 4,,15
 864              		.global	spi_lld_send
 865              		.thumb
 866              		.thumb_func
 867              		.type	spi_lld_send, %function
 868              	spi_lld_send:
 869              	.LFB127:
 870              		.loc 1 420 0
 871              		.cfi_startproc
 872              		@ args = 0, pretend = 0, frame = 16
 873              		@ frame_needed = 0, uses_anonymous_args = 0
 874              		@ link register save eliminated.
 875 0000 84B0     		sub	sp, sp, #16
 876              	.LCFI13:
 877              		.cfi_def_cfa_offset 16
 878 0002 0390     		str	r0, [sp, #12]
 879 0004 0291     		str	r1, [sp, #8]
 880 0006 0192     		str	r2, [sp, #4]
 881              		.loc 1 422 0
 882 0008 039B     		ldr	r3, [sp, #12]
 883 000a 1B6A     		ldr	r3, [r3, #32]
 884 000c 1A68     		ldr	r2, [r3, #0]
 885 000e 40F20003 		movw	r3, #:lower16:dummyrx
 886 0012 C0F20003 		movt	r3, #:upper16:dummyrx
 887 0016 D360     		str	r3, [r2, #12]
 888              		.loc 1 423 0
 889 0018 039B     		ldr	r3, [sp, #12]
 890 001a 1B6A     		ldr	r3, [r3, #32]
 891 001c 1B68     		ldr	r3, [r3, #0]
 892 001e 029A     		ldr	r2, [sp, #8]
 893 0020 5A60     		str	r2, [r3, #4]
 894              		.loc 1 424 0
 895 0022 039B     		ldr	r3, [sp, #12]
 896 0024 1B6A     		ldr	r3, [r3, #32]
 897 0026 1B68     		ldr	r3, [r3, #0]
 898 0028 039A     		ldr	r2, [sp, #12]
ARM GAS  /tmp/cc0CY7eb.s 			page 17


 899 002a 926A     		ldr	r2, [r2, #40]
 900 002c 1A60     		str	r2, [r3, #0]
 901              		.loc 1 426 0
 902 002e 039B     		ldr	r3, [sp, #12]
 903 0030 5B6A     		ldr	r3, [r3, #36]
 904 0032 1B68     		ldr	r3, [r3, #0]
 905 0034 019A     		ldr	r2, [sp, #4]
 906 0036 DA60     		str	r2, [r3, #12]
 907              		.loc 1 427 0
 908 0038 039B     		ldr	r3, [sp, #12]
 909 003a 5B6A     		ldr	r3, [r3, #36]
 910 003c 1B68     		ldr	r3, [r3, #0]
 911 003e 029A     		ldr	r2, [sp, #8]
 912 0040 5A60     		str	r2, [r3, #4]
 913              		.loc 1 428 0
 914 0042 039B     		ldr	r3, [sp, #12]
 915 0044 5B6A     		ldr	r3, [r3, #36]
 916 0046 1B68     		ldr	r3, [r3, #0]
 917 0048 039A     		ldr	r2, [sp, #12]
 918 004a D26A     		ldr	r2, [r2, #44]
 919 004c 42F48062 		orr	r2, r2, #1024
 920 0050 1A60     		str	r2, [r3, #0]
 921              		.loc 1 430 0
 922 0052 039B     		ldr	r3, [sp, #12]
 923 0054 1B6A     		ldr	r3, [r3, #32]
 924 0056 1B68     		ldr	r3, [r3, #0]
 925 0058 039A     		ldr	r2, [sp, #12]
 926 005a 126A     		ldr	r2, [r2, #32]
 927 005c 1268     		ldr	r2, [r2, #0]
 928 005e 1268     		ldr	r2, [r2, #0]
 929 0060 42F00102 		orr	r2, r2, #1
 930 0064 1A60     		str	r2, [r3, #0]
 931              		.loc 1 431 0
 932 0066 039B     		ldr	r3, [sp, #12]
 933 0068 5B6A     		ldr	r3, [r3, #36]
 934 006a 1B68     		ldr	r3, [r3, #0]
 935 006c 039A     		ldr	r2, [sp, #12]
 936 006e 526A     		ldr	r2, [r2, #36]
 937 0070 1268     		ldr	r2, [r2, #0]
 938 0072 1268     		ldr	r2, [r2, #0]
 939 0074 42F00102 		orr	r2, r2, #1
 940 0078 1A60     		str	r2, [r3, #0]
 941              		.loc 1 432 0
 942 007a 04B0     		add	sp, sp, #16
 943 007c 7047     		bx	lr
 944              		.cfi_endproc
 945              	.LFE127:
 946              		.size	spi_lld_send, .-spi_lld_send
 947 007e 00BF     		.section	.text.spi_lld_receive,"ax",%progbits
 948              		.align	2
 949              		.p2align 4,,15
 950              		.global	spi_lld_receive
 951              		.thumb
 952              		.thumb_func
 953              		.type	spi_lld_receive, %function
 954              	spi_lld_receive:
 955              	.LFB128:
ARM GAS  /tmp/cc0CY7eb.s 			page 18


 956              		.loc 1 447 0
 957              		.cfi_startproc
 958              		@ args = 0, pretend = 0, frame = 16
 959              		@ frame_needed = 0, uses_anonymous_args = 0
 960              		@ link register save eliminated.
 961 0000 84B0     		sub	sp, sp, #16
 962              	.LCFI14:
 963              		.cfi_def_cfa_offset 16
 964 0002 0390     		str	r0, [sp, #12]
 965 0004 0291     		str	r1, [sp, #8]
 966 0006 0192     		str	r2, [sp, #4]
 967              		.loc 1 449 0
 968 0008 039B     		ldr	r3, [sp, #12]
 969 000a 1B6A     		ldr	r3, [r3, #32]
 970 000c 1B68     		ldr	r3, [r3, #0]
 971 000e 019A     		ldr	r2, [sp, #4]
 972 0010 DA60     		str	r2, [r3, #12]
 973              		.loc 1 450 0
 974 0012 039B     		ldr	r3, [sp, #12]
 975 0014 1B6A     		ldr	r3, [r3, #32]
 976 0016 1B68     		ldr	r3, [r3, #0]
 977 0018 029A     		ldr	r2, [sp, #8]
 978 001a 5A60     		str	r2, [r3, #4]
 979              		.loc 1 451 0
 980 001c 039B     		ldr	r3, [sp, #12]
 981 001e 1B6A     		ldr	r3, [r3, #32]
 982 0020 1B68     		ldr	r3, [r3, #0]
 983 0022 039A     		ldr	r2, [sp, #12]
 984 0024 926A     		ldr	r2, [r2, #40]
 985 0026 42F48062 		orr	r2, r2, #1024
 986 002a 1A60     		str	r2, [r3, #0]
 987              		.loc 1 453 0
 988 002c 039B     		ldr	r3, [sp, #12]
 989 002e 5B6A     		ldr	r3, [r3, #36]
 990 0030 1A68     		ldr	r2, [r3, #0]
 991 0032 40F20003 		movw	r3, #:lower16:dummytx
 992 0036 C0F20003 		movt	r3, #:upper16:dummytx
 993 003a D360     		str	r3, [r2, #12]
 994              		.loc 1 454 0
 995 003c 039B     		ldr	r3, [sp, #12]
 996 003e 5B6A     		ldr	r3, [r3, #36]
 997 0040 1B68     		ldr	r3, [r3, #0]
 998 0042 029A     		ldr	r2, [sp, #8]
 999 0044 5A60     		str	r2, [r3, #4]
 1000              		.loc 1 455 0
 1001 0046 039B     		ldr	r3, [sp, #12]
 1002 0048 5B6A     		ldr	r3, [r3, #36]
 1003 004a 1B68     		ldr	r3, [r3, #0]
 1004 004c 039A     		ldr	r2, [sp, #12]
 1005 004e D26A     		ldr	r2, [r2, #44]
 1006 0050 1A60     		str	r2, [r3, #0]
 1007              		.loc 1 457 0
 1008 0052 039B     		ldr	r3, [sp, #12]
 1009 0054 1B6A     		ldr	r3, [r3, #32]
 1010 0056 1B68     		ldr	r3, [r3, #0]
 1011 0058 039A     		ldr	r2, [sp, #12]
 1012 005a 126A     		ldr	r2, [r2, #32]
ARM GAS  /tmp/cc0CY7eb.s 			page 19


 1013 005c 1268     		ldr	r2, [r2, #0]
 1014 005e 1268     		ldr	r2, [r2, #0]
 1015 0060 42F00102 		orr	r2, r2, #1
 1016 0064 1A60     		str	r2, [r3, #0]
 1017              		.loc 1 458 0
 1018 0066 039B     		ldr	r3, [sp, #12]
 1019 0068 5B6A     		ldr	r3, [r3, #36]
 1020 006a 1B68     		ldr	r3, [r3, #0]
 1021 006c 039A     		ldr	r2, [sp, #12]
 1022 006e 526A     		ldr	r2, [r2, #36]
 1023 0070 1268     		ldr	r2, [r2, #0]
 1024 0072 1268     		ldr	r2, [r2, #0]
 1025 0074 42F00102 		orr	r2, r2, #1
 1026 0078 1A60     		str	r2, [r3, #0]
 1027              		.loc 1 459 0
 1028 007a 04B0     		add	sp, sp, #16
 1029 007c 7047     		bx	lr
 1030              		.cfi_endproc
 1031              	.LFE128:
 1032              		.size	spi_lld_receive, .-spi_lld_receive
 1033 007e 00BF     		.section	.text.spi_lld_polled_exchange,"ax",%progbits
 1034              		.align	2
 1035              		.p2align 4,,15
 1036              		.global	spi_lld_polled_exchange
 1037              		.thumb
 1038              		.thumb_func
 1039              		.type	spi_lld_polled_exchange, %function
 1040              	spi_lld_polled_exchange:
 1041              	.LFB129:
 1042              		.loc 1 473 0
 1043              		.cfi_startproc
 1044              		@ args = 0, pretend = 0, frame = 8
 1045              		@ frame_needed = 0, uses_anonymous_args = 0
 1046              		@ link register save eliminated.
 1047 0000 82B0     		sub	sp, sp, #8
 1048              	.LCFI15:
 1049              		.cfi_def_cfa_offset 8
 1050 0002 0190     		str	r0, [sp, #4]
 1051 0004 0B46     		mov	r3, r1
 1052 0006 ADF80230 		strh	r3, [sp, #2]	@ movhi
 1053              		.loc 1 475 0
 1054 000a 019B     		ldr	r3, [sp, #4]
 1055 000c DB69     		ldr	r3, [r3, #28]
 1056 000e BDF80220 		ldrh	r2, [sp, #2]	@ movhi
 1057 0012 9A81     		strh	r2, [r3, #12]	@ movhi
 1058              		.loc 1 476 0
 1059 0014 00BF     		nop
 1060              	.L29:
 1061              		.loc 1 476 0 is_stmt 0 discriminator 1
 1062 0016 019B     		ldr	r3, [sp, #4]
 1063 0018 DB69     		ldr	r3, [r3, #28]
 1064 001a 1B89     		ldrh	r3, [r3, #8]	@ movhi
 1065 001c 9BB2     		uxth	r3, r3
 1066 001e 03F00103 		and	r3, r3, #1
 1067 0022 002B     		cmp	r3, #0
 1068 0024 F7D0     		beq	.L29
 1069              		.loc 1 478 0 is_stmt 1
ARM GAS  /tmp/cc0CY7eb.s 			page 20


 1070 0026 019B     		ldr	r3, [sp, #4]
 1071 0028 DB69     		ldr	r3, [r3, #28]
 1072 002a 9B89     		ldrh	r3, [r3, #12]	@ movhi
 1073 002c 9BB2     		uxth	r3, r3
 1074              		.loc 1 479 0
 1075 002e 1846     		mov	r0, r3
 1076 0030 02B0     		add	sp, sp, #8
 1077 0032 7047     		bx	lr
 1078              		.cfi_endproc
 1079              	.LFE129:
 1080              		.size	spi_lld_polled_exchange, .-spi_lld_polled_exchange
 1081 0034 AFF30080 		.text
 1081      AFF30080 
 1081      AFF30080 
 1082              	.Letext0:
 1083              		.file 2 "/usr/bin/../lib/gcc/arm-none-eabi/4.7.4/include/stddef.h"
 1084              		.file 3 "/usr/bin/../lib/gcc/arm-none-eabi/4.7.4/../../../../arm-none-eabi/include/stdint.h"
 1085              		.file 4 "../../os/ports/GCC/ARMCMx/chtypes.h"
 1086              		.file 5 "../../os/kernel/include/chlists.h"
 1087              		.file 6 "../../os/kernel/include/chthreads.h"
 1088              		.file 7 "../../os/ports/GCC/ARMCMx/chcore_v7m.h"
 1089              		.file 8 "../../os/kernel/include/chmtx.h"
 1090              		.file 9 "../../os/hal/platforms/STM32F4xx/stm32f4xx.h"
 1091              		.file 10 "../../os/hal/platforms/STM32F4xx/stm32_dma.h"
 1092              		.file 11 "../../os/hal/platforms/STM32/GPIOv2/pal_lld.h"
 1093              		.file 12 "../../os/hal/include/spi.h"
 1094              		.file 13 "../../os/hal/platforms/STM32/SPIv1/spi_lld.h"
 1095              		.file 14 "../../os/ports/common/ARMCMx/CMSIS/include/core_cm4.h"