ARM GAS  /tmp/cciE3hUa.s 			page 1


   1              		.syntax unified
   2              		.cpu cortex-m4
   3              		.fpu softvfp
   4              		.eabi_attribute 20, 1
   5              		.eabi_attribute 21, 1
   6              		.eabi_attribute 23, 3
   7              		.eabi_attribute 24, 1
   8              		.eabi_attribute 25, 1
   9              		.eabi_attribute 26, 1
  10              		.eabi_attribute 30, 6
  11              		.eabi_attribute 34, 1
  12              		.eabi_attribute 18, 4
  13              		.thumb
  14              		.file	"testbmk.c"
  15              		.text
  16              	.Ltext0:
  17              		.cfi_sections	.debug_frame
  18              		.section	.bss.sem1,"aw",%nobits
  19              		.align	2
  20              		.type	sem1, %object
  21              		.size	sem1, 12
  22              	sem1:
  23 0000 00000000 		.space	12
  23      00000000 
  23      00000000 
  24              		.section	.bss.mtx1,"aw",%nobits
  25              		.align	2
  26              		.type	mtx1, %object
  27              		.size	mtx1, 16
  28              	mtx1:
  29 0000 00000000 		.space	16
  29      00000000 
  29      00000000 
  29      00000000 
  30              		.section	.text.thread1,"ax",%progbits
  31              		.align	2
  32              		.p2align 4,,15
  33              		.thumb
  34              		.thumb_func
  35              		.type	thread1, %function
  36              	thread1:
  37              	.LFB7:
  38              		.file 1 "../../test/testbmk.c"
  39              		.loc 1 64 0
  40              		.cfi_startproc
  41              		@ args = 0, pretend = 0, frame = 16
  42              		@ frame_needed = 0, uses_anonymous_args = 0
  43 0000 00B5     		push	{lr}
  44              	.LCFI0:
  45              		.cfi_def_cfa_offset 4
  46              		.cfi_offset 14, -4
  47 0002 85B0     		sub	sp, sp, #20
  48              	.LCFI1:
  49              		.cfi_def_cfa_offset 24
  50 0004 0190     		str	r0, [sp, #4]
  51              	.L2:
  52              		.loc 1 70 0 discriminator 1
ARM GAS  /tmp/cciE3hUa.s 			page 2


  53 0006 FFF7FEFF 		bl	chMsgWait
  54 000a 0390     		str	r0, [sp, #12]
  55              		.loc 1 71 0 discriminator 1
  56 000c 039B     		ldr	r3, [sp, #12]
  57 000e 9B6B     		ldr	r3, [r3, #56]
  58 0010 0293     		str	r3, [sp, #8]
  59              		.loc 1 72 0 discriminator 1
  60 0012 0398     		ldr	r0, [sp, #12]
  61 0014 0299     		ldr	r1, [sp, #8]
  62 0016 FFF7FEFF 		bl	chMsgRelease
  63              		.loc 1 73 0 discriminator 1
  64 001a 029B     		ldr	r3, [sp, #8]
  65 001c 002B     		cmp	r3, #0
  66 001e F2D1     		bne	.L2
  67              		.loc 1 74 0
  68 0020 4FF00003 		mov	r3, #0
  69              		.loc 1 75 0
  70 0024 1846     		mov	r0, r3
  71 0026 05B0     		add	sp, sp, #20
  72 0028 00BD     		pop	{pc}
  73              		.cfi_endproc
  74              	.LFE7:
  75              		.size	thread1, .-thread1
  76 002a 00BFAFF3 		.section	.text.msg_loop_test,"ax",%progbits
  76      0080
  77              		.align	2
  78              		.p2align 4,,15
  79              		.thumb
  80              		.thumb_func
  81              		.type	msg_loop_test, %function
  82              	msg_loop_test:
  83              	.LFB8:
  84              		.loc 1 80 0
  85              		.cfi_startproc
  86              		@ args = 0, pretend = 0, frame = 16
  87              		@ frame_needed = 0, uses_anonymous_args = 0
  88 0000 00B5     		push	{lr}
  89              	.LCFI2:
  90              		.cfi_def_cfa_offset 4
  91              		.cfi_offset 14, -4
  92 0002 85B0     		sub	sp, sp, #20
  93              	.LCFI3:
  94              		.cfi_def_cfa_offset 24
  95 0004 0190     		str	r0, [sp, #4]
  96              		.loc 1 82 0
  97 0006 4FF00003 		mov	r3, #0
  98 000a 0393     		str	r3, [sp, #12]
  99              		.loc 1 83 0
 100 000c FFF7FEFF 		bl	test_wait_tick
 101              		.loc 1 84 0
 102 0010 4FF47A70 		mov	r0, #1000
 103 0014 FFF7FEFF 		bl	test_start_timer
 104              	.L5:
 105              		.loc 1 86 0 discriminator 1
 106 0018 0198     		ldr	r0, [sp, #4]
 107 001a 4FF00101 		mov	r1, #1
 108 001e FFF7FEFF 		bl	chMsgSend
ARM GAS  /tmp/cciE3hUa.s 			page 3


 109              		.loc 1 87 0 discriminator 1
 110 0022 039B     		ldr	r3, [sp, #12]
 111 0024 03F10103 		add	r3, r3, #1
 112 0028 0393     		str	r3, [sp, #12]
 113              		.loc 1 91 0 discriminator 1
 114 002a 40F20003 		movw	r3, #:lower16:test_timer_done
 115 002e C0F20003 		movt	r3, #:upper16:test_timer_done
 116 0032 1B78     		ldrb	r3, [r3, #0]	@ zero_extendqisi2
 117 0034 83F00103 		eor	r3, r3, #1
 118 0038 DBB2     		uxtb	r3, r3
 119 003a 002B     		cmp	r3, #0
 120 003c ECD1     		bne	.L5
 121              		.loc 1 92 0
 122 003e 0198     		ldr	r0, [sp, #4]
 123 0040 4FF00001 		mov	r1, #0
 124 0044 FFF7FEFF 		bl	chMsgSend
 125              		.loc 1 93 0
 126 0048 039B     		ldr	r3, [sp, #12]
 127              		.loc 1 94 0
 128 004a 1846     		mov	r0, r3
 129 004c 05B0     		add	sp, sp, #20
 130 004e 00BD     		pop	{pc}
 131              		.cfi_endproc
 132              	.LFE8:
 133              		.size	msg_loop_test, .-msg_loop_test
 134              		.section	.rodata
 135              		.align	2
 136              	.LC0:
 137 0000 2D2D2D20 		.ascii	"--- Score : \000"
 137      53636F72 
 137      65203A20 
 137      00
 138 000d 000000   		.align	2
 139              	.LC1:
 140 0010 206D7367 		.ascii	" msgs/S, \000"
 140      732F532C 
 140      2000
 141 001a 0000     		.align	2
 142              	.LC2:
 143 001c 20637478 		.ascii	" ctxswc/S\000"
 143      7377632F 
 143      5300
 144              		.section	.text.bmk1_execute,"ax",%progbits
 145              		.align	2
 146              		.p2align 4,,15
 147              		.thumb
 148              		.thumb_func
 149              		.type	bmk1_execute, %function
 150              	bmk1_execute:
 151              	.LFB9:
 152              		.loc 1 105 0
 153              		.cfi_startproc
 154              		@ args = 0, pretend = 0, frame = 8
 155              		@ frame_needed = 0, uses_anonymous_args = 0
 156 0000 00B5     		push	{lr}
 157              	.LCFI4:
 158              		.cfi_def_cfa_offset 4
ARM GAS  /tmp/cciE3hUa.s 			page 4


 159              		.cfi_offset 14, -4
 160 0002 85B0     		sub	sp, sp, #20
 161              	.LCFI5:
 162              		.cfi_def_cfa_offset 24
 163              		.loc 1 108 0
 164 0004 40F20003 		movw	r3, #:lower16:wa
 165 0008 C0F20003 		movt	r3, #:upper16:wa
 166 000c 1A68     		ldr	r2, [r3, #0]
 167 000e 40F20003 		movw	r3, #:lower16:rlist
 168 0012 C0F20003 		movt	r3, #:upper16:rlist
 169 0016 9B69     		ldr	r3, [r3, #24]
 170 0018 9B68     		ldr	r3, [r3, #8]
 171 001a 03F1FF33 		add	r3, r3, #-1
 172 001e 4FF00001 		mov	r1, #0
 173 0022 0091     		str	r1, [sp, #0]
 174 0024 1046     		mov	r0, r2
 175 0026 4FF49871 		mov	r1, #304
 176 002a 1A46     		mov	r2, r3
 177 002c 40F20003 		movw	r3, #:lower16:thread1
 178 0030 C0F20003 		movt	r3, #:upper16:thread1
 179 0034 FFF7FEFF 		bl	chThdCreateStatic
 180 0038 0246     		mov	r2, r0
 181 003a 40F20003 		movw	r3, #:lower16:threads
 182 003e C0F20003 		movt	r3, #:upper16:threads
 183 0042 1A60     		str	r2, [r3, #0]
 184              		.loc 1 109 0
 185 0044 40F20003 		movw	r3, #:lower16:threads
 186 0048 C0F20003 		movt	r3, #:upper16:threads
 187 004c 1B68     		ldr	r3, [r3, #0]
 188 004e 1846     		mov	r0, r3
 189 0050 FFF7FEFF 		bl	msg_loop_test
 190 0054 0390     		str	r0, [sp, #12]
 191              		.loc 1 110 0
 192 0056 FFF7FEFF 		bl	test_wait_threads
 193              		.loc 1 111 0
 194 005a 40F20000 		movw	r0, #:lower16:.LC0
 195 005e C0F20000 		movt	r0, #:upper16:.LC0
 196 0062 FFF7FEFF 		bl	test_print
 197              		.loc 1 112 0
 198 0066 0398     		ldr	r0, [sp, #12]
 199 0068 FFF7FEFF 		bl	test_printn
 200              		.loc 1 113 0
 201 006c 40F20000 		movw	r0, #:lower16:.LC1
 202 0070 C0F20000 		movt	r0, #:upper16:.LC1
 203 0074 FFF7FEFF 		bl	test_print
 204              		.loc 1 114 0
 205 0078 039B     		ldr	r3, [sp, #12]
 206 007a 4FEA4303 		lsl	r3, r3, #1
 207 007e 1846     		mov	r0, r3
 208 0080 FFF7FEFF 		bl	test_printn
 209              		.loc 1 115 0
 210 0084 40F20000 		movw	r0, #:lower16:.LC2
 211 0088 C0F20000 		movt	r0, #:upper16:.LC2
 212 008c FFF7FEFF 		bl	test_println
 213              		.loc 1 116 0
 214 0090 05B0     		add	sp, sp, #20
 215 0092 00BD     		pop	{pc}
ARM GAS  /tmp/cciE3hUa.s 			page 5


 216              		.cfi_endproc
 217              	.LFE9:
 218              		.size	bmk1_execute, .-bmk1_execute
 219              		.global	testbmk1
 220 0094 AFF30080 		.section	.rodata
 220      AFF30080 
 220      AFF30080 
 221 0026 0000     		.align	2
 222              	.LC3:
 223 0028 42656E63 		.ascii	"Benchmark, messages #1\000"
 223      686D6172 
 223      6B2C206D 
 223      65737361 
 223      67657320 
 224              		.section	.rodata.testbmk1,"a",%progbits
 225              		.align	2
 226              		.type	testbmk1, %object
 227              		.size	testbmk1, 16
 228              	testbmk1:
 229 0000 28000000 		.word	.LC3
 230 0004 00000000 		.word	0
 231 0008 00000000 		.word	0
 232 000c 00000000 		.word	bmk1_execute
 233              		.section	.text.bmk2_execute,"ax",%progbits
 234              		.align	2
 235              		.p2align 4,,15
 236              		.thumb
 237              		.thumb_func
 238              		.type	bmk2_execute, %function
 239              	bmk2_execute:
 240              	.LFB10:
 241              		.loc 1 134 0
 242              		.cfi_startproc
 243              		@ args = 0, pretend = 0, frame = 8
 244              		@ frame_needed = 0, uses_anonymous_args = 0
 245 0000 00B5     		push	{lr}
 246              	.LCFI6:
 247              		.cfi_def_cfa_offset 4
 248              		.cfi_offset 14, -4
 249 0002 85B0     		sub	sp, sp, #20
 250              	.LCFI7:
 251              		.cfi_def_cfa_offset 24
 252              		.loc 1 137 0
 253 0004 40F20003 		movw	r3, #:lower16:wa
 254 0008 C0F20003 		movt	r3, #:upper16:wa
 255 000c 1A68     		ldr	r2, [r3, #0]
 256 000e 40F20003 		movw	r3, #:lower16:rlist
 257 0012 C0F20003 		movt	r3, #:upper16:rlist
 258 0016 9B69     		ldr	r3, [r3, #24]
 259 0018 9B68     		ldr	r3, [r3, #8]
 260 001a 03F10103 		add	r3, r3, #1
 261 001e 4FF00001 		mov	r1, #0
 262 0022 0091     		str	r1, [sp, #0]
 263 0024 1046     		mov	r0, r2
 264 0026 4FF49871 		mov	r1, #304
 265 002a 1A46     		mov	r2, r3
 266 002c 40F20003 		movw	r3, #:lower16:thread1
ARM GAS  /tmp/cciE3hUa.s 			page 6


 267 0030 C0F20003 		movt	r3, #:upper16:thread1
 268 0034 FFF7FEFF 		bl	chThdCreateStatic
 269 0038 0246     		mov	r2, r0
 270 003a 40F20003 		movw	r3, #:lower16:threads
 271 003e C0F20003 		movt	r3, #:upper16:threads
 272 0042 1A60     		str	r2, [r3, #0]
 273              		.loc 1 138 0
 274 0044 40F20003 		movw	r3, #:lower16:threads
 275 0048 C0F20003 		movt	r3, #:upper16:threads
 276 004c 1B68     		ldr	r3, [r3, #0]
 277 004e 1846     		mov	r0, r3
 278 0050 FFF7FEFF 		bl	msg_loop_test
 279 0054 0390     		str	r0, [sp, #12]
 280              		.loc 1 139 0
 281 0056 FFF7FEFF 		bl	test_wait_threads
 282              		.loc 1 140 0
 283 005a 40F20000 		movw	r0, #:lower16:.LC0
 284 005e C0F20000 		movt	r0, #:upper16:.LC0
 285 0062 FFF7FEFF 		bl	test_print
 286              		.loc 1 141 0
 287 0066 0398     		ldr	r0, [sp, #12]
 288 0068 FFF7FEFF 		bl	test_printn
 289              		.loc 1 142 0
 290 006c 40F20000 		movw	r0, #:lower16:.LC1
 291 0070 C0F20000 		movt	r0, #:upper16:.LC1
 292 0074 FFF7FEFF 		bl	test_print
 293              		.loc 1 143 0
 294 0078 039B     		ldr	r3, [sp, #12]
 295 007a 4FEA4303 		lsl	r3, r3, #1
 296 007e 1846     		mov	r0, r3
 297 0080 FFF7FEFF 		bl	test_printn
 298              		.loc 1 144 0
 299 0084 40F20000 		movw	r0, #:lower16:.LC2
 300 0088 C0F20000 		movt	r0, #:upper16:.LC2
 301 008c FFF7FEFF 		bl	test_println
 302              		.loc 1 145 0
 303 0090 05B0     		add	sp, sp, #20
 304 0092 00BD     		pop	{pc}
 305              		.cfi_endproc
 306              	.LFE10:
 307              		.size	bmk2_execute, .-bmk2_execute
 308              		.global	testbmk2
 309 0094 AFF30080 		.section	.rodata
 309      AFF30080 
 309      AFF30080 
 310 003f 00       		.align	2
 311              	.LC4:
 312 0040 42656E63 		.ascii	"Benchmark, messages #2\000"
 312      686D6172 
 312      6B2C206D 
 312      65737361 
 312      67657320 
 313              		.section	.rodata.testbmk2,"a",%progbits
 314              		.align	2
 315              		.type	testbmk2, %object
 316              		.size	testbmk2, 16
 317              	testbmk2:
ARM GAS  /tmp/cciE3hUa.s 			page 7


 318 0000 40000000 		.word	.LC4
 319 0004 00000000 		.word	0
 320 0008 00000000 		.word	0
 321 000c 00000000 		.word	bmk2_execute
 322              		.section	.text.thread2,"ax",%progbits
 323              		.align	2
 324              		.p2align 4,,15
 325              		.thumb
 326              		.thumb_func
 327              		.type	thread2, %function
 328              	thread2:
 329              	.LFB11:
 330              		.loc 1 154 0
 331              		.cfi_startproc
 332              		@ args = 0, pretend = 0, frame = 8
 333              		@ frame_needed = 0, uses_anonymous_args = 0
 334              		@ link register save eliminated.
 335 0000 82B0     		sub	sp, sp, #8
 336              	.LCFI8:
 337              		.cfi_def_cfa_offset 8
 338 0002 0190     		str	r0, [sp, #4]
 339              		.loc 1 156 0
 340 0004 019B     		ldr	r3, [sp, #4]
 341              		.loc 1 157 0
 342 0006 1846     		mov	r0, r3
 343 0008 02B0     		add	sp, sp, #8
 344 000a 7047     		bx	lr
 345              		.cfi_endproc
 346              	.LFE11:
 347              		.size	thread2, .-thread2
 348 000c AFF30080 		.section	.text.bmk3_execute,"ax",%progbits
 349              		.align	2
 350              		.p2align 4,,15
 351              		.thumb
 352              		.thumb_func
 353              		.type	bmk3_execute, %function
 354              	bmk3_execute:
 355              	.LFB12:
 356              		.loc 1 169 0
 357              		.cfi_startproc
 358              		@ args = 0, pretend = 0, frame = 8
 359              		@ frame_needed = 0, uses_anonymous_args = 0
 360 0000 00B5     		push	{lr}
 361              	.LCFI9:
 362              		.cfi_def_cfa_offset 4
 363              		.cfi_offset 14, -4
 364 0002 85B0     		sub	sp, sp, #20
 365              	.LCFI10:
 366              		.cfi_def_cfa_offset 24
 367              		.loc 1 172 0
 368 0004 40F20003 		movw	r3, #:lower16:wa
 369 0008 C0F20003 		movt	r3, #:upper16:wa
 370 000c 1A68     		ldr	r2, [r3, #0]
 371 000e 40F20003 		movw	r3, #:lower16:rlist
 372 0012 C0F20003 		movt	r3, #:upper16:rlist
 373 0016 9B69     		ldr	r3, [r3, #24]
 374 0018 9B68     		ldr	r3, [r3, #8]
ARM GAS  /tmp/cciE3hUa.s 			page 8


 375 001a 03F10103 		add	r3, r3, #1
 376 001e 4FF00001 		mov	r1, #0
 377 0022 0091     		str	r1, [sp, #0]
 378 0024 1046     		mov	r0, r2
 379 0026 4FF49871 		mov	r1, #304
 380 002a 1A46     		mov	r2, r3
 381 002c 40F20003 		movw	r3, #:lower16:thread1
 382 0030 C0F20003 		movt	r3, #:upper16:thread1
 383 0034 FFF7FEFF 		bl	chThdCreateStatic
 384 0038 0246     		mov	r2, r0
 385 003a 40F20003 		movw	r3, #:lower16:threads
 386 003e C0F20003 		movt	r3, #:upper16:threads
 387 0042 1A60     		str	r2, [r3, #0]
 388              		.loc 1 173 0
 389 0044 40F20003 		movw	r3, #:lower16:wa
 390 0048 C0F20003 		movt	r3, #:upper16:wa
 391 004c 5A68     		ldr	r2, [r3, #4]
 392 004e 40F20003 		movw	r3, #:lower16:rlist
 393 0052 C0F20003 		movt	r3, #:upper16:rlist
 394 0056 9B69     		ldr	r3, [r3, #24]
 395 0058 9B68     		ldr	r3, [r3, #8]
 396 005a A3F10203 		sub	r3, r3, #2
 397 005e 4FF00001 		mov	r1, #0
 398 0062 0091     		str	r1, [sp, #0]
 399 0064 1046     		mov	r0, r2
 400 0066 4FF49871 		mov	r1, #304
 401 006a 1A46     		mov	r2, r3
 402 006c 40F20003 		movw	r3, #:lower16:thread2
 403 0070 C0F20003 		movt	r3, #:upper16:thread2
 404 0074 FFF7FEFF 		bl	chThdCreateStatic
 405 0078 0246     		mov	r2, r0
 406 007a 40F20003 		movw	r3, #:lower16:threads
 407 007e C0F20003 		movt	r3, #:upper16:threads
 408 0082 5A60     		str	r2, [r3, #4]
 409              		.loc 1 174 0
 410 0084 40F20003 		movw	r3, #:lower16:wa
 411 0088 C0F20003 		movt	r3, #:upper16:wa
 412 008c 9A68     		ldr	r2, [r3, #8]
 413 008e 40F20003 		movw	r3, #:lower16:rlist
 414 0092 C0F20003 		movt	r3, #:upper16:rlist
 415 0096 9B69     		ldr	r3, [r3, #24]
 416 0098 9B68     		ldr	r3, [r3, #8]
 417 009a A3F10303 		sub	r3, r3, #3
 418 009e 4FF00001 		mov	r1, #0
 419 00a2 0091     		str	r1, [sp, #0]
 420 00a4 1046     		mov	r0, r2
 421 00a6 4FF49871 		mov	r1, #304
 422 00aa 1A46     		mov	r2, r3
 423 00ac 40F20003 		movw	r3, #:lower16:thread2
 424 00b0 C0F20003 		movt	r3, #:upper16:thread2
 425 00b4 FFF7FEFF 		bl	chThdCreateStatic
 426 00b8 0246     		mov	r2, r0
 427 00ba 40F20003 		movw	r3, #:lower16:threads
 428 00be C0F20003 		movt	r3, #:upper16:threads
 429 00c2 9A60     		str	r2, [r3, #8]
 430              		.loc 1 175 0
 431 00c4 40F20003 		movw	r3, #:lower16:wa
ARM GAS  /tmp/cciE3hUa.s 			page 9


 432 00c8 C0F20003 		movt	r3, #:upper16:wa
 433 00cc DA68     		ldr	r2, [r3, #12]
 434 00ce 40F20003 		movw	r3, #:lower16:rlist
 435 00d2 C0F20003 		movt	r3, #:upper16:rlist
 436 00d6 9B69     		ldr	r3, [r3, #24]
 437 00d8 9B68     		ldr	r3, [r3, #8]
 438 00da A3F10403 		sub	r3, r3, #4
 439 00de 4FF00001 		mov	r1, #0
 440 00e2 0091     		str	r1, [sp, #0]
 441 00e4 1046     		mov	r0, r2
 442 00e6 4FF49871 		mov	r1, #304
 443 00ea 1A46     		mov	r2, r3
 444 00ec 40F20003 		movw	r3, #:lower16:thread2
 445 00f0 C0F20003 		movt	r3, #:upper16:thread2
 446 00f4 FFF7FEFF 		bl	chThdCreateStatic
 447 00f8 0246     		mov	r2, r0
 448 00fa 40F20003 		movw	r3, #:lower16:threads
 449 00fe C0F20003 		movt	r3, #:upper16:threads
 450 0102 DA60     		str	r2, [r3, #12]
 451              		.loc 1 176 0
 452 0104 40F20003 		movw	r3, #:lower16:wa
 453 0108 C0F20003 		movt	r3, #:upper16:wa
 454 010c 1A69     		ldr	r2, [r3, #16]
 455 010e 40F20003 		movw	r3, #:lower16:rlist
 456 0112 C0F20003 		movt	r3, #:upper16:rlist
 457 0116 9B69     		ldr	r3, [r3, #24]
 458 0118 9B68     		ldr	r3, [r3, #8]
 459 011a A3F10503 		sub	r3, r3, #5
 460 011e 4FF00001 		mov	r1, #0
 461 0122 0091     		str	r1, [sp, #0]
 462 0124 1046     		mov	r0, r2
 463 0126 4FF49871 		mov	r1, #304
 464 012a 1A46     		mov	r2, r3
 465 012c 40F20003 		movw	r3, #:lower16:thread2
 466 0130 C0F20003 		movt	r3, #:upper16:thread2
 467 0134 FFF7FEFF 		bl	chThdCreateStatic
 468 0138 0246     		mov	r2, r0
 469 013a 40F20003 		movw	r3, #:lower16:threads
 470 013e C0F20003 		movt	r3, #:upper16:threads
 471 0142 1A61     		str	r2, [r3, #16]
 472              		.loc 1 177 0
 473 0144 40F20003 		movw	r3, #:lower16:threads
 474 0148 C0F20003 		movt	r3, #:upper16:threads
 475 014c 1B68     		ldr	r3, [r3, #0]
 476 014e 1846     		mov	r0, r3
 477 0150 FFF7FEFF 		bl	msg_loop_test
 478 0154 0390     		str	r0, [sp, #12]
 479              		.loc 1 178 0
 480 0156 FFF7FEFF 		bl	test_wait_threads
 481              		.loc 1 179 0
 482 015a 40F20000 		movw	r0, #:lower16:.LC0
 483 015e C0F20000 		movt	r0, #:upper16:.LC0
 484 0162 FFF7FEFF 		bl	test_print
 485              		.loc 1 180 0
 486 0166 0398     		ldr	r0, [sp, #12]
 487 0168 FFF7FEFF 		bl	test_printn
 488              		.loc 1 181 0
ARM GAS  /tmp/cciE3hUa.s 			page 10


 489 016c 40F20000 		movw	r0, #:lower16:.LC1
 490 0170 C0F20000 		movt	r0, #:upper16:.LC1
 491 0174 FFF7FEFF 		bl	test_print
 492              		.loc 1 182 0
 493 0178 039B     		ldr	r3, [sp, #12]
 494 017a 4FEA4303 		lsl	r3, r3, #1
 495 017e 1846     		mov	r0, r3
 496 0180 FFF7FEFF 		bl	test_printn
 497              		.loc 1 183 0
 498 0184 40F20000 		movw	r0, #:lower16:.LC2
 499 0188 C0F20000 		movt	r0, #:upper16:.LC2
 500 018c FFF7FEFF 		bl	test_println
 501              		.loc 1 184 0
 502 0190 05B0     		add	sp, sp, #20
 503 0192 00BD     		pop	{pc}
 504              		.cfi_endproc
 505              	.LFE12:
 506              		.size	bmk3_execute, .-bmk3_execute
 507              		.global	testbmk3
 508 0194 AFF30080 		.section	.rodata
 508      AFF30080 
 508      AFF30080 
 509 0057 00       		.align	2
 510              	.LC5:
 511 0058 42656E63 		.ascii	"Benchmark, messages #3\000"
 511      686D6172 
 511      6B2C206D 
 511      65737361 
 511      67657320 
 512              		.section	.rodata.testbmk3,"a",%progbits
 513              		.align	2
 514              		.type	testbmk3, %object
 515              		.size	testbmk3, 16
 516              	testbmk3:
 517 0000 58000000 		.word	.LC5
 518 0004 00000000 		.word	0
 519 0008 00000000 		.word	0
 520 000c 00000000 		.word	bmk3_execute
 521              		.section	.text.thread4,"ax",%progbits
 522              		.align	2
 523              		.p2align 4,,15
 524              		.global	thread4
 525              		.thumb
 526              		.thumb_func
 527              		.type	thread4, %function
 528              	thread4:
 529              	.LFB13:
 530              		.loc 1 203 0
 531              		.cfi_startproc
 532              		@ args = 0, pretend = 0, frame = 16
 533              		@ frame_needed = 0, uses_anonymous_args = 0
 534 0000 00B5     		push	{lr}
 535              	.LCFI11:
 536              		.cfi_def_cfa_offset 4
 537              		.cfi_offset 14, -4
 538 0002 85B0     		sub	sp, sp, #20
 539              	.LCFI12:
ARM GAS  /tmp/cciE3hUa.s 			page 11


 540              		.cfi_def_cfa_offset 24
 541 0004 0190     		str	r0, [sp, #4]
 542              		.loc 1 205 0
 543 0006 40F20003 		movw	r3, #:lower16:rlist
 544 000a C0F20003 		movt	r3, #:upper16:rlist
 545 000e 9B69     		ldr	r3, [r3, #24]
 546 0010 0393     		str	r3, [sp, #12]
 547              	.LBB2:
 548              		.loc 1 208 0
 549 0012 4FF02003 		mov	r3, #32
 550              	@ 208 "../../test/testbmk.c" 1
 551 0016 83F31188 		msr     BASEPRI, r3
 552              	@ 0 "" 2
 553              		.thumb
 554              	.LBE2:
 555 001a FFF7FEFF 		bl	dbg_check_lock
 556              	.L13:
 557              		.loc 1 210 0 discriminator 1
 558 001e 4FF00200 		mov	r0, #2
 559 0022 FFF7FEFF 		bl	chSchGoSleepS
 560              		.loc 1 211 0 discriminator 1
 561 0026 039B     		ldr	r3, [sp, #12]
 562 0028 9B6A     		ldr	r3, [r3, #40]
 563 002a 0293     		str	r3, [sp, #8]
 564              		.loc 1 212 0 discriminator 1
 565 002c 029B     		ldr	r3, [sp, #8]
 566 002e 002B     		cmp	r3, #0
 567 0030 F5D0     		beq	.L13
 568              		.loc 1 213 0
 569 0032 FFF7FEFF 		bl	dbg_check_unlock
 570              	.LBB3:
 571 0036 4FF00003 		mov	r3, #0
 572              	@ 213 "../../test/testbmk.c" 1
 573 003a 83F31188 		msr     BASEPRI, r3
 574              	@ 0 "" 2
 575              		.thumb
 576              	.LBE3:
 577              		.loc 1 214 0
 578 003e 4FF00003 		mov	r3, #0
 579              		.loc 1 215 0
 580 0042 1846     		mov	r0, r3
 581 0044 05B0     		add	sp, sp, #20
 582 0046 00BD     		pop	{pc}
 583              		.cfi_endproc
 584              	.LFE13:
 585              		.size	thread4, .-thread4
 586 0048 AFF30080 		.section	.text.bmk4_execute,"ax",%progbits
 586      AFF30080 
 587              		.align	2
 588              		.p2align 4,,15
 589              		.thumb
 590              		.thumb_func
 591              		.type	bmk4_execute, %function
 592              	bmk4_execute:
 593              	.LFB14:
 594              		.loc 1 217 0
 595              		.cfi_startproc
ARM GAS  /tmp/cciE3hUa.s 			page 12


 596              		@ args = 0, pretend = 0, frame = 8
 597              		@ frame_needed = 0, uses_anonymous_args = 0
 598 0000 00B5     		push	{lr}
 599              	.LCFI13:
 600              		.cfi_def_cfa_offset 4
 601              		.cfi_offset 14, -4
 602 0002 85B0     		sub	sp, sp, #20
 603              	.LCFI14:
 604              		.cfi_def_cfa_offset 24
 605              		.loc 1 221 0
 606 0004 40F20003 		movw	r3, #:lower16:wa
 607 0008 C0F20003 		movt	r3, #:upper16:wa
 608 000c 1A68     		ldr	r2, [r3, #0]
 609 000e 40F20003 		movw	r3, #:lower16:rlist
 610 0012 C0F20003 		movt	r3, #:upper16:rlist
 611 0016 9B69     		ldr	r3, [r3, #24]
 612 0018 9B68     		ldr	r3, [r3, #8]
 613 001a 03F10103 		add	r3, r3, #1
 614 001e 4FF00001 		mov	r1, #0
 615 0022 0091     		str	r1, [sp, #0]
 616 0024 1046     		mov	r0, r2
 617 0026 4FF49871 		mov	r1, #304
 618 002a 1A46     		mov	r2, r3
 619 002c 40F20003 		movw	r3, #:lower16:thread4
 620 0030 C0F20003 		movt	r3, #:upper16:thread4
 621 0034 FFF7FEFF 		bl	chThdCreateStatic
 622 0038 0246     		mov	r2, r0
 623 003a 40F20003 		movw	r3, #:lower16:threads
 624 003e C0F20003 		movt	r3, #:upper16:threads
 625 0042 1A60     		str	r2, [r3, #0]
 626 0044 40F20003 		movw	r3, #:lower16:threads
 627 0048 C0F20003 		movt	r3, #:upper16:threads
 628 004c 1B68     		ldr	r3, [r3, #0]
 629 004e 0293     		str	r3, [sp, #8]
 630              		.loc 1 222 0
 631 0050 4FF00003 		mov	r3, #0
 632 0054 0393     		str	r3, [sp, #12]
 633              		.loc 1 223 0
 634 0056 FFF7FEFF 		bl	test_wait_tick
 635              		.loc 1 224 0
 636 005a 4FF47A70 		mov	r0, #1000
 637 005e FFF7FEFF 		bl	test_start_timer
 638              	.L16:
 639              	.LBB4:
 640              		.loc 1 226 0 discriminator 1
 641 0062 4FF02003 		mov	r3, #32
 642              	@ 226 "../../test/testbmk.c" 1
 643 0066 83F31188 		msr     BASEPRI, r3
 644              	@ 0 "" 2
 645              		.thumb
 646              	.LBE4:
 647 006a FFF7FEFF 		bl	dbg_check_lock
 648              		.loc 1 227 0 discriminator 1
 649 006e 0298     		ldr	r0, [sp, #8]
 650 0070 4FF00001 		mov	r1, #0
 651 0074 FFF7FEFF 		bl	chSchWakeupS
 652              		.loc 1 228 0 discriminator 1
ARM GAS  /tmp/cciE3hUa.s 			page 13


 653 0078 0298     		ldr	r0, [sp, #8]
 654 007a 4FF00001 		mov	r1, #0
 655 007e FFF7FEFF 		bl	chSchWakeupS
 656              		.loc 1 229 0 discriminator 1
 657 0082 0298     		ldr	r0, [sp, #8]
 658 0084 4FF00001 		mov	r1, #0
 659 0088 FFF7FEFF 		bl	chSchWakeupS
 660              		.loc 1 230 0 discriminator 1
 661 008c 0298     		ldr	r0, [sp, #8]
 662 008e 4FF00001 		mov	r1, #0
 663 0092 FFF7FEFF 		bl	chSchWakeupS
 664              		.loc 1 231 0 discriminator 1
 665 0096 FFF7FEFF 		bl	dbg_check_unlock
 666              	.LBB5:
 667 009a 4FF00003 		mov	r3, #0
 668              	@ 231 "../../test/testbmk.c" 1
 669 009e 83F31188 		msr     BASEPRI, r3
 670              	@ 0 "" 2
 671              		.thumb
 672              	.LBE5:
 673              		.loc 1 232 0 discriminator 1
 674 00a2 039B     		ldr	r3, [sp, #12]
 675 00a4 03F10403 		add	r3, r3, #4
 676 00a8 0393     		str	r3, [sp, #12]
 677              		.loc 1 236 0 discriminator 1
 678 00aa 40F20003 		movw	r3, #:lower16:test_timer_done
 679 00ae C0F20003 		movt	r3, #:upper16:test_timer_done
 680 00b2 1B78     		ldrb	r3, [r3, #0]	@ zero_extendqisi2
 681 00b4 83F00103 		eor	r3, r3, #1
 682 00b8 DBB2     		uxtb	r3, r3
 683 00ba 002B     		cmp	r3, #0
 684 00bc D1D1     		bne	.L16
 685              	.LBB6:
 686              		.loc 1 237 0
 687 00be 4FF02003 		mov	r3, #32
 688              	@ 237 "../../test/testbmk.c" 1
 689 00c2 83F31188 		msr     BASEPRI, r3
 690              	@ 0 "" 2
 691              		.thumb
 692              	.LBE6:
 693 00c6 FFF7FEFF 		bl	dbg_check_lock
 694              		.loc 1 238 0
 695 00ca 0298     		ldr	r0, [sp, #8]
 696 00cc 4FF0FF31 		mov	r1, #-1
 697 00d0 FFF7FEFF 		bl	chSchWakeupS
 698              		.loc 1 239 0
 699 00d4 FFF7FEFF 		bl	dbg_check_unlock
 700              	.LBB7:
 701 00d8 4FF00003 		mov	r3, #0
 702              	@ 239 "../../test/testbmk.c" 1
 703 00dc 83F31188 		msr     BASEPRI, r3
 704              	@ 0 "" 2
 705              		.thumb
 706              	.LBE7:
 707              		.loc 1 241 0
 708 00e0 FFF7FEFF 		bl	test_wait_threads
 709              		.loc 1 242 0
ARM GAS  /tmp/cciE3hUa.s 			page 14


 710 00e4 40F20000 		movw	r0, #:lower16:.LC0
 711 00e8 C0F20000 		movt	r0, #:upper16:.LC0
 712 00ec FFF7FEFF 		bl	test_print
 713              		.loc 1 243 0
 714 00f0 039B     		ldr	r3, [sp, #12]
 715 00f2 4FEA4303 		lsl	r3, r3, #1
 716 00f6 1846     		mov	r0, r3
 717 00f8 FFF7FEFF 		bl	test_printn
 718              		.loc 1 244 0
 719 00fc 40F20000 		movw	r0, #:lower16:.LC2
 720 0100 C0F20000 		movt	r0, #:upper16:.LC2
 721 0104 FFF7FEFF 		bl	test_println
 722              		.loc 1 245 0
 723 0108 05B0     		add	sp, sp, #20
 724 010a 00BD     		pop	{pc}
 725              		.cfi_endproc
 726              	.LFE14:
 727              		.size	bmk4_execute, .-bmk4_execute
 728              		.global	testbmk4
 729 010c AFF30080 		.section	.rodata
 730 006f 00       		.align	2
 731              	.LC6:
 732 0070 42656E63 		.ascii	"Benchmark, context switch\000"
 732      686D6172 
 732      6B2C2063 
 732      6F6E7465 
 732      78742073 
 733              		.section	.rodata.testbmk4,"a",%progbits
 734              		.align	2
 735              		.type	testbmk4, %object
 736              		.size	testbmk4, 16
 737              	testbmk4:
 738 0000 70000000 		.word	.LC6
 739 0004 00000000 		.word	0
 740 0008 00000000 		.word	0
 741 000c 00000000 		.word	bmk4_execute
 742              		.section	.rodata
 743 008a 0000     		.align	2
 744              	.LC7:
 745 008c 20746872 		.ascii	" threads/S\000"
 745      65616473 
 745      2F5300
 746              		.section	.text.bmk5_execute,"ax",%progbits
 747              		.align	2
 748              		.p2align 4,,15
 749              		.thumb
 750              		.thumb_func
 751              		.type	bmk5_execute, %function
 752              	bmk5_execute:
 753              	.LFB15:
 754              		.loc 1 265 0
 755              		.cfi_startproc
 756              		@ args = 0, pretend = 0, frame = 16
 757              		@ frame_needed = 0, uses_anonymous_args = 0
 758 0000 00B5     		push	{lr}
 759              	.LCFI15:
 760              		.cfi_def_cfa_offset 4
ARM GAS  /tmp/cciE3hUa.s 			page 15


 761              		.cfi_offset 14, -4
 762 0002 87B0     		sub	sp, sp, #28
 763              	.LCFI16:
 764              		.cfi_def_cfa_offset 32
 765              		.loc 1 267 0
 766 0004 4FF00003 		mov	r3, #0
 767 0008 0593     		str	r3, [sp, #20]
 768              		.loc 1 268 0
 769 000a 40F20003 		movw	r3, #:lower16:wa
 770 000e C0F20003 		movt	r3, #:upper16:wa
 771 0012 1B68     		ldr	r3, [r3, #0]
 772 0014 0493     		str	r3, [sp, #16]
 773              		.loc 1 269 0
 774 0016 40F20003 		movw	r3, #:lower16:rlist
 775 001a C0F20003 		movt	r3, #:upper16:rlist
 776 001e 9B69     		ldr	r3, [r3, #24]
 777 0020 9B68     		ldr	r3, [r3, #8]
 778 0022 03F1FF33 		add	r3, r3, #-1
 779 0026 0393     		str	r3, [sp, #12]
 780              		.loc 1 270 0
 781 0028 FFF7FEFF 		bl	test_wait_tick
 782              		.loc 1 271 0
 783 002c 4FF47A70 		mov	r0, #1000
 784 0030 FFF7FEFF 		bl	test_start_timer
 785              	.L18:
 786              		.loc 1 273 0 discriminator 1
 787 0034 4FF00003 		mov	r3, #0
 788 0038 0093     		str	r3, [sp, #0]
 789 003a 0498     		ldr	r0, [sp, #16]
 790 003c 4FF49871 		mov	r1, #304
 791 0040 039A     		ldr	r2, [sp, #12]
 792 0042 40F20003 		movw	r3, #:lower16:thread2
 793 0046 C0F20003 		movt	r3, #:upper16:thread2
 794 004a FFF7FEFF 		bl	chThdCreateStatic
 795 004e 0346     		mov	r3, r0
 796 0050 1846     		mov	r0, r3
 797 0052 FFF7FEFF 		bl	chThdWait
 798              		.loc 1 274 0 discriminator 1
 799 0056 059B     		ldr	r3, [sp, #20]
 800 0058 03F10103 		add	r3, r3, #1
 801 005c 0593     		str	r3, [sp, #20]
 802              		.loc 1 278 0 discriminator 1
 803 005e 40F20003 		movw	r3, #:lower16:test_timer_done
 804 0062 C0F20003 		movt	r3, #:upper16:test_timer_done
 805 0066 1B78     		ldrb	r3, [r3, #0]	@ zero_extendqisi2
 806 0068 83F00103 		eor	r3, r3, #1
 807 006c DBB2     		uxtb	r3, r3
 808 006e 002B     		cmp	r3, #0
 809 0070 E0D1     		bne	.L18
 810              		.loc 1 279 0
 811 0072 40F20000 		movw	r0, #:lower16:.LC0
 812 0076 C0F20000 		movt	r0, #:upper16:.LC0
 813 007a FFF7FEFF 		bl	test_print
 814              		.loc 1 280 0
 815 007e 0598     		ldr	r0, [sp, #20]
 816 0080 FFF7FEFF 		bl	test_printn
 817              		.loc 1 281 0
ARM GAS  /tmp/cciE3hUa.s 			page 16


 818 0084 40F20000 		movw	r0, #:lower16:.LC7
 819 0088 C0F20000 		movt	r0, #:upper16:.LC7
 820 008c FFF7FEFF 		bl	test_println
 821              		.loc 1 282 0
 822 0090 07B0     		add	sp, sp, #28
 823 0092 00BD     		pop	{pc}
 824              		.cfi_endproc
 825              	.LFE15:
 826              		.size	bmk5_execute, .-bmk5_execute
 827              		.global	testbmk5
 828 0094 AFF30080 		.section	.rodata
 828      AFF30080 
 828      AFF30080 
 829 0097 00       		.align	2
 830              	.LC8:
 831 0098 42656E63 		.ascii	"Benchmark, threads, full cycle\000"
 831      686D6172 
 831      6B2C2074 
 831      68726561 
 831      64732C20 
 832              		.section	.rodata.testbmk5,"a",%progbits
 833              		.align	2
 834              		.type	testbmk5, %object
 835              		.size	testbmk5, 16
 836              	testbmk5:
 837 0000 98000000 		.word	.LC8
 838 0004 00000000 		.word	0
 839 0008 00000000 		.word	0
 840 000c 00000000 		.word	bmk5_execute
 841              		.section	.text.bmk6_execute,"ax",%progbits
 842              		.align	2
 843              		.p2align 4,,15
 844              		.thumb
 845              		.thumb_func
 846              		.type	bmk6_execute, %function
 847              	bmk6_execute:
 848              	.LFB16:
 849              		.loc 1 304 0
 850              		.cfi_startproc
 851              		@ args = 0, pretend = 0, frame = 16
 852              		@ frame_needed = 0, uses_anonymous_args = 0
 853 0000 00B5     		push	{lr}
 854              	.LCFI17:
 855              		.cfi_def_cfa_offset 4
 856              		.cfi_offset 14, -4
 857 0002 87B0     		sub	sp, sp, #28
 858              	.LCFI18:
 859              		.cfi_def_cfa_offset 32
 860              		.loc 1 306 0
 861 0004 4FF00003 		mov	r3, #0
 862 0008 0593     		str	r3, [sp, #20]
 863              		.loc 1 307 0
 864 000a 40F20003 		movw	r3, #:lower16:wa
 865 000e C0F20003 		movt	r3, #:upper16:wa
 866 0012 1B68     		ldr	r3, [r3, #0]
 867 0014 0493     		str	r3, [sp, #16]
 868              		.loc 1 308 0
ARM GAS  /tmp/cciE3hUa.s 			page 17


 869 0016 40F20003 		movw	r3, #:lower16:rlist
 870 001a C0F20003 		movt	r3, #:upper16:rlist
 871 001e 9B69     		ldr	r3, [r3, #24]
 872 0020 9B68     		ldr	r3, [r3, #8]
 873 0022 03F10103 		add	r3, r3, #1
 874 0026 0393     		str	r3, [sp, #12]
 875              		.loc 1 309 0
 876 0028 FFF7FEFF 		bl	test_wait_tick
 877              		.loc 1 310 0
 878 002c 4FF47A70 		mov	r0, #1000
 879 0030 FFF7FEFF 		bl	test_start_timer
 880              	.L20:
 881              		.loc 1 312 0 discriminator 1
 882 0034 4FF00003 		mov	r3, #0
 883 0038 0093     		str	r3, [sp, #0]
 884 003a 0498     		ldr	r0, [sp, #16]
 885 003c 4FF49871 		mov	r1, #304
 886 0040 039A     		ldr	r2, [sp, #12]
 887 0042 40F20003 		movw	r3, #:lower16:thread2
 888 0046 C0F20003 		movt	r3, #:upper16:thread2
 889 004a FFF7FEFF 		bl	chThdCreateStatic
 890              		.loc 1 313 0 discriminator 1
 891 004e 059B     		ldr	r3, [sp, #20]
 892 0050 03F10103 		add	r3, r3, #1
 893 0054 0593     		str	r3, [sp, #20]
 894              		.loc 1 317 0 discriminator 1
 895 0056 40F20003 		movw	r3, #:lower16:test_timer_done
 896 005a C0F20003 		movt	r3, #:upper16:test_timer_done
 897 005e 1B78     		ldrb	r3, [r3, #0]	@ zero_extendqisi2
 898 0060 83F00103 		eor	r3, r3, #1
 899 0064 DBB2     		uxtb	r3, r3
 900 0066 002B     		cmp	r3, #0
 901 0068 E4D1     		bne	.L20
 902              		.loc 1 318 0
 903 006a 40F20000 		movw	r0, #:lower16:.LC0
 904 006e C0F20000 		movt	r0, #:upper16:.LC0
 905 0072 FFF7FEFF 		bl	test_print
 906              		.loc 1 319 0
 907 0076 0598     		ldr	r0, [sp, #20]
 908 0078 FFF7FEFF 		bl	test_printn
 909              		.loc 1 320 0
 910 007c 40F20000 		movw	r0, #:lower16:.LC7
 911 0080 C0F20000 		movt	r0, #:upper16:.LC7
 912 0084 FFF7FEFF 		bl	test_println
 913              		.loc 1 321 0
 914 0088 07B0     		add	sp, sp, #28
 915 008a 00BD     		pop	{pc}
 916              		.cfi_endproc
 917              	.LFE16:
 918              		.size	bmk6_execute, .-bmk6_execute
 919              		.global	testbmk6
 920 008c AFF30080 		.section	.rodata
 921 00b7 00       		.align	2
 922              	.LC9:
 923 00b8 42656E63 		.ascii	"Benchmark, threads, create only\000"
 923      686D6172 
 923      6B2C2074 
ARM GAS  /tmp/cciE3hUa.s 			page 18


 923      68726561 
 923      64732C20 
 924              		.section	.rodata.testbmk6,"a",%progbits
 925              		.align	2
 926              		.type	testbmk6, %object
 927              		.size	testbmk6, 16
 928              	testbmk6:
 929 0000 B8000000 		.word	.LC9
 930 0004 00000000 		.word	0
 931 0008 00000000 		.word	0
 932 000c 00000000 		.word	bmk6_execute
 933              		.section	.text.thread3,"ax",%progbits
 934              		.align	2
 935              		.p2align 4,,15
 936              		.thumb
 937              		.thumb_func
 938              		.type	thread3, %function
 939              	thread3:
 940              	.LFB17:
 941              		.loc 1 341 0
 942              		.cfi_startproc
 943              		@ args = 0, pretend = 0, frame = 8
 944              		@ frame_needed = 0, uses_anonymous_args = 0
 945 0000 00B5     		push	{lr}
 946              	.LCFI19:
 947              		.cfi_def_cfa_offset 4
 948              		.cfi_offset 14, -4
 949 0002 83B0     		sub	sp, sp, #12
 950              	.LCFI20:
 951              		.cfi_def_cfa_offset 16
 952 0004 0190     		str	r0, [sp, #4]
 953              		.loc 1 344 0
 954 0006 05E0     		b	.L22
 955              	.L23:
 956              		.loc 1 345 0
 957 0008 40F20000 		movw	r0, #:lower16:sem1
 958 000c C0F20000 		movt	r0, #:upper16:sem1
 959 0010 FFF7FEFF 		bl	chSemWait
 960              	.L22:
 961              		.loc 1 344 0 discriminator 1
 962 0014 40F20003 		movw	r3, #:lower16:rlist
 963 0018 C0F20003 		movt	r3, #:upper16:rlist
 964 001c 9B69     		ldr	r3, [r3, #24]
 965 001e 93F82130 		ldrb	r3, [r3, #33]	@ zero_extendqisi2
 966 0022 03F00403 		and	r3, r3, #4
 967 0026 002B     		cmp	r3, #0
 968 0028 EED0     		beq	.L23
 969              		.loc 1 346 0
 970 002a 4FF00003 		mov	r3, #0
 971              		.loc 1 347 0
 972 002e 1846     		mov	r0, r3
 973 0030 03B0     		add	sp, sp, #12
 974 0032 00BD     		pop	{pc}
 975              		.cfi_endproc
 976              	.LFE17:
 977              		.size	thread3, .-thread3
 978 0034 AFF30080 		.section	.text.bmk7_setup,"ax",%progbits
ARM GAS  /tmp/cciE3hUa.s 			page 19


 978      AFF30080 
 978      AFF30080 
 979              		.align	2
 980              		.p2align 4,,15
 981              		.thumb
 982              		.thumb_func
 983              		.type	bmk7_setup, %function
 984              	bmk7_setup:
 985              	.LFB18:
 986              		.loc 1 349 0
 987              		.cfi_startproc
 988              		@ args = 0, pretend = 0, frame = 0
 989              		@ frame_needed = 0, uses_anonymous_args = 0
 990 0000 08B5     		push	{r3, lr}
 991              	.LCFI21:
 992              		.cfi_def_cfa_offset 8
 993              		.cfi_offset 3, -8
 994              		.cfi_offset 14, -4
 995              		.loc 1 351 0
 996 0002 40F20000 		movw	r0, #:lower16:sem1
 997 0006 C0F20000 		movt	r0, #:upper16:sem1
 998 000a 4FF00001 		mov	r1, #0
 999 000e FFF7FEFF 		bl	chSemInit
 1000              		.loc 1 352 0
 1001 0012 08BD     		pop	{r3, pc}
 1002              		.cfi_endproc
 1003              	.LFE18:
 1004              		.size	bmk7_setup, .-bmk7_setup
 1005 0014 AFF30080 		.section	.rodata
 1005      AFF30080 
 1005      AFF30080 
 1006              		.align	2
 1007              	.LC10:
 1008 00d8 20726573 		.ascii	" reschedules/S, \000"
 1008      63686564 
 1008      756C6573 
 1008      2F532C20 
 1008      00
 1009              		.section	.text.bmk7_execute,"ax",%progbits
 1010              		.align	2
 1011              		.p2align 4,,15
 1012              		.thumb
 1013              		.thumb_func
 1014              		.type	bmk7_execute, %function
 1015              	bmk7_execute:
 1016              	.LFB19:
 1017              		.loc 1 354 0
 1018              		.cfi_startproc
 1019              		@ args = 0, pretend = 0, frame = 8
 1020              		@ frame_needed = 0, uses_anonymous_args = 0
 1021 0000 00B5     		push	{lr}
 1022              	.LCFI22:
 1023              		.cfi_def_cfa_offset 4
 1024              		.cfi_offset 14, -4
 1025 0002 85B0     		sub	sp, sp, #20
 1026              	.LCFI23:
 1027              		.cfi_def_cfa_offset 24
ARM GAS  /tmp/cciE3hUa.s 			page 20


 1028              		.loc 1 357 0
 1029 0004 40F20003 		movw	r3, #:lower16:wa
 1030 0008 C0F20003 		movt	r3, #:upper16:wa
 1031 000c 1A68     		ldr	r2, [r3, #0]
 1032 000e 40F20003 		movw	r3, #:lower16:rlist
 1033 0012 C0F20003 		movt	r3, #:upper16:rlist
 1034 0016 9B69     		ldr	r3, [r3, #24]
 1035 0018 9B68     		ldr	r3, [r3, #8]
 1036 001a 03F10503 		add	r3, r3, #5
 1037 001e 4FF00001 		mov	r1, #0
 1038 0022 0091     		str	r1, [sp, #0]
 1039 0024 1046     		mov	r0, r2
 1040 0026 4FF49871 		mov	r1, #304
 1041 002a 1A46     		mov	r2, r3
 1042 002c 40F20003 		movw	r3, #:lower16:thread3
 1043 0030 C0F20003 		movt	r3, #:upper16:thread3
 1044 0034 FFF7FEFF 		bl	chThdCreateStatic
 1045 0038 0246     		mov	r2, r0
 1046 003a 40F20003 		movw	r3, #:lower16:threads
 1047 003e C0F20003 		movt	r3, #:upper16:threads
 1048 0042 1A60     		str	r2, [r3, #0]
 1049              		.loc 1 358 0
 1050 0044 40F20003 		movw	r3, #:lower16:wa
 1051 0048 C0F20003 		movt	r3, #:upper16:wa
 1052 004c 5A68     		ldr	r2, [r3, #4]
 1053 004e 40F20003 		movw	r3, #:lower16:rlist
 1054 0052 C0F20003 		movt	r3, #:upper16:rlist
 1055 0056 9B69     		ldr	r3, [r3, #24]
 1056 0058 9B68     		ldr	r3, [r3, #8]
 1057 005a 03F10403 		add	r3, r3, #4
 1058 005e 4FF00001 		mov	r1, #0
 1059 0062 0091     		str	r1, [sp, #0]
 1060 0064 1046     		mov	r0, r2
 1061 0066 4FF49871 		mov	r1, #304
 1062 006a 1A46     		mov	r2, r3
 1063 006c 40F20003 		movw	r3, #:lower16:thread3
 1064 0070 C0F20003 		movt	r3, #:upper16:thread3
 1065 0074 FFF7FEFF 		bl	chThdCreateStatic
 1066 0078 0246     		mov	r2, r0
 1067 007a 40F20003 		movw	r3, #:lower16:threads
 1068 007e C0F20003 		movt	r3, #:upper16:threads
 1069 0082 5A60     		str	r2, [r3, #4]
 1070              		.loc 1 359 0
 1071 0084 40F20003 		movw	r3, #:lower16:wa
 1072 0088 C0F20003 		movt	r3, #:upper16:wa
 1073 008c 9A68     		ldr	r2, [r3, #8]
 1074 008e 40F20003 		movw	r3, #:lower16:rlist
 1075 0092 C0F20003 		movt	r3, #:upper16:rlist
 1076 0096 9B69     		ldr	r3, [r3, #24]
 1077 0098 9B68     		ldr	r3, [r3, #8]
 1078 009a 03F10303 		add	r3, r3, #3
 1079 009e 4FF00001 		mov	r1, #0
 1080 00a2 0091     		str	r1, [sp, #0]
 1081 00a4 1046     		mov	r0, r2
 1082 00a6 4FF49871 		mov	r1, #304
 1083 00aa 1A46     		mov	r2, r3
 1084 00ac 40F20003 		movw	r3, #:lower16:thread3
ARM GAS  /tmp/cciE3hUa.s 			page 21


 1085 00b0 C0F20003 		movt	r3, #:upper16:thread3
 1086 00b4 FFF7FEFF 		bl	chThdCreateStatic
 1087 00b8 0246     		mov	r2, r0
 1088 00ba 40F20003 		movw	r3, #:lower16:threads
 1089 00be C0F20003 		movt	r3, #:upper16:threads
 1090 00c2 9A60     		str	r2, [r3, #8]
 1091              		.loc 1 360 0
 1092 00c4 40F20003 		movw	r3, #:lower16:wa
 1093 00c8 C0F20003 		movt	r3, #:upper16:wa
 1094 00cc DA68     		ldr	r2, [r3, #12]
 1095 00ce 40F20003 		movw	r3, #:lower16:rlist
 1096 00d2 C0F20003 		movt	r3, #:upper16:rlist
 1097 00d6 9B69     		ldr	r3, [r3, #24]
 1098 00d8 9B68     		ldr	r3, [r3, #8]
 1099 00da 03F10203 		add	r3, r3, #2
 1100 00de 4FF00001 		mov	r1, #0
 1101 00e2 0091     		str	r1, [sp, #0]
 1102 00e4 1046     		mov	r0, r2
 1103 00e6 4FF49871 		mov	r1, #304
 1104 00ea 1A46     		mov	r2, r3
 1105 00ec 40F20003 		movw	r3, #:lower16:thread3
 1106 00f0 C0F20003 		movt	r3, #:upper16:thread3
 1107 00f4 FFF7FEFF 		bl	chThdCreateStatic
 1108 00f8 0246     		mov	r2, r0
 1109 00fa 40F20003 		movw	r3, #:lower16:threads
 1110 00fe C0F20003 		movt	r3, #:upper16:threads
 1111 0102 DA60     		str	r2, [r3, #12]
 1112              		.loc 1 361 0
 1113 0104 40F20003 		movw	r3, #:lower16:wa
 1114 0108 C0F20003 		movt	r3, #:upper16:wa
 1115 010c 1A69     		ldr	r2, [r3, #16]
 1116 010e 40F20003 		movw	r3, #:lower16:rlist
 1117 0112 C0F20003 		movt	r3, #:upper16:rlist
 1118 0116 9B69     		ldr	r3, [r3, #24]
 1119 0118 9B68     		ldr	r3, [r3, #8]
 1120 011a 03F10103 		add	r3, r3, #1
 1121 011e 4FF00001 		mov	r1, #0
 1122 0122 0091     		str	r1, [sp, #0]
 1123 0124 1046     		mov	r0, r2
 1124 0126 4FF49871 		mov	r1, #304
 1125 012a 1A46     		mov	r2, r3
 1126 012c 40F20003 		movw	r3, #:lower16:thread3
 1127 0130 C0F20003 		movt	r3, #:upper16:thread3
 1128 0134 FFF7FEFF 		bl	chThdCreateStatic
 1129 0138 0246     		mov	r2, r0
 1130 013a 40F20003 		movw	r3, #:lower16:threads
 1131 013e C0F20003 		movt	r3, #:upper16:threads
 1132 0142 1A61     		str	r2, [r3, #16]
 1133              		.loc 1 363 0
 1134 0144 4FF00003 		mov	r3, #0
 1135 0148 0393     		str	r3, [sp, #12]
 1136              		.loc 1 364 0
 1137 014a FFF7FEFF 		bl	test_wait_tick
 1138              		.loc 1 365 0
 1139 014e 4FF47A70 		mov	r0, #1000
 1140 0152 FFF7FEFF 		bl	test_start_timer
 1141              	.L27:
ARM GAS  /tmp/cciE3hUa.s 			page 22


 1142              		.loc 1 367 0 discriminator 1
 1143 0156 40F20000 		movw	r0, #:lower16:sem1
 1144 015a C0F20000 		movt	r0, #:upper16:sem1
 1145 015e 4FF00001 		mov	r1, #0
 1146 0162 FFF7FEFF 		bl	chSemReset
 1147              		.loc 1 368 0 discriminator 1
 1148 0166 039B     		ldr	r3, [sp, #12]
 1149 0168 03F10103 		add	r3, r3, #1
 1150 016c 0393     		str	r3, [sp, #12]
 1151              		.loc 1 372 0 discriminator 1
 1152 016e 40F20003 		movw	r3, #:lower16:test_timer_done
 1153 0172 C0F20003 		movt	r3, #:upper16:test_timer_done
 1154 0176 1B78     		ldrb	r3, [r3, #0]	@ zero_extendqisi2
 1155 0178 83F00103 		eor	r3, r3, #1
 1156 017c DBB2     		uxtb	r3, r3
 1157 017e 002B     		cmp	r3, #0
 1158 0180 E9D1     		bne	.L27
 1159              		.loc 1 373 0
 1160 0182 FFF7FEFF 		bl	test_terminate_threads
 1161              		.loc 1 374 0
 1162 0186 40F20000 		movw	r0, #:lower16:sem1
 1163 018a C0F20000 		movt	r0, #:upper16:sem1
 1164 018e 4FF00001 		mov	r1, #0
 1165 0192 FFF7FEFF 		bl	chSemReset
 1166              		.loc 1 375 0
 1167 0196 FFF7FEFF 		bl	test_wait_threads
 1168              		.loc 1 377 0
 1169 019a 40F20000 		movw	r0, #:lower16:.LC0
 1170 019e C0F20000 		movt	r0, #:upper16:.LC0
 1171 01a2 FFF7FEFF 		bl	test_print
 1172              		.loc 1 378 0
 1173 01a6 0398     		ldr	r0, [sp, #12]
 1174 01a8 FFF7FEFF 		bl	test_printn
 1175              		.loc 1 379 0
 1176 01ac 40F20000 		movw	r0, #:lower16:.LC10
 1177 01b0 C0F20000 		movt	r0, #:upper16:.LC10
 1178 01b4 FFF7FEFF 		bl	test_print
 1179              		.loc 1 380 0
 1180 01b8 039A     		ldr	r2, [sp, #12]
 1181 01ba 1346     		mov	r3, r2
 1182 01bc 4FEA4303 		lsl	r3, r3, #1
 1183 01c0 9B18     		adds	r3, r3, r2
 1184 01c2 4FEA4303 		lsl	r3, r3, #1
 1185 01c6 1846     		mov	r0, r3
 1186 01c8 FFF7FEFF 		bl	test_printn
 1187              		.loc 1 381 0
 1188 01cc 40F20000 		movw	r0, #:lower16:.LC2
 1189 01d0 C0F20000 		movt	r0, #:upper16:.LC2
 1190 01d4 FFF7FEFF 		bl	test_println
 1191              		.loc 1 382 0
 1192 01d8 05B0     		add	sp, sp, #20
 1193 01da 00BD     		pop	{pc}
 1194              		.cfi_endproc
 1195              	.LFE19:
 1196              		.size	bmk7_execute, .-bmk7_execute
 1197              		.global	testbmk7
 1198 01dc AFF30080 		.section	.rodata
ARM GAS  /tmp/cciE3hUa.s 			page 23


 1199 00e9 000000   		.align	2
 1200              	.LC11:
 1201 00ec 42656E63 		.ascii	"Benchmark, mass reschedule, 5 threads\000"
 1201      686D6172 
 1201      6B2C206D 
 1201      61737320 
 1201      72657363 
 1202              		.section	.rodata.testbmk7,"a",%progbits
 1203              		.align	2
 1204              		.type	testbmk7, %object
 1205              		.size	testbmk7, 16
 1206              	testbmk7:
 1207 0000 EC000000 		.word	.LC11
 1208 0004 00000000 		.word	bmk7_setup
 1209 0008 00000000 		.word	0
 1210 000c 00000000 		.word	bmk7_execute
 1211              		.section	.text.thread8,"ax",%progbits
 1212              		.align	2
 1213              		.p2align 4,,15
 1214              		.thumb
 1215              		.thumb_func
 1216              		.type	thread8, %function
 1217              	thread8:
 1218              	.LFB20:
 1219              		.loc 1 401 0
 1220              		.cfi_startproc
 1221              		@ args = 0, pretend = 0, frame = 8
 1222              		@ frame_needed = 0, uses_anonymous_args = 0
 1223 0000 00B5     		push	{lr}
 1224              	.LCFI24:
 1225              		.cfi_def_cfa_offset 4
 1226              		.cfi_offset 14, -4
 1227 0002 83B0     		sub	sp, sp, #12
 1228              	.LCFI25:
 1229              		.cfi_def_cfa_offset 16
 1230 0004 0190     		str	r0, [sp, #4]
 1231              	.L29:
 1232              		.loc 1 404 0 discriminator 1
 1233 0006 FFF7FEFF 		bl	chThdYield
 1234              		.loc 1 405 0 discriminator 1
 1235 000a FFF7FEFF 		bl	chThdYield
 1236              		.loc 1 406 0 discriminator 1
 1237 000e FFF7FEFF 		bl	chThdYield
 1238              		.loc 1 407 0 discriminator 1
 1239 0012 FFF7FEFF 		bl	chThdYield
 1240              		.loc 1 408 0 discriminator 1
 1241 0016 019B     		ldr	r3, [sp, #4]
 1242 0018 1B68     		ldr	r3, [r3, #0]
 1243 001a 03F10402 		add	r2, r3, #4
 1244 001e 019B     		ldr	r3, [sp, #4]
 1245 0020 1A60     		str	r2, [r3, #0]
 1246              		.loc 1 412 0 discriminator 1
 1247 0022 40F20003 		movw	r3, #:lower16:rlist
 1248 0026 C0F20003 		movt	r3, #:upper16:rlist
 1249 002a 9B69     		ldr	r3, [r3, #24]
 1250 002c 93F82130 		ldrb	r3, [r3, #33]	@ zero_extendqisi2
 1251 0030 03F00403 		and	r3, r3, #4
ARM GAS  /tmp/cciE3hUa.s 			page 24


 1252 0034 002B     		cmp	r3, #0
 1253 0036 E6D0     		beq	.L29
 1254              		.loc 1 413 0
 1255 0038 4FF00003 		mov	r3, #0
 1256              		.loc 1 414 0
 1257 003c 1846     		mov	r0, r3
 1258 003e 03B0     		add	sp, sp, #12
 1259 0040 00BD     		pop	{pc}
 1260              		.cfi_endproc
 1261              	.LFE20:
 1262              		.size	thread8, .-thread8
 1263 0042 00BFAFF3 		.section	.text.bmk8_execute,"ax",%progbits
 1263      0080AFF3 
 1263      0080AFF3 
 1263      0080
 1264              		.align	2
 1265              		.p2align 4,,15
 1266              		.thumb
 1267              		.thumb_func
 1268              		.type	bmk8_execute, %function
 1269              	bmk8_execute:
 1270              	.LFB21:
 1271              		.loc 1 416 0
 1272              		.cfi_startproc
 1273              		@ args = 0, pretend = 0, frame = 8
 1274              		@ frame_needed = 0, uses_anonymous_args = 0
 1275 0000 00B5     		push	{lr}
 1276              	.LCFI26:
 1277              		.cfi_def_cfa_offset 4
 1278              		.cfi_offset 14, -4
 1279 0002 85B0     		sub	sp, sp, #20
 1280              	.LCFI27:
 1281              		.cfi_def_cfa_offset 24
 1282              		.loc 1 419 0
 1283 0004 4FF00003 		mov	r3, #0
 1284 0008 0393     		str	r3, [sp, #12]
 1285              		.loc 1 420 0
 1286 000a FFF7FEFF 		bl	test_wait_tick
 1287              		.loc 1 422 0
 1288 000e 40F20003 		movw	r3, #:lower16:wa
 1289 0012 C0F20003 		movt	r3, #:upper16:wa
 1290 0016 1A68     		ldr	r2, [r3, #0]
 1291 0018 40F20003 		movw	r3, #:lower16:rlist
 1292 001c C0F20003 		movt	r3, #:upper16:rlist
 1293 0020 9B69     		ldr	r3, [r3, #24]
 1294 0022 9B68     		ldr	r3, [r3, #8]
 1295 0024 03F1FF33 		add	r3, r3, #-1
 1296 0028 03A9     		add	r1, sp, #12
 1297 002a 0091     		str	r1, [sp, #0]
 1298 002c 1046     		mov	r0, r2
 1299 002e 4FF49871 		mov	r1, #304
 1300 0032 1A46     		mov	r2, r3
 1301 0034 40F20003 		movw	r3, #:lower16:thread8
 1302 0038 C0F20003 		movt	r3, #:upper16:thread8
 1303 003c FFF7FEFF 		bl	chThdCreateStatic
 1304 0040 0246     		mov	r2, r0
 1305 0042 40F20003 		movw	r3, #:lower16:threads
ARM GAS  /tmp/cciE3hUa.s 			page 25


 1306 0046 C0F20003 		movt	r3, #:upper16:threads
 1307 004a 1A60     		str	r2, [r3, #0]
 1308              		.loc 1 423 0
 1309 004c 40F20003 		movw	r3, #:lower16:wa
 1310 0050 C0F20003 		movt	r3, #:upper16:wa
 1311 0054 5A68     		ldr	r2, [r3, #4]
 1312 0056 40F20003 		movw	r3, #:lower16:rlist
 1313 005a C0F20003 		movt	r3, #:upper16:rlist
 1314 005e 9B69     		ldr	r3, [r3, #24]
 1315 0060 9B68     		ldr	r3, [r3, #8]
 1316 0062 03F1FF33 		add	r3, r3, #-1
 1317 0066 03A9     		add	r1, sp, #12
 1318 0068 0091     		str	r1, [sp, #0]
 1319 006a 1046     		mov	r0, r2
 1320 006c 4FF49871 		mov	r1, #304
 1321 0070 1A46     		mov	r2, r3
 1322 0072 40F20003 		movw	r3, #:lower16:thread8
 1323 0076 C0F20003 		movt	r3, #:upper16:thread8
 1324 007a FFF7FEFF 		bl	chThdCreateStatic
 1325 007e 0246     		mov	r2, r0
 1326 0080 40F20003 		movw	r3, #:lower16:threads
 1327 0084 C0F20003 		movt	r3, #:upper16:threads
 1328 0088 5A60     		str	r2, [r3, #4]
 1329              		.loc 1 424 0
 1330 008a 40F20003 		movw	r3, #:lower16:wa
 1331 008e C0F20003 		movt	r3, #:upper16:wa
 1332 0092 9A68     		ldr	r2, [r3, #8]
 1333 0094 40F20003 		movw	r3, #:lower16:rlist
 1334 0098 C0F20003 		movt	r3, #:upper16:rlist
 1335 009c 9B69     		ldr	r3, [r3, #24]
 1336 009e 9B68     		ldr	r3, [r3, #8]
 1337 00a0 03F1FF33 		add	r3, r3, #-1
 1338 00a4 03A9     		add	r1, sp, #12
 1339 00a6 0091     		str	r1, [sp, #0]
 1340 00a8 1046     		mov	r0, r2
 1341 00aa 4FF49871 		mov	r1, #304
 1342 00ae 1A46     		mov	r2, r3
 1343 00b0 40F20003 		movw	r3, #:lower16:thread8
 1344 00b4 C0F20003 		movt	r3, #:upper16:thread8
 1345 00b8 FFF7FEFF 		bl	chThdCreateStatic
 1346 00bc 0246     		mov	r2, r0
 1347 00be 40F20003 		movw	r3, #:lower16:threads
 1348 00c2 C0F20003 		movt	r3, #:upper16:threads
 1349 00c6 9A60     		str	r2, [r3, #8]
 1350              		.loc 1 425 0
 1351 00c8 40F20003 		movw	r3, #:lower16:wa
 1352 00cc C0F20003 		movt	r3, #:upper16:wa
 1353 00d0 DA68     		ldr	r2, [r3, #12]
 1354 00d2 40F20003 		movw	r3, #:lower16:rlist
 1355 00d6 C0F20003 		movt	r3, #:upper16:rlist
 1356 00da 9B69     		ldr	r3, [r3, #24]
 1357 00dc 9B68     		ldr	r3, [r3, #8]
 1358 00de 03F1FF33 		add	r3, r3, #-1
 1359 00e2 03A9     		add	r1, sp, #12
 1360 00e4 0091     		str	r1, [sp, #0]
 1361 00e6 1046     		mov	r0, r2
 1362 00e8 4FF49871 		mov	r1, #304
ARM GAS  /tmp/cciE3hUa.s 			page 26


 1363 00ec 1A46     		mov	r2, r3
 1364 00ee 40F20003 		movw	r3, #:lower16:thread8
 1365 00f2 C0F20003 		movt	r3, #:upper16:thread8
 1366 00f6 FFF7FEFF 		bl	chThdCreateStatic
 1367 00fa 0246     		mov	r2, r0
 1368 00fc 40F20003 		movw	r3, #:lower16:threads
 1369 0100 C0F20003 		movt	r3, #:upper16:threads
 1370 0104 DA60     		str	r2, [r3, #12]
 1371              		.loc 1 426 0
 1372 0106 40F20003 		movw	r3, #:lower16:wa
 1373 010a C0F20003 		movt	r3, #:upper16:wa
 1374 010e 1A69     		ldr	r2, [r3, #16]
 1375 0110 40F20003 		movw	r3, #:lower16:rlist
 1376 0114 C0F20003 		movt	r3, #:upper16:rlist
 1377 0118 9B69     		ldr	r3, [r3, #24]
 1378 011a 9B68     		ldr	r3, [r3, #8]
 1379 011c 03F1FF33 		add	r3, r3, #-1
 1380 0120 03A9     		add	r1, sp, #12
 1381 0122 0091     		str	r1, [sp, #0]
 1382 0124 1046     		mov	r0, r2
 1383 0126 4FF49871 		mov	r1, #304
 1384 012a 1A46     		mov	r2, r3
 1385 012c 40F20003 		movw	r3, #:lower16:thread8
 1386 0130 C0F20003 		movt	r3, #:upper16:thread8
 1387 0134 FFF7FEFF 		bl	chThdCreateStatic
 1388 0138 0246     		mov	r2, r0
 1389 013a 40F20003 		movw	r3, #:lower16:threads
 1390 013e C0F20003 		movt	r3, #:upper16:threads
 1391 0142 1A61     		str	r2, [r3, #16]
 1392              		.loc 1 428 0
 1393 0144 4FF47A70 		mov	r0, #1000
 1394 0148 FFF7FEFF 		bl	chThdSleep
 1395              		.loc 1 429 0
 1396 014c FFF7FEFF 		bl	test_terminate_threads
 1397              		.loc 1 430 0
 1398 0150 FFF7FEFF 		bl	test_wait_threads
 1399              		.loc 1 432 0
 1400 0154 40F20000 		movw	r0, #:lower16:.LC0
 1401 0158 C0F20000 		movt	r0, #:upper16:.LC0
 1402 015c FFF7FEFF 		bl	test_print
 1403              		.loc 1 433 0
 1404 0160 039B     		ldr	r3, [sp, #12]
 1405 0162 1846     		mov	r0, r3
 1406 0164 FFF7FEFF 		bl	test_printn
 1407              		.loc 1 434 0
 1408 0168 40F20000 		movw	r0, #:lower16:.LC2
 1409 016c C0F20000 		movt	r0, #:upper16:.LC2
 1410 0170 FFF7FEFF 		bl	test_println
 1411              		.loc 1 435 0
 1412 0174 05B0     		add	sp, sp, #20
 1413 0176 00BD     		pop	{pc}
 1414              		.cfi_endproc
 1415              	.LFE21:
 1416              		.size	bmk8_execute, .-bmk8_execute
 1417              		.global	testbmk8
 1418 0178 AFF30080 		.section	.rodata
 1418      AFF30080 
ARM GAS  /tmp/cciE3hUa.s 			page 27


 1419 0112 0000     		.align	2
 1420              	.LC12:
 1421 0114 42656E63 		.ascii	"Benchmark, round robin context switching\000"
 1421      686D6172 
 1421      6B2C2072 
 1421      6F756E64 
 1421      20726F62 
 1422              		.section	.rodata.testbmk8,"a",%progbits
 1423              		.align	2
 1424              		.type	testbmk8, %object
 1425              		.size	testbmk8, 16
 1426              	testbmk8:
 1427 0000 14010000 		.word	.LC12
 1428 0004 00000000 		.word	0
 1429 0008 00000000 		.word	0
 1430 000c 00000000 		.word	bmk8_execute
 1431              		.section	.rodata
 1432 013d 000000   		.align	2
 1433              	.LC13:
 1434 0140 20627974 		.ascii	" bytes/S\000"
 1434      65732F53 
 1434      00
 1435              		.section	.text.bmk9_execute,"ax",%progbits
 1436              		.align	2
 1437              		.p2align 4,,15
 1438              		.thumb
 1439              		.thumb_func
 1440              		.type	bmk9_execute, %function
 1441              	bmk9_execute:
 1442              	.LFB22:
 1443              		.loc 1 455 0
 1444              		.cfi_startproc
 1445              		@ args = 0, pretend = 0, frame = 8
 1446              		@ frame_needed = 0, uses_anonymous_args = 0
 1447 0000 00B5     		push	{lr}
 1448              	.LCFI28:
 1449              		.cfi_def_cfa_offset 4
 1450              		.cfi_offset 14, -4
 1451 0002 85B0     		sub	sp, sp, #20
 1452              	.LCFI29:
 1453              		.cfi_def_cfa_offset 24
 1454              		.loc 1 460 0
 1455 0004 4FF00003 		mov	r3, #0
 1456 0008 0093     		str	r3, [sp, #0]
 1457 000a 40F20000 		movw	r0, #:lower16:iq.4972
 1458 000e C0F20000 		movt	r0, #:upper16:iq.4972
 1459 0012 40F20001 		movw	r1, #:lower16:ib.4971
 1460 0016 C0F20001 		movt	r1, #:upper16:ib.4971
 1461 001a 4FF01002 		mov	r2, #16
 1462 001e 4FF00003 		mov	r3, #0
 1463 0022 FFF7FEFF 		bl	chIQInit
 1464              		.loc 1 461 0
 1465 0026 4FF00003 		mov	r3, #0
 1466 002a 0393     		str	r3, [sp, #12]
 1467              		.loc 1 462 0
 1468 002c FFF7FEFF 		bl	test_wait_tick
 1469              		.loc 1 463 0
ARM GAS  /tmp/cciE3hUa.s 			page 28


 1470 0030 4FF47A70 		mov	r0, #1000
 1471 0034 FFF7FEFF 		bl	test_start_timer
 1472              	.L33:
 1473              	.LBB8:
 1474              		.loc 1 465 0 discriminator 1
 1475 0038 4FF02003 		mov	r3, #32
 1476              	@ 465 "../../test/testbmk.c" 1
 1477 003c 83F31188 		msr     BASEPRI, r3
 1478              	@ 0 "" 2
 1479              		.thumb
 1480              	.LBE8:
 1481 0040 FFF7FEFF 		bl	dbg_check_lock
 1482              		.loc 1 466 0 discriminator 1
 1483 0044 40F20000 		movw	r0, #:lower16:iq.4972
 1484 0048 C0F20000 		movt	r0, #:upper16:iq.4972
 1485 004c 4FF00001 		mov	r1, #0
 1486 0050 FFF7FEFF 		bl	chIQPutI
 1487              		.loc 1 467 0 discriminator 1
 1488 0054 40F20000 		movw	r0, #:lower16:iq.4972
 1489 0058 C0F20000 		movt	r0, #:upper16:iq.4972
 1490 005c 4FF00101 		mov	r1, #1
 1491 0060 FFF7FEFF 		bl	chIQPutI
 1492              		.loc 1 468 0 discriminator 1
 1493 0064 40F20000 		movw	r0, #:lower16:iq.4972
 1494 0068 C0F20000 		movt	r0, #:upper16:iq.4972
 1495 006c 4FF00201 		mov	r1, #2
 1496 0070 FFF7FEFF 		bl	chIQPutI
 1497              		.loc 1 469 0 discriminator 1
 1498 0074 40F20000 		movw	r0, #:lower16:iq.4972
 1499 0078 C0F20000 		movt	r0, #:upper16:iq.4972
 1500 007c 4FF00301 		mov	r1, #3
 1501 0080 FFF7FEFF 		bl	chIQPutI
 1502              		.loc 1 470 0 discriminator 1
 1503 0084 FFF7FEFF 		bl	dbg_check_unlock
 1504              	.LBB9:
 1505 0088 4FF00003 		mov	r3, #0
 1506              	@ 470 "../../test/testbmk.c" 1
 1507 008c 83F31188 		msr     BASEPRI, r3
 1508              	@ 0 "" 2
 1509              		.thumb
 1510              	.LBE9:
 1511              		.loc 1 471 0 discriminator 1
 1512 0090 40F20000 		movw	r0, #:lower16:iq.4972
 1513 0094 C0F20000 		movt	r0, #:upper16:iq.4972
 1514 0098 4FF0FF31 		mov	r1, #-1
 1515 009c FFF7FEFF 		bl	chIQGetTimeout
 1516              		.loc 1 472 0 discriminator 1
 1517 00a0 40F20000 		movw	r0, #:lower16:iq.4972
 1518 00a4 C0F20000 		movt	r0, #:upper16:iq.4972
 1519 00a8 4FF0FF31 		mov	r1, #-1
 1520 00ac FFF7FEFF 		bl	chIQGetTimeout
 1521              		.loc 1 473 0 discriminator 1
 1522 00b0 40F20000 		movw	r0, #:lower16:iq.4972
 1523 00b4 C0F20000 		movt	r0, #:upper16:iq.4972
 1524 00b8 4FF0FF31 		mov	r1, #-1
 1525 00bc FFF7FEFF 		bl	chIQGetTimeout
 1526              		.loc 1 474 0 discriminator 1
ARM GAS  /tmp/cciE3hUa.s 			page 29


 1527 00c0 40F20000 		movw	r0, #:lower16:iq.4972
 1528 00c4 C0F20000 		movt	r0, #:upper16:iq.4972
 1529 00c8 4FF0FF31 		mov	r1, #-1
 1530 00cc FFF7FEFF 		bl	chIQGetTimeout
 1531              		.loc 1 475 0 discriminator 1
 1532 00d0 039B     		ldr	r3, [sp, #12]
 1533 00d2 03F10103 		add	r3, r3, #1
 1534 00d6 0393     		str	r3, [sp, #12]
 1535              		.loc 1 479 0 discriminator 1
 1536 00d8 40F20003 		movw	r3, #:lower16:test_timer_done
 1537 00dc C0F20003 		movt	r3, #:upper16:test_timer_done
 1538 00e0 1B78     		ldrb	r3, [r3, #0]	@ zero_extendqisi2
 1539 00e2 83F00103 		eor	r3, r3, #1
 1540 00e6 DBB2     		uxtb	r3, r3
 1541 00e8 002B     		cmp	r3, #0
 1542 00ea A5D1     		bne	.L33
 1543              		.loc 1 480 0
 1544 00ec 40F20000 		movw	r0, #:lower16:.LC0
 1545 00f0 C0F20000 		movt	r0, #:upper16:.LC0
 1546 00f4 FFF7FEFF 		bl	test_print
 1547              		.loc 1 481 0
 1548 00f8 039B     		ldr	r3, [sp, #12]
 1549 00fa 4FEA8303 		lsl	r3, r3, #2
 1550 00fe 1846     		mov	r0, r3
 1551 0100 FFF7FEFF 		bl	test_printn
 1552              		.loc 1 482 0
 1553 0104 40F20000 		movw	r0, #:lower16:.LC13
 1554 0108 C0F20000 		movt	r0, #:upper16:.LC13
 1555 010c FFF7FEFF 		bl	test_println
 1556              		.loc 1 483 0
 1557 0110 05B0     		add	sp, sp, #20
 1558 0112 00BD     		pop	{pc}
 1559              		.cfi_endproc
 1560              	.LFE22:
 1561              		.size	bmk9_execute, .-bmk9_execute
 1562              		.global	testbmk9
 1563 0114 AFF30080 		.section	.rodata
 1563      AFF30080 
 1563      AFF30080 
 1564 0149 000000   		.align	2
 1565              	.LC14:
 1566 014c 42656E63 		.ascii	"Benchmark, I/O Queues throughput\000"
 1566      686D6172 
 1566      6B2C2049 
 1566      2F4F2051 
 1566      75657565 
 1567              		.section	.rodata.testbmk9,"a",%progbits
 1568              		.align	2
 1569              		.type	testbmk9, %object
 1570              		.size	testbmk9, 16
 1571              	testbmk9:
 1572 0000 4C010000 		.word	.LC14
 1573 0004 00000000 		.word	0
 1574 0008 00000000 		.word	0
 1575 000c 00000000 		.word	bmk9_execute
 1576              		.section	.text.tmo,"ax",%progbits
 1577              		.align	2
ARM GAS  /tmp/cciE3hUa.s 			page 30


 1578              		.p2align 4,,15
 1579              		.thumb
 1580              		.thumb_func
 1581              		.type	tmo, %function
 1582              	tmo:
 1583              	.LFB23:
 1584              		.loc 1 502 0
 1585              		.cfi_startproc
 1586              		@ args = 0, pretend = 0, frame = 8
 1587              		@ frame_needed = 0, uses_anonymous_args = 0
 1588              		@ link register save eliminated.
 1589 0000 82B0     		sub	sp, sp, #8
 1590              	.LCFI30:
 1591              		.cfi_def_cfa_offset 8
 1592 0002 0190     		str	r0, [sp, #4]
 1593              		.loc 1 502 0
 1594 0004 02B0     		add	sp, sp, #8
 1595 0006 7047     		bx	lr
 1596              		.cfi_endproc
 1597              	.LFE23:
 1598              		.size	tmo, .-tmo
 1599 0008 AFF30080 		.section	.rodata
 1599      AFF30080 
 1600 016d 000000   		.align	2
 1601              	.LC15:
 1602 0170 2074696D 		.ascii	" timers/S\000"
 1602      6572732F 
 1602      5300
 1603              		.section	.text.bmk10_execute,"ax",%progbits
 1604              		.align	2
 1605              		.p2align 4,,15
 1606              		.thumb
 1607              		.thumb_func
 1608              		.type	bmk10_execute, %function
 1609              	bmk10_execute:
 1610              	.LFB24:
 1611              		.loc 1 504 0
 1612              		.cfi_startproc
 1613              		@ args = 0, pretend = 0, frame = 8
 1614              		@ frame_needed = 0, uses_anonymous_args = 0
 1615 0000 00B5     		push	{lr}
 1616              	.LCFI31:
 1617              		.cfi_def_cfa_offset 4
 1618              		.cfi_offset 14, -4
 1619 0002 83B0     		sub	sp, sp, #12
 1620              	.LCFI32:
 1621              		.cfi_def_cfa_offset 16
 1622              		.loc 1 506 0
 1623 0004 4FF00003 		mov	r3, #0
 1624 0008 0193     		str	r3, [sp, #4]
 1625              		.loc 1 508 0
 1626 000a FFF7FEFF 		bl	test_wait_tick
 1627              		.loc 1 509 0
 1628 000e 4FF47A70 		mov	r0, #1000
 1629 0012 FFF7FEFF 		bl	test_start_timer
 1630              	.L36:
 1631              	.LBB10:
ARM GAS  /tmp/cciE3hUa.s 			page 31


 1632              		.loc 1 511 0 discriminator 1
 1633 0016 4FF02003 		mov	r3, #32
 1634              	@ 511 "../../test/testbmk.c" 1
 1635 001a 83F31188 		msr     BASEPRI, r3
 1636              	@ 0 "" 2
 1637              		.thumb
 1638              	.LBE10:
 1639 001e FFF7FEFF 		bl	dbg_check_lock
 1640              		.loc 1 512 0 discriminator 1
 1641 0022 40F20000 		movw	r0, #:lower16:vt1.4984
 1642 0026 C0F20000 		movt	r0, #:upper16:vt1.4984
 1643 002a 4FF00101 		mov	r1, #1
 1644 002e 40F20002 		movw	r2, #:lower16:tmo
 1645 0032 C0F20002 		movt	r2, #:upper16:tmo
 1646 0036 4FF00003 		mov	r3, #0
 1647 003a FFF7FEFF 		bl	chVTSetI
 1648              		.loc 1 513 0 discriminator 1
 1649 003e 40F20000 		movw	r0, #:lower16:vt2.4985
 1650 0042 C0F20000 		movt	r0, #:upper16:vt2.4985
 1651 0046 42F21071 		movw	r1, #10000
 1652 004a 40F20002 		movw	r2, #:lower16:tmo
 1653 004e C0F20002 		movt	r2, #:upper16:tmo
 1654 0052 4FF00003 		mov	r3, #0
 1655 0056 FFF7FEFF 		bl	chVTSetI
 1656              		.loc 1 514 0 discriminator 1
 1657 005a 40F20000 		movw	r0, #:lower16:vt1.4984
 1658 005e C0F20000 		movt	r0, #:upper16:vt1.4984
 1659 0062 FFF7FEFF 		bl	chVTResetI
 1660              		.loc 1 515 0 discriminator 1
 1661 0066 40F20000 		movw	r0, #:lower16:vt2.4985
 1662 006a C0F20000 		movt	r0, #:upper16:vt2.4985
 1663 006e FFF7FEFF 		bl	chVTResetI
 1664              		.loc 1 516 0 discriminator 1
 1665 0072 FFF7FEFF 		bl	dbg_check_unlock
 1666              	.LBB11:
 1667 0076 4FF00003 		mov	r3, #0
 1668              	@ 516 "../../test/testbmk.c" 1
 1669 007a 83F31188 		msr     BASEPRI, r3
 1670              	@ 0 "" 2
 1671              		.thumb
 1672              	.LBE11:
 1673              		.loc 1 517 0 discriminator 1
 1674 007e 019B     		ldr	r3, [sp, #4]
 1675 0080 03F10103 		add	r3, r3, #1
 1676 0084 0193     		str	r3, [sp, #4]
 1677              		.loc 1 521 0 discriminator 1
 1678 0086 40F20003 		movw	r3, #:lower16:test_timer_done
 1679 008a C0F20003 		movt	r3, #:upper16:test_timer_done
 1680 008e 1B78     		ldrb	r3, [r3, #0]	@ zero_extendqisi2
 1681 0090 83F00103 		eor	r3, r3, #1
 1682 0094 DBB2     		uxtb	r3, r3
 1683 0096 002B     		cmp	r3, #0
 1684 0098 BDD1     		bne	.L36
 1685              		.loc 1 522 0
 1686 009a 40F20000 		movw	r0, #:lower16:.LC0
 1687 009e C0F20000 		movt	r0, #:upper16:.LC0
 1688 00a2 FFF7FEFF 		bl	test_print
ARM GAS  /tmp/cciE3hUa.s 			page 32


 1689              		.loc 1 523 0
 1690 00a6 019B     		ldr	r3, [sp, #4]
 1691 00a8 4FEA4303 		lsl	r3, r3, #1
 1692 00ac 1846     		mov	r0, r3
 1693 00ae FFF7FEFF 		bl	test_printn
 1694              		.loc 1 524 0
 1695 00b2 40F20000 		movw	r0, #:lower16:.LC15
 1696 00b6 C0F20000 		movt	r0, #:upper16:.LC15
 1697 00ba FFF7FEFF 		bl	test_println
 1698              		.loc 1 525 0
 1699 00be 03B0     		add	sp, sp, #12
 1700 00c0 00BD     		pop	{pc}
 1701              		.cfi_endproc
 1702              	.LFE24:
 1703              		.size	bmk10_execute, .-bmk10_execute
 1704              		.global	testbmk10
 1705 00c2 00BFAFF3 		.section	.rodata
 1705      0080AFF3 
 1705      0080AFF3 
 1705      0080
 1706 017a 0000     		.align	2
 1707              	.LC16:
 1708 017c 42656E63 		.ascii	"Benchmark, virtual timers set/reset\000"
 1708      686D6172 
 1708      6B2C2076 
 1708      69727475 
 1708      616C2074 
 1709              		.section	.rodata.testbmk10,"a",%progbits
 1710              		.align	2
 1711              		.type	testbmk10, %object
 1712              		.size	testbmk10, 16
 1713              	testbmk10:
 1714 0000 7C010000 		.word	.LC16
 1715 0004 00000000 		.word	0
 1716 0008 00000000 		.word	0
 1717 000c 00000000 		.word	bmk10_execute
 1718              		.section	.text.bmk11_setup,"ax",%progbits
 1719              		.align	2
 1720              		.p2align 4,,15
 1721              		.thumb
 1722              		.thumb_func
 1723              		.type	bmk11_setup, %function
 1724              	bmk11_setup:
 1725              	.LFB25:
 1726              		.loc 1 545 0
 1727              		.cfi_startproc
 1728              		@ args = 0, pretend = 0, frame = 0
 1729              		@ frame_needed = 0, uses_anonymous_args = 0
 1730 0000 08B5     		push	{r3, lr}
 1731              	.LCFI33:
 1732              		.cfi_def_cfa_offset 8
 1733              		.cfi_offset 3, -8
 1734              		.cfi_offset 14, -4
 1735              		.loc 1 547 0
 1736 0002 40F20000 		movw	r0, #:lower16:sem1
 1737 0006 C0F20000 		movt	r0, #:upper16:sem1
 1738 000a 4FF00101 		mov	r1, #1
ARM GAS  /tmp/cciE3hUa.s 			page 33


 1739 000e FFF7FEFF 		bl	chSemInit
 1740              		.loc 1 548 0
 1741 0012 08BD     		pop	{r3, pc}
 1742              		.cfi_endproc
 1743              	.LFE25:
 1744              		.size	bmk11_setup, .-bmk11_setup
 1745 0014 AFF30080 		.section	.rodata
 1745      AFF30080 
 1745      AFF30080 
 1746              		.align	2
 1747              	.LC17:
 1748 01a0 20776169 		.ascii	" wait+signal/S\000"
 1748      742B7369 
 1748      676E616C 
 1748      2F5300
 1749              		.section	.text.bmk11_execute,"ax",%progbits
 1750              		.align	2
 1751              		.p2align 4,,15
 1752              		.thumb
 1753              		.thumb_func
 1754              		.type	bmk11_execute, %function
 1755              	bmk11_execute:
 1756              	.LFB26:
 1757              		.loc 1 550 0
 1758              		.cfi_startproc
 1759              		@ args = 0, pretend = 0, frame = 8
 1760              		@ frame_needed = 0, uses_anonymous_args = 0
 1761 0000 00B5     		push	{lr}
 1762              	.LCFI34:
 1763              		.cfi_def_cfa_offset 4
 1764              		.cfi_offset 14, -4
 1765 0002 83B0     		sub	sp, sp, #12
 1766              	.LCFI35:
 1767              		.cfi_def_cfa_offset 16
 1768              		.loc 1 551 0
 1769 0004 4FF00003 		mov	r3, #0
 1770 0008 0193     		str	r3, [sp, #4]
 1771              		.loc 1 553 0
 1772 000a FFF7FEFF 		bl	test_wait_tick
 1773              		.loc 1 554 0
 1774 000e 4FF47A70 		mov	r0, #1000
 1775 0012 FFF7FEFF 		bl	test_start_timer
 1776              	.L39:
 1777              		.loc 1 556 0 discriminator 1
 1778 0016 40F20000 		movw	r0, #:lower16:sem1
 1779 001a C0F20000 		movt	r0, #:upper16:sem1
 1780 001e FFF7FEFF 		bl	chSemWait
 1781              		.loc 1 557 0 discriminator 1
 1782 0022 40F20000 		movw	r0, #:lower16:sem1
 1783 0026 C0F20000 		movt	r0, #:upper16:sem1
 1784 002a FFF7FEFF 		bl	chSemSignal
 1785              		.loc 1 558 0 discriminator 1
 1786 002e 40F20000 		movw	r0, #:lower16:sem1
 1787 0032 C0F20000 		movt	r0, #:upper16:sem1
 1788 0036 FFF7FEFF 		bl	chSemWait
 1789              		.loc 1 559 0 discriminator 1
 1790 003a 40F20000 		movw	r0, #:lower16:sem1
ARM GAS  /tmp/cciE3hUa.s 			page 34


 1791 003e C0F20000 		movt	r0, #:upper16:sem1
 1792 0042 FFF7FEFF 		bl	chSemSignal
 1793              		.loc 1 560 0 discriminator 1
 1794 0046 40F20000 		movw	r0, #:lower16:sem1
 1795 004a C0F20000 		movt	r0, #:upper16:sem1
 1796 004e FFF7FEFF 		bl	chSemWait
 1797              		.loc 1 561 0 discriminator 1
 1798 0052 40F20000 		movw	r0, #:lower16:sem1
 1799 0056 C0F20000 		movt	r0, #:upper16:sem1
 1800 005a FFF7FEFF 		bl	chSemSignal
 1801              		.loc 1 562 0 discriminator 1
 1802 005e 40F20000 		movw	r0, #:lower16:sem1
 1803 0062 C0F20000 		movt	r0, #:upper16:sem1
 1804 0066 FFF7FEFF 		bl	chSemWait
 1805              		.loc 1 563 0 discriminator 1
 1806 006a 40F20000 		movw	r0, #:lower16:sem1
 1807 006e C0F20000 		movt	r0, #:upper16:sem1
 1808 0072 FFF7FEFF 		bl	chSemSignal
 1809              		.loc 1 564 0 discriminator 1
 1810 0076 019B     		ldr	r3, [sp, #4]
 1811 0078 03F10103 		add	r3, r3, #1
 1812 007c 0193     		str	r3, [sp, #4]
 1813              		.loc 1 568 0 discriminator 1
 1814 007e 40F20003 		movw	r3, #:lower16:test_timer_done
 1815 0082 C0F20003 		movt	r3, #:upper16:test_timer_done
 1816 0086 1B78     		ldrb	r3, [r3, #0]	@ zero_extendqisi2
 1817 0088 83F00103 		eor	r3, r3, #1
 1818 008c DBB2     		uxtb	r3, r3
 1819 008e 002B     		cmp	r3, #0
 1820 0090 C1D1     		bne	.L39
 1821              		.loc 1 569 0
 1822 0092 40F20000 		movw	r0, #:lower16:.LC0
 1823 0096 C0F20000 		movt	r0, #:upper16:.LC0
 1824 009a FFF7FEFF 		bl	test_print
 1825              		.loc 1 570 0
 1826 009e 019B     		ldr	r3, [sp, #4]
 1827 00a0 4FEA8303 		lsl	r3, r3, #2
 1828 00a4 1846     		mov	r0, r3
 1829 00a6 FFF7FEFF 		bl	test_printn
 1830              		.loc 1 571 0
 1831 00aa 40F20000 		movw	r0, #:lower16:.LC17
 1832 00ae C0F20000 		movt	r0, #:upper16:.LC17
 1833 00b2 FFF7FEFF 		bl	test_println
 1834              		.loc 1 572 0
 1835 00b6 03B0     		add	sp, sp, #12
 1836 00b8 00BD     		pop	{pc}
 1837              		.cfi_endproc
 1838              	.LFE26:
 1839              		.size	bmk11_execute, .-bmk11_execute
 1840              		.global	testbmk11
 1841 00ba 00BFAFF3 		.section	.rodata
 1841      0080
 1842 01af 00       		.align	2
 1843              	.LC18:
 1844 01b0 42656E63 		.ascii	"Benchmark, semaphores wait/signal\000"
 1844      686D6172 
 1844      6B2C2073 
ARM GAS  /tmp/cciE3hUa.s 			page 35


 1844      656D6170 
 1844      686F7265 
 1845              		.section	.rodata.testbmk11,"a",%progbits
 1846              		.align	2
 1847              		.type	testbmk11, %object
 1848              		.size	testbmk11, 16
 1849              	testbmk11:
 1850 0000 B0010000 		.word	.LC18
 1851 0004 00000000 		.word	bmk11_setup
 1852 0008 00000000 		.word	0
 1853 000c 00000000 		.word	bmk11_execute
 1854              		.section	.text.bmk12_setup,"ax",%progbits
 1855              		.align	2
 1856              		.p2align 4,,15
 1857              		.thumb
 1858              		.thumb_func
 1859              		.type	bmk12_setup, %function
 1860              	bmk12_setup:
 1861              	.LFB27:
 1862              		.loc 1 593 0
 1863              		.cfi_startproc
 1864              		@ args = 0, pretend = 0, frame = 0
 1865              		@ frame_needed = 0, uses_anonymous_args = 0
 1866 0000 08B5     		push	{r3, lr}
 1867              	.LCFI36:
 1868              		.cfi_def_cfa_offset 8
 1869              		.cfi_offset 3, -8
 1870              		.cfi_offset 14, -4
 1871              		.loc 1 595 0
 1872 0002 40F20000 		movw	r0, #:lower16:mtx1
 1873 0006 C0F20000 		movt	r0, #:upper16:mtx1
 1874 000a FFF7FEFF 		bl	chMtxInit
 1875              		.loc 1 596 0
 1876 000e 08BD     		pop	{r3, pc}
 1877              		.cfi_endproc
 1878              	.LFE27:
 1879              		.size	bmk12_setup, .-bmk12_setup
 1880              		.section	.rodata
 1881 01d2 0000     		.align	2
 1882              	.LC19:
 1883 01d4 206C6F63 		.ascii	" lock+unlock/S\000"
 1883      6B2B756E 
 1883      6C6F636B 
 1883      2F5300
 1884              		.section	.text.bmk12_execute,"ax",%progbits
 1885              		.align	2
 1886              		.p2align 4,,15
 1887              		.thumb
 1888              		.thumb_func
 1889              		.type	bmk12_execute, %function
 1890              	bmk12_execute:
 1891              	.LFB28:
 1892              		.loc 1 598 0
 1893              		.cfi_startproc
 1894              		@ args = 0, pretend = 0, frame = 8
 1895              		@ frame_needed = 0, uses_anonymous_args = 0
 1896 0000 00B5     		push	{lr}
ARM GAS  /tmp/cciE3hUa.s 			page 36


 1897              	.LCFI37:
 1898              		.cfi_def_cfa_offset 4
 1899              		.cfi_offset 14, -4
 1900 0002 83B0     		sub	sp, sp, #12
 1901              	.LCFI38:
 1902              		.cfi_def_cfa_offset 16
 1903              		.loc 1 599 0
 1904 0004 4FF00003 		mov	r3, #0
 1905 0008 0193     		str	r3, [sp, #4]
 1906              		.loc 1 601 0
 1907 000a FFF7FEFF 		bl	test_wait_tick
 1908              		.loc 1 602 0
 1909 000e 4FF47A70 		mov	r0, #1000
 1910 0012 FFF7FEFF 		bl	test_start_timer
 1911              	.L42:
 1912              		.loc 1 604 0 discriminator 1
 1913 0016 40F20000 		movw	r0, #:lower16:mtx1
 1914 001a C0F20000 		movt	r0, #:upper16:mtx1
 1915 001e FFF7FEFF 		bl	chMtxLock
 1916              		.loc 1 605 0 discriminator 1
 1917 0022 FFF7FEFF 		bl	chMtxUnlock
 1918              		.loc 1 606 0 discriminator 1
 1919 0026 40F20000 		movw	r0, #:lower16:mtx1
 1920 002a C0F20000 		movt	r0, #:upper16:mtx1
 1921 002e FFF7FEFF 		bl	chMtxLock
 1922              		.loc 1 607 0 discriminator 1
 1923 0032 FFF7FEFF 		bl	chMtxUnlock
 1924              		.loc 1 608 0 discriminator 1
 1925 0036 40F20000 		movw	r0, #:lower16:mtx1
 1926 003a C0F20000 		movt	r0, #:upper16:mtx1
 1927 003e FFF7FEFF 		bl	chMtxLock
 1928              		.loc 1 609 0 discriminator 1
 1929 0042 FFF7FEFF 		bl	chMtxUnlock
 1930              		.loc 1 610 0 discriminator 1
 1931 0046 40F20000 		movw	r0, #:lower16:mtx1
 1932 004a C0F20000 		movt	r0, #:upper16:mtx1
 1933 004e FFF7FEFF 		bl	chMtxLock
 1934              		.loc 1 611 0 discriminator 1
 1935 0052 FFF7FEFF 		bl	chMtxUnlock
 1936              		.loc 1 612 0 discriminator 1
 1937 0056 019B     		ldr	r3, [sp, #4]
 1938 0058 03F10103 		add	r3, r3, #1
 1939 005c 0193     		str	r3, [sp, #4]
 1940              		.loc 1 616 0 discriminator 1
 1941 005e 40F20003 		movw	r3, #:lower16:test_timer_done
 1942 0062 C0F20003 		movt	r3, #:upper16:test_timer_done
 1943 0066 1B78     		ldrb	r3, [r3, #0]	@ zero_extendqisi2
 1944 0068 83F00103 		eor	r3, r3, #1
 1945 006c DBB2     		uxtb	r3, r3
 1946 006e 002B     		cmp	r3, #0
 1947 0070 D1D1     		bne	.L42
 1948              		.loc 1 617 0
 1949 0072 40F20000 		movw	r0, #:lower16:.LC0
 1950 0076 C0F20000 		movt	r0, #:upper16:.LC0
 1951 007a FFF7FEFF 		bl	test_print
 1952              		.loc 1 618 0
 1953 007e 019B     		ldr	r3, [sp, #4]
ARM GAS  /tmp/cciE3hUa.s 			page 37


 1954 0080 4FEA8303 		lsl	r3, r3, #2
 1955 0084 1846     		mov	r0, r3
 1956 0086 FFF7FEFF 		bl	test_printn
 1957              		.loc 1 619 0
 1958 008a 40F20000 		movw	r0, #:lower16:.LC19
 1959 008e C0F20000 		movt	r0, #:upper16:.LC19
 1960 0092 FFF7FEFF 		bl	test_println
 1961              		.loc 1 620 0
 1962 0096 03B0     		add	sp, sp, #12
 1963 0098 00BD     		pop	{pc}
 1964              		.cfi_endproc
 1965              	.LFE28:
 1966              		.size	bmk12_execute, .-bmk12_execute
 1967              		.global	testbmk12
 1968 009a 00BFAFF3 		.section	.rodata
 1968      0080
 1969 01e3 00       		.align	2
 1970              	.LC20:
 1971 01e4 42656E63 		.ascii	"Benchmark, mutexes lock/unlock\000"
 1971      686D6172 
 1971      6B2C206D 
 1971      75746578 
 1971      6573206C 
 1972              		.section	.rodata.testbmk12,"a",%progbits
 1973              		.align	2
 1974              		.type	testbmk12, %object
 1975              		.size	testbmk12, 16
 1976              	testbmk12:
 1977 0000 E4010000 		.word	.LC20
 1978 0004 00000000 		.word	bmk12_setup
 1979 0008 00000000 		.word	0
 1980 000c 00000000 		.word	bmk12_execute
 1981              		.section	.rodata
 1982 0203 00       		.align	2
 1983              	.LC21:
 1984 0204 2D2D2D20 		.ascii	"--- System: \000"
 1984      53797374 
 1984      656D3A20 
 1984      00
 1985 0211 000000   		.align	2
 1986              	.LC22:
 1987 0214 20627974 		.ascii	" bytes\000"
 1987      657300
 1988 021b 00       		.align	2
 1989              	.LC23:
 1990 021c 2D2D2D20 		.ascii	"--- Thread: \000"
 1990      54687265 
 1990      61643A20 
 1990      00
 1991 0229 000000   		.align	2
 1992              	.LC24:
 1993 022c 2D2D2D20 		.ascii	"--- Timer : \000"
 1993      54696D65 
 1993      72203A20 
 1993      00
 1994 0239 000000   		.align	2
 1995              	.LC25:
ARM GAS  /tmp/cciE3hUa.s 			page 38


 1996 023c 2D2D2D20 		.ascii	"--- Semaph: \000"
 1996      53656D61 
 1996      70683A20 
 1996      00
 1997 0249 000000   		.align	2
 1998              	.LC26:
 1999 024c 2D2D2D20 		.ascii	"--- EventS: \000"
 1999      4576656E 
 1999      74533A20 
 1999      00
 2000 0259 000000   		.align	2
 2001              	.LC27:
 2002 025c 2D2D2D20 		.ascii	"--- EventL: \000"
 2002      4576656E 
 2002      744C3A20 
 2002      00
 2003 0269 000000   		.align	2
 2004              	.LC28:
 2005 026c 2D2D2D20 		.ascii	"--- Mutex : \000"
 2005      4D757465 
 2005      78203A20 
 2005      00
 2006 0279 000000   		.align	2
 2007              	.LC29:
 2008 027c 2D2D2D20 		.ascii	"--- CondV.: \000"
 2008      436F6E64 
 2008      562E3A20 
 2008      00
 2009 0289 000000   		.align	2
 2010              	.LC30:
 2011 028c 2D2D2D20 		.ascii	"--- Queue : \000"
 2011      51756575 
 2011      65203A20 
 2011      00
 2012 0299 000000   		.align	2
 2013              	.LC31:
 2014 029c 2D2D2D20 		.ascii	"--- MailB.: \000"
 2014      4D61696C 
 2014      422E3A20 
 2014      00
 2015              		.section	.text.bmk13_execute,"ax",%progbits
 2016              		.align	2
 2017              		.p2align 4,,15
 2018              		.thumb
 2019              		.thumb_func
 2020              		.type	bmk13_execute, %function
 2021              	bmk13_execute:
 2022              	.LFB29:
 2023              		.loc 1 637 0
 2024              		.cfi_startproc
 2025              		@ args = 0, pretend = 0, frame = 0
 2026              		@ frame_needed = 0, uses_anonymous_args = 0
 2027 0000 08B5     		push	{r3, lr}
 2028              	.LCFI39:
 2029              		.cfi_def_cfa_offset 8
 2030              		.cfi_offset 3, -8
 2031              		.cfi_offset 14, -4
ARM GAS  /tmp/cciE3hUa.s 			page 39


 2032              		.loc 1 639 0
 2033 0002 40F20000 		movw	r0, #:lower16:.LC21
 2034 0006 C0F20000 		movt	r0, #:upper16:.LC21
 2035 000a FFF7FEFF 		bl	test_print
 2036              		.loc 1 640 0
 2037 000e 4FF4CE70 		mov	r0, #412
 2038 0012 FFF7FEFF 		bl	test_printn
 2039              		.loc 1 645 0
 2040 0016 40F20000 		movw	r0, #:lower16:.LC22
 2041 001a C0F20000 		movt	r0, #:upper16:.LC22
 2042 001e FFF7FEFF 		bl	test_println
 2043              		.loc 1 646 0
 2044 0022 40F20000 		movw	r0, #:lower16:.LC23
 2045 0026 C0F20000 		movt	r0, #:upper16:.LC23
 2046 002a FFF7FEFF 		bl	test_print
 2047              		.loc 1 647 0
 2048 002e 4FF04C00 		mov	r0, #76
 2049 0032 FFF7FEFF 		bl	test_printn
 2050              		.loc 1 648 0
 2051 0036 40F20000 		movw	r0, #:lower16:.LC22
 2052 003a C0F20000 		movt	r0, #:upper16:.LC22
 2053 003e FFF7FEFF 		bl	test_println
 2054              		.loc 1 649 0
 2055 0042 40F20000 		movw	r0, #:lower16:.LC24
 2056 0046 C0F20000 		movt	r0, #:upper16:.LC24
 2057 004a FFF7FEFF 		bl	test_print
 2058              		.loc 1 650 0
 2059 004e 4FF01400 		mov	r0, #20
 2060 0052 FFF7FEFF 		bl	test_printn
 2061              		.loc 1 651 0
 2062 0056 40F20000 		movw	r0, #:lower16:.LC22
 2063 005a C0F20000 		movt	r0, #:upper16:.LC22
 2064 005e FFF7FEFF 		bl	test_println
 2065              		.loc 1 653 0
 2066 0062 40F20000 		movw	r0, #:lower16:.LC25
 2067 0066 C0F20000 		movt	r0, #:upper16:.LC25
 2068 006a FFF7FEFF 		bl	test_print
 2069              		.loc 1 654 0
 2070 006e 4FF00C00 		mov	r0, #12
 2071 0072 FFF7FEFF 		bl	test_printn
 2072              		.loc 1 655 0
 2073 0076 40F20000 		movw	r0, #:lower16:.LC22
 2074 007a C0F20000 		movt	r0, #:upper16:.LC22
 2075 007e FFF7FEFF 		bl	test_println
 2076              		.loc 1 658 0
 2077 0082 40F20000 		movw	r0, #:lower16:.LC26
 2078 0086 C0F20000 		movt	r0, #:upper16:.LC26
 2079 008a FFF7FEFF 		bl	test_print
 2080              		.loc 1 659 0
 2081 008e 4FF00400 		mov	r0, #4
 2082 0092 FFF7FEFF 		bl	test_printn
 2083              		.loc 1 660 0
 2084 0096 40F20000 		movw	r0, #:lower16:.LC22
 2085 009a C0F20000 		movt	r0, #:upper16:.LC22
 2086 009e FFF7FEFF 		bl	test_println
 2087              		.loc 1 661 0
 2088 00a2 40F20000 		movw	r0, #:lower16:.LC27
ARM GAS  /tmp/cciE3hUa.s 			page 40


 2089 00a6 C0F20000 		movt	r0, #:upper16:.LC27
 2090 00aa FFF7FEFF 		bl	test_print
 2091              		.loc 1 662 0
 2092 00ae 4FF01000 		mov	r0, #16
 2093 00b2 FFF7FEFF 		bl	test_printn
 2094              		.loc 1 663 0
 2095 00b6 40F20000 		movw	r0, #:lower16:.LC22
 2096 00ba C0F20000 		movt	r0, #:upper16:.LC22
 2097 00be FFF7FEFF 		bl	test_println
 2098              		.loc 1 666 0
 2099 00c2 40F20000 		movw	r0, #:lower16:.LC28
 2100 00c6 C0F20000 		movt	r0, #:upper16:.LC28
 2101 00ca FFF7FEFF 		bl	test_print
 2102              		.loc 1 667 0
 2103 00ce 4FF01000 		mov	r0, #16
 2104 00d2 FFF7FEFF 		bl	test_printn
 2105              		.loc 1 668 0
 2106 00d6 40F20000 		movw	r0, #:lower16:.LC22
 2107 00da C0F20000 		movt	r0, #:upper16:.LC22
 2108 00de FFF7FEFF 		bl	test_println
 2109              		.loc 1 671 0
 2110 00e2 40F20000 		movw	r0, #:lower16:.LC29
 2111 00e6 C0F20000 		movt	r0, #:upper16:.LC29
 2112 00ea FFF7FEFF 		bl	test_print
 2113              		.loc 1 672 0
 2114 00ee 4FF00800 		mov	r0, #8
 2115 00f2 FFF7FEFF 		bl	test_printn
 2116              		.loc 1 673 0
 2117 00f6 40F20000 		movw	r0, #:lower16:.LC22
 2118 00fa C0F20000 		movt	r0, #:upper16:.LC22
 2119 00fe FFF7FEFF 		bl	test_println
 2120              		.loc 1 676 0
 2121 0102 40F20000 		movw	r0, #:lower16:.LC30
 2122 0106 C0F20000 		movt	r0, #:upper16:.LC30
 2123 010a FFF7FEFF 		bl	test_print
 2124              		.loc 1 677 0
 2125 010e 4FF02400 		mov	r0, #36
 2126 0112 FFF7FEFF 		bl	test_printn
 2127              		.loc 1 678 0
 2128 0116 40F20000 		movw	r0, #:lower16:.LC22
 2129 011a C0F20000 		movt	r0, #:upper16:.LC22
 2130 011e FFF7FEFF 		bl	test_println
 2131              		.loc 1 681 0
 2132 0122 40F20000 		movw	r0, #:lower16:.LC31
 2133 0126 C0F20000 		movt	r0, #:upper16:.LC31
 2134 012a FFF7FEFF 		bl	test_print
 2135              		.loc 1 682 0
 2136 012e 4FF02800 		mov	r0, #40
 2137 0132 FFF7FEFF 		bl	test_printn
 2138              		.loc 1 683 0
 2139 0136 40F20000 		movw	r0, #:lower16:.LC22
 2140 013a C0F20000 		movt	r0, #:upper16:.LC22
 2141 013e FFF7FEFF 		bl	test_println
 2142              		.loc 1 685 0
 2143 0142 08BD     		pop	{r3, pc}
 2144              		.cfi_endproc
 2145              	.LFE29:
ARM GAS  /tmp/cciE3hUa.s 			page 41


 2146              		.size	bmk13_execute, .-bmk13_execute
 2147              		.global	testbmk13
 2148 0144 AFF30080 		.section	.rodata
 2148      AFF30080 
 2148      AFF30080 
 2149 02a9 000000   		.align	2
 2150              	.LC32:
 2151 02ac 42656E63 		.ascii	"Benchmark, RAM footprint\000"
 2151      686D6172 
 2151      6B2C2052 
 2151      414D2066 
 2151      6F6F7470 
 2152 02c5 000000   		.section	.rodata.testbmk13,"a",%progbits
 2153              		.align	2
 2154              		.type	testbmk13, %object
 2155              		.size	testbmk13, 16
 2156              	testbmk13:
 2157 0000 AC020000 		.word	.LC32
 2158 0004 00000000 		.word	0
 2159 0008 00000000 		.word	0
 2160 000c 00000000 		.word	bmk13_execute
 2161              		.global	patternbmk
 2162              		.section	.rodata.patternbmk,"a",%progbits
 2163              		.align	2
 2164              		.type	patternbmk, %object
 2165              		.size	patternbmk, 56
 2166              	patternbmk:
 2167 0000 00000000 		.word	testbmk1
 2168 0004 00000000 		.word	testbmk2
 2169 0008 00000000 		.word	testbmk3
 2170 000c 00000000 		.word	testbmk4
 2171 0010 00000000 		.word	testbmk5
 2172 0014 00000000 		.word	testbmk6
 2173 0018 00000000 		.word	testbmk7
 2174 001c 00000000 		.word	testbmk8
 2175 0020 00000000 		.word	testbmk9
 2176 0024 00000000 		.word	testbmk10
 2177 0028 00000000 		.word	testbmk11
 2178 002c 00000000 		.word	testbmk12
 2179 0030 00000000 		.word	testbmk13
 2180 0034 00000000 		.word	0
 2181              		.section	.bss.vt1.4984,"aw",%nobits
 2182              		.align	2
 2183              		.type	vt1.4984, %object
 2184              		.size	vt1.4984, 20
 2185              	vt1.4984:
 2186 0000 00000000 		.space	20
 2186      00000000 
 2186      00000000 
 2186      00000000 
 2186      00000000 
 2187              		.section	.bss.vt2.4985,"aw",%nobits
 2188              		.align	2
 2189              		.type	vt2.4985, %object
 2190              		.size	vt2.4985, 20
 2191              	vt2.4985:
 2192 0000 00000000 		.space	20
ARM GAS  /tmp/cciE3hUa.s 			page 42


 2192      00000000 
 2192      00000000 
 2192      00000000 
 2192      00000000 
 2193              		.section	.bss.iq.4972,"aw",%nobits
 2194              		.align	2
 2195              		.type	iq.4972, %object
 2196              		.size	iq.4972, 36
 2197              	iq.4972:
 2198 0000 00000000 		.space	36
 2198      00000000 
 2198      00000000 
 2198      00000000 
 2198      00000000 
 2199              		.section	.bss.ib.4971,"aw",%nobits
 2200              		.align	2
 2201              		.type	ib.4971, %object
 2202              		.size	ib.4971, 16
 2203              	ib.4971:
 2204 0000 00000000 		.space	16
 2204      00000000 
 2204      00000000 
 2204      00000000 
 2205              		.text
 2206              	.Letext0:
 2207              		.file 2 "/usr/bin/../lib/gcc/arm-none-eabi/4.7.4/include/stddef.h"
 2208              		.file 3 "/usr/bin/../lib/gcc/arm-none-eabi/4.7.4/../../../../arm-none-eabi/include/stdint.h"
 2209              		.file 4 "../../os/ports/GCC/ARMCMx/chtypes.h"
 2210              		.file 5 "../../os/kernel/include/chlists.h"
 2211              		.file 6 "../../os/kernel/include/chthreads.h"
 2212              		.file 7 "../../os/ports/GCC/ARMCMx/chcore_v7m.h"
 2213              		.file 8 "../../os/kernel/include/chvt.h"
 2214              		.file 9 "../../os/kernel/include/chschd.h"
 2215              		.file 10 "../../os/kernel/include/chsem.h"
 2216              		.file 11 "../../os/kernel/include/chmtx.h"
 2217              		.file 12 "../../os/kernel/include/chqueues.h"
 2218              		.file 13 "../../test/test.h"