ARM GAS  /tmp/ccsXnYib.s 			page 1


   1              		.syntax unified
   2              		.cpu cortex-m4
   3              		.fpu softvfp
   4              		.eabi_attribute 20, 1
   5              		.eabi_attribute 21, 1
   6              		.eabi_attribute 23, 3
   7              		.eabi_attribute 24, 1
   8              		.eabi_attribute 25, 1
   9              		.eabi_attribute 26, 1
  10              		.eabi_attribute 30, 6
  11              		.eabi_attribute 34, 1
  12              		.eabi_attribute 18, 4
  13              		.thumb
  14              		.file	"testthd.c"
  15              		.text
  16              	.Ltext0:
  17              		.cfi_sections	.debug_frame
  18              		.section	.text.thread,"ax",%progbits
  19              		.align	2
  20              		.p2align 4,,15
  21              		.thumb
  22              		.thumb_func
  23              		.type	thread, %function
  24              	thread:
  25              	.LFB7:
  26              		.file 1 "../../test/testthd.c"
  27              		.loc 1 60 0
  28              		.cfi_startproc
  29              		@ args = 0, pretend = 0, frame = 8
  30              		@ frame_needed = 0, uses_anonymous_args = 0
  31 0000 00B5     		push	{lr}
  32              	.LCFI0:
  33              		.cfi_def_cfa_offset 4
  34              		.cfi_offset 14, -4
  35 0002 83B0     		sub	sp, sp, #12
  36              	.LCFI1:
  37              		.cfi_def_cfa_offset 16
  38 0004 0190     		str	r0, [sp, #4]
  39              		.loc 1 62 0
  40 0006 019B     		ldr	r3, [sp, #4]
  41 0008 1B78     		ldrb	r3, [r3, #0]	@ zero_extendqisi2
  42 000a 1846     		mov	r0, r3
  43 000c FFF7FEFF 		bl	test_emit_token
  44              		.loc 1 63 0
  45 0010 4FF00003 		mov	r3, #0
  46              		.loc 1 64 0
  47 0014 1846     		mov	r0, r3
  48 0016 03B0     		add	sp, sp, #12
  49 0018 00BD     		pop	{pc}
  50              		.cfi_endproc
  51              	.LFE7:
  52              		.size	thread, .-thread
  53 001a 00BFAFF3 		.section	.rodata
  53      0080
  54              		.align	2
  55              	.LC0:
  56 0000 4500     		.ascii	"E\000"
ARM GAS  /tmp/ccsXnYib.s 			page 2


  57 0002 0000     		.align	2
  58              	.LC1:
  59 0004 4400     		.ascii	"D\000"
  60 0006 0000     		.align	2
  61              	.LC2:
  62 0008 4300     		.ascii	"C\000"
  63 000a 0000     		.align	2
  64              	.LC3:
  65 000c 4200     		.ascii	"B\000"
  66 000e 0000     		.align	2
  67              	.LC4:
  68 0010 4100     		.ascii	"A\000"
  69 0012 0000     		.align	2
  70              	.LC5:
  71 0014 41424344 		.ascii	"ABCDE\000"
  71      4500
  72              		.section	.text.thd1_execute,"ax",%progbits
  73              		.align	2
  74              		.p2align 4,,15
  75              		.thumb
  76              		.thumb_func
  77              		.type	thd1_execute, %function
  78              	thd1_execute:
  79              	.LFB8:
  80              		.loc 1 66 0
  81              		.cfi_startproc
  82              		@ args = 0, pretend = 0, frame = 0
  83              		@ frame_needed = 0, uses_anonymous_args = 0
  84 0000 00B5     		push	{lr}
  85              	.LCFI2:
  86              		.cfi_def_cfa_offset 4
  87              		.cfi_offset 14, -4
  88 0002 83B0     		sub	sp, sp, #12
  89              	.LCFI3:
  90              		.cfi_def_cfa_offset 16
  91              		.loc 1 68 0
  92 0004 40F20003 		movw	r3, #:lower16:wa
  93 0008 C0F20003 		movt	r3, #:upper16:wa
  94 000c 1968     		ldr	r1, [r3, #0]
  95 000e 40F20003 		movw	r3, #:lower16:rlist
  96 0012 C0F20003 		movt	r3, #:upper16:rlist
  97 0016 9B69     		ldr	r3, [r3, #24]
  98 0018 9B68     		ldr	r3, [r3, #8]
  99 001a A3F10502 		sub	r2, r3, #5
 100 001e 40F20003 		movw	r3, #:lower16:.LC0
 101 0022 C0F20003 		movt	r3, #:upper16:.LC0
 102 0026 0093     		str	r3, [sp, #0]
 103 0028 0846     		mov	r0, r1
 104 002a 4FF49871 		mov	r1, #304
 105 002e 40F20003 		movw	r3, #:lower16:thread
 106 0032 C0F20003 		movt	r3, #:upper16:thread
 107 0036 FFF7FEFF 		bl	chThdCreateStatic
 108 003a 0246     		mov	r2, r0
 109 003c 40F20003 		movw	r3, #:lower16:threads
 110 0040 C0F20003 		movt	r3, #:upper16:threads
 111 0044 1A60     		str	r2, [r3, #0]
 112              		.loc 1 69 0
ARM GAS  /tmp/ccsXnYib.s 			page 3


 113 0046 40F20003 		movw	r3, #:lower16:wa
 114 004a C0F20003 		movt	r3, #:upper16:wa
 115 004e 5968     		ldr	r1, [r3, #4]
 116 0050 40F20003 		movw	r3, #:lower16:rlist
 117 0054 C0F20003 		movt	r3, #:upper16:rlist
 118 0058 9B69     		ldr	r3, [r3, #24]
 119 005a 9B68     		ldr	r3, [r3, #8]
 120 005c A3F10402 		sub	r2, r3, #4
 121 0060 40F20003 		movw	r3, #:lower16:.LC1
 122 0064 C0F20003 		movt	r3, #:upper16:.LC1
 123 0068 0093     		str	r3, [sp, #0]
 124 006a 0846     		mov	r0, r1
 125 006c 4FF49871 		mov	r1, #304
 126 0070 40F20003 		movw	r3, #:lower16:thread
 127 0074 C0F20003 		movt	r3, #:upper16:thread
 128 0078 FFF7FEFF 		bl	chThdCreateStatic
 129 007c 0246     		mov	r2, r0
 130 007e 40F20003 		movw	r3, #:lower16:threads
 131 0082 C0F20003 		movt	r3, #:upper16:threads
 132 0086 5A60     		str	r2, [r3, #4]
 133              		.loc 1 70 0
 134 0088 40F20003 		movw	r3, #:lower16:wa
 135 008c C0F20003 		movt	r3, #:upper16:wa
 136 0090 9968     		ldr	r1, [r3, #8]
 137 0092 40F20003 		movw	r3, #:lower16:rlist
 138 0096 C0F20003 		movt	r3, #:upper16:rlist
 139 009a 9B69     		ldr	r3, [r3, #24]
 140 009c 9B68     		ldr	r3, [r3, #8]
 141 009e A3F10302 		sub	r2, r3, #3
 142 00a2 40F20003 		movw	r3, #:lower16:.LC2
 143 00a6 C0F20003 		movt	r3, #:upper16:.LC2
 144 00aa 0093     		str	r3, [sp, #0]
 145 00ac 0846     		mov	r0, r1
 146 00ae 4FF49871 		mov	r1, #304
 147 00b2 40F20003 		movw	r3, #:lower16:thread
 148 00b6 C0F20003 		movt	r3, #:upper16:thread
 149 00ba FFF7FEFF 		bl	chThdCreateStatic
 150 00be 0246     		mov	r2, r0
 151 00c0 40F20003 		movw	r3, #:lower16:threads
 152 00c4 C0F20003 		movt	r3, #:upper16:threads
 153 00c8 9A60     		str	r2, [r3, #8]
 154              		.loc 1 71 0
 155 00ca 40F20003 		movw	r3, #:lower16:wa
 156 00ce C0F20003 		movt	r3, #:upper16:wa
 157 00d2 D968     		ldr	r1, [r3, #12]
 158 00d4 40F20003 		movw	r3, #:lower16:rlist
 159 00d8 C0F20003 		movt	r3, #:upper16:rlist
 160 00dc 9B69     		ldr	r3, [r3, #24]
 161 00de 9B68     		ldr	r3, [r3, #8]
 162 00e0 A3F10202 		sub	r2, r3, #2
 163 00e4 40F20003 		movw	r3, #:lower16:.LC3
 164 00e8 C0F20003 		movt	r3, #:upper16:.LC3
 165 00ec 0093     		str	r3, [sp, #0]
 166 00ee 0846     		mov	r0, r1
 167 00f0 4FF49871 		mov	r1, #304
 168 00f4 40F20003 		movw	r3, #:lower16:thread
 169 00f8 C0F20003 		movt	r3, #:upper16:thread
ARM GAS  /tmp/ccsXnYib.s 			page 4


 170 00fc FFF7FEFF 		bl	chThdCreateStatic
 171 0100 0246     		mov	r2, r0
 172 0102 40F20003 		movw	r3, #:lower16:threads
 173 0106 C0F20003 		movt	r3, #:upper16:threads
 174 010a DA60     		str	r2, [r3, #12]
 175              		.loc 1 72 0
 176 010c 40F20003 		movw	r3, #:lower16:wa
 177 0110 C0F20003 		movt	r3, #:upper16:wa
 178 0114 1969     		ldr	r1, [r3, #16]
 179 0116 40F20003 		movw	r3, #:lower16:rlist
 180 011a C0F20003 		movt	r3, #:upper16:rlist
 181 011e 9B69     		ldr	r3, [r3, #24]
 182 0120 9B68     		ldr	r3, [r3, #8]
 183 0122 03F1FF32 		add	r2, r3, #-1
 184 0126 40F20003 		movw	r3, #:lower16:.LC4
 185 012a C0F20003 		movt	r3, #:upper16:.LC4
 186 012e 0093     		str	r3, [sp, #0]
 187 0130 0846     		mov	r0, r1
 188 0132 4FF49871 		mov	r1, #304
 189 0136 40F20003 		movw	r3, #:lower16:thread
 190 013a C0F20003 		movt	r3, #:upper16:thread
 191 013e FFF7FEFF 		bl	chThdCreateStatic
 192 0142 0246     		mov	r2, r0
 193 0144 40F20003 		movw	r3, #:lower16:threads
 194 0148 C0F20003 		movt	r3, #:upper16:threads
 195 014c 1A61     		str	r2, [r3, #16]
 196              		.loc 1 73 0
 197 014e FFF7FEFF 		bl	test_wait_threads
 198              		.loc 1 74 0
 199 0152 4FF00100 		mov	r0, #1
 200 0156 40F20001 		movw	r1, #:lower16:.LC5
 201 015a C0F20001 		movt	r1, #:upper16:.LC5
 202 015e FFF7FEFF 		bl	_test_assert_sequence
 203 0162 0346     		mov	r3, r0
 204 0164 002B     		cmp	r3, #0
 205              		.loc 1 75 0
 206 0166 03B0     		add	sp, sp, #12
 207 0168 00BD     		pop	{pc}
 208              		.cfi_endproc
 209              	.LFE8:
 210              		.size	thd1_execute, .-thd1_execute
 211              		.global	testthd1
 212 016a 00BFAFF3 		.section	.rodata
 212      0080
 213 001a 0000     		.align	2
 214              	.LC6:
 215 001c 54687265 		.ascii	"Threads, enqueuing test #1\000"
 215      6164732C 
 215      20656E71 
 215      75657569 
 215      6E672074 
 216              		.section	.rodata.testthd1,"a",%progbits
 217              		.align	2
 218              		.type	testthd1, %object
 219              		.size	testthd1, 16
 220              	testthd1:
 221 0000 1C000000 		.word	.LC6
ARM GAS  /tmp/ccsXnYib.s 			page 5


 222 0004 00000000 		.word	0
 223 0008 00000000 		.word	0
 224 000c 00000000 		.word	thd1_execute
 225              		.section	.text.thd2_execute,"ax",%progbits
 226              		.align	2
 227              		.p2align 4,,15
 228              		.thumb
 229              		.thumb_func
 230              		.type	thd2_execute, %function
 231              	thd2_execute:
 232              	.LFB9:
 233              		.loc 1 94 0
 234              		.cfi_startproc
 235              		@ args = 0, pretend = 0, frame = 0
 236              		@ frame_needed = 0, uses_anonymous_args = 0
 237 0000 00B5     		push	{lr}
 238              	.LCFI4:
 239              		.cfi_def_cfa_offset 4
 240              		.cfi_offset 14, -4
 241 0002 83B0     		sub	sp, sp, #12
 242              	.LCFI5:
 243              		.cfi_def_cfa_offset 16
 244              		.loc 1 96 0
 245 0004 40F20003 		movw	r3, #:lower16:wa
 246 0008 C0F20003 		movt	r3, #:upper16:wa
 247 000c 5968     		ldr	r1, [r3, #4]
 248 000e 40F20003 		movw	r3, #:lower16:rlist
 249 0012 C0F20003 		movt	r3, #:upper16:rlist
 250 0016 9B69     		ldr	r3, [r3, #24]
 251 0018 9B68     		ldr	r3, [r3, #8]
 252 001a A3F10402 		sub	r2, r3, #4
 253 001e 40F20003 		movw	r3, #:lower16:.LC1
 254 0022 C0F20003 		movt	r3, #:upper16:.LC1
 255 0026 0093     		str	r3, [sp, #0]
 256 0028 0846     		mov	r0, r1
 257 002a 4FF49871 		mov	r1, #304
 258 002e 40F20003 		movw	r3, #:lower16:thread
 259 0032 C0F20003 		movt	r3, #:upper16:thread
 260 0036 FFF7FEFF 		bl	chThdCreateStatic
 261 003a 0246     		mov	r2, r0
 262 003c 40F20003 		movw	r3, #:lower16:threads
 263 0040 C0F20003 		movt	r3, #:upper16:threads
 264 0044 5A60     		str	r2, [r3, #4]
 265              		.loc 1 97 0
 266 0046 40F20003 		movw	r3, #:lower16:wa
 267 004a C0F20003 		movt	r3, #:upper16:wa
 268 004e 1968     		ldr	r1, [r3, #0]
 269 0050 40F20003 		movw	r3, #:lower16:rlist
 270 0054 C0F20003 		movt	r3, #:upper16:rlist
 271 0058 9B69     		ldr	r3, [r3, #24]
 272 005a 9B68     		ldr	r3, [r3, #8]
 273 005c A3F10502 		sub	r2, r3, #5
 274 0060 40F20003 		movw	r3, #:lower16:.LC0
 275 0064 C0F20003 		movt	r3, #:upper16:.LC0
 276 0068 0093     		str	r3, [sp, #0]
 277 006a 0846     		mov	r0, r1
 278 006c 4FF49871 		mov	r1, #304
ARM GAS  /tmp/ccsXnYib.s 			page 6


 279 0070 40F20003 		movw	r3, #:lower16:thread
 280 0074 C0F20003 		movt	r3, #:upper16:thread
 281 0078 FFF7FEFF 		bl	chThdCreateStatic
 282 007c 0246     		mov	r2, r0
 283 007e 40F20003 		movw	r3, #:lower16:threads
 284 0082 C0F20003 		movt	r3, #:upper16:threads
 285 0086 1A60     		str	r2, [r3, #0]
 286              		.loc 1 98 0
 287 0088 40F20003 		movw	r3, #:lower16:wa
 288 008c C0F20003 		movt	r3, #:upper16:wa
 289 0090 1969     		ldr	r1, [r3, #16]
 290 0092 40F20003 		movw	r3, #:lower16:rlist
 291 0096 C0F20003 		movt	r3, #:upper16:rlist
 292 009a 9B69     		ldr	r3, [r3, #24]
 293 009c 9B68     		ldr	r3, [r3, #8]
 294 009e 03F1FF32 		add	r2, r3, #-1
 295 00a2 40F20003 		movw	r3, #:lower16:.LC4
 296 00a6 C0F20003 		movt	r3, #:upper16:.LC4
 297 00aa 0093     		str	r3, [sp, #0]
 298 00ac 0846     		mov	r0, r1
 299 00ae 4FF49871 		mov	r1, #304
 300 00b2 40F20003 		movw	r3, #:lower16:thread
 301 00b6 C0F20003 		movt	r3, #:upper16:thread
 302 00ba FFF7FEFF 		bl	chThdCreateStatic
 303 00be 0246     		mov	r2, r0
 304 00c0 40F20003 		movw	r3, #:lower16:threads
 305 00c4 C0F20003 		movt	r3, #:upper16:threads
 306 00c8 1A61     		str	r2, [r3, #16]
 307              		.loc 1 99 0
 308 00ca 40F20003 		movw	r3, #:lower16:wa
 309 00ce C0F20003 		movt	r3, #:upper16:wa
 310 00d2 D968     		ldr	r1, [r3, #12]
 311 00d4 40F20003 		movw	r3, #:lower16:rlist
 312 00d8 C0F20003 		movt	r3, #:upper16:rlist
 313 00dc 9B69     		ldr	r3, [r3, #24]
 314 00de 9B68     		ldr	r3, [r3, #8]
 315 00e0 A3F10202 		sub	r2, r3, #2
 316 00e4 40F20003 		movw	r3, #:lower16:.LC3
 317 00e8 C0F20003 		movt	r3, #:upper16:.LC3
 318 00ec 0093     		str	r3, [sp, #0]
 319 00ee 0846     		mov	r0, r1
 320 00f0 4FF49871 		mov	r1, #304
 321 00f4 40F20003 		movw	r3, #:lower16:thread
 322 00f8 C0F20003 		movt	r3, #:upper16:thread
 323 00fc FFF7FEFF 		bl	chThdCreateStatic
 324 0100 0246     		mov	r2, r0
 325 0102 40F20003 		movw	r3, #:lower16:threads
 326 0106 C0F20003 		movt	r3, #:upper16:threads
 327 010a DA60     		str	r2, [r3, #12]
 328              	.LBB2:
 329              		.loc 1 101 0
 330 010c 4FF02003 		mov	r3, #32
 331              	@ 101 "../../test/testthd.c" 1
 332 0110 83F31188 		msr     BASEPRI, r3
 333              	@ 0 "" 2
 334              		.thumb
 335              	.LBE2:
ARM GAS  /tmp/ccsXnYib.s 			page 7


 336 0114 FFF7FEFF 		bl	dbg_check_lock
 337              		.loc 1 102 0
 338 0118 40F20003 		movw	r3, #:lower16:wa
 339 011c C0F20003 		movt	r3, #:upper16:wa
 340 0120 9968     		ldr	r1, [r3, #8]
 341 0122 40F20003 		movw	r3, #:lower16:rlist
 342 0126 C0F20003 		movt	r3, #:upper16:rlist
 343 012a 9B69     		ldr	r3, [r3, #24]
 344 012c 9B68     		ldr	r3, [r3, #8]
 345 012e A3F10302 		sub	r2, r3, #3
 346 0132 40F20003 		movw	r3, #:lower16:.LC2
 347 0136 C0F20003 		movt	r3, #:upper16:.LC2
 348 013a 0093     		str	r3, [sp, #0]
 349 013c 0846     		mov	r0, r1
 350 013e 4FF49871 		mov	r1, #304
 351 0142 40F20003 		movw	r3, #:lower16:thread
 352 0146 C0F20003 		movt	r3, #:upper16:thread
 353 014a FFF7FEFF 		bl	chThdCreateI
 354 014e 0246     		mov	r2, r0
 355 0150 40F20003 		movw	r3, #:lower16:threads
 356 0154 C0F20003 		movt	r3, #:upper16:threads
 357 0158 9A60     		str	r2, [r3, #8]
 358              		.loc 1 103 0
 359 015a FFF7FEFF 		bl	dbg_check_unlock
 360              	.LBB3:
 361 015e 4FF00003 		mov	r3, #0
 362              	@ 103 "../../test/testthd.c" 1
 363 0162 83F31188 		msr     BASEPRI, r3
 364              	@ 0 "" 2
 365              		.thumb
 366              	.LBE3:
 367              		.loc 1 104 0
 368 0166 40F20003 		movw	r3, #:lower16:threads
 369 016a C0F20003 		movt	r3, #:upper16:threads
 370 016e 9B68     		ldr	r3, [r3, #8]
 371 0170 1846     		mov	r0, r3
 372 0172 FFF7FEFF 		bl	chThdResume
 373              		.loc 1 105 0
 374 0176 FFF7FEFF 		bl	test_wait_threads
 375              		.loc 1 106 0
 376 017a 4FF00100 		mov	r0, #1
 377 017e 40F20001 		movw	r1, #:lower16:.LC5
 378 0182 C0F20001 		movt	r1, #:upper16:.LC5
 379 0186 FFF7FEFF 		bl	_test_assert_sequence
 380 018a 0346     		mov	r3, r0
 381 018c 002B     		cmp	r3, #0
 382              		.loc 1 107 0
 383 018e 03B0     		add	sp, sp, #12
 384 0190 00BD     		pop	{pc}
 385              		.cfi_endproc
 386              	.LFE9:
 387              		.size	thd2_execute, .-thd2_execute
 388              		.global	testthd2
 389 0192 00BFAFF3 		.section	.rodata
 389      0080AFF3 
 389      0080AFF3 
 389      0080
ARM GAS  /tmp/ccsXnYib.s 			page 8


 390 0037 00       		.align	2
 391              	.LC7:
 392 0038 54687265 		.ascii	"Threads, enqueuing test #2\000"
 392      6164732C 
 392      20656E71 
 392      75657569 
 392      6E672074 
 393              		.section	.rodata.testthd2,"a",%progbits
 394              		.align	2
 395              		.type	testthd2, %object
 396              		.size	testthd2, 16
 397              	testthd2:
 398 0000 38000000 		.word	.LC7
 399 0004 00000000 		.word	0
 400 0008 00000000 		.word	0
 401 000c 00000000 		.word	thd2_execute
 402              		.section	.text.thd3_execute,"ax",%progbits
 403              		.align	2
 404              		.p2align 4,,15
 405              		.thumb
 406              		.thumb_func
 407              		.type	thd3_execute, %function
 408              	thd3_execute:
 409              	.LFB10:
 410              		.loc 1 126 0
 411              		.cfi_startproc
 412              		@ args = 0, pretend = 0, frame = 8
 413              		@ frame_needed = 0, uses_anonymous_args = 0
 414 0000 00B5     		push	{lr}
 415              	.LCFI6:
 416              		.cfi_def_cfa_offset 4
 417              		.cfi_offset 14, -4
 418 0002 83B0     		sub	sp, sp, #12
 419              	.LCFI7:
 420              		.cfi_def_cfa_offset 16
 421              		.loc 1 129 0
 422 0004 40F20003 		movw	r3, #:lower16:rlist
 423 0008 C0F20003 		movt	r3, #:upper16:rlist
 424 000c 9B69     		ldr	r3, [r3, #24]
 425 000e 9B68     		ldr	r3, [r3, #8]
 426 0010 0193     		str	r3, [sp, #4]
 427              		.loc 1 130 0
 428 0012 019B     		ldr	r3, [sp, #4]
 429 0014 03F10103 		add	r3, r3, #1
 430 0018 1846     		mov	r0, r3
 431 001a FFF7FEFF 		bl	chThdSetPriority
 432 001e 0090     		str	r0, [sp, #0]
 433              		.loc 1 131 0
 434 0020 009A     		ldr	r2, [sp, #0]
 435 0022 019B     		ldr	r3, [sp, #4]
 436 0024 9A42     		cmp	r2, r3
 437 0026 14BF     		ite	ne
 438 0028 0023     		movne	r3, #0
 439 002a 0123     		moveq	r3, #1
 440 002c DBB2     		uxtb	r3, r3
 441 002e 4FF00100 		mov	r0, #1
 442 0032 1946     		mov	r1, r3
ARM GAS  /tmp/ccsXnYib.s 			page 9


 443 0034 FFF7FEFF 		bl	_test_assert
 444 0038 0346     		mov	r3, r0
 445 003a 002B     		cmp	r3, #0
 446 003c 40F01481 		bne	.L7
 447              	.L8:
 448              		.loc 1 133 0
 449 0040 40F20003 		movw	r3, #:lower16:rlist
 450 0044 C0F20003 		movt	r3, #:upper16:rlist
 451 0048 9B69     		ldr	r3, [r3, #24]
 452 004a 9A68     		ldr	r2, [r3, #8]
 453 004c 019B     		ldr	r3, [sp, #4]
 454 004e 03F10103 		add	r3, r3, #1
 455 0052 9A42     		cmp	r2, r3
 456 0054 14BF     		ite	ne
 457 0056 0023     		movne	r3, #0
 458 0058 0123     		moveq	r3, #1
 459 005a DBB2     		uxtb	r3, r3
 460 005c 4FF00200 		mov	r0, #2
 461 0060 1946     		mov	r1, r3
 462 0062 FFF7FEFF 		bl	_test_assert
 463 0066 0346     		mov	r3, r0
 464 0068 002B     		cmp	r3, #0
 465 006a 40F0FD80 		bne	.L7
 466              	.L10:
 467              		.loc 1 135 0
 468 006e 0098     		ldr	r0, [sp, #0]
 469 0070 FFF7FEFF 		bl	chThdSetPriority
 470 0074 0090     		str	r0, [sp, #0]
 471              		.loc 1 136 0
 472 0076 019B     		ldr	r3, [sp, #4]
 473 0078 03F10102 		add	r2, r3, #1
 474 007c 009B     		ldr	r3, [sp, #0]
 475 007e 9A42     		cmp	r2, r3
 476 0080 14BF     		ite	ne
 477 0082 0023     		movne	r3, #0
 478 0084 0123     		moveq	r3, #1
 479 0086 DBB2     		uxtb	r3, r3
 480 0088 4FF00300 		mov	r0, #3
 481 008c 1946     		mov	r1, r3
 482 008e FFF7FEFF 		bl	_test_assert
 483 0092 0346     		mov	r3, r0
 484 0094 002B     		cmp	r3, #0
 485 0096 40F0E780 		bne	.L7
 486              	.L11:
 487              		.loc 1 138 0
 488 009a 40F20003 		movw	r3, #:lower16:rlist
 489 009e C0F20003 		movt	r3, #:upper16:rlist
 490 00a2 9B69     		ldr	r3, [r3, #24]
 491 00a4 9A68     		ldr	r2, [r3, #8]
 492 00a6 019B     		ldr	r3, [sp, #4]
 493 00a8 9A42     		cmp	r2, r3
 494 00aa 14BF     		ite	ne
 495 00ac 0023     		movne	r3, #0
 496 00ae 0123     		moveq	r3, #1
 497 00b0 DBB2     		uxtb	r3, r3
 498 00b2 4FF00400 		mov	r0, #4
 499 00b6 1946     		mov	r1, r3
ARM GAS  /tmp/ccsXnYib.s 			page 10


 500 00b8 FFF7FEFF 		bl	_test_assert
 501 00bc 0346     		mov	r3, r0
 502 00be 002B     		cmp	r3, #0
 503 00c0 40F0D280 		bne	.L7
 504              	.L12:
 505              	.LBB4:
 506              		.loc 1 143 0
 507 00c4 4FF02003 		mov	r3, #32
 508              	@ 143 "../../test/testthd.c" 1
 509 00c8 83F31188 		msr     BASEPRI, r3
 510              	@ 0 "" 2
 511              		.thumb
 512              	.LBE4:
 513 00cc FFF7FEFF 		bl	dbg_check_lock
 514              		.loc 1 144 0
 515 00d0 40F20003 		movw	r3, #:lower16:rlist
 516 00d4 C0F20003 		movt	r3, #:upper16:rlist
 517 00d8 9A69     		ldr	r2, [r3, #24]
 518 00da 40F20003 		movw	r3, #:lower16:rlist
 519 00de C0F20003 		movt	r3, #:upper16:rlist
 520 00e2 9B69     		ldr	r3, [r3, #24]
 521 00e4 9B68     		ldr	r3, [r3, #8]
 522 00e6 03F10203 		add	r3, r3, #2
 523 00ea 9360     		str	r3, [r2, #8]
 524              		.loc 1 145 0
 525 00ec FFF7FEFF 		bl	dbg_check_unlock
 526              	.LBB5:
 527 00f0 4FF00003 		mov	r3, #0
 528              	@ 145 "../../test/testthd.c" 1
 529 00f4 83F31188 		msr     BASEPRI, r3
 530              	@ 0 "" 2
 531              		.thumb
 532              	.LBE5:
 533              		.loc 1 146 0
 534 00f8 40F20003 		movw	r3, #:lower16:rlist
 535 00fc C0F20003 		movt	r3, #:upper16:rlist
 536 0100 9B69     		ldr	r3, [r3, #24]
 537 0102 9A68     		ldr	r2, [r3, #8]
 538 0104 019B     		ldr	r3, [sp, #4]
 539 0106 03F10203 		add	r3, r3, #2
 540 010a 9A42     		cmp	r2, r3
 541 010c 14BF     		ite	ne
 542 010e 0023     		movne	r3, #0
 543 0110 0123     		moveq	r3, #1
 544 0112 DBB2     		uxtb	r3, r3
 545 0114 4FF00500 		mov	r0, #5
 546 0118 1946     		mov	r1, r3
 547 011a FFF7FEFF 		bl	_test_assert
 548 011e 0346     		mov	r3, r0
 549 0120 002B     		cmp	r3, #0
 550 0122 40F0A180 		bne	.L7
 551              	.L13:
 552              		.loc 1 150 0
 553 0126 019B     		ldr	r3, [sp, #4]
 554 0128 03F10103 		add	r3, r3, #1
 555 012c 1846     		mov	r0, r3
 556 012e FFF7FEFF 		bl	chThdSetPriority
ARM GAS  /tmp/ccsXnYib.s 			page 11


 557 0132 0090     		str	r0, [sp, #0]
 558              		.loc 1 151 0
 559 0134 009A     		ldr	r2, [sp, #0]
 560 0136 019B     		ldr	r3, [sp, #4]
 561 0138 9A42     		cmp	r2, r3
 562 013a 14BF     		ite	ne
 563 013c 0023     		movne	r3, #0
 564 013e 0123     		moveq	r3, #1
 565 0140 DBB2     		uxtb	r3, r3
 566 0142 4FF00600 		mov	r0, #6
 567 0146 1946     		mov	r1, r3
 568 0148 FFF7FEFF 		bl	_test_assert
 569 014c 0346     		mov	r3, r0
 570 014e 002B     		cmp	r3, #0
 571 0150 40F08A80 		bne	.L7
 572              	.L14:
 573              		.loc 1 153 0
 574 0154 40F20003 		movw	r3, #:lower16:rlist
 575 0158 C0F20003 		movt	r3, #:upper16:rlist
 576 015c 9B69     		ldr	r3, [r3, #24]
 577 015e 9A68     		ldr	r2, [r3, #8]
 578 0160 019B     		ldr	r3, [sp, #4]
 579 0162 03F10203 		add	r3, r3, #2
 580 0166 9A42     		cmp	r2, r3
 581 0168 14BF     		ite	ne
 582 016a 0023     		movne	r3, #0
 583 016c 0123     		moveq	r3, #1
 584 016e DBB2     		uxtb	r3, r3
 585 0170 4FF00700 		mov	r0, #7
 586 0174 1946     		mov	r1, r3
 587 0176 FFF7FEFF 		bl	_test_assert
 588 017a 0346     		mov	r3, r0
 589 017c 002B     		cmp	r3, #0
 590 017e 73D1     		bne	.L7
 591              	.L15:
 592              		.loc 1 155 0
 593 0180 40F20003 		movw	r3, #:lower16:rlist
 594 0184 C0F20003 		movt	r3, #:upper16:rlist
 595 0188 9B69     		ldr	r3, [r3, #24]
 596 018a 5A6C     		ldr	r2, [r3, #68]
 597 018c 019B     		ldr	r3, [sp, #4]
 598 018e 03F10103 		add	r3, r3, #1
 599 0192 9A42     		cmp	r2, r3
 600 0194 14BF     		ite	ne
 601 0196 0023     		movne	r3, #0
 602 0198 0123     		moveq	r3, #1
 603 019a DBB2     		uxtb	r3, r3
 604 019c 4FF00800 		mov	r0, #8
 605 01a0 1946     		mov	r1, r3
 606 01a2 FFF7FEFF 		bl	_test_assert
 607 01a6 0346     		mov	r3, r0
 608 01a8 002B     		cmp	r3, #0
 609 01aa 5DD1     		bne	.L7
 610              	.L16:
 611              		.loc 1 159 0
 612 01ac 019B     		ldr	r3, [sp, #4]
 613 01ae 03F10303 		add	r3, r3, #3
ARM GAS  /tmp/ccsXnYib.s 			page 12


 614 01b2 1846     		mov	r0, r3
 615 01b4 FFF7FEFF 		bl	chThdSetPriority
 616 01b8 0090     		str	r0, [sp, #0]
 617              		.loc 1 160 0
 618 01ba 019B     		ldr	r3, [sp, #4]
 619 01bc 03F10102 		add	r2, r3, #1
 620 01c0 009B     		ldr	r3, [sp, #0]
 621 01c2 9A42     		cmp	r2, r3
 622 01c4 14BF     		ite	ne
 623 01c6 0023     		movne	r3, #0
 624 01c8 0123     		moveq	r3, #1
 625 01ca DBB2     		uxtb	r3, r3
 626 01cc 4FF00900 		mov	r0, #9
 627 01d0 1946     		mov	r1, r3
 628 01d2 FFF7FEFF 		bl	_test_assert
 629 01d6 0346     		mov	r3, r0
 630 01d8 002B     		cmp	r3, #0
 631 01da 45D1     		bne	.L7
 632              	.L17:
 633              		.loc 1 162 0
 634 01dc 40F20003 		movw	r3, #:lower16:rlist
 635 01e0 C0F20003 		movt	r3, #:upper16:rlist
 636 01e4 9B69     		ldr	r3, [r3, #24]
 637 01e6 9A68     		ldr	r2, [r3, #8]
 638 01e8 019B     		ldr	r3, [sp, #4]
 639 01ea 03F10303 		add	r3, r3, #3
 640 01ee 9A42     		cmp	r2, r3
 641 01f0 14BF     		ite	ne
 642 01f2 0023     		movne	r3, #0
 643 01f4 0123     		moveq	r3, #1
 644 01f6 DBB2     		uxtb	r3, r3
 645 01f8 4FF00A00 		mov	r0, #10
 646 01fc 1946     		mov	r1, r3
 647 01fe FFF7FEFF 		bl	_test_assert
 648 0202 0346     		mov	r3, r0
 649 0204 002B     		cmp	r3, #0
 650 0206 2FD1     		bne	.L7
 651              	.L18:
 652              		.loc 1 164 0
 653 0208 40F20003 		movw	r3, #:lower16:rlist
 654 020c C0F20003 		movt	r3, #:upper16:rlist
 655 0210 9B69     		ldr	r3, [r3, #24]
 656 0212 5A6C     		ldr	r2, [r3, #68]
 657 0214 019B     		ldr	r3, [sp, #4]
 658 0216 03F10303 		add	r3, r3, #3
 659 021a 9A42     		cmp	r2, r3
 660 021c 14BF     		ite	ne
 661 021e 0023     		movne	r3, #0
 662 0220 0123     		moveq	r3, #1
 663 0222 DBB2     		uxtb	r3, r3
 664 0224 4FF00B00 		mov	r0, #11
 665 0228 1946     		mov	r1, r3
 666 022a FFF7FEFF 		bl	_test_assert
 667 022e 0346     		mov	r3, r0
 668 0230 002B     		cmp	r3, #0
 669 0232 19D1     		bne	.L7
 670              	.L19:
ARM GAS  /tmp/ccsXnYib.s 			page 13


 671              	.LBB6:
 672              		.loc 1 167 0
 673 0234 4FF02003 		mov	r3, #32
 674              	@ 167 "../../test/testthd.c" 1
 675 0238 83F31188 		msr     BASEPRI, r3
 676              	@ 0 "" 2
 677              		.thumb
 678              	.LBE6:
 679 023c FFF7FEFF 		bl	dbg_check_lock
 680              		.loc 1 168 0
 681 0240 40F20003 		movw	r3, #:lower16:rlist
 682 0244 C0F20003 		movt	r3, #:upper16:rlist
 683 0248 9B69     		ldr	r3, [r3, #24]
 684 024a 019A     		ldr	r2, [sp, #4]
 685 024c 9A60     		str	r2, [r3, #8]
 686              		.loc 1 169 0
 687 024e 40F20003 		movw	r3, #:lower16:rlist
 688 0252 C0F20003 		movt	r3, #:upper16:rlist
 689 0256 9B69     		ldr	r3, [r3, #24]
 690 0258 019A     		ldr	r2, [sp, #4]
 691 025a 5A64     		str	r2, [r3, #68]
 692              		.loc 1 170 0
 693 025c FFF7FEFF 		bl	dbg_check_unlock
 694              	.LBB7:
 695 0260 4FF00003 		mov	r3, #0
 696              	@ 170 "../../test/testthd.c" 1
 697 0264 83F31188 		msr     BASEPRI, r3
 698              	@ 0 "" 2
 699              		.thumb
 700              	.L7:
 701              	.LBE7:
 702              		.loc 1 172 0
 703 0268 03B0     		add	sp, sp, #12
 704 026a 00BD     		pop	{pc}
 705              		.cfi_endproc
 706              	.LFE10:
 707              		.size	thd3_execute, .-thd3_execute
 708              		.global	testthd3
 709 026c AFF30080 		.section	.rodata
 710 0053 00       		.align	2
 711              	.LC8:
 712 0054 54687265 		.ascii	"Threads, priority change\000"
 712      6164732C 
 712      20707269 
 712      6F726974 
 712      79206368 
 713              		.section	.rodata.testthd3,"a",%progbits
 714              		.align	2
 715              		.type	testthd3, %object
 716              		.size	testthd3, 16
 717              	testthd3:
 718 0000 54000000 		.word	.LC8
 719 0004 00000000 		.word	0
 720 0008 00000000 		.word	0
 721 000c 00000000 		.word	thd3_execute
 722              		.section	.text.thd4_execute,"ax",%progbits
 723              		.align	2
ARM GAS  /tmp/ccsXnYib.s 			page 14


 724              		.p2align 4,,15
 725              		.thumb
 726              		.thumb_func
 727              		.type	thd4_execute, %function
 728              	thd4_execute:
 729              	.LFB11:
 730              		.loc 1 189 0
 731              		.cfi_startproc
 732              		@ args = 0, pretend = 0, frame = 8
 733              		@ frame_needed = 0, uses_anonymous_args = 0
 734 0000 00B5     		push	{lr}
 735              	.LCFI8:
 736              		.cfi_def_cfa_offset 4
 737              		.cfi_offset 14, -4
 738 0002 83B0     		sub	sp, sp, #12
 739              	.LCFI9:
 740              		.cfi_def_cfa_offset 16
 741              		.loc 1 192 0
 742 0004 FFF7FEFF 		bl	test_wait_tick
 743              		.loc 1 195 0
 744 0008 40F20003 		movw	r3, #:lower16:vtlist
 745 000c C0F20003 		movt	r3, #:upper16:vtlist
 746 0010 DB68     		ldr	r3, [r3, #12]
 747 0012 0193     		str	r3, [sp, #4]
 748              		.loc 1 196 0
 749 0014 4FF06400 		mov	r0, #100
 750 0018 FFF7FEFF 		bl	chThdSleep
 751              		.loc 1 197 0
 752 001c 019B     		ldr	r3, [sp, #4]
 753 001e 03F16402 		add	r2, r3, #100
 754 0022 019B     		ldr	r3, [sp, #4]
 755 0024 03F16503 		add	r3, r3, #101
 756 0028 4FF00100 		mov	r0, #1
 757 002c 1146     		mov	r1, r2
 758 002e 1A46     		mov	r2, r3
 759 0030 FFF7FEFF 		bl	_test_assert_time_window
 760 0034 0346     		mov	r3, r0
 761 0036 002B     		cmp	r3, #0
 762 0038 47D1     		bne	.L20
 763              	.L21:
 764              		.loc 1 200 0
 765 003a 40F20003 		movw	r3, #:lower16:vtlist
 766 003e C0F20003 		movt	r3, #:upper16:vtlist
 767 0042 DB68     		ldr	r3, [r3, #12]
 768 0044 0193     		str	r3, [sp, #4]
 769              		.loc 1 201 0
 770 0046 4FF06400 		mov	r0, #100
 771 004a FFF7FEFF 		bl	chThdSleep
 772              		.loc 1 202 0
 773 004e 019B     		ldr	r3, [sp, #4]
 774 0050 03F16402 		add	r2, r3, #100
 775 0054 019B     		ldr	r3, [sp, #4]
 776 0056 03F16503 		add	r3, r3, #101
 777 005a 4FF00200 		mov	r0, #2
 778 005e 1146     		mov	r1, r2
 779 0060 1A46     		mov	r2, r3
 780 0062 FFF7FEFF 		bl	_test_assert_time_window
ARM GAS  /tmp/ccsXnYib.s 			page 15


 781 0066 0346     		mov	r3, r0
 782 0068 002B     		cmp	r3, #0
 783 006a 2ED1     		bne	.L20
 784              	.L23:
 785              		.loc 1 205 0
 786 006c 40F20003 		movw	r3, #:lower16:vtlist
 787 0070 C0F20003 		movt	r3, #:upper16:vtlist
 788 0074 DB68     		ldr	r3, [r3, #12]
 789 0076 0193     		str	r3, [sp, #4]
 790              		.loc 1 206 0
 791 0078 4FF47A70 		mov	r0, #1000
 792 007c FFF7FEFF 		bl	chThdSleep
 793              		.loc 1 207 0
 794 0080 019B     		ldr	r3, [sp, #4]
 795 0082 03F57A72 		add	r2, r3, #1000
 796 0086 019B     		ldr	r3, [sp, #4]
 797 0088 03F2E933 		addw	r3, r3, #1001
 798 008c 4FF00300 		mov	r0, #3
 799 0090 1146     		mov	r1, r2
 800 0092 1A46     		mov	r2, r3
 801 0094 FFF7FEFF 		bl	_test_assert_time_window
 802 0098 0346     		mov	r3, r0
 803 009a 002B     		cmp	r3, #0
 804 009c 15D1     		bne	.L20
 805              	.L24:
 806              		.loc 1 210 0
 807 009e 40F20003 		movw	r3, #:lower16:vtlist
 808 00a2 C0F20003 		movt	r3, #:upper16:vtlist
 809 00a6 DB68     		ldr	r3, [r3, #12]
 810 00a8 03F16403 		add	r3, r3, #100
 811 00ac 0193     		str	r3, [sp, #4]
 812              		.loc 1 211 0
 813 00ae 0198     		ldr	r0, [sp, #4]
 814 00b0 FFF7FEFF 		bl	chThdSleepUntil
 815              		.loc 1 212 0
 816 00b4 019B     		ldr	r3, [sp, #4]
 817 00b6 03F10103 		add	r3, r3, #1
 818 00ba 4FF00400 		mov	r0, #4
 819 00be 0199     		ldr	r1, [sp, #4]
 820 00c0 1A46     		mov	r2, r3
 821 00c2 FFF7FEFF 		bl	_test_assert_time_window
 822 00c6 0346     		mov	r3, r0
 823 00c8 002B     		cmp	r3, #0
 824              	.L20:
 825              		.loc 1 213 0
 826 00ca 03B0     		add	sp, sp, #12
 827 00cc 00BD     		pop	{pc}
 828              		.cfi_endproc
 829              	.LFE11:
 830              		.size	thd4_execute, .-thd4_execute
 831              		.global	testthd4
 832 00ce 00BF     		.section	.rodata
 833 006d 000000   		.align	2
 834              	.LC9:
 835 0070 54687265 		.ascii	"Threads, delays\000"
 835      6164732C 
 835      2064656C 
ARM GAS  /tmp/ccsXnYib.s 			page 16


 835      61797300 
 836              		.section	.rodata.testthd4,"a",%progbits
 837              		.align	2
 838              		.type	testthd4, %object
 839              		.size	testthd4, 16
 840              	testthd4:
 841 0000 70000000 		.word	.LC9
 842 0004 00000000 		.word	0
 843 0008 00000000 		.word	0
 844 000c 00000000 		.word	thd4_execute
 845              		.global	patternthd
 846              		.section	.rodata.patternthd,"a",%progbits
 847              		.align	2
 848              		.type	patternthd, %object
 849              		.size	patternthd, 20
 850              	patternthd:
 851 0000 00000000 		.word	testthd1
 852 0004 00000000 		.word	testthd2
 853 0008 00000000 		.word	testthd3
 854 000c 00000000 		.word	testthd4
 855 0010 00000000 		.word	0
 856              		.text
 857              	.Letext0:
 858              		.file 2 "/usr/bin/../lib/gcc/arm-none-eabi/4.7.4/../../../../arm-none-eabi/include/stdint.h"
 859              		.file 3 "../../os/ports/GCC/ARMCMx/chtypes.h"
 860              		.file 4 "../../os/kernel/include/chlists.h"
 861              		.file 5 "../../os/kernel/include/chthreads.h"
 862              		.file 6 "../../os/ports/GCC/ARMCMx/chcore_v7m.h"
 863              		.file 7 "../../os/kernel/include/chvt.h"
 864              		.file 8 "../../os/kernel/include/chschd.h"
 865              		.file 9 "../../os/kernel/include/chmtx.h"
 866              		.file 10 "../../test/test.h"