ARM GAS  /tmp/ccsXnYib.s 			page 1


   1              		.syntax unified
   2              		.cpu cortex-m4
   3              		.fpu softvfp
   4              		.eabi_attribute 20, 1
   5              		.eabi_attribute 21, 1
   6              		.eabi_attribute 23, 3
   7              		.eabi_attribute 24, 1
   8              		.eabi_attribute 25, 1
   9              		.eabi_attribute 26, 1
  10              		.eabi_attribute 30, 6
  11              		.eabi_attribute 34, 1
  12              		.eabi_attribute 18, 4
  13              		.thumb
  14              		.file	"testthd.c"
  15              		.text
  16              	.Ltext0:
  17              		.cfi_sections	.debug_frame
  18              		.section	.text.thread,"ax",%progbits
  19              		.align	2
  20              		.p2align 4,,15
  21              		.thumb
  22              		.thumb_func
  23              		.type	thread, %function
  24              	thread:
  25              	.LFB7:
  26              		.file 1 "../../test/testthd.c"
  27              		.loc 1 60 0
  28              		.cfi_startproc
  29              		@ args = 0, pretend = 0, frame = 8
  30              		@ frame_needed = 0, uses_anonymous_args = 0
  31 0000 00B5     		push	{lr}
  32              	.LCFI0:
  33              		.cfi_def_cfa_offset 4
  34              		.cfi_offset 14, -4
  35 0002 83B0     		sub	sp, sp, #12
  36              	.LCFI1:
  37              		.cfi_def_cfa_offset 16
  38 0004 0190     		str	r0, [sp, #4]
  39              		.loc 1 62 0
  40 0006 019B     		ldr	r3, [sp, #4]
  41 0008 1B78     		ldrb	r3, [r3, #0]	@ zero_extendqisi2
  42 000a 1846     		mov	r0, r3
  43 000c FFF7FEFF 		bl	test_emit_token
  44              		.loc 1 63 0
  45 0010 4FF00003 		mov	r3, #0
  46              		.loc 1 64 0
  47 0014 1846     		mov	r0, r3
  48 0016 03B0     		add	sp, sp, #12
  49 0018 00BD     		pop	{pc}
  50              		.cfi_endproc
  51              	.LFE7:
  52              		.size	thread, .-thread
  53 001a 00BFAFF3 		.section	.rodata
  53      0080
  54              		.align	2
  55              	.LC0:
  56 0000 4500     		.ascii	"E\000"
ARM GAS  /tmp/ccsXnYib.s 			page 2


  57 0002 0000     		.align	2
  58              	.LC1:
  59 0004 4400     		.ascii	"D\000"
  60 0006 0000     		.align	2
  61              	.LC2:
  62 0008 4300     		.ascii	"C\000"
  63 000a 0000     		.align	2
  64              	.LC3:
  65 000c 4200     		.ascii	"B\000"
  66 000e 0000     		.align	2
  67              	.LC4:
  68 0010 4100     		.ascii	"A\000"
  69 0012 0000     		.align	2
  70              	.LC5:
  71 0014 41424344 		.ascii	"ABCDE\000"
  71      4500
  72              		.section	.text.thd1_execute,"ax",%progbits
  73              		.align	2
  74              		.p2align 4,,15
  75              		.thumb
  76              		.thumb_func
  77              		.type	thd1_execute, %function
  78              	thd1_execute:
  79              	.LFB8:
  80              		.loc 1 66 0
  81              		.cfi_startproc
  82              		@ args = 0, pretend = 0, frame = 0
  83              		@ frame_needed = 0, uses_anonymous_args = 0
  84 0000 00B5     		push	{lr}
  85              	.LCFI2:
  86              		.cfi_def_cfa_offset 4
  87              		.cfi_offset 14, -4
  88 0002 83B0     		sub	sp, sp, #12
  89              	.LCFI3:
  90              		.cfi_def_cfa_offset 16
  91              		.loc 1 68 0
  92 0004 40F20003 		movw	r3, #:lower16:wa
  93 0008 C0F20003 		movt	r3, #:upper16:wa
  94 000c 1968     		ldr	r1, [r3, #0]
  95 000e 40F20003 		movw	r3, #:lower16:rlist
  96 0012 C0F20003 		movt	r3, #:upper16:rlist
  97 0016 9B69     		ldr	r3, [r3, #24]
  98 0018 9B68     		ldr	r3, [r3, #8]
  99 001a A3F10502 		sub	r2, r3, #5
 100 001e 40F20003 		movw	r3, #:lower16:.LC0
 101 0022 C0F20003 		movt	r3, #:upper16:.LC0
 102 0026 0093     		str	r3, [sp, #0]
 103 0028 0846     		mov	r0, r1
 104 002a 4FF49871 		mov	r1, #304
 105 002e 40F20003 		movw	r3, #:lower16:thread
 106 0032 C0F20003 		movt	r3, #:upper16:thread
 107 0036 FFF7FEFF 		bl	chThdCreateStatic
 108 003a 0246     		mov	r2, r0
 109 003c 40F20003 		movw	r3, #:lower16:threads
 110 0040 C0F20003 		movt	r3, #:upper16:threads
 111 0044 1A60     		str	r2, [r3, #0]
 112              		.loc 1 69 0
ARM GAS  /tmp/ccsXnYib.s 			page 3


 113 0046 40F20003 		movw	r3, #:lower16:wa
 114 004a C0F20003 		movt	r3, #:upper16:wa
 115 004e 5968     		ldr	r1, [r3, #4]
 116 0050 40F20003 		movw	r3, #:lower16:rlist
 117 0054 C0F20003 		movt	r3, #:upper16:rlist
 118 0058 9B69     		ldr	r3, [r3, #24]
 119 005a 9B68     		ldr	r3, [r3, #8]
 120 005c A3F10402 		sub	r2, r3, #4
 121 0060 40F20003 		movw	r3, #:lower16:.LC1
 122 0064 C0F20003 		movt	r3, #:upper16:.LC1
 123 0068 0093     		str	r3, [sp, #0]
 124 006a 0846     		mov	r0, r1
 125 006c 4FF49871 		mov	r1, #304
 126 0070 40F20003 		movw	r3, #:lower16:thread
 127 0074 C0F20003 		movt	r3, #:upper16:thread
 128 0078 FFF7FEFF 		bl	chThdCreateStatic
 129 007c 0246     		mov	r2, r0
 130 007e 40F20003 		movw	r3, #:lower16:threads
 131 0082 C0F20003 		movt	r3, #:upper16:threads
 132 0086 5A60     		str	r2, [r3, #4]
 133              		.loc 1 70 0
 134 0088 40F20003 		movw	r3, #:lower16:wa
 135 008c C0F20003 		movt	r3, #:upper16:wa
 136 0090 9968     		ldr	r1, [r3, #8]
 137 0092 40F20003 		movw	r3, #:lower16:rlist
 138 0096 C0F20003 		movt	r3, #:upper16:rlist
 139 009a 9B69     		ldr	r3, [r3, #24]
 140 009c 9B68     		ldr	r3, [r3, #8]
 141 009e A3F10302 		sub	r2, r3, #3
 142 00a2 40F20003 		movw	r3, #:lower16:.LC2
 143 00a6 C0F20003 		movt	r3, #:upper16:.LC2
 144 00aa 0093     		str	r3, [sp, #0]
 145 00ac 0846     		mov	r0, r1
 146 00ae 4FF49871 		mov	r1, #304
 147 00b2 40F20003 		movw	r3, #:lower16:thread
 148 00b6 C0F20003 		movt	r3, #:upper16:thread
 149 00ba FFF7FEFF 		bl	chThdCreateStatic
 150 00be 0246     		mov	r2, r0
 151 00c0 40F20003 		movw	r3, #:lower16:threads
 152 00c4 C0F20003 		movt	r3, #:upper16:threads
 153 00c8 9A60     		str	r2, [r3, #8]
 154              		.loc 1 71 0
 155 00ca 40F20003 		movw	r3, #:lower16:wa
 156 00ce C0F20003 		movt	r3, #:upper16:wa
 157 00d2 D968     		ldr	r1, [r3, #12]
 158 00d4 40F20003 		movw	r3, #:lower16:rlist
 159 00d8 C0F20003 		movt	r3, #:upper16:rlist
 160 00dc 9B69     		ldr	r3, [r3, #24]
 161 00de 9B68     		ldr	r3, [r3, #8]
 162 00e0 A3F10202 		sub	r2, r3, #2
 163 00e4 40F20003 		movw	r3, #:lower16:.LC3
 164 00e8 C0F20003 		movt	r3, #:upper16:.LC3
 165 00ec 0093     		str	r3, [sp, #0]
 166 00ee 0846     		mov	r0, r1
 167 00f0 4FF49871 		mov	r1, #304
 168 00f4 40F20003 		movw	r3, #:lower16:thread
 169 00f8 C0F20003 		movt	r3, #:upper16:thread
ARM GAS  /tmp/ccsXnYib.s 			page 4


 170 00fc FFF7FEFF 		bl	chThdCreateStatic
 171 0100 0246     		mov	r2, r0
 172 0102 40F20003 		movw	r3, #:lower16:threads
 173 0106 C0F20003 		movt	r3, #:upper16:threads
 174 010a DA60     		str	r2, [r3, #12]
 175              		.loc 1 72 0
 176 010c 40F20003 		movw	r3, #:lower16:wa
 177 0110 C0F20003 		movt	r3, #:upper16:wa
 178 0114 1969     		ldr	r1, [r3, #16]
 179 0116 40F20003 		movw	r3, #:lower16:rlist
 180 011a C0F20003 		movt	r3, #:upper16:rlist
 181 011e 9B69     		ldr	r3, [r3, #24]
 182 0120 9B68     		ldr	r3, [r3, #8]
 183 0122 03F1FF32 		add	r2, r3, #-1
 184 0126 40F20003 		movw	r3, #:lower16:.LC4
 185 012a C0F20003 		movt	r3, #:upper16:.LC4
 186 012e 0093     		str	r3, [sp, #0]
 187 0130 0846     		mov	r0, r1
 188 0132 4FF49871 		mov	r1, #304
 189 0136 40F20003 		movw	r3, #:lower16:thread
 190 013a C0F20003 		movt	r3, #:upper16:thread
 191 013e FFF7FEFF 		bl	chThdCreateStatic
 192 0142 0246     		mov	r2, r0
 193 0144 40F20003 		movw	r3, #:lower16:threads
 194 0148 C0F20003 		movt	r3, #:upper16:threads
 195 014c 1A61     		str	r2, [r3, #16]
 196              		.loc 1 73 0
 197 014e FFF7FEFF 		bl	test_wait_threads
 198              		.loc 1 74 0
 199 0152 4FF00100 		mov	r0, #1
 200 0156 40F20001 		movw	r1, #:lower16:.LC5
 201 015a C0F20001 		movt	r1, #:upper16:.LC5
 202 015e FFF7FEFF 		bl	_test_assert_sequence
 203 0162 0346     		mov	r3, r0
 204 0164 002B     		cmp	r3, #0
 205              		.loc 1 75 0
 206 0166 03B0     		add	sp, sp, #12
 207 0168 00BD     		pop	{pc}
 208              		.cfi_endproc
 209              	.LFE8:
 210              		.size	thd1_execute, .-thd1_execute
 211              		.global	testthd1
 212 016a 00BFAFF3 		.section	.rodata
 212      0080
 213 001a 0000     		.align	2
 214              	.LC6:
 215 001c 54687265 		.ascii	"Threads, enqueuing test #1\000"
 215      6164732C 
 215      20656E71 
 215      75657569 
 215      6E672074 
 216              		.section	.rodata.testthd1,"a",%progbits
 217              		.align	2
 218              		.type	testthd1, %object
 219              		.size	testthd1, 16
 220              	testthd1:
 221 0000 1C000000 		.word	.LC6
ARM GAS  /tmp/ccsXnYib.s 			page 5


 222 0004 00000000 		.word	0
 223 0008 00000000 		.word	0
 224 000c 00000000 		.word	thd1_execute
 225              		.section	.text.thd2_execute,"ax",%progbits
 226              		.align	2
 227              		.p2align 4,,15
 228              		.thumb
 229              		.thumb_func
 230              		.type	thd2_execute, %function
 231              	thd2_execute:
 232              	.LFB9:
 233              		.loc 1 94 0
 234              		.cfi_startproc
 235              		@ args = 0, pretend = 0, frame = 0
 236              		@ frame_needed = 0, uses_anonymous_args = 0
 237 0000 00B5     		push	{lr}
 238              	.LCFI4:
 239              		.cfi_def_cfa_offset 4
 240              		.cfi_offset 14, -4
 241 0002 83B0     		sub	sp, sp, #12
 242              	.LCFI5:
 243              		.cfi_def_cfa_offset 16
 244              		.loc 1 96 0
 245 0004 40F20003 		movw	r3, #:lower16:wa
 246 0008 C0F20003 		movt	r3, #:upper16:wa
 247 000c 5968     		ldr	r1, [r3, #4]
 248 000e 40F20003 		movw	r3, #:lower16:rlist
 249 0012 C0F20003 		movt	r3, #:upper16:rlist
 250 0016 9B69     		ldr	r3, [r3, #24]
 251 0018 9B68     		ldr	r3, [r3, #8]
 252 001a A3F10402 		sub	r2, r3, #4
 253 001e 40F20003 		movw	r3, #:lower16:.LC1
 254 0022 C0F20003 		movt	r3, #:upper16:.LC1
 255 0026 0093     		str	r3, [sp, #0]
 256 0028 0846     		mov	r0, r1
 257 002a 4FF49871 		mov	r1, #304
 258 002e 40F20003 		movw	r3, #:lower16:thread
 259 0032 C0F20003 		movt	r3, #:upper16:thread
 260 0036 FFF7FEFF 		bl	chThdCreateStatic
 261 003a 0246     		mov	r2, r0
 262 003c 40F20003 		movw	r3, #:lower16:threads
 263 0040 C0F20003 		movt	r3, #:upper16:threads
 264 0044 5A60     		str	r2, [r3, #4]
 265              		.loc 1 97 0
 266 0046 40F20003 		movw	r3, #:lower16:wa
 267 004a C0F20003 		movt	r3, #:upper16:wa
 268 004e 1968     		ldr	r1, [r3, #0]
 269 0050 40F20003 		movw	r3, #:lower16:rlist
 270 0054 C0F20003 		movt	r3, #:upper16:rlist
 271 0058 9B69     		ldr	r3, [r3, #24]
 272 005a 9B68     		ldr	r3, [r3, #8]
 273 005c A3F10502 		sub	r2, r3, #5
 274 0060 40F20003 		movw	r3, #:lower16:.LC0
 275 0064 C0F20003 		movt	r3, #:upper16:.LC0
 276 0068 0093     		str	r3, [sp, #0]
 277 006a 0846     		mov	r0, r1
 278 006c 4FF49871 		mov	r1, #304
ARM GAS  /tmp/ccsXnYib.s 			page 6


 279 0070 40F20003 		movw	r3, #:lower16:thread
 280 0074 C0F20003 		movt	r3, #:upper16:thread
 281 0078 FFF7FEFF 		bl	chThdCreateStatic
 282 007c 0246     		mov	r2, r0
 283 007e 40F20003 		movw	r3, #:lower16:threads
 284 0082 C0F20003 		movt	r3, #:upper16:threads
 285 0086 1A60     		str	r2, [r3, #0]
 286              		.loc 1 98 0
 287 0088 40F20003 		movw	r3, #:lower16:wa
 288 008c C0F20003 		movt	r3, #:upper16:wa
 289 0090 1969     		ldr	r1, [r3, #16]
 290 0092 40F20003 		movw	r3, #:lower16:rlist
 291 0096 C0F20003 		movt	r3, #:upper16:rlist
 292 009a 9B69     		ldr	r3, [r3, #24]
 293 009c 9B68     		ldr	r3, [r3, #8]
 294 009e 03F1FF32 		add	r2, r3, #-1
 295 00a2 40F20003 		movw	r3, #:lower16:.LC4
 296 00a6 C0F20003 		movt	r3, #:upper16:.LC4
 297 00aa 0093     		str	r3, [sp, #0]
 298 00ac 0846     		mov	r0, r1
 299 00ae 4FF49871 		mov	r1, #304
 300 00b2 40F20003 		movw	r3, #:lower16:thread
 301 00b6 C0F20003 		movt	r3, #:upper16:thread
 302 00ba FFF7FEFF 		bl	chThdCreateStatic
 303 00be 0246     		mov	r2, r0
 304 00c0 40F20003 		movw	r3, #:lower16:threads
 305 00c4 C0F20003 		movt	r3, #:upper16:threads
 306 00c8 1A61     		str	r2, [r3, #16]
 307              		.loc 1 99 0
 308 00ca 40F20003 		movw	r3, #:lower16:wa
 309 00ce C0F20003 		movt	r3, #:upper16:wa
 310 00d2 D968     		ldr	r1, [r3, #12]
 311 00d4 40F20003 		movw	r3, #:lower16:rlist
 312 00d8 C0F20003 		movt	r3, #:upper16:rlist
 313 00dc 9B69     		ldr	r3, [r3, #24]
 314 00de 9B68     		ldr	r3, [r3, #8]
 315 00e0 A3F10202 		sub	r2, r3, #2
 316 00e4 40F20003 		movw	r3, #:lower16:.LC3
 317 00e8 C0F20003 		movt	r3, #:upper16:.LC3
 318 00ec 0093     		str	r3, [sp, #0]
 319 00ee 0846     		mov	r0, r1
 320 00f0 4FF49871 		mov	r1, #304
 321 00f4 40F20003 		movw	r3, #:lower16:thread
 322 00f8 C0F20003 		movt	r3, #:upper16:thread
 323 00fc FFF7FEFF 		bl	chThdCreateStatic
 324 0100 0246     		mov	r2, r0
 325 0102 40F20003 		movw	r3, #:lower16:threads
 326 0106 C0F20003 		movt	r3, #:upper16:threads
 327 010a DA60     		str	r2, [r3, #12]
 328              	.LBB2:
 329              		.loc 1 101 0
 330 010c 4FF02003 		mov	r3, #32
 331              	@ 101 "../../test/testthd.c" 1
 332 0110 83F31188 		msr     BASEPRI, r3
 333              	@ 0 "" 2
 334              		.thumb
 335              	.LBE2:
ARM GAS  /tmp/ccsXnYib.s 			page 7


 336 0114 FFF7FEFF 		bl	dbg_check_lock
 337              		.loc 1 102 0
 338 0118 40F20003 		movw	r3, #:lower16:wa
 339 011c C0F20003 		movt	r3, #:upper16:wa
 340 0120 9968     		ldr	r1, [r3, #8]
 341 0122 40F20003 		movw	r3, #:lower16:rlist
 342 0126 C0F20003 		movt	r3, #:upper16:rlist
 343 012a 9B69     		ldr	r3, [r3, #24]
 344 012c 9B68     		ldr	r3, [r3, #8]
 345 012e A3F10302 		sub	r2, r3, #3
 346 0132 40F20003 		movw	r3, #:lower16:.LC2
 347 0136 C0F20003 		movt	r3, #:upper16:.LC2
 348 013a 0093     		str	r3, [sp, #0]
 349 013c 0846     		mov	r0, r1
 350 013e 4FF49871 		mov	r1, #304
 351 0142 40F20003 		movw	r3, #:lower16:thread
 352 0146 C0F20003 		movt	r3, #:upper16:thread
 353 014a FFF7FEFF 		bl	chThdCreateI
 354 014e 0246     		mov	r2, r0
 355 0150 40F20003 		movw	r3, #:lower16:threads
 356 0154 C0F20003 		movt	r3, #:upper16:threads
 357 0158 9A60     		str	r2, [r3, #8]
 358              		.loc 1 103 0
 359 015a FFF7FEFF 		bl	dbg_check_unlock
 360              	.LBB3:
 361 015e 4FF00003 		mov	r3, #0
 362              	@ 103 "../../test/testthd.c" 1
 363 0162 83F31188 		msr     BASEPRI, r3
 364              	@ 0 "" 2
 365              		.thumb
 366              	.LBE3:
 367              		.loc 1 104 0
 368 0166 40F20003 		movw	r3, #:lower16:threads
 369 016a C0F20003 		movt	r3, #:upper16:threads
 370 016e 9B68     		ldr	r3, [r3, #8]
 371 0170 1846     		mov	r0, r3
 372 0172 FFF7FEFF 		bl	chThdResume
 373              		.loc 1 105 0
 374 0176 FFF7FEFF 		bl	test_wait_threads
 375              		.loc 1 106 0
 376 017a 4FF00100 		mov	r0, #1
 377 017e 40F20001 		movw	r1, #:lower16:.LC5
 378 0182 C0F20001 		movt	r1, #:upper16:.LC5
 379 0186 FFF7FEFF 		bl	_test_assert_sequence
 380 018a 0346     		mov	r3, r0
 381 018c 002B     		cmp	r3, #0
 382              		.loc 1 107 0
 383 018e 03B0     		add	sp, sp, #12
 384 0190 00BD     		pop	{pc}
 385              		.cfi_endproc
 386              	.LFE9:
 387              		.size	thd2_execute, .-thd2_execute
 388              		.global	testthd2
 389 0192 00BFAFF3 		.section	.rodata
 389      0080AFF3 
 389      0080AFF3 
 389      0080
ARM GAS  /tmp/ccsXnYib.s 			page 8


 390 0037 00       		.align	2
 391              	.LC7:
 392 0038 54687265 		.ascii	"Threads, enqueuing test #2\000"
 392      6164732C 
 392      20656E71 
 392      75657569 
 392      6E672074 
 393              		.section	.rodata.testthd2,"a",%progbits
 394              		.align	2
 395              		.type	testthd2, %object
 396              		.size	testthd2, 16
 397              	testthd2:
 398 0000 38000000 		.word	.LC7
 399 0004 00000000 		.word	0
 400 0008 00000000 		.word	0
 401 000c 00000000 		.word	thd2_execute
 402              		.section	.text.thd3_execute,"ax",%progbits
 403              		.align	2
 404              		.p2align 4,,15
 405              		.thumb
 406              		.thumb_func
 407              		.type	thd3_execute, %function
 408              	thd3_execute:
 409              	.LFB10:
 410              		.loc 1 126 0
 411              		.cfi_startproc
 412              		@ args = 0, pretend = 0, frame = 8
 413              		@ frame_needed = 0, uses_anonymous_args = 0
 414 0000 00B5     		push	{lr}
 415              	.LCFI6:
 416              		.cfi_def_cfa_offset 4
 417              		.cfi_offset 14, -4
 418 0002 83B0     		sub	sp, sp, #12
 419              	.LCFI7:
 420              		.cfi_def_cfa_offset 16
 421              		.loc 1 129 0
 422 0004 40F20003 		movw	r3, #:lower16:rlist
 423 0008 C0F20003 		movt	r3, #:upper16:rlist
 424 000c 9B69     		ldr	r3, [r3, #24]
 425 000e 9B68     		ldr	r3, [r3, #8]
 426 0010 0193     		str	r3, [sp, #4]
 427              		.loc 1 130 0
 428 0012 019B     		ldr	r3, [sp, #4]
 429 0014 03F10103 		add	r3, r3, #1
 430 0018 1846     		mov	r0, r3
 431 001a FFF7FEFF 		bl	chThdSetPriority
 432 001e 0090     		str	r0, [sp, #0]
 433              		.loc 1 131 0
 434 0020 009A     		ldr	r2, [sp, #0]
 435 0022 019B     		ldr	r3, [sp, #4]
 436 0024 9A42     		cmp	r2, r3
 437 0026 14BF     		ite	ne
 438 0028 0023     		movne	r3, #0
 439 002a 0123     		moveq	r3, #1
 440 002c DBB2     		uxtb	r3, r3
 441 002e 4FF00100 		mov	r0, #1
 442 0032 1946     		mov	r1, r3
ARM GAS  /tmp/ccsXnYib.s 			page 9


 443 0034 FFF7FEFF 		bl	_test_assert
 444 0038 0346     		mov	r3, r0
 445 003a 002B     		cmp	r3, #0
 446 003c 40F01481 		bne	.L7
 447              	.L8:
 448              		.loc 1 133 0
 449 0040 40F20003 		movw	r3, #:lower16:rlist
 450 0044 C0F20003 		movt	r3, #:upper16:rlist
 451 0048 9B69     		ldr	r3, [r3, #24]
 452 004a 9A68     		ldr	r2, [r3, #8]
 453 004c 019B     		ldr	r3, [sp, #4]
 454 004e 03F10103 		add	r3, r3, #1
 455 0052 9A42     		cmp	r2, r3
 456 0054 14BF     		ite	ne
 457 0056 0023     		movne	r3, #0
 458 0058 0123     		moveq	r3, #1
 459 005a DBB2     		uxtb	r3, r3
 460 005c 4FF00200 		mov	r0, #2
 461 0060 1946     		mov	r1, r3
 462 0062 FFF7FEFF 		bl	_test_assert
 463 0066 0346     		mov	r3, r0
 464 0068 002B     		cmp	r3, #0
 465 006a 40F0FD80 		bne	.L7
 466              	.L10:
 467              		.loc 1 135 0
 468 006e 0098     		ldr	r0, [sp, #0]
 469 0070 FFF7FEFF 		bl	chThdSetPriority
 470 0074 0090     		str	r0, [sp, #0]
 471              		.loc 1 136 0
 472 0076 019B     		ldr	r3, [sp, #4]
 473 0078 03F10102 		add	r2, r3, #1
 474 007c 009B     		ldr	r3, [sp, #0]
 475 007e 9A42     		cmp	r2, r3
 476 0080 14BF     		ite	ne
 477 0082 0023     		movne	r3, #0
 478 0084 0123     		moveq	r3, #1
 479 0086 DBB2     		uxtb	r3, r3
 480 0088 4FF00300 		mov	r0, #3
 481 008c 1946     		mov	r1, r3
 482 008e FFF7FEFF 		bl	_test_assert
 483 0092 0346     		mov	r3, r0
 484 0094 002B     		cmp	r3, #0
 485 0096 40F0E780 		bne	.L7
 486              	.L11:
 487              		.loc 1 138 0
 488 009a 40F20003 		movw	r3, #:lower16:rlist
 489 009e C0F20003 		movt	r3, #:upper16:rlist
 490 00a2 9B69     		ldr	r3, [r3, #24]
 491 00a4 9A68     		ldr	r2, [r3, #8]
 492 00a6 019B     		ldr	r3, [sp, #4]
 493 00a8 9A42     		cmp	r2, r3
 494 00aa 14BF     		ite	ne
 495 00ac 0023     		movne	r3, #0
 496 00ae 0123     		moveq	r3, #1
 497 00b0 DBB2     		uxtb	r3, r3
 498 00b2 4FF00400 		mov	r0, #4
 499 00b6 1946     		mov	r1, r3
ARM GAS  /tmp/ccsXnYib.s 			page 10


 500 00b8 FFF7FEFF 		bl	_test_assert
 501 00bc 0346     		mov	r3, r0
 502 00be 002B     		cmp	r3, #0
 503 00c0 40F0D280 		bne	.L7
 504              	.L12:
 505              	.LBB4:
 506              		.loc 1 143 0
 507 00c4 4FF02003 		mov	r3, #32
 508              	@ 143 "../../test/testthd.c" 1
 509 00c8 83F31188 		msr     BASEPRI, r3
 510              	@ 0 "" 2
 511              		.thumb
 512              	.LBE4:
 513 00cc FFF7FEFF 		bl	dbg_check_lock
 514              		.loc 1 144 0
 515 00d0 40F20003 		movw	r3, #:lower16:rlist
 516 00d4 C0F20003 		movt	r3, #:upper16:rlist
 517 00d8 9A69     		ldr	r2, [r3, #24]
 518 00da 40F20003 		movw	r3, #:lower16:rlist
 519 00de C0F20003 		movt	r3, #:upper16:rlist
 520 00e2 9B69     		ldr	r3, [r3, #24]
 521 00e4 9B68     		ldr	r3, [r3, #8]
 522 00e6 03F10203 		add	r3, r3, #2
 523 00ea 9360     		str	r3, [r2, #8]
 524              		.loc 1 145 0
 525 00ec FFF7FEFF 		bl	dbg_check_unlock
 526              	.LBB5:
 527 00f0 4FF00003 		mov	r3, #0
 528              	@ 145 "../../test/testthd.c" 1
 529 00f4 83F31188 		msr     BASEPRI, r3
 530              	@ 0 "" 2
 531              		.thumb
 532              	.LBE5:
 533              		.loc 1 146 0
 534 00f8 40F20003 		movw	r3, #:lower16:rlist
 535 00fc C0F20003 		movt	r3, #:upper16:rlist
 536 0100 9B69     		ldr	r3, [r3, #24]
 537 0102 9A68     		ldr	r2, [r3, #8]
 538 0104 019B     		ldr	r3, [sp, #4]
 539 0106 03F10203 		add	r3, r3, #2
 540 010a 9A42     		cmp	r2, r3
 541 010c 14BF     		ite	ne
 542 010e 0023     		movne	r3, #0
 543 0110 0123     		moveq	r3, #1
 544 0112 DBB2     		uxtb	r3, r3
 545 0114 4FF00500 		mov	r0, #5
 546 0118 1946     		mov	r1, r3
 547 011a FFF7FEFF 		bl	_test_assert
 548 011e 0346     		mov	r3, r0
 549 0120 002B     		cmp	r3, #0
 550 0122 40F0A180 		bne	.L7
 551              	.L13:
 552              		.loc 1 150 0
 553 0126 019B     		ldr	r3, [sp, #4]
 554 0128 03F10103 		add	r3, r3, #1
 555 012c 1846     		mov	r0, r3
 556 012e FFF7FEFF 		bl	chThdSetPriority
ARM GAS  /tmp/ccsXnYib.s 			page 11


 557 0132 0090     		str	r0, [sp, #0]
 558              		.loc 1 151 0
 559 0134 009A     		ldr	r2, [sp, #0]
 560 0136 019B     		ldr	r3, [sp, #4]
 561 0138 9A42     		cmp	r2, r3
 562 013a 14BF     		ite	ne
 563 013c 0023     		movne	r3, #0
 564 013e 0123     		moveq	r3, #1
 565 0140 DBB2     		uxtb	r3, r3
 566 0142 4FF00600 		mov	r0, #6
 567 0146 1946     		mov	r1, r3
 568 0148 FFF7FEFF 		bl	_test_assert
 569 014c 0346     		mov	r3, r0
 570 014e 002B     		cmp	r3, #0
 571 0150 40F08A80 		bne	.L7
 572              	.L14:
 573              		.loc 1 153 0
 574 0154 40F20003 		movw	r3, #:lower16:rlist
 575 0158 C0F20003 		movt	r3, #:upper16:rlist
 576 015c 9B69     		ldr	r3, [r3, #24]
 577 015e 9A68     		ldr	r2, [r3, #8]
 578 0160 019B     		ldr	r3, [sp, #4]
 579 0162 03F10203 		add	r3, r3, #2
 580 0166 9A42     		cmp	r2, r3
 581 0168 14BF     		ite	ne
 582 016a 0023     		movne	r3, #0
 583 016c 0123     		moveq	r3, #1
 584 016e DBB2     		uxtb	r3, r3
 585 0170 4FF00700 		mov	r0, #7
 586 0174 1946     		mov	r1, r3
 587 0176 FFF7FEFF 		bl	_test_assert
 588 017a 0346     		mov	r3, r0
 589 017c 002B     		cmp	r3, #0
 590 017e 73D1     		bne	.L7
 591              	.L15:
 592              		.loc 1 155 0
 593 0180 40F20003 		movw	r3, #:lower16:rlist
 594 0184 C0F20003 		movt	r3, #:upper16:rlist
 595 0188 9B69     		ldr	r3, [r3, #24]
 596 018a 5A6C     		ldr	r2, [r3, #68]
 597 018c 019B     		ldr	r3, [sp, #4]
 598 018e 03F10103 		add	r3, r3, #1
 599 0192 9A42     		cmp	r2, r3
 600 0194 14BF     		ite	ne
 601 0196 0023     		movne	r3, #0
 602 0198 0123     		moveq	r3, #1
 603 019a DBB2     		uxtb	r3, r3
 604 019c 4FF00800 		mov	r0, #8
 605 01a0 1946     		mov	r1, r3
 606 01a2 FFF7FEFF 		bl	_test_assert
 607 01a6 0346     		mov	r3, r0
 608 01a8 002B     		cmp	r3, #0
 609 01aa 5DD1     		bne	.L7
 610              	.L16:
 611              		.loc 1 159 0
 612 01ac 019B     		ldr	r3, [sp, #4]
 613 01ae 03F10303 		add	r3, r3, #3
ARM GAS  /tmp/ccsXnYib.s 			page 12


 614 01b2 1846     		mov	r0, r3
 615 01b4 FFF7FEFF 		bl	chThdSetPriority
 616 01b8 0090     		str	r0, [sp, #0]
 617              		.loc 1 160 0
 618 01ba 019B     		ldr	r3, [sp, #4]
 619 01bc 03F10102 		add	r2, r3, #1
 620 01c0 009B     		ldr	r3, [sp, #0]
 621 01c2 9A42     		cmp	r2, r3
 622 01c4 14BF     		ite	ne
 623 01c6 0023     		movne	r3, #0
 624 01c8 0123     		moveq	r3, #1
 625 01ca DBB2     		uxtb	r3, r3
 626 01cc 4FF00900 		mov	r0, #9
 627 01d0 1946     		mov	r1, r3
 628 01d2 FFF7FEFF 		bl	_test_assert
 629 01d6 0346     		mov	r3, r0
 630 01d8 002B     		cmp	r3, #0
 631 01da 45D1     		bne	.L7
 632              	.L17:
 633              		.loc 1 162 0
 634 01dc 40F20003 		movw	r3, #:lower16:rlist
 635 01e0 C0F20003 		movt	r3, #:upper16:rlist
 636 01e4 9B69     		ldr	r3, [r3, #24]
 637 01e6 9A68     		ldr	r2, [r3, #8]
 638 01e8 019B     		ldr	r3, [sp, #4]
 639 01ea 03F10303 		add	r3, r3, #3
 640 01ee 9A42     		cmp	r2, r3
 641 01f0 14BF     		ite	ne
 642 01f2 0023     		movne	r3, #0
 643 01f4 0123     		moveq	r3, #1
 644 01f6 DBB2     		uxtb	r3, r3
 645 01f8 4FF00A00 		mov	r0, #10
 646 01fc 1946     		mov	r1, r3
 647 01fe FFF7FEFF 		bl	_test_assert
 648 0202 0346     		mov	r3, r0
 649 0204 002B     		cmp	r3, #0
 650 0206 2FD1     		bne	.L7
 651              	.L18:
 652              		.loc 1 164 0
 653 0208 40F20003 		movw	r3, #:lower16:rlist
 654 020c C0F20003 		movt	r3, #:upper16:rlist
 655 0210 9B69     		ldr	r3, [r3, #24]
 656 0212 5A6C     		ldr	r2, [r3, #68]
 657 0214 019B     		ldr	r3, [sp, #4]
 658 0216 03F10303 		add	r3, r3, #3
 659 021a 9A42     		cmp	r2, r3
 660 021c 14BF     		ite	ne
 661 021e 0023     		movne	r3, #0
 662 0220 0123     		moveq	r3, #1
 663 0222 DBB2     		uxtb	r3, r3
 664 0224 4FF00B00 		mov	r0, #11
 665 0228 1946     		mov	r1, r3
 666 022a FFF7FEFF 		bl	_test_assert
 667 022e 0346     		mov	r3, r0
 668 0230 002B     		cmp	r3, #0
 669 0232 19D1     		bne	.L7
 670              	.L19:
ARM GAS  /tmp/ccsXnYib.s 			page 13


 671              	.LBB6:
 672              		.loc 1 167 0
 673 0234 4FF02003 		mov	r3, #32
 674              	@ 167 "../../test/testthd.c" 1
 675 0238 83F31188 		msr     BASEPRI, r3
 676              	@ 0 "" 2
 677              		.thumb
 678              	.LBE6:
 679 023c FFF7FEFF 		bl	dbg_check_lock
 680              		.loc 1 168 0
 681 0240 40F20003 		movw	r3, #:lower16:rlist
 682 0244 C0F20003 		movt	r3, #:upper16:rlist
 683 0248 9B69     		ldr	r3, [r3, #24]
 684 024a 019A     		ldr	r2, [sp, #4]
 685 024c 9A60     		str	r2, [r3, #8]
 686              		.loc 1 169 0
 687 024e 40F20003 		movw	r3, #:lower16:rlist
 688 0252 C0F20003 		movt	r3, #:upper16:rlist
 689 0256 9B69     		ldr	r3, [r3, #24]
 690 0258 019A     		ldr	r2, [sp, #4]
 691 025a 5A64     		str	r2, [r3, #68]
 692              		.loc 1 170 0
 693 025c FFF7FEFF 		bl	dbg_check_unlock
 694              	.LBB7:
 695 0260 4FF00003 		mov	r3, #0
 696              	@ 170 "../../test/testthd.c" 1
 697 0264 83F31188 		msr     BASEPRI, r3
 698              	@ 0 "" 2
 699              		.thumb
 700              	.L7:
 701              	.LBE7:
 702              		.loc 1 172 0
 703 0268 03B0     		add	sp, sp, #12
 704 026a 00BD     		pop	{pc}
 705              		.cfi_endproc
 706              	.LFE10:
 707              		.size	thd3_execute, .-thd3_execute
 708              		.global	testthd3
 709 026c AFF30080 		.section	.rodata
 710 0053 00       		.align	2
 711              	.LC8:
 712 0054 54687265 		.ascii	"Threads, priority change\000"
 712      6164732C 
 712      20707269 
 712      6F726974 
 712      79206368 
 713              		.section	.rodata.testthd3,"a",%progbits
 714              		.align	2
 715              		.type	testthd3, %object
 716              		.size	testthd3, 16
 717              	testthd3:
 718 0000 54000000 		.word	.LC8
 719 0004 00000000 		.word	0
 720 0008 00000000 		.word	0
 721 000c 00000000 		.word	thd3_execute
 722              		.section	.text.thd4_execute,"ax",%progbits
 723              		.align	2
ARM GAS  /tmp/ccsXnYib.s 			page 14


 724              		.p2align 4,,15
 725              		.thumb
 726              		.thumb_func
 727              		.type	thd4_execute, %function
 728              	thd4_execute:
 729              	.LFB11:
 730              		.loc 1 189 0
 731              		.cfi_startproc
 732              		@ args = 0, pretend = 0, frame = 8
 733              		@ frame_needed = 0, uses_anonymous_args = 0
 734 0000 00B5     		push	{lr}
 735              	.LCFI8:
 736              		.cfi_def_cfa_offset 4
 737              		.cfi_offset 14, -4
 738 0002 83B0     		sub	sp, sp, #12
 739              	.LCFI9:
 740              		.cfi_def_cfa_offset 16
 741              		.loc 1 192 0
 742 0004 FFF7FEFF 		bl	test_wait_tick
 743              		.loc 1 195 0
 744 0008 40F20003 		movw	r3, #:lower16:vtlist
 745 000c C0F20003 		movt	r3, #:upper16:vtlist
 746 0010 DB68     		ldr	r3, [r3, #12]
 747 0012 0193     		str	r3, [sp, #4]
 748              		.loc 1 196 0
 749 0014 4FF06400 		mov	r0, #100
 750 0018 FFF7FEFF 		bl	chThdSleep
 751              		.loc 1 197 0
 752 001c 019B     		ldr	r3, [sp, #4]
 753 001e 03F16402 		add	r2, r3, #100
 754 0022 019B     		ldr	r3, [sp, #4]
 755 0024 03F16503 		add	r3, r3, #101
 756 0028 4FF00100 		mov	r0, #1
 757 002c 1146     		mov	r1, r2
 758 002e 1A46     		mov	r2, r3
 759 0030 FFF7FEFF 		bl	_test_assert_time_window
 760 0034 0346     		mov	r3, r0
 761 0036 002B     		cmp	r3, #0
 762 0038 47D1     		bne	.L20
 763              	.L21:
 764              		.loc 1 200 0
 765 003a 40F20003 		movw	r3, #:lower16:vtlist
 766 003e C0F20003 		movt	r3, #:upper16:vtlist
 767 0042 DB68     		ldr	r3, [r3, #12]
 768 0044 0193     		str	r3, [sp, #4]
 769              		.loc 1 201 0
 770 0046 4FF06400 		mov	r0, #100
 771 004a FFF7FEFF 		bl	chThdSleep
 772              		.loc 1 202 0
 773 004e 019B     		ldr	r3, [sp, #4]
 774 0050 03F16402 		add	r2, r3, #100
 775 0054 019B     		ldr	r3, [sp, #4]
 776 0056 03F16503 		add	r3, r3, #101
 777 005a 4FF00200 		mov	r0, #2
 778 005e 1146     		mov	r1, r2
 779 0060 1A46     		mov	r2, r3
 780 0062 FFF7FEFF 		bl	_test_assert_time_window
ARM GAS  /tmp/ccsXnYib.s 			page 15


 781 0066 0346     		mov	r3, r0
 782 0068 002B     		cmp	r3, #0
 783 006a 2ED1     		bne	.L20
 784              	.L23:
 785              		.loc 1 205 0
 786 006c 40F20003 		movw	r3, #:lower16:vtlist
 787 0070 C0F20003 		movt	r3, #:upper16:vtlist
 788 0074 DB68     		ldr	r3, [r3, #12]
 789 0076 0193     		str	r3, [sp, #4]
 790              		.loc 1 206 0
 791 0078 4FF47A70 		mov	r0, #1000
 792 007c FFF7FEFF 		bl	chThdSleep
 793              		.loc 1 207 0
 794 0080 019B     		ldr	r3, [sp, #4]
 795 0082 03F57A72 		add	r2, r3, #1000
 796 0086 019B     		ldr	r3, [sp, #4]
 797 0088 03F2E933 		addw	r3, r3, #1001
 798 008c 4FF00300 		mov	r0, #3
 799 0090 1146     		mov	r1, r2
 800 0092 1A46     		mov	r2, r3
 801 0094 FFF7FEFF 		bl	_test_assert_time_window
 802 0098 0346     		mov	r3, r0
 803 009a 002B     		cmp	r3, #0
 804 009c 15D1     		bne	.L20
 805              	.L24:
 806              		.loc 1 210 0
 807 009e 40F20003 		movw	r3, #:lower16:vtlist
 808 00a2 C0F20003 		movt	r3, #:upper16:vtlist
 809 00a6 DB68     		ldr	r3, [r3, #12]
 810 00a8 03F16403 		add	r3, r3, #100
 811 00ac 0193     		str	r3, [sp, #4]
 812              		.loc 1 211 0
 813 00ae 0198     		ldr	r0, [sp, #4]
 814 00b0 FFF7FEFF 		bl	chThdSleepUntil
 815              		.loc 1 212 0
 816 00b4 019B     		ldr	r3, [sp, #4]
 817 00b6 03F10103 		add	r3, r3, #1
 818 00ba 4FF00400 		mov	r0, #4
 819 00be 0199     		ldr	r1, [sp, #4]
 820 00c0 1A46     		mov	r2, r3
 821 00c2 FFF7FEFF 		bl	_test_assert_time_window
 822 00c6 0346     		mov	r3, r0
 823 00c8 002B     		cmp	r3, #0
 824              	.L20:
 825              		.loc 1 213 0
 826 00ca 03B0     		add	sp, sp, #12
 827 00cc 00BD     		pop	{pc}
 828              		.cfi_endproc
 829              	.LFE11:
 830              		.size	thd4_execute, .-thd4_execute
 831              		.global	testthd4
 832 00ce 00BF     		.section	.rodata
 833 006d 000000   		.align	2
 834              	.LC9:
 835 0070 54687265 		.ascii	"Threads, delays\000"
 835      6164732C 
 835      2064656C 
ARM GAS  /tmp/ccsXnYib.s 			page 16


 835      61797300 
 836              		.section	.rodata.testthd4,"a",%progbits
 837              		.align	2
 838              		.type	testthd4, %object
 839              		.size	testthd4, 16
 840              	testthd4:
 841 0000 70000000 		.word	.LC9
 842 0004 00000000 		.word	0
 843 0008 00000000 		.word	0
 844 000c 00000000 		.word	thd4_execute
 845              		.global	patternthd
 846              		.section	.rodata.patternthd,"a",%progbits
 847              		.align	2
 848              		.type	patternthd, %object
 849              		.size	patternthd, 20
 850              	patternthd:
 851 0000 00000000 		.word	testthd1
 852 0004 00000000 		.word	testthd2
 853 0008 00000000 		.word	testthd3
 854 000c 00000000 		.word	testthd4
 855 0010 00000000 		.word	0
 856              		.text
 857              	.Letext0:
 858              		.file 2 "/usr/bin/../lib/gcc/arm-none-eabi/4.7.4/../../../../arm-none-eabi/include/stdint.h"
 859              		.file 3 "../../os/ports/GCC/ARMCMx/chtypes.h"
 860              		.file 4 "../../os/kernel/include/chlists.h"
 861              		.file 5 "../../os/kernel/include/chthreads.h"
 862              		.file 6 "../../os/ports/GCC/ARMCMx/chcore_v7m.h"
 863              		.file 7 "../../os/kernel/include/chvt.h"
 864              		.file 8 "../../os/kernel/include/chschd.h"
 865              		.file 9 "../../os/kernel/include/chmtx.h"
 866              		.file 10 "../../test/test.h"
 867              		.section	.debug_info,"",%progbits
 868              	.Ldebug_info0:
 869 0000 9C070000 		.4byte	0x79c
 870 0004 0200     		.2byte	0x2
 871 0006 00000000 		.4byte	.Ldebug_abbrev0
 872 000a 04       		.byte	0x4
 873 000b 01       		.uleb128 0x1
 874 000c 51010000 		.4byte	.LASF93
 875 0010 01       		.byte	0x1
 876 0011 5A020000 		.4byte	.LASF94
 877 0015 EA010000 		.4byte	.LASF95
 878 0019 00000000 		.4byte	.Ldebug_ranges0+0
 879 001d 00000000 		.4byte	0
 880 0021 00000000 		.4byte	0
 881 0025 00000000 		.4byte	.Ldebug_line0
 882 0029 02       		.uleb128 0x2
 883 002a 04       		.byte	0x4
 884 002b 05       		.byte	0x5
 885 002c 696E7400 		.ascii	"int\000"
 886 0030 03       		.uleb128 0x3
 887 0031 04       		.byte	0x4
 888 0032 07       		.byte	0x7
 889 0033 C8000000 		.4byte	.LASF0
 890 0037 03       		.uleb128 0x3
 891 0038 01       		.byte	0x1
ARM GAS  /tmp/ccsXnYib.s 			page 17


 892 0039 06       		.byte	0x6
 893 003a 57000000 		.4byte	.LASF1
 894 003e 04       		.uleb128 0x4
 895 003f BB030000 		.4byte	.LASF5
 896 0043 02       		.byte	0x2
 897 0044 2A       		.byte	0x2a
 898 0045 49000000 		.4byte	0x49
 899 0049 03       		.uleb128 0x3
 900 004a 01       		.byte	0x1
 901 004b 08       		.byte	0x8
 902 004c B0020000 		.4byte	.LASF2
 903 0050 03       		.uleb128 0x3
 904 0051 02       		.byte	0x2
 905 0052 05       		.byte	0x5
 906 0053 C8020000 		.4byte	.LASF3
 907 0057 03       		.uleb128 0x3
 908 0058 02       		.byte	0x2
 909 0059 07       		.byte	0x7
 910 005a 05010000 		.4byte	.LASF4
 911 005e 04       		.uleb128 0x4
 912 005f A8020000 		.4byte	.LASF6
 913 0063 02       		.byte	0x2
 914 0064 4F       		.byte	0x4f
 915 0065 69000000 		.4byte	0x69
 916 0069 03       		.uleb128 0x3
 917 006a 04       		.byte	0x4
 918 006b 05       		.byte	0x5
 919 006c 7D000000 		.4byte	.LASF7
 920 0070 04       		.uleb128 0x4
 921 0071 24030000 		.4byte	.LASF8
 922 0075 02       		.byte	0x2
 923 0076 50       		.byte	0x50
 924 0077 7B000000 		.4byte	0x7b
 925 007b 03       		.uleb128 0x3
 926 007c 04       		.byte	0x4
 927 007d 07       		.byte	0x7
 928 007e DD000000 		.4byte	.LASF9
 929 0082 03       		.uleb128 0x3
 930 0083 08       		.byte	0x8
 931 0084 05       		.byte	0x5
 932 0085 49000000 		.4byte	.LASF10
 933 0089 04       		.uleb128 0x4
 934 008a 12000000 		.4byte	.LASF11
 935 008e 02       		.byte	0x2
 936 008f 78       		.byte	0x78
 937 0090 94000000 		.4byte	0x94
 938 0094 03       		.uleb128 0x3
 939 0095 08       		.byte	0x8
 940 0096 07       		.byte	0x7
 941 0097 22000000 		.4byte	.LASF12
 942 009b 03       		.uleb128 0x3
 943 009c 01       		.byte	0x1
 944 009d 02       		.byte	0x2
 945 009e A2020000 		.4byte	.LASF13
 946 00a2 04       		.uleb128 0x4
 947 00a3 2B010000 		.4byte	.LASF14
 948 00a7 03       		.byte	0x3
ARM GAS  /tmp/ccsXnYib.s 			page 18


 949 00a8 25       		.byte	0x25
 950 00a9 3E000000 		.4byte	0x3e
 951 00ad 04       		.uleb128 0x4
 952 00ae 86000000 		.4byte	.LASF15
 953 00b2 03       		.byte	0x3
 954 00b3 26       		.byte	0x26
 955 00b4 3E000000 		.4byte	0x3e
 956 00b8 04       		.uleb128 0x4
 957 00b9 6F020000 		.4byte	.LASF16
 958 00bd 03       		.byte	0x3
 959 00be 27       		.byte	0x27
 960 00bf 3E000000 		.4byte	0x3e
 961 00c3 04       		.uleb128 0x4
 962 00c4 73000000 		.4byte	.LASF17
 963 00c8 03       		.byte	0x3
 964 00c9 28       		.byte	0x28
 965 00ca 3E000000 		.4byte	0x3e
 966 00ce 04       		.uleb128 0x4
 967 00cf 93020000 		.4byte	.LASF18
 968 00d3 03       		.byte	0x3
 969 00d4 29       		.byte	0x29
 970 00d5 70000000 		.4byte	0x70
 971 00d9 04       		.uleb128 0x4
 972 00da 25010000 		.4byte	.LASF19
 973 00de 03       		.byte	0x3
 974 00df 2A       		.byte	0x2a
 975 00e0 5E000000 		.4byte	0x5e
 976 00e4 04       		.uleb128 0x4
 977 00e5 3F010000 		.4byte	.LASF20
 978 00e9 03       		.byte	0x3
 979 00ea 2C       		.byte	0x2c
 980 00eb 70000000 		.4byte	0x70
 981 00ef 04       		.uleb128 0x4
 982 00f0 66030000 		.4byte	.LASF21
 983 00f4 03       		.byte	0x3
 984 00f5 2E       		.byte	0x2e
 985 00f6 70000000 		.4byte	0x70
 986 00fa 04       		.uleb128 0x4
 987 00fb 09030000 		.4byte	.LASF22
 988 00ff 04       		.byte	0x4
 989 0100 23       		.byte	0x23
 990 0101 05010000 		.4byte	0x105
 991 0105 05       		.uleb128 0x5
 992 0106 09030000 		.4byte	.LASF22
 993 010a 4C       		.byte	0x4c
 994 010b 05       		.byte	0x5
 995 010c 57       		.byte	0x57
 996 010d 38020000 		.4byte	0x238
 997 0111 06       		.uleb128 0x6
 998 0112 FA020000 		.4byte	.LASF23
 999 0116 05       		.byte	0x5
 1000 0117 58       		.byte	0x58
 1001 0118 5D020000 		.4byte	0x25d
 1002 011c 02       		.byte	0x2
 1003 011d 23       		.byte	0x23
 1004 011e 00       		.uleb128 0
 1005 011f 06       		.uleb128 0x6
ARM GAS  /tmp/ccsXnYib.s 			page 19


 1006 0120 84020000 		.4byte	.LASF24
 1007 0124 05       		.byte	0x5
 1008 0125 5A       		.byte	0x5a
 1009 0126 5D020000 		.4byte	0x25d
 1010 012a 02       		.byte	0x2
 1011 012b 23       		.byte	0x23
 1012 012c 04       		.uleb128 0x4
 1013 012d 06       		.uleb128 0x6
 1014 012e 42000000 		.4byte	.LASF25
 1015 0132 05       		.byte	0x5
 1016 0133 5C       		.byte	0x5c
 1017 0134 CE000000 		.4byte	0xce
 1018 0138 02       		.byte	0x2
 1019 0139 23       		.byte	0x23
 1020 013a 08       		.uleb128 0x8
 1021 013b 06       		.uleb128 0x6
 1022 013c EB030000 		.4byte	.LASF26
 1023 0140 05       		.byte	0x5
 1024 0141 5D       		.byte	0x5d
 1025 0142 36030000 		.4byte	0x336
 1026 0146 02       		.byte	0x2
 1027 0147 23       		.byte	0x23
 1028 0148 0C       		.uleb128 0xc
 1029 0149 06       		.uleb128 0x6
 1030 014a 8F000000 		.4byte	.LASF27
 1031 014e 05       		.byte	0x5
 1032 014f 5F       		.byte	0x5f
 1033 0150 5D020000 		.4byte	0x25d
 1034 0154 02       		.byte	0x2
 1035 0155 23       		.byte	0x23
 1036 0156 10       		.uleb128 0x10
 1037 0157 06       		.uleb128 0x6
 1038 0158 E2010000 		.4byte	.LASF28
 1039 015c 05       		.byte	0x5
 1040 015d 60       		.byte	0x60
 1041 015e 5D020000 		.4byte	0x25d
 1042 0162 02       		.byte	0x2
 1043 0163 23       		.byte	0x23
 1044 0164 14       		.uleb128 0x14
 1045 0165 06       		.uleb128 0x6
 1046 0166 CA030000 		.4byte	.LASF29
 1047 016a 05       		.byte	0x5
 1048 016b 67       		.byte	0x67
 1049 016c 17050000 		.4byte	0x517
 1050 0170 02       		.byte	0x2
 1051 0171 23       		.byte	0x23
 1052 0172 18       		.uleb128 0x18
 1053 0173 06       		.uleb128 0x6
 1054 0174 BD000000 		.4byte	.LASF30
 1055 0178 05       		.byte	0x5
 1056 0179 6D       		.byte	0x6d
 1057 017a 29050000 		.4byte	0x529
 1058 017e 02       		.byte	0x2
 1059 017f 23       		.byte	0x23
 1060 0180 1C       		.uleb128 0x1c
 1061 0181 06       		.uleb128 0x6
 1062 0182 D2020000 		.4byte	.LASF31
ARM GAS  /tmp/ccsXnYib.s 			page 20


 1063 0186 05       		.byte	0x5
 1064 0187 72       		.byte	0x72
 1065 0188 AD000000 		.4byte	0xad
 1066 018c 02       		.byte	0x2
 1067 018d 23       		.byte	0x23
 1068 018e 20       		.uleb128 0x20
 1069 018f 06       		.uleb128 0x6
 1070 0190 01030000 		.4byte	.LASF32
 1071 0194 05       		.byte	0x5
 1072 0195 76       		.byte	0x76
 1073 0196 A2000000 		.4byte	0xa2
 1074 019a 02       		.byte	0x2
 1075 019b 23       		.byte	0x23
 1076 019c 21       		.uleb128 0x21
 1077 019d 06       		.uleb128 0x6
 1078 019e A4030000 		.4byte	.LASF33
 1079 01a2 05       		.byte	0x5
 1080 01a3 7B       		.byte	0x7b
 1081 01a4 B8000000 		.4byte	0xb8
 1082 01a8 02       		.byte	0x2
 1083 01a9 23       		.byte	0x23
 1084 01aa 22       		.uleb128 0x22
 1085 01ab 06       		.uleb128 0x6
 1086 01ac DA020000 		.4byte	.LASF34
 1087 01b0 05       		.byte	0x5
 1088 01b1 81       		.byte	0x81
 1089 01b2 C3000000 		.4byte	0xc3
 1090 01b6 02       		.byte	0x2
 1091 01b7 23       		.byte	0x23
 1092 01b8 23       		.uleb128 0x23
 1093 01b9 06       		.uleb128 0x6
 1094 01ba 84030000 		.4byte	.LASF35
 1095 01be 05       		.byte	0x5
 1096 01bf 88       		.byte	0x88
 1097 01c0 22040000 		.4byte	0x422
 1098 01c4 02       		.byte	0x2
 1099 01c5 23       		.byte	0x23
 1100 01c6 24       		.uleb128 0x24
 1101 01c7 07       		.uleb128 0x7
 1102 01c8 705F7500 		.ascii	"p_u\000"
 1103 01cc 05       		.byte	0x5
 1104 01cd AD       		.byte	0xad
 1105 01ce E2040000 		.4byte	0x4e2
 1106 01d2 02       		.byte	0x2
 1107 01d3 23       		.byte	0x23
 1108 01d4 28       		.uleb128 0x28
 1109 01d5 06       		.uleb128 0x6
 1110 01d6 F1030000 		.4byte	.LASF36
 1111 01da 05       		.byte	0x5
 1112 01db B2       		.byte	0xb2
 1113 01dc 85020000 		.4byte	0x285
 1114 01e0 02       		.byte	0x2
 1115 01e1 23       		.byte	0x23
 1116 01e2 2C       		.uleb128 0x2c
 1117 01e3 06       		.uleb128 0x6
 1118 01e4 92030000 		.4byte	.LASF37
 1119 01e8 05       		.byte	0x5
ARM GAS  /tmp/ccsXnYib.s 			page 21


 1120 01e9 B8       		.byte	0xb8
 1121 01ea 63020000 		.4byte	0x263
 1122 01ee 02       		.byte	0x2
 1123 01ef 23       		.byte	0x23
 1124 01f0 30       		.uleb128 0x30
 1125 01f1 06       		.uleb128 0x6
 1126 01f2 00000000 		.4byte	.LASF38
 1127 01f6 05       		.byte	0x5
 1128 01f7 BC       		.byte	0xbc
 1129 01f8 D9000000 		.4byte	0xd9
 1130 01fc 02       		.byte	0x2
 1131 01fd 23       		.byte	0x23
 1132 01fe 38       		.uleb128 0x38
 1133 01ff 06       		.uleb128 0x6
 1134 0200 19030000 		.4byte	.LASF39
 1135 0204 05       		.byte	0x5
 1136 0205 C2       		.byte	0xc2
 1137 0206 E4000000 		.4byte	0xe4
 1138 020a 02       		.byte	0x2
 1139 020b 23       		.byte	0x23
 1140 020c 3C       		.uleb128 0x3c
 1141 020d 06       		.uleb128 0x6
 1142 020e BE020000 		.4byte	.LASF40
 1143 0212 05       		.byte	0x5
 1144 0213 C9       		.byte	0xc9
 1145 0214 2F050000 		.4byte	0x52f
 1146 0218 02       		.byte	0x2
 1147 0219 23       		.byte	0x23
 1148 021a 40       		.uleb128 0x40
 1149 021b 06       		.uleb128 0x6
 1150 021c 70030000 		.4byte	.LASF41
 1151 0220 05       		.byte	0x5
 1152 0221 CD       		.byte	0xcd
 1153 0222 CE000000 		.4byte	0xce
 1154 0226 02       		.byte	0x2
 1155 0227 23       		.byte	0x23
 1156 0228 44       		.uleb128 0x44
 1157 0229 06       		.uleb128 0x6
 1158 022a 63000000 		.4byte	.LASF42
 1159 022e 05       		.byte	0x5
 1160 022f D3       		.byte	0xd3
 1161 0230 9B020000 		.4byte	0x29b
 1162 0234 02       		.byte	0x2
 1163 0235 23       		.byte	0x23
 1164 0236 48       		.uleb128 0x48
 1165 0237 00       		.byte	0
 1166 0238 08       		.uleb128 0x8
 1167 0239 08       		.byte	0x8
 1168 023a 04       		.byte	0x4
 1169 023b 5A       		.byte	0x5a
 1170 023c 5D020000 		.4byte	0x25d
 1171 0240 06       		.uleb128 0x6
 1172 0241 FA020000 		.4byte	.LASF23
 1173 0245 04       		.byte	0x4
 1174 0246 5B       		.byte	0x5b
 1175 0247 5D020000 		.4byte	0x25d
 1176 024b 02       		.byte	0x2
ARM GAS  /tmp/ccsXnYib.s 			page 22


 1177 024c 23       		.byte	0x23
 1178 024d 00       		.uleb128 0
 1179 024e 06       		.uleb128 0x6
 1180 024f 84020000 		.4byte	.LASF24
 1181 0253 04       		.byte	0x4
 1182 0254 5D       		.byte	0x5d
 1183 0255 5D020000 		.4byte	0x25d
 1184 0259 02       		.byte	0x2
 1185 025a 23       		.byte	0x23
 1186 025b 04       		.uleb128 0x4
 1187 025c 00       		.byte	0
 1188 025d 09       		.uleb128 0x9
 1189 025e 04       		.byte	0x4
 1190 025f FA000000 		.4byte	0xfa
 1191 0263 04       		.uleb128 0x4
 1192 0264 30020000 		.4byte	.LASF43
 1193 0268 04       		.byte	0x4
 1194 0269 5F       		.byte	0x5f
 1195 026a 38020000 		.4byte	0x238
 1196 026e 08       		.uleb128 0x8
 1197 026f 04       		.byte	0x4
 1198 0270 04       		.byte	0x4
 1199 0271 64       		.byte	0x64
 1200 0272 85020000 		.4byte	0x285
 1201 0276 06       		.uleb128 0x6
 1202 0277 FA020000 		.4byte	.LASF23
 1203 027b 04       		.byte	0x4
 1204 027c 66       		.byte	0x66
 1205 027d 5D020000 		.4byte	0x25d
 1206 0281 02       		.byte	0x2
 1207 0282 23       		.byte	0x23
 1208 0283 00       		.uleb128 0
 1209 0284 00       		.byte	0
 1210 0285 04       		.uleb128 0x4
 1211 0286 33010000 		.4byte	.LASF44
 1212 028a 04       		.byte	0x4
 1213 028b 69       		.byte	0x69
 1214 028c 6E020000 		.4byte	0x26e
 1215 0290 04       		.uleb128 0x4
 1216 0291 9F000000 		.4byte	.LASF45
 1217 0295 06       		.byte	0x6
 1218 0296 DE       		.byte	0xde
 1219 0297 9B020000 		.4byte	0x29b
 1220 029b 0A       		.uleb128 0xa
 1221 029c 04       		.byte	0x4
 1222 029d 04       		.uleb128 0x4
 1223 029e 9A010000 		.4byte	.LASF46
 1224 02a2 06       		.byte	0x6
 1225 02a3 E4       		.byte	0xe4
 1226 02a4 89000000 		.4byte	0x89
 1227 02a8 0B       		.uleb128 0xb
 1228 02a9 8B030000 		.4byte	.LASF47
 1229 02ad 24       		.byte	0x24
 1230 02ae 06       		.byte	0x6
 1231 02af 0501     		.2byte	0x105
 1232 02b1 36030000 		.4byte	0x336
 1233 02b5 0C       		.uleb128 0xc
ARM GAS  /tmp/ccsXnYib.s 			page 23


 1234 02b6 723400   		.ascii	"r4\000"
 1235 02b9 06       		.byte	0x6
 1236 02ba 1801     		.2byte	0x118
 1237 02bc 90020000 		.4byte	0x290
 1238 02c0 02       		.byte	0x2
 1239 02c1 23       		.byte	0x23
 1240 02c2 00       		.uleb128 0
 1241 02c3 0C       		.uleb128 0xc
 1242 02c4 723500   		.ascii	"r5\000"
 1243 02c7 06       		.byte	0x6
 1244 02c8 1901     		.2byte	0x119
 1245 02ca 90020000 		.4byte	0x290
 1246 02ce 02       		.byte	0x2
 1247 02cf 23       		.byte	0x23
 1248 02d0 04       		.uleb128 0x4
 1249 02d1 0C       		.uleb128 0xc
 1250 02d2 723600   		.ascii	"r6\000"
 1251 02d5 06       		.byte	0x6
 1252 02d6 1A01     		.2byte	0x11a
 1253 02d8 90020000 		.4byte	0x290
 1254 02dc 02       		.byte	0x2
 1255 02dd 23       		.byte	0x23
 1256 02de 08       		.uleb128 0x8
 1257 02df 0C       		.uleb128 0xc
 1258 02e0 723700   		.ascii	"r7\000"
 1259 02e3 06       		.byte	0x6
 1260 02e4 1B01     		.2byte	0x11b
 1261 02e6 90020000 		.4byte	0x290
 1262 02ea 02       		.byte	0x2
 1263 02eb 23       		.byte	0x23
 1264 02ec 0C       		.uleb128 0xc
 1265 02ed 0C       		.uleb128 0xc
 1266 02ee 723800   		.ascii	"r8\000"
 1267 02f1 06       		.byte	0x6
 1268 02f2 1C01     		.2byte	0x11c
 1269 02f4 90020000 		.4byte	0x290
 1270 02f8 02       		.byte	0x2
 1271 02f9 23       		.byte	0x23
 1272 02fa 10       		.uleb128 0x10
 1273 02fb 0C       		.uleb128 0xc
 1274 02fc 723900   		.ascii	"r9\000"
 1275 02ff 06       		.byte	0x6
 1276 0300 1D01     		.2byte	0x11d
 1277 0302 90020000 		.4byte	0x290
 1278 0306 02       		.byte	0x2
 1279 0307 23       		.byte	0x23
 1280 0308 14       		.uleb128 0x14
 1281 0309 0C       		.uleb128 0xc
 1282 030a 72313000 		.ascii	"r10\000"
 1283 030e 06       		.byte	0x6
 1284 030f 1E01     		.2byte	0x11e
 1285 0311 90020000 		.4byte	0x290
 1286 0315 02       		.byte	0x2
 1287 0316 23       		.byte	0x23
 1288 0317 18       		.uleb128 0x18
 1289 0318 0C       		.uleb128 0xc
 1290 0319 72313100 		.ascii	"r11\000"
ARM GAS  /tmp/ccsXnYib.s 			page 24


 1291 031d 06       		.byte	0x6
 1292 031e 1F01     		.2byte	0x11f
 1293 0320 90020000 		.4byte	0x290
 1294 0324 02       		.byte	0x2
 1295 0325 23       		.byte	0x23
 1296 0326 1C       		.uleb128 0x1c
 1297 0327 0C       		.uleb128 0xc
 1298 0328 6C7200   		.ascii	"lr\000"
 1299 032b 06       		.byte	0x6
 1300 032c 2001     		.2byte	0x120
 1301 032e 90020000 		.4byte	0x290
 1302 0332 02       		.byte	0x2
 1303 0333 23       		.byte	0x23
 1304 0334 20       		.uleb128 0x20
 1305 0335 00       		.byte	0
 1306 0336 0B       		.uleb128 0xb
 1307 0337 FD000000 		.4byte	.LASF48
 1308 033b 04       		.byte	0x4
 1309 033c 06       		.byte	0x6
 1310 033d 2A01     		.2byte	0x12a
 1311 033f 53030000 		.4byte	0x353
 1312 0343 0C       		.uleb128 0xc
 1313 0344 72313300 		.ascii	"r13\000"
 1314 0348 06       		.byte	0x6
 1315 0349 2B01     		.2byte	0x12b
 1316 034b 53030000 		.4byte	0x353
 1317 034f 02       		.byte	0x2
 1318 0350 23       		.byte	0x23
 1319 0351 00       		.uleb128 0
 1320 0352 00       		.byte	0
 1321 0353 09       		.uleb128 0x9
 1322 0354 04       		.byte	0x4
 1323 0355 A8020000 		.4byte	0x2a8
 1324 0359 03       		.uleb128 0x3
 1325 035a 04       		.byte	0x4
 1326 035b 07       		.byte	0x7
 1327 035c AD010000 		.4byte	.LASF49
 1328 0360 04       		.uleb128 0x4
 1329 0361 7B030000 		.4byte	.LASF50
 1330 0365 07       		.byte	0x7
 1331 0366 51       		.byte	0x51
 1332 0367 6B030000 		.4byte	0x36b
 1333 036b 09       		.uleb128 0x9
 1334 036c 04       		.byte	0x4
 1335 036d 71030000 		.4byte	0x371
 1336 0371 0D       		.uleb128 0xd
 1337 0372 01       		.byte	0x1
 1338 0373 7D030000 		.4byte	0x37d
 1339 0377 0E       		.uleb128 0xe
 1340 0378 9B020000 		.4byte	0x29b
 1341 037c 00       		.byte	0
 1342 037d 04       		.uleb128 0x4
 1343 037e 35030000 		.4byte	.LASF51
 1344 0382 07       		.byte	0x7
 1345 0383 56       		.byte	0x56
 1346 0384 88030000 		.4byte	0x388
 1347 0388 05       		.uleb128 0x5
ARM GAS  /tmp/ccsXnYib.s 			page 25


 1348 0389 35030000 		.4byte	.LASF51
 1349 038d 14       		.byte	0x14
 1350 038e 07       		.byte	0x7
 1351 038f 5D       		.byte	0x5d
 1352 0390 DB030000 		.4byte	0x3db
 1353 0394 06       		.uleb128 0x6
 1354 0395 D5000000 		.4byte	.LASF52
 1355 0399 07       		.byte	0x7
 1356 039a 5E       		.byte	0x5e
 1357 039b DB030000 		.4byte	0x3db
 1358 039f 02       		.byte	0x2
 1359 03a0 23       		.byte	0x23
 1360 03a1 00       		.uleb128 0
 1361 03a2 06       		.uleb128 0x6
 1362 03a3 A8000000 		.4byte	.LASF53
 1363 03a7 07       		.byte	0x7
 1364 03a8 60       		.byte	0x60
 1365 03a9 DB030000 		.4byte	0x3db
 1366 03ad 02       		.byte	0x2
 1367 03ae 23       		.byte	0x23
 1368 03af 04       		.uleb128 0x4
 1369 03b0 06       		.uleb128 0x6
 1370 03b1 A5010000 		.4byte	.LASF54
 1371 03b5 07       		.byte	0x7
 1372 03b6 62       		.byte	0x62
 1373 03b7 EF000000 		.4byte	0xef
 1374 03bb 02       		.byte	0x2
 1375 03bc 23       		.byte	0x23
 1376 03bd 08       		.uleb128 0x8
 1377 03be 06       		.uleb128 0x6
 1378 03bf DA010000 		.4byte	.LASF55
 1379 03c3 07       		.byte	0x7
 1380 03c4 63       		.byte	0x63
 1381 03c5 60030000 		.4byte	0x360
 1382 03c9 02       		.byte	0x2
 1383 03ca 23       		.byte	0x23
 1384 03cb 0C       		.uleb128 0xc
 1385 03cc 06       		.uleb128 0x6
 1386 03cd 9D030000 		.4byte	.LASF56
 1387 03d1 07       		.byte	0x7
 1388 03d2 65       		.byte	0x65
 1389 03d3 9B020000 		.4byte	0x29b
 1390 03d7 02       		.byte	0x2
 1391 03d8 23       		.byte	0x23
 1392 03d9 10       		.uleb128 0x10
 1393 03da 00       		.byte	0
 1394 03db 09       		.uleb128 0x9
 1395 03dc 04       		.byte	0x4
 1396 03dd 7D030000 		.4byte	0x37d
 1397 03e1 08       		.uleb128 0x8
 1398 03e2 10       		.byte	0x10
 1399 03e3 07       		.byte	0x7
 1400 03e4 6F       		.byte	0x6f
 1401 03e5 22040000 		.4byte	0x422
 1402 03e9 06       		.uleb128 0x6
 1403 03ea D5000000 		.4byte	.LASF52
 1404 03ee 07       		.byte	0x7
ARM GAS  /tmp/ccsXnYib.s 			page 26


 1405 03ef 70       		.byte	0x70
 1406 03f0 DB030000 		.4byte	0x3db
 1407 03f4 02       		.byte	0x2
 1408 03f5 23       		.byte	0x23
 1409 03f6 00       		.uleb128 0
 1410 03f7 06       		.uleb128 0x6
 1411 03f8 A8000000 		.4byte	.LASF53
 1412 03fc 07       		.byte	0x7
 1413 03fd 72       		.byte	0x72
 1414 03fe DB030000 		.4byte	0x3db
 1415 0402 02       		.byte	0x2
 1416 0403 23       		.byte	0x23
 1417 0404 04       		.uleb128 0x4
 1418 0405 06       		.uleb128 0x6
 1419 0406 A5010000 		.4byte	.LASF54
 1420 040a 07       		.byte	0x7
 1421 040b 74       		.byte	0x74
 1422 040c EF000000 		.4byte	0xef
 1423 0410 02       		.byte	0x2
 1424 0411 23       		.byte	0x23
 1425 0412 08       		.uleb128 0x8
 1426 0413 06       		.uleb128 0x6
 1427 0414 D1030000 		.4byte	.LASF57
 1428 0418 07       		.byte	0x7
 1429 0419 75       		.byte	0x75
 1430 041a 22040000 		.4byte	0x422
 1431 041e 02       		.byte	0x2
 1432 041f 23       		.byte	0x23
 1433 0420 0C       		.uleb128 0xc
 1434 0421 00       		.byte	0
 1435 0422 0F       		.uleb128 0xf
 1436 0423 EF000000 		.4byte	0xef
 1437 0427 04       		.uleb128 0x4
 1438 0428 DC030000 		.4byte	.LASF58
 1439 042c 07       		.byte	0x7
 1440 042d 76       		.byte	0x76
 1441 042e E1030000 		.4byte	0x3e1
 1442 0432 08       		.uleb128 0x8
 1443 0433 1C       		.byte	0x1c
 1444 0434 08       		.byte	0x8
 1445 0435 57       		.byte	0x57
 1446 0436 8F040000 		.4byte	0x48f
 1447 043a 06       		.uleb128 0x6
 1448 043b 2D030000 		.4byte	.LASF59
 1449 043f 08       		.byte	0x8
 1450 0440 58       		.byte	0x58
 1451 0441 63020000 		.4byte	0x263
 1452 0445 02       		.byte	0x2
 1453 0446 23       		.byte	0x23
 1454 0447 00       		.uleb128 0
 1455 0448 06       		.uleb128 0x6
 1456 0449 EC020000 		.4byte	.LASF60
 1457 044d 08       		.byte	0x8
 1458 044e 59       		.byte	0x59
 1459 044f CE000000 		.4byte	0xce
 1460 0453 02       		.byte	0x2
 1461 0454 23       		.byte	0x23
ARM GAS  /tmp/ccsXnYib.s 			page 27


 1462 0455 08       		.uleb128 0x8
 1463 0456 06       		.uleb128 0x6
 1464 0457 2A020000 		.4byte	.LASF61
 1465 045b 08       		.byte	0x8
 1466 045c 5B       		.byte	0x5b
 1467 045d 36030000 		.4byte	0x336
 1468 0461 02       		.byte	0x2
 1469 0462 23       		.byte	0x23
 1470 0463 0C       		.uleb128 0xc
 1471 0464 06       		.uleb128 0x6
 1472 0465 97000000 		.4byte	.LASF62
 1473 0469 08       		.byte	0x8
 1474 046a 5E       		.byte	0x5e
 1475 046b 5D020000 		.4byte	0x25d
 1476 046f 02       		.byte	0x2
 1477 0470 23       		.byte	0x23
 1478 0471 10       		.uleb128 0x10
 1479 0472 06       		.uleb128 0x6
 1480 0473 52020000 		.4byte	.LASF63
 1481 0477 08       		.byte	0x8
 1482 0478 5F       		.byte	0x5f
 1483 0479 5D020000 		.4byte	0x25d
 1484 047d 02       		.byte	0x2
 1485 047e 23       		.byte	0x23
 1486 047f 14       		.uleb128 0x14
 1487 0480 06       		.uleb128 0x6
 1488 0481 48020000 		.4byte	.LASF64
 1489 0485 08       		.byte	0x8
 1490 0486 62       		.byte	0x62
 1491 0487 5D020000 		.4byte	0x25d
 1492 048b 02       		.byte	0x2
 1493 048c 23       		.byte	0x23
 1494 048d 18       		.uleb128 0x18
 1495 048e 00       		.byte	0
 1496 048f 04       		.uleb128 0x4
 1497 0490 AB030000 		.4byte	.LASF65
 1498 0494 08       		.byte	0x8
 1499 0495 64       		.byte	0x64
 1500 0496 32040000 		.4byte	0x432
 1501 049a 05       		.uleb128 0x5
 1502 049b 4B010000 		.4byte	.LASF66
 1503 049f 10       		.byte	0x10
 1504 04a0 09       		.byte	0x9
 1505 04a1 25       		.byte	0x25
 1506 04a2 D1040000 		.4byte	0x4d1
 1507 04a6 06       		.uleb128 0x6
 1508 04a7 6B000000 		.4byte	.LASF67
 1509 04ab 09       		.byte	0x9
 1510 04ac 26       		.byte	0x26
 1511 04ad 63020000 		.4byte	0x263
 1512 04b1 02       		.byte	0x2
 1513 04b2 23       		.byte	0x23
 1514 04b3 00       		.uleb128 0
 1515 04b4 06       		.uleb128 0x6
 1516 04b5 E3030000 		.4byte	.LASF68
 1517 04b9 09       		.byte	0x9
 1518 04ba 28       		.byte	0x28
ARM GAS  /tmp/ccsXnYib.s 			page 28


 1519 04bb 5D020000 		.4byte	0x25d
 1520 04bf 02       		.byte	0x2
 1521 04c0 23       		.byte	0x23
 1522 04c1 08       		.uleb128 0x8
 1523 04c2 06       		.uleb128 0x6
 1524 04c3 5F030000 		.4byte	.LASF69
 1525 04c7 09       		.byte	0x9
 1526 04c8 2A       		.byte	0x2a
 1527 04c9 D1040000 		.4byte	0x4d1
 1528 04cd 02       		.byte	0x2
 1529 04ce 23       		.byte	0x23
 1530 04cf 0C       		.uleb128 0xc
 1531 04d0 00       		.byte	0
 1532 04d1 09       		.uleb128 0x9
 1533 04d2 04       		.byte	0x4
 1534 04d3 9A040000 		.4byte	0x49a
 1535 04d7 04       		.uleb128 0x4
 1536 04d8 4B010000 		.4byte	.LASF66
 1537 04dc 09       		.byte	0x9
 1538 04dd 2C       		.byte	0x2c
 1539 04de 9A040000 		.4byte	0x49a
 1540 04e2 10       		.uleb128 0x10
 1541 04e3 04       		.byte	0x4
 1542 04e4 05       		.byte	0x5
 1543 04e5 8F       		.byte	0x8f
 1544 04e6 17050000 		.4byte	0x517
 1545 04ea 11       		.uleb128 0x11
 1546 04eb 0B000000 		.4byte	.LASF70
 1547 04ef 05       		.byte	0x5
 1548 04f0 96       		.byte	0x96
 1549 04f1 D9000000 		.4byte	0xd9
 1550 04f5 11       		.uleb128 0x11
 1551 04f6 39000000 		.4byte	.LASF71
 1552 04fa 05       		.byte	0x5
 1553 04fb 9D       		.byte	0x9d
 1554 04fc D9000000 		.4byte	0xd9
 1555 0500 11       		.uleb128 0x11
 1556 0501 C3030000 		.4byte	.LASF72
 1557 0505 05       		.byte	0x5
 1558 0506 A4       		.byte	0xa4
 1559 0507 9B020000 		.4byte	0x29b
 1560 050b 11       		.uleb128 0x11
 1561 050c F3020000 		.4byte	.LASF73
 1562 0510 05       		.byte	0x5
 1563 0511 AB       		.byte	0xab
 1564 0512 E4000000 		.4byte	0xe4
 1565 0516 00       		.byte	0
 1566 0517 09       		.uleb128 0x9
 1567 0518 04       		.byte	0x4
 1568 0519 1D050000 		.4byte	0x51d
 1569 051d 12       		.uleb128 0x12
 1570 051e 22050000 		.4byte	0x522
 1571 0522 03       		.uleb128 0x3
 1572 0523 01       		.byte	0x1
 1573 0524 08       		.byte	0x8
 1574 0525 42030000 		.4byte	.LASF74
 1575 0529 09       		.uleb128 0x9
ARM GAS  /tmp/ccsXnYib.s 			page 29


 1576 052a 04       		.byte	0x4
 1577 052b 9D020000 		.4byte	0x29d
 1578 052f 09       		.uleb128 0x9
 1579 0530 04       		.byte	0x4
 1580 0531 D7040000 		.4byte	0x4d7
 1581 0535 05       		.uleb128 0x5
 1582 0536 10030000 		.4byte	.LASF75
 1583 053a 10       		.byte	0x10
 1584 053b 0A       		.byte	0xa
 1585 053c 3B       		.byte	0x3b
 1586 053d 7A050000 		.4byte	0x57a
 1587 0541 06       		.uleb128 0x6
 1588 0542 F8000000 		.4byte	.LASF76
 1589 0546 0A       		.byte	0xa
 1590 0547 3C       		.byte	0x3c
 1591 0548 17050000 		.4byte	0x517
 1592 054c 02       		.byte	0x2
 1593 054d 23       		.byte	0x23
 1594 054e 00       		.uleb128 0
 1595 054f 06       		.uleb128 0x6
 1596 0550 3D020000 		.4byte	.LASF77
 1597 0554 0A       		.byte	0xa
 1598 0555 3D       		.byte	0x3d
 1599 0556 7C050000 		.4byte	0x57c
 1600 055a 02       		.byte	0x2
 1601 055b 23       		.byte	0x23
 1602 055c 04       		.uleb128 0x4
 1603 055d 06       		.uleb128 0x6
 1604 055e EF000000 		.4byte	.LASF78
 1605 0562 0A       		.byte	0xa
 1606 0563 3E       		.byte	0x3e
 1607 0564 7C050000 		.4byte	0x57c
 1608 0568 02       		.byte	0x2
 1609 0569 23       		.byte	0x23
 1610 056a 08       		.uleb128 0x8
 1611 056b 06       		.uleb128 0x6
 1612 056c 8B020000 		.4byte	.LASF79
 1613 0570 0A       		.byte	0xa
 1614 0571 3F       		.byte	0x3f
 1615 0572 7C050000 		.4byte	0x57c
 1616 0576 02       		.byte	0x2
 1617 0577 23       		.byte	0x23
 1618 0578 0C       		.uleb128 0xc
 1619 0579 00       		.byte	0
 1620 057a 13       		.uleb128 0x13
 1621 057b 01       		.byte	0x1
 1622 057c 09       		.uleb128 0x9
 1623 057d 04       		.byte	0x4
 1624 057e 7A050000 		.4byte	0x57a
 1625 0582 14       		.uleb128 0x14
 1626 0583 9B020000 		.4byte	.LASF96
 1627 0587 01       		.byte	0x1
 1628 0588 3C       		.byte	0x3c
 1629 0589 01       		.byte	0x1
 1630 058a D9000000 		.4byte	0xd9
 1631 058e 00000000 		.4byte	.LFB7
 1632 0592 1A000000 		.4byte	.LFE7
ARM GAS  /tmp/ccsXnYib.s 			page 30


 1633 0596 00000000 		.4byte	.LLST0
 1634 059a 01       		.byte	0x1
 1635 059b AC050000 		.4byte	0x5ac
 1636 059f 15       		.uleb128 0x15
 1637 05a0 7000     		.ascii	"p\000"
 1638 05a2 01       		.byte	0x1
 1639 05a3 3C       		.byte	0x3c
 1640 05a4 9B020000 		.4byte	0x29b
 1641 05a8 02       		.byte	0x2
 1642 05a9 91       		.byte	0x91
 1643 05aa 74       		.sleb128 -12
 1644 05ab 00       		.byte	0
 1645 05ac 16       		.uleb128 0x16
 1646 05ad B0000000 		.4byte	.LASF97
 1647 05b1 01       		.byte	0x1
 1648 05b2 42       		.byte	0x42
 1649 05b3 01       		.byte	0x1
 1650 05b4 00000000 		.4byte	.LFB8
 1651 05b8 6A010000 		.4byte	.LFE8
 1652 05bc 2C000000 		.4byte	.LLST1
 1653 05c0 01       		.byte	0x1
 1654 05c1 17       		.uleb128 0x17
 1655 05c2 18010000 		.4byte	.LASF80
 1656 05c6 01       		.byte	0x1
 1657 05c7 5E       		.byte	0x5e
 1658 05c8 01       		.byte	0x1
 1659 05c9 00000000 		.4byte	.LFB9
 1660 05cd 92010000 		.4byte	.LFE9
 1661 05d1 58000000 		.4byte	.LLST2
 1662 05d5 01       		.byte	0x1
 1663 05d6 0D060000 		.4byte	0x60d
 1664 05da 18       		.uleb128 0x18
 1665 05db 0C010000 		.4byte	.LBB2
 1666 05df 14010000 		.4byte	.LBE2
 1667 05e3 F5050000 		.4byte	0x5f5
 1668 05e7 19       		.uleb128 0x19
 1669 05e8 746D7000 		.ascii	"tmp\000"
 1670 05ec 01       		.byte	0x1
 1671 05ed 65       		.byte	0x65
 1672 05ee 70000000 		.4byte	0x70
 1673 05f2 01       		.byte	0x1
 1674 05f3 53       		.byte	0x53
 1675 05f4 00       		.byte	0
 1676 05f5 1A       		.uleb128 0x1a
 1677 05f6 5E010000 		.4byte	.LBB3
 1678 05fa 66010000 		.4byte	.LBE3
 1679 05fe 19       		.uleb128 0x19
 1680 05ff 746D7000 		.ascii	"tmp\000"
 1681 0603 01       		.byte	0x1
 1682 0604 67       		.byte	0x67
 1683 0605 70000000 		.4byte	0x70
 1684 0609 01       		.byte	0x1
 1685 060a 53       		.byte	0x53
 1686 060b 00       		.byte	0
 1687 060c 00       		.byte	0
 1688 060d 17       		.uleb128 0x17
 1689 060e 77020000 		.4byte	.LASF81
ARM GAS  /tmp/ccsXnYib.s 			page 31


 1690 0612 01       		.byte	0x1
 1691 0613 7E       		.byte	0x7e
 1692 0614 01       		.byte	0x1
 1693 0615 00000000 		.4byte	.LFB10
 1694 0619 6C020000 		.4byte	.LFE10
 1695 061d 84000000 		.4byte	.LLST3
 1696 0621 01       		.byte	0x1
 1697 0622 AA060000 		.4byte	0x6aa
 1698 0626 1B       		.uleb128 0x1b
 1699 0627 06000000 		.4byte	.LASF82
 1700 062b 01       		.byte	0x1
 1701 062c 7F       		.byte	0x7f
 1702 062d CE000000 		.4byte	0xce
 1703 0631 02       		.byte	0x2
 1704 0632 91       		.byte	0x91
 1705 0633 74       		.sleb128 -12
 1706 0634 19       		.uleb128 0x19
 1707 0635 703100   		.ascii	"p1\000"
 1708 0638 01       		.byte	0x1
 1709 0639 7F       		.byte	0x7f
 1710 063a CE000000 		.4byte	0xce
 1711 063e 02       		.byte	0x2
 1712 063f 91       		.byte	0x91
 1713 0640 70       		.sleb128 -16
 1714 0641 18       		.uleb128 0x18
 1715 0642 C4000000 		.4byte	.LBB4
 1716 0646 CC000000 		.4byte	.LBE4
 1717 064a 5C060000 		.4byte	0x65c
 1718 064e 19       		.uleb128 0x19
 1719 064f 746D7000 		.ascii	"tmp\000"
 1720 0653 01       		.byte	0x1
 1721 0654 8F       		.byte	0x8f
 1722 0655 70000000 		.4byte	0x70
 1723 0659 01       		.byte	0x1
 1724 065a 53       		.byte	0x53
 1725 065b 00       		.byte	0
 1726 065c 18       		.uleb128 0x18
 1727 065d F0000000 		.4byte	.LBB5
 1728 0661 F8000000 		.4byte	.LBE5
 1729 0665 77060000 		.4byte	0x677
 1730 0669 19       		.uleb128 0x19
 1731 066a 746D7000 		.ascii	"tmp\000"
 1732 066e 01       		.byte	0x1
 1733 066f 91       		.byte	0x91
 1734 0670 70000000 		.4byte	0x70
 1735 0674 01       		.byte	0x1
 1736 0675 53       		.byte	0x53
 1737 0676 00       		.byte	0
 1738 0677 18       		.uleb128 0x18
 1739 0678 34020000 		.4byte	.LBB6
 1740 067c 3C020000 		.4byte	.LBE6
 1741 0680 92060000 		.4byte	0x692
 1742 0684 19       		.uleb128 0x19
 1743 0685 746D7000 		.ascii	"tmp\000"
 1744 0689 01       		.byte	0x1
 1745 068a A7       		.byte	0xa7
 1746 068b 70000000 		.4byte	0x70
ARM GAS  /tmp/ccsXnYib.s 			page 32


 1747 068f 01       		.byte	0x1
 1748 0690 53       		.byte	0x53
 1749 0691 00       		.byte	0
 1750 0692 1A       		.uleb128 0x1a
 1751 0693 60020000 		.4byte	.LBB7
 1752 0697 68020000 		.4byte	.LBE7
 1753 069b 19       		.uleb128 0x19
 1754 069c 746D7000 		.ascii	"tmp\000"
 1755 06a0 01       		.byte	0x1
 1756 06a1 AA       		.byte	0xaa
 1757 06a2 70000000 		.4byte	0x70
 1758 06a6 01       		.byte	0x1
 1759 06a7 53       		.byte	0x53
 1760 06a8 00       		.byte	0
 1761 06a9 00       		.byte	0
 1762 06aa 17       		.uleb128 0x17
 1763 06ab 47030000 		.4byte	.LASF83
 1764 06af 01       		.byte	0x1
 1765 06b0 BD       		.byte	0xbd
 1766 06b1 01       		.byte	0x1
 1767 06b2 00000000 		.4byte	.LFB11
 1768 06b6 CE000000 		.4byte	.LFE11
 1769 06ba B0000000 		.4byte	.LLST4
 1770 06be 01       		.byte	0x1
 1771 06bf D2060000 		.4byte	0x6d2
 1772 06c3 1B       		.uleb128 0x1b
 1773 06c4 43020000 		.4byte	.LASF84
 1774 06c8 01       		.byte	0x1
 1775 06c9 BE       		.byte	0xbe
 1776 06ca EF000000 		.4byte	0xef
 1777 06ce 02       		.byte	0x2
 1778 06cf 91       		.byte	0x91
 1779 06d0 74       		.sleb128 -12
 1780 06d1 00       		.byte	0
 1781 06d2 1C       		.uleb128 0x1c
 1782 06d3 1B000000 		.4byte	.LASF85
 1783 06d7 07       		.byte	0x7
 1784 06d8 D4       		.byte	0xd4
 1785 06d9 27040000 		.4byte	0x427
 1786 06dd 01       		.byte	0x1
 1787 06de 01       		.byte	0x1
 1788 06df 1C       		.uleb128 0x1c
 1789 06e0 B5030000 		.4byte	.LASF86
 1790 06e4 08       		.byte	0x8
 1791 06e5 68       		.byte	0x68
 1792 06e6 8F040000 		.4byte	0x48f
 1793 06ea 01       		.byte	0x1
 1794 06eb 01       		.byte	0x1
 1795 06ec 1D       		.uleb128 0x1d
 1796 06ed 5D020000 		.4byte	0x25d
 1797 06f1 FC060000 		.4byte	0x6fc
 1798 06f5 1E       		.uleb128 0x1e
 1799 06f6 59030000 		.4byte	0x359
 1800 06fa 04       		.byte	0x4
 1801 06fb 00       		.byte	0
 1802 06fc 1C       		.uleb128 0x1c
 1803 06fd E4020000 		.4byte	.LASF87
ARM GAS  /tmp/ccsXnYib.s 			page 33


 1804 0701 0A       		.byte	0xa
 1805 0702 A5       		.byte	0xa5
 1806 0703 EC060000 		.4byte	0x6ec
 1807 0707 01       		.byte	0x1
 1808 0708 01       		.byte	0x1
 1809 0709 1D       		.uleb128 0x1d
 1810 070a 9B020000 		.4byte	0x29b
 1811 070e 14070000 		.4byte	0x714
 1812 0712 1F       		.uleb128 0x1f
 1813 0713 00       		.byte	0
 1814 0714 20       		.uleb128 0x20
 1815 0715 776100   		.ascii	"wa\000"
 1816 0718 0A       		.byte	0xa
 1817 0719 A7       		.byte	0xa7
 1818 071a 20070000 		.4byte	0x720
 1819 071e 01       		.byte	0x1
 1820 071f 01       		.byte	0x1
 1821 0720 12       		.uleb128 0x12
 1822 0721 09070000 		.4byte	0x709
 1823 0725 21       		.uleb128 0x21
 1824 0726 B6010000 		.4byte	.LASF88
 1825 072a 01       		.byte	0x1
 1826 072b 4D       		.byte	0x4d
 1827 072c 37070000 		.4byte	0x737
 1828 0730 01       		.byte	0x1
 1829 0731 05       		.byte	0x5
 1830 0732 03       		.byte	0x3
 1831 0733 00000000 		.4byte	testthd1
 1832 0737 12       		.uleb128 0x12
 1833 0738 35050000 		.4byte	0x535
 1834 073c 21       		.uleb128 0x21
 1835 073d BF010000 		.4byte	.LASF89
 1836 0741 01       		.byte	0x1
 1837 0742 6D       		.byte	0x6d
 1838 0743 37070000 		.4byte	0x737
 1839 0747 01       		.byte	0x1
 1840 0748 05       		.byte	0x5
 1841 0749 03       		.byte	0x3
 1842 074a 00000000 		.4byte	testthd2
 1843 074e 21       		.uleb128 0x21
 1844 074f C8010000 		.4byte	.LASF90
 1845 0753 01       		.byte	0x1
 1846 0754 AE       		.byte	0xae
 1847 0755 37070000 		.4byte	0x737
 1848 0759 01       		.byte	0x1
 1849 075a 05       		.byte	0x5
 1850 075b 03       		.byte	0x3
 1851 075c 00000000 		.4byte	testthd3
 1852 0760 21       		.uleb128 0x21
 1853 0761 D1010000 		.4byte	.LASF91
 1854 0765 01       		.byte	0x1
 1855 0766 D7       		.byte	0xd7
 1856 0767 37070000 		.4byte	0x737
 1857 076b 01       		.byte	0x1
 1858 076c 05       		.byte	0x5
 1859 076d 03       		.byte	0x3
 1860 076e 00000000 		.4byte	testthd4
ARM GAS  /tmp/ccsXnYib.s 			page 34


 1861 0772 1D       		.uleb128 0x1d
 1862 0773 82070000 		.4byte	0x782
 1863 0777 82070000 		.4byte	0x782
 1864 077b 1E       		.uleb128 0x1e
 1865 077c 59030000 		.4byte	0x359
 1866 0780 04       		.byte	0x4
 1867 0781 00       		.byte	0
 1868 0782 09       		.uleb128 0x9
 1869 0783 04       		.byte	0x4
 1870 0784 37070000 		.4byte	0x737
 1871 0788 21       		.uleb128 0x21
 1872 0789 54030000 		.4byte	.LASF92
 1873 078d 01       		.byte	0x1
 1874 078e E1       		.byte	0xe1
 1875 078f 9A070000 		.4byte	0x79a
 1876 0793 01       		.byte	0x1
 1877 0794 05       		.byte	0x5
 1878 0795 03       		.byte	0x3
 1879 0796 00000000 		.4byte	patternthd
 1880 079a 12       		.uleb128 0x12
 1881 079b 72070000 		.4byte	0x772
 1882 079f 00       		.byte	0
 1883              		.section	.debug_abbrev,"",%progbits
 1884              	.Ldebug_abbrev0:
 1885 0000 01       		.uleb128 0x1
 1886 0001 11       		.uleb128 0x11
 1887 0002 01       		.byte	0x1
 1888 0003 25       		.uleb128 0x25
 1889 0004 0E       		.uleb128 0xe
 1890 0005 13       		.uleb128 0x13
 1891 0006 0B       		.uleb128 0xb
 1892 0007 03       		.uleb128 0x3
 1893 0008 0E       		.uleb128 0xe
 1894 0009 1B       		.uleb128 0x1b
 1895 000a 0E       		.uleb128 0xe
 1896 000b 55       		.uleb128 0x55
 1897 000c 06       		.uleb128 0x6
 1898 000d 11       		.uleb128 0x11
 1899 000e 01       		.uleb128 0x1
 1900 000f 52       		.uleb128 0x52
 1901 0010 01       		.uleb128 0x1
 1902 0011 10       		.uleb128 0x10
 1903 0012 06       		.uleb128 0x6
 1904 0013 00       		.byte	0
 1905 0014 00       		.byte	0
 1906 0015 02       		.uleb128 0x2
 1907 0016 24       		.uleb128 0x24
 1908 0017 00       		.byte	0
 1909 0018 0B       		.uleb128 0xb
 1910 0019 0B       		.uleb128 0xb
 1911 001a 3E       		.uleb128 0x3e
 1912 001b 0B       		.uleb128 0xb
 1913 001c 03       		.uleb128 0x3
 1914 001d 08       		.uleb128 0x8
 1915 001e 00       		.byte	0
 1916 001f 00       		.byte	0
 1917 0020 03       		.uleb128 0x3
ARM GAS  /tmp/ccsXnYib.s 			page 35


 1918 0021 24       		.uleb128 0x24
 1919 0022 00       		.byte	0
 1920 0023 0B       		.uleb128 0xb
 1921 0024 0B       		.uleb128 0xb
 1922 0025 3E       		.uleb128 0x3e
 1923 0026 0B       		.uleb128 0xb
 1924 0027 03       		.uleb128 0x3
 1925 0028 0E       		.uleb128 0xe
 1926 0029 00       		.byte	0
 1927 002a 00       		.byte	0
 1928 002b 04       		.uleb128 0x4
 1929 002c 16       		.uleb128 0x16
 1930 002d 00       		.byte	0
 1931 002e 03       		.uleb128 0x3
 1932 002f 0E       		.uleb128 0xe
 1933 0030 3A       		.uleb128 0x3a
 1934 0031 0B       		.uleb128 0xb
 1935 0032 3B       		.uleb128 0x3b
 1936 0033 0B       		.uleb128 0xb
 1937 0034 49       		.uleb128 0x49
 1938 0035 13       		.uleb128 0x13
 1939 0036 00       		.byte	0
 1940 0037 00       		.byte	0
 1941 0038 05       		.uleb128 0x5
 1942 0039 13       		.uleb128 0x13
 1943 003a 01       		.byte	0x1
 1944 003b 03       		.uleb128 0x3
 1945 003c 0E       		.uleb128 0xe
 1946 003d 0B       		.uleb128 0xb
 1947 003e 0B       		.uleb128 0xb
 1948 003f 3A       		.uleb128 0x3a
 1949 0040 0B       		.uleb128 0xb
 1950 0041 3B       		.uleb128 0x3b
 1951 0042 0B       		.uleb128 0xb
 1952 0043 01       		.uleb128 0x1
 1953 0044 13       		.uleb128 0x13
 1954 0045 00       		.byte	0
 1955 0046 00       		.byte	0
 1956 0047 06       		.uleb128 0x6
 1957 0048 0D       		.uleb128 0xd
 1958 0049 00       		.byte	0
 1959 004a 03       		.uleb128 0x3
 1960 004b 0E       		.uleb128 0xe
 1961 004c 3A       		.uleb128 0x3a
 1962 004d 0B       		.uleb128 0xb
 1963 004e 3B       		.uleb128 0x3b
 1964 004f 0B       		.uleb128 0xb
 1965 0050 49       		.uleb128 0x49
 1966 0051 13       		.uleb128 0x13
 1967 0052 38       		.uleb128 0x38
 1968 0053 0A       		.uleb128 0xa
 1969 0054 00       		.byte	0
 1970 0055 00       		.byte	0
 1971 0056 07       		.uleb128 0x7
 1972 0057 0D       		.uleb128 0xd
 1973 0058 00       		.byte	0
 1974 0059 03       		.uleb128 0x3
ARM GAS  /tmp/ccsXnYib.s 			page 36


 1975 005a 08       		.uleb128 0x8
 1976 005b 3A       		.uleb128 0x3a
 1977 005c 0B       		.uleb128 0xb
 1978 005d 3B       		.uleb128 0x3b
 1979 005e 0B       		.uleb128 0xb
 1980 005f 49       		.uleb128 0x49
 1981 0060 13       		.uleb128 0x13
 1982 0061 38       		.uleb128 0x38
 1983 0062 0A       		.uleb128 0xa
 1984 0063 00       		.byte	0
 1985 0064 00       		.byte	0
 1986 0065 08       		.uleb128 0x8
 1987 0066 13       		.uleb128 0x13
 1988 0067 01       		.byte	0x1
 1989 0068 0B       		.uleb128 0xb
 1990 0069 0B       		.uleb128 0xb
 1991 006a 3A       		.uleb128 0x3a
 1992 006b 0B       		.uleb128 0xb
 1993 006c 3B       		.uleb128 0x3b
 1994 006d 0B       		.uleb128 0xb
 1995 006e 01       		.uleb128 0x1
 1996 006f 13       		.uleb128 0x13
 1997 0070 00       		.byte	0
 1998 0071 00       		.byte	0
 1999 0072 09       		.uleb128 0x9
 2000 0073 0F       		.uleb128 0xf
 2001 0074 00       		.byte	0
 2002 0075 0B       		.uleb128 0xb
 2003 0076 0B       		.uleb128 0xb
 2004 0077 49       		.uleb128 0x49
 2005 0078 13       		.uleb128 0x13
 2006 0079 00       		.byte	0
 2007 007a 00       		.byte	0
 2008 007b 0A       		.uleb128 0xa
 2009 007c 0F       		.uleb128 0xf
 2010 007d 00       		.byte	0
 2011 007e 0B       		.uleb128 0xb
 2012 007f 0B       		.uleb128 0xb
 2013 0080 00       		.byte	0
 2014 0081 00       		.byte	0
 2015 0082 0B       		.uleb128 0xb
 2016 0083 13       		.uleb128 0x13
 2017 0084 01       		.byte	0x1
 2018 0085 03       		.uleb128 0x3
 2019 0086 0E       		.uleb128 0xe
 2020 0087 0B       		.uleb128 0xb
 2021 0088 0B       		.uleb128 0xb
 2022 0089 3A       		.uleb128 0x3a
 2023 008a 0B       		.uleb128 0xb
 2024 008b 3B       		.uleb128 0x3b
 2025 008c 05       		.uleb128 0x5
 2026 008d 01       		.uleb128 0x1
 2027 008e 13       		.uleb128 0x13
 2028 008f 00       		.byte	0
 2029 0090 00       		.byte	0
 2030 0091 0C       		.uleb128 0xc
 2031 0092 0D       		.uleb128 0xd
ARM GAS  /tmp/ccsXnYib.s 			page 37


 2032 0093 00       		.byte	0
 2033 0094 03       		.uleb128 0x3
 2034 0095 08       		.uleb128 0x8
 2035 0096 3A       		.uleb128 0x3a
 2036 0097 0B       		.uleb128 0xb
 2037 0098 3B       		.uleb128 0x3b
 2038 0099 05       		.uleb128 0x5
 2039 009a 49       		.uleb128 0x49
 2040 009b 13       		.uleb128 0x13
 2041 009c 38       		.uleb128 0x38
 2042 009d 0A       		.uleb128 0xa
 2043 009e 00       		.byte	0
 2044 009f 00       		.byte	0
 2045 00a0 0D       		.uleb128 0xd
 2046 00a1 15       		.uleb128 0x15
 2047 00a2 01       		.byte	0x1
 2048 00a3 27       		.uleb128 0x27
 2049 00a4 0C       		.uleb128 0xc
 2050 00a5 01       		.uleb128 0x1
 2051 00a6 13       		.uleb128 0x13
 2052 00a7 00       		.byte	0
 2053 00a8 00       		.byte	0
 2054 00a9 0E       		.uleb128 0xe
 2055 00aa 05       		.uleb128 0x5
 2056 00ab 00       		.byte	0
 2057 00ac 49       		.uleb128 0x49
 2058 00ad 13       		.uleb128 0x13
 2059 00ae 00       		.byte	0
 2060 00af 00       		.byte	0
 2061 00b0 0F       		.uleb128 0xf
 2062 00b1 35       		.uleb128 0x35
 2063 00b2 00       		.byte	0
 2064 00b3 49       		.uleb128 0x49
 2065 00b4 13       		.uleb128 0x13
 2066 00b5 00       		.byte	0
 2067 00b6 00       		.byte	0
 2068 00b7 10       		.uleb128 0x10
 2069 00b8 17       		.uleb128 0x17
 2070 00b9 01       		.byte	0x1
 2071 00ba 0B       		.uleb128 0xb
 2072 00bb 0B       		.uleb128 0xb
 2073 00bc 3A       		.uleb128 0x3a
 2074 00bd 0B       		.uleb128 0xb
 2075 00be 3B       		.uleb128 0x3b
 2076 00bf 0B       		.uleb128 0xb
 2077 00c0 01       		.uleb128 0x1
 2078 00c1 13       		.uleb128 0x13
 2079 00c2 00       		.byte	0
 2080 00c3 00       		.byte	0
 2081 00c4 11       		.uleb128 0x11
 2082 00c5 0D       		.uleb128 0xd
 2083 00c6 00       		.byte	0
 2084 00c7 03       		.uleb128 0x3
 2085 00c8 0E       		.uleb128 0xe
 2086 00c9 3A       		.uleb128 0x3a
 2087 00ca 0B       		.uleb128 0xb
 2088 00cb 3B       		.uleb128 0x3b
ARM GAS  /tmp/ccsXnYib.s 			page 38


 2089 00cc 0B       		.uleb128 0xb
 2090 00cd 49       		.uleb128 0x49
 2091 00ce 13       		.uleb128 0x13
 2092 00cf 00       		.byte	0
 2093 00d0 00       		.byte	0
 2094 00d1 12       		.uleb128 0x12
 2095 00d2 26       		.uleb128 0x26
 2096 00d3 00       		.byte	0
 2097 00d4 49       		.uleb128 0x49
 2098 00d5 13       		.uleb128 0x13
 2099 00d6 00       		.byte	0
 2100 00d7 00       		.byte	0
 2101 00d8 13       		.uleb128 0x13
 2102 00d9 15       		.uleb128 0x15
 2103 00da 00       		.byte	0
 2104 00db 27       		.uleb128 0x27
 2105 00dc 0C       		.uleb128 0xc
 2106 00dd 00       		.byte	0
 2107 00de 00       		.byte	0
 2108 00df 14       		.uleb128 0x14
 2109 00e0 2E       		.uleb128 0x2e
 2110 00e1 01       		.byte	0x1
 2111 00e2 03       		.uleb128 0x3
 2112 00e3 0E       		.uleb128 0xe
 2113 00e4 3A       		.uleb128 0x3a
 2114 00e5 0B       		.uleb128 0xb
 2115 00e6 3B       		.uleb128 0x3b
 2116 00e7 0B       		.uleb128 0xb
 2117 00e8 27       		.uleb128 0x27
 2118 00e9 0C       		.uleb128 0xc
 2119 00ea 49       		.uleb128 0x49
 2120 00eb 13       		.uleb128 0x13
 2121 00ec 11       		.uleb128 0x11
 2122 00ed 01       		.uleb128 0x1
 2123 00ee 12       		.uleb128 0x12
 2124 00ef 01       		.uleb128 0x1
 2125 00f0 40       		.uleb128 0x40
 2126 00f1 06       		.uleb128 0x6
 2127 00f2 9642     		.uleb128 0x2116
 2128 00f4 0C       		.uleb128 0xc
 2129 00f5 01       		.uleb128 0x1
 2130 00f6 13       		.uleb128 0x13
 2131 00f7 00       		.byte	0
 2132 00f8 00       		.byte	0
 2133 00f9 15       		.uleb128 0x15
 2134 00fa 05       		.uleb128 0x5
 2135 00fb 00       		.byte	0
 2136 00fc 03       		.uleb128 0x3
 2137 00fd 08       		.uleb128 0x8
 2138 00fe 3A       		.uleb128 0x3a
 2139 00ff 0B       		.uleb128 0xb
 2140 0100 3B       		.uleb128 0x3b
 2141 0101 0B       		.uleb128 0xb
 2142 0102 49       		.uleb128 0x49
 2143 0103 13       		.uleb128 0x13
 2144 0104 02       		.uleb128 0x2
 2145 0105 0A       		.uleb128 0xa
ARM GAS  /tmp/ccsXnYib.s 			page 39


 2146 0106 00       		.byte	0
 2147 0107 00       		.byte	0
 2148 0108 16       		.uleb128 0x16
 2149 0109 2E       		.uleb128 0x2e
 2150 010a 00       		.byte	0
 2151 010b 03       		.uleb128 0x3
 2152 010c 0E       		.uleb128 0xe
 2153 010d 3A       		.uleb128 0x3a
 2154 010e 0B       		.uleb128 0xb
 2155 010f 3B       		.uleb128 0x3b
 2156 0110 0B       		.uleb128 0xb
 2157 0111 27       		.uleb128 0x27
 2158 0112 0C       		.uleb128 0xc
 2159 0113 11       		.uleb128 0x11
 2160 0114 01       		.uleb128 0x1
 2161 0115 12       		.uleb128 0x12
 2162 0116 01       		.uleb128 0x1
 2163 0117 40       		.uleb128 0x40
 2164 0118 06       		.uleb128 0x6
 2165 0119 9642     		.uleb128 0x2116
 2166 011b 0C       		.uleb128 0xc
 2167 011c 00       		.byte	0
 2168 011d 00       		.byte	0
 2169 011e 17       		.uleb128 0x17
 2170 011f 2E       		.uleb128 0x2e
 2171 0120 01       		.byte	0x1
 2172 0121 03       		.uleb128 0x3
 2173 0122 0E       		.uleb128 0xe
 2174 0123 3A       		.uleb128 0x3a
 2175 0124 0B       		.uleb128 0xb
 2176 0125 3B       		.uleb128 0x3b
 2177 0126 0B       		.uleb128 0xb
 2178 0127 27       		.uleb128 0x27
 2179 0128 0C       		.uleb128 0xc
 2180 0129 11       		.uleb128 0x11
 2181 012a 01       		.uleb128 0x1
 2182 012b 12       		.uleb128 0x12
 2183 012c 01       		.uleb128 0x1
 2184 012d 40       		.uleb128 0x40
 2185 012e 06       		.uleb128 0x6
 2186 012f 9642     		.uleb128 0x2116
 2187 0131 0C       		.uleb128 0xc
 2188 0132 01       		.uleb128 0x1
 2189 0133 13       		.uleb128 0x13
 2190 0134 00       		.byte	0
 2191 0135 00       		.byte	0
 2192 0136 18       		.uleb128 0x18
 2193 0137 0B       		.uleb128 0xb
 2194 0138 01       		.byte	0x1
 2195 0139 11       		.uleb128 0x11
 2196 013a 01       		.uleb128 0x1
 2197 013b 12       		.uleb128 0x12
 2198 013c 01       		.uleb128 0x1
 2199 013d 01       		.uleb128 0x1
 2200 013e 13       		.uleb128 0x13
 2201 013f 00       		.byte	0
 2202 0140 00       		.byte	0
ARM GAS  /tmp/ccsXnYib.s 			page 40


 2203 0141 19       		.uleb128 0x19
 2204 0142 34       		.uleb128 0x34
 2205 0143 00       		.byte	0
 2206 0144 03       		.uleb128 0x3
 2207 0145 08       		.uleb128 0x8
 2208 0146 3A       		.uleb128 0x3a
 2209 0147 0B       		.uleb128 0xb
 2210 0148 3B       		.uleb128 0x3b
 2211 0149 0B       		.uleb128 0xb
 2212 014a 49       		.uleb128 0x49
 2213 014b 13       		.uleb128 0x13
 2214 014c 02       		.uleb128 0x2
 2215 014d 0A       		.uleb128 0xa
 2216 014e 00       		.byte	0
 2217 014f 00       		.byte	0
 2218 0150 1A       		.uleb128 0x1a
 2219 0151 0B       		.uleb128 0xb
 2220 0152 01       		.byte	0x1
 2221 0153 11       		.uleb128 0x11
 2222 0154 01       		.uleb128 0x1
 2223 0155 12       		.uleb128 0x12
 2224 0156 01       		.uleb128 0x1
 2225 0157 00       		.byte	0
 2226 0158 00       		.byte	0
 2227 0159 1B       		.uleb128 0x1b
 2228 015a 34       		.uleb128 0x34
 2229 015b 00       		.byte	0
 2230 015c 03       		.uleb128 0x3
 2231 015d 0E       		.uleb128 0xe
 2232 015e 3A       		.uleb128 0x3a
 2233 015f 0B       		.uleb128 0xb
 2234 0160 3B       		.uleb128 0x3b
 2235 0161 0B       		.uleb128 0xb
 2236 0162 49       		.uleb128 0x49
 2237 0163 13       		.uleb128 0x13
 2238 0164 02       		.uleb128 0x2
 2239 0165 0A       		.uleb128 0xa
 2240 0166 00       		.byte	0
 2241 0167 00       		.byte	0
 2242 0168 1C       		.uleb128 0x1c
 2243 0169 34       		.uleb128 0x34
 2244 016a 00       		.byte	0
 2245 016b 03       		.uleb128 0x3
 2246 016c 0E       		.uleb128 0xe
 2247 016d 3A       		.uleb128 0x3a
 2248 016e 0B       		.uleb128 0xb
 2249 016f 3B       		.uleb128 0x3b
 2250 0170 0B       		.uleb128 0xb
 2251 0171 49       		.uleb128 0x49
 2252 0172 13       		.uleb128 0x13
 2253 0173 3F       		.uleb128 0x3f
 2254 0174 0C       		.uleb128 0xc
 2255 0175 3C       		.uleb128 0x3c
 2256 0176 0C       		.uleb128 0xc
 2257 0177 00       		.byte	0
 2258 0178 00       		.byte	0
 2259 0179 1D       		.uleb128 0x1d
ARM GAS  /tmp/ccsXnYib.s 			page 41


 2260 017a 01       		.uleb128 0x1
 2261 017b 01       		.byte	0x1
 2262 017c 49       		.uleb128 0x49
 2263 017d 13       		.uleb128 0x13
 2264 017e 01       		.uleb128 0x1
 2265 017f 13       		.uleb128 0x13
 2266 0180 00       		.byte	0
 2267 0181 00       		.byte	0
 2268 0182 1E       		.uleb128 0x1e
 2269 0183 21       		.uleb128 0x21
 2270 0184 00       		.byte	0
 2271 0185 49       		.uleb128 0x49
 2272 0186 13       		.uleb128 0x13
 2273 0187 2F       		.uleb128 0x2f
 2274 0188 0B       		.uleb128 0xb
 2275 0189 00       		.byte	0
 2276 018a 00       		.byte	0
 2277 018b 1F       		.uleb128 0x1f
 2278 018c 21       		.uleb128 0x21
 2279 018d 00       		.byte	0
 2280 018e 00       		.byte	0
 2281 018f 00       		.byte	0
 2282 0190 20       		.uleb128 0x20
 2283 0191 34       		.uleb128 0x34
 2284 0192 00       		.byte	0
 2285 0193 03       		.uleb128 0x3
 2286 0194 08       		.uleb128 0x8
 2287 0195 3A       		.uleb128 0x3a
 2288 0196 0B       		.uleb128 0xb
 2289 0197 3B       		.uleb128 0x3b
 2290 0198 0B       		.uleb128 0xb
 2291 0199 49       		.uleb128 0x49
 2292 019a 13       		.uleb128 0x13
 2293 019b 3F       		.uleb128 0x3f
 2294 019c 0C       		.uleb128 0xc
 2295 019d 3C       		.uleb128 0x3c
 2296 019e 0C       		.uleb128 0xc
 2297 019f 00       		.byte	0
 2298 01a0 00       		.byte	0
 2299 01a1 21       		.uleb128 0x21
 2300 01a2 34       		.uleb128 0x34
 2301 01a3 00       		.byte	0
 2302 01a4 03       		.uleb128 0x3
 2303 01a5 0E       		.uleb128 0xe
 2304 01a6 3A       		.uleb128 0x3a
 2305 01a7 0B       		.uleb128 0xb
 2306 01a8 3B       		.uleb128 0x3b
 2307 01a9 0B       		.uleb128 0xb
 2308 01aa 49       		.uleb128 0x49
 2309 01ab 13       		.uleb128 0x13
 2310 01ac 3F       		.uleb128 0x3f
 2311 01ad 0C       		.uleb128 0xc
 2312 01ae 02       		.uleb128 0x2
 2313 01af 0A       		.uleb128 0xa
 2314 01b0 00       		.byte	0
 2315 01b1 00       		.byte	0
 2316 01b2 00       		.byte	0
ARM GAS  /tmp/ccsXnYib.s 			page 42


 2317              		.section	.debug_loc,"",%progbits
 2318              	.Ldebug_loc0:
 2319              	.LLST0:
 2320 0000 00000000 		.4byte	.LFB7
 2321 0004 02000000 		.4byte	.LCFI0
 2322 0008 0200     		.2byte	0x2
 2323 000a 7D       		.byte	0x7d
 2324 000b 00       		.sleb128 0
 2325 000c 02000000 		.4byte	.LCFI0
 2326 0010 04000000 		.4byte	.LCFI1
 2327 0014 0200     		.2byte	0x2
 2328 0016 7D       		.byte	0x7d
 2329 0017 04       		.sleb128 4
 2330 0018 04000000 		.4byte	.LCFI1
 2331 001c 1A000000 		.4byte	.LFE7
 2332 0020 0200     		.2byte	0x2
 2333 0022 7D       		.byte	0x7d
 2334 0023 10       		.sleb128 16
 2335 0024 00000000 		.4byte	0
 2336 0028 00000000 		.4byte	0
 2337              	.LLST1:
 2338 002c 00000000 		.4byte	.LFB8
 2339 0030 02000000 		.4byte	.LCFI2
 2340 0034 0200     		.2byte	0x2
 2341 0036 7D       		.byte	0x7d
 2342 0037 00       		.sleb128 0
 2343 0038 02000000 		.4byte	.LCFI2
 2344 003c 04000000 		.4byte	.LCFI3
 2345 0040 0200     		.2byte	0x2
 2346 0042 7D       		.byte	0x7d
 2347 0043 04       		.sleb128 4
 2348 0044 04000000 		.4byte	.LCFI3
 2349 0048 6A010000 		.4byte	.LFE8
 2350 004c 0200     		.2byte	0x2
 2351 004e 7D       		.byte	0x7d
 2352 004f 10       		.sleb128 16
 2353 0050 00000000 		.4byte	0
 2354 0054 00000000 		.4byte	0
 2355              	.LLST2:
 2356 0058 00000000 		.4byte	.LFB9
 2357 005c 02000000 		.4byte	.LCFI4
 2358 0060 0200     		.2byte	0x2
 2359 0062 7D       		.byte	0x7d
 2360 0063 00       		.sleb128 0
 2361 0064 02000000 		.4byte	.LCFI4
 2362 0068 04000000 		.4byte	.LCFI5
 2363 006c 0200     		.2byte	0x2
 2364 006e 7D       		.byte	0x7d
 2365 006f 04       		.sleb128 4
 2366 0070 04000000 		.4byte	.LCFI5
 2367 0074 92010000 		.4byte	.LFE9
 2368 0078 0200     		.2byte	0x2
 2369 007a 7D       		.byte	0x7d
 2370 007b 10       		.sleb128 16
 2371 007c 00000000 		.4byte	0
 2372 0080 00000000 		.4byte	0
 2373              	.LLST3:
ARM GAS  /tmp/ccsXnYib.s 			page 43


 2374 0084 00000000 		.4byte	.LFB10
 2375 0088 02000000 		.4byte	.LCFI6
 2376 008c 0200     		.2byte	0x2
 2377 008e 7D       		.byte	0x7d
 2378 008f 00       		.sleb128 0
 2379 0090 02000000 		.4byte	.LCFI6
 2380 0094 04000000 		.4byte	.LCFI7
 2381 0098 0200     		.2byte	0x2
 2382 009a 7D       		.byte	0x7d
 2383 009b 04       		.sleb128 4
 2384 009c 04000000 		.4byte	.LCFI7
 2385 00a0 6C020000 		.4byte	.LFE10
 2386 00a4 0200     		.2byte	0x2
 2387 00a6 7D       		.byte	0x7d
 2388 00a7 10       		.sleb128 16
 2389 00a8 00000000 		.4byte	0
 2390 00ac 00000000 		.4byte	0
 2391              	.LLST4:
 2392 00b0 00000000 		.4byte	.LFB11
 2393 00b4 02000000 		.4byte	.LCFI8
 2394 00b8 0200     		.2byte	0x2
 2395 00ba 7D       		.byte	0x7d
 2396 00bb 00       		.sleb128 0
 2397 00bc 02000000 		.4byte	.LCFI8
 2398 00c0 04000000 		.4byte	.LCFI9
 2399 00c4 0200     		.2byte	0x2
 2400 00c6 7D       		.byte	0x7d
 2401 00c7 04       		.sleb128 4
 2402 00c8 04000000 		.4byte	.LCFI9
 2403 00cc CE000000 		.4byte	.LFE11
 2404 00d0 0200     		.2byte	0x2
 2405 00d2 7D       		.byte	0x7d
 2406 00d3 10       		.sleb128 16
 2407 00d4 00000000 		.4byte	0
 2408 00d8 00000000 		.4byte	0
 2409              		.section	.debug_aranges,"",%progbits
 2410 0000 3C000000 		.4byte	0x3c
 2411 0004 0200     		.2byte	0x2
 2412 0006 00000000 		.4byte	.Ldebug_info0
 2413 000a 04       		.byte	0x4
 2414 000b 00       		.byte	0
 2415 000c 0000     		.2byte	0
 2416 000e 0000     		.2byte	0
 2417 0010 00000000 		.4byte	.LFB7
 2418 0014 1A000000 		.4byte	.LFE7-.LFB7
 2419 0018 00000000 		.4byte	.LFB8
 2420 001c 6A010000 		.4byte	.LFE8-.LFB8
 2421 0020 00000000 		.4byte	.LFB9
 2422 0024 92010000 		.4byte	.LFE9-.LFB9
 2423 0028 00000000 		.4byte	.LFB10
 2424 002c 6C020000 		.4byte	.LFE10-.LFB10
 2425 0030 00000000 		.4byte	.LFB11
 2426 0034 CE000000 		.4byte	.LFE11-.LFB11
 2427 0038 00000000 		.4byte	0
 2428 003c 00000000 		.4byte	0
 2429              		.section	.debug_ranges,"",%progbits
 2430              	.Ldebug_ranges0:
ARM GAS  /tmp/ccsXnYib.s 			page 44


 2431 0000 00000000 		.4byte	.LFB7
 2432 0004 1A000000 		.4byte	.LFE7
 2433 0008 00000000 		.4byte	.LFB8
 2434 000c 6A010000 		.4byte	.LFE8
 2435 0010 00000000 		.4byte	.LFB9
 2436 0014 92010000 		.4byte	.LFE9
 2437 0018 00000000 		.4byte	.LFB10
 2438 001c 6C020000 		.4byte	.LFE10
 2439 0020 00000000 		.4byte	.LFB11
 2440 0024 CE000000 		.4byte	.LFE11
 2441 0028 00000000 		.4byte	0
 2442 002c 00000000 		.4byte	0
 2443              		.section	.debug_line,"",%progbits
 2444              	.Ldebug_line0:
 2445 0000 BB010000 		.section	.debug_str,"MS",%progbits,1
 2445      02001701 
 2445      00000201 
 2445      FB0E0D00 
 2445      01010101 
 2446              	.LASF38:
 2447 0000 705F6D73 		.ascii	"p_msg\000"
 2447      6700
 2448              	.LASF82:
 2449 0006 7072696F 		.ascii	"prio\000"
 2449      00
 2450              	.LASF70:
 2451 000b 7264796D 		.ascii	"rdymsg\000"
 2451      736700
 2452              	.LASF11:
 2453 0012 75696E74 		.ascii	"uint64_t\000"
 2453      36345F74 
 2453      00
 2454              	.LASF85:
 2455 001b 76746C69 		.ascii	"vtlist\000"
 2455      737400
 2456              	.LASF12:
 2457 0022 6C6F6E67 		.ascii	"long long unsigned int\000"
 2457      206C6F6E 
 2457      6720756E 
 2457      7369676E 
 2457      65642069 
 2458              	.LASF71:
 2459 0039 65786974 		.ascii	"exitcode\000"
 2459      636F6465 
 2459      00
 2460              	.LASF25:
 2461 0042 705F7072 		.ascii	"p_prio\000"
 2461      696F00
 2462              	.LASF10:
 2463 0049 6C6F6E67 		.ascii	"long long int\000"
 2463      206C6F6E 
 2463      6720696E 
 2463      7400
 2464              	.LASF1:
 2465 0057 7369676E 		.ascii	"signed char\000"
 2465      65642063 
 2465      68617200 
ARM GAS  /tmp/ccsXnYib.s 			page 45


 2466              	.LASF42:
 2467 0063 705F6D70 		.ascii	"p_mpool\000"
 2467      6F6F6C00 
 2468              	.LASF67:
 2469 006b 6D5F7175 		.ascii	"m_queue\000"
 2469      65756500 
 2470              	.LASF17:
 2471 0073 74736C69 		.ascii	"tslices_t\000"
 2471      6365735F 
 2471      7400
 2472              	.LASF7:
 2473 007d 6C6F6E67 		.ascii	"long int\000"
 2473      20696E74 
 2473      00
 2474              	.LASF15:
 2475 0086 74737461 		.ascii	"tstate_t\000"
 2475      74655F74 
 2475      00
 2476              	.LASF27:
 2477 008f 705F6E65 		.ascii	"p_newer\000"
 2477      77657200 
 2478              	.LASF62:
 2479 0097 725F6E65 		.ascii	"r_newer\000"
 2479      77657200 
 2480              	.LASF45:
 2481 009f 72656761 		.ascii	"regarm_t\000"
 2481      726D5F74 
 2481      00
 2482              	.LASF53:
 2483 00a8 76745F70 		.ascii	"vt_prev\000"
 2483      72657600 
 2484              	.LASF97:
 2485 00b0 74686431 		.ascii	"thd1_execute\000"
 2485      5F657865 
 2485      63757465 
 2485      00
 2486              	.LASF30:
 2487 00bd 705F7374 		.ascii	"p_stklimit\000"
 2487      6B6C696D 
 2487      697400
 2488              	.LASF0:
 2489 00c8 756E7369 		.ascii	"unsigned int\000"
 2489      676E6564 
 2489      20696E74 
 2489      00
 2490              	.LASF52:
 2491 00d5 76745F6E 		.ascii	"vt_next\000"
 2491      65787400 
 2492              	.LASF9:
 2493 00dd 6C6F6E67 		.ascii	"long unsigned int\000"
 2493      20756E73 
 2493      69676E65 
 2493      6420696E 
 2493      7400
 2494              	.LASF78:
 2495 00ef 74656172 		.ascii	"teardown\000"
 2495      646F776E 
ARM GAS  /tmp/ccsXnYib.s 			page 46


 2495      00
 2496              	.LASF76:
 2497 00f8 6E616D65 		.ascii	"name\000"
 2497      00
 2498              	.LASF48:
 2499 00fd 636F6E74 		.ascii	"context\000"
 2499      65787400 
 2500              	.LASF4:
 2501 0105 73686F72 		.ascii	"short unsigned int\000"
 2501      7420756E 
 2501      7369676E 
 2501      65642069 
 2501      6E7400
 2502              	.LASF80:
 2503 0118 74686432 		.ascii	"thd2_execute\000"
 2503      5F657865 
 2503      63757465 
 2503      00
 2504              	.LASF19:
 2505 0125 6D73675F 		.ascii	"msg_t\000"
 2505      7400
 2506              	.LASF14:
 2507 012b 746D6F64 		.ascii	"tmode_t\000"
 2507      655F7400 
 2508              	.LASF44:
 2509 0133 54687265 		.ascii	"ThreadsList\000"
 2509      6164734C 
 2509      69737400 
 2510              	.LASF20:
 2511 013f 6576656E 		.ascii	"eventmask_t\000"
 2511      746D6173 
 2511      6B5F7400 
 2512              	.LASF66:
 2513 014b 4D757465 		.ascii	"Mutex\000"
 2513      7800
 2514              	.LASF93:
 2515 0151 474E5520 		.ascii	"GNU C 4.7.4 20130613 (release) [ARM/embedded-4_7-br"
 2515      4320342E 
 2515      372E3420 
 2515      32303133 
 2515      30363133 
 2516 0184 616E6368 		.ascii	"anch revision 200083]\000"
 2516      20726576 
 2516      6973696F 
 2516      6E203230 
 2516      30303833 
 2517              	.LASF46:
 2518 019a 73746B61 		.ascii	"stkalign_t\000"
 2518      6C69676E 
 2518      5F7400
 2519              	.LASF54:
 2520 01a5 76745F74 		.ascii	"vt_time\000"
 2520      696D6500 
 2521              	.LASF49:
 2522 01ad 73697A65 		.ascii	"sizetype\000"
 2522      74797065 
 2522      00
ARM GAS  /tmp/ccsXnYib.s 			page 47


 2523              	.LASF88:
 2524 01b6 74657374 		.ascii	"testthd1\000"
 2524      74686431 
 2524      00
 2525              	.LASF89:
 2526 01bf 74657374 		.ascii	"testthd2\000"
 2526      74686432 
 2526      00
 2527              	.LASF90:
 2528 01c8 74657374 		.ascii	"testthd3\000"
 2528      74686433 
 2528      00
 2529              	.LASF91:
 2530 01d1 74657374 		.ascii	"testthd4\000"
 2530      74686434 
 2530      00
 2531              	.LASF55:
 2532 01da 76745F66 		.ascii	"vt_func\000"
 2532      756E6300 
 2533              	.LASF28:
 2534 01e2 705F6F6C 		.ascii	"p_older\000"
 2534      64657200 
 2535              	.LASF95:
 2536 01ea 2F686F6D 		.ascii	"/home/witold/Dokumenty/arm/ChibiOS-master/demos/dis"
 2536      652F7769 
 2536      746F6C64 
 2536      2F446F6B 
 2536      756D656E 
 2537 021d 636F7665 		.ascii	"covery_1wire\000"
 2537      72795F31 
 2537      77697265 
 2537      00
 2538              	.LASF61:
 2539 022a 725F6374 		.ascii	"r_ctx\000"
 2539      7800
 2540              	.LASF43:
 2541 0230 54687265 		.ascii	"ThreadsQueue\000"
 2541      61647351 
 2541      75657565 
 2541      00
 2542              	.LASF77:
 2543 023d 73657475 		.ascii	"setup\000"
 2543      7000
 2544              	.LASF84:
 2545 0243 74696D65 		.ascii	"time\000"
 2545      00
 2546              	.LASF64:
 2547 0248 725F6375 		.ascii	"r_current\000"
 2547      7272656E 
 2547      7400
 2548              	.LASF63:
 2549 0252 725F6F6C 		.ascii	"r_older\000"
 2549      64657200 
 2550              	.LASF94:
 2551 025a 2E2E2F2E 		.ascii	"../../test/testthd.c\000"
 2551      2E2F7465 
 2551      73742F74 
ARM GAS  /tmp/ccsXnYib.s 			page 48


 2551      65737474 
 2551      68642E63 
 2552              	.LASF16:
 2553 026f 74726566 		.ascii	"trefs_t\000"
 2553      735F7400 
 2554              	.LASF81:
 2555 0277 74686433 		.ascii	"thd3_execute\000"
 2555      5F657865 
 2555      63757465 
 2555      00
 2556              	.LASF24:
 2557 0284 705F7072 		.ascii	"p_prev\000"
 2557      657600
 2558              	.LASF79:
 2559 028b 65786563 		.ascii	"execute\000"
 2559      75746500 
 2560              	.LASF18:
 2561 0293 74707269 		.ascii	"tprio_t\000"
 2561      6F5F7400 
 2562              	.LASF96:
 2563 029b 74687265 		.ascii	"thread\000"
 2563      616400
 2564              	.LASF13:
 2565 02a2 5F426F6F 		.ascii	"_Bool\000"
 2565      6C00
 2566              	.LASF6:
 2567 02a8 696E7433 		.ascii	"int32_t\000"
 2567      325F7400 
 2568              	.LASF2:
 2569 02b0 756E7369 		.ascii	"unsigned char\000"
 2569      676E6564 
 2569      20636861 
 2569      7200
 2570              	.LASF40:
 2571 02be 705F6D74 		.ascii	"p_mtxlist\000"
 2571      786C6973 
 2571      7400
 2572              	.LASF3:
 2573 02c8 73686F72 		.ascii	"short int\000"
 2573      7420696E 
 2573      7400
 2574              	.LASF31:
 2575 02d2 705F7374 		.ascii	"p_state\000"
 2575      61746500 
 2576              	.LASF34:
 2577 02da 705F7072 		.ascii	"p_preempt\000"
 2577      65656D70 
 2577      7400
 2578              	.LASF87:
 2579 02e4 74687265 		.ascii	"threads\000"
 2579      61647300 
 2580              	.LASF60:
 2581 02ec 725F7072 		.ascii	"r_prio\000"
 2581      696F00
 2582              	.LASF73:
 2583 02f3 65776D61 		.ascii	"ewmask\000"
 2583      736B00
ARM GAS  /tmp/ccsXnYib.s 			page 49


 2584              	.LASF23:
 2585 02fa 705F6E65 		.ascii	"p_next\000"
 2585      787400
 2586              	.LASF32:
 2587 0301 705F666C 		.ascii	"p_flags\000"
 2587      61677300 
 2588              	.LASF22:
 2589 0309 54687265 		.ascii	"Thread\000"
 2589      616400
 2590              	.LASF75:
 2591 0310 74657374 		.ascii	"testcase\000"
 2591      63617365 
 2591      00
 2592              	.LASF39:
 2593 0319 705F6570 		.ascii	"p_epending\000"
 2593      656E6469 
 2593      6E6700
 2594              	.LASF8:
 2595 0324 75696E74 		.ascii	"uint32_t\000"
 2595      33325F74 
 2595      00
 2596              	.LASF59:
 2597 032d 725F7175 		.ascii	"r_queue\000"
 2597      65756500 
 2598              	.LASF51:
 2599 0335 56697274 		.ascii	"VirtualTimer\000"
 2599      75616C54 
 2599      696D6572 
 2599      00
 2600              	.LASF74:
 2601 0342 63686172 		.ascii	"char\000"
 2601      00
 2602              	.LASF83:
 2603 0347 74686434 		.ascii	"thd4_execute\000"
 2603      5F657865 
 2603      63757465 
 2603      00
 2604              	.LASF92:
 2605 0354 70617474 		.ascii	"patternthd\000"
 2605      65726E74 
 2605      686400
 2606              	.LASF69:
 2607 035f 6D5F6E65 		.ascii	"m_next\000"
 2607      787400
 2608              	.LASF21:
 2609 0366 73797374 		.ascii	"systime_t\000"
 2609      696D655F 
 2609      7400
 2610              	.LASF41:
 2611 0370 705F7265 		.ascii	"p_realprio\000"
 2611      616C7072 
 2611      696F00
 2612              	.LASF50:
 2613 037b 76746675 		.ascii	"vtfunc_t\000"
 2613      6E635F74 
 2613      00
 2614              	.LASF35:
ARM GAS  /tmp/ccsXnYib.s 			page 50


 2615 0384 705F7469 		.ascii	"p_time\000"
 2615      6D6500
 2616              	.LASF47:
 2617 038b 696E7463 		.ascii	"intctx\000"
 2617      747800
 2618              	.LASF37:
 2619 0392 705F6D73 		.ascii	"p_msgqueue\000"
 2619      67717565 
 2619      756500
 2620              	.LASF56:
 2621 039d 76745F70 		.ascii	"vt_par\000"
 2621      617200
 2622              	.LASF33:
 2623 03a4 705F7265 		.ascii	"p_refs\000"
 2623      667300
 2624              	.LASF65:
 2625 03ab 52656164 		.ascii	"ReadyList\000"
 2625      794C6973 
 2625      7400
 2626              	.LASF86:
 2627 03b5 726C6973 		.ascii	"rlist\000"
 2627      7400
 2628              	.LASF5:
 2629 03bb 75696E74 		.ascii	"uint8_t\000"
 2629      385F7400 
 2630              	.LASF72:
 2631 03c3 77746F62 		.ascii	"wtobjp\000"
 2631      6A7000
 2632              	.LASF29:
 2633 03ca 705F6E61 		.ascii	"p_name\000"
 2633      6D6500
 2634              	.LASF57:
 2635 03d1 76745F73 		.ascii	"vt_systime\000"
 2635      79737469 
 2635      6D6500
 2636              	.LASF58:
 2637 03dc 56544C69 		.ascii	"VTList\000"
 2637      737400
 2638              	.LASF68:
 2639 03e3 6D5F6F77 		.ascii	"m_owner\000"
 2639      6E657200 
 2640              	.LASF26:
 2641 03eb 705F6374 		.ascii	"p_ctx\000"
 2641      7800
 2642              	.LASF36:
 2643 03f1 705F7761 		.ascii	"p_waiting\000"
 2643      6974696E 
 2643      6700
 2644              		.ident	"GCC: (GNU Tools for ARM Embedded Processors) 4.7.4 20130613 (release) [ARM/embedded-4_7-br
ARM GAS  /tmp/ccsXnYib.s 			page 51


DEFINED SYMBOLS
                            *ABS*:00000000 testthd.c
     /tmp/ccsXnYib.s:19     .text.thread:00000000 $t
     /tmp/ccsXnYib.s:24     .text.thread:00000000 thread
     /tmp/ccsXnYib.s:54     .rodata:00000000 $d
     /tmp/ccsXnYib.s:55     .rodata:00000000 .LC0
     /tmp/ccsXnYib.s:58     .rodata:00000004 .LC1
     /tmp/ccsXnYib.s:61     .rodata:00000008 .LC2
     /tmp/ccsXnYib.s:64     .rodata:0000000c .LC3
     /tmp/ccsXnYib.s:67     .rodata:00000010 .LC4
     /tmp/ccsXnYib.s:70     .rodata:00000014 .LC5
     /tmp/ccsXnYib.s:73     .text.thd1_execute:00000000 $t
     /tmp/ccsXnYib.s:78     .text.thd1_execute:00000000 thd1_execute
     /tmp/ccsXnYib.s:220    .rodata.testthd1:00000000 testthd1
     /tmp/ccsXnYib.s:217    .rodata.testthd1:00000000 $d
     /tmp/ccsXnYib.s:226    .text.thd2_execute:00000000 $t
     /tmp/ccsXnYib.s:231    .text.thd2_execute:00000000 thd2_execute
     /tmp/ccsXnYib.s:397    .rodata.testthd2:00000000 testthd2
     /tmp/ccsXnYib.s:394    .rodata.testthd2:00000000 $d
     /tmp/ccsXnYib.s:403    .text.thd3_execute:00000000 $t
     /tmp/ccsXnYib.s:408    .text.thd3_execute:00000000 thd3_execute
     /tmp/ccsXnYib.s:717    .rodata.testthd3:00000000 testthd3
     /tmp/ccsXnYib.s:714    .rodata.testthd3:00000000 $d
     /tmp/ccsXnYib.s:723    .text.thd4_execute:00000000 $t
     /tmp/ccsXnYib.s:728    .text.thd4_execute:00000000 thd4_execute
     /tmp/ccsXnYib.s:840    .rodata.testthd4:00000000 testthd4
     /tmp/ccsXnYib.s:837    .rodata.testthd4:00000000 $d
     /tmp/ccsXnYib.s:850    .rodata.patternthd:00000000 patternthd
     /tmp/ccsXnYib.s:847    .rodata.patternthd:00000000 $d
                     .debug_frame:00000010 $d

UNDEFINED SYMBOLS
test_emit_token
wa
rlist
chThdCreateStatic
threads
test_wait_threads
_test_assert_sequence
dbg_check_lock
chThdCreateI
dbg_check_unlock
chThdResume
chThdSetPriority
_test_assert
test_wait_tick
vtlist
chThdSleep
_test_assert_time_window
chThdSleepUntil
