ARM GAS  /tmp/ccr5WfZe.s 			page 1


   1              		.syntax unified
   2              		.cpu cortex-m4
   3              		.fpu softvfp
   4              		.eabi_attribute 20, 1
   5              		.eabi_attribute 21, 1
   6              		.eabi_attribute 23, 3
   7              		.eabi_attribute 24, 1
   8              		.eabi_attribute 25, 1
   9              		.eabi_attribute 26, 1
  10              		.eabi_attribute 30, 6
  11              		.eabi_attribute 34, 1
  12              		.eabi_attribute 18, 4
  13              		.thumb
  14              		.file	"testpools.c"
  15              		.text
  16              	.Ltext0:
  17              		.cfi_sections	.debug_frame
  18              		.section	.data.mp1,"aw",%progbits
  19              		.align	2
  20              		.type	mp1, %object
  21              		.size	mp1, 12
  22              	mp1:
  23 0000 00000000 		.word	0
  24 0004 30010000 		.word	304
  25 0008 00000000 		.word	0
  26              		.section	.text.null_provider,"ax",%progbits
  27              		.align	2
  28              		.p2align 4,,15
  29              		.thumb
  30              		.thumb_func
  31              		.type	null_provider, %function
  32              	null_provider:
  33              	.LFB7:
  34              		.file 1 "../../test/testpools.c"
  35              		.loc 1 60 0
  36              		.cfi_startproc
  37              		@ args = 0, pretend = 0, frame = 8
  38              		@ frame_needed = 0, uses_anonymous_args = 0
  39              		@ link register save eliminated.
  40 0000 82B0     		sub	sp, sp, #8
  41              	.LCFI0:
  42              		.cfi_def_cfa_offset 8
  43 0002 0190     		str	r0, [sp, #4]
  44              		.loc 1 63 0
  45 0004 4FF00003 		mov	r3, #0
  46              		.loc 1 64 0
  47 0008 1846     		mov	r0, r3
  48 000a 02B0     		add	sp, sp, #8
  49 000c 7047     		bx	lr
  50              		.cfi_endproc
  51              	.LFE7:
  52              		.size	null_provider, .-null_provider
  53 000e 00BF     		.section	.text.pools1_setup,"ax",%progbits
  54              		.align	2
  55              		.p2align 4,,15
  56              		.thumb
  57              		.thumb_func
ARM GAS  /tmp/ccr5WfZe.s 			page 2


  58              		.type	pools1_setup, %function
  59              	pools1_setup:
  60              	.LFB8:
  61              		.loc 1 66 0
  62              		.cfi_startproc
  63              		@ args = 0, pretend = 0, frame = 0
  64              		@ frame_needed = 0, uses_anonymous_args = 0
  65 0000 08B5     		push	{r3, lr}
  66              	.LCFI1:
  67              		.cfi_def_cfa_offset 8
  68              		.cfi_offset 3, -8
  69              		.cfi_offset 14, -4
  70              		.loc 1 68 0
  71 0002 40F20000 		movw	r0, #:lower16:mp1
  72 0006 C0F20000 		movt	r0, #:upper16:mp1
  73 000a 4FF49871 		mov	r1, #304
  74 000e 4FF00002 		mov	r2, #0
  75 0012 FFF7FEFF 		bl	chPoolInit
  76              		.loc 1 69 0
  77 0016 08BD     		pop	{r3, pc}
  78              		.cfi_endproc
  79              	.LFE8:
  80              		.size	pools1_setup, .-pools1_setup
  81 0018 AFF30080 		.section	.text.pools1_execute,"ax",%progbits
  81      AFF30080 
  82              		.align	2
  83              		.p2align 4,,15
  84              		.thumb
  85              		.thumb_func
  86              		.type	pools1_execute, %function
  87              	pools1_execute:
  88              	.LFB9:
  89              		.loc 1 71 0
  90              		.cfi_startproc
  91              		@ args = 0, pretend = 0, frame = 8
  92              		@ frame_needed = 0, uses_anonymous_args = 0
  93 0000 00B5     		push	{lr}
  94              	.LCFI2:
  95              		.cfi_def_cfa_offset 4
  96              		.cfi_offset 14, -4
  97 0002 83B0     		sub	sp, sp, #12
  98              	.LCFI3:
  99              		.cfi_def_cfa_offset 16
 100              		.loc 1 75 0
 101 0004 40F20003 		movw	r3, #:lower16:wa
 102 0008 C0F20003 		movt	r3, #:upper16:wa
 103 000c 1B68     		ldr	r3, [r3, #0]
 104 000e 40F20000 		movw	r0, #:lower16:mp1
 105 0012 C0F20000 		movt	r0, #:upper16:mp1
 106 0016 1946     		mov	r1, r3
 107 0018 4FF00502 		mov	r2, #5
 108 001c FFF7FEFF 		bl	chPoolLoadArray
 109              		.loc 1 78 0
 110 0020 4FF00003 		mov	r3, #0
 111 0024 0193     		str	r3, [sp, #4]
 112 0026 18E0     		b	.L5
 113              	.L8:
ARM GAS  /tmp/ccr5WfZe.s 			page 3


 114              		.loc 1 79 0
 115 0028 40F20000 		movw	r0, #:lower16:mp1
 116 002c C0F20000 		movt	r0, #:upper16:mp1
 117 0030 FFF7FEFF 		bl	chPoolAlloc
 118 0034 0346     		mov	r3, r0
 119 0036 002B     		cmp	r3, #0
 120 0038 0CBF     		ite	eq
 121 003a 0023     		moveq	r3, #0
 122 003c 0123     		movne	r3, #1
 123 003e DBB2     		uxtb	r3, r3
 124 0040 4FF00100 		mov	r0, #1
 125 0044 1946     		mov	r1, r3
 126 0046 FFF7FEFF 		bl	_test_assert
 127 004a 0346     		mov	r3, r0
 128 004c 002B     		cmp	r3, #0
 129 004e 40F08680 		bne	.L4
 130              	.L6:
 131              		.loc 1 78 0
 132 0052 019B     		ldr	r3, [sp, #4]
 133 0054 03F10103 		add	r3, r3, #1
 134 0058 0193     		str	r3, [sp, #4]
 135              	.L5:
 136              		.loc 1 78 0 is_stmt 0 discriminator 1
 137 005a 019B     		ldr	r3, [sp, #4]
 138 005c 042B     		cmp	r3, #4
 139 005e E3DD     		ble	.L8
 140              		.loc 1 82 0 is_stmt 1
 141 0060 40F20000 		movw	r0, #:lower16:mp1
 142 0064 C0F20000 		movt	r0, #:upper16:mp1
 143 0068 FFF7FEFF 		bl	chPoolAlloc
 144 006c 0346     		mov	r3, r0
 145 006e 002B     		cmp	r3, #0
 146 0070 14BF     		ite	ne
 147 0072 0023     		movne	r3, #0
 148 0074 0123     		moveq	r3, #1
 149 0076 DBB2     		uxtb	r3, r3
 150 0078 4FF00200 		mov	r0, #2
 151 007c 1946     		mov	r1, r3
 152 007e FFF7FEFF 		bl	_test_assert
 153 0082 0346     		mov	r3, r0
 154 0084 002B     		cmp	r3, #0
 155 0086 6AD1     		bne	.L4
 156              	.L9:
 157              		.loc 1 85 0
 158 0088 4FF00003 		mov	r3, #0
 159 008c 0193     		str	r3, [sp, #4]
 160 008e 11E0     		b	.L10
 161              	.L11:
 162              		.loc 1 86 0 discriminator 2
 163 0090 40F20003 		movw	r3, #:lower16:wa
 164 0094 C0F20003 		movt	r3, #:upper16:wa
 165 0098 019A     		ldr	r2, [sp, #4]
 166 009a 53F82230 		ldr	r3, [r3, r2, lsl #2]
 167 009e 40F20000 		movw	r0, #:lower16:mp1
 168 00a2 C0F20000 		movt	r0, #:upper16:mp1
 169 00a6 1946     		mov	r1, r3
 170 00a8 FFF7FEFF 		bl	chPoolFree
ARM GAS  /tmp/ccr5WfZe.s 			page 4


 171              		.loc 1 85 0 discriminator 2
 172 00ac 019B     		ldr	r3, [sp, #4]
 173 00ae 03F10103 		add	r3, r3, #1
 174 00b2 0193     		str	r3, [sp, #4]
 175              	.L10:
 176              		.loc 1 85 0 is_stmt 0 discriminator 1
 177 00b4 019B     		ldr	r3, [sp, #4]
 178 00b6 042B     		cmp	r3, #4
 179 00b8 EADD     		ble	.L11
 180              		.loc 1 89 0 is_stmt 1
 181 00ba 4FF00003 		mov	r3, #0
 182 00be 0193     		str	r3, [sp, #4]
 183 00c0 17E0     		b	.L12
 184              	.L14:
 185              		.loc 1 90 0
 186 00c2 40F20000 		movw	r0, #:lower16:mp1
 187 00c6 C0F20000 		movt	r0, #:upper16:mp1
 188 00ca FFF7FEFF 		bl	chPoolAlloc
 189 00ce 0346     		mov	r3, r0
 190 00d0 002B     		cmp	r3, #0
 191 00d2 0CBF     		ite	eq
 192 00d4 0023     		moveq	r3, #0
 193 00d6 0123     		movne	r3, #1
 194 00d8 DBB2     		uxtb	r3, r3
 195 00da 4FF00300 		mov	r0, #3
 196 00de 1946     		mov	r1, r3
 197 00e0 FFF7FEFF 		bl	_test_assert
 198 00e4 0346     		mov	r3, r0
 199 00e6 002B     		cmp	r3, #0
 200 00e8 39D1     		bne	.L4
 201              	.L13:
 202              		.loc 1 89 0
 203 00ea 019B     		ldr	r3, [sp, #4]
 204 00ec 03F10103 		add	r3, r3, #1
 205 00f0 0193     		str	r3, [sp, #4]
 206              	.L12:
 207              		.loc 1 89 0 is_stmt 0 discriminator 1
 208 00f2 019B     		ldr	r3, [sp, #4]
 209 00f4 042B     		cmp	r3, #4
 210 00f6 E4DD     		ble	.L14
 211              		.loc 1 93 0 is_stmt 1
 212 00f8 40F20000 		movw	r0, #:lower16:mp1
 213 00fc C0F20000 		movt	r0, #:upper16:mp1
 214 0100 FFF7FEFF 		bl	chPoolAlloc
 215 0104 0346     		mov	r3, r0
 216 0106 002B     		cmp	r3, #0
 217 0108 14BF     		ite	ne
 218 010a 0023     		movne	r3, #0
 219 010c 0123     		moveq	r3, #1
 220 010e DBB2     		uxtb	r3, r3
 221 0110 4FF00400 		mov	r0, #4
 222 0114 1946     		mov	r1, r3
 223 0116 FFF7FEFF 		bl	_test_assert
 224 011a 0346     		mov	r3, r0
 225 011c 002B     		cmp	r3, #0
 226 011e 1ED1     		bne	.L4
 227              	.L15:
ARM GAS  /tmp/ccr5WfZe.s 			page 5


 228              		.loc 1 96 0
 229 0120 40F20000 		movw	r0, #:lower16:mp1
 230 0124 C0F20000 		movt	r0, #:upper16:mp1
 231 0128 4FF01001 		mov	r1, #16
 232 012c 40F20002 		movw	r2, #:lower16:null_provider
 233 0130 C0F20002 		movt	r2, #:upper16:null_provider
 234 0134 FFF7FEFF 		bl	chPoolInit
 235              		.loc 1 97 0
 236 0138 40F20000 		movw	r0, #:lower16:mp1
 237 013c C0F20000 		movt	r0, #:upper16:mp1
 238 0140 FFF7FEFF 		bl	chPoolAlloc
 239 0144 0346     		mov	r3, r0
 240 0146 002B     		cmp	r3, #0
 241 0148 14BF     		ite	ne
 242 014a 0023     		movne	r3, #0
 243 014c 0123     		moveq	r3, #1
 244 014e DBB2     		uxtb	r3, r3
 245 0150 4FF00500 		mov	r0, #5
 246 0154 1946     		mov	r1, r3
 247 0156 FFF7FEFF 		bl	_test_assert
 248 015a 0346     		mov	r3, r0
 249 015c 002B     		cmp	r3, #0
 250              	.L4:
 251              		.loc 1 98 0
 252 015e 03B0     		add	sp, sp, #12
 253 0160 00BD     		pop	{pc}
 254              		.cfi_endproc
 255              	.LFE9:
 256              		.size	pools1_execute, .-pools1_execute
 257              		.global	testpools1
 258 0162 00BFAFF3 		.section	.rodata
 258      0080AFF3 
 258      0080AFF3 
 258      0080
 259              		.align	2
 260              	.LC0:
 261 0000 4D656D6F 		.ascii	"Memory Pools, queue/dequeue\000"
 261      72792050 
 261      6F6F6C73 
 261      2C207175 
 261      6575652F 
 262              		.section	.rodata.testpools1,"a",%progbits
 263              		.align	2
 264              		.type	testpools1, %object
 265              		.size	testpools1, 16
 266              	testpools1:
 267 0000 00000000 		.word	.LC0
 268 0004 00000000 		.word	pools1_setup
 269 0008 00000000 		.word	0
 270 000c 00000000 		.word	pools1_execute
 271              		.global	patternpools
 272              		.section	.rodata.patternpools,"a",%progbits
 273              		.align	2
 274              		.type	patternpools, %object
 275              		.size	patternpools, 8
 276              	patternpools:
 277 0000 00000000 		.word	testpools1
ARM GAS  /tmp/ccr5WfZe.s 			page 6


 278 0004 00000000 		.word	0
 279              		.text
 280              	.Letext0:
 281              		.file 2 "/usr/bin/../lib/gcc/arm-none-eabi/4.7.4/include/stddef.h"
 282              		.file 3 "../../os/kernel/include/chmemcore.h"
 283              		.file 4 "../../os/kernel/include/chmempools.h"
 284              		.file 5 "../../test/test.h"