ARM GAS  /tmp/ccLoXihA.s 			page 1


   1              		.syntax unified
   2              		.cpu cortex-m4
   3              		.fpu softvfp
   4              		.eabi_attribute 20, 1
   5              		.eabi_attribute 21, 1
   6              		.eabi_attribute 23, 3
   7              		.eabi_attribute 24, 1
   8              		.eabi_attribute 25, 1
   9              		.eabi_attribute 26, 1
  10              		.eabi_attribute 30, 6
  11              		.eabi_attribute 34, 1
  12              		.eabi_attribute 18, 4
  13              		.thumb
  14              		.file	"testmtx.c"
  15              		.text
  16              	.Ltext0:
  17              		.cfi_sections	.debug_frame
  18              		.section	.data.m1,"aw",%progbits
  19              		.align	2
  20              		.type	m1, %object
  21              		.size	m1, 16
  22              	m1:
  23 0000 00000000 		.word	m1
  24 0004 00000000 		.word	m1
  25 0008 00000000 		.word	0
  26 000c 00000000 		.word	0
  27              		.section	.data.m2,"aw",%progbits
  28              		.align	2
  29              		.type	m2, %object
  30              		.size	m2, 16
  31              	m2:
  32 0000 00000000 		.word	m2
  33 0004 00000000 		.word	m2
  34 0008 00000000 		.word	0
  35 000c 00000000 		.word	0
  36              		.section	.data.c1,"aw",%progbits
  37              		.align	2
  38              		.type	c1, %object
  39              		.size	c1, 8
  40              	c1:
  41 0000 00000000 		.word	c1
  42 0004 00000000 		.word	c1
  43              		.section	.text.mtx1_setup,"ax",%progbits
  44              		.align	2
  45              		.p2align 4,,15
  46              		.thumb
  47              		.thumb_func
  48              		.type	mtx1_setup, %function
  49              	mtx1_setup:
  50              	.LFB7:
  51              		.file 1 "../../test/testmtx.c"
  52              		.loc 1 84 0
  53              		.cfi_startproc
  54              		@ args = 0, pretend = 0, frame = 0
  55              		@ frame_needed = 0, uses_anonymous_args = 0
  56 0000 08B5     		push	{r3, lr}
  57              	.LCFI0:
ARM GAS  /tmp/ccLoXihA.s 			page 2


  58              		.cfi_def_cfa_offset 8
  59              		.cfi_offset 3, -8
  60              		.cfi_offset 14, -4
  61              		.loc 1 86 0
  62 0002 40F20000 		movw	r0, #:lower16:m1
  63 0006 C0F20000 		movt	r0, #:upper16:m1
  64 000a FFF7FEFF 		bl	chMtxInit
  65              		.loc 1 87 0
  66 000e 08BD     		pop	{r3, pc}
  67              		.cfi_endproc
  68              	.LFE7:
  69              		.size	mtx1_setup, .-mtx1_setup
  70              		.section	.text.thread1,"ax",%progbits
  71              		.align	2
  72              		.p2align 4,,15
  73              		.thumb
  74              		.thumb_func
  75              		.type	thread1, %function
  76              	thread1:
  77              	.LFB8:
  78              		.loc 1 89 0
  79              		.cfi_startproc
  80              		@ args = 0, pretend = 0, frame = 8
  81              		@ frame_needed = 0, uses_anonymous_args = 0
  82 0000 00B5     		push	{lr}
  83              	.LCFI1:
  84              		.cfi_def_cfa_offset 4
  85              		.cfi_offset 14, -4
  86 0002 83B0     		sub	sp, sp, #12
  87              	.LCFI2:
  88              		.cfi_def_cfa_offset 16
  89 0004 0190     		str	r0, [sp, #4]
  90              		.loc 1 91 0
  91 0006 40F20000 		movw	r0, #:lower16:m1
  92 000a C0F20000 		movt	r0, #:upper16:m1
  93 000e FFF7FEFF 		bl	chMtxLock
  94              		.loc 1 92 0
  95 0012 019B     		ldr	r3, [sp, #4]
  96 0014 1B78     		ldrb	r3, [r3, #0]	@ zero_extendqisi2
  97 0016 1846     		mov	r0, r3
  98 0018 FFF7FEFF 		bl	test_emit_token
  99              		.loc 1 93 0
 100 001c FFF7FEFF 		bl	chMtxUnlock
 101              		.loc 1 94 0
 102 0020 4FF00003 		mov	r3, #0
 103              		.loc 1 95 0
 104 0024 1846     		mov	r0, r3
 105 0026 03B0     		add	sp, sp, #12
 106 0028 00BD     		pop	{pc}
 107              		.cfi_endproc
 108              	.LFE8:
 109              		.size	thread1, .-thread1
 110 002a 00BFAFF3 		.section	.rodata
 110      0080
 111              		.align	2
 112              	.LC0:
 113 0000 4500     		.ascii	"E\000"
ARM GAS  /tmp/ccLoXihA.s 			page 3


 114 0002 0000     		.align	2
 115              	.LC1:
 116 0004 4400     		.ascii	"D\000"
 117 0006 0000     		.align	2
 118              	.LC2:
 119 0008 4300     		.ascii	"C\000"
 120 000a 0000     		.align	2
 121              	.LC3:
 122 000c 4200     		.ascii	"B\000"
 123 000e 0000     		.align	2
 124              	.LC4:
 125 0010 4100     		.ascii	"A\000"
 126 0012 0000     		.align	2
 127              	.LC5:
 128 0014 41424344 		.ascii	"ABCDE\000"
 128      4500
 129              		.section	.text.mtx1_execute,"ax",%progbits
 130              		.align	2
 131              		.p2align 4,,15
 132              		.thumb
 133              		.thumb_func
 134              		.type	mtx1_execute, %function
 135              	mtx1_execute:
 136              	.LFB9:
 137              		.loc 1 97 0
 138              		.cfi_startproc
 139              		@ args = 0, pretend = 0, frame = 8
 140              		@ frame_needed = 0, uses_anonymous_args = 0
 141 0000 00B5     		push	{lr}
 142              	.LCFI3:
 143              		.cfi_def_cfa_offset 4
 144              		.cfi_offset 14, -4
 145 0002 85B0     		sub	sp, sp, #20
 146              	.LCFI4:
 147              		.cfi_def_cfa_offset 24
 148              		.loc 1 99 0
 149 0004 40F20003 		movw	r3, #:lower16:rlist
 150 0008 C0F20003 		movt	r3, #:upper16:rlist
 151 000c 9B69     		ldr	r3, [r3, #24]
 152 000e 9B68     		ldr	r3, [r3, #8]
 153 0010 0393     		str	r3, [sp, #12]
 154              		.loc 1 100 0
 155 0012 40F20000 		movw	r0, #:lower16:m1
 156 0016 C0F20000 		movt	r0, #:upper16:m1
 157 001a FFF7FEFF 		bl	chMtxLock
 158              		.loc 1 101 0
 159 001e 40F20003 		movw	r3, #:lower16:wa
 160 0022 C0F20003 		movt	r3, #:upper16:wa
 161 0026 1968     		ldr	r1, [r3, #0]
 162 0028 039B     		ldr	r3, [sp, #12]
 163 002a 03F10102 		add	r2, r3, #1
 164 002e 40F20003 		movw	r3, #:lower16:.LC0
 165 0032 C0F20003 		movt	r3, #:upper16:.LC0
 166 0036 0093     		str	r3, [sp, #0]
 167 0038 0846     		mov	r0, r1
 168 003a 4FF49871 		mov	r1, #304
 169 003e 40F20003 		movw	r3, #:lower16:thread1
ARM GAS  /tmp/ccLoXihA.s 			page 4


 170 0042 C0F20003 		movt	r3, #:upper16:thread1
 171 0046 FFF7FEFF 		bl	chThdCreateStatic
 172 004a 0246     		mov	r2, r0
 173 004c 40F20003 		movw	r3, #:lower16:threads
 174 0050 C0F20003 		movt	r3, #:upper16:threads
 175 0054 1A60     		str	r2, [r3, #0]
 176              		.loc 1 102 0
 177 0056 40F20003 		movw	r3, #:lower16:wa
 178 005a C0F20003 		movt	r3, #:upper16:wa
 179 005e 5968     		ldr	r1, [r3, #4]
 180 0060 039B     		ldr	r3, [sp, #12]
 181 0062 03F10202 		add	r2, r3, #2
 182 0066 40F20003 		movw	r3, #:lower16:.LC1
 183 006a C0F20003 		movt	r3, #:upper16:.LC1
 184 006e 0093     		str	r3, [sp, #0]
 185 0070 0846     		mov	r0, r1
 186 0072 4FF49871 		mov	r1, #304
 187 0076 40F20003 		movw	r3, #:lower16:thread1
 188 007a C0F20003 		movt	r3, #:upper16:thread1
 189 007e FFF7FEFF 		bl	chThdCreateStatic
 190 0082 0246     		mov	r2, r0
 191 0084 40F20003 		movw	r3, #:lower16:threads
 192 0088 C0F20003 		movt	r3, #:upper16:threads
 193 008c 5A60     		str	r2, [r3, #4]
 194              		.loc 1 103 0
 195 008e 40F20003 		movw	r3, #:lower16:wa
 196 0092 C0F20003 		movt	r3, #:upper16:wa
 197 0096 9968     		ldr	r1, [r3, #8]
 198 0098 039B     		ldr	r3, [sp, #12]
 199 009a 03F10302 		add	r2, r3, #3
 200 009e 40F20003 		movw	r3, #:lower16:.LC2
 201 00a2 C0F20003 		movt	r3, #:upper16:.LC2
 202 00a6 0093     		str	r3, [sp, #0]
 203 00a8 0846     		mov	r0, r1
 204 00aa 4FF49871 		mov	r1, #304
 205 00ae 40F20003 		movw	r3, #:lower16:thread1
 206 00b2 C0F20003 		movt	r3, #:upper16:thread1
 207 00b6 FFF7FEFF 		bl	chThdCreateStatic
 208 00ba 0246     		mov	r2, r0
 209 00bc 40F20003 		movw	r3, #:lower16:threads
 210 00c0 C0F20003 		movt	r3, #:upper16:threads
 211 00c4 9A60     		str	r2, [r3, #8]
 212              		.loc 1 104 0
 213 00c6 40F20003 		movw	r3, #:lower16:wa
 214 00ca C0F20003 		movt	r3, #:upper16:wa
 215 00ce D968     		ldr	r1, [r3, #12]
 216 00d0 039B     		ldr	r3, [sp, #12]
 217 00d2 03F10402 		add	r2, r3, #4
 218 00d6 40F20003 		movw	r3, #:lower16:.LC3
 219 00da C0F20003 		movt	r3, #:upper16:.LC3
 220 00de 0093     		str	r3, [sp, #0]
 221 00e0 0846     		mov	r0, r1
 222 00e2 4FF49871 		mov	r1, #304
 223 00e6 40F20003 		movw	r3, #:lower16:thread1
 224 00ea C0F20003 		movt	r3, #:upper16:thread1
 225 00ee FFF7FEFF 		bl	chThdCreateStatic
 226 00f2 0246     		mov	r2, r0
ARM GAS  /tmp/ccLoXihA.s 			page 5


 227 00f4 40F20003 		movw	r3, #:lower16:threads
 228 00f8 C0F20003 		movt	r3, #:upper16:threads
 229 00fc DA60     		str	r2, [r3, #12]
 230              		.loc 1 105 0
 231 00fe 40F20003 		movw	r3, #:lower16:wa
 232 0102 C0F20003 		movt	r3, #:upper16:wa
 233 0106 1969     		ldr	r1, [r3, #16]
 234 0108 039B     		ldr	r3, [sp, #12]
 235 010a 03F10502 		add	r2, r3, #5
 236 010e 40F20003 		movw	r3, #:lower16:.LC4
 237 0112 C0F20003 		movt	r3, #:upper16:.LC4
 238 0116 0093     		str	r3, [sp, #0]
 239 0118 0846     		mov	r0, r1
 240 011a 4FF49871 		mov	r1, #304
 241 011e 40F20003 		movw	r3, #:lower16:thread1
 242 0122 C0F20003 		movt	r3, #:upper16:thread1
 243 0126 FFF7FEFF 		bl	chThdCreateStatic
 244 012a 0246     		mov	r2, r0
 245 012c 40F20003 		movw	r3, #:lower16:threads
 246 0130 C0F20003 		movt	r3, #:upper16:threads
 247 0134 1A61     		str	r2, [r3, #16]
 248              		.loc 1 106 0
 249 0136 FFF7FEFF 		bl	chMtxUnlock
 250              		.loc 1 107 0
 251 013a FFF7FEFF 		bl	test_wait_threads
 252              		.loc 1 108 0
 253 013e 40F20003 		movw	r3, #:lower16:rlist
 254 0142 C0F20003 		movt	r3, #:upper16:rlist
 255 0146 9B69     		ldr	r3, [r3, #24]
 256 0148 9A68     		ldr	r2, [r3, #8]
 257 014a 039B     		ldr	r3, [sp, #12]
 258 014c 9A42     		cmp	r2, r3
 259 014e 14BF     		ite	ne
 260 0150 0023     		movne	r3, #0
 261 0152 0123     		moveq	r3, #1
 262 0154 DBB2     		uxtb	r3, r3
 263 0156 4FF00100 		mov	r0, #1
 264 015a 1946     		mov	r1, r3
 265 015c FFF7FEFF 		bl	_test_assert
 266 0160 0346     		mov	r3, r0
 267 0162 002B     		cmp	r3, #0
 268 0164 09D1     		bne	.L4
 269              	.L5:
 270              		.loc 1 109 0
 271 0166 4FF00200 		mov	r0, #2
 272 016a 40F20001 		movw	r1, #:lower16:.LC5
 273 016e C0F20001 		movt	r1, #:upper16:.LC5
 274 0172 FFF7FEFF 		bl	_test_assert_sequence
 275 0176 0346     		mov	r3, r0
 276 0178 002B     		cmp	r3, #0
 277              	.L4:
 278              		.loc 1 110 0
 279 017a 05B0     		add	sp, sp, #20
 280 017c 00BD     		pop	{pc}
 281              		.cfi_endproc
 282              	.LFE9:
 283              		.size	mtx1_execute, .-mtx1_execute
ARM GAS  /tmp/ccLoXihA.s 			page 6


 284              		.global	testmtx1
 285 017e 00BF     		.section	.rodata
 286 001a 0000     		.align	2
 287              	.LC6:
 288 001c 4D757465 		.ascii	"Mutexes, priority enqueuing test\000"
 288      7865732C 
 288      20707269 
 288      6F726974 
 288      7920656E 
 289              		.section	.rodata.testmtx1,"a",%progbits
 290              		.align	2
 291              		.type	testmtx1, %object
 292              		.size	testmtx1, 16
 293              	testmtx1:
 294 0000 1C000000 		.word	.LC6
 295 0004 00000000 		.word	mtx1_setup
 296 0008 00000000 		.word	0
 297 000c 00000000 		.word	mtx1_execute
 298              		.section	.text.mtx2_setup,"ax",%progbits
 299              		.align	2
 300              		.p2align 4,,15
 301              		.thumb
 302              		.thumb_func
 303              		.type	mtx2_setup, %function
 304              	mtx2_setup:
 305              	.LFB10:
 306              		.loc 1 151 0
 307              		.cfi_startproc
 308              		@ args = 0, pretend = 0, frame = 0
 309              		@ frame_needed = 0, uses_anonymous_args = 0
 310 0000 08B5     		push	{r3, lr}
 311              	.LCFI5:
 312              		.cfi_def_cfa_offset 8
 313              		.cfi_offset 3, -8
 314              		.cfi_offset 14, -4
 315              		.loc 1 153 0
 316 0002 40F20000 		movw	r0, #:lower16:m1
 317 0006 C0F20000 		movt	r0, #:upper16:m1
 318 000a FFF7FEFF 		bl	chMtxInit
 319              		.loc 1 154 0
 320 000e 08BD     		pop	{r3, pc}
 321              		.cfi_endproc
 322              	.LFE10:
 323              		.size	mtx2_setup, .-mtx2_setup
 324              		.section	.text.thread2L,"ax",%progbits
 325              		.align	2
 326              		.p2align 4,,15
 327              		.thumb
 328              		.thumb_func
 329              		.type	thread2L, %function
 330              	thread2L:
 331              	.LFB11:
 332              		.loc 1 157 0
 333              		.cfi_startproc
 334              		@ args = 0, pretend = 0, frame = 8
 335              		@ frame_needed = 0, uses_anonymous_args = 0
 336 0000 00B5     		push	{lr}
ARM GAS  /tmp/ccLoXihA.s 			page 7


 337              	.LCFI6:
 338              		.cfi_def_cfa_offset 4
 339              		.cfi_offset 14, -4
 340 0002 83B0     		sub	sp, sp, #12
 341              	.LCFI7:
 342              		.cfi_def_cfa_offset 16
 343 0004 0190     		str	r0, [sp, #4]
 344              		.loc 1 160 0
 345 0006 40F20000 		movw	r0, #:lower16:m1
 346 000a C0F20000 		movt	r0, #:upper16:m1
 347 000e FFF7FEFF 		bl	chMtxLock
 348              		.loc 1 161 0
 349 0012 4FF02800 		mov	r0, #40
 350 0016 FFF7FEFF 		bl	test_cpu_pulse
 351              		.loc 1 162 0
 352 001a FFF7FEFF 		bl	chMtxUnlock
 353              		.loc 1 163 0
 354 001e 4FF00A00 		mov	r0, #10
 355 0022 FFF7FEFF 		bl	test_cpu_pulse
 356              		.loc 1 164 0
 357 0026 4FF04300 		mov	r0, #67
 358 002a FFF7FEFF 		bl	test_emit_token
 359              		.loc 1 165 0
 360 002e 4FF00003 		mov	r3, #0
 361              		.loc 1 166 0
 362 0032 1846     		mov	r0, r3
 363 0034 03B0     		add	sp, sp, #12
 364 0036 00BD     		pop	{pc}
 365              		.cfi_endproc
 366              	.LFE11:
 367              		.size	thread2L, .-thread2L
 368 0038 AFF30080 		.section	.text.thread2M,"ax",%progbits
 368      AFF30080 
 369              		.align	2
 370              		.p2align 4,,15
 371              		.thumb
 372              		.thumb_func
 373              		.type	thread2M, %function
 374              	thread2M:
 375              	.LFB12:
 376              		.loc 1 169 0
 377              		.cfi_startproc
 378              		@ args = 0, pretend = 0, frame = 8
 379              		@ frame_needed = 0, uses_anonymous_args = 0
 380 0000 00B5     		push	{lr}
 381              	.LCFI8:
 382              		.cfi_def_cfa_offset 4
 383              		.cfi_offset 14, -4
 384 0002 83B0     		sub	sp, sp, #12
 385              	.LCFI9:
 386              		.cfi_def_cfa_offset 16
 387 0004 0190     		str	r0, [sp, #4]
 388              		.loc 1 172 0
 389 0006 4FF01400 		mov	r0, #20
 390 000a FFF7FEFF 		bl	chThdSleep
 391              		.loc 1 173 0
 392 000e 4FF02800 		mov	r0, #40
ARM GAS  /tmp/ccLoXihA.s 			page 8


 393 0012 FFF7FEFF 		bl	test_cpu_pulse
 394              		.loc 1 174 0
 395 0016 4FF04200 		mov	r0, #66
 396 001a FFF7FEFF 		bl	test_emit_token
 397              		.loc 1 175 0
 398 001e 4FF00003 		mov	r3, #0
 399              		.loc 1 176 0
 400 0022 1846     		mov	r0, r3
 401 0024 03B0     		add	sp, sp, #12
 402 0026 00BD     		pop	{pc}
 403              		.cfi_endproc
 404              	.LFE12:
 405              		.size	thread2M, .-thread2M
 406 0028 AFF30080 		.section	.text.thread2H,"ax",%progbits
 406      AFF30080 
 407              		.align	2
 408              		.p2align 4,,15
 409              		.thumb
 410              		.thumb_func
 411              		.type	thread2H, %function
 412              	thread2H:
 413              	.LFB13:
 414              		.loc 1 179 0
 415              		.cfi_startproc
 416              		@ args = 0, pretend = 0, frame = 8
 417              		@ frame_needed = 0, uses_anonymous_args = 0
 418 0000 00B5     		push	{lr}
 419              	.LCFI10:
 420              		.cfi_def_cfa_offset 4
 421              		.cfi_offset 14, -4
 422 0002 83B0     		sub	sp, sp, #12
 423              	.LCFI11:
 424              		.cfi_def_cfa_offset 16
 425 0004 0190     		str	r0, [sp, #4]
 426              		.loc 1 182 0
 427 0006 4FF02800 		mov	r0, #40
 428 000a FFF7FEFF 		bl	chThdSleep
 429              		.loc 1 183 0
 430 000e 40F20000 		movw	r0, #:lower16:m1
 431 0012 C0F20000 		movt	r0, #:upper16:m1
 432 0016 FFF7FEFF 		bl	chMtxLock
 433              		.loc 1 184 0
 434 001a 4FF00A00 		mov	r0, #10
 435 001e FFF7FEFF 		bl	test_cpu_pulse
 436              		.loc 1 185 0
 437 0022 FFF7FEFF 		bl	chMtxUnlock
 438              		.loc 1 186 0
 439 0026 4FF04100 		mov	r0, #65
 440 002a FFF7FEFF 		bl	test_emit_token
 441              		.loc 1 187 0
 442 002e 4FF00003 		mov	r3, #0
 443              		.loc 1 188 0
 444 0032 1846     		mov	r0, r3
 445 0034 03B0     		add	sp, sp, #12
 446 0036 00BD     		pop	{pc}
 447              		.cfi_endproc
 448              	.LFE13:
ARM GAS  /tmp/ccLoXihA.s 			page 9


 449              		.size	thread2H, .-thread2H
 450 0038 AFF30080 		.section	.rodata
 450      AFF30080 
 451 003d 000000   		.align	2
 452              	.LC7:
 453 0040 41424300 		.ascii	"ABC\000"
 454              		.section	.text.mtx2_execute,"ax",%progbits
 455              		.align	2
 456              		.p2align 4,,15
 457              		.thumb
 458              		.thumb_func
 459              		.type	mtx2_execute, %function
 460              	mtx2_execute:
 461              	.LFB14:
 462              		.loc 1 190 0
 463              		.cfi_startproc
 464              		@ args = 0, pretend = 0, frame = 8
 465              		@ frame_needed = 0, uses_anonymous_args = 0
 466 0000 00B5     		push	{lr}
 467              	.LCFI12:
 468              		.cfi_def_cfa_offset 4
 469              		.cfi_offset 14, -4
 470 0002 85B0     		sub	sp, sp, #20
 471              	.LCFI13:
 472              		.cfi_def_cfa_offset 24
 473              		.loc 1 193 0
 474 0004 FFF7FEFF 		bl	test_wait_tick
 475              		.loc 1 194 0
 476 0008 40F20003 		movw	r3, #:lower16:vtlist
 477 000c C0F20003 		movt	r3, #:upper16:vtlist
 478 0010 DB68     		ldr	r3, [r3, #12]
 479 0012 0393     		str	r3, [sp, #12]
 480              		.loc 1 195 0
 481 0014 40F20003 		movw	r3, #:lower16:wa
 482 0018 C0F20003 		movt	r3, #:upper16:wa
 483 001c 1A68     		ldr	r2, [r3, #0]
 484 001e 40F20003 		movw	r3, #:lower16:rlist
 485 0022 C0F20003 		movt	r3, #:upper16:rlist
 486 0026 9B69     		ldr	r3, [r3, #24]
 487 0028 9B68     		ldr	r3, [r3, #8]
 488 002a 03F1FF33 		add	r3, r3, #-1
 489 002e 4FF00001 		mov	r1, #0
 490 0032 0091     		str	r1, [sp, #0]
 491 0034 1046     		mov	r0, r2
 492 0036 4FF49871 		mov	r1, #304
 493 003a 1A46     		mov	r2, r3
 494 003c 40F20003 		movw	r3, #:lower16:thread2H
 495 0040 C0F20003 		movt	r3, #:upper16:thread2H
 496 0044 FFF7FEFF 		bl	chThdCreateStatic
 497 0048 0246     		mov	r2, r0
 498 004a 40F20003 		movw	r3, #:lower16:threads
 499 004e C0F20003 		movt	r3, #:upper16:threads
 500 0052 1A60     		str	r2, [r3, #0]
 501              		.loc 1 196 0
 502 0054 40F20003 		movw	r3, #:lower16:wa
 503 0058 C0F20003 		movt	r3, #:upper16:wa
 504 005c 5A68     		ldr	r2, [r3, #4]
ARM GAS  /tmp/ccLoXihA.s 			page 10


 505 005e 40F20003 		movw	r3, #:lower16:rlist
 506 0062 C0F20003 		movt	r3, #:upper16:rlist
 507 0066 9B69     		ldr	r3, [r3, #24]
 508 0068 9B68     		ldr	r3, [r3, #8]
 509 006a A3F10203 		sub	r3, r3, #2
 510 006e 4FF00001 		mov	r1, #0
 511 0072 0091     		str	r1, [sp, #0]
 512 0074 1046     		mov	r0, r2
 513 0076 4FF49871 		mov	r1, #304
 514 007a 1A46     		mov	r2, r3
 515 007c 40F20003 		movw	r3, #:lower16:thread2M
 516 0080 C0F20003 		movt	r3, #:upper16:thread2M
 517 0084 FFF7FEFF 		bl	chThdCreateStatic
 518 0088 0246     		mov	r2, r0
 519 008a 40F20003 		movw	r3, #:lower16:threads
 520 008e C0F20003 		movt	r3, #:upper16:threads
 521 0092 5A60     		str	r2, [r3, #4]
 522              		.loc 1 197 0
 523 0094 40F20003 		movw	r3, #:lower16:wa
 524 0098 C0F20003 		movt	r3, #:upper16:wa
 525 009c 9A68     		ldr	r2, [r3, #8]
 526 009e 40F20003 		movw	r3, #:lower16:rlist
 527 00a2 C0F20003 		movt	r3, #:upper16:rlist
 528 00a6 9B69     		ldr	r3, [r3, #24]
 529 00a8 9B68     		ldr	r3, [r3, #8]
 530 00aa A3F10303 		sub	r3, r3, #3
 531 00ae 4FF00001 		mov	r1, #0
 532 00b2 0091     		str	r1, [sp, #0]
 533 00b4 1046     		mov	r0, r2
 534 00b6 4FF49871 		mov	r1, #304
 535 00ba 1A46     		mov	r2, r3
 536 00bc 40F20003 		movw	r3, #:lower16:thread2L
 537 00c0 C0F20003 		movt	r3, #:upper16:thread2L
 538 00c4 FFF7FEFF 		bl	chThdCreateStatic
 539 00c8 0246     		mov	r2, r0
 540 00ca 40F20003 		movw	r3, #:lower16:threads
 541 00ce C0F20003 		movt	r3, #:upper16:threads
 542 00d2 9A60     		str	r2, [r3, #8]
 543              		.loc 1 198 0
 544 00d4 FFF7FEFF 		bl	test_wait_threads
 545              		.loc 1 199 0
 546 00d8 4FF00100 		mov	r0, #1
 547 00dc 40F20001 		movw	r1, #:lower16:.LC7
 548 00e0 C0F20001 		movt	r1, #:upper16:.LC7
 549 00e4 FFF7FEFF 		bl	_test_assert_sequence
 550 00e8 0346     		mov	r3, r0
 551 00ea 002B     		cmp	r3, #0
 552 00ec 0DD1     		bne	.L14
 553              	.L15:
 554              		.loc 1 200 0
 555 00ee 039B     		ldr	r3, [sp, #12]
 556 00f0 03F16402 		add	r2, r3, #100
 557 00f4 039B     		ldr	r3, [sp, #12]
 558 00f6 03F16903 		add	r3, r3, #105
 559 00fa 4FF00200 		mov	r0, #2
 560 00fe 1146     		mov	r1, r2
 561 0100 1A46     		mov	r2, r3
ARM GAS  /tmp/ccLoXihA.s 			page 11


 562 0102 FFF7FEFF 		bl	_test_assert_time_window
 563 0106 0346     		mov	r3, r0
 564 0108 002B     		cmp	r3, #0
 565              	.L14:
 566              		.loc 1 201 0
 567 010a 05B0     		add	sp, sp, #20
 568 010c 00BD     		pop	{pc}
 569              		.cfi_endproc
 570              	.LFE14:
 571              		.size	mtx2_execute, .-mtx2_execute
 572              		.global	testmtx2
 573 010e 00BF     		.section	.rodata
 574              		.align	2
 575              	.LC8:
 576 0044 4D757465 		.ascii	"Mutexes, priority inheritance, simple case\000"
 576      7865732C 
 576      20707269 
 576      6F726974 
 576      7920696E 
 577              		.section	.rodata.testmtx2,"a",%progbits
 578              		.align	2
 579              		.type	testmtx2, %object
 580              		.size	testmtx2, 16
 581              	testmtx2:
 582 0000 44000000 		.word	.LC8
 583 0004 00000000 		.word	mtx2_setup
 584 0008 00000000 		.word	0
 585 000c 00000000 		.word	mtx2_execute
 586              		.section	.text.mtx3_setup,"ax",%progbits
 587              		.align	2
 588              		.p2align 4,,15
 589              		.thumb
 590              		.thumb_func
 591              		.type	mtx3_setup, %function
 592              	mtx3_setup:
 593              	.LFB15:
 594              		.loc 1 241 0
 595              		.cfi_startproc
 596              		@ args = 0, pretend = 0, frame = 0
 597              		@ frame_needed = 0, uses_anonymous_args = 0
 598 0000 08B5     		push	{r3, lr}
 599              	.LCFI14:
 600              		.cfi_def_cfa_offset 8
 601              		.cfi_offset 3, -8
 602              		.cfi_offset 14, -4
 603              		.loc 1 243 0
 604 0002 40F20000 		movw	r0, #:lower16:m1
 605 0006 C0F20000 		movt	r0, #:upper16:m1
 606 000a FFF7FEFF 		bl	chMtxInit
 607              		.loc 1 244 0
 608 000e 40F20000 		movw	r0, #:lower16:m2
 609 0012 C0F20000 		movt	r0, #:upper16:m2
 610 0016 FFF7FEFF 		bl	chMtxInit
 611              		.loc 1 245 0
 612 001a 08BD     		pop	{r3, pc}
 613              		.cfi_endproc
 614              	.LFE15:
ARM GAS  /tmp/ccLoXihA.s 			page 12


 615              		.size	mtx3_setup, .-mtx3_setup
 616 001c AFF30080 		.section	.text.thread3LL,"ax",%progbits
 617              		.align	2
 618              		.p2align 4,,15
 619              		.thumb
 620              		.thumb_func
 621              		.type	thread3LL, %function
 622              	thread3LL:
 623              	.LFB16:
 624              		.loc 1 248 0
 625              		.cfi_startproc
 626              		@ args = 0, pretend = 0, frame = 8
 627              		@ frame_needed = 0, uses_anonymous_args = 0
 628 0000 00B5     		push	{lr}
 629              	.LCFI15:
 630              		.cfi_def_cfa_offset 4
 631              		.cfi_offset 14, -4
 632 0002 83B0     		sub	sp, sp, #12
 633              	.LCFI16:
 634              		.cfi_def_cfa_offset 16
 635 0004 0190     		str	r0, [sp, #4]
 636              		.loc 1 251 0
 637 0006 40F20000 		movw	r0, #:lower16:m1
 638 000a C0F20000 		movt	r0, #:upper16:m1
 639 000e FFF7FEFF 		bl	chMtxLock
 640              		.loc 1 252 0
 641 0012 4FF01E00 		mov	r0, #30
 642 0016 FFF7FEFF 		bl	test_cpu_pulse
 643              		.loc 1 253 0
 644 001a FFF7FEFF 		bl	chMtxUnlock
 645              		.loc 1 254 0
 646 001e 4FF04500 		mov	r0, #69
 647 0022 FFF7FEFF 		bl	test_emit_token
 648              		.loc 1 255 0
 649 0026 4FF00003 		mov	r3, #0
 650              		.loc 1 256 0
 651 002a 1846     		mov	r0, r3
 652 002c 03B0     		add	sp, sp, #12
 653 002e 00BD     		pop	{pc}
 654              		.cfi_endproc
 655              	.LFE16:
 656              		.size	thread3LL, .-thread3LL
 657              		.section	.text.thread3L,"ax",%progbits
 658              		.align	2
 659              		.p2align 4,,15
 660              		.thumb
 661              		.thumb_func
 662              		.type	thread3L, %function
 663              	thread3L:
 664              	.LFB17:
 665              		.loc 1 259 0
 666              		.cfi_startproc
 667              		@ args = 0, pretend = 0, frame = 8
 668              		@ frame_needed = 0, uses_anonymous_args = 0
 669 0000 00B5     		push	{lr}
 670              	.LCFI17:
 671              		.cfi_def_cfa_offset 4
ARM GAS  /tmp/ccLoXihA.s 			page 13


 672              		.cfi_offset 14, -4
 673 0002 83B0     		sub	sp, sp, #12
 674              	.LCFI18:
 675              		.cfi_def_cfa_offset 16
 676 0004 0190     		str	r0, [sp, #4]
 677              		.loc 1 262 0
 678 0006 4FF00A00 		mov	r0, #10
 679 000a FFF7FEFF 		bl	chThdSleep
 680              		.loc 1 263 0
 681 000e 40F20000 		movw	r0, #:lower16:m2
 682 0012 C0F20000 		movt	r0, #:upper16:m2
 683 0016 FFF7FEFF 		bl	chMtxLock
 684              		.loc 1 264 0
 685 001a 4FF01400 		mov	r0, #20
 686 001e FFF7FEFF 		bl	test_cpu_pulse
 687              		.loc 1 265 0
 688 0022 40F20000 		movw	r0, #:lower16:m1
 689 0026 C0F20000 		movt	r0, #:upper16:m1
 690 002a FFF7FEFF 		bl	chMtxLock
 691              		.loc 1 266 0
 692 002e 4FF00A00 		mov	r0, #10
 693 0032 FFF7FEFF 		bl	test_cpu_pulse
 694              		.loc 1 267 0
 695 0036 FFF7FEFF 		bl	chMtxUnlock
 696              		.loc 1 268 0
 697 003a 4FF00A00 		mov	r0, #10
 698 003e FFF7FEFF 		bl	test_cpu_pulse
 699              		.loc 1 269 0
 700 0042 FFF7FEFF 		bl	chMtxUnlock
 701              		.loc 1 270 0
 702 0046 4FF04400 		mov	r0, #68
 703 004a FFF7FEFF 		bl	test_emit_token
 704              		.loc 1 271 0
 705 004e 4FF00003 		mov	r3, #0
 706              		.loc 1 272 0
 707 0052 1846     		mov	r0, r3
 708 0054 03B0     		add	sp, sp, #12
 709 0056 00BD     		pop	{pc}
 710              		.cfi_endproc
 711              	.LFE17:
 712              		.size	thread3L, .-thread3L
 713 0058 AFF30080 		.section	.text.thread3M,"ax",%progbits
 713      AFF30080 
 714              		.align	2
 715              		.p2align 4,,15
 716              		.thumb
 717              		.thumb_func
 718              		.type	thread3M, %function
 719              	thread3M:
 720              	.LFB18:
 721              		.loc 1 275 0
 722              		.cfi_startproc
 723              		@ args = 0, pretend = 0, frame = 8
 724              		@ frame_needed = 0, uses_anonymous_args = 0
 725 0000 00B5     		push	{lr}
 726              	.LCFI19:
 727              		.cfi_def_cfa_offset 4
ARM GAS  /tmp/ccLoXihA.s 			page 14


 728              		.cfi_offset 14, -4
 729 0002 83B0     		sub	sp, sp, #12
 730              	.LCFI20:
 731              		.cfi_def_cfa_offset 16
 732 0004 0190     		str	r0, [sp, #4]
 733              		.loc 1 278 0
 734 0006 4FF01400 		mov	r0, #20
 735 000a FFF7FEFF 		bl	chThdSleep
 736              		.loc 1 279 0
 737 000e 40F20000 		movw	r0, #:lower16:m2
 738 0012 C0F20000 		movt	r0, #:upper16:m2
 739 0016 FFF7FEFF 		bl	chMtxLock
 740              		.loc 1 280 0
 741 001a 4FF00A00 		mov	r0, #10
 742 001e FFF7FEFF 		bl	test_cpu_pulse
 743              		.loc 1 281 0
 744 0022 FFF7FEFF 		bl	chMtxUnlock
 745              		.loc 1 282 0
 746 0026 4FF04300 		mov	r0, #67
 747 002a FFF7FEFF 		bl	test_emit_token
 748              		.loc 1 283 0
 749 002e 4FF00003 		mov	r3, #0
 750              		.loc 1 284 0
 751 0032 1846     		mov	r0, r3
 752 0034 03B0     		add	sp, sp, #12
 753 0036 00BD     		pop	{pc}
 754              		.cfi_endproc
 755              	.LFE18:
 756              		.size	thread3M, .-thread3M
 757 0038 AFF30080 		.section	.text.thread3H,"ax",%progbits
 757      AFF30080 
 758              		.align	2
 759              		.p2align 4,,15
 760              		.thumb
 761              		.thumb_func
 762              		.type	thread3H, %function
 763              	thread3H:
 764              	.LFB19:
 765              		.loc 1 287 0
 766              		.cfi_startproc
 767              		@ args = 0, pretend = 0, frame = 8
 768              		@ frame_needed = 0, uses_anonymous_args = 0
 769 0000 00B5     		push	{lr}
 770              	.LCFI21:
 771              		.cfi_def_cfa_offset 4
 772              		.cfi_offset 14, -4
 773 0002 83B0     		sub	sp, sp, #12
 774              	.LCFI22:
 775              		.cfi_def_cfa_offset 16
 776 0004 0190     		str	r0, [sp, #4]
 777              		.loc 1 290 0
 778 0006 4FF02800 		mov	r0, #40
 779 000a FFF7FEFF 		bl	chThdSleep
 780              		.loc 1 291 0
 781 000e 4FF01400 		mov	r0, #20
 782 0012 FFF7FEFF 		bl	test_cpu_pulse
 783              		.loc 1 292 0
ARM GAS  /tmp/ccLoXihA.s 			page 15


 784 0016 4FF04200 		mov	r0, #66
 785 001a FFF7FEFF 		bl	test_emit_token
 786              		.loc 1 293 0
 787 001e 4FF00003 		mov	r3, #0
 788              		.loc 1 294 0
 789 0022 1846     		mov	r0, r3
 790 0024 03B0     		add	sp, sp, #12
 791 0026 00BD     		pop	{pc}
 792              		.cfi_endproc
 793              	.LFE19:
 794              		.size	thread3H, .-thread3H
 795 0028 AFF30080 		.section	.text.thread3HH,"ax",%progbits
 795      AFF30080 
 796              		.align	2
 797              		.p2align 4,,15
 798              		.thumb
 799              		.thumb_func
 800              		.type	thread3HH, %function
 801              	thread3HH:
 802              	.LFB20:
 803              		.loc 1 297 0
 804              		.cfi_startproc
 805              		@ args = 0, pretend = 0, frame = 8
 806              		@ frame_needed = 0, uses_anonymous_args = 0
 807 0000 00B5     		push	{lr}
 808              	.LCFI23:
 809              		.cfi_def_cfa_offset 4
 810              		.cfi_offset 14, -4
 811 0002 83B0     		sub	sp, sp, #12
 812              	.LCFI24:
 813              		.cfi_def_cfa_offset 16
 814 0004 0190     		str	r0, [sp, #4]
 815              		.loc 1 300 0
 816 0006 4FF03200 		mov	r0, #50
 817 000a FFF7FEFF 		bl	chThdSleep
 818              		.loc 1 301 0
 819 000e 40F20000 		movw	r0, #:lower16:m2
 820 0012 C0F20000 		movt	r0, #:upper16:m2
 821 0016 FFF7FEFF 		bl	chMtxLock
 822              		.loc 1 302 0
 823 001a 4FF00A00 		mov	r0, #10
 824 001e FFF7FEFF 		bl	test_cpu_pulse
 825              		.loc 1 303 0
 826 0022 FFF7FEFF 		bl	chMtxUnlock
 827              		.loc 1 304 0
 828 0026 4FF04100 		mov	r0, #65
 829 002a FFF7FEFF 		bl	test_emit_token
 830              		.loc 1 305 0
 831 002e 4FF00003 		mov	r3, #0
 832              		.loc 1 306 0
 833 0032 1846     		mov	r0, r3
 834 0034 03B0     		add	sp, sp, #12
 835 0036 00BD     		pop	{pc}
 836              		.cfi_endproc
 837              	.LFE20:
 838              		.size	thread3HH, .-thread3HH
 839 0038 AFF30080 		.section	.text.mtx3_execute,"ax",%progbits
ARM GAS  /tmp/ccLoXihA.s 			page 16


 839      AFF30080 
 840              		.align	2
 841              		.p2align 4,,15
 842              		.thumb
 843              		.thumb_func
 844              		.type	mtx3_execute, %function
 845              	mtx3_execute:
 846              	.LFB21:
 847              		.loc 1 308 0
 848              		.cfi_startproc
 849              		@ args = 0, pretend = 0, frame = 8
 850              		@ frame_needed = 0, uses_anonymous_args = 0
 851 0000 00B5     		push	{lr}
 852              	.LCFI25:
 853              		.cfi_def_cfa_offset 4
 854              		.cfi_offset 14, -4
 855 0002 85B0     		sub	sp, sp, #20
 856              	.LCFI26:
 857              		.cfi_def_cfa_offset 24
 858              		.loc 1 311 0
 859 0004 FFF7FEFF 		bl	test_wait_tick
 860              		.loc 1 312 0
 861 0008 40F20003 		movw	r3, #:lower16:vtlist
 862 000c C0F20003 		movt	r3, #:upper16:vtlist
 863 0010 DB68     		ldr	r3, [r3, #12]
 864 0012 0393     		str	r3, [sp, #12]
 865              		.loc 1 313 0
 866 0014 40F20003 		movw	r3, #:lower16:wa
 867 0018 C0F20003 		movt	r3, #:upper16:wa
 868 001c 1A68     		ldr	r2, [r3, #0]
 869 001e 40F20003 		movw	r3, #:lower16:rlist
 870 0022 C0F20003 		movt	r3, #:upper16:rlist
 871 0026 9B69     		ldr	r3, [r3, #24]
 872 0028 9B68     		ldr	r3, [r3, #8]
 873 002a A3F10503 		sub	r3, r3, #5
 874 002e 4FF00001 		mov	r1, #0
 875 0032 0091     		str	r1, [sp, #0]
 876 0034 1046     		mov	r0, r2
 877 0036 4FF49871 		mov	r1, #304
 878 003a 1A46     		mov	r2, r3
 879 003c 40F20003 		movw	r3, #:lower16:thread3LL
 880 0040 C0F20003 		movt	r3, #:upper16:thread3LL
 881 0044 FFF7FEFF 		bl	chThdCreateStatic
 882 0048 0246     		mov	r2, r0
 883 004a 40F20003 		movw	r3, #:lower16:threads
 884 004e C0F20003 		movt	r3, #:upper16:threads
 885 0052 1A60     		str	r2, [r3, #0]
 886              		.loc 1 314 0
 887 0054 40F20003 		movw	r3, #:lower16:wa
 888 0058 C0F20003 		movt	r3, #:upper16:wa
 889 005c 5A68     		ldr	r2, [r3, #4]
 890 005e 40F20003 		movw	r3, #:lower16:rlist
 891 0062 C0F20003 		movt	r3, #:upper16:rlist
 892 0066 9B69     		ldr	r3, [r3, #24]
 893 0068 9B68     		ldr	r3, [r3, #8]
 894 006a A3F10403 		sub	r3, r3, #4
 895 006e 4FF00001 		mov	r1, #0
ARM GAS  /tmp/ccLoXihA.s 			page 17


 896 0072 0091     		str	r1, [sp, #0]
 897 0074 1046     		mov	r0, r2
 898 0076 4FF49871 		mov	r1, #304
 899 007a 1A46     		mov	r2, r3
 900 007c 40F20003 		movw	r3, #:lower16:thread3L
 901 0080 C0F20003 		movt	r3, #:upper16:thread3L
 902 0084 FFF7FEFF 		bl	chThdCreateStatic
 903 0088 0246     		mov	r2, r0
 904 008a 40F20003 		movw	r3, #:lower16:threads
 905 008e C0F20003 		movt	r3, #:upper16:threads
 906 0092 5A60     		str	r2, [r3, #4]
 907              		.loc 1 315 0
 908 0094 40F20003 		movw	r3, #:lower16:wa
 909 0098 C0F20003 		movt	r3, #:upper16:wa
 910 009c 9A68     		ldr	r2, [r3, #8]
 911 009e 40F20003 		movw	r3, #:lower16:rlist
 912 00a2 C0F20003 		movt	r3, #:upper16:rlist
 913 00a6 9B69     		ldr	r3, [r3, #24]
 914 00a8 9B68     		ldr	r3, [r3, #8]
 915 00aa A3F10303 		sub	r3, r3, #3
 916 00ae 4FF00001 		mov	r1, #0
 917 00b2 0091     		str	r1, [sp, #0]
 918 00b4 1046     		mov	r0, r2
 919 00b6 4FF49871 		mov	r1, #304
 920 00ba 1A46     		mov	r2, r3
 921 00bc 40F20003 		movw	r3, #:lower16:thread3M
 922 00c0 C0F20003 		movt	r3, #:upper16:thread3M
 923 00c4 FFF7FEFF 		bl	chThdCreateStatic
 924 00c8 0246     		mov	r2, r0
 925 00ca 40F20003 		movw	r3, #:lower16:threads
 926 00ce C0F20003 		movt	r3, #:upper16:threads
 927 00d2 9A60     		str	r2, [r3, #8]
 928              		.loc 1 316 0
 929 00d4 40F20003 		movw	r3, #:lower16:wa
 930 00d8 C0F20003 		movt	r3, #:upper16:wa
 931 00dc DA68     		ldr	r2, [r3, #12]
 932 00de 40F20003 		movw	r3, #:lower16:rlist
 933 00e2 C0F20003 		movt	r3, #:upper16:rlist
 934 00e6 9B69     		ldr	r3, [r3, #24]
 935 00e8 9B68     		ldr	r3, [r3, #8]
 936 00ea A3F10203 		sub	r3, r3, #2
 937 00ee 4FF00001 		mov	r1, #0
 938 00f2 0091     		str	r1, [sp, #0]
 939 00f4 1046     		mov	r0, r2
 940 00f6 4FF49871 		mov	r1, #304
 941 00fa 1A46     		mov	r2, r3
 942 00fc 40F20003 		movw	r3, #:lower16:thread3H
 943 0100 C0F20003 		movt	r3, #:upper16:thread3H
 944 0104 FFF7FEFF 		bl	chThdCreateStatic
 945 0108 0246     		mov	r2, r0
 946 010a 40F20003 		movw	r3, #:lower16:threads
 947 010e C0F20003 		movt	r3, #:upper16:threads
 948 0112 DA60     		str	r2, [r3, #12]
 949              		.loc 1 317 0
 950 0114 40F20003 		movw	r3, #:lower16:wa
 951 0118 C0F20003 		movt	r3, #:upper16:wa
 952 011c 1A69     		ldr	r2, [r3, #16]
ARM GAS  /tmp/ccLoXihA.s 			page 18


 953 011e 40F20003 		movw	r3, #:lower16:rlist
 954 0122 C0F20003 		movt	r3, #:upper16:rlist
 955 0126 9B69     		ldr	r3, [r3, #24]
 956 0128 9B68     		ldr	r3, [r3, #8]
 957 012a 03F1FF33 		add	r3, r3, #-1
 958 012e 4FF00001 		mov	r1, #0
 959 0132 0091     		str	r1, [sp, #0]
 960 0134 1046     		mov	r0, r2
 961 0136 4FF49871 		mov	r1, #304
 962 013a 1A46     		mov	r2, r3
 963 013c 40F20003 		movw	r3, #:lower16:thread3HH
 964 0140 C0F20003 		movt	r3, #:upper16:thread3HH
 965 0144 FFF7FEFF 		bl	chThdCreateStatic
 966 0148 0246     		mov	r2, r0
 967 014a 40F20003 		movw	r3, #:lower16:threads
 968 014e C0F20003 		movt	r3, #:upper16:threads
 969 0152 1A61     		str	r2, [r3, #16]
 970              		.loc 1 318 0
 971 0154 FFF7FEFF 		bl	test_wait_threads
 972              		.loc 1 319 0
 973 0158 4FF00100 		mov	r0, #1
 974 015c 40F20001 		movw	r1, #:lower16:.LC5
 975 0160 C0F20001 		movt	r1, #:upper16:.LC5
 976 0164 FFF7FEFF 		bl	_test_assert_sequence
 977 0168 0346     		mov	r3, r0
 978 016a 002B     		cmp	r3, #0
 979 016c 0DD1     		bne	.L28
 980              	.L29:
 981              		.loc 1 320 0
 982 016e 039B     		ldr	r3, [sp, #12]
 983 0170 03F16E02 		add	r2, r3, #110
 984 0174 039B     		ldr	r3, [sp, #12]
 985 0176 03F17303 		add	r3, r3, #115
 986 017a 4FF00200 		mov	r0, #2
 987 017e 1146     		mov	r1, r2
 988 0180 1A46     		mov	r2, r3
 989 0182 FFF7FEFF 		bl	_test_assert_time_window
 990 0186 0346     		mov	r3, r0
 991 0188 002B     		cmp	r3, #0
 992              	.L28:
 993              		.loc 1 321 0
 994 018a 05B0     		add	sp, sp, #20
 995 018c 00BD     		pop	{pc}
 996              		.cfi_endproc
 997              	.LFE21:
 998              		.size	mtx3_execute, .-mtx3_execute
 999              		.global	testmtx3
 1000 018e 00BF     		.section	.rodata
 1001 006f 00       		.align	2
 1002              	.LC9:
 1003 0070 4D757465 		.ascii	"Mutexes, priority inheritance, complex case\000"
 1003      7865732C 
 1003      20707269 
 1003      6F726974 
 1003      7920696E 
 1004              		.section	.rodata.testmtx3,"a",%progbits
 1005              		.align	2
ARM GAS  /tmp/ccLoXihA.s 			page 19


 1006              		.type	testmtx3, %object
 1007              		.size	testmtx3, 16
 1008              	testmtx3:
 1009 0000 70000000 		.word	.LC9
 1010 0004 00000000 		.word	mtx3_setup
 1011 0008 00000000 		.word	0
 1012 000c 00000000 		.word	mtx3_execute
 1013              		.section	.text.mtx4_setup,"ax",%progbits
 1014              		.align	2
 1015              		.p2align 4,,15
 1016              		.thumb
 1017              		.thumb_func
 1018              		.type	mtx4_setup, %function
 1019              	mtx4_setup:
 1020              	.LFB22:
 1021              		.loc 1 341 0
 1022              		.cfi_startproc
 1023              		@ args = 0, pretend = 0, frame = 0
 1024              		@ frame_needed = 0, uses_anonymous_args = 0
 1025 0000 08B5     		push	{r3, lr}
 1026              	.LCFI27:
 1027              		.cfi_def_cfa_offset 8
 1028              		.cfi_offset 3, -8
 1029              		.cfi_offset 14, -4
 1030              		.loc 1 343 0
 1031 0002 40F20000 		movw	r0, #:lower16:m1
 1032 0006 C0F20000 		movt	r0, #:upper16:m1
 1033 000a FFF7FEFF 		bl	chMtxInit
 1034              		.loc 1 344 0
 1035 000e 40F20000 		movw	r0, #:lower16:m2
 1036 0012 C0F20000 		movt	r0, #:upper16:m2
 1037 0016 FFF7FEFF 		bl	chMtxInit
 1038              		.loc 1 345 0
 1039 001a 08BD     		pop	{r3, pc}
 1040              		.cfi_endproc
 1041              	.LFE22:
 1042              		.size	mtx4_setup, .-mtx4_setup
 1043 001c AFF30080 		.section	.text.thread4a,"ax",%progbits
 1044              		.align	2
 1045              		.p2align 4,,15
 1046              		.thumb
 1047              		.thumb_func
 1048              		.type	thread4a, %function
 1049              	thread4a:
 1050              	.LFB23:
 1051              		.loc 1 347 0
 1052              		.cfi_startproc
 1053              		@ args = 0, pretend = 0, frame = 8
 1054              		@ frame_needed = 0, uses_anonymous_args = 0
 1055 0000 00B5     		push	{lr}
 1056              	.LCFI28:
 1057              		.cfi_def_cfa_offset 4
 1058              		.cfi_offset 14, -4
 1059 0002 83B0     		sub	sp, sp, #12
 1060              	.LCFI29:
 1061              		.cfi_def_cfa_offset 16
 1062 0004 0190     		str	r0, [sp, #4]
ARM GAS  /tmp/ccLoXihA.s 			page 20


 1063              		.loc 1 350 0
 1064 0006 4FF03200 		mov	r0, #50
 1065 000a FFF7FEFF 		bl	chThdSleep
 1066              		.loc 1 351 0
 1067 000e 40F20000 		movw	r0, #:lower16:m2
 1068 0012 C0F20000 		movt	r0, #:upper16:m2
 1069 0016 FFF7FEFF 		bl	chMtxLock
 1070              		.loc 1 352 0
 1071 001a FFF7FEFF 		bl	chMtxUnlock
 1072              		.loc 1 353 0
 1073 001e 4FF00003 		mov	r3, #0
 1074              		.loc 1 354 0
 1075 0022 1846     		mov	r0, r3
 1076 0024 03B0     		add	sp, sp, #12
 1077 0026 00BD     		pop	{pc}
 1078              		.cfi_endproc
 1079              	.LFE23:
 1080              		.size	thread4a, .-thread4a
 1081 0028 AFF30080 		.section	.text.thread4b,"ax",%progbits
 1081      AFF30080 
 1082              		.align	2
 1083              		.p2align 4,,15
 1084              		.thumb
 1085              		.thumb_func
 1086              		.type	thread4b, %function
 1087              	thread4b:
 1088              	.LFB24:
 1089              		.loc 1 356 0
 1090              		.cfi_startproc
 1091              		@ args = 0, pretend = 0, frame = 8
 1092              		@ frame_needed = 0, uses_anonymous_args = 0
 1093 0000 00B5     		push	{lr}
 1094              	.LCFI30:
 1095              		.cfi_def_cfa_offset 4
 1096              		.cfi_offset 14, -4
 1097 0002 83B0     		sub	sp, sp, #12
 1098              	.LCFI31:
 1099              		.cfi_def_cfa_offset 16
 1100 0004 0190     		str	r0, [sp, #4]
 1101              		.loc 1 359 0
 1102 0006 4FF09600 		mov	r0, #150
 1103 000a FFF7FEFF 		bl	chThdSleep
 1104              		.loc 1 360 0
 1105 000e 40F20000 		movw	r0, #:lower16:m1
 1106 0012 C0F20000 		movt	r0, #:upper16:m1
 1107 0016 FFF7FEFF 		bl	chMtxLock
 1108              		.loc 1 361 0
 1109 001a FFF7FEFF 		bl	chMtxUnlock
 1110              		.loc 1 362 0
 1111 001e 4FF00003 		mov	r3, #0
 1112              		.loc 1 363 0
 1113 0022 1846     		mov	r0, r3
 1114 0024 03B0     		add	sp, sp, #12
 1115 0026 00BD     		pop	{pc}
 1116              		.cfi_endproc
 1117              	.LFE24:
 1118              		.size	thread4b, .-thread4b
ARM GAS  /tmp/ccLoXihA.s 			page 21


 1119 0028 AFF30080 		.section	.text.mtx4_execute,"ax",%progbits
 1119      AFF30080 
 1120              		.align	2
 1121              		.p2align 4,,15
 1122              		.thumb
 1123              		.thumb_func
 1124              		.type	mtx4_execute, %function
 1125              	mtx4_execute:
 1126              	.LFB25:
 1127              		.loc 1 365 0
 1128              		.cfi_startproc
 1129              		@ args = 0, pretend = 0, frame = 16
 1130              		@ frame_needed = 0, uses_anonymous_args = 0
 1131 0000 00B5     		push	{lr}
 1132              	.LCFI32:
 1133              		.cfi_def_cfa_offset 4
 1134              		.cfi_offset 14, -4
 1135 0002 87B0     		sub	sp, sp, #28
 1136              	.LCFI33:
 1137              		.cfi_def_cfa_offset 32
 1138              		.loc 1 368 0
 1139 0004 40F20003 		movw	r3, #:lower16:rlist
 1140 0008 C0F20003 		movt	r3, #:upper16:rlist
 1141 000c 9B69     		ldr	r3, [r3, #24]
 1142 000e 9B68     		ldr	r3, [r3, #8]
 1143 0010 0593     		str	r3, [sp, #20]
 1144              		.loc 1 369 0
 1145 0012 059B     		ldr	r3, [sp, #20]
 1146 0014 03F10103 		add	r3, r3, #1
 1147 0018 0493     		str	r3, [sp, #16]
 1148              		.loc 1 370 0
 1149 001a 059B     		ldr	r3, [sp, #20]
 1150 001c 03F10203 		add	r3, r3, #2
 1151 0020 0393     		str	r3, [sp, #12]
 1152              		.loc 1 371 0
 1153 0022 40F20003 		movw	r3, #:lower16:wa
 1154 0026 C0F20003 		movt	r3, #:upper16:wa
 1155 002a 1A68     		ldr	r2, [r3, #0]
 1156 002c 40F20003 		movw	r3, #:lower16:.LC3
 1157 0030 C0F20003 		movt	r3, #:upper16:.LC3
 1158 0034 0093     		str	r3, [sp, #0]
 1159 0036 1046     		mov	r0, r2
 1160 0038 4FF49871 		mov	r1, #304
 1161 003c 049A     		ldr	r2, [sp, #16]
 1162 003e 40F20003 		movw	r3, #:lower16:thread4a
 1163 0042 C0F20003 		movt	r3, #:upper16:thread4a
 1164 0046 FFF7FEFF 		bl	chThdCreateStatic
 1165 004a 0246     		mov	r2, r0
 1166 004c 40F20003 		movw	r3, #:lower16:threads
 1167 0050 C0F20003 		movt	r3, #:upper16:threads
 1168 0054 1A60     		str	r2, [r3, #0]
 1169              		.loc 1 372 0
 1170 0056 40F20003 		movw	r3, #:lower16:wa
 1171 005a C0F20003 		movt	r3, #:upper16:wa
 1172 005e 5A68     		ldr	r2, [r3, #4]
 1173 0060 40F20003 		movw	r3, #:lower16:.LC4
 1174 0064 C0F20003 		movt	r3, #:upper16:.LC4
ARM GAS  /tmp/ccLoXihA.s 			page 22


 1175 0068 0093     		str	r3, [sp, #0]
 1176 006a 1046     		mov	r0, r2
 1177 006c 4FF49871 		mov	r1, #304
 1178 0070 039A     		ldr	r2, [sp, #12]
 1179 0072 40F20003 		movw	r3, #:lower16:thread4b
 1180 0076 C0F20003 		movt	r3, #:upper16:thread4b
 1181 007a FFF7FEFF 		bl	chThdCreateStatic
 1182 007e 0246     		mov	r2, r0
 1183 0080 40F20003 		movw	r3, #:lower16:threads
 1184 0084 C0F20003 		movt	r3, #:upper16:threads
 1185 0088 5A60     		str	r2, [r3, #4]
 1186              		.loc 1 373 0
 1187 008a 40F20000 		movw	r0, #:lower16:m2
 1188 008e C0F20000 		movt	r0, #:upper16:m2
 1189 0092 FFF7FEFF 		bl	chMtxLock
 1190              		.loc 1 374 0
 1191 0096 40F20003 		movw	r3, #:lower16:rlist
 1192 009a C0F20003 		movt	r3, #:upper16:rlist
 1193 009e 9B69     		ldr	r3, [r3, #24]
 1194 00a0 9A68     		ldr	r2, [r3, #8]
 1195 00a2 059B     		ldr	r3, [sp, #20]
 1196 00a4 9A42     		cmp	r2, r3
 1197 00a6 14BF     		ite	ne
 1198 00a8 0023     		movne	r3, #0
 1199 00aa 0123     		moveq	r3, #1
 1200 00ac DBB2     		uxtb	r3, r3
 1201 00ae 4FF00100 		mov	r0, #1
 1202 00b2 1946     		mov	r1, r3
 1203 00b4 FFF7FEFF 		bl	_test_assert
 1204 00b8 0346     		mov	r3, r0
 1205 00ba 002B     		cmp	r3, #0
 1206 00bc 40F08281 		bne	.L36
 1207              	.L37:
 1208              		.loc 1 375 0
 1209 00c0 4FF06400 		mov	r0, #100
 1210 00c4 FFF7FEFF 		bl	chThdSleep
 1211              		.loc 1 376 0
 1212 00c8 40F20003 		movw	r3, #:lower16:rlist
 1213 00cc C0F20003 		movt	r3, #:upper16:rlist
 1214 00d0 9B69     		ldr	r3, [r3, #24]
 1215 00d2 9A68     		ldr	r2, [r3, #8]
 1216 00d4 049B     		ldr	r3, [sp, #16]
 1217 00d6 9A42     		cmp	r2, r3
 1218 00d8 14BF     		ite	ne
 1219 00da 0023     		movne	r3, #0
 1220 00dc 0123     		moveq	r3, #1
 1221 00de DBB2     		uxtb	r3, r3
 1222 00e0 4FF00200 		mov	r0, #2
 1223 00e4 1946     		mov	r1, r3
 1224 00e6 FFF7FEFF 		bl	_test_assert
 1225 00ea 0346     		mov	r3, r0
 1226 00ec 002B     		cmp	r3, #0
 1227 00ee 40F06981 		bne	.L36
 1228              	.L39:
 1229              		.loc 1 377 0
 1230 00f2 40F20000 		movw	r0, #:lower16:m1
 1231 00f6 C0F20000 		movt	r0, #:upper16:m1
ARM GAS  /tmp/ccLoXihA.s 			page 23


 1232 00fa FFF7FEFF 		bl	chMtxLock
 1233              		.loc 1 378 0
 1234 00fe 40F20003 		movw	r3, #:lower16:rlist
 1235 0102 C0F20003 		movt	r3, #:upper16:rlist
 1236 0106 9B69     		ldr	r3, [r3, #24]
 1237 0108 9A68     		ldr	r2, [r3, #8]
 1238 010a 049B     		ldr	r3, [sp, #16]
 1239 010c 9A42     		cmp	r2, r3
 1240 010e 14BF     		ite	ne
 1241 0110 0023     		movne	r3, #0
 1242 0112 0123     		moveq	r3, #1
 1243 0114 DBB2     		uxtb	r3, r3
 1244 0116 4FF00300 		mov	r0, #3
 1245 011a 1946     		mov	r1, r3
 1246 011c FFF7FEFF 		bl	_test_assert
 1247 0120 0346     		mov	r3, r0
 1248 0122 002B     		cmp	r3, #0
 1249 0124 40F04E81 		bne	.L36
 1250              	.L40:
 1251              		.loc 1 379 0
 1252 0128 4FF06400 		mov	r0, #100
 1253 012c FFF7FEFF 		bl	chThdSleep
 1254              		.loc 1 380 0
 1255 0130 40F20003 		movw	r3, #:lower16:rlist
 1256 0134 C0F20003 		movt	r3, #:upper16:rlist
 1257 0138 9B69     		ldr	r3, [r3, #24]
 1258 013a 9A68     		ldr	r2, [r3, #8]
 1259 013c 039B     		ldr	r3, [sp, #12]
 1260 013e 9A42     		cmp	r2, r3
 1261 0140 14BF     		ite	ne
 1262 0142 0023     		movne	r3, #0
 1263 0144 0123     		moveq	r3, #1
 1264 0146 DBB2     		uxtb	r3, r3
 1265 0148 4FF00400 		mov	r0, #4
 1266 014c 1946     		mov	r1, r3
 1267 014e FFF7FEFF 		bl	_test_assert
 1268 0152 0346     		mov	r3, r0
 1269 0154 002B     		cmp	r3, #0
 1270 0156 40F03581 		bne	.L36
 1271              	.L41:
 1272              		.loc 1 381 0
 1273 015a FFF7FEFF 		bl	chMtxUnlock
 1274              		.loc 1 382 0
 1275 015e 40F20003 		movw	r3, #:lower16:rlist
 1276 0162 C0F20003 		movt	r3, #:upper16:rlist
 1277 0166 9B69     		ldr	r3, [r3, #24]
 1278 0168 9A68     		ldr	r2, [r3, #8]
 1279 016a 049B     		ldr	r3, [sp, #16]
 1280 016c 9A42     		cmp	r2, r3
 1281 016e 14BF     		ite	ne
 1282 0170 0023     		movne	r3, #0
 1283 0172 0123     		moveq	r3, #1
 1284 0174 DBB2     		uxtb	r3, r3
 1285 0176 4FF00500 		mov	r0, #5
 1286 017a 1946     		mov	r1, r3
 1287 017c FFF7FEFF 		bl	_test_assert
 1288 0180 0346     		mov	r3, r0
ARM GAS  /tmp/ccLoXihA.s 			page 24


 1289 0182 002B     		cmp	r3, #0
 1290 0184 40F01E81 		bne	.L36
 1291              	.L42:
 1292              		.loc 1 383 0
 1293 0188 4FF06400 		mov	r0, #100
 1294 018c FFF7FEFF 		bl	chThdSleep
 1295              		.loc 1 384 0
 1296 0190 40F20003 		movw	r3, #:lower16:rlist
 1297 0194 C0F20003 		movt	r3, #:upper16:rlist
 1298 0198 9B69     		ldr	r3, [r3, #24]
 1299 019a 9A68     		ldr	r2, [r3, #8]
 1300 019c 049B     		ldr	r3, [sp, #16]
 1301 019e 9A42     		cmp	r2, r3
 1302 01a0 14BF     		ite	ne
 1303 01a2 0023     		movne	r3, #0
 1304 01a4 0123     		moveq	r3, #1
 1305 01a6 DBB2     		uxtb	r3, r3
 1306 01a8 4FF00600 		mov	r0, #6
 1307 01ac 1946     		mov	r1, r3
 1308 01ae FFF7FEFF 		bl	_test_assert
 1309 01b2 0346     		mov	r3, r0
 1310 01b4 002B     		cmp	r3, #0
 1311 01b6 40F00581 		bne	.L36
 1312              	.L43:
 1313              		.loc 1 385 0
 1314 01ba FFF7FEFF 		bl	chMtxUnlockAll
 1315              		.loc 1 386 0
 1316 01be 40F20003 		movw	r3, #:lower16:rlist
 1317 01c2 C0F20003 		movt	r3, #:upper16:rlist
 1318 01c6 9B69     		ldr	r3, [r3, #24]
 1319 01c8 9A68     		ldr	r2, [r3, #8]
 1320 01ca 059B     		ldr	r3, [sp, #20]
 1321 01cc 9A42     		cmp	r2, r3
 1322 01ce 14BF     		ite	ne
 1323 01d0 0023     		movne	r3, #0
 1324 01d2 0123     		moveq	r3, #1
 1325 01d4 DBB2     		uxtb	r3, r3
 1326 01d6 4FF00700 		mov	r0, #7
 1327 01da 1946     		mov	r1, r3
 1328 01dc FFF7FEFF 		bl	_test_assert
 1329 01e0 0346     		mov	r3, r0
 1330 01e2 002B     		cmp	r3, #0
 1331 01e4 40F0EE80 		bne	.L36
 1332              	.L44:
 1333              		.loc 1 387 0
 1334 01e8 FFF7FEFF 		bl	test_wait_threads
 1335              		.loc 1 390 0
 1336 01ec 40F20003 		movw	r3, #:lower16:wa
 1337 01f0 C0F20003 		movt	r3, #:upper16:wa
 1338 01f4 1A68     		ldr	r2, [r3, #0]
 1339 01f6 40F20003 		movw	r3, #:lower16:.LC1
 1340 01fa C0F20003 		movt	r3, #:upper16:.LC1
 1341 01fe 0093     		str	r3, [sp, #0]
 1342 0200 1046     		mov	r0, r2
 1343 0202 4FF49871 		mov	r1, #304
 1344 0206 049A     		ldr	r2, [sp, #16]
 1345 0208 40F20003 		movw	r3, #:lower16:thread4a
ARM GAS  /tmp/ccLoXihA.s 			page 25


 1346 020c C0F20003 		movt	r3, #:upper16:thread4a
 1347 0210 FFF7FEFF 		bl	chThdCreateStatic
 1348 0214 0246     		mov	r2, r0
 1349 0216 40F20003 		movw	r3, #:lower16:threads
 1350 021a C0F20003 		movt	r3, #:upper16:threads
 1351 021e 1A60     		str	r2, [r3, #0]
 1352              		.loc 1 391 0
 1353 0220 40F20003 		movw	r3, #:lower16:wa
 1354 0224 C0F20003 		movt	r3, #:upper16:wa
 1355 0228 5A68     		ldr	r2, [r3, #4]
 1356 022a 40F20003 		movw	r3, #:lower16:.LC2
 1357 022e C0F20003 		movt	r3, #:upper16:.LC2
 1358 0232 0093     		str	r3, [sp, #0]
 1359 0234 1046     		mov	r0, r2
 1360 0236 4FF49871 		mov	r1, #304
 1361 023a 039A     		ldr	r2, [sp, #12]
 1362 023c 40F20003 		movw	r3, #:lower16:thread4b
 1363 0240 C0F20003 		movt	r3, #:upper16:thread4b
 1364 0244 FFF7FEFF 		bl	chThdCreateStatic
 1365 0248 0246     		mov	r2, r0
 1366 024a 40F20003 		movw	r3, #:lower16:threads
 1367 024e C0F20003 		movt	r3, #:upper16:threads
 1368 0252 5A60     		str	r2, [r3, #4]
 1369              		.loc 1 392 0
 1370 0254 40F20000 		movw	r0, #:lower16:m2
 1371 0258 C0F20000 		movt	r0, #:upper16:m2
 1372 025c FFF7FEFF 		bl	chMtxLock
 1373              		.loc 1 393 0
 1374 0260 40F20003 		movw	r3, #:lower16:rlist
 1375 0264 C0F20003 		movt	r3, #:upper16:rlist
 1376 0268 9B69     		ldr	r3, [r3, #24]
 1377 026a 9A68     		ldr	r2, [r3, #8]
 1378 026c 059B     		ldr	r3, [sp, #20]
 1379 026e 9A42     		cmp	r2, r3
 1380 0270 14BF     		ite	ne
 1381 0272 0023     		movne	r3, #0
 1382 0274 0123     		moveq	r3, #1
 1383 0276 DBB2     		uxtb	r3, r3
 1384 0278 4FF00800 		mov	r0, #8
 1385 027c 1946     		mov	r1, r3
 1386 027e FFF7FEFF 		bl	_test_assert
 1387 0282 0346     		mov	r3, r0
 1388 0284 002B     		cmp	r3, #0
 1389 0286 40F09D80 		bne	.L36
 1390              	.L45:
 1391              		.loc 1 394 0
 1392 028a 4FF06400 		mov	r0, #100
 1393 028e FFF7FEFF 		bl	chThdSleep
 1394              		.loc 1 395 0
 1395 0292 40F20003 		movw	r3, #:lower16:rlist
 1396 0296 C0F20003 		movt	r3, #:upper16:rlist
 1397 029a 9B69     		ldr	r3, [r3, #24]
 1398 029c 9A68     		ldr	r2, [r3, #8]
 1399 029e 049B     		ldr	r3, [sp, #16]
 1400 02a0 9A42     		cmp	r2, r3
 1401 02a2 14BF     		ite	ne
 1402 02a4 0023     		movne	r3, #0
ARM GAS  /tmp/ccLoXihA.s 			page 26


 1403 02a6 0123     		moveq	r3, #1
 1404 02a8 DBB2     		uxtb	r3, r3
 1405 02aa 4FF00900 		mov	r0, #9
 1406 02ae 1946     		mov	r1, r3
 1407 02b0 FFF7FEFF 		bl	_test_assert
 1408 02b4 0346     		mov	r3, r0
 1409 02b6 002B     		cmp	r3, #0
 1410 02b8 40F08480 		bne	.L36
 1411              	.L46:
 1412              		.loc 1 396 0
 1413 02bc 40F20000 		movw	r0, #:lower16:m1
 1414 02c0 C0F20000 		movt	r0, #:upper16:m1
 1415 02c4 FFF7FEFF 		bl	chMtxLock
 1416              		.loc 1 397 0
 1417 02c8 40F20003 		movw	r3, #:lower16:rlist
 1418 02cc C0F20003 		movt	r3, #:upper16:rlist
 1419 02d0 9B69     		ldr	r3, [r3, #24]
 1420 02d2 9A68     		ldr	r2, [r3, #8]
 1421 02d4 049B     		ldr	r3, [sp, #16]
 1422 02d6 9A42     		cmp	r2, r3
 1423 02d8 14BF     		ite	ne
 1424 02da 0023     		movne	r3, #0
 1425 02dc 0123     		moveq	r3, #1
 1426 02de DBB2     		uxtb	r3, r3
 1427 02e0 4FF00A00 		mov	r0, #10
 1428 02e4 1946     		mov	r1, r3
 1429 02e6 FFF7FEFF 		bl	_test_assert
 1430 02ea 0346     		mov	r3, r0
 1431 02ec 002B     		cmp	r3, #0
 1432 02ee 69D1     		bne	.L36
 1433              	.L47:
 1434              		.loc 1 398 0
 1435 02f0 4FF06400 		mov	r0, #100
 1436 02f4 FFF7FEFF 		bl	chThdSleep
 1437              		.loc 1 399 0
 1438 02f8 40F20003 		movw	r3, #:lower16:rlist
 1439 02fc C0F20003 		movt	r3, #:upper16:rlist
 1440 0300 9B69     		ldr	r3, [r3, #24]
 1441 0302 9A68     		ldr	r2, [r3, #8]
 1442 0304 039B     		ldr	r3, [sp, #12]
 1443 0306 9A42     		cmp	r2, r3
 1444 0308 14BF     		ite	ne
 1445 030a 0023     		movne	r3, #0
 1446 030c 0123     		moveq	r3, #1
 1447 030e DBB2     		uxtb	r3, r3
 1448 0310 4FF00B00 		mov	r0, #11
 1449 0314 1946     		mov	r1, r3
 1450 0316 FFF7FEFF 		bl	_test_assert
 1451 031a 0346     		mov	r3, r0
 1452 031c 002B     		cmp	r3, #0
 1453 031e 51D1     		bne	.L36
 1454              	.L48:
 1455              	.LBB2:
 1456              		.loc 1 400 0
 1457 0320 4FF02003 		mov	r3, #32
 1458              	@ 400 "../../test/testmtx.c" 1
 1459 0324 83F31188 		msr     BASEPRI, r3
ARM GAS  /tmp/ccLoXihA.s 			page 27


 1460              	@ 0 "" 2
 1461              		.thumb
 1462              	.LBE2:
 1463 0328 FFF7FEFF 		bl	dbg_check_lock
 1464              		.loc 1 401 0
 1465 032c FFF7FEFF 		bl	chMtxUnlockS
 1466              		.loc 1 402 0
 1467 0330 FFF7FEFF 		bl	dbg_check_unlock
 1468              	.LBB3:
 1469 0334 4FF00003 		mov	r3, #0
 1470              	@ 402 "../../test/testmtx.c" 1
 1471 0338 83F31188 		msr     BASEPRI, r3
 1472              	@ 0 "" 2
 1473              		.thumb
 1474              	.LBE3:
 1475              		.loc 1 403 0
 1476 033c 40F20003 		movw	r3, #:lower16:rlist
 1477 0340 C0F20003 		movt	r3, #:upper16:rlist
 1478 0344 9B69     		ldr	r3, [r3, #24]
 1479 0346 9A68     		ldr	r2, [r3, #8]
 1480 0348 049B     		ldr	r3, [sp, #16]
 1481 034a 9A42     		cmp	r2, r3
 1482 034c 14BF     		ite	ne
 1483 034e 0023     		movne	r3, #0
 1484 0350 0123     		moveq	r3, #1
 1485 0352 DBB2     		uxtb	r3, r3
 1486 0354 4FF00C00 		mov	r0, #12
 1487 0358 1946     		mov	r1, r3
 1488 035a FFF7FEFF 		bl	_test_assert
 1489 035e 0346     		mov	r3, r0
 1490 0360 002B     		cmp	r3, #0
 1491 0362 2FD1     		bne	.L36
 1492              	.L49:
 1493              		.loc 1 404 0
 1494 0364 4FF06400 		mov	r0, #100
 1495 0368 FFF7FEFF 		bl	chThdSleep
 1496              		.loc 1 405 0
 1497 036c 40F20003 		movw	r3, #:lower16:rlist
 1498 0370 C0F20003 		movt	r3, #:upper16:rlist
 1499 0374 9B69     		ldr	r3, [r3, #24]
 1500 0376 9A68     		ldr	r2, [r3, #8]
 1501 0378 049B     		ldr	r3, [sp, #16]
 1502 037a 9A42     		cmp	r2, r3
 1503 037c 14BF     		ite	ne
 1504 037e 0023     		movne	r3, #0
 1505 0380 0123     		moveq	r3, #1
 1506 0382 DBB2     		uxtb	r3, r3
 1507 0384 4FF00D00 		mov	r0, #13
 1508 0388 1946     		mov	r1, r3
 1509 038a FFF7FEFF 		bl	_test_assert
 1510 038e 0346     		mov	r3, r0
 1511 0390 002B     		cmp	r3, #0
 1512 0392 17D1     		bne	.L36
 1513              	.L50:
 1514              		.loc 1 406 0
 1515 0394 FFF7FEFF 		bl	chMtxUnlockAll
 1516              		.loc 1 407 0
ARM GAS  /tmp/ccLoXihA.s 			page 28


 1517 0398 40F20003 		movw	r3, #:lower16:rlist
 1518 039c C0F20003 		movt	r3, #:upper16:rlist
 1519 03a0 9B69     		ldr	r3, [r3, #24]
 1520 03a2 9A68     		ldr	r2, [r3, #8]
 1521 03a4 059B     		ldr	r3, [sp, #20]
 1522 03a6 9A42     		cmp	r2, r3
 1523 03a8 14BF     		ite	ne
 1524 03aa 0023     		movne	r3, #0
 1525 03ac 0123     		moveq	r3, #1
 1526 03ae DBB2     		uxtb	r3, r3
 1527 03b0 4FF00E00 		mov	r0, #14
 1528 03b4 1946     		mov	r1, r3
 1529 03b6 FFF7FEFF 		bl	_test_assert
 1530 03ba 0346     		mov	r3, r0
 1531 03bc 002B     		cmp	r3, #0
 1532 03be 01D1     		bne	.L36
 1533              	.L51:
 1534              		.loc 1 408 0
 1535 03c0 FFF7FEFF 		bl	test_wait_threads
 1536              	.L36:
 1537              		.loc 1 409 0
 1538 03c4 07B0     		add	sp, sp, #28
 1539 03c6 00BD     		pop	{pc}
 1540              		.cfi_endproc
 1541              	.LFE25:
 1542              		.size	mtx4_execute, .-mtx4_execute
 1543              		.global	testmtx4
 1544 03c8 AFF30080 		.section	.rodata
 1544      AFF30080 
 1545              		.align	2
 1546              	.LC10:
 1547 009c 4D757465 		.ascii	"Mutexes, priority return\000"
 1547      7865732C 
 1547      20707269 
 1547      6F726974 
 1547      79207265 
 1548              		.section	.rodata.testmtx4,"a",%progbits
 1549              		.align	2
 1550              		.type	testmtx4, %object
 1551              		.size	testmtx4, 16
 1552              	testmtx4:
 1553 0000 9C000000 		.word	.LC10
 1554 0004 00000000 		.word	mtx4_setup
 1555 0008 00000000 		.word	0
 1556 000c 00000000 		.word	mtx4_execute
 1557              		.section	.text.mtx5_setup,"ax",%progbits
 1558              		.align	2
 1559              		.p2align 4,,15
 1560              		.thumb
 1561              		.thumb_func
 1562              		.type	mtx5_setup, %function
 1563              	mtx5_setup:
 1564              	.LFB26:
 1565              		.loc 1 428 0
 1566              		.cfi_startproc
 1567              		@ args = 0, pretend = 0, frame = 0
 1568              		@ frame_needed = 0, uses_anonymous_args = 0
ARM GAS  /tmp/ccLoXihA.s 			page 29


 1569 0000 08B5     		push	{r3, lr}
 1570              	.LCFI34:
 1571              		.cfi_def_cfa_offset 8
 1572              		.cfi_offset 3, -8
 1573              		.cfi_offset 14, -4
 1574              		.loc 1 430 0
 1575 0002 40F20000 		movw	r0, #:lower16:m1
 1576 0006 C0F20000 		movt	r0, #:upper16:m1
 1577 000a FFF7FEFF 		bl	chMtxInit
 1578              		.loc 1 431 0
 1579 000e 08BD     		pop	{r3, pc}
 1580              		.cfi_endproc
 1581              	.LFE26:
 1582              		.size	mtx5_setup, .-mtx5_setup
 1583              		.section	.text.mtx5_execute,"ax",%progbits
 1584              		.align	2
 1585              		.p2align 4,,15
 1586              		.thumb
 1587              		.thumb_func
 1588              		.type	mtx5_execute, %function
 1589              	mtx5_execute:
 1590              	.LFB27:
 1591              		.loc 1 433 0
 1592              		.cfi_startproc
 1593              		@ args = 0, pretend = 0, frame = 8
 1594              		@ frame_needed = 0, uses_anonymous_args = 0
 1595 0000 00B5     		push	{lr}
 1596              	.LCFI35:
 1597              		.cfi_def_cfa_offset 4
 1598              		.cfi_offset 14, -4
 1599 0002 83B0     		sub	sp, sp, #12
 1600              	.LCFI36:
 1601              		.cfi_def_cfa_offset 16
 1602              		.loc 1 437 0
 1603 0004 40F20003 		movw	r3, #:lower16:rlist
 1604 0008 C0F20003 		movt	r3, #:upper16:rlist
 1605 000c 9B69     		ldr	r3, [r3, #24]
 1606 000e 9B68     		ldr	r3, [r3, #8]
 1607 0010 0193     		str	r3, [sp, #4]
 1608              		.loc 1 439 0
 1609 0012 40F20000 		movw	r0, #:lower16:m1
 1610 0016 C0F20000 		movt	r0, #:upper16:m1
 1611 001a FFF7FEFF 		bl	chMtxTryLock
 1612 001e 0346     		mov	r3, r0
 1613 0020 8DF80330 		strb	r3, [sp, #3]
 1614              		.loc 1 440 0
 1615 0024 9DF80330 		ldrb	r3, [sp, #3]	@ zero_extendqisi2
 1616 0028 4FF00100 		mov	r0, #1
 1617 002c 1946     		mov	r1, r3
 1618 002e FFF7FEFF 		bl	_test_assert
 1619 0032 0346     		mov	r3, r0
 1620 0034 002B     		cmp	r3, #0
 1621 0036 40F09780 		bne	.L53
 1622              	.L54:
 1623              		.loc 1 442 0
 1624 003a 40F20000 		movw	r0, #:lower16:m1
 1625 003e C0F20000 		movt	r0, #:upper16:m1
ARM GAS  /tmp/ccLoXihA.s 			page 30


 1626 0042 FFF7FEFF 		bl	chMtxTryLock
 1627 0046 0346     		mov	r3, r0
 1628 0048 8DF80330 		strb	r3, [sp, #3]
 1629              		.loc 1 443 0
 1630 004c 9DF80330 		ldrb	r3, [sp, #3]	@ zero_extendqisi2
 1631 0050 002B     		cmp	r3, #0
 1632 0052 0CBF     		ite	eq
 1633 0054 0023     		moveq	r3, #0
 1634 0056 0123     		movne	r3, #1
 1635 0058 DBB2     		uxtb	r3, r3
 1636 005a 83F00103 		eor	r3, r3, #1
 1637 005e DBB2     		uxtb	r3, r3
 1638 0060 03F00103 		and	r3, r3, #1
 1639 0064 DBB2     		uxtb	r3, r3
 1640 0066 4FF00200 		mov	r0, #2
 1641 006a 1946     		mov	r1, r3
 1642 006c FFF7FEFF 		bl	_test_assert
 1643 0070 0346     		mov	r3, r0
 1644 0072 002B     		cmp	r3, #0
 1645 0074 78D1     		bne	.L53
 1646              	.L56:
 1647              	.LBB4:
 1648              		.loc 1 445 0
 1649 0076 4FF02003 		mov	r3, #32
 1650              	@ 445 "../../test/testmtx.c" 1
 1651 007a 83F31188 		msr     BASEPRI, r3
 1652              	@ 0 "" 2
 1653              		.thumb
 1654              	.LBE4:
 1655 007e FFF7FEFF 		bl	dbg_check_lock
 1656              		.loc 1 446 0
 1657 0082 FFF7FEFF 		bl	chMtxUnlockS
 1658              		.loc 1 447 0
 1659 0086 FFF7FEFF 		bl	dbg_check_unlock
 1660              	.LBB5:
 1661 008a 4FF00003 		mov	r3, #0
 1662              	@ 447 "../../test/testmtx.c" 1
 1663 008e 83F31188 		msr     BASEPRI, r3
 1664              	@ 0 "" 2
 1665              		.thumb
 1666              	.LBE5:
 1667              		.loc 1 449 0
 1668 0092 40F20003 		movw	r3, #:lower16:m1
 1669 0096 C0F20003 		movt	r3, #:upper16:m1
 1670 009a 1A68     		ldr	r2, [r3, #0]
 1671 009c 40F20003 		movw	r3, #:lower16:m1
 1672 00a0 C0F20003 		movt	r3, #:upper16:m1
 1673 00a4 9A42     		cmp	r2, r3
 1674 00a6 14BF     		ite	ne
 1675 00a8 0023     		movne	r3, #0
 1676 00aa 0123     		moveq	r3, #1
 1677 00ac DBB2     		uxtb	r3, r3
 1678 00ae 4FF00300 		mov	r0, #3
 1679 00b2 1946     		mov	r1, r3
 1680 00b4 FFF7FEFF 		bl	_test_assert
 1681 00b8 0346     		mov	r3, r0
 1682 00ba 002B     		cmp	r3, #0
ARM GAS  /tmp/ccLoXihA.s 			page 31


 1683 00bc 54D1     		bne	.L53
 1684              	.L57:
 1685              		.loc 1 450 0
 1686 00be 40F20003 		movw	r3, #:lower16:m1
 1687 00c2 C0F20003 		movt	r3, #:upper16:m1
 1688 00c6 9B68     		ldr	r3, [r3, #8]
 1689 00c8 002B     		cmp	r3, #0
 1690 00ca 14BF     		ite	ne
 1691 00cc 0023     		movne	r3, #0
 1692 00ce 0123     		moveq	r3, #1
 1693 00d0 DBB2     		uxtb	r3, r3
 1694 00d2 4FF00400 		mov	r0, #4
 1695 00d6 1946     		mov	r1, r3
 1696 00d8 FFF7FEFF 		bl	_test_assert
 1697 00dc 0346     		mov	r3, r0
 1698 00de 002B     		cmp	r3, #0
 1699 00e0 42D1     		bne	.L53
 1700              	.L58:
 1701              		.loc 1 451 0
 1702 00e2 40F20003 		movw	r3, #:lower16:rlist
 1703 00e6 C0F20003 		movt	r3, #:upper16:rlist
 1704 00ea 9B69     		ldr	r3, [r3, #24]
 1705 00ec 9A68     		ldr	r2, [r3, #8]
 1706 00ee 019B     		ldr	r3, [sp, #4]
 1707 00f0 9A42     		cmp	r2, r3
 1708 00f2 14BF     		ite	ne
 1709 00f4 0023     		movne	r3, #0
 1710 00f6 0123     		moveq	r3, #1
 1711 00f8 DBB2     		uxtb	r3, r3
 1712 00fa 4FF00500 		mov	r0, #5
 1713 00fe 1946     		mov	r1, r3
 1714 0100 FFF7FEFF 		bl	_test_assert
 1715 0104 0346     		mov	r3, r0
 1716 0106 002B     		cmp	r3, #0
 1717 0108 2ED1     		bne	.L53
 1718              	.L59:
 1719              		.loc 1 453 0
 1720 010a 40F20000 		movw	r0, #:lower16:m1
 1721 010e C0F20000 		movt	r0, #:upper16:m1
 1722 0112 FFF7FEFF 		bl	chMtxLock
 1723              		.loc 1 454 0
 1724 0116 FFF7FEFF 		bl	chMtxUnlockAll
 1725              		.loc 1 455 0
 1726 011a 40F20003 		movw	r3, #:lower16:m1
 1727 011e C0F20003 		movt	r3, #:upper16:m1
 1728 0122 1A68     		ldr	r2, [r3, #0]
 1729 0124 40F20003 		movw	r3, #:lower16:m1
 1730 0128 C0F20003 		movt	r3, #:upper16:m1
 1731 012c 9A42     		cmp	r2, r3
 1732 012e 14BF     		ite	ne
 1733 0130 0023     		movne	r3, #0
 1734 0132 0123     		moveq	r3, #1
 1735 0134 DBB2     		uxtb	r3, r3
 1736 0136 4FF00600 		mov	r0, #6
 1737 013a 1946     		mov	r1, r3
 1738 013c FFF7FEFF 		bl	_test_assert
 1739 0140 0346     		mov	r3, r0
ARM GAS  /tmp/ccLoXihA.s 			page 32


 1740 0142 002B     		cmp	r3, #0
 1741 0144 10D1     		bne	.L53
 1742              	.L60:
 1743              		.loc 1 456 0
 1744 0146 40F20003 		movw	r3, #:lower16:m1
 1745 014a C0F20003 		movt	r3, #:upper16:m1
 1746 014e 9B68     		ldr	r3, [r3, #8]
 1747 0150 002B     		cmp	r3, #0
 1748 0152 14BF     		ite	ne
 1749 0154 0023     		movne	r3, #0
 1750 0156 0123     		moveq	r3, #1
 1751 0158 DBB2     		uxtb	r3, r3
 1752 015a 4FF00700 		mov	r0, #7
 1753 015e 1946     		mov	r1, r3
 1754 0160 FFF7FEFF 		bl	_test_assert
 1755 0164 0346     		mov	r3, r0
 1756 0166 002B     		cmp	r3, #0
 1757              	.L53:
 1758              		.loc 1 457 0
 1759 0168 03B0     		add	sp, sp, #12
 1760 016a 00BD     		pop	{pc}
 1761              		.cfi_endproc
 1762              	.LFE27:
 1763              		.size	mtx5_execute, .-mtx5_execute
 1764              		.global	testmtx5
 1765 016c AFF30080 		.section	.rodata
 1766 00b5 000000   		.align	2
 1767              	.LC11:
 1768 00b8 4D757465 		.ascii	"Mutexes, status\000"
 1768      7865732C 
 1768      20737461 
 1768      74757300 
 1769              		.section	.rodata.testmtx5,"a",%progbits
 1770              		.align	2
 1771              		.type	testmtx5, %object
 1772              		.size	testmtx5, 16
 1773              	testmtx5:
 1774 0000 B8000000 		.word	.LC11
 1775 0004 00000000 		.word	mtx5_setup
 1776 0008 00000000 		.word	0
 1777 000c 00000000 		.word	mtx5_execute
 1778              		.section	.text.mtx6_setup,"ax",%progbits
 1779              		.align	2
 1780              		.p2align 4,,15
 1781              		.thumb
 1782              		.thumb_func
 1783              		.type	mtx6_setup, %function
 1784              	mtx6_setup:
 1785              	.LFB28:
 1786              		.loc 1 478 0
 1787              		.cfi_startproc
 1788              		@ args = 0, pretend = 0, frame = 0
 1789              		@ frame_needed = 0, uses_anonymous_args = 0
 1790 0000 08B5     		push	{r3, lr}
 1791              	.LCFI37:
 1792              		.cfi_def_cfa_offset 8
 1793              		.cfi_offset 3, -8
ARM GAS  /tmp/ccLoXihA.s 			page 33


 1794              		.cfi_offset 14, -4
 1795              		.loc 1 480 0
 1796 0002 40F20000 		movw	r0, #:lower16:c1
 1797 0006 C0F20000 		movt	r0, #:upper16:c1
 1798 000a FFF7FEFF 		bl	chCondInit
 1799              		.loc 1 481 0
 1800 000e 40F20000 		movw	r0, #:lower16:m1
 1801 0012 C0F20000 		movt	r0, #:upper16:m1
 1802 0016 FFF7FEFF 		bl	chMtxInit
 1803              		.loc 1 482 0
 1804 001a 08BD     		pop	{r3, pc}
 1805              		.cfi_endproc
 1806              	.LFE28:
 1807              		.size	mtx6_setup, .-mtx6_setup
 1808 001c AFF30080 		.section	.text.thread10,"ax",%progbits
 1809              		.align	2
 1810              		.p2align 4,,15
 1811              		.thumb
 1812              		.thumb_func
 1813              		.type	thread10, %function
 1814              	thread10:
 1815              	.LFB29:
 1816              		.loc 1 484 0
 1817              		.cfi_startproc
 1818              		@ args = 0, pretend = 0, frame = 8
 1819              		@ frame_needed = 0, uses_anonymous_args = 0
 1820 0000 00B5     		push	{lr}
 1821              	.LCFI38:
 1822              		.cfi_def_cfa_offset 4
 1823              		.cfi_offset 14, -4
 1824 0002 83B0     		sub	sp, sp, #12
 1825              	.LCFI39:
 1826              		.cfi_def_cfa_offset 16
 1827 0004 0190     		str	r0, [sp, #4]
 1828              		.loc 1 486 0
 1829 0006 40F20000 		movw	r0, #:lower16:m1
 1830 000a C0F20000 		movt	r0, #:upper16:m1
 1831 000e FFF7FEFF 		bl	chMtxLock
 1832              		.loc 1 487 0
 1833 0012 40F20000 		movw	r0, #:lower16:c1
 1834 0016 C0F20000 		movt	r0, #:upper16:c1
 1835 001a FFF7FEFF 		bl	chCondWait
 1836              		.loc 1 488 0
 1837 001e 019B     		ldr	r3, [sp, #4]
 1838 0020 1B78     		ldrb	r3, [r3, #0]	@ zero_extendqisi2
 1839 0022 1846     		mov	r0, r3
 1840 0024 FFF7FEFF 		bl	test_emit_token
 1841              		.loc 1 489 0
 1842 0028 FFF7FEFF 		bl	chMtxUnlock
 1843              		.loc 1 490 0
 1844 002c 4FF00003 		mov	r3, #0
 1845              		.loc 1 491 0
 1846 0030 1846     		mov	r0, r3
 1847 0032 03B0     		add	sp, sp, #12
 1848 0034 00BD     		pop	{pc}
 1849              		.cfi_endproc
 1850              	.LFE29:
ARM GAS  /tmp/ccLoXihA.s 			page 34


 1851              		.size	thread10, .-thread10
 1852 0036 00BFAFF3 		.section	.text.mtx6_execute,"ax",%progbits
 1852      0080AFF3 
 1852      0080
 1853              		.align	2
 1854              		.p2align 4,,15
 1855              		.thumb
 1856              		.thumb_func
 1857              		.type	mtx6_execute, %function
 1858              	mtx6_execute:
 1859              	.LFB30:
 1860              		.loc 1 493 0
 1861              		.cfi_startproc
 1862              		@ args = 0, pretend = 0, frame = 8
 1863              		@ frame_needed = 0, uses_anonymous_args = 0
 1864 0000 00B5     		push	{lr}
 1865              	.LCFI40:
 1866              		.cfi_def_cfa_offset 4
 1867              		.cfi_offset 14, -4
 1868 0002 85B0     		sub	sp, sp, #20
 1869              	.LCFI41:
 1870              		.cfi_def_cfa_offset 24
 1871              		.loc 1 495 0
 1872 0004 40F20003 		movw	r3, #:lower16:rlist
 1873 0008 C0F20003 		movt	r3, #:upper16:rlist
 1874 000c 9B69     		ldr	r3, [r3, #24]
 1875 000e 9B68     		ldr	r3, [r3, #8]
 1876 0010 0393     		str	r3, [sp, #12]
 1877              		.loc 1 496 0
 1878 0012 40F20003 		movw	r3, #:lower16:wa
 1879 0016 C0F20003 		movt	r3, #:upper16:wa
 1880 001a 1968     		ldr	r1, [r3, #0]
 1881 001c 039B     		ldr	r3, [sp, #12]
 1882 001e 03F10102 		add	r2, r3, #1
 1883 0022 40F20003 		movw	r3, #:lower16:.LC0
 1884 0026 C0F20003 		movt	r3, #:upper16:.LC0
 1885 002a 0093     		str	r3, [sp, #0]
 1886 002c 0846     		mov	r0, r1
 1887 002e 4FF49871 		mov	r1, #304
 1888 0032 40F20003 		movw	r3, #:lower16:thread10
 1889 0036 C0F20003 		movt	r3, #:upper16:thread10
 1890 003a FFF7FEFF 		bl	chThdCreateStatic
 1891 003e 0246     		mov	r2, r0
 1892 0040 40F20003 		movw	r3, #:lower16:threads
 1893 0044 C0F20003 		movt	r3, #:upper16:threads
 1894 0048 1A60     		str	r2, [r3, #0]
 1895              		.loc 1 497 0
 1896 004a 40F20003 		movw	r3, #:lower16:wa
 1897 004e C0F20003 		movt	r3, #:upper16:wa
 1898 0052 5968     		ldr	r1, [r3, #4]
 1899 0054 039B     		ldr	r3, [sp, #12]
 1900 0056 03F10202 		add	r2, r3, #2
 1901 005a 40F20003 		movw	r3, #:lower16:.LC1
 1902 005e C0F20003 		movt	r3, #:upper16:.LC1
 1903 0062 0093     		str	r3, [sp, #0]
 1904 0064 0846     		mov	r0, r1
 1905 0066 4FF49871 		mov	r1, #304
ARM GAS  /tmp/ccLoXihA.s 			page 35


 1906 006a 40F20003 		movw	r3, #:lower16:thread10
 1907 006e C0F20003 		movt	r3, #:upper16:thread10
 1908 0072 FFF7FEFF 		bl	chThdCreateStatic
 1909 0076 0246     		mov	r2, r0
 1910 0078 40F20003 		movw	r3, #:lower16:threads
 1911 007c C0F20003 		movt	r3, #:upper16:threads
 1912 0080 5A60     		str	r2, [r3, #4]
 1913              		.loc 1 498 0
 1914 0082 40F20003 		movw	r3, #:lower16:wa
 1915 0086 C0F20003 		movt	r3, #:upper16:wa
 1916 008a 9968     		ldr	r1, [r3, #8]
 1917 008c 039B     		ldr	r3, [sp, #12]
 1918 008e 03F10302 		add	r2, r3, #3
 1919 0092 40F20003 		movw	r3, #:lower16:.LC2
 1920 0096 C0F20003 		movt	r3, #:upper16:.LC2
 1921 009a 0093     		str	r3, [sp, #0]
 1922 009c 0846     		mov	r0, r1
 1923 009e 4FF49871 		mov	r1, #304
 1924 00a2 40F20003 		movw	r3, #:lower16:thread10
 1925 00a6 C0F20003 		movt	r3, #:upper16:thread10
 1926 00aa FFF7FEFF 		bl	chThdCreateStatic
 1927 00ae 0246     		mov	r2, r0
 1928 00b0 40F20003 		movw	r3, #:lower16:threads
 1929 00b4 C0F20003 		movt	r3, #:upper16:threads
 1930 00b8 9A60     		str	r2, [r3, #8]
 1931              		.loc 1 499 0
 1932 00ba 40F20003 		movw	r3, #:lower16:wa
 1933 00be C0F20003 		movt	r3, #:upper16:wa
 1934 00c2 D968     		ldr	r1, [r3, #12]
 1935 00c4 039B     		ldr	r3, [sp, #12]
 1936 00c6 03F10402 		add	r2, r3, #4
 1937 00ca 40F20003 		movw	r3, #:lower16:.LC3
 1938 00ce C0F20003 		movt	r3, #:upper16:.LC3
 1939 00d2 0093     		str	r3, [sp, #0]
 1940 00d4 0846     		mov	r0, r1
 1941 00d6 4FF49871 		mov	r1, #304
 1942 00da 40F20003 		movw	r3, #:lower16:thread10
 1943 00de C0F20003 		movt	r3, #:upper16:thread10
 1944 00e2 FFF7FEFF 		bl	chThdCreateStatic
 1945 00e6 0246     		mov	r2, r0
 1946 00e8 40F20003 		movw	r3, #:lower16:threads
 1947 00ec C0F20003 		movt	r3, #:upper16:threads
 1948 00f0 DA60     		str	r2, [r3, #12]
 1949              		.loc 1 500 0
 1950 00f2 40F20003 		movw	r3, #:lower16:wa
 1951 00f6 C0F20003 		movt	r3, #:upper16:wa
 1952 00fa 1969     		ldr	r1, [r3, #16]
 1953 00fc 039B     		ldr	r3, [sp, #12]
 1954 00fe 03F10502 		add	r2, r3, #5
 1955 0102 40F20003 		movw	r3, #:lower16:.LC4
 1956 0106 C0F20003 		movt	r3, #:upper16:.LC4
 1957 010a 0093     		str	r3, [sp, #0]
 1958 010c 0846     		mov	r0, r1
 1959 010e 4FF49871 		mov	r1, #304
 1960 0112 40F20003 		movw	r3, #:lower16:thread10
 1961 0116 C0F20003 		movt	r3, #:upper16:thread10
 1962 011a FFF7FEFF 		bl	chThdCreateStatic
ARM GAS  /tmp/ccLoXihA.s 			page 36


 1963 011e 0246     		mov	r2, r0
 1964 0120 40F20003 		movw	r3, #:lower16:threads
 1965 0124 C0F20003 		movt	r3, #:upper16:threads
 1966 0128 1A61     		str	r2, [r3, #16]
 1967              	.LBB6:
 1968              		.loc 1 501 0
 1969 012a 4FF02003 		mov	r3, #32
 1970              	@ 501 "../../test/testmtx.c" 1
 1971 012e 83F31188 		msr     BASEPRI, r3
 1972              	@ 0 "" 2
 1973              		.thumb
 1974              	.LBE6:
 1975 0132 FFF7FEFF 		bl	dbg_check_lock
 1976              		.loc 1 502 0
 1977 0136 40F20000 		movw	r0, #:lower16:c1
 1978 013a C0F20000 		movt	r0, #:upper16:c1
 1979 013e FFF7FEFF 		bl	chCondSignalI
 1980              		.loc 1 503 0
 1981 0142 40F20000 		movw	r0, #:lower16:c1
 1982 0146 C0F20000 		movt	r0, #:upper16:c1
 1983 014a FFF7FEFF 		bl	chCondSignalI
 1984              		.loc 1 504 0
 1985 014e 40F20000 		movw	r0, #:lower16:c1
 1986 0152 C0F20000 		movt	r0, #:upper16:c1
 1987 0156 FFF7FEFF 		bl	chCondSignalI
 1988              		.loc 1 505 0
 1989 015a 40F20000 		movw	r0, #:lower16:c1
 1990 015e C0F20000 		movt	r0, #:upper16:c1
 1991 0162 FFF7FEFF 		bl	chCondSignalI
 1992              		.loc 1 506 0
 1993 0166 40F20000 		movw	r0, #:lower16:c1
 1994 016a C0F20000 		movt	r0, #:upper16:c1
 1995 016e FFF7FEFF 		bl	chCondSignalI
 1996              		.loc 1 507 0
 1997 0172 FFF7FEFF 		bl	chSchRescheduleS
 1998              		.loc 1 508 0
 1999 0176 FFF7FEFF 		bl	dbg_check_unlock
 2000              	.LBB7:
 2001 017a 4FF00003 		mov	r3, #0
 2002              	@ 508 "../../test/testmtx.c" 1
 2003 017e 83F31188 		msr     BASEPRI, r3
 2004              	@ 0 "" 2
 2005              		.thumb
 2006              	.LBE7:
 2007              		.loc 1 509 0
 2008 0182 FFF7FEFF 		bl	test_wait_threads
 2009              		.loc 1 510 0
 2010 0186 4FF00100 		mov	r0, #1
 2011 018a 40F20001 		movw	r1, #:lower16:.LC5
 2012 018e C0F20001 		movt	r1, #:upper16:.LC5
 2013 0192 FFF7FEFF 		bl	_test_assert_sequence
 2014 0196 0346     		mov	r3, r0
 2015 0198 002B     		cmp	r3, #0
 2016              		.loc 1 511 0
 2017 019a 05B0     		add	sp, sp, #20
 2018 019c 00BD     		pop	{pc}
 2019              		.cfi_endproc
ARM GAS  /tmp/ccLoXihA.s 			page 37


 2020              	.LFE30:
 2021              		.size	mtx6_execute, .-mtx6_execute
 2022              		.global	testmtx6
 2023 019e 00BF     		.section	.rodata
 2024              		.align	2
 2025              	.LC12:
 2026 00c8 436F6E64 		.ascii	"CondVar, signal test\000"
 2026      5661722C 
 2026      20736967 
 2026      6E616C20 
 2026      74657374 
 2027              		.section	.rodata.testmtx6,"a",%progbits
 2028              		.align	2
 2029              		.type	testmtx6, %object
 2030              		.size	testmtx6, 16
 2031              	testmtx6:
 2032 0000 C8000000 		.word	.LC12
 2033 0004 00000000 		.word	mtx6_setup
 2034 0008 00000000 		.word	0
 2035 000c 00000000 		.word	mtx6_execute
 2036              		.section	.text.mtx7_setup,"ax",%progbits
 2037              		.align	2
 2038              		.p2align 4,,15
 2039              		.thumb
 2040              		.thumb_func
 2041              		.type	mtx7_setup, %function
 2042              	mtx7_setup:
 2043              	.LFB31:
 2044              		.loc 1 530 0
 2045              		.cfi_startproc
 2046              		@ args = 0, pretend = 0, frame = 0
 2047              		@ frame_needed = 0, uses_anonymous_args = 0
 2048 0000 08B5     		push	{r3, lr}
 2049              	.LCFI42:
 2050              		.cfi_def_cfa_offset 8
 2051              		.cfi_offset 3, -8
 2052              		.cfi_offset 14, -4
 2053              		.loc 1 532 0
 2054 0002 40F20000 		movw	r0, #:lower16:c1
 2055 0006 C0F20000 		movt	r0, #:upper16:c1
 2056 000a FFF7FEFF 		bl	chCondInit
 2057              		.loc 1 533 0
 2058 000e 40F20000 		movw	r0, #:lower16:m1
 2059 0012 C0F20000 		movt	r0, #:upper16:m1
 2060 0016 FFF7FEFF 		bl	chMtxInit
 2061              		.loc 1 534 0
 2062 001a 08BD     		pop	{r3, pc}
 2063              		.cfi_endproc
 2064              	.LFE31:
 2065              		.size	mtx7_setup, .-mtx7_setup
 2066 001c AFF30080 		.section	.text.mtx7_execute,"ax",%progbits
 2067              		.align	2
 2068              		.p2align 4,,15
 2069              		.thumb
 2070              		.thumb_func
 2071              		.type	mtx7_execute, %function
 2072              	mtx7_execute:
ARM GAS  /tmp/ccLoXihA.s 			page 38


 2073              	.LFB32:
 2074              		.loc 1 536 0
 2075              		.cfi_startproc
 2076              		@ args = 0, pretend = 0, frame = 8
 2077              		@ frame_needed = 0, uses_anonymous_args = 0
 2078 0000 00B5     		push	{lr}
 2079              	.LCFI43:
 2080              		.cfi_def_cfa_offset 4
 2081              		.cfi_offset 14, -4
 2082 0002 85B0     		sub	sp, sp, #20
 2083              	.LCFI44:
 2084              		.cfi_def_cfa_offset 24
 2085              		.loc 1 538 0
 2086 0004 40F20003 		movw	r3, #:lower16:rlist
 2087 0008 C0F20003 		movt	r3, #:upper16:rlist
 2088 000c 9B69     		ldr	r3, [r3, #24]
 2089 000e 9B68     		ldr	r3, [r3, #8]
 2090 0010 0393     		str	r3, [sp, #12]
 2091              		.loc 1 539 0
 2092 0012 40F20003 		movw	r3, #:lower16:wa
 2093 0016 C0F20003 		movt	r3, #:upper16:wa
 2094 001a 1968     		ldr	r1, [r3, #0]
 2095 001c 039B     		ldr	r3, [sp, #12]
 2096 001e 03F10102 		add	r2, r3, #1
 2097 0022 40F20003 		movw	r3, #:lower16:.LC0
 2098 0026 C0F20003 		movt	r3, #:upper16:.LC0
 2099 002a 0093     		str	r3, [sp, #0]
 2100 002c 0846     		mov	r0, r1
 2101 002e 4FF49871 		mov	r1, #304
 2102 0032 40F20003 		movw	r3, #:lower16:thread10
 2103 0036 C0F20003 		movt	r3, #:upper16:thread10
 2104 003a FFF7FEFF 		bl	chThdCreateStatic
 2105 003e 0246     		mov	r2, r0
 2106 0040 40F20003 		movw	r3, #:lower16:threads
 2107 0044 C0F20003 		movt	r3, #:upper16:threads
 2108 0048 1A60     		str	r2, [r3, #0]
 2109              		.loc 1 540 0
 2110 004a 40F20003 		movw	r3, #:lower16:wa
 2111 004e C0F20003 		movt	r3, #:upper16:wa
 2112 0052 5968     		ldr	r1, [r3, #4]
 2113 0054 039B     		ldr	r3, [sp, #12]
 2114 0056 03F10202 		add	r2, r3, #2
 2115 005a 40F20003 		movw	r3, #:lower16:.LC1
 2116 005e C0F20003 		movt	r3, #:upper16:.LC1
 2117 0062 0093     		str	r3, [sp, #0]
 2118 0064 0846     		mov	r0, r1
 2119 0066 4FF49871 		mov	r1, #304
 2120 006a 40F20003 		movw	r3, #:lower16:thread10
 2121 006e C0F20003 		movt	r3, #:upper16:thread10
 2122 0072 FFF7FEFF 		bl	chThdCreateStatic
 2123 0076 0246     		mov	r2, r0
 2124 0078 40F20003 		movw	r3, #:lower16:threads
 2125 007c C0F20003 		movt	r3, #:upper16:threads
 2126 0080 5A60     		str	r2, [r3, #4]
 2127              		.loc 1 541 0
 2128 0082 40F20003 		movw	r3, #:lower16:wa
 2129 0086 C0F20003 		movt	r3, #:upper16:wa
ARM GAS  /tmp/ccLoXihA.s 			page 39


 2130 008a 9968     		ldr	r1, [r3, #8]
 2131 008c 039B     		ldr	r3, [sp, #12]
 2132 008e 03F10302 		add	r2, r3, #3
 2133 0092 40F20003 		movw	r3, #:lower16:.LC2
 2134 0096 C0F20003 		movt	r3, #:upper16:.LC2
 2135 009a 0093     		str	r3, [sp, #0]
 2136 009c 0846     		mov	r0, r1
 2137 009e 4FF49871 		mov	r1, #304
 2138 00a2 40F20003 		movw	r3, #:lower16:thread10
 2139 00a6 C0F20003 		movt	r3, #:upper16:thread10
 2140 00aa FFF7FEFF 		bl	chThdCreateStatic
 2141 00ae 0246     		mov	r2, r0
 2142 00b0 40F20003 		movw	r3, #:lower16:threads
 2143 00b4 C0F20003 		movt	r3, #:upper16:threads
 2144 00b8 9A60     		str	r2, [r3, #8]
 2145              		.loc 1 542 0
 2146 00ba 40F20003 		movw	r3, #:lower16:wa
 2147 00be C0F20003 		movt	r3, #:upper16:wa
 2148 00c2 D968     		ldr	r1, [r3, #12]
 2149 00c4 039B     		ldr	r3, [sp, #12]
 2150 00c6 03F10402 		add	r2, r3, #4
 2151 00ca 40F20003 		movw	r3, #:lower16:.LC3
 2152 00ce C0F20003 		movt	r3, #:upper16:.LC3
 2153 00d2 0093     		str	r3, [sp, #0]
 2154 00d4 0846     		mov	r0, r1
 2155 00d6 4FF49871 		mov	r1, #304
 2156 00da 40F20003 		movw	r3, #:lower16:thread10
 2157 00de C0F20003 		movt	r3, #:upper16:thread10
 2158 00e2 FFF7FEFF 		bl	chThdCreateStatic
 2159 00e6 0246     		mov	r2, r0
 2160 00e8 40F20003 		movw	r3, #:lower16:threads
 2161 00ec C0F20003 		movt	r3, #:upper16:threads
 2162 00f0 DA60     		str	r2, [r3, #12]
 2163              		.loc 1 543 0
 2164 00f2 40F20003 		movw	r3, #:lower16:wa
 2165 00f6 C0F20003 		movt	r3, #:upper16:wa
 2166 00fa 1969     		ldr	r1, [r3, #16]
 2167 00fc 039B     		ldr	r3, [sp, #12]
 2168 00fe 03F10502 		add	r2, r3, #5
 2169 0102 40F20003 		movw	r3, #:lower16:.LC4
 2170 0106 C0F20003 		movt	r3, #:upper16:.LC4
 2171 010a 0093     		str	r3, [sp, #0]
 2172 010c 0846     		mov	r0, r1
 2173 010e 4FF49871 		mov	r1, #304
 2174 0112 40F20003 		movw	r3, #:lower16:thread10
 2175 0116 C0F20003 		movt	r3, #:upper16:thread10
 2176 011a FFF7FEFF 		bl	chThdCreateStatic
 2177 011e 0246     		mov	r2, r0
 2178 0120 40F20003 		movw	r3, #:lower16:threads
 2179 0124 C0F20003 		movt	r3, #:upper16:threads
 2180 0128 1A61     		str	r2, [r3, #16]
 2181              		.loc 1 544 0
 2182 012a 40F20000 		movw	r0, #:lower16:c1
 2183 012e C0F20000 		movt	r0, #:upper16:c1
 2184 0132 FFF7FEFF 		bl	chCondBroadcast
 2185              		.loc 1 545 0
 2186 0136 FFF7FEFF 		bl	test_wait_threads
ARM GAS  /tmp/ccLoXihA.s 			page 40


 2187              		.loc 1 546 0
 2188 013a 4FF00100 		mov	r0, #1
 2189 013e 40F20001 		movw	r1, #:lower16:.LC5
 2190 0142 C0F20001 		movt	r1, #:upper16:.LC5
 2191 0146 FFF7FEFF 		bl	_test_assert_sequence
 2192 014a 0346     		mov	r3, r0
 2193 014c 002B     		cmp	r3, #0
 2194              		.loc 1 547 0
 2195 014e 05B0     		add	sp, sp, #20
 2196 0150 00BD     		pop	{pc}
 2197              		.cfi_endproc
 2198              	.LFE32:
 2199              		.size	mtx7_execute, .-mtx7_execute
 2200              		.global	testmtx7
 2201 0152 00BFAFF3 		.section	.rodata
 2201      0080AFF3 
 2201      0080AFF3 
 2201      0080
 2202 00dd 000000   		.align	2
 2203              	.LC13:
 2204 00e0 436F6E64 		.ascii	"CondVar, broadcast test\000"
 2204      5661722C 
 2204      2062726F 
 2204      61646361 
 2204      73742074 
 2205              		.section	.rodata.testmtx7,"a",%progbits
 2206              		.align	2
 2207              		.type	testmtx7, %object
 2208              		.size	testmtx7, 16
 2209              	testmtx7:
 2210 0000 E0000000 		.word	.LC13
 2211 0004 00000000 		.word	mtx7_setup
 2212 0008 00000000 		.word	0
 2213 000c 00000000 		.word	mtx7_execute
 2214              		.section	.text.mtx8_setup,"ax",%progbits
 2215              		.align	2
 2216              		.p2align 4,,15
 2217              		.thumb
 2218              		.thumb_func
 2219              		.type	mtx8_setup, %function
 2220              	mtx8_setup:
 2221              	.LFB33:
 2222              		.loc 1 565 0
 2223              		.cfi_startproc
 2224              		@ args = 0, pretend = 0, frame = 0
 2225              		@ frame_needed = 0, uses_anonymous_args = 0
 2226 0000 08B5     		push	{r3, lr}
 2227              	.LCFI45:
 2228              		.cfi_def_cfa_offset 8
 2229              		.cfi_offset 3, -8
 2230              		.cfi_offset 14, -4
 2231              		.loc 1 567 0
 2232 0002 40F20000 		movw	r0, #:lower16:c1
 2233 0006 C0F20000 		movt	r0, #:upper16:c1
 2234 000a FFF7FEFF 		bl	chCondInit
 2235              		.loc 1 568 0
 2236 000e 40F20000 		movw	r0, #:lower16:m1
ARM GAS  /tmp/ccLoXihA.s 			page 41


 2237 0012 C0F20000 		movt	r0, #:upper16:m1
 2238 0016 FFF7FEFF 		bl	chMtxInit
 2239              		.loc 1 569 0
 2240 001a 40F20000 		movw	r0, #:lower16:m2
 2241 001e C0F20000 		movt	r0, #:upper16:m2
 2242 0022 FFF7FEFF 		bl	chMtxInit
 2243              		.loc 1 570 0
 2244 0026 08BD     		pop	{r3, pc}
 2245              		.cfi_endproc
 2246              	.LFE33:
 2247              		.size	mtx8_setup, .-mtx8_setup
 2248 0028 AFF30080 		.section	.text.thread11,"ax",%progbits
 2248      AFF30080 
 2249              		.align	2
 2250              		.p2align 4,,15
 2251              		.thumb
 2252              		.thumb_func
 2253              		.type	thread11, %function
 2254              	thread11:
 2255              	.LFB34:
 2256              		.loc 1 572 0
 2257              		.cfi_startproc
 2258              		@ args = 0, pretend = 0, frame = 8
 2259              		@ frame_needed = 0, uses_anonymous_args = 0
 2260 0000 00B5     		push	{lr}
 2261              	.LCFI46:
 2262              		.cfi_def_cfa_offset 4
 2263              		.cfi_offset 14, -4
 2264 0002 83B0     		sub	sp, sp, #12
 2265              	.LCFI47:
 2266              		.cfi_def_cfa_offset 16
 2267 0004 0190     		str	r0, [sp, #4]
 2268              		.loc 1 574 0
 2269 0006 40F20000 		movw	r0, #:lower16:m2
 2270 000a C0F20000 		movt	r0, #:upper16:m2
 2271 000e FFF7FEFF 		bl	chMtxLock
 2272              		.loc 1 575 0
 2273 0012 40F20000 		movw	r0, #:lower16:m1
 2274 0016 C0F20000 		movt	r0, #:upper16:m1
 2275 001a FFF7FEFF 		bl	chMtxLock
 2276              		.loc 1 577 0
 2277 001e 40F20000 		movw	r0, #:lower16:c1
 2278 0022 C0F20000 		movt	r0, #:upper16:c1
 2279 0026 4FF0FF31 		mov	r1, #-1
 2280 002a FFF7FEFF 		bl	chCondWaitTimeout
 2281              		.loc 1 581 0
 2282 002e 019B     		ldr	r3, [sp, #4]
 2283 0030 1B78     		ldrb	r3, [r3, #0]	@ zero_extendqisi2
 2284 0032 1846     		mov	r0, r3
 2285 0034 FFF7FEFF 		bl	test_emit_token
 2286              		.loc 1 582 0
 2287 0038 FFF7FEFF 		bl	chMtxUnlock
 2288              		.loc 1 583 0
 2289 003c FFF7FEFF 		bl	chMtxUnlock
 2290              		.loc 1 584 0
 2291 0040 4FF00003 		mov	r3, #0
 2292              		.loc 1 585 0
ARM GAS  /tmp/ccLoXihA.s 			page 42


 2293 0044 1846     		mov	r0, r3
 2294 0046 03B0     		add	sp, sp, #12
 2295 0048 00BD     		pop	{pc}
 2296              		.cfi_endproc
 2297              	.LFE34:
 2298              		.size	thread11, .-thread11
 2299 004a 00BFAFF3 		.section	.text.thread12,"ax",%progbits
 2299      0080
 2300              		.align	2
 2301              		.p2align 4,,15
 2302              		.thumb
 2303              		.thumb_func
 2304              		.type	thread12, %function
 2305              	thread12:
 2306              	.LFB35:
 2307              		.loc 1 587 0
 2308              		.cfi_startproc
 2309              		@ args = 0, pretend = 0, frame = 8
 2310              		@ frame_needed = 0, uses_anonymous_args = 0
 2311 0000 00B5     		push	{lr}
 2312              	.LCFI48:
 2313              		.cfi_def_cfa_offset 4
 2314              		.cfi_offset 14, -4
 2315 0002 83B0     		sub	sp, sp, #12
 2316              	.LCFI49:
 2317              		.cfi_def_cfa_offset 16
 2318 0004 0190     		str	r0, [sp, #4]
 2319              		.loc 1 589 0
 2320 0006 40F20000 		movw	r0, #:lower16:m2
 2321 000a C0F20000 		movt	r0, #:upper16:m2
 2322 000e FFF7FEFF 		bl	chMtxLock
 2323              		.loc 1 590 0
 2324 0012 019B     		ldr	r3, [sp, #4]
 2325 0014 1B78     		ldrb	r3, [r3, #0]	@ zero_extendqisi2
 2326 0016 1846     		mov	r0, r3
 2327 0018 FFF7FEFF 		bl	test_emit_token
 2328              		.loc 1 591 0
 2329 001c FFF7FEFF 		bl	chMtxUnlock
 2330              		.loc 1 592 0
 2331 0020 4FF00003 		mov	r3, #0
 2332              		.loc 1 593 0
 2333 0024 1846     		mov	r0, r3
 2334 0026 03B0     		add	sp, sp, #12
 2335 0028 00BD     		pop	{pc}
 2336              		.cfi_endproc
 2337              	.LFE35:
 2338              		.size	thread12, .-thread12
 2339 002a 00BFAFF3 		.section	.text.mtx8_execute,"ax",%progbits
 2339      0080
 2340              		.align	2
 2341              		.p2align 4,,15
 2342              		.thumb
 2343              		.thumb_func
 2344              		.type	mtx8_execute, %function
 2345              	mtx8_execute:
 2346              	.LFB36:
 2347              		.loc 1 595 0
ARM GAS  /tmp/ccLoXihA.s 			page 43


 2348              		.cfi_startproc
 2349              		@ args = 0, pretend = 0, frame = 8
 2350              		@ frame_needed = 0, uses_anonymous_args = 0
 2351 0000 00B5     		push	{lr}
 2352              	.LCFI50:
 2353              		.cfi_def_cfa_offset 4
 2354              		.cfi_offset 14, -4
 2355 0002 85B0     		sub	sp, sp, #20
 2356              	.LCFI51:
 2357              		.cfi_def_cfa_offset 24
 2358              		.loc 1 597 0
 2359 0004 40F20003 		movw	r3, #:lower16:rlist
 2360 0008 C0F20003 		movt	r3, #:upper16:rlist
 2361 000c 9B69     		ldr	r3, [r3, #24]
 2362 000e 9B68     		ldr	r3, [r3, #8]
 2363 0010 0393     		str	r3, [sp, #12]
 2364              		.loc 1 598 0
 2365 0012 40F20003 		movw	r3, #:lower16:wa
 2366 0016 C0F20003 		movt	r3, #:upper16:wa
 2367 001a 1968     		ldr	r1, [r3, #0]
 2368 001c 039B     		ldr	r3, [sp, #12]
 2369 001e 03F10102 		add	r2, r3, #1
 2370 0022 40F20003 		movw	r3, #:lower16:.LC4
 2371 0026 C0F20003 		movt	r3, #:upper16:.LC4
 2372 002a 0093     		str	r3, [sp, #0]
 2373 002c 0846     		mov	r0, r1
 2374 002e 4FF49871 		mov	r1, #304
 2375 0032 40F20003 		movw	r3, #:lower16:thread11
 2376 0036 C0F20003 		movt	r3, #:upper16:thread11
 2377 003a FFF7FEFF 		bl	chThdCreateStatic
 2378 003e 0246     		mov	r2, r0
 2379 0040 40F20003 		movw	r3, #:lower16:threads
 2380 0044 C0F20003 		movt	r3, #:upper16:threads
 2381 0048 1A60     		str	r2, [r3, #0]
 2382              		.loc 1 599 0
 2383 004a 40F20003 		movw	r3, #:lower16:wa
 2384 004e C0F20003 		movt	r3, #:upper16:wa
 2385 0052 5968     		ldr	r1, [r3, #4]
 2386 0054 039B     		ldr	r3, [sp, #12]
 2387 0056 03F10202 		add	r2, r3, #2
 2388 005a 40F20003 		movw	r3, #:lower16:.LC2
 2389 005e C0F20003 		movt	r3, #:upper16:.LC2
 2390 0062 0093     		str	r3, [sp, #0]
 2391 0064 0846     		mov	r0, r1
 2392 0066 4FF49871 		mov	r1, #304
 2393 006a 40F20003 		movw	r3, #:lower16:thread10
 2394 006e C0F20003 		movt	r3, #:upper16:thread10
 2395 0072 FFF7FEFF 		bl	chThdCreateStatic
 2396 0076 0246     		mov	r2, r0
 2397 0078 40F20003 		movw	r3, #:lower16:threads
 2398 007c C0F20003 		movt	r3, #:upper16:threads
 2399 0080 5A60     		str	r2, [r3, #4]
 2400              		.loc 1 600 0
 2401 0082 40F20003 		movw	r3, #:lower16:wa
 2402 0086 C0F20003 		movt	r3, #:upper16:wa
 2403 008a 9968     		ldr	r1, [r3, #8]
 2404 008c 039B     		ldr	r3, [sp, #12]
ARM GAS  /tmp/ccLoXihA.s 			page 44


 2405 008e 03F10302 		add	r2, r3, #3
 2406 0092 40F20003 		movw	r3, #:lower16:.LC3
 2407 0096 C0F20003 		movt	r3, #:upper16:.LC3
 2408 009a 0093     		str	r3, [sp, #0]
 2409 009c 0846     		mov	r0, r1
 2410 009e 4FF49871 		mov	r1, #304
 2411 00a2 40F20003 		movw	r3, #:lower16:thread12
 2412 00a6 C0F20003 		movt	r3, #:upper16:thread12
 2413 00aa FFF7FEFF 		bl	chThdCreateStatic
 2414 00ae 0246     		mov	r2, r0
 2415 00b0 40F20003 		movw	r3, #:lower16:threads
 2416 00b4 C0F20003 		movt	r3, #:upper16:threads
 2417 00b8 9A60     		str	r2, [r3, #8]
 2418              		.loc 1 601 0
 2419 00ba 40F20000 		movw	r0, #:lower16:c1
 2420 00be C0F20000 		movt	r0, #:upper16:c1
 2421 00c2 FFF7FEFF 		bl	chCondSignal
 2422              		.loc 1 602 0
 2423 00c6 40F20000 		movw	r0, #:lower16:c1
 2424 00ca C0F20000 		movt	r0, #:upper16:c1
 2425 00ce FFF7FEFF 		bl	chCondSignal
 2426              		.loc 1 603 0
 2427 00d2 FFF7FEFF 		bl	test_wait_threads
 2428              		.loc 1 604 0
 2429 00d6 4FF00100 		mov	r0, #1
 2430 00da 40F20001 		movw	r1, #:lower16:.LC7
 2431 00de C0F20001 		movt	r1, #:upper16:.LC7
 2432 00e2 FFF7FEFF 		bl	_test_assert_sequence
 2433 00e6 0346     		mov	r3, r0
 2434 00e8 002B     		cmp	r3, #0
 2435              		.loc 1 605 0
 2436 00ea 05B0     		add	sp, sp, #20
 2437 00ec 00BD     		pop	{pc}
 2438              		.cfi_endproc
 2439              	.LFE36:
 2440              		.size	mtx8_execute, .-mtx8_execute
 2441              		.global	testmtx8
 2442 00ee 00BF     		.section	.rodata
 2443              		.align	2
 2444              	.LC14:
 2445 00f8 436F6E64 		.ascii	"CondVar, boost test\000"
 2445      5661722C 
 2445      20626F6F 
 2445      73742074 
 2445      65737400 
 2446              		.section	.rodata.testmtx8,"a",%progbits
 2447              		.align	2
 2448              		.type	testmtx8, %object
 2449              		.size	testmtx8, 16
 2450              	testmtx8:
 2451 0000 F8000000 		.word	.LC14
 2452 0004 00000000 		.word	mtx8_setup
 2453 0008 00000000 		.word	0
 2454 000c 00000000 		.word	mtx8_execute
 2455              		.global	patternmtx
 2456              		.section	.rodata.patternmtx,"a",%progbits
 2457              		.align	2
ARM GAS  /tmp/ccLoXihA.s 			page 45


 2458              		.type	patternmtx, %object
 2459              		.size	patternmtx, 36
 2460              	patternmtx:
 2461 0000 00000000 		.word	testmtx1
 2462 0004 00000000 		.word	testmtx2
 2463 0008 00000000 		.word	testmtx3
 2464 000c 00000000 		.word	testmtx4
 2465 0010 00000000 		.word	testmtx5
 2466 0014 00000000 		.word	testmtx6
 2467 0018 00000000 		.word	testmtx7
 2468 001c 00000000 		.word	testmtx8
 2469 0020 00000000 		.word	0
 2470              		.text
 2471              	.Letext0:
 2472              		.file 2 "/usr/bin/../lib/gcc/arm-none-eabi/4.7.4/../../../../arm-none-eabi/include/stdint.h"
 2473              		.file 3 "../../os/ports/GCC/ARMCMx/chtypes.h"
 2474              		.file 4 "../../os/kernel/include/chlists.h"
 2475              		.file 5 "../../os/kernel/include/chthreads.h"
 2476              		.file 6 "../../os/ports/GCC/ARMCMx/chcore_v7m.h"
 2477              		.file 7 "../../os/kernel/include/chvt.h"
 2478              		.file 8 "../../os/kernel/include/chschd.h"
 2479              		.file 9 "../../os/kernel/include/chmtx.h"
 2480              		.file 10 "../../os/kernel/include/chcond.h"
 2481              		.file 11 "../../test/test.h"