ARM GAS  /tmp/ccLoXihA.s 			page 1


   1              		.syntax unified
   2              		.cpu cortex-m4
   3              		.fpu softvfp
   4              		.eabi_attribute 20, 1
   5              		.eabi_attribute 21, 1
   6              		.eabi_attribute 23, 3
   7              		.eabi_attribute 24, 1
   8              		.eabi_attribute 25, 1
   9              		.eabi_attribute 26, 1
  10              		.eabi_attribute 30, 6
  11              		.eabi_attribute 34, 1
  12              		.eabi_attribute 18, 4
  13              		.thumb
  14              		.file	"testmtx.c"
  15              		.text
  16              	.Ltext0:
  17              		.cfi_sections	.debug_frame
  18              		.section	.data.m1,"aw",%progbits
  19              		.align	2
  20              		.type	m1, %object
  21              		.size	m1, 16
  22              	m1:
  23 0000 00000000 		.word	m1
  24 0004 00000000 		.word	m1
  25 0008 00000000 		.word	0
  26 000c 00000000 		.word	0
  27              		.section	.data.m2,"aw",%progbits
  28              		.align	2
  29              		.type	m2, %object
  30              		.size	m2, 16
  31              	m2:
  32 0000 00000000 		.word	m2
  33 0004 00000000 		.word	m2
  34 0008 00000000 		.word	0
  35 000c 00000000 		.word	0
  36              		.section	.data.c1,"aw",%progbits
  37              		.align	2
  38              		.type	c1, %object
  39              		.size	c1, 8
  40              	c1:
  41 0000 00000000 		.word	c1
  42 0004 00000000 		.word	c1
  43              		.section	.text.mtx1_setup,"ax",%progbits
  44              		.align	2
  45              		.p2align 4,,15
  46              		.thumb
  47              		.thumb_func
  48              		.type	mtx1_setup, %function
  49              	mtx1_setup:
  50              	.LFB7:
  51              		.file 1 "../../test/testmtx.c"
  52              		.loc 1 84 0
  53              		.cfi_startproc
  54              		@ args = 0, pretend = 0, frame = 0
  55              		@ frame_needed = 0, uses_anonymous_args = 0
  56 0000 08B5     		push	{r3, lr}
  57              	.LCFI0:
ARM GAS  /tmp/ccLoXihA.s 			page 2


  58              		.cfi_def_cfa_offset 8
  59              		.cfi_offset 3, -8
  60              		.cfi_offset 14, -4
  61              		.loc 1 86 0
  62 0002 40F20000 		movw	r0, #:lower16:m1
  63 0006 C0F20000 		movt	r0, #:upper16:m1
  64 000a FFF7FEFF 		bl	chMtxInit
  65              		.loc 1 87 0
  66 000e 08BD     		pop	{r3, pc}
  67              		.cfi_endproc
  68              	.LFE7:
  69              		.size	mtx1_setup, .-mtx1_setup
  70              		.section	.text.thread1,"ax",%progbits
  71              		.align	2
  72              		.p2align 4,,15
  73              		.thumb
  74              		.thumb_func
  75              		.type	thread1, %function
  76              	thread1:
  77              	.LFB8:
  78              		.loc 1 89 0
  79              		.cfi_startproc
  80              		@ args = 0, pretend = 0, frame = 8
  81              		@ frame_needed = 0, uses_anonymous_args = 0
  82 0000 00B5     		push	{lr}
  83              	.LCFI1:
  84              		.cfi_def_cfa_offset 4
  85              		.cfi_offset 14, -4
  86 0002 83B0     		sub	sp, sp, #12
  87              	.LCFI2:
  88              		.cfi_def_cfa_offset 16
  89 0004 0190     		str	r0, [sp, #4]
  90              		.loc 1 91 0
  91 0006 40F20000 		movw	r0, #:lower16:m1
  92 000a C0F20000 		movt	r0, #:upper16:m1
  93 000e FFF7FEFF 		bl	chMtxLock
  94              		.loc 1 92 0
  95 0012 019B     		ldr	r3, [sp, #4]
  96 0014 1B78     		ldrb	r3, [r3, #0]	@ zero_extendqisi2
  97 0016 1846     		mov	r0, r3
  98 0018 FFF7FEFF 		bl	test_emit_token
  99              		.loc 1 93 0
 100 001c FFF7FEFF 		bl	chMtxUnlock
 101              		.loc 1 94 0
 102 0020 4FF00003 		mov	r3, #0
 103              		.loc 1 95 0
 104 0024 1846     		mov	r0, r3
 105 0026 03B0     		add	sp, sp, #12
 106 0028 00BD     		pop	{pc}
 107              		.cfi_endproc
 108              	.LFE8:
 109              		.size	thread1, .-thread1
 110 002a 00BFAFF3 		.section	.rodata
 110      0080
 111              		.align	2
 112              	.LC0:
 113 0000 4500     		.ascii	"E\000"
ARM GAS  /tmp/ccLoXihA.s 			page 3


 114 0002 0000     		.align	2
 115              	.LC1:
 116 0004 4400     		.ascii	"D\000"
 117 0006 0000     		.align	2
 118              	.LC2:
 119 0008 4300     		.ascii	"C\000"
 120 000a 0000     		.align	2
 121              	.LC3:
 122 000c 4200     		.ascii	"B\000"
 123 000e 0000     		.align	2
 124              	.LC4:
 125 0010 4100     		.ascii	"A\000"
 126 0012 0000     		.align	2
 127              	.LC5:
 128 0014 41424344 		.ascii	"ABCDE\000"
 128      4500
 129              		.section	.text.mtx1_execute,"ax",%progbits
 130              		.align	2
 131              		.p2align 4,,15
 132              		.thumb
 133              		.thumb_func
 134              		.type	mtx1_execute, %function
 135              	mtx1_execute:
 136              	.LFB9:
 137              		.loc 1 97 0
 138              		.cfi_startproc
 139              		@ args = 0, pretend = 0, frame = 8
 140              		@ frame_needed = 0, uses_anonymous_args = 0
 141 0000 00B5     		push	{lr}
 142              	.LCFI3:
 143              		.cfi_def_cfa_offset 4
 144              		.cfi_offset 14, -4
 145 0002 85B0     		sub	sp, sp, #20
 146              	.LCFI4:
 147              		.cfi_def_cfa_offset 24
 148              		.loc 1 99 0
 149 0004 40F20003 		movw	r3, #:lower16:rlist
 150 0008 C0F20003 		movt	r3, #:upper16:rlist
 151 000c 9B69     		ldr	r3, [r3, #24]
 152 000e 9B68     		ldr	r3, [r3, #8]
 153 0010 0393     		str	r3, [sp, #12]
 154              		.loc 1 100 0
 155 0012 40F20000 		movw	r0, #:lower16:m1
 156 0016 C0F20000 		movt	r0, #:upper16:m1
 157 001a FFF7FEFF 		bl	chMtxLock
 158              		.loc 1 101 0
 159 001e 40F20003 		movw	r3, #:lower16:wa
 160 0022 C0F20003 		movt	r3, #:upper16:wa
 161 0026 1968     		ldr	r1, [r3, #0]
 162 0028 039B     		ldr	r3, [sp, #12]
 163 002a 03F10102 		add	r2, r3, #1
 164 002e 40F20003 		movw	r3, #:lower16:.LC0
 165 0032 C0F20003 		movt	r3, #:upper16:.LC0
 166 0036 0093     		str	r3, [sp, #0]
 167 0038 0846     		mov	r0, r1
 168 003a 4FF49871 		mov	r1, #304
 169 003e 40F20003 		movw	r3, #:lower16:thread1
ARM GAS  /tmp/ccLoXihA.s 			page 4


 170 0042 C0F20003 		movt	r3, #:upper16:thread1
 171 0046 FFF7FEFF 		bl	chThdCreateStatic
 172 004a 0246     		mov	r2, r0
 173 004c 40F20003 		movw	r3, #:lower16:threads
 174 0050 C0F20003 		movt	r3, #:upper16:threads
 175 0054 1A60     		str	r2, [r3, #0]
 176              		.loc 1 102 0
 177 0056 40F20003 		movw	r3, #:lower16:wa
 178 005a C0F20003 		movt	r3, #:upper16:wa
 179 005e 5968     		ldr	r1, [r3, #4]
 180 0060 039B     		ldr	r3, [sp, #12]
 181 0062 03F10202 		add	r2, r3, #2
 182 0066 40F20003 		movw	r3, #:lower16:.LC1
 183 006a C0F20003 		movt	r3, #:upper16:.LC1
 184 006e 0093     		str	r3, [sp, #0]
 185 0070 0846     		mov	r0, r1
 186 0072 4FF49871 		mov	r1, #304
 187 0076 40F20003 		movw	r3, #:lower16:thread1
 188 007a C0F20003 		movt	r3, #:upper16:thread1
 189 007e FFF7FEFF 		bl	chThdCreateStatic
 190 0082 0246     		mov	r2, r0
 191 0084 40F20003 		movw	r3, #:lower16:threads
 192 0088 C0F20003 		movt	r3, #:upper16:threads
 193 008c 5A60     		str	r2, [r3, #4]
 194              		.loc 1 103 0
 195 008e 40F20003 		movw	r3, #:lower16:wa
 196 0092 C0F20003 		movt	r3, #:upper16:wa
 197 0096 9968     		ldr	r1, [r3, #8]
 198 0098 039B     		ldr	r3, [sp, #12]
 199 009a 03F10302 		add	r2, r3, #3
 200 009e 40F20003 		movw	r3, #:lower16:.LC2
 201 00a2 C0F20003 		movt	r3, #:upper16:.LC2
 202 00a6 0093     		str	r3, [sp, #0]
 203 00a8 0846     		mov	r0, r1
 204 00aa 4FF49871 		mov	r1, #304
 205 00ae 40F20003 		movw	r3, #:lower16:thread1
 206 00b2 C0F20003 		movt	r3, #:upper16:thread1
 207 00b6 FFF7FEFF 		bl	chThdCreateStatic
 208 00ba 0246     		mov	r2, r0
 209 00bc 40F20003 		movw	r3, #:lower16:threads
 210 00c0 C0F20003 		movt	r3, #:upper16:threads
 211 00c4 9A60     		str	r2, [r3, #8]
 212              		.loc 1 104 0
 213 00c6 40F20003 		movw	r3, #:lower16:wa
 214 00ca C0F20003 		movt	r3, #:upper16:wa
 215 00ce D968     		ldr	r1, [r3, #12]
 216 00d0 039B     		ldr	r3, [sp, #12]
 217 00d2 03F10402 		add	r2, r3, #4
 218 00d6 40F20003 		movw	r3, #:lower16:.LC3
 219 00da C0F20003 		movt	r3, #:upper16:.LC3
 220 00de 0093     		str	r3, [sp, #0]
 221 00e0 0846     		mov	r0, r1
 222 00e2 4FF49871 		mov	r1, #304
 223 00e6 40F20003 		movw	r3, #:lower16:thread1
 224 00ea C0F20003 		movt	r3, #:upper16:thread1
 225 00ee FFF7FEFF 		bl	chThdCreateStatic
 226 00f2 0246     		mov	r2, r0
ARM GAS  /tmp/ccLoXihA.s 			page 5


 227 00f4 40F20003 		movw	r3, #:lower16:threads
 228 00f8 C0F20003 		movt	r3, #:upper16:threads
 229 00fc DA60     		str	r2, [r3, #12]
 230              		.loc 1 105 0
 231 00fe 40F20003 		movw	r3, #:lower16:wa
 232 0102 C0F20003 		movt	r3, #:upper16:wa
 233 0106 1969     		ldr	r1, [r3, #16]
 234 0108 039B     		ldr	r3, [sp, #12]
 235 010a 03F10502 		add	r2, r3, #5
 236 010e 40F20003 		movw	r3, #:lower16:.LC4
 237 0112 C0F20003 		movt	r3, #:upper16:.LC4
 238 0116 0093     		str	r3, [sp, #0]
 239 0118 0846     		mov	r0, r1
 240 011a 4FF49871 		mov	r1, #304
 241 011e 40F20003 		movw	r3, #:lower16:thread1
 242 0122 C0F20003 		movt	r3, #:upper16:thread1
 243 0126 FFF7FEFF 		bl	chThdCreateStatic
 244 012a 0246     		mov	r2, r0
 245 012c 40F20003 		movw	r3, #:lower16:threads
 246 0130 C0F20003 		movt	r3, #:upper16:threads
 247 0134 1A61     		str	r2, [r3, #16]
 248              		.loc 1 106 0
 249 0136 FFF7FEFF 		bl	chMtxUnlock
 250              		.loc 1 107 0
 251 013a FFF7FEFF 		bl	test_wait_threads
 252              		.loc 1 108 0
 253 013e 40F20003 		movw	r3, #:lower16:rlist
 254 0142 C0F20003 		movt	r3, #:upper16:rlist
 255 0146 9B69     		ldr	r3, [r3, #24]
 256 0148 9A68     		ldr	r2, [r3, #8]
 257 014a 039B     		ldr	r3, [sp, #12]
 258 014c 9A42     		cmp	r2, r3
 259 014e 14BF     		ite	ne
 260 0150 0023     		movne	r3, #0
 261 0152 0123     		moveq	r3, #1
 262 0154 DBB2     		uxtb	r3, r3
 263 0156 4FF00100 		mov	r0, #1
 264 015a 1946     		mov	r1, r3
 265 015c FFF7FEFF 		bl	_test_assert
 266 0160 0346     		mov	r3, r0
 267 0162 002B     		cmp	r3, #0
 268 0164 09D1     		bne	.L4
 269              	.L5:
 270              		.loc 1 109 0
 271 0166 4FF00200 		mov	r0, #2
 272 016a 40F20001 		movw	r1, #:lower16:.LC5
 273 016e C0F20001 		movt	r1, #:upper16:.LC5
 274 0172 FFF7FEFF 		bl	_test_assert_sequence
 275 0176 0346     		mov	r3, r0
 276 0178 002B     		cmp	r3, #0
 277              	.L4:
 278              		.loc 1 110 0
 279 017a 05B0     		add	sp, sp, #20
 280 017c 00BD     		pop	{pc}
 281              		.cfi_endproc
 282              	.LFE9:
 283              		.size	mtx1_execute, .-mtx1_execute
ARM GAS  /tmp/ccLoXihA.s 			page 6


 284              		.global	testmtx1
 285 017e 00BF     		.section	.rodata
 286 001a 0000     		.align	2
 287              	.LC6:
 288 001c 4D757465 		.ascii	"Mutexes, priority enqueuing test\000"
 288      7865732C 
 288      20707269 
 288      6F726974 
 288      7920656E 
 289              		.section	.rodata.testmtx1,"a",%progbits
 290              		.align	2
 291              		.type	testmtx1, %object
 292              		.size	testmtx1, 16
 293              	testmtx1:
 294 0000 1C000000 		.word	.LC6
 295 0004 00000000 		.word	mtx1_setup
 296 0008 00000000 		.word	0
 297 000c 00000000 		.word	mtx1_execute
 298              		.section	.text.mtx2_setup,"ax",%progbits
 299              		.align	2
 300              		.p2align 4,,15
 301              		.thumb
 302              		.thumb_func
 303              		.type	mtx2_setup, %function
 304              	mtx2_setup:
 305              	.LFB10:
 306              		.loc 1 151 0
 307              		.cfi_startproc
 308              		@ args = 0, pretend = 0, frame = 0
 309              		@ frame_needed = 0, uses_anonymous_args = 0
 310 0000 08B5     		push	{r3, lr}
 311              	.LCFI5:
 312              		.cfi_def_cfa_offset 8
 313              		.cfi_offset 3, -8
 314              		.cfi_offset 14, -4
 315              		.loc 1 153 0
 316 0002 40F20000 		movw	r0, #:lower16:m1
 317 0006 C0F20000 		movt	r0, #:upper16:m1
 318 000a FFF7FEFF 		bl	chMtxInit
 319              		.loc 1 154 0
 320 000e 08BD     		pop	{r3, pc}
 321              		.cfi_endproc
 322              	.LFE10:
 323              		.size	mtx2_setup, .-mtx2_setup
 324              		.section	.text.thread2L,"ax",%progbits
 325              		.align	2
 326              		.p2align 4,,15
 327              		.thumb
 328              		.thumb_func
 329              		.type	thread2L, %function
 330              	thread2L:
 331              	.LFB11:
 332              		.loc 1 157 0
 333              		.cfi_startproc
 334              		@ args = 0, pretend = 0, frame = 8
 335              		@ frame_needed = 0, uses_anonymous_args = 0
 336 0000 00B5     		push	{lr}
ARM GAS  /tmp/ccLoXihA.s 			page 7


 337              	.LCFI6:
 338              		.cfi_def_cfa_offset 4
 339              		.cfi_offset 14, -4
 340 0002 83B0     		sub	sp, sp, #12
 341              	.LCFI7:
 342              		.cfi_def_cfa_offset 16
 343 0004 0190     		str	r0, [sp, #4]
 344              		.loc 1 160 0
 345 0006 40F20000 		movw	r0, #:lower16:m1
 346 000a C0F20000 		movt	r0, #:upper16:m1
 347 000e FFF7FEFF 		bl	chMtxLock
 348              		.loc 1 161 0
 349 0012 4FF02800 		mov	r0, #40
 350 0016 FFF7FEFF 		bl	test_cpu_pulse
 351              		.loc 1 162 0
 352 001a FFF7FEFF 		bl	chMtxUnlock
 353              		.loc 1 163 0
 354 001e 4FF00A00 		mov	r0, #10
 355 0022 FFF7FEFF 		bl	test_cpu_pulse
 356              		.loc 1 164 0
 357 0026 4FF04300 		mov	r0, #67
 358 002a FFF7FEFF 		bl	test_emit_token
 359              		.loc 1 165 0
 360 002e 4FF00003 		mov	r3, #0
 361              		.loc 1 166 0
 362 0032 1846     		mov	r0, r3
 363 0034 03B0     		add	sp, sp, #12
 364 0036 00BD     		pop	{pc}
 365              		.cfi_endproc
 366              	.LFE11:
 367              		.size	thread2L, .-thread2L
 368 0038 AFF30080 		.section	.text.thread2M,"ax",%progbits
 368      AFF30080 
 369              		.align	2
 370              		.p2align 4,,15
 371              		.thumb
 372              		.thumb_func
 373              		.type	thread2M, %function
 374              	thread2M:
 375              	.LFB12:
 376              		.loc 1 169 0
 377              		.cfi_startproc
 378              		@ args = 0, pretend = 0, frame = 8
 379              		@ frame_needed = 0, uses_anonymous_args = 0
 380 0000 00B5     		push	{lr}
 381              	.LCFI8:
 382              		.cfi_def_cfa_offset 4
 383              		.cfi_offset 14, -4
 384 0002 83B0     		sub	sp, sp, #12
 385              	.LCFI9:
 386              		.cfi_def_cfa_offset 16
 387 0004 0190     		str	r0, [sp, #4]
 388              		.loc 1 172 0
 389 0006 4FF01400 		mov	r0, #20
 390 000a FFF7FEFF 		bl	chThdSleep
 391              		.loc 1 173 0
 392 000e 4FF02800 		mov	r0, #40
ARM GAS  /tmp/ccLoXihA.s 			page 8


 393 0012 FFF7FEFF 		bl	test_cpu_pulse
 394              		.loc 1 174 0
 395 0016 4FF04200 		mov	r0, #66
 396 001a FFF7FEFF 		bl	test_emit_token
 397              		.loc 1 175 0
 398 001e 4FF00003 		mov	r3, #0
 399              		.loc 1 176 0
 400 0022 1846     		mov	r0, r3
 401 0024 03B0     		add	sp, sp, #12
 402 0026 00BD     		pop	{pc}
 403              		.cfi_endproc
 404              	.LFE12:
 405              		.size	thread2M, .-thread2M
 406 0028 AFF30080 		.section	.text.thread2H,"ax",%progbits
 406      AFF30080 
 407              		.align	2
 408              		.p2align 4,,15
 409              		.thumb
 410              		.thumb_func
 411              		.type	thread2H, %function
 412              	thread2H:
 413              	.LFB13:
 414              		.loc 1 179 0
 415              		.cfi_startproc
 416              		@ args = 0, pretend = 0, frame = 8
 417              		@ frame_needed = 0, uses_anonymous_args = 0
 418 0000 00B5     		push	{lr}
 419              	.LCFI10:
 420              		.cfi_def_cfa_offset 4
 421              		.cfi_offset 14, -4
 422 0002 83B0     		sub	sp, sp, #12
 423              	.LCFI11:
 424              		.cfi_def_cfa_offset 16
 425 0004 0190     		str	r0, [sp, #4]
 426              		.loc 1 182 0
 427 0006 4FF02800 		mov	r0, #40
 428 000a FFF7FEFF 		bl	chThdSleep
 429              		.loc 1 183 0
 430 000e 40F20000 		movw	r0, #:lower16:m1
 431 0012 C0F20000 		movt	r0, #:upper16:m1
 432 0016 FFF7FEFF 		bl	chMtxLock
 433              		.loc 1 184 0
 434 001a 4FF00A00 		mov	r0, #10
 435 001e FFF7FEFF 		bl	test_cpu_pulse
 436              		.loc 1 185 0
 437 0022 FFF7FEFF 		bl	chMtxUnlock
 438              		.loc 1 186 0
 439 0026 4FF04100 		mov	r0, #65
 440 002a FFF7FEFF 		bl	test_emit_token
 441              		.loc 1 187 0
 442 002e 4FF00003 		mov	r3, #0
 443              		.loc 1 188 0
 444 0032 1846     		mov	r0, r3
 445 0034 03B0     		add	sp, sp, #12
 446 0036 00BD     		pop	{pc}
 447              		.cfi_endproc
 448              	.LFE13:
ARM GAS  /tmp/ccLoXihA.s 			page 9


 449              		.size	thread2H, .-thread2H
 450 0038 AFF30080 		.section	.rodata
 450      AFF30080 
 451 003d 000000   		.align	2
 452              	.LC7:
 453 0040 41424300 		.ascii	"ABC\000"
 454              		.section	.text.mtx2_execute,"ax",%progbits
 455              		.align	2
 456              		.p2align 4,,15
 457              		.thumb
 458              		.thumb_func
 459              		.type	mtx2_execute, %function
 460              	mtx2_execute:
 461              	.LFB14:
 462              		.loc 1 190 0
 463              		.cfi_startproc
 464              		@ args = 0, pretend = 0, frame = 8
 465              		@ frame_needed = 0, uses_anonymous_args = 0
 466 0000 00B5     		push	{lr}
 467              	.LCFI12:
 468              		.cfi_def_cfa_offset 4
 469              		.cfi_offset 14, -4
 470 0002 85B0     		sub	sp, sp, #20
 471              	.LCFI13:
 472              		.cfi_def_cfa_offset 24
 473              		.loc 1 193 0
 474 0004 FFF7FEFF 		bl	test_wait_tick
 475              		.loc 1 194 0
 476 0008 40F20003 		movw	r3, #:lower16:vtlist
 477 000c C0F20003 		movt	r3, #:upper16:vtlist
 478 0010 DB68     		ldr	r3, [r3, #12]
 479 0012 0393     		str	r3, [sp, #12]
 480              		.loc 1 195 0
 481 0014 40F20003 		movw	r3, #:lower16:wa
 482 0018 C0F20003 		movt	r3, #:upper16:wa
 483 001c 1A68     		ldr	r2, [r3, #0]
 484 001e 40F20003 		movw	r3, #:lower16:rlist
 485 0022 C0F20003 		movt	r3, #:upper16:rlist
 486 0026 9B69     		ldr	r3, [r3, #24]
 487 0028 9B68     		ldr	r3, [r3, #8]
 488 002a 03F1FF33 		add	r3, r3, #-1
 489 002e 4FF00001 		mov	r1, #0
 490 0032 0091     		str	r1, [sp, #0]
 491 0034 1046     		mov	r0, r2
 492 0036 4FF49871 		mov	r1, #304
 493 003a 1A46     		mov	r2, r3
 494 003c 40F20003 		movw	r3, #:lower16:thread2H
 495 0040 C0F20003 		movt	r3, #:upper16:thread2H
 496 0044 FFF7FEFF 		bl	chThdCreateStatic
 497 0048 0246     		mov	r2, r0
 498 004a 40F20003 		movw	r3, #:lower16:threads
 499 004e C0F20003 		movt	r3, #:upper16:threads
 500 0052 1A60     		str	r2, [r3, #0]
 501              		.loc 1 196 0
 502 0054 40F20003 		movw	r3, #:lower16:wa
 503 0058 C0F20003 		movt	r3, #:upper16:wa
 504 005c 5A68     		ldr	r2, [r3, #4]
ARM GAS  /tmp/ccLoXihA.s 			page 10


 505 005e 40F20003 		movw	r3, #:lower16:rlist
 506 0062 C0F20003 		movt	r3, #:upper16:rlist
 507 0066 9B69     		ldr	r3, [r3, #24]
 508 0068 9B68     		ldr	r3, [r3, #8]
 509 006a A3F10203 		sub	r3, r3, #2
 510 006e 4FF00001 		mov	r1, #0
 511 0072 0091     		str	r1, [sp, #0]
 512 0074 1046     		mov	r0, r2
 513 0076 4FF49871 		mov	r1, #304
 514 007a 1A46     		mov	r2, r3
 515 007c 40F20003 		movw	r3, #:lower16:thread2M
 516 0080 C0F20003 		movt	r3, #:upper16:thread2M
 517 0084 FFF7FEFF 		bl	chThdCreateStatic
 518 0088 0246     		mov	r2, r0
 519 008a 40F20003 		movw	r3, #:lower16:threads
 520 008e C0F20003 		movt	r3, #:upper16:threads
 521 0092 5A60     		str	r2, [r3, #4]
 522              		.loc 1 197 0
 523 0094 40F20003 		movw	r3, #:lower16:wa
 524 0098 C0F20003 		movt	r3, #:upper16:wa
 525 009c 9A68     		ldr	r2, [r3, #8]
 526 009e 40F20003 		movw	r3, #:lower16:rlist
 527 00a2 C0F20003 		movt	r3, #:upper16:rlist
 528 00a6 9B69     		ldr	r3, [r3, #24]
 529 00a8 9B68     		ldr	r3, [r3, #8]
 530 00aa A3F10303 		sub	r3, r3, #3
 531 00ae 4FF00001 		mov	r1, #0
 532 00b2 0091     		str	r1, [sp, #0]
 533 00b4 1046     		mov	r0, r2
 534 00b6 4FF49871 		mov	r1, #304
 535 00ba 1A46     		mov	r2, r3
 536 00bc 40F20003 		movw	r3, #:lower16:thread2L
 537 00c0 C0F20003 		movt	r3, #:upper16:thread2L
 538 00c4 FFF7FEFF 		bl	chThdCreateStatic
 539 00c8 0246     		mov	r2, r0
 540 00ca 40F20003 		movw	r3, #:lower16:threads
 541 00ce C0F20003 		movt	r3, #:upper16:threads
 542 00d2 9A60     		str	r2, [r3, #8]
 543              		.loc 1 198 0
 544 00d4 FFF7FEFF 		bl	test_wait_threads
 545              		.loc 1 199 0
 546 00d8 4FF00100 		mov	r0, #1
 547 00dc 40F20001 		movw	r1, #:lower16:.LC7
 548 00e0 C0F20001 		movt	r1, #:upper16:.LC7
 549 00e4 FFF7FEFF 		bl	_test_assert_sequence
 550 00e8 0346     		mov	r3, r0
 551 00ea 002B     		cmp	r3, #0
 552 00ec 0DD1     		bne	.L14
 553              	.L15:
 554              		.loc 1 200 0
 555 00ee 039B     		ldr	r3, [sp, #12]
 556 00f0 03F16402 		add	r2, r3, #100
 557 00f4 039B     		ldr	r3, [sp, #12]
 558 00f6 03F16903 		add	r3, r3, #105
 559 00fa 4FF00200 		mov	r0, #2
 560 00fe 1146     		mov	r1, r2
 561 0100 1A46     		mov	r2, r3
ARM GAS  /tmp/ccLoXihA.s 			page 11


 562 0102 FFF7FEFF 		bl	_test_assert_time_window
 563 0106 0346     		mov	r3, r0
 564 0108 002B     		cmp	r3, #0
 565              	.L14:
 566              		.loc 1 201 0
 567 010a 05B0     		add	sp, sp, #20
 568 010c 00BD     		pop	{pc}
 569              		.cfi_endproc
 570              	.LFE14:
 571              		.size	mtx2_execute, .-mtx2_execute
 572              		.global	testmtx2
 573 010e 00BF     		.section	.rodata
 574              		.align	2
 575              	.LC8:
 576 0044 4D757465 		.ascii	"Mutexes, priority inheritance, simple case\000"
 576      7865732C 
 576      20707269 
 576      6F726974 
 576      7920696E 
 577              		.section	.rodata.testmtx2,"a",%progbits
 578              		.align	2
 579              		.type	testmtx2, %object
 580              		.size	testmtx2, 16
 581              	testmtx2:
 582 0000 44000000 		.word	.LC8
 583 0004 00000000 		.word	mtx2_setup
 584 0008 00000000 		.word	0
 585 000c 00000000 		.word	mtx2_execute
 586              		.section	.text.mtx3_setup,"ax",%progbits
 587              		.align	2
 588              		.p2align 4,,15
 589              		.thumb
 590              		.thumb_func
 591              		.type	mtx3_setup, %function
 592              	mtx3_setup:
 593              	.LFB15:
 594              		.loc 1 241 0
 595              		.cfi_startproc
 596              		@ args = 0, pretend = 0, frame = 0
 597              		@ frame_needed = 0, uses_anonymous_args = 0
 598 0000 08B5     		push	{r3, lr}
 599              	.LCFI14:
 600              		.cfi_def_cfa_offset 8
 601              		.cfi_offset 3, -8
 602              		.cfi_offset 14, -4
 603              		.loc 1 243 0
 604 0002 40F20000 		movw	r0, #:lower16:m1
 605 0006 C0F20000 		movt	r0, #:upper16:m1
 606 000a FFF7FEFF 		bl	chMtxInit
 607              		.loc 1 244 0
 608 000e 40F20000 		movw	r0, #:lower16:m2
 609 0012 C0F20000 		movt	r0, #:upper16:m2
 610 0016 FFF7FEFF 		bl	chMtxInit
 611              		.loc 1 245 0
 612 001a 08BD     		pop	{r3, pc}
 613              		.cfi_endproc
 614              	.LFE15:
ARM GAS  /tmp/ccLoXihA.s 			page 12


 615              		.size	mtx3_setup, .-mtx3_setup
 616 001c AFF30080 		.section	.text.thread3LL,"ax",%progbits
 617              		.align	2
 618              		.p2align 4,,15
 619              		.thumb
 620              		.thumb_func
 621              		.type	thread3LL, %function
 622              	thread3LL:
 623              	.LFB16:
 624              		.loc 1 248 0
 625              		.cfi_startproc
 626              		@ args = 0, pretend = 0, frame = 8
 627              		@ frame_needed = 0, uses_anonymous_args = 0
 628 0000 00B5     		push	{lr}
 629              	.LCFI15:
 630              		.cfi_def_cfa_offset 4
 631              		.cfi_offset 14, -4
 632 0002 83B0     		sub	sp, sp, #12
 633              	.LCFI16:
 634              		.cfi_def_cfa_offset 16
 635 0004 0190     		str	r0, [sp, #4]
 636              		.loc 1 251 0
 637 0006 40F20000 		movw	r0, #:lower16:m1
 638 000a C0F20000 		movt	r0, #:upper16:m1
 639 000e FFF7FEFF 		bl	chMtxLock
 640              		.loc 1 252 0
 641 0012 4FF01E00 		mov	r0, #30
 642 0016 FFF7FEFF 		bl	test_cpu_pulse
 643              		.loc 1 253 0
 644 001a FFF7FEFF 		bl	chMtxUnlock
 645              		.loc 1 254 0
 646 001e 4FF04500 		mov	r0, #69
 647 0022 FFF7FEFF 		bl	test_emit_token
 648              		.loc 1 255 0
 649 0026 4FF00003 		mov	r3, #0
 650              		.loc 1 256 0
 651 002a 1846     		mov	r0, r3
 652 002c 03B0     		add	sp, sp, #12
 653 002e 00BD     		pop	{pc}
 654              		.cfi_endproc
 655              	.LFE16:
 656              		.size	thread3LL, .-thread3LL
 657              		.section	.text.thread3L,"ax",%progbits
 658              		.align	2
 659              		.p2align 4,,15
 660              		.thumb
 661              		.thumb_func
 662              		.type	thread3L, %function
 663              	thread3L:
 664              	.LFB17:
 665              		.loc 1 259 0
 666              		.cfi_startproc
 667              		@ args = 0, pretend = 0, frame = 8
 668              		@ frame_needed = 0, uses_anonymous_args = 0
 669 0000 00B5     		push	{lr}
 670              	.LCFI17:
 671              		.cfi_def_cfa_offset 4
ARM GAS  /tmp/ccLoXihA.s 			page 13


 672              		.cfi_offset 14, -4
 673 0002 83B0     		sub	sp, sp, #12
 674              	.LCFI18:
 675              		.cfi_def_cfa_offset 16
 676 0004 0190     		str	r0, [sp, #4]
 677              		.loc 1 262 0
 678 0006 4FF00A00 		mov	r0, #10
 679 000a FFF7FEFF 		bl	chThdSleep
 680              		.loc 1 263 0
 681 000e 40F20000 		movw	r0, #:lower16:m2
 682 0012 C0F20000 		movt	r0, #:upper16:m2
 683 0016 FFF7FEFF 		bl	chMtxLock
 684              		.loc 1 264 0
 685 001a 4FF01400 		mov	r0, #20
 686 001e FFF7FEFF 		bl	test_cpu_pulse
 687              		.loc 1 265 0
 688 0022 40F20000 		movw	r0, #:lower16:m1
 689 0026 C0F20000 		movt	r0, #:upper16:m1
 690 002a FFF7FEFF 		bl	chMtxLock
 691              		.loc 1 266 0
 692 002e 4FF00A00 		mov	r0, #10
 693 0032 FFF7FEFF 		bl	test_cpu_pulse
 694              		.loc 1 267 0
 695 0036 FFF7FEFF 		bl	chMtxUnlock
 696              		.loc 1 268 0
 697 003a 4FF00A00 		mov	r0, #10
 698 003e FFF7FEFF 		bl	test_cpu_pulse
 699              		.loc 1 269 0
 700 0042 FFF7FEFF 		bl	chMtxUnlock
 701              		.loc 1 270 0
 702 0046 4FF04400 		mov	r0, #68
 703 004a FFF7FEFF 		bl	test_emit_token
 704              		.loc 1 271 0
 705 004e 4FF00003 		mov	r3, #0
 706              		.loc 1 272 0
 707 0052 1846     		mov	r0, r3
 708 0054 03B0     		add	sp, sp, #12
 709 0056 00BD     		pop	{pc}
 710              		.cfi_endproc
 711              	.LFE17:
 712              		.size	thread3L, .-thread3L
 713 0058 AFF30080 		.section	.text.thread3M,"ax",%progbits
 713      AFF30080 
 714              		.align	2
 715              		.p2align 4,,15
 716              		.thumb
 717              		.thumb_func
 718              		.type	thread3M, %function
 719              	thread3M:
 720              	.LFB18:
 721              		.loc 1 275 0
 722              		.cfi_startproc
 723              		@ args = 0, pretend = 0, frame = 8
 724              		@ frame_needed = 0, uses_anonymous_args = 0
 725 0000 00B5     		push	{lr}
 726              	.LCFI19:
 727              		.cfi_def_cfa_offset 4
ARM GAS  /tmp/ccLoXihA.s 			page 14


 728              		.cfi_offset 14, -4
 729 0002 83B0     		sub	sp, sp, #12
 730              	.LCFI20:
 731              		.cfi_def_cfa_offset 16
 732 0004 0190     		str	r0, [sp, #4]
 733              		.loc 1 278 0
 734 0006 4FF01400 		mov	r0, #20
 735 000a FFF7FEFF 		bl	chThdSleep
 736              		.loc 1 279 0
 737 000e 40F20000 		movw	r0, #:lower16:m2
 738 0012 C0F20000 		movt	r0, #:upper16:m2
 739 0016 FFF7FEFF 		bl	chMtxLock
 740              		.loc 1 280 0
 741 001a 4FF00A00 		mov	r0, #10
 742 001e FFF7FEFF 		bl	test_cpu_pulse
 743              		.loc 1 281 0
 744 0022 FFF7FEFF 		bl	chMtxUnlock
 745              		.loc 1 282 0
 746 0026 4FF04300 		mov	r0, #67
 747 002a FFF7FEFF 		bl	test_emit_token
 748              		.loc 1 283 0
 749 002e 4FF00003 		mov	r3, #0
 750              		.loc 1 284 0
 751 0032 1846     		mov	r0, r3
 752 0034 03B0     		add	sp, sp, #12
 753 0036 00BD     		pop	{pc}
 754              		.cfi_endproc
 755              	.LFE18:
 756              		.size	thread3M, .-thread3M
 757 0038 AFF30080 		.section	.text.thread3H,"ax",%progbits
 757      AFF30080 
 758              		.align	2
 759              		.p2align 4,,15
 760              		.thumb
 761              		.thumb_func
 762              		.type	thread3H, %function
 763              	thread3H:
 764              	.LFB19:
 765              		.loc 1 287 0
 766              		.cfi_startproc
 767              		@ args = 0, pretend = 0, frame = 8
 768              		@ frame_needed = 0, uses_anonymous_args = 0
 769 0000 00B5     		push	{lr}
 770              	.LCFI21:
 771              		.cfi_def_cfa_offset 4
 772              		.cfi_offset 14, -4
 773 0002 83B0     		sub	sp, sp, #12
 774              	.LCFI22:
 775              		.cfi_def_cfa_offset 16
 776 0004 0190     		str	r0, [sp, #4]
 777              		.loc 1 290 0
 778 0006 4FF02800 		mov	r0, #40
 779 000a FFF7FEFF 		bl	chThdSleep
 780              		.loc 1 291 0
 781 000e 4FF01400 		mov	r0, #20
 782 0012 FFF7FEFF 		bl	test_cpu_pulse
 783              		.loc 1 292 0
ARM GAS  /tmp/ccLoXihA.s 			page 15


 784 0016 4FF04200 		mov	r0, #66
 785 001a FFF7FEFF 		bl	test_emit_token
 786              		.loc 1 293 0
 787 001e 4FF00003 		mov	r3, #0
 788              		.loc 1 294 0
 789 0022 1846     		mov	r0, r3
 790 0024 03B0     		add	sp, sp, #12
 791 0026 00BD     		pop	{pc}
 792              		.cfi_endproc
 793              	.LFE19:
 794              		.size	thread3H, .-thread3H
 795 0028 AFF30080 		.section	.text.thread3HH,"ax",%progbits
 795      AFF30080 
 796              		.align	2
 797              		.p2align 4,,15
 798              		.thumb
 799              		.thumb_func
 800              		.type	thread3HH, %function
 801              	thread3HH:
 802              	.LFB20:
 803              		.loc 1 297 0
 804              		.cfi_startproc
 805              		@ args = 0, pretend = 0, frame = 8
 806              		@ frame_needed = 0, uses_anonymous_args = 0
 807 0000 00B5     		push	{lr}
 808              	.LCFI23:
 809              		.cfi_def_cfa_offset 4
 810              		.cfi_offset 14, -4
 811 0002 83B0     		sub	sp, sp, #12
 812              	.LCFI24:
 813              		.cfi_def_cfa_offset 16
 814 0004 0190     		str	r0, [sp, #4]
 815              		.loc 1 300 0
 816 0006 4FF03200 		mov	r0, #50
 817 000a FFF7FEFF 		bl	chThdSleep
 818              		.loc 1 301 0
 819 000e 40F20000 		movw	r0, #:lower16:m2
 820 0012 C0F20000 		movt	r0, #:upper16:m2
 821 0016 FFF7FEFF 		bl	chMtxLock
 822              		.loc 1 302 0
 823 001a 4FF00A00 		mov	r0, #10
 824 001e FFF7FEFF 		bl	test_cpu_pulse
 825              		.loc 1 303 0
 826 0022 FFF7FEFF 		bl	chMtxUnlock
 827              		.loc 1 304 0
 828 0026 4FF04100 		mov	r0, #65
 829 002a FFF7FEFF 		bl	test_emit_token
 830              		.loc 1 305 0
 831 002e 4FF00003 		mov	r3, #0
 832              		.loc 1 306 0
 833 0032 1846     		mov	r0, r3
 834 0034 03B0     		add	sp, sp, #12
 835 0036 00BD     		pop	{pc}
 836              		.cfi_endproc
 837              	.LFE20:
 838              		.size	thread3HH, .-thread3HH
 839 0038 AFF30080 		.section	.text.mtx3_execute,"ax",%progbits
ARM GAS  /tmp/ccLoXihA.s 			page 16


 839      AFF30080 
 840              		.align	2
 841              		.p2align 4,,15
 842              		.thumb
 843              		.thumb_func
 844              		.type	mtx3_execute, %function
 845              	mtx3_execute:
 846              	.LFB21:
 847              		.loc 1 308 0
 848              		.cfi_startproc
 849              		@ args = 0, pretend = 0, frame = 8
 850              		@ frame_needed = 0, uses_anonymous_args = 0
 851 0000 00B5     		push	{lr}
 852              	.LCFI25:
 853              		.cfi_def_cfa_offset 4
 854              		.cfi_offset 14, -4
 855 0002 85B0     		sub	sp, sp, #20
 856              	.LCFI26:
 857              		.cfi_def_cfa_offset 24
 858              		.loc 1 311 0
 859 0004 FFF7FEFF 		bl	test_wait_tick
 860              		.loc 1 312 0
 861 0008 40F20003 		movw	r3, #:lower16:vtlist
 862 000c C0F20003 		movt	r3, #:upper16:vtlist
 863 0010 DB68     		ldr	r3, [r3, #12]
 864 0012 0393     		str	r3, [sp, #12]
 865              		.loc 1 313 0
 866 0014 40F20003 		movw	r3, #:lower16:wa
 867 0018 C0F20003 		movt	r3, #:upper16:wa
 868 001c 1A68     		ldr	r2, [r3, #0]
 869 001e 40F20003 		movw	r3, #:lower16:rlist
 870 0022 C0F20003 		movt	r3, #:upper16:rlist
 871 0026 9B69     		ldr	r3, [r3, #24]
 872 0028 9B68     		ldr	r3, [r3, #8]
 873 002a A3F10503 		sub	r3, r3, #5
 874 002e 4FF00001 		mov	r1, #0
 875 0032 0091     		str	r1, [sp, #0]
 876 0034 1046     		mov	r0, r2
 877 0036 4FF49871 		mov	r1, #304
 878 003a 1A46     		mov	r2, r3
 879 003c 40F20003 		movw	r3, #:lower16:thread3LL
 880 0040 C0F20003 		movt	r3, #:upper16:thread3LL
 881 0044 FFF7FEFF 		bl	chThdCreateStatic
 882 0048 0246     		mov	r2, r0
 883 004a 40F20003 		movw	r3, #:lower16:threads
 884 004e C0F20003 		movt	r3, #:upper16:threads
 885 0052 1A60     		str	r2, [r3, #0]
 886              		.loc 1 314 0
 887 0054 40F20003 		movw	r3, #:lower16:wa
 888 0058 C0F20003 		movt	r3, #:upper16:wa
 889 005c 5A68     		ldr	r2, [r3, #4]
 890 005e 40F20003 		movw	r3, #:lower16:rlist
 891 0062 C0F20003 		movt	r3, #:upper16:rlist
 892 0066 9B69     		ldr	r3, [r3, #24]
 893 0068 9B68     		ldr	r3, [r3, #8]
 894 006a A3F10403 		sub	r3, r3, #4
 895 006e 4FF00001 		mov	r1, #0
ARM GAS  /tmp/ccLoXihA.s 			page 17


 896 0072 0091     		str	r1, [sp, #0]
 897 0074 1046     		mov	r0, r2
 898 0076 4FF49871 		mov	r1, #304
 899 007a 1A46     		mov	r2, r3
 900 007c 40F20003 		movw	r3, #:lower16:thread3L
 901 0080 C0F20003 		movt	r3, #:upper16:thread3L
 902 0084 FFF7FEFF 		bl	chThdCreateStatic
 903 0088 0246     		mov	r2, r0
 904 008a 40F20003 		movw	r3, #:lower16:threads
 905 008e C0F20003 		movt	r3, #:upper16:threads
 906 0092 5A60     		str	r2, [r3, #4]
 907              		.loc 1 315 0
 908 0094 40F20003 		movw	r3, #:lower16:wa
 909 0098 C0F20003 		movt	r3, #:upper16:wa
 910 009c 9A68     		ldr	r2, [r3, #8]
 911 009e 40F20003 		movw	r3, #:lower16:rlist
 912 00a2 C0F20003 		movt	r3, #:upper16:rlist
 913 00a6 9B69     		ldr	r3, [r3, #24]
 914 00a8 9B68     		ldr	r3, [r3, #8]
 915 00aa A3F10303 		sub	r3, r3, #3
 916 00ae 4FF00001 		mov	r1, #0
 917 00b2 0091     		str	r1, [sp, #0]
 918 00b4 1046     		mov	r0, r2
 919 00b6 4FF49871 		mov	r1, #304
 920 00ba 1A46     		mov	r2, r3
 921 00bc 40F20003 		movw	r3, #:lower16:thread3M
 922 00c0 C0F20003 		movt	r3, #:upper16:thread3M
 923 00c4 FFF7FEFF 		bl	chThdCreateStatic
 924 00c8 0246     		mov	r2, r0
 925 00ca 40F20003 		movw	r3, #:lower16:threads
 926 00ce C0F20003 		movt	r3, #:upper16:threads
 927 00d2 9A60     		str	r2, [r3, #8]
 928              		.loc 1 316 0
 929 00d4 40F20003 		movw	r3, #:lower16:wa
 930 00d8 C0F20003 		movt	r3, #:upper16:wa
 931 00dc DA68     		ldr	r2, [r3, #12]
 932 00de 40F20003 		movw	r3, #:lower16:rlist
 933 00e2 C0F20003 		movt	r3, #:upper16:rlist
 934 00e6 9B69     		ldr	r3, [r3, #24]
 935 00e8 9B68     		ldr	r3, [r3, #8]
 936 00ea A3F10203 		sub	r3, r3, #2
 937 00ee 4FF00001 		mov	r1, #0
 938 00f2 0091     		str	r1, [sp, #0]
 939 00f4 1046     		mov	r0, r2
 940 00f6 4FF49871 		mov	r1, #304
 941 00fa 1A46     		mov	r2, r3
 942 00fc 40F20003 		movw	r3, #:lower16:thread3H
 943 0100 C0F20003 		movt	r3, #:upper16:thread3H
 944 0104 FFF7FEFF 		bl	chThdCreateStatic
 945 0108 0246     		mov	r2, r0
 946 010a 40F20003 		movw	r3, #:lower16:threads
 947 010e C0F20003 		movt	r3, #:upper16:threads
 948 0112 DA60     		str	r2, [r3, #12]
 949              		.loc 1 317 0
 950 0114 40F20003 		movw	r3, #:lower16:wa
 951 0118 C0F20003 		movt	r3, #:upper16:wa
 952 011c 1A69     		ldr	r2, [r3, #16]
ARM GAS  /tmp/ccLoXihA.s 			page 18


 953 011e 40F20003 		movw	r3, #:lower16:rlist
 954 0122 C0F20003 		movt	r3, #:upper16:rlist
 955 0126 9B69     		ldr	r3, [r3, #24]
 956 0128 9B68     		ldr	r3, [r3, #8]
 957 012a 03F1FF33 		add	r3, r3, #-1
 958 012e 4FF00001 		mov	r1, #0
 959 0132 0091     		str	r1, [sp, #0]
 960 0134 1046     		mov	r0, r2
 961 0136 4FF49871 		mov	r1, #304
 962 013a 1A46     		mov	r2, r3
 963 013c 40F20003 		movw	r3, #:lower16:thread3HH
 964 0140 C0F20003 		movt	r3, #:upper16:thread3HH
 965 0144 FFF7FEFF 		bl	chThdCreateStatic
 966 0148 0246     		mov	r2, r0
 967 014a 40F20003 		movw	r3, #:lower16:threads
 968 014e C0F20003 		movt	r3, #:upper16:threads
 969 0152 1A61     		str	r2, [r3, #16]
 970              		.loc 1 318 0
 971 0154 FFF7FEFF 		bl	test_wait_threads
 972              		.loc 1 319 0
 973 0158 4FF00100 		mov	r0, #1
 974 015c 40F20001 		movw	r1, #:lower16:.LC5
 975 0160 C0F20001 		movt	r1, #:upper16:.LC5
 976 0164 FFF7FEFF 		bl	_test_assert_sequence
 977 0168 0346     		mov	r3, r0
 978 016a 002B     		cmp	r3, #0
 979 016c 0DD1     		bne	.L28
 980              	.L29:
 981              		.loc 1 320 0
 982 016e 039B     		ldr	r3, [sp, #12]
 983 0170 03F16E02 		add	r2, r3, #110
 984 0174 039B     		ldr	r3, [sp, #12]
 985 0176 03F17303 		add	r3, r3, #115
 986 017a 4FF00200 		mov	r0, #2
 987 017e 1146     		mov	r1, r2
 988 0180 1A46     		mov	r2, r3
 989 0182 FFF7FEFF 		bl	_test_assert_time_window
 990 0186 0346     		mov	r3, r0
 991 0188 002B     		cmp	r3, #0
 992              	.L28:
 993              		.loc 1 321 0
 994 018a 05B0     		add	sp, sp, #20
 995 018c 00BD     		pop	{pc}
 996              		.cfi_endproc
 997              	.LFE21:
 998              		.size	mtx3_execute, .-mtx3_execute
 999              		.global	testmtx3
 1000 018e 00BF     		.section	.rodata
 1001 006f 00       		.align	2
 1002              	.LC9:
 1003 0070 4D757465 		.ascii	"Mutexes, priority inheritance, complex case\000"
 1003      7865732C 
 1003      20707269 
 1003      6F726974 
 1003      7920696E 
 1004              		.section	.rodata.testmtx3,"a",%progbits
 1005              		.align	2
ARM GAS  /tmp/ccLoXihA.s 			page 19


 1006              		.type	testmtx3, %object
 1007              		.size	testmtx3, 16
 1008              	testmtx3:
 1009 0000 70000000 		.word	.LC9
 1010 0004 00000000 		.word	mtx3_setup
 1011 0008 00000000 		.word	0
 1012 000c 00000000 		.word	mtx3_execute
 1013              		.section	.text.mtx4_setup,"ax",%progbits
 1014              		.align	2
 1015              		.p2align 4,,15
 1016              		.thumb
 1017              		.thumb_func
 1018              		.type	mtx4_setup, %function
 1019              	mtx4_setup:
 1020              	.LFB22:
 1021              		.loc 1 341 0
 1022              		.cfi_startproc
 1023              		@ args = 0, pretend = 0, frame = 0
 1024              		@ frame_needed = 0, uses_anonymous_args = 0
 1025 0000 08B5     		push	{r3, lr}
 1026              	.LCFI27:
 1027              		.cfi_def_cfa_offset 8
 1028              		.cfi_offset 3, -8
 1029              		.cfi_offset 14, -4
 1030              		.loc 1 343 0
 1031 0002 40F20000 		movw	r0, #:lower16:m1
 1032 0006 C0F20000 		movt	r0, #:upper16:m1
 1033 000a FFF7FEFF 		bl	chMtxInit
 1034              		.loc 1 344 0
 1035 000e 40F20000 		movw	r0, #:lower16:m2
 1036 0012 C0F20000 		movt	r0, #:upper16:m2
 1037 0016 FFF7FEFF 		bl	chMtxInit
 1038              		.loc 1 345 0
 1039 001a 08BD     		pop	{r3, pc}
 1040              		.cfi_endproc
 1041              	.LFE22:
 1042              		.size	mtx4_setup, .-mtx4_setup
 1043 001c AFF30080 		.section	.text.thread4a,"ax",%progbits
 1044              		.align	2
 1045              		.p2align 4,,15
 1046              		.thumb
 1047              		.thumb_func
 1048              		.type	thread4a, %function
 1049              	thread4a:
 1050              	.LFB23:
 1051              		.loc 1 347 0
 1052              		.cfi_startproc
 1053              		@ args = 0, pretend = 0, frame = 8
 1054              		@ frame_needed = 0, uses_anonymous_args = 0
 1055 0000 00B5     		push	{lr}
 1056              	.LCFI28:
 1057              		.cfi_def_cfa_offset 4
 1058              		.cfi_offset 14, -4
 1059 0002 83B0     		sub	sp, sp, #12
 1060              	.LCFI29:
 1061              		.cfi_def_cfa_offset 16
 1062 0004 0190     		str	r0, [sp, #4]
ARM GAS  /tmp/ccLoXihA.s 			page 20


 1063              		.loc 1 350 0
 1064 0006 4FF03200 		mov	r0, #50
 1065 000a FFF7FEFF 		bl	chThdSleep
 1066              		.loc 1 351 0
 1067 000e 40F20000 		movw	r0, #:lower16:m2
 1068 0012 C0F20000 		movt	r0, #:upper16:m2
 1069 0016 FFF7FEFF 		bl	chMtxLock
 1070              		.loc 1 352 0
 1071 001a FFF7FEFF 		bl	chMtxUnlock
 1072              		.loc 1 353 0
 1073 001e 4FF00003 		mov	r3, #0
 1074              		.loc 1 354 0
 1075 0022 1846     		mov	r0, r3
 1076 0024 03B0     		add	sp, sp, #12
 1077 0026 00BD     		pop	{pc}
 1078              		.cfi_endproc
 1079              	.LFE23:
 1080              		.size	thread4a, .-thread4a
 1081 0028 AFF30080 		.section	.text.thread4b,"ax",%progbits
 1081      AFF30080 
 1082              		.align	2
 1083              		.p2align 4,,15
 1084              		.thumb
 1085              		.thumb_func
 1086              		.type	thread4b, %function
 1087              	thread4b:
 1088              	.LFB24:
 1089              		.loc 1 356 0
 1090              		.cfi_startproc
 1091              		@ args = 0, pretend = 0, frame = 8
 1092              		@ frame_needed = 0, uses_anonymous_args = 0
 1093 0000 00B5     		push	{lr}
 1094              	.LCFI30:
 1095              		.cfi_def_cfa_offset 4
 1096              		.cfi_offset 14, -4
 1097 0002 83B0     		sub	sp, sp, #12
 1098              	.LCFI31:
 1099              		.cfi_def_cfa_offset 16
 1100 0004 0190     		str	r0, [sp, #4]
 1101              		.loc 1 359 0
 1102 0006 4FF09600 		mov	r0, #150
 1103 000a FFF7FEFF 		bl	chThdSleep
 1104              		.loc 1 360 0
 1105 000e 40F20000 		movw	r0, #:lower16:m1
 1106 0012 C0F20000 		movt	r0, #:upper16:m1
 1107 0016 FFF7FEFF 		bl	chMtxLock
 1108              		.loc 1 361 0
 1109 001a FFF7FEFF 		bl	chMtxUnlock
 1110              		.loc 1 362 0
 1111 001e 4FF00003 		mov	r3, #0
 1112              		.loc 1 363 0
 1113 0022 1846     		mov	r0, r3
 1114 0024 03B0     		add	sp, sp, #12
 1115 0026 00BD     		pop	{pc}
 1116              		.cfi_endproc
 1117              	.LFE24:
 1118              		.size	thread4b, .-thread4b
ARM GAS  /tmp/ccLoXihA.s 			page 21


 1119 0028 AFF30080 		.section	.text.mtx4_execute,"ax",%progbits
 1119      AFF30080 
 1120              		.align	2
 1121              		.p2align 4,,15
 1122              		.thumb
 1123              		.thumb_func
 1124              		.type	mtx4_execute, %function
 1125              	mtx4_execute:
 1126              	.LFB25:
 1127              		.loc 1 365 0
 1128              		.cfi_startproc
 1129              		@ args = 0, pretend = 0, frame = 16
 1130              		@ frame_needed = 0, uses_anonymous_args = 0
 1131 0000 00B5     		push	{lr}
 1132              	.LCFI32:
 1133              		.cfi_def_cfa_offset 4
 1134              		.cfi_offset 14, -4
 1135 0002 87B0     		sub	sp, sp, #28
 1136              	.LCFI33:
 1137              		.cfi_def_cfa_offset 32
 1138              		.loc 1 368 0
 1139 0004 40F20003 		movw	r3, #:lower16:rlist
 1140 0008 C0F20003 		movt	r3, #:upper16:rlist
 1141 000c 9B69     		ldr	r3, [r3, #24]
 1142 000e 9B68     		ldr	r3, [r3, #8]
 1143 0010 0593     		str	r3, [sp, #20]
 1144              		.loc 1 369 0
 1145 0012 059B     		ldr	r3, [sp, #20]
 1146 0014 03F10103 		add	r3, r3, #1
 1147 0018 0493     		str	r3, [sp, #16]
 1148              		.loc 1 370 0
 1149 001a 059B     		ldr	r3, [sp, #20]
 1150 001c 03F10203 		add	r3, r3, #2
 1151 0020 0393     		str	r3, [sp, #12]
 1152              		.loc 1 371 0
 1153 0022 40F20003 		movw	r3, #:lower16:wa
 1154 0026 C0F20003 		movt	r3, #:upper16:wa
 1155 002a 1A68     		ldr	r2, [r3, #0]
 1156 002c 40F20003 		movw	r3, #:lower16:.LC3
 1157 0030 C0F20003 		movt	r3, #:upper16:.LC3
 1158 0034 0093     		str	r3, [sp, #0]
 1159 0036 1046     		mov	r0, r2
 1160 0038 4FF49871 		mov	r1, #304
 1161 003c 049A     		ldr	r2, [sp, #16]
 1162 003e 40F20003 		movw	r3, #:lower16:thread4a
 1163 0042 C0F20003 		movt	r3, #:upper16:thread4a
 1164 0046 FFF7FEFF 		bl	chThdCreateStatic
 1165 004a 0246     		mov	r2, r0
 1166 004c 40F20003 		movw	r3, #:lower16:threads
 1167 0050 C0F20003 		movt	r3, #:upper16:threads
 1168 0054 1A60     		str	r2, [r3, #0]
 1169              		.loc 1 372 0
 1170 0056 40F20003 		movw	r3, #:lower16:wa
 1171 005a C0F20003 		movt	r3, #:upper16:wa
 1172 005e 5A68     		ldr	r2, [r3, #4]
 1173 0060 40F20003 		movw	r3, #:lower16:.LC4
 1174 0064 C0F20003 		movt	r3, #:upper16:.LC4
ARM GAS  /tmp/ccLoXihA.s 			page 22


 1175 0068 0093     		str	r3, [sp, #0]
 1176 006a 1046     		mov	r0, r2
 1177 006c 4FF49871 		mov	r1, #304
 1178 0070 039A     		ldr	r2, [sp, #12]
 1179 0072 40F20003 		movw	r3, #:lower16:thread4b
 1180 0076 C0F20003 		movt	r3, #:upper16:thread4b
 1181 007a FFF7FEFF 		bl	chThdCreateStatic
 1182 007e 0246     		mov	r2, r0
 1183 0080 40F20003 		movw	r3, #:lower16:threads
 1184 0084 C0F20003 		movt	r3, #:upper16:threads
 1185 0088 5A60     		str	r2, [r3, #4]
 1186              		.loc 1 373 0
 1187 008a 40F20000 		movw	r0, #:lower16:m2
 1188 008e C0F20000 		movt	r0, #:upper16:m2
 1189 0092 FFF7FEFF 		bl	chMtxLock
 1190              		.loc 1 374 0
 1191 0096 40F20003 		movw	r3, #:lower16:rlist
 1192 009a C0F20003 		movt	r3, #:upper16:rlist
 1193 009e 9B69     		ldr	r3, [r3, #24]
 1194 00a0 9A68     		ldr	r2, [r3, #8]
 1195 00a2 059B     		ldr	r3, [sp, #20]
 1196 00a4 9A42     		cmp	r2, r3
 1197 00a6 14BF     		ite	ne
 1198 00a8 0023     		movne	r3, #0
 1199 00aa 0123     		moveq	r3, #1
 1200 00ac DBB2     		uxtb	r3, r3
 1201 00ae 4FF00100 		mov	r0, #1
 1202 00b2 1946     		mov	r1, r3
 1203 00b4 FFF7FEFF 		bl	_test_assert
 1204 00b8 0346     		mov	r3, r0
 1205 00ba 002B     		cmp	r3, #0
 1206 00bc 40F08281 		bne	.L36
 1207              	.L37:
 1208              		.loc 1 375 0
 1209 00c0 4FF06400 		mov	r0, #100
 1210 00c4 FFF7FEFF 		bl	chThdSleep
 1211              		.loc 1 376 0
 1212 00c8 40F20003 		movw	r3, #:lower16:rlist
 1213 00cc C0F20003 		movt	r3, #:upper16:rlist
 1214 00d0 9B69     		ldr	r3, [r3, #24]
 1215 00d2 9A68     		ldr	r2, [r3, #8]
 1216 00d4 049B     		ldr	r3, [sp, #16]
 1217 00d6 9A42     		cmp	r2, r3
 1218 00d8 14BF     		ite	ne
 1219 00da 0023     		movne	r3, #0
 1220 00dc 0123     		moveq	r3, #1
 1221 00de DBB2     		uxtb	r3, r3
 1222 00e0 4FF00200 		mov	r0, #2
 1223 00e4 1946     		mov	r1, r3
 1224 00e6 FFF7FEFF 		bl	_test_assert
 1225 00ea 0346     		mov	r3, r0
 1226 00ec 002B     		cmp	r3, #0
 1227 00ee 40F06981 		bne	.L36
 1228              	.L39:
 1229              		.loc 1 377 0
 1230 00f2 40F20000 		movw	r0, #:lower16:m1
 1231 00f6 C0F20000 		movt	r0, #:upper16:m1
ARM GAS  /tmp/ccLoXihA.s 			page 23


 1232 00fa FFF7FEFF 		bl	chMtxLock
 1233              		.loc 1 378 0
 1234 00fe 40F20003 		movw	r3, #:lower16:rlist
 1235 0102 C0F20003 		movt	r3, #:upper16:rlist
 1236 0106 9B69     		ldr	r3, [r3, #24]
 1237 0108 9A68     		ldr	r2, [r3, #8]
 1238 010a 049B     		ldr	r3, [sp, #16]
 1239 010c 9A42     		cmp	r2, r3
 1240 010e 14BF     		ite	ne
 1241 0110 0023     		movne	r3, #0
 1242 0112 0123     		moveq	r3, #1
 1243 0114 DBB2     		uxtb	r3, r3
 1244 0116 4FF00300 		mov	r0, #3
 1245 011a 1946     		mov	r1, r3
 1246 011c FFF7FEFF 		bl	_test_assert
 1247 0120 0346     		mov	r3, r0
 1248 0122 002B     		cmp	r3, #0
 1249 0124 40F04E81 		bne	.L36
 1250              	.L40:
 1251              		.loc 1 379 0
 1252 0128 4FF06400 		mov	r0, #100
 1253 012c FFF7FEFF 		bl	chThdSleep
 1254              		.loc 1 380 0
 1255 0130 40F20003 		movw	r3, #:lower16:rlist
 1256 0134 C0F20003 		movt	r3, #:upper16:rlist
 1257 0138 9B69     		ldr	r3, [r3, #24]
 1258 013a 9A68     		ldr	r2, [r3, #8]
 1259 013c 039B     		ldr	r3, [sp, #12]
 1260 013e 9A42     		cmp	r2, r3
 1261 0140 14BF     		ite	ne
 1262 0142 0023     		movne	r3, #0
 1263 0144 0123     		moveq	r3, #1
 1264 0146 DBB2     		uxtb	r3, r3
 1265 0148 4FF00400 		mov	r0, #4
 1266 014c 1946     		mov	r1, r3
 1267 014e FFF7FEFF 		bl	_test_assert
 1268 0152 0346     		mov	r3, r0
 1269 0154 002B     		cmp	r3, #0
 1270 0156 40F03581 		bne	.L36
 1271              	.L41:
 1272              		.loc 1 381 0
 1273 015a FFF7FEFF 		bl	chMtxUnlock
 1274              		.loc 1 382 0
 1275 015e 40F20003 		movw	r3, #:lower16:rlist
 1276 0162 C0F20003 		movt	r3, #:upper16:rlist
 1277 0166 9B69     		ldr	r3, [r3, #24]
 1278 0168 9A68     		ldr	r2, [r3, #8]
 1279 016a 049B     		ldr	r3, [sp, #16]
 1280 016c 9A42     		cmp	r2, r3
 1281 016e 14BF     		ite	ne
 1282 0170 0023     		movne	r3, #0
 1283 0172 0123     		moveq	r3, #1
 1284 0174 DBB2     		uxtb	r3, r3
 1285 0176 4FF00500 		mov	r0, #5
 1286 017a 1946     		mov	r1, r3
 1287 017c FFF7FEFF 		bl	_test_assert
 1288 0180 0346     		mov	r3, r0
ARM GAS  /tmp/ccLoXihA.s 			page 24


 1289 0182 002B     		cmp	r3, #0
 1290 0184 40F01E81 		bne	.L36
 1291              	.L42:
 1292              		.loc 1 383 0
 1293 0188 4FF06400 		mov	r0, #100
 1294 018c FFF7FEFF 		bl	chThdSleep
 1295              		.loc 1 384 0
 1296 0190 40F20003 		movw	r3, #:lower16:rlist
 1297 0194 C0F20003 		movt	r3, #:upper16:rlist
 1298 0198 9B69     		ldr	r3, [r3, #24]
 1299 019a 9A68     		ldr	r2, [r3, #8]
 1300 019c 049B     		ldr	r3, [sp, #16]
 1301 019e 9A42     		cmp	r2, r3
 1302 01a0 14BF     		ite	ne
 1303 01a2 0023     		movne	r3, #0
 1304 01a4 0123     		moveq	r3, #1
 1305 01a6 DBB2     		uxtb	r3, r3
 1306 01a8 4FF00600 		mov	r0, #6
 1307 01ac 1946     		mov	r1, r3
 1308 01ae FFF7FEFF 		bl	_test_assert
 1309 01b2 0346     		mov	r3, r0
 1310 01b4 002B     		cmp	r3, #0
 1311 01b6 40F00581 		bne	.L36
 1312              	.L43:
 1313              		.loc 1 385 0
 1314 01ba FFF7FEFF 		bl	chMtxUnlockAll
 1315              		.loc 1 386 0
 1316 01be 40F20003 		movw	r3, #:lower16:rlist
 1317 01c2 C0F20003 		movt	r3, #:upper16:rlist
 1318 01c6 9B69     		ldr	r3, [r3, #24]
 1319 01c8 9A68     		ldr	r2, [r3, #8]
 1320 01ca 059B     		ldr	r3, [sp, #20]
 1321 01cc 9A42     		cmp	r2, r3
 1322 01ce 14BF     		ite	ne
 1323 01d0 0023     		movne	r3, #0
 1324 01d2 0123     		moveq	r3, #1
 1325 01d4 DBB2     		uxtb	r3, r3
 1326 01d6 4FF00700 		mov	r0, #7
 1327 01da 1946     		mov	r1, r3
 1328 01dc FFF7FEFF 		bl	_test_assert
 1329 01e0 0346     		mov	r3, r0
 1330 01e2 002B     		cmp	r3, #0
 1331 01e4 40F0EE80 		bne	.L36
 1332              	.L44:
 1333              		.loc 1 387 0
 1334 01e8 FFF7FEFF 		bl	test_wait_threads
 1335              		.loc 1 390 0
 1336 01ec 40F20003 		movw	r3, #:lower16:wa
 1337 01f0 C0F20003 		movt	r3, #:upper16:wa
 1338 01f4 1A68     		ldr	r2, [r3, #0]
 1339 01f6 40F20003 		movw	r3, #:lower16:.LC1
 1340 01fa C0F20003 		movt	r3, #:upper16:.LC1
 1341 01fe 0093     		str	r3, [sp, #0]
 1342 0200 1046     		mov	r0, r2
 1343 0202 4FF49871 		mov	r1, #304
 1344 0206 049A     		ldr	r2, [sp, #16]
 1345 0208 40F20003 		movw	r3, #:lower16:thread4a
ARM GAS  /tmp/ccLoXihA.s 			page 25


 1346 020c C0F20003 		movt	r3, #:upper16:thread4a
 1347 0210 FFF7FEFF 		bl	chThdCreateStatic
 1348 0214 0246     		mov	r2, r0
 1349 0216 40F20003 		movw	r3, #:lower16:threads
 1350 021a C0F20003 		movt	r3, #:upper16:threads
 1351 021e 1A60     		str	r2, [r3, #0]
 1352              		.loc 1 391 0
 1353 0220 40F20003 		movw	r3, #:lower16:wa
 1354 0224 C0F20003 		movt	r3, #:upper16:wa
 1355 0228 5A68     		ldr	r2, [r3, #4]
 1356 022a 40F20003 		movw	r3, #:lower16:.LC2
 1357 022e C0F20003 		movt	r3, #:upper16:.LC2
 1358 0232 0093     		str	r3, [sp, #0]
 1359 0234 1046     		mov	r0, r2
 1360 0236 4FF49871 		mov	r1, #304
 1361 023a 039A     		ldr	r2, [sp, #12]
 1362 023c 40F20003 		movw	r3, #:lower16:thread4b
 1363 0240 C0F20003 		movt	r3, #:upper16:thread4b
 1364 0244 FFF7FEFF 		bl	chThdCreateStatic
 1365 0248 0246     		mov	r2, r0
 1366 024a 40F20003 		movw	r3, #:lower16:threads
 1367 024e C0F20003 		movt	r3, #:upper16:threads
 1368 0252 5A60     		str	r2, [r3, #4]
 1369              		.loc 1 392 0
 1370 0254 40F20000 		movw	r0, #:lower16:m2
 1371 0258 C0F20000 		movt	r0, #:upper16:m2
 1372 025c FFF7FEFF 		bl	chMtxLock
 1373              		.loc 1 393 0
 1374 0260 40F20003 		movw	r3, #:lower16:rlist
 1375 0264 C0F20003 		movt	r3, #:upper16:rlist
 1376 0268 9B69     		ldr	r3, [r3, #24]
 1377 026a 9A68     		ldr	r2, [r3, #8]
 1378 026c 059B     		ldr	r3, [sp, #20]
 1379 026e 9A42     		cmp	r2, r3
 1380 0270 14BF     		ite	ne
 1381 0272 0023     		movne	r3, #0
 1382 0274 0123     		moveq	r3, #1
 1383 0276 DBB2     		uxtb	r3, r3
 1384 0278 4FF00800 		mov	r0, #8
 1385 027c 1946     		mov	r1, r3
 1386 027e FFF7FEFF 		bl	_test_assert
 1387 0282 0346     		mov	r3, r0
 1388 0284 002B     		cmp	r3, #0
 1389 0286 40F09D80 		bne	.L36
 1390              	.L45:
 1391              		.loc 1 394 0
 1392 028a 4FF06400 		mov	r0, #100
 1393 028e FFF7FEFF 		bl	chThdSleep
 1394              		.loc 1 395 0
 1395 0292 40F20003 		movw	r3, #:lower16:rlist
 1396 0296 C0F20003 		movt	r3, #:upper16:rlist
 1397 029a 9B69     		ldr	r3, [r3, #24]
 1398 029c 9A68     		ldr	r2, [r3, #8]
 1399 029e 049B     		ldr	r3, [sp, #16]
 1400 02a0 9A42     		cmp	r2, r3
 1401 02a2 14BF     		ite	ne
 1402 02a4 0023     		movne	r3, #0
ARM GAS  /tmp/ccLoXihA.s 			page 26


 1403 02a6 0123     		moveq	r3, #1
 1404 02a8 DBB2     		uxtb	r3, r3
 1405 02aa 4FF00900 		mov	r0, #9
 1406 02ae 1946     		mov	r1, r3
 1407 02b0 FFF7FEFF 		bl	_test_assert
 1408 02b4 0346     		mov	r3, r0
 1409 02b6 002B     		cmp	r3, #0
 1410 02b8 40F08480 		bne	.L36
 1411              	.L46:
 1412              		.loc 1 396 0
 1413 02bc 40F20000 		movw	r0, #:lower16:m1
 1414 02c0 C0F20000 		movt	r0, #:upper16:m1
 1415 02c4 FFF7FEFF 		bl	chMtxLock
 1416              		.loc 1 397 0
 1417 02c8 40F20003 		movw	r3, #:lower16:rlist
 1418 02cc C0F20003 		movt	r3, #:upper16:rlist
 1419 02d0 9B69     		ldr	r3, [r3, #24]
 1420 02d2 9A68     		ldr	r2, [r3, #8]
 1421 02d4 049B     		ldr	r3, [sp, #16]
 1422 02d6 9A42     		cmp	r2, r3
 1423 02d8 14BF     		ite	ne
 1424 02da 0023     		movne	r3, #0
 1425 02dc 0123     		moveq	r3, #1
 1426 02de DBB2     		uxtb	r3, r3
 1427 02e0 4FF00A00 		mov	r0, #10
 1428 02e4 1946     		mov	r1, r3
 1429 02e6 FFF7FEFF 		bl	_test_assert
 1430 02ea 0346     		mov	r3, r0
 1431 02ec 002B     		cmp	r3, #0
 1432 02ee 69D1     		bne	.L36
 1433              	.L47:
 1434              		.loc 1 398 0
 1435 02f0 4FF06400 		mov	r0, #100
 1436 02f4 FFF7FEFF 		bl	chThdSleep
 1437              		.loc 1 399 0
 1438 02f8 40F20003 		movw	r3, #:lower16:rlist
 1439 02fc C0F20003 		movt	r3, #:upper16:rlist
 1440 0300 9B69     		ldr	r3, [r3, #24]
 1441 0302 9A68     		ldr	r2, [r3, #8]
 1442 0304 039B     		ldr	r3, [sp, #12]
 1443 0306 9A42     		cmp	r2, r3
 1444 0308 14BF     		ite	ne
 1445 030a 0023     		movne	r3, #0
 1446 030c 0123     		moveq	r3, #1
 1447 030e DBB2     		uxtb	r3, r3
 1448 0310 4FF00B00 		mov	r0, #11
 1449 0314 1946     		mov	r1, r3
 1450 0316 FFF7FEFF 		bl	_test_assert
 1451 031a 0346     		mov	r3, r0
 1452 031c 002B     		cmp	r3, #0
 1453 031e 51D1     		bne	.L36
 1454              	.L48:
 1455              	.LBB2:
 1456              		.loc 1 400 0
 1457 0320 4FF02003 		mov	r3, #32
 1458              	@ 400 "../../test/testmtx.c" 1
 1459 0324 83F31188 		msr     BASEPRI, r3
ARM GAS  /tmp/ccLoXihA.s 			page 27


 1460              	@ 0 "" 2
 1461              		.thumb
 1462              	.LBE2:
 1463 0328 FFF7FEFF 		bl	dbg_check_lock
 1464              		.loc 1 401 0
 1465 032c FFF7FEFF 		bl	chMtxUnlockS
 1466              		.loc 1 402 0
 1467 0330 FFF7FEFF 		bl	dbg_check_unlock
 1468              	.LBB3:
 1469 0334 4FF00003 		mov	r3, #0
 1470              	@ 402 "../../test/testmtx.c" 1
 1471 0338 83F31188 		msr     BASEPRI, r3
 1472              	@ 0 "" 2
 1473              		.thumb
 1474              	.LBE3:
 1475              		.loc 1 403 0
 1476 033c 40F20003 		movw	r3, #:lower16:rlist
 1477 0340 C0F20003 		movt	r3, #:upper16:rlist
 1478 0344 9B69     		ldr	r3, [r3, #24]
 1479 0346 9A68     		ldr	r2, [r3, #8]
 1480 0348 049B     		ldr	r3, [sp, #16]
 1481 034a 9A42     		cmp	r2, r3
 1482 034c 14BF     		ite	ne
 1483 034e 0023     		movne	r3, #0
 1484 0350 0123     		moveq	r3, #1
 1485 0352 DBB2     		uxtb	r3, r3
 1486 0354 4FF00C00 		mov	r0, #12
 1487 0358 1946     		mov	r1, r3
 1488 035a FFF7FEFF 		bl	_test_assert
 1489 035e 0346     		mov	r3, r0
 1490 0360 002B     		cmp	r3, #0
 1491 0362 2FD1     		bne	.L36
 1492              	.L49:
 1493              		.loc 1 404 0
 1494 0364 4FF06400 		mov	r0, #100
 1495 0368 FFF7FEFF 		bl	chThdSleep
 1496              		.loc 1 405 0
 1497 036c 40F20003 		movw	r3, #:lower16:rlist
 1498 0370 C0F20003 		movt	r3, #:upper16:rlist
 1499 0374 9B69     		ldr	r3, [r3, #24]
 1500 0376 9A68     		ldr	r2, [r3, #8]
 1501 0378 049B     		ldr	r3, [sp, #16]
 1502 037a 9A42     		cmp	r2, r3
 1503 037c 14BF     		ite	ne
 1504 037e 0023     		movne	r3, #0
 1505 0380 0123     		moveq	r3, #1
 1506 0382 DBB2     		uxtb	r3, r3
 1507 0384 4FF00D00 		mov	r0, #13
 1508 0388 1946     		mov	r1, r3
 1509 038a FFF7FEFF 		bl	_test_assert
 1510 038e 0346     		mov	r3, r0
 1511 0390 002B     		cmp	r3, #0
 1512 0392 17D1     		bne	.L36
 1513              	.L50:
 1514              		.loc 1 406 0
 1515 0394 FFF7FEFF 		bl	chMtxUnlockAll
 1516              		.loc 1 407 0
ARM GAS  /tmp/ccLoXihA.s 			page 28


 1517 0398 40F20003 		movw	r3, #:lower16:rlist
 1518 039c C0F20003 		movt	r3, #:upper16:rlist
 1519 03a0 9B69     		ldr	r3, [r3, #24]
 1520 03a2 9A68     		ldr	r2, [r3, #8]
 1521 03a4 059B     		ldr	r3, [sp, #20]
 1522 03a6 9A42     		cmp	r2, r3
 1523 03a8 14BF     		ite	ne
 1524 03aa 0023     		movne	r3, #0
 1525 03ac 0123     		moveq	r3, #1
 1526 03ae DBB2     		uxtb	r3, r3
 1527 03b0 4FF00E00 		mov	r0, #14
 1528 03b4 1946     		mov	r1, r3
 1529 03b6 FFF7FEFF 		bl	_test_assert
 1530 03ba 0346     		mov	r3, r0
 1531 03bc 002B     		cmp	r3, #0
 1532 03be 01D1     		bne	.L36
 1533              	.L51:
 1534              		.loc 1 408 0
 1535 03c0 FFF7FEFF 		bl	test_wait_threads
 1536              	.L36:
 1537              		.loc 1 409 0
 1538 03c4 07B0     		add	sp, sp, #28
 1539 03c6 00BD     		pop	{pc}
 1540              		.cfi_endproc
 1541              	.LFE25:
 1542              		.size	mtx4_execute, .-mtx4_execute
 1543              		.global	testmtx4
 1544 03c8 AFF30080 		.section	.rodata
 1544      AFF30080 
 1545              		.align	2
 1546              	.LC10:
 1547 009c 4D757465 		.ascii	"Mutexes, priority return\000"
 1547      7865732C 
 1547      20707269 
 1547      6F726974 
 1547      79207265 
 1548              		.section	.rodata.testmtx4,"a",%progbits
 1549              		.align	2
 1550              		.type	testmtx4, %object
 1551              		.size	testmtx4, 16
 1552              	testmtx4:
 1553 0000 9C000000 		.word	.LC10
 1554 0004 00000000 		.word	mtx4_setup
 1555 0008 00000000 		.word	0
 1556 000c 00000000 		.word	mtx4_execute
 1557              		.section	.text.mtx5_setup,"ax",%progbits
 1558              		.align	2
 1559              		.p2align 4,,15
 1560              		.thumb
 1561              		.thumb_func
 1562              		.type	mtx5_setup, %function
 1563              	mtx5_setup:
 1564              	.LFB26:
 1565              		.loc 1 428 0
 1566              		.cfi_startproc
 1567              		@ args = 0, pretend = 0, frame = 0
 1568              		@ frame_needed = 0, uses_anonymous_args = 0
ARM GAS  /tmp/ccLoXihA.s 			page 29


 1569 0000 08B5     		push	{r3, lr}
 1570              	.LCFI34:
 1571              		.cfi_def_cfa_offset 8
 1572              		.cfi_offset 3, -8
 1573              		.cfi_offset 14, -4
 1574              		.loc 1 430 0
 1575 0002 40F20000 		movw	r0, #:lower16:m1
 1576 0006 C0F20000 		movt	r0, #:upper16:m1
 1577 000a FFF7FEFF 		bl	chMtxInit
 1578              		.loc 1 431 0
 1579 000e 08BD     		pop	{r3, pc}
 1580              		.cfi_endproc
 1581              	.LFE26:
 1582              		.size	mtx5_setup, .-mtx5_setup
 1583              		.section	.text.mtx5_execute,"ax",%progbits
 1584              		.align	2
 1585              		.p2align 4,,15
 1586              		.thumb
 1587              		.thumb_func
 1588              		.type	mtx5_execute, %function
 1589              	mtx5_execute:
 1590              	.LFB27:
 1591              		.loc 1 433 0
 1592              		.cfi_startproc
 1593              		@ args = 0, pretend = 0, frame = 8
 1594              		@ frame_needed = 0, uses_anonymous_args = 0
 1595 0000 00B5     		push	{lr}
 1596              	.LCFI35:
 1597              		.cfi_def_cfa_offset 4
 1598              		.cfi_offset 14, -4
 1599 0002 83B0     		sub	sp, sp, #12
 1600              	.LCFI36:
 1601              		.cfi_def_cfa_offset 16
 1602              		.loc 1 437 0
 1603 0004 40F20003 		movw	r3, #:lower16:rlist
 1604 0008 C0F20003 		movt	r3, #:upper16:rlist
 1605 000c 9B69     		ldr	r3, [r3, #24]
 1606 000e 9B68     		ldr	r3, [r3, #8]
 1607 0010 0193     		str	r3, [sp, #4]
 1608              		.loc 1 439 0
 1609 0012 40F20000 		movw	r0, #:lower16:m1
 1610 0016 C0F20000 		movt	r0, #:upper16:m1
 1611 001a FFF7FEFF 		bl	chMtxTryLock
 1612 001e 0346     		mov	r3, r0
 1613 0020 8DF80330 		strb	r3, [sp, #3]
 1614              		.loc 1 440 0
 1615 0024 9DF80330 		ldrb	r3, [sp, #3]	@ zero_extendqisi2
 1616 0028 4FF00100 		mov	r0, #1
 1617 002c 1946     		mov	r1, r3
 1618 002e FFF7FEFF 		bl	_test_assert
 1619 0032 0346     		mov	r3, r0
 1620 0034 002B     		cmp	r3, #0
 1621 0036 40F09780 		bne	.L53
 1622              	.L54:
 1623              		.loc 1 442 0
 1624 003a 40F20000 		movw	r0, #:lower16:m1
 1625 003e C0F20000 		movt	r0, #:upper16:m1
ARM GAS  /tmp/ccLoXihA.s 			page 30


 1626 0042 FFF7FEFF 		bl	chMtxTryLock
 1627 0046 0346     		mov	r3, r0
 1628 0048 8DF80330 		strb	r3, [sp, #3]
 1629              		.loc 1 443 0
 1630 004c 9DF80330 		ldrb	r3, [sp, #3]	@ zero_extendqisi2
 1631 0050 002B     		cmp	r3, #0
 1632 0052 0CBF     		ite	eq
 1633 0054 0023     		moveq	r3, #0
 1634 0056 0123     		movne	r3, #1
 1635 0058 DBB2     		uxtb	r3, r3
 1636 005a 83F00103 		eor	r3, r3, #1
 1637 005e DBB2     		uxtb	r3, r3
 1638 0060 03F00103 		and	r3, r3, #1
 1639 0064 DBB2     		uxtb	r3, r3
 1640 0066 4FF00200 		mov	r0, #2
 1641 006a 1946     		mov	r1, r3
 1642 006c FFF7FEFF 		bl	_test_assert
 1643 0070 0346     		mov	r3, r0
 1644 0072 002B     		cmp	r3, #0
 1645 0074 78D1     		bne	.L53
 1646              	.L56:
 1647              	.LBB4:
 1648              		.loc 1 445 0
 1649 0076 4FF02003 		mov	r3, #32
 1650              	@ 445 "../../test/testmtx.c" 1
 1651 007a 83F31188 		msr     BASEPRI, r3
 1652              	@ 0 "" 2
 1653              		.thumb
 1654              	.LBE4:
 1655 007e FFF7FEFF 		bl	dbg_check_lock
 1656              		.loc 1 446 0
 1657 0082 FFF7FEFF 		bl	chMtxUnlockS
 1658              		.loc 1 447 0
 1659 0086 FFF7FEFF 		bl	dbg_check_unlock
 1660              	.LBB5:
 1661 008a 4FF00003 		mov	r3, #0
 1662              	@ 447 "../../test/testmtx.c" 1
 1663 008e 83F31188 		msr     BASEPRI, r3
 1664              	@ 0 "" 2
 1665              		.thumb
 1666              	.LBE5:
 1667              		.loc 1 449 0
 1668 0092 40F20003 		movw	r3, #:lower16:m1
 1669 0096 C0F20003 		movt	r3, #:upper16:m1
 1670 009a 1A68     		ldr	r2, [r3, #0]
 1671 009c 40F20003 		movw	r3, #:lower16:m1
 1672 00a0 C0F20003 		movt	r3, #:upper16:m1
 1673 00a4 9A42     		cmp	r2, r3
 1674 00a6 14BF     		ite	ne
 1675 00a8 0023     		movne	r3, #0
 1676 00aa 0123     		moveq	r3, #1
 1677 00ac DBB2     		uxtb	r3, r3
 1678 00ae 4FF00300 		mov	r0, #3
 1679 00b2 1946     		mov	r1, r3
 1680 00b4 FFF7FEFF 		bl	_test_assert
 1681 00b8 0346     		mov	r3, r0
 1682 00ba 002B     		cmp	r3, #0
ARM GAS  /tmp/ccLoXihA.s 			page 31


 1683 00bc 54D1     		bne	.L53
 1684              	.L57:
 1685              		.loc 1 450 0
 1686 00be 40F20003 		movw	r3, #:lower16:m1
 1687 00c2 C0F20003 		movt	r3, #:upper16:m1
 1688 00c6 9B68     		ldr	r3, [r3, #8]
 1689 00c8 002B     		cmp	r3, #0
 1690 00ca 14BF     		ite	ne
 1691 00cc 0023     		movne	r3, #0
 1692 00ce 0123     		moveq	r3, #1
 1693 00d0 DBB2     		uxtb	r3, r3
 1694 00d2 4FF00400 		mov	r0, #4
 1695 00d6 1946     		mov	r1, r3
 1696 00d8 FFF7FEFF 		bl	_test_assert
 1697 00dc 0346     		mov	r3, r0
 1698 00de 002B     		cmp	r3, #0
 1699 00e0 42D1     		bne	.L53
 1700              	.L58:
 1701              		.loc 1 451 0
 1702 00e2 40F20003 		movw	r3, #:lower16:rlist
 1703 00e6 C0F20003 		movt	r3, #:upper16:rlist
 1704 00ea 9B69     		ldr	r3, [r3, #24]
 1705 00ec 9A68     		ldr	r2, [r3, #8]
 1706 00ee 019B     		ldr	r3, [sp, #4]
 1707 00f0 9A42     		cmp	r2, r3
 1708 00f2 14BF     		ite	ne
 1709 00f4 0023     		movne	r3, #0
 1710 00f6 0123     		moveq	r3, #1
 1711 00f8 DBB2     		uxtb	r3, r3
 1712 00fa 4FF00500 		mov	r0, #5
 1713 00fe 1946     		mov	r1, r3
 1714 0100 FFF7FEFF 		bl	_test_assert
 1715 0104 0346     		mov	r3, r0
 1716 0106 002B     		cmp	r3, #0
 1717 0108 2ED1     		bne	.L53
 1718              	.L59:
 1719              		.loc 1 453 0
 1720 010a 40F20000 		movw	r0, #:lower16:m1
 1721 010e C0F20000 		movt	r0, #:upper16:m1
 1722 0112 FFF7FEFF 		bl	chMtxLock
 1723              		.loc 1 454 0
 1724 0116 FFF7FEFF 		bl	chMtxUnlockAll
 1725              		.loc 1 455 0
 1726 011a 40F20003 		movw	r3, #:lower16:m1
 1727 011e C0F20003 		movt	r3, #:upper16:m1
 1728 0122 1A68     		ldr	r2, [r3, #0]
 1729 0124 40F20003 		movw	r3, #:lower16:m1
 1730 0128 C0F20003 		movt	r3, #:upper16:m1
 1731 012c 9A42     		cmp	r2, r3
 1732 012e 14BF     		ite	ne
 1733 0130 0023     		movne	r3, #0
 1734 0132 0123     		moveq	r3, #1
 1735 0134 DBB2     		uxtb	r3, r3
 1736 0136 4FF00600 		mov	r0, #6
 1737 013a 1946     		mov	r1, r3
 1738 013c FFF7FEFF 		bl	_test_assert
 1739 0140 0346     		mov	r3, r0
ARM GAS  /tmp/ccLoXihA.s 			page 32


 1740 0142 002B     		cmp	r3, #0
 1741 0144 10D1     		bne	.L53
 1742              	.L60:
 1743              		.loc 1 456 0
 1744 0146 40F20003 		movw	r3, #:lower16:m1
 1745 014a C0F20003 		movt	r3, #:upper16:m1
 1746 014e 9B68     		ldr	r3, [r3, #8]
 1747 0150 002B     		cmp	r3, #0
 1748 0152 14BF     		ite	ne
 1749 0154 0023     		movne	r3, #0
 1750 0156 0123     		moveq	r3, #1
 1751 0158 DBB2     		uxtb	r3, r3
 1752 015a 4FF00700 		mov	r0, #7
 1753 015e 1946     		mov	r1, r3
 1754 0160 FFF7FEFF 		bl	_test_assert
 1755 0164 0346     		mov	r3, r0
 1756 0166 002B     		cmp	r3, #0
 1757              	.L53:
 1758              		.loc 1 457 0
 1759 0168 03B0     		add	sp, sp, #12
 1760 016a 00BD     		pop	{pc}
 1761              		.cfi_endproc
 1762              	.LFE27:
 1763              		.size	mtx5_execute, .-mtx5_execute
 1764              		.global	testmtx5
 1765 016c AFF30080 		.section	.rodata
 1766 00b5 000000   		.align	2
 1767              	.LC11:
 1768 00b8 4D757465 		.ascii	"Mutexes, status\000"
 1768      7865732C 
 1768      20737461 
 1768      74757300 
 1769              		.section	.rodata.testmtx5,"a",%progbits
 1770              		.align	2
 1771              		.type	testmtx5, %object
 1772              		.size	testmtx5, 16
 1773              	testmtx5:
 1774 0000 B8000000 		.word	.LC11
 1775 0004 00000000 		.word	mtx5_setup
 1776 0008 00000000 		.word	0
 1777 000c 00000000 		.word	mtx5_execute
 1778              		.section	.text.mtx6_setup,"ax",%progbits
 1779              		.align	2
 1780              		.p2align 4,,15
 1781              		.thumb
 1782              		.thumb_func
 1783              		.type	mtx6_setup, %function
 1784              	mtx6_setup:
 1785              	.LFB28:
 1786              		.loc 1 478 0
 1787              		.cfi_startproc
 1788              		@ args = 0, pretend = 0, frame = 0
 1789              		@ frame_needed = 0, uses_anonymous_args = 0
 1790 0000 08B5     		push	{r3, lr}
 1791              	.LCFI37:
 1792              		.cfi_def_cfa_offset 8
 1793              		.cfi_offset 3, -8
ARM GAS  /tmp/ccLoXihA.s 			page 33


 1794              		.cfi_offset 14, -4
 1795              		.loc 1 480 0
 1796 0002 40F20000 		movw	r0, #:lower16:c1
 1797 0006 C0F20000 		movt	r0, #:upper16:c1
 1798 000a FFF7FEFF 		bl	chCondInit
 1799              		.loc 1 481 0
 1800 000e 40F20000 		movw	r0, #:lower16:m1
 1801 0012 C0F20000 		movt	r0, #:upper16:m1
 1802 0016 FFF7FEFF 		bl	chMtxInit
 1803              		.loc 1 482 0
 1804 001a 08BD     		pop	{r3, pc}
 1805              		.cfi_endproc
 1806              	.LFE28:
 1807              		.size	mtx6_setup, .-mtx6_setup
 1808 001c AFF30080 		.section	.text.thread10,"ax",%progbits
 1809              		.align	2
 1810              		.p2align 4,,15
 1811              		.thumb
 1812              		.thumb_func
 1813              		.type	thread10, %function
 1814              	thread10:
 1815              	.LFB29:
 1816              		.loc 1 484 0
 1817              		.cfi_startproc
 1818              		@ args = 0, pretend = 0, frame = 8
 1819              		@ frame_needed = 0, uses_anonymous_args = 0
 1820 0000 00B5     		push	{lr}
 1821              	.LCFI38:
 1822              		.cfi_def_cfa_offset 4
 1823              		.cfi_offset 14, -4
 1824 0002 83B0     		sub	sp, sp, #12
 1825              	.LCFI39:
 1826              		.cfi_def_cfa_offset 16
 1827 0004 0190     		str	r0, [sp, #4]
 1828              		.loc 1 486 0
 1829 0006 40F20000 		movw	r0, #:lower16:m1
 1830 000a C0F20000 		movt	r0, #:upper16:m1
 1831 000e FFF7FEFF 		bl	chMtxLock
 1832              		.loc 1 487 0
 1833 0012 40F20000 		movw	r0, #:lower16:c1
 1834 0016 C0F20000 		movt	r0, #:upper16:c1
 1835 001a FFF7FEFF 		bl	chCondWait
 1836              		.loc 1 488 0
 1837 001e 019B     		ldr	r3, [sp, #4]
 1838 0020 1B78     		ldrb	r3, [r3, #0]	@ zero_extendqisi2
 1839 0022 1846     		mov	r0, r3
 1840 0024 FFF7FEFF 		bl	test_emit_token
 1841              		.loc 1 489 0
 1842 0028 FFF7FEFF 		bl	chMtxUnlock
 1843              		.loc 1 490 0
 1844 002c 4FF00003 		mov	r3, #0
 1845              		.loc 1 491 0
 1846 0030 1846     		mov	r0, r3
 1847 0032 03B0     		add	sp, sp, #12
 1848 0034 00BD     		pop	{pc}
 1849              		.cfi_endproc
 1850              	.LFE29:
ARM GAS  /tmp/ccLoXihA.s 			page 34


 1851              		.size	thread10, .-thread10
 1852 0036 00BFAFF3 		.section	.text.mtx6_execute,"ax",%progbits
 1852      0080AFF3 
 1852      0080
 1853              		.align	2
 1854              		.p2align 4,,15
 1855              		.thumb
 1856              		.thumb_func
 1857              		.type	mtx6_execute, %function
 1858              	mtx6_execute:
 1859              	.LFB30:
 1860              		.loc 1 493 0
 1861              		.cfi_startproc
 1862              		@ args = 0, pretend = 0, frame = 8
 1863              		@ frame_needed = 0, uses_anonymous_args = 0
 1864 0000 00B5     		push	{lr}
 1865              	.LCFI40:
 1866              		.cfi_def_cfa_offset 4
 1867              		.cfi_offset 14, -4
 1868 0002 85B0     		sub	sp, sp, #20
 1869              	.LCFI41:
 1870              		.cfi_def_cfa_offset 24
 1871              		.loc 1 495 0
 1872 0004 40F20003 		movw	r3, #:lower16:rlist
 1873 0008 C0F20003 		movt	r3, #:upper16:rlist
 1874 000c 9B69     		ldr	r3, [r3, #24]
 1875 000e 9B68     		ldr	r3, [r3, #8]
 1876 0010 0393     		str	r3, [sp, #12]
 1877              		.loc 1 496 0
 1878 0012 40F20003 		movw	r3, #:lower16:wa
 1879 0016 C0F20003 		movt	r3, #:upper16:wa
 1880 001a 1968     		ldr	r1, [r3, #0]
 1881 001c 039B     		ldr	r3, [sp, #12]
 1882 001e 03F10102 		add	r2, r3, #1
 1883 0022 40F20003 		movw	r3, #:lower16:.LC0
 1884 0026 C0F20003 		movt	r3, #:upper16:.LC0
 1885 002a 0093     		str	r3, [sp, #0]
 1886 002c 0846     		mov	r0, r1
 1887 002e 4FF49871 		mov	r1, #304
 1888 0032 40F20003 		movw	r3, #:lower16:thread10
 1889 0036 C0F20003 		movt	r3, #:upper16:thread10
 1890 003a FFF7FEFF 		bl	chThdCreateStatic
 1891 003e 0246     		mov	r2, r0
 1892 0040 40F20003 		movw	r3, #:lower16:threads
 1893 0044 C0F20003 		movt	r3, #:upper16:threads
 1894 0048 1A60     		str	r2, [r3, #0]
 1895              		.loc 1 497 0
 1896 004a 40F20003 		movw	r3, #:lower16:wa
 1897 004e C0F20003 		movt	r3, #:upper16:wa
 1898 0052 5968     		ldr	r1, [r3, #4]
 1899 0054 039B     		ldr	r3, [sp, #12]
 1900 0056 03F10202 		add	r2, r3, #2
 1901 005a 40F20003 		movw	r3, #:lower16:.LC1
 1902 005e C0F20003 		movt	r3, #:upper16:.LC1
 1903 0062 0093     		str	r3, [sp, #0]
 1904 0064 0846     		mov	r0, r1
 1905 0066 4FF49871 		mov	r1, #304
ARM GAS  /tmp/ccLoXihA.s 			page 35


 1906 006a 40F20003 		movw	r3, #:lower16:thread10
 1907 006e C0F20003 		movt	r3, #:upper16:thread10
 1908 0072 FFF7FEFF 		bl	chThdCreateStatic
 1909 0076 0246     		mov	r2, r0
 1910 0078 40F20003 		movw	r3, #:lower16:threads
 1911 007c C0F20003 		movt	r3, #:upper16:threads
 1912 0080 5A60     		str	r2, [r3, #4]
 1913              		.loc 1 498 0
 1914 0082 40F20003 		movw	r3, #:lower16:wa
 1915 0086 C0F20003 		movt	r3, #:upper16:wa
 1916 008a 9968     		ldr	r1, [r3, #8]
 1917 008c 039B     		ldr	r3, [sp, #12]
 1918 008e 03F10302 		add	r2, r3, #3
 1919 0092 40F20003 		movw	r3, #:lower16:.LC2
 1920 0096 C0F20003 		movt	r3, #:upper16:.LC2
 1921 009a 0093     		str	r3, [sp, #0]
 1922 009c 0846     		mov	r0, r1
 1923 009e 4FF49871 		mov	r1, #304
 1924 00a2 40F20003 		movw	r3, #:lower16:thread10
 1925 00a6 C0F20003 		movt	r3, #:upper16:thread10
 1926 00aa FFF7FEFF 		bl	chThdCreateStatic
 1927 00ae 0246     		mov	r2, r0
 1928 00b0 40F20003 		movw	r3, #:lower16:threads
 1929 00b4 C0F20003 		movt	r3, #:upper16:threads
 1930 00b8 9A60     		str	r2, [r3, #8]
 1931              		.loc 1 499 0
 1932 00ba 40F20003 		movw	r3, #:lower16:wa
 1933 00be C0F20003 		movt	r3, #:upper16:wa
 1934 00c2 D968     		ldr	r1, [r3, #12]
 1935 00c4 039B     		ldr	r3, [sp, #12]
 1936 00c6 03F10402 		add	r2, r3, #4
 1937 00ca 40F20003 		movw	r3, #:lower16:.LC3
 1938 00ce C0F20003 		movt	r3, #:upper16:.LC3
 1939 00d2 0093     		str	r3, [sp, #0]
 1940 00d4 0846     		mov	r0, r1
 1941 00d6 4FF49871 		mov	r1, #304
 1942 00da 40F20003 		movw	r3, #:lower16:thread10
 1943 00de C0F20003 		movt	r3, #:upper16:thread10
 1944 00e2 FFF7FEFF 		bl	chThdCreateStatic
 1945 00e6 0246     		mov	r2, r0
 1946 00e8 40F20003 		movw	r3, #:lower16:threads
 1947 00ec C0F20003 		movt	r3, #:upper16:threads
 1948 00f0 DA60     		str	r2, [r3, #12]
 1949              		.loc 1 500 0
 1950 00f2 40F20003 		movw	r3, #:lower16:wa
 1951 00f6 C0F20003 		movt	r3, #:upper16:wa
 1952 00fa 1969     		ldr	r1, [r3, #16]
 1953 00fc 039B     		ldr	r3, [sp, #12]
 1954 00fe 03F10502 		add	r2, r3, #5
 1955 0102 40F20003 		movw	r3, #:lower16:.LC4
 1956 0106 C0F20003 		movt	r3, #:upper16:.LC4
 1957 010a 0093     		str	r3, [sp, #0]
 1958 010c 0846     		mov	r0, r1
 1959 010e 4FF49871 		mov	r1, #304
 1960 0112 40F20003 		movw	r3, #:lower16:thread10
 1961 0116 C0F20003 		movt	r3, #:upper16:thread10
 1962 011a FFF7FEFF 		bl	chThdCreateStatic
ARM GAS  /tmp/ccLoXihA.s 			page 36


 1963 011e 0246     		mov	r2, r0
 1964 0120 40F20003 		movw	r3, #:lower16:threads
 1965 0124 C0F20003 		movt	r3, #:upper16:threads
 1966 0128 1A61     		str	r2, [r3, #16]
 1967              	.LBB6:
 1968              		.loc 1 501 0
 1969 012a 4FF02003 		mov	r3, #32
 1970              	@ 501 "../../test/testmtx.c" 1
 1971 012e 83F31188 		msr     BASEPRI, r3
 1972              	@ 0 "" 2
 1973              		.thumb
 1974              	.LBE6:
 1975 0132 FFF7FEFF 		bl	dbg_check_lock
 1976              		.loc 1 502 0
 1977 0136 40F20000 		movw	r0, #:lower16:c1
 1978 013a C0F20000 		movt	r0, #:upper16:c1
 1979 013e FFF7FEFF 		bl	chCondSignalI
 1980              		.loc 1 503 0
 1981 0142 40F20000 		movw	r0, #:lower16:c1
 1982 0146 C0F20000 		movt	r0, #:upper16:c1
 1983 014a FFF7FEFF 		bl	chCondSignalI
 1984              		.loc 1 504 0
 1985 014e 40F20000 		movw	r0, #:lower16:c1
 1986 0152 C0F20000 		movt	r0, #:upper16:c1
 1987 0156 FFF7FEFF 		bl	chCondSignalI
 1988              		.loc 1 505 0
 1989 015a 40F20000 		movw	r0, #:lower16:c1
 1990 015e C0F20000 		movt	r0, #:upper16:c1
 1991 0162 FFF7FEFF 		bl	chCondSignalI
 1992              		.loc 1 506 0
 1993 0166 40F20000 		movw	r0, #:lower16:c1
 1994 016a C0F20000 		movt	r0, #:upper16:c1
 1995 016e FFF7FEFF 		bl	chCondSignalI
 1996              		.loc 1 507 0
 1997 0172 FFF7FEFF 		bl	chSchRescheduleS
 1998              		.loc 1 508 0
 1999 0176 FFF7FEFF 		bl	dbg_check_unlock
 2000              	.LBB7:
 2001 017a 4FF00003 		mov	r3, #0
 2002              	@ 508 "../../test/testmtx.c" 1
 2003 017e 83F31188 		msr     BASEPRI, r3
 2004              	@ 0 "" 2
 2005              		.thumb
 2006              	.LBE7:
 2007              		.loc 1 509 0
 2008 0182 FFF7FEFF 		bl	test_wait_threads
 2009              		.loc 1 510 0
 2010 0186 4FF00100 		mov	r0, #1
 2011 018a 40F20001 		movw	r1, #:lower16:.LC5
 2012 018e C0F20001 		movt	r1, #:upper16:.LC5
 2013 0192 FFF7FEFF 		bl	_test_assert_sequence
 2014 0196 0346     		mov	r3, r0
 2015 0198 002B     		cmp	r3, #0
 2016              		.loc 1 511 0
 2017 019a 05B0     		add	sp, sp, #20
 2018 019c 00BD     		pop	{pc}
 2019              		.cfi_endproc
ARM GAS  /tmp/ccLoXihA.s 			page 37


 2020              	.LFE30:
 2021              		.size	mtx6_execute, .-mtx6_execute
 2022              		.global	testmtx6
 2023 019e 00BF     		.section	.rodata
 2024              		.align	2
 2025              	.LC12:
 2026 00c8 436F6E64 		.ascii	"CondVar, signal test\000"
 2026      5661722C 
 2026      20736967 
 2026      6E616C20 
 2026      74657374 
 2027              		.section	.rodata.testmtx6,"a",%progbits
 2028              		.align	2
 2029              		.type	testmtx6, %object
 2030              		.size	testmtx6, 16
 2031              	testmtx6:
 2032 0000 C8000000 		.word	.LC12
 2033 0004 00000000 		.word	mtx6_setup
 2034 0008 00000000 		.word	0
 2035 000c 00000000 		.word	mtx6_execute
 2036              		.section	.text.mtx7_setup,"ax",%progbits
 2037              		.align	2
 2038              		.p2align 4,,15
 2039              		.thumb
 2040              		.thumb_func
 2041              		.type	mtx7_setup, %function
 2042              	mtx7_setup:
 2043              	.LFB31:
 2044              		.loc 1 530 0
 2045              		.cfi_startproc
 2046              		@ args = 0, pretend = 0, frame = 0
 2047              		@ frame_needed = 0, uses_anonymous_args = 0
 2048 0000 08B5     		push	{r3, lr}
 2049              	.LCFI42:
 2050              		.cfi_def_cfa_offset 8
 2051              		.cfi_offset 3, -8
 2052              		.cfi_offset 14, -4
 2053              		.loc 1 532 0
 2054 0002 40F20000 		movw	r0, #:lower16:c1
 2055 0006 C0F20000 		movt	r0, #:upper16:c1
 2056 000a FFF7FEFF 		bl	chCondInit
 2057              		.loc 1 533 0
 2058 000e 40F20000 		movw	r0, #:lower16:m1
 2059 0012 C0F20000 		movt	r0, #:upper16:m1
 2060 0016 FFF7FEFF 		bl	chMtxInit
 2061              		.loc 1 534 0
 2062 001a 08BD     		pop	{r3, pc}
 2063              		.cfi_endproc
 2064              	.LFE31:
 2065              		.size	mtx7_setup, .-mtx7_setup
 2066 001c AFF30080 		.section	.text.mtx7_execute,"ax",%progbits
 2067              		.align	2
 2068              		.p2align 4,,15
 2069              		.thumb
 2070              		.thumb_func
 2071              		.type	mtx7_execute, %function
 2072              	mtx7_execute:
ARM GAS  /tmp/ccLoXihA.s 			page 38


 2073              	.LFB32:
 2074              		.loc 1 536 0
 2075              		.cfi_startproc
 2076              		@ args = 0, pretend = 0, frame = 8
 2077              		@ frame_needed = 0, uses_anonymous_args = 0
 2078 0000 00B5     		push	{lr}
 2079              	.LCFI43:
 2080              		.cfi_def_cfa_offset 4
 2081              		.cfi_offset 14, -4
 2082 0002 85B0     		sub	sp, sp, #20
 2083              	.LCFI44:
 2084              		.cfi_def_cfa_offset 24
 2085              		.loc 1 538 0
 2086 0004 40F20003 		movw	r3, #:lower16:rlist
 2087 0008 C0F20003 		movt	r3, #:upper16:rlist
 2088 000c 9B69     		ldr	r3, [r3, #24]
 2089 000e 9B68     		ldr	r3, [r3, #8]
 2090 0010 0393     		str	r3, [sp, #12]
 2091              		.loc 1 539 0
 2092 0012 40F20003 		movw	r3, #:lower16:wa
 2093 0016 C0F20003 		movt	r3, #:upper16:wa
 2094 001a 1968     		ldr	r1, [r3, #0]
 2095 001c 039B     		ldr	r3, [sp, #12]
 2096 001e 03F10102 		add	r2, r3, #1
 2097 0022 40F20003 		movw	r3, #:lower16:.LC0
 2098 0026 C0F20003 		movt	r3, #:upper16:.LC0
 2099 002a 0093     		str	r3, [sp, #0]
 2100 002c 0846     		mov	r0, r1
 2101 002e 4FF49871 		mov	r1, #304
 2102 0032 40F20003 		movw	r3, #:lower16:thread10
 2103 0036 C0F20003 		movt	r3, #:upper16:thread10
 2104 003a FFF7FEFF 		bl	chThdCreateStatic
 2105 003e 0246     		mov	r2, r0
 2106 0040 40F20003 		movw	r3, #:lower16:threads
 2107 0044 C0F20003 		movt	r3, #:upper16:threads
 2108 0048 1A60     		str	r2, [r3, #0]
 2109              		.loc 1 540 0
 2110 004a 40F20003 		movw	r3, #:lower16:wa
 2111 004e C0F20003 		movt	r3, #:upper16:wa
 2112 0052 5968     		ldr	r1, [r3, #4]
 2113 0054 039B     		ldr	r3, [sp, #12]
 2114 0056 03F10202 		add	r2, r3, #2
 2115 005a 40F20003 		movw	r3, #:lower16:.LC1
 2116 005e C0F20003 		movt	r3, #:upper16:.LC1
 2117 0062 0093     		str	r3, [sp, #0]
 2118 0064 0846     		mov	r0, r1
 2119 0066 4FF49871 		mov	r1, #304
 2120 006a 40F20003 		movw	r3, #:lower16:thread10
 2121 006e C0F20003 		movt	r3, #:upper16:thread10
 2122 0072 FFF7FEFF 		bl	chThdCreateStatic
 2123 0076 0246     		mov	r2, r0
 2124 0078 40F20003 		movw	r3, #:lower16:threads
 2125 007c C0F20003 		movt	r3, #:upper16:threads
 2126 0080 5A60     		str	r2, [r3, #4]
 2127              		.loc 1 541 0
 2128 0082 40F20003 		movw	r3, #:lower16:wa
 2129 0086 C0F20003 		movt	r3, #:upper16:wa
ARM GAS  /tmp/ccLoXihA.s 			page 39


 2130 008a 9968     		ldr	r1, [r3, #8]
 2131 008c 039B     		ldr	r3, [sp, #12]
 2132 008e 03F10302 		add	r2, r3, #3
 2133 0092 40F20003 		movw	r3, #:lower16:.LC2
 2134 0096 C0F20003 		movt	r3, #:upper16:.LC2
 2135 009a 0093     		str	r3, [sp, #0]
 2136 009c 0846     		mov	r0, r1
 2137 009e 4FF49871 		mov	r1, #304
 2138 00a2 40F20003 		movw	r3, #:lower16:thread10
 2139 00a6 C0F20003 		movt	r3, #:upper16:thread10
 2140 00aa FFF7FEFF 		bl	chThdCreateStatic
 2141 00ae 0246     		mov	r2, r0
 2142 00b0 40F20003 		movw	r3, #:lower16:threads
 2143 00b4 C0F20003 		movt	r3, #:upper16:threads
 2144 00b8 9A60     		str	r2, [r3, #8]
 2145              		.loc 1 542 0
 2146 00ba 40F20003 		movw	r3, #:lower16:wa
 2147 00be C0F20003 		movt	r3, #:upper16:wa
 2148 00c2 D968     		ldr	r1, [r3, #12]
 2149 00c4 039B     		ldr	r3, [sp, #12]
 2150 00c6 03F10402 		add	r2, r3, #4
 2151 00ca 40F20003 		movw	r3, #:lower16:.LC3
 2152 00ce C0F20003 		movt	r3, #:upper16:.LC3
 2153 00d2 0093     		str	r3, [sp, #0]
 2154 00d4 0846     		mov	r0, r1
 2155 00d6 4FF49871 		mov	r1, #304
 2156 00da 40F20003 		movw	r3, #:lower16:thread10
 2157 00de C0F20003 		movt	r3, #:upper16:thread10
 2158 00e2 FFF7FEFF 		bl	chThdCreateStatic
 2159 00e6 0246     		mov	r2, r0
 2160 00e8 40F20003 		movw	r3, #:lower16:threads
 2161 00ec C0F20003 		movt	r3, #:upper16:threads
 2162 00f0 DA60     		str	r2, [r3, #12]
 2163              		.loc 1 543 0
 2164 00f2 40F20003 		movw	r3, #:lower16:wa
 2165 00f6 C0F20003 		movt	r3, #:upper16:wa
 2166 00fa 1969     		ldr	r1, [r3, #16]
 2167 00fc 039B     		ldr	r3, [sp, #12]
 2168 00fe 03F10502 		add	r2, r3, #5
 2169 0102 40F20003 		movw	r3, #:lower16:.LC4
 2170 0106 C0F20003 		movt	r3, #:upper16:.LC4
 2171 010a 0093     		str	r3, [sp, #0]
 2172 010c 0846     		mov	r0, r1
 2173 010e 4FF49871 		mov	r1, #304
 2174 0112 40F20003 		movw	r3, #:lower16:thread10
 2175 0116 C0F20003 		movt	r3, #:upper16:thread10
 2176 011a FFF7FEFF 		bl	chThdCreateStatic
 2177 011e 0246     		mov	r2, r0
 2178 0120 40F20003 		movw	r3, #:lower16:threads
 2179 0124 C0F20003 		movt	r3, #:upper16:threads
 2180 0128 1A61     		str	r2, [r3, #16]
 2181              		.loc 1 544 0
 2182 012a 40F20000 		movw	r0, #:lower16:c1
 2183 012e C0F20000 		movt	r0, #:upper16:c1
 2184 0132 FFF7FEFF 		bl	chCondBroadcast
 2185              		.loc 1 545 0
 2186 0136 FFF7FEFF 		bl	test_wait_threads
ARM GAS  /tmp/ccLoXihA.s 			page 40


 2187              		.loc 1 546 0
 2188 013a 4FF00100 		mov	r0, #1
 2189 013e 40F20001 		movw	r1, #:lower16:.LC5
 2190 0142 C0F20001 		movt	r1, #:upper16:.LC5
 2191 0146 FFF7FEFF 		bl	_test_assert_sequence
 2192 014a 0346     		mov	r3, r0
 2193 014c 002B     		cmp	r3, #0
 2194              		.loc 1 547 0
 2195 014e 05B0     		add	sp, sp, #20
 2196 0150 00BD     		pop	{pc}
 2197              		.cfi_endproc
 2198              	.LFE32:
 2199              		.size	mtx7_execute, .-mtx7_execute
 2200              		.global	testmtx7
 2201 0152 00BFAFF3 		.section	.rodata
 2201      0080AFF3 
 2201      0080AFF3 
 2201      0080
 2202 00dd 000000   		.align	2
 2203              	.LC13:
 2204 00e0 436F6E64 		.ascii	"CondVar, broadcast test\000"
 2204      5661722C 
 2204      2062726F 
 2204      61646361 
 2204      73742074 
 2205              		.section	.rodata.testmtx7,"a",%progbits
 2206              		.align	2
 2207              		.type	testmtx7, %object
 2208              		.size	testmtx7, 16
 2209              	testmtx7:
 2210 0000 E0000000 		.word	.LC13
 2211 0004 00000000 		.word	mtx7_setup
 2212 0008 00000000 		.word	0
 2213 000c 00000000 		.word	mtx7_execute
 2214              		.section	.text.mtx8_setup,"ax",%progbits
 2215              		.align	2
 2216              		.p2align 4,,15
 2217              		.thumb
 2218              		.thumb_func
 2219              		.type	mtx8_setup, %function
 2220              	mtx8_setup:
 2221              	.LFB33:
 2222              		.loc 1 565 0
 2223              		.cfi_startproc
 2224              		@ args = 0, pretend = 0, frame = 0
 2225              		@ frame_needed = 0, uses_anonymous_args = 0
 2226 0000 08B5     		push	{r3, lr}
 2227              	.LCFI45:
 2228              		.cfi_def_cfa_offset 8
 2229              		.cfi_offset 3, -8
 2230              		.cfi_offset 14, -4
 2231              		.loc 1 567 0
 2232 0002 40F20000 		movw	r0, #:lower16:c1
 2233 0006 C0F20000 		movt	r0, #:upper16:c1
 2234 000a FFF7FEFF 		bl	chCondInit
 2235              		.loc 1 568 0
 2236 000e 40F20000 		movw	r0, #:lower16:m1
ARM GAS  /tmp/ccLoXihA.s 			page 41


 2237 0012 C0F20000 		movt	r0, #:upper16:m1
 2238 0016 FFF7FEFF 		bl	chMtxInit
 2239              		.loc 1 569 0
 2240 001a 40F20000 		movw	r0, #:lower16:m2
 2241 001e C0F20000 		movt	r0, #:upper16:m2
 2242 0022 FFF7FEFF 		bl	chMtxInit
 2243              		.loc 1 570 0
 2244 0026 08BD     		pop	{r3, pc}
 2245              		.cfi_endproc
 2246              	.LFE33:
 2247              		.size	mtx8_setup, .-mtx8_setup
 2248 0028 AFF30080 		.section	.text.thread11,"ax",%progbits
 2248      AFF30080 
 2249              		.align	2
 2250              		.p2align 4,,15
 2251              		.thumb
 2252              		.thumb_func
 2253              		.type	thread11, %function
 2254              	thread11:
 2255              	.LFB34:
 2256              		.loc 1 572 0
 2257              		.cfi_startproc
 2258              		@ args = 0, pretend = 0, frame = 8
 2259              		@ frame_needed = 0, uses_anonymous_args = 0
 2260 0000 00B5     		push	{lr}
 2261              	.LCFI46:
 2262              		.cfi_def_cfa_offset 4
 2263              		.cfi_offset 14, -4
 2264 0002 83B0     		sub	sp, sp, #12
 2265              	.LCFI47:
 2266              		.cfi_def_cfa_offset 16
 2267 0004 0190     		str	r0, [sp, #4]
 2268              		.loc 1 574 0
 2269 0006 40F20000 		movw	r0, #:lower16:m2
 2270 000a C0F20000 		movt	r0, #:upper16:m2
 2271 000e FFF7FEFF 		bl	chMtxLock
 2272              		.loc 1 575 0
 2273 0012 40F20000 		movw	r0, #:lower16:m1
 2274 0016 C0F20000 		movt	r0, #:upper16:m1
 2275 001a FFF7FEFF 		bl	chMtxLock
 2276              		.loc 1 577 0
 2277 001e 40F20000 		movw	r0, #:lower16:c1
 2278 0022 C0F20000 		movt	r0, #:upper16:c1
 2279 0026 4FF0FF31 		mov	r1, #-1
 2280 002a FFF7FEFF 		bl	chCondWaitTimeout
 2281              		.loc 1 581 0
 2282 002e 019B     		ldr	r3, [sp, #4]
 2283 0030 1B78     		ldrb	r3, [r3, #0]	@ zero_extendqisi2
 2284 0032 1846     		mov	r0, r3
 2285 0034 FFF7FEFF 		bl	test_emit_token
 2286              		.loc 1 582 0
 2287 0038 FFF7FEFF 		bl	chMtxUnlock
 2288              		.loc 1 583 0
 2289 003c FFF7FEFF 		bl	chMtxUnlock
 2290              		.loc 1 584 0
 2291 0040 4FF00003 		mov	r3, #0
 2292              		.loc 1 585 0
ARM GAS  /tmp/ccLoXihA.s 			page 42


 2293 0044 1846     		mov	r0, r3
 2294 0046 03B0     		add	sp, sp, #12
 2295 0048 00BD     		pop	{pc}
 2296              		.cfi_endproc
 2297              	.LFE34:
 2298              		.size	thread11, .-thread11
 2299 004a 00BFAFF3 		.section	.text.thread12,"ax",%progbits
 2299      0080
 2300              		.align	2
 2301              		.p2align 4,,15
 2302              		.thumb
 2303              		.thumb_func
 2304              		.type	thread12, %function
 2305              	thread12:
 2306              	.LFB35:
 2307              		.loc 1 587 0
 2308              		.cfi_startproc
 2309              		@ args = 0, pretend = 0, frame = 8
 2310              		@ frame_needed = 0, uses_anonymous_args = 0
 2311 0000 00B5     		push	{lr}
 2312              	.LCFI48:
 2313              		.cfi_def_cfa_offset 4
 2314              		.cfi_offset 14, -4
 2315 0002 83B0     		sub	sp, sp, #12
 2316              	.LCFI49:
 2317              		.cfi_def_cfa_offset 16
 2318 0004 0190     		str	r0, [sp, #4]
 2319              		.loc 1 589 0
 2320 0006 40F20000 		movw	r0, #:lower16:m2
 2321 000a C0F20000 		movt	r0, #:upper16:m2
 2322 000e FFF7FEFF 		bl	chMtxLock
 2323              		.loc 1 590 0
 2324 0012 019B     		ldr	r3, [sp, #4]
 2325 0014 1B78     		ldrb	r3, [r3, #0]	@ zero_extendqisi2
 2326 0016 1846     		mov	r0, r3
 2327 0018 FFF7FEFF 		bl	test_emit_token
 2328              		.loc 1 591 0
 2329 001c FFF7FEFF 		bl	chMtxUnlock
 2330              		.loc 1 592 0
 2331 0020 4FF00003 		mov	r3, #0
 2332              		.loc 1 593 0
 2333 0024 1846     		mov	r0, r3
 2334 0026 03B0     		add	sp, sp, #12
 2335 0028 00BD     		pop	{pc}
 2336              		.cfi_endproc
 2337              	.LFE35:
 2338              		.size	thread12, .-thread12
 2339 002a 00BFAFF3 		.section	.text.mtx8_execute,"ax",%progbits
 2339      0080
 2340              		.align	2
 2341              		.p2align 4,,15
 2342              		.thumb
 2343              		.thumb_func
 2344              		.type	mtx8_execute, %function
 2345              	mtx8_execute:
 2346              	.LFB36:
 2347              		.loc 1 595 0
ARM GAS  /tmp/ccLoXihA.s 			page 43


 2348              		.cfi_startproc
 2349              		@ args = 0, pretend = 0, frame = 8
 2350              		@ frame_needed = 0, uses_anonymous_args = 0
 2351 0000 00B5     		push	{lr}
 2352              	.LCFI50:
 2353              		.cfi_def_cfa_offset 4
 2354              		.cfi_offset 14, -4
 2355 0002 85B0     		sub	sp, sp, #20
 2356              	.LCFI51:
 2357              		.cfi_def_cfa_offset 24
 2358              		.loc 1 597 0
 2359 0004 40F20003 		movw	r3, #:lower16:rlist
 2360 0008 C0F20003 		movt	r3, #:upper16:rlist
 2361 000c 9B69     		ldr	r3, [r3, #24]
 2362 000e 9B68     		ldr	r3, [r3, #8]
 2363 0010 0393     		str	r3, [sp, #12]
 2364              		.loc 1 598 0
 2365 0012 40F20003 		movw	r3, #:lower16:wa
 2366 0016 C0F20003 		movt	r3, #:upper16:wa
 2367 001a 1968     		ldr	r1, [r3, #0]
 2368 001c 039B     		ldr	r3, [sp, #12]
 2369 001e 03F10102 		add	r2, r3, #1
 2370 0022 40F20003 		movw	r3, #:lower16:.LC4
 2371 0026 C0F20003 		movt	r3, #:upper16:.LC4
 2372 002a 0093     		str	r3, [sp, #0]
 2373 002c 0846     		mov	r0, r1
 2374 002e 4FF49871 		mov	r1, #304
 2375 0032 40F20003 		movw	r3, #:lower16:thread11
 2376 0036 C0F20003 		movt	r3, #:upper16:thread11
 2377 003a FFF7FEFF 		bl	chThdCreateStatic
 2378 003e 0246     		mov	r2, r0
 2379 0040 40F20003 		movw	r3, #:lower16:threads
 2380 0044 C0F20003 		movt	r3, #:upper16:threads
 2381 0048 1A60     		str	r2, [r3, #0]
 2382              		.loc 1 599 0
 2383 004a 40F20003 		movw	r3, #:lower16:wa
 2384 004e C0F20003 		movt	r3, #:upper16:wa
 2385 0052 5968     		ldr	r1, [r3, #4]
 2386 0054 039B     		ldr	r3, [sp, #12]
 2387 0056 03F10202 		add	r2, r3, #2
 2388 005a 40F20003 		movw	r3, #:lower16:.LC2
 2389 005e C0F20003 		movt	r3, #:upper16:.LC2
 2390 0062 0093     		str	r3, [sp, #0]
 2391 0064 0846     		mov	r0, r1
 2392 0066 4FF49871 		mov	r1, #304
 2393 006a 40F20003 		movw	r3, #:lower16:thread10
 2394 006e C0F20003 		movt	r3, #:upper16:thread10
 2395 0072 FFF7FEFF 		bl	chThdCreateStatic
 2396 0076 0246     		mov	r2, r0
 2397 0078 40F20003 		movw	r3, #:lower16:threads
 2398 007c C0F20003 		movt	r3, #:upper16:threads
 2399 0080 5A60     		str	r2, [r3, #4]
 2400              		.loc 1 600 0
 2401 0082 40F20003 		movw	r3, #:lower16:wa
 2402 0086 C0F20003 		movt	r3, #:upper16:wa
 2403 008a 9968     		ldr	r1, [r3, #8]
 2404 008c 039B     		ldr	r3, [sp, #12]
ARM GAS  /tmp/ccLoXihA.s 			page 44


 2405 008e 03F10302 		add	r2, r3, #3
 2406 0092 40F20003 		movw	r3, #:lower16:.LC3
 2407 0096 C0F20003 		movt	r3, #:upper16:.LC3
 2408 009a 0093     		str	r3, [sp, #0]
 2409 009c 0846     		mov	r0, r1
 2410 009e 4FF49871 		mov	r1, #304
 2411 00a2 40F20003 		movw	r3, #:lower16:thread12
 2412 00a6 C0F20003 		movt	r3, #:upper16:thread12
 2413 00aa FFF7FEFF 		bl	chThdCreateStatic
 2414 00ae 0246     		mov	r2, r0
 2415 00b0 40F20003 		movw	r3, #:lower16:threads
 2416 00b4 C0F20003 		movt	r3, #:upper16:threads
 2417 00b8 9A60     		str	r2, [r3, #8]
 2418              		.loc 1 601 0
 2419 00ba 40F20000 		movw	r0, #:lower16:c1
 2420 00be C0F20000 		movt	r0, #:upper16:c1
 2421 00c2 FFF7FEFF 		bl	chCondSignal
 2422              		.loc 1 602 0
 2423 00c6 40F20000 		movw	r0, #:lower16:c1
 2424 00ca C0F20000 		movt	r0, #:upper16:c1
 2425 00ce FFF7FEFF 		bl	chCondSignal
 2426              		.loc 1 603 0
 2427 00d2 FFF7FEFF 		bl	test_wait_threads
 2428              		.loc 1 604 0
 2429 00d6 4FF00100 		mov	r0, #1
 2430 00da 40F20001 		movw	r1, #:lower16:.LC7
 2431 00de C0F20001 		movt	r1, #:upper16:.LC7
 2432 00e2 FFF7FEFF 		bl	_test_assert_sequence
 2433 00e6 0346     		mov	r3, r0
 2434 00e8 002B     		cmp	r3, #0
 2435              		.loc 1 605 0
 2436 00ea 05B0     		add	sp, sp, #20
 2437 00ec 00BD     		pop	{pc}
 2438              		.cfi_endproc
 2439              	.LFE36:
 2440              		.size	mtx8_execute, .-mtx8_execute
 2441              		.global	testmtx8
 2442 00ee 00BF     		.section	.rodata
 2443              		.align	2
 2444              	.LC14:
 2445 00f8 436F6E64 		.ascii	"CondVar, boost test\000"
 2445      5661722C 
 2445      20626F6F 
 2445      73742074 
 2445      65737400 
 2446              		.section	.rodata.testmtx8,"a",%progbits
 2447              		.align	2
 2448              		.type	testmtx8, %object
 2449              		.size	testmtx8, 16
 2450              	testmtx8:
 2451 0000 F8000000 		.word	.LC14
 2452 0004 00000000 		.word	mtx8_setup
 2453 0008 00000000 		.word	0
 2454 000c 00000000 		.word	mtx8_execute
 2455              		.global	patternmtx
 2456              		.section	.rodata.patternmtx,"a",%progbits
 2457              		.align	2
ARM GAS  /tmp/ccLoXihA.s 			page 45


 2458              		.type	patternmtx, %object
 2459              		.size	patternmtx, 36
 2460              	patternmtx:
 2461 0000 00000000 		.word	testmtx1
 2462 0004 00000000 		.word	testmtx2
 2463 0008 00000000 		.word	testmtx3
 2464 000c 00000000 		.word	testmtx4
 2465 0010 00000000 		.word	testmtx5
 2466 0014 00000000 		.word	testmtx6
 2467 0018 00000000 		.word	testmtx7
 2468 001c 00000000 		.word	testmtx8
 2469 0020 00000000 		.word	0
 2470              		.text
 2471              	.Letext0:
 2472              		.file 2 "/usr/bin/../lib/gcc/arm-none-eabi/4.7.4/../../../../arm-none-eabi/include/stdint.h"
 2473              		.file 3 "../../os/ports/GCC/ARMCMx/chtypes.h"
 2474              		.file 4 "../../os/kernel/include/chlists.h"
 2475              		.file 5 "../../os/kernel/include/chthreads.h"
 2476              		.file 6 "../../os/ports/GCC/ARMCMx/chcore_v7m.h"
 2477              		.file 7 "../../os/kernel/include/chvt.h"
 2478              		.file 8 "../../os/kernel/include/chschd.h"
 2479              		.file 9 "../../os/kernel/include/chmtx.h"
 2480              		.file 10 "../../os/kernel/include/chcond.h"
 2481              		.file 11 "../../test/test.h"
 2482              		.section	.debug_info,"",%progbits
 2483              	.Ldebug_info0:
 2484 0000 160C0000 		.4byte	0xc16
 2485 0004 0200     		.2byte	0x2
 2486 0006 00000000 		.4byte	.Ldebug_abbrev0
 2487 000a 04       		.byte	0x4
 2488 000b 01       		.uleb128 0x1
 2489 000c D7010000 		.4byte	.LASF127
 2490 0010 01       		.byte	0x1
 2491 0011 FE000000 		.4byte	.LASF128
 2492 0015 5F020000 		.4byte	.LASF129
 2493 0019 00000000 		.4byte	.Ldebug_ranges0+0
 2494 001d 00000000 		.4byte	0
 2495 0021 00000000 		.4byte	0
 2496 0025 00000000 		.4byte	.Ldebug_line0
 2497 0029 02       		.uleb128 0x2
 2498 002a 04       		.byte	0x4
 2499 002b 05       		.byte	0x5
 2500 002c 696E7400 		.ascii	"int\000"
 2501 0030 03       		.uleb128 0x3
 2502 0031 04       		.byte	0x4
 2503 0032 07       		.byte	0x7
 2504 0033 37010000 		.4byte	.LASF0
 2505 0037 03       		.uleb128 0x3
 2506 0038 01       		.byte	0x1
 2507 0039 06       		.byte	0x6
 2508 003a 97000000 		.4byte	.LASF1
 2509 003e 04       		.uleb128 0x4
 2510 003f C9040000 		.4byte	.LASF5
 2511 0043 02       		.byte	0x2
 2512 0044 2A       		.byte	0x2a
 2513 0045 49000000 		.4byte	0x49
 2514 0049 03       		.uleb128 0x3
ARM GAS  /tmp/ccLoXihA.s 			page 46


 2515 004a 01       		.byte	0x1
 2516 004b 08       		.byte	0x8
 2517 004c 3C030000 		.4byte	.LASF2
 2518 0050 03       		.uleb128 0x3
 2519 0051 02       		.byte	0x2
 2520 0052 05       		.byte	0x5
 2521 0053 5F030000 		.4byte	.LASF3
 2522 0057 03       		.uleb128 0x3
 2523 0058 02       		.byte	0x2
 2524 0059 07       		.byte	0x7
 2525 005a 7E010000 		.4byte	.LASF4
 2526 005e 04       		.uleb128 0x4
 2527 005f 34030000 		.4byte	.LASF6
 2528 0063 02       		.byte	0x2
 2529 0064 4F       		.byte	0x4f
 2530 0065 69000000 		.4byte	0x69
 2531 0069 03       		.uleb128 0x3
 2532 006a 04       		.byte	0x4
 2533 006b 05       		.byte	0x5
 2534 006c CC000000 		.4byte	.LASF7
 2535 0070 04       		.uleb128 0x4
 2536 0071 C3030000 		.4byte	.LASF8
 2537 0075 02       		.byte	0x2
 2538 0076 50       		.byte	0x50
 2539 0077 7B000000 		.4byte	0x7b
 2540 007b 03       		.uleb128 0x3
 2541 007c 04       		.byte	0x4
 2542 007d 07       		.byte	0x7
 2543 007e 56010000 		.4byte	.LASF9
 2544 0082 03       		.uleb128 0x3
 2545 0083 08       		.byte	0x8
 2546 0084 05       		.byte	0x5
 2547 0085 89000000 		.4byte	.LASF10
 2548 0089 04       		.uleb128 0x4
 2549 008a 12000000 		.4byte	.LASF11
 2550 008e 02       		.byte	0x2
 2551 008f 78       		.byte	0x78
 2552 0090 94000000 		.4byte	0x94
 2553 0094 03       		.uleb128 0x3
 2554 0095 08       		.byte	0x8
 2555 0096 07       		.byte	0x7
 2556 0097 4A000000 		.4byte	.LASF12
 2557 009b 04       		.uleb128 0x4
 2558 009c AB000000 		.4byte	.LASF13
 2559 00a0 03       		.byte	0x3
 2560 00a1 24       		.byte	0x24
 2561 00a2 A6000000 		.4byte	0xa6
 2562 00a6 03       		.uleb128 0x3
 2563 00a7 01       		.byte	0x1
 2564 00a8 02       		.byte	0x2
 2565 00a9 2E030000 		.4byte	.LASF14
 2566 00ad 04       		.uleb128 0x4
 2567 00ae B1010000 		.4byte	.LASF15
 2568 00b2 03       		.byte	0x3
 2569 00b3 25       		.byte	0x25
 2570 00b4 3E000000 		.4byte	0x3e
 2571 00b8 04       		.uleb128 0x4
ARM GAS  /tmp/ccLoXihA.s 			page 47


 2572 00b9 D5000000 		.4byte	.LASF16
 2573 00bd 03       		.byte	0x3
 2574 00be 26       		.byte	0x26
 2575 00bf 3E000000 		.4byte	0x3e
 2576 00c3 04       		.uleb128 0x4
 2577 00c4 0F030000 		.4byte	.LASF17
 2578 00c8 03       		.byte	0x3
 2579 00c9 27       		.byte	0x27
 2580 00ca 3E000000 		.4byte	0x3e
 2581 00ce 04       		.uleb128 0x4
 2582 00cf BA000000 		.4byte	.LASF18
 2583 00d3 03       		.byte	0x3
 2584 00d4 28       		.byte	0x28
 2585 00d5 3E000000 		.4byte	0x3e
 2586 00d9 04       		.uleb128 0x4
 2587 00da 26030000 		.4byte	.LASF19
 2588 00de 03       		.byte	0x3
 2589 00df 29       		.byte	0x29
 2590 00e0 70000000 		.4byte	0x70
 2591 00e4 04       		.uleb128 0x4
 2592 00e5 91010000 		.4byte	.LASF20
 2593 00e9 03       		.byte	0x3
 2594 00ea 2A       		.byte	0x2a
 2595 00eb 5E000000 		.4byte	0x5e
 2596 00ef 04       		.uleb128 0x4
 2597 00f0 C5010000 		.4byte	.LASF21
 2598 00f4 03       		.byte	0x3
 2599 00f5 2C       		.byte	0x2c
 2600 00f6 70000000 		.4byte	0x70
 2601 00fa 04       		.uleb128 0x4
 2602 00fb 3E040000 		.4byte	.LASF22
 2603 00ff 03       		.byte	0x3
 2604 0100 2E       		.byte	0x2e
 2605 0101 70000000 		.4byte	0x70
 2606 0105 04       		.uleb128 0x4
 2607 0106 A0030000 		.4byte	.LASF23
 2608 010a 04       		.byte	0x4
 2609 010b 23       		.byte	0x23
 2610 010c 10010000 		.4byte	0x110
 2611 0110 05       		.uleb128 0x5
 2612 0111 A0030000 		.4byte	.LASF23
 2613 0115 4C       		.byte	0x4c
 2614 0116 05       		.byte	0x5
 2615 0117 57       		.byte	0x57
 2616 0118 43020000 		.4byte	0x243
 2617 011c 06       		.uleb128 0x6
 2618 011d 91030000 		.4byte	.LASF24
 2619 0121 05       		.byte	0x5
 2620 0122 58       		.byte	0x58
 2621 0123 68020000 		.4byte	0x268
 2622 0127 02       		.byte	0x2
 2623 0128 23       		.byte	0x23
 2624 0129 00       		.uleb128 0
 2625 012a 06       		.uleb128 0x6
 2626 012b 17030000 		.4byte	.LASF25
 2627 012f 05       		.byte	0x5
 2628 0130 5A       		.byte	0x5a
ARM GAS  /tmp/ccLoXihA.s 			page 48


 2629 0131 68020000 		.4byte	0x268
 2630 0135 02       		.byte	0x2
 2631 0136 23       		.byte	0x23
 2632 0137 04       		.uleb128 0x4
 2633 0138 06       		.uleb128 0x6
 2634 0139 82000000 		.4byte	.LASF26
 2635 013d 05       		.byte	0x5
 2636 013e 5C       		.byte	0x5c
 2637 013f D9000000 		.4byte	0xd9
 2638 0143 02       		.byte	0x2
 2639 0144 23       		.byte	0x23
 2640 0145 08       		.uleb128 0x8
 2641 0146 06       		.uleb128 0x6
 2642 0147 2A050000 		.4byte	.LASF27
 2643 014b 05       		.byte	0x5
 2644 014c 5D       		.byte	0x5d
 2645 014d 41030000 		.4byte	0x341
 2646 0151 02       		.byte	0x2
 2647 0152 23       		.byte	0x23
 2648 0153 0C       		.uleb128 0xc
 2649 0154 06       		.uleb128 0x6
 2650 0155 F6000000 		.4byte	.LASF28
 2651 0159 05       		.byte	0x5
 2652 015a 5F       		.byte	0x5f
 2653 015b 68020000 		.4byte	0x268
 2654 015f 02       		.byte	0x2
 2655 0160 23       		.byte	0x23
 2656 0161 10       		.uleb128 0x10
 2657 0162 06       		.uleb128 0x6
 2658 0163 4F020000 		.4byte	.LASF29
 2659 0167 05       		.byte	0x5
 2660 0168 60       		.byte	0x60
 2661 0169 68020000 		.4byte	0x268
 2662 016d 02       		.byte	0x2
 2663 016e 23       		.byte	0x23
 2664 016f 14       		.uleb128 0x14
 2665 0170 06       		.uleb128 0x6
 2666 0171 09050000 		.4byte	.LASF30
 2667 0175 05       		.byte	0x5
 2668 0176 67       		.byte	0x67
 2669 0177 48050000 		.4byte	0x548
 2670 017b 02       		.byte	0x2
 2671 017c 23       		.byte	0x23
 2672 017d 18       		.uleb128 0x18
 2673 017e 06       		.uleb128 0x6
 2674 017f 2C010000 		.4byte	.LASF31
 2675 0183 05       		.byte	0x5
 2676 0184 6D       		.byte	0x6d
 2677 0185 5A050000 		.4byte	0x55a
 2678 0189 02       		.byte	0x2
 2679 018a 23       		.byte	0x23
 2680 018b 1C       		.uleb128 0x1c
 2681 018c 06       		.uleb128 0x6
 2682 018d 69030000 		.4byte	.LASF32
 2683 0191 05       		.byte	0x5
 2684 0192 72       		.byte	0x72
 2685 0193 B8000000 		.4byte	0xb8
ARM GAS  /tmp/ccLoXihA.s 			page 49


 2686 0197 02       		.byte	0x2
 2687 0198 23       		.byte	0x23
 2688 0199 20       		.uleb128 0x20
 2689 019a 06       		.uleb128 0x6
 2690 019b 98030000 		.4byte	.LASF33
 2691 019f 05       		.byte	0x5
 2692 01a0 76       		.byte	0x76
 2693 01a1 AD000000 		.4byte	0xad
 2694 01a5 02       		.byte	0x2
 2695 01a6 23       		.byte	0x23
 2696 01a7 21       		.uleb128 0x21
 2697 01a8 06       		.uleb128 0x6
 2698 01a9 A9040000 		.4byte	.LASF34
 2699 01ad 05       		.byte	0x5
 2700 01ae 7B       		.byte	0x7b
 2701 01af C3000000 		.4byte	0xc3
 2702 01b3 02       		.byte	0x2
 2703 01b4 23       		.byte	0x23
 2704 01b5 22       		.uleb128 0x22
 2705 01b6 06       		.uleb128 0x6
 2706 01b7 71030000 		.4byte	.LASF35
 2707 01bb 05       		.byte	0x5
 2708 01bc 81       		.byte	0x81
 2709 01bd CE000000 		.4byte	0xce
 2710 01c1 02       		.byte	0x2
 2711 01c2 23       		.byte	0x23
 2712 01c3 23       		.uleb128 0x23
 2713 01c4 06       		.uleb128 0x6
 2714 01c5 7C040000 		.4byte	.LASF36
 2715 01c9 05       		.byte	0x5
 2716 01ca 88       		.byte	0x88
 2717 01cb 2D040000 		.4byte	0x42d
 2718 01cf 02       		.byte	0x2
 2719 01d0 23       		.byte	0x23
 2720 01d1 24       		.uleb128 0x24
 2721 01d2 07       		.uleb128 0x7
 2722 01d3 705F7500 		.ascii	"p_u\000"
 2723 01d7 05       		.byte	0x5
 2724 01d8 AD       		.byte	0xad
 2725 01d9 13050000 		.4byte	0x513
 2726 01dd 02       		.byte	0x2
 2727 01de 23       		.byte	0x23
 2728 01df 28       		.uleb128 0x28
 2729 01e0 06       		.uleb128 0x6
 2730 01e1 30050000 		.4byte	.LASF37
 2731 01e5 05       		.byte	0x5
 2732 01e6 B2       		.byte	0xb2
 2733 01e7 90020000 		.4byte	0x290
 2734 01eb 02       		.byte	0x2
 2735 01ec 23       		.byte	0x23
 2736 01ed 2C       		.uleb128 0x2c
 2737 01ee 06       		.uleb128 0x6
 2738 01ef 8A040000 		.4byte	.LASF38
 2739 01f3 05       		.byte	0x5
 2740 01f4 B8       		.byte	0xb8
 2741 01f5 6E020000 		.4byte	0x26e
 2742 01f9 02       		.byte	0x2
ARM GAS  /tmp/ccLoXihA.s 			page 50


 2743 01fa 23       		.byte	0x23
 2744 01fb 30       		.uleb128 0x30
 2745 01fc 06       		.uleb128 0x6
 2746 01fd 00000000 		.4byte	.LASF39
 2747 0201 05       		.byte	0x5
 2748 0202 BC       		.byte	0xbc
 2749 0203 E4000000 		.4byte	0xe4
 2750 0207 02       		.byte	0x2
 2751 0208 23       		.byte	0x23
 2752 0209 38       		.uleb128 0x38
 2753 020a 06       		.uleb128 0x6
 2754 020b B8030000 		.4byte	.LASF40
 2755 020f 05       		.byte	0x5
 2756 0210 C2       		.byte	0xc2
 2757 0211 EF000000 		.4byte	0xef
 2758 0215 02       		.byte	0x2
 2759 0216 23       		.byte	0x23
 2760 0217 3C       		.uleb128 0x3c
 2761 0218 06       		.uleb128 0x6
 2762 0219 55030000 		.4byte	.LASF41
 2763 021d 05       		.byte	0x5
 2764 021e C9       		.byte	0xc9
 2765 021f 60050000 		.4byte	0x560
 2766 0223 02       		.byte	0x2
 2767 0224 23       		.byte	0x23
 2768 0225 40       		.uleb128 0x40
 2769 0226 06       		.uleb128 0x6
 2770 0227 48040000 		.4byte	.LASF42
 2771 022b 05       		.byte	0x5
 2772 022c CD       		.byte	0xcd
 2773 022d D9000000 		.4byte	0xd9
 2774 0231 02       		.byte	0x2
 2775 0232 23       		.byte	0x23
 2776 0233 44       		.uleb128 0x44
 2777 0234 06       		.uleb128 0x6
 2778 0235 A3000000 		.4byte	.LASF43
 2779 0239 05       		.byte	0x5
 2780 023a D3       		.byte	0xd3
 2781 023b A6020000 		.4byte	0x2a6
 2782 023f 02       		.byte	0x2
 2783 0240 23       		.byte	0x23
 2784 0241 48       		.uleb128 0x48
 2785 0242 00       		.byte	0
 2786 0243 08       		.uleb128 0x8
 2787 0244 08       		.byte	0x8
 2788 0245 04       		.byte	0x4
 2789 0246 5A       		.byte	0x5a
 2790 0247 68020000 		.4byte	0x268
 2791 024b 06       		.uleb128 0x6
 2792 024c 91030000 		.4byte	.LASF24
 2793 0250 04       		.byte	0x4
 2794 0251 5B       		.byte	0x5b
 2795 0252 68020000 		.4byte	0x268
 2796 0256 02       		.byte	0x2
 2797 0257 23       		.byte	0x23
 2798 0258 00       		.uleb128 0
 2799 0259 06       		.uleb128 0x6
ARM GAS  /tmp/ccLoXihA.s 			page 51


 2800 025a 17030000 		.4byte	.LASF25
 2801 025e 04       		.byte	0x4
 2802 025f 5D       		.byte	0x5d
 2803 0260 68020000 		.4byte	0x268
 2804 0264 02       		.byte	0x2
 2805 0265 23       		.byte	0x23
 2806 0266 04       		.uleb128 0x4
 2807 0267 00       		.byte	0
 2808 0268 09       		.uleb128 0x9
 2809 0269 04       		.byte	0x4
 2810 026a 05010000 		.4byte	0x105
 2811 026e 04       		.uleb128 0x4
 2812 026f A5020000 		.4byte	.LASF44
 2813 0273 04       		.byte	0x4
 2814 0274 5F       		.byte	0x5f
 2815 0275 43020000 		.4byte	0x243
 2816 0279 08       		.uleb128 0x8
 2817 027a 04       		.byte	0x4
 2818 027b 04       		.byte	0x4
 2819 027c 64       		.byte	0x64
 2820 027d 90020000 		.4byte	0x290
 2821 0281 06       		.uleb128 0x6
 2822 0282 91030000 		.4byte	.LASF24
 2823 0286 04       		.byte	0x4
 2824 0287 66       		.byte	0x66
 2825 0288 68020000 		.4byte	0x268
 2826 028c 02       		.byte	0x2
 2827 028d 23       		.byte	0x23
 2828 028e 00       		.uleb128 0
 2829 028f 00       		.byte	0
 2830 0290 04       		.uleb128 0x4
 2831 0291 B9010000 		.4byte	.LASF45
 2832 0295 04       		.byte	0x4
 2833 0296 69       		.byte	0x69
 2834 0297 79020000 		.4byte	0x279
 2835 029b 04       		.uleb128 0x4
 2836 029c 1B010000 		.4byte	.LASF46
 2837 02a0 06       		.byte	0x6
 2838 02a1 DE       		.byte	0xde
 2839 02a2 A6020000 		.4byte	0x2a6
 2840 02a6 0A       		.uleb128 0xa
 2841 02a7 04       		.byte	0x4
 2842 02a8 04       		.uleb128 0x4
 2843 02a9 20020000 		.4byte	.LASF47
 2844 02ad 06       		.byte	0x6
 2845 02ae E4       		.byte	0xe4
 2846 02af 89000000 		.4byte	0x89
 2847 02b3 0B       		.uleb128 0xb
 2848 02b4 83040000 		.4byte	.LASF48
 2849 02b8 24       		.byte	0x24
 2850 02b9 06       		.byte	0x6
 2851 02ba 0501     		.2byte	0x105
 2852 02bc 41030000 		.4byte	0x341
 2853 02c0 0C       		.uleb128 0xc
 2854 02c1 723400   		.ascii	"r4\000"
 2855 02c4 06       		.byte	0x6
 2856 02c5 1801     		.2byte	0x118
ARM GAS  /tmp/ccLoXihA.s 			page 52


 2857 02c7 9B020000 		.4byte	0x29b
 2858 02cb 02       		.byte	0x2
 2859 02cc 23       		.byte	0x23
 2860 02cd 00       		.uleb128 0
 2861 02ce 0C       		.uleb128 0xc
 2862 02cf 723500   		.ascii	"r5\000"
 2863 02d2 06       		.byte	0x6
 2864 02d3 1901     		.2byte	0x119
 2865 02d5 9B020000 		.4byte	0x29b
 2866 02d9 02       		.byte	0x2
 2867 02da 23       		.byte	0x23
 2868 02db 04       		.uleb128 0x4
 2869 02dc 0C       		.uleb128 0xc
 2870 02dd 723600   		.ascii	"r6\000"
 2871 02e0 06       		.byte	0x6
 2872 02e1 1A01     		.2byte	0x11a
 2873 02e3 9B020000 		.4byte	0x29b
 2874 02e7 02       		.byte	0x2
 2875 02e8 23       		.byte	0x23
 2876 02e9 08       		.uleb128 0x8
 2877 02ea 0C       		.uleb128 0xc
 2878 02eb 723700   		.ascii	"r7\000"
 2879 02ee 06       		.byte	0x6
 2880 02ef 1B01     		.2byte	0x11b
 2881 02f1 9B020000 		.4byte	0x29b
 2882 02f5 02       		.byte	0x2
 2883 02f6 23       		.byte	0x23
 2884 02f7 0C       		.uleb128 0xc
 2885 02f8 0C       		.uleb128 0xc
 2886 02f9 723800   		.ascii	"r8\000"
 2887 02fc 06       		.byte	0x6
 2888 02fd 1C01     		.2byte	0x11c
 2889 02ff 9B020000 		.4byte	0x29b
 2890 0303 02       		.byte	0x2
 2891 0304 23       		.byte	0x23
 2892 0305 10       		.uleb128 0x10
 2893 0306 0C       		.uleb128 0xc
 2894 0307 723900   		.ascii	"r9\000"
 2895 030a 06       		.byte	0x6
 2896 030b 1D01     		.2byte	0x11d
 2897 030d 9B020000 		.4byte	0x29b
 2898 0311 02       		.byte	0x2
 2899 0312 23       		.byte	0x23
 2900 0313 14       		.uleb128 0x14
 2901 0314 0C       		.uleb128 0xc
 2902 0315 72313000 		.ascii	"r10\000"
 2903 0319 06       		.byte	0x6
 2904 031a 1E01     		.2byte	0x11e
 2905 031c 9B020000 		.4byte	0x29b
 2906 0320 02       		.byte	0x2
 2907 0321 23       		.byte	0x23
 2908 0322 18       		.uleb128 0x18
 2909 0323 0C       		.uleb128 0xc
 2910 0324 72313100 		.ascii	"r11\000"
 2911 0328 06       		.byte	0x6
 2912 0329 1F01     		.2byte	0x11f
 2913 032b 9B020000 		.4byte	0x29b
ARM GAS  /tmp/ccLoXihA.s 			page 53


 2914 032f 02       		.byte	0x2
 2915 0330 23       		.byte	0x23
 2916 0331 1C       		.uleb128 0x1c
 2917 0332 0C       		.uleb128 0xc
 2918 0333 6C7200   		.ascii	"lr\000"
 2919 0336 06       		.byte	0x6
 2920 0337 2001     		.2byte	0x120
 2921 0339 9B020000 		.4byte	0x29b
 2922 033d 02       		.byte	0x2
 2923 033e 23       		.byte	0x23
 2924 033f 20       		.uleb128 0x20
 2925 0340 00       		.byte	0
 2926 0341 0B       		.uleb128 0xb
 2927 0342 76010000 		.4byte	.LASF49
 2928 0346 04       		.byte	0x4
 2929 0347 06       		.byte	0x6
 2930 0348 2A01     		.2byte	0x12a
 2931 034a 5E030000 		.4byte	0x35e
 2932 034e 0C       		.uleb128 0xc
 2933 034f 72313300 		.ascii	"r13\000"
 2934 0353 06       		.byte	0x6
 2935 0354 2B01     		.2byte	0x12b
 2936 0356 5E030000 		.4byte	0x35e
 2937 035a 02       		.byte	0x2
 2938 035b 23       		.byte	0x23
 2939 035c 00       		.uleb128 0
 2940 035d 00       		.byte	0
 2941 035e 09       		.uleb128 0x9
 2942 035f 04       		.byte	0x4
 2943 0360 B3020000 		.4byte	0x2b3
 2944 0364 03       		.uleb128 0x3
 2945 0365 04       		.byte	0x4
 2946 0366 07       		.byte	0x7
 2947 0367 33020000 		.4byte	.LASF50
 2948 036b 04       		.uleb128 0x4
 2949 036c 53040000 		.4byte	.LASF51
 2950 0370 07       		.byte	0x7
 2951 0371 51       		.byte	0x51
 2952 0372 76030000 		.4byte	0x376
 2953 0376 09       		.uleb128 0x9
 2954 0377 04       		.byte	0x4
 2955 0378 7C030000 		.4byte	0x37c
 2956 037c 0D       		.uleb128 0xd
 2957 037d 01       		.byte	0x1
 2958 037e 88030000 		.4byte	0x388
 2959 0382 0E       		.uleb128 0xe
 2960 0383 A6020000 		.4byte	0x2a6
 2961 0387 00       		.byte	0
 2962 0388 04       		.uleb128 0x4
 2963 0389 D4030000 		.4byte	.LASF52
 2964 038d 07       		.byte	0x7
 2965 038e 56       		.byte	0x56
 2966 038f 93030000 		.4byte	0x393
 2967 0393 05       		.uleb128 0x5
 2968 0394 D4030000 		.4byte	.LASF52
 2969 0398 14       		.byte	0x14
 2970 0399 07       		.byte	0x7
ARM GAS  /tmp/ccLoXihA.s 			page 54


 2971 039a 5D       		.byte	0x5d
 2972 039b E6030000 		.4byte	0x3e6
 2973 039f 06       		.uleb128 0x6
 2974 03a0 44010000 		.4byte	.LASF53
 2975 03a4 07       		.byte	0x7
 2976 03a5 5E       		.byte	0x5e
 2977 03a6 E6030000 		.4byte	0x3e6
 2978 03aa 02       		.byte	0x2
 2979 03ab 23       		.byte	0x23
 2980 03ac 00       		.uleb128 0
 2981 03ad 06       		.uleb128 0x6
 2982 03ae 24010000 		.4byte	.LASF54
 2983 03b2 07       		.byte	0x7
 2984 03b3 60       		.byte	0x60
 2985 03b4 E6030000 		.4byte	0x3e6
 2986 03b8 02       		.byte	0x2
 2987 03b9 23       		.byte	0x23
 2988 03ba 04       		.uleb128 0x4
 2989 03bb 06       		.uleb128 0x6
 2990 03bc 2B020000 		.4byte	.LASF55
 2991 03c0 07       		.byte	0x7
 2992 03c1 62       		.byte	0x62
 2993 03c2 FA000000 		.4byte	0xfa
 2994 03c6 02       		.byte	0x2
 2995 03c7 23       		.byte	0x23
 2996 03c8 08       		.uleb128 0x8
 2997 03c9 06       		.uleb128 0x6
 2998 03ca 3C020000 		.4byte	.LASF56
 2999 03ce 07       		.byte	0x7
 3000 03cf 63       		.byte	0x63
 3001 03d0 6B030000 		.4byte	0x36b
 3002 03d4 02       		.byte	0x2
 3003 03d5 23       		.byte	0x23
 3004 03d6 0C       		.uleb128 0xc
 3005 03d7 06       		.uleb128 0x6
 3006 03d8 95040000 		.4byte	.LASF57
 3007 03dc 07       		.byte	0x7
 3008 03dd 65       		.byte	0x65
 3009 03de A6020000 		.4byte	0x2a6
 3010 03e2 02       		.byte	0x2
 3011 03e3 23       		.byte	0x23
 3012 03e4 10       		.uleb128 0x10
 3013 03e5 00       		.byte	0
 3014 03e6 09       		.uleb128 0x9
 3015 03e7 04       		.byte	0x4
 3016 03e8 88030000 		.4byte	0x388
 3017 03ec 08       		.uleb128 0x8
 3018 03ed 10       		.byte	0x10
 3019 03ee 07       		.byte	0x7
 3020 03ef 6F       		.byte	0x6f
 3021 03f0 2D040000 		.4byte	0x42d
 3022 03f4 06       		.uleb128 0x6
 3023 03f5 44010000 		.4byte	.LASF53
 3024 03f9 07       		.byte	0x7
 3025 03fa 70       		.byte	0x70
 3026 03fb E6030000 		.4byte	0x3e6
 3027 03ff 02       		.byte	0x2
ARM GAS  /tmp/ccLoXihA.s 			page 55


 3028 0400 23       		.byte	0x23
 3029 0401 00       		.uleb128 0
 3030 0402 06       		.uleb128 0x6
 3031 0403 24010000 		.4byte	.LASF54
 3032 0407 07       		.byte	0x7
 3033 0408 72       		.byte	0x72
 3034 0409 E6030000 		.4byte	0x3e6
 3035 040d 02       		.byte	0x2
 3036 040e 23       		.byte	0x23
 3037 040f 04       		.uleb128 0x4
 3038 0410 06       		.uleb128 0x6
 3039 0411 2B020000 		.4byte	.LASF55
 3040 0415 07       		.byte	0x7
 3041 0416 74       		.byte	0x74
 3042 0417 FA000000 		.4byte	0xfa
 3043 041b 02       		.byte	0x2
 3044 041c 23       		.byte	0x23
 3045 041d 08       		.uleb128 0x8
 3046 041e 06       		.uleb128 0x6
 3047 041f 10050000 		.4byte	.LASF58
 3048 0423 07       		.byte	0x7
 3049 0424 75       		.byte	0x75
 3050 0425 2D040000 		.4byte	0x42d
 3051 0429 02       		.byte	0x2
 3052 042a 23       		.byte	0x23
 3053 042b 0C       		.uleb128 0xc
 3054 042c 00       		.byte	0
 3055 042d 0F       		.uleb128 0xf
 3056 042e FA000000 		.4byte	0xfa
 3057 0432 04       		.uleb128 0x4
 3058 0433 1B050000 		.4byte	.LASF59
 3059 0437 07       		.byte	0x7
 3060 0438 76       		.byte	0x76
 3061 0439 EC030000 		.4byte	0x3ec
 3062 043d 08       		.uleb128 0x8
 3063 043e 1C       		.byte	0x1c
 3064 043f 08       		.byte	0x8
 3065 0440 57       		.byte	0x57
 3066 0441 9A040000 		.4byte	0x49a
 3067 0445 06       		.uleb128 0x6
 3068 0446 CC030000 		.4byte	.LASF60
 3069 044a 08       		.byte	0x8
 3070 044b 58       		.byte	0x58
 3071 044c 6E020000 		.4byte	0x26e
 3072 0450 02       		.byte	0x2
 3073 0451 23       		.byte	0x23
 3074 0452 00       		.uleb128 0
 3075 0453 06       		.uleb128 0x6
 3076 0454 83030000 		.4byte	.LASF61
 3077 0458 08       		.byte	0x8
 3078 0459 59       		.byte	0x59
 3079 045a D9000000 		.4byte	0xd9
 3080 045e 02       		.byte	0x2
 3081 045f 23       		.byte	0x23
 3082 0460 08       		.uleb128 0x8
 3083 0461 06       		.uleb128 0x6
 3084 0462 9F020000 		.4byte	.LASF62
ARM GAS  /tmp/ccLoXihA.s 			page 56


 3085 0466 08       		.byte	0x8
 3086 0467 5B       		.byte	0x5b
 3087 0468 41030000 		.4byte	0x341
 3088 046c 02       		.byte	0x2
 3089 046d 23       		.byte	0x23
 3090 046e 0C       		.uleb128 0xc
 3091 046f 06       		.uleb128 0x6
 3092 0470 13010000 		.4byte	.LASF63
 3093 0474 08       		.byte	0x8
 3094 0475 5E       		.byte	0x5e
 3095 0476 68020000 		.4byte	0x268
 3096 047a 02       		.byte	0x2
 3097 047b 23       		.byte	0x23
 3098 047c 10       		.uleb128 0x10
 3099 047d 06       		.uleb128 0x6
 3100 047e D4020000 		.4byte	.LASF64
 3101 0482 08       		.byte	0x8
 3102 0483 5F       		.byte	0x5f
 3103 0484 68020000 		.4byte	0x268
 3104 0488 02       		.byte	0x2
 3105 0489 23       		.byte	0x23
 3106 048a 14       		.uleb128 0x14
 3107 048b 06       		.uleb128 0x6
 3108 048c CA020000 		.4byte	.LASF65
 3109 0490 08       		.byte	0x8
 3110 0491 62       		.byte	0x62
 3111 0492 68020000 		.4byte	0x268
 3112 0496 02       		.byte	0x2
 3113 0497 23       		.byte	0x23
 3114 0498 18       		.uleb128 0x18
 3115 0499 00       		.byte	0
 3116 049a 04       		.uleb128 0x4
 3117 049b B0040000 		.4byte	.LASF66
 3118 049f 08       		.byte	0x8
 3119 04a0 64       		.byte	0x64
 3120 04a1 3D040000 		.4byte	0x43d
 3121 04a5 05       		.uleb128 0x5
 3122 04a6 D1010000 		.4byte	.LASF67
 3123 04aa 10       		.byte	0x10
 3124 04ab 09       		.byte	0x9
 3125 04ac 25       		.byte	0x25
 3126 04ad DC040000 		.4byte	0x4dc
 3127 04b1 06       		.uleb128 0x6
 3128 04b2 B2000000 		.4byte	.LASF68
 3129 04b6 09       		.byte	0x9
 3130 04b7 26       		.byte	0x26
 3131 04b8 6E020000 		.4byte	0x26e
 3132 04bc 02       		.byte	0x2
 3133 04bd 23       		.byte	0x23
 3134 04be 00       		.uleb128 0
 3135 04bf 06       		.uleb128 0x6
 3136 04c0 22050000 		.4byte	.LASF69
 3137 04c4 09       		.byte	0x9
 3138 04c5 28       		.byte	0x28
 3139 04c6 68020000 		.4byte	0x268
 3140 04ca 02       		.byte	0x2
 3141 04cb 23       		.byte	0x23
ARM GAS  /tmp/ccLoXihA.s 			page 57


 3142 04cc 08       		.uleb128 0x8
 3143 04cd 06       		.uleb128 0x6
 3144 04ce 37040000 		.4byte	.LASF70
 3145 04d2 09       		.byte	0x9
 3146 04d3 2A       		.byte	0x2a
 3147 04d4 DC040000 		.4byte	0x4dc
 3148 04d8 02       		.byte	0x2
 3149 04d9 23       		.byte	0x23
 3150 04da 0C       		.uleb128 0xc
 3151 04db 00       		.byte	0
 3152 04dc 09       		.uleb128 0x9
 3153 04dd 04       		.byte	0x4
 3154 04de A5040000 		.4byte	0x4a5
 3155 04e2 04       		.uleb128 0x4
 3156 04e3 D1010000 		.4byte	.LASF67
 3157 04e7 09       		.byte	0x9
 3158 04e8 2C       		.byte	0x2c
 3159 04e9 A5040000 		.4byte	0x4a5
 3160 04ed 05       		.uleb128 0x5
 3161 04ee C4000000 		.4byte	.LASF71
 3162 04f2 08       		.byte	0x8
 3163 04f3 0A       		.byte	0xa
 3164 04f4 2F       		.byte	0x2f
 3165 04f5 08050000 		.4byte	0x508
 3166 04f9 06       		.uleb128 0x6
 3167 04fa A7030000 		.4byte	.LASF72
 3168 04fe 0A       		.byte	0xa
 3169 04ff 30       		.byte	0x30
 3170 0500 6E020000 		.4byte	0x26e
 3171 0504 02       		.byte	0x2
 3172 0505 23       		.byte	0x23
 3173 0506 00       		.uleb128 0
 3174 0507 00       		.byte	0
 3175 0508 04       		.uleb128 0x4
 3176 0509 C4000000 		.4byte	.LASF71
 3177 050d 0A       		.byte	0xa
 3178 050e 31       		.byte	0x31
 3179 050f ED040000 		.4byte	0x4ed
 3180 0513 10       		.uleb128 0x10
 3181 0514 04       		.byte	0x4
 3182 0515 05       		.byte	0x5
 3183 0516 8F       		.byte	0x8f
 3184 0517 48050000 		.4byte	0x548
 3185 051b 11       		.uleb128 0x11
 3186 051c 0B000000 		.4byte	.LASF73
 3187 0520 05       		.byte	0x5
 3188 0521 96       		.byte	0x96
 3189 0522 E4000000 		.4byte	0xe4
 3190 0526 11       		.uleb128 0x11
 3191 0527 61000000 		.4byte	.LASF74
 3192 052b 05       		.byte	0x5
 3193 052c 9D       		.byte	0x9d
 3194 052d E4000000 		.4byte	0xe4
 3195 0531 11       		.uleb128 0x11
 3196 0532 02050000 		.4byte	.LASF75
 3197 0536 05       		.byte	0x5
 3198 0537 A4       		.byte	0xa4
ARM GAS  /tmp/ccLoXihA.s 			page 58


 3199 0538 A6020000 		.4byte	0x2a6
 3200 053c 11       		.uleb128 0x11
 3201 053d 8A030000 		.4byte	.LASF76
 3202 0541 05       		.byte	0x5
 3203 0542 AB       		.byte	0xab
 3204 0543 EF000000 		.4byte	0xef
 3205 0547 00       		.byte	0
 3206 0548 09       		.uleb128 0x9
 3207 0549 04       		.byte	0x4
 3208 054a 4E050000 		.4byte	0x54e
 3209 054e 12       		.uleb128 0x12
 3210 054f 53050000 		.4byte	0x553
 3211 0553 03       		.uleb128 0x3
 3212 0554 01       		.byte	0x1
 3213 0555 08       		.byte	0x8
 3214 0556 17040000 		.4byte	.LASF77
 3215 055a 09       		.uleb128 0x9
 3216 055b 04       		.byte	0x4
 3217 055c A8020000 		.4byte	0x2a8
 3218 0560 09       		.uleb128 0x9
 3219 0561 04       		.byte	0x4
 3220 0562 E2040000 		.4byte	0x4e2
 3221 0566 05       		.uleb128 0x5
 3222 0567 AF030000 		.4byte	.LASF78
 3223 056b 10       		.byte	0x10
 3224 056c 0B       		.byte	0xb
 3225 056d 3B       		.byte	0x3b
 3226 056e AB050000 		.4byte	0x5ab
 3227 0572 06       		.uleb128 0x6
 3228 0573 71010000 		.4byte	.LASF79
 3229 0577 0B       		.byte	0xb
 3230 0578 3C       		.byte	0x3c
 3231 0579 48050000 		.4byte	0x548
 3232 057d 02       		.byte	0x2
 3233 057e 23       		.byte	0x23
 3234 057f 00       		.uleb128 0
 3235 0580 06       		.uleb128 0x6
 3236 0581 B2020000 		.4byte	.LASF80
 3237 0585 0B       		.byte	0xb
 3238 0586 3D       		.byte	0x3d
 3239 0587 AD050000 		.4byte	0x5ad
 3240 058b 02       		.byte	0x2
 3241 058c 23       		.byte	0x23
 3242 058d 04       		.uleb128 0x4
 3243 058e 06       		.uleb128 0x6
 3244 058f 68010000 		.4byte	.LASF81
 3245 0593 0B       		.byte	0xb
 3246 0594 3E       		.byte	0x3e
 3247 0595 AD050000 		.4byte	0x5ad
 3248 0599 02       		.byte	0x2
 3249 059a 23       		.byte	0x23
 3250 059b 08       		.uleb128 0x8
 3251 059c 06       		.uleb128 0x6
 3252 059d 1E030000 		.4byte	.LASF82
 3253 05a1 0B       		.byte	0xb
 3254 05a2 3F       		.byte	0x3f
 3255 05a3 AD050000 		.4byte	0x5ad
ARM GAS  /tmp/ccLoXihA.s 			page 59


 3256 05a7 02       		.byte	0x2
 3257 05a8 23       		.byte	0x23
 3258 05a9 0C       		.uleb128 0xc
 3259 05aa 00       		.byte	0
 3260 05ab 13       		.uleb128 0x13
 3261 05ac 01       		.byte	0x1
 3262 05ad 09       		.uleb128 0x9
 3263 05ae 04       		.byte	0x4
 3264 05af AB050000 		.4byte	0x5ab
 3265 05b3 14       		.uleb128 0x14
 3266 05b4 DE000000 		.4byte	.LASF83
 3267 05b8 01       		.byte	0x1
 3268 05b9 54       		.byte	0x54
 3269 05ba 01       		.byte	0x1
 3270 05bb 00000000 		.4byte	.LFB7
 3271 05bf 10000000 		.4byte	.LFE7
 3272 05c3 00000000 		.4byte	.LLST0
 3273 05c7 01       		.byte	0x1
 3274 05c8 15       		.uleb128 0x15
 3275 05c9 57020000 		.4byte	.LASF85
 3276 05cd 01       		.byte	0x1
 3277 05ce 59       		.byte	0x59
 3278 05cf 01       		.byte	0x1
 3279 05d0 E4000000 		.4byte	0xe4
 3280 05d4 00000000 		.4byte	.LFB8
 3281 05d8 2A000000 		.4byte	.LFE8
 3282 05dc 20000000 		.4byte	.LLST1
 3283 05e0 01       		.byte	0x1
 3284 05e1 F2050000 		.4byte	0x5f2
 3285 05e5 16       		.uleb128 0x16
 3286 05e6 7000     		.ascii	"p\000"
 3287 05e8 01       		.byte	0x1
 3288 05e9 59       		.byte	0x59
 3289 05ea A6020000 		.4byte	0x2a6
 3290 05ee 02       		.byte	0x2
 3291 05ef 91       		.byte	0x91
 3292 05f0 74       		.sleb128 -12
 3293 05f1 00       		.byte	0
 3294 05f2 17       		.uleb128 0x17
 3295 05f3 75000000 		.4byte	.LASF89
 3296 05f7 01       		.byte	0x1
 3297 05f8 61       		.byte	0x61
 3298 05f9 01       		.byte	0x1
 3299 05fa 00000000 		.4byte	.LFB9
 3300 05fe 7E010000 		.4byte	.LFE9
 3301 0602 4C000000 		.4byte	.LLST2
 3302 0606 01       		.byte	0x1
 3303 0607 1A060000 		.4byte	0x61a
 3304 060b 18       		.uleb128 0x18
 3305 060c 06000000 		.4byte	.LASF91
 3306 0610 01       		.byte	0x1
 3307 0611 63       		.byte	0x63
 3308 0612 D9000000 		.4byte	0xd9
 3309 0616 02       		.byte	0x2
 3310 0617 91       		.byte	0x91
 3311 0618 74       		.sleb128 -12
 3312 0619 00       		.byte	0
ARM GAS  /tmp/ccLoXihA.s 			page 60


 3313 061a 14       		.uleb128 0x14
 3314 061b 44020000 		.4byte	.LASF84
 3315 061f 01       		.byte	0x1
 3316 0620 97       		.byte	0x97
 3317 0621 01       		.byte	0x1
 3318 0622 00000000 		.4byte	.LFB10
 3319 0626 10000000 		.4byte	.LFE10
 3320 062a 78000000 		.4byte	.LLST3
 3321 062e 01       		.byte	0x1
 3322 062f 15       		.uleb128 0x15
 3323 0630 25040000 		.4byte	.LASF86
 3324 0634 01       		.byte	0x1
 3325 0635 9D       		.byte	0x9d
 3326 0636 01       		.byte	0x1
 3327 0637 E4000000 		.4byte	0xe4
 3328 063b 00000000 		.4byte	.LFB11
 3329 063f 38000000 		.4byte	.LFE11
 3330 0643 98000000 		.4byte	.LLST4
 3331 0647 01       		.byte	0x1
 3332 0648 59060000 		.4byte	0x659
 3333 064c 16       		.uleb128 0x16
 3334 064d 7000     		.ascii	"p\000"
 3335 064f 01       		.byte	0x1
 3336 0650 9D       		.byte	0x9d
 3337 0651 A6020000 		.4byte	0x2a6
 3338 0655 02       		.byte	0x2
 3339 0656 91       		.byte	0x91
 3340 0657 74       		.sleb128 -12
 3341 0658 00       		.byte	0
 3342 0659 15       		.uleb128 0x15
 3343 065a 2E040000 		.4byte	.LASF87
 3344 065e 01       		.byte	0x1
 3345 065f A9       		.byte	0xa9
 3346 0660 01       		.byte	0x1
 3347 0661 E4000000 		.4byte	0xe4
 3348 0665 00000000 		.4byte	.LFB12
 3349 0669 28000000 		.4byte	.LFE12
 3350 066d C4000000 		.4byte	.LLST5
 3351 0671 01       		.byte	0x1
 3352 0672 83060000 		.4byte	0x683
 3353 0676 16       		.uleb128 0x16
 3354 0677 7000     		.ascii	"p\000"
 3355 0679 01       		.byte	0x1
 3356 067a A9       		.byte	0xa9
 3357 067b A6020000 		.4byte	0x2a6
 3358 067f 02       		.byte	0x2
 3359 0680 91       		.byte	0x91
 3360 0681 74       		.sleb128 -12
 3361 0682 00       		.byte	0
 3362 0683 15       		.uleb128 0x15
 3363 0684 1C040000 		.4byte	.LASF88
 3364 0688 01       		.byte	0x1
 3365 0689 B3       		.byte	0xb3
 3366 068a 01       		.byte	0x1
 3367 068b E4000000 		.4byte	0xe4
 3368 068f 00000000 		.4byte	.LFB13
 3369 0693 38000000 		.4byte	.LFE13
ARM GAS  /tmp/ccLoXihA.s 			page 61


 3370 0697 F0000000 		.4byte	.LLST6
 3371 069b 01       		.byte	0x1
 3372 069c AD060000 		.4byte	0x6ad
 3373 06a0 16       		.uleb128 0x16
 3374 06a1 7000     		.ascii	"p\000"
 3375 06a3 01       		.byte	0x1
 3376 06a4 B3       		.byte	0xb3
 3377 06a5 A6020000 		.4byte	0x2a6
 3378 06a9 02       		.byte	0x2
 3379 06aa 91       		.byte	0x91
 3380 06ab 74       		.sleb128 -12
 3381 06ac 00       		.byte	0
 3382 06ad 17       		.uleb128 0x17
 3383 06ae E9000000 		.4byte	.LASF90
 3384 06b2 01       		.byte	0x1
 3385 06b3 BE       		.byte	0xbe
 3386 06b4 01       		.byte	0x1
 3387 06b5 00000000 		.4byte	.LFB14
 3388 06b9 0E010000 		.4byte	.LFE14
 3389 06bd 1C010000 		.4byte	.LLST7
 3390 06c1 01       		.byte	0x1
 3391 06c2 D5060000 		.4byte	0x6d5
 3392 06c6 18       		.uleb128 0x18
 3393 06c7 B8020000 		.4byte	.LASF92
 3394 06cb 01       		.byte	0x1
 3395 06cc BF       		.byte	0xbf
 3396 06cd FA000000 		.4byte	0xfa
 3397 06d1 02       		.byte	0x2
 3398 06d2 91       		.byte	0x91
 3399 06d3 74       		.sleb128 -12
 3400 06d4 00       		.byte	0
 3401 06d5 14       		.uleb128 0x14
 3402 06d6 1B000000 		.4byte	.LASF93
 3403 06da 01       		.byte	0x1
 3404 06db F1       		.byte	0xf1
 3405 06dc 01       		.byte	0x1
 3406 06dd 00000000 		.4byte	.LFB15
 3407 06e1 1C000000 		.4byte	.LFE15
 3408 06e5 48010000 		.4byte	.LLST8
 3409 06e9 01       		.byte	0x1
 3410 06ea 15       		.uleb128 0x15
 3411 06eb 4C010000 		.4byte	.LASF94
 3412 06ef 01       		.byte	0x1
 3413 06f0 F8       		.byte	0xf8
 3414 06f1 01       		.byte	0x1
 3415 06f2 E4000000 		.4byte	0xe4
 3416 06f6 00000000 		.4byte	.LFB16
 3417 06fa 30000000 		.4byte	.LFE16
 3418 06fe 68010000 		.4byte	.LLST9
 3419 0702 01       		.byte	0x1
 3420 0703 14070000 		.4byte	0x714
 3421 0707 16       		.uleb128 0x16
 3422 0708 7000     		.ascii	"p\000"
 3423 070a 01       		.byte	0x1
 3424 070b F8       		.byte	0xf8
 3425 070c A6020000 		.4byte	0x2a6
 3426 0710 02       		.byte	0x2
ARM GAS  /tmp/ccLoXihA.s 			page 62


 3427 0711 91       		.byte	0x91
 3428 0712 74       		.sleb128 -12
 3429 0713 00       		.byte	0
 3430 0714 19       		.uleb128 0x19
 3431 0715 DA040000 		.4byte	.LASF95
 3432 0719 01       		.byte	0x1
 3433 071a 0301     		.2byte	0x103
 3434 071c 01       		.byte	0x1
 3435 071d E4000000 		.4byte	0xe4
 3436 0721 00000000 		.4byte	.LFB17
 3437 0725 58000000 		.4byte	.LFE17
 3438 0729 94010000 		.4byte	.LLST10
 3439 072d 01       		.byte	0x1
 3440 072e 40070000 		.4byte	0x740
 3441 0732 1A       		.uleb128 0x1a
 3442 0733 7000     		.ascii	"p\000"
 3443 0735 01       		.byte	0x1
 3444 0736 0301     		.2byte	0x103
 3445 0738 A6020000 		.4byte	0x2a6
 3446 073c 02       		.byte	0x2
 3447 073d 91       		.byte	0x91
 3448 073e 74       		.sleb128 -12
 3449 073f 00       		.byte	0
 3450 0740 19       		.uleb128 0x19
 3451 0741 E3040000 		.4byte	.LASF96
 3452 0745 01       		.byte	0x1
 3453 0746 1301     		.2byte	0x113
 3454 0748 01       		.byte	0x1
 3455 0749 E4000000 		.4byte	0xe4
 3456 074d 00000000 		.4byte	.LFB18
 3457 0751 38000000 		.4byte	.LFE18
 3458 0755 C0010000 		.4byte	.LLST11
 3459 0759 01       		.byte	0x1
 3460 075a 6C070000 		.4byte	0x76c
 3461 075e 1A       		.uleb128 0x1a
 3462 075f 7000     		.ascii	"p\000"
 3463 0761 01       		.byte	0x1
 3464 0762 1301     		.2byte	0x113
 3465 0764 A6020000 		.4byte	0x2a6
 3466 0768 02       		.byte	0x2
 3467 0769 91       		.byte	0x91
 3468 076a 74       		.sleb128 -12
 3469 076b 00       		.byte	0
 3470 076c 19       		.uleb128 0x19
 3471 076d D1040000 		.4byte	.LASF97
 3472 0771 01       		.byte	0x1
 3473 0772 1F01     		.2byte	0x11f
 3474 0774 01       		.byte	0x1
 3475 0775 E4000000 		.4byte	0xe4
 3476 0779 00000000 		.4byte	.LFB19
 3477 077d 28000000 		.4byte	.LFE19
 3478 0781 EC010000 		.4byte	.LLST12
 3479 0785 01       		.byte	0x1
 3480 0786 98070000 		.4byte	0x798
 3481 078a 1A       		.uleb128 0x1a
 3482 078b 7000     		.ascii	"p\000"
 3483 078d 01       		.byte	0x1
ARM GAS  /tmp/ccLoXihA.s 			page 63


 3484 078e 1F01     		.2byte	0x11f
 3485 0790 A6020000 		.4byte	0x2a6
 3486 0794 02       		.byte	0x2
 3487 0795 91       		.byte	0x91
 3488 0796 74       		.sleb128 -12
 3489 0797 00       		.byte	0
 3490 0798 19       		.uleb128 0x19
 3491 0799 72040000 		.4byte	.LASF98
 3492 079d 01       		.byte	0x1
 3493 079e 2901     		.2byte	0x129
 3494 07a0 01       		.byte	0x1
 3495 07a1 E4000000 		.4byte	0xe4
 3496 07a5 00000000 		.4byte	.LFB20
 3497 07a9 38000000 		.4byte	.LFE20
 3498 07ad 18020000 		.4byte	.LLST13
 3499 07b1 01       		.byte	0x1
 3500 07b2 C4070000 		.4byte	0x7c4
 3501 07b6 1A       		.uleb128 0x1a
 3502 07b7 7000     		.ascii	"p\000"
 3503 07b9 01       		.byte	0x1
 3504 07ba 2901     		.2byte	0x129
 3505 07bc A6020000 		.4byte	0x2a6
 3506 07c0 02       		.byte	0x2
 3507 07c1 91       		.byte	0x91
 3508 07c2 74       		.sleb128 -12
 3509 07c3 00       		.byte	0
 3510 07c4 1B       		.uleb128 0x1b
 3511 07c5 A4010000 		.4byte	.LASF99
 3512 07c9 01       		.byte	0x1
 3513 07ca 3401     		.2byte	0x134
 3514 07cc 01       		.byte	0x1
 3515 07cd 00000000 		.4byte	.LFB21
 3516 07d1 8E010000 		.4byte	.LFE21
 3517 07d5 44020000 		.4byte	.LLST14
 3518 07d9 01       		.byte	0x1
 3519 07da EE070000 		.4byte	0x7ee
 3520 07de 1C       		.uleb128 0x1c
 3521 07df B8020000 		.4byte	.LASF92
 3522 07e3 01       		.byte	0x1
 3523 07e4 3501     		.2byte	0x135
 3524 07e6 FA000000 		.4byte	0xfa
 3525 07ea 02       		.byte	0x2
 3526 07eb 91       		.byte	0x91
 3527 07ec 74       		.sleb128 -12
 3528 07ed 00       		.byte	0
 3529 07ee 1D       		.uleb128 0x1d
 3530 07ef EC040000 		.4byte	.LASF100
 3531 07f3 01       		.byte	0x1
 3532 07f4 5501     		.2byte	0x155
 3533 07f6 01       		.byte	0x1
 3534 07f7 00000000 		.4byte	.LFB22
 3535 07fb 1C000000 		.4byte	.LFE22
 3536 07ff 70020000 		.4byte	.LLST15
 3537 0803 01       		.byte	0x1
 3538 0804 19       		.uleb128 0x19
 3539 0805 38000000 		.4byte	.LASF101
 3540 0809 01       		.byte	0x1
ARM GAS  /tmp/ccLoXihA.s 			page 64


 3541 080a 5B01     		.2byte	0x15b
 3542 080c 01       		.byte	0x1
 3543 080d E4000000 		.4byte	0xe4
 3544 0811 00000000 		.4byte	.LFB23
 3545 0815 28000000 		.4byte	.LFE23
 3546 0819 90020000 		.4byte	.LLST16
 3547 081d 01       		.byte	0x1
 3548 081e 30080000 		.4byte	0x830
 3549 0822 1A       		.uleb128 0x1a
 3550 0823 7000     		.ascii	"p\000"
 3551 0825 01       		.byte	0x1
 3552 0826 5B01     		.2byte	0x15b
 3553 0828 A6020000 		.4byte	0x2a6
 3554 082c 02       		.byte	0x2
 3555 082d 91       		.byte	0x91
 3556 082e 74       		.sleb128 -12
 3557 082f 00       		.byte	0
 3558 0830 19       		.uleb128 0x19
 3559 0831 41000000 		.4byte	.LASF102
 3560 0835 01       		.byte	0x1
 3561 0836 6401     		.2byte	0x164
 3562 0838 01       		.byte	0x1
 3563 0839 E4000000 		.4byte	0xe4
 3564 083d 00000000 		.4byte	.LFB24
 3565 0841 28000000 		.4byte	.LFE24
 3566 0845 BC020000 		.4byte	.LLST17
 3567 0849 01       		.byte	0x1
 3568 084a 5C080000 		.4byte	0x85c
 3569 084e 1A       		.uleb128 0x1a
 3570 084f 7000     		.ascii	"p\000"
 3571 0851 01       		.byte	0x1
 3572 0852 6401     		.2byte	0x164
 3573 0854 A6020000 		.4byte	0x2a6
 3574 0858 02       		.byte	0x2
 3575 0859 91       		.byte	0x91
 3576 085a 74       		.sleb128 -12
 3577 085b 00       		.byte	0
 3578 085c 1B       		.uleb128 0x1b
 3579 085d BD020000 		.4byte	.LASF103
 3580 0861 01       		.byte	0x1
 3581 0862 6D01     		.2byte	0x16d
 3582 0864 01       		.byte	0x1
 3583 0865 00000000 		.4byte	.LFB25
 3584 0869 C8030000 		.4byte	.LFE25
 3585 086d E8020000 		.4byte	.LLST18
 3586 0871 01       		.byte	0x1
 3587 0872 D4080000 		.4byte	0x8d4
 3588 0876 1E       		.uleb128 0x1e
 3589 0877 7000     		.ascii	"p\000"
 3590 0879 01       		.byte	0x1
 3591 087a 6E01     		.2byte	0x16e
 3592 087c D9000000 		.4byte	0xd9
 3593 0880 02       		.byte	0x2
 3594 0881 91       		.byte	0x91
 3595 0882 74       		.sleb128 -12
 3596 0883 1E       		.uleb128 0x1e
 3597 0884 703100   		.ascii	"p1\000"
ARM GAS  /tmp/ccLoXihA.s 			page 65


 3598 0887 01       		.byte	0x1
 3599 0888 6E01     		.2byte	0x16e
 3600 088a D9000000 		.4byte	0xd9
 3601 088e 02       		.byte	0x2
 3602 088f 91       		.byte	0x91
 3603 0890 70       		.sleb128 -16
 3604 0891 1E       		.uleb128 0x1e
 3605 0892 703200   		.ascii	"p2\000"
 3606 0895 01       		.byte	0x1
 3607 0896 6E01     		.2byte	0x16e
 3608 0898 D9000000 		.4byte	0xd9
 3609 089c 02       		.byte	0x2
 3610 089d 91       		.byte	0x91
 3611 089e 6C       		.sleb128 -20
 3612 089f 1F       		.uleb128 0x1f
 3613 08a0 20030000 		.4byte	.LBB2
 3614 08a4 28030000 		.4byte	.LBE2
 3615 08a8 BB080000 		.4byte	0x8bb
 3616 08ac 1E       		.uleb128 0x1e
 3617 08ad 746D7000 		.ascii	"tmp\000"
 3618 08b1 01       		.byte	0x1
 3619 08b2 9001     		.2byte	0x190
 3620 08b4 70000000 		.4byte	0x70
 3621 08b8 01       		.byte	0x1
 3622 08b9 53       		.byte	0x53
 3623 08ba 00       		.byte	0
 3624 08bb 20       		.uleb128 0x20
 3625 08bc 34030000 		.4byte	.LBB3
 3626 08c0 3C030000 		.4byte	.LBE3
 3627 08c4 1E       		.uleb128 0x1e
 3628 08c5 746D7000 		.ascii	"tmp\000"
 3629 08c9 01       		.byte	0x1
 3630 08ca 9201     		.2byte	0x192
 3631 08cc 70000000 		.4byte	0x70
 3632 08d0 01       		.byte	0x1
 3633 08d1 53       		.byte	0x53
 3634 08d2 00       		.byte	0
 3635 08d3 00       		.byte	0
 3636 08d4 1D       		.uleb128 0x1d
 3637 08d5 2D000000 		.4byte	.LASF104
 3638 08d9 01       		.byte	0x1
 3639 08da AC01     		.2byte	0x1ac
 3640 08dc 01       		.byte	0x1
 3641 08dd 00000000 		.4byte	.LFB26
 3642 08e1 10000000 		.4byte	.LFE26
 3643 08e5 14030000 		.4byte	.LLST19
 3644 08e9 01       		.byte	0x1
 3645 08ea 1B       		.uleb128 0x1b
 3646 08eb DC020000 		.4byte	.LASF105
 3647 08ef 01       		.byte	0x1
 3648 08f0 B101     		.2byte	0x1b1
 3649 08f2 01       		.byte	0x1
 3650 08f3 00000000 		.4byte	.LFB27
 3651 08f7 6C010000 		.4byte	.LFE27
 3652 08fb 34030000 		.4byte	.LLST20
 3653 08ff 01       		.byte	0x1
 3654 0900 55090000 		.4byte	0x955
ARM GAS  /tmp/ccLoXihA.s 			page 66


 3655 0904 1E       		.uleb128 0x1e
 3656 0905 6200     		.ascii	"b\000"
 3657 0907 01       		.byte	0x1
 3658 0908 B201     		.2byte	0x1b2
 3659 090a 9B000000 		.4byte	0x9b
 3660 090e 02       		.byte	0x2
 3661 090f 91       		.byte	0x91
 3662 0910 73       		.sleb128 -13
 3663 0911 1C       		.uleb128 0x1c
 3664 0912 06000000 		.4byte	.LASF91
 3665 0916 01       		.byte	0x1
 3666 0917 B301     		.2byte	0x1b3
 3667 0919 D9000000 		.4byte	0xd9
 3668 091d 02       		.byte	0x2
 3669 091e 91       		.byte	0x91
 3670 091f 74       		.sleb128 -12
 3671 0920 1F       		.uleb128 0x1f
 3672 0921 76000000 		.4byte	.LBB4
 3673 0925 7E000000 		.4byte	.LBE4
 3674 0929 3C090000 		.4byte	0x93c
 3675 092d 1E       		.uleb128 0x1e
 3676 092e 746D7000 		.ascii	"tmp\000"
 3677 0932 01       		.byte	0x1
 3678 0933 BD01     		.2byte	0x1bd
 3679 0935 70000000 		.4byte	0x70
 3680 0939 01       		.byte	0x1
 3681 093a 53       		.byte	0x53
 3682 093b 00       		.byte	0
 3683 093c 20       		.uleb128 0x20
 3684 093d 8A000000 		.4byte	.LBB5
 3685 0941 92000000 		.4byte	.LBE5
 3686 0945 1E       		.uleb128 0x1e
 3687 0946 746D7000 		.ascii	"tmp\000"
 3688 094a 01       		.byte	0x1
 3689 094b BF01     		.2byte	0x1bf
 3690 094d 70000000 		.4byte	0x70
 3691 0951 01       		.byte	0x1
 3692 0952 53       		.byte	0x53
 3693 0953 00       		.byte	0
 3694 0954 00       		.byte	0
 3695 0955 1D       		.uleb128 0x1d
 3696 0956 E9020000 		.4byte	.LASF106
 3697 095a 01       		.byte	0x1
 3698 095b DE01     		.2byte	0x1de
 3699 095d 01       		.byte	0x1
 3700 095e 00000000 		.4byte	.LFB28
 3701 0962 1C000000 		.4byte	.LFE28
 3702 0966 60030000 		.4byte	.LLST21
 3703 096a 01       		.byte	0x1
 3704 096b 19       		.uleb128 0x19
 3705 096c F4020000 		.4byte	.LASF107
 3706 0970 01       		.byte	0x1
 3707 0971 E401     		.2byte	0x1e4
 3708 0973 01       		.byte	0x1
 3709 0974 E4000000 		.4byte	0xe4
 3710 0978 00000000 		.4byte	.LFB29
 3711 097c 36000000 		.4byte	.LFE29
ARM GAS  /tmp/ccLoXihA.s 			page 67


 3712 0980 80030000 		.4byte	.LLST22
 3713 0984 01       		.byte	0x1
 3714 0985 97090000 		.4byte	0x997
 3715 0989 1A       		.uleb128 0x1a
 3716 098a 7000     		.ascii	"p\000"
 3717 098c 01       		.byte	0x1
 3718 098d E401     		.2byte	0x1e4
 3719 098f A6020000 		.4byte	0x2a6
 3720 0993 02       		.byte	0x2
 3721 0994 91       		.byte	0x91
 3722 0995 74       		.sleb128 -12
 3723 0996 00       		.byte	0
 3724 0997 1B       		.uleb128 0x1b
 3725 0998 9C040000 		.4byte	.LASF108
 3726 099c 01       		.byte	0x1
 3727 099d ED01     		.2byte	0x1ed
 3728 099f 01       		.byte	0x1
 3729 09a0 00000000 		.4byte	.LFB30
 3730 09a4 9E010000 		.4byte	.LFE30
 3731 09a8 AC030000 		.4byte	.LLST23
 3732 09ac 01       		.byte	0x1
 3733 09ad F5090000 		.4byte	0x9f5
 3734 09b1 1C       		.uleb128 0x1c
 3735 09b2 06000000 		.4byte	.LASF91
 3736 09b6 01       		.byte	0x1
 3737 09b7 EF01     		.2byte	0x1ef
 3738 09b9 D9000000 		.4byte	0xd9
 3739 09bd 02       		.byte	0x2
 3740 09be 91       		.byte	0x91
 3741 09bf 74       		.sleb128 -12
 3742 09c0 1F       		.uleb128 0x1f
 3743 09c1 2A010000 		.4byte	.LBB6
 3744 09c5 32010000 		.4byte	.LBE6
 3745 09c9 DC090000 		.4byte	0x9dc
 3746 09cd 1E       		.uleb128 0x1e
 3747 09ce 746D7000 		.ascii	"tmp\000"
 3748 09d2 01       		.byte	0x1
 3749 09d3 F501     		.2byte	0x1f5
 3750 09d5 70000000 		.4byte	0x70
 3751 09d9 01       		.byte	0x1
 3752 09da 53       		.byte	0x53
 3753 09db 00       		.byte	0
 3754 09dc 20       		.uleb128 0x20
 3755 09dd 7A010000 		.4byte	.LBB7
 3756 09e1 82010000 		.4byte	.LBE7
 3757 09e5 1E       		.uleb128 0x1e
 3758 09e6 746D7000 		.ascii	"tmp\000"
 3759 09ea 01       		.byte	0x1
 3760 09eb FC01     		.2byte	0x1fc
 3761 09ed 70000000 		.4byte	0x70
 3762 09f1 01       		.byte	0x1
 3763 09f2 53       		.byte	0x53
 3764 09f3 00       		.byte	0
 3765 09f4 00       		.byte	0
 3766 09f5 1D       		.uleb128 0x1d
 3767 09f6 6A000000 		.4byte	.LASF109
 3768 09fa 01       		.byte	0x1
ARM GAS  /tmp/ccLoXihA.s 			page 68


 3769 09fb 1202     		.2byte	0x212
 3770 09fd 01       		.byte	0x1
 3771 09fe 00000000 		.4byte	.LFB31
 3772 0a02 1C000000 		.4byte	.LFE31
 3773 0a06 D8030000 		.4byte	.LLST24
 3774 0a0a 01       		.byte	0x1
 3775 0a0b 1B       		.uleb128 0x1b
 3776 0a0c 5C040000 		.4byte	.LASF110
 3777 0a10 01       		.byte	0x1
 3778 0a11 1802     		.2byte	0x218
 3779 0a13 01       		.byte	0x1
 3780 0a14 00000000 		.4byte	.LFB32
 3781 0a18 52010000 		.4byte	.LFE32
 3782 0a1c F8030000 		.4byte	.LLST25
 3783 0a20 01       		.byte	0x1
 3784 0a21 350A0000 		.4byte	0xa35
 3785 0a25 1C       		.uleb128 0x1c
 3786 0a26 06000000 		.4byte	.LASF91
 3787 0a2a 01       		.byte	0x1
 3788 0a2b 1A02     		.2byte	0x21a
 3789 0a2d D9000000 		.4byte	0xd9
 3790 0a31 02       		.byte	0x2
 3791 0a32 91       		.byte	0x91
 3792 0a33 74       		.sleb128 -12
 3793 0a34 00       		.byte	0
 3794 0a35 1D       		.uleb128 0x1d
 3795 0a36 F7040000 		.4byte	.LASF111
 3796 0a3a 01       		.byte	0x1
 3797 0a3b 3502     		.2byte	0x235
 3798 0a3d 01       		.byte	0x1
 3799 0a3e 00000000 		.4byte	.LFB33
 3800 0a42 28000000 		.4byte	.LFE33
 3801 0a46 24040000 		.4byte	.LLST26
 3802 0a4a 01       		.byte	0x1
 3803 0a4b 19       		.uleb128 0x19
 3804 0a4c FD020000 		.4byte	.LASF112
 3805 0a50 01       		.byte	0x1
 3806 0a51 3C02     		.2byte	0x23c
 3807 0a53 01       		.byte	0x1
 3808 0a54 E4000000 		.4byte	0xe4
 3809 0a58 00000000 		.4byte	.LFB34
 3810 0a5c 4A000000 		.4byte	.LFE34
 3811 0a60 44040000 		.4byte	.LLST27
 3812 0a64 01       		.byte	0x1
 3813 0a65 770A0000 		.4byte	0xa77
 3814 0a69 1A       		.uleb128 0x1a
 3815 0a6a 7000     		.ascii	"p\000"
 3816 0a6c 01       		.byte	0x1
 3817 0a6d 3C02     		.2byte	0x23c
 3818 0a6f A6020000 		.4byte	0x2a6
 3819 0a73 02       		.byte	0x2
 3820 0a74 91       		.byte	0x91
 3821 0a75 74       		.sleb128 -12
 3822 0a76 00       		.byte	0
 3823 0a77 19       		.uleb128 0x19
 3824 0a78 06030000 		.4byte	.LASF113
 3825 0a7c 01       		.byte	0x1
ARM GAS  /tmp/ccLoXihA.s 			page 69


 3826 0a7d 4B02     		.2byte	0x24b
 3827 0a7f 01       		.byte	0x1
 3828 0a80 E4000000 		.4byte	0xe4
 3829 0a84 00000000 		.4byte	.LFB35
 3830 0a88 2A000000 		.4byte	.LFE35
 3831 0a8c 70040000 		.4byte	.LLST28
 3832 0a90 01       		.byte	0x1
 3833 0a91 A30A0000 		.4byte	0xaa3
 3834 0a95 1A       		.uleb128 0x1a
 3835 0a96 7000     		.ascii	"p\000"
 3836 0a98 01       		.byte	0x1
 3837 0a99 4B02     		.2byte	0x24b
 3838 0a9b A6020000 		.4byte	0x2a6
 3839 0a9f 02       		.byte	0x2
 3840 0aa0 91       		.byte	0x91
 3841 0aa1 74       		.sleb128 -12
 3842 0aa2 00       		.byte	0
 3843 0aa3 1B       		.uleb128 0x1b
 3844 0aa4 97010000 		.4byte	.LASF114
 3845 0aa8 01       		.byte	0x1
 3846 0aa9 5302     		.2byte	0x253
 3847 0aab 01       		.byte	0x1
 3848 0aac 00000000 		.4byte	.LFB36
 3849 0ab0 EE000000 		.4byte	.LFE36
 3850 0ab4 9C040000 		.4byte	.LLST29
 3851 0ab8 01       		.byte	0x1
 3852 0ab9 CD0A0000 		.4byte	0xacd
 3853 0abd 1C       		.uleb128 0x1c
 3854 0abe 06000000 		.4byte	.LASF91
 3855 0ac2 01       		.byte	0x1
 3856 0ac3 5502     		.2byte	0x255
 3857 0ac5 D9000000 		.4byte	0xd9
 3858 0ac9 02       		.byte	0x2
 3859 0aca 91       		.byte	0x91
 3860 0acb 74       		.sleb128 -12
 3861 0acc 00       		.byte	0
 3862 0acd 21       		.uleb128 0x21
 3863 0ace 6D3100   		.ascii	"m1\000"
 3864 0ad1 01       		.byte	0x1
 3865 0ad2 44       		.byte	0x44
 3866 0ad3 E2040000 		.4byte	0x4e2
 3867 0ad7 05       		.byte	0x5
 3868 0ad8 03       		.byte	0x3
 3869 0ad9 00000000 		.4byte	m1
 3870 0add 21       		.uleb128 0x21
 3871 0ade 6D3200   		.ascii	"m2\000"
 3872 0ae1 01       		.byte	0x1
 3873 0ae2 45       		.byte	0x45
 3874 0ae3 E2040000 		.4byte	0x4e2
 3875 0ae7 05       		.byte	0x5
 3876 0ae8 03       		.byte	0x3
 3877 0ae9 00000000 		.4byte	m2
 3878 0aed 21       		.uleb128 0x21
 3879 0aee 633100   		.ascii	"c1\000"
 3880 0af1 01       		.byte	0x1
 3881 0af2 47       		.byte	0x47
 3882 0af3 08050000 		.4byte	0x508
ARM GAS  /tmp/ccLoXihA.s 			page 70


 3883 0af7 05       		.byte	0x5
 3884 0af8 03       		.byte	0x3
 3885 0af9 00000000 		.4byte	c1
 3886 0afd 22       		.uleb128 0x22
 3887 0afe 26000000 		.4byte	.LASF115
 3888 0b02 07       		.byte	0x7
 3889 0b03 D4       		.byte	0xd4
 3890 0b04 32040000 		.4byte	0x432
 3891 0b08 01       		.byte	0x1
 3892 0b09 01       		.byte	0x1
 3893 0b0a 22       		.uleb128 0x22
 3894 0b0b C3040000 		.4byte	.LASF116
 3895 0b0f 08       		.byte	0x8
 3896 0b10 68       		.byte	0x68
 3897 0b11 9A040000 		.4byte	0x49a
 3898 0b15 01       		.byte	0x1
 3899 0b16 01       		.byte	0x1
 3900 0b17 23       		.uleb128 0x23
 3901 0b18 68020000 		.4byte	0x268
 3902 0b1c 270B0000 		.4byte	0xb27
 3903 0b20 24       		.uleb128 0x24
 3904 0b21 64030000 		.4byte	0x364
 3905 0b25 04       		.byte	0x4
 3906 0b26 00       		.byte	0
 3907 0b27 22       		.uleb128 0x22
 3908 0b28 7B030000 		.4byte	.LASF117
 3909 0b2c 0B       		.byte	0xb
 3910 0b2d A5       		.byte	0xa5
 3911 0b2e 170B0000 		.4byte	0xb17
 3912 0b32 01       		.byte	0x1
 3913 0b33 01       		.byte	0x1
 3914 0b34 23       		.uleb128 0x23
 3915 0b35 A6020000 		.4byte	0x2a6
 3916 0b39 3F0B0000 		.4byte	0xb3f
 3917 0b3d 25       		.uleb128 0x25
 3918 0b3e 00       		.byte	0
 3919 0b3f 26       		.uleb128 0x26
 3920 0b40 776100   		.ascii	"wa\000"
 3921 0b43 0B       		.byte	0xb
 3922 0b44 A7       		.byte	0xa7
 3923 0b45 4B0B0000 		.4byte	0xb4b
 3924 0b49 01       		.byte	0x1
 3925 0b4a 01       		.byte	0x1
 3926 0b4b 12       		.uleb128 0x12
 3927 0b4c 340B0000 		.4byte	0xb34
 3928 0b50 27       		.uleb128 0x27
 3929 0b51 69040000 		.4byte	.LASF118
 3930 0b55 01       		.byte	0x1
 3931 0b56 70       		.byte	0x70
 3932 0b57 620B0000 		.4byte	0xb62
 3933 0b5b 01       		.byte	0x1
 3934 0b5c 05       		.byte	0x5
 3935 0b5d 03       		.byte	0x3
 3936 0b5e 00000000 		.4byte	testmtx1
 3937 0b62 12       		.uleb128 0x12
 3938 0b63 66050000 		.4byte	0x566
 3939 0b67 27       		.uleb128 0x27
ARM GAS  /tmp/ccLoXihA.s 			page 71


 3940 0b68 BA040000 		.4byte	.LASF119
 3941 0b6c 01       		.byte	0x1
 3942 0b6d CB       		.byte	0xcb
 3943 0b6e 620B0000 		.4byte	0xb62
 3944 0b72 01       		.byte	0x1
 3945 0b73 05       		.byte	0x5
 3946 0b74 03       		.byte	0x3
 3947 0b75 00000000 		.4byte	testmtx2
 3948 0b79 28       		.uleb128 0x28
 3949 0b7a E1030000 		.4byte	.LASF120
 3950 0b7e 01       		.byte	0x1
 3951 0b7f 4301     		.2byte	0x143
 3952 0b81 620B0000 		.4byte	0xb62
 3953 0b85 01       		.byte	0x1
 3954 0b86 05       		.byte	0x5
 3955 0b87 03       		.byte	0x3
 3956 0b88 00000000 		.4byte	testmtx3
 3957 0b8c 28       		.uleb128 0x28
 3958 0b8d EA030000 		.4byte	.LASF121
 3959 0b91 01       		.byte	0x1
 3960 0b92 9B01     		.2byte	0x19b
 3961 0b94 620B0000 		.4byte	0xb62
 3962 0b98 01       		.byte	0x1
 3963 0b99 05       		.byte	0x5
 3964 0b9a 03       		.byte	0x3
 3965 0b9b 00000000 		.4byte	testmtx4
 3966 0b9f 28       		.uleb128 0x28
 3967 0ba0 F3030000 		.4byte	.LASF122
 3968 0ba4 01       		.byte	0x1
 3969 0ba5 CB01     		.2byte	0x1cb
 3970 0ba7 620B0000 		.4byte	0xb62
 3971 0bab 01       		.byte	0x1
 3972 0bac 05       		.byte	0x5
 3973 0bad 03       		.byte	0x3
 3974 0bae 00000000 		.4byte	testmtx5
 3975 0bb2 28       		.uleb128 0x28
 3976 0bb3 FC030000 		.4byte	.LASF123
 3977 0bb7 01       		.byte	0x1
 3978 0bb8 0102     		.2byte	0x201
 3979 0bba 620B0000 		.4byte	0xb62
 3980 0bbe 01       		.byte	0x1
 3981 0bbf 05       		.byte	0x5
 3982 0bc0 03       		.byte	0x3
 3983 0bc1 00000000 		.4byte	testmtx6
 3984 0bc5 28       		.uleb128 0x28
 3985 0bc6 05040000 		.4byte	.LASF124
 3986 0bca 01       		.byte	0x1
 3987 0bcb 2502     		.2byte	0x225
 3988 0bcd 620B0000 		.4byte	0xb62
 3989 0bd1 01       		.byte	0x1
 3990 0bd2 05       		.byte	0x5
 3991 0bd3 03       		.byte	0x3
 3992 0bd4 00000000 		.4byte	testmtx7
 3993 0bd8 28       		.uleb128 0x28
 3994 0bd9 0E040000 		.4byte	.LASF125
 3995 0bdd 01       		.byte	0x1
 3996 0bde 5F02     		.2byte	0x25f
ARM GAS  /tmp/ccLoXihA.s 			page 72


 3997 0be0 620B0000 		.4byte	0xb62
 3998 0be4 01       		.byte	0x1
 3999 0be5 05       		.byte	0x5
 4000 0be6 03       		.byte	0x3
 4001 0be7 00000000 		.4byte	testmtx8
 4002 0beb 23       		.uleb128 0x23
 4003 0bec FB0B0000 		.4byte	0xbfb
 4004 0bf0 FB0B0000 		.4byte	0xbfb
 4005 0bf4 24       		.uleb128 0x24
 4006 0bf5 64030000 		.4byte	0x364
 4007 0bf9 08       		.byte	0x8
 4008 0bfa 00       		.byte	0
 4009 0bfb 09       		.uleb128 0x9
 4010 0bfc 04       		.byte	0x4
 4011 0bfd 620B0000 		.4byte	0xb62
 4012 0c01 28       		.uleb128 0x28
 4013 0c02 4A030000 		.4byte	.LASF126
 4014 0c06 01       		.byte	0x1
 4015 0c07 6B02     		.2byte	0x26b
 4016 0c09 140C0000 		.4byte	0xc14
 4017 0c0d 01       		.byte	0x1
 4018 0c0e 05       		.byte	0x5
 4019 0c0f 03       		.byte	0x3
 4020 0c10 00000000 		.4byte	patternmtx
 4021 0c14 12       		.uleb128 0x12
 4022 0c15 EB0B0000 		.4byte	0xbeb
 4023 0c19 00       		.byte	0
 4024              		.section	.debug_abbrev,"",%progbits
 4025              	.Ldebug_abbrev0:
 4026 0000 01       		.uleb128 0x1
 4027 0001 11       		.uleb128 0x11
 4028 0002 01       		.byte	0x1
 4029 0003 25       		.uleb128 0x25
 4030 0004 0E       		.uleb128 0xe
 4031 0005 13       		.uleb128 0x13
 4032 0006 0B       		.uleb128 0xb
 4033 0007 03       		.uleb128 0x3
 4034 0008 0E       		.uleb128 0xe
 4035 0009 1B       		.uleb128 0x1b
 4036 000a 0E       		.uleb128 0xe
 4037 000b 55       		.uleb128 0x55
 4038 000c 06       		.uleb128 0x6
 4039 000d 11       		.uleb128 0x11
 4040 000e 01       		.uleb128 0x1
 4041 000f 52       		.uleb128 0x52
 4042 0010 01       		.uleb128 0x1
 4043 0011 10       		.uleb128 0x10
 4044 0012 06       		.uleb128 0x6
 4045 0013 00       		.byte	0
 4046 0014 00       		.byte	0
 4047 0015 02       		.uleb128 0x2
 4048 0016 24       		.uleb128 0x24
 4049 0017 00       		.byte	0
 4050 0018 0B       		.uleb128 0xb
 4051 0019 0B       		.uleb128 0xb
 4052 001a 3E       		.uleb128 0x3e
 4053 001b 0B       		.uleb128 0xb
ARM GAS  /tmp/ccLoXihA.s 			page 73


 4054 001c 03       		.uleb128 0x3
 4055 001d 08       		.uleb128 0x8
 4056 001e 00       		.byte	0
 4057 001f 00       		.byte	0
 4058 0020 03       		.uleb128 0x3
 4059 0021 24       		.uleb128 0x24
 4060 0022 00       		.byte	0
 4061 0023 0B       		.uleb128 0xb
 4062 0024 0B       		.uleb128 0xb
 4063 0025 3E       		.uleb128 0x3e
 4064 0026 0B       		.uleb128 0xb
 4065 0027 03       		.uleb128 0x3
 4066 0028 0E       		.uleb128 0xe
 4067 0029 00       		.byte	0
 4068 002a 00       		.byte	0
 4069 002b 04       		.uleb128 0x4
 4070 002c 16       		.uleb128 0x16
 4071 002d 00       		.byte	0
 4072 002e 03       		.uleb128 0x3
 4073 002f 0E       		.uleb128 0xe
 4074 0030 3A       		.uleb128 0x3a
 4075 0031 0B       		.uleb128 0xb
 4076 0032 3B       		.uleb128 0x3b
 4077 0033 0B       		.uleb128 0xb
 4078 0034 49       		.uleb128 0x49
 4079 0035 13       		.uleb128 0x13
 4080 0036 00       		.byte	0
 4081 0037 00       		.byte	0
 4082 0038 05       		.uleb128 0x5
 4083 0039 13       		.uleb128 0x13
 4084 003a 01       		.byte	0x1
 4085 003b 03       		.uleb128 0x3
 4086 003c 0E       		.uleb128 0xe
 4087 003d 0B       		.uleb128 0xb
 4088 003e 0B       		.uleb128 0xb
 4089 003f 3A       		.uleb128 0x3a
 4090 0040 0B       		.uleb128 0xb
 4091 0041 3B       		.uleb128 0x3b
 4092 0042 0B       		.uleb128 0xb
 4093 0043 01       		.uleb128 0x1
 4094 0044 13       		.uleb128 0x13
 4095 0045 00       		.byte	0
 4096 0046 00       		.byte	0
 4097 0047 06       		.uleb128 0x6
 4098 0048 0D       		.uleb128 0xd
 4099 0049 00       		.byte	0
 4100 004a 03       		.uleb128 0x3
 4101 004b 0E       		.uleb128 0xe
 4102 004c 3A       		.uleb128 0x3a
 4103 004d 0B       		.uleb128 0xb
 4104 004e 3B       		.uleb128 0x3b
 4105 004f 0B       		.uleb128 0xb
 4106 0050 49       		.uleb128 0x49
 4107 0051 13       		.uleb128 0x13
 4108 0052 38       		.uleb128 0x38
 4109 0053 0A       		.uleb128 0xa
 4110 0054 00       		.byte	0
ARM GAS  /tmp/ccLoXihA.s 			page 74


 4111 0055 00       		.byte	0
 4112 0056 07       		.uleb128 0x7
 4113 0057 0D       		.uleb128 0xd
 4114 0058 00       		.byte	0
 4115 0059 03       		.uleb128 0x3
 4116 005a 08       		.uleb128 0x8
 4117 005b 3A       		.uleb128 0x3a
 4118 005c 0B       		.uleb128 0xb
 4119 005d 3B       		.uleb128 0x3b
 4120 005e 0B       		.uleb128 0xb
 4121 005f 49       		.uleb128 0x49
 4122 0060 13       		.uleb128 0x13
 4123 0061 38       		.uleb128 0x38
 4124 0062 0A       		.uleb128 0xa
 4125 0063 00       		.byte	0
 4126 0064 00       		.byte	0
 4127 0065 08       		.uleb128 0x8
 4128 0066 13       		.uleb128 0x13
 4129 0067 01       		.byte	0x1
 4130 0068 0B       		.uleb128 0xb
 4131 0069 0B       		.uleb128 0xb
 4132 006a 3A       		.uleb128 0x3a
 4133 006b 0B       		.uleb128 0xb
 4134 006c 3B       		.uleb128 0x3b
 4135 006d 0B       		.uleb128 0xb
 4136 006e 01       		.uleb128 0x1
 4137 006f 13       		.uleb128 0x13
 4138 0070 00       		.byte	0
 4139 0071 00       		.byte	0
 4140 0072 09       		.uleb128 0x9
 4141 0073 0F       		.uleb128 0xf
 4142 0074 00       		.byte	0
 4143 0075 0B       		.uleb128 0xb
 4144 0076 0B       		.uleb128 0xb
 4145 0077 49       		.uleb128 0x49
 4146 0078 13       		.uleb128 0x13
 4147 0079 00       		.byte	0
 4148 007a 00       		.byte	0
 4149 007b 0A       		.uleb128 0xa
 4150 007c 0F       		.uleb128 0xf
 4151 007d 00       		.byte	0
 4152 007e 0B       		.uleb128 0xb
 4153 007f 0B       		.uleb128 0xb
 4154 0080 00       		.byte	0
 4155 0081 00       		.byte	0
 4156 0082 0B       		.uleb128 0xb
 4157 0083 13       		.uleb128 0x13
 4158 0084 01       		.byte	0x1
 4159 0085 03       		.uleb128 0x3
 4160 0086 0E       		.uleb128 0xe
 4161 0087 0B       		.uleb128 0xb
 4162 0088 0B       		.uleb128 0xb
 4163 0089 3A       		.uleb128 0x3a
 4164 008a 0B       		.uleb128 0xb
 4165 008b 3B       		.uleb128 0x3b
 4166 008c 05       		.uleb128 0x5
 4167 008d 01       		.uleb128 0x1
ARM GAS  /tmp/ccLoXihA.s 			page 75


 4168 008e 13       		.uleb128 0x13
 4169 008f 00       		.byte	0
 4170 0090 00       		.byte	0
 4171 0091 0C       		.uleb128 0xc
 4172 0092 0D       		.uleb128 0xd
 4173 0093 00       		.byte	0
 4174 0094 03       		.uleb128 0x3
 4175 0095 08       		.uleb128 0x8
 4176 0096 3A       		.uleb128 0x3a
 4177 0097 0B       		.uleb128 0xb
 4178 0098 3B       		.uleb128 0x3b
 4179 0099 05       		.uleb128 0x5
 4180 009a 49       		.uleb128 0x49
 4181 009b 13       		.uleb128 0x13
 4182 009c 38       		.uleb128 0x38
 4183 009d 0A       		.uleb128 0xa
 4184 009e 00       		.byte	0
 4185 009f 00       		.byte	0
 4186 00a0 0D       		.uleb128 0xd
 4187 00a1 15       		.uleb128 0x15
 4188 00a2 01       		.byte	0x1
 4189 00a3 27       		.uleb128 0x27
 4190 00a4 0C       		.uleb128 0xc
 4191 00a5 01       		.uleb128 0x1
 4192 00a6 13       		.uleb128 0x13
 4193 00a7 00       		.byte	0
 4194 00a8 00       		.byte	0
 4195 00a9 0E       		.uleb128 0xe
 4196 00aa 05       		.uleb128 0x5
 4197 00ab 00       		.byte	0
 4198 00ac 49       		.uleb128 0x49
 4199 00ad 13       		.uleb128 0x13
 4200 00ae 00       		.byte	0
 4201 00af 00       		.byte	0
 4202 00b0 0F       		.uleb128 0xf
 4203 00b1 35       		.uleb128 0x35
 4204 00b2 00       		.byte	0
 4205 00b3 49       		.uleb128 0x49
 4206 00b4 13       		.uleb128 0x13
 4207 00b5 00       		.byte	0
 4208 00b6 00       		.byte	0
 4209 00b7 10       		.uleb128 0x10
 4210 00b8 17       		.uleb128 0x17
 4211 00b9 01       		.byte	0x1
 4212 00ba 0B       		.uleb128 0xb
 4213 00bb 0B       		.uleb128 0xb
 4214 00bc 3A       		.uleb128 0x3a
 4215 00bd 0B       		.uleb128 0xb
 4216 00be 3B       		.uleb128 0x3b
 4217 00bf 0B       		.uleb128 0xb
 4218 00c0 01       		.uleb128 0x1
 4219 00c1 13       		.uleb128 0x13
 4220 00c2 00       		.byte	0
 4221 00c3 00       		.byte	0
 4222 00c4 11       		.uleb128 0x11
 4223 00c5 0D       		.uleb128 0xd
 4224 00c6 00       		.byte	0
ARM GAS  /tmp/ccLoXihA.s 			page 76


 4225 00c7 03       		.uleb128 0x3
 4226 00c8 0E       		.uleb128 0xe
 4227 00c9 3A       		.uleb128 0x3a
 4228 00ca 0B       		.uleb128 0xb
 4229 00cb 3B       		.uleb128 0x3b
 4230 00cc 0B       		.uleb128 0xb
 4231 00cd 49       		.uleb128 0x49
 4232 00ce 13       		.uleb128 0x13
 4233 00cf 00       		.byte	0
 4234 00d0 00       		.byte	0
 4235 00d1 12       		.uleb128 0x12
 4236 00d2 26       		.uleb128 0x26
 4237 00d3 00       		.byte	0
 4238 00d4 49       		.uleb128 0x49
 4239 00d5 13       		.uleb128 0x13
 4240 00d6 00       		.byte	0
 4241 00d7 00       		.byte	0
 4242 00d8 13       		.uleb128 0x13
 4243 00d9 15       		.uleb128 0x15
 4244 00da 00       		.byte	0
 4245 00db 27       		.uleb128 0x27
 4246 00dc 0C       		.uleb128 0xc
 4247 00dd 00       		.byte	0
 4248 00de 00       		.byte	0
 4249 00df 14       		.uleb128 0x14
 4250 00e0 2E       		.uleb128 0x2e
 4251 00e1 00       		.byte	0
 4252 00e2 03       		.uleb128 0x3
 4253 00e3 0E       		.uleb128 0xe
 4254 00e4 3A       		.uleb128 0x3a
 4255 00e5 0B       		.uleb128 0xb
 4256 00e6 3B       		.uleb128 0x3b
 4257 00e7 0B       		.uleb128 0xb
 4258 00e8 27       		.uleb128 0x27
 4259 00e9 0C       		.uleb128 0xc
 4260 00ea 11       		.uleb128 0x11
 4261 00eb 01       		.uleb128 0x1
 4262 00ec 12       		.uleb128 0x12
 4263 00ed 01       		.uleb128 0x1
 4264 00ee 40       		.uleb128 0x40
 4265 00ef 06       		.uleb128 0x6
 4266 00f0 9642     		.uleb128 0x2116
 4267 00f2 0C       		.uleb128 0xc
 4268 00f3 00       		.byte	0
 4269 00f4 00       		.byte	0
 4270 00f5 15       		.uleb128 0x15
 4271 00f6 2E       		.uleb128 0x2e
 4272 00f7 01       		.byte	0x1
 4273 00f8 03       		.uleb128 0x3
 4274 00f9 0E       		.uleb128 0xe
 4275 00fa 3A       		.uleb128 0x3a
 4276 00fb 0B       		.uleb128 0xb
 4277 00fc 3B       		.uleb128 0x3b
 4278 00fd 0B       		.uleb128 0xb
 4279 00fe 27       		.uleb128 0x27
 4280 00ff 0C       		.uleb128 0xc
 4281 0100 49       		.uleb128 0x49
ARM GAS  /tmp/ccLoXihA.s 			page 77


 4282 0101 13       		.uleb128 0x13
 4283 0102 11       		.uleb128 0x11
 4284 0103 01       		.uleb128 0x1
 4285 0104 12       		.uleb128 0x12
 4286 0105 01       		.uleb128 0x1
 4287 0106 40       		.uleb128 0x40
 4288 0107 06       		.uleb128 0x6
 4289 0108 9642     		.uleb128 0x2116
 4290 010a 0C       		.uleb128 0xc
 4291 010b 01       		.uleb128 0x1
 4292 010c 13       		.uleb128 0x13
 4293 010d 00       		.byte	0
 4294 010e 00       		.byte	0
 4295 010f 16       		.uleb128 0x16
 4296 0110 05       		.uleb128 0x5
 4297 0111 00       		.byte	0
 4298 0112 03       		.uleb128 0x3
 4299 0113 08       		.uleb128 0x8
 4300 0114 3A       		.uleb128 0x3a
 4301 0115 0B       		.uleb128 0xb
 4302 0116 3B       		.uleb128 0x3b
 4303 0117 0B       		.uleb128 0xb
 4304 0118 49       		.uleb128 0x49
 4305 0119 13       		.uleb128 0x13
 4306 011a 02       		.uleb128 0x2
 4307 011b 0A       		.uleb128 0xa
 4308 011c 00       		.byte	0
 4309 011d 00       		.byte	0
 4310 011e 17       		.uleb128 0x17
 4311 011f 2E       		.uleb128 0x2e
 4312 0120 01       		.byte	0x1
 4313 0121 03       		.uleb128 0x3
 4314 0122 0E       		.uleb128 0xe
 4315 0123 3A       		.uleb128 0x3a
 4316 0124 0B       		.uleb128 0xb
 4317 0125 3B       		.uleb128 0x3b
 4318 0126 0B       		.uleb128 0xb
 4319 0127 27       		.uleb128 0x27
 4320 0128 0C       		.uleb128 0xc
 4321 0129 11       		.uleb128 0x11
 4322 012a 01       		.uleb128 0x1
 4323 012b 12       		.uleb128 0x12
 4324 012c 01       		.uleb128 0x1
 4325 012d 40       		.uleb128 0x40
 4326 012e 06       		.uleb128 0x6
 4327 012f 9642     		.uleb128 0x2116
 4328 0131 0C       		.uleb128 0xc
 4329 0132 01       		.uleb128 0x1
 4330 0133 13       		.uleb128 0x13
 4331 0134 00       		.byte	0
 4332 0135 00       		.byte	0
 4333 0136 18       		.uleb128 0x18
 4334 0137 34       		.uleb128 0x34
 4335 0138 00       		.byte	0
 4336 0139 03       		.uleb128 0x3
 4337 013a 0E       		.uleb128 0xe
 4338 013b 3A       		.uleb128 0x3a
ARM GAS  /tmp/ccLoXihA.s 			page 78


 4339 013c 0B       		.uleb128 0xb
 4340 013d 3B       		.uleb128 0x3b
 4341 013e 0B       		.uleb128 0xb
 4342 013f 49       		.uleb128 0x49
 4343 0140 13       		.uleb128 0x13
 4344 0141 02       		.uleb128 0x2
 4345 0142 0A       		.uleb128 0xa
 4346 0143 00       		.byte	0
 4347 0144 00       		.byte	0
 4348 0145 19       		.uleb128 0x19
 4349 0146 2E       		.uleb128 0x2e
 4350 0147 01       		.byte	0x1
 4351 0148 03       		.uleb128 0x3
 4352 0149 0E       		.uleb128 0xe
 4353 014a 3A       		.uleb128 0x3a
 4354 014b 0B       		.uleb128 0xb
 4355 014c 3B       		.uleb128 0x3b
 4356 014d 05       		.uleb128 0x5
 4357 014e 27       		.uleb128 0x27
 4358 014f 0C       		.uleb128 0xc
 4359 0150 49       		.uleb128 0x49
 4360 0151 13       		.uleb128 0x13
 4361 0152 11       		.uleb128 0x11
 4362 0153 01       		.uleb128 0x1
 4363 0154 12       		.uleb128 0x12
 4364 0155 01       		.uleb128 0x1
 4365 0156 40       		.uleb128 0x40
 4366 0157 06       		.uleb128 0x6
 4367 0158 9642     		.uleb128 0x2116
 4368 015a 0C       		.uleb128 0xc
 4369 015b 01       		.uleb128 0x1
 4370 015c 13       		.uleb128 0x13
 4371 015d 00       		.byte	0
 4372 015e 00       		.byte	0
 4373 015f 1A       		.uleb128 0x1a
 4374 0160 05       		.uleb128 0x5
 4375 0161 00       		.byte	0
 4376 0162 03       		.uleb128 0x3
 4377 0163 08       		.uleb128 0x8
 4378 0164 3A       		.uleb128 0x3a
 4379 0165 0B       		.uleb128 0xb
 4380 0166 3B       		.uleb128 0x3b
 4381 0167 05       		.uleb128 0x5
 4382 0168 49       		.uleb128 0x49
 4383 0169 13       		.uleb128 0x13
 4384 016a 02       		.uleb128 0x2
 4385 016b 0A       		.uleb128 0xa
 4386 016c 00       		.byte	0
 4387 016d 00       		.byte	0
 4388 016e 1B       		.uleb128 0x1b
 4389 016f 2E       		.uleb128 0x2e
 4390 0170 01       		.byte	0x1
 4391 0171 03       		.uleb128 0x3
 4392 0172 0E       		.uleb128 0xe
 4393 0173 3A       		.uleb128 0x3a
 4394 0174 0B       		.uleb128 0xb
 4395 0175 3B       		.uleb128 0x3b
ARM GAS  /tmp/ccLoXihA.s 			page 79


 4396 0176 05       		.uleb128 0x5
 4397 0177 27       		.uleb128 0x27
 4398 0178 0C       		.uleb128 0xc
 4399 0179 11       		.uleb128 0x11
 4400 017a 01       		.uleb128 0x1
 4401 017b 12       		.uleb128 0x12
 4402 017c 01       		.uleb128 0x1
 4403 017d 40       		.uleb128 0x40
 4404 017e 06       		.uleb128 0x6
 4405 017f 9642     		.uleb128 0x2116
 4406 0181 0C       		.uleb128 0xc
 4407 0182 01       		.uleb128 0x1
 4408 0183 13       		.uleb128 0x13
 4409 0184 00       		.byte	0
 4410 0185 00       		.byte	0
 4411 0186 1C       		.uleb128 0x1c
 4412 0187 34       		.uleb128 0x34
 4413 0188 00       		.byte	0
 4414 0189 03       		.uleb128 0x3
 4415 018a 0E       		.uleb128 0xe
 4416 018b 3A       		.uleb128 0x3a
 4417 018c 0B       		.uleb128 0xb
 4418 018d 3B       		.uleb128 0x3b
 4419 018e 05       		.uleb128 0x5
 4420 018f 49       		.uleb128 0x49
 4421 0190 13       		.uleb128 0x13
 4422 0191 02       		.uleb128 0x2
 4423 0192 0A       		.uleb128 0xa
 4424 0193 00       		.byte	0
 4425 0194 00       		.byte	0
 4426 0195 1D       		.uleb128 0x1d
 4427 0196 2E       		.uleb128 0x2e
 4428 0197 00       		.byte	0
 4429 0198 03       		.uleb128 0x3
 4430 0199 0E       		.uleb128 0xe
 4431 019a 3A       		.uleb128 0x3a
 4432 019b 0B       		.uleb128 0xb
 4433 019c 3B       		.uleb128 0x3b
 4434 019d 05       		.uleb128 0x5
 4435 019e 27       		.uleb128 0x27
 4436 019f 0C       		.uleb128 0xc
 4437 01a0 11       		.uleb128 0x11
 4438 01a1 01       		.uleb128 0x1
 4439 01a2 12       		.uleb128 0x12
 4440 01a3 01       		.uleb128 0x1
 4441 01a4 40       		.uleb128 0x40
 4442 01a5 06       		.uleb128 0x6
 4443 01a6 9642     		.uleb128 0x2116
 4444 01a8 0C       		.uleb128 0xc
 4445 01a9 00       		.byte	0
 4446 01aa 00       		.byte	0
 4447 01ab 1E       		.uleb128 0x1e
 4448 01ac 34       		.uleb128 0x34
 4449 01ad 00       		.byte	0
 4450 01ae 03       		.uleb128 0x3
 4451 01af 08       		.uleb128 0x8
 4452 01b0 3A       		.uleb128 0x3a
ARM GAS  /tmp/ccLoXihA.s 			page 80


 4453 01b1 0B       		.uleb128 0xb
 4454 01b2 3B       		.uleb128 0x3b
 4455 01b3 05       		.uleb128 0x5
 4456 01b4 49       		.uleb128 0x49
 4457 01b5 13       		.uleb128 0x13
 4458 01b6 02       		.uleb128 0x2
 4459 01b7 0A       		.uleb128 0xa
 4460 01b8 00       		.byte	0
 4461 01b9 00       		.byte	0
 4462 01ba 1F       		.uleb128 0x1f
 4463 01bb 0B       		.uleb128 0xb
 4464 01bc 01       		.byte	0x1
 4465 01bd 11       		.uleb128 0x11
 4466 01be 01       		.uleb128 0x1
 4467 01bf 12       		.uleb128 0x12
 4468 01c0 01       		.uleb128 0x1
 4469 01c1 01       		.uleb128 0x1
 4470 01c2 13       		.uleb128 0x13
 4471 01c3 00       		.byte	0
 4472 01c4 00       		.byte	0
 4473 01c5 20       		.uleb128 0x20
 4474 01c6 0B       		.uleb128 0xb
 4475 01c7 01       		.byte	0x1
 4476 01c8 11       		.uleb128 0x11
 4477 01c9 01       		.uleb128 0x1
 4478 01ca 12       		.uleb128 0x12
 4479 01cb 01       		.uleb128 0x1
 4480 01cc 00       		.byte	0
 4481 01cd 00       		.byte	0
 4482 01ce 21       		.uleb128 0x21
 4483 01cf 34       		.uleb128 0x34
 4484 01d0 00       		.byte	0
 4485 01d1 03       		.uleb128 0x3
 4486 01d2 08       		.uleb128 0x8
 4487 01d3 3A       		.uleb128 0x3a
 4488 01d4 0B       		.uleb128 0xb
 4489 01d5 3B       		.uleb128 0x3b
 4490 01d6 0B       		.uleb128 0xb
 4491 01d7 49       		.uleb128 0x49
 4492 01d8 13       		.uleb128 0x13
 4493 01d9 02       		.uleb128 0x2
 4494 01da 0A       		.uleb128 0xa
 4495 01db 00       		.byte	0
 4496 01dc 00       		.byte	0
 4497 01dd 22       		.uleb128 0x22
 4498 01de 34       		.uleb128 0x34
 4499 01df 00       		.byte	0
 4500 01e0 03       		.uleb128 0x3
 4501 01e1 0E       		.uleb128 0xe
 4502 01e2 3A       		.uleb128 0x3a
 4503 01e3 0B       		.uleb128 0xb
 4504 01e4 3B       		.uleb128 0x3b
 4505 01e5 0B       		.uleb128 0xb
 4506 01e6 49       		.uleb128 0x49
 4507 01e7 13       		.uleb128 0x13
 4508 01e8 3F       		.uleb128 0x3f
 4509 01e9 0C       		.uleb128 0xc
ARM GAS  /tmp/ccLoXihA.s 			page 81


 4510 01ea 3C       		.uleb128 0x3c
 4511 01eb 0C       		.uleb128 0xc
 4512 01ec 00       		.byte	0
 4513 01ed 00       		.byte	0
 4514 01ee 23       		.uleb128 0x23
 4515 01ef 01       		.uleb128 0x1
 4516 01f0 01       		.byte	0x1
 4517 01f1 49       		.uleb128 0x49
 4518 01f2 13       		.uleb128 0x13
 4519 01f3 01       		.uleb128 0x1
 4520 01f4 13       		.uleb128 0x13
 4521 01f5 00       		.byte	0
 4522 01f6 00       		.byte	0
 4523 01f7 24       		.uleb128 0x24
 4524 01f8 21       		.uleb128 0x21
 4525 01f9 00       		.byte	0
 4526 01fa 49       		.uleb128 0x49
 4527 01fb 13       		.uleb128 0x13
 4528 01fc 2F       		.uleb128 0x2f
 4529 01fd 0B       		.uleb128 0xb
 4530 01fe 00       		.byte	0
 4531 01ff 00       		.byte	0
 4532 0200 25       		.uleb128 0x25
 4533 0201 21       		.uleb128 0x21
 4534 0202 00       		.byte	0
 4535 0203 00       		.byte	0
 4536 0204 00       		.byte	0
 4537 0205 26       		.uleb128 0x26
 4538 0206 34       		.uleb128 0x34
 4539 0207 00       		.byte	0
 4540 0208 03       		.uleb128 0x3
 4541 0209 08       		.uleb128 0x8
 4542 020a 3A       		.uleb128 0x3a
 4543 020b 0B       		.uleb128 0xb
 4544 020c 3B       		.uleb128 0x3b
 4545 020d 0B       		.uleb128 0xb
 4546 020e 49       		.uleb128 0x49
 4547 020f 13       		.uleb128 0x13
 4548 0210 3F       		.uleb128 0x3f
 4549 0211 0C       		.uleb128 0xc
 4550 0212 3C       		.uleb128 0x3c
 4551 0213 0C       		.uleb128 0xc
 4552 0214 00       		.byte	0
 4553 0215 00       		.byte	0
 4554 0216 27       		.uleb128 0x27
 4555 0217 34       		.uleb128 0x34
 4556 0218 00       		.byte	0
 4557 0219 03       		.uleb128 0x3
 4558 021a 0E       		.uleb128 0xe
 4559 021b 3A       		.uleb128 0x3a
 4560 021c 0B       		.uleb128 0xb
 4561 021d 3B       		.uleb128 0x3b
 4562 021e 0B       		.uleb128 0xb
 4563 021f 49       		.uleb128 0x49
 4564 0220 13       		.uleb128 0x13
 4565 0221 3F       		.uleb128 0x3f
 4566 0222 0C       		.uleb128 0xc
ARM GAS  /tmp/ccLoXihA.s 			page 82


 4567 0223 02       		.uleb128 0x2
 4568 0224 0A       		.uleb128 0xa
 4569 0225 00       		.byte	0
 4570 0226 00       		.byte	0
 4571 0227 28       		.uleb128 0x28
 4572 0228 34       		.uleb128 0x34
 4573 0229 00       		.byte	0
 4574 022a 03       		.uleb128 0x3
 4575 022b 0E       		.uleb128 0xe
 4576 022c 3A       		.uleb128 0x3a
 4577 022d 0B       		.uleb128 0xb
 4578 022e 3B       		.uleb128 0x3b
 4579 022f 05       		.uleb128 0x5
 4580 0230 49       		.uleb128 0x49
 4581 0231 13       		.uleb128 0x13
 4582 0232 3F       		.uleb128 0x3f
 4583 0233 0C       		.uleb128 0xc
 4584 0234 02       		.uleb128 0x2
 4585 0235 0A       		.uleb128 0xa
 4586 0236 00       		.byte	0
 4587 0237 00       		.byte	0
 4588 0238 00       		.byte	0
 4589              		.section	.debug_loc,"",%progbits
 4590              	.Ldebug_loc0:
 4591              	.LLST0:
 4592 0000 00000000 		.4byte	.LFB7
 4593 0004 02000000 		.4byte	.LCFI0
 4594 0008 0200     		.2byte	0x2
 4595 000a 7D       		.byte	0x7d
 4596 000b 00       		.sleb128 0
 4597 000c 02000000 		.4byte	.LCFI0
 4598 0010 10000000 		.4byte	.LFE7
 4599 0014 0200     		.2byte	0x2
 4600 0016 7D       		.byte	0x7d
 4601 0017 08       		.sleb128 8
 4602 0018 00000000 		.4byte	0
 4603 001c 00000000 		.4byte	0
 4604              	.LLST1:
 4605 0020 00000000 		.4byte	.LFB8
 4606 0024 02000000 		.4byte	.LCFI1
 4607 0028 0200     		.2byte	0x2
 4608 002a 7D       		.byte	0x7d
 4609 002b 00       		.sleb128 0
 4610 002c 02000000 		.4byte	.LCFI1
 4611 0030 04000000 		.4byte	.LCFI2
 4612 0034 0200     		.2byte	0x2
 4613 0036 7D       		.byte	0x7d
 4614 0037 04       		.sleb128 4
 4615 0038 04000000 		.4byte	.LCFI2
 4616 003c 2A000000 		.4byte	.LFE8
 4617 0040 0200     		.2byte	0x2
 4618 0042 7D       		.byte	0x7d
 4619 0043 10       		.sleb128 16
 4620 0044 00000000 		.4byte	0
 4621 0048 00000000 		.4byte	0
 4622              	.LLST2:
 4623 004c 00000000 		.4byte	.LFB9
ARM GAS  /tmp/ccLoXihA.s 			page 83


 4624 0050 02000000 		.4byte	.LCFI3
 4625 0054 0200     		.2byte	0x2
 4626 0056 7D       		.byte	0x7d
 4627 0057 00       		.sleb128 0
 4628 0058 02000000 		.4byte	.LCFI3
 4629 005c 04000000 		.4byte	.LCFI4
 4630 0060 0200     		.2byte	0x2
 4631 0062 7D       		.byte	0x7d
 4632 0063 04       		.sleb128 4
 4633 0064 04000000 		.4byte	.LCFI4
 4634 0068 7E010000 		.4byte	.LFE9
 4635 006c 0200     		.2byte	0x2
 4636 006e 7D       		.byte	0x7d
 4637 006f 18       		.sleb128 24
 4638 0070 00000000 		.4byte	0
 4639 0074 00000000 		.4byte	0
 4640              	.LLST3:
 4641 0078 00000000 		.4byte	.LFB10
 4642 007c 02000000 		.4byte	.LCFI5
 4643 0080 0200     		.2byte	0x2
 4644 0082 7D       		.byte	0x7d
 4645 0083 00       		.sleb128 0
 4646 0084 02000000 		.4byte	.LCFI5
 4647 0088 10000000 		.4byte	.LFE10
 4648 008c 0200     		.2byte	0x2
 4649 008e 7D       		.byte	0x7d
 4650 008f 08       		.sleb128 8
 4651 0090 00000000 		.4byte	0
 4652 0094 00000000 		.4byte	0
 4653              	.LLST4:
 4654 0098 00000000 		.4byte	.LFB11
 4655 009c 02000000 		.4byte	.LCFI6
 4656 00a0 0200     		.2byte	0x2
 4657 00a2 7D       		.byte	0x7d
 4658 00a3 00       		.sleb128 0
 4659 00a4 02000000 		.4byte	.LCFI6
 4660 00a8 04000000 		.4byte	.LCFI7
 4661 00ac 0200     		.2byte	0x2
 4662 00ae 7D       		.byte	0x7d
 4663 00af 04       		.sleb128 4
 4664 00b0 04000000 		.4byte	.LCFI7
 4665 00b4 38000000 		.4byte	.LFE11
 4666 00b8 0200     		.2byte	0x2
 4667 00ba 7D       		.byte	0x7d
 4668 00bb 10       		.sleb128 16
 4669 00bc 00000000 		.4byte	0
 4670 00c0 00000000 		.4byte	0
 4671              	.LLST5:
 4672 00c4 00000000 		.4byte	.LFB12
 4673 00c8 02000000 		.4byte	.LCFI8
 4674 00cc 0200     		.2byte	0x2
 4675 00ce 7D       		.byte	0x7d
 4676 00cf 00       		.sleb128 0
 4677 00d0 02000000 		.4byte	.LCFI8
 4678 00d4 04000000 		.4byte	.LCFI9
 4679 00d8 0200     		.2byte	0x2
 4680 00da 7D       		.byte	0x7d
ARM GAS  /tmp/ccLoXihA.s 			page 84


 4681 00db 04       		.sleb128 4
 4682 00dc 04000000 		.4byte	.LCFI9
 4683 00e0 28000000 		.4byte	.LFE12
 4684 00e4 0200     		.2byte	0x2
 4685 00e6 7D       		.byte	0x7d
 4686 00e7 10       		.sleb128 16
 4687 00e8 00000000 		.4byte	0
 4688 00ec 00000000 		.4byte	0
 4689              	.LLST6:
 4690 00f0 00000000 		.4byte	.LFB13
 4691 00f4 02000000 		.4byte	.LCFI10
 4692 00f8 0200     		.2byte	0x2
 4693 00fa 7D       		.byte	0x7d
 4694 00fb 00       		.sleb128 0
 4695 00fc 02000000 		.4byte	.LCFI10
 4696 0100 04000000 		.4byte	.LCFI11
 4697 0104 0200     		.2byte	0x2
 4698 0106 7D       		.byte	0x7d
 4699 0107 04       		.sleb128 4
 4700 0108 04000000 		.4byte	.LCFI11
 4701 010c 38000000 		.4byte	.LFE13
 4702 0110 0200     		.2byte	0x2
 4703 0112 7D       		.byte	0x7d
 4704 0113 10       		.sleb128 16
 4705 0114 00000000 		.4byte	0
 4706 0118 00000000 		.4byte	0
 4707              	.LLST7:
 4708 011c 00000000 		.4byte	.LFB14
 4709 0120 02000000 		.4byte	.LCFI12
 4710 0124 0200     		.2byte	0x2
 4711 0126 7D       		.byte	0x7d
 4712 0127 00       		.sleb128 0
 4713 0128 02000000 		.4byte	.LCFI12
 4714 012c 04000000 		.4byte	.LCFI13
 4715 0130 0200     		.2byte	0x2
 4716 0132 7D       		.byte	0x7d
 4717 0133 04       		.sleb128 4
 4718 0134 04000000 		.4byte	.LCFI13
 4719 0138 0E010000 		.4byte	.LFE14
 4720 013c 0200     		.2byte	0x2
 4721 013e 7D       		.byte	0x7d
 4722 013f 18       		.sleb128 24
 4723 0140 00000000 		.4byte	0
 4724 0144 00000000 		.4byte	0
 4725              	.LLST8:
 4726 0148 00000000 		.4byte	.LFB15
 4727 014c 02000000 		.4byte	.LCFI14
 4728 0150 0200     		.2byte	0x2
 4729 0152 7D       		.byte	0x7d
 4730 0153 00       		.sleb128 0
 4731 0154 02000000 		.4byte	.LCFI14
 4732 0158 1C000000 		.4byte	.LFE15
 4733 015c 0200     		.2byte	0x2
 4734 015e 7D       		.byte	0x7d
 4735 015f 08       		.sleb128 8
 4736 0160 00000000 		.4byte	0
 4737 0164 00000000 		.4byte	0
ARM GAS  /tmp/ccLoXihA.s 			page 85


 4738              	.LLST9:
 4739 0168 00000000 		.4byte	.LFB16
 4740 016c 02000000 		.4byte	.LCFI15
 4741 0170 0200     		.2byte	0x2
 4742 0172 7D       		.byte	0x7d
 4743 0173 00       		.sleb128 0
 4744 0174 02000000 		.4byte	.LCFI15
 4745 0178 04000000 		.4byte	.LCFI16
 4746 017c 0200     		.2byte	0x2
 4747 017e 7D       		.byte	0x7d
 4748 017f 04       		.sleb128 4
 4749 0180 04000000 		.4byte	.LCFI16
 4750 0184 30000000 		.4byte	.LFE16
 4751 0188 0200     		.2byte	0x2
 4752 018a 7D       		.byte	0x7d
 4753 018b 10       		.sleb128 16
 4754 018c 00000000 		.4byte	0
 4755 0190 00000000 		.4byte	0
 4756              	.LLST10:
 4757 0194 00000000 		.4byte	.LFB17
 4758 0198 02000000 		.4byte	.LCFI17
 4759 019c 0200     		.2byte	0x2
 4760 019e 7D       		.byte	0x7d
 4761 019f 00       		.sleb128 0
 4762 01a0 02000000 		.4byte	.LCFI17
 4763 01a4 04000000 		.4byte	.LCFI18
 4764 01a8 0200     		.2byte	0x2
 4765 01aa 7D       		.byte	0x7d
 4766 01ab 04       		.sleb128 4
 4767 01ac 04000000 		.4byte	.LCFI18
 4768 01b0 58000000 		.4byte	.LFE17
 4769 01b4 0200     		.2byte	0x2
 4770 01b6 7D       		.byte	0x7d
 4771 01b7 10       		.sleb128 16
 4772 01b8 00000000 		.4byte	0
 4773 01bc 00000000 		.4byte	0
 4774              	.LLST11:
 4775 01c0 00000000 		.4byte	.LFB18
 4776 01c4 02000000 		.4byte	.LCFI19
 4777 01c8 0200     		.2byte	0x2
 4778 01ca 7D       		.byte	0x7d
 4779 01cb 00       		.sleb128 0
 4780 01cc 02000000 		.4byte	.LCFI19
 4781 01d0 04000000 		.4byte	.LCFI20
 4782 01d4 0200     		.2byte	0x2
 4783 01d6 7D       		.byte	0x7d
 4784 01d7 04       		.sleb128 4
 4785 01d8 04000000 		.4byte	.LCFI20
 4786 01dc 38000000 		.4byte	.LFE18
 4787 01e0 0200     		.2byte	0x2
 4788 01e2 7D       		.byte	0x7d
 4789 01e3 10       		.sleb128 16
 4790 01e4 00000000 		.4byte	0
 4791 01e8 00000000 		.4byte	0
 4792              	.LLST12:
 4793 01ec 00000000 		.4byte	.LFB19
 4794 01f0 02000000 		.4byte	.LCFI21
ARM GAS  /tmp/ccLoXihA.s 			page 86


 4795 01f4 0200     		.2byte	0x2
 4796 01f6 7D       		.byte	0x7d
 4797 01f7 00       		.sleb128 0
 4798 01f8 02000000 		.4byte	.LCFI21
 4799 01fc 04000000 		.4byte	.LCFI22
 4800 0200 0200     		.2byte	0x2
 4801 0202 7D       		.byte	0x7d
 4802 0203 04       		.sleb128 4
 4803 0204 04000000 		.4byte	.LCFI22
 4804 0208 28000000 		.4byte	.LFE19
 4805 020c 0200     		.2byte	0x2
 4806 020e 7D       		.byte	0x7d
 4807 020f 10       		.sleb128 16
 4808 0210 00000000 		.4byte	0
 4809 0214 00000000 		.4byte	0
 4810              	.LLST13:
 4811 0218 00000000 		.4byte	.LFB20
 4812 021c 02000000 		.4byte	.LCFI23
 4813 0220 0200     		.2byte	0x2
 4814 0222 7D       		.byte	0x7d
 4815 0223 00       		.sleb128 0
 4816 0224 02000000 		.4byte	.LCFI23
 4817 0228 04000000 		.4byte	.LCFI24
 4818 022c 0200     		.2byte	0x2
 4819 022e 7D       		.byte	0x7d
 4820 022f 04       		.sleb128 4
 4821 0230 04000000 		.4byte	.LCFI24
 4822 0234 38000000 		.4byte	.LFE20
 4823 0238 0200     		.2byte	0x2
 4824 023a 7D       		.byte	0x7d
 4825 023b 10       		.sleb128 16
 4826 023c 00000000 		.4byte	0
 4827 0240 00000000 		.4byte	0
 4828              	.LLST14:
 4829 0244 00000000 		.4byte	.LFB21
 4830 0248 02000000 		.4byte	.LCFI25
 4831 024c 0200     		.2byte	0x2
 4832 024e 7D       		.byte	0x7d
 4833 024f 00       		.sleb128 0
 4834 0250 02000000 		.4byte	.LCFI25
 4835 0254 04000000 		.4byte	.LCFI26
 4836 0258 0200     		.2byte	0x2
 4837 025a 7D       		.byte	0x7d
 4838 025b 04       		.sleb128 4
 4839 025c 04000000 		.4byte	.LCFI26
 4840 0260 8E010000 		.4byte	.LFE21
 4841 0264 0200     		.2byte	0x2
 4842 0266 7D       		.byte	0x7d
 4843 0267 18       		.sleb128 24
 4844 0268 00000000 		.4byte	0
 4845 026c 00000000 		.4byte	0
 4846              	.LLST15:
 4847 0270 00000000 		.4byte	.LFB22
 4848 0274 02000000 		.4byte	.LCFI27
 4849 0278 0200     		.2byte	0x2
 4850 027a 7D       		.byte	0x7d
 4851 027b 00       		.sleb128 0
ARM GAS  /tmp/ccLoXihA.s 			page 87


 4852 027c 02000000 		.4byte	.LCFI27
 4853 0280 1C000000 		.4byte	.LFE22
 4854 0284 0200     		.2byte	0x2
 4855 0286 7D       		.byte	0x7d
 4856 0287 08       		.sleb128 8
 4857 0288 00000000 		.4byte	0
 4858 028c 00000000 		.4byte	0
 4859              	.LLST16:
 4860 0290 00000000 		.4byte	.LFB23
 4861 0294 02000000 		.4byte	.LCFI28
 4862 0298 0200     		.2byte	0x2
 4863 029a 7D       		.byte	0x7d
 4864 029b 00       		.sleb128 0
 4865 029c 02000000 		.4byte	.LCFI28
 4866 02a0 04000000 		.4byte	.LCFI29
 4867 02a4 0200     		.2byte	0x2
 4868 02a6 7D       		.byte	0x7d
 4869 02a7 04       		.sleb128 4
 4870 02a8 04000000 		.4byte	.LCFI29
 4871 02ac 28000000 		.4byte	.LFE23
 4872 02b0 0200     		.2byte	0x2
 4873 02b2 7D       		.byte	0x7d
 4874 02b3 10       		.sleb128 16
 4875 02b4 00000000 		.4byte	0
 4876 02b8 00000000 		.4byte	0
 4877              	.LLST17:
 4878 02bc 00000000 		.4byte	.LFB24
 4879 02c0 02000000 		.4byte	.LCFI30
 4880 02c4 0200     		.2byte	0x2
 4881 02c6 7D       		.byte	0x7d
 4882 02c7 00       		.sleb128 0
 4883 02c8 02000000 		.4byte	.LCFI30
 4884 02cc 04000000 		.4byte	.LCFI31
 4885 02d0 0200     		.2byte	0x2
 4886 02d2 7D       		.byte	0x7d
 4887 02d3 04       		.sleb128 4
 4888 02d4 04000000 		.4byte	.LCFI31
 4889 02d8 28000000 		.4byte	.LFE24
 4890 02dc 0200     		.2byte	0x2
 4891 02de 7D       		.byte	0x7d
 4892 02df 10       		.sleb128 16
 4893 02e0 00000000 		.4byte	0
 4894 02e4 00000000 		.4byte	0
 4895              	.LLST18:
 4896 02e8 00000000 		.4byte	.LFB25
 4897 02ec 02000000 		.4byte	.LCFI32
 4898 02f0 0200     		.2byte	0x2
 4899 02f2 7D       		.byte	0x7d
 4900 02f3 00       		.sleb128 0
 4901 02f4 02000000 		.4byte	.LCFI32
 4902 02f8 04000000 		.4byte	.LCFI33
 4903 02fc 0200     		.2byte	0x2
 4904 02fe 7D       		.byte	0x7d
 4905 02ff 04       		.sleb128 4
 4906 0300 04000000 		.4byte	.LCFI33
 4907 0304 C8030000 		.4byte	.LFE25
 4908 0308 0200     		.2byte	0x2
ARM GAS  /tmp/ccLoXihA.s 			page 88


 4909 030a 7D       		.byte	0x7d
 4910 030b 20       		.sleb128 32
 4911 030c 00000000 		.4byte	0
 4912 0310 00000000 		.4byte	0
 4913              	.LLST19:
 4914 0314 00000000 		.4byte	.LFB26
 4915 0318 02000000 		.4byte	.LCFI34
 4916 031c 0200     		.2byte	0x2
 4917 031e 7D       		.byte	0x7d
 4918 031f 00       		.sleb128 0
 4919 0320 02000000 		.4byte	.LCFI34
 4920 0324 10000000 		.4byte	.LFE26
 4921 0328 0200     		.2byte	0x2
 4922 032a 7D       		.byte	0x7d
 4923 032b 08       		.sleb128 8
 4924 032c 00000000 		.4byte	0
 4925 0330 00000000 		.4byte	0
 4926              	.LLST20:
 4927 0334 00000000 		.4byte	.LFB27
 4928 0338 02000000 		.4byte	.LCFI35
 4929 033c 0200     		.2byte	0x2
 4930 033e 7D       		.byte	0x7d
 4931 033f 00       		.sleb128 0
 4932 0340 02000000 		.4byte	.LCFI35
 4933 0344 04000000 		.4byte	.LCFI36
 4934 0348 0200     		.2byte	0x2
 4935 034a 7D       		.byte	0x7d
 4936 034b 04       		.sleb128 4
 4937 034c 04000000 		.4byte	.LCFI36
 4938 0350 6C010000 		.4byte	.LFE27
 4939 0354 0200     		.2byte	0x2
 4940 0356 7D       		.byte	0x7d
 4941 0357 10       		.sleb128 16
 4942 0358 00000000 		.4byte	0
 4943 035c 00000000 		.4byte	0
 4944              	.LLST21:
 4945 0360 00000000 		.4byte	.LFB28
 4946 0364 02000000 		.4byte	.LCFI37
 4947 0368 0200     		.2byte	0x2
 4948 036a 7D       		.byte	0x7d
 4949 036b 00       		.sleb128 0
 4950 036c 02000000 		.4byte	.LCFI37
 4951 0370 1C000000 		.4byte	.LFE28
 4952 0374 0200     		.2byte	0x2
 4953 0376 7D       		.byte	0x7d
 4954 0377 08       		.sleb128 8
 4955 0378 00000000 		.4byte	0
 4956 037c 00000000 		.4byte	0
 4957              	.LLST22:
 4958 0380 00000000 		.4byte	.LFB29
 4959 0384 02000000 		.4byte	.LCFI38
 4960 0388 0200     		.2byte	0x2
 4961 038a 7D       		.byte	0x7d
 4962 038b 00       		.sleb128 0
 4963 038c 02000000 		.4byte	.LCFI38
 4964 0390 04000000 		.4byte	.LCFI39
 4965 0394 0200     		.2byte	0x2
ARM GAS  /tmp/ccLoXihA.s 			page 89


 4966 0396 7D       		.byte	0x7d
 4967 0397 04       		.sleb128 4
 4968 0398 04000000 		.4byte	.LCFI39
 4969 039c 36000000 		.4byte	.LFE29
 4970 03a0 0200     		.2byte	0x2
 4971 03a2 7D       		.byte	0x7d
 4972 03a3 10       		.sleb128 16
 4973 03a4 00000000 		.4byte	0
 4974 03a8 00000000 		.4byte	0
 4975              	.LLST23:
 4976 03ac 00000000 		.4byte	.LFB30
 4977 03b0 02000000 		.4byte	.LCFI40
 4978 03b4 0200     		.2byte	0x2
 4979 03b6 7D       		.byte	0x7d
 4980 03b7 00       		.sleb128 0
 4981 03b8 02000000 		.4byte	.LCFI40
 4982 03bc 04000000 		.4byte	.LCFI41
 4983 03c0 0200     		.2byte	0x2
 4984 03c2 7D       		.byte	0x7d
 4985 03c3 04       		.sleb128 4
 4986 03c4 04000000 		.4byte	.LCFI41
 4987 03c8 9E010000 		.4byte	.LFE30
 4988 03cc 0200     		.2byte	0x2
 4989 03ce 7D       		.byte	0x7d
 4990 03cf 18       		.sleb128 24
 4991 03d0 00000000 		.4byte	0
 4992 03d4 00000000 		.4byte	0
 4993              	.LLST24:
 4994 03d8 00000000 		.4byte	.LFB31
 4995 03dc 02000000 		.4byte	.LCFI42
 4996 03e0 0200     		.2byte	0x2
 4997 03e2 7D       		.byte	0x7d
 4998 03e3 00       		.sleb128 0
 4999 03e4 02000000 		.4byte	.LCFI42
 5000 03e8 1C000000 		.4byte	.LFE31
 5001 03ec 0200     		.2byte	0x2
 5002 03ee 7D       		.byte	0x7d
 5003 03ef 08       		.sleb128 8
 5004 03f0 00000000 		.4byte	0
 5005 03f4 00000000 		.4byte	0
 5006              	.LLST25:
 5007 03f8 00000000 		.4byte	.LFB32
 5008 03fc 02000000 		.4byte	.LCFI43
 5009 0400 0200     		.2byte	0x2
 5010 0402 7D       		.byte	0x7d
 5011 0403 00       		.sleb128 0
 5012 0404 02000000 		.4byte	.LCFI43
 5013 0408 04000000 		.4byte	.LCFI44
 5014 040c 0200     		.2byte	0x2
 5015 040e 7D       		.byte	0x7d
 5016 040f 04       		.sleb128 4
 5017 0410 04000000 		.4byte	.LCFI44
 5018 0414 52010000 		.4byte	.LFE32
 5019 0418 0200     		.2byte	0x2
 5020 041a 7D       		.byte	0x7d
 5021 041b 18       		.sleb128 24
 5022 041c 00000000 		.4byte	0
ARM GAS  /tmp/ccLoXihA.s 			page 90


 5023 0420 00000000 		.4byte	0
 5024              	.LLST26:
 5025 0424 00000000 		.4byte	.LFB33
 5026 0428 02000000 		.4byte	.LCFI45
 5027 042c 0200     		.2byte	0x2
 5028 042e 7D       		.byte	0x7d
 5029 042f 00       		.sleb128 0
 5030 0430 02000000 		.4byte	.LCFI45
 5031 0434 28000000 		.4byte	.LFE33
 5032 0438 0200     		.2byte	0x2
 5033 043a 7D       		.byte	0x7d
 5034 043b 08       		.sleb128 8
 5035 043c 00000000 		.4byte	0
 5036 0440 00000000 		.4byte	0
 5037              	.LLST27:
 5038 0444 00000000 		.4byte	.LFB34
 5039 0448 02000000 		.4byte	.LCFI46
 5040 044c 0200     		.2byte	0x2
 5041 044e 7D       		.byte	0x7d
 5042 044f 00       		.sleb128 0
 5043 0450 02000000 		.4byte	.LCFI46
 5044 0454 04000000 		.4byte	.LCFI47
 5045 0458 0200     		.2byte	0x2
 5046 045a 7D       		.byte	0x7d
 5047 045b 04       		.sleb128 4
 5048 045c 04000000 		.4byte	.LCFI47
 5049 0460 4A000000 		.4byte	.LFE34
 5050 0464 0200     		.2byte	0x2
 5051 0466 7D       		.byte	0x7d
 5052 0467 10       		.sleb128 16
 5053 0468 00000000 		.4byte	0
 5054 046c 00000000 		.4byte	0
 5055              	.LLST28:
 5056 0470 00000000 		.4byte	.LFB35
 5057 0474 02000000 		.4byte	.LCFI48
 5058 0478 0200     		.2byte	0x2
 5059 047a 7D       		.byte	0x7d
 5060 047b 00       		.sleb128 0
 5061 047c 02000000 		.4byte	.LCFI48
 5062 0480 04000000 		.4byte	.LCFI49
 5063 0484 0200     		.2byte	0x2
 5064 0486 7D       		.byte	0x7d
 5065 0487 04       		.sleb128 4
 5066 0488 04000000 		.4byte	.LCFI49
 5067 048c 2A000000 		.4byte	.LFE35
 5068 0490 0200     		.2byte	0x2
 5069 0492 7D       		.byte	0x7d
 5070 0493 10       		.sleb128 16
 5071 0494 00000000 		.4byte	0
 5072 0498 00000000 		.4byte	0
 5073              	.LLST29:
 5074 049c 00000000 		.4byte	.LFB36
 5075 04a0 02000000 		.4byte	.LCFI50
 5076 04a4 0200     		.2byte	0x2
 5077 04a6 7D       		.byte	0x7d
 5078 04a7 00       		.sleb128 0
 5079 04a8 02000000 		.4byte	.LCFI50
ARM GAS  /tmp/ccLoXihA.s 			page 91


 5080 04ac 04000000 		.4byte	.LCFI51
 5081 04b0 0200     		.2byte	0x2
 5082 04b2 7D       		.byte	0x7d
 5083 04b3 04       		.sleb128 4
 5084 04b4 04000000 		.4byte	.LCFI51
 5085 04b8 EE000000 		.4byte	.LFE36
 5086 04bc 0200     		.2byte	0x2
 5087 04be 7D       		.byte	0x7d
 5088 04bf 18       		.sleb128 24
 5089 04c0 00000000 		.4byte	0
 5090 04c4 00000000 		.4byte	0
 5091              		.section	.debug_aranges,"",%progbits
 5092 0000 04010000 		.4byte	0x104
 5093 0004 0200     		.2byte	0x2
 5094 0006 00000000 		.4byte	.Ldebug_info0
 5095 000a 04       		.byte	0x4
 5096 000b 00       		.byte	0
 5097 000c 0000     		.2byte	0
 5098 000e 0000     		.2byte	0
 5099 0010 00000000 		.4byte	.LFB7
 5100 0014 10000000 		.4byte	.LFE7-.LFB7
 5101 0018 00000000 		.4byte	.LFB8
 5102 001c 2A000000 		.4byte	.LFE8-.LFB8
 5103 0020 00000000 		.4byte	.LFB9
 5104 0024 7E010000 		.4byte	.LFE9-.LFB9
 5105 0028 00000000 		.4byte	.LFB10
 5106 002c 10000000 		.4byte	.LFE10-.LFB10
 5107 0030 00000000 		.4byte	.LFB11
 5108 0034 38000000 		.4byte	.LFE11-.LFB11
 5109 0038 00000000 		.4byte	.LFB12
 5110 003c 28000000 		.4byte	.LFE12-.LFB12
 5111 0040 00000000 		.4byte	.LFB13
 5112 0044 38000000 		.4byte	.LFE13-.LFB13
 5113 0048 00000000 		.4byte	.LFB14
 5114 004c 0E010000 		.4byte	.LFE14-.LFB14
 5115 0050 00000000 		.4byte	.LFB15
 5116 0054 1C000000 		.4byte	.LFE15-.LFB15
 5117 0058 00000000 		.4byte	.LFB16
 5118 005c 30000000 		.4byte	.LFE16-.LFB16
 5119 0060 00000000 		.4byte	.LFB17
 5120 0064 58000000 		.4byte	.LFE17-.LFB17
 5121 0068 00000000 		.4byte	.LFB18
 5122 006c 38000000 		.4byte	.LFE18-.LFB18
 5123 0070 00000000 		.4byte	.LFB19
 5124 0074 28000000 		.4byte	.LFE19-.LFB19
 5125 0078 00000000 		.4byte	.LFB20
 5126 007c 38000000 		.4byte	.LFE20-.LFB20
 5127 0080 00000000 		.4byte	.LFB21
 5128 0084 8E010000 		.4byte	.LFE21-.LFB21
 5129 0088 00000000 		.4byte	.LFB22
 5130 008c 1C000000 		.4byte	.LFE22-.LFB22
 5131 0090 00000000 		.4byte	.LFB23
 5132 0094 28000000 		.4byte	.LFE23-.LFB23
 5133 0098 00000000 		.4byte	.LFB24
 5134 009c 28000000 		.4byte	.LFE24-.LFB24
 5135 00a0 00000000 		.4byte	.LFB25
 5136 00a4 C8030000 		.4byte	.LFE25-.LFB25
ARM GAS  /tmp/ccLoXihA.s 			page 92


 5137 00a8 00000000 		.4byte	.LFB26
 5138 00ac 10000000 		.4byte	.LFE26-.LFB26
 5139 00b0 00000000 		.4byte	.LFB27
 5140 00b4 6C010000 		.4byte	.LFE27-.LFB27
 5141 00b8 00000000 		.4byte	.LFB28
 5142 00bc 1C000000 		.4byte	.LFE28-.LFB28
 5143 00c0 00000000 		.4byte	.LFB29
 5144 00c4 36000000 		.4byte	.LFE29-.LFB29
 5145 00c8 00000000 		.4byte	.LFB30
 5146 00cc 9E010000 		.4byte	.LFE30-.LFB30
 5147 00d0 00000000 		.4byte	.LFB31
 5148 00d4 1C000000 		.4byte	.LFE31-.LFB31
 5149 00d8 00000000 		.4byte	.LFB32
 5150 00dc 52010000 		.4byte	.LFE32-.LFB32
 5151 00e0 00000000 		.4byte	.LFB33
 5152 00e4 28000000 		.4byte	.LFE33-.LFB33
 5153 00e8 00000000 		.4byte	.LFB34
 5154 00ec 4A000000 		.4byte	.LFE34-.LFB34
 5155 00f0 00000000 		.4byte	.LFB35
 5156 00f4 2A000000 		.4byte	.LFE35-.LFB35
 5157 00f8 00000000 		.4byte	.LFB36
 5158 00fc EE000000 		.4byte	.LFE36-.LFB36
 5159 0100 00000000 		.4byte	0
 5160 0104 00000000 		.4byte	0
 5161              		.section	.debug_ranges,"",%progbits
 5162              	.Ldebug_ranges0:
 5163 0000 00000000 		.4byte	.LFB7
 5164 0004 10000000 		.4byte	.LFE7
 5165 0008 00000000 		.4byte	.LFB8
 5166 000c 2A000000 		.4byte	.LFE8
 5167 0010 00000000 		.4byte	.LFB9
 5168 0014 7E010000 		.4byte	.LFE9
 5169 0018 00000000 		.4byte	.LFB10
 5170 001c 10000000 		.4byte	.LFE10
 5171 0020 00000000 		.4byte	.LFB11
 5172 0024 38000000 		.4byte	.LFE11
 5173 0028 00000000 		.4byte	.LFB12
 5174 002c 28000000 		.4byte	.LFE12
 5175 0030 00000000 		.4byte	.LFB13
 5176 0034 38000000 		.4byte	.LFE13
 5177 0038 00000000 		.4byte	.LFB14
 5178 003c 0E010000 		.4byte	.LFE14
 5179 0040 00000000 		.4byte	.LFB15
 5180 0044 1C000000 		.4byte	.LFE15
 5181 0048 00000000 		.4byte	.LFB16
 5182 004c 30000000 		.4byte	.LFE16
 5183 0050 00000000 		.4byte	.LFB17
 5184 0054 58000000 		.4byte	.LFE17
 5185 0058 00000000 		.4byte	.LFB18
 5186 005c 38000000 		.4byte	.LFE18
 5187 0060 00000000 		.4byte	.LFB19
 5188 0064 28000000 		.4byte	.LFE19
 5189 0068 00000000 		.4byte	.LFB20
 5190 006c 38000000 		.4byte	.LFE20
 5191 0070 00000000 		.4byte	.LFB21
 5192 0074 8E010000 		.4byte	.LFE21
 5193 0078 00000000 		.4byte	.LFB22
ARM GAS  /tmp/ccLoXihA.s 			page 93


 5194 007c 1C000000 		.4byte	.LFE22
 5195 0080 00000000 		.4byte	.LFB23
 5196 0084 28000000 		.4byte	.LFE23
 5197 0088 00000000 		.4byte	.LFB24
 5198 008c 28000000 		.4byte	.LFE24
 5199 0090 00000000 		.4byte	.LFB25
 5200 0094 C8030000 		.4byte	.LFE25
 5201 0098 00000000 		.4byte	.LFB26
 5202 009c 10000000 		.4byte	.LFE26
 5203 00a0 00000000 		.4byte	.LFB27
 5204 00a4 6C010000 		.4byte	.LFE27
 5205 00a8 00000000 		.4byte	.LFB28
 5206 00ac 1C000000 		.4byte	.LFE28
 5207 00b0 00000000 		.4byte	.LFB29
 5208 00b4 36000000 		.4byte	.LFE29
 5209 00b8 00000000 		.4byte	.LFB30
 5210 00bc 9E010000 		.4byte	.LFE30
 5211 00c0 00000000 		.4byte	.LFB31
 5212 00c4 1C000000 		.4byte	.LFE31
 5213 00c8 00000000 		.4byte	.LFB32
 5214 00cc 52010000 		.4byte	.LFE32
 5215 00d0 00000000 		.4byte	.LFB33
 5216 00d4 28000000 		.4byte	.LFE33
 5217 00d8 00000000 		.4byte	.LFB34
 5218 00dc 4A000000 		.4byte	.LFE34
 5219 00e0 00000000 		.4byte	.LFB35
 5220 00e4 2A000000 		.4byte	.LFE35
 5221 00e8 00000000 		.4byte	.LFB36
 5222 00ec EE000000 		.4byte	.LFE36
 5223 00f0 00000000 		.4byte	0
 5224 00f4 00000000 		.4byte	0
 5225              		.section	.debug_line,"",%progbits
 5226              	.Ldebug_line0:
 5227 0000 27040000 		.section	.debug_str,"MS",%progbits,1
 5227      02002301 
 5227      00000201 
 5227      FB0E0D00 
 5227      01010101 
 5228              	.LASF39:
 5229 0000 705F6D73 		.ascii	"p_msg\000"
 5229      6700
 5230              	.LASF91:
 5231 0006 7072696F 		.ascii	"prio\000"
 5231      00
 5232              	.LASF73:
 5233 000b 7264796D 		.ascii	"rdymsg\000"
 5233      736700
 5234              	.LASF11:
 5235 0012 75696E74 		.ascii	"uint64_t\000"
 5235      36345F74 
 5235      00
 5236              	.LASF93:
 5237 001b 6D747833 		.ascii	"mtx3_setup\000"
 5237      5F736574 
 5237      757000
 5238              	.LASF115:
 5239 0026 76746C69 		.ascii	"vtlist\000"
ARM GAS  /tmp/ccLoXihA.s 			page 94


 5239      737400
 5240              	.LASF104:
 5241 002d 6D747835 		.ascii	"mtx5_setup\000"
 5241      5F736574 
 5241      757000
 5242              	.LASF101:
 5243 0038 74687265 		.ascii	"thread4a\000"
 5243      61643461 
 5243      00
 5244              	.LASF102:
 5245 0041 74687265 		.ascii	"thread4b\000"
 5245      61643462 
 5245      00
 5246              	.LASF12:
 5247 004a 6C6F6E67 		.ascii	"long long unsigned int\000"
 5247      206C6F6E 
 5247      6720756E 
 5247      7369676E 
 5247      65642069 
 5248              	.LASF74:
 5249 0061 65786974 		.ascii	"exitcode\000"
 5249      636F6465 
 5249      00
 5250              	.LASF109:
 5251 006a 6D747837 		.ascii	"mtx7_setup\000"
 5251      5F736574 
 5251      757000
 5252              	.LASF89:
 5253 0075 6D747831 		.ascii	"mtx1_execute\000"
 5253      5F657865 
 5253      63757465 
 5253      00
 5254              	.LASF26:
 5255 0082 705F7072 		.ascii	"p_prio\000"
 5255      696F00
 5256              	.LASF10:
 5257 0089 6C6F6E67 		.ascii	"long long int\000"
 5257      206C6F6E 
 5257      6720696E 
 5257      7400
 5258              	.LASF1:
 5259 0097 7369676E 		.ascii	"signed char\000"
 5259      65642063 
 5259      68617200 
 5260              	.LASF43:
 5261 00a3 705F6D70 		.ascii	"p_mpool\000"
 5261      6F6F6C00 
 5262              	.LASF13:
 5263 00ab 626F6F6C 		.ascii	"bool_t\000"
 5263      5F7400
 5264              	.LASF68:
 5265 00b2 6D5F7175 		.ascii	"m_queue\000"
 5265      65756500 
 5266              	.LASF18:
 5267 00ba 74736C69 		.ascii	"tslices_t\000"
 5267      6365735F 
 5267      7400
ARM GAS  /tmp/ccLoXihA.s 			page 95


 5268              	.LASF71:
 5269 00c4 436F6E64 		.ascii	"CondVar\000"
 5269      56617200 
 5270              	.LASF7:
 5271 00cc 6C6F6E67 		.ascii	"long int\000"
 5271      20696E74 
 5271      00
 5272              	.LASF16:
 5273 00d5 74737461 		.ascii	"tstate_t\000"
 5273      74655F74 
 5273      00
 5274              	.LASF83:
 5275 00de 6D747831 		.ascii	"mtx1_setup\000"
 5275      5F736574 
 5275      757000
 5276              	.LASF90:
 5277 00e9 6D747832 		.ascii	"mtx2_execute\000"
 5277      5F657865 
 5277      63757465 
 5277      00
 5278              	.LASF28:
 5279 00f6 705F6E65 		.ascii	"p_newer\000"
 5279      77657200 
 5280              	.LASF128:
 5281 00fe 2E2E2F2E 		.ascii	"../../test/testmtx.c\000"
 5281      2E2F7465 
 5281      73742F74 
 5281      6573746D 
 5281      74782E63 
 5282              	.LASF63:
 5283 0113 725F6E65 		.ascii	"r_newer\000"
 5283      77657200 
 5284              	.LASF46:
 5285 011b 72656761 		.ascii	"regarm_t\000"
 5285      726D5F74 
 5285      00
 5286              	.LASF54:
 5287 0124 76745F70 		.ascii	"vt_prev\000"
 5287      72657600 
 5288              	.LASF31:
 5289 012c 705F7374 		.ascii	"p_stklimit\000"
 5289      6B6C696D 
 5289      697400
 5290              	.LASF0:
 5291 0137 756E7369 		.ascii	"unsigned int\000"
 5291      676E6564 
 5291      20696E74 
 5291      00
 5292              	.LASF53:
 5293 0144 76745F6E 		.ascii	"vt_next\000"
 5293      65787400 
 5294              	.LASF94:
 5295 014c 74687265 		.ascii	"thread3LL\000"
 5295      6164334C 
 5295      4C00
 5296              	.LASF9:
 5297 0156 6C6F6E67 		.ascii	"long unsigned int\000"
ARM GAS  /tmp/ccLoXihA.s 			page 96


 5297      20756E73 
 5297      69676E65 
 5297      6420696E 
 5297      7400
 5298              	.LASF81:
 5299 0168 74656172 		.ascii	"teardown\000"
 5299      646F776E 
 5299      00
 5300              	.LASF79:
 5301 0171 6E616D65 		.ascii	"name\000"
 5301      00
 5302              	.LASF49:
 5303 0176 636F6E74 		.ascii	"context\000"
 5303      65787400 
 5304              	.LASF4:
 5305 017e 73686F72 		.ascii	"short unsigned int\000"
 5305      7420756E 
 5305      7369676E 
 5305      65642069 
 5305      6E7400
 5306              	.LASF20:
 5307 0191 6D73675F 		.ascii	"msg_t\000"
 5307      7400
 5308              	.LASF114:
 5309 0197 6D747838 		.ascii	"mtx8_execute\000"
 5309      5F657865 
 5309      63757465 
 5309      00
 5310              	.LASF99:
 5311 01a4 6D747833 		.ascii	"mtx3_execute\000"
 5311      5F657865 
 5311      63757465 
 5311      00
 5312              	.LASF15:
 5313 01b1 746D6F64 		.ascii	"tmode_t\000"
 5313      655F7400 
 5314              	.LASF45:
 5315 01b9 54687265 		.ascii	"ThreadsList\000"
 5315      6164734C 
 5315      69737400 
 5316              	.LASF21:
 5317 01c5 6576656E 		.ascii	"eventmask_t\000"
 5317      746D6173 
 5317      6B5F7400 
 5318              	.LASF67:
 5319 01d1 4D757465 		.ascii	"Mutex\000"
 5319      7800
 5320              	.LASF127:
 5321 01d7 474E5520 		.ascii	"GNU C 4.7.4 20130613 (release) [ARM/embedded-4_7-br"
 5321      4320342E 
 5321      372E3420 
 5321      32303133 
 5321      30363133 
 5322 020a 616E6368 		.ascii	"anch revision 200083]\000"
 5322      20726576 
 5322      6973696F 
 5322      6E203230 
ARM GAS  /tmp/ccLoXihA.s 			page 97


 5322      30303833 
 5323              	.LASF47:
 5324 0220 73746B61 		.ascii	"stkalign_t\000"
 5324      6C69676E 
 5324      5F7400
 5325              	.LASF55:
 5326 022b 76745F74 		.ascii	"vt_time\000"
 5326      696D6500 
 5327              	.LASF50:
 5328 0233 73697A65 		.ascii	"sizetype\000"
 5328      74797065 
 5328      00
 5329              	.LASF56:
 5330 023c 76745F66 		.ascii	"vt_func\000"
 5330      756E6300 
 5331              	.LASF84:
 5332 0244 6D747832 		.ascii	"mtx2_setup\000"
 5332      5F736574 
 5332      757000
 5333              	.LASF29:
 5334 024f 705F6F6C 		.ascii	"p_older\000"
 5334      64657200 
 5335              	.LASF85:
 5336 0257 74687265 		.ascii	"thread1\000"
 5336      61643100 
 5337              	.LASF129:
 5338 025f 2F686F6D 		.ascii	"/home/witold/Dokumenty/arm/ChibiOS-master/demos/dis"
 5338      652F7769 
 5338      746F6C64 
 5338      2F446F6B 
 5338      756D656E 
 5339 0292 636F7665 		.ascii	"covery_1wire\000"
 5339      72795F31 
 5339      77697265 
 5339      00
 5340              	.LASF62:
 5341 029f 725F6374 		.ascii	"r_ctx\000"
 5341      7800
 5342              	.LASF44:
 5343 02a5 54687265 		.ascii	"ThreadsQueue\000"
 5343      61647351 
 5343      75657565 
 5343      00
 5344              	.LASF80:
 5345 02b2 73657475 		.ascii	"setup\000"
 5345      7000
 5346              	.LASF92:
 5347 02b8 74696D65 		.ascii	"time\000"
 5347      00
 5348              	.LASF103:
 5349 02bd 6D747834 		.ascii	"mtx4_execute\000"
 5349      5F657865 
 5349      63757465 
 5349      00
 5350              	.LASF65:
 5351 02ca 725F6375 		.ascii	"r_current\000"
 5351      7272656E 
ARM GAS  /tmp/ccLoXihA.s 			page 98


 5351      7400
 5352              	.LASF64:
 5353 02d4 725F6F6C 		.ascii	"r_older\000"
 5353      64657200 
 5354              	.LASF105:
 5355 02dc 6D747835 		.ascii	"mtx5_execute\000"
 5355      5F657865 
 5355      63757465 
 5355      00
 5356              	.LASF106:
 5357 02e9 6D747836 		.ascii	"mtx6_setup\000"
 5357      5F736574 
 5357      757000
 5358              	.LASF107:
 5359 02f4 74687265 		.ascii	"thread10\000"
 5359      61643130 
 5359      00
 5360              	.LASF112:
 5361 02fd 74687265 		.ascii	"thread11\000"
 5361      61643131 
 5361      00
 5362              	.LASF113:
 5363 0306 74687265 		.ascii	"thread12\000"
 5363      61643132 
 5363      00
 5364              	.LASF17:
 5365 030f 74726566 		.ascii	"trefs_t\000"
 5365      735F7400 
 5366              	.LASF25:
 5367 0317 705F7072 		.ascii	"p_prev\000"
 5367      657600
 5368              	.LASF82:
 5369 031e 65786563 		.ascii	"execute\000"
 5369      75746500 
 5370              	.LASF19:
 5371 0326 74707269 		.ascii	"tprio_t\000"
 5371      6F5F7400 
 5372              	.LASF14:
 5373 032e 5F426F6F 		.ascii	"_Bool\000"
 5373      6C00
 5374              	.LASF6:
 5375 0334 696E7433 		.ascii	"int32_t\000"
 5375      325F7400 
 5376              	.LASF2:
 5377 033c 756E7369 		.ascii	"unsigned char\000"
 5377      676E6564 
 5377      20636861 
 5377      7200
 5378              	.LASF126:
 5379 034a 70617474 		.ascii	"patternmtx\000"
 5379      65726E6D 
 5379      747800
 5380              	.LASF41:
 5381 0355 705F6D74 		.ascii	"p_mtxlist\000"
 5381      786C6973 
 5381      7400
 5382              	.LASF3:
ARM GAS  /tmp/ccLoXihA.s 			page 99


 5383 035f 73686F72 		.ascii	"short int\000"
 5383      7420696E 
 5383      7400
 5384              	.LASF32:
 5385 0369 705F7374 		.ascii	"p_state\000"
 5385      61746500 
 5386              	.LASF35:
 5387 0371 705F7072 		.ascii	"p_preempt\000"
 5387      65656D70 
 5387      7400
 5388              	.LASF117:
 5389 037b 74687265 		.ascii	"threads\000"
 5389      61647300 
 5390              	.LASF61:
 5391 0383 725F7072 		.ascii	"r_prio\000"
 5391      696F00
 5392              	.LASF76:
 5393 038a 65776D61 		.ascii	"ewmask\000"
 5393      736B00
 5394              	.LASF24:
 5395 0391 705F6E65 		.ascii	"p_next\000"
 5395      787400
 5396              	.LASF33:
 5397 0398 705F666C 		.ascii	"p_flags\000"
 5397      61677300 
 5398              	.LASF23:
 5399 03a0 54687265 		.ascii	"Thread\000"
 5399      616400
 5400              	.LASF72:
 5401 03a7 635F7175 		.ascii	"c_queue\000"
 5401      65756500 
 5402              	.LASF78:
 5403 03af 74657374 		.ascii	"testcase\000"
 5403      63617365 
 5403      00
 5404              	.LASF40:
 5405 03b8 705F6570 		.ascii	"p_epending\000"
 5405      656E6469 
 5405      6E6700
 5406              	.LASF8:
 5407 03c3 75696E74 		.ascii	"uint32_t\000"
 5407      33325F74 
 5407      00
 5408              	.LASF60:
 5409 03cc 725F7175 		.ascii	"r_queue\000"
 5409      65756500 
 5410              	.LASF52:
 5411 03d4 56697274 		.ascii	"VirtualTimer\000"
 5411      75616C54 
 5411      696D6572 
 5411      00
 5412              	.LASF120:
 5413 03e1 74657374 		.ascii	"testmtx3\000"
 5413      6D747833 
 5413      00
 5414              	.LASF121:
 5415 03ea 74657374 		.ascii	"testmtx4\000"
ARM GAS  /tmp/ccLoXihA.s 			page 100


 5415      6D747834 
 5415      00
 5416              	.LASF122:
 5417 03f3 74657374 		.ascii	"testmtx5\000"
 5417      6D747835 
 5417      00
 5418              	.LASF123:
 5419 03fc 74657374 		.ascii	"testmtx6\000"
 5419      6D747836 
 5419      00
 5420              	.LASF124:
 5421 0405 74657374 		.ascii	"testmtx7\000"
 5421      6D747837 
 5421      00
 5422              	.LASF125:
 5423 040e 74657374 		.ascii	"testmtx8\000"
 5423      6D747838 
 5423      00
 5424              	.LASF77:
 5425 0417 63686172 		.ascii	"char\000"
 5425      00
 5426              	.LASF88:
 5427 041c 74687265 		.ascii	"thread2H\000"
 5427      61643248 
 5427      00
 5428              	.LASF86:
 5429 0425 74687265 		.ascii	"thread2L\000"
 5429      6164324C 
 5429      00
 5430              	.LASF87:
 5431 042e 74687265 		.ascii	"thread2M\000"
 5431      6164324D 
 5431      00
 5432              	.LASF70:
 5433 0437 6D5F6E65 		.ascii	"m_next\000"
 5433      787400
 5434              	.LASF22:
 5435 043e 73797374 		.ascii	"systime_t\000"
 5435      696D655F 
 5435      7400
 5436              	.LASF42:
 5437 0448 705F7265 		.ascii	"p_realprio\000"
 5437      616C7072 
 5437      696F00
 5438              	.LASF51:
 5439 0453 76746675 		.ascii	"vtfunc_t\000"
 5439      6E635F74 
 5439      00
 5440              	.LASF110:
 5441 045c 6D747837 		.ascii	"mtx7_execute\000"
 5441      5F657865 
 5441      63757465 
 5441      00
 5442              	.LASF118:
 5443 0469 74657374 		.ascii	"testmtx1\000"
 5443      6D747831 
 5443      00
ARM GAS  /tmp/ccLoXihA.s 			page 101


 5444              	.LASF98:
 5445 0472 74687265 		.ascii	"thread3HH\000"
 5445      61643348 
 5445      4800
 5446              	.LASF36:
 5447 047c 705F7469 		.ascii	"p_time\000"
 5447      6D6500
 5448              	.LASF48:
 5449 0483 696E7463 		.ascii	"intctx\000"
 5449      747800
 5450              	.LASF38:
 5451 048a 705F6D73 		.ascii	"p_msgqueue\000"
 5451      67717565 
 5451      756500
 5452              	.LASF57:
 5453 0495 76745F70 		.ascii	"vt_par\000"
 5453      617200
 5454              	.LASF108:
 5455 049c 6D747836 		.ascii	"mtx6_execute\000"
 5455      5F657865 
 5455      63757465 
 5455      00
 5456              	.LASF34:
 5457 04a9 705F7265 		.ascii	"p_refs\000"
 5457      667300
 5458              	.LASF66:
 5459 04b0 52656164 		.ascii	"ReadyList\000"
 5459      794C6973 
 5459      7400
 5460              	.LASF119:
 5461 04ba 74657374 		.ascii	"testmtx2\000"
 5461      6D747832 
 5461      00
 5462              	.LASF116:
 5463 04c3 726C6973 		.ascii	"rlist\000"
 5463      7400
 5464              	.LASF5:
 5465 04c9 75696E74 		.ascii	"uint8_t\000"
 5465      385F7400 
 5466              	.LASF97:
 5467 04d1 74687265 		.ascii	"thread3H\000"
 5467      61643348 
 5467      00
 5468              	.LASF95:
 5469 04da 74687265 		.ascii	"thread3L\000"
 5469      6164334C 
 5469      00
 5470              	.LASF96:
 5471 04e3 74687265 		.ascii	"thread3M\000"
 5471      6164334D 
 5471      00
 5472              	.LASF100:
 5473 04ec 6D747834 		.ascii	"mtx4_setup\000"
 5473      5F736574 
 5473      757000
 5474              	.LASF111:
 5475 04f7 6D747838 		.ascii	"mtx8_setup\000"
ARM GAS  /tmp/ccLoXihA.s 			page 102


 5475      5F736574 
 5475      757000
 5476              	.LASF75:
 5477 0502 77746F62 		.ascii	"wtobjp\000"
 5477      6A7000
 5478              	.LASF30:
 5479 0509 705F6E61 		.ascii	"p_name\000"
 5479      6D6500
 5480              	.LASF58:
 5481 0510 76745F73 		.ascii	"vt_systime\000"
 5481      79737469 
 5481      6D6500
 5482              	.LASF59:
 5483 051b 56544C69 		.ascii	"VTList\000"
 5483      737400
 5484              	.LASF69:
 5485 0522 6D5F6F77 		.ascii	"m_owner\000"
 5485      6E657200 
 5486              	.LASF27:
 5487 052a 705F6374 		.ascii	"p_ctx\000"
 5487      7800
 5488              	.LASF37:
 5489 0530 705F7761 		.ascii	"p_waiting\000"
 5489      6974696E 
 5489      6700
 5490              		.ident	"GCC: (GNU Tools for ARM Embedded Processors) 4.7.4 20130613 (release) [ARM/embedded-4_7-br
ARM GAS  /tmp/ccLoXihA.s 			page 103


DEFINED SYMBOLS
                            *ABS*:00000000 testmtx.c
     /tmp/ccLoXihA.s:19     .data.m1:00000000 $d
     /tmp/ccLoXihA.s:22     .data.m1:00000000 m1
     /tmp/ccLoXihA.s:28     .data.m2:00000000 $d
     /tmp/ccLoXihA.s:31     .data.m2:00000000 m2
     /tmp/ccLoXihA.s:37     .data.c1:00000000 $d
     /tmp/ccLoXihA.s:40     .data.c1:00000000 c1
     /tmp/ccLoXihA.s:44     .text.mtx1_setup:00000000 $t
     /tmp/ccLoXihA.s:49     .text.mtx1_setup:00000000 mtx1_setup
     /tmp/ccLoXihA.s:71     .text.thread1:00000000 $t
     /tmp/ccLoXihA.s:76     .text.thread1:00000000 thread1
     /tmp/ccLoXihA.s:111    .rodata:00000000 $d
     /tmp/ccLoXihA.s:112    .rodata:00000000 .LC0
     /tmp/ccLoXihA.s:115    .rodata:00000004 .LC1
     /tmp/ccLoXihA.s:118    .rodata:00000008 .LC2
     /tmp/ccLoXihA.s:121    .rodata:0000000c .LC3
     /tmp/ccLoXihA.s:124    .rodata:00000010 .LC4
     /tmp/ccLoXihA.s:127    .rodata:00000014 .LC5
     /tmp/ccLoXihA.s:130    .text.mtx1_execute:00000000 $t
     /tmp/ccLoXihA.s:135    .text.mtx1_execute:00000000 mtx1_execute
     /tmp/ccLoXihA.s:293    .rodata.testmtx1:00000000 testmtx1
     /tmp/ccLoXihA.s:290    .rodata.testmtx1:00000000 $d
     /tmp/ccLoXihA.s:299    .text.mtx2_setup:00000000 $t
     /tmp/ccLoXihA.s:304    .text.mtx2_setup:00000000 mtx2_setup
     /tmp/ccLoXihA.s:325    .text.thread2L:00000000 $t
     /tmp/ccLoXihA.s:330    .text.thread2L:00000000 thread2L
     /tmp/ccLoXihA.s:369    .text.thread2M:00000000 $t
     /tmp/ccLoXihA.s:374    .text.thread2M:00000000 thread2M
     /tmp/ccLoXihA.s:407    .text.thread2H:00000000 $t
     /tmp/ccLoXihA.s:412    .text.thread2H:00000000 thread2H
     /tmp/ccLoXihA.s:452    .rodata:00000040 .LC7
     /tmp/ccLoXihA.s:455    .text.mtx2_execute:00000000 $t
     /tmp/ccLoXihA.s:460    .text.mtx2_execute:00000000 mtx2_execute
     /tmp/ccLoXihA.s:581    .rodata.testmtx2:00000000 testmtx2
     /tmp/ccLoXihA.s:578    .rodata.testmtx2:00000000 $d
     /tmp/ccLoXihA.s:587    .text.mtx3_setup:00000000 $t
     /tmp/ccLoXihA.s:592    .text.mtx3_setup:00000000 mtx3_setup
     /tmp/ccLoXihA.s:617    .text.thread3LL:00000000 $t
     /tmp/ccLoXihA.s:622    .text.thread3LL:00000000 thread3LL
     /tmp/ccLoXihA.s:658    .text.thread3L:00000000 $t
     /tmp/ccLoXihA.s:663    .text.thread3L:00000000 thread3L
     /tmp/ccLoXihA.s:714    .text.thread3M:00000000 $t
     /tmp/ccLoXihA.s:719    .text.thread3M:00000000 thread3M
     /tmp/ccLoXihA.s:758    .text.thread3H:00000000 $t
     /tmp/ccLoXihA.s:763    .text.thread3H:00000000 thread3H
     /tmp/ccLoXihA.s:796    .text.thread3HH:00000000 $t
     /tmp/ccLoXihA.s:801    .text.thread3HH:00000000 thread3HH
     /tmp/ccLoXihA.s:840    .text.mtx3_execute:00000000 $t
     /tmp/ccLoXihA.s:845    .text.mtx3_execute:00000000 mtx3_execute
     /tmp/ccLoXihA.s:1008   .rodata.testmtx3:00000000 testmtx3
     /tmp/ccLoXihA.s:1005   .rodata.testmtx3:00000000 $d
     /tmp/ccLoXihA.s:1014   .text.mtx4_setup:00000000 $t
     /tmp/ccLoXihA.s:1019   .text.mtx4_setup:00000000 mtx4_setup
     /tmp/ccLoXihA.s:1044   .text.thread4a:00000000 $t
     /tmp/ccLoXihA.s:1049   .text.thread4a:00000000 thread4a
     /tmp/ccLoXihA.s:1082   .text.thread4b:00000000 $t
ARM GAS  /tmp/ccLoXihA.s 			page 104


     /tmp/ccLoXihA.s:1087   .text.thread4b:00000000 thread4b
     /tmp/ccLoXihA.s:1120   .text.mtx4_execute:00000000 $t
     /tmp/ccLoXihA.s:1125   .text.mtx4_execute:00000000 mtx4_execute
     /tmp/ccLoXihA.s:1552   .rodata.testmtx4:00000000 testmtx4
     /tmp/ccLoXihA.s:1549   .rodata.testmtx4:00000000 $d
     /tmp/ccLoXihA.s:1558   .text.mtx5_setup:00000000 $t
     /tmp/ccLoXihA.s:1563   .text.mtx5_setup:00000000 mtx5_setup
     /tmp/ccLoXihA.s:1584   .text.mtx5_execute:00000000 $t
     /tmp/ccLoXihA.s:1589   .text.mtx5_execute:00000000 mtx5_execute
     /tmp/ccLoXihA.s:1773   .rodata.testmtx5:00000000 testmtx5
     /tmp/ccLoXihA.s:1770   .rodata.testmtx5:00000000 $d
     /tmp/ccLoXihA.s:1779   .text.mtx6_setup:00000000 $t
     /tmp/ccLoXihA.s:1784   .text.mtx6_setup:00000000 mtx6_setup
     /tmp/ccLoXihA.s:1809   .text.thread10:00000000 $t
     /tmp/ccLoXihA.s:1814   .text.thread10:00000000 thread10
     /tmp/ccLoXihA.s:1853   .text.mtx6_execute:00000000 $t
     /tmp/ccLoXihA.s:1858   .text.mtx6_execute:00000000 mtx6_execute
     /tmp/ccLoXihA.s:2031   .rodata.testmtx6:00000000 testmtx6
     /tmp/ccLoXihA.s:2028   .rodata.testmtx6:00000000 $d
     /tmp/ccLoXihA.s:2037   .text.mtx7_setup:00000000 $t
     /tmp/ccLoXihA.s:2042   .text.mtx7_setup:00000000 mtx7_setup
     /tmp/ccLoXihA.s:2067   .text.mtx7_execute:00000000 $t
     /tmp/ccLoXihA.s:2072   .text.mtx7_execute:00000000 mtx7_execute
     /tmp/ccLoXihA.s:2209   .rodata.testmtx7:00000000 testmtx7
     /tmp/ccLoXihA.s:2206   .rodata.testmtx7:00000000 $d
     /tmp/ccLoXihA.s:2215   .text.mtx8_setup:00000000 $t
     /tmp/ccLoXihA.s:2220   .text.mtx8_setup:00000000 mtx8_setup
     /tmp/ccLoXihA.s:2249   .text.thread11:00000000 $t
     /tmp/ccLoXihA.s:2254   .text.thread11:00000000 thread11
     /tmp/ccLoXihA.s:2300   .text.thread12:00000000 $t
     /tmp/ccLoXihA.s:2305   .text.thread12:00000000 thread12
     /tmp/ccLoXihA.s:2340   .text.mtx8_execute:00000000 $t
     /tmp/ccLoXihA.s:2345   .text.mtx8_execute:00000000 mtx8_execute
     /tmp/ccLoXihA.s:2450   .rodata.testmtx8:00000000 testmtx8
     /tmp/ccLoXihA.s:2447   .rodata.testmtx8:00000000 $d
     /tmp/ccLoXihA.s:2460   .rodata.patternmtx:00000000 patternmtx
     /tmp/ccLoXihA.s:2457   .rodata.patternmtx:00000000 $d
                     .debug_frame:00000010 $d

UNDEFINED SYMBOLS
chMtxInit
chMtxLock
test_emit_token
chMtxUnlock
rlist
wa
chThdCreateStatic
threads
test_wait_threads
_test_assert
_test_assert_sequence
test_cpu_pulse
chThdSleep
test_wait_tick
vtlist
_test_assert_time_window
chMtxUnlockAll
ARM GAS  /tmp/ccLoXihA.s 			page 105


dbg_check_lock
chMtxUnlockS
dbg_check_unlock
chMtxTryLock
chCondInit
chCondWait
chCondSignalI
chSchRescheduleS
chCondBroadcast
chCondWaitTimeout
chCondSignal
