ARM GAS  /tmp/ccrVICIt.s 			page 1


   1              		.syntax unified
   2              		.cpu cortex-m4
   3              		.fpu softvfp
   4              		.eabi_attribute 20, 1
   5              		.eabi_attribute 21, 1
   6              		.eabi_attribute 23, 3
   7              		.eabi_attribute 24, 1
   8              		.eabi_attribute 25, 1
   9              		.eabi_attribute 26, 1
  10              		.eabi_attribute 30, 6
  11              		.eabi_attribute 34, 1
  12              		.eabi_attribute 18, 4
  13              		.thumb
  14              		.file	"testdyn.c"
  15              		.text
  16              	.Ltext0:
  17              		.cfi_sections	.debug_frame
  18              		.section	.bss.heap1,"aw",%nobits
  19              		.align	3
  20              		.type	heap1, %object
  21              		.size	heap1, 32
  22              	heap1:
  23 0000 00000000 		.space	32
  23      00000000 
  23      00000000 
  23      00000000 
  23      00000000 
  24              		.section	.bss.mp1,"aw",%nobits
  25              		.align	2
  26              		.type	mp1, %object
  27              		.size	mp1, 12
  28              	mp1:
  29 0000 00000000 		.space	12
  29      00000000 
  29      00000000 
  30              		.section	.text.thread,"ax",%progbits
  31              		.align	2
  32              		.p2align 4,,15
  33              		.thumb
  34              		.thumb_func
  35              		.type	thread, %function
  36              	thread:
  37              	.LFB7:
  38              		.file 1 "../../test/testdyn.c"
  39              		.loc 1 71 0
  40              		.cfi_startproc
  41              		@ args = 0, pretend = 0, frame = 8
  42              		@ frame_needed = 0, uses_anonymous_args = 0
  43 0000 00B5     		push	{lr}
  44              	.LCFI0:
  45              		.cfi_def_cfa_offset 4
  46              		.cfi_offset 14, -4
  47 0002 83B0     		sub	sp, sp, #12
  48              	.LCFI1:
  49              		.cfi_def_cfa_offset 16
  50 0004 0190     		str	r0, [sp, #4]
  51              		.loc 1 73 0
ARM GAS  /tmp/ccrVICIt.s 			page 2


  52 0006 019B     		ldr	r3, [sp, #4]
  53 0008 1B78     		ldrb	r3, [r3, #0]	@ zero_extendqisi2
  54 000a 1846     		mov	r0, r3
  55 000c FFF7FEFF 		bl	test_emit_token
  56              		.loc 1 74 0
  57 0010 4FF00003 		mov	r3, #0
  58              		.loc 1 75 0
  59 0014 1846     		mov	r0, r3
  60 0016 03B0     		add	sp, sp, #12
  61 0018 00BD     		pop	{pc}
  62              		.cfi_endproc
  63              	.LFE7:
  64              		.size	thread, .-thread
  65 001a 00BFAFF3 		.section	.text.dyn1_setup,"ax",%progbits
  65      0080
  66              		.align	2
  67              		.p2align 4,,15
  68              		.thumb
  69              		.thumb_func
  70              		.type	dyn1_setup, %function
  71              	dyn1_setup:
  72              	.LFB8:
  73              		.loc 1 78 0
  74              		.cfi_startproc
  75              		@ args = 0, pretend = 0, frame = 0
  76              		@ frame_needed = 0, uses_anonymous_args = 0
  77 0000 08B5     		push	{r3, lr}
  78              	.LCFI2:
  79              		.cfi_def_cfa_offset 8
  80              		.cfi_offset 3, -8
  81              		.cfi_offset 14, -4
  82              		.loc 1 80 0
  83 0002 40F20000 		movw	r0, #:lower16:heap1
  84 0006 C0F20000 		movt	r0, #:upper16:heap1
  85 000a 40F20001 		movw	r1, #:lower16:test
  86 000e C0F20001 		movt	r1, #:upper16:test
  87 0012 4FF4BE62 		mov	r2, #1520
  88 0016 FFF7FEFF 		bl	chHeapInit
  89              		.loc 1 81 0
  90 001a 08BD     		pop	{r3, pc}
  91              		.cfi_endproc
  92              	.LFE8:
  93              		.size	dyn1_setup, .-dyn1_setup
  94 001c AFF30080 		.section	.rodata
  95              		.align	2
  96              	.LC0:
  97 0000 4100     		.ascii	"A\000"
  98 0002 0000     		.align	2
  99              	.LC1:
 100 0004 4200     		.ascii	"B\000"
 101 0006 0000     		.align	2
 102              	.LC2:
 103 0008 4300     		.ascii	"C\000"
 104 000a 0000     		.align	2
 105              	.LC3:
 106 000c 414200   		.ascii	"AB\000"
 107              		.section	.text.dyn1_execute,"ax",%progbits
ARM GAS  /tmp/ccrVICIt.s 			page 3


 108              		.align	2
 109              		.p2align 4,,15
 110              		.thumb
 111              		.thumb_func
 112              		.type	dyn1_execute, %function
 113              	dyn1_execute:
 114              	.LFB9:
 115              		.loc 1 83 0
 116              		.cfi_startproc
 117              		@ args = 0, pretend = 0, frame = 16
 118              		@ frame_needed = 0, uses_anonymous_args = 0
 119 0000 00B5     		push	{lr}
 120              	.LCFI3:
 121              		.cfi_def_cfa_offset 4
 122              		.cfi_offset 14, -4
 123 0002 87B0     		sub	sp, sp, #28
 124              	.LCFI4:
 125              		.cfi_def_cfa_offset 32
 126              		.loc 1 86 0
 127 0004 40F20003 		movw	r3, #:lower16:rlist
 128 0008 C0F20003 		movt	r3, #:upper16:rlist
 129 000c 9B69     		ldr	r3, [r3, #24]
 130 000e 9B68     		ldr	r3, [r3, #8]
 131 0010 0593     		str	r3, [sp, #20]
 132              		.loc 1 88 0
 133 0012 02AB     		add	r3, sp, #8
 134 0014 40F20000 		movw	r0, #:lower16:heap1
 135 0018 C0F20000 		movt	r0, #:upper16:heap1
 136 001c 1946     		mov	r1, r3
 137 001e FFF7FEFF 		bl	chHeapStatus
 138              		.loc 1 90 0
 139 0022 059B     		ldr	r3, [sp, #20]
 140 0024 03F1FF32 		add	r2, r3, #-1
 141 0028 40F20003 		movw	r3, #:lower16:.LC0
 142 002c C0F20003 		movt	r3, #:upper16:.LC0
 143 0030 0093     		str	r3, [sp, #0]
 144 0032 40F20000 		movw	r0, #:lower16:heap1
 145 0036 C0F20000 		movt	r0, #:upper16:heap1
 146 003a 4FF49871 		mov	r1, #304
 147 003e 40F20003 		movw	r3, #:lower16:thread
 148 0042 C0F20003 		movt	r3, #:upper16:thread
 149 0046 FFF7FEFF 		bl	chThdCreateFromHeap
 150 004a 0246     		mov	r2, r0
 151 004c 40F20003 		movw	r3, #:lower16:threads
 152 0050 C0F20003 		movt	r3, #:upper16:threads
 153 0054 1A60     		str	r2, [r3, #0]
 154              		.loc 1 92 0
 155 0056 059B     		ldr	r3, [sp, #20]
 156 0058 A3F10202 		sub	r2, r3, #2
 157 005c 40F20003 		movw	r3, #:lower16:.LC1
 158 0060 C0F20003 		movt	r3, #:upper16:.LC1
 159 0064 0093     		str	r3, [sp, #0]
 160 0066 40F20000 		movw	r0, #:lower16:heap1
 161 006a C0F20000 		movt	r0, #:upper16:heap1
 162 006e 4FF49871 		mov	r1, #304
 163 0072 40F20003 		movw	r3, #:lower16:thread
 164 0076 C0F20003 		movt	r3, #:upper16:thread
ARM GAS  /tmp/ccrVICIt.s 			page 4


 165 007a FFF7FEFF 		bl	chThdCreateFromHeap
 166 007e 0246     		mov	r2, r0
 167 0080 40F20003 		movw	r3, #:lower16:threads
 168 0084 C0F20003 		movt	r3, #:upper16:threads
 169 0088 5A60     		str	r2, [r3, #4]
 170              		.loc 1 95 0
 171 008a 03AB     		add	r3, sp, #12
 172 008c 40F20000 		movw	r0, #:lower16:heap1
 173 0090 C0F20000 		movt	r0, #:upper16:heap1
 174 0094 1946     		mov	r1, r3
 175 0096 FFF7FEFF 		bl	chHeapStatus
 176              		.loc 1 96 0
 177 009a 039B     		ldr	r3, [sp, #12]
 178 009c 40F20000 		movw	r0, #:lower16:heap1
 179 00a0 C0F20000 		movt	r0, #:upper16:heap1
 180 00a4 1946     		mov	r1, r3
 181 00a6 FFF7FEFF 		bl	chHeapAlloc
 182 00aa 0490     		str	r0, [sp, #16]
 183              		.loc 1 97 0
 184 00ac 059B     		ldr	r3, [sp, #20]
 185 00ae A3F10302 		sub	r2, r3, #3
 186 00b2 40F20003 		movw	r3, #:lower16:.LC2
 187 00b6 C0F20003 		movt	r3, #:upper16:.LC2
 188 00ba 0093     		str	r3, [sp, #0]
 189 00bc 40F20000 		movw	r0, #:lower16:heap1
 190 00c0 C0F20000 		movt	r0, #:upper16:heap1
 191 00c4 4FF49871 		mov	r1, #304
 192 00c8 40F20003 		movw	r3, #:lower16:thread
 193 00cc C0F20003 		movt	r3, #:upper16:thread
 194 00d0 FFF7FEFF 		bl	chThdCreateFromHeap
 195 00d4 0246     		mov	r2, r0
 196 00d6 40F20003 		movw	r3, #:lower16:threads
 197 00da C0F20003 		movt	r3, #:upper16:threads
 198 00de 9A60     		str	r2, [r3, #8]
 199              		.loc 1 99 0
 200 00e0 0498     		ldr	r0, [sp, #16]
 201 00e2 FFF7FEFF 		bl	chHeapFree
 202              		.loc 1 101 0
 203 00e6 40F20003 		movw	r3, #:lower16:threads
 204 00ea C0F20003 		movt	r3, #:upper16:threads
 205 00ee 1B68     		ldr	r3, [r3, #0]
 206 00f0 002B     		cmp	r3, #0
 207 00f2 1ED0     		beq	.L5
 208              		.loc 1 101 0 is_stmt 0 discriminator 1
 209 00f4 40F20003 		movw	r3, #:lower16:threads
 210 00f8 C0F20003 		movt	r3, #:upper16:threads
 211 00fc 5B68     		ldr	r3, [r3, #4]
 212 00fe 002B     		cmp	r3, #0
 213 0100 17D0     		beq	.L5
 214              		.loc 1 101 0 discriminator 3
 215 0102 40F20003 		movw	r3, #:lower16:threads
 216 0106 C0F20003 		movt	r3, #:upper16:threads
 217 010a 9B68     		ldr	r3, [r3, #8]
 218 010c 002B     		cmp	r3, #0
 219 010e 10D1     		bne	.L5
 220              		.loc 1 101 0 discriminator 4
 221 0110 40F20003 		movw	r3, #:lower16:threads
ARM GAS  /tmp/ccrVICIt.s 			page 5


 222 0114 C0F20003 		movt	r3, #:upper16:threads
 223 0118 DB68     		ldr	r3, [r3, #12]
 224 011a 002B     		cmp	r3, #0
 225 011c 09D1     		bne	.L5
 226              		.loc 1 101 0 discriminator 5
 227 011e 40F20003 		movw	r3, #:lower16:threads
 228 0122 C0F20003 		movt	r3, #:upper16:threads
 229 0126 1B69     		ldr	r3, [r3, #16]
 230 0128 002B     		cmp	r3, #0
 231 012a 02D1     		bne	.L5
 232              		.loc 1 101 0 discriminator 6
 233 012c 4FF00103 		mov	r3, #1
 234 0130 01E0     		b	.L6
 235              	.L5:
 236              		.loc 1 101 0 discriminator 2
 237 0132 4FF00003 		mov	r3, #0
 238              	.L6:
 239              		.loc 1 101 0 discriminator 7
 240 0136 03F00103 		and	r3, r3, #1
 241 013a DBB2     		uxtb	r3, r3
 242 013c 4FF00100 		mov	r0, #1
 243 0140 1946     		mov	r1, r3
 244 0142 FFF7FEFF 		bl	_test_assert
 245 0146 0346     		mov	r3, r0
 246 0148 002B     		cmp	r3, #0
 247 014a 30D1     		bne	.L4
 248              		.loc 1 109 0 is_stmt 1
 249 014c FFF7FEFF 		bl	test_wait_threads
 250              		.loc 1 110 0
 251 0150 4FF00200 		mov	r0, #2
 252 0154 40F20001 		movw	r1, #:lower16:.LC3
 253 0158 C0F20001 		movt	r1, #:upper16:.LC3
 254 015c FFF7FEFF 		bl	_test_assert_sequence
 255 0160 0346     		mov	r3, r0
 256 0162 002B     		cmp	r3, #0
 257 0164 23D1     		bne	.L4
 258              		.loc 1 113 0
 259 0166 03AB     		add	r3, sp, #12
 260 0168 40F20000 		movw	r0, #:lower16:heap1
 261 016c C0F20000 		movt	r0, #:upper16:heap1
 262 0170 1946     		mov	r1, r3
 263 0172 FFF7FEFF 		bl	chHeapStatus
 264 0176 0346     		mov	r3, r0
 265 0178 012B     		cmp	r3, #1
 266 017a 14BF     		ite	ne
 267 017c 0023     		movne	r3, #0
 268 017e 0123     		moveq	r3, #1
 269 0180 DBB2     		uxtb	r3, r3
 270 0182 4FF00300 		mov	r0, #3
 271 0186 1946     		mov	r1, r3
 272 0188 FFF7FEFF 		bl	_test_assert
 273 018c 0346     		mov	r3, r0
 274 018e 002B     		cmp	r3, #0
 275 0190 0DD1     		bne	.L4
 276              		.loc 1 114 0
 277 0192 039A     		ldr	r2, [sp, #12]
 278 0194 029B     		ldr	r3, [sp, #8]
ARM GAS  /tmp/ccrVICIt.s 			page 6


 279 0196 9A42     		cmp	r2, r3
 280 0198 14BF     		ite	ne
 281 019a 0023     		movne	r3, #0
 282 019c 0123     		moveq	r3, #1
 283 019e DBB2     		uxtb	r3, r3
 284 01a0 4FF00400 		mov	r0, #4
 285 01a4 1946     		mov	r1, r3
 286 01a6 FFF7FEFF 		bl	_test_assert
 287 01aa 0346     		mov	r3, r0
 288 01ac 002B     		cmp	r3, #0
 289              	.L4:
 290              		.loc 1 115 0
 291 01ae 07B0     		add	sp, sp, #28
 292 01b0 00BD     		pop	{pc}
 293              		.cfi_endproc
 294              	.LFE9:
 295              		.size	dyn1_execute, .-dyn1_execute
 296              		.global	testdyn1
 297 01b2 00BFAFF3 		.section	.rodata
 297      0080AFF3 
 297      0080AFF3 
 297      0080
 298 000f 00       		.align	2
 299              	.LC4:
 300 0010 44796E61 		.ascii	"Dynamic APIs, threads creation from heap\000"
 300      6D696320 
 300      41504973 
 300      2C207468 
 300      72656164 
 301              		.section	.rodata.testdyn1,"a",%progbits
 302              		.align	2
 303              		.type	testdyn1, %object
 304              		.size	testdyn1, 16
 305              	testdyn1:
 306 0000 10000000 		.word	.LC4
 307 0004 00000000 		.word	dyn1_setup
 308 0008 00000000 		.word	0
 309 000c 00000000 		.word	dyn1_execute
 310              		.section	.text.dyn2_setup,"ax",%progbits
 311              		.align	2
 312              		.p2align 4,,15
 313              		.thumb
 314              		.thumb_func
 315              		.type	dyn2_setup, %function
 316              	dyn2_setup:
 317              	.LFB10:
 318              		.loc 1 136 0
 319              		.cfi_startproc
 320              		@ args = 0, pretend = 0, frame = 0
 321              		@ frame_needed = 0, uses_anonymous_args = 0
 322 0000 08B5     		push	{r3, lr}
 323              	.LCFI5:
 324              		.cfi_def_cfa_offset 8
 325              		.cfi_offset 3, -8
 326              		.cfi_offset 14, -4
 327              		.loc 1 138 0
 328 0002 40F20000 		movw	r0, #:lower16:mp1
ARM GAS  /tmp/ccrVICIt.s 			page 7


 329 0006 C0F20000 		movt	r0, #:upper16:mp1
 330 000a 4FF49871 		mov	r1, #304
 331 000e 4FF00002 		mov	r2, #0
 332 0012 FFF7FEFF 		bl	chPoolInit
 333              		.loc 1 139 0
 334 0016 08BD     		pop	{r3, pc}
 335              		.cfi_endproc
 336              	.LFE10:
 337              		.size	dyn2_setup, .-dyn2_setup
 338 0018 AFF30080 		.section	.rodata
 338      AFF30080 
 339 0039 000000   		.align	2
 340              	.LC5:
 341 003c 4400     		.ascii	"D\000"
 342 003e 0000     		.align	2
 343              	.LC6:
 344 0040 4500     		.ascii	"E\000"
 345 0042 0000     		.align	2
 346              	.LC7:
 347 0044 41424344 		.ascii	"ABCD\000"
 347      00
 348              		.section	.text.dyn2_execute,"ax",%progbits
 349              		.align	2
 350              		.p2align 4,,15
 351              		.thumb
 352              		.thumb_func
 353              		.type	dyn2_execute, %function
 354              	dyn2_execute:
 355              	.LFB11:
 356              		.loc 1 141 0
 357              		.cfi_startproc
 358              		@ args = 0, pretend = 0, frame = 8
 359              		@ frame_needed = 0, uses_anonymous_args = 0
 360 0000 00B5     		push	{lr}
 361              	.LCFI6:
 362              		.cfi_def_cfa_offset 4
 363              		.cfi_offset 14, -4
 364 0002 83B0     		sub	sp, sp, #12
 365              	.LCFI7:
 366              		.cfi_def_cfa_offset 16
 367              		.loc 1 143 0
 368 0004 40F20003 		movw	r3, #:lower16:rlist
 369 0008 C0F20003 		movt	r3, #:upper16:rlist
 370 000c 9B69     		ldr	r3, [r3, #24]
 371 000e 9B68     		ldr	r3, [r3, #8]
 372 0010 0093     		str	r3, [sp, #0]
 373              		.loc 1 146 0
 374 0012 4FF00003 		mov	r3, #0
 375 0016 0193     		str	r3, [sp, #4]
 376 0018 11E0     		b	.L11
 377              	.L12:
 378              		.loc 1 147 0 discriminator 2
 379 001a 40F20003 		movw	r3, #:lower16:wa
 380 001e C0F20003 		movt	r3, #:upper16:wa
 381 0022 019A     		ldr	r2, [sp, #4]
 382 0024 53F82230 		ldr	r3, [r3, r2, lsl #2]
 383 0028 40F20000 		movw	r0, #:lower16:mp1
ARM GAS  /tmp/ccrVICIt.s 			page 8


 384 002c C0F20000 		movt	r0, #:upper16:mp1
 385 0030 1946     		mov	r1, r3
 386 0032 FFF7FEFF 		bl	chPoolFree
 387              		.loc 1 146 0 discriminator 2
 388 0036 019B     		ldr	r3, [sp, #4]
 389 0038 03F10103 		add	r3, r3, #1
 390 003c 0193     		str	r3, [sp, #4]
 391              	.L11:
 392              		.loc 1 146 0 is_stmt 0 discriminator 1
 393 003e 019B     		ldr	r3, [sp, #4]
 394 0040 032B     		cmp	r3, #3
 395 0042 EADD     		ble	.L12
 396              		.loc 1 150 0 is_stmt 1
 397 0044 009B     		ldr	r3, [sp, #0]
 398 0046 03F1FF33 		add	r3, r3, #-1
 399 004a 40F20000 		movw	r0, #:lower16:mp1
 400 004e C0F20000 		movt	r0, #:upper16:mp1
 401 0052 1946     		mov	r1, r3
 402 0054 40F20002 		movw	r2, #:lower16:thread
 403 0058 C0F20002 		movt	r2, #:upper16:thread
 404 005c 40F20003 		movw	r3, #:lower16:.LC0
 405 0060 C0F20003 		movt	r3, #:upper16:.LC0
 406 0064 FFF7FEFF 		bl	chThdCreateFromMemoryPool
 407 0068 0246     		mov	r2, r0
 408 006a 40F20003 		movw	r3, #:lower16:threads
 409 006e C0F20003 		movt	r3, #:upper16:threads
 410 0072 1A60     		str	r2, [r3, #0]
 411              		.loc 1 151 0
 412 0074 009B     		ldr	r3, [sp, #0]
 413 0076 A3F10203 		sub	r3, r3, #2
 414 007a 40F20000 		movw	r0, #:lower16:mp1
 415 007e C0F20000 		movt	r0, #:upper16:mp1
 416 0082 1946     		mov	r1, r3
 417 0084 40F20002 		movw	r2, #:lower16:thread
 418 0088 C0F20002 		movt	r2, #:upper16:thread
 419 008c 40F20003 		movw	r3, #:lower16:.LC1
 420 0090 C0F20003 		movt	r3, #:upper16:.LC1
 421 0094 FFF7FEFF 		bl	chThdCreateFromMemoryPool
 422 0098 0246     		mov	r2, r0
 423 009a 40F20003 		movw	r3, #:lower16:threads
 424 009e C0F20003 		movt	r3, #:upper16:threads
 425 00a2 5A60     		str	r2, [r3, #4]
 426              		.loc 1 152 0
 427 00a4 009B     		ldr	r3, [sp, #0]
 428 00a6 A3F10303 		sub	r3, r3, #3
 429 00aa 40F20000 		movw	r0, #:lower16:mp1
 430 00ae C0F20000 		movt	r0, #:upper16:mp1
 431 00b2 1946     		mov	r1, r3
 432 00b4 40F20002 		movw	r2, #:lower16:thread
 433 00b8 C0F20002 		movt	r2, #:upper16:thread
 434 00bc 40F20003 		movw	r3, #:lower16:.LC2
 435 00c0 C0F20003 		movt	r3, #:upper16:.LC2
 436 00c4 FFF7FEFF 		bl	chThdCreateFromMemoryPool
 437 00c8 0246     		mov	r2, r0
 438 00ca 40F20003 		movw	r3, #:lower16:threads
 439 00ce C0F20003 		movt	r3, #:upper16:threads
 440 00d2 9A60     		str	r2, [r3, #8]
ARM GAS  /tmp/ccrVICIt.s 			page 9


 441              		.loc 1 153 0
 442 00d4 009B     		ldr	r3, [sp, #0]
 443 00d6 A3F10403 		sub	r3, r3, #4
 444 00da 40F20000 		movw	r0, #:lower16:mp1
 445 00de C0F20000 		movt	r0, #:upper16:mp1
 446 00e2 1946     		mov	r1, r3
 447 00e4 40F20002 		movw	r2, #:lower16:thread
 448 00e8 C0F20002 		movt	r2, #:upper16:thread
 449 00ec 40F20003 		movw	r3, #:lower16:.LC5
 450 00f0 C0F20003 		movt	r3, #:upper16:.LC5
 451 00f4 FFF7FEFF 		bl	chThdCreateFromMemoryPool
 452 00f8 0246     		mov	r2, r0
 453 00fa 40F20003 		movw	r3, #:lower16:threads
 454 00fe C0F20003 		movt	r3, #:upper16:threads
 455 0102 DA60     		str	r2, [r3, #12]
 456              		.loc 1 154 0
 457 0104 009B     		ldr	r3, [sp, #0]
 458 0106 A3F10503 		sub	r3, r3, #5
 459 010a 40F20000 		movw	r0, #:lower16:mp1
 460 010e C0F20000 		movt	r0, #:upper16:mp1
 461 0112 1946     		mov	r1, r3
 462 0114 40F20002 		movw	r2, #:lower16:thread
 463 0118 C0F20002 		movt	r2, #:upper16:thread
 464 011c 40F20003 		movw	r3, #:lower16:.LC6
 465 0120 C0F20003 		movt	r3, #:upper16:.LC6
 466 0124 FFF7FEFF 		bl	chThdCreateFromMemoryPool
 467 0128 0246     		mov	r2, r0
 468 012a 40F20003 		movw	r3, #:lower16:threads
 469 012e C0F20003 		movt	r3, #:upper16:threads
 470 0132 1A61     		str	r2, [r3, #16]
 471              		.loc 1 156 0
 472 0134 40F20003 		movw	r3, #:lower16:threads
 473 0138 C0F20003 		movt	r3, #:upper16:threads
 474 013c 1B68     		ldr	r3, [r3, #0]
 475 013e 002B     		cmp	r3, #0
 476 0140 1ED0     		beq	.L13
 477              		.loc 1 156 0 is_stmt 0 discriminator 1
 478 0142 40F20003 		movw	r3, #:lower16:threads
 479 0146 C0F20003 		movt	r3, #:upper16:threads
 480 014a 5B68     		ldr	r3, [r3, #4]
 481 014c 002B     		cmp	r3, #0
 482 014e 17D0     		beq	.L13
 483              		.loc 1 156 0 discriminator 3
 484 0150 40F20003 		movw	r3, #:lower16:threads
 485 0154 C0F20003 		movt	r3, #:upper16:threads
 486 0158 9B68     		ldr	r3, [r3, #8]
 487 015a 002B     		cmp	r3, #0
 488 015c 10D0     		beq	.L13
 489              		.loc 1 156 0 discriminator 4
 490 015e 40F20003 		movw	r3, #:lower16:threads
 491 0162 C0F20003 		movt	r3, #:upper16:threads
 492 0166 DB68     		ldr	r3, [r3, #12]
 493 0168 002B     		cmp	r3, #0
 494 016a 09D0     		beq	.L13
 495              		.loc 1 156 0 discriminator 5
 496 016c 40F20003 		movw	r3, #:lower16:threads
 497 0170 C0F20003 		movt	r3, #:upper16:threads
ARM GAS  /tmp/ccrVICIt.s 			page 10


 498 0174 1B69     		ldr	r3, [r3, #16]
 499 0176 002B     		cmp	r3, #0
 500 0178 02D1     		bne	.L13
 501              		.loc 1 156 0 discriminator 6
 502 017a 4FF00103 		mov	r3, #1
 503 017e 01E0     		b	.L14
 504              	.L13:
 505              		.loc 1 156 0 discriminator 2
 506 0180 4FF00003 		mov	r3, #0
 507              	.L14:
 508              		.loc 1 156 0 discriminator 7
 509 0184 03F00103 		and	r3, r3, #1
 510 0188 DBB2     		uxtb	r3, r3
 511 018a 4FF00100 		mov	r0, #1
 512 018e 1946     		mov	r1, r3
 513 0190 FFF7FEFF 		bl	_test_assert
 514 0194 0346     		mov	r3, r0
 515 0196 002B     		cmp	r3, #0
 516 0198 3ED1     		bne	.L10
 517              	.L15:
 518              		.loc 1 164 0 is_stmt 1
 519 019a FFF7FEFF 		bl	test_wait_threads
 520              		.loc 1 165 0
 521 019e 4FF00200 		mov	r0, #2
 522 01a2 40F20001 		movw	r1, #:lower16:.LC7
 523 01a6 C0F20001 		movt	r1, #:upper16:.LC7
 524 01aa FFF7FEFF 		bl	_test_assert_sequence
 525 01ae 0346     		mov	r3, r0
 526 01b0 002B     		cmp	r3, #0
 527 01b2 31D1     		bne	.L10
 528              	.L17:
 529              		.loc 1 168 0
 530 01b4 4FF00003 		mov	r3, #0
 531 01b8 0193     		str	r3, [sp, #4]
 532 01ba 17E0     		b	.L18
 533              	.L20:
 534              		.loc 1 169 0
 535 01bc 40F20000 		movw	r0, #:lower16:mp1
 536 01c0 C0F20000 		movt	r0, #:upper16:mp1
 537 01c4 FFF7FEFF 		bl	chPoolAlloc
 538 01c8 0346     		mov	r3, r0
 539 01ca 002B     		cmp	r3, #0
 540 01cc 0CBF     		ite	eq
 541 01ce 0023     		moveq	r3, #0
 542 01d0 0123     		movne	r3, #1
 543 01d2 DBB2     		uxtb	r3, r3
 544 01d4 4FF00300 		mov	r0, #3
 545 01d8 1946     		mov	r1, r3
 546 01da FFF7FEFF 		bl	_test_assert
 547 01de 0346     		mov	r3, r0
 548 01e0 002B     		cmp	r3, #0
 549 01e2 19D1     		bne	.L10
 550              	.L19:
 551              		.loc 1 168 0
 552 01e4 019B     		ldr	r3, [sp, #4]
 553 01e6 03F10103 		add	r3, r3, #1
 554 01ea 0193     		str	r3, [sp, #4]
ARM GAS  /tmp/ccrVICIt.s 			page 11


 555              	.L18:
 556              		.loc 1 168 0 is_stmt 0 discriminator 1
 557 01ec 019B     		ldr	r3, [sp, #4]
 558 01ee 032B     		cmp	r3, #3
 559 01f0 E4DD     		ble	.L20
 560              		.loc 1 170 0 is_stmt 1
 561 01f2 40F20000 		movw	r0, #:lower16:mp1
 562 01f6 C0F20000 		movt	r0, #:upper16:mp1
 563 01fa FFF7FEFF 		bl	chPoolAlloc
 564 01fe 0346     		mov	r3, r0
 565 0200 002B     		cmp	r3, #0
 566 0202 14BF     		ite	ne
 567 0204 0023     		movne	r3, #0
 568 0206 0123     		moveq	r3, #1
 569 0208 DBB2     		uxtb	r3, r3
 570 020a 4FF00400 		mov	r0, #4
 571 020e 1946     		mov	r1, r3
 572 0210 FFF7FEFF 		bl	_test_assert
 573 0214 0346     		mov	r3, r0
 574 0216 002B     		cmp	r3, #0
 575              	.L10:
 576              		.loc 1 171 0
 577 0218 03B0     		add	sp, sp, #12
 578 021a 00BD     		pop	{pc}
 579              		.cfi_endproc
 580              	.LFE11:
 581              		.size	dyn2_execute, .-dyn2_execute
 582              		.global	testdyn2
 583 021c AFF30080 		.section	.rodata
 584 0049 000000   		.align	2
 585              	.LC8:
 586 004c 44796E61 		.ascii	"Dynamic APIs, threads creation from memory pool\000"
 586      6D696320 
 586      41504973 
 586      2C207468 
 586      72656164 
 587              		.section	.rodata.testdyn2,"a",%progbits
 588              		.align	2
 589              		.type	testdyn2, %object
 590              		.size	testdyn2, 16
 591              	testdyn2:
 592 0000 4C000000 		.word	.LC8
 593 0004 00000000 		.word	dyn2_setup
 594 0008 00000000 		.word	0
 595 000c 00000000 		.word	dyn2_execute
 596              		.section	.text.regfind,"ax",%progbits
 597              		.align	2
 598              		.p2align 4,,15
 599              		.thumb
 600              		.thumb_func
 601              		.type	regfind, %function
 602              	regfind:
 603              	.LFB12:
 604              		.loc 1 191 0
 605              		.cfi_startproc
 606              		@ args = 0, pretend = 0, frame = 16
 607              		@ frame_needed = 0, uses_anonymous_args = 0
ARM GAS  /tmp/ccrVICIt.s 			page 12


 608 0000 00B5     		push	{lr}
 609              	.LCFI8:
 610              		.cfi_def_cfa_offset 4
 611              		.cfi_offset 14, -4
 612 0002 85B0     		sub	sp, sp, #20
 613              	.LCFI9:
 614              		.cfi_def_cfa_offset 24
 615 0004 0190     		str	r0, [sp, #4]
 616              		.loc 1 193 0
 617 0006 4FF00003 		mov	r3, #0
 618 000a 8DF80B30 		strb	r3, [sp, #11]
 619              		.loc 1 195 0
 620 000e FFF7FEFF 		bl	chRegFirstThread
 621 0012 0390     		str	r0, [sp, #12]
 622              	.L22:
 623              		.loc 1 197 0 discriminator 1
 624 0014 9DF80B20 		ldrb	r2, [sp, #11]	@ zero_extendqisi2
 625 0018 0399     		ldr	r1, [sp, #12]
 626 001a 019B     		ldr	r3, [sp, #4]
 627 001c 9942     		cmp	r1, r3
 628 001e 14BF     		ite	ne
 629 0020 0023     		movne	r3, #0
 630 0022 0123     		moveq	r3, #1
 631 0024 DBB2     		uxtb	r3, r3
 632 0026 1343     		orrs	r3, r3, r2
 633 0028 002B     		cmp	r3, #0
 634 002a 0CBF     		ite	eq
 635 002c 0023     		moveq	r3, #0
 636 002e 0123     		movne	r3, #1
 637 0030 8DF80B30 		strb	r3, [sp, #11]
 638              		.loc 1 198 0 discriminator 1
 639 0034 0398     		ldr	r0, [sp, #12]
 640 0036 FFF7FEFF 		bl	chRegNextThread
 641 003a 0390     		str	r0, [sp, #12]
 642              		.loc 1 199 0 discriminator 1
 643 003c 039B     		ldr	r3, [sp, #12]
 644 003e 002B     		cmp	r3, #0
 645 0040 E8D1     		bne	.L22
 646              		.loc 1 200 0
 647 0042 9DF80B30 		ldrb	r3, [sp, #11]	@ zero_extendqisi2
 648              		.loc 1 201 0
 649 0046 1846     		mov	r0, r3
 650 0048 05B0     		add	sp, sp, #20
 651 004a 00BD     		pop	{pc}
 652              		.cfi_endproc
 653              	.LFE12:
 654              		.size	regfind, .-regfind
 655 004c AFF30080 		.section	.text.dyn3_setup,"ax",%progbits
 656              		.align	2
 657              		.p2align 4,,15
 658              		.thumb
 659              		.thumb_func
 660              		.type	dyn3_setup, %function
 661              	dyn3_setup:
 662              	.LFB13:
 663              		.loc 1 203 0
 664              		.cfi_startproc
ARM GAS  /tmp/ccrVICIt.s 			page 13


 665              		@ args = 0, pretend = 0, frame = 0
 666              		@ frame_needed = 0, uses_anonymous_args = 0
 667 0000 08B5     		push	{r3, lr}
 668              	.LCFI10:
 669              		.cfi_def_cfa_offset 8
 670              		.cfi_offset 3, -8
 671              		.cfi_offset 14, -4
 672              		.loc 1 205 0
 673 0002 40F20000 		movw	r0, #:lower16:heap1
 674 0006 C0F20000 		movt	r0, #:upper16:heap1
 675 000a 40F20001 		movw	r1, #:lower16:test
 676 000e C0F20001 		movt	r1, #:upper16:test
 677 0012 4FF4BE62 		mov	r2, #1520
 678 0016 FFF7FEFF 		bl	chHeapInit
 679              		.loc 1 206 0
 680 001a 08BD     		pop	{r3, pc}
 681              		.cfi_endproc
 682              	.LFE13:
 683              		.size	dyn3_setup, .-dyn3_setup
 684 001c AFF30080 		.section	.text.dyn3_execute,"ax",%progbits
 685              		.align	2
 686              		.p2align 4,,15
 687              		.thumb
 688              		.thumb_func
 689              		.type	dyn3_execute, %function
 690              	dyn3_execute:
 691              	.LFB14:
 692              		.loc 1 208 0
 693              		.cfi_startproc
 694              		@ args = 0, pretend = 0, frame = 8
 695              		@ frame_needed = 0, uses_anonymous_args = 0
 696 0000 00B5     		push	{lr}
 697              	.LCFI11:
 698              		.cfi_def_cfa_offset 4
 699              		.cfi_offset 14, -4
 700 0002 85B0     		sub	sp, sp, #20
 701              	.LCFI12:
 702              		.cfi_def_cfa_offset 24
 703              		.loc 1 210 0
 704 0004 40F20003 		movw	r3, #:lower16:rlist
 705 0008 C0F20003 		movt	r3, #:upper16:rlist
 706 000c 9B69     		ldr	r3, [r3, #24]
 707 000e 9B68     		ldr	r3, [r3, #8]
 708 0010 0393     		str	r3, [sp, #12]
 709              		.loc 1 213 0
 710 0012 039B     		ldr	r3, [sp, #12]
 711 0014 03F1FF32 		add	r2, r3, #-1
 712 0018 40F20003 		movw	r3, #:lower16:.LC0
 713 001c C0F20003 		movt	r3, #:upper16:.LC0
 714 0020 0093     		str	r3, [sp, #0]
 715 0022 40F20000 		movw	r0, #:lower16:heap1
 716 0026 C0F20000 		movt	r0, #:upper16:heap1
 717 002a 4FF49871 		mov	r1, #304
 718 002e 40F20003 		movw	r3, #:lower16:thread
 719 0032 C0F20003 		movt	r3, #:upper16:thread
 720 0036 FFF7FEFF 		bl	chThdCreateFromHeap
 721 003a 0290     		str	r0, [sp, #8]
ARM GAS  /tmp/ccrVICIt.s 			page 14


 722              		.loc 1 214 0
 723 003c 029B     		ldr	r3, [sp, #8]
 724 003e 93F82230 		ldrb	r3, [r3, #34]	@ zero_extendqisi2
 725 0042 012B     		cmp	r3, #1
 726 0044 14BF     		ite	ne
 727 0046 0023     		movne	r3, #0
 728 0048 0123     		moveq	r3, #1
 729 004a DBB2     		uxtb	r3, r3
 730 004c 4FF00100 		mov	r0, #1
 731 0050 1946     		mov	r1, r3
 732 0052 FFF7FEFF 		bl	_test_assert
 733 0056 0346     		mov	r3, r0
 734 0058 002B     		cmp	r3, #0
 735 005a 40F0B180 		bne	.L25
 736              	.L26:
 737              		.loc 1 215 0
 738 005e 0298     		ldr	r0, [sp, #8]
 739 0060 FFF7FEFF 		bl	chThdAddRef
 740              		.loc 1 216 0
 741 0064 029B     		ldr	r3, [sp, #8]
 742 0066 93F82230 		ldrb	r3, [r3, #34]	@ zero_extendqisi2
 743 006a 022B     		cmp	r3, #2
 744 006c 14BF     		ite	ne
 745 006e 0023     		movne	r3, #0
 746 0070 0123     		moveq	r3, #1
 747 0072 DBB2     		uxtb	r3, r3
 748 0074 4FF00200 		mov	r0, #2
 749 0078 1946     		mov	r1, r3
 750 007a FFF7FEFF 		bl	_test_assert
 751 007e 0346     		mov	r3, r0
 752 0080 002B     		cmp	r3, #0
 753 0082 40F09D80 		bne	.L25
 754              	.L28:
 755              		.loc 1 217 0
 756 0086 0298     		ldr	r0, [sp, #8]
 757 0088 FFF7FEFF 		bl	chThdRelease
 758              		.loc 1 218 0
 759 008c 029B     		ldr	r3, [sp, #8]
 760 008e 93F82230 		ldrb	r3, [r3, #34]	@ zero_extendqisi2
 761 0092 012B     		cmp	r3, #1
 762 0094 14BF     		ite	ne
 763 0096 0023     		movne	r3, #0
 764 0098 0123     		moveq	r3, #1
 765 009a DBB2     		uxtb	r3, r3
 766 009c 4FF00300 		mov	r0, #3
 767 00a0 1946     		mov	r1, r3
 768 00a2 FFF7FEFF 		bl	_test_assert
 769 00a6 0346     		mov	r3, r0
 770 00a8 002B     		cmp	r3, #0
 771 00aa 40F08980 		bne	.L25
 772              	.L29:
 773              		.loc 1 221 0
 774 00ae 0298     		ldr	r0, [sp, #8]
 775 00b0 FFF7FEFF 		bl	regfind
 776 00b4 0346     		mov	r3, r0
 777 00b6 4FF00400 		mov	r0, #4
 778 00ba 1946     		mov	r1, r3
ARM GAS  /tmp/ccrVICIt.s 			page 15


 779 00bc FFF7FEFF 		bl	_test_assert
 780 00c0 0346     		mov	r3, r0
 781 00c2 002B     		cmp	r3, #0
 782 00c4 7CD1     		bne	.L25
 783              	.L30:
 784              		.loc 1 222 0
 785 00c6 0298     		ldr	r0, [sp, #8]
 786 00c8 FFF7FEFF 		bl	regfind
 787 00cc 0346     		mov	r3, r0
 788 00ce 4FF00500 		mov	r0, #5
 789 00d2 1946     		mov	r1, r3
 790 00d4 FFF7FEFF 		bl	_test_assert
 791 00d8 0346     		mov	r3, r0
 792 00da 002B     		cmp	r3, #0
 793 00dc 70D1     		bne	.L25
 794              	.L31:
 795              		.loc 1 225 0
 796 00de 0298     		ldr	r0, [sp, #8]
 797 00e0 FFF7FEFF 		bl	chThdRelease
 798              		.loc 1 226 0
 799 00e4 029B     		ldr	r3, [sp, #8]
 800 00e6 93F82230 		ldrb	r3, [r3, #34]	@ zero_extendqisi2
 801 00ea 002B     		cmp	r3, #0
 802 00ec 14BF     		ite	ne
 803 00ee 0023     		movne	r3, #0
 804 00f0 0123     		moveq	r3, #1
 805 00f2 DBB2     		uxtb	r3, r3
 806 00f4 4FF00600 		mov	r0, #6
 807 00f8 1946     		mov	r1, r3
 808 00fa FFF7FEFF 		bl	_test_assert
 809 00fe 0346     		mov	r3, r0
 810 0100 002B     		cmp	r3, #0
 811 0102 5DD1     		bne	.L25
 812              	.L32:
 813              		.loc 1 227 0
 814 0104 029B     		ldr	r3, [sp, #8]
 815 0106 93F82030 		ldrb	r3, [r3, #32]	@ zero_extendqisi2
 816 010a 002B     		cmp	r3, #0
 817 010c 14BF     		ite	ne
 818 010e 0023     		movne	r3, #0
 819 0110 0123     		moveq	r3, #1
 820 0112 DBB2     		uxtb	r3, r3
 821 0114 4FF00700 		mov	r0, #7
 822 0118 1946     		mov	r1, r3
 823 011a FFF7FEFF 		bl	_test_assert
 824 011e 0346     		mov	r3, r0
 825 0120 002B     		cmp	r3, #0
 826 0122 4DD1     		bne	.L25
 827              	.L33:
 828              		.loc 1 228 0
 829 0124 0298     		ldr	r0, [sp, #8]
 830 0126 FFF7FEFF 		bl	regfind
 831 012a 0346     		mov	r3, r0
 832 012c 4FF00800 		mov	r0, #8
 833 0130 1946     		mov	r1, r3
 834 0132 FFF7FEFF 		bl	_test_assert
 835 0136 0346     		mov	r3, r0
ARM GAS  /tmp/ccrVICIt.s 			page 16


 836 0138 002B     		cmp	r3, #0
 837 013a 41D1     		bne	.L25
 838              	.L34:
 839              		.loc 1 229 0
 840 013c 0298     		ldr	r0, [sp, #8]
 841 013e FFF7FEFF 		bl	regfind
 842 0142 0346     		mov	r3, r0
 843 0144 4FF00900 		mov	r0, #9
 844 0148 1946     		mov	r1, r3
 845 014a FFF7FEFF 		bl	_test_assert
 846 014e 0346     		mov	r3, r0
 847 0150 002B     		cmp	r3, #0
 848 0152 35D1     		bne	.L25
 849              	.L35:
 850              		.loc 1 230 0
 851 0154 4FF03200 		mov	r0, #50
 852 0158 FFF7FEFF 		bl	chThdSleep
 853              		.loc 1 231 0
 854 015c 029B     		ldr	r3, [sp, #8]
 855 015e 93F82030 		ldrb	r3, [r3, #32]	@ zero_extendqisi2
 856 0162 0E2B     		cmp	r3, #14
 857 0164 14BF     		ite	ne
 858 0166 0023     		movne	r3, #0
 859 0168 0123     		moveq	r3, #1
 860 016a DBB2     		uxtb	r3, r3
 861 016c 4FF00A00 		mov	r0, #10
 862 0170 1946     		mov	r1, r3
 863 0172 FFF7FEFF 		bl	_test_assert
 864 0176 0346     		mov	r3, r0
 865 0178 002B     		cmp	r3, #0
 866 017a 21D1     		bne	.L25
 867              	.L36:
 868              		.loc 1 234 0
 869 017c 0298     		ldr	r0, [sp, #8]
 870 017e FFF7FEFF 		bl	regfind
 871 0182 0346     		mov	r3, r0
 872 0184 4FF00B00 		mov	r0, #11
 873 0188 1946     		mov	r1, r3
 874 018a FFF7FEFF 		bl	_test_assert
 875 018e 0346     		mov	r3, r0
 876 0190 002B     		cmp	r3, #0
 877 0192 15D1     		bne	.L25
 878              	.L37:
 879              		.loc 1 235 0
 880 0194 0298     		ldr	r0, [sp, #8]
 881 0196 FFF7FEFF 		bl	regfind
 882 019a 0346     		mov	r3, r0
 883 019c 002B     		cmp	r3, #0
 884 019e 0CBF     		ite	eq
 885 01a0 0023     		moveq	r3, #0
 886 01a2 0123     		movne	r3, #1
 887 01a4 DBB2     		uxtb	r3, r3
 888 01a6 83F00103 		eor	r3, r3, #1
 889 01aa DBB2     		uxtb	r3, r3
 890 01ac 03F00103 		and	r3, r3, #1
 891 01b0 DBB2     		uxtb	r3, r3
 892 01b2 4FF00C00 		mov	r0, #12
ARM GAS  /tmp/ccrVICIt.s 			page 17


 893 01b6 1946     		mov	r1, r3
 894 01b8 FFF7FEFF 		bl	_test_assert
 895 01bc 0346     		mov	r3, r0
 896 01be 002B     		cmp	r3, #0
 897              	.L25:
 898              		.loc 1 236 0
 899 01c0 05B0     		add	sp, sp, #20
 900 01c2 00BD     		pop	{pc}
 901              		.cfi_endproc
 902              	.LFE14:
 903              		.size	dyn3_execute, .-dyn3_execute
 904              		.global	testdyn3
 905 01c4 AFF30080 		.section	.rodata
 905      AFF30080 
 905      AFF30080 
 906              		.align	2
 907              	.LC9:
 908 007c 44796E61 		.ascii	"Dynamic APIs, registry and references\000"
 908      6D696320 
 908      41504973 
 908      2C207265 
 908      67697374 
 909 00a2 0000     		.section	.rodata.testdyn3,"a",%progbits
 910              		.align	2
 911              		.type	testdyn3, %object
 912              		.size	testdyn3, 16
 913              	testdyn3:
 914 0000 7C000000 		.word	.LC9
 915 0004 00000000 		.word	dyn3_setup
 916 0008 00000000 		.word	0
 917 000c 00000000 		.word	dyn3_execute
 918              		.global	patterndyn
 919              		.section	.rodata.patterndyn,"a",%progbits
 920              		.align	2
 921              		.type	patterndyn, %object
 922              		.size	patterndyn, 16
 923              	patterndyn:
 924 0000 00000000 		.word	testdyn1
 925 0004 00000000 		.word	testdyn2
 926 0008 00000000 		.word	testdyn3
 927 000c 00000000 		.word	0
 928              		.text
 929              	.Letext0:
 930              		.file 2 "/usr/bin/../lib/gcc/arm-none-eabi/4.7.4/include/stddef.h"
 931              		.file 3 "/usr/bin/../lib/gcc/arm-none-eabi/4.7.4/../../../../arm-none-eabi/include/stdint.h"
 932              		.file 4 "../../os/ports/GCC/ARMCMx/chtypes.h"
 933              		.file 5 "../../os/kernel/include/chlists.h"
 934              		.file 6 "../../os/kernel/include/chthreads.h"
 935              		.file 7 "../../os/ports/GCC/ARMCMx/chcore_v7m.h"
 936              		.file 8 "../../os/kernel/include/chschd.h"
 937              		.file 9 "../../os/kernel/include/chmtx.h"
 938              		.file 10 "../../os/kernel/include/chmemcore.h"
 939              		.file 11 "../../os/kernel/include/chheap.h"
 940              		.file 12 "../../os/kernel/include/chmempools.h"
 941              		.file 13 "../../test/test.h"