ARM GAS  /tmp/cciE3hUa.s 			page 1


   1              		.syntax unified
   2              		.cpu cortex-m4
   3              		.fpu softvfp
   4              		.eabi_attribute 20, 1
   5              		.eabi_attribute 21, 1
   6              		.eabi_attribute 23, 3
   7              		.eabi_attribute 24, 1
   8              		.eabi_attribute 25, 1
   9              		.eabi_attribute 26, 1
  10              		.eabi_attribute 30, 6
  11              		.eabi_attribute 34, 1
  12              		.eabi_attribute 18, 4
  13              		.thumb
  14              		.file	"testbmk.c"
  15              		.text
  16              	.Ltext0:
  17              		.cfi_sections	.debug_frame
  18              		.section	.bss.sem1,"aw",%nobits
  19              		.align	2
  20              		.type	sem1, %object
  21              		.size	sem1, 12
  22              	sem1:
  23 0000 00000000 		.space	12
  23      00000000 
  23      00000000 
  24              		.section	.bss.mtx1,"aw",%nobits
  25              		.align	2
  26              		.type	mtx1, %object
  27              		.size	mtx1, 16
  28              	mtx1:
  29 0000 00000000 		.space	16
  29      00000000 
  29      00000000 
  29      00000000 
  30              		.section	.text.thread1,"ax",%progbits
  31              		.align	2
  32              		.p2align 4,,15
  33              		.thumb
  34              		.thumb_func
  35              		.type	thread1, %function
  36              	thread1:
  37              	.LFB7:
  38              		.file 1 "../../test/testbmk.c"
  39              		.loc 1 64 0
  40              		.cfi_startproc
  41              		@ args = 0, pretend = 0, frame = 16
  42              		@ frame_needed = 0, uses_anonymous_args = 0
  43 0000 00B5     		push	{lr}
  44              	.LCFI0:
  45              		.cfi_def_cfa_offset 4
  46              		.cfi_offset 14, -4
  47 0002 85B0     		sub	sp, sp, #20
  48              	.LCFI1:
  49              		.cfi_def_cfa_offset 24
  50 0004 0190     		str	r0, [sp, #4]
  51              	.L2:
  52              		.loc 1 70 0 discriminator 1
ARM GAS  /tmp/cciE3hUa.s 			page 2


  53 0006 FFF7FEFF 		bl	chMsgWait
  54 000a 0390     		str	r0, [sp, #12]
  55              		.loc 1 71 0 discriminator 1
  56 000c 039B     		ldr	r3, [sp, #12]
  57 000e 9B6B     		ldr	r3, [r3, #56]
  58 0010 0293     		str	r3, [sp, #8]
  59              		.loc 1 72 0 discriminator 1
  60 0012 0398     		ldr	r0, [sp, #12]
  61 0014 0299     		ldr	r1, [sp, #8]
  62 0016 FFF7FEFF 		bl	chMsgRelease
  63              		.loc 1 73 0 discriminator 1
  64 001a 029B     		ldr	r3, [sp, #8]
  65 001c 002B     		cmp	r3, #0
  66 001e F2D1     		bne	.L2
  67              		.loc 1 74 0
  68 0020 4FF00003 		mov	r3, #0
  69              		.loc 1 75 0
  70 0024 1846     		mov	r0, r3
  71 0026 05B0     		add	sp, sp, #20
  72 0028 00BD     		pop	{pc}
  73              		.cfi_endproc
  74              	.LFE7:
  75              		.size	thread1, .-thread1
  76 002a 00BFAFF3 		.section	.text.msg_loop_test,"ax",%progbits
  76      0080
  77              		.align	2
  78              		.p2align 4,,15
  79              		.thumb
  80              		.thumb_func
  81              		.type	msg_loop_test, %function
  82              	msg_loop_test:
  83              	.LFB8:
  84              		.loc 1 80 0
  85              		.cfi_startproc
  86              		@ args = 0, pretend = 0, frame = 16
  87              		@ frame_needed = 0, uses_anonymous_args = 0
  88 0000 00B5     		push	{lr}
  89              	.LCFI2:
  90              		.cfi_def_cfa_offset 4
  91              		.cfi_offset 14, -4
  92 0002 85B0     		sub	sp, sp, #20
  93              	.LCFI3:
  94              		.cfi_def_cfa_offset 24
  95 0004 0190     		str	r0, [sp, #4]
  96              		.loc 1 82 0
  97 0006 4FF00003 		mov	r3, #0
  98 000a 0393     		str	r3, [sp, #12]
  99              		.loc 1 83 0
 100 000c FFF7FEFF 		bl	test_wait_tick
 101              		.loc 1 84 0
 102 0010 4FF47A70 		mov	r0, #1000
 103 0014 FFF7FEFF 		bl	test_start_timer
 104              	.L5:
 105              		.loc 1 86 0 discriminator 1
 106 0018 0198     		ldr	r0, [sp, #4]
 107 001a 4FF00101 		mov	r1, #1
 108 001e FFF7FEFF 		bl	chMsgSend
ARM GAS  /tmp/cciE3hUa.s 			page 3


 109              		.loc 1 87 0 discriminator 1
 110 0022 039B     		ldr	r3, [sp, #12]
 111 0024 03F10103 		add	r3, r3, #1
 112 0028 0393     		str	r3, [sp, #12]
 113              		.loc 1 91 0 discriminator 1
 114 002a 40F20003 		movw	r3, #:lower16:test_timer_done
 115 002e C0F20003 		movt	r3, #:upper16:test_timer_done
 116 0032 1B78     		ldrb	r3, [r3, #0]	@ zero_extendqisi2
 117 0034 83F00103 		eor	r3, r3, #1
 118 0038 DBB2     		uxtb	r3, r3
 119 003a 002B     		cmp	r3, #0
 120 003c ECD1     		bne	.L5
 121              		.loc 1 92 0
 122 003e 0198     		ldr	r0, [sp, #4]
 123 0040 4FF00001 		mov	r1, #0
 124 0044 FFF7FEFF 		bl	chMsgSend
 125              		.loc 1 93 0
 126 0048 039B     		ldr	r3, [sp, #12]
 127              		.loc 1 94 0
 128 004a 1846     		mov	r0, r3
 129 004c 05B0     		add	sp, sp, #20
 130 004e 00BD     		pop	{pc}
 131              		.cfi_endproc
 132              	.LFE8:
 133              		.size	msg_loop_test, .-msg_loop_test
 134              		.section	.rodata
 135              		.align	2
 136              	.LC0:
 137 0000 2D2D2D20 		.ascii	"--- Score : \000"
 137      53636F72 
 137      65203A20 
 137      00
 138 000d 000000   		.align	2
 139              	.LC1:
 140 0010 206D7367 		.ascii	" msgs/S, \000"
 140      732F532C 
 140      2000
 141 001a 0000     		.align	2
 142              	.LC2:
 143 001c 20637478 		.ascii	" ctxswc/S\000"
 143      7377632F 
 143      5300
 144              		.section	.text.bmk1_execute,"ax",%progbits
 145              		.align	2
 146              		.p2align 4,,15
 147              		.thumb
 148              		.thumb_func
 149              		.type	bmk1_execute, %function
 150              	bmk1_execute:
 151              	.LFB9:
 152              		.loc 1 105 0
 153              		.cfi_startproc
 154              		@ args = 0, pretend = 0, frame = 8
 155              		@ frame_needed = 0, uses_anonymous_args = 0
 156 0000 00B5     		push	{lr}
 157              	.LCFI4:
 158              		.cfi_def_cfa_offset 4
ARM GAS  /tmp/cciE3hUa.s 			page 4


 159              		.cfi_offset 14, -4
 160 0002 85B0     		sub	sp, sp, #20
 161              	.LCFI5:
 162              		.cfi_def_cfa_offset 24
 163              		.loc 1 108 0
 164 0004 40F20003 		movw	r3, #:lower16:wa
 165 0008 C0F20003 		movt	r3, #:upper16:wa
 166 000c 1A68     		ldr	r2, [r3, #0]
 167 000e 40F20003 		movw	r3, #:lower16:rlist
 168 0012 C0F20003 		movt	r3, #:upper16:rlist
 169 0016 9B69     		ldr	r3, [r3, #24]
 170 0018 9B68     		ldr	r3, [r3, #8]
 171 001a 03F1FF33 		add	r3, r3, #-1
 172 001e 4FF00001 		mov	r1, #0
 173 0022 0091     		str	r1, [sp, #0]
 174 0024 1046     		mov	r0, r2
 175 0026 4FF49871 		mov	r1, #304
 176 002a 1A46     		mov	r2, r3
 177 002c 40F20003 		movw	r3, #:lower16:thread1
 178 0030 C0F20003 		movt	r3, #:upper16:thread1
 179 0034 FFF7FEFF 		bl	chThdCreateStatic
 180 0038 0246     		mov	r2, r0
 181 003a 40F20003 		movw	r3, #:lower16:threads
 182 003e C0F20003 		movt	r3, #:upper16:threads
 183 0042 1A60     		str	r2, [r3, #0]
 184              		.loc 1 109 0
 185 0044 40F20003 		movw	r3, #:lower16:threads
 186 0048 C0F20003 		movt	r3, #:upper16:threads
 187 004c 1B68     		ldr	r3, [r3, #0]
 188 004e 1846     		mov	r0, r3
 189 0050 FFF7FEFF 		bl	msg_loop_test
 190 0054 0390     		str	r0, [sp, #12]
 191              		.loc 1 110 0
 192 0056 FFF7FEFF 		bl	test_wait_threads
 193              		.loc 1 111 0
 194 005a 40F20000 		movw	r0, #:lower16:.LC0
 195 005e C0F20000 		movt	r0, #:upper16:.LC0
 196 0062 FFF7FEFF 		bl	test_print
 197              		.loc 1 112 0
 198 0066 0398     		ldr	r0, [sp, #12]
 199 0068 FFF7FEFF 		bl	test_printn
 200              		.loc 1 113 0
 201 006c 40F20000 		movw	r0, #:lower16:.LC1
 202 0070 C0F20000 		movt	r0, #:upper16:.LC1
 203 0074 FFF7FEFF 		bl	test_print
 204              		.loc 1 114 0
 205 0078 039B     		ldr	r3, [sp, #12]
 206 007a 4FEA4303 		lsl	r3, r3, #1
 207 007e 1846     		mov	r0, r3
 208 0080 FFF7FEFF 		bl	test_printn
 209              		.loc 1 115 0
 210 0084 40F20000 		movw	r0, #:lower16:.LC2
 211 0088 C0F20000 		movt	r0, #:upper16:.LC2
 212 008c FFF7FEFF 		bl	test_println
 213              		.loc 1 116 0
 214 0090 05B0     		add	sp, sp, #20
 215 0092 00BD     		pop	{pc}
ARM GAS  /tmp/cciE3hUa.s 			page 5


 216              		.cfi_endproc
 217              	.LFE9:
 218              		.size	bmk1_execute, .-bmk1_execute
 219              		.global	testbmk1
 220 0094 AFF30080 		.section	.rodata
 220      AFF30080 
 220      AFF30080 
 221 0026 0000     		.align	2
 222              	.LC3:
 223 0028 42656E63 		.ascii	"Benchmark, messages #1\000"
 223      686D6172 
 223      6B2C206D 
 223      65737361 
 223      67657320 
 224              		.section	.rodata.testbmk1,"a",%progbits
 225              		.align	2
 226              		.type	testbmk1, %object
 227              		.size	testbmk1, 16
 228              	testbmk1:
 229 0000 28000000 		.word	.LC3
 230 0004 00000000 		.word	0
 231 0008 00000000 		.word	0
 232 000c 00000000 		.word	bmk1_execute
 233              		.section	.text.bmk2_execute,"ax",%progbits
 234              		.align	2
 235              		.p2align 4,,15
 236              		.thumb
 237              		.thumb_func
 238              		.type	bmk2_execute, %function
 239              	bmk2_execute:
 240              	.LFB10:
 241              		.loc 1 134 0
 242              		.cfi_startproc
 243              		@ args = 0, pretend = 0, frame = 8
 244              		@ frame_needed = 0, uses_anonymous_args = 0
 245 0000 00B5     		push	{lr}
 246              	.LCFI6:
 247              		.cfi_def_cfa_offset 4
 248              		.cfi_offset 14, -4
 249 0002 85B0     		sub	sp, sp, #20
 250              	.LCFI7:
 251              		.cfi_def_cfa_offset 24
 252              		.loc 1 137 0
 253 0004 40F20003 		movw	r3, #:lower16:wa
 254 0008 C0F20003 		movt	r3, #:upper16:wa
 255 000c 1A68     		ldr	r2, [r3, #0]
 256 000e 40F20003 		movw	r3, #:lower16:rlist
 257 0012 C0F20003 		movt	r3, #:upper16:rlist
 258 0016 9B69     		ldr	r3, [r3, #24]
 259 0018 9B68     		ldr	r3, [r3, #8]
 260 001a 03F10103 		add	r3, r3, #1
 261 001e 4FF00001 		mov	r1, #0
 262 0022 0091     		str	r1, [sp, #0]
 263 0024 1046     		mov	r0, r2
 264 0026 4FF49871 		mov	r1, #304
 265 002a 1A46     		mov	r2, r3
 266 002c 40F20003 		movw	r3, #:lower16:thread1
ARM GAS  /tmp/cciE3hUa.s 			page 6


 267 0030 C0F20003 		movt	r3, #:upper16:thread1
 268 0034 FFF7FEFF 		bl	chThdCreateStatic
 269 0038 0246     		mov	r2, r0
 270 003a 40F20003 		movw	r3, #:lower16:threads
 271 003e C0F20003 		movt	r3, #:upper16:threads
 272 0042 1A60     		str	r2, [r3, #0]
 273              		.loc 1 138 0
 274 0044 40F20003 		movw	r3, #:lower16:threads
 275 0048 C0F20003 		movt	r3, #:upper16:threads
 276 004c 1B68     		ldr	r3, [r3, #0]
 277 004e 1846     		mov	r0, r3
 278 0050 FFF7FEFF 		bl	msg_loop_test
 279 0054 0390     		str	r0, [sp, #12]
 280              		.loc 1 139 0
 281 0056 FFF7FEFF 		bl	test_wait_threads
 282              		.loc 1 140 0
 283 005a 40F20000 		movw	r0, #:lower16:.LC0
 284 005e C0F20000 		movt	r0, #:upper16:.LC0
 285 0062 FFF7FEFF 		bl	test_print
 286              		.loc 1 141 0
 287 0066 0398     		ldr	r0, [sp, #12]
 288 0068 FFF7FEFF 		bl	test_printn
 289              		.loc 1 142 0
 290 006c 40F20000 		movw	r0, #:lower16:.LC1
 291 0070 C0F20000 		movt	r0, #:upper16:.LC1
 292 0074 FFF7FEFF 		bl	test_print
 293              		.loc 1 143 0
 294 0078 039B     		ldr	r3, [sp, #12]
 295 007a 4FEA4303 		lsl	r3, r3, #1
 296 007e 1846     		mov	r0, r3
 297 0080 FFF7FEFF 		bl	test_printn
 298              		.loc 1 144 0
 299 0084 40F20000 		movw	r0, #:lower16:.LC2
 300 0088 C0F20000 		movt	r0, #:upper16:.LC2
 301 008c FFF7FEFF 		bl	test_println
 302              		.loc 1 145 0
 303 0090 05B0     		add	sp, sp, #20
 304 0092 00BD     		pop	{pc}
 305              		.cfi_endproc
 306              	.LFE10:
 307              		.size	bmk2_execute, .-bmk2_execute
 308              		.global	testbmk2
 309 0094 AFF30080 		.section	.rodata
 309      AFF30080 
 309      AFF30080 
 310 003f 00       		.align	2
 311              	.LC4:
 312 0040 42656E63 		.ascii	"Benchmark, messages #2\000"
 312      686D6172 
 312      6B2C206D 
 312      65737361 
 312      67657320 
 313              		.section	.rodata.testbmk2,"a",%progbits
 314              		.align	2
 315              		.type	testbmk2, %object
 316              		.size	testbmk2, 16
 317              	testbmk2:
ARM GAS  /tmp/cciE3hUa.s 			page 7


 318 0000 40000000 		.word	.LC4
 319 0004 00000000 		.word	0
 320 0008 00000000 		.word	0
 321 000c 00000000 		.word	bmk2_execute
 322              		.section	.text.thread2,"ax",%progbits
 323              		.align	2
 324              		.p2align 4,,15
 325              		.thumb
 326              		.thumb_func
 327              		.type	thread2, %function
 328              	thread2:
 329              	.LFB11:
 330              		.loc 1 154 0
 331              		.cfi_startproc
 332              		@ args = 0, pretend = 0, frame = 8
 333              		@ frame_needed = 0, uses_anonymous_args = 0
 334              		@ link register save eliminated.
 335 0000 82B0     		sub	sp, sp, #8
 336              	.LCFI8:
 337              		.cfi_def_cfa_offset 8
 338 0002 0190     		str	r0, [sp, #4]
 339              		.loc 1 156 0
 340 0004 019B     		ldr	r3, [sp, #4]
 341              		.loc 1 157 0
 342 0006 1846     		mov	r0, r3
 343 0008 02B0     		add	sp, sp, #8
 344 000a 7047     		bx	lr
 345              		.cfi_endproc
 346              	.LFE11:
 347              		.size	thread2, .-thread2
 348 000c AFF30080 		.section	.text.bmk3_execute,"ax",%progbits
 349              		.align	2
 350              		.p2align 4,,15
 351              		.thumb
 352              		.thumb_func
 353              		.type	bmk3_execute, %function
 354              	bmk3_execute:
 355              	.LFB12:
 356              		.loc 1 169 0
 357              		.cfi_startproc
 358              		@ args = 0, pretend = 0, frame = 8
 359              		@ frame_needed = 0, uses_anonymous_args = 0
 360 0000 00B5     		push	{lr}
 361              	.LCFI9:
 362              		.cfi_def_cfa_offset 4
 363              		.cfi_offset 14, -4
 364 0002 85B0     		sub	sp, sp, #20
 365              	.LCFI10:
 366              		.cfi_def_cfa_offset 24
 367              		.loc 1 172 0
 368 0004 40F20003 		movw	r3, #:lower16:wa
 369 0008 C0F20003 		movt	r3, #:upper16:wa
 370 000c 1A68     		ldr	r2, [r3, #0]
 371 000e 40F20003 		movw	r3, #:lower16:rlist
 372 0012 C0F20003 		movt	r3, #:upper16:rlist
 373 0016 9B69     		ldr	r3, [r3, #24]
 374 0018 9B68     		ldr	r3, [r3, #8]
ARM GAS  /tmp/cciE3hUa.s 			page 8


 375 001a 03F10103 		add	r3, r3, #1
 376 001e 4FF00001 		mov	r1, #0
 377 0022 0091     		str	r1, [sp, #0]
 378 0024 1046     		mov	r0, r2
 379 0026 4FF49871 		mov	r1, #304
 380 002a 1A46     		mov	r2, r3
 381 002c 40F20003 		movw	r3, #:lower16:thread1
 382 0030 C0F20003 		movt	r3, #:upper16:thread1
 383 0034 FFF7FEFF 		bl	chThdCreateStatic
 384 0038 0246     		mov	r2, r0
 385 003a 40F20003 		movw	r3, #:lower16:threads
 386 003e C0F20003 		movt	r3, #:upper16:threads
 387 0042 1A60     		str	r2, [r3, #0]
 388              		.loc 1 173 0
 389 0044 40F20003 		movw	r3, #:lower16:wa
 390 0048 C0F20003 		movt	r3, #:upper16:wa
 391 004c 5A68     		ldr	r2, [r3, #4]
 392 004e 40F20003 		movw	r3, #:lower16:rlist
 393 0052 C0F20003 		movt	r3, #:upper16:rlist
 394 0056 9B69     		ldr	r3, [r3, #24]
 395 0058 9B68     		ldr	r3, [r3, #8]
 396 005a A3F10203 		sub	r3, r3, #2
 397 005e 4FF00001 		mov	r1, #0
 398 0062 0091     		str	r1, [sp, #0]
 399 0064 1046     		mov	r0, r2
 400 0066 4FF49871 		mov	r1, #304
 401 006a 1A46     		mov	r2, r3
 402 006c 40F20003 		movw	r3, #:lower16:thread2
 403 0070 C0F20003 		movt	r3, #:upper16:thread2
 404 0074 FFF7FEFF 		bl	chThdCreateStatic
 405 0078 0246     		mov	r2, r0
 406 007a 40F20003 		movw	r3, #:lower16:threads
 407 007e C0F20003 		movt	r3, #:upper16:threads
 408 0082 5A60     		str	r2, [r3, #4]
 409              		.loc 1 174 0
 410 0084 40F20003 		movw	r3, #:lower16:wa
 411 0088 C0F20003 		movt	r3, #:upper16:wa
 412 008c 9A68     		ldr	r2, [r3, #8]
 413 008e 40F20003 		movw	r3, #:lower16:rlist
 414 0092 C0F20003 		movt	r3, #:upper16:rlist
 415 0096 9B69     		ldr	r3, [r3, #24]
 416 0098 9B68     		ldr	r3, [r3, #8]
 417 009a A3F10303 		sub	r3, r3, #3
 418 009e 4FF00001 		mov	r1, #0
 419 00a2 0091     		str	r1, [sp, #0]
 420 00a4 1046     		mov	r0, r2
 421 00a6 4FF49871 		mov	r1, #304
 422 00aa 1A46     		mov	r2, r3
 423 00ac 40F20003 		movw	r3, #:lower16:thread2
 424 00b0 C0F20003 		movt	r3, #:upper16:thread2
 425 00b4 FFF7FEFF 		bl	chThdCreateStatic
 426 00b8 0246     		mov	r2, r0
 427 00ba 40F20003 		movw	r3, #:lower16:threads
 428 00be C0F20003 		movt	r3, #:upper16:threads
 429 00c2 9A60     		str	r2, [r3, #8]
 430              		.loc 1 175 0
 431 00c4 40F20003 		movw	r3, #:lower16:wa
ARM GAS  /tmp/cciE3hUa.s 			page 9


 432 00c8 C0F20003 		movt	r3, #:upper16:wa
 433 00cc DA68     		ldr	r2, [r3, #12]
 434 00ce 40F20003 		movw	r3, #:lower16:rlist
 435 00d2 C0F20003 		movt	r3, #:upper16:rlist
 436 00d6 9B69     		ldr	r3, [r3, #24]
 437 00d8 9B68     		ldr	r3, [r3, #8]
 438 00da A3F10403 		sub	r3, r3, #4
 439 00de 4FF00001 		mov	r1, #0
 440 00e2 0091     		str	r1, [sp, #0]
 441 00e4 1046     		mov	r0, r2
 442 00e6 4FF49871 		mov	r1, #304
 443 00ea 1A46     		mov	r2, r3
 444 00ec 40F20003 		movw	r3, #:lower16:thread2
 445 00f0 C0F20003 		movt	r3, #:upper16:thread2
 446 00f4 FFF7FEFF 		bl	chThdCreateStatic
 447 00f8 0246     		mov	r2, r0
 448 00fa 40F20003 		movw	r3, #:lower16:threads
 449 00fe C0F20003 		movt	r3, #:upper16:threads
 450 0102 DA60     		str	r2, [r3, #12]
 451              		.loc 1 176 0
 452 0104 40F20003 		movw	r3, #:lower16:wa
 453 0108 C0F20003 		movt	r3, #:upper16:wa
 454 010c 1A69     		ldr	r2, [r3, #16]
 455 010e 40F20003 		movw	r3, #:lower16:rlist
 456 0112 C0F20003 		movt	r3, #:upper16:rlist
 457 0116 9B69     		ldr	r3, [r3, #24]
 458 0118 9B68     		ldr	r3, [r3, #8]
 459 011a A3F10503 		sub	r3, r3, #5
 460 011e 4FF00001 		mov	r1, #0
 461 0122 0091     		str	r1, [sp, #0]
 462 0124 1046     		mov	r0, r2
 463 0126 4FF49871 		mov	r1, #304
 464 012a 1A46     		mov	r2, r3
 465 012c 40F20003 		movw	r3, #:lower16:thread2
 466 0130 C0F20003 		movt	r3, #:upper16:thread2
 467 0134 FFF7FEFF 		bl	chThdCreateStatic
 468 0138 0246     		mov	r2, r0
 469 013a 40F20003 		movw	r3, #:lower16:threads
 470 013e C0F20003 		movt	r3, #:upper16:threads
 471 0142 1A61     		str	r2, [r3, #16]
 472              		.loc 1 177 0
 473 0144 40F20003 		movw	r3, #:lower16:threads
 474 0148 C0F20003 		movt	r3, #:upper16:threads
 475 014c 1B68     		ldr	r3, [r3, #0]
 476 014e 1846     		mov	r0, r3
 477 0150 FFF7FEFF 		bl	msg_loop_test
 478 0154 0390     		str	r0, [sp, #12]
 479              		.loc 1 178 0
 480 0156 FFF7FEFF 		bl	test_wait_threads
 481              		.loc 1 179 0
 482 015a 40F20000 		movw	r0, #:lower16:.LC0
 483 015e C0F20000 		movt	r0, #:upper16:.LC0
 484 0162 FFF7FEFF 		bl	test_print
 485              		.loc 1 180 0
 486 0166 0398     		ldr	r0, [sp, #12]
 487 0168 FFF7FEFF 		bl	test_printn
 488              		.loc 1 181 0
ARM GAS  /tmp/cciE3hUa.s 			page 10


 489 016c 40F20000 		movw	r0, #:lower16:.LC1
 490 0170 C0F20000 		movt	r0, #:upper16:.LC1
 491 0174 FFF7FEFF 		bl	test_print
 492              		.loc 1 182 0
 493 0178 039B     		ldr	r3, [sp, #12]
 494 017a 4FEA4303 		lsl	r3, r3, #1
 495 017e 1846     		mov	r0, r3
 496 0180 FFF7FEFF 		bl	test_printn
 497              		.loc 1 183 0
 498 0184 40F20000 		movw	r0, #:lower16:.LC2
 499 0188 C0F20000 		movt	r0, #:upper16:.LC2
 500 018c FFF7FEFF 		bl	test_println
 501              		.loc 1 184 0
 502 0190 05B0     		add	sp, sp, #20
 503 0192 00BD     		pop	{pc}
 504              		.cfi_endproc
 505              	.LFE12:
 506              		.size	bmk3_execute, .-bmk3_execute
 507              		.global	testbmk3
 508 0194 AFF30080 		.section	.rodata
 508      AFF30080 
 508      AFF30080 
 509 0057 00       		.align	2
 510              	.LC5:
 511 0058 42656E63 		.ascii	"Benchmark, messages #3\000"
 511      686D6172 
 511      6B2C206D 
 511      65737361 
 511      67657320 
 512              		.section	.rodata.testbmk3,"a",%progbits
 513              		.align	2
 514              		.type	testbmk3, %object
 515              		.size	testbmk3, 16
 516              	testbmk3:
 517 0000 58000000 		.word	.LC5
 518 0004 00000000 		.word	0
 519 0008 00000000 		.word	0
 520 000c 00000000 		.word	bmk3_execute
 521              		.section	.text.thread4,"ax",%progbits
 522              		.align	2
 523              		.p2align 4,,15
 524              		.global	thread4
 525              		.thumb
 526              		.thumb_func
 527              		.type	thread4, %function
 528              	thread4:
 529              	.LFB13:
 530              		.loc 1 203 0
 531              		.cfi_startproc
 532              		@ args = 0, pretend = 0, frame = 16
 533              		@ frame_needed = 0, uses_anonymous_args = 0
 534 0000 00B5     		push	{lr}
 535              	.LCFI11:
 536              		.cfi_def_cfa_offset 4
 537              		.cfi_offset 14, -4
 538 0002 85B0     		sub	sp, sp, #20
 539              	.LCFI12:
ARM GAS  /tmp/cciE3hUa.s 			page 11


 540              		.cfi_def_cfa_offset 24
 541 0004 0190     		str	r0, [sp, #4]
 542              		.loc 1 205 0
 543 0006 40F20003 		movw	r3, #:lower16:rlist
 544 000a C0F20003 		movt	r3, #:upper16:rlist
 545 000e 9B69     		ldr	r3, [r3, #24]
 546 0010 0393     		str	r3, [sp, #12]
 547              	.LBB2:
 548              		.loc 1 208 0
 549 0012 4FF02003 		mov	r3, #32
 550              	@ 208 "../../test/testbmk.c" 1
 551 0016 83F31188 		msr     BASEPRI, r3
 552              	@ 0 "" 2
 553              		.thumb
 554              	.LBE2:
 555 001a FFF7FEFF 		bl	dbg_check_lock
 556              	.L13:
 557              		.loc 1 210 0 discriminator 1
 558 001e 4FF00200 		mov	r0, #2
 559 0022 FFF7FEFF 		bl	chSchGoSleepS
 560              		.loc 1 211 0 discriminator 1
 561 0026 039B     		ldr	r3, [sp, #12]
 562 0028 9B6A     		ldr	r3, [r3, #40]
 563 002a 0293     		str	r3, [sp, #8]
 564              		.loc 1 212 0 discriminator 1
 565 002c 029B     		ldr	r3, [sp, #8]
 566 002e 002B     		cmp	r3, #0
 567 0030 F5D0     		beq	.L13
 568              		.loc 1 213 0
 569 0032 FFF7FEFF 		bl	dbg_check_unlock
 570              	.LBB3:
 571 0036 4FF00003 		mov	r3, #0
 572              	@ 213 "../../test/testbmk.c" 1
 573 003a 83F31188 		msr     BASEPRI, r3
 574              	@ 0 "" 2
 575              		.thumb
 576              	.LBE3:
 577              		.loc 1 214 0
 578 003e 4FF00003 		mov	r3, #0
 579              		.loc 1 215 0
 580 0042 1846     		mov	r0, r3
 581 0044 05B0     		add	sp, sp, #20
 582 0046 00BD     		pop	{pc}
 583              		.cfi_endproc
 584              	.LFE13:
 585              		.size	thread4, .-thread4
 586 0048 AFF30080 		.section	.text.bmk4_execute,"ax",%progbits
 586      AFF30080 
 587              		.align	2
 588              		.p2align 4,,15
 589              		.thumb
 590              		.thumb_func
 591              		.type	bmk4_execute, %function
 592              	bmk4_execute:
 593              	.LFB14:
 594              		.loc 1 217 0
 595              		.cfi_startproc
ARM GAS  /tmp/cciE3hUa.s 			page 12


 596              		@ args = 0, pretend = 0, frame = 8
 597              		@ frame_needed = 0, uses_anonymous_args = 0
 598 0000 00B5     		push	{lr}
 599              	.LCFI13:
 600              		.cfi_def_cfa_offset 4
 601              		.cfi_offset 14, -4
 602 0002 85B0     		sub	sp, sp, #20
 603              	.LCFI14:
 604              		.cfi_def_cfa_offset 24
 605              		.loc 1 221 0
 606 0004 40F20003 		movw	r3, #:lower16:wa
 607 0008 C0F20003 		movt	r3, #:upper16:wa
 608 000c 1A68     		ldr	r2, [r3, #0]
 609 000e 40F20003 		movw	r3, #:lower16:rlist
 610 0012 C0F20003 		movt	r3, #:upper16:rlist
 611 0016 9B69     		ldr	r3, [r3, #24]
 612 0018 9B68     		ldr	r3, [r3, #8]
 613 001a 03F10103 		add	r3, r3, #1
 614 001e 4FF00001 		mov	r1, #0
 615 0022 0091     		str	r1, [sp, #0]
 616 0024 1046     		mov	r0, r2
 617 0026 4FF49871 		mov	r1, #304
 618 002a 1A46     		mov	r2, r3
 619 002c 40F20003 		movw	r3, #:lower16:thread4
 620 0030 C0F20003 		movt	r3, #:upper16:thread4
 621 0034 FFF7FEFF 		bl	chThdCreateStatic
 622 0038 0246     		mov	r2, r0
 623 003a 40F20003 		movw	r3, #:lower16:threads
 624 003e C0F20003 		movt	r3, #:upper16:threads
 625 0042 1A60     		str	r2, [r3, #0]
 626 0044 40F20003 		movw	r3, #:lower16:threads
 627 0048 C0F20003 		movt	r3, #:upper16:threads
 628 004c 1B68     		ldr	r3, [r3, #0]
 629 004e 0293     		str	r3, [sp, #8]
 630              		.loc 1 222 0
 631 0050 4FF00003 		mov	r3, #0
 632 0054 0393     		str	r3, [sp, #12]
 633              		.loc 1 223 0
 634 0056 FFF7FEFF 		bl	test_wait_tick
 635              		.loc 1 224 0
 636 005a 4FF47A70 		mov	r0, #1000
 637 005e FFF7FEFF 		bl	test_start_timer
 638              	.L16:
 639              	.LBB4:
 640              		.loc 1 226 0 discriminator 1
 641 0062 4FF02003 		mov	r3, #32
 642              	@ 226 "../../test/testbmk.c" 1
 643 0066 83F31188 		msr     BASEPRI, r3
 644              	@ 0 "" 2
 645              		.thumb
 646              	.LBE4:
 647 006a FFF7FEFF 		bl	dbg_check_lock
 648              		.loc 1 227 0 discriminator 1
 649 006e 0298     		ldr	r0, [sp, #8]
 650 0070 4FF00001 		mov	r1, #0
 651 0074 FFF7FEFF 		bl	chSchWakeupS
 652              		.loc 1 228 0 discriminator 1
ARM GAS  /tmp/cciE3hUa.s 			page 13


 653 0078 0298     		ldr	r0, [sp, #8]
 654 007a 4FF00001 		mov	r1, #0
 655 007e FFF7FEFF 		bl	chSchWakeupS
 656              		.loc 1 229 0 discriminator 1
 657 0082 0298     		ldr	r0, [sp, #8]
 658 0084 4FF00001 		mov	r1, #0
 659 0088 FFF7FEFF 		bl	chSchWakeupS
 660              		.loc 1 230 0 discriminator 1
 661 008c 0298     		ldr	r0, [sp, #8]
 662 008e 4FF00001 		mov	r1, #0
 663 0092 FFF7FEFF 		bl	chSchWakeupS
 664              		.loc 1 231 0 discriminator 1
 665 0096 FFF7FEFF 		bl	dbg_check_unlock
 666              	.LBB5:
 667 009a 4FF00003 		mov	r3, #0
 668              	@ 231 "../../test/testbmk.c" 1
 669 009e 83F31188 		msr     BASEPRI, r3
 670              	@ 0 "" 2
 671              		.thumb
 672              	.LBE5:
 673              		.loc 1 232 0 discriminator 1
 674 00a2 039B     		ldr	r3, [sp, #12]
 675 00a4 03F10403 		add	r3, r3, #4
 676 00a8 0393     		str	r3, [sp, #12]
 677              		.loc 1 236 0 discriminator 1
 678 00aa 40F20003 		movw	r3, #:lower16:test_timer_done
 679 00ae C0F20003 		movt	r3, #:upper16:test_timer_done
 680 00b2 1B78     		ldrb	r3, [r3, #0]	@ zero_extendqisi2
 681 00b4 83F00103 		eor	r3, r3, #1
 682 00b8 DBB2     		uxtb	r3, r3
 683 00ba 002B     		cmp	r3, #0
 684 00bc D1D1     		bne	.L16
 685              	.LBB6:
 686              		.loc 1 237 0
 687 00be 4FF02003 		mov	r3, #32
 688              	@ 237 "../../test/testbmk.c" 1
 689 00c2 83F31188 		msr     BASEPRI, r3
 690              	@ 0 "" 2
 691              		.thumb
 692              	.LBE6:
 693 00c6 FFF7FEFF 		bl	dbg_check_lock
 694              		.loc 1 238 0
 695 00ca 0298     		ldr	r0, [sp, #8]
 696 00cc 4FF0FF31 		mov	r1, #-1
 697 00d0 FFF7FEFF 		bl	chSchWakeupS
 698              		.loc 1 239 0
 699 00d4 FFF7FEFF 		bl	dbg_check_unlock
 700              	.LBB7:
 701 00d8 4FF00003 		mov	r3, #0
 702              	@ 239 "../../test/testbmk.c" 1
 703 00dc 83F31188 		msr     BASEPRI, r3
 704              	@ 0 "" 2
 705              		.thumb
 706              	.LBE7:
 707              		.loc 1 241 0
 708 00e0 FFF7FEFF 		bl	test_wait_threads
 709              		.loc 1 242 0
ARM GAS  /tmp/cciE3hUa.s 			page 14


 710 00e4 40F20000 		movw	r0, #:lower16:.LC0
 711 00e8 C0F20000 		movt	r0, #:upper16:.LC0
 712 00ec FFF7FEFF 		bl	test_print
 713              		.loc 1 243 0
 714 00f0 039B     		ldr	r3, [sp, #12]
 715 00f2 4FEA4303 		lsl	r3, r3, #1
 716 00f6 1846     		mov	r0, r3
 717 00f8 FFF7FEFF 		bl	test_printn
 718              		.loc 1 244 0
 719 00fc 40F20000 		movw	r0, #:lower16:.LC2
 720 0100 C0F20000 		movt	r0, #:upper16:.LC2
 721 0104 FFF7FEFF 		bl	test_println
 722              		.loc 1 245 0
 723 0108 05B0     		add	sp, sp, #20
 724 010a 00BD     		pop	{pc}
 725              		.cfi_endproc
 726              	.LFE14:
 727              		.size	bmk4_execute, .-bmk4_execute
 728              		.global	testbmk4
 729 010c AFF30080 		.section	.rodata
 730 006f 00       		.align	2
 731              	.LC6:
 732 0070 42656E63 		.ascii	"Benchmark, context switch\000"
 732      686D6172 
 732      6B2C2063 
 732      6F6E7465 
 732      78742073 
 733              		.section	.rodata.testbmk4,"a",%progbits
 734              		.align	2
 735              		.type	testbmk4, %object
 736              		.size	testbmk4, 16
 737              	testbmk4:
 738 0000 70000000 		.word	.LC6
 739 0004 00000000 		.word	0
 740 0008 00000000 		.word	0
 741 000c 00000000 		.word	bmk4_execute
 742              		.section	.rodata
 743 008a 0000     		.align	2
 744              	.LC7:
 745 008c 20746872 		.ascii	" threads/S\000"
 745      65616473 
 745      2F5300
 746              		.section	.text.bmk5_execute,"ax",%progbits
 747              		.align	2
 748              		.p2align 4,,15
 749              		.thumb
 750              		.thumb_func
 751              		.type	bmk5_execute, %function
 752              	bmk5_execute:
 753              	.LFB15:
 754              		.loc 1 265 0
 755              		.cfi_startproc
 756              		@ args = 0, pretend = 0, frame = 16
 757              		@ frame_needed = 0, uses_anonymous_args = 0
 758 0000 00B5     		push	{lr}
 759              	.LCFI15:
 760              		.cfi_def_cfa_offset 4
ARM GAS  /tmp/cciE3hUa.s 			page 15


 761              		.cfi_offset 14, -4
 762 0002 87B0     		sub	sp, sp, #28
 763              	.LCFI16:
 764              		.cfi_def_cfa_offset 32
 765              		.loc 1 267 0
 766 0004 4FF00003 		mov	r3, #0
 767 0008 0593     		str	r3, [sp, #20]
 768              		.loc 1 268 0
 769 000a 40F20003 		movw	r3, #:lower16:wa
 770 000e C0F20003 		movt	r3, #:upper16:wa
 771 0012 1B68     		ldr	r3, [r3, #0]
 772 0014 0493     		str	r3, [sp, #16]
 773              		.loc 1 269 0
 774 0016 40F20003 		movw	r3, #:lower16:rlist
 775 001a C0F20003 		movt	r3, #:upper16:rlist
 776 001e 9B69     		ldr	r3, [r3, #24]
 777 0020 9B68     		ldr	r3, [r3, #8]
 778 0022 03F1FF33 		add	r3, r3, #-1
 779 0026 0393     		str	r3, [sp, #12]
 780              		.loc 1 270 0
 781 0028 FFF7FEFF 		bl	test_wait_tick
 782              		.loc 1 271 0
 783 002c 4FF47A70 		mov	r0, #1000
 784 0030 FFF7FEFF 		bl	test_start_timer
 785              	.L18:
 786              		.loc 1 273 0 discriminator 1
 787 0034 4FF00003 		mov	r3, #0
 788 0038 0093     		str	r3, [sp, #0]
 789 003a 0498     		ldr	r0, [sp, #16]
 790 003c 4FF49871 		mov	r1, #304
 791 0040 039A     		ldr	r2, [sp, #12]
 792 0042 40F20003 		movw	r3, #:lower16:thread2
 793 0046 C0F20003 		movt	r3, #:upper16:thread2
 794 004a FFF7FEFF 		bl	chThdCreateStatic
 795 004e 0346     		mov	r3, r0
 796 0050 1846     		mov	r0, r3
 797 0052 FFF7FEFF 		bl	chThdWait
 798              		.loc 1 274 0 discriminator 1
 799 0056 059B     		ldr	r3, [sp, #20]
 800 0058 03F10103 		add	r3, r3, #1
 801 005c 0593     		str	r3, [sp, #20]
 802              		.loc 1 278 0 discriminator 1
 803 005e 40F20003 		movw	r3, #:lower16:test_timer_done
 804 0062 C0F20003 		movt	r3, #:upper16:test_timer_done
 805 0066 1B78     		ldrb	r3, [r3, #0]	@ zero_extendqisi2
 806 0068 83F00103 		eor	r3, r3, #1
 807 006c DBB2     		uxtb	r3, r3
 808 006e 002B     		cmp	r3, #0
 809 0070 E0D1     		bne	.L18
 810              		.loc 1 279 0
 811 0072 40F20000 		movw	r0, #:lower16:.LC0
 812 0076 C0F20000 		movt	r0, #:upper16:.LC0
 813 007a FFF7FEFF 		bl	test_print
 814              		.loc 1 280 0
 815 007e 0598     		ldr	r0, [sp, #20]
 816 0080 FFF7FEFF 		bl	test_printn
 817              		.loc 1 281 0
ARM GAS  /tmp/cciE3hUa.s 			page 16


 818 0084 40F20000 		movw	r0, #:lower16:.LC7
 819 0088 C0F20000 		movt	r0, #:upper16:.LC7
 820 008c FFF7FEFF 		bl	test_println
 821              		.loc 1 282 0
 822 0090 07B0     		add	sp, sp, #28
 823 0092 00BD     		pop	{pc}
 824              		.cfi_endproc
 825              	.LFE15:
 826              		.size	bmk5_execute, .-bmk5_execute
 827              		.global	testbmk5
 828 0094 AFF30080 		.section	.rodata
 828      AFF30080 
 828      AFF30080 
 829 0097 00       		.align	2
 830              	.LC8:
 831 0098 42656E63 		.ascii	"Benchmark, threads, full cycle\000"
 831      686D6172 
 831      6B2C2074 
 831      68726561 
 831      64732C20 
 832              		.section	.rodata.testbmk5,"a",%progbits
 833              		.align	2
 834              		.type	testbmk5, %object
 835              		.size	testbmk5, 16
 836              	testbmk5:
 837 0000 98000000 		.word	.LC8
 838 0004 00000000 		.word	0
 839 0008 00000000 		.word	0
 840 000c 00000000 		.word	bmk5_execute
 841              		.section	.text.bmk6_execute,"ax",%progbits
 842              		.align	2
 843              		.p2align 4,,15
 844              		.thumb
 845              		.thumb_func
 846              		.type	bmk6_execute, %function
 847              	bmk6_execute:
 848              	.LFB16:
 849              		.loc 1 304 0
 850              		.cfi_startproc
 851              		@ args = 0, pretend = 0, frame = 16
 852              		@ frame_needed = 0, uses_anonymous_args = 0
 853 0000 00B5     		push	{lr}
 854              	.LCFI17:
 855              		.cfi_def_cfa_offset 4
 856              		.cfi_offset 14, -4
 857 0002 87B0     		sub	sp, sp, #28
 858              	.LCFI18:
 859              		.cfi_def_cfa_offset 32
 860              		.loc 1 306 0
 861 0004 4FF00003 		mov	r3, #0
 862 0008 0593     		str	r3, [sp, #20]
 863              		.loc 1 307 0
 864 000a 40F20003 		movw	r3, #:lower16:wa
 865 000e C0F20003 		movt	r3, #:upper16:wa
 866 0012 1B68     		ldr	r3, [r3, #0]
 867 0014 0493     		str	r3, [sp, #16]
 868              		.loc 1 308 0
ARM GAS  /tmp/cciE3hUa.s 			page 17


 869 0016 40F20003 		movw	r3, #:lower16:rlist
 870 001a C0F20003 		movt	r3, #:upper16:rlist
 871 001e 9B69     		ldr	r3, [r3, #24]
 872 0020 9B68     		ldr	r3, [r3, #8]
 873 0022 03F10103 		add	r3, r3, #1
 874 0026 0393     		str	r3, [sp, #12]
 875              		.loc 1 309 0
 876 0028 FFF7FEFF 		bl	test_wait_tick
 877              		.loc 1 310 0
 878 002c 4FF47A70 		mov	r0, #1000
 879 0030 FFF7FEFF 		bl	test_start_timer
 880              	.L20:
 881              		.loc 1 312 0 discriminator 1
 882 0034 4FF00003 		mov	r3, #0
 883 0038 0093     		str	r3, [sp, #0]
 884 003a 0498     		ldr	r0, [sp, #16]
 885 003c 4FF49871 		mov	r1, #304
 886 0040 039A     		ldr	r2, [sp, #12]
 887 0042 40F20003 		movw	r3, #:lower16:thread2
 888 0046 C0F20003 		movt	r3, #:upper16:thread2
 889 004a FFF7FEFF 		bl	chThdCreateStatic
 890              		.loc 1 313 0 discriminator 1
 891 004e 059B     		ldr	r3, [sp, #20]
 892 0050 03F10103 		add	r3, r3, #1
 893 0054 0593     		str	r3, [sp, #20]
 894              		.loc 1 317 0 discriminator 1
 895 0056 40F20003 		movw	r3, #:lower16:test_timer_done
 896 005a C0F20003 		movt	r3, #:upper16:test_timer_done
 897 005e 1B78     		ldrb	r3, [r3, #0]	@ zero_extendqisi2
 898 0060 83F00103 		eor	r3, r3, #1
 899 0064 DBB2     		uxtb	r3, r3
 900 0066 002B     		cmp	r3, #0
 901 0068 E4D1     		bne	.L20
 902              		.loc 1 318 0
 903 006a 40F20000 		movw	r0, #:lower16:.LC0
 904 006e C0F20000 		movt	r0, #:upper16:.LC0
 905 0072 FFF7FEFF 		bl	test_print
 906              		.loc 1 319 0
 907 0076 0598     		ldr	r0, [sp, #20]
 908 0078 FFF7FEFF 		bl	test_printn
 909              		.loc 1 320 0
 910 007c 40F20000 		movw	r0, #:lower16:.LC7
 911 0080 C0F20000 		movt	r0, #:upper16:.LC7
 912 0084 FFF7FEFF 		bl	test_println
 913              		.loc 1 321 0
 914 0088 07B0     		add	sp, sp, #28
 915 008a 00BD     		pop	{pc}
 916              		.cfi_endproc
 917              	.LFE16:
 918              		.size	bmk6_execute, .-bmk6_execute
 919              		.global	testbmk6
 920 008c AFF30080 		.section	.rodata
 921 00b7 00       		.align	2
 922              	.LC9:
 923 00b8 42656E63 		.ascii	"Benchmark, threads, create only\000"
 923      686D6172 
 923      6B2C2074 
ARM GAS  /tmp/cciE3hUa.s 			page 18


 923      68726561 
 923      64732C20 
 924              		.section	.rodata.testbmk6,"a",%progbits
 925              		.align	2
 926              		.type	testbmk6, %object
 927              		.size	testbmk6, 16
 928              	testbmk6:
 929 0000 B8000000 		.word	.LC9
 930 0004 00000000 		.word	0
 931 0008 00000000 		.word	0
 932 000c 00000000 		.word	bmk6_execute
 933              		.section	.text.thread3,"ax",%progbits
 934              		.align	2
 935              		.p2align 4,,15
 936              		.thumb
 937              		.thumb_func
 938              		.type	thread3, %function
 939              	thread3:
 940              	.LFB17:
 941              		.loc 1 341 0
 942              		.cfi_startproc
 943              		@ args = 0, pretend = 0, frame = 8
 944              		@ frame_needed = 0, uses_anonymous_args = 0
 945 0000 00B5     		push	{lr}
 946              	.LCFI19:
 947              		.cfi_def_cfa_offset 4
 948              		.cfi_offset 14, -4
 949 0002 83B0     		sub	sp, sp, #12
 950              	.LCFI20:
 951              		.cfi_def_cfa_offset 16
 952 0004 0190     		str	r0, [sp, #4]
 953              		.loc 1 344 0
 954 0006 05E0     		b	.L22
 955              	.L23:
 956              		.loc 1 345 0
 957 0008 40F20000 		movw	r0, #:lower16:sem1
 958 000c C0F20000 		movt	r0, #:upper16:sem1
 959 0010 FFF7FEFF 		bl	chSemWait
 960              	.L22:
 961              		.loc 1 344 0 discriminator 1
 962 0014 40F20003 		movw	r3, #:lower16:rlist
 963 0018 C0F20003 		movt	r3, #:upper16:rlist
 964 001c 9B69     		ldr	r3, [r3, #24]
 965 001e 93F82130 		ldrb	r3, [r3, #33]	@ zero_extendqisi2
 966 0022 03F00403 		and	r3, r3, #4
 967 0026 002B     		cmp	r3, #0
 968 0028 EED0     		beq	.L23
 969              		.loc 1 346 0
 970 002a 4FF00003 		mov	r3, #0
 971              		.loc 1 347 0
 972 002e 1846     		mov	r0, r3
 973 0030 03B0     		add	sp, sp, #12
 974 0032 00BD     		pop	{pc}
 975              		.cfi_endproc
 976              	.LFE17:
 977              		.size	thread3, .-thread3
 978 0034 AFF30080 		.section	.text.bmk7_setup,"ax",%progbits
ARM GAS  /tmp/cciE3hUa.s 			page 19


 978      AFF30080 
 978      AFF30080 
 979              		.align	2
 980              		.p2align 4,,15
 981              		.thumb
 982              		.thumb_func
 983              		.type	bmk7_setup, %function
 984              	bmk7_setup:
 985              	.LFB18:
 986              		.loc 1 349 0
 987              		.cfi_startproc
 988              		@ args = 0, pretend = 0, frame = 0
 989              		@ frame_needed = 0, uses_anonymous_args = 0
 990 0000 08B5     		push	{r3, lr}
 991              	.LCFI21:
 992              		.cfi_def_cfa_offset 8
 993              		.cfi_offset 3, -8
 994              		.cfi_offset 14, -4
 995              		.loc 1 351 0
 996 0002 40F20000 		movw	r0, #:lower16:sem1
 997 0006 C0F20000 		movt	r0, #:upper16:sem1
 998 000a 4FF00001 		mov	r1, #0
 999 000e FFF7FEFF 		bl	chSemInit
 1000              		.loc 1 352 0
 1001 0012 08BD     		pop	{r3, pc}
 1002              		.cfi_endproc
 1003              	.LFE18:
 1004              		.size	bmk7_setup, .-bmk7_setup
 1005 0014 AFF30080 		.section	.rodata
 1005      AFF30080 
 1005      AFF30080 
 1006              		.align	2
 1007              	.LC10:
 1008 00d8 20726573 		.ascii	" reschedules/S, \000"
 1008      63686564 
 1008      756C6573 
 1008      2F532C20 
 1008      00
 1009              		.section	.text.bmk7_execute,"ax",%progbits
 1010              		.align	2
 1011              		.p2align 4,,15
 1012              		.thumb
 1013              		.thumb_func
 1014              		.type	bmk7_execute, %function
 1015              	bmk7_execute:
 1016              	.LFB19:
 1017              		.loc 1 354 0
 1018              		.cfi_startproc
 1019              		@ args = 0, pretend = 0, frame = 8
 1020              		@ frame_needed = 0, uses_anonymous_args = 0
 1021 0000 00B5     		push	{lr}
 1022              	.LCFI22:
 1023              		.cfi_def_cfa_offset 4
 1024              		.cfi_offset 14, -4
 1025 0002 85B0     		sub	sp, sp, #20
 1026              	.LCFI23:
 1027              		.cfi_def_cfa_offset 24
ARM GAS  /tmp/cciE3hUa.s 			page 20


 1028              		.loc 1 357 0
 1029 0004 40F20003 		movw	r3, #:lower16:wa
 1030 0008 C0F20003 		movt	r3, #:upper16:wa
 1031 000c 1A68     		ldr	r2, [r3, #0]
 1032 000e 40F20003 		movw	r3, #:lower16:rlist
 1033 0012 C0F20003 		movt	r3, #:upper16:rlist
 1034 0016 9B69     		ldr	r3, [r3, #24]
 1035 0018 9B68     		ldr	r3, [r3, #8]
 1036 001a 03F10503 		add	r3, r3, #5
 1037 001e 4FF00001 		mov	r1, #0
 1038 0022 0091     		str	r1, [sp, #0]
 1039 0024 1046     		mov	r0, r2
 1040 0026 4FF49871 		mov	r1, #304
 1041 002a 1A46     		mov	r2, r3
 1042 002c 40F20003 		movw	r3, #:lower16:thread3
 1043 0030 C0F20003 		movt	r3, #:upper16:thread3
 1044 0034 FFF7FEFF 		bl	chThdCreateStatic
 1045 0038 0246     		mov	r2, r0
 1046 003a 40F20003 		movw	r3, #:lower16:threads
 1047 003e C0F20003 		movt	r3, #:upper16:threads
 1048 0042 1A60     		str	r2, [r3, #0]
 1049              		.loc 1 358 0
 1050 0044 40F20003 		movw	r3, #:lower16:wa
 1051 0048 C0F20003 		movt	r3, #:upper16:wa
 1052 004c 5A68     		ldr	r2, [r3, #4]
 1053 004e 40F20003 		movw	r3, #:lower16:rlist
 1054 0052 C0F20003 		movt	r3, #:upper16:rlist
 1055 0056 9B69     		ldr	r3, [r3, #24]
 1056 0058 9B68     		ldr	r3, [r3, #8]
 1057 005a 03F10403 		add	r3, r3, #4
 1058 005e 4FF00001 		mov	r1, #0
 1059 0062 0091     		str	r1, [sp, #0]
 1060 0064 1046     		mov	r0, r2
 1061 0066 4FF49871 		mov	r1, #304
 1062 006a 1A46     		mov	r2, r3
 1063 006c 40F20003 		movw	r3, #:lower16:thread3
 1064 0070 C0F20003 		movt	r3, #:upper16:thread3
 1065 0074 FFF7FEFF 		bl	chThdCreateStatic
 1066 0078 0246     		mov	r2, r0
 1067 007a 40F20003 		movw	r3, #:lower16:threads
 1068 007e C0F20003 		movt	r3, #:upper16:threads
 1069 0082 5A60     		str	r2, [r3, #4]
 1070              		.loc 1 359 0
 1071 0084 40F20003 		movw	r3, #:lower16:wa
 1072 0088 C0F20003 		movt	r3, #:upper16:wa
 1073 008c 9A68     		ldr	r2, [r3, #8]
 1074 008e 40F20003 		movw	r3, #:lower16:rlist
 1075 0092 C0F20003 		movt	r3, #:upper16:rlist
 1076 0096 9B69     		ldr	r3, [r3, #24]
 1077 0098 9B68     		ldr	r3, [r3, #8]
 1078 009a 03F10303 		add	r3, r3, #3
 1079 009e 4FF00001 		mov	r1, #0
 1080 00a2 0091     		str	r1, [sp, #0]
 1081 00a4 1046     		mov	r0, r2
 1082 00a6 4FF49871 		mov	r1, #304
 1083 00aa 1A46     		mov	r2, r3
 1084 00ac 40F20003 		movw	r3, #:lower16:thread3
ARM GAS  /tmp/cciE3hUa.s 			page 21


 1085 00b0 C0F20003 		movt	r3, #:upper16:thread3
 1086 00b4 FFF7FEFF 		bl	chThdCreateStatic
 1087 00b8 0246     		mov	r2, r0
 1088 00ba 40F20003 		movw	r3, #:lower16:threads
 1089 00be C0F20003 		movt	r3, #:upper16:threads
 1090 00c2 9A60     		str	r2, [r3, #8]
 1091              		.loc 1 360 0
 1092 00c4 40F20003 		movw	r3, #:lower16:wa
 1093 00c8 C0F20003 		movt	r3, #:upper16:wa
 1094 00cc DA68     		ldr	r2, [r3, #12]
 1095 00ce 40F20003 		movw	r3, #:lower16:rlist
 1096 00d2 C0F20003 		movt	r3, #:upper16:rlist
 1097 00d6 9B69     		ldr	r3, [r3, #24]
 1098 00d8 9B68     		ldr	r3, [r3, #8]
 1099 00da 03F10203 		add	r3, r3, #2
 1100 00de 4FF00001 		mov	r1, #0
 1101 00e2 0091     		str	r1, [sp, #0]
 1102 00e4 1046     		mov	r0, r2
 1103 00e6 4FF49871 		mov	r1, #304
 1104 00ea 1A46     		mov	r2, r3
 1105 00ec 40F20003 		movw	r3, #:lower16:thread3
 1106 00f0 C0F20003 		movt	r3, #:upper16:thread3
 1107 00f4 FFF7FEFF 		bl	chThdCreateStatic
 1108 00f8 0246     		mov	r2, r0
 1109 00fa 40F20003 		movw	r3, #:lower16:threads
 1110 00fe C0F20003 		movt	r3, #:upper16:threads
 1111 0102 DA60     		str	r2, [r3, #12]
 1112              		.loc 1 361 0
 1113 0104 40F20003 		movw	r3, #:lower16:wa
 1114 0108 C0F20003 		movt	r3, #:upper16:wa
 1115 010c 1A69     		ldr	r2, [r3, #16]
 1116 010e 40F20003 		movw	r3, #:lower16:rlist
 1117 0112 C0F20003 		movt	r3, #:upper16:rlist
 1118 0116 9B69     		ldr	r3, [r3, #24]
 1119 0118 9B68     		ldr	r3, [r3, #8]
 1120 011a 03F10103 		add	r3, r3, #1
 1121 011e 4FF00001 		mov	r1, #0
 1122 0122 0091     		str	r1, [sp, #0]
 1123 0124 1046     		mov	r0, r2
 1124 0126 4FF49871 		mov	r1, #304
 1125 012a 1A46     		mov	r2, r3
 1126 012c 40F20003 		movw	r3, #:lower16:thread3
 1127 0130 C0F20003 		movt	r3, #:upper16:thread3
 1128 0134 FFF7FEFF 		bl	chThdCreateStatic
 1129 0138 0246     		mov	r2, r0
 1130 013a 40F20003 		movw	r3, #:lower16:threads
 1131 013e C0F20003 		movt	r3, #:upper16:threads
 1132 0142 1A61     		str	r2, [r3, #16]
 1133              		.loc 1 363 0
 1134 0144 4FF00003 		mov	r3, #0
 1135 0148 0393     		str	r3, [sp, #12]
 1136              		.loc 1 364 0
 1137 014a FFF7FEFF 		bl	test_wait_tick
 1138              		.loc 1 365 0
 1139 014e 4FF47A70 		mov	r0, #1000
 1140 0152 FFF7FEFF 		bl	test_start_timer
 1141              	.L27:
ARM GAS  /tmp/cciE3hUa.s 			page 22


 1142              		.loc 1 367 0 discriminator 1
 1143 0156 40F20000 		movw	r0, #:lower16:sem1
 1144 015a C0F20000 		movt	r0, #:upper16:sem1
 1145 015e 4FF00001 		mov	r1, #0
 1146 0162 FFF7FEFF 		bl	chSemReset
 1147              		.loc 1 368 0 discriminator 1
 1148 0166 039B     		ldr	r3, [sp, #12]
 1149 0168 03F10103 		add	r3, r3, #1
 1150 016c 0393     		str	r3, [sp, #12]
 1151              		.loc 1 372 0 discriminator 1
 1152 016e 40F20003 		movw	r3, #:lower16:test_timer_done
 1153 0172 C0F20003 		movt	r3, #:upper16:test_timer_done
 1154 0176 1B78     		ldrb	r3, [r3, #0]	@ zero_extendqisi2
 1155 0178 83F00103 		eor	r3, r3, #1
 1156 017c DBB2     		uxtb	r3, r3
 1157 017e 002B     		cmp	r3, #0
 1158 0180 E9D1     		bne	.L27
 1159              		.loc 1 373 0
 1160 0182 FFF7FEFF 		bl	test_terminate_threads
 1161              		.loc 1 374 0
 1162 0186 40F20000 		movw	r0, #:lower16:sem1
 1163 018a C0F20000 		movt	r0, #:upper16:sem1
 1164 018e 4FF00001 		mov	r1, #0
 1165 0192 FFF7FEFF 		bl	chSemReset
 1166              		.loc 1 375 0
 1167 0196 FFF7FEFF 		bl	test_wait_threads
 1168              		.loc 1 377 0
 1169 019a 40F20000 		movw	r0, #:lower16:.LC0
 1170 019e C0F20000 		movt	r0, #:upper16:.LC0
 1171 01a2 FFF7FEFF 		bl	test_print
 1172              		.loc 1 378 0
 1173 01a6 0398     		ldr	r0, [sp, #12]
 1174 01a8 FFF7FEFF 		bl	test_printn
 1175              		.loc 1 379 0
 1176 01ac 40F20000 		movw	r0, #:lower16:.LC10
 1177 01b0 C0F20000 		movt	r0, #:upper16:.LC10
 1178 01b4 FFF7FEFF 		bl	test_print
 1179              		.loc 1 380 0
 1180 01b8 039A     		ldr	r2, [sp, #12]
 1181 01ba 1346     		mov	r3, r2
 1182 01bc 4FEA4303 		lsl	r3, r3, #1
 1183 01c0 9B18     		adds	r3, r3, r2
 1184 01c2 4FEA4303 		lsl	r3, r3, #1
 1185 01c6 1846     		mov	r0, r3
 1186 01c8 FFF7FEFF 		bl	test_printn
 1187              		.loc 1 381 0
 1188 01cc 40F20000 		movw	r0, #:lower16:.LC2
 1189 01d0 C0F20000 		movt	r0, #:upper16:.LC2
 1190 01d4 FFF7FEFF 		bl	test_println
 1191              		.loc 1 382 0
 1192 01d8 05B0     		add	sp, sp, #20
 1193 01da 00BD     		pop	{pc}
 1194              		.cfi_endproc
 1195              	.LFE19:
 1196              		.size	bmk7_execute, .-bmk7_execute
 1197              		.global	testbmk7
 1198 01dc AFF30080 		.section	.rodata
ARM GAS  /tmp/cciE3hUa.s 			page 23


 1199 00e9 000000   		.align	2
 1200              	.LC11:
 1201 00ec 42656E63 		.ascii	"Benchmark, mass reschedule, 5 threads\000"
 1201      686D6172 
 1201      6B2C206D 
 1201      61737320 
 1201      72657363 
 1202              		.section	.rodata.testbmk7,"a",%progbits
 1203              		.align	2
 1204              		.type	testbmk7, %object
 1205              		.size	testbmk7, 16
 1206              	testbmk7:
 1207 0000 EC000000 		.word	.LC11
 1208 0004 00000000 		.word	bmk7_setup
 1209 0008 00000000 		.word	0
 1210 000c 00000000 		.word	bmk7_execute
 1211              		.section	.text.thread8,"ax",%progbits
 1212              		.align	2
 1213              		.p2align 4,,15
 1214              		.thumb
 1215              		.thumb_func
 1216              		.type	thread8, %function
 1217              	thread8:
 1218              	.LFB20:
 1219              		.loc 1 401 0
 1220              		.cfi_startproc
 1221              		@ args = 0, pretend = 0, frame = 8
 1222              		@ frame_needed = 0, uses_anonymous_args = 0
 1223 0000 00B5     		push	{lr}
 1224              	.LCFI24:
 1225              		.cfi_def_cfa_offset 4
 1226              		.cfi_offset 14, -4
 1227 0002 83B0     		sub	sp, sp, #12
 1228              	.LCFI25:
 1229              		.cfi_def_cfa_offset 16
 1230 0004 0190     		str	r0, [sp, #4]
 1231              	.L29:
 1232              		.loc 1 404 0 discriminator 1
 1233 0006 FFF7FEFF 		bl	chThdYield
 1234              		.loc 1 405 0 discriminator 1
 1235 000a FFF7FEFF 		bl	chThdYield
 1236              		.loc 1 406 0 discriminator 1
 1237 000e FFF7FEFF 		bl	chThdYield
 1238              		.loc 1 407 0 discriminator 1
 1239 0012 FFF7FEFF 		bl	chThdYield
 1240              		.loc 1 408 0 discriminator 1
 1241 0016 019B     		ldr	r3, [sp, #4]
 1242 0018 1B68     		ldr	r3, [r3, #0]
 1243 001a 03F10402 		add	r2, r3, #4
 1244 001e 019B     		ldr	r3, [sp, #4]
 1245 0020 1A60     		str	r2, [r3, #0]
 1246              		.loc 1 412 0 discriminator 1
 1247 0022 40F20003 		movw	r3, #:lower16:rlist
 1248 0026 C0F20003 		movt	r3, #:upper16:rlist
 1249 002a 9B69     		ldr	r3, [r3, #24]
 1250 002c 93F82130 		ldrb	r3, [r3, #33]	@ zero_extendqisi2
 1251 0030 03F00403 		and	r3, r3, #4
ARM GAS  /tmp/cciE3hUa.s 			page 24


 1252 0034 002B     		cmp	r3, #0
 1253 0036 E6D0     		beq	.L29
 1254              		.loc 1 413 0
 1255 0038 4FF00003 		mov	r3, #0
 1256              		.loc 1 414 0
 1257 003c 1846     		mov	r0, r3
 1258 003e 03B0     		add	sp, sp, #12
 1259 0040 00BD     		pop	{pc}
 1260              		.cfi_endproc
 1261              	.LFE20:
 1262              		.size	thread8, .-thread8
 1263 0042 00BFAFF3 		.section	.text.bmk8_execute,"ax",%progbits
 1263      0080AFF3 
 1263      0080AFF3 
 1263      0080
 1264              		.align	2
 1265              		.p2align 4,,15
 1266              		.thumb
 1267              		.thumb_func
 1268              		.type	bmk8_execute, %function
 1269              	bmk8_execute:
 1270              	.LFB21:
 1271              		.loc 1 416 0
 1272              		.cfi_startproc
 1273              		@ args = 0, pretend = 0, frame = 8
 1274              		@ frame_needed = 0, uses_anonymous_args = 0
 1275 0000 00B5     		push	{lr}
 1276              	.LCFI26:
 1277              		.cfi_def_cfa_offset 4
 1278              		.cfi_offset 14, -4
 1279 0002 85B0     		sub	sp, sp, #20
 1280              	.LCFI27:
 1281              		.cfi_def_cfa_offset 24
 1282              		.loc 1 419 0
 1283 0004 4FF00003 		mov	r3, #0
 1284 0008 0393     		str	r3, [sp, #12]
 1285              		.loc 1 420 0
 1286 000a FFF7FEFF 		bl	test_wait_tick
 1287              		.loc 1 422 0
 1288 000e 40F20003 		movw	r3, #:lower16:wa
 1289 0012 C0F20003 		movt	r3, #:upper16:wa
 1290 0016 1A68     		ldr	r2, [r3, #0]
 1291 0018 40F20003 		movw	r3, #:lower16:rlist
 1292 001c C0F20003 		movt	r3, #:upper16:rlist
 1293 0020 9B69     		ldr	r3, [r3, #24]
 1294 0022 9B68     		ldr	r3, [r3, #8]
 1295 0024 03F1FF33 		add	r3, r3, #-1
 1296 0028 03A9     		add	r1, sp, #12
 1297 002a 0091     		str	r1, [sp, #0]
 1298 002c 1046     		mov	r0, r2
 1299 002e 4FF49871 		mov	r1, #304
 1300 0032 1A46     		mov	r2, r3
 1301 0034 40F20003 		movw	r3, #:lower16:thread8
 1302 0038 C0F20003 		movt	r3, #:upper16:thread8
 1303 003c FFF7FEFF 		bl	chThdCreateStatic
 1304 0040 0246     		mov	r2, r0
 1305 0042 40F20003 		movw	r3, #:lower16:threads
ARM GAS  /tmp/cciE3hUa.s 			page 25


 1306 0046 C0F20003 		movt	r3, #:upper16:threads
 1307 004a 1A60     		str	r2, [r3, #0]
 1308              		.loc 1 423 0
 1309 004c 40F20003 		movw	r3, #:lower16:wa
 1310 0050 C0F20003 		movt	r3, #:upper16:wa
 1311 0054 5A68     		ldr	r2, [r3, #4]
 1312 0056 40F20003 		movw	r3, #:lower16:rlist
 1313 005a C0F20003 		movt	r3, #:upper16:rlist
 1314 005e 9B69     		ldr	r3, [r3, #24]
 1315 0060 9B68     		ldr	r3, [r3, #8]
 1316 0062 03F1FF33 		add	r3, r3, #-1
 1317 0066 03A9     		add	r1, sp, #12
 1318 0068 0091     		str	r1, [sp, #0]
 1319 006a 1046     		mov	r0, r2
 1320 006c 4FF49871 		mov	r1, #304
 1321 0070 1A46     		mov	r2, r3
 1322 0072 40F20003 		movw	r3, #:lower16:thread8
 1323 0076 C0F20003 		movt	r3, #:upper16:thread8
 1324 007a FFF7FEFF 		bl	chThdCreateStatic
 1325 007e 0246     		mov	r2, r0
 1326 0080 40F20003 		movw	r3, #:lower16:threads
 1327 0084 C0F20003 		movt	r3, #:upper16:threads
 1328 0088 5A60     		str	r2, [r3, #4]
 1329              		.loc 1 424 0
 1330 008a 40F20003 		movw	r3, #:lower16:wa
 1331 008e C0F20003 		movt	r3, #:upper16:wa
 1332 0092 9A68     		ldr	r2, [r3, #8]
 1333 0094 40F20003 		movw	r3, #:lower16:rlist
 1334 0098 C0F20003 		movt	r3, #:upper16:rlist
 1335 009c 9B69     		ldr	r3, [r3, #24]
 1336 009e 9B68     		ldr	r3, [r3, #8]
 1337 00a0 03F1FF33 		add	r3, r3, #-1
 1338 00a4 03A9     		add	r1, sp, #12
 1339 00a6 0091     		str	r1, [sp, #0]
 1340 00a8 1046     		mov	r0, r2
 1341 00aa 4FF49871 		mov	r1, #304
 1342 00ae 1A46     		mov	r2, r3
 1343 00b0 40F20003 		movw	r3, #:lower16:thread8
 1344 00b4 C0F20003 		movt	r3, #:upper16:thread8
 1345 00b8 FFF7FEFF 		bl	chThdCreateStatic
 1346 00bc 0246     		mov	r2, r0
 1347 00be 40F20003 		movw	r3, #:lower16:threads
 1348 00c2 C0F20003 		movt	r3, #:upper16:threads
 1349 00c6 9A60     		str	r2, [r3, #8]
 1350              		.loc 1 425 0
 1351 00c8 40F20003 		movw	r3, #:lower16:wa
 1352 00cc C0F20003 		movt	r3, #:upper16:wa
 1353 00d0 DA68     		ldr	r2, [r3, #12]
 1354 00d2 40F20003 		movw	r3, #:lower16:rlist
 1355 00d6 C0F20003 		movt	r3, #:upper16:rlist
 1356 00da 9B69     		ldr	r3, [r3, #24]
 1357 00dc 9B68     		ldr	r3, [r3, #8]
 1358 00de 03F1FF33 		add	r3, r3, #-1
 1359 00e2 03A9     		add	r1, sp, #12
 1360 00e4 0091     		str	r1, [sp, #0]
 1361 00e6 1046     		mov	r0, r2
 1362 00e8 4FF49871 		mov	r1, #304
ARM GAS  /tmp/cciE3hUa.s 			page 26


 1363 00ec 1A46     		mov	r2, r3
 1364 00ee 40F20003 		movw	r3, #:lower16:thread8
 1365 00f2 C0F20003 		movt	r3, #:upper16:thread8
 1366 00f6 FFF7FEFF 		bl	chThdCreateStatic
 1367 00fa 0246     		mov	r2, r0
 1368 00fc 40F20003 		movw	r3, #:lower16:threads
 1369 0100 C0F20003 		movt	r3, #:upper16:threads
 1370 0104 DA60     		str	r2, [r3, #12]
 1371              		.loc 1 426 0
 1372 0106 40F20003 		movw	r3, #:lower16:wa
 1373 010a C0F20003 		movt	r3, #:upper16:wa
 1374 010e 1A69     		ldr	r2, [r3, #16]
 1375 0110 40F20003 		movw	r3, #:lower16:rlist
 1376 0114 C0F20003 		movt	r3, #:upper16:rlist
 1377 0118 9B69     		ldr	r3, [r3, #24]
 1378 011a 9B68     		ldr	r3, [r3, #8]
 1379 011c 03F1FF33 		add	r3, r3, #-1
 1380 0120 03A9     		add	r1, sp, #12
 1381 0122 0091     		str	r1, [sp, #0]
 1382 0124 1046     		mov	r0, r2
 1383 0126 4FF49871 		mov	r1, #304
 1384 012a 1A46     		mov	r2, r3
 1385 012c 40F20003 		movw	r3, #:lower16:thread8
 1386 0130 C0F20003 		movt	r3, #:upper16:thread8
 1387 0134 FFF7FEFF 		bl	chThdCreateStatic
 1388 0138 0246     		mov	r2, r0
 1389 013a 40F20003 		movw	r3, #:lower16:threads
 1390 013e C0F20003 		movt	r3, #:upper16:threads
 1391 0142 1A61     		str	r2, [r3, #16]
 1392              		.loc 1 428 0
 1393 0144 4FF47A70 		mov	r0, #1000
 1394 0148 FFF7FEFF 		bl	chThdSleep
 1395              		.loc 1 429 0
 1396 014c FFF7FEFF 		bl	test_terminate_threads
 1397              		.loc 1 430 0
 1398 0150 FFF7FEFF 		bl	test_wait_threads
 1399              		.loc 1 432 0
 1400 0154 40F20000 		movw	r0, #:lower16:.LC0
 1401 0158 C0F20000 		movt	r0, #:upper16:.LC0
 1402 015c FFF7FEFF 		bl	test_print
 1403              		.loc 1 433 0
 1404 0160 039B     		ldr	r3, [sp, #12]
 1405 0162 1846     		mov	r0, r3
 1406 0164 FFF7FEFF 		bl	test_printn
 1407              		.loc 1 434 0
 1408 0168 40F20000 		movw	r0, #:lower16:.LC2
 1409 016c C0F20000 		movt	r0, #:upper16:.LC2
 1410 0170 FFF7FEFF 		bl	test_println
 1411              		.loc 1 435 0
 1412 0174 05B0     		add	sp, sp, #20
 1413 0176 00BD     		pop	{pc}
 1414              		.cfi_endproc
 1415              	.LFE21:
 1416              		.size	bmk8_execute, .-bmk8_execute
 1417              		.global	testbmk8
 1418 0178 AFF30080 		.section	.rodata
 1418      AFF30080 
ARM GAS  /tmp/cciE3hUa.s 			page 27


 1419 0112 0000     		.align	2
 1420              	.LC12:
 1421 0114 42656E63 		.ascii	"Benchmark, round robin context switching\000"
 1421      686D6172 
 1421      6B2C2072 
 1421      6F756E64 
 1421      20726F62 
 1422              		.section	.rodata.testbmk8,"a",%progbits
 1423              		.align	2
 1424              		.type	testbmk8, %object
 1425              		.size	testbmk8, 16
 1426              	testbmk8:
 1427 0000 14010000 		.word	.LC12
 1428 0004 00000000 		.word	0
 1429 0008 00000000 		.word	0
 1430 000c 00000000 		.word	bmk8_execute
 1431              		.section	.rodata
 1432 013d 000000   		.align	2
 1433              	.LC13:
 1434 0140 20627974 		.ascii	" bytes/S\000"
 1434      65732F53 
 1434      00
 1435              		.section	.text.bmk9_execute,"ax",%progbits
 1436              		.align	2
 1437              		.p2align 4,,15
 1438              		.thumb
 1439              		.thumb_func
 1440              		.type	bmk9_execute, %function
 1441              	bmk9_execute:
 1442              	.LFB22:
 1443              		.loc 1 455 0
 1444              		.cfi_startproc
 1445              		@ args = 0, pretend = 0, frame = 8
 1446              		@ frame_needed = 0, uses_anonymous_args = 0
 1447 0000 00B5     		push	{lr}
 1448              	.LCFI28:
 1449              		.cfi_def_cfa_offset 4
 1450              		.cfi_offset 14, -4
 1451 0002 85B0     		sub	sp, sp, #20
 1452              	.LCFI29:
 1453              		.cfi_def_cfa_offset 24
 1454              		.loc 1 460 0
 1455 0004 4FF00003 		mov	r3, #0
 1456 0008 0093     		str	r3, [sp, #0]
 1457 000a 40F20000 		movw	r0, #:lower16:iq.4972
 1458 000e C0F20000 		movt	r0, #:upper16:iq.4972
 1459 0012 40F20001 		movw	r1, #:lower16:ib.4971
 1460 0016 C0F20001 		movt	r1, #:upper16:ib.4971
 1461 001a 4FF01002 		mov	r2, #16
 1462 001e 4FF00003 		mov	r3, #0
 1463 0022 FFF7FEFF 		bl	chIQInit
 1464              		.loc 1 461 0
 1465 0026 4FF00003 		mov	r3, #0
 1466 002a 0393     		str	r3, [sp, #12]
 1467              		.loc 1 462 0
 1468 002c FFF7FEFF 		bl	test_wait_tick
 1469              		.loc 1 463 0
ARM GAS  /tmp/cciE3hUa.s 			page 28


 1470 0030 4FF47A70 		mov	r0, #1000
 1471 0034 FFF7FEFF 		bl	test_start_timer
 1472              	.L33:
 1473              	.LBB8:
 1474              		.loc 1 465 0 discriminator 1
 1475 0038 4FF02003 		mov	r3, #32
 1476              	@ 465 "../../test/testbmk.c" 1
 1477 003c 83F31188 		msr     BASEPRI, r3
 1478              	@ 0 "" 2
 1479              		.thumb
 1480              	.LBE8:
 1481 0040 FFF7FEFF 		bl	dbg_check_lock
 1482              		.loc 1 466 0 discriminator 1
 1483 0044 40F20000 		movw	r0, #:lower16:iq.4972
 1484 0048 C0F20000 		movt	r0, #:upper16:iq.4972
 1485 004c 4FF00001 		mov	r1, #0
 1486 0050 FFF7FEFF 		bl	chIQPutI
 1487              		.loc 1 467 0 discriminator 1
 1488 0054 40F20000 		movw	r0, #:lower16:iq.4972
 1489 0058 C0F20000 		movt	r0, #:upper16:iq.4972
 1490 005c 4FF00101 		mov	r1, #1
 1491 0060 FFF7FEFF 		bl	chIQPutI
 1492              		.loc 1 468 0 discriminator 1
 1493 0064 40F20000 		movw	r0, #:lower16:iq.4972
 1494 0068 C0F20000 		movt	r0, #:upper16:iq.4972
 1495 006c 4FF00201 		mov	r1, #2
 1496 0070 FFF7FEFF 		bl	chIQPutI
 1497              		.loc 1 469 0 discriminator 1
 1498 0074 40F20000 		movw	r0, #:lower16:iq.4972
 1499 0078 C0F20000 		movt	r0, #:upper16:iq.4972
 1500 007c 4FF00301 		mov	r1, #3
 1501 0080 FFF7FEFF 		bl	chIQPutI
 1502              		.loc 1 470 0 discriminator 1
 1503 0084 FFF7FEFF 		bl	dbg_check_unlock
 1504              	.LBB9:
 1505 0088 4FF00003 		mov	r3, #0
 1506              	@ 470 "../../test/testbmk.c" 1
 1507 008c 83F31188 		msr     BASEPRI, r3
 1508              	@ 0 "" 2
 1509              		.thumb
 1510              	.LBE9:
 1511              		.loc 1 471 0 discriminator 1
 1512 0090 40F20000 		movw	r0, #:lower16:iq.4972
 1513 0094 C0F20000 		movt	r0, #:upper16:iq.4972
 1514 0098 4FF0FF31 		mov	r1, #-1
 1515 009c FFF7FEFF 		bl	chIQGetTimeout
 1516              		.loc 1 472 0 discriminator 1
 1517 00a0 40F20000 		movw	r0, #:lower16:iq.4972
 1518 00a4 C0F20000 		movt	r0, #:upper16:iq.4972
 1519 00a8 4FF0FF31 		mov	r1, #-1
 1520 00ac FFF7FEFF 		bl	chIQGetTimeout
 1521              		.loc 1 473 0 discriminator 1
 1522 00b0 40F20000 		movw	r0, #:lower16:iq.4972
 1523 00b4 C0F20000 		movt	r0, #:upper16:iq.4972
 1524 00b8 4FF0FF31 		mov	r1, #-1
 1525 00bc FFF7FEFF 		bl	chIQGetTimeout
 1526              		.loc 1 474 0 discriminator 1
ARM GAS  /tmp/cciE3hUa.s 			page 29


 1527 00c0 40F20000 		movw	r0, #:lower16:iq.4972
 1528 00c4 C0F20000 		movt	r0, #:upper16:iq.4972
 1529 00c8 4FF0FF31 		mov	r1, #-1
 1530 00cc FFF7FEFF 		bl	chIQGetTimeout
 1531              		.loc 1 475 0 discriminator 1
 1532 00d0 039B     		ldr	r3, [sp, #12]
 1533 00d2 03F10103 		add	r3, r3, #1
 1534 00d6 0393     		str	r3, [sp, #12]
 1535              		.loc 1 479 0 discriminator 1
 1536 00d8 40F20003 		movw	r3, #:lower16:test_timer_done
 1537 00dc C0F20003 		movt	r3, #:upper16:test_timer_done
 1538 00e0 1B78     		ldrb	r3, [r3, #0]	@ zero_extendqisi2
 1539 00e2 83F00103 		eor	r3, r3, #1
 1540 00e6 DBB2     		uxtb	r3, r3
 1541 00e8 002B     		cmp	r3, #0
 1542 00ea A5D1     		bne	.L33
 1543              		.loc 1 480 0
 1544 00ec 40F20000 		movw	r0, #:lower16:.LC0
 1545 00f0 C0F20000 		movt	r0, #:upper16:.LC0
 1546 00f4 FFF7FEFF 		bl	test_print
 1547              		.loc 1 481 0
 1548 00f8 039B     		ldr	r3, [sp, #12]
 1549 00fa 4FEA8303 		lsl	r3, r3, #2
 1550 00fe 1846     		mov	r0, r3
 1551 0100 FFF7FEFF 		bl	test_printn
 1552              		.loc 1 482 0
 1553 0104 40F20000 		movw	r0, #:lower16:.LC13
 1554 0108 C0F20000 		movt	r0, #:upper16:.LC13
 1555 010c FFF7FEFF 		bl	test_println
 1556              		.loc 1 483 0
 1557 0110 05B0     		add	sp, sp, #20
 1558 0112 00BD     		pop	{pc}
 1559              		.cfi_endproc
 1560              	.LFE22:
 1561              		.size	bmk9_execute, .-bmk9_execute
 1562              		.global	testbmk9
 1563 0114 AFF30080 		.section	.rodata
 1563      AFF30080 
 1563      AFF30080 
 1564 0149 000000   		.align	2
 1565              	.LC14:
 1566 014c 42656E63 		.ascii	"Benchmark, I/O Queues throughput\000"
 1566      686D6172 
 1566      6B2C2049 
 1566      2F4F2051 
 1566      75657565 
 1567              		.section	.rodata.testbmk9,"a",%progbits
 1568              		.align	2
 1569              		.type	testbmk9, %object
 1570              		.size	testbmk9, 16
 1571              	testbmk9:
 1572 0000 4C010000 		.word	.LC14
 1573 0004 00000000 		.word	0
 1574 0008 00000000 		.word	0
 1575 000c 00000000 		.word	bmk9_execute
 1576              		.section	.text.tmo,"ax",%progbits
 1577              		.align	2
ARM GAS  /tmp/cciE3hUa.s 			page 30


 1578              		.p2align 4,,15
 1579              		.thumb
 1580              		.thumb_func
 1581              		.type	tmo, %function
 1582              	tmo:
 1583              	.LFB23:
 1584              		.loc 1 502 0
 1585              		.cfi_startproc
 1586              		@ args = 0, pretend = 0, frame = 8
 1587              		@ frame_needed = 0, uses_anonymous_args = 0
 1588              		@ link register save eliminated.
 1589 0000 82B0     		sub	sp, sp, #8
 1590              	.LCFI30:
 1591              		.cfi_def_cfa_offset 8
 1592 0002 0190     		str	r0, [sp, #4]
 1593              		.loc 1 502 0
 1594 0004 02B0     		add	sp, sp, #8
 1595 0006 7047     		bx	lr
 1596              		.cfi_endproc
 1597              	.LFE23:
 1598              		.size	tmo, .-tmo
 1599 0008 AFF30080 		.section	.rodata
 1599      AFF30080 
 1600 016d 000000   		.align	2
 1601              	.LC15:
 1602 0170 2074696D 		.ascii	" timers/S\000"
 1602      6572732F 
 1602      5300
 1603              		.section	.text.bmk10_execute,"ax",%progbits
 1604              		.align	2
 1605              		.p2align 4,,15
 1606              		.thumb
 1607              		.thumb_func
 1608              		.type	bmk10_execute, %function
 1609              	bmk10_execute:
 1610              	.LFB24:
 1611              		.loc 1 504 0
 1612              		.cfi_startproc
 1613              		@ args = 0, pretend = 0, frame = 8
 1614              		@ frame_needed = 0, uses_anonymous_args = 0
 1615 0000 00B5     		push	{lr}
 1616              	.LCFI31:
 1617              		.cfi_def_cfa_offset 4
 1618              		.cfi_offset 14, -4
 1619 0002 83B0     		sub	sp, sp, #12
 1620              	.LCFI32:
 1621              		.cfi_def_cfa_offset 16
 1622              		.loc 1 506 0
 1623 0004 4FF00003 		mov	r3, #0
 1624 0008 0193     		str	r3, [sp, #4]
 1625              		.loc 1 508 0
 1626 000a FFF7FEFF 		bl	test_wait_tick
 1627              		.loc 1 509 0
 1628 000e 4FF47A70 		mov	r0, #1000
 1629 0012 FFF7FEFF 		bl	test_start_timer
 1630              	.L36:
 1631              	.LBB10:
ARM GAS  /tmp/cciE3hUa.s 			page 31


 1632              		.loc 1 511 0 discriminator 1
 1633 0016 4FF02003 		mov	r3, #32
 1634              	@ 511 "../../test/testbmk.c" 1
 1635 001a 83F31188 		msr     BASEPRI, r3
 1636              	@ 0 "" 2
 1637              		.thumb
 1638              	.LBE10:
 1639 001e FFF7FEFF 		bl	dbg_check_lock
 1640              		.loc 1 512 0 discriminator 1
 1641 0022 40F20000 		movw	r0, #:lower16:vt1.4984
 1642 0026 C0F20000 		movt	r0, #:upper16:vt1.4984
 1643 002a 4FF00101 		mov	r1, #1
 1644 002e 40F20002 		movw	r2, #:lower16:tmo
 1645 0032 C0F20002 		movt	r2, #:upper16:tmo
 1646 0036 4FF00003 		mov	r3, #0
 1647 003a FFF7FEFF 		bl	chVTSetI
 1648              		.loc 1 513 0 discriminator 1
 1649 003e 40F20000 		movw	r0, #:lower16:vt2.4985
 1650 0042 C0F20000 		movt	r0, #:upper16:vt2.4985
 1651 0046 42F21071 		movw	r1, #10000
 1652 004a 40F20002 		movw	r2, #:lower16:tmo
 1653 004e C0F20002 		movt	r2, #:upper16:tmo
 1654 0052 4FF00003 		mov	r3, #0
 1655 0056 FFF7FEFF 		bl	chVTSetI
 1656              		.loc 1 514 0 discriminator 1
 1657 005a 40F20000 		movw	r0, #:lower16:vt1.4984
 1658 005e C0F20000 		movt	r0, #:upper16:vt1.4984
 1659 0062 FFF7FEFF 		bl	chVTResetI
 1660              		.loc 1 515 0 discriminator 1
 1661 0066 40F20000 		movw	r0, #:lower16:vt2.4985
 1662 006a C0F20000 		movt	r0, #:upper16:vt2.4985
 1663 006e FFF7FEFF 		bl	chVTResetI
 1664              		.loc 1 516 0 discriminator 1
 1665 0072 FFF7FEFF 		bl	dbg_check_unlock
 1666              	.LBB11:
 1667 0076 4FF00003 		mov	r3, #0
 1668              	@ 516 "../../test/testbmk.c" 1
 1669 007a 83F31188 		msr     BASEPRI, r3
 1670              	@ 0 "" 2
 1671              		.thumb
 1672              	.LBE11:
 1673              		.loc 1 517 0 discriminator 1
 1674 007e 019B     		ldr	r3, [sp, #4]
 1675 0080 03F10103 		add	r3, r3, #1
 1676 0084 0193     		str	r3, [sp, #4]
 1677              		.loc 1 521 0 discriminator 1
 1678 0086 40F20003 		movw	r3, #:lower16:test_timer_done
 1679 008a C0F20003 		movt	r3, #:upper16:test_timer_done
 1680 008e 1B78     		ldrb	r3, [r3, #0]	@ zero_extendqisi2
 1681 0090 83F00103 		eor	r3, r3, #1
 1682 0094 DBB2     		uxtb	r3, r3
 1683 0096 002B     		cmp	r3, #0
 1684 0098 BDD1     		bne	.L36
 1685              		.loc 1 522 0
 1686 009a 40F20000 		movw	r0, #:lower16:.LC0
 1687 009e C0F20000 		movt	r0, #:upper16:.LC0
 1688 00a2 FFF7FEFF 		bl	test_print
ARM GAS  /tmp/cciE3hUa.s 			page 32


 1689              		.loc 1 523 0
 1690 00a6 019B     		ldr	r3, [sp, #4]
 1691 00a8 4FEA4303 		lsl	r3, r3, #1
 1692 00ac 1846     		mov	r0, r3
 1693 00ae FFF7FEFF 		bl	test_printn
 1694              		.loc 1 524 0
 1695 00b2 40F20000 		movw	r0, #:lower16:.LC15
 1696 00b6 C0F20000 		movt	r0, #:upper16:.LC15
 1697 00ba FFF7FEFF 		bl	test_println
 1698              		.loc 1 525 0
 1699 00be 03B0     		add	sp, sp, #12
 1700 00c0 00BD     		pop	{pc}
 1701              		.cfi_endproc
 1702              	.LFE24:
 1703              		.size	bmk10_execute, .-bmk10_execute
 1704              		.global	testbmk10
 1705 00c2 00BFAFF3 		.section	.rodata
 1705      0080AFF3 
 1705      0080AFF3 
 1705      0080
 1706 017a 0000     		.align	2
 1707              	.LC16:
 1708 017c 42656E63 		.ascii	"Benchmark, virtual timers set/reset\000"
 1708      686D6172 
 1708      6B2C2076 
 1708      69727475 
 1708      616C2074 
 1709              		.section	.rodata.testbmk10,"a",%progbits
 1710              		.align	2
 1711              		.type	testbmk10, %object
 1712              		.size	testbmk10, 16
 1713              	testbmk10:
 1714 0000 7C010000 		.word	.LC16
 1715 0004 00000000 		.word	0
 1716 0008 00000000 		.word	0
 1717 000c 00000000 		.word	bmk10_execute
 1718              		.section	.text.bmk11_setup,"ax",%progbits
 1719              		.align	2
 1720              		.p2align 4,,15
 1721              		.thumb
 1722              		.thumb_func
 1723              		.type	bmk11_setup, %function
 1724              	bmk11_setup:
 1725              	.LFB25:
 1726              		.loc 1 545 0
 1727              		.cfi_startproc
 1728              		@ args = 0, pretend = 0, frame = 0
 1729              		@ frame_needed = 0, uses_anonymous_args = 0
 1730 0000 08B5     		push	{r3, lr}
 1731              	.LCFI33:
 1732              		.cfi_def_cfa_offset 8
 1733              		.cfi_offset 3, -8
 1734              		.cfi_offset 14, -4
 1735              		.loc 1 547 0
 1736 0002 40F20000 		movw	r0, #:lower16:sem1
 1737 0006 C0F20000 		movt	r0, #:upper16:sem1
 1738 000a 4FF00101 		mov	r1, #1
ARM GAS  /tmp/cciE3hUa.s 			page 33


 1739 000e FFF7FEFF 		bl	chSemInit
 1740              		.loc 1 548 0
 1741 0012 08BD     		pop	{r3, pc}
 1742              		.cfi_endproc
 1743              	.LFE25:
 1744              		.size	bmk11_setup, .-bmk11_setup
 1745 0014 AFF30080 		.section	.rodata
 1745      AFF30080 
 1745      AFF30080 
 1746              		.align	2
 1747              	.LC17:
 1748 01a0 20776169 		.ascii	" wait+signal/S\000"
 1748      742B7369 
 1748      676E616C 
 1748      2F5300
 1749              		.section	.text.bmk11_execute,"ax",%progbits
 1750              		.align	2
 1751              		.p2align 4,,15
 1752              		.thumb
 1753              		.thumb_func
 1754              		.type	bmk11_execute, %function
 1755              	bmk11_execute:
 1756              	.LFB26:
 1757              		.loc 1 550 0
 1758              		.cfi_startproc
 1759              		@ args = 0, pretend = 0, frame = 8
 1760              		@ frame_needed = 0, uses_anonymous_args = 0
 1761 0000 00B5     		push	{lr}
 1762              	.LCFI34:
 1763              		.cfi_def_cfa_offset 4
 1764              		.cfi_offset 14, -4
 1765 0002 83B0     		sub	sp, sp, #12
 1766              	.LCFI35:
 1767              		.cfi_def_cfa_offset 16
 1768              		.loc 1 551 0
 1769 0004 4FF00003 		mov	r3, #0
 1770 0008 0193     		str	r3, [sp, #4]
 1771              		.loc 1 553 0
 1772 000a FFF7FEFF 		bl	test_wait_tick
 1773              		.loc 1 554 0
 1774 000e 4FF47A70 		mov	r0, #1000
 1775 0012 FFF7FEFF 		bl	test_start_timer
 1776              	.L39:
 1777              		.loc 1 556 0 discriminator 1
 1778 0016 40F20000 		movw	r0, #:lower16:sem1
 1779 001a C0F20000 		movt	r0, #:upper16:sem1
 1780 001e FFF7FEFF 		bl	chSemWait
 1781              		.loc 1 557 0 discriminator 1
 1782 0022 40F20000 		movw	r0, #:lower16:sem1
 1783 0026 C0F20000 		movt	r0, #:upper16:sem1
 1784 002a FFF7FEFF 		bl	chSemSignal
 1785              		.loc 1 558 0 discriminator 1
 1786 002e 40F20000 		movw	r0, #:lower16:sem1
 1787 0032 C0F20000 		movt	r0, #:upper16:sem1
 1788 0036 FFF7FEFF 		bl	chSemWait
 1789              		.loc 1 559 0 discriminator 1
 1790 003a 40F20000 		movw	r0, #:lower16:sem1
ARM GAS  /tmp/cciE3hUa.s 			page 34


 1791 003e C0F20000 		movt	r0, #:upper16:sem1
 1792 0042 FFF7FEFF 		bl	chSemSignal
 1793              		.loc 1 560 0 discriminator 1
 1794 0046 40F20000 		movw	r0, #:lower16:sem1
 1795 004a C0F20000 		movt	r0, #:upper16:sem1
 1796 004e FFF7FEFF 		bl	chSemWait
 1797              		.loc 1 561 0 discriminator 1
 1798 0052 40F20000 		movw	r0, #:lower16:sem1
 1799 0056 C0F20000 		movt	r0, #:upper16:sem1
 1800 005a FFF7FEFF 		bl	chSemSignal
 1801              		.loc 1 562 0 discriminator 1
 1802 005e 40F20000 		movw	r0, #:lower16:sem1
 1803 0062 C0F20000 		movt	r0, #:upper16:sem1
 1804 0066 FFF7FEFF 		bl	chSemWait
 1805              		.loc 1 563 0 discriminator 1
 1806 006a 40F20000 		movw	r0, #:lower16:sem1
 1807 006e C0F20000 		movt	r0, #:upper16:sem1
 1808 0072 FFF7FEFF 		bl	chSemSignal
 1809              		.loc 1 564 0 discriminator 1
 1810 0076 019B     		ldr	r3, [sp, #4]
 1811 0078 03F10103 		add	r3, r3, #1
 1812 007c 0193     		str	r3, [sp, #4]
 1813              		.loc 1 568 0 discriminator 1
 1814 007e 40F20003 		movw	r3, #:lower16:test_timer_done
 1815 0082 C0F20003 		movt	r3, #:upper16:test_timer_done
 1816 0086 1B78     		ldrb	r3, [r3, #0]	@ zero_extendqisi2
 1817 0088 83F00103 		eor	r3, r3, #1
 1818 008c DBB2     		uxtb	r3, r3
 1819 008e 002B     		cmp	r3, #0
 1820 0090 C1D1     		bne	.L39
 1821              		.loc 1 569 0
 1822 0092 40F20000 		movw	r0, #:lower16:.LC0
 1823 0096 C0F20000 		movt	r0, #:upper16:.LC0
 1824 009a FFF7FEFF 		bl	test_print
 1825              		.loc 1 570 0
 1826 009e 019B     		ldr	r3, [sp, #4]
 1827 00a0 4FEA8303 		lsl	r3, r3, #2
 1828 00a4 1846     		mov	r0, r3
 1829 00a6 FFF7FEFF 		bl	test_printn
 1830              		.loc 1 571 0
 1831 00aa 40F20000 		movw	r0, #:lower16:.LC17
 1832 00ae C0F20000 		movt	r0, #:upper16:.LC17
 1833 00b2 FFF7FEFF 		bl	test_println
 1834              		.loc 1 572 0
 1835 00b6 03B0     		add	sp, sp, #12
 1836 00b8 00BD     		pop	{pc}
 1837              		.cfi_endproc
 1838              	.LFE26:
 1839              		.size	bmk11_execute, .-bmk11_execute
 1840              		.global	testbmk11
 1841 00ba 00BFAFF3 		.section	.rodata
 1841      0080
 1842 01af 00       		.align	2
 1843              	.LC18:
 1844 01b0 42656E63 		.ascii	"Benchmark, semaphores wait/signal\000"
 1844      686D6172 
 1844      6B2C2073 
ARM GAS  /tmp/cciE3hUa.s 			page 35


 1844      656D6170 
 1844      686F7265 
 1845              		.section	.rodata.testbmk11,"a",%progbits
 1846              		.align	2
 1847              		.type	testbmk11, %object
 1848              		.size	testbmk11, 16
 1849              	testbmk11:
 1850 0000 B0010000 		.word	.LC18
 1851 0004 00000000 		.word	bmk11_setup
 1852 0008 00000000 		.word	0
 1853 000c 00000000 		.word	bmk11_execute
 1854              		.section	.text.bmk12_setup,"ax",%progbits
 1855              		.align	2
 1856              		.p2align 4,,15
 1857              		.thumb
 1858              		.thumb_func
 1859              		.type	bmk12_setup, %function
 1860              	bmk12_setup:
 1861              	.LFB27:
 1862              		.loc 1 593 0
 1863              		.cfi_startproc
 1864              		@ args = 0, pretend = 0, frame = 0
 1865              		@ frame_needed = 0, uses_anonymous_args = 0
 1866 0000 08B5     		push	{r3, lr}
 1867              	.LCFI36:
 1868              		.cfi_def_cfa_offset 8
 1869              		.cfi_offset 3, -8
 1870              		.cfi_offset 14, -4
 1871              		.loc 1 595 0
 1872 0002 40F20000 		movw	r0, #:lower16:mtx1
 1873 0006 C0F20000 		movt	r0, #:upper16:mtx1
 1874 000a FFF7FEFF 		bl	chMtxInit
 1875              		.loc 1 596 0
 1876 000e 08BD     		pop	{r3, pc}
 1877              		.cfi_endproc
 1878              	.LFE27:
 1879              		.size	bmk12_setup, .-bmk12_setup
 1880              		.section	.rodata
 1881 01d2 0000     		.align	2
 1882              	.LC19:
 1883 01d4 206C6F63 		.ascii	" lock+unlock/S\000"
 1883      6B2B756E 
 1883      6C6F636B 
 1883      2F5300
 1884              		.section	.text.bmk12_execute,"ax",%progbits
 1885              		.align	2
 1886              		.p2align 4,,15
 1887              		.thumb
 1888              		.thumb_func
 1889              		.type	bmk12_execute, %function
 1890              	bmk12_execute:
 1891              	.LFB28:
 1892              		.loc 1 598 0
 1893              		.cfi_startproc
 1894              		@ args = 0, pretend = 0, frame = 8
 1895              		@ frame_needed = 0, uses_anonymous_args = 0
 1896 0000 00B5     		push	{lr}
ARM GAS  /tmp/cciE3hUa.s 			page 36


 1897              	.LCFI37:
 1898              		.cfi_def_cfa_offset 4
 1899              		.cfi_offset 14, -4
 1900 0002 83B0     		sub	sp, sp, #12
 1901              	.LCFI38:
 1902              		.cfi_def_cfa_offset 16
 1903              		.loc 1 599 0
 1904 0004 4FF00003 		mov	r3, #0
 1905 0008 0193     		str	r3, [sp, #4]
 1906              		.loc 1 601 0
 1907 000a FFF7FEFF 		bl	test_wait_tick
 1908              		.loc 1 602 0
 1909 000e 4FF47A70 		mov	r0, #1000
 1910 0012 FFF7FEFF 		bl	test_start_timer
 1911              	.L42:
 1912              		.loc 1 604 0 discriminator 1
 1913 0016 40F20000 		movw	r0, #:lower16:mtx1
 1914 001a C0F20000 		movt	r0, #:upper16:mtx1
 1915 001e FFF7FEFF 		bl	chMtxLock
 1916              		.loc 1 605 0 discriminator 1
 1917 0022 FFF7FEFF 		bl	chMtxUnlock
 1918              		.loc 1 606 0 discriminator 1
 1919 0026 40F20000 		movw	r0, #:lower16:mtx1
 1920 002a C0F20000 		movt	r0, #:upper16:mtx1
 1921 002e FFF7FEFF 		bl	chMtxLock
 1922              		.loc 1 607 0 discriminator 1
 1923 0032 FFF7FEFF 		bl	chMtxUnlock
 1924              		.loc 1 608 0 discriminator 1
 1925 0036 40F20000 		movw	r0, #:lower16:mtx1
 1926 003a C0F20000 		movt	r0, #:upper16:mtx1
 1927 003e FFF7FEFF 		bl	chMtxLock
 1928              		.loc 1 609 0 discriminator 1
 1929 0042 FFF7FEFF 		bl	chMtxUnlock
 1930              		.loc 1 610 0 discriminator 1
 1931 0046 40F20000 		movw	r0, #:lower16:mtx1
 1932 004a C0F20000 		movt	r0, #:upper16:mtx1
 1933 004e FFF7FEFF 		bl	chMtxLock
 1934              		.loc 1 611 0 discriminator 1
 1935 0052 FFF7FEFF 		bl	chMtxUnlock
 1936              		.loc 1 612 0 discriminator 1
 1937 0056 019B     		ldr	r3, [sp, #4]
 1938 0058 03F10103 		add	r3, r3, #1
 1939 005c 0193     		str	r3, [sp, #4]
 1940              		.loc 1 616 0 discriminator 1
 1941 005e 40F20003 		movw	r3, #:lower16:test_timer_done
 1942 0062 C0F20003 		movt	r3, #:upper16:test_timer_done
 1943 0066 1B78     		ldrb	r3, [r3, #0]	@ zero_extendqisi2
 1944 0068 83F00103 		eor	r3, r3, #1
 1945 006c DBB2     		uxtb	r3, r3
 1946 006e 002B     		cmp	r3, #0
 1947 0070 D1D1     		bne	.L42
 1948              		.loc 1 617 0
 1949 0072 40F20000 		movw	r0, #:lower16:.LC0
 1950 0076 C0F20000 		movt	r0, #:upper16:.LC0
 1951 007a FFF7FEFF 		bl	test_print
 1952              		.loc 1 618 0
 1953 007e 019B     		ldr	r3, [sp, #4]
ARM GAS  /tmp/cciE3hUa.s 			page 37


 1954 0080 4FEA8303 		lsl	r3, r3, #2
 1955 0084 1846     		mov	r0, r3
 1956 0086 FFF7FEFF 		bl	test_printn
 1957              		.loc 1 619 0
 1958 008a 40F20000 		movw	r0, #:lower16:.LC19
 1959 008e C0F20000 		movt	r0, #:upper16:.LC19
 1960 0092 FFF7FEFF 		bl	test_println
 1961              		.loc 1 620 0
 1962 0096 03B0     		add	sp, sp, #12
 1963 0098 00BD     		pop	{pc}
 1964              		.cfi_endproc
 1965              	.LFE28:
 1966              		.size	bmk12_execute, .-bmk12_execute
 1967              		.global	testbmk12
 1968 009a 00BFAFF3 		.section	.rodata
 1968      0080
 1969 01e3 00       		.align	2
 1970              	.LC20:
 1971 01e4 42656E63 		.ascii	"Benchmark, mutexes lock/unlock\000"
 1971      686D6172 
 1971      6B2C206D 
 1971      75746578 
 1971      6573206C 
 1972              		.section	.rodata.testbmk12,"a",%progbits
 1973              		.align	2
 1974              		.type	testbmk12, %object
 1975              		.size	testbmk12, 16
 1976              	testbmk12:
 1977 0000 E4010000 		.word	.LC20
 1978 0004 00000000 		.word	bmk12_setup
 1979 0008 00000000 		.word	0
 1980 000c 00000000 		.word	bmk12_execute
 1981              		.section	.rodata
 1982 0203 00       		.align	2
 1983              	.LC21:
 1984 0204 2D2D2D20 		.ascii	"--- System: \000"
 1984      53797374 
 1984      656D3A20 
 1984      00
 1985 0211 000000   		.align	2
 1986              	.LC22:
 1987 0214 20627974 		.ascii	" bytes\000"
 1987      657300
 1988 021b 00       		.align	2
 1989              	.LC23:
 1990 021c 2D2D2D20 		.ascii	"--- Thread: \000"
 1990      54687265 
 1990      61643A20 
 1990      00
 1991 0229 000000   		.align	2
 1992              	.LC24:
 1993 022c 2D2D2D20 		.ascii	"--- Timer : \000"
 1993      54696D65 
 1993      72203A20 
 1993      00
 1994 0239 000000   		.align	2
 1995              	.LC25:
ARM GAS  /tmp/cciE3hUa.s 			page 38


 1996 023c 2D2D2D20 		.ascii	"--- Semaph: \000"
 1996      53656D61 
 1996      70683A20 
 1996      00
 1997 0249 000000   		.align	2
 1998              	.LC26:
 1999 024c 2D2D2D20 		.ascii	"--- EventS: \000"
 1999      4576656E 
 1999      74533A20 
 1999      00
 2000 0259 000000   		.align	2
 2001              	.LC27:
 2002 025c 2D2D2D20 		.ascii	"--- EventL: \000"
 2002      4576656E 
 2002      744C3A20 
 2002      00
 2003 0269 000000   		.align	2
 2004              	.LC28:
 2005 026c 2D2D2D20 		.ascii	"--- Mutex : \000"
 2005      4D757465 
 2005      78203A20 
 2005      00
 2006 0279 000000   		.align	2
 2007              	.LC29:
 2008 027c 2D2D2D20 		.ascii	"--- CondV.: \000"
 2008      436F6E64 
 2008      562E3A20 
 2008      00
 2009 0289 000000   		.align	2
 2010              	.LC30:
 2011 028c 2D2D2D20 		.ascii	"--- Queue : \000"
 2011      51756575 
 2011      65203A20 
 2011      00
 2012 0299 000000   		.align	2
 2013              	.LC31:
 2014 029c 2D2D2D20 		.ascii	"--- MailB.: \000"
 2014      4D61696C 
 2014      422E3A20 
 2014      00
 2015              		.section	.text.bmk13_execute,"ax",%progbits
 2016              		.align	2
 2017              		.p2align 4,,15
 2018              		.thumb
 2019              		.thumb_func
 2020              		.type	bmk13_execute, %function
 2021              	bmk13_execute:
 2022              	.LFB29:
 2023              		.loc 1 637 0
 2024              		.cfi_startproc
 2025              		@ args = 0, pretend = 0, frame = 0
 2026              		@ frame_needed = 0, uses_anonymous_args = 0
 2027 0000 08B5     		push	{r3, lr}
 2028              	.LCFI39:
 2029              		.cfi_def_cfa_offset 8
 2030              		.cfi_offset 3, -8
 2031              		.cfi_offset 14, -4
ARM GAS  /tmp/cciE3hUa.s 			page 39


 2032              		.loc 1 639 0
 2033 0002 40F20000 		movw	r0, #:lower16:.LC21
 2034 0006 C0F20000 		movt	r0, #:upper16:.LC21
 2035 000a FFF7FEFF 		bl	test_print
 2036              		.loc 1 640 0
 2037 000e 4FF4CE70 		mov	r0, #412
 2038 0012 FFF7FEFF 		bl	test_printn
 2039              		.loc 1 645 0
 2040 0016 40F20000 		movw	r0, #:lower16:.LC22
 2041 001a C0F20000 		movt	r0, #:upper16:.LC22
 2042 001e FFF7FEFF 		bl	test_println
 2043              		.loc 1 646 0
 2044 0022 40F20000 		movw	r0, #:lower16:.LC23
 2045 0026 C0F20000 		movt	r0, #:upper16:.LC23
 2046 002a FFF7FEFF 		bl	test_print
 2047              		.loc 1 647 0
 2048 002e 4FF04C00 		mov	r0, #76
 2049 0032 FFF7FEFF 		bl	test_printn
 2050              		.loc 1 648 0
 2051 0036 40F20000 		movw	r0, #:lower16:.LC22
 2052 003a C0F20000 		movt	r0, #:upper16:.LC22
 2053 003e FFF7FEFF 		bl	test_println
 2054              		.loc 1 649 0
 2055 0042 40F20000 		movw	r0, #:lower16:.LC24
 2056 0046 C0F20000 		movt	r0, #:upper16:.LC24
 2057 004a FFF7FEFF 		bl	test_print
 2058              		.loc 1 650 0
 2059 004e 4FF01400 		mov	r0, #20
 2060 0052 FFF7FEFF 		bl	test_printn
 2061              		.loc 1 651 0
 2062 0056 40F20000 		movw	r0, #:lower16:.LC22
 2063 005a C0F20000 		movt	r0, #:upper16:.LC22
 2064 005e FFF7FEFF 		bl	test_println
 2065              		.loc 1 653 0
 2066 0062 40F20000 		movw	r0, #:lower16:.LC25
 2067 0066 C0F20000 		movt	r0, #:upper16:.LC25
 2068 006a FFF7FEFF 		bl	test_print
 2069              		.loc 1 654 0
 2070 006e 4FF00C00 		mov	r0, #12
 2071 0072 FFF7FEFF 		bl	test_printn
 2072              		.loc 1 655 0
 2073 0076 40F20000 		movw	r0, #:lower16:.LC22
 2074 007a C0F20000 		movt	r0, #:upper16:.LC22
 2075 007e FFF7FEFF 		bl	test_println
 2076              		.loc 1 658 0
 2077 0082 40F20000 		movw	r0, #:lower16:.LC26
 2078 0086 C0F20000 		movt	r0, #:upper16:.LC26
 2079 008a FFF7FEFF 		bl	test_print
 2080              		.loc 1 659 0
 2081 008e 4FF00400 		mov	r0, #4
 2082 0092 FFF7FEFF 		bl	test_printn
 2083              		.loc 1 660 0
 2084 0096 40F20000 		movw	r0, #:lower16:.LC22
 2085 009a C0F20000 		movt	r0, #:upper16:.LC22
 2086 009e FFF7FEFF 		bl	test_println
 2087              		.loc 1 661 0
 2088 00a2 40F20000 		movw	r0, #:lower16:.LC27
ARM GAS  /tmp/cciE3hUa.s 			page 40


 2089 00a6 C0F20000 		movt	r0, #:upper16:.LC27
 2090 00aa FFF7FEFF 		bl	test_print
 2091              		.loc 1 662 0
 2092 00ae 4FF01000 		mov	r0, #16
 2093 00b2 FFF7FEFF 		bl	test_printn
 2094              		.loc 1 663 0
 2095 00b6 40F20000 		movw	r0, #:lower16:.LC22
 2096 00ba C0F20000 		movt	r0, #:upper16:.LC22
 2097 00be FFF7FEFF 		bl	test_println
 2098              		.loc 1 666 0
 2099 00c2 40F20000 		movw	r0, #:lower16:.LC28
 2100 00c6 C0F20000 		movt	r0, #:upper16:.LC28
 2101 00ca FFF7FEFF 		bl	test_print
 2102              		.loc 1 667 0
 2103 00ce 4FF01000 		mov	r0, #16
 2104 00d2 FFF7FEFF 		bl	test_printn
 2105              		.loc 1 668 0
 2106 00d6 40F20000 		movw	r0, #:lower16:.LC22
 2107 00da C0F20000 		movt	r0, #:upper16:.LC22
 2108 00de FFF7FEFF 		bl	test_println
 2109              		.loc 1 671 0
 2110 00e2 40F20000 		movw	r0, #:lower16:.LC29
 2111 00e6 C0F20000 		movt	r0, #:upper16:.LC29
 2112 00ea FFF7FEFF 		bl	test_print
 2113              		.loc 1 672 0
 2114 00ee 4FF00800 		mov	r0, #8
 2115 00f2 FFF7FEFF 		bl	test_printn
 2116              		.loc 1 673 0
 2117 00f6 40F20000 		movw	r0, #:lower16:.LC22
 2118 00fa C0F20000 		movt	r0, #:upper16:.LC22
 2119 00fe FFF7FEFF 		bl	test_println
 2120              		.loc 1 676 0
 2121 0102 40F20000 		movw	r0, #:lower16:.LC30
 2122 0106 C0F20000 		movt	r0, #:upper16:.LC30
 2123 010a FFF7FEFF 		bl	test_print
 2124              		.loc 1 677 0
 2125 010e 4FF02400 		mov	r0, #36
 2126 0112 FFF7FEFF 		bl	test_printn
 2127              		.loc 1 678 0
 2128 0116 40F20000 		movw	r0, #:lower16:.LC22
 2129 011a C0F20000 		movt	r0, #:upper16:.LC22
 2130 011e FFF7FEFF 		bl	test_println
 2131              		.loc 1 681 0
 2132 0122 40F20000 		movw	r0, #:lower16:.LC31
 2133 0126 C0F20000 		movt	r0, #:upper16:.LC31
 2134 012a FFF7FEFF 		bl	test_print
 2135              		.loc 1 682 0
 2136 012e 4FF02800 		mov	r0, #40
 2137 0132 FFF7FEFF 		bl	test_printn
 2138              		.loc 1 683 0
 2139 0136 40F20000 		movw	r0, #:lower16:.LC22
 2140 013a C0F20000 		movt	r0, #:upper16:.LC22
 2141 013e FFF7FEFF 		bl	test_println
 2142              		.loc 1 685 0
 2143 0142 08BD     		pop	{r3, pc}
 2144              		.cfi_endproc
 2145              	.LFE29:
ARM GAS  /tmp/cciE3hUa.s 			page 41


 2146              		.size	bmk13_execute, .-bmk13_execute
 2147              		.global	testbmk13
 2148 0144 AFF30080 		.section	.rodata
 2148      AFF30080 
 2148      AFF30080 
 2149 02a9 000000   		.align	2
 2150              	.LC32:
 2151 02ac 42656E63 		.ascii	"Benchmark, RAM footprint\000"
 2151      686D6172 
 2151      6B2C2052 
 2151      414D2066 
 2151      6F6F7470 
 2152 02c5 000000   		.section	.rodata.testbmk13,"a",%progbits
 2153              		.align	2
 2154              		.type	testbmk13, %object
 2155              		.size	testbmk13, 16
 2156              	testbmk13:
 2157 0000 AC020000 		.word	.LC32
 2158 0004 00000000 		.word	0
 2159 0008 00000000 		.word	0
 2160 000c 00000000 		.word	bmk13_execute
 2161              		.global	patternbmk
 2162              		.section	.rodata.patternbmk,"a",%progbits
 2163              		.align	2
 2164              		.type	patternbmk, %object
 2165              		.size	patternbmk, 56
 2166              	patternbmk:
 2167 0000 00000000 		.word	testbmk1
 2168 0004 00000000 		.word	testbmk2
 2169 0008 00000000 		.word	testbmk3
 2170 000c 00000000 		.word	testbmk4
 2171 0010 00000000 		.word	testbmk5
 2172 0014 00000000 		.word	testbmk6
 2173 0018 00000000 		.word	testbmk7
 2174 001c 00000000 		.word	testbmk8
 2175 0020 00000000 		.word	testbmk9
 2176 0024 00000000 		.word	testbmk10
 2177 0028 00000000 		.word	testbmk11
 2178 002c 00000000 		.word	testbmk12
 2179 0030 00000000 		.word	testbmk13
 2180 0034 00000000 		.word	0
 2181              		.section	.bss.vt1.4984,"aw",%nobits
 2182              		.align	2
 2183              		.type	vt1.4984, %object
 2184              		.size	vt1.4984, 20
 2185              	vt1.4984:
 2186 0000 00000000 		.space	20
 2186      00000000 
 2186      00000000 
 2186      00000000 
 2186      00000000 
 2187              		.section	.bss.vt2.4985,"aw",%nobits
 2188              		.align	2
 2189              		.type	vt2.4985, %object
 2190              		.size	vt2.4985, 20
 2191              	vt2.4985:
 2192 0000 00000000 		.space	20
ARM GAS  /tmp/cciE3hUa.s 			page 42


 2192      00000000 
 2192      00000000 
 2192      00000000 
 2192      00000000 
 2193              		.section	.bss.iq.4972,"aw",%nobits
 2194              		.align	2
 2195              		.type	iq.4972, %object
 2196              		.size	iq.4972, 36
 2197              	iq.4972:
 2198 0000 00000000 		.space	36
 2198      00000000 
 2198      00000000 
 2198      00000000 
 2198      00000000 
 2199              		.section	.bss.ib.4971,"aw",%nobits
 2200              		.align	2
 2201              		.type	ib.4971, %object
 2202              		.size	ib.4971, 16
 2203              	ib.4971:
 2204 0000 00000000 		.space	16
 2204      00000000 
 2204      00000000 
 2204      00000000 
 2205              		.text
 2206              	.Letext0:
 2207              		.file 2 "/usr/bin/../lib/gcc/arm-none-eabi/4.7.4/include/stddef.h"
 2208              		.file 3 "/usr/bin/../lib/gcc/arm-none-eabi/4.7.4/../../../../arm-none-eabi/include/stdint.h"
 2209              		.file 4 "../../os/ports/GCC/ARMCMx/chtypes.h"
 2210              		.file 5 "../../os/kernel/include/chlists.h"
 2211              		.file 6 "../../os/kernel/include/chthreads.h"
 2212              		.file 7 "../../os/ports/GCC/ARMCMx/chcore_v7m.h"
 2213              		.file 8 "../../os/kernel/include/chvt.h"
 2214              		.file 9 "../../os/kernel/include/chschd.h"
 2215              		.file 10 "../../os/kernel/include/chsem.h"
 2216              		.file 11 "../../os/kernel/include/chmtx.h"
 2217              		.file 12 "../../os/kernel/include/chqueues.h"
 2218              		.file 13 "../../test/test.h"
 2219              		.section	.debug_info,"",%progbits
 2220              	.Ldebug_info0:
 2221 0000 1F0D0000 		.4byte	0xd1f
 2222 0004 0200     		.2byte	0x2
 2223 0006 00000000 		.4byte	.Ldebug_abbrev0
 2224 000a 04       		.byte	0x4
 2225 000b 01       		.uleb128 0x1
 2226 000c 46020000 		.4byte	.LASF138
 2227 0010 01       		.byte	0x1
 2228 0011 98020000 		.4byte	.LASF139
 2229 0015 50030000 		.4byte	.LASF140
 2230 0019 00000000 		.4byte	.Ldebug_ranges0+0
 2231 001d 00000000 		.4byte	0
 2232 0021 00000000 		.4byte	0
 2233 0025 00000000 		.4byte	.Ldebug_line0
 2234 0029 02       		.uleb128 0x2
 2235 002a 04       		.byte	0x4
 2236 002b 05       		.byte	0x5
 2237 002c 696E7400 		.ascii	"int\000"
 2238 0030 03       		.uleb128 0x3
ARM GAS  /tmp/cciE3hUa.s 			page 43


 2239 0031 06000000 		.4byte	.LASF2
 2240 0035 02       		.byte	0x2
 2241 0036 D5       		.byte	0xd5
 2242 0037 3B000000 		.4byte	0x3b
 2243 003b 04       		.uleb128 0x4
 2244 003c 04       		.byte	0x4
 2245 003d 07       		.byte	0x7
 2246 003e 4E010000 		.4byte	.LASF0
 2247 0042 04       		.uleb128 0x4
 2248 0043 01       		.byte	0x1
 2249 0044 06       		.byte	0x6
 2250 0045 6E000000 		.4byte	.LASF1
 2251 0049 03       		.uleb128 0x3
 2252 004a 59050000 		.4byte	.LASF3
 2253 004e 03       		.byte	0x3
 2254 004f 2A       		.byte	0x2a
 2255 0050 54000000 		.4byte	0x54
 2256 0054 04       		.uleb128 0x4
 2257 0055 01       		.byte	0x1
 2258 0056 08       		.byte	0x8
 2259 0057 0A040000 		.4byte	.LASF4
 2260 005b 04       		.uleb128 0x4
 2261 005c 02       		.byte	0x2
 2262 005d 05       		.byte	0x5
 2263 005e 22040000 		.4byte	.LASF5
 2264 0062 04       		.uleb128 0x4
 2265 0063 02       		.byte	0x2
 2266 0064 07       		.byte	0x7
 2267 0065 D3010000 		.4byte	.LASF6
 2268 0069 03       		.uleb128 0x3
 2269 006a 02040000 		.4byte	.LASF7
 2270 006e 03       		.byte	0x3
 2271 006f 4F       		.byte	0x4f
 2272 0070 74000000 		.4byte	0x74
 2273 0074 04       		.uleb128 0x4
 2274 0075 04       		.byte	0x4
 2275 0076 05       		.byte	0x5
 2276 0077 B1000000 		.4byte	.LASF8
 2277 007b 03       		.uleb128 0x3
 2278 007c A7040000 		.4byte	.LASF9
 2279 0080 03       		.byte	0x3
 2280 0081 50       		.byte	0x50
 2281 0082 86000000 		.4byte	0x86
 2282 0086 04       		.uleb128 0x4
 2283 0087 04       		.byte	0x4
 2284 0088 07       		.byte	0x7
 2285 0089 7F010000 		.4byte	.LASF10
 2286 008d 04       		.uleb128 0x4
 2287 008e 08       		.byte	0x8
 2288 008f 05       		.byte	0x5
 2289 0090 60000000 		.4byte	.LASF11
 2290 0094 03       		.uleb128 0x3
 2291 0095 19000000 		.4byte	.LASF12
 2292 0099 03       		.byte	0x3
 2293 009a 78       		.byte	0x78
 2294 009b 9F000000 		.4byte	0x9f
 2295 009f 04       		.uleb128 0x4
ARM GAS  /tmp/cciE3hUa.s 			page 44


 2296 00a0 08       		.byte	0x8
 2297 00a1 07       		.byte	0x7
 2298 00a2 22000000 		.4byte	.LASF13
 2299 00a6 03       		.uleb128 0x3
 2300 00a7 82000000 		.4byte	.LASF14
 2301 00ab 04       		.byte	0x4
 2302 00ac 24       		.byte	0x24
 2303 00ad B1000000 		.4byte	0xb1
 2304 00b1 04       		.uleb128 0x4
 2305 00b2 01       		.byte	0x1
 2306 00b3 02       		.byte	0x2
 2307 00b4 FC030000 		.4byte	.LASF15
 2308 00b8 03       		.uleb128 0x3
 2309 00b9 FE010000 		.4byte	.LASF16
 2310 00bd 04       		.byte	0x4
 2311 00be 25       		.byte	0x25
 2312 00bf 49000000 		.4byte	0x49
 2313 00c3 03       		.uleb128 0x3
 2314 00c4 BA000000 		.4byte	.LASF17
 2315 00c8 04       		.byte	0x4
 2316 00c9 26       		.byte	0x26
 2317 00ca 49000000 		.4byte	0x49
 2318 00ce 03       		.uleb128 0x3
 2319 00cf CB030000 		.4byte	.LASF18
 2320 00d3 04       		.byte	0x4
 2321 00d4 27       		.byte	0x27
 2322 00d5 49000000 		.4byte	0x49
 2323 00d9 03       		.uleb128 0x3
 2324 00da A7000000 		.4byte	.LASF19
 2325 00de 04       		.byte	0x4
 2326 00df 28       		.byte	0x28
 2327 00e0 49000000 		.4byte	0x49
 2328 00e4 03       		.uleb128 0x3
 2329 00e5 EC030000 		.4byte	.LASF20
 2330 00e9 04       		.byte	0x4
 2331 00ea 29       		.byte	0x29
 2332 00eb 7B000000 		.4byte	0x7b
 2333 00ef 03       		.uleb128 0x3
 2334 00f0 EB010000 		.4byte	.LASF21
 2335 00f4 04       		.byte	0x4
 2336 00f5 2A       		.byte	0x2a
 2337 00f6 69000000 		.4byte	0x69
 2338 00fa 03       		.uleb128 0x3
 2339 00fb 29020000 		.4byte	.LASF22
 2340 00ff 04       		.byte	0x4
 2341 0100 2C       		.byte	0x2c
 2342 0101 7B000000 		.4byte	0x7b
 2343 0105 03       		.uleb128 0x3
 2344 0106 DE040000 		.4byte	.LASF23
 2345 010a 04       		.byte	0x4
 2346 010b 2E       		.byte	0x2e
 2347 010c 7B000000 		.4byte	0x7b
 2348 0110 03       		.uleb128 0x3
 2349 0111 3D010000 		.4byte	.LASF24
 2350 0115 04       		.byte	0x4
 2351 0116 2F       		.byte	0x2f
 2352 0117 69000000 		.4byte	0x69
ARM GAS  /tmp/cciE3hUa.s 			page 45


 2353 011b 03       		.uleb128 0x3
 2354 011c 6E040000 		.4byte	.LASF25
 2355 0120 05       		.byte	0x5
 2356 0121 23       		.byte	0x23
 2357 0122 26010000 		.4byte	0x126
 2358 0126 05       		.uleb128 0x5
 2359 0127 6E040000 		.4byte	.LASF25
 2360 012b 4C       		.byte	0x4c
 2361 012c 06       		.byte	0x6
 2362 012d 57       		.byte	0x57
 2363 012e 59020000 		.4byte	0x259
 2364 0132 06       		.uleb128 0x6
 2365 0133 54040000 		.4byte	.LASF26
 2366 0137 06       		.byte	0x6
 2367 0138 58       		.byte	0x58
 2368 0139 7E020000 		.4byte	0x27e
 2369 013d 02       		.byte	0x2
 2370 013e 23       		.byte	0x23
 2371 013f 00       		.uleb128 0
 2372 0140 06       		.uleb128 0x6
 2373 0141 DD030000 		.4byte	.LASF27
 2374 0145 06       		.byte	0x6
 2375 0146 5A       		.byte	0x5a
 2376 0147 7E020000 		.4byte	0x27e
 2377 014b 02       		.byte	0x2
 2378 014c 23       		.byte	0x23
 2379 014d 04       		.uleb128 0x4
 2380 014e 06       		.uleb128 0x6
 2381 014f 4F000000 		.4byte	.LASF28
 2382 0153 06       		.byte	0x6
 2383 0154 5C       		.byte	0x5c
 2384 0155 E4000000 		.4byte	0xe4
 2385 0159 02       		.byte	0x2
 2386 015a 23       		.byte	0x23
 2387 015b 08       		.uleb128 0x8
 2388 015c 06       		.uleb128 0x6
 2389 015d A3050000 		.4byte	.LASF29
 2390 0161 06       		.byte	0x6
 2391 0162 5D       		.byte	0x5d
 2392 0163 57030000 		.4byte	0x357
 2393 0167 02       		.byte	0x2
 2394 0168 23       		.byte	0x23
 2395 0169 0C       		.uleb128 0xc
 2396 016a 06       		.uleb128 0x6
 2397 016b E1000000 		.4byte	.LASF30
 2398 016f 06       		.byte	0x6
 2399 0170 5F       		.byte	0x5f
 2400 0171 7E020000 		.4byte	0x27e
 2401 0175 02       		.byte	0x2
 2402 0176 23       		.byte	0x23
 2403 0177 10       		.uleb128 0x10
 2404 0178 06       		.uleb128 0x6
 2405 0179 40030000 		.4byte	.LASF31
 2406 017d 06       		.byte	0x6
 2407 017e 60       		.byte	0x60
 2408 017f 7E020000 		.4byte	0x27e
 2409 0183 02       		.byte	0x2
ARM GAS  /tmp/cciE3hUa.s 			page 46


 2410 0184 23       		.byte	0x23
 2411 0185 14       		.uleb128 0x14
 2412 0186 06       		.uleb128 0x6
 2413 0187 68050000 		.4byte	.LASF32
 2414 018b 06       		.byte	0x6
 2415 018c 67       		.byte	0x67
 2416 018d 20050000 		.4byte	0x520
 2417 0191 02       		.byte	0x2
 2418 0192 23       		.byte	0x23
 2419 0193 18       		.uleb128 0x18
 2420 0194 06       		.uleb128 0x6
 2421 0195 43010000 		.4byte	.LASF33
 2422 0199 06       		.byte	0x6
 2423 019a 6D       		.byte	0x6d
 2424 019b 32050000 		.4byte	0x532
 2425 019f 02       		.byte	0x2
 2426 01a0 23       		.byte	0x23
 2427 01a1 1C       		.uleb128 0x1c
 2428 01a2 06       		.uleb128 0x6
 2429 01a3 2C040000 		.4byte	.LASF34
 2430 01a7 06       		.byte	0x6
 2431 01a8 72       		.byte	0x72
 2432 01a9 C3000000 		.4byte	0xc3
 2433 01ad 02       		.byte	0x2
 2434 01ae 23       		.byte	0x23
 2435 01af 20       		.uleb128 0x20
 2436 01b0 06       		.uleb128 0x6
 2437 01b1 5B040000 		.4byte	.LASF35
 2438 01b5 06       		.byte	0x6
 2439 01b6 76       		.byte	0x76
 2440 01b7 B8000000 		.4byte	0xb8
 2441 01bb 02       		.byte	0x2
 2442 01bc 23       		.byte	0x23
 2443 01bd 21       		.uleb128 0x21
 2444 01be 06       		.uleb128 0x6
 2445 01bf 39050000 		.4byte	.LASF36
 2446 01c3 06       		.byte	0x6
 2447 01c4 7B       		.byte	0x7b
 2448 01c5 CE000000 		.4byte	0xce
 2449 01c9 02       		.byte	0x2
 2450 01ca 23       		.byte	0x23
 2451 01cb 22       		.uleb128 0x22
 2452 01cc 06       		.uleb128 0x6
 2453 01cd 34040000 		.4byte	.LASF37
 2454 01d1 06       		.byte	0x6
 2455 01d2 81       		.byte	0x81
 2456 01d3 D9000000 		.4byte	0xd9
 2457 01d7 02       		.byte	0x2
 2458 01d8 23       		.byte	0x23
 2459 01d9 23       		.uleb128 0x23
 2460 01da 06       		.uleb128 0x6
 2461 01db 09050000 		.4byte	.LASF38
 2462 01df 06       		.byte	0x6
 2463 01e0 88       		.byte	0x88
 2464 01e1 02040000 		.4byte	0x402
 2465 01e5 02       		.byte	0x2
 2466 01e6 23       		.byte	0x23
ARM GAS  /tmp/cciE3hUa.s 			page 47


 2467 01e7 24       		.uleb128 0x24
 2468 01e8 07       		.uleb128 0x7
 2469 01e9 705F7500 		.ascii	"p_u\000"
 2470 01ed 06       		.byte	0x6
 2471 01ee AD       		.byte	0xad
 2472 01ef EB040000 		.4byte	0x4eb
 2473 01f3 02       		.byte	0x2
 2474 01f4 23       		.byte	0x23
 2475 01f5 28       		.uleb128 0x28
 2476 01f6 06       		.uleb128 0x6
 2477 01f7 A9050000 		.4byte	.LASF39
 2478 01fb 06       		.byte	0x6
 2479 01fc B2       		.byte	0xb2
 2480 01fd A6020000 		.4byte	0x2a6
 2481 0201 02       		.byte	0x2
 2482 0202 23       		.byte	0x23
 2483 0203 2C       		.uleb128 0x2c
 2484 0204 06       		.uleb128 0x6
 2485 0205 17050000 		.4byte	.LASF40
 2486 0209 06       		.byte	0x6
 2487 020a B8       		.byte	0xb8
 2488 020b 84020000 		.4byte	0x284
 2489 020f 02       		.byte	0x2
 2490 0210 23       		.byte	0x23
 2491 0211 30       		.uleb128 0x30
 2492 0212 06       		.uleb128 0x6
 2493 0213 00000000 		.4byte	.LASF41
 2494 0217 06       		.byte	0x6
 2495 0218 BC       		.byte	0xbc
 2496 0219 EF000000 		.4byte	0xef
 2497 021d 02       		.byte	0x2
 2498 021e 23       		.byte	0x23
 2499 021f 38       		.uleb128 0x38
 2500 0220 06       		.uleb128 0x6
 2501 0221 9C040000 		.4byte	.LASF42
 2502 0225 06       		.byte	0x6
 2503 0226 C2       		.byte	0xc2
 2504 0227 FA000000 		.4byte	0xfa
 2505 022b 02       		.byte	0x2
 2506 022c 23       		.byte	0x23
 2507 022d 3C       		.uleb128 0x3c
 2508 022e 06       		.uleb128 0x6
 2509 022f 18040000 		.4byte	.LASF43
 2510 0233 06       		.byte	0x6
 2511 0234 C9       		.byte	0xc9
 2512 0235 38050000 		.4byte	0x538
 2513 0239 02       		.byte	0x2
 2514 023a 23       		.byte	0x23
 2515 023b 40       		.uleb128 0x40
 2516 023c 06       		.uleb128 0x6
 2517 023d E8040000 		.4byte	.LASF44
 2518 0241 06       		.byte	0x6
 2519 0242 CD       		.byte	0xcd
 2520 0243 E4000000 		.4byte	0xe4
 2521 0247 02       		.byte	0x2
 2522 0248 23       		.byte	0x23
 2523 0249 44       		.uleb128 0x44
ARM GAS  /tmp/cciE3hUa.s 			page 48


 2524 024a 06       		.uleb128 0x6
 2525 024b 7A000000 		.4byte	.LASF45
 2526 024f 06       		.byte	0x6
 2527 0250 D3       		.byte	0xd3
 2528 0251 BC020000 		.4byte	0x2bc
 2529 0255 02       		.byte	0x2
 2530 0256 23       		.byte	0x23
 2531 0257 48       		.uleb128 0x48
 2532 0258 00       		.byte	0
 2533 0259 08       		.uleb128 0x8
 2534 025a 08       		.byte	0x8
 2535 025b 05       		.byte	0x5
 2536 025c 5A       		.byte	0x5a
 2537 025d 7E020000 		.4byte	0x27e
 2538 0261 06       		.uleb128 0x6
 2539 0262 54040000 		.4byte	.LASF26
 2540 0266 05       		.byte	0x5
 2541 0267 5B       		.byte	0x5b
 2542 0268 7E020000 		.4byte	0x27e
 2543 026c 02       		.byte	0x2
 2544 026d 23       		.byte	0x23
 2545 026e 00       		.uleb128 0
 2546 026f 06       		.uleb128 0x6
 2547 0270 DD030000 		.4byte	.LASF27
 2548 0274 05       		.byte	0x5
 2549 0275 5D       		.byte	0x5d
 2550 0276 7E020000 		.4byte	0x27e
 2551 027a 02       		.byte	0x2
 2552 027b 23       		.byte	0x23
 2553 027c 04       		.uleb128 0x4
 2554 027d 00       		.byte	0
 2555 027e 09       		.uleb128 0x9
 2556 027f 04       		.byte	0x4
 2557 0280 1B010000 		.4byte	0x11b
 2558 0284 03       		.uleb128 0x3
 2559 0285 9E030000 		.4byte	.LASF46
 2560 0289 05       		.byte	0x5
 2561 028a 5F       		.byte	0x5f
 2562 028b 59020000 		.4byte	0x259
 2563 028f 08       		.uleb128 0x8
 2564 0290 04       		.byte	0x4
 2565 0291 05       		.byte	0x5
 2566 0292 64       		.byte	0x64
 2567 0293 A6020000 		.4byte	0x2a6
 2568 0297 06       		.uleb128 0x6
 2569 0298 54040000 		.4byte	.LASF26
 2570 029c 05       		.byte	0x5
 2571 029d 66       		.byte	0x66
 2572 029e 7E020000 		.4byte	0x27e
 2573 02a2 02       		.byte	0x2
 2574 02a3 23       		.byte	0x23
 2575 02a4 00       		.uleb128 0
 2576 02a5 00       		.byte	0
 2577 02a6 03       		.uleb128 0x3
 2578 02a7 14020000 		.4byte	.LASF47
 2579 02ab 05       		.byte	0x5
 2580 02ac 69       		.byte	0x69
ARM GAS  /tmp/cciE3hUa.s 			page 49


 2581 02ad 8F020000 		.4byte	0x28f
 2582 02b1 03       		.uleb128 0x3
 2583 02b2 06010000 		.4byte	.LASF48
 2584 02b6 07       		.byte	0x7
 2585 02b7 DE       		.byte	0xde
 2586 02b8 BC020000 		.4byte	0x2bc
 2587 02bc 0A       		.uleb128 0xa
 2588 02bd 04       		.byte	0x4
 2589 02be 03       		.uleb128 0x3
 2590 02bf BA020000 		.4byte	.LASF49
 2591 02c3 07       		.byte	0x7
 2592 02c4 E4       		.byte	0xe4
 2593 02c5 94000000 		.4byte	0x94
 2594 02c9 0B       		.uleb128 0xb
 2595 02ca 10050000 		.4byte	.LASF50
 2596 02ce 24       		.byte	0x24
 2597 02cf 07       		.byte	0x7
 2598 02d0 0501     		.2byte	0x105
 2599 02d2 57030000 		.4byte	0x357
 2600 02d6 0C       		.uleb128 0xc
 2601 02d7 723400   		.ascii	"r4\000"
 2602 02da 07       		.byte	0x7
 2603 02db 1801     		.2byte	0x118
 2604 02dd B1020000 		.4byte	0x2b1
 2605 02e1 02       		.byte	0x2
 2606 02e2 23       		.byte	0x23
 2607 02e3 00       		.uleb128 0
 2608 02e4 0C       		.uleb128 0xc
 2609 02e5 723500   		.ascii	"r5\000"
 2610 02e8 07       		.byte	0x7
 2611 02e9 1901     		.2byte	0x119
 2612 02eb B1020000 		.4byte	0x2b1
 2613 02ef 02       		.byte	0x2
 2614 02f0 23       		.byte	0x23
 2615 02f1 04       		.uleb128 0x4
 2616 02f2 0C       		.uleb128 0xc
 2617 02f3 723600   		.ascii	"r6\000"
 2618 02f6 07       		.byte	0x7
 2619 02f7 1A01     		.2byte	0x11a
 2620 02f9 B1020000 		.4byte	0x2b1
 2621 02fd 02       		.byte	0x2
 2622 02fe 23       		.byte	0x23
 2623 02ff 08       		.uleb128 0x8
 2624 0300 0C       		.uleb128 0xc
 2625 0301 723700   		.ascii	"r7\000"
 2626 0304 07       		.byte	0x7
 2627 0305 1B01     		.2byte	0x11b
 2628 0307 B1020000 		.4byte	0x2b1
 2629 030b 02       		.byte	0x2
 2630 030c 23       		.byte	0x23
 2631 030d 0C       		.uleb128 0xc
 2632 030e 0C       		.uleb128 0xc
 2633 030f 723800   		.ascii	"r8\000"
 2634 0312 07       		.byte	0x7
 2635 0313 1C01     		.2byte	0x11c
 2636 0315 B1020000 		.4byte	0x2b1
 2637 0319 02       		.byte	0x2
ARM GAS  /tmp/cciE3hUa.s 			page 50


 2638 031a 23       		.byte	0x23
 2639 031b 10       		.uleb128 0x10
 2640 031c 0C       		.uleb128 0xc
 2641 031d 723900   		.ascii	"r9\000"
 2642 0320 07       		.byte	0x7
 2643 0321 1D01     		.2byte	0x11d
 2644 0323 B1020000 		.4byte	0x2b1
 2645 0327 02       		.byte	0x2
 2646 0328 23       		.byte	0x23
 2647 0329 14       		.uleb128 0x14
 2648 032a 0C       		.uleb128 0xc
 2649 032b 72313000 		.ascii	"r10\000"
 2650 032f 07       		.byte	0x7
 2651 0330 1E01     		.2byte	0x11e
 2652 0332 B1020000 		.4byte	0x2b1
 2653 0336 02       		.byte	0x2
 2654 0337 23       		.byte	0x23
 2655 0338 18       		.uleb128 0x18
 2656 0339 0C       		.uleb128 0xc
 2657 033a 72313100 		.ascii	"r11\000"
 2658 033e 07       		.byte	0x7
 2659 033f 1F01     		.2byte	0x11f
 2660 0341 B1020000 		.4byte	0x2b1
 2661 0345 02       		.byte	0x2
 2662 0346 23       		.byte	0x23
 2663 0347 1C       		.uleb128 0x1c
 2664 0348 0C       		.uleb128 0xc
 2665 0349 6C7200   		.ascii	"lr\000"
 2666 034c 07       		.byte	0x7
 2667 034d 2001     		.2byte	0x120
 2668 034f B1020000 		.4byte	0x2b1
 2669 0353 02       		.byte	0x2
 2670 0354 23       		.byte	0x23
 2671 0355 20       		.uleb128 0x20
 2672 0356 00       		.byte	0
 2673 0357 0B       		.uleb128 0xb
 2674 0358 CB010000 		.4byte	.LASF51
 2675 035c 04       		.byte	0x4
 2676 035d 07       		.byte	0x7
 2677 035e 2A01     		.2byte	0x12a
 2678 0360 74030000 		.4byte	0x374
 2679 0364 0C       		.uleb128 0xc
 2680 0365 72313300 		.ascii	"r13\000"
 2681 0369 07       		.byte	0x7
 2682 036a 2B01     		.2byte	0x12b
 2683 036c 74030000 		.4byte	0x374
 2684 0370 02       		.byte	0x2
 2685 0371 23       		.byte	0x23
 2686 0372 00       		.uleb128 0
 2687 0373 00       		.byte	0
 2688 0374 09       		.uleb128 0x9
 2689 0375 04       		.byte	0x4
 2690 0376 C9020000 		.4byte	0x2c9
 2691 037a 04       		.uleb128 0x4
 2692 037b 04       		.byte	0x4
 2693 037c 07       		.byte	0x7
 2694 037d E2020000 		.4byte	.LASF52
ARM GAS  /tmp/cciE3hUa.s 			page 51


 2695 0381 03       		.uleb128 0x3
 2696 0382 F3040000 		.4byte	.LASF53
 2697 0386 08       		.byte	0x8
 2698 0387 51       		.byte	0x51
 2699 0388 8C030000 		.4byte	0x38c
 2700 038c 09       		.uleb128 0x9
 2701 038d 04       		.byte	0x4
 2702 038e 92030000 		.4byte	0x392
 2703 0392 0D       		.uleb128 0xd
 2704 0393 01       		.byte	0x1
 2705 0394 9E030000 		.4byte	0x39e
 2706 0398 0E       		.uleb128 0xe
 2707 0399 BC020000 		.4byte	0x2bc
 2708 039d 00       		.byte	0
 2709 039e 03       		.uleb128 0x3
 2710 039f B8040000 		.4byte	.LASF54
 2711 03a3 08       		.byte	0x8
 2712 03a4 56       		.byte	0x56
 2713 03a5 A9030000 		.4byte	0x3a9
 2714 03a9 05       		.uleb128 0x5
 2715 03aa B8040000 		.4byte	.LASF54
 2716 03ae 14       		.byte	0x14
 2717 03af 08       		.byte	0x8
 2718 03b0 5D       		.byte	0x5d
 2719 03b1 FC030000 		.4byte	0x3fc
 2720 03b5 06       		.uleb128 0x6
 2721 03b6 69010000 		.4byte	.LASF55
 2722 03ba 08       		.byte	0x8
 2723 03bb 5E       		.byte	0x5e
 2724 03bc FC030000 		.4byte	0x3fc
 2725 03c0 02       		.byte	0x2
 2726 03c1 23       		.byte	0x23
 2727 03c2 00       		.uleb128 0
 2728 03c3 06       		.uleb128 0x6
 2729 03c4 0F010000 		.4byte	.LASF56
 2730 03c8 08       		.byte	0x8
 2731 03c9 60       		.byte	0x60
 2732 03ca FC030000 		.4byte	0x3fc
 2733 03ce 02       		.byte	0x2
 2734 03cf 23       		.byte	0x23
 2735 03d0 04       		.uleb128 0x4
 2736 03d1 06       		.uleb128 0x6
 2737 03d2 CE020000 		.4byte	.LASF57
 2738 03d6 08       		.byte	0x8
 2739 03d7 62       		.byte	0x62
 2740 03d8 05010000 		.4byte	0x105
 2741 03dc 02       		.byte	0x2
 2742 03dd 23       		.byte	0x23
 2743 03de 08       		.uleb128 0x8
 2744 03df 06       		.uleb128 0x6
 2745 03e0 10030000 		.4byte	.LASF58
 2746 03e4 08       		.byte	0x8
 2747 03e5 63       		.byte	0x63
 2748 03e6 81030000 		.4byte	0x381
 2749 03ea 02       		.byte	0x2
 2750 03eb 23       		.byte	0x23
 2751 03ec 0C       		.uleb128 0xc
ARM GAS  /tmp/cciE3hUa.s 			page 52


 2752 03ed 06       		.uleb128 0x6
 2753 03ee 22050000 		.4byte	.LASF59
 2754 03f2 08       		.byte	0x8
 2755 03f3 65       		.byte	0x65
 2756 03f4 BC020000 		.4byte	0x2bc
 2757 03f8 02       		.byte	0x2
 2758 03f9 23       		.byte	0x23
 2759 03fa 10       		.uleb128 0x10
 2760 03fb 00       		.byte	0
 2761 03fc 09       		.uleb128 0x9
 2762 03fd 04       		.byte	0x4
 2763 03fe 9E030000 		.4byte	0x39e
 2764 0402 0F       		.uleb128 0xf
 2765 0403 05010000 		.4byte	0x105
 2766 0407 08       		.uleb128 0x8
 2767 0408 1C       		.byte	0x1c
 2768 0409 09       		.byte	0x9
 2769 040a 57       		.byte	0x57
 2770 040b 64040000 		.4byte	0x464
 2771 040f 06       		.uleb128 0x6
 2772 0410 B0040000 		.4byte	.LASF60
 2773 0414 09       		.byte	0x9
 2774 0415 58       		.byte	0x58
 2775 0416 84020000 		.4byte	0x284
 2776 041a 02       		.byte	0x2
 2777 041b 23       		.byte	0x23
 2778 041c 00       		.uleb128 0
 2779 041d 06       		.uleb128 0x6
 2780 041e 46040000 		.4byte	.LASF61
 2781 0422 09       		.byte	0x9
 2782 0423 59       		.byte	0x59
 2783 0424 E4000000 		.4byte	0xe4
 2784 0428 02       		.byte	0x2
 2785 0429 23       		.byte	0x23
 2786 042a 08       		.uleb128 0x8
 2787 042b 06       		.uleb128 0x6
 2788 042c 90030000 		.4byte	.LASF62
 2789 0430 09       		.byte	0x9
 2790 0431 5B       		.byte	0x5b
 2791 0432 57030000 		.4byte	0x357
 2792 0436 02       		.byte	0x2
 2793 0437 23       		.byte	0x23
 2794 0438 0C       		.uleb128 0xc
 2795 0439 06       		.uleb128 0x6
 2796 043a FE000000 		.4byte	.LASF63
 2797 043e 09       		.byte	0x9
 2798 043f 5E       		.byte	0x5e
 2799 0440 7E020000 		.4byte	0x27e
 2800 0444 02       		.byte	0x2
 2801 0445 23       		.byte	0x23
 2802 0446 10       		.uleb128 0x10
 2803 0447 06       		.uleb128 0x6
 2804 0448 C3030000 		.4byte	.LASF64
 2805 044c 09       		.byte	0x9
 2806 044d 5F       		.byte	0x5f
 2807 044e 7E020000 		.4byte	0x27e
 2808 0452 02       		.byte	0x2
ARM GAS  /tmp/cciE3hUa.s 			page 53


 2809 0453 23       		.byte	0x23
 2810 0454 14       		.uleb128 0x14
 2811 0455 06       		.uleb128 0x6
 2812 0456 B9030000 		.4byte	.LASF65
 2813 045a 09       		.byte	0x9
 2814 045b 62       		.byte	0x62
 2815 045c 7E020000 		.4byte	0x27e
 2816 0460 02       		.byte	0x2
 2817 0461 23       		.byte	0x23
 2818 0462 18       		.uleb128 0x18
 2819 0463 00       		.byte	0
 2820 0464 03       		.uleb128 0x3
 2821 0465 40050000 		.4byte	.LASF66
 2822 0469 09       		.byte	0x9
 2823 046a 64       		.byte	0x64
 2824 046b 07040000 		.4byte	0x407
 2825 046f 05       		.uleb128 0x5
 2826 0470 29050000 		.4byte	.LASF67
 2827 0474 0C       		.byte	0xc
 2828 0475 0A       		.byte	0xa
 2829 0476 25       		.byte	0x25
 2830 0477 98040000 		.4byte	0x498
 2831 047b 06       		.uleb128 0x6
 2832 047c E9000000 		.4byte	.LASF68
 2833 0480 0A       		.byte	0xa
 2834 0481 26       		.byte	0x26
 2835 0482 84020000 		.4byte	0x284
 2836 0486 02       		.byte	0x2
 2837 0487 23       		.byte	0x23
 2838 0488 00       		.uleb128 0
 2839 0489 06       		.uleb128 0x6
 2840 048a C5010000 		.4byte	.LASF69
 2841 048e 0A       		.byte	0xa
 2842 048f 28       		.byte	0x28
 2843 0490 10010000 		.4byte	0x110
 2844 0494 02       		.byte	0x2
 2845 0495 23       		.byte	0x23
 2846 0496 08       		.uleb128 0x8
 2847 0497 00       		.byte	0
 2848 0498 03       		.uleb128 0x3
 2849 0499 29050000 		.4byte	.LASF67
 2850 049d 0A       		.byte	0xa
 2851 049e 29       		.byte	0x29
 2852 049f 6F040000 		.4byte	0x46f
 2853 04a3 05       		.uleb128 0x5
 2854 04a4 40020000 		.4byte	.LASF70
 2855 04a8 10       		.byte	0x10
 2856 04a9 0B       		.byte	0xb
 2857 04aa 25       		.byte	0x25
 2858 04ab DA040000 		.4byte	0x4da
 2859 04af 06       		.uleb128 0x6
 2860 04b0 89000000 		.4byte	.LASF71
 2861 04b4 0B       		.byte	0xb
 2862 04b5 26       		.byte	0x26
 2863 04b6 84020000 		.4byte	0x284
 2864 04ba 02       		.byte	0x2
 2865 04bb 23       		.byte	0x23
ARM GAS  /tmp/cciE3hUa.s 			page 54


 2866 04bc 00       		.uleb128 0
 2867 04bd 06       		.uleb128 0x6
 2868 04be 9B050000 		.4byte	.LASF72
 2869 04c2 0B       		.byte	0xb
 2870 04c3 28       		.byte	0x28
 2871 04c4 7E020000 		.4byte	0x27e
 2872 04c8 02       		.byte	0x2
 2873 04c9 23       		.byte	0x23
 2874 04ca 08       		.uleb128 0x8
 2875 04cb 06       		.uleb128 0x6
 2876 04cc D7040000 		.4byte	.LASF73
 2877 04d0 0B       		.byte	0xb
 2878 04d1 2A       		.byte	0x2a
 2879 04d2 DA040000 		.4byte	0x4da
 2880 04d6 02       		.byte	0x2
 2881 04d7 23       		.byte	0x23
 2882 04d8 0C       		.uleb128 0xc
 2883 04d9 00       		.byte	0
 2884 04da 09       		.uleb128 0x9
 2885 04db 04       		.byte	0x4
 2886 04dc A3040000 		.4byte	0x4a3
 2887 04e0 03       		.uleb128 0x3
 2888 04e1 40020000 		.4byte	.LASF70
 2889 04e5 0B       		.byte	0xb
 2890 04e6 2C       		.byte	0x2c
 2891 04e7 A3040000 		.4byte	0x4a3
 2892 04eb 10       		.uleb128 0x10
 2893 04ec 04       		.byte	0x4
 2894 04ed 06       		.byte	0x6
 2895 04ee 8F       		.byte	0x8f
 2896 04ef 20050000 		.4byte	0x520
 2897 04f3 11       		.uleb128 0x11
 2898 04f4 12000000 		.4byte	.LASF74
 2899 04f8 06       		.byte	0x6
 2900 04f9 96       		.byte	0x96
 2901 04fa EF000000 		.4byte	0xef
 2902 04fe 11       		.uleb128 0x11
 2903 04ff 39000000 		.4byte	.LASF75
 2904 0503 06       		.byte	0x6
 2905 0504 9D       		.byte	0x9d
 2906 0505 EF000000 		.4byte	0xef
 2907 0509 11       		.uleb128 0x11
 2908 050a 61050000 		.4byte	.LASF76
 2909 050e 06       		.byte	0x6
 2910 050f A4       		.byte	0xa4
 2911 0510 BC020000 		.4byte	0x2bc
 2912 0514 11       		.uleb128 0x11
 2913 0515 4D040000 		.4byte	.LASF77
 2914 0519 06       		.byte	0x6
 2915 051a AB       		.byte	0xab
 2916 051b FA000000 		.4byte	0xfa
 2917 051f 00       		.byte	0
 2918 0520 09       		.uleb128 0x9
 2919 0521 04       		.byte	0x4
 2920 0522 26050000 		.4byte	0x526
 2921 0526 12       		.uleb128 0x12
 2922 0527 2B050000 		.4byte	0x52b
ARM GAS  /tmp/cciE3hUa.s 			page 55


 2923 052b 04       		.uleb128 0x4
 2924 052c 01       		.byte	0x1
 2925 052d 08       		.byte	0x8
 2926 052e C5040000 		.4byte	.LASF78
 2927 0532 09       		.uleb128 0x9
 2928 0533 04       		.byte	0x4
 2929 0534 BE020000 		.4byte	0x2be
 2930 0538 09       		.uleb128 0x9
 2931 0539 04       		.byte	0x4
 2932 053a E0040000 		.4byte	0x4e0
 2933 053e 03       		.uleb128 0x3
 2934 053f AD020000 		.4byte	.LASF79
 2935 0543 0C       		.byte	0xc
 2936 0544 30       		.byte	0x30
 2937 0545 49050000 		.4byte	0x549
 2938 0549 05       		.uleb128 0x5
 2939 054a AD020000 		.4byte	.LASF79
 2940 054e 24       		.byte	0x24
 2941 054f 0C       		.byte	0xc
 2942 0550 3E       		.byte	0x3e
 2943 0551 C6050000 		.4byte	0x5c6
 2944 0555 06       		.uleb128 0x6
 2945 0556 56000000 		.4byte	.LASF80
 2946 055a 0C       		.byte	0xc
 2947 055b 3F       		.byte	0x3f
 2948 055c 84020000 		.4byte	0x284
 2949 0560 02       		.byte	0x2
 2950 0561 23       		.byte	0x23
 2951 0562 00       		.uleb128 0
 2952 0563 06       		.uleb128 0x6
 2953 0564 06030000 		.4byte	.LASF81
 2954 0568 0C       		.byte	0xc
 2955 0569 40       		.byte	0x40
 2956 056a 30000000 		.4byte	0x30
 2957 056e 02       		.byte	0x2
 2958 056f 23       		.byte	0x23
 2959 0570 08       		.uleb128 0x8
 2960 0571 06       		.uleb128 0x6
 2961 0572 D0000000 		.4byte	.LASF82
 2962 0576 0C       		.byte	0xc
 2963 0577 41       		.byte	0x41
 2964 0578 E9050000 		.4byte	0x5e9
 2965 057c 02       		.byte	0x2
 2966 057d 23       		.byte	0x23
 2967 057e 0C       		.uleb128 0xc
 2968 057f 06       		.uleb128 0x6
 2969 0580 33050000 		.4byte	.LASF83
 2970 0584 0C       		.byte	0xc
 2971 0585 42       		.byte	0x42
 2972 0586 E9050000 		.4byte	0x5e9
 2973 058a 02       		.byte	0x2
 2974 058b 23       		.byte	0x23
 2975 058c 10       		.uleb128 0x10
 2976 058d 06       		.uleb128 0x6
 2977 058e D9000000 		.4byte	.LASF84
 2978 0592 0C       		.byte	0xc
 2979 0593 44       		.byte	0x44
ARM GAS  /tmp/cciE3hUa.s 			page 56


 2980 0594 E9050000 		.4byte	0x5e9
 2981 0598 02       		.byte	0x2
 2982 0599 23       		.byte	0x23
 2983 059a 14       		.uleb128 0x14
 2984 059b 06       		.uleb128 0x6
 2985 059c F4030000 		.4byte	.LASF85
 2986 05a0 0C       		.byte	0xc
 2987 05a1 45       		.byte	0x45
 2988 05a2 E9050000 		.4byte	0x5e9
 2989 05a6 02       		.byte	0x2
 2990 05a7 23       		.byte	0x23
 2991 05a8 18       		.uleb128 0x18
 2992 05a9 06       		.uleb128 0x6
 2993 05aa 4A050000 		.4byte	.LASF86
 2994 05ae 0C       		.byte	0xc
 2995 05af 46       		.byte	0x46
 2996 05b0 C6050000 		.4byte	0x5c6
 2997 05b4 02       		.byte	0x2
 2998 05b5 23       		.byte	0x23
 2999 05b6 1C       		.uleb128 0x1c
 3000 05b7 06       		.uleb128 0x6
 3001 05b8 94050000 		.4byte	.LASF87
 3002 05bc 0C       		.byte	0xc
 3003 05bd 47       		.byte	0x47
 3004 05be BC020000 		.4byte	0x2bc
 3005 05c2 02       		.byte	0x2
 3006 05c3 23       		.byte	0x23
 3007 05c4 20       		.uleb128 0x20
 3008 05c5 00       		.byte	0
 3009 05c6 03       		.uleb128 0x3
 3010 05c7 D3030000 		.4byte	.LASF88
 3011 05cb 0C       		.byte	0xc
 3012 05cc 33       		.byte	0x33
 3013 05cd D1050000 		.4byte	0x5d1
 3014 05d1 09       		.uleb128 0x9
 3015 05d2 04       		.byte	0x4
 3016 05d3 D7050000 		.4byte	0x5d7
 3017 05d7 0D       		.uleb128 0xd
 3018 05d8 01       		.byte	0x1
 3019 05d9 E3050000 		.4byte	0x5e3
 3020 05dd 0E       		.uleb128 0xe
 3021 05de E3050000 		.4byte	0x5e3
 3022 05e2 00       		.byte	0
 3023 05e3 09       		.uleb128 0x9
 3024 05e4 04       		.byte	0x4
 3025 05e5 3E050000 		.4byte	0x53e
 3026 05e9 09       		.uleb128 0x9
 3027 05ea 04       		.byte	0x4
 3028 05eb 49000000 		.4byte	0x49
 3029 05ef 03       		.uleb128 0x3
 3030 05f0 35020000 		.4byte	.LASF89
 3031 05f4 0C       		.byte	0xc
 3032 05f5 7B       		.byte	0x7b
 3033 05f6 3E050000 		.4byte	0x53e
 3034 05fa 05       		.uleb128 0x5
 3035 05fb 89040000 		.4byte	.LASF90
 3036 05ff 10       		.byte	0x10
ARM GAS  /tmp/cciE3hUa.s 			page 57


 3037 0600 0D       		.byte	0xd
 3038 0601 3B       		.byte	0x3b
 3039 0602 3F060000 		.4byte	0x63f
 3040 0606 06       		.uleb128 0x6
 3041 0607 C0010000 		.4byte	.LASF91
 3042 060b 0D       		.byte	0xd
 3043 060c 3C       		.byte	0x3c
 3044 060d 20050000 		.4byte	0x520
 3045 0611 02       		.byte	0x2
 3046 0612 23       		.byte	0x23
 3047 0613 00       		.uleb128 0
 3048 0614 06       		.uleb128 0x6
 3049 0615 B3030000 		.4byte	.LASF92
 3050 0619 0D       		.byte	0xd
 3051 061a 3D       		.byte	0x3d
 3052 061b 41060000 		.4byte	0x641
 3053 061f 02       		.byte	0x2
 3054 0620 23       		.byte	0x23
 3055 0621 04       		.uleb128 0x4
 3056 0622 06       		.uleb128 0x6
 3057 0623 91010000 		.4byte	.LASF93
 3058 0627 0D       		.byte	0xd
 3059 0628 3E       		.byte	0x3e
 3060 0629 41060000 		.4byte	0x641
 3061 062d 02       		.byte	0x2
 3062 062e 23       		.byte	0x23
 3063 062f 08       		.uleb128 0x8
 3064 0630 06       		.uleb128 0x6
 3065 0631 E4030000 		.4byte	.LASF94
 3066 0635 0D       		.byte	0xd
 3067 0636 3F       		.byte	0x3f
 3068 0637 41060000 		.4byte	0x641
 3069 063b 02       		.byte	0x2
 3070 063c 23       		.byte	0x23
 3071 063d 0C       		.uleb128 0xc
 3072 063e 00       		.byte	0
 3073 063f 13       		.uleb128 0x13
 3074 0640 01       		.byte	0x1
 3075 0641 09       		.uleb128 0x9
 3076 0642 04       		.byte	0x4
 3077 0643 3F060000 		.4byte	0x63f
 3078 0647 14       		.uleb128 0x14
 3079 0648 48030000 		.4byte	.LASF95
 3080 064c 01       		.byte	0x1
 3081 064d 40       		.byte	0x40
 3082 064e 01       		.byte	0x1
 3083 064f EF000000 		.4byte	0xef
 3084 0653 00000000 		.4byte	.LFB7
 3085 0657 2A000000 		.4byte	.LFE7
 3086 065b 00000000 		.4byte	.LLST0
 3087 065f 01       		.byte	0x1
 3088 0660 8C060000 		.4byte	0x68c
 3089 0664 15       		.uleb128 0x15
 3090 0665 7000     		.ascii	"p\000"
 3091 0667 01       		.byte	0x1
 3092 0668 40       		.byte	0x40
 3093 0669 BC020000 		.4byte	0x2bc
ARM GAS  /tmp/cciE3hUa.s 			page 58


 3094 066d 02       		.byte	0x2
 3095 066e 91       		.byte	0x91
 3096 066f 6C       		.sleb128 -20
 3097 0670 16       		.uleb128 0x16
 3098 0671 747000   		.ascii	"tp\000"
 3099 0674 01       		.byte	0x1
 3100 0675 41       		.byte	0x41
 3101 0676 7E020000 		.4byte	0x27e
 3102 067a 02       		.byte	0x2
 3103 067b 91       		.byte	0x91
 3104 067c 74       		.sleb128 -12
 3105 067d 16       		.uleb128 0x16
 3106 067e 6D736700 		.ascii	"msg\000"
 3107 0682 01       		.byte	0x1
 3108 0683 42       		.byte	0x42
 3109 0684 EF000000 		.4byte	0xef
 3110 0688 02       		.byte	0x2
 3111 0689 91       		.byte	0x91
 3112 068a 70       		.sleb128 -16
 3113 068b 00       		.byte	0
 3114 068c 14       		.uleb128 0x14
 3115 068d 99000000 		.4byte	.LASF96
 3116 0691 01       		.byte	0x1
 3117 0692 50       		.byte	0x50
 3118 0693 01       		.byte	0x1
 3119 0694 3B000000 		.4byte	0x3b
 3120 0698 00000000 		.4byte	.LFB8
 3121 069c 50000000 		.4byte	.LFE8
 3122 06a0 2C000000 		.4byte	.LLST1
 3123 06a4 01       		.byte	0x1
 3124 06a5 C3060000 		.4byte	0x6c3
 3125 06a9 15       		.uleb128 0x15
 3126 06aa 747000   		.ascii	"tp\000"
 3127 06ad 01       		.byte	0x1
 3128 06ae 50       		.byte	0x50
 3129 06af 7E020000 		.4byte	0x27e
 3130 06b3 02       		.byte	0x2
 3131 06b4 91       		.byte	0x91
 3132 06b5 6C       		.sleb128 -20
 3133 06b6 16       		.uleb128 0x16
 3134 06b7 6E00     		.ascii	"n\000"
 3135 06b9 01       		.byte	0x1
 3136 06ba 52       		.byte	0x52
 3137 06bb 7B000000 		.4byte	0x7b
 3138 06bf 02       		.byte	0x2
 3139 06c0 91       		.byte	0x91
 3140 06c1 74       		.sleb128 -12
 3141 06c2 00       		.byte	0
 3142 06c3 17       		.uleb128 0x17
 3143 06c4 C3000000 		.4byte	.LASF97
 3144 06c8 01       		.byte	0x1
 3145 06c9 69       		.byte	0x69
 3146 06ca 01       		.byte	0x1
 3147 06cb 00000000 		.4byte	.LFB9
 3148 06cf 94000000 		.4byte	.LFE9
 3149 06d3 58000000 		.4byte	.LLST2
 3150 06d7 01       		.byte	0x1
ARM GAS  /tmp/cciE3hUa.s 			page 59


 3151 06d8 E9060000 		.4byte	0x6e9
 3152 06dc 16       		.uleb128 0x16
 3153 06dd 6E00     		.ascii	"n\000"
 3154 06df 01       		.byte	0x1
 3155 06e0 6A       		.byte	0x6a
 3156 06e1 7B000000 		.4byte	0x7b
 3157 06e5 02       		.byte	0x2
 3158 06e6 91       		.byte	0x91
 3159 06e7 74       		.sleb128 -12
 3160 06e8 00       		.byte	0
 3161 06e9 17       		.uleb128 0x17
 3162 06ea B3010000 		.4byte	.LASF98
 3163 06ee 01       		.byte	0x1
 3164 06ef 86       		.byte	0x86
 3165 06f0 01       		.byte	0x1
 3166 06f1 00000000 		.4byte	.LFB10
 3167 06f5 94000000 		.4byte	.LFE10
 3168 06f9 84000000 		.4byte	.LLST3
 3169 06fd 01       		.byte	0x1
 3170 06fe 0F070000 		.4byte	0x70f
 3171 0702 16       		.uleb128 0x16
 3172 0703 6E00     		.ascii	"n\000"
 3173 0705 01       		.byte	0x1
 3174 0706 87       		.byte	0x87
 3175 0707 7B000000 		.4byte	0x7b
 3176 070b 02       		.byte	0x2
 3177 070c 91       		.byte	0x91
 3178 070d 74       		.sleb128 -12
 3179 070e 00       		.byte	0
 3180 070f 18       		.uleb128 0x18
 3181 0710 CF040000 		.4byte	.LASF99
 3182 0714 01       		.byte	0x1
 3183 0715 9A       		.byte	0x9a
 3184 0716 01       		.byte	0x1
 3185 0717 EF000000 		.4byte	0xef
 3186 071b 00000000 		.4byte	.LFB11
 3187 071f 0C000000 		.4byte	.LFE11
 3188 0723 B0000000 		.4byte	.LLST4
 3189 0727 01       		.byte	0x1
 3190 0728 39070000 		.4byte	0x739
 3191 072c 15       		.uleb128 0x15
 3192 072d 7000     		.ascii	"p\000"
 3193 072f 01       		.byte	0x1
 3194 0730 9A       		.byte	0x9a
 3195 0731 BC020000 		.4byte	0x2bc
 3196 0735 02       		.byte	0x2
 3197 0736 91       		.byte	0x91
 3198 0737 7C       		.sleb128 -4
 3199 0738 00       		.byte	0
 3200 0739 17       		.uleb128 0x17
 3201 073a 18030000 		.4byte	.LASF100
 3202 073e 01       		.byte	0x1
 3203 073f A9       		.byte	0xa9
 3204 0740 01       		.byte	0x1
 3205 0741 00000000 		.4byte	.LFB12
 3206 0745 94010000 		.4byte	.LFE12
 3207 0749 D0000000 		.4byte	.LLST5
ARM GAS  /tmp/cciE3hUa.s 			page 60


 3208 074d 01       		.byte	0x1
 3209 074e 5F070000 		.4byte	0x75f
 3210 0752 16       		.uleb128 0x16
 3211 0753 6E00     		.ascii	"n\000"
 3212 0755 01       		.byte	0x1
 3213 0756 AA       		.byte	0xaa
 3214 0757 7B000000 		.4byte	0x7b
 3215 075b 02       		.byte	0x2
 3216 075c 91       		.byte	0x91
 3217 075d 74       		.sleb128 -12
 3218 075e 00       		.byte	0
 3219 075f 19       		.uleb128 0x19
 3220 0760 01       		.byte	0x1
 3221 0761 96030000 		.4byte	.LASF141
 3222 0765 01       		.byte	0x1
 3223 0766 CB       		.byte	0xcb
 3224 0767 01       		.byte	0x1
 3225 0768 EF000000 		.4byte	0xef
 3226 076c 00000000 		.4byte	.LFB13
 3227 0770 48000000 		.4byte	.LFE13
 3228 0774 FC000000 		.4byte	.LLST6
 3229 0778 01       		.byte	0x1
 3230 0779 D8070000 		.4byte	0x7d8
 3231 077d 15       		.uleb128 0x15
 3232 077e 7000     		.ascii	"p\000"
 3233 0780 01       		.byte	0x1
 3234 0781 CB       		.byte	0xcb
 3235 0782 BC020000 		.4byte	0x2bc
 3236 0786 02       		.byte	0x2
 3237 0787 91       		.byte	0x91
 3238 0788 6C       		.sleb128 -20
 3239 0789 16       		.uleb128 0x16
 3240 078a 6D736700 		.ascii	"msg\000"
 3241 078e 01       		.byte	0x1
 3242 078f CC       		.byte	0xcc
 3243 0790 EF000000 		.4byte	0xef
 3244 0794 02       		.byte	0x2
 3245 0795 91       		.byte	0x91
 3246 0796 70       		.sleb128 -16
 3247 0797 1A       		.uleb128 0x1a
 3248 0798 CA040000 		.4byte	.LASF101
 3249 079c 01       		.byte	0x1
 3250 079d CD       		.byte	0xcd
 3251 079e 7E020000 		.4byte	0x27e
 3252 07a2 02       		.byte	0x2
 3253 07a3 91       		.byte	0x91
 3254 07a4 74       		.sleb128 -12
 3255 07a5 1B       		.uleb128 0x1b
 3256 07a6 12000000 		.4byte	.LBB2
 3257 07aa 1A000000 		.4byte	.LBE2
 3258 07ae C0070000 		.4byte	0x7c0
 3259 07b2 16       		.uleb128 0x16
 3260 07b3 746D7000 		.ascii	"tmp\000"
 3261 07b7 01       		.byte	0x1
 3262 07b8 D0       		.byte	0xd0
 3263 07b9 7B000000 		.4byte	0x7b
 3264 07bd 01       		.byte	0x1
ARM GAS  /tmp/cciE3hUa.s 			page 61


 3265 07be 53       		.byte	0x53
 3266 07bf 00       		.byte	0
 3267 07c0 1C       		.uleb128 0x1c
 3268 07c1 36000000 		.4byte	.LBB3
 3269 07c5 3E000000 		.4byte	.LBE3
 3270 07c9 16       		.uleb128 0x16
 3271 07ca 746D7000 		.ascii	"tmp\000"
 3272 07ce 01       		.byte	0x1
 3273 07cf D5       		.byte	0xd5
 3274 07d0 7B000000 		.4byte	0x7b
 3275 07d4 01       		.byte	0x1
 3276 07d5 53       		.byte	0x53
 3277 07d6 00       		.byte	0
 3278 07d7 00       		.byte	0
 3279 07d8 17       		.uleb128 0x17
 3280 07d9 7A050000 		.4byte	.LASF102
 3281 07dd 01       		.byte	0x1
 3282 07de D9       		.byte	0xd9
 3283 07df 01       		.byte	0x1
 3284 07e0 00000000 		.4byte	.LFB14
 3285 07e4 0C010000 		.4byte	.LFE14
 3286 07e8 28010000 		.4byte	.LLST7
 3287 07ec 01       		.byte	0x1
 3288 07ed 73080000 		.4byte	0x873
 3289 07f1 16       		.uleb128 0x16
 3290 07f2 747000   		.ascii	"tp\000"
 3291 07f5 01       		.byte	0x1
 3292 07f6 DA       		.byte	0xda
 3293 07f7 7E020000 		.4byte	0x27e
 3294 07fb 02       		.byte	0x2
 3295 07fc 91       		.byte	0x91
 3296 07fd 70       		.sleb128 -16
 3297 07fe 16       		.uleb128 0x16
 3298 07ff 6E00     		.ascii	"n\000"
 3299 0801 01       		.byte	0x1
 3300 0802 DB       		.byte	0xdb
 3301 0803 7B000000 		.4byte	0x7b
 3302 0807 02       		.byte	0x2
 3303 0808 91       		.byte	0x91
 3304 0809 74       		.sleb128 -12
 3305 080a 1B       		.uleb128 0x1b
 3306 080b 62000000 		.4byte	.LBB4
 3307 080f 6A000000 		.4byte	.LBE4
 3308 0813 25080000 		.4byte	0x825
 3309 0817 16       		.uleb128 0x16
 3310 0818 746D7000 		.ascii	"tmp\000"
 3311 081c 01       		.byte	0x1
 3312 081d E2       		.byte	0xe2
 3313 081e 7B000000 		.4byte	0x7b
 3314 0822 01       		.byte	0x1
 3315 0823 53       		.byte	0x53
 3316 0824 00       		.byte	0
 3317 0825 1B       		.uleb128 0x1b
 3318 0826 9A000000 		.4byte	.LBB5
 3319 082a A2000000 		.4byte	.LBE5
 3320 082e 40080000 		.4byte	0x840
 3321 0832 16       		.uleb128 0x16
ARM GAS  /tmp/cciE3hUa.s 			page 62


 3322 0833 746D7000 		.ascii	"tmp\000"
 3323 0837 01       		.byte	0x1
 3324 0838 E7       		.byte	0xe7
 3325 0839 7B000000 		.4byte	0x7b
 3326 083d 01       		.byte	0x1
 3327 083e 53       		.byte	0x53
 3328 083f 00       		.byte	0
 3329 0840 1B       		.uleb128 0x1b
 3330 0841 BE000000 		.4byte	.LBB6
 3331 0845 C6000000 		.4byte	.LBE6
 3332 0849 5B080000 		.4byte	0x85b
 3333 084d 16       		.uleb128 0x16
 3334 084e 746D7000 		.ascii	"tmp\000"
 3335 0852 01       		.byte	0x1
 3336 0853 ED       		.byte	0xed
 3337 0854 7B000000 		.4byte	0x7b
 3338 0858 01       		.byte	0x1
 3339 0859 53       		.byte	0x53
 3340 085a 00       		.byte	0
 3341 085b 1C       		.uleb128 0x1c
 3342 085c D8000000 		.4byte	.LBB7
 3343 0860 E0000000 		.4byte	.LBE7
 3344 0864 16       		.uleb128 0x16
 3345 0865 746D7000 		.ascii	"tmp\000"
 3346 0869 01       		.byte	0x1
 3347 086a EF       		.byte	0xef
 3348 086b 7B000000 		.4byte	0x7b
 3349 086f 01       		.byte	0x1
 3350 0870 53       		.byte	0x53
 3351 0871 00       		.byte	0
 3352 0872 00       		.byte	0
 3353 0873 1D       		.uleb128 0x1d
 3354 0874 FC040000 		.4byte	.LASF103
 3355 0878 01       		.byte	0x1
 3356 0879 0901     		.2byte	0x109
 3357 087b 01       		.byte	0x1
 3358 087c 00000000 		.4byte	.LFB15
 3359 0880 94000000 		.4byte	.LFE15
 3360 0884 54010000 		.4byte	.LLST8
 3361 0888 01       		.byte	0x1
 3362 0889 B9080000 		.4byte	0x8b9
 3363 088d 1E       		.uleb128 0x1e
 3364 088e 6E00     		.ascii	"n\000"
 3365 0890 01       		.byte	0x1
 3366 0891 0B01     		.2byte	0x10b
 3367 0893 7B000000 		.4byte	0x7b
 3368 0897 02       		.byte	0x2
 3369 0898 91       		.byte	0x91
 3370 0899 74       		.sleb128 -12
 3371 089a 1E       		.uleb128 0x1e
 3372 089b 77617000 		.ascii	"wap\000"
 3373 089f 01       		.byte	0x1
 3374 08a0 0C01     		.2byte	0x10c
 3375 08a2 BC020000 		.4byte	0x2bc
 3376 08a6 02       		.byte	0x2
 3377 08a7 91       		.byte	0x91
 3378 08a8 70       		.sleb128 -16
ARM GAS  /tmp/cciE3hUa.s 			page 63


 3379 08a9 1F       		.uleb128 0x1f
 3380 08aa 0D000000 		.4byte	.LASF104
 3381 08ae 01       		.byte	0x1
 3382 08af 0D01     		.2byte	0x10d
 3383 08b1 E4000000 		.4byte	0xe4
 3384 08b5 02       		.byte	0x2
 3385 08b6 91       		.byte	0x91
 3386 08b7 6C       		.sleb128 -20
 3387 08b8 00       		.byte	0
 3388 08b9 1D       		.uleb128 0x1d
 3389 08ba 87050000 		.4byte	.LASF105
 3390 08be 01       		.byte	0x1
 3391 08bf 3001     		.2byte	0x130
 3392 08c1 01       		.byte	0x1
 3393 08c2 00000000 		.4byte	.LFB16
 3394 08c6 8C000000 		.4byte	.LFE16
 3395 08ca 80010000 		.4byte	.LLST9
 3396 08ce 01       		.byte	0x1
 3397 08cf FF080000 		.4byte	0x8ff
 3398 08d3 1E       		.uleb128 0x1e
 3399 08d4 6E00     		.ascii	"n\000"
 3400 08d6 01       		.byte	0x1
 3401 08d7 3201     		.2byte	0x132
 3402 08d9 7B000000 		.4byte	0x7b
 3403 08dd 02       		.byte	0x2
 3404 08de 91       		.byte	0x91
 3405 08df 74       		.sleb128 -12
 3406 08e0 1E       		.uleb128 0x1e
 3407 08e1 77617000 		.ascii	"wap\000"
 3408 08e5 01       		.byte	0x1
 3409 08e6 3301     		.2byte	0x133
 3410 08e8 BC020000 		.4byte	0x2bc
 3411 08ec 02       		.byte	0x2
 3412 08ed 91       		.byte	0x91
 3413 08ee 70       		.sleb128 -16
 3414 08ef 1F       		.uleb128 0x1f
 3415 08f0 0D000000 		.4byte	.LASF104
 3416 08f4 01       		.byte	0x1
 3417 08f5 3401     		.2byte	0x134
 3418 08f7 E4000000 		.4byte	0xe4
 3419 08fb 02       		.byte	0x2
 3420 08fc 91       		.byte	0x91
 3421 08fd 6C       		.sleb128 -20
 3422 08fe 00       		.byte	0
 3423 08ff 20       		.uleb128 0x20
 3424 0900 91000000 		.4byte	.LASF106
 3425 0904 01       		.byte	0x1
 3426 0905 5501     		.2byte	0x155
 3427 0907 01       		.byte	0x1
 3428 0908 EF000000 		.4byte	0xef
 3429 090c 00000000 		.4byte	.LFB17
 3430 0910 34000000 		.4byte	.LFE17
 3431 0914 AC010000 		.4byte	.LLST10
 3432 0918 01       		.byte	0x1
 3433 0919 2B090000 		.4byte	0x92b
 3434 091d 21       		.uleb128 0x21
 3435 091e 7000     		.ascii	"p\000"
ARM GAS  /tmp/cciE3hUa.s 			page 64


 3436 0920 01       		.byte	0x1
 3437 0921 5501     		.2byte	0x155
 3438 0923 BC020000 		.4byte	0x2bc
 3439 0927 02       		.byte	0x2
 3440 0928 91       		.byte	0x91
 3441 0929 74       		.sleb128 -12
 3442 092a 00       		.byte	0
 3443 092b 22       		.uleb128 0x22
 3444 092c 6F050000 		.4byte	.LASF113
 3445 0930 01       		.byte	0x1
 3446 0931 5D01     		.2byte	0x15d
 3447 0933 01       		.byte	0x1
 3448 0934 00000000 		.4byte	.LFB18
 3449 0938 14000000 		.4byte	.LFE18
 3450 093c D8010000 		.4byte	.LLST11
 3451 0940 01       		.byte	0x1
 3452 0941 1D       		.uleb128 0x1d
 3453 0942 42000000 		.4byte	.LASF107
 3454 0946 01       		.byte	0x1
 3455 0947 6201     		.2byte	0x162
 3456 0949 01       		.byte	0x1
 3457 094a 00000000 		.4byte	.LFB19
 3458 094e DC010000 		.4byte	.LFE19
 3459 0952 F8010000 		.4byte	.LLST12
 3460 0956 01       		.byte	0x1
 3461 0957 69090000 		.4byte	0x969
 3462 095b 1E       		.uleb128 0x1e
 3463 095c 6E00     		.ascii	"n\000"
 3464 095e 01       		.byte	0x1
 3465 095f 6301     		.2byte	0x163
 3466 0961 7B000000 		.4byte	0x7b
 3467 0965 02       		.byte	0x2
 3468 0966 91       		.byte	0x91
 3469 0967 74       		.sleb128 -12
 3470 0968 00       		.byte	0
 3471 0969 20       		.uleb128 0x20
 3472 096a AB030000 		.4byte	.LASF108
 3473 096e 01       		.byte	0x1
 3474 096f 9101     		.2byte	0x191
 3475 0971 01       		.byte	0x1
 3476 0972 EF000000 		.4byte	0xef
 3477 0976 00000000 		.4byte	.LFB20
 3478 097a 42000000 		.4byte	.LFE20
 3479 097e 24020000 		.4byte	.LLST13
 3480 0982 01       		.byte	0x1
 3481 0983 95090000 		.4byte	0x995
 3482 0987 21       		.uleb128 0x21
 3483 0988 7000     		.ascii	"p\000"
 3484 098a 01       		.byte	0x1
 3485 098b 9101     		.2byte	0x191
 3486 098d BC020000 		.4byte	0x2bc
 3487 0991 02       		.byte	0x2
 3488 0992 91       		.byte	0x91
 3489 0993 74       		.sleb128 -12
 3490 0994 00       		.byte	0
 3491 0995 1D       		.uleb128 0x1d
 3492 0996 F1000000 		.4byte	.LASF109
ARM GAS  /tmp/cciE3hUa.s 			page 65


 3493 099a 01       		.byte	0x1
 3494 099b A001     		.2byte	0x1a0
 3495 099d 01       		.byte	0x1
 3496 099e 00000000 		.4byte	.LFB21
 3497 09a2 78010000 		.4byte	.LFE21
 3498 09a6 50020000 		.4byte	.LLST14
 3499 09aa 01       		.byte	0x1
 3500 09ab BD090000 		.4byte	0x9bd
 3501 09af 1E       		.uleb128 0x1e
 3502 09b0 6E00     		.ascii	"n\000"
 3503 09b2 01       		.byte	0x1
 3504 09b3 A101     		.2byte	0x1a1
 3505 09b5 7B000000 		.4byte	0x7b
 3506 09b9 02       		.byte	0x2
 3507 09ba 91       		.byte	0x91
 3508 09bb 74       		.sleb128 -12
 3509 09bc 00       		.byte	0
 3510 09bd 1D       		.uleb128 0x1d
 3511 09be F1010000 		.4byte	.LASF110
 3512 09c2 01       		.byte	0x1
 3513 09c3 C701     		.2byte	0x1c7
 3514 09c5 01       		.byte	0x1
 3515 09c6 00000000 		.4byte	.LFB22
 3516 09ca 14010000 		.4byte	.LFE22
 3517 09ce 7C020000 		.4byte	.LLST15
 3518 09d2 01       		.byte	0x1
 3519 09d3 3B0A0000 		.4byte	0xa3b
 3520 09d7 1E       		.uleb128 0x1e
 3521 09d8 6E00     		.ascii	"n\000"
 3522 09da 01       		.byte	0x1
 3523 09db C801     		.2byte	0x1c8
 3524 09dd 7B000000 		.4byte	0x7b
 3525 09e1 02       		.byte	0x2
 3526 09e2 91       		.byte	0x91
 3527 09e3 74       		.sleb128 -12
 3528 09e4 1E       		.uleb128 0x1e
 3529 09e5 696200   		.ascii	"ib\000"
 3530 09e8 01       		.byte	0x1
 3531 09e9 C901     		.2byte	0x1c9
 3532 09eb 3B0A0000 		.4byte	0xa3b
 3533 09ef 05       		.byte	0x5
 3534 09f0 03       		.byte	0x3
 3535 09f1 00000000 		.4byte	ib.4971
 3536 09f5 1E       		.uleb128 0x1e
 3537 09f6 697100   		.ascii	"iq\000"
 3538 09f9 01       		.byte	0x1
 3539 09fa CA01     		.2byte	0x1ca
 3540 09fc EF050000 		.4byte	0x5ef
 3541 0a00 05       		.byte	0x5
 3542 0a01 03       		.byte	0x3
 3543 0a02 00000000 		.4byte	iq.4972
 3544 0a06 1B       		.uleb128 0x1b
 3545 0a07 38000000 		.4byte	.LBB8
 3546 0a0b 40000000 		.4byte	.LBE8
 3547 0a0f 220A0000 		.4byte	0xa22
 3548 0a13 1E       		.uleb128 0x1e
 3549 0a14 746D7000 		.ascii	"tmp\000"
ARM GAS  /tmp/cciE3hUa.s 			page 66


 3550 0a18 01       		.byte	0x1
 3551 0a19 D101     		.2byte	0x1d1
 3552 0a1b 7B000000 		.4byte	0x7b
 3553 0a1f 01       		.byte	0x1
 3554 0a20 53       		.byte	0x53
 3555 0a21 00       		.byte	0
 3556 0a22 1C       		.uleb128 0x1c
 3557 0a23 88000000 		.4byte	.LBB9
 3558 0a27 90000000 		.4byte	.LBE9
 3559 0a2b 1E       		.uleb128 0x1e
 3560 0a2c 746D7000 		.ascii	"tmp\000"
 3561 0a30 01       		.byte	0x1
 3562 0a31 D601     		.2byte	0x1d6
 3563 0a33 7B000000 		.4byte	0x7b
 3564 0a37 01       		.byte	0x1
 3565 0a38 53       		.byte	0x53
 3566 0a39 00       		.byte	0
 3567 0a3a 00       		.byte	0
 3568 0a3b 23       		.uleb128 0x23
 3569 0a3c 49000000 		.4byte	0x49
 3570 0a40 4B0A0000 		.4byte	0xa4b
 3571 0a44 24       		.uleb128 0x24
 3572 0a45 7A030000 		.4byte	0x37a
 3573 0a49 0F       		.byte	0xf
 3574 0a4a 00       		.byte	0
 3575 0a4b 25       		.uleb128 0x25
 3576 0a4c 746D6F00 		.ascii	"tmo\000"
 3577 0a50 01       		.byte	0x1
 3578 0a51 F601     		.2byte	0x1f6
 3579 0a53 01       		.byte	0x1
 3580 0a54 00000000 		.4byte	.LFB23
 3581 0a58 08000000 		.4byte	.LFE23
 3582 0a5c A8020000 		.4byte	.LLST16
 3583 0a60 01       		.byte	0x1
 3584 0a61 750A0000 		.4byte	0xa75
 3585 0a65 26       		.uleb128 0x26
 3586 0a66 3A030000 		.4byte	.LASF111
 3587 0a6a 01       		.byte	0x1
 3588 0a6b F601     		.2byte	0x1f6
 3589 0a6d BC020000 		.4byte	0x2bc
 3590 0a71 02       		.byte	0x2
 3591 0a72 91       		.byte	0x91
 3592 0a73 7C       		.sleb128 -4
 3593 0a74 00       		.byte	0
 3594 0a75 1D       		.uleb128 0x1d
 3595 0a76 71010000 		.4byte	.LASF112
 3596 0a7a 01       		.byte	0x1
 3597 0a7b F801     		.2byte	0x1f8
 3598 0a7d 01       		.byte	0x1
 3599 0a7e 00000000 		.4byte	.LFB24
 3600 0a82 C2000000 		.4byte	.LFE24
 3601 0a86 C8020000 		.4byte	.LLST17
 3602 0a8a 01       		.byte	0x1
 3603 0a8b F50A0000 		.4byte	0xaf5
 3604 0a8f 1E       		.uleb128 0x1e
 3605 0a90 76743100 		.ascii	"vt1\000"
 3606 0a94 01       		.byte	0x1
ARM GAS  /tmp/cciE3hUa.s 			page 67


 3607 0a95 F901     		.2byte	0x1f9
 3608 0a97 9E030000 		.4byte	0x39e
 3609 0a9b 05       		.byte	0x5
 3610 0a9c 03       		.byte	0x3
 3611 0a9d 00000000 		.4byte	vt1.4984
 3612 0aa1 1E       		.uleb128 0x1e
 3613 0aa2 76743200 		.ascii	"vt2\000"
 3614 0aa6 01       		.byte	0x1
 3615 0aa7 F901     		.2byte	0x1f9
 3616 0aa9 9E030000 		.4byte	0x39e
 3617 0aad 05       		.byte	0x5
 3618 0aae 03       		.byte	0x3
 3619 0aaf 00000000 		.4byte	vt2.4985
 3620 0ab3 1E       		.uleb128 0x1e
 3621 0ab4 6E00     		.ascii	"n\000"
 3622 0ab6 01       		.byte	0x1
 3623 0ab7 FA01     		.2byte	0x1fa
 3624 0ab9 7B000000 		.4byte	0x7b
 3625 0abd 02       		.byte	0x2
 3626 0abe 91       		.byte	0x91
 3627 0abf 74       		.sleb128 -12
 3628 0ac0 1B       		.uleb128 0x1b
 3629 0ac1 16000000 		.4byte	.LBB10
 3630 0ac5 1E000000 		.4byte	.LBE10
 3631 0ac9 DC0A0000 		.4byte	0xadc
 3632 0acd 1E       		.uleb128 0x1e
 3633 0ace 746D7000 		.ascii	"tmp\000"
 3634 0ad2 01       		.byte	0x1
 3635 0ad3 FF01     		.2byte	0x1ff
 3636 0ad5 7B000000 		.4byte	0x7b
 3637 0ad9 01       		.byte	0x1
 3638 0ada 53       		.byte	0x53
 3639 0adb 00       		.byte	0
 3640 0adc 1C       		.uleb128 0x1c
 3641 0add 76000000 		.4byte	.LBB11
 3642 0ae1 7E000000 		.4byte	.LBE11
 3643 0ae5 1E       		.uleb128 0x1e
 3644 0ae6 746D7000 		.ascii	"tmp\000"
 3645 0aea 01       		.byte	0x1
 3646 0aeb 0402     		.2byte	0x204
 3647 0aed 7B000000 		.4byte	0x7b
 3648 0af1 01       		.byte	0x1
 3649 0af2 53       		.byte	0x53
 3650 0af3 00       		.byte	0
 3651 0af4 00       		.byte	0
 3652 0af5 22       		.uleb128 0x22
 3653 0af6 D6020000 		.4byte	.LASF114
 3654 0afa 01       		.byte	0x1
 3655 0afb 2102     		.2byte	0x221
 3656 0afd 01       		.byte	0x1
 3657 0afe 00000000 		.4byte	.LFB25
 3658 0b02 14000000 		.4byte	.LFE25
 3659 0b06 F4020000 		.4byte	.LLST18
 3660 0b0a 01       		.byte	0x1
 3661 0b0b 1D       		.uleb128 0x1d
 3662 0b0c 5B010000 		.4byte	.LASF115
 3663 0b10 01       		.byte	0x1
ARM GAS  /tmp/cciE3hUa.s 			page 68


 3664 0b11 2602     		.2byte	0x226
 3665 0b13 01       		.byte	0x1
 3666 0b14 00000000 		.4byte	.LFB26
 3667 0b18 BA000000 		.4byte	.LFE26
 3668 0b1c 14030000 		.4byte	.LLST19
 3669 0b20 01       		.byte	0x1
 3670 0b21 330B0000 		.4byte	0xb33
 3671 0b25 1E       		.uleb128 0x1e
 3672 0b26 6E00     		.ascii	"n\000"
 3673 0b28 01       		.byte	0x1
 3674 0b29 2702     		.2byte	0x227
 3675 0b2b 7B000000 		.4byte	0x7b
 3676 0b2f 02       		.byte	0x2
 3677 0b30 91       		.byte	0x91
 3678 0b31 74       		.sleb128 -12
 3679 0b32 00       		.byte	0
 3680 0b33 22       		.uleb128 0x22
 3681 0b34 2E030000 		.4byte	.LASF116
 3682 0b38 01       		.byte	0x1
 3683 0b39 5102     		.2byte	0x251
 3684 0b3b 01       		.byte	0x1
 3685 0b3c 00000000 		.4byte	.LFB27
 3686 0b40 10000000 		.4byte	.LFE27
 3687 0b44 40030000 		.4byte	.LLST20
 3688 0b48 01       		.byte	0x1
 3689 0b49 1D       		.uleb128 0x1d
 3690 0b4a 06020000 		.4byte	.LASF117
 3691 0b4e 01       		.byte	0x1
 3692 0b4f 5602     		.2byte	0x256
 3693 0b51 01       		.byte	0x1
 3694 0b52 00000000 		.4byte	.LFB28
 3695 0b56 9A000000 		.4byte	.LFE28
 3696 0b5a 60030000 		.4byte	.LLST21
 3697 0b5e 01       		.byte	0x1
 3698 0b5f 710B0000 		.4byte	0xb71
 3699 0b63 1E       		.uleb128 0x1e
 3700 0b64 6E00     		.ascii	"n\000"
 3701 0b66 01       		.byte	0x1
 3702 0b67 5702     		.2byte	0x257
 3703 0b69 7B000000 		.4byte	0x7b
 3704 0b6d 02       		.byte	0x2
 3705 0b6e 91       		.byte	0x91
 3706 0b6f 74       		.sleb128 -12
 3707 0b70 00       		.byte	0
 3708 0b71 22       		.uleb128 0x22
 3709 0b72 26010000 		.4byte	.LASF118
 3710 0b76 01       		.byte	0x1
 3711 0b77 7D02     		.2byte	0x27d
 3712 0b79 01       		.byte	0x1
 3713 0b7a 00000000 		.4byte	.LFB29
 3714 0b7e 44010000 		.4byte	.LFE29
 3715 0b82 8C030000 		.4byte	.LLST22
 3716 0b86 01       		.byte	0x1
 3717 0b87 1A       		.uleb128 0x1a
 3718 0b88 21010000 		.4byte	.LASF119
 3719 0b8c 01       		.byte	0x1
 3720 0b8d 3B       		.byte	0x3b
ARM GAS  /tmp/cciE3hUa.s 			page 69


 3721 0b8e 98040000 		.4byte	0x498
 3722 0b92 05       		.byte	0x5
 3723 0b93 03       		.byte	0x3
 3724 0b94 00000000 		.4byte	sem1
 3725 0b98 1A       		.uleb128 0x1a
 3726 0b99 E6010000 		.4byte	.LASF120
 3727 0b9d 01       		.byte	0x1
 3728 0b9e 3D       		.byte	0x3d
 3729 0b9f E0040000 		.4byte	0x4e0
 3730 0ba3 05       		.byte	0x5
 3731 0ba4 03       		.byte	0x3
 3732 0ba5 00000000 		.4byte	mtx1
 3733 0ba9 27       		.uleb128 0x27
 3734 0baa 53050000 		.4byte	.LASF121
 3735 0bae 09       		.byte	0x9
 3736 0baf 68       		.byte	0x68
 3737 0bb0 64040000 		.4byte	0x464
 3738 0bb4 01       		.byte	0x1
 3739 0bb5 01       		.byte	0x1
 3740 0bb6 23       		.uleb128 0x23
 3741 0bb7 7E020000 		.4byte	0x27e
 3742 0bbb C60B0000 		.4byte	0xbc6
 3743 0bbf 24       		.uleb128 0x24
 3744 0bc0 7A030000 		.4byte	0x37a
 3745 0bc4 04       		.byte	0x4
 3746 0bc5 00       		.byte	0
 3747 0bc6 27       		.uleb128 0x27
 3748 0bc7 3E040000 		.4byte	.LASF122
 3749 0bcb 0D       		.byte	0xd
 3750 0bcc A5       		.byte	0xa5
 3751 0bcd B60B0000 		.4byte	0xbb6
 3752 0bd1 01       		.byte	0x1
 3753 0bd2 01       		.byte	0x1
 3754 0bd3 23       		.uleb128 0x23
 3755 0bd4 BC020000 		.4byte	0x2bc
 3756 0bd8 DE0B0000 		.4byte	0xbde
 3757 0bdc 28       		.uleb128 0x28
 3758 0bdd 00       		.byte	0
 3759 0bde 29       		.uleb128 0x29
 3760 0bdf 776100   		.ascii	"wa\000"
 3761 0be2 0D       		.byte	0xd
 3762 0be3 A7       		.byte	0xa7
 3763 0be4 EA0B0000 		.4byte	0xbea
 3764 0be8 01       		.byte	0x1
 3765 0be9 01       		.byte	0x1
 3766 0bea 12       		.uleb128 0x12
 3767 0beb D30B0000 		.4byte	0xbd3
 3768 0bef 27       		.uleb128 0x27
 3769 0bf0 9A010000 		.4byte	.LASF123
 3770 0bf4 0D       		.byte	0xd
 3771 0bf5 A8       		.byte	0xa8
 3772 0bf6 A6000000 		.4byte	0xa6
 3773 0bfa 01       		.byte	0x1
 3774 0bfb 01       		.byte	0x1
 3775 0bfc 2A       		.uleb128 0x2a
 3776 0bfd 20020000 		.4byte	.LASF124
 3777 0c01 01       		.byte	0x1
ARM GAS  /tmp/cciE3hUa.s 			page 70


 3778 0c02 76       		.byte	0x76
 3779 0c03 0E0C0000 		.4byte	0xc0e
 3780 0c07 01       		.byte	0x1
 3781 0c08 05       		.byte	0x5
 3782 0c09 03       		.byte	0x3
 3783 0c0a 00000000 		.4byte	testbmk1
 3784 0c0e 12       		.uleb128 0x12
 3785 0c0f FA050000 		.4byte	0x5fa
 3786 0c13 2A       		.uleb128 0x2a
 3787 0c14 EB020000 		.4byte	.LASF125
 3788 0c18 01       		.byte	0x1
 3789 0c19 93       		.byte	0x93
 3790 0c1a 0E0C0000 		.4byte	0xc0e
 3791 0c1e 01       		.byte	0x1
 3792 0c1f 05       		.byte	0x5
 3793 0c20 03       		.byte	0x3
 3794 0c21 00000000 		.4byte	testbmk2
 3795 0c25 2A       		.uleb128 0x2a
 3796 0c26 F4020000 		.4byte	.LASF126
 3797 0c2a 01       		.byte	0x1
 3798 0c2b BA       		.byte	0xba
 3799 0c2c 0E0C0000 		.4byte	0xc0e
 3800 0c30 01       		.byte	0x1
 3801 0c31 05       		.byte	0x5
 3802 0c32 03       		.byte	0x3
 3803 0c33 00000000 		.4byte	testbmk3
 3804 0c37 2A       		.uleb128 0x2a
 3805 0c38 FD020000 		.4byte	.LASF127
 3806 0c3c 01       		.byte	0x1
 3807 0c3d F7       		.byte	0xf7
 3808 0c3e 0E0C0000 		.4byte	0xc0e
 3809 0c42 01       		.byte	0x1
 3810 0c43 05       		.byte	0x5
 3811 0c44 03       		.byte	0x3
 3812 0c45 00000000 		.4byte	testbmk4
 3813 0c49 2B       		.uleb128 0x2b
 3814 0c4a 8F020000 		.4byte	.LASF128
 3815 0c4e 01       		.byte	0x1
 3816 0c4f 1C01     		.2byte	0x11c
 3817 0c51 0E0C0000 		.4byte	0xc0e
 3818 0c55 01       		.byte	0x1
 3819 0c56 05       		.byte	0x5
 3820 0c57 03       		.byte	0x3
 3821 0c58 00000000 		.4byte	testbmk5
 3822 0c5c 2B       		.uleb128 0x2b
 3823 0c5d AA010000 		.4byte	.LASF129
 3824 0c61 01       		.byte	0x1
 3825 0c62 4301     		.2byte	0x143
 3826 0c64 0E0C0000 		.4byte	0xc0e
 3827 0c68 01       		.byte	0x1
 3828 0c69 05       		.byte	0x5
 3829 0c6a 03       		.byte	0x3
 3830 0c6b 00000000 		.4byte	testbmk6
 3831 0c6f 2B       		.uleb128 0x2b
 3832 0c70 34010000 		.4byte	.LASF130
 3833 0c74 01       		.byte	0x1
 3834 0c75 8001     		.2byte	0x180
ARM GAS  /tmp/cciE3hUa.s 			page 71


 3835 0c77 0E0C0000 		.4byte	0xc0e
 3836 0c7b 01       		.byte	0x1
 3837 0c7c 05       		.byte	0x5
 3838 0c7d 03       		.byte	0x3
 3839 0c7e 00000000 		.4byte	testbmk7
 3840 0c82 2B       		.uleb128 0x2b
 3841 0c83 C5020000 		.4byte	.LASF131
 3842 0c87 01       		.byte	0x1
 3843 0c88 B501     		.2byte	0x1b5
 3844 0c8a 0E0C0000 		.4byte	0xc0e
 3845 0c8e 01       		.byte	0x1
 3846 0c8f 05       		.byte	0x5
 3847 0c90 03       		.byte	0x3
 3848 0c91 00000000 		.4byte	testbmk8
 3849 0c95 2B       		.uleb128 0x2b
 3850 0c96 25030000 		.4byte	.LASF132
 3851 0c9a 01       		.byte	0x1
 3852 0c9b E501     		.2byte	0x1e5
 3853 0c9d 0E0C0000 		.4byte	0xc0e
 3854 0ca1 01       		.byte	0x1
 3855 0ca2 05       		.byte	0x5
 3856 0ca3 03       		.byte	0x3
 3857 0ca4 00000000 		.4byte	testbmk9
 3858 0ca8 2B       		.uleb128 0x2b
 3859 0ca9 75040000 		.4byte	.LASF133
 3860 0cad 01       		.byte	0x1
 3861 0cae 0F02     		.2byte	0x20f
 3862 0cb0 0E0C0000 		.4byte	0xc0e
 3863 0cb4 01       		.byte	0x1
 3864 0cb5 05       		.byte	0x5
 3865 0cb6 03       		.byte	0x3
 3866 0cb7 00000000 		.4byte	testbmk10
 3867 0cbb 2B       		.uleb128 0x2b
 3868 0cbc 7F040000 		.4byte	.LASF134
 3869 0cc0 01       		.byte	0x1
 3870 0cc1 3E02     		.2byte	0x23e
 3871 0cc3 0E0C0000 		.4byte	0xc0e
 3872 0cc7 01       		.byte	0x1
 3873 0cc8 05       		.byte	0x5
 3874 0cc9 03       		.byte	0x3
 3875 0cca 00000000 		.4byte	testbmk11
 3876 0cce 2B       		.uleb128 0x2b
 3877 0ccf 17010000 		.4byte	.LASF135
 3878 0cd3 01       		.byte	0x1
 3879 0cd4 6E02     		.2byte	0x26e
 3880 0cd6 0E0C0000 		.4byte	0xc0e
 3881 0cda 01       		.byte	0x1
 3882 0cdb 05       		.byte	0x5
 3883 0cdc 03       		.byte	0x3
 3884 0cdd 00000000 		.4byte	testbmk12
 3885 0ce1 2B       		.uleb128 0x2b
 3886 0ce2 92040000 		.4byte	.LASF136
 3887 0ce6 01       		.byte	0x1
 3888 0ce7 AF02     		.2byte	0x2af
 3889 0ce9 0E0C0000 		.4byte	0xc0e
 3890 0ced 01       		.byte	0x1
 3891 0cee 05       		.byte	0x5
ARM GAS  /tmp/cciE3hUa.s 			page 72


 3892 0cef 03       		.byte	0x3
 3893 0cf0 00000000 		.4byte	testbmk13
 3894 0cf4 23       		.uleb128 0x23
 3895 0cf5 040D0000 		.4byte	0xd04
 3896 0cf9 040D0000 		.4byte	0xd04
 3897 0cfd 24       		.uleb128 0x24
 3898 0cfe 7A030000 		.4byte	0x37a
 3899 0d02 0D       		.byte	0xd
 3900 0d03 00       		.byte	0
 3901 0d04 09       		.uleb128 0x9
 3902 0d05 04       		.byte	0x4
 3903 0d06 0E0C0000 		.4byte	0xc0e
 3904 0d0a 2B       		.uleb128 0x2b
 3905 0d0b 63040000 		.4byte	.LASF137
 3906 0d0f 01       		.byte	0x1
 3907 0d10 B902     		.2byte	0x2b9
 3908 0d12 1D0D0000 		.4byte	0xd1d
 3909 0d16 01       		.byte	0x1
 3910 0d17 05       		.byte	0x5
 3911 0d18 03       		.byte	0x3
 3912 0d19 00000000 		.4byte	patternbmk
 3913 0d1d 12       		.uleb128 0x12
 3914 0d1e F40C0000 		.4byte	0xcf4
 3915 0d22 00       		.byte	0
 3916              		.section	.debug_abbrev,"",%progbits
 3917              	.Ldebug_abbrev0:
 3918 0000 01       		.uleb128 0x1
 3919 0001 11       		.uleb128 0x11
 3920 0002 01       		.byte	0x1
 3921 0003 25       		.uleb128 0x25
 3922 0004 0E       		.uleb128 0xe
 3923 0005 13       		.uleb128 0x13
 3924 0006 0B       		.uleb128 0xb
 3925 0007 03       		.uleb128 0x3
 3926 0008 0E       		.uleb128 0xe
 3927 0009 1B       		.uleb128 0x1b
 3928 000a 0E       		.uleb128 0xe
 3929 000b 55       		.uleb128 0x55
 3930 000c 06       		.uleb128 0x6
 3931 000d 11       		.uleb128 0x11
 3932 000e 01       		.uleb128 0x1
 3933 000f 52       		.uleb128 0x52
 3934 0010 01       		.uleb128 0x1
 3935 0011 10       		.uleb128 0x10
 3936 0012 06       		.uleb128 0x6
 3937 0013 00       		.byte	0
 3938 0014 00       		.byte	0
 3939 0015 02       		.uleb128 0x2
 3940 0016 24       		.uleb128 0x24
 3941 0017 00       		.byte	0
 3942 0018 0B       		.uleb128 0xb
 3943 0019 0B       		.uleb128 0xb
 3944 001a 3E       		.uleb128 0x3e
 3945 001b 0B       		.uleb128 0xb
 3946 001c 03       		.uleb128 0x3
 3947 001d 08       		.uleb128 0x8
 3948 001e 00       		.byte	0
ARM GAS  /tmp/cciE3hUa.s 			page 73


 3949 001f 00       		.byte	0
 3950 0020 03       		.uleb128 0x3
 3951 0021 16       		.uleb128 0x16
 3952 0022 00       		.byte	0
 3953 0023 03       		.uleb128 0x3
 3954 0024 0E       		.uleb128 0xe
 3955 0025 3A       		.uleb128 0x3a
 3956 0026 0B       		.uleb128 0xb
 3957 0027 3B       		.uleb128 0x3b
 3958 0028 0B       		.uleb128 0xb
 3959 0029 49       		.uleb128 0x49
 3960 002a 13       		.uleb128 0x13
 3961 002b 00       		.byte	0
 3962 002c 00       		.byte	0
 3963 002d 04       		.uleb128 0x4
 3964 002e 24       		.uleb128 0x24
 3965 002f 00       		.byte	0
 3966 0030 0B       		.uleb128 0xb
 3967 0031 0B       		.uleb128 0xb
 3968 0032 3E       		.uleb128 0x3e
 3969 0033 0B       		.uleb128 0xb
 3970 0034 03       		.uleb128 0x3
 3971 0035 0E       		.uleb128 0xe
 3972 0036 00       		.byte	0
 3973 0037 00       		.byte	0
 3974 0038 05       		.uleb128 0x5
 3975 0039 13       		.uleb128 0x13
 3976 003a 01       		.byte	0x1
 3977 003b 03       		.uleb128 0x3
 3978 003c 0E       		.uleb128 0xe
 3979 003d 0B       		.uleb128 0xb
 3980 003e 0B       		.uleb128 0xb
 3981 003f 3A       		.uleb128 0x3a
 3982 0040 0B       		.uleb128 0xb
 3983 0041 3B       		.uleb128 0x3b
 3984 0042 0B       		.uleb128 0xb
 3985 0043 01       		.uleb128 0x1
 3986 0044 13       		.uleb128 0x13
 3987 0045 00       		.byte	0
 3988 0046 00       		.byte	0
 3989 0047 06       		.uleb128 0x6
 3990 0048 0D       		.uleb128 0xd
 3991 0049 00       		.byte	0
 3992 004a 03       		.uleb128 0x3
 3993 004b 0E       		.uleb128 0xe
 3994 004c 3A       		.uleb128 0x3a
 3995 004d 0B       		.uleb128 0xb
 3996 004e 3B       		.uleb128 0x3b
 3997 004f 0B       		.uleb128 0xb
 3998 0050 49       		.uleb128 0x49
 3999 0051 13       		.uleb128 0x13
 4000 0052 38       		.uleb128 0x38
 4001 0053 0A       		.uleb128 0xa
 4002 0054 00       		.byte	0
 4003 0055 00       		.byte	0
 4004 0056 07       		.uleb128 0x7
 4005 0057 0D       		.uleb128 0xd
ARM GAS  /tmp/cciE3hUa.s 			page 74


 4006 0058 00       		.byte	0
 4007 0059 03       		.uleb128 0x3
 4008 005a 08       		.uleb128 0x8
 4009 005b 3A       		.uleb128 0x3a
 4010 005c 0B       		.uleb128 0xb
 4011 005d 3B       		.uleb128 0x3b
 4012 005e 0B       		.uleb128 0xb
 4013 005f 49       		.uleb128 0x49
 4014 0060 13       		.uleb128 0x13
 4015 0061 38       		.uleb128 0x38
 4016 0062 0A       		.uleb128 0xa
 4017 0063 00       		.byte	0
 4018 0064 00       		.byte	0
 4019 0065 08       		.uleb128 0x8
 4020 0066 13       		.uleb128 0x13
 4021 0067 01       		.byte	0x1
 4022 0068 0B       		.uleb128 0xb
 4023 0069 0B       		.uleb128 0xb
 4024 006a 3A       		.uleb128 0x3a
 4025 006b 0B       		.uleb128 0xb
 4026 006c 3B       		.uleb128 0x3b
 4027 006d 0B       		.uleb128 0xb
 4028 006e 01       		.uleb128 0x1
 4029 006f 13       		.uleb128 0x13
 4030 0070 00       		.byte	0
 4031 0071 00       		.byte	0
 4032 0072 09       		.uleb128 0x9
 4033 0073 0F       		.uleb128 0xf
 4034 0074 00       		.byte	0
 4035 0075 0B       		.uleb128 0xb
 4036 0076 0B       		.uleb128 0xb
 4037 0077 49       		.uleb128 0x49
 4038 0078 13       		.uleb128 0x13
 4039 0079 00       		.byte	0
 4040 007a 00       		.byte	0
 4041 007b 0A       		.uleb128 0xa
 4042 007c 0F       		.uleb128 0xf
 4043 007d 00       		.byte	0
 4044 007e 0B       		.uleb128 0xb
 4045 007f 0B       		.uleb128 0xb
 4046 0080 00       		.byte	0
 4047 0081 00       		.byte	0
 4048 0082 0B       		.uleb128 0xb
 4049 0083 13       		.uleb128 0x13
 4050 0084 01       		.byte	0x1
 4051 0085 03       		.uleb128 0x3
 4052 0086 0E       		.uleb128 0xe
 4053 0087 0B       		.uleb128 0xb
 4054 0088 0B       		.uleb128 0xb
 4055 0089 3A       		.uleb128 0x3a
 4056 008a 0B       		.uleb128 0xb
 4057 008b 3B       		.uleb128 0x3b
 4058 008c 05       		.uleb128 0x5
 4059 008d 01       		.uleb128 0x1
 4060 008e 13       		.uleb128 0x13
 4061 008f 00       		.byte	0
 4062 0090 00       		.byte	0
ARM GAS  /tmp/cciE3hUa.s 			page 75


 4063 0091 0C       		.uleb128 0xc
 4064 0092 0D       		.uleb128 0xd
 4065 0093 00       		.byte	0
 4066 0094 03       		.uleb128 0x3
 4067 0095 08       		.uleb128 0x8
 4068 0096 3A       		.uleb128 0x3a
 4069 0097 0B       		.uleb128 0xb
 4070 0098 3B       		.uleb128 0x3b
 4071 0099 05       		.uleb128 0x5
 4072 009a 49       		.uleb128 0x49
 4073 009b 13       		.uleb128 0x13
 4074 009c 38       		.uleb128 0x38
 4075 009d 0A       		.uleb128 0xa
 4076 009e 00       		.byte	0
 4077 009f 00       		.byte	0
 4078 00a0 0D       		.uleb128 0xd
 4079 00a1 15       		.uleb128 0x15
 4080 00a2 01       		.byte	0x1
 4081 00a3 27       		.uleb128 0x27
 4082 00a4 0C       		.uleb128 0xc
 4083 00a5 01       		.uleb128 0x1
 4084 00a6 13       		.uleb128 0x13
 4085 00a7 00       		.byte	0
 4086 00a8 00       		.byte	0
 4087 00a9 0E       		.uleb128 0xe
 4088 00aa 05       		.uleb128 0x5
 4089 00ab 00       		.byte	0
 4090 00ac 49       		.uleb128 0x49
 4091 00ad 13       		.uleb128 0x13
 4092 00ae 00       		.byte	0
 4093 00af 00       		.byte	0
 4094 00b0 0F       		.uleb128 0xf
 4095 00b1 35       		.uleb128 0x35
 4096 00b2 00       		.byte	0
 4097 00b3 49       		.uleb128 0x49
 4098 00b4 13       		.uleb128 0x13
 4099 00b5 00       		.byte	0
 4100 00b6 00       		.byte	0
 4101 00b7 10       		.uleb128 0x10
 4102 00b8 17       		.uleb128 0x17
 4103 00b9 01       		.byte	0x1
 4104 00ba 0B       		.uleb128 0xb
 4105 00bb 0B       		.uleb128 0xb
 4106 00bc 3A       		.uleb128 0x3a
 4107 00bd 0B       		.uleb128 0xb
 4108 00be 3B       		.uleb128 0x3b
 4109 00bf 0B       		.uleb128 0xb
 4110 00c0 01       		.uleb128 0x1
 4111 00c1 13       		.uleb128 0x13
 4112 00c2 00       		.byte	0
 4113 00c3 00       		.byte	0
 4114 00c4 11       		.uleb128 0x11
 4115 00c5 0D       		.uleb128 0xd
 4116 00c6 00       		.byte	0
 4117 00c7 03       		.uleb128 0x3
 4118 00c8 0E       		.uleb128 0xe
 4119 00c9 3A       		.uleb128 0x3a
ARM GAS  /tmp/cciE3hUa.s 			page 76


 4120 00ca 0B       		.uleb128 0xb
 4121 00cb 3B       		.uleb128 0x3b
 4122 00cc 0B       		.uleb128 0xb
 4123 00cd 49       		.uleb128 0x49
 4124 00ce 13       		.uleb128 0x13
 4125 00cf 00       		.byte	0
 4126 00d0 00       		.byte	0
 4127 00d1 12       		.uleb128 0x12
 4128 00d2 26       		.uleb128 0x26
 4129 00d3 00       		.byte	0
 4130 00d4 49       		.uleb128 0x49
 4131 00d5 13       		.uleb128 0x13
 4132 00d6 00       		.byte	0
 4133 00d7 00       		.byte	0
 4134 00d8 13       		.uleb128 0x13
 4135 00d9 15       		.uleb128 0x15
 4136 00da 00       		.byte	0
 4137 00db 27       		.uleb128 0x27
 4138 00dc 0C       		.uleb128 0xc
 4139 00dd 00       		.byte	0
 4140 00de 00       		.byte	0
 4141 00df 14       		.uleb128 0x14
 4142 00e0 2E       		.uleb128 0x2e
 4143 00e1 01       		.byte	0x1
 4144 00e2 03       		.uleb128 0x3
 4145 00e3 0E       		.uleb128 0xe
 4146 00e4 3A       		.uleb128 0x3a
 4147 00e5 0B       		.uleb128 0xb
 4148 00e6 3B       		.uleb128 0x3b
 4149 00e7 0B       		.uleb128 0xb
 4150 00e8 27       		.uleb128 0x27
 4151 00e9 0C       		.uleb128 0xc
 4152 00ea 49       		.uleb128 0x49
 4153 00eb 13       		.uleb128 0x13
 4154 00ec 11       		.uleb128 0x11
 4155 00ed 01       		.uleb128 0x1
 4156 00ee 12       		.uleb128 0x12
 4157 00ef 01       		.uleb128 0x1
 4158 00f0 40       		.uleb128 0x40
 4159 00f1 06       		.uleb128 0x6
 4160 00f2 9642     		.uleb128 0x2116
 4161 00f4 0C       		.uleb128 0xc
 4162 00f5 01       		.uleb128 0x1
 4163 00f6 13       		.uleb128 0x13
 4164 00f7 00       		.byte	0
 4165 00f8 00       		.byte	0
 4166 00f9 15       		.uleb128 0x15
 4167 00fa 05       		.uleb128 0x5
 4168 00fb 00       		.byte	0
 4169 00fc 03       		.uleb128 0x3
 4170 00fd 08       		.uleb128 0x8
 4171 00fe 3A       		.uleb128 0x3a
 4172 00ff 0B       		.uleb128 0xb
 4173 0100 3B       		.uleb128 0x3b
 4174 0101 0B       		.uleb128 0xb
 4175 0102 49       		.uleb128 0x49
 4176 0103 13       		.uleb128 0x13
ARM GAS  /tmp/cciE3hUa.s 			page 77


 4177 0104 02       		.uleb128 0x2
 4178 0105 0A       		.uleb128 0xa
 4179 0106 00       		.byte	0
 4180 0107 00       		.byte	0
 4181 0108 16       		.uleb128 0x16
 4182 0109 34       		.uleb128 0x34
 4183 010a 00       		.byte	0
 4184 010b 03       		.uleb128 0x3
 4185 010c 08       		.uleb128 0x8
 4186 010d 3A       		.uleb128 0x3a
 4187 010e 0B       		.uleb128 0xb
 4188 010f 3B       		.uleb128 0x3b
 4189 0110 0B       		.uleb128 0xb
 4190 0111 49       		.uleb128 0x49
 4191 0112 13       		.uleb128 0x13
 4192 0113 02       		.uleb128 0x2
 4193 0114 0A       		.uleb128 0xa
 4194 0115 00       		.byte	0
 4195 0116 00       		.byte	0
 4196 0117 17       		.uleb128 0x17
 4197 0118 2E       		.uleb128 0x2e
 4198 0119 01       		.byte	0x1
 4199 011a 03       		.uleb128 0x3
 4200 011b 0E       		.uleb128 0xe
 4201 011c 3A       		.uleb128 0x3a
 4202 011d 0B       		.uleb128 0xb
 4203 011e 3B       		.uleb128 0x3b
 4204 011f 0B       		.uleb128 0xb
 4205 0120 27       		.uleb128 0x27
 4206 0121 0C       		.uleb128 0xc
 4207 0122 11       		.uleb128 0x11
 4208 0123 01       		.uleb128 0x1
 4209 0124 12       		.uleb128 0x12
 4210 0125 01       		.uleb128 0x1
 4211 0126 40       		.uleb128 0x40
 4212 0127 06       		.uleb128 0x6
 4213 0128 9642     		.uleb128 0x2116
 4214 012a 0C       		.uleb128 0xc
 4215 012b 01       		.uleb128 0x1
 4216 012c 13       		.uleb128 0x13
 4217 012d 00       		.byte	0
 4218 012e 00       		.byte	0
 4219 012f 18       		.uleb128 0x18
 4220 0130 2E       		.uleb128 0x2e
 4221 0131 01       		.byte	0x1
 4222 0132 03       		.uleb128 0x3
 4223 0133 0E       		.uleb128 0xe
 4224 0134 3A       		.uleb128 0x3a
 4225 0135 0B       		.uleb128 0xb
 4226 0136 3B       		.uleb128 0x3b
 4227 0137 0B       		.uleb128 0xb
 4228 0138 27       		.uleb128 0x27
 4229 0139 0C       		.uleb128 0xc
 4230 013a 49       		.uleb128 0x49
 4231 013b 13       		.uleb128 0x13
 4232 013c 11       		.uleb128 0x11
 4233 013d 01       		.uleb128 0x1
ARM GAS  /tmp/cciE3hUa.s 			page 78


 4234 013e 12       		.uleb128 0x12
 4235 013f 01       		.uleb128 0x1
 4236 0140 40       		.uleb128 0x40
 4237 0141 06       		.uleb128 0x6
 4238 0142 9742     		.uleb128 0x2117
 4239 0144 0C       		.uleb128 0xc
 4240 0145 01       		.uleb128 0x1
 4241 0146 13       		.uleb128 0x13
 4242 0147 00       		.byte	0
 4243 0148 00       		.byte	0
 4244 0149 19       		.uleb128 0x19
 4245 014a 2E       		.uleb128 0x2e
 4246 014b 01       		.byte	0x1
 4247 014c 3F       		.uleb128 0x3f
 4248 014d 0C       		.uleb128 0xc
 4249 014e 03       		.uleb128 0x3
 4250 014f 0E       		.uleb128 0xe
 4251 0150 3A       		.uleb128 0x3a
 4252 0151 0B       		.uleb128 0xb
 4253 0152 3B       		.uleb128 0x3b
 4254 0153 0B       		.uleb128 0xb
 4255 0154 27       		.uleb128 0x27
 4256 0155 0C       		.uleb128 0xc
 4257 0156 49       		.uleb128 0x49
 4258 0157 13       		.uleb128 0x13
 4259 0158 11       		.uleb128 0x11
 4260 0159 01       		.uleb128 0x1
 4261 015a 12       		.uleb128 0x12
 4262 015b 01       		.uleb128 0x1
 4263 015c 40       		.uleb128 0x40
 4264 015d 06       		.uleb128 0x6
 4265 015e 9642     		.uleb128 0x2116
 4266 0160 0C       		.uleb128 0xc
 4267 0161 01       		.uleb128 0x1
 4268 0162 13       		.uleb128 0x13
 4269 0163 00       		.byte	0
 4270 0164 00       		.byte	0
 4271 0165 1A       		.uleb128 0x1a
 4272 0166 34       		.uleb128 0x34
 4273 0167 00       		.byte	0
 4274 0168 03       		.uleb128 0x3
 4275 0169 0E       		.uleb128 0xe
 4276 016a 3A       		.uleb128 0x3a
 4277 016b 0B       		.uleb128 0xb
 4278 016c 3B       		.uleb128 0x3b
 4279 016d 0B       		.uleb128 0xb
 4280 016e 49       		.uleb128 0x49
 4281 016f 13       		.uleb128 0x13
 4282 0170 02       		.uleb128 0x2
 4283 0171 0A       		.uleb128 0xa
 4284 0172 00       		.byte	0
 4285 0173 00       		.byte	0
 4286 0174 1B       		.uleb128 0x1b
 4287 0175 0B       		.uleb128 0xb
 4288 0176 01       		.byte	0x1
 4289 0177 11       		.uleb128 0x11
 4290 0178 01       		.uleb128 0x1
ARM GAS  /tmp/cciE3hUa.s 			page 79


 4291 0179 12       		.uleb128 0x12
 4292 017a 01       		.uleb128 0x1
 4293 017b 01       		.uleb128 0x1
 4294 017c 13       		.uleb128 0x13
 4295 017d 00       		.byte	0
 4296 017e 00       		.byte	0
 4297 017f 1C       		.uleb128 0x1c
 4298 0180 0B       		.uleb128 0xb
 4299 0181 01       		.byte	0x1
 4300 0182 11       		.uleb128 0x11
 4301 0183 01       		.uleb128 0x1
 4302 0184 12       		.uleb128 0x12
 4303 0185 01       		.uleb128 0x1
 4304 0186 00       		.byte	0
 4305 0187 00       		.byte	0
 4306 0188 1D       		.uleb128 0x1d
 4307 0189 2E       		.uleb128 0x2e
 4308 018a 01       		.byte	0x1
 4309 018b 03       		.uleb128 0x3
 4310 018c 0E       		.uleb128 0xe
 4311 018d 3A       		.uleb128 0x3a
 4312 018e 0B       		.uleb128 0xb
 4313 018f 3B       		.uleb128 0x3b
 4314 0190 05       		.uleb128 0x5
 4315 0191 27       		.uleb128 0x27
 4316 0192 0C       		.uleb128 0xc
 4317 0193 11       		.uleb128 0x11
 4318 0194 01       		.uleb128 0x1
 4319 0195 12       		.uleb128 0x12
 4320 0196 01       		.uleb128 0x1
 4321 0197 40       		.uleb128 0x40
 4322 0198 06       		.uleb128 0x6
 4323 0199 9642     		.uleb128 0x2116
 4324 019b 0C       		.uleb128 0xc
 4325 019c 01       		.uleb128 0x1
 4326 019d 13       		.uleb128 0x13
 4327 019e 00       		.byte	0
 4328 019f 00       		.byte	0
 4329 01a0 1E       		.uleb128 0x1e
 4330 01a1 34       		.uleb128 0x34
 4331 01a2 00       		.byte	0
 4332 01a3 03       		.uleb128 0x3
 4333 01a4 08       		.uleb128 0x8
 4334 01a5 3A       		.uleb128 0x3a
 4335 01a6 0B       		.uleb128 0xb
 4336 01a7 3B       		.uleb128 0x3b
 4337 01a8 05       		.uleb128 0x5
 4338 01a9 49       		.uleb128 0x49
 4339 01aa 13       		.uleb128 0x13
 4340 01ab 02       		.uleb128 0x2
 4341 01ac 0A       		.uleb128 0xa
 4342 01ad 00       		.byte	0
 4343 01ae 00       		.byte	0
 4344 01af 1F       		.uleb128 0x1f
 4345 01b0 34       		.uleb128 0x34
 4346 01b1 00       		.byte	0
 4347 01b2 03       		.uleb128 0x3
ARM GAS  /tmp/cciE3hUa.s 			page 80


 4348 01b3 0E       		.uleb128 0xe
 4349 01b4 3A       		.uleb128 0x3a
 4350 01b5 0B       		.uleb128 0xb
 4351 01b6 3B       		.uleb128 0x3b
 4352 01b7 05       		.uleb128 0x5
 4353 01b8 49       		.uleb128 0x49
 4354 01b9 13       		.uleb128 0x13
 4355 01ba 02       		.uleb128 0x2
 4356 01bb 0A       		.uleb128 0xa
 4357 01bc 00       		.byte	0
 4358 01bd 00       		.byte	0
 4359 01be 20       		.uleb128 0x20
 4360 01bf 2E       		.uleb128 0x2e
 4361 01c0 01       		.byte	0x1
 4362 01c1 03       		.uleb128 0x3
 4363 01c2 0E       		.uleb128 0xe
 4364 01c3 3A       		.uleb128 0x3a
 4365 01c4 0B       		.uleb128 0xb
 4366 01c5 3B       		.uleb128 0x3b
 4367 01c6 05       		.uleb128 0x5
 4368 01c7 27       		.uleb128 0x27
 4369 01c8 0C       		.uleb128 0xc
 4370 01c9 49       		.uleb128 0x49
 4371 01ca 13       		.uleb128 0x13
 4372 01cb 11       		.uleb128 0x11
 4373 01cc 01       		.uleb128 0x1
 4374 01cd 12       		.uleb128 0x12
 4375 01ce 01       		.uleb128 0x1
 4376 01cf 40       		.uleb128 0x40
 4377 01d0 06       		.uleb128 0x6
 4378 01d1 9642     		.uleb128 0x2116
 4379 01d3 0C       		.uleb128 0xc
 4380 01d4 01       		.uleb128 0x1
 4381 01d5 13       		.uleb128 0x13
 4382 01d6 00       		.byte	0
 4383 01d7 00       		.byte	0
 4384 01d8 21       		.uleb128 0x21
 4385 01d9 05       		.uleb128 0x5
 4386 01da 00       		.byte	0
 4387 01db 03       		.uleb128 0x3
 4388 01dc 08       		.uleb128 0x8
 4389 01dd 3A       		.uleb128 0x3a
 4390 01de 0B       		.uleb128 0xb
 4391 01df 3B       		.uleb128 0x3b
 4392 01e0 05       		.uleb128 0x5
 4393 01e1 49       		.uleb128 0x49
 4394 01e2 13       		.uleb128 0x13
 4395 01e3 02       		.uleb128 0x2
 4396 01e4 0A       		.uleb128 0xa
 4397 01e5 00       		.byte	0
 4398 01e6 00       		.byte	0
 4399 01e7 22       		.uleb128 0x22
 4400 01e8 2E       		.uleb128 0x2e
 4401 01e9 00       		.byte	0
 4402 01ea 03       		.uleb128 0x3
 4403 01eb 0E       		.uleb128 0xe
 4404 01ec 3A       		.uleb128 0x3a
ARM GAS  /tmp/cciE3hUa.s 			page 81


 4405 01ed 0B       		.uleb128 0xb
 4406 01ee 3B       		.uleb128 0x3b
 4407 01ef 05       		.uleb128 0x5
 4408 01f0 27       		.uleb128 0x27
 4409 01f1 0C       		.uleb128 0xc
 4410 01f2 11       		.uleb128 0x11
 4411 01f3 01       		.uleb128 0x1
 4412 01f4 12       		.uleb128 0x12
 4413 01f5 01       		.uleb128 0x1
 4414 01f6 40       		.uleb128 0x40
 4415 01f7 06       		.uleb128 0x6
 4416 01f8 9642     		.uleb128 0x2116
 4417 01fa 0C       		.uleb128 0xc
 4418 01fb 00       		.byte	0
 4419 01fc 00       		.byte	0
 4420 01fd 23       		.uleb128 0x23
 4421 01fe 01       		.uleb128 0x1
 4422 01ff 01       		.byte	0x1
 4423 0200 49       		.uleb128 0x49
 4424 0201 13       		.uleb128 0x13
 4425 0202 01       		.uleb128 0x1
 4426 0203 13       		.uleb128 0x13
 4427 0204 00       		.byte	0
 4428 0205 00       		.byte	0
 4429 0206 24       		.uleb128 0x24
 4430 0207 21       		.uleb128 0x21
 4431 0208 00       		.byte	0
 4432 0209 49       		.uleb128 0x49
 4433 020a 13       		.uleb128 0x13
 4434 020b 2F       		.uleb128 0x2f
 4435 020c 0B       		.uleb128 0xb
 4436 020d 00       		.byte	0
 4437 020e 00       		.byte	0
 4438 020f 25       		.uleb128 0x25
 4439 0210 2E       		.uleb128 0x2e
 4440 0211 01       		.byte	0x1
 4441 0212 03       		.uleb128 0x3
 4442 0213 08       		.uleb128 0x8
 4443 0214 3A       		.uleb128 0x3a
 4444 0215 0B       		.uleb128 0xb
 4445 0216 3B       		.uleb128 0x3b
 4446 0217 05       		.uleb128 0x5
 4447 0218 27       		.uleb128 0x27
 4448 0219 0C       		.uleb128 0xc
 4449 021a 11       		.uleb128 0x11
 4450 021b 01       		.uleb128 0x1
 4451 021c 12       		.uleb128 0x12
 4452 021d 01       		.uleb128 0x1
 4453 021e 40       		.uleb128 0x40
 4454 021f 06       		.uleb128 0x6
 4455 0220 9742     		.uleb128 0x2117
 4456 0222 0C       		.uleb128 0xc
 4457 0223 01       		.uleb128 0x1
 4458 0224 13       		.uleb128 0x13
 4459 0225 00       		.byte	0
 4460 0226 00       		.byte	0
 4461 0227 26       		.uleb128 0x26
ARM GAS  /tmp/cciE3hUa.s 			page 82


 4462 0228 05       		.uleb128 0x5
 4463 0229 00       		.byte	0
 4464 022a 03       		.uleb128 0x3
 4465 022b 0E       		.uleb128 0xe
 4466 022c 3A       		.uleb128 0x3a
 4467 022d 0B       		.uleb128 0xb
 4468 022e 3B       		.uleb128 0x3b
 4469 022f 05       		.uleb128 0x5
 4470 0230 49       		.uleb128 0x49
 4471 0231 13       		.uleb128 0x13
 4472 0232 02       		.uleb128 0x2
 4473 0233 0A       		.uleb128 0xa
 4474 0234 00       		.byte	0
 4475 0235 00       		.byte	0
 4476 0236 27       		.uleb128 0x27
 4477 0237 34       		.uleb128 0x34
 4478 0238 00       		.byte	0
 4479 0239 03       		.uleb128 0x3
 4480 023a 0E       		.uleb128 0xe
 4481 023b 3A       		.uleb128 0x3a
 4482 023c 0B       		.uleb128 0xb
 4483 023d 3B       		.uleb128 0x3b
 4484 023e 0B       		.uleb128 0xb
 4485 023f 49       		.uleb128 0x49
 4486 0240 13       		.uleb128 0x13
 4487 0241 3F       		.uleb128 0x3f
 4488 0242 0C       		.uleb128 0xc
 4489 0243 3C       		.uleb128 0x3c
 4490 0244 0C       		.uleb128 0xc
 4491 0245 00       		.byte	0
 4492 0246 00       		.byte	0
 4493 0247 28       		.uleb128 0x28
 4494 0248 21       		.uleb128 0x21
 4495 0249 00       		.byte	0
 4496 024a 00       		.byte	0
 4497 024b 00       		.byte	0
 4498 024c 29       		.uleb128 0x29
 4499 024d 34       		.uleb128 0x34
 4500 024e 00       		.byte	0
 4501 024f 03       		.uleb128 0x3
 4502 0250 08       		.uleb128 0x8
 4503 0251 3A       		.uleb128 0x3a
 4504 0252 0B       		.uleb128 0xb
 4505 0253 3B       		.uleb128 0x3b
 4506 0254 0B       		.uleb128 0xb
 4507 0255 49       		.uleb128 0x49
 4508 0256 13       		.uleb128 0x13
 4509 0257 3F       		.uleb128 0x3f
 4510 0258 0C       		.uleb128 0xc
 4511 0259 3C       		.uleb128 0x3c
 4512 025a 0C       		.uleb128 0xc
 4513 025b 00       		.byte	0
 4514 025c 00       		.byte	0
 4515 025d 2A       		.uleb128 0x2a
 4516 025e 34       		.uleb128 0x34
 4517 025f 00       		.byte	0
 4518 0260 03       		.uleb128 0x3
ARM GAS  /tmp/cciE3hUa.s 			page 83


 4519 0261 0E       		.uleb128 0xe
 4520 0262 3A       		.uleb128 0x3a
 4521 0263 0B       		.uleb128 0xb
 4522 0264 3B       		.uleb128 0x3b
 4523 0265 0B       		.uleb128 0xb
 4524 0266 49       		.uleb128 0x49
 4525 0267 13       		.uleb128 0x13
 4526 0268 3F       		.uleb128 0x3f
 4527 0269 0C       		.uleb128 0xc
 4528 026a 02       		.uleb128 0x2
 4529 026b 0A       		.uleb128 0xa
 4530 026c 00       		.byte	0
 4531 026d 00       		.byte	0
 4532 026e 2B       		.uleb128 0x2b
 4533 026f 34       		.uleb128 0x34
 4534 0270 00       		.byte	0
 4535 0271 03       		.uleb128 0x3
 4536 0272 0E       		.uleb128 0xe
 4537 0273 3A       		.uleb128 0x3a
 4538 0274 0B       		.uleb128 0xb
 4539 0275 3B       		.uleb128 0x3b
 4540 0276 05       		.uleb128 0x5
 4541 0277 49       		.uleb128 0x49
 4542 0278 13       		.uleb128 0x13
 4543 0279 3F       		.uleb128 0x3f
 4544 027a 0C       		.uleb128 0xc
 4545 027b 02       		.uleb128 0x2
 4546 027c 0A       		.uleb128 0xa
 4547 027d 00       		.byte	0
 4548 027e 00       		.byte	0
 4549 027f 00       		.byte	0
 4550              		.section	.debug_loc,"",%progbits
 4551              	.Ldebug_loc0:
 4552              	.LLST0:
 4553 0000 00000000 		.4byte	.LFB7
 4554 0004 02000000 		.4byte	.LCFI0
 4555 0008 0200     		.2byte	0x2
 4556 000a 7D       		.byte	0x7d
 4557 000b 00       		.sleb128 0
 4558 000c 02000000 		.4byte	.LCFI0
 4559 0010 04000000 		.4byte	.LCFI1
 4560 0014 0200     		.2byte	0x2
 4561 0016 7D       		.byte	0x7d
 4562 0017 04       		.sleb128 4
 4563 0018 04000000 		.4byte	.LCFI1
 4564 001c 2A000000 		.4byte	.LFE7
 4565 0020 0200     		.2byte	0x2
 4566 0022 7D       		.byte	0x7d
 4567 0023 18       		.sleb128 24
 4568 0024 00000000 		.4byte	0
 4569 0028 00000000 		.4byte	0
 4570              	.LLST1:
 4571 002c 00000000 		.4byte	.LFB8
 4572 0030 02000000 		.4byte	.LCFI2
 4573 0034 0200     		.2byte	0x2
 4574 0036 7D       		.byte	0x7d
 4575 0037 00       		.sleb128 0
ARM GAS  /tmp/cciE3hUa.s 			page 84


 4576 0038 02000000 		.4byte	.LCFI2
 4577 003c 04000000 		.4byte	.LCFI3
 4578 0040 0200     		.2byte	0x2
 4579 0042 7D       		.byte	0x7d
 4580 0043 04       		.sleb128 4
 4581 0044 04000000 		.4byte	.LCFI3
 4582 0048 50000000 		.4byte	.LFE8
 4583 004c 0200     		.2byte	0x2
 4584 004e 7D       		.byte	0x7d
 4585 004f 18       		.sleb128 24
 4586 0050 00000000 		.4byte	0
 4587 0054 00000000 		.4byte	0
 4588              	.LLST2:
 4589 0058 00000000 		.4byte	.LFB9
 4590 005c 02000000 		.4byte	.LCFI4
 4591 0060 0200     		.2byte	0x2
 4592 0062 7D       		.byte	0x7d
 4593 0063 00       		.sleb128 0
 4594 0064 02000000 		.4byte	.LCFI4
 4595 0068 04000000 		.4byte	.LCFI5
 4596 006c 0200     		.2byte	0x2
 4597 006e 7D       		.byte	0x7d
 4598 006f 04       		.sleb128 4
 4599 0070 04000000 		.4byte	.LCFI5
 4600 0074 94000000 		.4byte	.LFE9
 4601 0078 0200     		.2byte	0x2
 4602 007a 7D       		.byte	0x7d
 4603 007b 18       		.sleb128 24
 4604 007c 00000000 		.4byte	0
 4605 0080 00000000 		.4byte	0
 4606              	.LLST3:
 4607 0084 00000000 		.4byte	.LFB10
 4608 0088 02000000 		.4byte	.LCFI6
 4609 008c 0200     		.2byte	0x2
 4610 008e 7D       		.byte	0x7d
 4611 008f 00       		.sleb128 0
 4612 0090 02000000 		.4byte	.LCFI6
 4613 0094 04000000 		.4byte	.LCFI7
 4614 0098 0200     		.2byte	0x2
 4615 009a 7D       		.byte	0x7d
 4616 009b 04       		.sleb128 4
 4617 009c 04000000 		.4byte	.LCFI7
 4618 00a0 94000000 		.4byte	.LFE10
 4619 00a4 0200     		.2byte	0x2
 4620 00a6 7D       		.byte	0x7d
 4621 00a7 18       		.sleb128 24
 4622 00a8 00000000 		.4byte	0
 4623 00ac 00000000 		.4byte	0
 4624              	.LLST4:
 4625 00b0 00000000 		.4byte	.LFB11
 4626 00b4 02000000 		.4byte	.LCFI8
 4627 00b8 0200     		.2byte	0x2
 4628 00ba 7D       		.byte	0x7d
 4629 00bb 00       		.sleb128 0
 4630 00bc 02000000 		.4byte	.LCFI8
 4631 00c0 0C000000 		.4byte	.LFE11
 4632 00c4 0200     		.2byte	0x2
ARM GAS  /tmp/cciE3hUa.s 			page 85


 4633 00c6 7D       		.byte	0x7d
 4634 00c7 08       		.sleb128 8
 4635 00c8 00000000 		.4byte	0
 4636 00cc 00000000 		.4byte	0
 4637              	.LLST5:
 4638 00d0 00000000 		.4byte	.LFB12
 4639 00d4 02000000 		.4byte	.LCFI9
 4640 00d8 0200     		.2byte	0x2
 4641 00da 7D       		.byte	0x7d
 4642 00db 00       		.sleb128 0
 4643 00dc 02000000 		.4byte	.LCFI9
 4644 00e0 04000000 		.4byte	.LCFI10
 4645 00e4 0200     		.2byte	0x2
 4646 00e6 7D       		.byte	0x7d
 4647 00e7 04       		.sleb128 4
 4648 00e8 04000000 		.4byte	.LCFI10
 4649 00ec 94010000 		.4byte	.LFE12
 4650 00f0 0200     		.2byte	0x2
 4651 00f2 7D       		.byte	0x7d
 4652 00f3 18       		.sleb128 24
 4653 00f4 00000000 		.4byte	0
 4654 00f8 00000000 		.4byte	0
 4655              	.LLST6:
 4656 00fc 00000000 		.4byte	.LFB13
 4657 0100 02000000 		.4byte	.LCFI11
 4658 0104 0200     		.2byte	0x2
 4659 0106 7D       		.byte	0x7d
 4660 0107 00       		.sleb128 0
 4661 0108 02000000 		.4byte	.LCFI11
 4662 010c 04000000 		.4byte	.LCFI12
 4663 0110 0200     		.2byte	0x2
 4664 0112 7D       		.byte	0x7d
 4665 0113 04       		.sleb128 4
 4666 0114 04000000 		.4byte	.LCFI12
 4667 0118 48000000 		.4byte	.LFE13
 4668 011c 0200     		.2byte	0x2
 4669 011e 7D       		.byte	0x7d
 4670 011f 18       		.sleb128 24
 4671 0120 00000000 		.4byte	0
 4672 0124 00000000 		.4byte	0
 4673              	.LLST7:
 4674 0128 00000000 		.4byte	.LFB14
 4675 012c 02000000 		.4byte	.LCFI13
 4676 0130 0200     		.2byte	0x2
 4677 0132 7D       		.byte	0x7d
 4678 0133 00       		.sleb128 0
 4679 0134 02000000 		.4byte	.LCFI13
 4680 0138 04000000 		.4byte	.LCFI14
 4681 013c 0200     		.2byte	0x2
 4682 013e 7D       		.byte	0x7d
 4683 013f 04       		.sleb128 4
 4684 0140 04000000 		.4byte	.LCFI14
 4685 0144 0C010000 		.4byte	.LFE14
 4686 0148 0200     		.2byte	0x2
 4687 014a 7D       		.byte	0x7d
 4688 014b 18       		.sleb128 24
 4689 014c 00000000 		.4byte	0
ARM GAS  /tmp/cciE3hUa.s 			page 86


 4690 0150 00000000 		.4byte	0
 4691              	.LLST8:
 4692 0154 00000000 		.4byte	.LFB15
 4693 0158 02000000 		.4byte	.LCFI15
 4694 015c 0200     		.2byte	0x2
 4695 015e 7D       		.byte	0x7d
 4696 015f 00       		.sleb128 0
 4697 0160 02000000 		.4byte	.LCFI15
 4698 0164 04000000 		.4byte	.LCFI16
 4699 0168 0200     		.2byte	0x2
 4700 016a 7D       		.byte	0x7d
 4701 016b 04       		.sleb128 4
 4702 016c 04000000 		.4byte	.LCFI16
 4703 0170 94000000 		.4byte	.LFE15
 4704 0174 0200     		.2byte	0x2
 4705 0176 7D       		.byte	0x7d
 4706 0177 20       		.sleb128 32
 4707 0178 00000000 		.4byte	0
 4708 017c 00000000 		.4byte	0
 4709              	.LLST9:
 4710 0180 00000000 		.4byte	.LFB16
 4711 0184 02000000 		.4byte	.LCFI17
 4712 0188 0200     		.2byte	0x2
 4713 018a 7D       		.byte	0x7d
 4714 018b 00       		.sleb128 0
 4715 018c 02000000 		.4byte	.LCFI17
 4716 0190 04000000 		.4byte	.LCFI18
 4717 0194 0200     		.2byte	0x2
 4718 0196 7D       		.byte	0x7d
 4719 0197 04       		.sleb128 4
 4720 0198 04000000 		.4byte	.LCFI18
 4721 019c 8C000000 		.4byte	.LFE16
 4722 01a0 0200     		.2byte	0x2
 4723 01a2 7D       		.byte	0x7d
 4724 01a3 20       		.sleb128 32
 4725 01a4 00000000 		.4byte	0
 4726 01a8 00000000 		.4byte	0
 4727              	.LLST10:
 4728 01ac 00000000 		.4byte	.LFB17
 4729 01b0 02000000 		.4byte	.LCFI19
 4730 01b4 0200     		.2byte	0x2
 4731 01b6 7D       		.byte	0x7d
 4732 01b7 00       		.sleb128 0
 4733 01b8 02000000 		.4byte	.LCFI19
 4734 01bc 04000000 		.4byte	.LCFI20
 4735 01c0 0200     		.2byte	0x2
 4736 01c2 7D       		.byte	0x7d
 4737 01c3 04       		.sleb128 4
 4738 01c4 04000000 		.4byte	.LCFI20
 4739 01c8 34000000 		.4byte	.LFE17
 4740 01cc 0200     		.2byte	0x2
 4741 01ce 7D       		.byte	0x7d
 4742 01cf 10       		.sleb128 16
 4743 01d0 00000000 		.4byte	0
 4744 01d4 00000000 		.4byte	0
 4745              	.LLST11:
 4746 01d8 00000000 		.4byte	.LFB18
ARM GAS  /tmp/cciE3hUa.s 			page 87


 4747 01dc 02000000 		.4byte	.LCFI21
 4748 01e0 0200     		.2byte	0x2
 4749 01e2 7D       		.byte	0x7d
 4750 01e3 00       		.sleb128 0
 4751 01e4 02000000 		.4byte	.LCFI21
 4752 01e8 14000000 		.4byte	.LFE18
 4753 01ec 0200     		.2byte	0x2
 4754 01ee 7D       		.byte	0x7d
 4755 01ef 08       		.sleb128 8
 4756 01f0 00000000 		.4byte	0
 4757 01f4 00000000 		.4byte	0
 4758              	.LLST12:
 4759 01f8 00000000 		.4byte	.LFB19
 4760 01fc 02000000 		.4byte	.LCFI22
 4761 0200 0200     		.2byte	0x2
 4762 0202 7D       		.byte	0x7d
 4763 0203 00       		.sleb128 0
 4764 0204 02000000 		.4byte	.LCFI22
 4765 0208 04000000 		.4byte	.LCFI23
 4766 020c 0200     		.2byte	0x2
 4767 020e 7D       		.byte	0x7d
 4768 020f 04       		.sleb128 4
 4769 0210 04000000 		.4byte	.LCFI23
 4770 0214 DC010000 		.4byte	.LFE19
 4771 0218 0200     		.2byte	0x2
 4772 021a 7D       		.byte	0x7d
 4773 021b 18       		.sleb128 24
 4774 021c 00000000 		.4byte	0
 4775 0220 00000000 		.4byte	0
 4776              	.LLST13:
 4777 0224 00000000 		.4byte	.LFB20
 4778 0228 02000000 		.4byte	.LCFI24
 4779 022c 0200     		.2byte	0x2
 4780 022e 7D       		.byte	0x7d
 4781 022f 00       		.sleb128 0
 4782 0230 02000000 		.4byte	.LCFI24
 4783 0234 04000000 		.4byte	.LCFI25
 4784 0238 0200     		.2byte	0x2
 4785 023a 7D       		.byte	0x7d
 4786 023b 04       		.sleb128 4
 4787 023c 04000000 		.4byte	.LCFI25
 4788 0240 42000000 		.4byte	.LFE20
 4789 0244 0200     		.2byte	0x2
 4790 0246 7D       		.byte	0x7d
 4791 0247 10       		.sleb128 16
 4792 0248 00000000 		.4byte	0
 4793 024c 00000000 		.4byte	0
 4794              	.LLST14:
 4795 0250 00000000 		.4byte	.LFB21
 4796 0254 02000000 		.4byte	.LCFI26
 4797 0258 0200     		.2byte	0x2
 4798 025a 7D       		.byte	0x7d
 4799 025b 00       		.sleb128 0
 4800 025c 02000000 		.4byte	.LCFI26
 4801 0260 04000000 		.4byte	.LCFI27
 4802 0264 0200     		.2byte	0x2
 4803 0266 7D       		.byte	0x7d
ARM GAS  /tmp/cciE3hUa.s 			page 88


 4804 0267 04       		.sleb128 4
 4805 0268 04000000 		.4byte	.LCFI27
 4806 026c 78010000 		.4byte	.LFE21
 4807 0270 0200     		.2byte	0x2
 4808 0272 7D       		.byte	0x7d
 4809 0273 18       		.sleb128 24
 4810 0274 00000000 		.4byte	0
 4811 0278 00000000 		.4byte	0
 4812              	.LLST15:
 4813 027c 00000000 		.4byte	.LFB22
 4814 0280 02000000 		.4byte	.LCFI28
 4815 0284 0200     		.2byte	0x2
 4816 0286 7D       		.byte	0x7d
 4817 0287 00       		.sleb128 0
 4818 0288 02000000 		.4byte	.LCFI28
 4819 028c 04000000 		.4byte	.LCFI29
 4820 0290 0200     		.2byte	0x2
 4821 0292 7D       		.byte	0x7d
 4822 0293 04       		.sleb128 4
 4823 0294 04000000 		.4byte	.LCFI29
 4824 0298 14010000 		.4byte	.LFE22
 4825 029c 0200     		.2byte	0x2
 4826 029e 7D       		.byte	0x7d
 4827 029f 18       		.sleb128 24
 4828 02a0 00000000 		.4byte	0
 4829 02a4 00000000 		.4byte	0
 4830              	.LLST16:
 4831 02a8 00000000 		.4byte	.LFB23
 4832 02ac 02000000 		.4byte	.LCFI30
 4833 02b0 0200     		.2byte	0x2
 4834 02b2 7D       		.byte	0x7d
 4835 02b3 00       		.sleb128 0
 4836 02b4 02000000 		.4byte	.LCFI30
 4837 02b8 08000000 		.4byte	.LFE23
 4838 02bc 0200     		.2byte	0x2
 4839 02be 7D       		.byte	0x7d
 4840 02bf 08       		.sleb128 8
 4841 02c0 00000000 		.4byte	0
 4842 02c4 00000000 		.4byte	0
 4843              	.LLST17:
 4844 02c8 00000000 		.4byte	.LFB24
 4845 02cc 02000000 		.4byte	.LCFI31
 4846 02d0 0200     		.2byte	0x2
 4847 02d2 7D       		.byte	0x7d
 4848 02d3 00       		.sleb128 0
 4849 02d4 02000000 		.4byte	.LCFI31
 4850 02d8 04000000 		.4byte	.LCFI32
 4851 02dc 0200     		.2byte	0x2
 4852 02de 7D       		.byte	0x7d
 4853 02df 04       		.sleb128 4
 4854 02e0 04000000 		.4byte	.LCFI32
 4855 02e4 C2000000 		.4byte	.LFE24
 4856 02e8 0200     		.2byte	0x2
 4857 02ea 7D       		.byte	0x7d
 4858 02eb 10       		.sleb128 16
 4859 02ec 00000000 		.4byte	0
 4860 02f0 00000000 		.4byte	0
ARM GAS  /tmp/cciE3hUa.s 			page 89


 4861              	.LLST18:
 4862 02f4 00000000 		.4byte	.LFB25
 4863 02f8 02000000 		.4byte	.LCFI33
 4864 02fc 0200     		.2byte	0x2
 4865 02fe 7D       		.byte	0x7d
 4866 02ff 00       		.sleb128 0
 4867 0300 02000000 		.4byte	.LCFI33
 4868 0304 14000000 		.4byte	.LFE25
 4869 0308 0200     		.2byte	0x2
 4870 030a 7D       		.byte	0x7d
 4871 030b 08       		.sleb128 8
 4872 030c 00000000 		.4byte	0
 4873 0310 00000000 		.4byte	0
 4874              	.LLST19:
 4875 0314 00000000 		.4byte	.LFB26
 4876 0318 02000000 		.4byte	.LCFI34
 4877 031c 0200     		.2byte	0x2
 4878 031e 7D       		.byte	0x7d
 4879 031f 00       		.sleb128 0
 4880 0320 02000000 		.4byte	.LCFI34
 4881 0324 04000000 		.4byte	.LCFI35
 4882 0328 0200     		.2byte	0x2
 4883 032a 7D       		.byte	0x7d
 4884 032b 04       		.sleb128 4
 4885 032c 04000000 		.4byte	.LCFI35
 4886 0330 BA000000 		.4byte	.LFE26
 4887 0334 0200     		.2byte	0x2
 4888 0336 7D       		.byte	0x7d
 4889 0337 10       		.sleb128 16
 4890 0338 00000000 		.4byte	0
 4891 033c 00000000 		.4byte	0
 4892              	.LLST20:
 4893 0340 00000000 		.4byte	.LFB27
 4894 0344 02000000 		.4byte	.LCFI36
 4895 0348 0200     		.2byte	0x2
 4896 034a 7D       		.byte	0x7d
 4897 034b 00       		.sleb128 0
 4898 034c 02000000 		.4byte	.LCFI36
 4899 0350 10000000 		.4byte	.LFE27
 4900 0354 0200     		.2byte	0x2
 4901 0356 7D       		.byte	0x7d
 4902 0357 08       		.sleb128 8
 4903 0358 00000000 		.4byte	0
 4904 035c 00000000 		.4byte	0
 4905              	.LLST21:
 4906 0360 00000000 		.4byte	.LFB28
 4907 0364 02000000 		.4byte	.LCFI37
 4908 0368 0200     		.2byte	0x2
 4909 036a 7D       		.byte	0x7d
 4910 036b 00       		.sleb128 0
 4911 036c 02000000 		.4byte	.LCFI37
 4912 0370 04000000 		.4byte	.LCFI38
 4913 0374 0200     		.2byte	0x2
 4914 0376 7D       		.byte	0x7d
 4915 0377 04       		.sleb128 4
 4916 0378 04000000 		.4byte	.LCFI38
 4917 037c 9A000000 		.4byte	.LFE28
ARM GAS  /tmp/cciE3hUa.s 			page 90


 4918 0380 0200     		.2byte	0x2
 4919 0382 7D       		.byte	0x7d
 4920 0383 10       		.sleb128 16
 4921 0384 00000000 		.4byte	0
 4922 0388 00000000 		.4byte	0
 4923              	.LLST22:
 4924 038c 00000000 		.4byte	.LFB29
 4925 0390 02000000 		.4byte	.LCFI39
 4926 0394 0200     		.2byte	0x2
 4927 0396 7D       		.byte	0x7d
 4928 0397 00       		.sleb128 0
 4929 0398 02000000 		.4byte	.LCFI39
 4930 039c 44010000 		.4byte	.LFE29
 4931 03a0 0200     		.2byte	0x2
 4932 03a2 7D       		.byte	0x7d
 4933 03a3 08       		.sleb128 8
 4934 03a4 00000000 		.4byte	0
 4935 03a8 00000000 		.4byte	0
 4936              		.section	.debug_aranges,"",%progbits
 4937 0000 CC000000 		.4byte	0xcc
 4938 0004 0200     		.2byte	0x2
 4939 0006 00000000 		.4byte	.Ldebug_info0
 4940 000a 04       		.byte	0x4
 4941 000b 00       		.byte	0
 4942 000c 0000     		.2byte	0
 4943 000e 0000     		.2byte	0
 4944 0010 00000000 		.4byte	.LFB7
 4945 0014 2A000000 		.4byte	.LFE7-.LFB7
 4946 0018 00000000 		.4byte	.LFB8
 4947 001c 50000000 		.4byte	.LFE8-.LFB8
 4948 0020 00000000 		.4byte	.LFB9
 4949 0024 94000000 		.4byte	.LFE9-.LFB9
 4950 0028 00000000 		.4byte	.LFB10
 4951 002c 94000000 		.4byte	.LFE10-.LFB10
 4952 0030 00000000 		.4byte	.LFB11
 4953 0034 0C000000 		.4byte	.LFE11-.LFB11
 4954 0038 00000000 		.4byte	.LFB12
 4955 003c 94010000 		.4byte	.LFE12-.LFB12
 4956 0040 00000000 		.4byte	.LFB13
 4957 0044 48000000 		.4byte	.LFE13-.LFB13
 4958 0048 00000000 		.4byte	.LFB14
 4959 004c 0C010000 		.4byte	.LFE14-.LFB14
 4960 0050 00000000 		.4byte	.LFB15
 4961 0054 94000000 		.4byte	.LFE15-.LFB15
 4962 0058 00000000 		.4byte	.LFB16
 4963 005c 8C000000 		.4byte	.LFE16-.LFB16
 4964 0060 00000000 		.4byte	.LFB17
 4965 0064 34000000 		.4byte	.LFE17-.LFB17
 4966 0068 00000000 		.4byte	.LFB18
 4967 006c 14000000 		.4byte	.LFE18-.LFB18
 4968 0070 00000000 		.4byte	.LFB19
 4969 0074 DC010000 		.4byte	.LFE19-.LFB19
 4970 0078 00000000 		.4byte	.LFB20
 4971 007c 42000000 		.4byte	.LFE20-.LFB20
 4972 0080 00000000 		.4byte	.LFB21
 4973 0084 78010000 		.4byte	.LFE21-.LFB21
 4974 0088 00000000 		.4byte	.LFB22
ARM GAS  /tmp/cciE3hUa.s 			page 91


 4975 008c 14010000 		.4byte	.LFE22-.LFB22
 4976 0090 00000000 		.4byte	.LFB23
 4977 0094 08000000 		.4byte	.LFE23-.LFB23
 4978 0098 00000000 		.4byte	.LFB24
 4979 009c C2000000 		.4byte	.LFE24-.LFB24
 4980 00a0 00000000 		.4byte	.LFB25
 4981 00a4 14000000 		.4byte	.LFE25-.LFB25
 4982 00a8 00000000 		.4byte	.LFB26
 4983 00ac BA000000 		.4byte	.LFE26-.LFB26
 4984 00b0 00000000 		.4byte	.LFB27
 4985 00b4 10000000 		.4byte	.LFE27-.LFB27
 4986 00b8 00000000 		.4byte	.LFB28
 4987 00bc 9A000000 		.4byte	.LFE28-.LFB28
 4988 00c0 00000000 		.4byte	.LFB29
 4989 00c4 44010000 		.4byte	.LFE29-.LFB29
 4990 00c8 00000000 		.4byte	0
 4991 00cc 00000000 		.4byte	0
 4992              		.section	.debug_ranges,"",%progbits
 4993              	.Ldebug_ranges0:
 4994 0000 00000000 		.4byte	.LFB7
 4995 0004 2A000000 		.4byte	.LFE7
 4996 0008 00000000 		.4byte	.LFB8
 4997 000c 50000000 		.4byte	.LFE8
 4998 0010 00000000 		.4byte	.LFB9
 4999 0014 94000000 		.4byte	.LFE9
 5000 0018 00000000 		.4byte	.LFB10
 5001 001c 94000000 		.4byte	.LFE10
 5002 0020 00000000 		.4byte	.LFB11
 5003 0024 0C000000 		.4byte	.LFE11
 5004 0028 00000000 		.4byte	.LFB12
 5005 002c 94010000 		.4byte	.LFE12
 5006 0030 00000000 		.4byte	.LFB13
 5007 0034 48000000 		.4byte	.LFE13
 5008 0038 00000000 		.4byte	.LFB14
 5009 003c 0C010000 		.4byte	.LFE14
 5010 0040 00000000 		.4byte	.LFB15
 5011 0044 94000000 		.4byte	.LFE15
 5012 0048 00000000 		.4byte	.LFB16
 5013 004c 8C000000 		.4byte	.LFE16
 5014 0050 00000000 		.4byte	.LFB17
 5015 0054 34000000 		.4byte	.LFE17
 5016 0058 00000000 		.4byte	.LFB18
 5017 005c 14000000 		.4byte	.LFE18
 5018 0060 00000000 		.4byte	.LFB19
 5019 0064 DC010000 		.4byte	.LFE19
 5020 0068 00000000 		.4byte	.LFB20
 5021 006c 42000000 		.4byte	.LFE20
 5022 0070 00000000 		.4byte	.LFB21
 5023 0074 78010000 		.4byte	.LFE21
 5024 0078 00000000 		.4byte	.LFB22
 5025 007c 14010000 		.4byte	.LFE22
 5026 0080 00000000 		.4byte	.LFB23
 5027 0084 08000000 		.4byte	.LFE23
 5028 0088 00000000 		.4byte	.LFB24
 5029 008c C2000000 		.4byte	.LFE24
 5030 0090 00000000 		.4byte	.LFB25
 5031 0094 14000000 		.4byte	.LFE25
ARM GAS  /tmp/cciE3hUa.s 			page 92


 5032 0098 00000000 		.4byte	.LFB26
 5033 009c BA000000 		.4byte	.LFE26
 5034 00a0 00000000 		.4byte	.LFB27
 5035 00a4 10000000 		.4byte	.LFE27
 5036 00a8 00000000 		.4byte	.LFB28
 5037 00ac 9A000000 		.4byte	.LFE28
 5038 00b0 00000000 		.4byte	.LFB29
 5039 00b4 44010000 		.4byte	.LFE29
 5040 00b8 00000000 		.4byte	0
 5041 00bc 00000000 		.4byte	0
 5042              		.section	.debug_line,"",%progbits
 5043              	.Ldebug_line0:
 5044 0000 1C050000 		.section	.debug_str,"MS",%progbits,1
 5044      02006C01 
 5044      00000201 
 5044      FB0E0D00 
 5044      01010101 
 5045              	.LASF41:
 5046 0000 705F6D73 		.ascii	"p_msg\000"
 5046      6700
 5047              	.LASF2:
 5048 0006 73697A65 		.ascii	"size_t\000"
 5048      5F7400
 5049              	.LASF104:
 5050 000d 7072696F 		.ascii	"prio\000"
 5050      00
 5051              	.LASF74:
 5052 0012 7264796D 		.ascii	"rdymsg\000"
 5052      736700
 5053              	.LASF12:
 5054 0019 75696E74 		.ascii	"uint64_t\000"
 5054      36345F74 
 5054      00
 5055              	.LASF13:
 5056 0022 6C6F6E67 		.ascii	"long long unsigned int\000"
 5056      206C6F6E 
 5056      6720756E 
 5056      7369676E 
 5056      65642069 
 5057              	.LASF75:
 5058 0039 65786974 		.ascii	"exitcode\000"
 5058      636F6465 
 5058      00
 5059              	.LASF107:
 5060 0042 626D6B37 		.ascii	"bmk7_execute\000"
 5060      5F657865 
 5060      63757465 
 5060      00
 5061              	.LASF28:
 5062 004f 705F7072 		.ascii	"p_prio\000"
 5062      696F00
 5063              	.LASF80:
 5064 0056 715F7761 		.ascii	"q_waiting\000"
 5064      6974696E 
 5064      6700
 5065              	.LASF11:
 5066 0060 6C6F6E67 		.ascii	"long long int\000"
ARM GAS  /tmp/cciE3hUa.s 			page 93


 5066      206C6F6E 
 5066      6720696E 
 5066      7400
 5067              	.LASF1:
 5068 006e 7369676E 		.ascii	"signed char\000"
 5068      65642063 
 5068      68617200 
 5069              	.LASF45:
 5070 007a 705F6D70 		.ascii	"p_mpool\000"
 5070      6F6F6C00 
 5071              	.LASF14:
 5072 0082 626F6F6C 		.ascii	"bool_t\000"
 5072      5F7400
 5073              	.LASF71:
 5074 0089 6D5F7175 		.ascii	"m_queue\000"
 5074      65756500 
 5075              	.LASF106:
 5076 0091 74687265 		.ascii	"thread3\000"
 5076      61643300 
 5077              	.LASF96:
 5078 0099 6D73675F 		.ascii	"msg_loop_test\000"
 5078      6C6F6F70 
 5078      5F746573 
 5078      7400
 5079              	.LASF19:
 5080 00a7 74736C69 		.ascii	"tslices_t\000"
 5080      6365735F 
 5080      7400
 5081              	.LASF8:
 5082 00b1 6C6F6E67 		.ascii	"long int\000"
 5082      20696E74 
 5082      00
 5083              	.LASF17:
 5084 00ba 74737461 		.ascii	"tstate_t\000"
 5084      74655F74 
 5084      00
 5085              	.LASF97:
 5086 00c3 626D6B31 		.ascii	"bmk1_execute\000"
 5086      5F657865 
 5086      63757465 
 5086      00
 5087              	.LASF82:
 5088 00d0 715F6275 		.ascii	"q_buffer\000"
 5088      66666572 
 5088      00
 5089              	.LASF84:
 5090 00d9 715F7772 		.ascii	"q_wrptr\000"
 5090      70747200 
 5091              	.LASF30:
 5092 00e1 705F6E65 		.ascii	"p_newer\000"
 5092      77657200 
 5093              	.LASF68:
 5094 00e9 735F7175 		.ascii	"s_queue\000"
 5094      65756500 
 5095              	.LASF109:
 5096 00f1 626D6B38 		.ascii	"bmk8_execute\000"
 5096      5F657865 
ARM GAS  /tmp/cciE3hUa.s 			page 94


 5096      63757465 
 5096      00
 5097              	.LASF63:
 5098 00fe 725F6E65 		.ascii	"r_newer\000"
 5098      77657200 
 5099              	.LASF48:
 5100 0106 72656761 		.ascii	"regarm_t\000"
 5100      726D5F74 
 5100      00
 5101              	.LASF56:
 5102 010f 76745F70 		.ascii	"vt_prev\000"
 5102      72657600 
 5103              	.LASF135:
 5104 0117 74657374 		.ascii	"testbmk12\000"
 5104      626D6B31 
 5104      3200
 5105              	.LASF119:
 5106 0121 73656D31 		.ascii	"sem1\000"
 5106      00
 5107              	.LASF118:
 5108 0126 626D6B31 		.ascii	"bmk13_execute\000"
 5108      335F6578 
 5108      65637574 
 5108      6500
 5109              	.LASF130:
 5110 0134 74657374 		.ascii	"testbmk7\000"
 5110      626D6B37 
 5110      00
 5111              	.LASF24:
 5112 013d 636E745F 		.ascii	"cnt_t\000"
 5112      7400
 5113              	.LASF33:
 5114 0143 705F7374 		.ascii	"p_stklimit\000"
 5114      6B6C696D 
 5114      697400
 5115              	.LASF0:
 5116 014e 756E7369 		.ascii	"unsigned int\000"
 5116      676E6564 
 5116      20696E74 
 5116      00
 5117              	.LASF115:
 5118 015b 626D6B31 		.ascii	"bmk11_execute\000"
 5118      315F6578 
 5118      65637574 
 5118      6500
 5119              	.LASF55:
 5120 0169 76745F6E 		.ascii	"vt_next\000"
 5120      65787400 
 5121              	.LASF112:
 5122 0171 626D6B31 		.ascii	"bmk10_execute\000"
 5122      305F6578 
 5122      65637574 
 5122      6500
 5123              	.LASF10:
 5124 017f 6C6F6E67 		.ascii	"long unsigned int\000"
 5124      20756E73 
 5124      69676E65 
ARM GAS  /tmp/cciE3hUa.s 			page 95


 5124      6420696E 
 5124      7400
 5125              	.LASF93:
 5126 0191 74656172 		.ascii	"teardown\000"
 5126      646F776E 
 5126      00
 5127              	.LASF123:
 5128 019a 74657374 		.ascii	"test_timer_done\000"
 5128      5F74696D 
 5128      65725F64 
 5128      6F6E6500 
 5129              	.LASF129:
 5130 01aa 74657374 		.ascii	"testbmk6\000"
 5130      626D6B36 
 5130      00
 5131              	.LASF98:
 5132 01b3 626D6B32 		.ascii	"bmk2_execute\000"
 5132      5F657865 
 5132      63757465 
 5132      00
 5133              	.LASF91:
 5134 01c0 6E616D65 		.ascii	"name\000"
 5134      00
 5135              	.LASF69:
 5136 01c5 735F636E 		.ascii	"s_cnt\000"
 5136      7400
 5137              	.LASF51:
 5138 01cb 636F6E74 		.ascii	"context\000"
 5138      65787400 
 5139              	.LASF6:
 5140 01d3 73686F72 		.ascii	"short unsigned int\000"
 5140      7420756E 
 5140      7369676E 
 5140      65642069 
 5140      6E7400
 5141              	.LASF120:
 5142 01e6 6D747831 		.ascii	"mtx1\000"
 5142      00
 5143              	.LASF21:
 5144 01eb 6D73675F 		.ascii	"msg_t\000"
 5144      7400
 5145              	.LASF110:
 5146 01f1 626D6B39 		.ascii	"bmk9_execute\000"
 5146      5F657865 
 5146      63757465 
 5146      00
 5147              	.LASF16:
 5148 01fe 746D6F64 		.ascii	"tmode_t\000"
 5148      655F7400 
 5149              	.LASF117:
 5150 0206 626D6B31 		.ascii	"bmk12_execute\000"
 5150      325F6578 
 5150      65637574 
 5150      6500
 5151              	.LASF47:
 5152 0214 54687265 		.ascii	"ThreadsList\000"
 5152      6164734C 
ARM GAS  /tmp/cciE3hUa.s 			page 96


 5152      69737400 
 5153              	.LASF124:
 5154 0220 74657374 		.ascii	"testbmk1\000"
 5154      626D6B31 
 5154      00
 5155              	.LASF22:
 5156 0229 6576656E 		.ascii	"eventmask_t\000"
 5156      746D6173 
 5156      6B5F7400 
 5157              	.LASF89:
 5158 0235 496E7075 		.ascii	"InputQueue\000"
 5158      74517565 
 5158      756500
 5159              	.LASF70:
 5160 0240 4D757465 		.ascii	"Mutex\000"
 5160      7800
 5161              	.LASF138:
 5162 0246 474E5520 		.ascii	"GNU C 4.7.4 20130613 (release) [ARM/embedded-4_7-br"
 5162      4320342E 
 5162      372E3420 
 5162      32303133 
 5162      30363133 
 5163 0279 616E6368 		.ascii	"anch revision 200083]\000"
 5163      20726576 
 5163      6973696F 
 5163      6E203230 
 5163      30303833 
 5164              	.LASF128:
 5165 028f 74657374 		.ascii	"testbmk5\000"
 5165      626D6B35 
 5165      00
 5166              	.LASF139:
 5167 0298 2E2E2F2E 		.ascii	"../../test/testbmk.c\000"
 5167      2E2F7465 
 5167      73742F74 
 5167      65737462 
 5167      6D6B2E63 
 5168              	.LASF79:
 5169 02ad 47656E65 		.ascii	"GenericQueue\000"
 5169      72696351 
 5169      75657565 
 5169      00
 5170              	.LASF49:
 5171 02ba 73746B61 		.ascii	"stkalign_t\000"
 5171      6C69676E 
 5171      5F7400
 5172              	.LASF131:
 5173 02c5 74657374 		.ascii	"testbmk8\000"
 5173      626D6B38 
 5173      00
 5174              	.LASF57:
 5175 02ce 76745F74 		.ascii	"vt_time\000"
 5175      696D6500 
 5176              	.LASF114:
 5177 02d6 626D6B31 		.ascii	"bmk11_setup\000"
 5177      315F7365 
 5177      74757000 
ARM GAS  /tmp/cciE3hUa.s 			page 97


 5178              	.LASF52:
 5179 02e2 73697A65 		.ascii	"sizetype\000"
 5179      74797065 
 5179      00
 5180              	.LASF125:
 5181 02eb 74657374 		.ascii	"testbmk2\000"
 5181      626D6B32 
 5181      00
 5182              	.LASF126:
 5183 02f4 74657374 		.ascii	"testbmk3\000"
 5183      626D6B33 
 5183      00
 5184              	.LASF127:
 5185 02fd 74657374 		.ascii	"testbmk4\000"
 5185      626D6B34 
 5185      00
 5186              	.LASF81:
 5187 0306 715F636F 		.ascii	"q_counter\000"
 5187      756E7465 
 5187      7200
 5188              	.LASF58:
 5189 0310 76745F66 		.ascii	"vt_func\000"
 5189      756E6300 
 5190              	.LASF100:
 5191 0318 626D6B33 		.ascii	"bmk3_execute\000"
 5191      5F657865 
 5191      63757465 
 5191      00
 5192              	.LASF132:
 5193 0325 74657374 		.ascii	"testbmk9\000"
 5193      626D6B39 
 5193      00
 5194              	.LASF116:
 5195 032e 626D6B31 		.ascii	"bmk12_setup\000"
 5195      325F7365 
 5195      74757000 
 5196              	.LASF111:
 5197 033a 70617261 		.ascii	"param\000"
 5197      6D00
 5198              	.LASF31:
 5199 0340 705F6F6C 		.ascii	"p_older\000"
 5199      64657200 
 5200              	.LASF95:
 5201 0348 74687265 		.ascii	"thread1\000"
 5201      61643100 
 5202              	.LASF140:
 5203 0350 2F686F6D 		.ascii	"/home/witold/Dokumenty/arm/ChibiOS-master/demos/dis"
 5203      652F7769 
 5203      746F6C64 
 5203      2F446F6B 
 5203      756D656E 
 5204 0383 636F7665 		.ascii	"covery_1wire\000"
 5204      72795F31 
 5204      77697265 
 5204      00
 5205              	.LASF62:
 5206 0390 725F6374 		.ascii	"r_ctx\000"
ARM GAS  /tmp/cciE3hUa.s 			page 98


 5206      7800
 5207              	.LASF141:
 5208 0396 74687265 		.ascii	"thread4\000"
 5208      61643400 
 5209              	.LASF46:
 5210 039e 54687265 		.ascii	"ThreadsQueue\000"
 5210      61647351 
 5210      75657565 
 5210      00
 5211              	.LASF108:
 5212 03ab 74687265 		.ascii	"thread8\000"
 5212      61643800 
 5213              	.LASF92:
 5214 03b3 73657475 		.ascii	"setup\000"
 5214      7000
 5215              	.LASF65:
 5216 03b9 725F6375 		.ascii	"r_current\000"
 5216      7272656E 
 5216      7400
 5217              	.LASF64:
 5218 03c3 725F6F6C 		.ascii	"r_older\000"
 5218      64657200 
 5219              	.LASF18:
 5220 03cb 74726566 		.ascii	"trefs_t\000"
 5220      735F7400 
 5221              	.LASF88:
 5222 03d3 716E6F74 		.ascii	"qnotify_t\000"
 5222      6966795F 
 5222      7400
 5223              	.LASF27:
 5224 03dd 705F7072 		.ascii	"p_prev\000"
 5224      657600
 5225              	.LASF94:
 5226 03e4 65786563 		.ascii	"execute\000"
 5226      75746500 
 5227              	.LASF20:
 5228 03ec 74707269 		.ascii	"tprio_t\000"
 5228      6F5F7400 
 5229              	.LASF85:
 5230 03f4 715F7264 		.ascii	"q_rdptr\000"
 5230      70747200 
 5231              	.LASF15:
 5232 03fc 5F426F6F 		.ascii	"_Bool\000"
 5232      6C00
 5233              	.LASF7:
 5234 0402 696E7433 		.ascii	"int32_t\000"
 5234      325F7400 
 5235              	.LASF4:
 5236 040a 756E7369 		.ascii	"unsigned char\000"
 5236      676E6564 
 5236      20636861 
 5236      7200
 5237              	.LASF43:
 5238 0418 705F6D74 		.ascii	"p_mtxlist\000"
 5238      786C6973 
 5238      7400
 5239              	.LASF5:
ARM GAS  /tmp/cciE3hUa.s 			page 99


 5240 0422 73686F72 		.ascii	"short int\000"
 5240      7420696E 
 5240      7400
 5241              	.LASF34:
 5242 042c 705F7374 		.ascii	"p_state\000"
 5242      61746500 
 5243              	.LASF37:
 5244 0434 705F7072 		.ascii	"p_preempt\000"
 5244      65656D70 
 5244      7400
 5245              	.LASF122:
 5246 043e 74687265 		.ascii	"threads\000"
 5246      61647300 
 5247              	.LASF61:
 5248 0446 725F7072 		.ascii	"r_prio\000"
 5248      696F00
 5249              	.LASF77:
 5250 044d 65776D61 		.ascii	"ewmask\000"
 5250      736B00
 5251              	.LASF26:
 5252 0454 705F6E65 		.ascii	"p_next\000"
 5252      787400
 5253              	.LASF35:
 5254 045b 705F666C 		.ascii	"p_flags\000"
 5254      61677300 
 5255              	.LASF137:
 5256 0463 70617474 		.ascii	"patternbmk\000"
 5256      65726E62 
 5256      6D6B00
 5257              	.LASF25:
 5258 046e 54687265 		.ascii	"Thread\000"
 5258      616400
 5259              	.LASF133:
 5260 0475 74657374 		.ascii	"testbmk10\000"
 5260      626D6B31 
 5260      3000
 5261              	.LASF134:
 5262 047f 74657374 		.ascii	"testbmk11\000"
 5262      626D6B31 
 5262      3100
 5263              	.LASF90:
 5264 0489 74657374 		.ascii	"testcase\000"
 5264      63617365 
 5264      00
 5265              	.LASF136:
 5266 0492 74657374 		.ascii	"testbmk13\000"
 5266      626D6B31 
 5266      3300
 5267              	.LASF42:
 5268 049c 705F6570 		.ascii	"p_epending\000"
 5268      656E6469 
 5268      6E6700
 5269              	.LASF9:
 5270 04a7 75696E74 		.ascii	"uint32_t\000"
 5270      33325F74 
 5270      00
 5271              	.LASF60:
ARM GAS  /tmp/cciE3hUa.s 			page 100


 5272 04b0 725F7175 		.ascii	"r_queue\000"
 5272      65756500 
 5273              	.LASF54:
 5274 04b8 56697274 		.ascii	"VirtualTimer\000"
 5274      75616C54 
 5274      696D6572 
 5274      00
 5275              	.LASF78:
 5276 04c5 63686172 		.ascii	"char\000"
 5276      00
 5277              	.LASF101:
 5278 04ca 73656C66 		.ascii	"self\000"
 5278      00
 5279              	.LASF99:
 5280 04cf 74687265 		.ascii	"thread2\000"
 5280      61643200 
 5281              	.LASF73:
 5282 04d7 6D5F6E65 		.ascii	"m_next\000"
 5282      787400
 5283              	.LASF23:
 5284 04de 73797374 		.ascii	"systime_t\000"
 5284      696D655F 
 5284      7400
 5285              	.LASF44:
 5286 04e8 705F7265 		.ascii	"p_realprio\000"
 5286      616C7072 
 5286      696F00
 5287              	.LASF53:
 5288 04f3 76746675 		.ascii	"vtfunc_t\000"
 5288      6E635F74 
 5288      00
 5289              	.LASF103:
 5290 04fc 626D6B35 		.ascii	"bmk5_execute\000"
 5290      5F657865 
 5290      63757465 
 5290      00
 5291              	.LASF38:
 5292 0509 705F7469 		.ascii	"p_time\000"
 5292      6D6500
 5293              	.LASF50:
 5294 0510 696E7463 		.ascii	"intctx\000"
 5294      747800
 5295              	.LASF40:
 5296 0517 705F6D73 		.ascii	"p_msgqueue\000"
 5296      67717565 
 5296      756500
 5297              	.LASF59:
 5298 0522 76745F70 		.ascii	"vt_par\000"
 5298      617200
 5299              	.LASF67:
 5300 0529 53656D61 		.ascii	"Semaphore\000"
 5300      70686F72 
 5300      6500
 5301              	.LASF83:
 5302 0533 715F746F 		.ascii	"q_top\000"
 5302      7000
 5303              	.LASF36:
ARM GAS  /tmp/cciE3hUa.s 			page 101


 5304 0539 705F7265 		.ascii	"p_refs\000"
 5304      667300
 5305              	.LASF66:
 5306 0540 52656164 		.ascii	"ReadyList\000"
 5306      794C6973 
 5306      7400
 5307              	.LASF86:
 5308 054a 715F6E6F 		.ascii	"q_notify\000"
 5308      74696679 
 5308      00
 5309              	.LASF121:
 5310 0553 726C6973 		.ascii	"rlist\000"
 5310      7400
 5311              	.LASF3:
 5312 0559 75696E74 		.ascii	"uint8_t\000"
 5312      385F7400 
 5313              	.LASF76:
 5314 0561 77746F62 		.ascii	"wtobjp\000"
 5314      6A7000
 5315              	.LASF32:
 5316 0568 705F6E61 		.ascii	"p_name\000"
 5316      6D6500
 5317              	.LASF113:
 5318 056f 626D6B37 		.ascii	"bmk7_setup\000"
 5318      5F736574 
 5318      757000
 5319              	.LASF102:
 5320 057a 626D6B34 		.ascii	"bmk4_execute\000"
 5320      5F657865 
 5320      63757465 
 5320      00
 5321              	.LASF105:
 5322 0587 626D6B36 		.ascii	"bmk6_execute\000"
 5322      5F657865 
 5322      63757465 
 5322      00
 5323              	.LASF87:
 5324 0594 715F6C69 		.ascii	"q_link\000"
 5324      6E6B00
 5325              	.LASF72:
 5326 059b 6D5F6F77 		.ascii	"m_owner\000"
 5326      6E657200 
 5327              	.LASF29:
 5328 05a3 705F6374 		.ascii	"p_ctx\000"
 5328      7800
 5329              	.LASF39:
 5330 05a9 705F7761 		.ascii	"p_waiting\000"
 5330      6974696E 
 5330      6700
 5331              		.ident	"GCC: (GNU Tools for ARM Embedded Processors) 4.7.4 20130613 (release) [ARM/embedded-4_7-br
ARM GAS  /tmp/cciE3hUa.s 			page 102


DEFINED SYMBOLS
                            *ABS*:00000000 testbmk.c
     /tmp/cciE3hUa.s:19     .bss.sem1:00000000 $d
     /tmp/cciE3hUa.s:22     .bss.sem1:00000000 sem1
     /tmp/cciE3hUa.s:25     .bss.mtx1:00000000 $d
     /tmp/cciE3hUa.s:28     .bss.mtx1:00000000 mtx1
     /tmp/cciE3hUa.s:31     .text.thread1:00000000 $t
     /tmp/cciE3hUa.s:36     .text.thread1:00000000 thread1
     /tmp/cciE3hUa.s:77     .text.msg_loop_test:00000000 $t
     /tmp/cciE3hUa.s:82     .text.msg_loop_test:00000000 msg_loop_test
     /tmp/cciE3hUa.s:135    .rodata:00000000 $d
     /tmp/cciE3hUa.s:136    .rodata:00000000 .LC0
     /tmp/cciE3hUa.s:139    .rodata:00000010 .LC1
     /tmp/cciE3hUa.s:142    .rodata:0000001c .LC2
     /tmp/cciE3hUa.s:145    .text.bmk1_execute:00000000 $t
     /tmp/cciE3hUa.s:150    .text.bmk1_execute:00000000 bmk1_execute
     /tmp/cciE3hUa.s:228    .rodata.testbmk1:00000000 testbmk1
     /tmp/cciE3hUa.s:225    .rodata.testbmk1:00000000 $d
     /tmp/cciE3hUa.s:234    .text.bmk2_execute:00000000 $t
     /tmp/cciE3hUa.s:239    .text.bmk2_execute:00000000 bmk2_execute
     /tmp/cciE3hUa.s:317    .rodata.testbmk2:00000000 testbmk2
     /tmp/cciE3hUa.s:314    .rodata.testbmk2:00000000 $d
     /tmp/cciE3hUa.s:323    .text.thread2:00000000 $t
     /tmp/cciE3hUa.s:328    .text.thread2:00000000 thread2
     /tmp/cciE3hUa.s:349    .text.bmk3_execute:00000000 $t
     /tmp/cciE3hUa.s:354    .text.bmk3_execute:00000000 bmk3_execute
     /tmp/cciE3hUa.s:516    .rodata.testbmk3:00000000 testbmk3
     /tmp/cciE3hUa.s:513    .rodata.testbmk3:00000000 $d
     /tmp/cciE3hUa.s:522    .text.thread4:00000000 $t
     /tmp/cciE3hUa.s:528    .text.thread4:00000000 thread4
     /tmp/cciE3hUa.s:587    .text.bmk4_execute:00000000 $t
     /tmp/cciE3hUa.s:592    .text.bmk4_execute:00000000 bmk4_execute
     /tmp/cciE3hUa.s:737    .rodata.testbmk4:00000000 testbmk4
     /tmp/cciE3hUa.s:734    .rodata.testbmk4:00000000 $d
     /tmp/cciE3hUa.s:744    .rodata:0000008c .LC7
     /tmp/cciE3hUa.s:747    .text.bmk5_execute:00000000 $t
     /tmp/cciE3hUa.s:752    .text.bmk5_execute:00000000 bmk5_execute
     /tmp/cciE3hUa.s:836    .rodata.testbmk5:00000000 testbmk5
     /tmp/cciE3hUa.s:833    .rodata.testbmk5:00000000 $d
     /tmp/cciE3hUa.s:842    .text.bmk6_execute:00000000 $t
     /tmp/cciE3hUa.s:847    .text.bmk6_execute:00000000 bmk6_execute
     /tmp/cciE3hUa.s:928    .rodata.testbmk6:00000000 testbmk6
     /tmp/cciE3hUa.s:925    .rodata.testbmk6:00000000 $d
     /tmp/cciE3hUa.s:934    .text.thread3:00000000 $t
     /tmp/cciE3hUa.s:939    .text.thread3:00000000 thread3
     /tmp/cciE3hUa.s:979    .text.bmk7_setup:00000000 $t
     /tmp/cciE3hUa.s:984    .text.bmk7_setup:00000000 bmk7_setup
     /tmp/cciE3hUa.s:1007   .rodata:000000d8 .LC10
     /tmp/cciE3hUa.s:1010   .text.bmk7_execute:00000000 $t
     /tmp/cciE3hUa.s:1015   .text.bmk7_execute:00000000 bmk7_execute
     /tmp/cciE3hUa.s:1206   .rodata.testbmk7:00000000 testbmk7
     /tmp/cciE3hUa.s:1203   .rodata.testbmk7:00000000 $d
     /tmp/cciE3hUa.s:1212   .text.thread8:00000000 $t
     /tmp/cciE3hUa.s:1217   .text.thread8:00000000 thread8
     /tmp/cciE3hUa.s:1264   .text.bmk8_execute:00000000 $t
     /tmp/cciE3hUa.s:1269   .text.bmk8_execute:00000000 bmk8_execute
     /tmp/cciE3hUa.s:1426   .rodata.testbmk8:00000000 testbmk8
ARM GAS  /tmp/cciE3hUa.s 			page 103


     /tmp/cciE3hUa.s:1423   .rodata.testbmk8:00000000 $d
     /tmp/cciE3hUa.s:1433   .rodata:00000140 .LC13
     /tmp/cciE3hUa.s:1436   .text.bmk9_execute:00000000 $t
     /tmp/cciE3hUa.s:1441   .text.bmk9_execute:00000000 bmk9_execute
     /tmp/cciE3hUa.s:2197   .bss.iq.4972:00000000 iq.4972
     /tmp/cciE3hUa.s:2203   .bss.ib.4971:00000000 ib.4971
     /tmp/cciE3hUa.s:1571   .rodata.testbmk9:00000000 testbmk9
     /tmp/cciE3hUa.s:1568   .rodata.testbmk9:00000000 $d
     /tmp/cciE3hUa.s:1577   .text.tmo:00000000 $t
     /tmp/cciE3hUa.s:1582   .text.tmo:00000000 tmo
     /tmp/cciE3hUa.s:1601   .rodata:00000170 .LC15
     /tmp/cciE3hUa.s:1604   .text.bmk10_execute:00000000 $t
     /tmp/cciE3hUa.s:1609   .text.bmk10_execute:00000000 bmk10_execute
     /tmp/cciE3hUa.s:2185   .bss.vt1.4984:00000000 vt1.4984
     /tmp/cciE3hUa.s:2191   .bss.vt2.4985:00000000 vt2.4985
     /tmp/cciE3hUa.s:1713   .rodata.testbmk10:00000000 testbmk10
     /tmp/cciE3hUa.s:1710   .rodata.testbmk10:00000000 $d
     /tmp/cciE3hUa.s:1719   .text.bmk11_setup:00000000 $t
     /tmp/cciE3hUa.s:1724   .text.bmk11_setup:00000000 bmk11_setup
     /tmp/cciE3hUa.s:1747   .rodata:000001a0 .LC17
     /tmp/cciE3hUa.s:1750   .text.bmk11_execute:00000000 $t
     /tmp/cciE3hUa.s:1755   .text.bmk11_execute:00000000 bmk11_execute
     /tmp/cciE3hUa.s:1849   .rodata.testbmk11:00000000 testbmk11
     /tmp/cciE3hUa.s:1846   .rodata.testbmk11:00000000 $d
     /tmp/cciE3hUa.s:1855   .text.bmk12_setup:00000000 $t
     /tmp/cciE3hUa.s:1860   .text.bmk12_setup:00000000 bmk12_setup
     /tmp/cciE3hUa.s:1882   .rodata:000001d4 .LC19
     /tmp/cciE3hUa.s:1885   .text.bmk12_execute:00000000 $t
     /tmp/cciE3hUa.s:1890   .text.bmk12_execute:00000000 bmk12_execute
     /tmp/cciE3hUa.s:1976   .rodata.testbmk12:00000000 testbmk12
     /tmp/cciE3hUa.s:1973   .rodata.testbmk12:00000000 $d
     /tmp/cciE3hUa.s:1983   .rodata:00000204 .LC21
     /tmp/cciE3hUa.s:1986   .rodata:00000214 .LC22
     /tmp/cciE3hUa.s:1989   .rodata:0000021c .LC23
     /tmp/cciE3hUa.s:1992   .rodata:0000022c .LC24
     /tmp/cciE3hUa.s:1995   .rodata:0000023c .LC25
     /tmp/cciE3hUa.s:1998   .rodata:0000024c .LC26
     /tmp/cciE3hUa.s:2001   .rodata:0000025c .LC27
     /tmp/cciE3hUa.s:2004   .rodata:0000026c .LC28
     /tmp/cciE3hUa.s:2007   .rodata:0000027c .LC29
     /tmp/cciE3hUa.s:2010   .rodata:0000028c .LC30
     /tmp/cciE3hUa.s:2013   .rodata:0000029c .LC31
     /tmp/cciE3hUa.s:2016   .text.bmk13_execute:00000000 $t
     /tmp/cciE3hUa.s:2021   .text.bmk13_execute:00000000 bmk13_execute
     /tmp/cciE3hUa.s:2156   .rodata.testbmk13:00000000 testbmk13
     /tmp/cciE3hUa.s:2153   .rodata.testbmk13:00000000 $d
     /tmp/cciE3hUa.s:2166   .rodata.patternbmk:00000000 patternbmk
     /tmp/cciE3hUa.s:2163   .rodata.patternbmk:00000000 $d
     /tmp/cciE3hUa.s:2182   .bss.vt1.4984:00000000 $d
     /tmp/cciE3hUa.s:2188   .bss.vt2.4985:00000000 $d
     /tmp/cciE3hUa.s:2194   .bss.iq.4972:00000000 $d
     /tmp/cciE3hUa.s:2200   .bss.ib.4971:00000000 $d
                     .debug_frame:00000010 $d

UNDEFINED SYMBOLS
chMsgWait
chMsgRelease
ARM GAS  /tmp/cciE3hUa.s 			page 104


test_wait_tick
test_start_timer
chMsgSend
test_timer_done
wa
rlist
chThdCreateStatic
threads
test_wait_threads
test_print
test_printn
test_println
dbg_check_lock
chSchGoSleepS
dbg_check_unlock
chSchWakeupS
chThdWait
chSemWait
chSemInit
chSemReset
test_terminate_threads
chThdYield
chThdSleep
chIQInit
chIQPutI
chIQGetTimeout
chVTSetI
chVTResetI
chSemSignal
chMtxInit
chMtxLock
chMtxUnlock
