ARM GAS  /tmp/ccouNqwt.s 			page 1


   1              		.syntax unified
   2              		.cpu cortex-m4
   3              		.fpu softvfp
   4              		.eabi_attribute 20, 1
   5              		.eabi_attribute 21, 1
   6              		.eabi_attribute 23, 3
   7              		.eabi_attribute 24, 1
   8              		.eabi_attribute 25, 1
   9              		.eabi_attribute 26, 1
  10              		.eabi_attribute 30, 6
  11              		.eabi_attribute 34, 1
  12              		.eabi_attribute 18, 4
  13              		.thumb
  14              		.file	"usb.c"
  15              		.text
  16              	.Ltext0:
  17              		.cfi_sections	.debug_frame
  18              		.section	.rodata.zero_status,"a",%progbits
  19              		.align	2
  20              		.type	zero_status, %object
  21              		.size	zero_status, 2
  22              	zero_status:
  23 0000 0000     		.space	2
  24 0002 0000     		.section	.rodata.active_status,"a",%progbits
  25              		.align	2
  26              		.type	active_status, %object
  27              		.size	active_status, 2
  28              	active_status:
  29 0000 0000     		.space	2
  30 0002 0000     		.section	.rodata.halted_status,"a",%progbits
  31              		.align	2
  32              		.type	halted_status, %object
  33              		.size	halted_status, 2
  34              	halted_status:
  35 0000 01       		.byte	1
  36 0001 00       		.byte	0
  37 0002 0000     		.section	.text.set_address,"ax",%progbits
  38              		.align	2
  39              		.p2align 4,,15
  40              		.thumb
  41              		.thumb_func
  42              		.type	set_address, %function
  43              	set_address:
  44              	.LFB118:
  45              		.file 1 "../../os/hal/src/usb.c"
  46              		.loc 1 62 0
  47              		.cfi_startproc
  48              		@ args = 0, pretend = 0, frame = 8
  49              		@ frame_needed = 0, uses_anonymous_args = 0
  50 0000 00B5     		push	{lr}
  51              	.LCFI0:
  52              		.cfi_def_cfa_offset 4
  53              		.cfi_offset 14, -4
  54 0002 83B0     		sub	sp, sp, #12
  55              	.LCFI1:
  56              		.cfi_def_cfa_offset 16
  57 0004 0190     		str	r0, [sp, #4]
ARM GAS  /tmp/ccouNqwt.s 			page 2


  58              		.loc 1 64 0
  59 0006 019B     		ldr	r3, [sp, #4]
  60 0008 93F84620 		ldrb	r2, [r3, #70]	@ zero_extendqisi2
  61 000c 019B     		ldr	r3, [sp, #4]
  62 000e 83F84E20 		strb	r2, [r3, #78]
  63              		.loc 1 65 0
  64 0012 0198     		ldr	r0, [sp, #4]
  65 0014 FFF7FEFF 		bl	usb_lld_set_address
  66              		.loc 1 66 0
  67 0018 019B     		ldr	r3, [sp, #4]
  68 001a 5B68     		ldr	r3, [r3, #4]
  69 001c 1B68     		ldr	r3, [r3, #0]
  70 001e 002B     		cmp	r3, #0
  71 0020 06D0     		beq	.L2
  72              		.loc 1 66 0 is_stmt 0 discriminator 1
  73 0022 019B     		ldr	r3, [sp, #4]
  74 0024 5B68     		ldr	r3, [r3, #4]
  75 0026 1B68     		ldr	r3, [r3, #0]
  76 0028 0198     		ldr	r0, [sp, #4]
  77 002a 4FF00101 		mov	r1, #1
  78 002e 9847     		blx	r3
  79              	.L2:
  80              		.loc 1 67 0 is_stmt 1
  81 0030 019B     		ldr	r3, [sp, #4]
  82 0032 4FF00302 		mov	r2, #3
  83 0036 1A70     		strb	r2, [r3, #0]
  84              		.loc 1 68 0
  85 0038 03B0     		add	sp, sp, #12
  86 003a 00BD     		pop	{pc}
  87              		.cfi_endproc
  88              	.LFE118:
  89              		.size	set_address, .-set_address
  90 003c AFF30080 		.section	.text.default_handler,"ax",%progbits
  91              		.align	2
  92              		.p2align 4,,15
  93              		.thumb
  94              		.thumb_func
  95              		.type	default_handler, %function
  96              	default_handler:
  97              	.LFB119:
  98              		.loc 1 82 0
  99              		.cfi_startproc
 100              		@ args = 0, pretend = 0, frame = 16
 101              		@ frame_needed = 0, uses_anonymous_args = 0
 102 0000 10B5     		push	{r4, lr}
 103              	.LCFI2:
 104              		.cfi_def_cfa_offset 8
 105              		.cfi_offset 4, -8
 106              		.cfi_offset 14, -4
 107 0002 84B0     		sub	sp, sp, #16
 108              	.LCFI3:
 109              		.cfi_def_cfa_offset 24
 110 0004 0190     		str	r0, [sp, #4]
 111              		.loc 1 86 0
 112 0006 019B     		ldr	r3, [sp, #4]
 113 0008 93F84430 		ldrb	r3, [r3, #68]	@ zero_extendqisi2
 114 000c 03F07F02 		and	r2, r3, #127
ARM GAS  /tmp/ccouNqwt.s 			page 3


 115              		.loc 1 88 0
 116 0010 019B     		ldr	r3, [sp, #4]
 117 0012 93F84530 		ldrb	r3, [r3, #69]	@ zero_extendqisi2
 118 0016 4FEA0323 		lsl	r3, r3, #8
 119              		.loc 1 87 0
 120 001a 1343     		orrs	r3, r3, r2
 121              		.loc 1 86 0
 122 001c B3F5407F 		cmp	r3, #768
 123 0020 63D0     		beq	.L10
 124 0022 B3F5407F 		cmp	r3, #768
 125 0026 12DC     		bgt	.L16
 126 0028 022B     		cmp	r3, #2
 127 002a 00F01881 		beq	.L7
 128 002e 022B     		cmp	r3, #2
 129 0030 05DC     		bgt	.L17
 130 0032 002B     		cmp	r3, #0
 131 0034 29D0     		beq	.L5
 132 0036 012B     		cmp	r3, #1
 133 0038 00F00081 		beq	.L6
 134 003c F4E1     		b	.L4
 135              	.L17:
 136 003e B3F5807F 		cmp	r3, #256
 137 0042 32D0     		beq	.L8
 138 0044 B3F5817F 		cmp	r3, #258
 139 0048 00F07A81 		beq	.L9
 140 004c ECE1     		b	.L4
 141              	.L16:
 142 004e B3F5C06F 		cmp	r3, #1536
 143 0052 00F08680 		beq	.L13
 144 0056 B3F5C06F 		cmp	r3, #1536
 145 005a 08DC     		bgt	.L18
 146 005c 40F20232 		movw	r2, #770
 147 0060 9342     		cmp	r3, r2
 148 0062 00F0A781 		beq	.L11
 149 0066 B3F5A06F 		cmp	r3, #1280
 150 006a 5ED0     		beq	.L12
 151 006c DCE1     		b	.L4
 152              	.L18:
 153 006e B3F5106F 		cmp	r3, #2304
 154 0072 00F0B480 		beq	.L15
 155 0076 40F60242 		movw	r2, #3074
 156 007a 9342     		cmp	r3, r2
 157 007c 00F0DE80 		beq	.L6
 158 0080 B3F5006F 		cmp	r3, #2048
 159 0084 00F09B80 		beq	.L14
 160 0088 CEE1     		b	.L4
 161              	.L5:
 162              		.loc 1 91 0
 163 008a 019B     		ldr	r3, [sp, #4]
 164 008c 03F14C02 		add	r2, r3, #76
 165 0090 019B     		ldr	r3, [sp, #4]
 166 0092 9A63     		str	r2, [r3, #56]
 167 0094 019B     		ldr	r3, [sp, #4]
 168 0096 4FF00202 		mov	r2, #2
 169 009a DA63     		str	r2, [r3, #60]
 170 009c 019B     		ldr	r3, [sp, #4]
 171 009e 4FF00002 		mov	r2, #0
ARM GAS  /tmp/ccouNqwt.s 			page 4


 172 00a2 1A64     		str	r2, [r3, #64]
 173              		.loc 1 92 0
 174 00a4 4FF00103 		mov	r3, #1
 175 00a8 C0E1     		b	.L19
 176              	.L8:
 177              		.loc 1 96 0
 178 00aa 019B     		ldr	r3, [sp, #4]
 179 00ac 93F84630 		ldrb	r3, [r3, #70]	@ zero_extendqisi2
 180 00b0 012B     		cmp	r3, #1
 181 00b2 17D1     		bne	.L20
 182              		.loc 1 97 0
 183 00b4 019B     		ldr	r3, [sp, #4]
 184 00b6 B3F84C30 		ldrh	r3, [r3, #76]
 185 00ba 23F00203 		bic	r3, r3, #2
 186 00be 9AB2     		uxth	r2, r3
 187 00c0 019B     		ldr	r3, [sp, #4]
 188 00c2 A3F84C20 		strh	r2, [r3, #76]	@ movhi
 189              		.loc 1 98 0
 190 00c6 019B     		ldr	r3, [sp, #4]
 191 00c8 4FF00002 		mov	r2, #0
 192 00cc 9A63     		str	r2, [r3, #56]
 193 00ce 019B     		ldr	r3, [sp, #4]
 194 00d0 4FF00002 		mov	r2, #0
 195 00d4 DA63     		str	r2, [r3, #60]
 196 00d6 019B     		ldr	r3, [sp, #4]
 197 00d8 4FF00002 		mov	r2, #0
 198 00dc 1A64     		str	r2, [r3, #64]
 199              		.loc 1 99 0
 200 00de 4FF00103 		mov	r3, #1
 201 00e2 A3E1     		b	.L19
 202              	.L20:
 203              		.loc 1 101 0
 204 00e4 4FF00003 		mov	r3, #0
 205 00e8 A0E1     		b	.L19
 206              	.L10:
 207              		.loc 1 105 0
 208 00ea 019B     		ldr	r3, [sp, #4]
 209 00ec 93F84630 		ldrb	r3, [r3, #70]	@ zero_extendqisi2
 210 00f0 012B     		cmp	r3, #1
 211 00f2 17D1     		bne	.L21
 212              		.loc 1 106 0
 213 00f4 019B     		ldr	r3, [sp, #4]
 214 00f6 B3F84C30 		ldrh	r3, [r3, #76]
 215 00fa 43F00203 		orr	r3, r3, #2
 216 00fe 9AB2     		uxth	r2, r3
 217 0100 019B     		ldr	r3, [sp, #4]
 218 0102 A3F84C20 		strh	r2, [r3, #76]	@ movhi
 219              		.loc 1 107 0
 220 0106 019B     		ldr	r3, [sp, #4]
 221 0108 4FF00002 		mov	r2, #0
 222 010c 9A63     		str	r2, [r3, #56]
 223 010e 019B     		ldr	r3, [sp, #4]
 224 0110 4FF00002 		mov	r2, #0
 225 0114 DA63     		str	r2, [r3, #60]
 226 0116 019B     		ldr	r3, [sp, #4]
 227 0118 4FF00002 		mov	r2, #0
 228 011c 1A64     		str	r2, [r3, #64]
ARM GAS  /tmp/ccouNqwt.s 			page 5


 229              		.loc 1 108 0
 230 011e 4FF00103 		mov	r3, #1
 231 0122 83E1     		b	.L19
 232              	.L21:
 233              		.loc 1 110 0
 234 0124 4FF00003 		mov	r3, #0
 235 0128 80E1     		b	.L19
 236              	.L12:
 237              		.loc 1 116 0
 238 012a 019B     		ldr	r3, [sp, #4]
 239 012c 93F84430 		ldrb	r3, [r3, #68]	@ zero_extendqisi2
 240 0130 002B     		cmp	r3, #0
 241 0132 07D1     		bne	.L22
 242              		.loc 1 117 0 discriminator 1
 243 0134 019B     		ldr	r3, [sp, #4]
 244 0136 93F84530 		ldrb	r3, [r3, #69]	@ zero_extendqisi2
 245              		.loc 1 116 0 discriminator 1
 246 013a 052B     		cmp	r3, #5
 247 013c 02D1     		bne	.L22
 248              		.loc 1 118 0
 249 013e 0198     		ldr	r0, [sp, #4]
 250 0140 FFF7FEFF 		bl	set_address
 251              	.L22:
 252              		.loc 1 119 0
 253 0144 019B     		ldr	r3, [sp, #4]
 254 0146 4FF00002 		mov	r2, #0
 255 014a 9A63     		str	r2, [r3, #56]
 256 014c 019B     		ldr	r3, [sp, #4]
 257 014e 4FF00002 		mov	r2, #0
 258 0152 DA63     		str	r2, [r3, #60]
 259 0154 019B     		ldr	r3, [sp, #4]
 260 0156 4FF00002 		mov	r2, #0
 261 015a 1A64     		str	r2, [r3, #64]
 262              		.loc 1 123 0
 263 015c 4FF00103 		mov	r3, #1
 264 0160 64E1     		b	.L19
 265              	.L13:
 266              		.loc 1 126 0
 267 0162 019B     		ldr	r3, [sp, #4]
 268 0164 5B68     		ldr	r3, [r3, #4]
 269 0166 5C68     		ldr	r4, [r3, #4]
 270              		.loc 1 127 0
 271 0168 019B     		ldr	r3, [sp, #4]
 272              		.loc 1 126 0
 273 016a 93F84710 		ldrb	r1, [r3, #71]	@ zero_extendqisi2
 274              		.loc 1 127 0
 275 016e 019B     		ldr	r3, [sp, #4]
 276              		.loc 1 126 0
 277 0170 93F84620 		ldrb	r2, [r3, #70]	@ zero_extendqisi2
 278              		.loc 1 128 0
 279 0174 019B     		ldr	r3, [sp, #4]
 280 0176 93F84830 		ldrb	r3, [r3, #72]	@ zero_extendqisi2
 281              		.loc 1 126 0
 282 017a 1846     		mov	r0, r3
 283              		.loc 1 128 0
 284 017c 019B     		ldr	r3, [sp, #4]
 285 017e 93F84930 		ldrb	r3, [r3, #73]	@ zero_extendqisi2
ARM GAS  /tmp/ccouNqwt.s 			page 6


 286 0182 4FEA0323 		lsl	r3, r3, #8
 287              		.loc 1 126 0
 288 0186 9BB2     		uxth	r3, r3
 289 0188 0343     		orrs	r3, r3, r0
 290 018a 9BB2     		uxth	r3, r3
 291 018c 9BB2     		uxth	r3, r3
 292 018e 0198     		ldr	r0, [sp, #4]
 293 0190 A047     		blx	r4
 294 0192 0390     		str	r0, [sp, #12]
 295              		.loc 1 129 0
 296 0194 039B     		ldr	r3, [sp, #12]
 297 0196 002B     		cmp	r3, #0
 298 0198 02D1     		bne	.L23
 299              		.loc 1 130 0
 300 019a 4FF00003 		mov	r3, #0
 301 019e 45E1     		b	.L19
 302              	.L23:
 303              		.loc 1 131 0
 304 01a0 039B     		ldr	r3, [sp, #12]
 305 01a2 5A68     		ldr	r2, [r3, #4]
 306 01a4 019B     		ldr	r3, [sp, #4]
 307 01a6 9A63     		str	r2, [r3, #56]
 308 01a8 039B     		ldr	r3, [sp, #12]
 309 01aa 1A68     		ldr	r2, [r3, #0]
 310 01ac 019B     		ldr	r3, [sp, #4]
 311 01ae DA63     		str	r2, [r3, #60]
 312 01b0 019B     		ldr	r3, [sp, #4]
 313 01b2 4FF00002 		mov	r2, #0
 314 01b6 1A64     		str	r2, [r3, #64]
 315              		.loc 1 132 0
 316 01b8 4FF00103 		mov	r3, #1
 317 01bc 36E1     		b	.L19
 318              	.L14:
 319              		.loc 1 135 0
 320 01be 019B     		ldr	r3, [sp, #4]
 321 01c0 03F14F02 		add	r2, r3, #79
 322 01c4 019B     		ldr	r3, [sp, #4]
 323 01c6 9A63     		str	r2, [r3, #56]
 324 01c8 019B     		ldr	r3, [sp, #4]
 325 01ca 4FF00102 		mov	r2, #1
 326 01ce DA63     		str	r2, [r3, #60]
 327 01d0 019B     		ldr	r3, [sp, #4]
 328 01d2 4FF00002 		mov	r2, #0
 329 01d6 1A64     		str	r2, [r3, #64]
 330              		.loc 1 136 0
 331 01d8 4FF00103 		mov	r3, #1
 332 01dc 26E1     		b	.L19
 333              	.L15:
 334              		.loc 1 139 0
 335 01de 019B     		ldr	r3, [sp, #4]
 336 01e0 93F84620 		ldrb	r2, [r3, #70]	@ zero_extendqisi2
 337 01e4 019B     		ldr	r3, [sp, #4]
 338 01e6 83F84F20 		strb	r2, [r3, #79]
 339              		.loc 1 140 0
 340 01ea 019B     		ldr	r3, [sp, #4]
 341 01ec 93F84F30 		ldrb	r3, [r3, #79]	@ zero_extendqisi2
 342 01f0 002B     		cmp	r3, #0
ARM GAS  /tmp/ccouNqwt.s 			page 7


 343 01f2 04D1     		bne	.L24
 344              		.loc 1 141 0
 345 01f4 019B     		ldr	r3, [sp, #4]
 346 01f6 4FF00302 		mov	r2, #3
 347 01fa 1A70     		strb	r2, [r3, #0]
 348 01fc 03E0     		b	.L25
 349              	.L24:
 350              		.loc 1 143 0
 351 01fe 019B     		ldr	r3, [sp, #4]
 352 0200 4FF00402 		mov	r2, #4
 353 0204 1A70     		strb	r2, [r3, #0]
 354              	.L25:
 355              		.loc 1 144 0
 356 0206 019B     		ldr	r3, [sp, #4]
 357 0208 5B68     		ldr	r3, [r3, #4]
 358 020a 1B68     		ldr	r3, [r3, #0]
 359 020c 002B     		cmp	r3, #0
 360 020e 06D0     		beq	.L26
 361              		.loc 1 144 0 is_stmt 0 discriminator 1
 362 0210 019B     		ldr	r3, [sp, #4]
 363 0212 5B68     		ldr	r3, [r3, #4]
 364 0214 1B68     		ldr	r3, [r3, #0]
 365 0216 0198     		ldr	r0, [sp, #4]
 366 0218 4FF00201 		mov	r1, #2
 367 021c 9847     		blx	r3
 368              	.L26:
 369              		.loc 1 145 0 is_stmt 1
 370 021e 019B     		ldr	r3, [sp, #4]
 371 0220 4FF00002 		mov	r2, #0
 372 0224 9A63     		str	r2, [r3, #56]
 373 0226 019B     		ldr	r3, [sp, #4]
 374 0228 4FF00002 		mov	r2, #0
 375 022c DA63     		str	r2, [r3, #60]
 376 022e 019B     		ldr	r3, [sp, #4]
 377 0230 4FF00002 		mov	r2, #0
 378 0234 1A64     		str	r2, [r3, #64]
 379              		.loc 1 146 0
 380 0236 4FF00103 		mov	r3, #1
 381 023a F7E0     		b	.L19
 382              	.L6:
 383              		.loc 1 151 0
 384 023c 019A     		ldr	r2, [sp, #4]
 385 023e 40F20003 		movw	r3, #:lower16:zero_status
 386 0242 C0F20003 		movt	r3, #:upper16:zero_status
 387 0246 9363     		str	r3, [r2, #56]
 388 0248 019B     		ldr	r3, [sp, #4]
 389 024a 4FF00202 		mov	r2, #2
 390 024e DA63     		str	r2, [r3, #60]
 391 0250 019B     		ldr	r3, [sp, #4]
 392 0252 4FF00002 		mov	r2, #0
 393 0256 1A64     		str	r2, [r3, #64]
 394              		.loc 1 152 0
 395 0258 4FF00103 		mov	r3, #1
 396 025c E6E0     		b	.L19
 397              	.L7:
 398              		.loc 1 155 0
 399 025e 019B     		ldr	r3, [sp, #4]
ARM GAS  /tmp/ccouNqwt.s 			page 8


 400 0260 93F84830 		ldrb	r3, [r3, #72]	@ zero_extendqisi2
 401 0264 DBB2     		uxtb	r3, r3
 402 0266 5BB2     		sxtb	r3, r3
 403 0268 002B     		cmp	r3, #0
 404 026a 34DA     		bge	.L27
 405              		.loc 1 156 0
 406 026c 019B     		ldr	r3, [sp, #4]
 407 026e 93F84830 		ldrb	r3, [r3, #72]	@ zero_extendqisi2
 408 0272 03F00F03 		and	r3, r3, #15
 409 0276 DBB2     		uxtb	r3, r3
 410 0278 0198     		ldr	r0, [sp, #4]
 411 027a 1946     		mov	r1, r3
 412 027c FFF7FEFF 		bl	usb_lld_get_status_in
 413 0280 0346     		mov	r3, r0
 414 0282 012B     		cmp	r3, #1
 415 0284 02D0     		beq	.L29
 416 0286 022B     		cmp	r3, #2
 417 0288 11D0     		beq	.L30
 418 028a 21E0     		b	.L40
 419              	.L29:
 420              		.loc 1 158 0
 421 028c 019A     		ldr	r2, [sp, #4]
 422 028e 40F20003 		movw	r3, #:lower16:halted_status
 423 0292 C0F20003 		movt	r3, #:upper16:halted_status
 424 0296 9363     		str	r3, [r2, #56]
 425 0298 019B     		ldr	r3, [sp, #4]
 426 029a 4FF00202 		mov	r2, #2
 427 029e DA63     		str	r2, [r3, #60]
 428 02a0 019B     		ldr	r3, [sp, #4]
 429 02a2 4FF00002 		mov	r2, #0
 430 02a6 1A64     		str	r2, [r3, #64]
 431              		.loc 1 159 0
 432 02a8 4FF00103 		mov	r3, #1
 433 02ac BEE0     		b	.L19
 434              	.L30:
 435              		.loc 1 161 0
 436 02ae 019A     		ldr	r2, [sp, #4]
 437 02b0 40F20003 		movw	r3, #:lower16:active_status
 438 02b4 C0F20003 		movt	r3, #:upper16:active_status
 439 02b8 9363     		str	r3, [r2, #56]
 440 02ba 019B     		ldr	r3, [sp, #4]
 441 02bc 4FF00202 		mov	r2, #2
 442 02c0 DA63     		str	r2, [r3, #60]
 443 02c2 019B     		ldr	r3, [sp, #4]
 444 02c4 4FF00002 		mov	r2, #0
 445 02c8 1A64     		str	r2, [r3, #64]
 446              		.loc 1 162 0
 447 02ca 4FF00103 		mov	r3, #1
 448 02ce ADE0     		b	.L19
 449              	.L40:
 450              		.loc 1 164 0
 451 02d0 4FF00003 		mov	r3, #0
 452 02d4 AAE0     		b	.L19
 453              	.L27:
 454              		.loc 1 168 0
 455 02d6 019B     		ldr	r3, [sp, #4]
 456 02d8 93F84830 		ldrb	r3, [r3, #72]	@ zero_extendqisi2
ARM GAS  /tmp/ccouNqwt.s 			page 9


 457 02dc 03F00F03 		and	r3, r3, #15
 458 02e0 DBB2     		uxtb	r3, r3
 459 02e2 0198     		ldr	r0, [sp, #4]
 460 02e4 1946     		mov	r1, r3
 461 02e6 FFF7FEFF 		bl	usb_lld_get_status_out
 462 02ea 0346     		mov	r3, r0
 463 02ec 012B     		cmp	r3, #1
 464 02ee 02D0     		beq	.L32
 465 02f0 022B     		cmp	r3, #2
 466 02f2 11D0     		beq	.L33
 467 02f4 21E0     		b	.L41
 468              	.L32:
 469              		.loc 1 170 0
 470 02f6 019A     		ldr	r2, [sp, #4]
 471 02f8 40F20003 		movw	r3, #:lower16:halted_status
 472 02fc C0F20003 		movt	r3, #:upper16:halted_status
 473 0300 9363     		str	r3, [r2, #56]
 474 0302 019B     		ldr	r3, [sp, #4]
 475 0304 4FF00202 		mov	r2, #2
 476 0308 DA63     		str	r2, [r3, #60]
 477 030a 019B     		ldr	r3, [sp, #4]
 478 030c 4FF00002 		mov	r2, #0
 479 0310 1A64     		str	r2, [r3, #64]
 480              		.loc 1 171 0
 481 0312 4FF00103 		mov	r3, #1
 482 0316 89E0     		b	.L19
 483              	.L33:
 484              		.loc 1 173 0
 485 0318 019A     		ldr	r2, [sp, #4]
 486 031a 40F20003 		movw	r3, #:lower16:active_status
 487 031e C0F20003 		movt	r3, #:upper16:active_status
 488 0322 9363     		str	r3, [r2, #56]
 489 0324 019B     		ldr	r3, [sp, #4]
 490 0326 4FF00202 		mov	r2, #2
 491 032a DA63     		str	r2, [r3, #60]
 492 032c 019B     		ldr	r3, [sp, #4]
 493 032e 4FF00002 		mov	r2, #0
 494 0332 1A64     		str	r2, [r3, #64]
 495              		.loc 1 174 0
 496 0334 4FF00103 		mov	r3, #1
 497 0338 78E0     		b	.L19
 498              	.L41:
 499              		.loc 1 176 0
 500 033a 4FF00003 		mov	r3, #0
 501 033e 75E0     		b	.L19
 502              	.L9:
 503              		.loc 1 181 0
 504 0340 019B     		ldr	r3, [sp, #4]
 505 0342 93F84630 		ldrb	r3, [r3, #70]	@ zero_extendqisi2
 506 0346 002B     		cmp	r3, #0
 507 0348 02D0     		beq	.L34
 508              		.loc 1 182 0
 509 034a 4FF00003 		mov	r3, #0
 510 034e 6DE0     		b	.L19
 511              	.L34:
 512              		.loc 1 184 0
 513 0350 019B     		ldr	r3, [sp, #4]
ARM GAS  /tmp/ccouNqwt.s 			page 10


 514 0352 93F84830 		ldrb	r3, [r3, #72]	@ zero_extendqisi2
 515 0356 03F00F03 		and	r3, r3, #15
 516 035a 002B     		cmp	r3, #0
 517 035c 1BDD     		ble	.L35
 518              		.loc 1 185 0
 519 035e 019B     		ldr	r3, [sp, #4]
 520 0360 93F84830 		ldrb	r3, [r3, #72]	@ zero_extendqisi2
 521 0364 DBB2     		uxtb	r3, r3
 522 0366 5BB2     		sxtb	r3, r3
 523 0368 002B     		cmp	r3, #0
 524 036a 0ADA     		bge	.L36
 525              		.loc 1 186 0
 526 036c 019B     		ldr	r3, [sp, #4]
 527 036e 93F84830 		ldrb	r3, [r3, #72]	@ zero_extendqisi2
 528 0372 03F00F03 		and	r3, r3, #15
 529 0376 DBB2     		uxtb	r3, r3
 530 0378 0198     		ldr	r0, [sp, #4]
 531 037a 1946     		mov	r1, r3
 532 037c FFF7FEFF 		bl	usb_lld_clear_in
 533 0380 09E0     		b	.L35
 534              	.L36:
 535              		.loc 1 188 0
 536 0382 019B     		ldr	r3, [sp, #4]
 537 0384 93F84830 		ldrb	r3, [r3, #72]	@ zero_extendqisi2
 538 0388 03F00F03 		and	r3, r3, #15
 539 038c DBB2     		uxtb	r3, r3
 540 038e 0198     		ldr	r0, [sp, #4]
 541 0390 1946     		mov	r1, r3
 542 0392 FFF7FEFF 		bl	usb_lld_clear_out
 543              	.L35:
 544              		.loc 1 190 0
 545 0396 019B     		ldr	r3, [sp, #4]
 546 0398 4FF00002 		mov	r2, #0
 547 039c 9A63     		str	r2, [r3, #56]
 548 039e 019B     		ldr	r3, [sp, #4]
 549 03a0 4FF00002 		mov	r2, #0
 550 03a4 DA63     		str	r2, [r3, #60]
 551 03a6 019B     		ldr	r3, [sp, #4]
 552 03a8 4FF00002 		mov	r2, #0
 553 03ac 1A64     		str	r2, [r3, #64]
 554              		.loc 1 191 0
 555 03ae 4FF00103 		mov	r3, #1
 556 03b2 3BE0     		b	.L19
 557              	.L11:
 558              		.loc 1 194 0
 559 03b4 019B     		ldr	r3, [sp, #4]
 560 03b6 93F84630 		ldrb	r3, [r3, #70]	@ zero_extendqisi2
 561 03ba 002B     		cmp	r3, #0
 562 03bc 02D0     		beq	.L37
 563              		.loc 1 195 0
 564 03be 4FF00003 		mov	r3, #0
 565 03c2 33E0     		b	.L19
 566              	.L37:
 567              		.loc 1 197 0
 568 03c4 019B     		ldr	r3, [sp, #4]
 569 03c6 93F84830 		ldrb	r3, [r3, #72]	@ zero_extendqisi2
 570 03ca 03F00F03 		and	r3, r3, #15
ARM GAS  /tmp/ccouNqwt.s 			page 11


 571 03ce 002B     		cmp	r3, #0
 572 03d0 1BDD     		ble	.L38
 573              		.loc 1 198 0
 574 03d2 019B     		ldr	r3, [sp, #4]
 575 03d4 93F84830 		ldrb	r3, [r3, #72]	@ zero_extendqisi2
 576 03d8 DBB2     		uxtb	r3, r3
 577 03da 5BB2     		sxtb	r3, r3
 578 03dc 002B     		cmp	r3, #0
 579 03de 0ADA     		bge	.L39
 580              		.loc 1 199 0
 581 03e0 019B     		ldr	r3, [sp, #4]
 582 03e2 93F84830 		ldrb	r3, [r3, #72]	@ zero_extendqisi2
 583 03e6 03F00F03 		and	r3, r3, #15
 584 03ea DBB2     		uxtb	r3, r3
 585 03ec 0198     		ldr	r0, [sp, #4]
 586 03ee 1946     		mov	r1, r3
 587 03f0 FFF7FEFF 		bl	usb_lld_stall_in
 588 03f4 09E0     		b	.L38
 589              	.L39:
 590              		.loc 1 201 0
 591 03f6 019B     		ldr	r3, [sp, #4]
 592 03f8 93F84830 		ldrb	r3, [r3, #72]	@ zero_extendqisi2
 593 03fc 03F00F03 		and	r3, r3, #15
 594 0400 DBB2     		uxtb	r3, r3
 595 0402 0198     		ldr	r0, [sp, #4]
 596 0404 1946     		mov	r1, r3
 597 0406 FFF7FEFF 		bl	usb_lld_stall_out
 598              	.L38:
 599              		.loc 1 203 0
 600 040a 019B     		ldr	r3, [sp, #4]
 601 040c 4FF00002 		mov	r2, #0
 602 0410 9A63     		str	r2, [r3, #56]
 603 0412 019B     		ldr	r3, [sp, #4]
 604 0414 4FF00002 		mov	r2, #0
 605 0418 DA63     		str	r2, [r3, #60]
 606 041a 019B     		ldr	r3, [sp, #4]
 607 041c 4FF00002 		mov	r2, #0
 608 0420 1A64     		str	r2, [r3, #64]
 609              		.loc 1 204 0
 610 0422 4FF00103 		mov	r3, #1
 611 0426 01E0     		b	.L19
 612              	.L4:
 613              		.loc 1 213 0
 614 0428 4FF00003 		mov	r3, #0
 615              	.L19:
 616              		.loc 1 215 0
 617 042c 1846     		mov	r0, r3
 618 042e 04B0     		add	sp, sp, #16
 619 0430 10BD     		pop	{r4, pc}
 620              		.cfi_endproc
 621              	.LFE119:
 622              		.size	default_handler, .-default_handler
 623 0432 00BFAFF3 		.section	.text.usbInit,"ax",%progbits
 623      0080AFF3 
 623      0080AFF3 
 623      0080
 624              		.align	2
ARM GAS  /tmp/ccouNqwt.s 			page 12


 625              		.p2align 4,,15
 626              		.global	usbInit
 627              		.thumb
 628              		.thumb_func
 629              		.type	usbInit, %function
 630              	usbInit:
 631              	.LFB120:
 632              		.loc 1 228 0
 633              		.cfi_startproc
 634              		@ args = 0, pretend = 0, frame = 0
 635              		@ frame_needed = 0, uses_anonymous_args = 0
 636 0000 08B5     		push	{r3, lr}
 637              	.LCFI4:
 638              		.cfi_def_cfa_offset 8
 639              		.cfi_offset 3, -8
 640              		.cfi_offset 14, -4
 641              		.loc 1 230 0
 642 0002 FFF7FEFF 		bl	usb_lld_init
 643              		.loc 1 231 0
 644 0006 08BD     		pop	{r3, pc}
 645              		.cfi_endproc
 646              	.LFE120:
 647              		.size	usbInit, .-usbInit
 648 0008 AFF30080 		.section	.text.usbObjectInit,"ax",%progbits
 648      AFF30080 
 649              		.align	2
 650              		.p2align 4,,15
 651              		.global	usbObjectInit
 652              		.thumb
 653              		.thumb_func
 654              		.type	usbObjectInit, %function
 655              	usbObjectInit:
 656              	.LFB121:
 657              		.loc 1 240 0
 658              		.cfi_startproc
 659              		@ args = 0, pretend = 0, frame = 16
 660              		@ frame_needed = 0, uses_anonymous_args = 0
 661              		@ link register save eliminated.
 662 0000 84B0     		sub	sp, sp, #16
 663              	.LCFI5:
 664              		.cfi_def_cfa_offset 16
 665 0002 0190     		str	r0, [sp, #4]
 666              		.loc 1 243 0
 667 0004 019B     		ldr	r3, [sp, #4]
 668 0006 4FF00102 		mov	r2, #1
 669 000a 1A70     		strb	r2, [r3, #0]
 670              		.loc 1 244 0
 671 000c 019B     		ldr	r3, [sp, #4]
 672 000e 4FF00002 		mov	r2, #0
 673 0012 5A60     		str	r2, [r3, #4]
 674              		.loc 1 245 0
 675 0014 4FF00003 		mov	r3, #0
 676 0018 0393     		str	r3, [sp, #12]
 677 001a 15E0     		b	.L44
 678              	.L45:
 679              		.loc 1 246 0 discriminator 2
 680 001c 019A     		ldr	r2, [sp, #4]
ARM GAS  /tmp/ccouNqwt.s 			page 13


 681 001e 039B     		ldr	r3, [sp, #12]
 682 0020 03F10603 		add	r3, r3, #6
 683 0024 4FEA8303 		lsl	r3, r3, #2
 684 0028 D318     		adds	r3, r2, r3
 685 002a 4FF00002 		mov	r2, #0
 686 002e 5A60     		str	r2, [r3, #4]
 687              		.loc 1 247 0 discriminator 2
 688 0030 019B     		ldr	r3, [sp, #4]
 689 0032 039A     		ldr	r2, [sp, #12]
 690 0034 02F10A02 		add	r2, r2, #10
 691 0038 4FF00001 		mov	r1, #0
 692 003c 43F82210 		str	r1, [r3, r2, lsl #2]
 693              		.loc 1 245 0 discriminator 2
 694 0040 039B     		ldr	r3, [sp, #12]
 695 0042 03F10103 		add	r3, r3, #1
 696 0046 0393     		str	r3, [sp, #12]
 697              	.L44:
 698              		.loc 1 245 0 is_stmt 0 discriminator 1
 699 0048 039B     		ldr	r3, [sp, #12]
 700 004a 022B     		cmp	r3, #2
 701 004c E6D9     		bls	.L45
 702              		.loc 1 249 0 is_stmt 1
 703 004e 019B     		ldr	r3, [sp, #4]
 704 0050 4FF00002 		mov	r2, #0
 705 0054 1A81     		strh	r2, [r3, #8]	@ movhi
 706              		.loc 1 250 0
 707 0056 019B     		ldr	r3, [sp, #4]
 708 0058 4FF00002 		mov	r2, #0
 709 005c 5A81     		strh	r2, [r3, #10]	@ movhi
 710              		.loc 1 251 0
 711 005e 04B0     		add	sp, sp, #16
 712 0060 7047     		bx	lr
 713              		.cfi_endproc
 714              	.LFE121:
 715              		.size	usbObjectInit, .-usbObjectInit
 716 0062 00BFAFF3 		.section	.text.usbStart,"ax",%progbits
 716      0080AFF3 
 716      0080AFF3 
 716      0080
 717              		.align	2
 718              		.p2align 4,,15
 719              		.global	usbStart
 720              		.thumb
 721              		.thumb_func
 722              		.type	usbStart, %function
 723              	usbStart:
 724              	.LFB122:
 725              		.loc 1 261 0
 726              		.cfi_startproc
 727              		@ args = 0, pretend = 0, frame = 16
 728              		@ frame_needed = 0, uses_anonymous_args = 0
 729 0000 00B5     		push	{lr}
 730              	.LCFI6:
 731              		.cfi_def_cfa_offset 4
 732              		.cfi_offset 14, -4
 733 0002 85B0     		sub	sp, sp, #20
 734              	.LCFI7:
ARM GAS  /tmp/ccouNqwt.s 			page 14


 735              		.cfi_def_cfa_offset 24
 736 0004 0190     		str	r0, [sp, #4]
 737 0006 0091     		str	r1, [sp, #0]
 738              		.loc 1 264 0
 739 0008 019B     		ldr	r3, [sp, #4]
 740 000a 002B     		cmp	r3, #0
 741 000c 01D0     		beq	.L48
 742              		.loc 1 264 0 is_stmt 0 discriminator 1
 743 000e 009B     		ldr	r3, [sp, #0]
 744 0010 002B     		cmp	r3, #0
 745              	.L48:
 746              	.LBB2:
 747              		.loc 1 266 0 is_stmt 1
 748 0012 4FF02003 		mov	r3, #32
 749              	@ 266 "../../os/hal/src/usb.c" 1
 750 0016 83F31188 		msr     BASEPRI, r3
 751              	@ 0 "" 2
 752              		.thumb
 753              	.LBE2:
 754              		.loc 1 267 0
 755 001a 019B     		ldr	r3, [sp, #4]
 756 001c 1B78     		ldrb	r3, [r3, #0]	@ zero_extendqisi2
 757 001e 012B     		cmp	r3, #1
 758 0020 02D0     		beq	.L51
 759              		.loc 1 267 0 is_stmt 0 discriminator 2
 760 0022 019B     		ldr	r3, [sp, #4]
 761 0024 1B78     		ldrb	r3, [r3, #0]	@ zero_extendqisi2
 762 0026 022B     		cmp	r3, #2
 763              	.L51:
 764              		.loc 1 269 0 is_stmt 1
 765 0028 019B     		ldr	r3, [sp, #4]
 766 002a 009A     		ldr	r2, [sp, #0]
 767 002c 5A60     		str	r2, [r3, #4]
 768              		.loc 1 270 0
 769 002e 4FF00003 		mov	r3, #0
 770 0032 0393     		str	r3, [sp, #12]
 771 0034 0DE0     		b	.L52
 772              	.L53:
 773              		.loc 1 271 0 discriminator 2
 774 0036 019A     		ldr	r2, [sp, #4]
 775 0038 039B     		ldr	r3, [sp, #12]
 776 003a 03F10203 		add	r3, r3, #2
 777 003e 4FEA8303 		lsl	r3, r3, #2
 778 0042 D318     		adds	r3, r2, r3
 779 0044 4FF00002 		mov	r2, #0
 780 0048 5A60     		str	r2, [r3, #4]
 781              		.loc 1 270 0 discriminator 2
 782 004a 039B     		ldr	r3, [sp, #12]
 783 004c 03F10103 		add	r3, r3, #1
 784 0050 0393     		str	r3, [sp, #12]
 785              	.L52:
 786              		.loc 1 270 0 is_stmt 0 discriminator 1
 787 0052 039B     		ldr	r3, [sp, #12]
 788 0054 032B     		cmp	r3, #3
 789 0056 EED9     		bls	.L53
 790              		.loc 1 272 0 is_stmt 1
 791 0058 0198     		ldr	r0, [sp, #4]
ARM GAS  /tmp/ccouNqwt.s 			page 15


 792 005a FFF7FEFF 		bl	usb_lld_start
 793              		.loc 1 273 0
 794 005e 019B     		ldr	r3, [sp, #4]
 795 0060 4FF00202 		mov	r2, #2
 796 0064 1A70     		strb	r2, [r3, #0]
 797              	.LBB3:
 798              		.loc 1 274 0
 799 0066 4FF00003 		mov	r3, #0
 800              	@ 274 "../../os/hal/src/usb.c" 1
 801 006a 83F31188 		msr     BASEPRI, r3
 802              	@ 0 "" 2
 803              		.thumb
 804              	.LBE3:
 805              		.loc 1 275 0
 806 006e 05B0     		add	sp, sp, #20
 807 0070 00BD     		pop	{pc}
 808              		.cfi_endproc
 809              	.LFE122:
 810              		.size	usbStart, .-usbStart
 811 0072 00BFAFF3 		.section	.text.usbStop,"ax",%progbits
 811      0080AFF3 
 811      0080AFF3 
 811      0080
 812              		.align	2
 813              		.p2align 4,,15
 814              		.global	usbStop
 815              		.thumb
 816              		.thumb_func
 817              		.type	usbStop, %function
 818              	usbStop:
 819              	.LFB123:
 820              		.loc 1 284 0
 821              		.cfi_startproc
 822              		@ args = 0, pretend = 0, frame = 8
 823              		@ frame_needed = 0, uses_anonymous_args = 0
 824 0000 00B5     		push	{lr}
 825              	.LCFI8:
 826              		.cfi_def_cfa_offset 4
 827              		.cfi_offset 14, -4
 828 0002 83B0     		sub	sp, sp, #12
 829              	.LCFI9:
 830              		.cfi_def_cfa_offset 16
 831 0004 0190     		str	r0, [sp, #4]
 832              	.LBB4:
 833              		.loc 1 288 0
 834 0006 4FF02003 		mov	r3, #32
 835              	@ 288 "../../os/hal/src/usb.c" 1
 836 000a 83F31188 		msr     BASEPRI, r3
 837              	@ 0 "" 2
 838              		.thumb
 839              	.LBE4:
 840              		.loc 1 289 0
 841 000e 019B     		ldr	r3, [sp, #4]
 842 0010 1B78     		ldrb	r3, [r3, #0]	@ zero_extendqisi2
 843 0012 012B     		cmp	r3, #1
 844 0014 0AD0     		beq	.L57
 845              		.loc 1 289 0 is_stmt 0 discriminator 2
ARM GAS  /tmp/ccouNqwt.s 			page 16


 846 0016 019B     		ldr	r3, [sp, #4]
 847 0018 1B78     		ldrb	r3, [r3, #0]	@ zero_extendqisi2
 848 001a 022B     		cmp	r3, #2
 849 001c 06D0     		beq	.L57
 850              		.loc 1 289 0 discriminator 3
 851 001e 019B     		ldr	r3, [sp, #4]
 852 0020 1B78     		ldrb	r3, [r3, #0]	@ zero_extendqisi2
 853 0022 032B     		cmp	r3, #3
 854 0024 02D0     		beq	.L57
 855              		.loc 1 289 0 discriminator 4
 856 0026 019B     		ldr	r3, [sp, #4]
 857 0028 1B78     		ldrb	r3, [r3, #0]	@ zero_extendqisi2
 858 002a 042B     		cmp	r3, #4
 859              	.L57:
 860              		.loc 1 292 0 is_stmt 1
 861 002c 0198     		ldr	r0, [sp, #4]
 862 002e FFF7FEFF 		bl	usb_lld_stop
 863              		.loc 1 293 0
 864 0032 019B     		ldr	r3, [sp, #4]
 865 0034 4FF00102 		mov	r2, #1
 866 0038 1A70     		strb	r2, [r3, #0]
 867              	.LBB5:
 868              		.loc 1 294 0
 869 003a 4FF00003 		mov	r3, #0
 870              	@ 294 "../../os/hal/src/usb.c" 1
 871 003e 83F31188 		msr     BASEPRI, r3
 872              	@ 0 "" 2
 873              		.thumb
 874              	.LBE5:
 875              		.loc 1 295 0
 876 0042 03B0     		add	sp, sp, #12
 877 0044 00BD     		pop	{pc}
 878              		.cfi_endproc
 879              	.LFE123:
 880              		.size	usbStop, .-usbStop
 881 0046 00BFAFF3 		.section	.text.usbInitEndpointI,"ax",%progbits
 881      0080AFF3 
 881      0080
 882              		.align	2
 883              		.p2align 4,,15
 884              		.global	usbInitEndpointI
 885              		.thumb
 886              		.thumb_func
 887              		.type	usbInitEndpointI, %function
 888              	usbInitEndpointI:
 889              	.LFB124:
 890              		.loc 1 311 0
 891              		.cfi_startproc
 892              		@ args = 0, pretend = 0, frame = 16
 893              		@ frame_needed = 0, uses_anonymous_args = 0
 894 0000 00B5     		push	{lr}
 895              	.LCFI10:
 896              		.cfi_def_cfa_offset 4
 897              		.cfi_offset 14, -4
 898 0002 85B0     		sub	sp, sp, #20
 899              	.LCFI11:
 900              		.cfi_def_cfa_offset 24
ARM GAS  /tmp/ccouNqwt.s 			page 17


 901 0004 0390     		str	r0, [sp, #12]
 902 0006 0B46     		mov	r3, r1
 903 0008 0192     		str	r2, [sp, #4]
 904 000a 8DF80B30 		strb	r3, [sp, #11]
 905              		.loc 1 314 0
 906 000e 039B     		ldr	r3, [sp, #12]
 907 0010 002B     		cmp	r3, #0
 908 0012 01D0     		beq	.L60
 909              		.loc 1 314 0 is_stmt 0 discriminator 1
 910 0014 019B     		ldr	r3, [sp, #4]
 911 0016 002B     		cmp	r3, #0
 912              	.L60:
 913              		.loc 1 321 0 is_stmt 1
 914 0018 019B     		ldr	r3, [sp, #4]
 915 001a 5B69     		ldr	r3, [r3, #20]
 916 001c 002B     		cmp	r3, #0
 917 001e 08D0     		beq	.L61
 918              		.loc 1 322 0
 919 0020 019B     		ldr	r3, [sp, #4]
 920 0022 5B69     		ldr	r3, [r3, #20]
 921 0024 1846     		mov	r0, r3
 922 0026 4FF00001 		mov	r1, #0
 923 002a 4FF01002 		mov	r2, #16
 924 002e FFF7FEFF 		bl	memset
 925              	.L61:
 926              		.loc 1 323 0
 927 0032 019B     		ldr	r3, [sp, #4]
 928 0034 9B69     		ldr	r3, [r3, #24]
 929 0036 002B     		cmp	r3, #0
 930 0038 08D0     		beq	.L62
 931              		.loc 1 324 0
 932 003a 019B     		ldr	r3, [sp, #4]
 933 003c 9B69     		ldr	r3, [r3, #24]
 934 003e 1846     		mov	r0, r3
 935 0040 4FF00001 		mov	r1, #0
 936 0044 4FF01002 		mov	r2, #16
 937 0048 FFF7FEFF 		bl	memset
 938              	.L62:
 939              		.loc 1 326 0
 940 004c 9DF80B30 		ldrb	r3, [sp, #11]	@ zero_extendqisi2
 941 0050 039A     		ldr	r2, [sp, #12]
 942 0052 03F10203 		add	r3, r3, #2
 943 0056 4FEA8303 		lsl	r3, r3, #2
 944 005a D318     		adds	r3, r2, r3
 945 005c 019A     		ldr	r2, [sp, #4]
 946 005e 5A60     		str	r2, [r3, #4]
 947              		.loc 1 329 0
 948 0060 9DF80B30 		ldrb	r3, [sp, #11]	@ zero_extendqisi2
 949 0064 0398     		ldr	r0, [sp, #12]
 950 0066 1946     		mov	r1, r3
 951 0068 FFF7FEFF 		bl	usb_lld_init_endpoint
 952              		.loc 1 330 0
 953 006c 05B0     		add	sp, sp, #20
 954 006e 00BD     		pop	{pc}
 955              		.cfi_endproc
 956              	.LFE124:
 957              		.size	usbInitEndpointI, .-usbInitEndpointI
ARM GAS  /tmp/ccouNqwt.s 			page 18


 958              		.section	.text.usbDisableEndpointsI,"ax",%progbits
 959              		.align	2
 960              		.p2align 4,,15
 961              		.global	usbDisableEndpointsI
 962              		.thumb
 963              		.thumb_func
 964              		.type	usbDisableEndpointsI, %function
 965              	usbDisableEndpointsI:
 966              	.LFB125:
 967              		.loc 1 343 0
 968              		.cfi_startproc
 969              		@ args = 0, pretend = 0, frame = 16
 970              		@ frame_needed = 0, uses_anonymous_args = 0
 971 0000 00B5     		push	{lr}
 972              	.LCFI12:
 973              		.cfi_def_cfa_offset 4
 974              		.cfi_offset 14, -4
 975 0002 85B0     		sub	sp, sp, #20
 976              	.LCFI13:
 977              		.cfi_def_cfa_offset 24
 978 0004 0190     		str	r0, [sp, #4]
 979              		.loc 1 351 0
 980 0006 019B     		ldr	r3, [sp, #4]
 981 0008 1B89     		ldrh	r3, [r3, #8]
 982 000a 23F00103 		bic	r3, r3, #1
 983 000e 9AB2     		uxth	r2, r3
 984 0010 019B     		ldr	r3, [sp, #4]
 985 0012 1A81     		strh	r2, [r3, #8]	@ movhi
 986              		.loc 1 352 0
 987 0014 019B     		ldr	r3, [sp, #4]
 988 0016 5B89     		ldrh	r3, [r3, #10]
 989 0018 23F00103 		bic	r3, r3, #1
 990 001c 9AB2     		uxth	r2, r3
 991 001e 019B     		ldr	r3, [sp, #4]
 992 0020 5A81     		strh	r2, [r3, #10]	@ movhi
 993              		.loc 1 353 0
 994 0022 4FF00103 		mov	r3, #1
 995 0026 0393     		str	r3, [sp, #12]
 996 0028 0DE0     		b	.L64
 997              	.L65:
 998              		.loc 1 354 0 discriminator 2
 999 002a 019A     		ldr	r2, [sp, #4]
 1000 002c 039B     		ldr	r3, [sp, #12]
 1001 002e 03F10203 		add	r3, r3, #2
 1002 0032 4FEA8303 		lsl	r3, r3, #2
 1003 0036 D318     		adds	r3, r2, r3
 1004 0038 4FF00002 		mov	r2, #0
 1005 003c 5A60     		str	r2, [r3, #4]
 1006              		.loc 1 353 0 discriminator 2
 1007 003e 039B     		ldr	r3, [sp, #12]
 1008 0040 03F10103 		add	r3, r3, #1
 1009 0044 0393     		str	r3, [sp, #12]
 1010              	.L64:
 1011              		.loc 1 353 0 is_stmt 0 discriminator 1
 1012 0046 039B     		ldr	r3, [sp, #12]
 1013 0048 032B     		cmp	r3, #3
 1014 004a EED9     		bls	.L65
ARM GAS  /tmp/ccouNqwt.s 			page 19


 1015              		.loc 1 357 0 is_stmt 1
 1016 004c 0198     		ldr	r0, [sp, #4]
 1017 004e FFF7FEFF 		bl	usb_lld_disable_endpoints
 1018              		.loc 1 358 0
 1019 0052 05B0     		add	sp, sp, #20
 1020 0054 00BD     		pop	{pc}
 1021              		.cfi_endproc
 1022              	.LFE125:
 1023              		.size	usbDisableEndpointsI, .-usbDisableEndpointsI
 1024 0056 00BFAFF3 		.section	.text.usbPrepareReceive,"ax",%progbits
 1024      0080AFF3 
 1024      0080
 1025              		.align	2
 1026              		.p2align 4,,15
 1027              		.global	usbPrepareReceive
 1028              		.thumb
 1029              		.thumb_func
 1030              		.type	usbPrepareReceive, %function
 1031              	usbPrepareReceive:
 1032              	.LFB126:
 1033              		.loc 1 372 0
 1034              		.cfi_startproc
 1035              		@ args = 0, pretend = 0, frame = 24
 1036              		@ frame_needed = 0, uses_anonymous_args = 0
 1037 0000 00B5     		push	{lr}
 1038              	.LCFI14:
 1039              		.cfi_def_cfa_offset 4
 1040              		.cfi_offset 14, -4
 1041 0002 87B0     		sub	sp, sp, #28
 1042              	.LCFI15:
 1043              		.cfi_def_cfa_offset 32
 1044 0004 0390     		str	r0, [sp, #12]
 1045 0006 0192     		str	r2, [sp, #4]
 1046 0008 0093     		str	r3, [sp, #0]
 1047 000a 0B46     		mov	r3, r1
 1048 000c 8DF80B30 		strb	r3, [sp, #11]
 1049              		.loc 1 373 0
 1050 0010 9DF80B30 		ldrb	r3, [sp, #11]	@ zero_extendqisi2
 1051 0014 039A     		ldr	r2, [sp, #12]
 1052 0016 03F10203 		add	r3, r3, #2
 1053 001a 4FEA8303 		lsl	r3, r3, #2
 1054 001e D318     		adds	r3, r2, r3
 1055 0020 5B68     		ldr	r3, [r3, #4]
 1056 0022 9B69     		ldr	r3, [r3, #24]
 1057 0024 0593     		str	r3, [sp, #20]
 1058              		.loc 1 375 0
 1059 0026 059B     		ldr	r3, [sp, #20]
 1060 0028 4FF00002 		mov	r2, #0
 1061 002c 1A70     		strb	r2, [r3, #0]
 1062              		.loc 1 376 0
 1063 002e 059B     		ldr	r3, [sp, #20]
 1064 0030 019A     		ldr	r2, [sp, #4]
 1065 0032 DA60     		str	r2, [r3, #12]
 1066              		.loc 1 377 0
 1067 0034 059B     		ldr	r3, [sp, #20]
 1068 0036 009A     		ldr	r2, [sp, #0]
 1069 0038 5A60     		str	r2, [r3, #4]
ARM GAS  /tmp/ccouNqwt.s 			page 20


 1070              		.loc 1 378 0
 1071 003a 059B     		ldr	r3, [sp, #20]
 1072 003c 4FF00002 		mov	r2, #0
 1073 0040 9A60     		str	r2, [r3, #8]
 1074              		.loc 1 380 0
 1075 0042 9DF80B30 		ldrb	r3, [sp, #11]	@ zero_extendqisi2
 1076 0046 0398     		ldr	r0, [sp, #12]
 1077 0048 1946     		mov	r1, r3
 1078 004a FFF7FEFF 		bl	usb_lld_prepare_receive
 1079              		.loc 1 381 0
 1080 004e 07B0     		add	sp, sp, #28
 1081 0050 00BD     		pop	{pc}
 1082              		.cfi_endproc
 1083              	.LFE126:
 1084              		.size	usbPrepareReceive, .-usbPrepareReceive
 1085 0052 00BFAFF3 		.section	.text.usbPrepareTransmit,"ax",%progbits
 1085      0080AFF3 
 1085      0080AFF3 
 1085      0080
 1086              		.align	2
 1087              		.p2align 4,,15
 1088              		.global	usbPrepareTransmit
 1089              		.thumb
 1090              		.thumb_func
 1091              		.type	usbPrepareTransmit, %function
 1092              	usbPrepareTransmit:
 1093              	.LFB127:
 1094              		.loc 1 398 0
 1095              		.cfi_startproc
 1096              		@ args = 0, pretend = 0, frame = 24
 1097              		@ frame_needed = 0, uses_anonymous_args = 0
 1098 0000 00B5     		push	{lr}
 1099              	.LCFI16:
 1100              		.cfi_def_cfa_offset 4
 1101              		.cfi_offset 14, -4
 1102 0002 87B0     		sub	sp, sp, #28
 1103              	.LCFI17:
 1104              		.cfi_def_cfa_offset 32
 1105 0004 0390     		str	r0, [sp, #12]
 1106 0006 0192     		str	r2, [sp, #4]
 1107 0008 0093     		str	r3, [sp, #0]
 1108 000a 0B46     		mov	r3, r1
 1109 000c 8DF80B30 		strb	r3, [sp, #11]
 1110              		.loc 1 399 0
 1111 0010 9DF80B30 		ldrb	r3, [sp, #11]	@ zero_extendqisi2
 1112 0014 039A     		ldr	r2, [sp, #12]
 1113 0016 03F10203 		add	r3, r3, #2
 1114 001a 4FEA8303 		lsl	r3, r3, #2
 1115 001e D318     		adds	r3, r2, r3
 1116 0020 5B68     		ldr	r3, [r3, #4]
 1117 0022 5B69     		ldr	r3, [r3, #20]
 1118 0024 0593     		str	r3, [sp, #20]
 1119              		.loc 1 401 0
 1120 0026 059B     		ldr	r3, [sp, #20]
 1121 0028 4FF00002 		mov	r2, #0
 1122 002c 1A70     		strb	r2, [r3, #0]
 1123              		.loc 1 402 0
ARM GAS  /tmp/ccouNqwt.s 			page 21


 1124 002e 059B     		ldr	r3, [sp, #20]
 1125 0030 019A     		ldr	r2, [sp, #4]
 1126 0032 DA60     		str	r2, [r3, #12]
 1127              		.loc 1 403 0
 1128 0034 059B     		ldr	r3, [sp, #20]
 1129 0036 009A     		ldr	r2, [sp, #0]
 1130 0038 5A60     		str	r2, [r3, #4]
 1131              		.loc 1 404 0
 1132 003a 059B     		ldr	r3, [sp, #20]
 1133 003c 4FF00002 		mov	r2, #0
 1134 0040 9A60     		str	r2, [r3, #8]
 1135              		.loc 1 406 0
 1136 0042 9DF80B30 		ldrb	r3, [sp, #11]	@ zero_extendqisi2
 1137 0046 0398     		ldr	r0, [sp, #12]
 1138 0048 1946     		mov	r1, r3
 1139 004a FFF7FEFF 		bl	usb_lld_prepare_transmit
 1140              		.loc 1 407 0
 1141 004e 07B0     		add	sp, sp, #28
 1142 0050 00BD     		pop	{pc}
 1143              		.cfi_endproc
 1144              	.LFE127:
 1145              		.size	usbPrepareTransmit, .-usbPrepareTransmit
 1146 0052 00BFAFF3 		.section	.text.usbPrepareQueuedReceive,"ax",%progbits
 1146      0080AFF3 
 1146      0080AFF3 
 1146      0080
 1147              		.align	2
 1148              		.p2align 4,,15
 1149              		.global	usbPrepareQueuedReceive
 1150              		.thumb
 1151              		.thumb_func
 1152              		.type	usbPrepareQueuedReceive, %function
 1153              	usbPrepareQueuedReceive:
 1154              	.LFB128:
 1155              		.loc 1 427 0
 1156              		.cfi_startproc
 1157              		@ args = 0, pretend = 0, frame = 24
 1158              		@ frame_needed = 0, uses_anonymous_args = 0
 1159 0000 00B5     		push	{lr}
 1160              	.LCFI18:
 1161              		.cfi_def_cfa_offset 4
 1162              		.cfi_offset 14, -4
 1163 0002 87B0     		sub	sp, sp, #28
 1164              	.LCFI19:
 1165              		.cfi_def_cfa_offset 32
 1166 0004 0390     		str	r0, [sp, #12]
 1167 0006 0192     		str	r2, [sp, #4]
 1168 0008 0093     		str	r3, [sp, #0]
 1169 000a 0B46     		mov	r3, r1
 1170 000c 8DF80B30 		strb	r3, [sp, #11]
 1171              		.loc 1 428 0
 1172 0010 9DF80B30 		ldrb	r3, [sp, #11]	@ zero_extendqisi2
 1173 0014 039A     		ldr	r2, [sp, #12]
 1174 0016 03F10203 		add	r3, r3, #2
 1175 001a 4FEA8303 		lsl	r3, r3, #2
 1176 001e D318     		adds	r3, r2, r3
 1177 0020 5B68     		ldr	r3, [r3, #4]
ARM GAS  /tmp/ccouNqwt.s 			page 22


 1178 0022 9B69     		ldr	r3, [r3, #24]
 1179 0024 0593     		str	r3, [sp, #20]
 1180              		.loc 1 430 0
 1181 0026 059B     		ldr	r3, [sp, #20]
 1182 0028 4FF00102 		mov	r2, #1
 1183 002c 1A70     		strb	r2, [r3, #0]
 1184              		.loc 1 431 0
 1185 002e 059B     		ldr	r3, [sp, #20]
 1186 0030 019A     		ldr	r2, [sp, #4]
 1187 0032 DA60     		str	r2, [r3, #12]
 1188              		.loc 1 432 0
 1189 0034 059B     		ldr	r3, [sp, #20]
 1190 0036 009A     		ldr	r2, [sp, #0]
 1191 0038 5A60     		str	r2, [r3, #4]
 1192              		.loc 1 433 0
 1193 003a 059B     		ldr	r3, [sp, #20]
 1194 003c 4FF00002 		mov	r2, #0
 1195 0040 9A60     		str	r2, [r3, #8]
 1196              		.loc 1 435 0
 1197 0042 9DF80B30 		ldrb	r3, [sp, #11]	@ zero_extendqisi2
 1198 0046 0398     		ldr	r0, [sp, #12]
 1199 0048 1946     		mov	r1, r3
 1200 004a FFF7FEFF 		bl	usb_lld_prepare_receive
 1201              		.loc 1 436 0
 1202 004e 07B0     		add	sp, sp, #28
 1203 0050 00BD     		pop	{pc}
 1204              		.cfi_endproc
 1205              	.LFE128:
 1206              		.size	usbPrepareQueuedReceive, .-usbPrepareQueuedReceive
 1207 0052 00BFAFF3 		.section	.text.usbPrepareQueuedTransmit,"ax",%progbits
 1207      0080AFF3 
 1207      0080AFF3 
 1207      0080
 1208              		.align	2
 1209              		.p2align 4,,15
 1210              		.global	usbPrepareQueuedTransmit
 1211              		.thumb
 1212              		.thumb_func
 1213              		.type	usbPrepareQueuedTransmit, %function
 1214              	usbPrepareQueuedTransmit:
 1215              	.LFB129:
 1216              		.loc 1 453 0
 1217              		.cfi_startproc
 1218              		@ args = 0, pretend = 0, frame = 24
 1219              		@ frame_needed = 0, uses_anonymous_args = 0
 1220 0000 00B5     		push	{lr}
 1221              	.LCFI20:
 1222              		.cfi_def_cfa_offset 4
 1223              		.cfi_offset 14, -4
 1224 0002 87B0     		sub	sp, sp, #28
 1225              	.LCFI21:
 1226              		.cfi_def_cfa_offset 32
 1227 0004 0390     		str	r0, [sp, #12]
 1228 0006 0192     		str	r2, [sp, #4]
 1229 0008 0093     		str	r3, [sp, #0]
 1230 000a 0B46     		mov	r3, r1
 1231 000c 8DF80B30 		strb	r3, [sp, #11]
ARM GAS  /tmp/ccouNqwt.s 			page 23


 1232              		.loc 1 454 0
 1233 0010 9DF80B30 		ldrb	r3, [sp, #11]	@ zero_extendqisi2
 1234 0014 039A     		ldr	r2, [sp, #12]
 1235 0016 03F10203 		add	r3, r3, #2
 1236 001a 4FEA8303 		lsl	r3, r3, #2
 1237 001e D318     		adds	r3, r2, r3
 1238 0020 5B68     		ldr	r3, [r3, #4]
 1239 0022 5B69     		ldr	r3, [r3, #20]
 1240 0024 0593     		str	r3, [sp, #20]
 1241              		.loc 1 456 0
 1242 0026 059B     		ldr	r3, [sp, #20]
 1243 0028 4FF00102 		mov	r2, #1
 1244 002c 1A70     		strb	r2, [r3, #0]
 1245              		.loc 1 457 0
 1246 002e 059B     		ldr	r3, [sp, #20]
 1247 0030 019A     		ldr	r2, [sp, #4]
 1248 0032 DA60     		str	r2, [r3, #12]
 1249              		.loc 1 458 0
 1250 0034 059B     		ldr	r3, [sp, #20]
 1251 0036 009A     		ldr	r2, [sp, #0]
 1252 0038 5A60     		str	r2, [r3, #4]
 1253              		.loc 1 459 0
 1254 003a 059B     		ldr	r3, [sp, #20]
 1255 003c 4FF00002 		mov	r2, #0
 1256 0040 9A60     		str	r2, [r3, #8]
 1257              		.loc 1 461 0
 1258 0042 9DF80B30 		ldrb	r3, [sp, #11]	@ zero_extendqisi2
 1259 0046 0398     		ldr	r0, [sp, #12]
 1260 0048 1946     		mov	r1, r3
 1261 004a FFF7FEFF 		bl	usb_lld_prepare_transmit
 1262              		.loc 1 462 0
 1263 004e 07B0     		add	sp, sp, #28
 1264 0050 00BD     		pop	{pc}
 1265              		.cfi_endproc
 1266              	.LFE129:
 1267              		.size	usbPrepareQueuedTransmit, .-usbPrepareQueuedTransmit
 1268 0052 00BFAFF3 		.section	.text.usbStartReceiveI,"ax",%progbits
 1268      0080AFF3 
 1268      0080AFF3 
 1268      0080
 1269              		.align	2
 1270              		.p2align 4,,15
 1271              		.global	usbStartReceiveI
 1272              		.thumb
 1273              		.thumb_func
 1274              		.type	usbStartReceiveI, %function
 1275              	usbStartReceiveI:
 1276              	.LFB130:
 1277              		.loc 1 478 0
 1278              		.cfi_startproc
 1279              		@ args = 0, pretend = 0, frame = 8
 1280              		@ frame_needed = 0, uses_anonymous_args = 0
 1281 0000 00B5     		push	{lr}
 1282              	.LCFI22:
 1283              		.cfi_def_cfa_offset 4
 1284              		.cfi_offset 14, -4
 1285 0002 83B0     		sub	sp, sp, #12
ARM GAS  /tmp/ccouNqwt.s 			page 24


 1286              	.LCFI23:
 1287              		.cfi_def_cfa_offset 16
 1288 0004 0190     		str	r0, [sp, #4]
 1289 0006 0B46     		mov	r3, r1
 1290 0008 8DF80330 		strb	r3, [sp, #3]
 1291              		.loc 1 483 0
 1292 000c 019B     		ldr	r3, [sp, #4]
 1293 000e 5B89     		ldrh	r3, [r3, #10]
 1294 0010 1A46     		mov	r2, r3
 1295 0012 9DF80330 		ldrb	r3, [sp, #3]	@ zero_extendqisi2
 1296 0016 42FA03F3 		asr	r3, r2, r3
 1297 001a 03F00103 		and	r3, r3, #1
 1298 001e 002B     		cmp	r3, #0
 1299 0020 02D0     		beq	.L71
 1300              		.loc 1 484 0
 1301 0022 4FF00103 		mov	r3, #1
 1302 0026 16E0     		b	.L72
 1303              	.L71:
 1304              		.loc 1 486 0
 1305 0028 019B     		ldr	r3, [sp, #4]
 1306 002a 5B89     		ldrh	r3, [r3, #10]
 1307 002c 9AB2     		uxth	r2, r3
 1308 002e 9DF80330 		ldrb	r3, [sp, #3]	@ zero_extendqisi2
 1309 0032 4FF00101 		mov	r1, #1
 1310 0036 01FA03F3 		lsl	r3, r1, r3
 1311 003a 9BB2     		uxth	r3, r3
 1312 003c 1343     		orrs	r3, r3, r2
 1313 003e 9BB2     		uxth	r3, r3
 1314 0040 9AB2     		uxth	r2, r3
 1315 0042 019B     		ldr	r3, [sp, #4]
 1316 0044 5A81     		strh	r2, [r3, #10]	@ movhi
 1317              		.loc 1 487 0
 1318 0046 9DF80330 		ldrb	r3, [sp, #3]	@ zero_extendqisi2
 1319 004a 0198     		ldr	r0, [sp, #4]
 1320 004c 1946     		mov	r1, r3
 1321 004e FFF7FEFF 		bl	usb_lld_start_out
 1322              		.loc 1 488 0
 1323 0052 4FF00003 		mov	r3, #0
 1324              	.L72:
 1325              		.loc 1 489 0
 1326 0056 1846     		mov	r0, r3
 1327 0058 03B0     		add	sp, sp, #12
 1328 005a 00BD     		pop	{pc}
 1329              		.cfi_endproc
 1330              	.LFE130:
 1331              		.size	usbStartReceiveI, .-usbStartReceiveI
 1332 005c AFF30080 		.section	.text.usbStartTransmitI,"ax",%progbits
 1333              		.align	2
 1334              		.p2align 4,,15
 1335              		.global	usbStartTransmitI
 1336              		.thumb
 1337              		.thumb_func
 1338              		.type	usbStartTransmitI, %function
 1339              	usbStartTransmitI:
 1340              	.LFB131:
 1341              		.loc 1 505 0
 1342              		.cfi_startproc
ARM GAS  /tmp/ccouNqwt.s 			page 25


 1343              		@ args = 0, pretend = 0, frame = 8
 1344              		@ frame_needed = 0, uses_anonymous_args = 0
 1345 0000 00B5     		push	{lr}
 1346              	.LCFI24:
 1347              		.cfi_def_cfa_offset 4
 1348              		.cfi_offset 14, -4
 1349 0002 83B0     		sub	sp, sp, #12
 1350              	.LCFI25:
 1351              		.cfi_def_cfa_offset 16
 1352 0004 0190     		str	r0, [sp, #4]
 1353 0006 0B46     		mov	r3, r1
 1354 0008 8DF80330 		strb	r3, [sp, #3]
 1355              		.loc 1 510 0
 1356 000c 019B     		ldr	r3, [sp, #4]
 1357 000e 1B89     		ldrh	r3, [r3, #8]
 1358 0010 1A46     		mov	r2, r3
 1359 0012 9DF80330 		ldrb	r3, [sp, #3]	@ zero_extendqisi2
 1360 0016 42FA03F3 		asr	r3, r2, r3
 1361 001a 03F00103 		and	r3, r3, #1
 1362 001e 002B     		cmp	r3, #0
 1363 0020 02D0     		beq	.L74
 1364              		.loc 1 511 0
 1365 0022 4FF00103 		mov	r3, #1
 1366 0026 16E0     		b	.L75
 1367              	.L74:
 1368              		.loc 1 513 0
 1369 0028 019B     		ldr	r3, [sp, #4]
 1370 002a 1B89     		ldrh	r3, [r3, #8]
 1371 002c 9AB2     		uxth	r2, r3
 1372 002e 9DF80330 		ldrb	r3, [sp, #3]	@ zero_extendqisi2
 1373 0032 4FF00101 		mov	r1, #1
 1374 0036 01FA03F3 		lsl	r3, r1, r3
 1375 003a 9BB2     		uxth	r3, r3
 1376 003c 1343     		orrs	r3, r3, r2
 1377 003e 9BB2     		uxth	r3, r3
 1378 0040 9AB2     		uxth	r2, r3
 1379 0042 019B     		ldr	r3, [sp, #4]
 1380 0044 1A81     		strh	r2, [r3, #8]	@ movhi
 1381              		.loc 1 514 0
 1382 0046 9DF80330 		ldrb	r3, [sp, #3]	@ zero_extendqisi2
 1383 004a 0198     		ldr	r0, [sp, #4]
 1384 004c 1946     		mov	r1, r3
 1385 004e FFF7FEFF 		bl	usb_lld_start_in
 1386              		.loc 1 515 0
 1387 0052 4FF00003 		mov	r3, #0
 1388              	.L75:
 1389              		.loc 1 516 0
 1390 0056 1846     		mov	r0, r3
 1391 0058 03B0     		add	sp, sp, #12
 1392 005a 00BD     		pop	{pc}
 1393              		.cfi_endproc
 1394              	.LFE131:
 1395              		.size	usbStartTransmitI, .-usbStartTransmitI
 1396 005c AFF30080 		.section	.text.usbStallReceiveI,"ax",%progbits
 1397              		.align	2
 1398              		.p2align 4,,15
 1399              		.global	usbStallReceiveI
ARM GAS  /tmp/ccouNqwt.s 			page 26


 1400              		.thumb
 1401              		.thumb_func
 1402              		.type	usbStallReceiveI, %function
 1403              	usbStallReceiveI:
 1404              	.LFB132:
 1405              		.loc 1 530 0
 1406              		.cfi_startproc
 1407              		@ args = 0, pretend = 0, frame = 8
 1408              		@ frame_needed = 0, uses_anonymous_args = 0
 1409 0000 00B5     		push	{lr}
 1410              	.LCFI26:
 1411              		.cfi_def_cfa_offset 4
 1412              		.cfi_offset 14, -4
 1413 0002 83B0     		sub	sp, sp, #12
 1414              	.LCFI27:
 1415              		.cfi_def_cfa_offset 16
 1416 0004 0190     		str	r0, [sp, #4]
 1417 0006 0B46     		mov	r3, r1
 1418 0008 8DF80330 		strb	r3, [sp, #3]
 1419              		.loc 1 535 0
 1420 000c 019B     		ldr	r3, [sp, #4]
 1421 000e 5B89     		ldrh	r3, [r3, #10]
 1422 0010 1A46     		mov	r2, r3
 1423 0012 9DF80330 		ldrb	r3, [sp, #3]	@ zero_extendqisi2
 1424 0016 42FA03F3 		asr	r3, r2, r3
 1425 001a 03F00103 		and	r3, r3, #1
 1426 001e 002B     		cmp	r3, #0
 1427 0020 02D0     		beq	.L77
 1428              		.loc 1 536 0
 1429 0022 4FF00103 		mov	r3, #1
 1430 0026 07E0     		b	.L78
 1431              	.L77:
 1432              		.loc 1 538 0
 1433 0028 9DF80330 		ldrb	r3, [sp, #3]	@ zero_extendqisi2
 1434 002c 0198     		ldr	r0, [sp, #4]
 1435 002e 1946     		mov	r1, r3
 1436 0030 FFF7FEFF 		bl	usb_lld_stall_out
 1437              		.loc 1 539 0
 1438 0034 4FF00003 		mov	r3, #0
 1439              	.L78:
 1440              		.loc 1 540 0
 1441 0038 1846     		mov	r0, r3
 1442 003a 03B0     		add	sp, sp, #12
 1443 003c 00BD     		pop	{pc}
 1444              		.cfi_endproc
 1445              	.LFE132:
 1446              		.size	usbStallReceiveI, .-usbStallReceiveI
 1447 003e 00BF     		.section	.text.usbStallTransmitI,"ax",%progbits
 1448              		.align	2
 1449              		.p2align 4,,15
 1450              		.global	usbStallTransmitI
 1451              		.thumb
 1452              		.thumb_func
 1453              		.type	usbStallTransmitI, %function
 1454              	usbStallTransmitI:
 1455              	.LFB133:
 1456              		.loc 1 554 0
ARM GAS  /tmp/ccouNqwt.s 			page 27


 1457              		.cfi_startproc
 1458              		@ args = 0, pretend = 0, frame = 8
 1459              		@ frame_needed = 0, uses_anonymous_args = 0
 1460 0000 00B5     		push	{lr}
 1461              	.LCFI28:
 1462              		.cfi_def_cfa_offset 4
 1463              		.cfi_offset 14, -4
 1464 0002 83B0     		sub	sp, sp, #12
 1465              	.LCFI29:
 1466              		.cfi_def_cfa_offset 16
 1467 0004 0190     		str	r0, [sp, #4]
 1468 0006 0B46     		mov	r3, r1
 1469 0008 8DF80330 		strb	r3, [sp, #3]
 1470              		.loc 1 559 0
 1471 000c 019B     		ldr	r3, [sp, #4]
 1472 000e 1B89     		ldrh	r3, [r3, #8]
 1473 0010 1A46     		mov	r2, r3
 1474 0012 9DF80330 		ldrb	r3, [sp, #3]	@ zero_extendqisi2
 1475 0016 42FA03F3 		asr	r3, r2, r3
 1476 001a 03F00103 		and	r3, r3, #1
 1477 001e 002B     		cmp	r3, #0
 1478 0020 02D0     		beq	.L80
 1479              		.loc 1 560 0
 1480 0022 4FF00103 		mov	r3, #1
 1481 0026 07E0     		b	.L81
 1482              	.L80:
 1483              		.loc 1 562 0
 1484 0028 9DF80330 		ldrb	r3, [sp, #3]	@ zero_extendqisi2
 1485 002c 0198     		ldr	r0, [sp, #4]
 1486 002e 1946     		mov	r1, r3
 1487 0030 FFF7FEFF 		bl	usb_lld_stall_in
 1488              		.loc 1 563 0
 1489 0034 4FF00003 		mov	r3, #0
 1490              	.L81:
 1491              		.loc 1 564 0
 1492 0038 1846     		mov	r0, r3
 1493 003a 03B0     		add	sp, sp, #12
 1494 003c 00BD     		pop	{pc}
 1495              		.cfi_endproc
 1496              	.LFE133:
 1497              		.size	usbStallTransmitI, .-usbStallTransmitI
 1498 003e 00BF     		.section	.text._usb_reset,"ax",%progbits
 1499              		.align	2
 1500              		.p2align 4,,15
 1501              		.global	_usb_reset
 1502              		.thumb
 1503              		.thumb_func
 1504              		.type	_usb_reset, %function
 1505              	_usb_reset:
 1506              	.LFB134:
 1507              		.loc 1 575 0
 1508              		.cfi_startproc
 1509              		@ args = 0, pretend = 0, frame = 16
 1510              		@ frame_needed = 0, uses_anonymous_args = 0
 1511 0000 00B5     		push	{lr}
 1512              	.LCFI30:
 1513              		.cfi_def_cfa_offset 4
ARM GAS  /tmp/ccouNqwt.s 			page 28


 1514              		.cfi_offset 14, -4
 1515 0002 85B0     		sub	sp, sp, #20
 1516              	.LCFI31:
 1517              		.cfi_def_cfa_offset 24
 1518 0004 0190     		str	r0, [sp, #4]
 1519              		.loc 1 578 0
 1520 0006 019B     		ldr	r3, [sp, #4]
 1521 0008 4FF00202 		mov	r2, #2
 1522 000c 1A70     		strb	r2, [r3, #0]
 1523              		.loc 1 579 0
 1524 000e 019B     		ldr	r3, [sp, #4]
 1525 0010 4FF00002 		mov	r2, #0
 1526 0014 A3F84C20 		strh	r2, [r3, #76]	@ movhi
 1527              		.loc 1 580 0
 1528 0018 019B     		ldr	r3, [sp, #4]
 1529 001a 4FF00002 		mov	r2, #0
 1530 001e 83F84E20 		strb	r2, [r3, #78]
 1531              		.loc 1 581 0
 1532 0022 019B     		ldr	r3, [sp, #4]
 1533 0024 4FF00002 		mov	r2, #0
 1534 0028 83F84F20 		strb	r2, [r3, #79]
 1535              		.loc 1 582 0
 1536 002c 019B     		ldr	r3, [sp, #4]
 1537 002e 4FF00002 		mov	r2, #0
 1538 0032 1A81     		strh	r2, [r3, #8]	@ movhi
 1539              		.loc 1 583 0
 1540 0034 019B     		ldr	r3, [sp, #4]
 1541 0036 4FF00002 		mov	r2, #0
 1542 003a 5A81     		strh	r2, [r3, #10]	@ movhi
 1543              		.loc 1 586 0
 1544 003c 4FF00003 		mov	r3, #0
 1545 0040 0393     		str	r3, [sp, #12]
 1546 0042 0DE0     		b	.L83
 1547              	.L84:
 1548              		.loc 1 587 0 discriminator 2
 1549 0044 019A     		ldr	r2, [sp, #4]
 1550 0046 039B     		ldr	r3, [sp, #12]
 1551 0048 03F10203 		add	r3, r3, #2
 1552 004c 4FEA8303 		lsl	r3, r3, #2
 1553 0050 D318     		adds	r3, r2, r3
 1554 0052 4FF00002 		mov	r2, #0
 1555 0056 5A60     		str	r2, [r3, #4]
 1556              		.loc 1 586 0 discriminator 2
 1557 0058 039B     		ldr	r3, [sp, #12]
 1558 005a 03F10103 		add	r3, r3, #1
 1559 005e 0393     		str	r3, [sp, #12]
 1560              	.L83:
 1561              		.loc 1 586 0 is_stmt 0 discriminator 1
 1562 0060 039B     		ldr	r3, [sp, #12]
 1563 0062 032B     		cmp	r3, #3
 1564 0064 EED9     		bls	.L84
 1565              		.loc 1 590 0 is_stmt 1
 1566 0066 019B     		ldr	r3, [sp, #4]
 1567 0068 4FF00002 		mov	r2, #0
 1568 006c 83F83420 		strb	r2, [r3, #52]
 1569              		.loc 1 593 0
 1570 0070 0198     		ldr	r0, [sp, #4]
ARM GAS  /tmp/ccouNqwt.s 			page 29


 1571 0072 FFF7FEFF 		bl	usb_lld_reset
 1572              		.loc 1 594 0
 1573 0076 05B0     		add	sp, sp, #20
 1574 0078 00BD     		pop	{pc}
 1575              		.cfi_endproc
 1576              	.LFE134:
 1577              		.size	_usb_reset, .-_usb_reset
 1578 007a 00BFAFF3 		.section	.text._usb_ep0setup,"ax",%progbits
 1578      0080
 1579              		.align	2
 1580              		.p2align 4,,15
 1581              		.global	_usb_ep0setup
 1582              		.thumb
 1583              		.thumb_func
 1584              		.type	_usb_ep0setup, %function
 1585              	_usb_ep0setup:
 1586              	.LFB135:
 1587              		.loc 1 606 0
 1588              		.cfi_startproc
 1589              		@ args = 0, pretend = 0, frame = 16
 1590              		@ frame_needed = 0, uses_anonymous_args = 0
 1591 0000 00B5     		push	{lr}
 1592              	.LCFI32:
 1593              		.cfi_def_cfa_offset 4
 1594              		.cfi_offset 14, -4
 1595 0002 85B0     		sub	sp, sp, #20
 1596              	.LCFI33:
 1597              		.cfi_def_cfa_offset 24
 1598 0004 0190     		str	r0, [sp, #4]
 1599 0006 0B46     		mov	r3, r1
 1600 0008 8DF80330 		strb	r3, [sp, #3]
 1601              		.loc 1 609 0
 1602 000c 019B     		ldr	r3, [sp, #4]
 1603 000e 4FF00002 		mov	r2, #0
 1604 0012 83F83420 		strb	r2, [r3, #52]
 1605              		.loc 1 610 0
 1606 0016 019B     		ldr	r3, [sp, #4]
 1607 0018 03F14403 		add	r3, r3, #68
 1608 001c 9DF80320 		ldrb	r2, [sp, #3]	@ zero_extendqisi2
 1609 0020 0198     		ldr	r0, [sp, #4]
 1610 0022 1146     		mov	r1, r2
 1611 0024 1A46     		mov	r2, r3
 1612 0026 FFF7FEFF 		bl	usb_lld_read_setup
 1613              		.loc 1 614 0
 1614 002a 019B     		ldr	r3, [sp, #4]
 1615 002c 5B68     		ldr	r3, [r3, #4]
 1616 002e 9B68     		ldr	r3, [r3, #8]
 1617 0030 002B     		cmp	r3, #0
 1618 0032 0AD0     		beq	.L86
 1619              		.loc 1 615 0 discriminator 1
 1620 0034 019B     		ldr	r3, [sp, #4]
 1621 0036 5B68     		ldr	r3, [r3, #4]
 1622 0038 9B68     		ldr	r3, [r3, #8]
 1623 003a 0198     		ldr	r0, [sp, #4]
 1624 003c 9847     		blx	r3
 1625 003e 0346     		mov	r3, r0
 1626 0040 83F00103 		eor	r3, r3, #1
ARM GAS  /tmp/ccouNqwt.s 			page 30


 1627 0044 DBB2     		uxtb	r3, r3
 1628              		.loc 1 614 0 discriminator 1
 1629 0046 002B     		cmp	r3, #0
 1630 0048 2BD0     		beq	.L87
 1631              	.L86:
 1632              		.loc 1 618 0
 1633 004a 019B     		ldr	r3, [sp, #4]
 1634 004c 93F84430 		ldrb	r3, [r3, #68]	@ zero_extendqisi2
 1635 0050 03F06003 		and	r3, r3, #96
 1636 0054 002B     		cmp	r3, #0
 1637 0056 08D1     		bne	.L88
 1638              		.loc 1 619 0 discriminator 1
 1639 0058 0198     		ldr	r0, [sp, #4]
 1640 005a FFF7FEFF 		bl	default_handler
 1641 005e 0346     		mov	r3, r0
 1642 0060 83F00103 		eor	r3, r3, #1
 1643 0064 DBB2     		uxtb	r3, r3
 1644              		.loc 1 618 0 discriminator 1
 1645 0066 002B     		cmp	r3, #0
 1646 0068 1BD0     		beq	.L87
 1647              	.L88:
 1648              		.loc 1 623 0
 1649 006a 0198     		ldr	r0, [sp, #4]
 1650 006c 4FF00001 		mov	r1, #0
 1651 0070 FFF7FEFF 		bl	usb_lld_stall_in
 1652              		.loc 1 624 0
 1653 0074 0198     		ldr	r0, [sp, #4]
 1654 0076 4FF00001 		mov	r1, #0
 1655 007a FFF7FEFF 		bl	usb_lld_stall_out
 1656              		.loc 1 625 0
 1657 007e 019B     		ldr	r3, [sp, #4]
 1658 0080 5B68     		ldr	r3, [r3, #4]
 1659 0082 1B68     		ldr	r3, [r3, #0]
 1660 0084 002B     		cmp	r3, #0
 1661 0086 06D0     		beq	.L89
 1662              		.loc 1 625 0 is_stmt 0 discriminator 1
 1663 0088 019B     		ldr	r3, [sp, #4]
 1664 008a 5B68     		ldr	r3, [r3, #4]
 1665 008c 1B68     		ldr	r3, [r3, #0]
 1666 008e 0198     		ldr	r0, [sp, #4]
 1667 0090 4FF00501 		mov	r1, #5
 1668 0094 9847     		blx	r3
 1669              	.L89:
 1670              		.loc 1 626 0 is_stmt 1
 1671 0096 019B     		ldr	r3, [sp, #4]
 1672 0098 4FF00602 		mov	r2, #6
 1673 009c 83F83420 		strb	r2, [r3, #52]
 1674              		.loc 1 627 0
 1675 00a0 90E0     		b	.L85
 1676              	.L87:
 1677              		.loc 1 634 0
 1678 00a2 019B     		ldr	r3, [sp, #4]
 1679 00a4 93F84A30 		ldrb	r3, [r3, #74]	@ zero_extendqisi2
 1680 00a8 1A46     		mov	r2, r3
 1681 00aa 019B     		ldr	r3, [sp, #4]
 1682 00ac 93F84B30 		ldrb	r3, [r3, #75]	@ zero_extendqisi2
 1683 00b0 4FEA0323 		lsl	r3, r3, #8
ARM GAS  /tmp/ccouNqwt.s 			page 31


 1684 00b4 1343     		orrs	r3, r3, r2
 1685 00b6 0393     		str	r3, [sp, #12]
 1686              		.loc 1 636 0
 1687 00b8 019B     		ldr	r3, [sp, #4]
 1688 00ba DA6B     		ldr	r2, [r3, #60]
 1689 00bc 039B     		ldr	r3, [sp, #12]
 1690 00be 9A42     		cmp	r2, r3
 1691 00c0 02D9     		bls	.L91
 1692              		.loc 1 637 0
 1693 00c2 019B     		ldr	r3, [sp, #4]
 1694 00c4 039A     		ldr	r2, [sp, #12]
 1695 00c6 DA63     		str	r2, [r3, #60]
 1696              	.L91:
 1697              		.loc 1 638 0
 1698 00c8 019B     		ldr	r3, [sp, #4]
 1699 00ca 93F84430 		ldrb	r3, [r3, #68]	@ zero_extendqisi2
 1700 00ce DBB2     		uxtb	r3, r3
 1701 00d0 5BB2     		sxtb	r3, r3
 1702 00d2 002B     		cmp	r3, #0
 1703 00d4 3BDA     		bge	.L92
 1704              		.loc 1 640 0
 1705 00d6 019B     		ldr	r3, [sp, #4]
 1706 00d8 DB6B     		ldr	r3, [r3, #60]
 1707 00da 002B     		cmp	r3, #0
 1708 00dc 1BD0     		beq	.L93
 1709              		.loc 1 642 0
 1710 00de 019B     		ldr	r3, [sp, #4]
 1711 00e0 4FF00102 		mov	r2, #1
 1712 00e4 83F83420 		strb	r2, [r3, #52]
 1713              		.loc 1 643 0
 1714 00e8 019B     		ldr	r3, [sp, #4]
 1715 00ea 9A6B     		ldr	r2, [r3, #56]
 1716 00ec 019B     		ldr	r3, [sp, #4]
 1717 00ee DB6B     		ldr	r3, [r3, #60]
 1718 00f0 0198     		ldr	r0, [sp, #4]
 1719 00f2 4FF00001 		mov	r1, #0
 1720 00f6 FFF7FEFF 		bl	usbPrepareTransmit
 1721              	.LBB6:
 1722              		.loc 1 644 0
 1723 00fa 4FF02003 		mov	r3, #32
 1724              	@ 644 "../../os/hal/src/usb.c" 1
 1725 00fe 83F31188 		msr     BASEPRI, r3
 1726              	@ 0 "" 2
 1727              		.thumb
 1728              	.LBE6:
 1729              		.loc 1 645 0
 1730 0102 0198     		ldr	r0, [sp, #4]
 1731 0104 4FF00001 		mov	r1, #0
 1732 0108 FFF7FEFF 		bl	usbStartTransmitI
 1733              	.LBB7:
 1734              		.loc 1 646 0
 1735 010c 4FF00003 		mov	r3, #0
 1736              	@ 646 "../../os/hal/src/usb.c" 1
 1737 0110 83F31188 		msr     BASEPRI, r3
 1738              	@ 0 "" 2
 1739              		.thumb
 1740 0114 56E0     		b	.L85
ARM GAS  /tmp/ccouNqwt.s 			page 32


 1741              	.L93:
 1742              	.LBE7:
 1743              		.loc 1 651 0
 1744 0116 019B     		ldr	r3, [sp, #4]
 1745 0118 4FF00302 		mov	r2, #3
 1746 011c 83F83420 		strb	r2, [r3, #52]
 1747              		.loc 1 652 0
 1748 0120 0198     		ldr	r0, [sp, #4]
 1749 0122 4FF00001 		mov	r1, #0
 1750 0126 4FF00002 		mov	r2, #0
 1751 012a 4FF00003 		mov	r3, #0
 1752 012e FFF7FEFF 		bl	usbPrepareReceive
 1753              	.LBB8:
 1754              		.loc 1 653 0
 1755 0132 4FF02003 		mov	r3, #32
 1756              	@ 653 "../../os/hal/src/usb.c" 1
 1757 0136 83F31188 		msr     BASEPRI, r3
 1758              	@ 0 "" 2
 1759              		.thumb
 1760              	.LBE8:
 1761              		.loc 1 654 0
 1762 013a 0198     		ldr	r0, [sp, #4]
 1763 013c 4FF00001 		mov	r1, #0
 1764 0140 FFF7FEFF 		bl	usbStartReceiveI
 1765              	.LBB9:
 1766              		.loc 1 655 0
 1767 0144 4FF00003 		mov	r3, #0
 1768              	@ 655 "../../os/hal/src/usb.c" 1
 1769 0148 83F31188 		msr     BASEPRI, r3
 1770              	@ 0 "" 2
 1771              		.thumb
 1772 014c 3AE0     		b	.L85
 1773              	.L92:
 1774              	.LBE9:
 1775              		.loc 1 660 0
 1776 014e 019B     		ldr	r3, [sp, #4]
 1777 0150 DB6B     		ldr	r3, [r3, #60]
 1778 0152 002B     		cmp	r3, #0
 1779 0154 1BD0     		beq	.L94
 1780              		.loc 1 662 0
 1781 0156 019B     		ldr	r3, [sp, #4]
 1782 0158 4FF00402 		mov	r2, #4
 1783 015c 83F83420 		strb	r2, [r3, #52]
 1784              		.loc 1 663 0
 1785 0160 019B     		ldr	r3, [sp, #4]
 1786 0162 9A6B     		ldr	r2, [r3, #56]
 1787 0164 019B     		ldr	r3, [sp, #4]
 1788 0166 DB6B     		ldr	r3, [r3, #60]
 1789 0168 0198     		ldr	r0, [sp, #4]
 1790 016a 4FF00001 		mov	r1, #0
 1791 016e FFF7FEFF 		bl	usbPrepareReceive
 1792              	.LBB10:
 1793              		.loc 1 664 0
 1794 0172 4FF02003 		mov	r3, #32
 1795              	@ 664 "../../os/hal/src/usb.c" 1
 1796 0176 83F31188 		msr     BASEPRI, r3
 1797              	@ 0 "" 2
ARM GAS  /tmp/ccouNqwt.s 			page 33


 1798              		.thumb
 1799              	.LBE10:
 1800              		.loc 1 665 0
 1801 017a 0198     		ldr	r0, [sp, #4]
 1802 017c 4FF00001 		mov	r1, #0
 1803 0180 FFF7FEFF 		bl	usbStartReceiveI
 1804              	.LBB11:
 1805              		.loc 1 666 0
 1806 0184 4FF00003 		mov	r3, #0
 1807              	@ 666 "../../os/hal/src/usb.c" 1
 1808 0188 83F31188 		msr     BASEPRI, r3
 1809              	@ 0 "" 2
 1810              		.thumb
 1811 018c 1AE0     		b	.L85
 1812              	.L94:
 1813              	.LBE11:
 1814              		.loc 1 671 0
 1815 018e 019B     		ldr	r3, [sp, #4]
 1816 0190 4FF00502 		mov	r2, #5
 1817 0194 83F83420 		strb	r2, [r3, #52]
 1818              		.loc 1 672 0
 1819 0198 0198     		ldr	r0, [sp, #4]
 1820 019a 4FF00001 		mov	r1, #0
 1821 019e 4FF00002 		mov	r2, #0
 1822 01a2 4FF00003 		mov	r3, #0
 1823 01a6 FFF7FEFF 		bl	usbPrepareTransmit
 1824              	.LBB12:
 1825              		.loc 1 673 0
 1826 01aa 4FF02003 		mov	r3, #32
 1827              	@ 673 "../../os/hal/src/usb.c" 1
 1828 01ae 83F31188 		msr     BASEPRI, r3
 1829              	@ 0 "" 2
 1830              		.thumb
 1831              	.LBE12:
 1832              		.loc 1 674 0
 1833 01b2 0198     		ldr	r0, [sp, #4]
 1834 01b4 4FF00001 		mov	r1, #0
 1835 01b8 FFF7FEFF 		bl	usbStartTransmitI
 1836              	.LBB13:
 1837              		.loc 1 675 0
 1838 01bc 4FF00003 		mov	r3, #0
 1839              	@ 675 "../../os/hal/src/usb.c" 1
 1840 01c0 83F31188 		msr     BASEPRI, r3
 1841              	@ 0 "" 2
 1842              		.thumb
 1843              	.L85:
 1844              	.LBE13:
 1845              		.loc 1 678 0
 1846 01c4 05B0     		add	sp, sp, #20
 1847 01c6 00BD     		pop	{pc}
 1848              		.cfi_endproc
 1849              	.LFE135:
 1850              		.size	_usb_ep0setup, .-_usb_ep0setup
 1851 01c8 AFF30080 		.section	.text._usb_ep0in,"ax",%progbits
 1851      AFF30080 
 1852              		.align	2
 1853              		.p2align 4,,15
ARM GAS  /tmp/ccouNqwt.s 			page 34


 1854              		.global	_usb_ep0in
 1855              		.thumb
 1856              		.thumb_func
 1857              		.type	_usb_ep0in, %function
 1858              	_usb_ep0in:
 1859              	.LFB136:
 1860              		.loc 1 690 0
 1861              		.cfi_startproc
 1862              		@ args = 0, pretend = 0, frame = 16
 1863              		@ frame_needed = 0, uses_anonymous_args = 0
 1864 0000 00B5     		push	{lr}
 1865              	.LCFI34:
 1866              		.cfi_def_cfa_offset 4
 1867              		.cfi_offset 14, -4
 1868 0002 85B0     		sub	sp, sp, #20
 1869              	.LCFI35:
 1870              		.cfi_def_cfa_offset 24
 1871 0004 0190     		str	r0, [sp, #4]
 1872 0006 0B46     		mov	r3, r1
 1873 0008 8DF80330 		strb	r3, [sp, #3]
 1874              		.loc 1 694 0
 1875 000c 019B     		ldr	r3, [sp, #4]
 1876 000e 93F83430 		ldrb	r3, [r3, #52]	@ zero_extendqisi2
 1877 0012 022B     		cmp	r3, #2
 1878 0014 3BD0     		beq	.L98
 1879 0016 052B     		cmp	r3, #5
 1880 0018 55D0     		beq	.L99
 1881 001a 012B     		cmp	r3, #1
 1882 001c 61D1     		bne	.L103
 1883              	.L97:
 1884              		.loc 1 696 0
 1885 001e 019B     		ldr	r3, [sp, #4]
 1886 0020 93F84A30 		ldrb	r3, [r3, #74]	@ zero_extendqisi2
 1887 0024 1A46     		mov	r2, r3
 1888 0026 019B     		ldr	r3, [sp, #4]
 1889 0028 93F84B30 		ldrb	r3, [r3, #75]	@ zero_extendqisi2
 1890 002c 4FEA0323 		lsl	r3, r3, #8
 1891 0030 1343     		orrs	r3, r3, r2
 1892 0032 0393     		str	r3, [sp, #12]
 1893              		.loc 1 700 0
 1894 0034 019B     		ldr	r3, [sp, #4]
 1895 0036 DA6B     		ldr	r2, [r3, #60]
 1896 0038 039B     		ldr	r3, [sp, #12]
 1897 003a 9A42     		cmp	r2, r3
 1898 003c 27D2     		bcs	.L98
 1899              		.loc 1 700 0 is_stmt 0 discriminator 1
 1900 003e 019B     		ldr	r3, [sp, #4]
 1901 0040 DB6B     		ldr	r3, [r3, #60]
 1902 0042 019A     		ldr	r2, [sp, #4]
 1903 0044 D268     		ldr	r2, [r2, #12]
 1904 0046 128A     		ldrh	r2, [r2, #16]
 1905 0048 B3FBF2F1 		udiv	r1, r3, r2
 1906 004c 02FB01F2 		mul	r2, r2, r1
 1907 0050 9B1A     		subs	r3, r3, r2
 1908 0052 002B     		cmp	r3, #0
 1909 0054 1BD1     		bne	.L98
 1910              		.loc 1 701 0 is_stmt 1
ARM GAS  /tmp/ccouNqwt.s 			page 35


 1911 0056 0198     		ldr	r0, [sp, #4]
 1912 0058 4FF00001 		mov	r1, #0
 1913 005c 4FF00002 		mov	r2, #0
 1914 0060 4FF00003 		mov	r3, #0
 1915 0064 FFF7FEFF 		bl	usbPrepareTransmit
 1916              	.LBB14:
 1917              		.loc 1 702 0
 1918 0068 4FF02003 		mov	r3, #32
 1919              	@ 702 "../../os/hal/src/usb.c" 1
 1920 006c 83F31188 		msr     BASEPRI, r3
 1921              	@ 0 "" 2
 1922              		.thumb
 1923              	.LBE14:
 1924              		.loc 1 703 0
 1925 0070 0198     		ldr	r0, [sp, #4]
 1926 0072 4FF00001 		mov	r1, #0
 1927 0076 FFF7FEFF 		bl	usbStartTransmitI
 1928              	.LBB15:
 1929              		.loc 1 704 0
 1930 007a 4FF00003 		mov	r3, #0
 1931              	@ 704 "../../os/hal/src/usb.c" 1
 1932 007e 83F31188 		msr     BASEPRI, r3
 1933              	@ 0 "" 2
 1934              		.thumb
 1935              	.LBE15:
 1936              		.loc 1 705 0
 1937 0082 019B     		ldr	r3, [sp, #4]
 1938 0084 4FF00202 		mov	r2, #2
 1939 0088 83F83420 		strb	r2, [r3, #52]
 1940              		.loc 1 706 0
 1941 008c 44E0     		b	.L95
 1942              	.L98:
 1943              		.loc 1 711 0
 1944 008e 019B     		ldr	r3, [sp, #4]
 1945 0090 4FF00302 		mov	r2, #3
 1946 0094 83F83420 		strb	r2, [r3, #52]
 1947              		.loc 1 712 0
 1948 0098 0198     		ldr	r0, [sp, #4]
 1949 009a 4FF00001 		mov	r1, #0
 1950 009e 4FF00002 		mov	r2, #0
 1951 00a2 4FF00003 		mov	r3, #0
 1952 00a6 FFF7FEFF 		bl	usbPrepareReceive
 1953              	.LBB16:
 1954              		.loc 1 713 0
 1955 00aa 4FF02003 		mov	r3, #32
 1956              	@ 713 "../../os/hal/src/usb.c" 1
 1957 00ae 83F31188 		msr     BASEPRI, r3
 1958              	@ 0 "" 2
 1959              		.thumb
 1960              	.LBE16:
 1961              		.loc 1 714 0
 1962 00b2 0198     		ldr	r0, [sp, #4]
 1963 00b4 4FF00001 		mov	r1, #0
 1964 00b8 FFF7FEFF 		bl	usbStartReceiveI
 1965              	.LBB17:
 1966              		.loc 1 715 0
 1967 00bc 4FF00003 		mov	r3, #0
ARM GAS  /tmp/ccouNqwt.s 			page 36


 1968              	@ 715 "../../os/hal/src/usb.c" 1
 1969 00c0 83F31188 		msr     BASEPRI, r3
 1970              	@ 0 "" 2
 1971              		.thumb
 1972              	.LBE17:
 1973              		.loc 1 716 0
 1974 00c4 28E0     		b	.L95
 1975              	.L99:
 1976              		.loc 1 719 0
 1977 00c6 019B     		ldr	r3, [sp, #4]
 1978 00c8 1B6C     		ldr	r3, [r3, #64]
 1979 00ca 002B     		cmp	r3, #0
 1980 00cc 03D0     		beq	.L101
 1981              		.loc 1 720 0
 1982 00ce 019B     		ldr	r3, [sp, #4]
 1983 00d0 1B6C     		ldr	r3, [r3, #64]
 1984 00d2 0198     		ldr	r0, [sp, #4]
 1985 00d4 9847     		blx	r3
 1986              	.L101:
 1987              		.loc 1 721 0
 1988 00d6 019B     		ldr	r3, [sp, #4]
 1989 00d8 4FF00002 		mov	r2, #0
 1990 00dc 83F83420 		strb	r2, [r3, #52]
 1991              		.loc 1 722 0
 1992 00e0 1AE0     		b	.L95
 1993              	.L103:
 1994              		.loc 1 729 0
 1995 00e2 0198     		ldr	r0, [sp, #4]
 1996 00e4 4FF00001 		mov	r1, #0
 1997 00e8 FFF7FEFF 		bl	usb_lld_stall_in
 1998              		.loc 1 730 0
 1999 00ec 0198     		ldr	r0, [sp, #4]
 2000 00ee 4FF00001 		mov	r1, #0
 2001 00f2 FFF7FEFF 		bl	usb_lld_stall_out
 2002              		.loc 1 731 0
 2003 00f6 019B     		ldr	r3, [sp, #4]
 2004 00f8 5B68     		ldr	r3, [r3, #4]
 2005 00fa 1B68     		ldr	r3, [r3, #0]
 2006 00fc 002B     		cmp	r3, #0
 2007 00fe 06D0     		beq	.L102
 2008              		.loc 1 731 0 is_stmt 0 discriminator 1
 2009 0100 019B     		ldr	r3, [sp, #4]
 2010 0102 5B68     		ldr	r3, [r3, #4]
 2011 0104 1B68     		ldr	r3, [r3, #0]
 2012 0106 0198     		ldr	r0, [sp, #4]
 2013 0108 4FF00501 		mov	r1, #5
 2014 010c 9847     		blx	r3
 2015              	.L102:
 2016              		.loc 1 732 0 is_stmt 1
 2017 010e 019B     		ldr	r3, [sp, #4]
 2018 0110 4FF00602 		mov	r2, #6
 2019 0114 83F83420 		strb	r2, [r3, #52]
 2020              	.L95:
 2021              		.loc 1 733 0
 2022 0118 05B0     		add	sp, sp, #20
 2023 011a 00BD     		pop	{pc}
 2024              		.cfi_endproc
ARM GAS  /tmp/ccouNqwt.s 			page 37


 2025              	.LFE136:
 2026              		.size	_usb_ep0in, .-_usb_ep0in
 2027 011c AFF30080 		.section	.text._usb_ep0out,"ax",%progbits
 2028              		.align	2
 2029              		.p2align 4,,15
 2030              		.global	_usb_ep0out
 2031              		.thumb
 2032              		.thumb_func
 2033              		.type	_usb_ep0out, %function
 2034              	_usb_ep0out:
 2035              	.LFB137:
 2036              		.loc 1 745 0
 2037              		.cfi_startproc
 2038              		@ args = 0, pretend = 0, frame = 8
 2039              		@ frame_needed = 0, uses_anonymous_args = 0
 2040 0000 00B5     		push	{lr}
 2041              	.LCFI36:
 2042              		.cfi_def_cfa_offset 4
 2043              		.cfi_offset 14, -4
 2044 0002 83B0     		sub	sp, sp, #12
 2045              	.LCFI37:
 2046              		.cfi_def_cfa_offset 16
 2047 0004 0190     		str	r0, [sp, #4]
 2048 0006 0B46     		mov	r3, r1
 2049 0008 8DF80330 		strb	r3, [sp, #3]
 2050              		.loc 1 748 0
 2051 000c 019B     		ldr	r3, [sp, #4]
 2052 000e 93F83430 		ldrb	r3, [r3, #52]	@ zero_extendqisi2
 2053 0012 032B     		cmp	r3, #3
 2054 0014 1DD0     		beq	.L106
 2055 0016 042B     		cmp	r3, #4
 2056 0018 30D1     		bne	.L105
 2057              	.L107:
 2058              		.loc 1 751 0
 2059 001a 019B     		ldr	r3, [sp, #4]
 2060 001c 4FF00502 		mov	r2, #5
 2061 0020 83F83420 		strb	r2, [r3, #52]
 2062              		.loc 1 752 0
 2063 0024 0198     		ldr	r0, [sp, #4]
 2064 0026 4FF00001 		mov	r1, #0
 2065 002a 4FF00002 		mov	r2, #0
 2066 002e 4FF00003 		mov	r3, #0
 2067 0032 FFF7FEFF 		bl	usbPrepareTransmit
 2068              	.LBB18:
 2069              		.loc 1 753 0
 2070 0036 4FF02003 		mov	r3, #32
 2071              	@ 753 "../../os/hal/src/usb.c" 1
 2072 003a 83F31188 		msr     BASEPRI, r3
 2073              	@ 0 "" 2
 2074              		.thumb
 2075              	.LBE18:
 2076              		.loc 1 754 0
 2077 003e 0198     		ldr	r0, [sp, #4]
 2078 0040 4FF00001 		mov	r1, #0
 2079 0044 FFF7FEFF 		bl	usbStartTransmitI
 2080              	.LBB19:
 2081              		.loc 1 755 0
ARM GAS  /tmp/ccouNqwt.s 			page 38


 2082 0048 4FF00003 		mov	r3, #0
 2083              	@ 755 "../../os/hal/src/usb.c" 1
 2084 004c 83F31188 		msr     BASEPRI, r3
 2085              	@ 0 "" 2
 2086              		.thumb
 2087              	.LBE19:
 2088              		.loc 1 756 0
 2089 0050 2FE0     		b	.L104
 2090              	.L106:
 2091              		.loc 1 760 0
 2092 0052 019B     		ldr	r3, [sp, #4]
 2093 0054 DB68     		ldr	r3, [r3, #12]
 2094 0056 9B69     		ldr	r3, [r3, #24]
 2095 0058 9B68     		ldr	r3, [r3, #8]
 2096 005a 002B     		cmp	r3, #0
 2097 005c 0DD1     		bne	.L112
 2098              	.L109:
 2099              		.loc 1 762 0
 2100 005e 019B     		ldr	r3, [sp, #4]
 2101 0060 1B6C     		ldr	r3, [r3, #64]
 2102 0062 002B     		cmp	r3, #0
 2103 0064 03D0     		beq	.L110
 2104              		.loc 1 763 0
 2105 0066 019B     		ldr	r3, [sp, #4]
 2106 0068 1B6C     		ldr	r3, [r3, #64]
 2107 006a 0198     		ldr	r0, [sp, #4]
 2108 006c 9847     		blx	r3
 2109              	.L110:
 2110              		.loc 1 764 0
 2111 006e 019B     		ldr	r3, [sp, #4]
 2112 0070 4FF00002 		mov	r2, #0
 2113 0074 83F83420 		strb	r2, [r3, #52]
 2114              		.loc 1 765 0
 2115 0078 1BE0     		b	.L104
 2116              	.L112:
 2117              		.loc 1 761 0
 2118 007a 00BF     		nop
 2119              	.L105:
 2120              		.loc 1 772 0
 2121 007c 0198     		ldr	r0, [sp, #4]
 2122 007e 4FF00001 		mov	r1, #0
 2123 0082 FFF7FEFF 		bl	usb_lld_stall_in
 2124              		.loc 1 773 0
 2125 0086 0198     		ldr	r0, [sp, #4]
 2126 0088 4FF00001 		mov	r1, #0
 2127 008c FFF7FEFF 		bl	usb_lld_stall_out
 2128              		.loc 1 774 0
 2129 0090 019B     		ldr	r3, [sp, #4]
 2130 0092 5B68     		ldr	r3, [r3, #4]
 2131 0094 1B68     		ldr	r3, [r3, #0]
 2132 0096 002B     		cmp	r3, #0
 2133 0098 06D0     		beq	.L111
 2134              		.loc 1 774 0 is_stmt 0 discriminator 1
 2135 009a 019B     		ldr	r3, [sp, #4]
 2136 009c 5B68     		ldr	r3, [r3, #4]
 2137 009e 1B68     		ldr	r3, [r3, #0]
 2138 00a0 0198     		ldr	r0, [sp, #4]
ARM GAS  /tmp/ccouNqwt.s 			page 39


 2139 00a2 4FF00501 		mov	r1, #5
 2140 00a6 9847     		blx	r3
 2141              	.L111:
 2142              		.loc 1 775 0 is_stmt 1
 2143 00a8 019B     		ldr	r3, [sp, #4]
 2144 00aa 4FF00602 		mov	r2, #6
 2145 00ae 83F83420 		strb	r2, [r3, #52]
 2146              	.L104:
 2147              		.loc 1 776 0
 2148 00b2 03B0     		add	sp, sp, #12
 2149 00b4 00BD     		pop	{pc}
 2150              		.cfi_endproc
 2151              	.LFE137:
 2152              		.size	_usb_ep0out, .-_usb_ep0out
 2153 00b6 00BFAFF3 		.text
 2153      0080AFF3 
 2153      0080
 2154              	.Letext0:
 2155              		.file 2 "/usr/bin/../lib/gcc/arm-none-eabi/4.7.4/include/stddef.h"
 2156              		.file 3 "/usr/bin/../lib/gcc/arm-none-eabi/4.7.4/../../../../arm-none-eabi/include/stdint.h"
 2157              		.file 4 "../../os/ports/GCC/ARMCMx/chtypes.h"
 2158              		.file 5 "../../os/kernel/include/chlists.h"
 2159              		.file 6 "../../os/kernel/include/chthreads.h"
 2160              		.file 7 "../../os/ports/GCC/ARMCMx/chcore_v7m.h"
 2161              		.file 8 "../../os/kernel/include/chmtx.h"
 2162              		.file 9 "../../os/kernel/include/chqueues.h"
 2163              		.file 10 "../../os/hal/include/usb.h"
 2164              		.file 11 "../../os/hal/platforms/STM32/OTGv1/usb_lld.h"
 2165              		.file 12 "../../os/hal/platforms/STM32/OTGv1/stm32_otg.h"
 2166              		.file 13 "../../os/ports/common/ARMCMx/CMSIS/include/core_cm4.h"
 2167              		.section	.debug_info,"",%progbits
 2168              	.Ldebug_info0:
 2169 0000 55180000 		.4byte	0x1855
 2170 0004 0200     		.2byte	0x2
 2171 0006 00000000 		.4byte	.Ldebug_abbrev0
 2172 000a 04       		.byte	0x4
 2173 000b 01       		.uleb128 0x1
 2174 000c 79000000 		.4byte	.LASF259
 2175 0010 01       		.byte	0x1
 2176 0011 DE090000 		.4byte	.LASF260
 2177 0015 3F030000 		.4byte	.LASF261
 2178 0019 00000000 		.4byte	.Ldebug_ranges0+0
 2179 001d 00000000 		.4byte	0
 2180 0021 00000000 		.4byte	0
 2181 0025 00000000 		.4byte	.Ldebug_line0
 2182 0029 02       		.uleb128 0x2
 2183 002a 01       		.byte	0x1
 2184 002b 06       		.byte	0x6
 2185 002c 15020000 		.4byte	.LASF0
 2186 0030 02       		.uleb128 0x2
 2187 0031 01       		.byte	0x1
 2188 0032 08       		.byte	0x8
 2189 0033 84020000 		.4byte	.LASF1
 2190 0037 02       		.uleb128 0x2
 2191 0038 02       		.byte	0x2
 2192 0039 05       		.byte	0x5
 2193 003a 11090000 		.4byte	.LASF2
ARM GAS  /tmp/ccouNqwt.s 			page 40


 2194 003e 02       		.uleb128 0x2
 2195 003f 02       		.byte	0x2
 2196 0040 07       		.byte	0x7
 2197 0041 550A0000 		.4byte	.LASF3
 2198 0045 03       		.uleb128 0x3
 2199 0046 04       		.byte	0x4
 2200 0047 05       		.byte	0x5
 2201 0048 696E7400 		.ascii	"int\000"
 2202 004c 02       		.uleb128 0x2
 2203 004d 04       		.byte	0x4
 2204 004e 07       		.byte	0x7
 2205 004f AD060000 		.4byte	.LASF4
 2206 0053 02       		.uleb128 0x2
 2207 0054 08       		.byte	0x8
 2208 0055 05       		.byte	0x5
 2209 0056 19060000 		.4byte	.LASF5
 2210 005a 02       		.uleb128 0x2
 2211 005b 08       		.byte	0x8
 2212 005c 07       		.byte	0x7
 2213 005d A8070000 		.4byte	.LASF6
 2214 0061 02       		.uleb128 0x2
 2215 0062 04       		.byte	0x4
 2216 0063 05       		.byte	0x5
 2217 0064 71010000 		.4byte	.LASF7
 2218 0068 02       		.uleb128 0x2
 2219 0069 04       		.byte	0x4
 2220 006a 07       		.byte	0x7
 2221 006b 07000000 		.4byte	.LASF8
 2222 006f 04       		.uleb128 0x4
 2223 0070 04       		.byte	0x4
 2224 0071 02       		.uleb128 0x2
 2225 0072 04       		.byte	0x4
 2226 0073 07       		.byte	0x7
 2227 0074 19050000 		.4byte	.LASF9
 2228 0078 02       		.uleb128 0x2
 2229 0079 01       		.byte	0x1
 2230 007a 08       		.byte	0x8
 2231 007b FA020000 		.4byte	.LASF10
 2232 007f 05       		.uleb128 0x5
 2233 0080 04       		.byte	0x4
 2234 0081 85000000 		.4byte	0x85
 2235 0085 06       		.uleb128 0x6
 2236 0086 78000000 		.4byte	0x78
 2237 008a 07       		.uleb128 0x7
 2238 008b 00000000 		.4byte	.LASF11
 2239 008f 02       		.byte	0x2
 2240 0090 D5       		.byte	0xd5
 2241 0091 4C000000 		.4byte	0x4c
 2242 0095 07       		.uleb128 0x7
 2243 0096 2B020000 		.4byte	.LASF12
 2244 009a 03       		.byte	0x3
 2245 009b 2A       		.byte	0x2a
 2246 009c 30000000 		.4byte	0x30
 2247 00a0 07       		.uleb128 0x7
 2248 00a1 D0070000 		.4byte	.LASF13
 2249 00a5 03       		.byte	0x3
 2250 00a6 36       		.byte	0x36
ARM GAS  /tmp/ccouNqwt.s 			page 41


 2251 00a7 3E000000 		.4byte	0x3e
 2252 00ab 07       		.uleb128 0x7
 2253 00ac 40000000 		.4byte	.LASF14
 2254 00b0 03       		.byte	0x3
 2255 00b1 4F       		.byte	0x4f
 2256 00b2 61000000 		.4byte	0x61
 2257 00b6 07       		.uleb128 0x7
 2258 00b7 1E0A0000 		.4byte	.LASF15
 2259 00bb 03       		.byte	0x3
 2260 00bc 50       		.byte	0x50
 2261 00bd 71000000 		.4byte	0x71
 2262 00c1 07       		.uleb128 0x7
 2263 00c2 1B090000 		.4byte	.LASF16
 2264 00c6 03       		.byte	0x3
 2265 00c7 78       		.byte	0x78
 2266 00c8 5A000000 		.4byte	0x5a
 2267 00cc 07       		.uleb128 0x7
 2268 00cd 69090000 		.4byte	.LASF17
 2269 00d1 04       		.byte	0x4
 2270 00d2 24       		.byte	0x24
 2271 00d3 D7000000 		.4byte	0xd7
 2272 00d7 02       		.uleb128 0x2
 2273 00d8 01       		.byte	0x1
 2274 00d9 02       		.byte	0x2
 2275 00da D5020000 		.4byte	.LASF18
 2276 00de 07       		.uleb128 0x7
 2277 00df C0080000 		.4byte	.LASF19
 2278 00e3 04       		.byte	0x4
 2279 00e4 25       		.byte	0x25
 2280 00e5 95000000 		.4byte	0x95
 2281 00e9 07       		.uleb128 0x7
 2282 00ea 96010000 		.4byte	.LASF20
 2283 00ee 04       		.byte	0x4
 2284 00ef 26       		.byte	0x26
 2285 00f0 95000000 		.4byte	0x95
 2286 00f4 07       		.uleb128 0x7
 2287 00f5 D6090000 		.4byte	.LASF21
 2288 00f9 04       		.byte	0x4
 2289 00fa 27       		.byte	0x27
 2290 00fb 95000000 		.4byte	0x95
 2291 00ff 07       		.uleb128 0x7
 2292 0100 15080000 		.4byte	.LASF22
 2293 0104 04       		.byte	0x4
 2294 0105 28       		.byte	0x28
 2295 0106 95000000 		.4byte	0x95
 2296 010a 07       		.uleb128 0x7
 2297 010b 20000000 		.4byte	.LASF23
 2298 010f 04       		.byte	0x4
 2299 0110 29       		.byte	0x29
 2300 0111 B6000000 		.4byte	0xb6
 2301 0115 07       		.uleb128 0x7
 2302 0116 E6070000 		.4byte	.LASF24
 2303 011a 04       		.byte	0x4
 2304 011b 2A       		.byte	0x2a
 2305 011c AB000000 		.4byte	0xab
 2306 0120 07       		.uleb128 0x7
 2307 0121 5E020000 		.4byte	.LASF25
ARM GAS  /tmp/ccouNqwt.s 			page 42


 2308 0125 04       		.byte	0x4
 2309 0126 2C       		.byte	0x2c
 2310 0127 B6000000 		.4byte	0xb6
 2311 012b 07       		.uleb128 0x7
 2312 012c 10000000 		.4byte	.LASF26
 2313 0130 04       		.byte	0x4
 2314 0131 2E       		.byte	0x2e
 2315 0132 B6000000 		.4byte	0xb6
 2316 0136 07       		.uleb128 0x7
 2317 0137 B6090000 		.4byte	.LASF27
 2318 013b 05       		.byte	0x5
 2319 013c 23       		.byte	0x23
 2320 013d 41010000 		.4byte	0x141
 2321 0141 08       		.uleb128 0x8
 2322 0142 B6090000 		.4byte	.LASF27
 2323 0146 48       		.byte	0x48
 2324 0147 06       		.byte	0x6
 2325 0148 57       		.byte	0x57
 2326 0149 66020000 		.4byte	0x266
 2327 014d 09       		.uleb128 0x9
 2328 014e 7A010000 		.4byte	.LASF28
 2329 0152 06       		.byte	0x6
 2330 0153 58       		.byte	0x58
 2331 0154 8B020000 		.4byte	0x28b
 2332 0158 02       		.byte	0x2
 2333 0159 23       		.byte	0x23
 2334 015a 00       		.uleb128 0
 2335 015b 09       		.uleb128 0x9
 2336 015c 8F010000 		.4byte	.LASF29
 2337 0160 06       		.byte	0x6
 2338 0161 5A       		.byte	0x5a
 2339 0162 8B020000 		.4byte	0x28b
 2340 0166 02       		.byte	0x2
 2341 0167 23       		.byte	0x23
 2342 0168 04       		.uleb128 0x4
 2343 0169 09       		.uleb128 0x9
 2344 016a 1A030000 		.4byte	.LASF30
 2345 016e 06       		.byte	0x6
 2346 016f 5C       		.byte	0x5c
 2347 0170 0A010000 		.4byte	0x10a
 2348 0174 02       		.byte	0x2
 2349 0175 23       		.byte	0x23
 2350 0176 08       		.uleb128 0x8
 2351 0177 09       		.uleb128 0x9
 2352 0178 1A000000 		.4byte	.LASF31
 2353 017c 06       		.byte	0x6
 2354 017d 5D       		.byte	0x5d
 2355 017e 62030000 		.4byte	0x362
 2356 0182 02       		.byte	0x2
 2357 0183 23       		.byte	0x23
 2358 0184 0C       		.uleb128 0xc
 2359 0185 09       		.uleb128 0x9
 2360 0186 69010000 		.4byte	.LASF32
 2361 018a 06       		.byte	0x6
 2362 018b 5F       		.byte	0x5f
 2363 018c 8B020000 		.4byte	0x28b
 2364 0190 02       		.byte	0x2
ARM GAS  /tmp/ccouNqwt.s 			page 43


 2365 0191 23       		.byte	0x23
 2366 0192 10       		.uleb128 0x10
 2367 0193 09       		.uleb128 0x9
 2368 0194 C8070000 		.4byte	.LASF33
 2369 0198 06       		.byte	0x6
 2370 0199 60       		.byte	0x60
 2371 019a 8B020000 		.4byte	0x28b
 2372 019e 02       		.byte	0x2
 2373 019f 23       		.byte	0x23
 2374 01a0 14       		.uleb128 0x14
 2375 01a1 09       		.uleb128 0x9
 2376 01a2 F50A0000 		.4byte	.LASF34
 2377 01a6 06       		.byte	0x6
 2378 01a7 67       		.byte	0x67
 2379 01a8 7F000000 		.4byte	0x7f
 2380 01ac 02       		.byte	0x2
 2381 01ad 23       		.byte	0x23
 2382 01ae 18       		.uleb128 0x18
 2383 01af 09       		.uleb128 0x9
 2384 01b0 350B0000 		.4byte	.LASF35
 2385 01b4 06       		.byte	0x6
 2386 01b5 72       		.byte	0x72
 2387 01b6 E9000000 		.4byte	0xe9
 2388 01ba 02       		.byte	0x2
 2389 01bb 23       		.byte	0x23
 2390 01bc 1C       		.uleb128 0x1c
 2391 01bd 09       		.uleb128 0x9
 2392 01be 96060000 		.4byte	.LASF36
 2393 01c2 06       		.byte	0x6
 2394 01c3 76       		.byte	0x76
 2395 01c4 DE000000 		.4byte	0xde
 2396 01c8 02       		.byte	0x2
 2397 01c9 23       		.byte	0x23
 2398 01ca 1D       		.uleb128 0x1d
 2399 01cb 09       		.uleb128 0x9
 2400 01cc E2060000 		.4byte	.LASF37
 2401 01d0 06       		.byte	0x6
 2402 01d1 7B       		.byte	0x7b
 2403 01d2 F4000000 		.4byte	0xf4
 2404 01d6 02       		.byte	0x2
 2405 01d7 23       		.byte	0x23
 2406 01d8 1E       		.uleb128 0x1e
 2407 01d9 09       		.uleb128 0x9
 2408 01da 21020000 		.4byte	.LASF38
 2409 01de 06       		.byte	0x6
 2410 01df 81       		.byte	0x81
 2411 01e0 FF000000 		.4byte	0xff
 2412 01e4 02       		.byte	0x2
 2413 01e5 23       		.byte	0x23
 2414 01e6 1F       		.uleb128 0x1f
 2415 01e7 09       		.uleb128 0x9
 2416 01e8 3E070000 		.4byte	.LASF39
 2417 01ec 06       		.byte	0x6
 2418 01ed 88       		.byte	0x88
 2419 01ee 8A030000 		.4byte	0x38a
 2420 01f2 02       		.byte	0x2
 2421 01f3 23       		.byte	0x23
ARM GAS  /tmp/ccouNqwt.s 			page 44


 2422 01f4 20       		.uleb128 0x20
 2423 01f5 0A       		.uleb128 0xa
 2424 01f6 705F7500 		.ascii	"p_u\000"
 2425 01fa 06       		.byte	0x6
 2426 01fb AD       		.byte	0xad
 2427 01fc D7030000 		.4byte	0x3d7
 2428 0200 02       		.byte	0x2
 2429 0201 23       		.byte	0x23
 2430 0202 24       		.uleb128 0x24
 2431 0203 09       		.uleb128 0x9
 2432 0204 8C060000 		.4byte	.LASF40
 2433 0208 06       		.byte	0x6
 2434 0209 B2       		.byte	0xb2
 2435 020a B3020000 		.4byte	0x2b3
 2436 020e 02       		.byte	0x2
 2437 020f 23       		.byte	0x23
 2438 0210 28       		.uleb128 0x28
 2439 0211 09       		.uleb128 0x9
 2440 0212 28000000 		.4byte	.LASF41
 2441 0216 06       		.byte	0x6
 2442 0217 B8       		.byte	0xb8
 2443 0218 91020000 		.4byte	0x291
 2444 021c 02       		.byte	0x2
 2445 021d 23       		.byte	0x23
 2446 021e 2C       		.uleb128 0x2c
 2447 021f 09       		.uleb128 0x9
 2448 0220 2F0B0000 		.4byte	.LASF42
 2449 0224 06       		.byte	0x6
 2450 0225 BC       		.byte	0xbc
 2451 0226 15010000 		.4byte	0x115
 2452 022a 02       		.byte	0x2
 2453 022b 23       		.byte	0x23
 2454 022c 34       		.uleb128 0x34
 2455 022d 09       		.uleb128 0x9
 2456 022e 88040000 		.4byte	.LASF43
 2457 0232 06       		.byte	0x6
 2458 0233 C2       		.byte	0xc2
 2459 0234 20010000 		.4byte	0x120
 2460 0238 02       		.byte	0x2
 2461 0239 23       		.byte	0x23
 2462 023a 38       		.uleb128 0x38
 2463 023b 09       		.uleb128 0x9
 2464 023c AB010000 		.4byte	.LASF44
 2465 0240 06       		.byte	0x6
 2466 0241 C9       		.byte	0xc9
 2467 0242 0C040000 		.4byte	0x40c
 2468 0246 02       		.byte	0x2
 2469 0247 23       		.byte	0x23
 2470 0248 3C       		.uleb128 0x3c
 2471 0249 09       		.uleb128 0x9
 2472 024a 4F070000 		.4byte	.LASF45
 2473 024e 06       		.byte	0x6
 2474 024f CD       		.byte	0xcd
 2475 0250 0A010000 		.4byte	0x10a
 2476 0254 02       		.byte	0x2
 2477 0255 23       		.byte	0x23
 2478 0256 40       		.uleb128 0x40
ARM GAS  /tmp/ccouNqwt.s 			page 45


 2479 0257 09       		.uleb128 0x9
 2480 0258 CE060000 		.4byte	.LASF46
 2481 025c 06       		.byte	0x6
 2482 025d D3       		.byte	0xd3
 2483 025e 6F000000 		.4byte	0x6f
 2484 0262 02       		.byte	0x2
 2485 0263 23       		.byte	0x23
 2486 0264 44       		.uleb128 0x44
 2487 0265 00       		.byte	0
 2488 0266 0B       		.uleb128 0xb
 2489 0267 08       		.byte	0x8
 2490 0268 05       		.byte	0x5
 2491 0269 5A       		.byte	0x5a
 2492 026a 8B020000 		.4byte	0x28b
 2493 026e 09       		.uleb128 0x9
 2494 026f 7A010000 		.4byte	.LASF28
 2495 0273 05       		.byte	0x5
 2496 0274 5B       		.byte	0x5b
 2497 0275 8B020000 		.4byte	0x28b
 2498 0279 02       		.byte	0x2
 2499 027a 23       		.byte	0x23
 2500 027b 00       		.uleb128 0
 2501 027c 09       		.uleb128 0x9
 2502 027d 8F010000 		.4byte	.LASF29
 2503 0281 05       		.byte	0x5
 2504 0282 5D       		.byte	0x5d
 2505 0283 8B020000 		.4byte	0x28b
 2506 0287 02       		.byte	0x2
 2507 0288 23       		.byte	0x23
 2508 0289 04       		.uleb128 0x4
 2509 028a 00       		.byte	0
 2510 028b 05       		.uleb128 0x5
 2511 028c 04       		.byte	0x4
 2512 028d 36010000 		.4byte	0x136
 2513 0291 07       		.uleb128 0x7
 2514 0292 2F0A0000 		.4byte	.LASF47
 2515 0296 05       		.byte	0x5
 2516 0297 5F       		.byte	0x5f
 2517 0298 66020000 		.4byte	0x266
 2518 029c 0B       		.uleb128 0xb
 2519 029d 04       		.byte	0x4
 2520 029e 05       		.byte	0x5
 2521 029f 64       		.byte	0x64
 2522 02a0 B3020000 		.4byte	0x2b3
 2523 02a4 09       		.uleb128 0x9
 2524 02a5 7A010000 		.4byte	.LASF28
 2525 02a9 05       		.byte	0x5
 2526 02aa 66       		.byte	0x66
 2527 02ab 8B020000 		.4byte	0x28b
 2528 02af 02       		.byte	0x2
 2529 02b0 23       		.byte	0x23
 2530 02b1 00       		.uleb128 0
 2531 02b2 00       		.byte	0
 2532 02b3 07       		.uleb128 0x7
 2533 02b4 F3060000 		.4byte	.LASF48
 2534 02b8 05       		.byte	0x5
 2535 02b9 69       		.byte	0x69
ARM GAS  /tmp/ccouNqwt.s 			page 46


 2536 02ba 9C020000 		.4byte	0x29c
 2537 02be 07       		.uleb128 0x7
 2538 02bf C4010000 		.4byte	.LASF49
 2539 02c3 07       		.byte	0x7
 2540 02c4 DE       		.byte	0xde
 2541 02c5 6F000000 		.4byte	0x6f
 2542 02c9 07       		.uleb128 0x7
 2543 02ca 98030000 		.4byte	.LASF50
 2544 02ce 07       		.byte	0x7
 2545 02cf E4       		.byte	0xe4
 2546 02d0 C1000000 		.4byte	0xc1
 2547 02d4 0C       		.uleb128 0xc
 2548 02d5 81040000 		.4byte	.LASF51
 2549 02d9 24       		.byte	0x24
 2550 02da 07       		.byte	0x7
 2551 02db 0501     		.2byte	0x105
 2552 02dd 62030000 		.4byte	0x362
 2553 02e1 0D       		.uleb128 0xd
 2554 02e2 723400   		.ascii	"r4\000"
 2555 02e5 07       		.byte	0x7
 2556 02e6 1801     		.2byte	0x118
 2557 02e8 BE020000 		.4byte	0x2be
 2558 02ec 02       		.byte	0x2
 2559 02ed 23       		.byte	0x23
 2560 02ee 00       		.uleb128 0
 2561 02ef 0D       		.uleb128 0xd
 2562 02f0 723500   		.ascii	"r5\000"
 2563 02f3 07       		.byte	0x7
 2564 02f4 1901     		.2byte	0x119
 2565 02f6 BE020000 		.4byte	0x2be
 2566 02fa 02       		.byte	0x2
 2567 02fb 23       		.byte	0x23
 2568 02fc 04       		.uleb128 0x4
 2569 02fd 0D       		.uleb128 0xd
 2570 02fe 723600   		.ascii	"r6\000"
 2571 0301 07       		.byte	0x7
 2572 0302 1A01     		.2byte	0x11a
 2573 0304 BE020000 		.4byte	0x2be
 2574 0308 02       		.byte	0x2
 2575 0309 23       		.byte	0x23
 2576 030a 08       		.uleb128 0x8
 2577 030b 0D       		.uleb128 0xd
 2578 030c 723700   		.ascii	"r7\000"
 2579 030f 07       		.byte	0x7
 2580 0310 1B01     		.2byte	0x11b
 2581 0312 BE020000 		.4byte	0x2be
 2582 0316 02       		.byte	0x2
 2583 0317 23       		.byte	0x23
 2584 0318 0C       		.uleb128 0xc
 2585 0319 0D       		.uleb128 0xd
 2586 031a 723800   		.ascii	"r8\000"
 2587 031d 07       		.byte	0x7
 2588 031e 1C01     		.2byte	0x11c
 2589 0320 BE020000 		.4byte	0x2be
 2590 0324 02       		.byte	0x2
 2591 0325 23       		.byte	0x23
 2592 0326 10       		.uleb128 0x10
ARM GAS  /tmp/ccouNqwt.s 			page 47


 2593 0327 0D       		.uleb128 0xd
 2594 0328 723900   		.ascii	"r9\000"
 2595 032b 07       		.byte	0x7
 2596 032c 1D01     		.2byte	0x11d
 2597 032e BE020000 		.4byte	0x2be
 2598 0332 02       		.byte	0x2
 2599 0333 23       		.byte	0x23
 2600 0334 14       		.uleb128 0x14
 2601 0335 0D       		.uleb128 0xd
 2602 0336 72313000 		.ascii	"r10\000"
 2603 033a 07       		.byte	0x7
 2604 033b 1E01     		.2byte	0x11e
 2605 033d BE020000 		.4byte	0x2be
 2606 0341 02       		.byte	0x2
 2607 0342 23       		.byte	0x23
 2608 0343 18       		.uleb128 0x18
 2609 0344 0D       		.uleb128 0xd
 2610 0345 72313100 		.ascii	"r11\000"
 2611 0349 07       		.byte	0x7
 2612 034a 1F01     		.2byte	0x11f
 2613 034c BE020000 		.4byte	0x2be
 2614 0350 02       		.byte	0x2
 2615 0351 23       		.byte	0x23
 2616 0352 1C       		.uleb128 0x1c
 2617 0353 0D       		.uleb128 0xd
 2618 0354 6C7200   		.ascii	"lr\000"
 2619 0357 07       		.byte	0x7
 2620 0358 2001     		.2byte	0x120
 2621 035a BE020000 		.4byte	0x2be
 2622 035e 02       		.byte	0x2
 2623 035f 23       		.byte	0x23
 2624 0360 20       		.uleb128 0x20
 2625 0361 00       		.byte	0
 2626 0362 0C       		.uleb128 0xc
 2627 0363 6A020000 		.4byte	.LASF52
 2628 0367 04       		.byte	0x4
 2629 0368 07       		.byte	0x7
 2630 0369 2A01     		.2byte	0x12a
 2631 036b 7F030000 		.4byte	0x37f
 2632 036f 0D       		.uleb128 0xd
 2633 0370 72313300 		.ascii	"r13\000"
 2634 0374 07       		.byte	0x7
 2635 0375 2B01     		.2byte	0x12b
 2636 0377 7F030000 		.4byte	0x37f
 2637 037b 02       		.byte	0x2
 2638 037c 23       		.byte	0x23
 2639 037d 00       		.uleb128 0
 2640 037e 00       		.byte	0
 2641 037f 05       		.uleb128 0x5
 2642 0380 04       		.byte	0x4
 2643 0381 D4020000 		.4byte	0x2d4
 2644 0385 0E       		.uleb128 0xe
 2645 0386 B6000000 		.4byte	0xb6
 2646 038a 0E       		.uleb128 0xe
 2647 038b 2B010000 		.4byte	0x12b
 2648 038f 08       		.uleb128 0x8
 2649 0390 13060000 		.4byte	.LASF53
ARM GAS  /tmp/ccouNqwt.s 			page 48


 2650 0394 10       		.byte	0x10
 2651 0395 08       		.byte	0x8
 2652 0396 25       		.byte	0x25
 2653 0397 C6030000 		.4byte	0x3c6
 2654 039b 09       		.uleb128 0x9
 2655 039c 31060000 		.4byte	.LASF54
 2656 03a0 08       		.byte	0x8
 2657 03a1 26       		.byte	0x26
 2658 03a2 91020000 		.4byte	0x291
 2659 03a6 02       		.byte	0x2
 2660 03a7 23       		.byte	0x23
 2661 03a8 00       		.uleb128 0
 2662 03a9 09       		.uleb128 0x9
 2663 03aa 10010000 		.4byte	.LASF55
 2664 03ae 08       		.byte	0x8
 2665 03af 28       		.byte	0x28
 2666 03b0 8B020000 		.4byte	0x28b
 2667 03b4 02       		.byte	0x2
 2668 03b5 23       		.byte	0x23
 2669 03b6 08       		.uleb128 0x8
 2670 03b7 09       		.uleb128 0x9
 2671 03b8 FC0A0000 		.4byte	.LASF56
 2672 03bc 08       		.byte	0x8
 2673 03bd 2A       		.byte	0x2a
 2674 03be C6030000 		.4byte	0x3c6
 2675 03c2 02       		.byte	0x2
 2676 03c3 23       		.byte	0x23
 2677 03c4 0C       		.uleb128 0xc
 2678 03c5 00       		.byte	0
 2679 03c6 05       		.uleb128 0x5
 2680 03c7 04       		.byte	0x4
 2681 03c8 8F030000 		.4byte	0x38f
 2682 03cc 07       		.uleb128 0x7
 2683 03cd 13060000 		.4byte	.LASF53
 2684 03d1 08       		.byte	0x8
 2685 03d2 2C       		.byte	0x2c
 2686 03d3 8F030000 		.4byte	0x38f
 2687 03d7 0F       		.uleb128 0xf
 2688 03d8 04       		.byte	0x4
 2689 03d9 06       		.byte	0x6
 2690 03da 8F       		.byte	0x8f
 2691 03db 0C040000 		.4byte	0x40c
 2692 03df 10       		.uleb128 0x10
 2693 03e0 4E0A0000 		.4byte	.LASF57
 2694 03e4 06       		.byte	0x6
 2695 03e5 96       		.byte	0x96
 2696 03e6 15010000 		.4byte	0x115
 2697 03ea 10       		.uleb128 0x10
 2698 03eb 18010000 		.4byte	.LASF58
 2699 03ef 06       		.byte	0x6
 2700 03f0 9D       		.byte	0x9d
 2701 03f1 15010000 		.4byte	0x115
 2702 03f5 10       		.uleb128 0x10
 2703 03f6 38030000 		.4byte	.LASF59
 2704 03fa 06       		.byte	0x6
 2705 03fb A4       		.byte	0xa4
 2706 03fc 6F000000 		.4byte	0x6f
ARM GAS  /tmp/ccouNqwt.s 			page 49


 2707 0400 10       		.uleb128 0x10
 2708 0401 35010000 		.4byte	.LASF60
 2709 0405 06       		.byte	0x6
 2710 0406 AB       		.byte	0xab
 2711 0407 20010000 		.4byte	0x120
 2712 040b 00       		.byte	0
 2713 040c 05       		.uleb128 0x5
 2714 040d 04       		.byte	0x4
 2715 040e CC030000 		.4byte	0x3cc
 2716 0412 07       		.uleb128 0x7
 2717 0413 2B030000 		.4byte	.LASF61
 2718 0417 09       		.byte	0x9
 2719 0418 30       		.byte	0x30
 2720 0419 1D040000 		.4byte	0x41d
 2721 041d 08       		.uleb128 0x8
 2722 041e 2B030000 		.4byte	.LASF61
 2723 0422 24       		.byte	0x24
 2724 0423 09       		.byte	0x9
 2725 0424 3E       		.byte	0x3e
 2726 0425 9A040000 		.4byte	0x49a
 2727 0429 09       		.uleb128 0x9
 2728 042a B6080000 		.4byte	.LASF62
 2729 042e 09       		.byte	0x9
 2730 042f 3F       		.byte	0x3f
 2731 0430 91020000 		.4byte	0x291
 2732 0434 02       		.byte	0x2
 2733 0435 23       		.byte	0x23
 2734 0436 00       		.uleb128 0
 2735 0437 09       		.uleb128 0x9
 2736 0438 EC040000 		.4byte	.LASF63
 2737 043c 09       		.byte	0x9
 2738 043d 40       		.byte	0x40
 2739 043e 8A000000 		.4byte	0x8a
 2740 0442 02       		.byte	0x2
 2741 0443 23       		.byte	0x23
 2742 0444 08       		.uleb128 0x8
 2743 0445 09       		.uleb128 0x9
 2744 0446 3C010000 		.4byte	.LASF64
 2745 044a 09       		.byte	0x9
 2746 044b 41       		.byte	0x41
 2747 044c BD040000 		.4byte	0x4bd
 2748 0450 02       		.byte	0x2
 2749 0451 23       		.byte	0x23
 2750 0452 0C       		.uleb128 0xc
 2751 0453 09       		.uleb128 0x9
 2752 0454 2F010000 		.4byte	.LASF65
 2753 0458 09       		.byte	0x9
 2754 0459 42       		.byte	0x42
 2755 045a BD040000 		.4byte	0x4bd
 2756 045e 02       		.byte	0x2
 2757 045f 23       		.byte	0x23
 2758 0460 10       		.uleb128 0x10
 2759 0461 09       		.uleb128 0x9
 2760 0462 8B050000 		.4byte	.LASF66
 2761 0466 09       		.byte	0x9
 2762 0467 44       		.byte	0x44
 2763 0468 BD040000 		.4byte	0x4bd
ARM GAS  /tmp/ccouNqwt.s 			page 50


 2764 046c 02       		.byte	0x2
 2765 046d 23       		.byte	0x23
 2766 046e 14       		.uleb128 0x14
 2767 046f 09       		.uleb128 0x9
 2768 0470 81010000 		.4byte	.LASF67
 2769 0474 09       		.byte	0x9
 2770 0475 45       		.byte	0x45
 2771 0476 BD040000 		.4byte	0x4bd
 2772 047a 02       		.byte	0x2
 2773 047b 23       		.byte	0x23
 2774 047c 18       		.uleb128 0x18
 2775 047d 09       		.uleb128 0x9
 2776 047e 60010000 		.4byte	.LASF68
 2777 0482 09       		.byte	0x9
 2778 0483 46       		.byte	0x46
 2779 0484 9A040000 		.4byte	0x49a
 2780 0488 02       		.byte	0x2
 2781 0489 23       		.byte	0x23
 2782 048a 1C       		.uleb128 0x1c
 2783 048b 09       		.uleb128 0x9
 2784 048c A0020000 		.4byte	.LASF69
 2785 0490 09       		.byte	0x9
 2786 0491 47       		.byte	0x47
 2787 0492 6F000000 		.4byte	0x6f
 2788 0496 02       		.byte	0x2
 2789 0497 23       		.byte	0x23
 2790 0498 20       		.uleb128 0x20
 2791 0499 00       		.byte	0
 2792 049a 07       		.uleb128 0x7
 2793 049b 82060000 		.4byte	.LASF70
 2794 049f 09       		.byte	0x9
 2795 04a0 33       		.byte	0x33
 2796 04a1 A5040000 		.4byte	0x4a5
 2797 04a5 05       		.uleb128 0x5
 2798 04a6 04       		.byte	0x4
 2799 04a7 AB040000 		.4byte	0x4ab
 2800 04ab 11       		.uleb128 0x11
 2801 04ac 01       		.byte	0x1
 2802 04ad B7040000 		.4byte	0x4b7
 2803 04b1 12       		.uleb128 0x12
 2804 04b2 B7040000 		.4byte	0x4b7
 2805 04b6 00       		.byte	0
 2806 04b7 05       		.uleb128 0x5
 2807 04b8 04       		.byte	0x4
 2808 04b9 12040000 		.4byte	0x412
 2809 04bd 05       		.uleb128 0x5
 2810 04be 04       		.byte	0x4
 2811 04bf 95000000 		.4byte	0x95
 2812 04c3 07       		.uleb128 0x7
 2813 04c4 7F0A0000 		.4byte	.LASF71
 2814 04c8 09       		.byte	0x9
 2815 04c9 7B       		.byte	0x7b
 2816 04ca 12040000 		.4byte	0x412
 2817 04ce 07       		.uleb128 0x7
 2818 04cf A3030000 		.4byte	.LASF72
 2819 04d3 09       		.byte	0x9
 2820 04d4 EE       		.byte	0xee
ARM GAS  /tmp/ccouNqwt.s 			page 51


 2821 04d5 12040000 		.4byte	0x412
 2822 04d9 05       		.uleb128 0x5
 2823 04da 04       		.byte	0x4
 2824 04db DF040000 		.4byte	0x4df
 2825 04df 06       		.uleb128 0x6
 2826 04e0 95000000 		.4byte	0x95
 2827 04e4 13       		.uleb128 0x13
 2828 04e5 B6000000 		.4byte	0xb6
 2829 04e9 F4040000 		.4byte	0x4f4
 2830 04ed 14       		.uleb128 0x14
 2831 04ee 68000000 		.4byte	0x68
 2832 04f2 0E       		.byte	0xe
 2833 04f3 00       		.byte	0
 2834 04f4 0E       		.uleb128 0xe
 2835 04f5 AB000000 		.4byte	0xab
 2836 04f9 07       		.uleb128 0x7
 2837 04fa 0F070000 		.4byte	.LASF73
 2838 04fe 0A       		.byte	0xa
 2839 04ff DC       		.byte	0xdc
 2840 0500 04050000 		.4byte	0x504
 2841 0504 15       		.uleb128 0x15
 2842 0505 0F070000 		.4byte	.LASF73
 2843 0509 9801     		.2byte	0x198
 2844 050b 0B       		.byte	0xb
 2845 050c 6501     		.2byte	0x165
 2846 050e 5D060000 		.4byte	0x65d
 2847 0512 16       		.uleb128 0x16
 2848 0513 D2000000 		.4byte	.LASF74
 2849 0517 0B       		.byte	0xb
 2850 0518 6901     		.2byte	0x169
 2851 051a 8F060000 		.4byte	0x68f
 2852 051e 02       		.byte	0x2
 2853 051f 23       		.byte	0x23
 2854 0520 00       		.uleb128 0
 2855 0521 16       		.uleb128 0x16
 2856 0522 CB000000 		.4byte	.LASF75
 2857 0526 0B       		.byte	0xb
 2858 0527 6D01     		.2byte	0x16d
 2859 0529 8A100000 		.4byte	0x108a
 2860 052d 02       		.byte	0x2
 2861 052e 23       		.byte	0x23
 2862 052f 04       		.uleb128 0x4
 2863 0530 16       		.uleb128 0x16
 2864 0531 EC030000 		.4byte	.LASF76
 2865 0535 0B       		.byte	0xb
 2866 0536 7101     		.2byte	0x171
 2867 0538 A0000000 		.4byte	0xa0
 2868 053c 02       		.byte	0x2
 2869 053d 23       		.byte	0x23
 2870 053e 08       		.uleb128 0x8
 2871 053f 16       		.uleb128 0x16
 2872 0540 21030000 		.4byte	.LASF77
 2873 0544 0B       		.byte	0xb
 2874 0545 7501     		.2byte	0x175
 2875 0547 A0000000 		.4byte	0xa0
 2876 054b 02       		.byte	0x2
 2877 054c 23       		.byte	0x23
ARM GAS  /tmp/ccouNqwt.s 			page 52


 2878 054d 0A       		.uleb128 0xa
 2879 054e 0D       		.uleb128 0xd
 2880 054f 65706300 		.ascii	"epc\000"
 2881 0553 0B       		.byte	0xb
 2882 0554 7901     		.2byte	0x179
 2883 0556 95100000 		.4byte	0x1095
 2884 055a 02       		.byte	0x2
 2885 055b 23       		.byte	0x23
 2886 055c 0C       		.uleb128 0xc
 2887 055d 16       		.uleb128 0x16
 2888 055e E3080000 		.4byte	.LASF78
 2889 0562 0B       		.byte	0xb
 2890 0563 8001     		.2byte	0x180
 2891 0565 B0100000 		.4byte	0x10b0
 2892 0569 02       		.byte	0x2
 2893 056a 23       		.byte	0x23
 2894 056b 1C       		.uleb128 0x1c
 2895 056c 16       		.uleb128 0x16
 2896 056d 950A0000 		.4byte	.LASF79
 2897 0571 0B       		.byte	0xb
 2898 0572 8701     		.2byte	0x187
 2899 0574 B0100000 		.4byte	0x10b0
 2900 0578 02       		.byte	0x2
 2901 0579 23       		.byte	0x23
 2902 057a 28       		.uleb128 0x28
 2903 057b 16       		.uleb128 0x16
 2904 057c B2020000 		.4byte	.LASF80
 2905 0580 0B       		.byte	0xb
 2906 0581 8B01     		.2byte	0x18b
 2907 0583 E8060000 		.4byte	0x6e8
 2908 0587 02       		.byte	0x2
 2909 0588 23       		.byte	0x23
 2910 0589 34       		.uleb128 0x34
 2911 058a 16       		.uleb128 0x16
 2912 058b 42060000 		.4byte	.LASF81
 2913 058f 0B       		.byte	0xb
 2914 0590 8F01     		.2byte	0x18f
 2915 0592 BD040000 		.4byte	0x4bd
 2916 0596 02       		.byte	0x2
 2917 0597 23       		.byte	0x23
 2918 0598 38       		.uleb128 0x38
 2919 0599 16       		.uleb128 0x16
 2920 059a 07030000 		.4byte	.LASF82
 2921 059e 0B       		.byte	0xb
 2922 059f 9301     		.2byte	0x193
 2923 05a1 8A000000 		.4byte	0x8a
 2924 05a5 02       		.byte	0x2
 2925 05a6 23       		.byte	0x23
 2926 05a7 3C       		.uleb128 0x3c
 2927 05a8 16       		.uleb128 0x16
 2928 05a9 59050000 		.4byte	.LASF83
 2929 05ad 0B       		.byte	0xb
 2930 05ae 9701     		.2byte	0x197
 2931 05b0 62070000 		.4byte	0x762
 2932 05b4 02       		.byte	0x2
 2933 05b5 23       		.byte	0x23
 2934 05b6 40       		.uleb128 0x40
ARM GAS  /tmp/ccouNqwt.s 			page 53


 2935 05b7 16       		.uleb128 0x16
 2936 05b8 7B040000 		.4byte	.LASF84
 2937 05bc 0B       		.byte	0xb
 2938 05bd 9B01     		.2byte	0x19b
 2939 05bf C0100000 		.4byte	0x10c0
 2940 05c3 02       		.byte	0x2
 2941 05c4 23       		.byte	0x23
 2942 05c5 44       		.uleb128 0x44
 2943 05c6 16       		.uleb128 0x16
 2944 05c7 3E050000 		.4byte	.LASF85
 2945 05cb 0B       		.byte	0xb
 2946 05cc 9F01     		.2byte	0x19f
 2947 05ce A0000000 		.4byte	0xa0
 2948 05d2 02       		.byte	0x2
 2949 05d3 23       		.byte	0x23
 2950 05d4 4C       		.uleb128 0x4c
 2951 05d5 16       		.uleb128 0x16
 2952 05d6 51050000 		.4byte	.LASF86
 2953 05da 0B       		.byte	0xb
 2954 05db A301     		.2byte	0x1a3
 2955 05dd 95000000 		.4byte	0x95
 2956 05e1 02       		.byte	0x2
 2957 05e2 23       		.byte	0x23
 2958 05e3 4E       		.uleb128 0x4e
 2959 05e4 16       		.uleb128 0x16
 2960 05e5 C4040000 		.4byte	.LASF87
 2961 05e9 0B       		.byte	0xb
 2962 05ea A701     		.2byte	0x1a7
 2963 05ec 95000000 		.4byte	0x95
 2964 05f0 02       		.byte	0x2
 2965 05f1 23       		.byte	0x23
 2966 05f2 4F       		.uleb128 0x4f
 2967 05f3 0D       		.uleb128 0xd
 2968 05f4 6F746700 		.ascii	"otg\000"
 2969 05f8 0B       		.byte	0xb
 2970 05f9 AF01     		.2byte	0x1af
 2971 05fb D0100000 		.4byte	0x10d0
 2972 05ff 02       		.byte	0x2
 2973 0600 23       		.byte	0x23
 2974 0601 50       		.uleb128 0x50
 2975 0602 16       		.uleb128 0x16
 2976 0603 6E070000 		.4byte	.LASF88
 2977 0607 0B       		.byte	0xb
 2978 0608 B301     		.2byte	0x1b3
 2979 060a D6100000 		.4byte	0x10d6
 2980 060e 02       		.byte	0x2
 2981 060f 23       		.byte	0x23
 2982 0610 54       		.uleb128 0x54
 2983 0611 16       		.uleb128 0x16
 2984 0612 030B0000 		.4byte	.LASF89
 2985 0616 0B       		.byte	0xb
 2986 0617 B701     		.2byte	0x1b7
 2987 0619 B6000000 		.4byte	0xb6
 2988 061d 02       		.byte	0x2
 2989 061e 23       		.byte	0x23
 2990 061f 58       		.uleb128 0x58
 2991 0620 16       		.uleb128 0x16
ARM GAS  /tmp/ccouNqwt.s 			page 54


 2992 0621 C4060000 		.4byte	.LASF90
 2993 0625 0B       		.byte	0xb
 2994 0626 BB01     		.2byte	0x1bb
 2995 0628 B6000000 		.4byte	0xb6
 2996 062c 02       		.byte	0x2
 2997 062d 23       		.byte	0x23
 2998 062e 5C       		.uleb128 0x5c
 2999 062f 16       		.uleb128 0x16
 3000 0630 9A050000 		.4byte	.LASF91
 3001 0634 0B       		.byte	0xb
 3002 0635 BF01     		.2byte	0x1bf
 3003 0637 8B020000 		.4byte	0x28b
 3004 063b 02       		.byte	0x2
 3005 063c 23       		.byte	0x23
 3006 063d 60       		.uleb128 0x60
 3007 063e 16       		.uleb128 0x16
 3008 063f B5010000 		.4byte	.LASF92
 3009 0643 0B       		.byte	0xb
 3010 0644 C301     		.2byte	0x1c3
 3011 0646 8B020000 		.4byte	0x28b
 3012 064a 02       		.byte	0x2
 3013 064b 23       		.byte	0x23
 3014 064c 64       		.uleb128 0x64
 3015 064d 16       		.uleb128 0x16
 3016 064e DB080000 		.4byte	.LASF93
 3017 0652 0B       		.byte	0xb
 3018 0653 C701     		.2byte	0x1c7
 3019 0655 E1100000 		.4byte	0x10e1
 3020 0659 02       		.byte	0x2
 3021 065a 23       		.byte	0x23
 3022 065b 68       		.uleb128 0x68
 3023 065c 00       		.byte	0
 3024 065d 07       		.uleb128 0x7
 3025 065e 270A0000 		.4byte	.LASF94
 3026 0662 0A       		.byte	0xa
 3027 0663 E1       		.byte	0xe1
 3028 0664 95000000 		.4byte	0x95
 3029 0668 17       		.uleb128 0x17
 3030 0669 01       		.byte	0x1
 3031 066a 0A       		.byte	0xa
 3032 066b E6       		.byte	0xe6
 3033 066c 8F060000 		.4byte	0x68f
 3034 0670 18       		.uleb128 0x18
 3035 0671 78070000 		.4byte	.LASF95
 3036 0675 00       		.sleb128 0
 3037 0676 18       		.uleb128 0x18
 3038 0677 22070000 		.4byte	.LASF96
 3039 067b 01       		.sleb128 1
 3040 067c 18       		.uleb128 0x18
 3041 067d 27060000 		.4byte	.LASF97
 3042 0681 02       		.sleb128 2
 3043 0682 18       		.uleb128 0x18
 3044 0683 B7040000 		.4byte	.LASF98
 3045 0687 03       		.sleb128 3
 3046 0688 18       		.uleb128 0x18
 3047 0689 F9000000 		.4byte	.LASF99
 3048 068d 04       		.sleb128 4
ARM GAS  /tmp/ccouNqwt.s 			page 55


 3049 068e 00       		.byte	0
 3050 068f 07       		.uleb128 0x7
 3051 0690 A8050000 		.4byte	.LASF100
 3052 0694 0A       		.byte	0xa
 3053 0695 EC       		.byte	0xec
 3054 0696 68060000 		.4byte	0x668
 3055 069a 17       		.uleb128 0x17
 3056 069b 01       		.byte	0x1
 3057 069c 0A       		.byte	0xa
 3058 069d F1       		.byte	0xf1
 3059 069e B5060000 		.4byte	0x6b5
 3060 06a2 18       		.uleb128 0x18
 3061 06a3 A00A0000 		.4byte	.LASF101
 3062 06a7 00       		.sleb128 0
 3063 06a8 18       		.uleb128 0x18
 3064 06a9 DA040000 		.4byte	.LASF102
 3065 06ad 01       		.sleb128 1
 3066 06ae 18       		.uleb128 0x18
 3067 06af 45020000 		.4byte	.LASF103
 3068 06b3 02       		.sleb128 2
 3069 06b4 00       		.byte	0
 3070 06b5 17       		.uleb128 0x17
 3071 06b6 01       		.byte	0x1
 3072 06b7 0A       		.byte	0xa
 3073 06b8 FA       		.byte	0xfa
 3074 06b9 E8060000 		.4byte	0x6e8
 3075 06bd 18       		.uleb128 0x18
 3076 06be D3010000 		.4byte	.LASF104
 3077 06c2 00       		.sleb128 0
 3078 06c3 18       		.uleb128 0x18
 3079 06c4 6E000000 		.4byte	.LASF105
 3080 06c8 01       		.sleb128 1
 3081 06c9 18       		.uleb128 0x18
 3082 06ca 5A070000 		.4byte	.LASF106
 3083 06ce 02       		.sleb128 2
 3084 06cf 18       		.uleb128 0x18
 3085 06d0 E10A0000 		.4byte	.LASF107
 3086 06d4 03       		.sleb128 3
 3087 06d5 18       		.uleb128 0x18
 3088 06d6 1B0B0000 		.4byte	.LASF108
 3089 06da 04       		.sleb128 4
 3090 06db 18       		.uleb128 0x18
 3091 06dc C80A0000 		.4byte	.LASF109
 3092 06e0 05       		.sleb128 5
 3093 06e1 18       		.uleb128 0x18
 3094 06e2 92020000 		.4byte	.LASF110
 3095 06e6 06       		.sleb128 6
 3096 06e7 00       		.byte	0
 3097 06e8 19       		.uleb128 0x19
 3098 06e9 21010000 		.4byte	.LASF111
 3099 06ed 0A       		.byte	0xa
 3100 06ee 0201     		.2byte	0x102
 3101 06f0 B5060000 		.4byte	0x6b5
 3102 06f4 1A       		.uleb128 0x1a
 3103 06f5 01       		.byte	0x1
 3104 06f6 0A       		.byte	0xa
 3105 06f7 0701     		.2byte	0x107
ARM GAS  /tmp/ccouNqwt.s 			page 56


 3106 06f9 22070000 		.4byte	0x722
 3107 06fd 18       		.uleb128 0x18
 3108 06fe 29090000 		.4byte	.LASF112
 3109 0702 00       		.sleb128 0
 3110 0703 18       		.uleb128 0x18
 3111 0704 45010000 		.4byte	.LASF113
 3112 0708 01       		.sleb128 1
 3113 0709 18       		.uleb128 0x18
 3114 070a 93080000 		.4byte	.LASF114
 3115 070e 02       		.sleb128 2
 3116 070f 18       		.uleb128 0x18
 3117 0710 3C0A0000 		.4byte	.LASF115
 3118 0714 03       		.sleb128 3
 3119 0715 18       		.uleb128 0x18
 3120 0716 F1050000 		.4byte	.LASF116
 3121 071a 04       		.sleb128 4
 3122 071b 18       		.uleb128 0x18
 3123 071c 33020000 		.4byte	.LASF117
 3124 0720 05       		.sleb128 5
 3125 0721 00       		.byte	0
 3126 0722 19       		.uleb128 0x19
 3127 0723 9B040000 		.4byte	.LASF118
 3128 0727 0A       		.byte	0xa
 3129 0728 0E01     		.2byte	0x10e
 3130 072a F4060000 		.4byte	0x6f4
 3131 072e 1B       		.uleb128 0x1b
 3132 072f 08       		.byte	0x8
 3133 0730 0A       		.byte	0xa
 3134 0731 1301     		.2byte	0x113
 3135 0733 56070000 		.4byte	0x756
 3136 0737 16       		.uleb128 0x16
 3137 0738 AF040000 		.4byte	.LASF119
 3138 073c 0A       		.byte	0xa
 3139 073d 1701     		.2byte	0x117
 3140 073f 8A000000 		.4byte	0x8a
 3141 0743 02       		.byte	0x2
 3142 0744 23       		.byte	0x23
 3143 0745 00       		.uleb128 0
 3144 0746 16       		.uleb128 0x16
 3145 0747 88030000 		.4byte	.LASF120
 3146 074b 0A       		.byte	0xa
 3147 074c 1B01     		.2byte	0x11b
 3148 074e D9040000 		.4byte	0x4d9
 3149 0752 02       		.byte	0x2
 3150 0753 23       		.byte	0x23
 3151 0754 04       		.uleb128 0x4
 3152 0755 00       		.byte	0
 3153 0756 19       		.uleb128 0x19
 3154 0757 49040000 		.4byte	.LASF121
 3155 075b 0A       		.byte	0xa
 3156 075c 1C01     		.2byte	0x11c
 3157 075e 2E070000 		.4byte	0x72e
 3158 0762 19       		.uleb128 0x19
 3159 0763 A8090000 		.4byte	.LASF122
 3160 0767 0A       		.byte	0xa
 3161 0768 2401     		.2byte	0x124
 3162 076a 6E070000 		.4byte	0x76e
ARM GAS  /tmp/ccouNqwt.s 			page 57


 3163 076e 05       		.uleb128 0x5
 3164 076f 04       		.byte	0x4
 3165 0770 74070000 		.4byte	0x774
 3166 0774 11       		.uleb128 0x11
 3167 0775 01       		.byte	0x1
 3168 0776 80070000 		.4byte	0x780
 3169 077a 12       		.uleb128 0x12
 3170 077b 80070000 		.4byte	0x780
 3171 077f 00       		.byte	0
 3172 0780 05       		.uleb128 0x5
 3173 0781 04       		.byte	0x4
 3174 0782 F9040000 		.4byte	0x4f9
 3175 0786 19       		.uleb128 0x19
 3176 0787 53060000 		.4byte	.LASF123
 3177 078b 0A       		.byte	0xa
 3178 078c 2D01     		.2byte	0x12d
 3179 078e 92070000 		.4byte	0x792
 3180 0792 05       		.uleb128 0x5
 3181 0793 04       		.byte	0x4
 3182 0794 98070000 		.4byte	0x798
 3183 0798 11       		.uleb128 0x11
 3184 0799 01       		.byte	0x1
 3185 079a A9070000 		.4byte	0x7a9
 3186 079e 12       		.uleb128 0x12
 3187 079f 80070000 		.4byte	0x780
 3188 07a3 12       		.uleb128 0x12
 3189 07a4 5D060000 		.4byte	0x65d
 3190 07a8 00       		.byte	0
 3191 07a9 19       		.uleb128 0x19
 3192 07aa CA030000 		.4byte	.LASF124
 3193 07ae 0A       		.byte	0xa
 3194 07af 3601     		.2byte	0x136
 3195 07b1 B5070000 		.4byte	0x7b5
 3196 07b5 05       		.uleb128 0x5
 3197 07b6 04       		.byte	0x4
 3198 07b7 BB070000 		.4byte	0x7bb
 3199 07bb 11       		.uleb128 0x11
 3200 07bc 01       		.byte	0x1
 3201 07bd CC070000 		.4byte	0x7cc
 3202 07c1 12       		.uleb128 0x12
 3203 07c2 80070000 		.4byte	0x780
 3204 07c6 12       		.uleb128 0x12
 3205 07c7 22070000 		.4byte	0x722
 3206 07cb 00       		.byte	0
 3207 07cc 19       		.uleb128 0x19
 3208 07cd 78090000 		.4byte	.LASF125
 3209 07d1 0A       		.byte	0xa
 3210 07d2 4201     		.2byte	0x142
 3211 07d4 D8070000 		.4byte	0x7d8
 3212 07d8 05       		.uleb128 0x5
 3213 07d9 04       		.byte	0x4
 3214 07da DE070000 		.4byte	0x7de
 3215 07de 1C       		.uleb128 0x1c
 3216 07df 01       		.byte	0x1
 3217 07e0 CC000000 		.4byte	0xcc
 3218 07e4 EE070000 		.4byte	0x7ee
 3219 07e8 12       		.uleb128 0x12
ARM GAS  /tmp/ccouNqwt.s 			page 58


 3220 07e9 80070000 		.4byte	0x780
 3221 07ed 00       		.byte	0
 3222 07ee 19       		.uleb128 0x19
 3223 07ef C8080000 		.4byte	.LASF126
 3224 07f3 0A       		.byte	0xa
 3225 07f4 4701     		.2byte	0x147
 3226 07f6 FA070000 		.4byte	0x7fa
 3227 07fa 05       		.uleb128 0x5
 3228 07fb 04       		.byte	0x4
 3229 07fc 00080000 		.4byte	0x800
 3230 0800 1C       		.uleb128 0x1c
 3231 0801 01       		.byte	0x1
 3232 0802 1F080000 		.4byte	0x81f
 3233 0806 1F080000 		.4byte	0x81f
 3234 080a 12       		.uleb128 0x12
 3235 080b 80070000 		.4byte	0x780
 3236 080f 12       		.uleb128 0x12
 3237 0810 95000000 		.4byte	0x95
 3238 0814 12       		.uleb128 0x12
 3239 0815 95000000 		.4byte	0x95
 3240 0819 12       		.uleb128 0x12
 3241 081a A0000000 		.4byte	0xa0
 3242 081e 00       		.byte	0
 3243 081f 05       		.uleb128 0x5
 3244 0820 04       		.byte	0x4
 3245 0821 25080000 		.4byte	0x825
 3246 0825 06       		.uleb128 0x6
 3247 0826 56070000 		.4byte	0x756
 3248 082a 0B       		.uleb128 0xb
 3249 082b 20       		.byte	0x20
 3250 082c 0C       		.byte	0xc
 3251 082d 35       		.byte	0x35
 3252 082e A3080000 		.4byte	0x8a3
 3253 0832 09       		.uleb128 0x9
 3254 0833 E0020000 		.4byte	.LASF127
 3255 0837 0C       		.byte	0xc
 3256 0838 36       		.byte	0x36
 3257 0839 85030000 		.4byte	0x385
 3258 083d 02       		.byte	0x2
 3259 083e 23       		.byte	0x23
 3260 083f 00       		.uleb128 0
 3261 0840 09       		.uleb128 0x9
 3262 0841 4F000000 		.4byte	.LASF128
 3263 0845 0C       		.byte	0xc
 3264 0846 38       		.byte	0x38
 3265 0847 85030000 		.4byte	0x385
 3266 084b 02       		.byte	0x2
 3267 084c 23       		.byte	0x23
 3268 084d 04       		.uleb128 0x4
 3269 084e 09       		.uleb128 0x9
 3270 084f D9070000 		.4byte	.LASF129
 3271 0853 0C       		.byte	0xc
 3272 0854 39       		.byte	0x39
 3273 0855 85030000 		.4byte	0x385
 3274 0859 02       		.byte	0x2
 3275 085a 23       		.byte	0x23
 3276 085b 08       		.uleb128 0x8
ARM GAS  /tmp/ccouNqwt.s 			page 59


 3277 085c 09       		.uleb128 0x9
 3278 085d 03080000 		.4byte	.LASF130
 3279 0861 0C       		.byte	0xc
 3280 0862 3A       		.byte	0x3a
 3281 0863 85030000 		.4byte	0x385
 3282 0867 02       		.byte	0x2
 3283 0868 23       		.byte	0x23
 3284 0869 0C       		.uleb128 0xc
 3285 086a 09       		.uleb128 0x9
 3286 086b F9030000 		.4byte	.LASF131
 3287 086f 0C       		.byte	0xc
 3288 0870 3C       		.byte	0x3c
 3289 0871 85030000 		.4byte	0x385
 3290 0875 02       		.byte	0x2
 3291 0876 23       		.byte	0x23
 3292 0877 10       		.uleb128 0x10
 3293 0878 09       		.uleb128 0x9
 3294 0879 39090000 		.4byte	.LASF132
 3295 087d 0C       		.byte	0xc
 3296 087e 3E       		.byte	0x3e
 3297 087f 85030000 		.4byte	0x385
 3298 0883 02       		.byte	0x2
 3299 0884 23       		.byte	0x23
 3300 0885 14       		.uleb128 0x14
 3301 0886 09       		.uleb128 0x9
 3302 0887 41090000 		.4byte	.LASF133
 3303 088b 0C       		.byte	0xc
 3304 088c 3F       		.byte	0x3f
 3305 088d 85030000 		.4byte	0x385
 3306 0891 02       		.byte	0x2
 3307 0892 23       		.byte	0x23
 3308 0893 18       		.uleb128 0x18
 3309 0894 09       		.uleb128 0x9
 3310 0895 70090000 		.4byte	.LASF134
 3311 0899 0C       		.byte	0xc
 3312 089a 40       		.byte	0x40
 3313 089b 85030000 		.4byte	0x385
 3314 089f 02       		.byte	0x2
 3315 08a0 23       		.byte	0x23
 3316 08a1 1C       		.uleb128 0x1c
 3317 08a2 00       		.byte	0
 3318 08a3 07       		.uleb128 0x7
 3319 08a4 D7030000 		.4byte	.LASF135
 3320 08a8 0C       		.byte	0xc
 3321 08a9 41       		.byte	0x41
 3322 08aa 2A080000 		.4byte	0x82a
 3323 08ae 0B       		.uleb128 0xb
 3324 08af 20       		.byte	0x20
 3325 08b0 0C       		.byte	0xc
 3326 08b1 46       		.byte	0x46
 3327 08b2 27090000 		.4byte	0x927
 3328 08b6 09       		.uleb128 0x9
 3329 08b7 A0090000 		.4byte	.LASF136
 3330 08bb 0C       		.byte	0xc
 3331 08bc 47       		.byte	0x47
 3332 08bd 85030000 		.4byte	0x385
 3333 08c1 02       		.byte	0x2
ARM GAS  /tmp/ccouNqwt.s 			page 60


 3334 08c2 23       		.byte	0x23
 3335 08c3 00       		.uleb128 0
 3336 08c4 09       		.uleb128 0x9
 3337 08c5 48000000 		.4byte	.LASF137
 3338 08c9 0C       		.byte	0xc
 3339 08ca 49       		.byte	0x49
 3340 08cb 85030000 		.4byte	0x385
 3341 08cf 02       		.byte	0x2
 3342 08d0 23       		.byte	0x23
 3343 08d1 04       		.uleb128 0x4
 3344 08d2 09       		.uleb128 0x9
 3345 08d3 C5090000 		.4byte	.LASF138
 3346 08d7 0C       		.byte	0xc
 3347 08d8 4A       		.byte	0x4a
 3348 08d9 85030000 		.4byte	0x385
 3349 08dd 02       		.byte	0x2
 3350 08de 23       		.byte	0x23
 3351 08df 08       		.uleb128 0x8
 3352 08e0 09       		.uleb128 0x9
 3353 08e1 56000000 		.4byte	.LASF139
 3354 08e5 0C       		.byte	0xc
 3355 08e6 4C       		.byte	0x4c
 3356 08e7 85030000 		.4byte	0x385
 3357 08eb 02       		.byte	0x2
 3358 08ec 23       		.byte	0x23
 3359 08ed 0C       		.uleb128 0xc
 3360 08ee 09       		.uleb128 0x9
 3361 08ef BB020000 		.4byte	.LASF140
 3362 08f3 0C       		.byte	0xc
 3363 08f4 4D       		.byte	0x4d
 3364 08f5 85030000 		.4byte	0x385
 3365 08f9 02       		.byte	0x2
 3366 08fa 23       		.byte	0x23
 3367 08fb 10       		.uleb128 0x10
 3368 08fc 09       		.uleb128 0x9
 3369 08fd 39090000 		.4byte	.LASF132
 3370 0901 0C       		.byte	0xc
 3371 0902 4F       		.byte	0x4f
 3372 0903 85030000 		.4byte	0x385
 3373 0907 02       		.byte	0x2
 3374 0908 23       		.byte	0x23
 3375 0909 14       		.uleb128 0x14
 3376 090a 09       		.uleb128 0x9
 3377 090b 49090000 		.4byte	.LASF141
 3378 090f 0C       		.byte	0xc
 3379 0910 50       		.byte	0x50
 3380 0911 85030000 		.4byte	0x385
 3381 0915 02       		.byte	0x2
 3382 0916 23       		.byte	0x23
 3383 0917 18       		.uleb128 0x18
 3384 0918 09       		.uleb128 0x9
 3385 0919 59090000 		.4byte	.LASF142
 3386 091d 0C       		.byte	0xc
 3387 091e 52       		.byte	0x52
 3388 091f 85030000 		.4byte	0x385
 3389 0923 02       		.byte	0x2
 3390 0924 23       		.byte	0x23
ARM GAS  /tmp/ccouNqwt.s 			page 61


 3391 0925 1C       		.uleb128 0x1c
 3392 0926 00       		.byte	0
 3393 0927 07       		.uleb128 0x7
 3394 0928 58080000 		.4byte	.LASF143
 3395 092c 0C       		.byte	0xc
 3396 092d 53       		.byte	0x53
 3397 092e AE080000 		.4byte	0x8ae
 3398 0932 0B       		.uleb128 0xb
 3399 0933 20       		.byte	0x20
 3400 0934 0C       		.byte	0xc
 3401 0935 58       		.byte	0x58
 3402 0936 AB090000 		.4byte	0x9ab
 3403 093a 09       		.uleb128 0x9
 3404 093b 0D020000 		.4byte	.LASF144
 3405 093f 0C       		.byte	0xc
 3406 0940 59       		.byte	0x59
 3407 0941 85030000 		.4byte	0x385
 3408 0945 02       		.byte	0x2
 3409 0946 23       		.byte	0x23
 3410 0947 00       		.uleb128 0
 3411 0948 09       		.uleb128 0x9
 3412 0949 48000000 		.4byte	.LASF137
 3413 094d 0C       		.byte	0xc
 3414 094e 5B       		.byte	0x5b
 3415 094f 85030000 		.4byte	0x385
 3416 0953 02       		.byte	0x2
 3417 0954 23       		.byte	0x23
 3418 0955 04       		.uleb128 0x4
 3419 0956 09       		.uleb128 0x9
 3420 0957 56020000 		.4byte	.LASF145
 3421 095b 0C       		.byte	0xc
 3422 095c 5C       		.byte	0x5c
 3423 095d 85030000 		.4byte	0x385
 3424 0961 02       		.byte	0x2
 3425 0962 23       		.byte	0x23
 3426 0963 08       		.uleb128 0x8
 3427 0964 09       		.uleb128 0x9
 3428 0965 56000000 		.4byte	.LASF139
 3429 0969 0C       		.byte	0xc
 3430 096a 5E       		.byte	0x5e
 3431 096b 85030000 		.4byte	0x385
 3432 096f 02       		.byte	0x2
 3433 0970 23       		.byte	0x23
 3434 0971 0C       		.uleb128 0xc
 3435 0972 09       		.uleb128 0x9
 3436 0973 9E060000 		.4byte	.LASF146
 3437 0977 0C       		.byte	0xc
 3438 0978 5F       		.byte	0x5f
 3439 0979 85030000 		.4byte	0x385
 3440 097d 02       		.byte	0x2
 3441 097e 23       		.byte	0x23
 3442 097f 10       		.uleb128 0x10
 3443 0980 09       		.uleb128 0x9
 3444 0981 39090000 		.4byte	.LASF132
 3445 0985 0C       		.byte	0xc
 3446 0986 61       		.byte	0x61
 3447 0987 85030000 		.4byte	0x385
ARM GAS  /tmp/ccouNqwt.s 			page 62


 3448 098b 02       		.byte	0x2
 3449 098c 23       		.byte	0x23
 3450 098d 14       		.uleb128 0x14
 3451 098e 09       		.uleb128 0x9
 3452 098f 41090000 		.4byte	.LASF133
 3453 0993 0C       		.byte	0xc
 3454 0994 62       		.byte	0x62
 3455 0995 85030000 		.4byte	0x385
 3456 0999 02       		.byte	0x2
 3457 099a 23       		.byte	0x23
 3458 099b 18       		.uleb128 0x18
 3459 099c 09       		.uleb128 0x9
 3460 099d 59090000 		.4byte	.LASF142
 3461 09a1 0C       		.byte	0xc
 3462 09a2 63       		.byte	0x63
 3463 09a3 85030000 		.4byte	0x385
 3464 09a7 02       		.byte	0x2
 3465 09a8 23       		.byte	0x23
 3466 09a9 1C       		.uleb128 0x1c
 3467 09aa 00       		.byte	0
 3468 09ab 07       		.uleb128 0x7
 3469 09ac E7020000 		.4byte	.LASF147
 3470 09b0 0C       		.byte	0xc
 3471 09b1 64       		.byte	0x64
 3472 09b2 32090000 		.4byte	0x932
 3473 09b6 1D       		.uleb128 0x1d
 3474 09b7 00100100 		.4byte	0x11000
 3475 09bb 0C       		.byte	0xc
 3476 09bc 69       		.byte	0x69
 3477 09bd 050D0000 		.4byte	0xd05
 3478 09c1 09       		.uleb128 0x9
 3479 09c2 BC050000 		.4byte	.LASF148
 3480 09c6 0C       		.byte	0xc
 3481 09c7 6A       		.byte	0x6a
 3482 09c8 85030000 		.4byte	0x385
 3483 09cc 02       		.byte	0x2
 3484 09cd 23       		.byte	0x23
 3485 09ce 00       		.uleb128 0
 3486 09cf 09       		.uleb128 0x9
 3487 09d0 1F080000 		.4byte	.LASF149
 3488 09d4 0C       		.byte	0xc
 3489 09d5 6B       		.byte	0x6b
 3490 09d6 85030000 		.4byte	0x385
 3491 09da 02       		.byte	0x2
 3492 09db 23       		.byte	0x23
 3493 09dc 04       		.uleb128 0x4
 3494 09dd 09       		.uleb128 0x9
 3495 09de 62050000 		.4byte	.LASF150
 3496 09e2 0C       		.byte	0xc
 3497 09e3 6C       		.byte	0x6c
 3498 09e4 85030000 		.4byte	0x385
 3499 09e8 02       		.byte	0x2
 3500 09e9 23       		.byte	0x23
 3501 09ea 08       		.uleb128 0x8
 3502 09eb 09       		.uleb128 0x9
 3503 09ec 130B0000 		.4byte	.LASF151
 3504 09f0 0C       		.byte	0xc
ARM GAS  /tmp/ccouNqwt.s 			page 63


 3505 09f1 6D       		.byte	0x6d
 3506 09f2 85030000 		.4byte	0x385
 3507 09f6 02       		.byte	0x2
 3508 09f7 23       		.byte	0x23
 3509 09f8 0C       		.uleb128 0xc
 3510 09f9 09       		.uleb128 0x9
 3511 09fa 93040000 		.4byte	.LASF152
 3512 09fe 0C       		.byte	0xc
 3513 09ff 6E       		.byte	0x6e
 3514 0a00 85030000 		.4byte	0x385
 3515 0a04 02       		.byte	0x2
 3516 0a05 23       		.byte	0x23
 3517 0a06 10       		.uleb128 0x10
 3518 0a07 09       		.uleb128 0x9
 3519 0a08 BD090000 		.4byte	.LASF153
 3520 0a0c 0C       		.byte	0xc
 3521 0a0d 6F       		.byte	0x6f
 3522 0a0e 85030000 		.4byte	0x385
 3523 0a12 02       		.byte	0x2
 3524 0a13 23       		.byte	0x23
 3525 0a14 14       		.uleb128 0x14
 3526 0a15 09       		.uleb128 0x9
 3527 0a16 36070000 		.4byte	.LASF154
 3528 0a1a 0C       		.byte	0xc
 3529 0a1b 70       		.byte	0x70
 3530 0a1c 85030000 		.4byte	0x385
 3531 0a20 02       		.byte	0x2
 3532 0a21 23       		.byte	0x23
 3533 0a22 18       		.uleb128 0x18
 3534 0a23 09       		.uleb128 0x9
 3535 0a24 E9050000 		.4byte	.LASF155
 3536 0a28 0C       		.byte	0xc
 3537 0a29 71       		.byte	0x71
 3538 0a2a 85030000 		.4byte	0x385
 3539 0a2e 02       		.byte	0x2
 3540 0a2f 23       		.byte	0x23
 3541 0a30 1C       		.uleb128 0x1c
 3542 0a31 09       		.uleb128 0x9
 3543 0a32 D8050000 		.4byte	.LASF156
 3544 0a36 0C       		.byte	0xc
 3545 0a37 73       		.byte	0x73
 3546 0a38 85030000 		.4byte	0x385
 3547 0a3c 02       		.byte	0x2
 3548 0a3d 23       		.byte	0x23
 3549 0a3e 20       		.uleb128 0x20
 3550 0a3f 09       		.uleb128 0x9
 3551 0a40 D2040000 		.4byte	.LASF157
 3552 0a44 0C       		.byte	0xc
 3553 0a45 75       		.byte	0x75
 3554 0a46 85030000 		.4byte	0x385
 3555 0a4a 02       		.byte	0x2
 3556 0a4b 23       		.byte	0x23
 3557 0a4c 24       		.uleb128 0x24
 3558 0a4d 09       		.uleb128 0x9
 3559 0a4e 57010000 		.4byte	.LASF158
 3560 0a52 0C       		.byte	0xc
 3561 0a53 76       		.byte	0x76
ARM GAS  /tmp/ccouNqwt.s 			page 64


 3562 0a54 85030000 		.4byte	0x385
 3563 0a58 02       		.byte	0x2
 3564 0a59 23       		.byte	0x23
 3565 0a5a 28       		.uleb128 0x28
 3566 0a5b 09       		.uleb128 0x9
 3567 0a5c CD090000 		.4byte	.LASF159
 3568 0a60 0C       		.byte	0xc
 3569 0a61 78       		.byte	0x78
 3570 0a62 85030000 		.4byte	0x385
 3571 0a66 02       		.byte	0x2
 3572 0a67 23       		.byte	0x23
 3573 0a68 2C       		.uleb128 0x2c
 3574 0a69 09       		.uleb128 0x9
 3575 0a6a 050A0000 		.4byte	.LASF160
 3576 0a6e 0C       		.byte	0xc
 3577 0a6f 7A       		.byte	0x7a
 3578 0a70 85030000 		.4byte	0x385
 3579 0a74 02       		.byte	0x2
 3580 0a75 23       		.byte	0x23
 3581 0a76 30       		.uleb128 0x30
 3582 0a77 09       		.uleb128 0x9
 3583 0a78 160A0000 		.4byte	.LASF161
 3584 0a7c 0C       		.byte	0xc
 3585 0a7d 7B       		.byte	0x7b
 3586 0a7e 85030000 		.4byte	0x385
 3587 0a82 02       		.byte	0x2
 3588 0a83 23       		.byte	0x23
 3589 0a84 34       		.uleb128 0x34
 3590 0a85 09       		.uleb128 0x9
 3591 0a86 AC020000 		.4byte	.LASF162
 3592 0a8a 0C       		.byte	0xc
 3593 0a8b 7C       		.byte	0x7c
 3594 0a8c 85030000 		.4byte	0x385
 3595 0a90 02       		.byte	0x2
 3596 0a91 23       		.byte	0x23
 3597 0a92 38       		.uleb128 0x38
 3598 0a93 0A       		.uleb128 0xa
 3599 0a94 43494400 		.ascii	"CID\000"
 3600 0a98 0C       		.byte	0xc
 3601 0a99 7D       		.byte	0x7d
 3602 0a9a 85030000 		.4byte	0x385
 3603 0a9e 02       		.byte	0x2
 3604 0a9f 23       		.byte	0x23
 3605 0aa0 3C       		.uleb128 0x3c
 3606 0aa1 09       		.uleb128 0x9
 3607 0aa2 C00A0000 		.4byte	.LASF163
 3608 0aa6 0C       		.byte	0xc
 3609 0aa7 7E       		.byte	0x7e
 3610 0aa8 150D0000 		.4byte	0xd15
 3611 0aac 02       		.byte	0x2
 3612 0aad 23       		.byte	0x23
 3613 0aae 40       		.uleb128 0x40
 3614 0aaf 09       		.uleb128 0x9
 3615 0ab0 BF070000 		.4byte	.LASF164
 3616 0ab4 0C       		.byte	0xc
 3617 0ab5 7F       		.byte	0x7f
 3618 0ab6 85030000 		.4byte	0x385
ARM GAS  /tmp/ccouNqwt.s 			page 65


 3619 0aba 03       		.byte	0x3
 3620 0abb 23       		.byte	0x23
 3621 0abc 8002     		.uleb128 0x100
 3622 0abe 09       		.uleb128 0x9
 3623 0abf FF040000 		.4byte	.LASF165
 3624 0ac3 0C       		.byte	0xc
 3625 0ac4 81       		.byte	0x81
 3626 0ac5 1A0D0000 		.4byte	0xd1a
 3627 0ac9 03       		.byte	0x3
 3628 0aca 23       		.byte	0x23
 3629 0acb 8402     		.uleb128 0x104
 3630 0acd 09       		.uleb128 0x9
 3631 0ace 260B0000 		.4byte	.LASF166
 3632 0ad2 0C       		.byte	0xc
 3633 0ad3 83       		.byte	0x83
 3634 0ad4 2F0D0000 		.4byte	0xd2f
 3635 0ad8 03       		.byte	0x3
 3636 0ad9 23       		.byte	0x23
 3637 0ada C002     		.uleb128 0x140
 3638 0adc 09       		.uleb128 0x9
 3639 0add DB020000 		.4byte	.LASF167
 3640 0ae1 0C       		.byte	0xc
 3641 0ae2 84       		.byte	0x84
 3642 0ae3 85030000 		.4byte	0x385
 3643 0ae7 03       		.byte	0x3
 3644 0ae8 23       		.byte	0x23
 3645 0ae9 8008     		.uleb128 0x400
 3646 0aeb 09       		.uleb128 0x9
 3647 0aec DC0A0000 		.4byte	.LASF168
 3648 0af0 0C       		.byte	0xc
 3649 0af1 85       		.byte	0x85
 3650 0af2 85030000 		.4byte	0x385
 3651 0af6 03       		.byte	0x3
 3652 0af7 23       		.byte	0x23
 3653 0af8 8408     		.uleb128 0x404
 3654 0afa 09       		.uleb128 0x9
 3655 0afb C4030000 		.4byte	.LASF169
 3656 0aff 0C       		.byte	0xc
 3657 0b00 86       		.byte	0x86
 3658 0b01 85030000 		.4byte	0x385
 3659 0b05 03       		.byte	0x3
 3660 0b06 23       		.byte	0x23
 3661 0b07 8808     		.uleb128 0x408
 3662 0b09 09       		.uleb128 0x9
 3663 0b0a B3050000 		.4byte	.LASF170
 3664 0b0e 0C       		.byte	0xc
 3665 0b0f 88       		.byte	0x88
 3666 0b10 85030000 		.4byte	0x385
 3667 0b14 03       		.byte	0x3
 3668 0b15 23       		.byte	0x23
 3669 0b16 8C08     		.uleb128 0x40c
 3670 0b18 09       		.uleb128 0x9
 3671 0b19 B80A0000 		.4byte	.LASF171
 3672 0b1d 0C       		.byte	0xc
 3673 0b1e 89       		.byte	0x89
 3674 0b1f 85030000 		.4byte	0x385
 3675 0b23 03       		.byte	0x3
ARM GAS  /tmp/ccouNqwt.s 			page 66


 3676 0b24 23       		.byte	0x23
 3677 0b25 9008     		.uleb128 0x410
 3678 0b27 09       		.uleb128 0x9
 3679 0b28 A7060000 		.4byte	.LASF172
 3680 0b2c 0C       		.byte	0xc
 3681 0b2d 8B       		.byte	0x8b
 3682 0b2e 85030000 		.4byte	0x385
 3683 0b32 03       		.byte	0x3
 3684 0b33 23       		.byte	0x23
 3685 0b34 9408     		.uleb128 0x414
 3686 0b36 09       		.uleb128 0x9
 3687 0b37 19070000 		.4byte	.LASF173
 3688 0b3b 0C       		.byte	0xc
 3689 0b3c 8D       		.byte	0x8d
 3690 0b3d 85030000 		.4byte	0x385
 3691 0b41 03       		.byte	0x3
 3692 0b42 23       		.byte	0x23
 3693 0b43 9808     		.uleb128 0x418
 3694 0b45 09       		.uleb128 0x9
 3695 0b46 39060000 		.4byte	.LASF174
 3696 0b4a 0C       		.byte	0xc
 3697 0b4b 8F       		.byte	0x8f
 3698 0b4c 440D0000 		.4byte	0xd44
 3699 0b50 03       		.byte	0x3
 3700 0b51 23       		.byte	0x23
 3701 0b52 9C08     		.uleb128 0x41c
 3702 0b54 09       		.uleb128 0x9
 3703 0b55 15030000 		.4byte	.LASF175
 3704 0b59 0C       		.byte	0xc
 3705 0b5a 90       		.byte	0x90
 3706 0b5b 85030000 		.4byte	0x385
 3707 0b5f 03       		.byte	0x3
 3708 0b60 23       		.byte	0x23
 3709 0b61 C008     		.uleb128 0x440
 3710 0b63 09       		.uleb128 0x9
 3711 0b64 FF060000 		.4byte	.LASF176
 3712 0b68 0C       		.byte	0xc
 3713 0b69 92       		.byte	0x92
 3714 0b6a 590D0000 		.4byte	0xd59
 3715 0b6e 03       		.byte	0x3
 3716 0b6f 23       		.byte	0x23
 3717 0b70 C408     		.uleb128 0x444
 3718 0b72 0A       		.uleb128 0xa
 3719 0b73 686300   		.ascii	"hc\000"
 3720 0b76 0C       		.byte	0xc
 3721 0b77 93       		.byte	0x93
 3722 0b78 5E0D0000 		.4byte	0xd5e
 3723 0b7c 03       		.byte	0x3
 3724 0b7d 23       		.byte	0x23
 3725 0b7e 800A     		.uleb128 0x500
 3726 0b80 09       		.uleb128 0x9
 3727 0b81 C2000000 		.4byte	.LASF177
 3728 0b85 0C       		.byte	0xc
 3729 0b86 94       		.byte	0x94
 3730 0b87 7E0D0000 		.4byte	0xd7e
 3731 0b8b 03       		.byte	0x3
 3732 0b8c 23       		.byte	0x23
ARM GAS  /tmp/ccouNqwt.s 			page 67


 3733 0b8d 800E     		.uleb128 0x700
 3734 0b8f 09       		.uleb128 0x9
 3735 0b90 A7020000 		.4byte	.LASF178
 3736 0b94 0C       		.byte	0xc
 3737 0b95 95       		.byte	0x95
 3738 0b96 85030000 		.4byte	0x385
 3739 0b9a 03       		.byte	0x3
 3740 0b9b 23       		.byte	0x23
 3741 0b9c 8010     		.uleb128 0x800
 3742 0b9e 09       		.uleb128 0x9
 3743 0b9f EC070000 		.4byte	.LASF179
 3744 0ba3 0C       		.byte	0xc
 3745 0ba4 96       		.byte	0x96
 3746 0ba5 85030000 		.4byte	0x385
 3747 0ba9 03       		.byte	0x3
 3748 0baa 23       		.byte	0x23
 3749 0bab 8410     		.uleb128 0x804
 3750 0bad 09       		.uleb128 0x9
 3751 0bae 680A0000 		.4byte	.LASF180
 3752 0bb2 0C       		.byte	0xc
 3753 0bb3 97       		.byte	0x97
 3754 0bb4 85030000 		.4byte	0x385
 3755 0bb8 03       		.byte	0x3
 3756 0bb9 23       		.byte	0x23
 3757 0bba 8810     		.uleb128 0x808
 3758 0bbc 09       		.uleb128 0x9
 3759 0bbd 0C030000 		.4byte	.LASF181
 3760 0bc1 0C       		.byte	0xc
 3761 0bc2 98       		.byte	0x98
 3762 0bc3 85030000 		.4byte	0x385
 3763 0bc7 03       		.byte	0x3
 3764 0bc8 23       		.byte	0x23
 3765 0bc9 8C10     		.uleb128 0x80c
 3766 0bcb 09       		.uleb128 0x9
 3767 0bcc 61090000 		.4byte	.LASF182
 3768 0bd0 0C       		.byte	0xc
 3769 0bd1 99       		.byte	0x99
 3770 0bd2 85030000 		.4byte	0x385
 3771 0bd6 03       		.byte	0x3
 3772 0bd7 23       		.byte	0x23
 3773 0bd8 9010     		.uleb128 0x810
 3774 0bda 09       		.uleb128 0x9
 3775 0bdb E9010000 		.4byte	.LASF183
 3776 0bdf 0C       		.byte	0xc
 3777 0be0 9B       		.byte	0x9b
 3778 0be1 85030000 		.4byte	0x385
 3779 0be5 03       		.byte	0x3
 3780 0be6 23       		.byte	0x23
 3781 0be7 9410     		.uleb128 0x814
 3782 0be9 09       		.uleb128 0x9
 3783 0bea CD010000 		.4byte	.LASF184
 3784 0bee 0C       		.byte	0xc
 3785 0bef 9D       		.byte	0x9d
 3786 0bf0 85030000 		.4byte	0x385
 3787 0bf4 03       		.byte	0x3
 3788 0bf5 23       		.byte	0x23
 3789 0bf6 9810     		.uleb128 0x818
ARM GAS  /tmp/ccouNqwt.s 			page 68


 3790 0bf8 09       		.uleb128 0x9
 3791 0bf9 46080000 		.4byte	.LASF185
 3792 0bfd 0C       		.byte	0xc
 3793 0bfe 9F       		.byte	0x9f
 3794 0bff 85030000 		.4byte	0x385
 3795 0c03 03       		.byte	0x3
 3796 0c04 23       		.byte	0x23
 3797 0c05 9C10     		.uleb128 0x81c
 3798 0c07 09       		.uleb128 0x9
 3799 0c08 13040000 		.4byte	.LASF186
 3800 0c0c 0C       		.byte	0xc
 3801 0c0d A1       		.byte	0xa1
 3802 0c0e 85030000 		.4byte	0x385
 3803 0c12 03       		.byte	0x3
 3804 0c13 23       		.byte	0x23
 3805 0c14 A010     		.uleb128 0x820
 3806 0c16 09       		.uleb128 0x9
 3807 0c17 1C040000 		.4byte	.LASF187
 3808 0c1b 0C       		.byte	0xc
 3809 0c1c A2       		.byte	0xa2
 3810 0c1d 85030000 		.4byte	0x385
 3811 0c21 03       		.byte	0x3
 3812 0c22 23       		.byte	0x23
 3813 0c23 A410     		.uleb128 0x824
 3814 0c25 09       		.uleb128 0x9
 3815 0c26 4F080000 		.4byte	.LASF188
 3816 0c2a 0C       		.byte	0xc
 3817 0c2b A3       		.byte	0xa3
 3818 0c2c 85030000 		.4byte	0x385
 3819 0c30 03       		.byte	0x3
 3820 0c31 23       		.byte	0x23
 3821 0c32 A810     		.uleb128 0x828
 3822 0c34 09       		.uleb128 0x9
 3823 0c35 25040000 		.4byte	.LASF189
 3824 0c39 0C       		.byte	0xc
 3825 0c3a A5       		.byte	0xa5
 3826 0c3b 85030000 		.4byte	0x385
 3827 0c3f 03       		.byte	0x3
 3828 0c40 23       		.byte	0x23
 3829 0c41 AC10     		.uleb128 0x82c
 3830 0c43 09       		.uleb128 0x9
 3831 0c44 4A060000 		.4byte	.LASF190
 3832 0c48 0C       		.byte	0xc
 3833 0c49 A7       		.byte	0xa7
 3834 0c4a 85030000 		.4byte	0x385
 3835 0c4e 03       		.byte	0x3
 3836 0c4f 23       		.byte	0x23
 3837 0c50 B010     		.uleb128 0x830
 3838 0c52 09       		.uleb128 0x9
 3839 0c53 3E040000 		.4byte	.LASF191
 3840 0c57 0C       		.byte	0xc
 3841 0c58 A8       		.byte	0xa8
 3842 0c59 85030000 		.4byte	0x385
 3843 0c5d 03       		.byte	0x3
 3844 0c5e 23       		.byte	0x23
 3845 0c5f B410     		.uleb128 0x834
 3846 0c61 09       		.uleb128 0x9
ARM GAS  /tmp/ccouNqwt.s 			page 69


 3847 0c62 A6040000 		.4byte	.LASF192
 3848 0c66 0C       		.byte	0xc
 3849 0c67 AA       		.byte	0xaa
 3850 0c68 85030000 		.4byte	0x385
 3851 0c6c 03       		.byte	0x3
 3852 0c6d 23       		.byte	0x23
 3853 0c6e B810     		.uleb128 0x838
 3854 0c70 09       		.uleb128 0x9
 3855 0c71 79060000 		.4byte	.LASF193
 3856 0c75 0C       		.byte	0xc
 3857 0c76 AB       		.byte	0xab
 3858 0c77 85030000 		.4byte	0x385
 3859 0c7b 03       		.byte	0x3
 3860 0c7c 23       		.byte	0x23
 3861 0c7d BC10     		.uleb128 0x83c
 3862 0c7f 09       		.uleb128 0x9
 3863 0c80 F6040000 		.4byte	.LASF194
 3864 0c84 0C       		.byte	0xc
 3865 0c85 AC       		.byte	0xac
 3866 0c86 930D0000 		.4byte	0xd93
 3867 0c8a 03       		.byte	0x3
 3868 0c8b 23       		.byte	0x23
 3869 0c8c C010     		.uleb128 0x840
 3870 0c8e 09       		.uleb128 0x9
 3871 0c8f 63060000 		.4byte	.LASF195
 3872 0c93 0C       		.byte	0xc
 3873 0c94 AD       		.byte	0xad
 3874 0c95 980D0000 		.4byte	0xd98
 3875 0c99 03       		.byte	0x3
 3876 0c9a 23       		.byte	0x23
 3877 0c9b 8011     		.uleb128 0x880
 3878 0c9d 09       		.uleb128 0x9
 3879 0c9e 0D0A0000 		.4byte	.LASF196
 3880 0ca2 0C       		.byte	0xc
 3881 0ca3 AE       		.byte	0xae
 3882 0ca4 9D0D0000 		.4byte	0xd9d
 3883 0ca8 03       		.byte	0x3
 3884 0ca9 23       		.byte	0x23
 3885 0caa C011     		.uleb128 0x8c0
 3886 0cac 0A       		.uleb128 0xa
 3887 0cad 696500   		.ascii	"ie\000"
 3888 0cb0 0C       		.byte	0xc
 3889 0cb1 AF       		.byte	0xaf
 3890 0cb2 A20D0000 		.4byte	0xda2
 3891 0cb6 03       		.byte	0x3
 3892 0cb7 23       		.byte	0x23
 3893 0cb8 8012     		.uleb128 0x900
 3894 0cba 0A       		.uleb128 0xa
 3895 0cbb 6F6500   		.ascii	"oe\000"
 3896 0cbe 0C       		.byte	0xc
 3897 0cbf B0       		.byte	0xb0
 3898 0cc0 B20D0000 		.4byte	0xdb2
 3899 0cc4 03       		.byte	0x3
 3900 0cc5 23       		.byte	0x23
 3901 0cc6 8016     		.uleb128 0xb00
 3902 0cc8 09       		.uleb128 0x9
 3903 0cc9 9F070000 		.4byte	.LASF197
ARM GAS  /tmp/ccouNqwt.s 			page 70


 3904 0ccd 0C       		.byte	0xc
 3905 0cce B1       		.byte	0xb1
 3906 0ccf C20D0000 		.4byte	0xdc2
 3907 0cd3 03       		.byte	0x3
 3908 0cd4 23       		.byte	0x23
 3909 0cd5 801A     		.uleb128 0xd00
 3910 0cd7 09       		.uleb128 0x9
 3911 0cd8 02060000 		.4byte	.LASF198
 3912 0cdc 0C       		.byte	0xc
 3913 0cdd B2       		.byte	0xb2
 3914 0cde 85030000 		.4byte	0x385
 3915 0ce2 03       		.byte	0x3
 3916 0ce3 23       		.byte	0x23
 3917 0ce4 801C     		.uleb128 0xe00
 3918 0ce6 09       		.uleb128 0x9
 3919 0ce7 FC090000 		.4byte	.LASF199
 3920 0ceb 0C       		.byte	0xc
 3921 0cec B4       		.byte	0xb4
 3922 0ced D70D0000 		.4byte	0xdd7
 3923 0cf1 03       		.byte	0x3
 3924 0cf2 23       		.byte	0x23
 3925 0cf3 841C     		.uleb128 0xe04
 3926 0cf5 09       		.uleb128 0x9
 3927 0cf6 A8080000 		.4byte	.LASF200
 3928 0cfa 0C       		.byte	0xc
 3929 0cfb B5       		.byte	0xb5
 3930 0cfc F30D0000 		.4byte	0xdf3
 3931 0d00 03       		.byte	0x3
 3932 0d01 23       		.byte	0x23
 3933 0d02 8020     		.uleb128 0x1000
 3934 0d04 00       		.byte	0
 3935 0d05 13       		.uleb128 0x13
 3936 0d06 B6000000 		.4byte	0xb6
 3937 0d0a 150D0000 		.4byte	0xd15
 3938 0d0e 14       		.uleb128 0x14
 3939 0d0f 68000000 		.4byte	0x68
 3940 0d13 2F       		.byte	0x2f
 3941 0d14 00       		.byte	0
 3942 0d15 0E       		.uleb128 0xe
 3943 0d16 050D0000 		.4byte	0xd05
 3944 0d1a 0E       		.uleb128 0xe
 3945 0d1b E4040000 		.4byte	0x4e4
 3946 0d1f 13       		.uleb128 0x13
 3947 0d20 B6000000 		.4byte	0xb6
 3948 0d24 2F0D0000 		.4byte	0xd2f
 3949 0d28 14       		.uleb128 0x14
 3950 0d29 68000000 		.4byte	0x68
 3951 0d2d AF       		.byte	0xaf
 3952 0d2e 00       		.byte	0
 3953 0d2f 0E       		.uleb128 0xe
 3954 0d30 1F0D0000 		.4byte	0xd1f
 3955 0d34 13       		.uleb128 0x13
 3956 0d35 B6000000 		.4byte	0xb6
 3957 0d39 440D0000 		.4byte	0xd44
 3958 0d3d 14       		.uleb128 0x14
 3959 0d3e 68000000 		.4byte	0x68
 3960 0d42 08       		.byte	0x8
ARM GAS  /tmp/ccouNqwt.s 			page 71


 3961 0d43 00       		.byte	0
 3962 0d44 0E       		.uleb128 0xe
 3963 0d45 340D0000 		.4byte	0xd34
 3964 0d49 13       		.uleb128 0x13
 3965 0d4a B6000000 		.4byte	0xb6
 3966 0d4e 590D0000 		.4byte	0xd59
 3967 0d52 14       		.uleb128 0x14
 3968 0d53 68000000 		.4byte	0x68
 3969 0d57 2E       		.byte	0x2e
 3970 0d58 00       		.byte	0
 3971 0d59 0E       		.uleb128 0xe
 3972 0d5a 490D0000 		.4byte	0xd49
 3973 0d5e 13       		.uleb128 0x13
 3974 0d5f A3080000 		.4byte	0x8a3
 3975 0d63 6E0D0000 		.4byte	0xd6e
 3976 0d67 14       		.uleb128 0x14
 3977 0d68 68000000 		.4byte	0x68
 3978 0d6c 0F       		.byte	0xf
 3979 0d6d 00       		.byte	0
 3980 0d6e 13       		.uleb128 0x13
 3981 0d6f B6000000 		.4byte	0xb6
 3982 0d73 7E0D0000 		.4byte	0xd7e
 3983 0d77 14       		.uleb128 0x14
 3984 0d78 68000000 		.4byte	0x68
 3985 0d7c 3F       		.byte	0x3f
 3986 0d7d 00       		.byte	0
 3987 0d7e 0E       		.uleb128 0xe
 3988 0d7f 6E0D0000 		.4byte	0xd6e
 3989 0d83 13       		.uleb128 0x13
 3990 0d84 B6000000 		.4byte	0xb6
 3991 0d88 930D0000 		.4byte	0xd93
 3992 0d8c 14       		.uleb128 0x14
 3993 0d8d 68000000 		.4byte	0x68
 3994 0d91 0F       		.byte	0xf
 3995 0d92 00       		.byte	0
 3996 0d93 0E       		.uleb128 0xe
 3997 0d94 830D0000 		.4byte	0xd83
 3998 0d98 0E       		.uleb128 0xe
 3999 0d99 830D0000 		.4byte	0xd83
 4000 0d9d 0E       		.uleb128 0xe
 4001 0d9e 830D0000 		.4byte	0xd83
 4002 0da2 13       		.uleb128 0x13
 4003 0da3 27090000 		.4byte	0x927
 4004 0da7 B20D0000 		.4byte	0xdb2
 4005 0dab 14       		.uleb128 0x14
 4006 0dac 68000000 		.4byte	0x68
 4007 0db0 0F       		.byte	0xf
 4008 0db1 00       		.byte	0
 4009 0db2 13       		.uleb128 0x13
 4010 0db3 AB090000 		.4byte	0x9ab
 4011 0db7 C20D0000 		.4byte	0xdc2
 4012 0dbb 14       		.uleb128 0x14
 4013 0dbc 68000000 		.4byte	0x68
 4014 0dc0 0F       		.byte	0xf
 4015 0dc1 00       		.byte	0
 4016 0dc2 0E       		.uleb128 0xe
 4017 0dc3 6E0D0000 		.4byte	0xd6e
ARM GAS  /tmp/ccouNqwt.s 			page 72


 4018 0dc7 13       		.uleb128 0x13
 4019 0dc8 B6000000 		.4byte	0xb6
 4020 0dcc D70D0000 		.4byte	0xdd7
 4021 0dd0 14       		.uleb128 0x14
 4022 0dd1 68000000 		.4byte	0x68
 4023 0dd5 7E       		.byte	0x7e
 4024 0dd6 00       		.byte	0
 4025 0dd7 0E       		.uleb128 0xe
 4026 0dd8 C70D0000 		.4byte	0xdc7
 4027 0ddc 13       		.uleb128 0x13
 4028 0ddd B6000000 		.4byte	0xb6
 4029 0de1 F30D0000 		.4byte	0xdf3
 4030 0de5 14       		.uleb128 0x14
 4031 0de6 68000000 		.4byte	0x68
 4032 0dea 0F       		.byte	0xf
 4033 0deb 1E       		.uleb128 0x1e
 4034 0dec 68000000 		.4byte	0x68
 4035 0df0 FF03     		.2byte	0x3ff
 4036 0df2 00       		.byte	0
 4037 0df3 0E       		.uleb128 0xe
 4038 0df4 DC0D0000 		.4byte	0xddc
 4039 0df8 07       		.uleb128 0x7
 4040 0df9 D6060000 		.4byte	.LASF201
 4041 0dfd 0C       		.byte	0xc
 4042 0dfe B6       		.byte	0xb6
 4043 0dff B6090000 		.4byte	0x9b6
 4044 0e03 0B       		.uleb128 0xb
 4045 0e04 0C       		.byte	0xc
 4046 0e05 0B       		.byte	0xb
 4047 0e06 BC       		.byte	0xbc
 4048 0e07 360E0000 		.4byte	0xe36
 4049 0e0b 09       		.uleb128 0x9
 4050 0e0c 33000000 		.4byte	.LASF202
 4051 0e10 0B       		.byte	0xb
 4052 0e11 BD       		.byte	0xbd
 4053 0e12 B6000000 		.4byte	0xb6
 4054 0e16 02       		.byte	0x2
 4055 0e17 23       		.byte	0x23
 4056 0e18 00       		.uleb128 0
 4057 0e19 09       		.uleb128 0x9
 4058 0e1a 6A080000 		.4byte	.LASF203
 4059 0e1e 0B       		.byte	0xb
 4060 0e1f BE       		.byte	0xbe
 4061 0e20 B6000000 		.4byte	0xb6
 4062 0e24 02       		.byte	0x2
 4063 0e25 23       		.byte	0x23
 4064 0e26 04       		.uleb128 0x4
 4065 0e27 09       		.uleb128 0x9
 4066 0e28 7D050000 		.4byte	.LASF204
 4067 0e2c 0B       		.byte	0xb
 4068 0e2d BF       		.byte	0xbf
 4069 0e2e B6000000 		.4byte	0xb6
 4070 0e32 02       		.byte	0x2
 4071 0e33 23       		.byte	0x23
 4072 0e34 08       		.uleb128 0x8
 4073 0e35 00       		.byte	0
 4074 0e36 07       		.uleb128 0x7
ARM GAS  /tmp/ccouNqwt.s 			page 73


 4075 0e37 68040000 		.4byte	.LASF205
 4076 0e3b 0B       		.byte	0xb
 4077 0e3c C0       		.byte	0xc0
 4078 0e3d 030E0000 		.4byte	0xe03
 4079 0e41 0B       		.uleb128 0xb
 4080 0e42 04       		.byte	0x4
 4081 0e43 0B       		.byte	0xb
 4082 0e44 D3       		.byte	0xd3
 4083 0e45 580E0000 		.4byte	0xe58
 4084 0e49 09       		.uleb128 0x9
 4085 0e4a BE010000 		.4byte	.LASF206
 4086 0e4e 0B       		.byte	0xb
 4087 0e4f D7       		.byte	0xd7
 4088 0e50 D9040000 		.4byte	0x4d9
 4089 0e54 02       		.byte	0x2
 4090 0e55 23       		.byte	0x23
 4091 0e56 00       		.uleb128 0
 4092 0e57 00       		.byte	0
 4093 0e58 0B       		.uleb128 0xb
 4094 0e59 04       		.byte	0x4
 4095 0e5a 0B       		.byte	0xb
 4096 0e5b D9       		.byte	0xd9
 4097 0e5c 6F0E0000 		.4byte	0xe6f
 4098 0e60 09       		.uleb128 0x9
 4099 0e61 51090000 		.4byte	.LASF207
 4100 0e65 0B       		.byte	0xb
 4101 0e66 DD       		.byte	0xdd
 4102 0e67 6F0E0000 		.4byte	0xe6f
 4103 0e6b 02       		.byte	0x2
 4104 0e6c 23       		.byte	0x23
 4105 0e6d 00       		.uleb128 0
 4106 0e6e 00       		.byte	0
 4107 0e6f 05       		.uleb128 0x5
 4108 0e70 04       		.byte	0x4
 4109 0e71 CE040000 		.4byte	0x4ce
 4110 0e75 0F       		.uleb128 0xf
 4111 0e76 04       		.byte	0x4
 4112 0e77 0B       		.byte	0xb
 4113 0e78 D2       		.byte	0xd2
 4114 0e79 940E0000 		.4byte	0xe94
 4115 0e7d 10       		.uleb128 0x10
 4116 0e7e DF070000 		.4byte	.LASF208
 4117 0e82 0B       		.byte	0xb
 4118 0e83 D8       		.byte	0xd8
 4119 0e84 410E0000 		.4byte	0xe41
 4120 0e88 10       		.uleb128 0x10
 4121 0e89 38080000 		.4byte	.LASF209
 4122 0e8d 0B       		.byte	0xb
 4123 0e8e DE       		.byte	0xde
 4124 0e8f 580E0000 		.4byte	0xe58
 4125 0e93 00       		.byte	0
 4126 0e94 0B       		.uleb128 0xb
 4127 0e95 10       		.byte	0x10
 4128 0e96 0B       		.byte	0xb
 4129 0e97 C5       		.byte	0xc5
 4130 0e98 D50E0000 		.4byte	0xed5
 4131 0e9c 09       		.uleb128 0x9
ARM GAS  /tmp/ccouNqwt.s 			page 74


 4132 0e9d 0A0B0000 		.4byte	.LASF210
 4133 0ea1 0B       		.byte	0xb
 4134 0ea2 C9       		.byte	0xc9
 4135 0ea3 CC000000 		.4byte	0xcc
 4136 0ea7 02       		.byte	0x2
 4137 0ea8 23       		.byte	0x23
 4138 0ea9 00       		.uleb128 0
 4139 0eaa 09       		.uleb128 0x9
 4140 0eab 93050000 		.4byte	.LASF211
 4141 0eaf 0B       		.byte	0xb
 4142 0eb0 CD       		.byte	0xcd
 4143 0eb1 8A000000 		.4byte	0x8a
 4144 0eb5 02       		.byte	0x2
 4145 0eb6 23       		.byte	0x23
 4146 0eb7 04       		.uleb128 0x4
 4147 0eb8 09       		.uleb128 0x9
 4148 0eb9 89010000 		.4byte	.LASF212
 4149 0ebd 0B       		.byte	0xb
 4150 0ebe D1       		.byte	0xd1
 4151 0ebf 8A000000 		.4byte	0x8a
 4152 0ec3 02       		.byte	0x2
 4153 0ec4 23       		.byte	0x23
 4154 0ec5 08       		.uleb128 0x8
 4155 0ec6 09       		.uleb128 0x9
 4156 0ec7 24090000 		.4byte	.LASF213
 4157 0ecb 0B       		.byte	0xb
 4158 0ecc DF       		.byte	0xdf
 4159 0ecd 750E0000 		.4byte	0xe75
 4160 0ed1 02       		.byte	0x2
 4161 0ed2 23       		.byte	0x23
 4162 0ed3 0C       		.uleb128 0xc
 4163 0ed4 00       		.byte	0
 4164 0ed5 07       		.uleb128 0x7
 4165 0ed6 00040000 		.4byte	.LASF214
 4166 0eda 0B       		.byte	0xb
 4167 0edb E0       		.byte	0xe0
 4168 0edc 940E0000 		.4byte	0xe94
 4169 0ee0 0B       		.uleb128 0xb
 4170 0ee1 04       		.byte	0x4
 4171 0ee2 0B       		.byte	0xb
 4172 0ee3 F3       		.byte	0xf3
 4173 0ee4 F70E0000 		.4byte	0xef7
 4174 0ee8 09       		.uleb128 0x9
 4175 0ee9 D2050000 		.4byte	.LASF215
 4176 0eed 0B       		.byte	0xb
 4177 0eee F7       		.byte	0xf7
 4178 0eef BD040000 		.4byte	0x4bd
 4179 0ef3 02       		.byte	0x2
 4180 0ef4 23       		.byte	0x23
 4181 0ef5 00       		.uleb128 0
 4182 0ef6 00       		.byte	0
 4183 0ef7 0B       		.uleb128 0xb
 4184 0ef8 04       		.byte	0x4
 4185 0ef9 0B       		.byte	0xb
 4186 0efa F9       		.byte	0xf9
 4187 0efb 0E0F0000 		.4byte	0xf0e
 4188 0eff 09       		.uleb128 0x9
ARM GAS  /tmp/ccouNqwt.s 			page 75


 4189 0f00 3E080000 		.4byte	.LASF216
 4190 0f04 0B       		.byte	0xb
 4191 0f05 FD       		.byte	0xfd
 4192 0f06 0E0F0000 		.4byte	0xf0e
 4193 0f0a 02       		.byte	0x2
 4194 0f0b 23       		.byte	0x23
 4195 0f0c 00       		.uleb128 0
 4196 0f0d 00       		.byte	0
 4197 0f0e 05       		.uleb128 0x5
 4198 0f0f 04       		.byte	0x4
 4199 0f10 C3040000 		.4byte	0x4c3
 4200 0f14 0F       		.uleb128 0xf
 4201 0f15 04       		.byte	0x4
 4202 0f16 0B       		.byte	0xb
 4203 0f17 F2       		.byte	0xf2
 4204 0f18 330F0000 		.4byte	0xf33
 4205 0f1c 10       		.uleb128 0x10
 4206 0f1d DF070000 		.4byte	.LASF208
 4207 0f21 0B       		.byte	0xb
 4208 0f22 F8       		.byte	0xf8
 4209 0f23 E00E0000 		.4byte	0xee0
 4210 0f27 10       		.uleb128 0x10
 4211 0f28 38080000 		.4byte	.LASF209
 4212 0f2c 0B       		.byte	0xb
 4213 0f2d FE       		.byte	0xfe
 4214 0f2e F70E0000 		.4byte	0xef7
 4215 0f32 00       		.byte	0
 4216 0f33 0B       		.uleb128 0xb
 4217 0f34 10       		.byte	0x10
 4218 0f35 0B       		.byte	0xb
 4219 0f36 E5       		.byte	0xe5
 4220 0f37 740F0000 		.4byte	0xf74
 4221 0f3b 09       		.uleb128 0x9
 4222 0f3c 0C080000 		.4byte	.LASF217
 4223 0f40 0B       		.byte	0xb
 4224 0f41 E9       		.byte	0xe9
 4225 0f42 CC000000 		.4byte	0xcc
 4226 0f46 02       		.byte	0x2
 4227 0f47 23       		.byte	0x23
 4228 0f48 00       		.uleb128 0
 4229 0f49 09       		.uleb128 0x9
 4230 0f4a 72020000 		.4byte	.LASF218
 4231 0f4e 0B       		.byte	0xb
 4232 0f4f ED       		.byte	0xed
 4233 0f50 8A000000 		.4byte	0x8a
 4234 0f54 02       		.byte	0x2
 4235 0f55 23       		.byte	0x23
 4236 0f56 04       		.uleb128 0x4
 4237 0f57 09       		.uleb128 0x9
 4238 0f58 A2050000 		.4byte	.LASF219
 4239 0f5c 0B       		.byte	0xb
 4240 0f5d F1       		.byte	0xf1
 4241 0f5e 8A000000 		.4byte	0x8a
 4242 0f62 02       		.byte	0x2
 4243 0f63 23       		.byte	0x23
 4244 0f64 08       		.uleb128 0x8
 4245 0f65 09       		.uleb128 0x9
ARM GAS  /tmp/ccouNqwt.s 			page 76


 4246 0f66 24090000 		.4byte	.LASF213
 4247 0f6a 0B       		.byte	0xb
 4248 0f6b FF       		.byte	0xff
 4249 0f6c 140F0000 		.4byte	0xf14
 4250 0f70 02       		.byte	0x2
 4251 0f71 23       		.byte	0x23
 4252 0f72 0C       		.uleb128 0xc
 4253 0f73 00       		.byte	0
 4254 0f74 19       		.uleb128 0x19
 4255 0f75 83070000 		.4byte	.LASF220
 4256 0f79 0B       		.byte	0xb
 4257 0f7a 0001     		.2byte	0x100
 4258 0f7c 330F0000 		.4byte	0xf33
 4259 0f80 1B       		.uleb128 0x1b
 4260 0f81 24       		.byte	0x24
 4261 0f82 0B       		.byte	0xb
 4262 0f83 0601     		.2byte	0x106
 4263 0f85 20100000 		.4byte	0x1020
 4264 0f89 16       		.uleb128 0x16
 4265 0f8a D8000000 		.4byte	.LASF221
 4266 0f8e 0B       		.byte	0xb
 4267 0f8f 0A01     		.2byte	0x10a
 4268 0f91 B6000000 		.4byte	0xb6
 4269 0f95 02       		.byte	0x2
 4270 0f96 23       		.byte	0x23
 4271 0f97 00       		.uleb128 0
 4272 0f98 16       		.uleb128 0x16
 4273 0f99 7F030000 		.4byte	.LASF222
 4274 0f9d 0B       		.byte	0xb
 4275 0f9e 1501     		.2byte	0x115
 4276 0fa0 86070000 		.4byte	0x786
 4277 0fa4 02       		.byte	0x2
 4278 0fa5 23       		.byte	0x23
 4279 0fa6 04       		.uleb128 0x4
 4280 0fa7 16       		.uleb128 0x16
 4281 0fa8 92030000 		.4byte	.LASF223
 4282 0fac 0B       		.byte	0xb
 4283 0fad 1B01     		.2byte	0x11b
 4284 0faf 86070000 		.4byte	0x786
 4285 0fb3 02       		.byte	0x2
 4286 0fb4 23       		.byte	0x23
 4287 0fb5 08       		.uleb128 0x8
 4288 0fb6 16       		.uleb128 0x16
 4289 0fb7 08070000 		.4byte	.LASF224
 4290 0fbb 0B       		.byte	0xb
 4291 0fbc 2101     		.2byte	0x121
 4292 0fbe 86070000 		.4byte	0x786
 4293 0fc2 02       		.byte	0x2
 4294 0fc3 23       		.byte	0x23
 4295 0fc4 0C       		.uleb128 0xc
 4296 0fc5 16       		.uleb128 0x16
 4297 0fc6 2B070000 		.4byte	.LASF225
 4298 0fca 0B       		.byte	0xb
 4299 0fcb 2701     		.2byte	0x127
 4300 0fcd A0000000 		.4byte	0xa0
 4301 0fd1 02       		.byte	0x2
 4302 0fd2 23       		.byte	0x23
ARM GAS  /tmp/ccouNqwt.s 			page 77


 4303 0fd3 10       		.uleb128 0x10
 4304 0fd4 16       		.uleb128 0x16
 4305 0fd5 9F010000 		.4byte	.LASF226
 4306 0fd9 0B       		.byte	0xb
 4307 0fda 2D01     		.2byte	0x12d
 4308 0fdc A0000000 		.4byte	0xa0
 4309 0fe0 02       		.byte	0x2
 4310 0fe1 23       		.byte	0x23
 4311 0fe2 12       		.uleb128 0x12
 4312 0fe3 16       		.uleb128 0x16
 4313 0fe4 E0050000 		.4byte	.LASF227
 4314 0fe8 0B       		.byte	0xb
 4315 0fe9 3201     		.2byte	0x132
 4316 0feb 20100000 		.4byte	0x1020
 4317 0fef 02       		.byte	0x2
 4318 0ff0 23       		.byte	0x23
 4319 0ff1 14       		.uleb128 0x14
 4320 0ff2 16       		.uleb128 0x16
 4321 0ff3 45070000 		.4byte	.LASF228
 4322 0ff7 0B       		.byte	0xb
 4323 0ff8 3701     		.2byte	0x137
 4324 0ffa 26100000 		.4byte	0x1026
 4325 0ffe 02       		.byte	0x2
 4326 0fff 23       		.byte	0x23
 4327 1000 18       		.uleb128 0x18
 4328 1001 16       		.uleb128 0x16
 4329 1002 6A050000 		.4byte	.LASF229
 4330 1006 0B       		.byte	0xb
 4331 1007 3E01     		.2byte	0x13e
 4332 1009 A0000000 		.4byte	0xa0
 4333 100d 02       		.byte	0x2
 4334 100e 23       		.byte	0x23
 4335 100f 1C       		.uleb128 0x1c
 4336 1010 16       		.uleb128 0x16
 4337 1011 E9060000 		.4byte	.LASF230
 4338 1015 0B       		.byte	0xb
 4339 1016 4401     		.2byte	0x144
 4340 1018 BD040000 		.4byte	0x4bd
 4341 101c 02       		.byte	0x2
 4342 101d 23       		.byte	0x23
 4343 101e 20       		.uleb128 0x20
 4344 101f 00       		.byte	0
 4345 1020 05       		.uleb128 0x5
 4346 1021 04       		.byte	0x4
 4347 1022 D50E0000 		.4byte	0xed5
 4348 1026 05       		.uleb128 0x5
 4349 1027 04       		.byte	0x4
 4350 1028 740F0000 		.4byte	0xf74
 4351 102c 19       		.uleb128 0x19
 4352 102d F1070000 		.4byte	.LASF231
 4353 1031 0B       		.byte	0xb
 4354 1032 4501     		.2byte	0x145
 4355 1034 800F0000 		.4byte	0xf80
 4356 1038 1B       		.uleb128 0x1b
 4357 1039 10       		.byte	0x10
 4358 103a 0B       		.byte	0xb
 4359 103b 4A01     		.2byte	0x14a
ARM GAS  /tmp/ccouNqwt.s 			page 78


 4360 103d 7E100000 		.4byte	0x107e
 4361 1041 16       		.uleb128 0x16
 4362 1042 0A060000 		.4byte	.LASF232
 4363 1046 0B       		.byte	0xb
 4364 1047 4F01     		.2byte	0x14f
 4365 1049 A9070000 		.4byte	0x7a9
 4366 104d 02       		.byte	0x2
 4367 104e 23       		.byte	0x23
 4368 104f 00       		.uleb128 0
 4369 1050 16       		.uleb128 0x16
 4370 1051 6D0A0000 		.4byte	.LASF233
 4371 1055 0B       		.byte	0xb
 4372 1056 5401     		.2byte	0x154
 4373 1058 EE070000 		.4byte	0x7ee
 4374 105c 02       		.byte	0x2
 4375 105d 23       		.byte	0x23
 4376 105e 04       		.uleb128 0x4
 4377 105f 16       		.uleb128 0x16
 4378 1060 C4020000 		.4byte	.LASF234
 4379 1064 0B       		.byte	0xb
 4380 1065 5A01     		.2byte	0x15a
 4381 1067 CC070000 		.4byte	0x7cc
 4382 106b 02       		.byte	0x2
 4383 106c 23       		.byte	0x23
 4384 106d 08       		.uleb128 0x8
 4385 106e 16       		.uleb128 0x16
 4386 106f F5090000 		.4byte	.LASF235
 4387 1073 0B       		.byte	0xb
 4388 1074 5E01     		.2byte	0x15e
 4389 1076 62070000 		.4byte	0x762
 4390 107a 02       		.byte	0x2
 4391 107b 23       		.byte	0x23
 4392 107c 0C       		.uleb128 0xc
 4393 107d 00       		.byte	0
 4394 107e 19       		.uleb128 0x19
 4395 107f BA060000 		.4byte	.LASF236
 4396 1083 0B       		.byte	0xb
 4397 1084 6001     		.2byte	0x160
 4398 1086 38100000 		.4byte	0x1038
 4399 108a 05       		.uleb128 0x5
 4400 108b 04       		.byte	0x4
 4401 108c 90100000 		.4byte	0x1090
 4402 1090 06       		.uleb128 0x6
 4403 1091 7E100000 		.4byte	0x107e
 4404 1095 13       		.uleb128 0x13
 4405 1096 A5100000 		.4byte	0x10a5
 4406 109a A5100000 		.4byte	0x10a5
 4407 109e 14       		.uleb128 0x14
 4408 109f 68000000 		.4byte	0x68
 4409 10a3 03       		.byte	0x3
 4410 10a4 00       		.byte	0
 4411 10a5 05       		.uleb128 0x5
 4412 10a6 04       		.byte	0x4
 4413 10a7 AB100000 		.4byte	0x10ab
 4414 10ab 06       		.uleb128 0x6
 4415 10ac 2C100000 		.4byte	0x102c
 4416 10b0 13       		.uleb128 0x13
ARM GAS  /tmp/ccouNqwt.s 			page 79


 4417 10b1 6F000000 		.4byte	0x6f
 4418 10b5 C0100000 		.4byte	0x10c0
 4419 10b9 14       		.uleb128 0x14
 4420 10ba 68000000 		.4byte	0x68
 4421 10be 02       		.byte	0x2
 4422 10bf 00       		.byte	0
 4423 10c0 13       		.uleb128 0x13
 4424 10c1 95000000 		.4byte	0x95
 4425 10c5 D0100000 		.4byte	0x10d0
 4426 10c9 14       		.uleb128 0x14
 4427 10ca 68000000 		.4byte	0x68
 4428 10ce 07       		.byte	0x7
 4429 10cf 00       		.byte	0
 4430 10d0 05       		.uleb128 0x5
 4431 10d1 04       		.byte	0x4
 4432 10d2 F80D0000 		.4byte	0xdf8
 4433 10d6 05       		.uleb128 0x5
 4434 10d7 04       		.byte	0x4
 4435 10d8 DC100000 		.4byte	0x10dc
 4436 10dc 06       		.uleb128 0x6
 4437 10dd 360E0000 		.4byte	0xe36
 4438 10e1 13       		.uleb128 0x13
 4439 10e2 C9020000 		.4byte	0x2c9
 4440 10e6 F1100000 		.4byte	0x10f1
 4441 10ea 14       		.uleb128 0x14
 4442 10eb 68000000 		.4byte	0x68
 4443 10ef 25       		.byte	0x25
 4444 10f0 00       		.byte	0
 4445 10f1 1F       		.uleb128 0x1f
 4446 10f2 87080000 		.4byte	.LASF262
 4447 10f6 01       		.byte	0x1
 4448 10f7 3E       		.byte	0x3e
 4449 10f8 01       		.byte	0x1
 4450 10f9 00000000 		.4byte	.LFB118
 4451 10fd 3C000000 		.4byte	.LFE118
 4452 1101 00000000 		.4byte	.LLST0
 4453 1105 01       		.byte	0x1
 4454 1106 19110000 		.4byte	0x1119
 4455 110a 20       		.uleb128 0x20
 4456 110b 78050000 		.4byte	.LASF237
 4457 110f 01       		.byte	0x1
 4458 1110 3E       		.byte	0x3e
 4459 1111 80070000 		.4byte	0x780
 4460 1115 02       		.byte	0x2
 4461 1116 91       		.byte	0x91
 4462 1117 74       		.sleb128 -12
 4463 1118 00       		.byte	0
 4464 1119 21       		.uleb128 0x21
 4465 111a 77080000 		.4byte	.LASF263
 4466 111e 01       		.byte	0x1
 4467 111f 52       		.byte	0x52
 4468 1120 01       		.byte	0x1
 4469 1121 CC000000 		.4byte	0xcc
 4470 1125 00000000 		.4byte	.LFB119
 4471 1129 32040000 		.4byte	.LFE119
 4472 112d 2C000000 		.4byte	.LLST1
 4473 1131 01       		.byte	0x1
ARM GAS  /tmp/ccouNqwt.s 			page 80


 4474 1132 52110000 		.4byte	0x1152
 4475 1136 20       		.uleb128 0x20
 4476 1137 78050000 		.4byte	.LASF237
 4477 113b 01       		.byte	0x1
 4478 113c 52       		.byte	0x52
 4479 113d 80070000 		.4byte	0x780
 4480 1141 02       		.byte	0x2
 4481 1142 91       		.byte	0x91
 4482 1143 6C       		.sleb128 -20
 4483 1144 22       		.uleb128 0x22
 4484 1145 647000   		.ascii	"dp\000"
 4485 1148 01       		.byte	0x1
 4486 1149 53       		.byte	0x53
 4487 114a 1F080000 		.4byte	0x81f
 4488 114e 02       		.byte	0x2
 4489 114f 91       		.byte	0x91
 4490 1150 74       		.sleb128 -12
 4491 1151 00       		.byte	0
 4492 1152 23       		.uleb128 0x23
 4493 1153 01       		.byte	0x1
 4494 1154 97070000 		.4byte	.LASF264
 4495 1158 01       		.byte	0x1
 4496 1159 E4       		.byte	0xe4
 4497 115a 01       		.byte	0x1
 4498 115b 00000000 		.4byte	.LFB120
 4499 115f 08000000 		.4byte	.LFE120
 4500 1163 58000000 		.4byte	.LLST2
 4501 1167 01       		.byte	0x1
 4502 1168 24       		.uleb128 0x24
 4503 1169 01       		.byte	0x1
 4504 116a F1010000 		.4byte	.LASF238
 4505 116e 01       		.byte	0x1
 4506 116f F0       		.byte	0xf0
 4507 1170 01       		.byte	0x1
 4508 1171 00000000 		.4byte	.LFB121
 4509 1175 62000000 		.4byte	.LFE121
 4510 1179 78000000 		.4byte	.LLST3
 4511 117d 01       		.byte	0x1
 4512 117e 9D110000 		.4byte	0x119d
 4513 1182 20       		.uleb128 0x20
 4514 1183 78050000 		.4byte	.LASF237
 4515 1187 01       		.byte	0x1
 4516 1188 F0       		.byte	0xf0
 4517 1189 80070000 		.4byte	0x780
 4518 118d 02       		.byte	0x2
 4519 118e 91       		.byte	0x91
 4520 118f 74       		.sleb128 -12
 4521 1190 22       		.uleb128 0x22
 4522 1191 6900     		.ascii	"i\000"
 4523 1193 01       		.byte	0x1
 4524 1194 F1       		.byte	0xf1
 4525 1195 4C000000 		.4byte	0x4c
 4526 1199 02       		.byte	0x2
 4527 119a 91       		.byte	0x91
 4528 119b 7C       		.sleb128 -4
 4529 119c 00       		.byte	0
 4530 119d 25       		.uleb128 0x25
ARM GAS  /tmp/ccouNqwt.s 			page 81


 4531 119e 01       		.byte	0x1
 4532 119f AD080000 		.4byte	.LASF239
 4533 11a3 01       		.byte	0x1
 4534 11a4 0501     		.2byte	0x105
 4535 11a6 01       		.byte	0x1
 4536 11a7 00000000 		.4byte	.LFB122
 4537 11ab 72000000 		.4byte	.LFE122
 4538 11af 98000000 		.4byte	.LLST4
 4539 11b3 01       		.byte	0x1
 4540 11b4 18120000 		.4byte	0x1218
 4541 11b8 26       		.uleb128 0x26
 4542 11b9 78050000 		.4byte	.LASF237
 4543 11bd 01       		.byte	0x1
 4544 11be 0501     		.2byte	0x105
 4545 11c0 80070000 		.4byte	0x780
 4546 11c4 02       		.byte	0x2
 4547 11c5 91       		.byte	0x91
 4548 11c6 6C       		.sleb128 -20
 4549 11c7 26       		.uleb128 0x26
 4550 11c8 CB000000 		.4byte	.LASF75
 4551 11cc 01       		.byte	0x1
 4552 11cd 0501     		.2byte	0x105
 4553 11cf 8A100000 		.4byte	0x108a
 4554 11d3 02       		.byte	0x2
 4555 11d4 91       		.byte	0x91
 4556 11d5 68       		.sleb128 -24
 4557 11d6 27       		.uleb128 0x27
 4558 11d7 6900     		.ascii	"i\000"
 4559 11d9 01       		.byte	0x1
 4560 11da 0601     		.2byte	0x106
 4561 11dc 4C000000 		.4byte	0x4c
 4562 11e0 02       		.byte	0x2
 4563 11e1 91       		.byte	0x91
 4564 11e2 74       		.sleb128 -12
 4565 11e3 28       		.uleb128 0x28
 4566 11e4 12000000 		.4byte	.LBB2
 4567 11e8 1A000000 		.4byte	.LBE2
 4568 11ec FF110000 		.4byte	0x11ff
 4569 11f0 27       		.uleb128 0x27
 4570 11f1 746D7000 		.ascii	"tmp\000"
 4571 11f5 01       		.byte	0x1
 4572 11f6 0A01     		.2byte	0x10a
 4573 11f8 B6000000 		.4byte	0xb6
 4574 11fc 01       		.byte	0x1
 4575 11fd 53       		.byte	0x53
 4576 11fe 00       		.byte	0
 4577 11ff 29       		.uleb128 0x29
 4578 1200 66000000 		.4byte	.LBB3
 4579 1204 6E000000 		.4byte	.LBE3
 4580 1208 27       		.uleb128 0x27
 4581 1209 746D7000 		.ascii	"tmp\000"
 4582 120d 01       		.byte	0x1
 4583 120e 1201     		.2byte	0x112
 4584 1210 B6000000 		.4byte	0xb6
 4585 1214 01       		.byte	0x1
 4586 1215 53       		.byte	0x53
 4587 1216 00       		.byte	0
ARM GAS  /tmp/ccouNqwt.s 			page 82


 4588 1217 00       		.byte	0
 4589 1218 25       		.uleb128 0x25
 4590 1219 01       		.byte	0x1
 4591 121a FF020000 		.4byte	.LASF240
 4592 121e 01       		.byte	0x1
 4593 121f 1C01     		.2byte	0x11c
 4594 1221 01       		.byte	0x1
 4595 1222 00000000 		.4byte	.LFB123
 4596 1226 46000000 		.4byte	.LFE123
 4597 122a C4000000 		.4byte	.LLST5
 4598 122e 01       		.byte	0x1
 4599 122f 77120000 		.4byte	0x1277
 4600 1233 26       		.uleb128 0x26
 4601 1234 78050000 		.4byte	.LASF237
 4602 1238 01       		.byte	0x1
 4603 1239 1C01     		.2byte	0x11c
 4604 123b 80070000 		.4byte	0x780
 4605 123f 02       		.byte	0x2
 4606 1240 91       		.byte	0x91
 4607 1241 74       		.sleb128 -12
 4608 1242 28       		.uleb128 0x28
 4609 1243 06000000 		.4byte	.LBB4
 4610 1247 0E000000 		.4byte	.LBE4
 4611 124b 5E120000 		.4byte	0x125e
 4612 124f 27       		.uleb128 0x27
 4613 1250 746D7000 		.ascii	"tmp\000"
 4614 1254 01       		.byte	0x1
 4615 1255 2001     		.2byte	0x120
 4616 1257 B6000000 		.4byte	0xb6
 4617 125b 01       		.byte	0x1
 4618 125c 53       		.byte	0x53
 4619 125d 00       		.byte	0
 4620 125e 29       		.uleb128 0x29
 4621 125f 3A000000 		.4byte	.LBB5
 4622 1263 42000000 		.4byte	.LBE5
 4623 1267 27       		.uleb128 0x27
 4624 1268 746D7000 		.ascii	"tmp\000"
 4625 126c 01       		.byte	0x1
 4626 126d 2601     		.2byte	0x126
 4627 126f B6000000 		.4byte	0xb6
 4628 1273 01       		.byte	0x1
 4629 1274 53       		.byte	0x53
 4630 1275 00       		.byte	0
 4631 1276 00       		.byte	0
 4632 1277 25       		.uleb128 0x25
 4633 1278 01       		.byte	0x1
 4634 1279 27080000 		.4byte	.LASF241
 4635 127d 01       		.byte	0x1
 4636 127e 3601     		.2byte	0x136
 4637 1280 01       		.byte	0x1
 4638 1281 00000000 		.4byte	.LFB124
 4639 1285 70000000 		.4byte	.LFE124
 4640 1289 F0000000 		.4byte	.LLST6
 4641 128d 01       		.byte	0x1
 4642 128e BF120000 		.4byte	0x12bf
 4643 1292 26       		.uleb128 0x26
 4644 1293 78050000 		.4byte	.LASF237
ARM GAS  /tmp/ccouNqwt.s 			page 83


 4645 1297 01       		.byte	0x1
 4646 1298 3601     		.2byte	0x136
 4647 129a 80070000 		.4byte	0x780
 4648 129e 02       		.byte	0x2
 4649 129f 91       		.byte	0x91
 4650 12a0 74       		.sleb128 -12
 4651 12a1 2A       		.uleb128 0x2a
 4652 12a2 657000   		.ascii	"ep\000"
 4653 12a5 01       		.byte	0x1
 4654 12a6 3601     		.2byte	0x136
 4655 12a8 5D060000 		.4byte	0x65d
 4656 12ac 02       		.byte	0x2
 4657 12ad 91       		.byte	0x91
 4658 12ae 73       		.sleb128 -13
 4659 12af 26       		.uleb128 0x26
 4660 12b0 B30A0000 		.4byte	.LASF242
 4661 12b4 01       		.byte	0x1
 4662 12b5 3701     		.2byte	0x137
 4663 12b7 A5100000 		.4byte	0x10a5
 4664 12bb 02       		.byte	0x2
 4665 12bc 91       		.byte	0x91
 4666 12bd 6C       		.sleb128 -20
 4667 12be 00       		.byte	0
 4668 12bf 25       		.uleb128 0x25
 4669 12c0 01       		.byte	0x1
 4670 12c1 AF030000 		.4byte	.LASF243
 4671 12c5 01       		.byte	0x1
 4672 12c6 5701     		.2byte	0x157
 4673 12c8 01       		.byte	0x1
 4674 12c9 00000000 		.4byte	.LFB125
 4675 12cd 56000000 		.4byte	.LFE125
 4676 12d1 1C010000 		.4byte	.LLST7
 4677 12d5 01       		.byte	0x1
 4678 12d6 F7120000 		.4byte	0x12f7
 4679 12da 26       		.uleb128 0x26
 4680 12db 78050000 		.4byte	.LASF237
 4681 12df 01       		.byte	0x1
 4682 12e0 5701     		.2byte	0x157
 4683 12e2 80070000 		.4byte	0x780
 4684 12e6 02       		.byte	0x2
 4685 12e7 91       		.byte	0x91
 4686 12e8 6C       		.sleb128 -20
 4687 12e9 27       		.uleb128 0x27
 4688 12ea 6900     		.ascii	"i\000"
 4689 12ec 01       		.byte	0x1
 4690 12ed 5801     		.2byte	0x158
 4691 12ef 4C000000 		.4byte	0x4c
 4692 12f3 02       		.byte	0x2
 4693 12f4 91       		.byte	0x91
 4694 12f5 74       		.sleb128 -12
 4695 12f6 00       		.byte	0
 4696 12f7 25       		.uleb128 0x25
 4697 12f8 01       		.byte	0x1
 4698 12f9 FF080000 		.4byte	.LASF244
 4699 12fd 01       		.byte	0x1
 4700 12fe 7401     		.2byte	0x174
 4701 1300 01       		.byte	0x1
ARM GAS  /tmp/ccouNqwt.s 			page 84


 4702 1301 00000000 		.4byte	.LFB126
 4703 1305 52000000 		.4byte	.LFE126
 4704 1309 48010000 		.4byte	.LLST8
 4705 130d 01       		.byte	0x1
 4706 130e 5B130000 		.4byte	0x135b
 4707 1312 26       		.uleb128 0x26
 4708 1313 78050000 		.4byte	.LASF237
 4709 1317 01       		.byte	0x1
 4710 1318 7401     		.2byte	0x174
 4711 131a 80070000 		.4byte	0x780
 4712 131e 02       		.byte	0x2
 4713 131f 91       		.byte	0x91
 4714 1320 6C       		.sleb128 -20
 4715 1321 2A       		.uleb128 0x2a
 4716 1322 657000   		.ascii	"ep\000"
 4717 1325 01       		.byte	0x1
 4718 1326 7401     		.2byte	0x174
 4719 1328 5D060000 		.4byte	0x65d
 4720 132c 02       		.byte	0x2
 4721 132d 91       		.byte	0x91
 4722 132e 6B       		.sleb128 -21
 4723 132f 2A       		.uleb128 0x2a
 4724 1330 62756600 		.ascii	"buf\000"
 4725 1334 01       		.byte	0x1
 4726 1335 7401     		.2byte	0x174
 4727 1337 BD040000 		.4byte	0x4bd
 4728 133b 02       		.byte	0x2
 4729 133c 91       		.byte	0x91
 4730 133d 64       		.sleb128 -28
 4731 133e 2A       		.uleb128 0x2a
 4732 133f 6E00     		.ascii	"n\000"
 4733 1341 01       		.byte	0x1
 4734 1342 7401     		.2byte	0x174
 4735 1344 8A000000 		.4byte	0x8a
 4736 1348 02       		.byte	0x2
 4737 1349 91       		.byte	0x91
 4738 134a 60       		.sleb128 -32
 4739 134b 27       		.uleb128 0x27
 4740 134c 6F737000 		.ascii	"osp\000"
 4741 1350 01       		.byte	0x1
 4742 1351 7501     		.2byte	0x175
 4743 1353 26100000 		.4byte	0x1026
 4744 1357 02       		.byte	0x2
 4745 1358 91       		.byte	0x91
 4746 1359 74       		.sleb128 -12
 4747 135a 00       		.byte	0
 4748 135b 25       		.uleb128 0x25
 4749 135c 01       		.byte	0x1
 4750 135d 2B050000 		.4byte	.LASF245
 4751 1361 01       		.byte	0x1
 4752 1362 8D01     		.2byte	0x18d
 4753 1364 01       		.byte	0x1
 4754 1365 00000000 		.4byte	.LFB127
 4755 1369 52000000 		.4byte	.LFE127
 4756 136d 74010000 		.4byte	.LLST9
 4757 1371 01       		.byte	0x1
 4758 1372 BF130000 		.4byte	0x13bf
ARM GAS  /tmp/ccouNqwt.s 			page 85


 4759 1376 26       		.uleb128 0x26
 4760 1377 78050000 		.4byte	.LASF237
 4761 137b 01       		.byte	0x1
 4762 137c 8D01     		.2byte	0x18d
 4763 137e 80070000 		.4byte	0x780
 4764 1382 02       		.byte	0x2
 4765 1383 91       		.byte	0x91
 4766 1384 6C       		.sleb128 -20
 4767 1385 2A       		.uleb128 0x2a
 4768 1386 657000   		.ascii	"ep\000"
 4769 1389 01       		.byte	0x1
 4770 138a 8D01     		.2byte	0x18d
 4771 138c 5D060000 		.4byte	0x65d
 4772 1390 02       		.byte	0x2
 4773 1391 91       		.byte	0x91
 4774 1392 6B       		.sleb128 -21
 4775 1393 2A       		.uleb128 0x2a
 4776 1394 62756600 		.ascii	"buf\000"
 4777 1398 01       		.byte	0x1
 4778 1399 8E01     		.2byte	0x18e
 4779 139b D9040000 		.4byte	0x4d9
 4780 139f 02       		.byte	0x2
 4781 13a0 91       		.byte	0x91
 4782 13a1 64       		.sleb128 -28
 4783 13a2 2A       		.uleb128 0x2a
 4784 13a3 6E00     		.ascii	"n\000"
 4785 13a5 01       		.byte	0x1
 4786 13a6 8E01     		.2byte	0x18e
 4787 13a8 8A000000 		.4byte	0x8a
 4788 13ac 02       		.byte	0x2
 4789 13ad 91       		.byte	0x91
 4790 13ae 60       		.sleb128 -32
 4791 13af 27       		.uleb128 0x27
 4792 13b0 69737000 		.ascii	"isp\000"
 4793 13b4 01       		.byte	0x1
 4794 13b5 8F01     		.2byte	0x18f
 4795 13b7 20100000 		.4byte	0x1020
 4796 13bb 02       		.byte	0x2
 4797 13bc 91       		.byte	0x91
 4798 13bd 74       		.sleb128 -12
 4799 13be 00       		.byte	0
 4800 13bf 25       		.uleb128 0x25
 4801 13c0 01       		.byte	0x1
 4802 13c1 88090000 		.4byte	.LASF246
 4803 13c5 01       		.byte	0x1
 4804 13c6 AA01     		.2byte	0x1aa
 4805 13c8 01       		.byte	0x1
 4806 13c9 00000000 		.4byte	.LFB128
 4807 13cd 52000000 		.4byte	.LFE128
 4808 13d1 A0010000 		.4byte	.LLST10
 4809 13d5 01       		.byte	0x1
 4810 13d6 23140000 		.4byte	0x1423
 4811 13da 26       		.uleb128 0x26
 4812 13db 78050000 		.4byte	.LASF237
 4813 13df 01       		.byte	0x1
 4814 13e0 AA01     		.2byte	0x1aa
 4815 13e2 80070000 		.4byte	0x780
ARM GAS  /tmp/ccouNqwt.s 			page 86


 4816 13e6 02       		.byte	0x2
 4817 13e7 91       		.byte	0x91
 4818 13e8 6C       		.sleb128 -20
 4819 13e9 2A       		.uleb128 0x2a
 4820 13ea 657000   		.ascii	"ep\000"
 4821 13ed 01       		.byte	0x1
 4822 13ee AA01     		.2byte	0x1aa
 4823 13f0 5D060000 		.4byte	0x65d
 4824 13f4 02       		.byte	0x2
 4825 13f5 91       		.byte	0x91
 4826 13f6 6B       		.sleb128 -21
 4827 13f7 2A       		.uleb128 0x2a
 4828 13f8 69717000 		.ascii	"iqp\000"
 4829 13fc 01       		.byte	0x1
 4830 13fd AB01     		.2byte	0x1ab
 4831 13ff 0E0F0000 		.4byte	0xf0e
 4832 1403 02       		.byte	0x2
 4833 1404 91       		.byte	0x91
 4834 1405 64       		.sleb128 -28
 4835 1406 2A       		.uleb128 0x2a
 4836 1407 6E00     		.ascii	"n\000"
 4837 1409 01       		.byte	0x1
 4838 140a AB01     		.2byte	0x1ab
 4839 140c 8A000000 		.4byte	0x8a
 4840 1410 02       		.byte	0x2
 4841 1411 91       		.byte	0x91
 4842 1412 60       		.sleb128 -32
 4843 1413 27       		.uleb128 0x27
 4844 1414 6F737000 		.ascii	"osp\000"
 4845 1418 01       		.byte	0x1
 4846 1419 AC01     		.2byte	0x1ac
 4847 141b 26100000 		.4byte	0x1026
 4848 141f 02       		.byte	0x2
 4849 1420 91       		.byte	0x91
 4850 1421 74       		.sleb128 -12
 4851 1422 00       		.byte	0
 4852 1423 25       		.uleb128 0x25
 4853 1424 01       		.byte	0x1
 4854 1425 E0000000 		.4byte	.LASF247
 4855 1429 01       		.byte	0x1
 4856 142a C401     		.2byte	0x1c4
 4857 142c 01       		.byte	0x1
 4858 142d 00000000 		.4byte	.LFB129
 4859 1431 52000000 		.4byte	.LFE129
 4860 1435 CC010000 		.4byte	.LLST11
 4861 1439 01       		.byte	0x1
 4862 143a 87140000 		.4byte	0x1487
 4863 143e 26       		.uleb128 0x26
 4864 143f 78050000 		.4byte	.LASF237
 4865 1443 01       		.byte	0x1
 4866 1444 C401     		.2byte	0x1c4
 4867 1446 80070000 		.4byte	0x780
 4868 144a 02       		.byte	0x2
 4869 144b 91       		.byte	0x91
 4870 144c 6C       		.sleb128 -20
 4871 144d 2A       		.uleb128 0x2a
 4872 144e 657000   		.ascii	"ep\000"
ARM GAS  /tmp/ccouNqwt.s 			page 87


 4873 1451 01       		.byte	0x1
 4874 1452 C401     		.2byte	0x1c4
 4875 1454 5D060000 		.4byte	0x65d
 4876 1458 02       		.byte	0x2
 4877 1459 91       		.byte	0x91
 4878 145a 6B       		.sleb128 -21
 4879 145b 2A       		.uleb128 0x2a
 4880 145c 6F717000 		.ascii	"oqp\000"
 4881 1460 01       		.byte	0x1
 4882 1461 C501     		.2byte	0x1c5
 4883 1463 6F0E0000 		.4byte	0xe6f
 4884 1467 02       		.byte	0x2
 4885 1468 91       		.byte	0x91
 4886 1469 64       		.sleb128 -28
 4887 146a 2A       		.uleb128 0x2a
 4888 146b 6E00     		.ascii	"n\000"
 4889 146d 01       		.byte	0x1
 4890 146e C501     		.2byte	0x1c5
 4891 1470 8A000000 		.4byte	0x8a
 4892 1474 02       		.byte	0x2
 4893 1475 91       		.byte	0x91
 4894 1476 60       		.sleb128 -32
 4895 1477 27       		.uleb128 0x27
 4896 1478 69737000 		.ascii	"isp\000"
 4897 147c 01       		.byte	0x1
 4898 147d C601     		.2byte	0x1c6
 4899 147f 20100000 		.4byte	0x1020
 4900 1483 02       		.byte	0x2
 4901 1484 91       		.byte	0x91
 4902 1485 74       		.sleb128 -12
 4903 1486 00       		.byte	0
 4904 1487 2B       		.uleb128 0x2b
 4905 1488 01       		.byte	0x1
 4906 1489 5D000000 		.4byte	.LASF248
 4907 148d 01       		.byte	0x1
 4908 148e DE01     		.2byte	0x1de
 4909 1490 01       		.byte	0x1
 4910 1491 CC000000 		.4byte	0xcc
 4911 1495 00000000 		.4byte	.LFB130
 4912 1499 5C000000 		.4byte	.LFE130
 4913 149d F8010000 		.4byte	.LLST12
 4914 14a1 01       		.byte	0x1
 4915 14a2 C4140000 		.4byte	0x14c4
 4916 14a6 26       		.uleb128 0x26
 4917 14a7 78050000 		.4byte	.LASF237
 4918 14ab 01       		.byte	0x1
 4919 14ac DE01     		.2byte	0x1de
 4920 14ae 80070000 		.4byte	0x780
 4921 14b2 02       		.byte	0x2
 4922 14b3 91       		.byte	0x91
 4923 14b4 74       		.sleb128 -12
 4924 14b5 2A       		.uleb128 0x2a
 4925 14b6 657000   		.ascii	"ep\000"
 4926 14b9 01       		.byte	0x1
 4927 14ba DE01     		.2byte	0x1de
 4928 14bc 5D060000 		.4byte	0x65d
 4929 14c0 02       		.byte	0x2
ARM GAS  /tmp/ccouNqwt.s 			page 88


 4930 14c1 91       		.byte	0x91
 4931 14c2 73       		.sleb128 -13
 4932 14c3 00       		.byte	0
 4933 14c4 2B       		.uleb128 0x2b
 4934 14c5 01       		.byte	0x1
 4935 14c6 ED080000 		.4byte	.LASF249
 4936 14ca 01       		.byte	0x1
 4937 14cb F901     		.2byte	0x1f9
 4938 14cd 01       		.byte	0x1
 4939 14ce CC000000 		.4byte	0xcc
 4940 14d2 00000000 		.4byte	.LFB131
 4941 14d6 5C000000 		.4byte	.LFE131
 4942 14da 24020000 		.4byte	.LLST13
 4943 14de 01       		.byte	0x1
 4944 14df 01150000 		.4byte	0x1501
 4945 14e3 26       		.uleb128 0x26
 4946 14e4 78050000 		.4byte	.LASF237
 4947 14e8 01       		.byte	0x1
 4948 14e9 F901     		.2byte	0x1f9
 4949 14eb 80070000 		.4byte	0x780
 4950 14ef 02       		.byte	0x2
 4951 14f0 91       		.byte	0x91
 4952 14f1 74       		.sleb128 -12
 4953 14f2 2A       		.uleb128 0x2a
 4954 14f3 657000   		.ascii	"ep\000"
 4955 14f6 01       		.byte	0x1
 4956 14f7 F901     		.2byte	0x1f9
 4957 14f9 5D060000 		.4byte	0x65d
 4958 14fd 02       		.byte	0x2
 4959 14fe 91       		.byte	0x91
 4960 14ff 73       		.sleb128 -13
 4961 1500 00       		.byte	0
 4962 1501 2B       		.uleb128 0x2b
 4963 1502 01       		.byte	0x1
 4964 1503 57040000 		.4byte	.LASF250
 4965 1507 01       		.byte	0x1
 4966 1508 1202     		.2byte	0x212
 4967 150a 01       		.byte	0x1
 4968 150b CC000000 		.4byte	0xcc
 4969 150f 00000000 		.4byte	.LFB132
 4970 1513 3E000000 		.4byte	.LFE132
 4971 1517 50020000 		.4byte	.LLST14
 4972 151b 01       		.byte	0x1
 4973 151c 3E150000 		.4byte	0x153e
 4974 1520 26       		.uleb128 0x26
 4975 1521 78050000 		.4byte	.LASF237
 4976 1525 01       		.byte	0x1
 4977 1526 1202     		.2byte	0x212
 4978 1528 80070000 		.4byte	0x780
 4979 152c 02       		.byte	0x2
 4980 152d 91       		.byte	0x91
 4981 152e 74       		.sleb128 -12
 4982 152f 2A       		.uleb128 0x2a
 4983 1530 657000   		.ascii	"ep\000"
 4984 1533 01       		.byte	0x1
 4985 1534 1202     		.2byte	0x212
 4986 1536 5D060000 		.4byte	0x65d
ARM GAS  /tmp/ccouNqwt.s 			page 89


 4987 153a 02       		.byte	0x2
 4988 153b 91       		.byte	0x91
 4989 153c 73       		.sleb128 -13
 4990 153d 00       		.byte	0
 4991 153e 2B       		.uleb128 0x2b
 4992 153f 01       		.byte	0x1
 4993 1540 07050000 		.4byte	.LASF251
 4994 1544 01       		.byte	0x1
 4995 1545 2A02     		.2byte	0x22a
 4996 1547 01       		.byte	0x1
 4997 1548 CC000000 		.4byte	0xcc
 4998 154c 00000000 		.4byte	.LFB133
 4999 1550 3E000000 		.4byte	.LFE133
 5000 1554 7C020000 		.4byte	.LLST15
 5001 1558 01       		.byte	0x1
 5002 1559 7B150000 		.4byte	0x157b
 5003 155d 26       		.uleb128 0x26
 5004 155e 78050000 		.4byte	.LASF237
 5005 1562 01       		.byte	0x1
 5006 1563 2A02     		.2byte	0x22a
 5007 1565 80070000 		.4byte	0x780
 5008 1569 02       		.byte	0x2
 5009 156a 91       		.byte	0x91
 5010 156b 74       		.sleb128 -12
 5011 156c 2A       		.uleb128 0x2a
 5012 156d 657000   		.ascii	"ep\000"
 5013 1570 01       		.byte	0x1
 5014 1571 2A02     		.2byte	0x22a
 5015 1573 5D060000 		.4byte	0x65d
 5016 1577 02       		.byte	0x2
 5017 1578 91       		.byte	0x91
 5018 1579 73       		.sleb128 -13
 5019 157a 00       		.byte	0
 5020 157b 25       		.uleb128 0x25
 5021 157c 01       		.byte	0x1
 5022 157d 79020000 		.4byte	.LASF252
 5023 1581 01       		.byte	0x1
 5024 1582 3F02     		.2byte	0x23f
 5025 1584 01       		.byte	0x1
 5026 1585 00000000 		.4byte	.LFB134
 5027 1589 7A000000 		.4byte	.LFE134
 5028 158d A8020000 		.4byte	.LLST16
 5029 1591 01       		.byte	0x1
 5030 1592 B3150000 		.4byte	0x15b3
 5031 1596 26       		.uleb128 0x26
 5032 1597 78050000 		.4byte	.LASF237
 5033 159b 01       		.byte	0x1
 5034 159c 3F02     		.2byte	0x23f
 5035 159e 80070000 		.4byte	0x780
 5036 15a2 02       		.byte	0x2
 5037 15a3 91       		.byte	0x91
 5038 15a4 6C       		.sleb128 -20
 5039 15a5 27       		.uleb128 0x27
 5040 15a6 6900     		.ascii	"i\000"
 5041 15a8 01       		.byte	0x1
 5042 15a9 4002     		.2byte	0x240
 5043 15ab 4C000000 		.4byte	0x4c
ARM GAS  /tmp/ccouNqwt.s 			page 90


 5044 15af 02       		.byte	0x2
 5045 15b0 91       		.byte	0x91
 5046 15b1 74       		.sleb128 -12
 5047 15b2 00       		.byte	0
 5048 15b3 25       		.uleb128 0x25
 5049 15b4 01       		.byte	0x1
 5050 15b5 C4050000 		.4byte	.LASF253
 5051 15b9 01       		.byte	0x1
 5052 15ba 5E02     		.2byte	0x25e
 5053 15bc 01       		.byte	0x1
 5054 15bd 00000000 		.4byte	.LFB135
 5055 15c1 C8010000 		.4byte	.LFE135
 5056 15c5 D4020000 		.4byte	.LLST17
 5057 15c9 01       		.byte	0x1
 5058 15ca D7160000 		.4byte	0x16d7
 5059 15ce 26       		.uleb128 0x26
 5060 15cf 78050000 		.4byte	.LASF237
 5061 15d3 01       		.byte	0x1
 5062 15d4 5E02     		.2byte	0x25e
 5063 15d6 80070000 		.4byte	0x780
 5064 15da 02       		.byte	0x2
 5065 15db 91       		.byte	0x91
 5066 15dc 6C       		.sleb128 -20
 5067 15dd 2A       		.uleb128 0x2a
 5068 15de 657000   		.ascii	"ep\000"
 5069 15e1 01       		.byte	0x1
 5070 15e2 5E02     		.2byte	0x25e
 5071 15e4 5D060000 		.4byte	0x65d
 5072 15e8 02       		.byte	0x2
 5073 15e9 91       		.byte	0x91
 5074 15ea 6B       		.sleb128 -21
 5075 15eb 27       		.uleb128 0x27
 5076 15ec 6D617800 		.ascii	"max\000"
 5077 15f0 01       		.byte	0x1
 5078 15f1 5F02     		.2byte	0x25f
 5079 15f3 8A000000 		.4byte	0x8a
 5080 15f7 02       		.byte	0x2
 5081 15f8 91       		.byte	0x91
 5082 15f9 74       		.sleb128 -12
 5083 15fa 28       		.uleb128 0x28
 5084 15fb FA000000 		.4byte	.LBB6
 5085 15ff 02010000 		.4byte	.LBE6
 5086 1603 16160000 		.4byte	0x1616
 5087 1607 27       		.uleb128 0x27
 5088 1608 746D7000 		.ascii	"tmp\000"
 5089 160c 01       		.byte	0x1
 5090 160d 8402     		.2byte	0x284
 5091 160f B6000000 		.4byte	0xb6
 5092 1613 01       		.byte	0x1
 5093 1614 53       		.byte	0x53
 5094 1615 00       		.byte	0
 5095 1616 28       		.uleb128 0x28
 5096 1617 0C010000 		.4byte	.LBB7
 5097 161b 16010000 		.4byte	.LBE7
 5098 161f 32160000 		.4byte	0x1632
 5099 1623 27       		.uleb128 0x27
 5100 1624 746D7000 		.ascii	"tmp\000"
ARM GAS  /tmp/ccouNqwt.s 			page 91


 5101 1628 01       		.byte	0x1
 5102 1629 8602     		.2byte	0x286
 5103 162b B6000000 		.4byte	0xb6
 5104 162f 01       		.byte	0x1
 5105 1630 53       		.byte	0x53
 5106 1631 00       		.byte	0
 5107 1632 28       		.uleb128 0x28
 5108 1633 32010000 		.4byte	.LBB8
 5109 1637 3A010000 		.4byte	.LBE8
 5110 163b 4E160000 		.4byte	0x164e
 5111 163f 27       		.uleb128 0x27
 5112 1640 746D7000 		.ascii	"tmp\000"
 5113 1644 01       		.byte	0x1
 5114 1645 8D02     		.2byte	0x28d
 5115 1647 B6000000 		.4byte	0xb6
 5116 164b 01       		.byte	0x1
 5117 164c 53       		.byte	0x53
 5118 164d 00       		.byte	0
 5119 164e 28       		.uleb128 0x28
 5120 164f 44010000 		.4byte	.LBB9
 5121 1653 4E010000 		.4byte	.LBE9
 5122 1657 6A160000 		.4byte	0x166a
 5123 165b 27       		.uleb128 0x27
 5124 165c 746D7000 		.ascii	"tmp\000"
 5125 1660 01       		.byte	0x1
 5126 1661 8F02     		.2byte	0x28f
 5127 1663 B6000000 		.4byte	0xb6
 5128 1667 01       		.byte	0x1
 5129 1668 53       		.byte	0x53
 5130 1669 00       		.byte	0
 5131 166a 28       		.uleb128 0x28
 5132 166b 72010000 		.4byte	.LBB10
 5133 166f 7A010000 		.4byte	.LBE10
 5134 1673 86160000 		.4byte	0x1686
 5135 1677 27       		.uleb128 0x27
 5136 1678 746D7000 		.ascii	"tmp\000"
 5137 167c 01       		.byte	0x1
 5138 167d 9802     		.2byte	0x298
 5139 167f B6000000 		.4byte	0xb6
 5140 1683 01       		.byte	0x1
 5141 1684 53       		.byte	0x53
 5142 1685 00       		.byte	0
 5143 1686 28       		.uleb128 0x28
 5144 1687 84010000 		.4byte	.LBB11
 5145 168b 8E010000 		.4byte	.LBE11
 5146 168f A2160000 		.4byte	0x16a2
 5147 1693 27       		.uleb128 0x27
 5148 1694 746D7000 		.ascii	"tmp\000"
 5149 1698 01       		.byte	0x1
 5150 1699 9A02     		.2byte	0x29a
 5151 169b B6000000 		.4byte	0xb6
 5152 169f 01       		.byte	0x1
 5153 16a0 53       		.byte	0x53
 5154 16a1 00       		.byte	0
 5155 16a2 28       		.uleb128 0x28
 5156 16a3 AA010000 		.4byte	.LBB12
 5157 16a7 B2010000 		.4byte	.LBE12
ARM GAS  /tmp/ccouNqwt.s 			page 92


 5158 16ab BE160000 		.4byte	0x16be
 5159 16af 27       		.uleb128 0x27
 5160 16b0 746D7000 		.ascii	"tmp\000"
 5161 16b4 01       		.byte	0x1
 5162 16b5 A102     		.2byte	0x2a1
 5163 16b7 B6000000 		.4byte	0xb6
 5164 16bb 01       		.byte	0x1
 5165 16bc 53       		.byte	0x53
 5166 16bd 00       		.byte	0
 5167 16be 29       		.uleb128 0x29
 5168 16bf BC010000 		.4byte	.LBB13
 5169 16c3 C4010000 		.4byte	.LBE13
 5170 16c7 27       		.uleb128 0x27
 5171 16c8 746D7000 		.ascii	"tmp\000"
 5172 16cc 01       		.byte	0x1
 5173 16cd A302     		.2byte	0x2a3
 5174 16cf B6000000 		.4byte	0xb6
 5175 16d3 01       		.byte	0x1
 5176 16d4 53       		.byte	0x53
 5177 16d5 00       		.byte	0
 5178 16d6 00       		.byte	0
 5179 16d7 25       		.uleb128 0x25
 5180 16d8 01       		.byte	0x1
 5181 16d9 8A0A0000 		.4byte	.LASF254
 5182 16dd 01       		.byte	0x1
 5183 16de B202     		.2byte	0x2b2
 5184 16e0 01       		.byte	0x1
 5185 16e1 00000000 		.4byte	.LFB136
 5186 16e5 1C010000 		.4byte	.LFE136
 5187 16e9 00030000 		.4byte	.LLST18
 5188 16ed 01       		.byte	0x1
 5189 16ee 8B170000 		.4byte	0x178b
 5190 16f2 26       		.uleb128 0x26
 5191 16f3 78050000 		.4byte	.LASF237
 5192 16f7 01       		.byte	0x1
 5193 16f8 B202     		.2byte	0x2b2
 5194 16fa 80070000 		.4byte	0x780
 5195 16fe 02       		.byte	0x2
 5196 16ff 91       		.byte	0x91
 5197 1700 6C       		.sleb128 -20
 5198 1701 2A       		.uleb128 0x2a
 5199 1702 657000   		.ascii	"ep\000"
 5200 1705 01       		.byte	0x1
 5201 1706 B202     		.2byte	0x2b2
 5202 1708 5D060000 		.4byte	0x65d
 5203 170c 02       		.byte	0x2
 5204 170d 91       		.byte	0x91
 5205 170e 6B       		.sleb128 -21
 5206 170f 27       		.uleb128 0x27
 5207 1710 6D617800 		.ascii	"max\000"
 5208 1714 01       		.byte	0x1
 5209 1715 B302     		.2byte	0x2b3
 5210 1717 8A000000 		.4byte	0x8a
 5211 171b 02       		.byte	0x2
 5212 171c 91       		.byte	0x91
 5213 171d 74       		.sleb128 -12
 5214 171e 28       		.uleb128 0x28
ARM GAS  /tmp/ccouNqwt.s 			page 93


 5215 171f 68000000 		.4byte	.LBB14
 5216 1723 70000000 		.4byte	.LBE14
 5217 1727 3A170000 		.4byte	0x173a
 5218 172b 27       		.uleb128 0x27
 5219 172c 746D7000 		.ascii	"tmp\000"
 5220 1730 01       		.byte	0x1
 5221 1731 BE02     		.2byte	0x2be
 5222 1733 B6000000 		.4byte	0xb6
 5223 1737 01       		.byte	0x1
 5224 1738 53       		.byte	0x53
 5225 1739 00       		.byte	0
 5226 173a 28       		.uleb128 0x28
 5227 173b 7A000000 		.4byte	.LBB15
 5228 173f 82000000 		.4byte	.LBE15
 5229 1743 56170000 		.4byte	0x1756
 5230 1747 27       		.uleb128 0x27
 5231 1748 746D7000 		.ascii	"tmp\000"
 5232 174c 01       		.byte	0x1
 5233 174d C002     		.2byte	0x2c0
 5234 174f B6000000 		.4byte	0xb6
 5235 1753 01       		.byte	0x1
 5236 1754 53       		.byte	0x53
 5237 1755 00       		.byte	0
 5238 1756 28       		.uleb128 0x28
 5239 1757 AA000000 		.4byte	.LBB16
 5240 175b B2000000 		.4byte	.LBE16
 5241 175f 72170000 		.4byte	0x1772
 5242 1763 27       		.uleb128 0x27
 5243 1764 746D7000 		.ascii	"tmp\000"
 5244 1768 01       		.byte	0x1
 5245 1769 C902     		.2byte	0x2c9
 5246 176b B6000000 		.4byte	0xb6
 5247 176f 01       		.byte	0x1
 5248 1770 53       		.byte	0x53
 5249 1771 00       		.byte	0
 5250 1772 29       		.uleb128 0x29
 5251 1773 BC000000 		.4byte	.LBB17
 5252 1777 C4000000 		.4byte	.LBE17
 5253 177b 27       		.uleb128 0x27
 5254 177c 746D7000 		.ascii	"tmp\000"
 5255 1780 01       		.byte	0x1
 5256 1781 CB02     		.2byte	0x2cb
 5257 1783 B6000000 		.4byte	0xb6
 5258 1787 01       		.byte	0x1
 5259 1788 53       		.byte	0x53
 5260 1789 00       		.byte	0
 5261 178a 00       		.byte	0
 5262 178b 25       		.uleb128 0x25
 5263 178c 01       		.byte	0x1
 5264 178d 04010000 		.4byte	.LASF255
 5265 1791 01       		.byte	0x1
 5266 1792 E902     		.2byte	0x2e9
 5267 1794 01       		.byte	0x1
 5268 1795 00000000 		.4byte	.LFB137
 5269 1799 B6000000 		.4byte	.LFE137
 5270 179d 2C030000 		.4byte	.LLST19
 5271 17a1 01       		.byte	0x1
ARM GAS  /tmp/ccouNqwt.s 			page 94


 5272 17a2 F8170000 		.4byte	0x17f8
 5273 17a6 26       		.uleb128 0x26
 5274 17a7 78050000 		.4byte	.LASF237
 5275 17ab 01       		.byte	0x1
 5276 17ac E902     		.2byte	0x2e9
 5277 17ae 80070000 		.4byte	0x780
 5278 17b2 02       		.byte	0x2
 5279 17b3 91       		.byte	0x91
 5280 17b4 74       		.sleb128 -12
 5281 17b5 2A       		.uleb128 0x2a
 5282 17b6 657000   		.ascii	"ep\000"
 5283 17b9 01       		.byte	0x1
 5284 17ba E902     		.2byte	0x2e9
 5285 17bc 5D060000 		.4byte	0x65d
 5286 17c0 02       		.byte	0x2
 5287 17c1 91       		.byte	0x91
 5288 17c2 73       		.sleb128 -13
 5289 17c3 28       		.uleb128 0x28
 5290 17c4 36000000 		.4byte	.LBB18
 5291 17c8 3E000000 		.4byte	.LBE18
 5292 17cc DF170000 		.4byte	0x17df
 5293 17d0 27       		.uleb128 0x27
 5294 17d1 746D7000 		.ascii	"tmp\000"
 5295 17d5 01       		.byte	0x1
 5296 17d6 F102     		.2byte	0x2f1
 5297 17d8 B6000000 		.4byte	0xb6
 5298 17dc 01       		.byte	0x1
 5299 17dd 53       		.byte	0x53
 5300 17de 00       		.byte	0
 5301 17df 29       		.uleb128 0x29
 5302 17e0 48000000 		.4byte	.LBB19
 5303 17e4 50000000 		.4byte	.LBE19
 5304 17e8 27       		.uleb128 0x27
 5305 17e9 746D7000 		.ascii	"tmp\000"
 5306 17ed 01       		.byte	0x1
 5307 17ee F302     		.2byte	0x2f3
 5308 17f0 B6000000 		.4byte	0xb6
 5309 17f4 01       		.byte	0x1
 5310 17f5 53       		.byte	0x53
 5311 17f6 00       		.byte	0
 5312 17f7 00       		.byte	0
 5313 17f8 13       		.uleb128 0x13
 5314 17f9 95000000 		.4byte	0x95
 5315 17fd 08180000 		.4byte	0x1808
 5316 1801 14       		.uleb128 0x14
 5317 1802 68000000 		.4byte	0x68
 5318 1806 01       		.byte	0x1
 5319 1807 00       		.byte	0
 5320 1808 2C       		.uleb128 0x2c
 5321 1809 45050000 		.4byte	.LASF256
 5322 180d 01       		.byte	0x1
 5323 180e 31       		.byte	0x31
 5324 180f 19180000 		.4byte	0x1819
 5325 1813 05       		.byte	0x5
 5326 1814 03       		.byte	0x3
 5327 1815 00000000 		.4byte	zero_status
 5328 1819 06       		.uleb128 0x6
ARM GAS  /tmp/ccouNqwt.s 			page 95


 5329 181a F8170000 		.4byte	0x17f8
 5330 181e 2C       		.uleb128 0x2c
 5331 181f 30040000 		.4byte	.LASF257
 5332 1823 01       		.byte	0x1
 5333 1824 32       		.byte	0x32
 5334 1825 2F180000 		.4byte	0x182f
 5335 1829 05       		.byte	0x5
 5336 182a 03       		.byte	0x3
 5337 182b 00000000 		.4byte	active_status
 5338 182f 06       		.uleb128 0x6
 5339 1830 F8170000 		.4byte	0x17f8
 5340 1834 2C       		.uleb128 0x2c
 5341 1835 FF010000 		.4byte	.LASF258
 5342 1839 01       		.byte	0x1
 5343 183a 33       		.byte	0x33
 5344 183b 45180000 		.4byte	0x1845
 5345 183f 05       		.byte	0x5
 5346 1840 03       		.byte	0x3
 5347 1841 00000000 		.4byte	halted_status
 5348 1845 06       		.uleb128 0x6
 5349 1846 F8170000 		.4byte	0x17f8
 5350 184a 2D       		.uleb128 0x2d
 5351 184b 6C060000 		.4byte	.LASF265
 5352 184f 0D       		.byte	0xd
 5353 1850 9806     		.2byte	0x698
 5354 1852 F4040000 		.4byte	0x4f4
 5355 1856 01       		.byte	0x1
 5356 1857 01       		.byte	0x1
 5357 1858 00       		.byte	0
 5358              		.section	.debug_abbrev,"",%progbits
 5359              	.Ldebug_abbrev0:
 5360 0000 01       		.uleb128 0x1
 5361 0001 11       		.uleb128 0x11
 5362 0002 01       		.byte	0x1
 5363 0003 25       		.uleb128 0x25
 5364 0004 0E       		.uleb128 0xe
 5365 0005 13       		.uleb128 0x13
 5366 0006 0B       		.uleb128 0xb
 5367 0007 03       		.uleb128 0x3
 5368 0008 0E       		.uleb128 0xe
 5369 0009 1B       		.uleb128 0x1b
 5370 000a 0E       		.uleb128 0xe
 5371 000b 55       		.uleb128 0x55
 5372 000c 06       		.uleb128 0x6
 5373 000d 11       		.uleb128 0x11
 5374 000e 01       		.uleb128 0x1
 5375 000f 52       		.uleb128 0x52
 5376 0010 01       		.uleb128 0x1
 5377 0011 10       		.uleb128 0x10
 5378 0012 06       		.uleb128 0x6
 5379 0013 00       		.byte	0
 5380 0014 00       		.byte	0
 5381 0015 02       		.uleb128 0x2
 5382 0016 24       		.uleb128 0x24
 5383 0017 00       		.byte	0
 5384 0018 0B       		.uleb128 0xb
 5385 0019 0B       		.uleb128 0xb
ARM GAS  /tmp/ccouNqwt.s 			page 96


 5386 001a 3E       		.uleb128 0x3e
 5387 001b 0B       		.uleb128 0xb
 5388 001c 03       		.uleb128 0x3
 5389 001d 0E       		.uleb128 0xe
 5390 001e 00       		.byte	0
 5391 001f 00       		.byte	0
 5392 0020 03       		.uleb128 0x3
 5393 0021 24       		.uleb128 0x24
 5394 0022 00       		.byte	0
 5395 0023 0B       		.uleb128 0xb
 5396 0024 0B       		.uleb128 0xb
 5397 0025 3E       		.uleb128 0x3e
 5398 0026 0B       		.uleb128 0xb
 5399 0027 03       		.uleb128 0x3
 5400 0028 08       		.uleb128 0x8
 5401 0029 00       		.byte	0
 5402 002a 00       		.byte	0
 5403 002b 04       		.uleb128 0x4
 5404 002c 0F       		.uleb128 0xf
 5405 002d 00       		.byte	0
 5406 002e 0B       		.uleb128 0xb
 5407 002f 0B       		.uleb128 0xb
 5408 0030 00       		.byte	0
 5409 0031 00       		.byte	0
 5410 0032 05       		.uleb128 0x5
 5411 0033 0F       		.uleb128 0xf
 5412 0034 00       		.byte	0
 5413 0035 0B       		.uleb128 0xb
 5414 0036 0B       		.uleb128 0xb
 5415 0037 49       		.uleb128 0x49
 5416 0038 13       		.uleb128 0x13
 5417 0039 00       		.byte	0
 5418 003a 00       		.byte	0
 5419 003b 06       		.uleb128 0x6
 5420 003c 26       		.uleb128 0x26
 5421 003d 00       		.byte	0
 5422 003e 49       		.uleb128 0x49
 5423 003f 13       		.uleb128 0x13
 5424 0040 00       		.byte	0
 5425 0041 00       		.byte	0
 5426 0042 07       		.uleb128 0x7
 5427 0043 16       		.uleb128 0x16
 5428 0044 00       		.byte	0
 5429 0045 03       		.uleb128 0x3
 5430 0046 0E       		.uleb128 0xe
 5431 0047 3A       		.uleb128 0x3a
 5432 0048 0B       		.uleb128 0xb
 5433 0049 3B       		.uleb128 0x3b
 5434 004a 0B       		.uleb128 0xb
 5435 004b 49       		.uleb128 0x49
 5436 004c 13       		.uleb128 0x13
 5437 004d 00       		.byte	0
 5438 004e 00       		.byte	0
 5439 004f 08       		.uleb128 0x8
 5440 0050 13       		.uleb128 0x13
 5441 0051 01       		.byte	0x1
 5442 0052 03       		.uleb128 0x3
ARM GAS  /tmp/ccouNqwt.s 			page 97


 5443 0053 0E       		.uleb128 0xe
 5444 0054 0B       		.uleb128 0xb
 5445 0055 0B       		.uleb128 0xb
 5446 0056 3A       		.uleb128 0x3a
 5447 0057 0B       		.uleb128 0xb
 5448 0058 3B       		.uleb128 0x3b
 5449 0059 0B       		.uleb128 0xb
 5450 005a 01       		.uleb128 0x1
 5451 005b 13       		.uleb128 0x13
 5452 005c 00       		.byte	0
 5453 005d 00       		.byte	0
 5454 005e 09       		.uleb128 0x9
 5455 005f 0D       		.uleb128 0xd
 5456 0060 00       		.byte	0
 5457 0061 03       		.uleb128 0x3
 5458 0062 0E       		.uleb128 0xe
 5459 0063 3A       		.uleb128 0x3a
 5460 0064 0B       		.uleb128 0xb
 5461 0065 3B       		.uleb128 0x3b
 5462 0066 0B       		.uleb128 0xb
 5463 0067 49       		.uleb128 0x49
 5464 0068 13       		.uleb128 0x13
 5465 0069 38       		.uleb128 0x38
 5466 006a 0A       		.uleb128 0xa
 5467 006b 00       		.byte	0
 5468 006c 00       		.byte	0
 5469 006d 0A       		.uleb128 0xa
 5470 006e 0D       		.uleb128 0xd
 5471 006f 00       		.byte	0
 5472 0070 03       		.uleb128 0x3
 5473 0071 08       		.uleb128 0x8
 5474 0072 3A       		.uleb128 0x3a
 5475 0073 0B       		.uleb128 0xb
 5476 0074 3B       		.uleb128 0x3b
 5477 0075 0B       		.uleb128 0xb
 5478 0076 49       		.uleb128 0x49
 5479 0077 13       		.uleb128 0x13
 5480 0078 38       		.uleb128 0x38
 5481 0079 0A       		.uleb128 0xa
 5482 007a 00       		.byte	0
 5483 007b 00       		.byte	0
 5484 007c 0B       		.uleb128 0xb
 5485 007d 13       		.uleb128 0x13
 5486 007e 01       		.byte	0x1
 5487 007f 0B       		.uleb128 0xb
 5488 0080 0B       		.uleb128 0xb
 5489 0081 3A       		.uleb128 0x3a
 5490 0082 0B       		.uleb128 0xb
 5491 0083 3B       		.uleb128 0x3b
 5492 0084 0B       		.uleb128 0xb
 5493 0085 01       		.uleb128 0x1
 5494 0086 13       		.uleb128 0x13
 5495 0087 00       		.byte	0
 5496 0088 00       		.byte	0
 5497 0089 0C       		.uleb128 0xc
 5498 008a 13       		.uleb128 0x13
 5499 008b 01       		.byte	0x1
ARM GAS  /tmp/ccouNqwt.s 			page 98


 5500 008c 03       		.uleb128 0x3
 5501 008d 0E       		.uleb128 0xe
 5502 008e 0B       		.uleb128 0xb
 5503 008f 0B       		.uleb128 0xb
 5504 0090 3A       		.uleb128 0x3a
 5505 0091 0B       		.uleb128 0xb
 5506 0092 3B       		.uleb128 0x3b
 5507 0093 05       		.uleb128 0x5
 5508 0094 01       		.uleb128 0x1
 5509 0095 13       		.uleb128 0x13
 5510 0096 00       		.byte	0
 5511 0097 00       		.byte	0
 5512 0098 0D       		.uleb128 0xd
 5513 0099 0D       		.uleb128 0xd
 5514 009a 00       		.byte	0
 5515 009b 03       		.uleb128 0x3
 5516 009c 08       		.uleb128 0x8
 5517 009d 3A       		.uleb128 0x3a
 5518 009e 0B       		.uleb128 0xb
 5519 009f 3B       		.uleb128 0x3b
 5520 00a0 05       		.uleb128 0x5
 5521 00a1 49       		.uleb128 0x49
 5522 00a2 13       		.uleb128 0x13
 5523 00a3 38       		.uleb128 0x38
 5524 00a4 0A       		.uleb128 0xa
 5525 00a5 00       		.byte	0
 5526 00a6 00       		.byte	0
 5527 00a7 0E       		.uleb128 0xe
 5528 00a8 35       		.uleb128 0x35
 5529 00a9 00       		.byte	0
 5530 00aa 49       		.uleb128 0x49
 5531 00ab 13       		.uleb128 0x13
 5532 00ac 00       		.byte	0
 5533 00ad 00       		.byte	0
 5534 00ae 0F       		.uleb128 0xf
 5535 00af 17       		.uleb128 0x17
 5536 00b0 01       		.byte	0x1
 5537 00b1 0B       		.uleb128 0xb
 5538 00b2 0B       		.uleb128 0xb
 5539 00b3 3A       		.uleb128 0x3a
 5540 00b4 0B       		.uleb128 0xb
 5541 00b5 3B       		.uleb128 0x3b
 5542 00b6 0B       		.uleb128 0xb
 5543 00b7 01       		.uleb128 0x1
 5544 00b8 13       		.uleb128 0x13
 5545 00b9 00       		.byte	0
 5546 00ba 00       		.byte	0
 5547 00bb 10       		.uleb128 0x10
 5548 00bc 0D       		.uleb128 0xd
 5549 00bd 00       		.byte	0
 5550 00be 03       		.uleb128 0x3
 5551 00bf 0E       		.uleb128 0xe
 5552 00c0 3A       		.uleb128 0x3a
 5553 00c1 0B       		.uleb128 0xb
 5554 00c2 3B       		.uleb128 0x3b
 5555 00c3 0B       		.uleb128 0xb
 5556 00c4 49       		.uleb128 0x49
ARM GAS  /tmp/ccouNqwt.s 			page 99


 5557 00c5 13       		.uleb128 0x13
 5558 00c6 00       		.byte	0
 5559 00c7 00       		.byte	0
 5560 00c8 11       		.uleb128 0x11
 5561 00c9 15       		.uleb128 0x15
 5562 00ca 01       		.byte	0x1
 5563 00cb 27       		.uleb128 0x27
 5564 00cc 0C       		.uleb128 0xc
 5565 00cd 01       		.uleb128 0x1
 5566 00ce 13       		.uleb128 0x13
 5567 00cf 00       		.byte	0
 5568 00d0 00       		.byte	0
 5569 00d1 12       		.uleb128 0x12
 5570 00d2 05       		.uleb128 0x5
 5571 00d3 00       		.byte	0
 5572 00d4 49       		.uleb128 0x49
 5573 00d5 13       		.uleb128 0x13
 5574 00d6 00       		.byte	0
 5575 00d7 00       		.byte	0
 5576 00d8 13       		.uleb128 0x13
 5577 00d9 01       		.uleb128 0x1
 5578 00da 01       		.byte	0x1
 5579 00db 49       		.uleb128 0x49
 5580 00dc 13       		.uleb128 0x13
 5581 00dd 01       		.uleb128 0x1
 5582 00de 13       		.uleb128 0x13
 5583 00df 00       		.byte	0
 5584 00e0 00       		.byte	0
 5585 00e1 14       		.uleb128 0x14
 5586 00e2 21       		.uleb128 0x21
 5587 00e3 00       		.byte	0
 5588 00e4 49       		.uleb128 0x49
 5589 00e5 13       		.uleb128 0x13
 5590 00e6 2F       		.uleb128 0x2f
 5591 00e7 0B       		.uleb128 0xb
 5592 00e8 00       		.byte	0
 5593 00e9 00       		.byte	0
 5594 00ea 15       		.uleb128 0x15
 5595 00eb 13       		.uleb128 0x13
 5596 00ec 01       		.byte	0x1
 5597 00ed 03       		.uleb128 0x3
 5598 00ee 0E       		.uleb128 0xe
 5599 00ef 0B       		.uleb128 0xb
 5600 00f0 05       		.uleb128 0x5
 5601 00f1 3A       		.uleb128 0x3a
 5602 00f2 0B       		.uleb128 0xb
 5603 00f3 3B       		.uleb128 0x3b
 5604 00f4 05       		.uleb128 0x5
 5605 00f5 01       		.uleb128 0x1
 5606 00f6 13       		.uleb128 0x13
 5607 00f7 00       		.byte	0
 5608 00f8 00       		.byte	0
 5609 00f9 16       		.uleb128 0x16
 5610 00fa 0D       		.uleb128 0xd
 5611 00fb 00       		.byte	0
 5612 00fc 03       		.uleb128 0x3
 5613 00fd 0E       		.uleb128 0xe
ARM GAS  /tmp/ccouNqwt.s 			page 100


 5614 00fe 3A       		.uleb128 0x3a
 5615 00ff 0B       		.uleb128 0xb
 5616 0100 3B       		.uleb128 0x3b
 5617 0101 05       		.uleb128 0x5
 5618 0102 49       		.uleb128 0x49
 5619 0103 13       		.uleb128 0x13
 5620 0104 38       		.uleb128 0x38
 5621 0105 0A       		.uleb128 0xa
 5622 0106 00       		.byte	0
 5623 0107 00       		.byte	0
 5624 0108 17       		.uleb128 0x17
 5625 0109 04       		.uleb128 0x4
 5626 010a 01       		.byte	0x1
 5627 010b 0B       		.uleb128 0xb
 5628 010c 0B       		.uleb128 0xb
 5629 010d 3A       		.uleb128 0x3a
 5630 010e 0B       		.uleb128 0xb
 5631 010f 3B       		.uleb128 0x3b
 5632 0110 0B       		.uleb128 0xb
 5633 0111 01       		.uleb128 0x1
 5634 0112 13       		.uleb128 0x13
 5635 0113 00       		.byte	0
 5636 0114 00       		.byte	0
 5637 0115 18       		.uleb128 0x18
 5638 0116 28       		.uleb128 0x28
 5639 0117 00       		.byte	0
 5640 0118 03       		.uleb128 0x3
 5641 0119 0E       		.uleb128 0xe
 5642 011a 1C       		.uleb128 0x1c
 5643 011b 0D       		.uleb128 0xd
 5644 011c 00       		.byte	0
 5645 011d 00       		.byte	0
 5646 011e 19       		.uleb128 0x19
 5647 011f 16       		.uleb128 0x16
 5648 0120 00       		.byte	0
 5649 0121 03       		.uleb128 0x3
 5650 0122 0E       		.uleb128 0xe
 5651 0123 3A       		.uleb128 0x3a
 5652 0124 0B       		.uleb128 0xb
 5653 0125 3B       		.uleb128 0x3b
 5654 0126 05       		.uleb128 0x5
 5655 0127 49       		.uleb128 0x49
 5656 0128 13       		.uleb128 0x13
 5657 0129 00       		.byte	0
 5658 012a 00       		.byte	0
 5659 012b 1A       		.uleb128 0x1a
 5660 012c 04       		.uleb128 0x4
 5661 012d 01       		.byte	0x1
 5662 012e 0B       		.uleb128 0xb
 5663 012f 0B       		.uleb128 0xb
 5664 0130 3A       		.uleb128 0x3a
 5665 0131 0B       		.uleb128 0xb
 5666 0132 3B       		.uleb128 0x3b
 5667 0133 05       		.uleb128 0x5
 5668 0134 01       		.uleb128 0x1
 5669 0135 13       		.uleb128 0x13
 5670 0136 00       		.byte	0
ARM GAS  /tmp/ccouNqwt.s 			page 101


 5671 0137 00       		.byte	0
 5672 0138 1B       		.uleb128 0x1b
 5673 0139 13       		.uleb128 0x13
 5674 013a 01       		.byte	0x1
 5675 013b 0B       		.uleb128 0xb
 5676 013c 0B       		.uleb128 0xb
 5677 013d 3A       		.uleb128 0x3a
 5678 013e 0B       		.uleb128 0xb
 5679 013f 3B       		.uleb128 0x3b
 5680 0140 05       		.uleb128 0x5
 5681 0141 01       		.uleb128 0x1
 5682 0142 13       		.uleb128 0x13
 5683 0143 00       		.byte	0
 5684 0144 00       		.byte	0
 5685 0145 1C       		.uleb128 0x1c
 5686 0146 15       		.uleb128 0x15
 5687 0147 01       		.byte	0x1
 5688 0148 27       		.uleb128 0x27
 5689 0149 0C       		.uleb128 0xc
 5690 014a 49       		.uleb128 0x49
 5691 014b 13       		.uleb128 0x13
 5692 014c 01       		.uleb128 0x1
 5693 014d 13       		.uleb128 0x13
 5694 014e 00       		.byte	0
 5695 014f 00       		.byte	0
 5696 0150 1D       		.uleb128 0x1d
 5697 0151 13       		.uleb128 0x13
 5698 0152 01       		.byte	0x1
 5699 0153 0B       		.uleb128 0xb
 5700 0154 06       		.uleb128 0x6
 5701 0155 3A       		.uleb128 0x3a
 5702 0156 0B       		.uleb128 0xb
 5703 0157 3B       		.uleb128 0x3b
 5704 0158 0B       		.uleb128 0xb
 5705 0159 01       		.uleb128 0x1
 5706 015a 13       		.uleb128 0x13
 5707 015b 00       		.byte	0
 5708 015c 00       		.byte	0
 5709 015d 1E       		.uleb128 0x1e
 5710 015e 21       		.uleb128 0x21
 5711 015f 00       		.byte	0
 5712 0160 49       		.uleb128 0x49
 5713 0161 13       		.uleb128 0x13
 5714 0162 2F       		.uleb128 0x2f
 5715 0163 05       		.uleb128 0x5
 5716 0164 00       		.byte	0
 5717 0165 00       		.byte	0
 5718 0166 1F       		.uleb128 0x1f
 5719 0167 2E       		.uleb128 0x2e
 5720 0168 01       		.byte	0x1
 5721 0169 03       		.uleb128 0x3
 5722 016a 0E       		.uleb128 0xe
 5723 016b 3A       		.uleb128 0x3a
 5724 016c 0B       		.uleb128 0xb
 5725 016d 3B       		.uleb128 0x3b
 5726 016e 0B       		.uleb128 0xb
 5727 016f 27       		.uleb128 0x27
ARM GAS  /tmp/ccouNqwt.s 			page 102


 5728 0170 0C       		.uleb128 0xc
 5729 0171 11       		.uleb128 0x11
 5730 0172 01       		.uleb128 0x1
 5731 0173 12       		.uleb128 0x12
 5732 0174 01       		.uleb128 0x1
 5733 0175 40       		.uleb128 0x40
 5734 0176 06       		.uleb128 0x6
 5735 0177 9642     		.uleb128 0x2116
 5736 0179 0C       		.uleb128 0xc
 5737 017a 01       		.uleb128 0x1
 5738 017b 13       		.uleb128 0x13
 5739 017c 00       		.byte	0
 5740 017d 00       		.byte	0
 5741 017e 20       		.uleb128 0x20
 5742 017f 05       		.uleb128 0x5
 5743 0180 00       		.byte	0
 5744 0181 03       		.uleb128 0x3
 5745 0182 0E       		.uleb128 0xe
 5746 0183 3A       		.uleb128 0x3a
 5747 0184 0B       		.uleb128 0xb
 5748 0185 3B       		.uleb128 0x3b
 5749 0186 0B       		.uleb128 0xb
 5750 0187 49       		.uleb128 0x49
 5751 0188 13       		.uleb128 0x13
 5752 0189 02       		.uleb128 0x2
 5753 018a 0A       		.uleb128 0xa
 5754 018b 00       		.byte	0
 5755 018c 00       		.byte	0
 5756 018d 21       		.uleb128 0x21
 5757 018e 2E       		.uleb128 0x2e
 5758 018f 01       		.byte	0x1
 5759 0190 03       		.uleb128 0x3
 5760 0191 0E       		.uleb128 0xe
 5761 0192 3A       		.uleb128 0x3a
 5762 0193 0B       		.uleb128 0xb
 5763 0194 3B       		.uleb128 0x3b
 5764 0195 0B       		.uleb128 0xb
 5765 0196 27       		.uleb128 0x27
 5766 0197 0C       		.uleb128 0xc
 5767 0198 49       		.uleb128 0x49
 5768 0199 13       		.uleb128 0x13
 5769 019a 11       		.uleb128 0x11
 5770 019b 01       		.uleb128 0x1
 5771 019c 12       		.uleb128 0x12
 5772 019d 01       		.uleb128 0x1
 5773 019e 40       		.uleb128 0x40
 5774 019f 06       		.uleb128 0x6
 5775 01a0 9642     		.uleb128 0x2116
 5776 01a2 0C       		.uleb128 0xc
 5777 01a3 01       		.uleb128 0x1
 5778 01a4 13       		.uleb128 0x13
 5779 01a5 00       		.byte	0
 5780 01a6 00       		.byte	0
 5781 01a7 22       		.uleb128 0x22
 5782 01a8 34       		.uleb128 0x34
 5783 01a9 00       		.byte	0
 5784 01aa 03       		.uleb128 0x3
ARM GAS  /tmp/ccouNqwt.s 			page 103


 5785 01ab 08       		.uleb128 0x8
 5786 01ac 3A       		.uleb128 0x3a
 5787 01ad 0B       		.uleb128 0xb
 5788 01ae 3B       		.uleb128 0x3b
 5789 01af 0B       		.uleb128 0xb
 5790 01b0 49       		.uleb128 0x49
 5791 01b1 13       		.uleb128 0x13
 5792 01b2 02       		.uleb128 0x2
 5793 01b3 0A       		.uleb128 0xa
 5794 01b4 00       		.byte	0
 5795 01b5 00       		.byte	0
 5796 01b6 23       		.uleb128 0x23
 5797 01b7 2E       		.uleb128 0x2e
 5798 01b8 00       		.byte	0
 5799 01b9 3F       		.uleb128 0x3f
 5800 01ba 0C       		.uleb128 0xc
 5801 01bb 03       		.uleb128 0x3
 5802 01bc 0E       		.uleb128 0xe
 5803 01bd 3A       		.uleb128 0x3a
 5804 01be 0B       		.uleb128 0xb
 5805 01bf 3B       		.uleb128 0x3b
 5806 01c0 0B       		.uleb128 0xb
 5807 01c1 27       		.uleb128 0x27
 5808 01c2 0C       		.uleb128 0xc
 5809 01c3 11       		.uleb128 0x11
 5810 01c4 01       		.uleb128 0x1
 5811 01c5 12       		.uleb128 0x12
 5812 01c6 01       		.uleb128 0x1
 5813 01c7 40       		.uleb128 0x40
 5814 01c8 06       		.uleb128 0x6
 5815 01c9 9642     		.uleb128 0x2116
 5816 01cb 0C       		.uleb128 0xc
 5817 01cc 00       		.byte	0
 5818 01cd 00       		.byte	0
 5819 01ce 24       		.uleb128 0x24
 5820 01cf 2E       		.uleb128 0x2e
 5821 01d0 01       		.byte	0x1
 5822 01d1 3F       		.uleb128 0x3f
 5823 01d2 0C       		.uleb128 0xc
 5824 01d3 03       		.uleb128 0x3
 5825 01d4 0E       		.uleb128 0xe
 5826 01d5 3A       		.uleb128 0x3a
 5827 01d6 0B       		.uleb128 0xb
 5828 01d7 3B       		.uleb128 0x3b
 5829 01d8 0B       		.uleb128 0xb
 5830 01d9 27       		.uleb128 0x27
 5831 01da 0C       		.uleb128 0xc
 5832 01db 11       		.uleb128 0x11
 5833 01dc 01       		.uleb128 0x1
 5834 01dd 12       		.uleb128 0x12
 5835 01de 01       		.uleb128 0x1
 5836 01df 40       		.uleb128 0x40
 5837 01e0 06       		.uleb128 0x6
 5838 01e1 9742     		.uleb128 0x2117
 5839 01e3 0C       		.uleb128 0xc
 5840 01e4 01       		.uleb128 0x1
 5841 01e5 13       		.uleb128 0x13
ARM GAS  /tmp/ccouNqwt.s 			page 104


 5842 01e6 00       		.byte	0
 5843 01e7 00       		.byte	0
 5844 01e8 25       		.uleb128 0x25
 5845 01e9 2E       		.uleb128 0x2e
 5846 01ea 01       		.byte	0x1
 5847 01eb 3F       		.uleb128 0x3f
 5848 01ec 0C       		.uleb128 0xc
 5849 01ed 03       		.uleb128 0x3
 5850 01ee 0E       		.uleb128 0xe
 5851 01ef 3A       		.uleb128 0x3a
 5852 01f0 0B       		.uleb128 0xb
 5853 01f1 3B       		.uleb128 0x3b
 5854 01f2 05       		.uleb128 0x5
 5855 01f3 27       		.uleb128 0x27
 5856 01f4 0C       		.uleb128 0xc
 5857 01f5 11       		.uleb128 0x11
 5858 01f6 01       		.uleb128 0x1
 5859 01f7 12       		.uleb128 0x12
 5860 01f8 01       		.uleb128 0x1
 5861 01f9 40       		.uleb128 0x40
 5862 01fa 06       		.uleb128 0x6
 5863 01fb 9642     		.uleb128 0x2116
 5864 01fd 0C       		.uleb128 0xc
 5865 01fe 01       		.uleb128 0x1
 5866 01ff 13       		.uleb128 0x13
 5867 0200 00       		.byte	0
 5868 0201 00       		.byte	0
 5869 0202 26       		.uleb128 0x26
 5870 0203 05       		.uleb128 0x5
 5871 0204 00       		.byte	0
 5872 0205 03       		.uleb128 0x3
 5873 0206 0E       		.uleb128 0xe
 5874 0207 3A       		.uleb128 0x3a
 5875 0208 0B       		.uleb128 0xb
 5876 0209 3B       		.uleb128 0x3b
 5877 020a 05       		.uleb128 0x5
 5878 020b 49       		.uleb128 0x49
 5879 020c 13       		.uleb128 0x13
 5880 020d 02       		.uleb128 0x2
 5881 020e 0A       		.uleb128 0xa
 5882 020f 00       		.byte	0
 5883 0210 00       		.byte	0
 5884 0211 27       		.uleb128 0x27
 5885 0212 34       		.uleb128 0x34
 5886 0213 00       		.byte	0
 5887 0214 03       		.uleb128 0x3
 5888 0215 08       		.uleb128 0x8
 5889 0216 3A       		.uleb128 0x3a
 5890 0217 0B       		.uleb128 0xb
 5891 0218 3B       		.uleb128 0x3b
 5892 0219 05       		.uleb128 0x5
 5893 021a 49       		.uleb128 0x49
 5894 021b 13       		.uleb128 0x13
 5895 021c 02       		.uleb128 0x2
 5896 021d 0A       		.uleb128 0xa
 5897 021e 00       		.byte	0
 5898 021f 00       		.byte	0
ARM GAS  /tmp/ccouNqwt.s 			page 105


 5899 0220 28       		.uleb128 0x28
 5900 0221 0B       		.uleb128 0xb
 5901 0222 01       		.byte	0x1
 5902 0223 11       		.uleb128 0x11
 5903 0224 01       		.uleb128 0x1
 5904 0225 12       		.uleb128 0x12
 5905 0226 01       		.uleb128 0x1
 5906 0227 01       		.uleb128 0x1
 5907 0228 13       		.uleb128 0x13
 5908 0229 00       		.byte	0
 5909 022a 00       		.byte	0
 5910 022b 29       		.uleb128 0x29
 5911 022c 0B       		.uleb128 0xb
 5912 022d 01       		.byte	0x1
 5913 022e 11       		.uleb128 0x11
 5914 022f 01       		.uleb128 0x1
 5915 0230 12       		.uleb128 0x12
 5916 0231 01       		.uleb128 0x1
 5917 0232 00       		.byte	0
 5918 0233 00       		.byte	0
 5919 0234 2A       		.uleb128 0x2a
 5920 0235 05       		.uleb128 0x5
 5921 0236 00       		.byte	0
 5922 0237 03       		.uleb128 0x3
 5923 0238 08       		.uleb128 0x8
 5924 0239 3A       		.uleb128 0x3a
 5925 023a 0B       		.uleb128 0xb
 5926 023b 3B       		.uleb128 0x3b
 5927 023c 05       		.uleb128 0x5
 5928 023d 49       		.uleb128 0x49
 5929 023e 13       		.uleb128 0x13
 5930 023f 02       		.uleb128 0x2
 5931 0240 0A       		.uleb128 0xa
 5932 0241 00       		.byte	0
 5933 0242 00       		.byte	0
 5934 0243 2B       		.uleb128 0x2b
 5935 0244 2E       		.uleb128 0x2e
 5936 0245 01       		.byte	0x1
 5937 0246 3F       		.uleb128 0x3f
 5938 0247 0C       		.uleb128 0xc
 5939 0248 03       		.uleb128 0x3
 5940 0249 0E       		.uleb128 0xe
 5941 024a 3A       		.uleb128 0x3a
 5942 024b 0B       		.uleb128 0xb
 5943 024c 3B       		.uleb128 0x3b
 5944 024d 05       		.uleb128 0x5
 5945 024e 27       		.uleb128 0x27
 5946 024f 0C       		.uleb128 0xc
 5947 0250 49       		.uleb128 0x49
 5948 0251 13       		.uleb128 0x13
 5949 0252 11       		.uleb128 0x11
 5950 0253 01       		.uleb128 0x1
 5951 0254 12       		.uleb128 0x12
 5952 0255 01       		.uleb128 0x1
 5953 0256 40       		.uleb128 0x40
 5954 0257 06       		.uleb128 0x6
 5955 0258 9642     		.uleb128 0x2116
ARM GAS  /tmp/ccouNqwt.s 			page 106


 5956 025a 0C       		.uleb128 0xc
 5957 025b 01       		.uleb128 0x1
 5958 025c 13       		.uleb128 0x13
 5959 025d 00       		.byte	0
 5960 025e 00       		.byte	0
 5961 025f 2C       		.uleb128 0x2c
 5962 0260 34       		.uleb128 0x34
 5963 0261 00       		.byte	0
 5964 0262 03       		.uleb128 0x3
 5965 0263 0E       		.uleb128 0xe
 5966 0264 3A       		.uleb128 0x3a
 5967 0265 0B       		.uleb128 0xb
 5968 0266 3B       		.uleb128 0x3b
 5969 0267 0B       		.uleb128 0xb
 5970 0268 49       		.uleb128 0x49
 5971 0269 13       		.uleb128 0x13
 5972 026a 02       		.uleb128 0x2
 5973 026b 0A       		.uleb128 0xa
 5974 026c 00       		.byte	0
 5975 026d 00       		.byte	0
 5976 026e 2D       		.uleb128 0x2d
 5977 026f 34       		.uleb128 0x34
 5978 0270 00       		.byte	0
 5979 0271 03       		.uleb128 0x3
 5980 0272 0E       		.uleb128 0xe
 5981 0273 3A       		.uleb128 0x3a
 5982 0274 0B       		.uleb128 0xb
 5983 0275 3B       		.uleb128 0x3b
 5984 0276 05       		.uleb128 0x5
 5985 0277 49       		.uleb128 0x49
 5986 0278 13       		.uleb128 0x13
 5987 0279 3F       		.uleb128 0x3f
 5988 027a 0C       		.uleb128 0xc
 5989 027b 3C       		.uleb128 0x3c
 5990 027c 0C       		.uleb128 0xc
 5991 027d 00       		.byte	0
 5992 027e 00       		.byte	0
 5993 027f 00       		.byte	0
 5994              		.section	.debug_loc,"",%progbits
 5995              	.Ldebug_loc0:
 5996              	.LLST0:
 5997 0000 00000000 		.4byte	.LFB118
 5998 0004 02000000 		.4byte	.LCFI0
 5999 0008 0200     		.2byte	0x2
 6000 000a 7D       		.byte	0x7d
 6001 000b 00       		.sleb128 0
 6002 000c 02000000 		.4byte	.LCFI0
 6003 0010 04000000 		.4byte	.LCFI1
 6004 0014 0200     		.2byte	0x2
 6005 0016 7D       		.byte	0x7d
 6006 0017 04       		.sleb128 4
 6007 0018 04000000 		.4byte	.LCFI1
 6008 001c 3C000000 		.4byte	.LFE118
 6009 0020 0200     		.2byte	0x2
 6010 0022 7D       		.byte	0x7d
 6011 0023 10       		.sleb128 16
 6012 0024 00000000 		.4byte	0
ARM GAS  /tmp/ccouNqwt.s 			page 107


 6013 0028 00000000 		.4byte	0
 6014              	.LLST1:
 6015 002c 00000000 		.4byte	.LFB119
 6016 0030 02000000 		.4byte	.LCFI2
 6017 0034 0200     		.2byte	0x2
 6018 0036 7D       		.byte	0x7d
 6019 0037 00       		.sleb128 0
 6020 0038 02000000 		.4byte	.LCFI2
 6021 003c 04000000 		.4byte	.LCFI3
 6022 0040 0200     		.2byte	0x2
 6023 0042 7D       		.byte	0x7d
 6024 0043 08       		.sleb128 8
 6025 0044 04000000 		.4byte	.LCFI3
 6026 0048 32040000 		.4byte	.LFE119
 6027 004c 0200     		.2byte	0x2
 6028 004e 7D       		.byte	0x7d
 6029 004f 18       		.sleb128 24
 6030 0050 00000000 		.4byte	0
 6031 0054 00000000 		.4byte	0
 6032              	.LLST2:
 6033 0058 00000000 		.4byte	.LFB120
 6034 005c 02000000 		.4byte	.LCFI4
 6035 0060 0200     		.2byte	0x2
 6036 0062 7D       		.byte	0x7d
 6037 0063 00       		.sleb128 0
 6038 0064 02000000 		.4byte	.LCFI4
 6039 0068 08000000 		.4byte	.LFE120
 6040 006c 0200     		.2byte	0x2
 6041 006e 7D       		.byte	0x7d
 6042 006f 08       		.sleb128 8
 6043 0070 00000000 		.4byte	0
 6044 0074 00000000 		.4byte	0
 6045              	.LLST3:
 6046 0078 00000000 		.4byte	.LFB121
 6047 007c 02000000 		.4byte	.LCFI5
 6048 0080 0200     		.2byte	0x2
 6049 0082 7D       		.byte	0x7d
 6050 0083 00       		.sleb128 0
 6051 0084 02000000 		.4byte	.LCFI5
 6052 0088 62000000 		.4byte	.LFE121
 6053 008c 0200     		.2byte	0x2
 6054 008e 7D       		.byte	0x7d
 6055 008f 10       		.sleb128 16
 6056 0090 00000000 		.4byte	0
 6057 0094 00000000 		.4byte	0
 6058              	.LLST4:
 6059 0098 00000000 		.4byte	.LFB122
 6060 009c 02000000 		.4byte	.LCFI6
 6061 00a0 0200     		.2byte	0x2
 6062 00a2 7D       		.byte	0x7d
 6063 00a3 00       		.sleb128 0
 6064 00a4 02000000 		.4byte	.LCFI6
 6065 00a8 04000000 		.4byte	.LCFI7
 6066 00ac 0200     		.2byte	0x2
 6067 00ae 7D       		.byte	0x7d
 6068 00af 04       		.sleb128 4
 6069 00b0 04000000 		.4byte	.LCFI7
ARM GAS  /tmp/ccouNqwt.s 			page 108


 6070 00b4 72000000 		.4byte	.LFE122
 6071 00b8 0200     		.2byte	0x2
 6072 00ba 7D       		.byte	0x7d
 6073 00bb 18       		.sleb128 24
 6074 00bc 00000000 		.4byte	0
 6075 00c0 00000000 		.4byte	0
 6076              	.LLST5:
 6077 00c4 00000000 		.4byte	.LFB123
 6078 00c8 02000000 		.4byte	.LCFI8
 6079 00cc 0200     		.2byte	0x2
 6080 00ce 7D       		.byte	0x7d
 6081 00cf 00       		.sleb128 0
 6082 00d0 02000000 		.4byte	.LCFI8
 6083 00d4 04000000 		.4byte	.LCFI9
 6084 00d8 0200     		.2byte	0x2
 6085 00da 7D       		.byte	0x7d
 6086 00db 04       		.sleb128 4
 6087 00dc 04000000 		.4byte	.LCFI9
 6088 00e0 46000000 		.4byte	.LFE123
 6089 00e4 0200     		.2byte	0x2
 6090 00e6 7D       		.byte	0x7d
 6091 00e7 10       		.sleb128 16
 6092 00e8 00000000 		.4byte	0
 6093 00ec 00000000 		.4byte	0
 6094              	.LLST6:
 6095 00f0 00000000 		.4byte	.LFB124
 6096 00f4 02000000 		.4byte	.LCFI10
 6097 00f8 0200     		.2byte	0x2
 6098 00fa 7D       		.byte	0x7d
 6099 00fb 00       		.sleb128 0
 6100 00fc 02000000 		.4byte	.LCFI10
 6101 0100 04000000 		.4byte	.LCFI11
 6102 0104 0200     		.2byte	0x2
 6103 0106 7D       		.byte	0x7d
 6104 0107 04       		.sleb128 4
 6105 0108 04000000 		.4byte	.LCFI11
 6106 010c 70000000 		.4byte	.LFE124
 6107 0110 0200     		.2byte	0x2
 6108 0112 7D       		.byte	0x7d
 6109 0113 18       		.sleb128 24
 6110 0114 00000000 		.4byte	0
 6111 0118 00000000 		.4byte	0
 6112              	.LLST7:
 6113 011c 00000000 		.4byte	.LFB125
 6114 0120 02000000 		.4byte	.LCFI12
 6115 0124 0200     		.2byte	0x2
 6116 0126 7D       		.byte	0x7d
 6117 0127 00       		.sleb128 0
 6118 0128 02000000 		.4byte	.LCFI12
 6119 012c 04000000 		.4byte	.LCFI13
 6120 0130 0200     		.2byte	0x2
 6121 0132 7D       		.byte	0x7d
 6122 0133 04       		.sleb128 4
 6123 0134 04000000 		.4byte	.LCFI13
 6124 0138 56000000 		.4byte	.LFE125
 6125 013c 0200     		.2byte	0x2
 6126 013e 7D       		.byte	0x7d
ARM GAS  /tmp/ccouNqwt.s 			page 109


 6127 013f 18       		.sleb128 24
 6128 0140 00000000 		.4byte	0
 6129 0144 00000000 		.4byte	0
 6130              	.LLST8:
 6131 0148 00000000 		.4byte	.LFB126
 6132 014c 02000000 		.4byte	.LCFI14
 6133 0150 0200     		.2byte	0x2
 6134 0152 7D       		.byte	0x7d
 6135 0153 00       		.sleb128 0
 6136 0154 02000000 		.4byte	.LCFI14
 6137 0158 04000000 		.4byte	.LCFI15
 6138 015c 0200     		.2byte	0x2
 6139 015e 7D       		.byte	0x7d
 6140 015f 04       		.sleb128 4
 6141 0160 04000000 		.4byte	.LCFI15
 6142 0164 52000000 		.4byte	.LFE126
 6143 0168 0200     		.2byte	0x2
 6144 016a 7D       		.byte	0x7d
 6145 016b 20       		.sleb128 32
 6146 016c 00000000 		.4byte	0
 6147 0170 00000000 		.4byte	0
 6148              	.LLST9:
 6149 0174 00000000 		.4byte	.LFB127
 6150 0178 02000000 		.4byte	.LCFI16
 6151 017c 0200     		.2byte	0x2
 6152 017e 7D       		.byte	0x7d
 6153 017f 00       		.sleb128 0
 6154 0180 02000000 		.4byte	.LCFI16
 6155 0184 04000000 		.4byte	.LCFI17
 6156 0188 0200     		.2byte	0x2
 6157 018a 7D       		.byte	0x7d
 6158 018b 04       		.sleb128 4
 6159 018c 04000000 		.4byte	.LCFI17
 6160 0190 52000000 		.4byte	.LFE127
 6161 0194 0200     		.2byte	0x2
 6162 0196 7D       		.byte	0x7d
 6163 0197 20       		.sleb128 32
 6164 0198 00000000 		.4byte	0
 6165 019c 00000000 		.4byte	0
 6166              	.LLST10:
 6167 01a0 00000000 		.4byte	.LFB128
 6168 01a4 02000000 		.4byte	.LCFI18
 6169 01a8 0200     		.2byte	0x2
 6170 01aa 7D       		.byte	0x7d
 6171 01ab 00       		.sleb128 0
 6172 01ac 02000000 		.4byte	.LCFI18
 6173 01b0 04000000 		.4byte	.LCFI19
 6174 01b4 0200     		.2byte	0x2
 6175 01b6 7D       		.byte	0x7d
 6176 01b7 04       		.sleb128 4
 6177 01b8 04000000 		.4byte	.LCFI19
 6178 01bc 52000000 		.4byte	.LFE128
 6179 01c0 0200     		.2byte	0x2
 6180 01c2 7D       		.byte	0x7d
 6181 01c3 20       		.sleb128 32
 6182 01c4 00000000 		.4byte	0
 6183 01c8 00000000 		.4byte	0
ARM GAS  /tmp/ccouNqwt.s 			page 110


 6184              	.LLST11:
 6185 01cc 00000000 		.4byte	.LFB129
 6186 01d0 02000000 		.4byte	.LCFI20
 6187 01d4 0200     		.2byte	0x2
 6188 01d6 7D       		.byte	0x7d
 6189 01d7 00       		.sleb128 0
 6190 01d8 02000000 		.4byte	.LCFI20
 6191 01dc 04000000 		.4byte	.LCFI21
 6192 01e0 0200     		.2byte	0x2
 6193 01e2 7D       		.byte	0x7d
 6194 01e3 04       		.sleb128 4
 6195 01e4 04000000 		.4byte	.LCFI21
 6196 01e8 52000000 		.4byte	.LFE129
 6197 01ec 0200     		.2byte	0x2
 6198 01ee 7D       		.byte	0x7d
 6199 01ef 20       		.sleb128 32
 6200 01f0 00000000 		.4byte	0
 6201 01f4 00000000 		.4byte	0
 6202              	.LLST12:
 6203 01f8 00000000 		.4byte	.LFB130
 6204 01fc 02000000 		.4byte	.LCFI22
 6205 0200 0200     		.2byte	0x2
 6206 0202 7D       		.byte	0x7d
 6207 0203 00       		.sleb128 0
 6208 0204 02000000 		.4byte	.LCFI22
 6209 0208 04000000 		.4byte	.LCFI23
 6210 020c 0200     		.2byte	0x2
 6211 020e 7D       		.byte	0x7d
 6212 020f 04       		.sleb128 4
 6213 0210 04000000 		.4byte	.LCFI23
 6214 0214 5C000000 		.4byte	.LFE130
 6215 0218 0200     		.2byte	0x2
 6216 021a 7D       		.byte	0x7d
 6217 021b 10       		.sleb128 16
 6218 021c 00000000 		.4byte	0
 6219 0220 00000000 		.4byte	0
 6220              	.LLST13:
 6221 0224 00000000 		.4byte	.LFB131
 6222 0228 02000000 		.4byte	.LCFI24
 6223 022c 0200     		.2byte	0x2
 6224 022e 7D       		.byte	0x7d
 6225 022f 00       		.sleb128 0
 6226 0230 02000000 		.4byte	.LCFI24
 6227 0234 04000000 		.4byte	.LCFI25
 6228 0238 0200     		.2byte	0x2
 6229 023a 7D       		.byte	0x7d
 6230 023b 04       		.sleb128 4
 6231 023c 04000000 		.4byte	.LCFI25
 6232 0240 5C000000 		.4byte	.LFE131
 6233 0244 0200     		.2byte	0x2
 6234 0246 7D       		.byte	0x7d
 6235 0247 10       		.sleb128 16
 6236 0248 00000000 		.4byte	0
 6237 024c 00000000 		.4byte	0
 6238              	.LLST14:
 6239 0250 00000000 		.4byte	.LFB132
 6240 0254 02000000 		.4byte	.LCFI26
ARM GAS  /tmp/ccouNqwt.s 			page 111


 6241 0258 0200     		.2byte	0x2
 6242 025a 7D       		.byte	0x7d
 6243 025b 00       		.sleb128 0
 6244 025c 02000000 		.4byte	.LCFI26
 6245 0260 04000000 		.4byte	.LCFI27
 6246 0264 0200     		.2byte	0x2
 6247 0266 7D       		.byte	0x7d
 6248 0267 04       		.sleb128 4
 6249 0268 04000000 		.4byte	.LCFI27
 6250 026c 3E000000 		.4byte	.LFE132
 6251 0270 0200     		.2byte	0x2
 6252 0272 7D       		.byte	0x7d
 6253 0273 10       		.sleb128 16
 6254 0274 00000000 		.4byte	0
 6255 0278 00000000 		.4byte	0
 6256              	.LLST15:
 6257 027c 00000000 		.4byte	.LFB133
 6258 0280 02000000 		.4byte	.LCFI28
 6259 0284 0200     		.2byte	0x2
 6260 0286 7D       		.byte	0x7d
 6261 0287 00       		.sleb128 0
 6262 0288 02000000 		.4byte	.LCFI28
 6263 028c 04000000 		.4byte	.LCFI29
 6264 0290 0200     		.2byte	0x2
 6265 0292 7D       		.byte	0x7d
 6266 0293 04       		.sleb128 4
 6267 0294 04000000 		.4byte	.LCFI29
 6268 0298 3E000000 		.4byte	.LFE133
 6269 029c 0200     		.2byte	0x2
 6270 029e 7D       		.byte	0x7d
 6271 029f 10       		.sleb128 16
 6272 02a0 00000000 		.4byte	0
 6273 02a4 00000000 		.4byte	0
 6274              	.LLST16:
 6275 02a8 00000000 		.4byte	.LFB134
 6276 02ac 02000000 		.4byte	.LCFI30
 6277 02b0 0200     		.2byte	0x2
 6278 02b2 7D       		.byte	0x7d
 6279 02b3 00       		.sleb128 0
 6280 02b4 02000000 		.4byte	.LCFI30
 6281 02b8 04000000 		.4byte	.LCFI31
 6282 02bc 0200     		.2byte	0x2
 6283 02be 7D       		.byte	0x7d
 6284 02bf 04       		.sleb128 4
 6285 02c0 04000000 		.4byte	.LCFI31
 6286 02c4 7A000000 		.4byte	.LFE134
 6287 02c8 0200     		.2byte	0x2
 6288 02ca 7D       		.byte	0x7d
 6289 02cb 18       		.sleb128 24
 6290 02cc 00000000 		.4byte	0
 6291 02d0 00000000 		.4byte	0
 6292              	.LLST17:
 6293 02d4 00000000 		.4byte	.LFB135
 6294 02d8 02000000 		.4byte	.LCFI32
 6295 02dc 0200     		.2byte	0x2
 6296 02de 7D       		.byte	0x7d
 6297 02df 00       		.sleb128 0
ARM GAS  /tmp/ccouNqwt.s 			page 112


 6298 02e0 02000000 		.4byte	.LCFI32
 6299 02e4 04000000 		.4byte	.LCFI33
 6300 02e8 0200     		.2byte	0x2
 6301 02ea 7D       		.byte	0x7d
 6302 02eb 04       		.sleb128 4
 6303 02ec 04000000 		.4byte	.LCFI33
 6304 02f0 C8010000 		.4byte	.LFE135
 6305 02f4 0200     		.2byte	0x2
 6306 02f6 7D       		.byte	0x7d
 6307 02f7 18       		.sleb128 24
 6308 02f8 00000000 		.4byte	0
 6309 02fc 00000000 		.4byte	0
 6310              	.LLST18:
 6311 0300 00000000 		.4byte	.LFB136
 6312 0304 02000000 		.4byte	.LCFI34
 6313 0308 0200     		.2byte	0x2
 6314 030a 7D       		.byte	0x7d
 6315 030b 00       		.sleb128 0
 6316 030c 02000000 		.4byte	.LCFI34
 6317 0310 04000000 		.4byte	.LCFI35
 6318 0314 0200     		.2byte	0x2
 6319 0316 7D       		.byte	0x7d
 6320 0317 04       		.sleb128 4
 6321 0318 04000000 		.4byte	.LCFI35
 6322 031c 1C010000 		.4byte	.LFE136
 6323 0320 0200     		.2byte	0x2
 6324 0322 7D       		.byte	0x7d
 6325 0323 18       		.sleb128 24
 6326 0324 00000000 		.4byte	0
 6327 0328 00000000 		.4byte	0
 6328              	.LLST19:
 6329 032c 00000000 		.4byte	.LFB137
 6330 0330 02000000 		.4byte	.LCFI36
 6331 0334 0200     		.2byte	0x2
 6332 0336 7D       		.byte	0x7d
 6333 0337 00       		.sleb128 0
 6334 0338 02000000 		.4byte	.LCFI36
 6335 033c 04000000 		.4byte	.LCFI37
 6336 0340 0200     		.2byte	0x2
 6337 0342 7D       		.byte	0x7d
 6338 0343 04       		.sleb128 4
 6339 0344 04000000 		.4byte	.LCFI37
 6340 0348 B6000000 		.4byte	.LFE137
 6341 034c 0200     		.2byte	0x2
 6342 034e 7D       		.byte	0x7d
 6343 034f 10       		.sleb128 16
 6344 0350 00000000 		.4byte	0
 6345 0354 00000000 		.4byte	0
 6346              		.section	.debug_aranges,"",%progbits
 6347 0000 B4000000 		.4byte	0xb4
 6348 0004 0200     		.2byte	0x2
 6349 0006 00000000 		.4byte	.Ldebug_info0
 6350 000a 04       		.byte	0x4
 6351 000b 00       		.byte	0
 6352 000c 0000     		.2byte	0
 6353 000e 0000     		.2byte	0
 6354 0010 00000000 		.4byte	.LFB118
ARM GAS  /tmp/ccouNqwt.s 			page 113


 6355 0014 3C000000 		.4byte	.LFE118-.LFB118
 6356 0018 00000000 		.4byte	.LFB119
 6357 001c 32040000 		.4byte	.LFE119-.LFB119
 6358 0020 00000000 		.4byte	.LFB120
 6359 0024 08000000 		.4byte	.LFE120-.LFB120
 6360 0028 00000000 		.4byte	.LFB121
 6361 002c 62000000 		.4byte	.LFE121-.LFB121
 6362 0030 00000000 		.4byte	.LFB122
 6363 0034 72000000 		.4byte	.LFE122-.LFB122
 6364 0038 00000000 		.4byte	.LFB123
 6365 003c 46000000 		.4byte	.LFE123-.LFB123
 6366 0040 00000000 		.4byte	.LFB124
 6367 0044 70000000 		.4byte	.LFE124-.LFB124
 6368 0048 00000000 		.4byte	.LFB125
 6369 004c 56000000 		.4byte	.LFE125-.LFB125
 6370 0050 00000000 		.4byte	.LFB126
 6371 0054 52000000 		.4byte	.LFE126-.LFB126
 6372 0058 00000000 		.4byte	.LFB127
 6373 005c 52000000 		.4byte	.LFE127-.LFB127
 6374 0060 00000000 		.4byte	.LFB128
 6375 0064 52000000 		.4byte	.LFE128-.LFB128
 6376 0068 00000000 		.4byte	.LFB129
 6377 006c 52000000 		.4byte	.LFE129-.LFB129
 6378 0070 00000000 		.4byte	.LFB130
 6379 0074 5C000000 		.4byte	.LFE130-.LFB130
 6380 0078 00000000 		.4byte	.LFB131
 6381 007c 5C000000 		.4byte	.LFE131-.LFB131
 6382 0080 00000000 		.4byte	.LFB132
 6383 0084 3E000000 		.4byte	.LFE132-.LFB132
 6384 0088 00000000 		.4byte	.LFB133
 6385 008c 3E000000 		.4byte	.LFE133-.LFB133
 6386 0090 00000000 		.4byte	.LFB134
 6387 0094 7A000000 		.4byte	.LFE134-.LFB134
 6388 0098 00000000 		.4byte	.LFB135
 6389 009c C8010000 		.4byte	.LFE135-.LFB135
 6390 00a0 00000000 		.4byte	.LFB136
 6391 00a4 1C010000 		.4byte	.LFE136-.LFB136
 6392 00a8 00000000 		.4byte	.LFB137
 6393 00ac B6000000 		.4byte	.LFE137-.LFB137
 6394 00b0 00000000 		.4byte	0
 6395 00b4 00000000 		.4byte	0
 6396              		.section	.debug_ranges,"",%progbits
 6397              	.Ldebug_ranges0:
 6398 0000 00000000 		.4byte	.LFB118
 6399 0004 3C000000 		.4byte	.LFE118
 6400 0008 00000000 		.4byte	.LFB119
 6401 000c 32040000 		.4byte	.LFE119
 6402 0010 00000000 		.4byte	.LFB120
 6403 0014 08000000 		.4byte	.LFE120
 6404 0018 00000000 		.4byte	.LFB121
 6405 001c 62000000 		.4byte	.LFE121
 6406 0020 00000000 		.4byte	.LFB122
 6407 0024 72000000 		.4byte	.LFE122
 6408 0028 00000000 		.4byte	.LFB123
 6409 002c 46000000 		.4byte	.LFE123
 6410 0030 00000000 		.4byte	.LFB124
 6411 0034 70000000 		.4byte	.LFE124
ARM GAS  /tmp/ccouNqwt.s 			page 114


 6412 0038 00000000 		.4byte	.LFB125
 6413 003c 56000000 		.4byte	.LFE125
 6414 0040 00000000 		.4byte	.LFB126
 6415 0044 52000000 		.4byte	.LFE126
 6416 0048 00000000 		.4byte	.LFB127
 6417 004c 52000000 		.4byte	.LFE127
 6418 0050 00000000 		.4byte	.LFB128
 6419 0054 52000000 		.4byte	.LFE128
 6420 0058 00000000 		.4byte	.LFB129
 6421 005c 52000000 		.4byte	.LFE129
 6422 0060 00000000 		.4byte	.LFB130
 6423 0064 5C000000 		.4byte	.LFE130
 6424 0068 00000000 		.4byte	.LFB131
 6425 006c 5C000000 		.4byte	.LFE131
 6426 0070 00000000 		.4byte	.LFB132
 6427 0074 3E000000 		.4byte	.LFE132
 6428 0078 00000000 		.4byte	.LFB133
 6429 007c 3E000000 		.4byte	.LFE133
 6430 0080 00000000 		.4byte	.LFB134
 6431 0084 7A000000 		.4byte	.LFE134
 6432 0088 00000000 		.4byte	.LFB135
 6433 008c C8010000 		.4byte	.LFE135
 6434 0090 00000000 		.4byte	.LFB136
 6435 0094 1C010000 		.4byte	.LFE136
 6436 0098 00000000 		.4byte	.LFB137
 6437 009c B6000000 		.4byte	.LFE137
 6438 00a0 00000000 		.4byte	0
 6439 00a4 00000000 		.4byte	0
 6440              		.section	.debug_line,"",%progbits
 6441              	.Ldebug_line0:
 6442 0000 D9040000 		.section	.debug_str,"MS",%progbits,1
 6442      0200D901 
 6442      00000201 
 6442      FB0E0D00 
 6442      01010101 
 6443              	.LASF11:
 6444 0000 73697A65 		.ascii	"size_t\000"
 6444      5F7400
 6445              	.LASF8:
 6446 0007 73697A65 		.ascii	"sizetype\000"
 6446      74797065 
 6446      00
 6447              	.LASF26:
 6448 0010 73797374 		.ascii	"systime_t\000"
 6448      696D655F 
 6448      7400
 6449              	.LASF31:
 6450 001a 705F6374 		.ascii	"p_ctx\000"
 6450      7800
 6451              	.LASF23:
 6452 0020 74707269 		.ascii	"tprio_t\000"
 6452      6F5F7400 
 6453              	.LASF41:
 6454 0028 705F6D73 		.ascii	"p_msgqueue\000"
 6454      67717565 
 6454      756500
 6455              	.LASF202:
ARM GAS  /tmp/ccouNqwt.s 			page 115


 6456 0033 72785F66 		.ascii	"rx_fifo_size\000"
 6456      69666F5F 
 6456      73697A65 
 6456      00
 6457              	.LASF14:
 6458 0040 696E7433 		.ascii	"int32_t\000"
 6458      325F7400 
 6459              	.LASF137:
 6460 0048 72657376 		.ascii	"resvd4\000"
 6460      643400
 6461              	.LASF128:
 6462 004f 72657376 		.ascii	"resvd8\000"
 6462      643800
 6463              	.LASF139:
 6464 0056 72657376 		.ascii	"resvdC\000"
 6464      644300
 6465              	.LASF248:
 6466 005d 75736253 		.ascii	"usbStartReceiveI\000"
 6466      74617274 
 6466      52656365 
 6466      69766549 
 6466      00
 6467              	.LASF105:
 6468 006e 5553425F 		.ascii	"USB_EP0_TX\000"
 6468      4550305F 
 6468      545800
 6469              	.LASF259:
 6470 0079 474E5520 		.ascii	"GNU C 4.7.4 20130613 (release) [ARM/embedded-4_7-br"
 6470      4320342E 
 6470      372E3420 
 6470      32303133 
 6470      30363133 
 6471 00ac 616E6368 		.ascii	"anch revision 200083]\000"
 6471      20726576 
 6471      6973696F 
 6471      6E203230 
 6471      30303833 
 6472              	.LASF177:
 6473 00c2 72657376 		.ascii	"resvd700\000"
 6473      64373030 
 6473      00
 6474              	.LASF75:
 6475 00cb 636F6E66 		.ascii	"config\000"
 6475      696700
 6476              	.LASF74:
 6477 00d2 73746174 		.ascii	"state\000"
 6477      6500
 6478              	.LASF221:
 6479 00d8 65705F6D 		.ascii	"ep_mode\000"
 6479      6F646500 
 6480              	.LASF247:
 6481 00e0 75736250 		.ascii	"usbPrepareQueuedTransmit\000"
 6481      72657061 
 6481      72655175 
 6481      65756564 
 6481      5472616E 
 6482              	.LASF99:
ARM GAS  /tmp/ccouNqwt.s 			page 116


 6483 00f9 5553425F 		.ascii	"USB_ACTIVE\000"
 6483      41435449 
 6483      564500
 6484              	.LASF255:
 6485 0104 5F757362 		.ascii	"_usb_ep0out\000"
 6485      5F657030 
 6485      6F757400 
 6486              	.LASF55:
 6487 0110 6D5F6F77 		.ascii	"m_owner\000"
 6487      6E657200 
 6488              	.LASF58:
 6489 0118 65786974 		.ascii	"exitcode\000"
 6489      636F6465 
 6489      00
 6490              	.LASF111:
 6491 0121 75736265 		.ascii	"usbep0state_t\000"
 6491      70307374 
 6491      6174655F 
 6491      7400
 6492              	.LASF65:
 6493 012f 715F746F 		.ascii	"q_top\000"
 6493      7000
 6494              	.LASF60:
 6495 0135 65776D61 		.ascii	"ewmask\000"
 6495      736B00
 6496              	.LASF64:
 6497 013c 715F6275 		.ascii	"q_buffer\000"
 6497      66666572 
 6497      00
 6498              	.LASF113:
 6499 0145 5553425F 		.ascii	"USB_EVENT_ADDRESS\000"
 6499      4556454E 
 6499      545F4144 
 6499      44524553 
 6499      5300
 6500              	.LASF158:
 6501 0157 44494550 		.ascii	"DIEPTXF0\000"
 6501      54584630 
 6501      00
 6502              	.LASF68:
 6503 0160 715F6E6F 		.ascii	"q_notify\000"
 6503      74696679 
 6503      00
 6504              	.LASF32:
 6505 0169 705F6E65 		.ascii	"p_newer\000"
 6505      77657200 
 6506              	.LASF7:
 6507 0171 6C6F6E67 		.ascii	"long int\000"
 6507      20696E74 
 6507      00
 6508              	.LASF28:
 6509 017a 705F6E65 		.ascii	"p_next\000"
 6509      787400
 6510              	.LASF67:
 6511 0181 715F7264 		.ascii	"q_rdptr\000"
 6511      70747200 
 6512              	.LASF212:
ARM GAS  /tmp/ccouNqwt.s 			page 117


 6513 0189 7478636E 		.ascii	"txcnt\000"
 6513      7400
 6514              	.LASF29:
 6515 018f 705F7072 		.ascii	"p_prev\000"
 6515      657600
 6516              	.LASF20:
 6517 0196 74737461 		.ascii	"tstate_t\000"
 6517      74655F74 
 6517      00
 6518              	.LASF226:
 6519 019f 6F75745F 		.ascii	"out_maxsize\000"
 6519      6D617873 
 6519      697A6500 
 6520              	.LASF44:
 6521 01ab 705F6D74 		.ascii	"p_mtxlist\000"
 6521      786C6973 
 6521      7400
 6522              	.LASF92:
 6523 01b5 7468645F 		.ascii	"thd_wait\000"
 6523      77616974 
 6523      00
 6524              	.LASF206:
 6525 01be 74786275 		.ascii	"txbuf\000"
 6525      6600
 6526              	.LASF49:
 6527 01c4 72656761 		.ascii	"regarm_t\000"
 6527      726D5F74 
 6527      00
 6528              	.LASF184:
 6529 01cd 4441494E 		.ascii	"DAINT\000"
 6529      5400
 6530              	.LASF104:
 6531 01d3 5553425F 		.ascii	"USB_EP0_WAITING_SETUP\000"
 6531      4550305F 
 6531      57414954 
 6531      494E475F 
 6531      53455455 
 6532              	.LASF183:
 6533 01e9 444F4550 		.ascii	"DOEPMSK\000"
 6533      4D534B00 
 6534              	.LASF238:
 6535 01f1 7573624F 		.ascii	"usbObjectInit\000"
 6535      626A6563 
 6535      74496E69 
 6535      7400
 6536              	.LASF258:
 6537 01ff 68616C74 		.ascii	"halted_status\000"
 6537      65645F73 
 6537      74617475 
 6537      7300
 6538              	.LASF144:
 6539 020d 444F4550 		.ascii	"DOEPCTL\000"
 6539      43544C00 
 6540              	.LASF0:
 6541 0215 7369676E 		.ascii	"signed char\000"
 6541      65642063 
 6541      68617200 
ARM GAS  /tmp/ccouNqwt.s 			page 118


 6542              	.LASF38:
 6543 0221 705F7072 		.ascii	"p_preempt\000"
 6543      65656D70 
 6543      7400
 6544              	.LASF12:
 6545 022b 75696E74 		.ascii	"uint8_t\000"
 6545      385F7400 
 6546              	.LASF117:
 6547 0233 5553425F 		.ascii	"USB_EVENT_STALLED\000"
 6547      4556454E 
 6547      545F5354 
 6547      414C4C45 
 6547      4400
 6548              	.LASF103:
 6549 0245 45505F53 		.ascii	"EP_STATUS_ACTIVE\000"
 6549      54415455 
 6549      535F4143 
 6549      54495645 
 6549      00
 6550              	.LASF145:
 6551 0256 444F4550 		.ascii	"DOEPINT\000"
 6551      494E5400 
 6552              	.LASF25:
 6553 025e 6576656E 		.ascii	"eventmask_t\000"
 6553      746D6173 
 6553      6B5F7400 
 6554              	.LASF52:
 6555 026a 636F6E74 		.ascii	"context\000"
 6555      65787400 
 6556              	.LASF218:
 6557 0272 72787369 		.ascii	"rxsize\000"
 6557      7A6500
 6558              	.LASF252:
 6559 0279 5F757362 		.ascii	"_usb_reset\000"
 6559      5F726573 
 6559      657400
 6560              	.LASF1:
 6561 0284 756E7369 		.ascii	"unsigned char\000"
 6561      676E6564 
 6561      20636861 
 6561      7200
 6562              	.LASF110:
 6563 0292 5553425F 		.ascii	"USB_EP0_ERROR\000"
 6563      4550305F 
 6563      4552524F 
 6563      5200
 6564              	.LASF69:
 6565 02a0 715F6C69 		.ascii	"q_link\000"
 6565      6E6B00
 6566              	.LASF178:
 6567 02a7 44434647 		.ascii	"DCFG\000"
 6567      00
 6568              	.LASF162:
 6569 02ac 47434346 		.ascii	"GCCFG\000"
 6569      4700
 6570              	.LASF80:
 6571 02b2 65703073 		.ascii	"ep0state\000"
ARM GAS  /tmp/ccouNqwt.s 			page 119


 6571      74617465 
 6571      00
 6572              	.LASF140:
 6573 02bb 44494550 		.ascii	"DIEPTSIZ\000"
 6573      5453495A 
 6573      00
 6574              	.LASF234:
 6575 02c4 72657175 		.ascii	"requests_hook_cb\000"
 6575      65737473 
 6575      5F686F6F 
 6575      6B5F6362 
 6575      00
 6576              	.LASF18:
 6577 02d5 5F426F6F 		.ascii	"_Bool\000"
 6577      6C00
 6578              	.LASF167:
 6579 02db 48434647 		.ascii	"HCFG\000"
 6579      00
 6580              	.LASF127:
 6581 02e0 48434348 		.ascii	"HCCHAR\000"
 6581      415200
 6582              	.LASF147:
 6583 02e7 73746D33 		.ascii	"stm32_otg_out_ep_t\000"
 6583      325F6F74 
 6583      675F6F75 
 6583      745F6570 
 6583      5F7400
 6584              	.LASF10:
 6585 02fa 63686172 		.ascii	"char\000"
 6585      00
 6586              	.LASF240:
 6587 02ff 75736253 		.ascii	"usbStop\000"
 6587      746F7000 
 6588              	.LASF82:
 6589 0307 6570306E 		.ascii	"ep0n\000"
 6589      00
 6590              	.LASF181:
 6591 030c 72657376 		.ascii	"resvd80C\000"
 6591      64383043 
 6591      00
 6592              	.LASF175:
 6593 0315 48505254 		.ascii	"HPRT\000"
 6593      00
 6594              	.LASF30:
 6595 031a 705F7072 		.ascii	"p_prio\000"
 6595      696F00
 6596              	.LASF77:
 6597 0321 72656365 		.ascii	"receiving\000"
 6597      6976696E 
 6597      6700
 6598              	.LASF61:
 6599 032b 47656E65 		.ascii	"GenericQueue\000"
 6599      72696351 
 6599      75657565 
 6599      00
 6600              	.LASF59:
 6601 0338 77746F62 		.ascii	"wtobjp\000"
ARM GAS  /tmp/ccouNqwt.s 			page 120


 6601      6A7000
 6602              	.LASF261:
 6603 033f 2F686F6D 		.ascii	"/home/witold/Dokumenty/arm/ChibiOS-master/demos/dis"
 6603      652F7769 
 6603      746F6C64 
 6603      2F446F6B 
 6603      756D656E 
 6604 0372 636F7665 		.ascii	"covery_1wire\000"
 6604      72795F31 
 6604      77697265 
 6604      00
 6605              	.LASF222:
 6606 037f 73657475 		.ascii	"setup_cb\000"
 6606      705F6362 
 6606      00
 6607              	.LASF120:
 6608 0388 75645F73 		.ascii	"ud_string\000"
 6608      7472696E 
 6608      6700
 6609              	.LASF223:
 6610 0392 696E5F63 		.ascii	"in_cb\000"
 6610      6200
 6611              	.LASF50:
 6612 0398 73746B61 		.ascii	"stkalign_t\000"
 6612      6C69676E 
 6612      5F7400
 6613              	.LASF72:
 6614 03a3 4F757470 		.ascii	"OutputQueue\000"
 6614      75745175 
 6614      65756500 
 6615              	.LASF243:
 6616 03af 75736244 		.ascii	"usbDisableEndpointsI\000"
 6616      69736162 
 6616      6C65456E 
 6616      64706F69 
 6616      6E747349 
 6617              	.LASF169:
 6618 03c4 48464E55 		.ascii	"HFNUM\000"
 6618      4D00
 6619              	.LASF124:
 6620 03ca 75736265 		.ascii	"usbeventcb_t\000"
 6620      76656E74 
 6620      63625F74 
 6620      00
 6621              	.LASF135:
 6622 03d7 73746D33 		.ascii	"stm32_otg_host_chn_t\000"
 6622      325F6F74 
 6622      675F686F 
 6622      73745F63 
 6622      686E5F74 
 6623              	.LASF76:
 6624 03ec 7472616E 		.ascii	"transmitting\000"
 6624      736D6974 
 6624      74696E67 
 6624      00
 6625              	.LASF131:
 6626 03f9 48435453 		.ascii	"HCTSIZ\000"
ARM GAS  /tmp/ccouNqwt.s 			page 121


 6626      495A00
 6627              	.LASF214:
 6628 0400 55534249 		.ascii	"USBInEndpointState\000"
 6628      6E456E64 
 6628      706F696E 
 6628      74537461 
 6628      746500
 6629              	.LASF186:
 6630 0413 72657376 		.ascii	"resvd820\000"
 6630      64383230 
 6630      00
 6631              	.LASF187:
 6632 041c 72657376 		.ascii	"resvd824\000"
 6632      64383234 
 6632      00
 6633              	.LASF189:
 6634 0425 44564255 		.ascii	"DVBUSPULSE\000"
 6634      5350554C 
 6634      534500
 6635              	.LASF257:
 6636 0430 61637469 		.ascii	"active_status\000"
 6636      76655F73 
 6636      74617475 
 6636      7300
 6637              	.LASF191:
 6638 043e 44494550 		.ascii	"DIEPEMPMSK\000"
 6638      454D504D 
 6638      534B00
 6639              	.LASF121:
 6640 0449 55534244 		.ascii	"USBDescriptor\000"
 6640      65736372 
 6640      6970746F 
 6640      7200
 6641              	.LASF250:
 6642 0457 75736253 		.ascii	"usbStallReceiveI\000"
 6642      74616C6C 
 6642      52656365 
 6642      69766549 
 6642      00
 6643              	.LASF205:
 6644 0468 73746D33 		.ascii	"stm32_otg_params_t\000"
 6644      325F6F74 
 6644      675F7061 
 6644      72616D73 
 6644      5F7400
 6645              	.LASF84:
 6646 047b 73657475 		.ascii	"setup\000"
 6646      7000
 6647              	.LASF51:
 6648 0481 696E7463 		.ascii	"intctx\000"
 6648      747800
 6649              	.LASF43:
 6650 0488 705F6570 		.ascii	"p_epending\000"
 6650      656E6469 
 6650      6E6700
 6651              	.LASF152:
 6652 0493 47525354 		.ascii	"GRSTCTL\000"
ARM GAS  /tmp/ccouNqwt.s 			page 122


 6652      43544C00 
 6653              	.LASF118:
 6654 049b 75736265 		.ascii	"usbevent_t\000"
 6654      76656E74 
 6654      5F7400
 6655              	.LASF192:
 6656 04a6 72657376 		.ascii	"resvd838\000"
 6656      64383338 
 6656      00
 6657              	.LASF119:
 6658 04af 75645F73 		.ascii	"ud_size\000"
 6658      697A6500 
 6659              	.LASF98:
 6660 04b7 5553425F 		.ascii	"USB_SELECTED\000"
 6660      53454C45 
 6660      43544544 
 6660      00
 6661              	.LASF87:
 6662 04c4 636F6E66 		.ascii	"configuration\000"
 6662      69677572 
 6662      6174696F 
 6662      6E00
 6663              	.LASF157:
 6664 04d2 47525846 		.ascii	"GRXFSIZ\000"
 6664      53495A00 
 6665              	.LASF102:
 6666 04da 45505F53 		.ascii	"EP_STATUS_STALLED\000"
 6666      54415455 
 6666      535F5354 
 6666      414C4C45 
 6666      4400
 6667              	.LASF63:
 6668 04ec 715F636F 		.ascii	"q_counter\000"
 6668      756E7465 
 6668      7200
 6669              	.LASF194:
 6670 04f6 72657376 		.ascii	"resvd840\000"
 6670      64383430 
 6670      00
 6671              	.LASF165:
 6672 04ff 44494550 		.ascii	"DIEPTXF\000"
 6672      54584600 
 6673              	.LASF251:
 6674 0507 75736253 		.ascii	"usbStallTransmitI\000"
 6674      74616C6C 
 6674      5472616E 
 6674      736D6974 
 6674      4900
 6675              	.LASF9:
 6676 0519 6C6F6E67 		.ascii	"long unsigned int\000"
 6676      20756E73 
 6676      69676E65 
 6676      6420696E 
 6676      7400
 6677              	.LASF245:
 6678 052b 75736250 		.ascii	"usbPrepareTransmit\000"
 6678      72657061 
ARM GAS  /tmp/ccouNqwt.s 			page 123


 6678      72655472 
 6678      616E736D 
 6678      697400
 6679              	.LASF85:
 6680 053e 73746174 		.ascii	"status\000"
 6680      757300
 6681              	.LASF256:
 6682 0545 7A65726F 		.ascii	"zero_status\000"
 6682      5F737461 
 6682      74757300 
 6683              	.LASF86:
 6684 0551 61646472 		.ascii	"address\000"
 6684      65737300 
 6685              	.LASF83:
 6686 0559 65703065 		.ascii	"ep0endcb\000"
 6686      6E646362 
 6686      00
 6687              	.LASF150:
 6688 0562 47414842 		.ascii	"GAHBCFG\000"
 6688      43464700 
 6689              	.LASF229:
 6690 056a 696E5F6D 		.ascii	"in_multiplier\000"
 6690      756C7469 
 6690      706C6965 
 6690      7200
 6691              	.LASF237:
 6692 0578 75736270 		.ascii	"usbp\000"
 6692      00
 6693              	.LASF204:
 6694 057d 6E756D5F 		.ascii	"num_endpoints\000"
 6694      656E6470 
 6694      6F696E74 
 6694      7300
 6695              	.LASF66:
 6696 058b 715F7772 		.ascii	"q_wrptr\000"
 6696      70747200 
 6697              	.LASF211:
 6698 0593 74787369 		.ascii	"txsize\000"
 6698      7A6500
 6699              	.LASF91:
 6700 059a 7468645F 		.ascii	"thd_ptr\000"
 6700      70747200 
 6701              	.LASF219:
 6702 05a2 7278636E 		.ascii	"rxcnt\000"
 6702      7400
 6703              	.LASF100:
 6704 05a8 75736273 		.ascii	"usbstate_t\000"
 6704      74617465 
 6704      5F7400
 6705              	.LASF170:
 6706 05b3 72657376 		.ascii	"resvd40C\000"
 6706      64343043 
 6706      00
 6707              	.LASF148:
 6708 05bc 474F5447 		.ascii	"GOTGCTL\000"
 6708      43544C00 
 6709              	.LASF253:
ARM GAS  /tmp/ccouNqwt.s 			page 124


 6710 05c4 5F757362 		.ascii	"_usb_ep0setup\000"
 6710      5F657030 
 6710      73657475 
 6710      7000
 6711              	.LASF215:
 6712 05d2 72786275 		.ascii	"rxbuf\000"
 6712      6600
 6713              	.LASF156:
 6714 05d8 47525853 		.ascii	"GRXSTSP\000"
 6714      54535000 
 6715              	.LASF227:
 6716 05e0 696E5F73 		.ascii	"in_state\000"
 6716      74617465 
 6716      00
 6717              	.LASF155:
 6718 05e9 47525853 		.ascii	"GRXSTSR\000"
 6718      54535200 
 6719              	.LASF116:
 6720 05f1 5553425F 		.ascii	"USB_EVENT_WAKEUP\000"
 6720      4556454E 
 6720      545F5741 
 6720      4B455550 
 6720      00
 6721              	.LASF198:
 6722 0602 50434743 		.ascii	"PCGCCTL\000"
 6722      43544C00 
 6723              	.LASF232:
 6724 060a 6576656E 		.ascii	"event_cb\000"
 6724      745F6362 
 6724      00
 6725              	.LASF53:
 6726 0613 4D757465 		.ascii	"Mutex\000"
 6726      7800
 6727              	.LASF5:
 6728 0619 6C6F6E67 		.ascii	"long long int\000"
 6728      206C6F6E 
 6728      6720696E 
 6728      7400
 6729              	.LASF97:
 6730 0627 5553425F 		.ascii	"USB_READY\000"
 6730      52454144 
 6730      5900
 6731              	.LASF54:
 6732 0631 6D5F7175 		.ascii	"m_queue\000"
 6732      65756500 
 6733              	.LASF174:
 6734 0639 72657376 		.ascii	"resvd41C\000"
 6734      64343143 
 6734      00
 6735              	.LASF81:
 6736 0642 6570306E 		.ascii	"ep0next\000"
 6736      65787400 
 6737              	.LASF190:
 6738 064a 72657376 		.ascii	"resvd830\000"
 6738      64383330 
 6738      00
 6739              	.LASF123:
ARM GAS  /tmp/ccouNqwt.s 			page 125


 6740 0653 75736265 		.ascii	"usbepcallback_t\000"
 6740      7063616C 
 6740      6C626163 
 6740      6B5F7400 
 6741              	.LASF195:
 6742 0663 72657376 		.ascii	"resvd880\000"
 6742      64383830 
 6742      00
 6743              	.LASF265:
 6744 066c 49544D5F 		.ascii	"ITM_RxBuffer\000"
 6744      52784275 
 6744      66666572 
 6744      00
 6745              	.LASF193:
 6746 0679 72657376 		.ascii	"resvd83C\000"
 6746      64383343 
 6746      00
 6747              	.LASF70:
 6748 0682 716E6F74 		.ascii	"qnotify_t\000"
 6748      6966795F 
 6748      7400
 6749              	.LASF40:
 6750 068c 705F7761 		.ascii	"p_waiting\000"
 6750      6974696E 
 6750      6700
 6751              	.LASF36:
 6752 0696 705F666C 		.ascii	"p_flags\000"
 6752      61677300 
 6753              	.LASF146:
 6754 069e 444F4550 		.ascii	"DOEPTSIZ\000"
 6754      5453495A 
 6754      00
 6755              	.LASF172:
 6756 06a7 4841494E 		.ascii	"HAINT\000"
 6756      5400
 6757              	.LASF4:
 6758 06ad 756E7369 		.ascii	"unsigned int\000"
 6758      676E6564 
 6758      20696E74 
 6758      00
 6759              	.LASF236:
 6760 06ba 55534243 		.ascii	"USBConfig\000"
 6760      6F6E6669 
 6760      6700
 6761              	.LASF90:
 6762 06c4 74787065 		.ascii	"txpending\000"
 6762      6E64696E 
 6762      6700
 6763              	.LASF46:
 6764 06ce 705F6D70 		.ascii	"p_mpool\000"
 6764      6F6F6C00 
 6765              	.LASF201:
 6766 06d6 73746D33 		.ascii	"stm32_otg_t\000"
 6766      325F6F74 
 6766      675F7400 
 6767              	.LASF37:
 6768 06e2 705F7265 		.ascii	"p_refs\000"
ARM GAS  /tmp/ccouNqwt.s 			page 126


 6768      667300
 6769              	.LASF230:
 6770 06e9 73657475 		.ascii	"setup_buf\000"
 6770      705F6275 
 6770      6600
 6771              	.LASF48:
 6772 06f3 54687265 		.ascii	"ThreadsList\000"
 6772      6164734C 
 6772      69737400 
 6773              	.LASF176:
 6774 06ff 72657376 		.ascii	"resvd444\000"
 6774      64343434 
 6774      00
 6775              	.LASF224:
 6776 0708 6F75745F 		.ascii	"out_cb\000"
 6776      636200
 6777              	.LASF73:
 6778 070f 55534244 		.ascii	"USBDriver\000"
 6778      72697665 
 6778      7200
 6779              	.LASF173:
 6780 0719 4841494E 		.ascii	"HAINTMSK\000"
 6780      544D534B 
 6780      00
 6781              	.LASF96:
 6782 0722 5553425F 		.ascii	"USB_STOP\000"
 6782      53544F50 
 6782      00
 6783              	.LASF225:
 6784 072b 696E5F6D 		.ascii	"in_maxsize\000"
 6784      61787369 
 6784      7A6500
 6785              	.LASF154:
 6786 0736 47494E54 		.ascii	"GINTMSK\000"
 6786      4D534B00 
 6787              	.LASF39:
 6788 073e 705F7469 		.ascii	"p_time\000"
 6788      6D6500
 6789              	.LASF228:
 6790 0745 6F75745F 		.ascii	"out_state\000"
 6790      73746174 
 6790      6500
 6791              	.LASF45:
 6792 074f 705F7265 		.ascii	"p_realprio\000"
 6792      616C7072 
 6792      696F00
 6793              	.LASF106:
 6794 075a 5553425F 		.ascii	"USB_EP0_WAITING_TX0\000"
 6794      4550305F 
 6794      57414954 
 6794      494E475F 
 6794      54583000 
 6795              	.LASF88:
 6796 076e 6F746770 		.ascii	"otgparams\000"
 6796      6172616D 
 6796      7300
 6797              	.LASF95:
ARM GAS  /tmp/ccouNqwt.s 			page 127


 6798 0778 5553425F 		.ascii	"USB_UNINIT\000"
 6798      554E494E 
 6798      495400
 6799              	.LASF220:
 6800 0783 5553424F 		.ascii	"USBOutEndpointState\000"
 6800      7574456E 
 6800      64706F69 
 6800      6E745374 
 6800      61746500 
 6801              	.LASF264:
 6802 0797 75736249 		.ascii	"usbInit\000"
 6802      6E697400 
 6803              	.LASF197:
 6804 079f 72657376 		.ascii	"resvdD00\000"
 6804      64443030 
 6804      00
 6805              	.LASF6:
 6806 07a8 6C6F6E67 		.ascii	"long long unsigned int\000"
 6806      206C6F6E 
 6806      6720756E 
 6806      7369676E 
 6806      65642069 
 6807              	.LASF164:
 6808 07bf 48505458 		.ascii	"HPTXFSIZ\000"
 6808      4653495A 
 6808      00
 6809              	.LASF33:
 6810 07c8 705F6F6C 		.ascii	"p_older\000"
 6810      64657200 
 6811              	.LASF13:
 6812 07d0 75696E74 		.ascii	"uint16_t\000"
 6812      31365F74 
 6812      00
 6813              	.LASF129:
 6814 07d9 4843494E 		.ascii	"HCINT\000"
 6814      5400
 6815              	.LASF208:
 6816 07df 6C696E65 		.ascii	"linear\000"
 6816      617200
 6817              	.LASF24:
 6818 07e6 6D73675F 		.ascii	"msg_t\000"
 6818      7400
 6819              	.LASF179:
 6820 07ec 4443544C 		.ascii	"DCTL\000"
 6820      00
 6821              	.LASF231:
 6822 07f1 55534245 		.ascii	"USBEndpointConfig\000"
 6822      6E64706F 
 6822      696E7443 
 6822      6F6E6669 
 6822      6700
 6823              	.LASF130:
 6824 0803 4843494E 		.ascii	"HCINTMSK\000"
 6824      544D534B 
 6824      00
 6825              	.LASF217:
 6826 080c 72787175 		.ascii	"rxqueued\000"
ARM GAS  /tmp/ccouNqwt.s 			page 128


 6826      65756564 
 6826      00
 6827              	.LASF22:
 6828 0815 74736C69 		.ascii	"tslices_t\000"
 6828      6365735F 
 6828      7400
 6829              	.LASF149:
 6830 081f 474F5447 		.ascii	"GOTGINT\000"
 6830      494E5400 
 6831              	.LASF241:
 6832 0827 75736249 		.ascii	"usbInitEndpointI\000"
 6832      6E697445 
 6832      6E64706F 
 6832      696E7449 
 6832      00
 6833              	.LASF209:
 6834 0838 71756575 		.ascii	"queue\000"
 6834      6500
 6835              	.LASF216:
 6836 083e 72787175 		.ascii	"rxqueue\000"
 6836      65756500 
 6837              	.LASF185:
 6838 0846 4441494E 		.ascii	"DAINTMSK\000"
 6838      544D534B 
 6838      00
 6839              	.LASF188:
 6840 084f 44564255 		.ascii	"DVBUSDIS\000"
 6840      53444953 
 6840      00
 6841              	.LASF143:
 6842 0858 73746D33 		.ascii	"stm32_otg_in_ep_t\000"
 6842      325F6F74 
 6842      675F696E 
 6842      5F65705F 
 6842      7400
 6843              	.LASF203:
 6844 086a 6F74675F 		.ascii	"otg_ram_size\000"
 6844      72616D5F 
 6844      73697A65 
 6844      00
 6845              	.LASF263:
 6846 0877 64656661 		.ascii	"default_handler\000"
 6846      756C745F 
 6846      68616E64 
 6846      6C657200 
 6847              	.LASF262:
 6848 0887 7365745F 		.ascii	"set_address\000"
 6848      61646472 
 6848      65737300 
 6849              	.LASF114:
 6850 0893 5553425F 		.ascii	"USB_EVENT_CONFIGURED\000"
 6850      4556454E 
 6850      545F434F 
 6850      4E464947 
 6850      55524544 
 6851              	.LASF200:
 6852 08a8 4649464F 		.ascii	"FIFO\000"
ARM GAS  /tmp/ccouNqwt.s 			page 129


 6852      00
 6853              	.LASF239:
 6854 08ad 75736253 		.ascii	"usbStart\000"
 6854      74617274 
 6854      00
 6855              	.LASF62:
 6856 08b6 715F7761 		.ascii	"q_waiting\000"
 6856      6974696E 
 6856      6700
 6857              	.LASF19:
 6858 08c0 746D6F64 		.ascii	"tmode_t\000"
 6858      655F7400 
 6859              	.LASF126:
 6860 08c8 75736267 		.ascii	"usbgetdescriptor_t\000"
 6860      65746465 
 6860      73637269 
 6860      70746F72 
 6860      5F7400
 6861              	.LASF93:
 6862 08db 77615F70 		.ascii	"wa_pump\000"
 6862      756D7000 
 6863              	.LASF78:
 6864 08e3 696E5F70 		.ascii	"in_params\000"
 6864      6172616D 
 6864      7300
 6865              	.LASF249:
 6866 08ed 75736253 		.ascii	"usbStartTransmitI\000"
 6866      74617274 
 6866      5472616E 
 6866      736D6974 
 6866      4900
 6867              	.LASF244:
 6868 08ff 75736250 		.ascii	"usbPrepareReceive\000"
 6868      72657061 
 6868      72655265 
 6868      63656976 
 6868      6500
 6869              	.LASF2:
 6870 0911 73686F72 		.ascii	"short int\000"
 6870      7420696E 
 6870      7400
 6871              	.LASF16:
 6872 091b 75696E74 		.ascii	"uint64_t\000"
 6872      36345F74 
 6872      00
 6873              	.LASF213:
 6874 0924 6D6F6465 		.ascii	"mode\000"
 6874      00
 6875              	.LASF112:
 6876 0929 5553425F 		.ascii	"USB_EVENT_RESET\000"
 6876      4556454E 
 6876      545F5245 
 6876      53455400 
 6877              	.LASF132:
 6878 0939 72657376 		.ascii	"resvd14\000"
 6878      64313400 
 6879              	.LASF133:
ARM GAS  /tmp/ccouNqwt.s 			page 130


 6880 0941 72657376 		.ascii	"resvd18\000"
 6880      64313800 
 6881              	.LASF141:
 6882 0949 44545846 		.ascii	"DTXFSTS\000"
 6882      53545300 
 6883              	.LASF207:
 6884 0951 74787175 		.ascii	"txqueue\000"
 6884      65756500 
 6885              	.LASF142:
 6886 0959 72657376 		.ascii	"resvd1C\000"
 6886      64314300 
 6887              	.LASF182:
 6888 0961 44494550 		.ascii	"DIEPMSK\000"
 6888      4D534B00 
 6889              	.LASF17:
 6890 0969 626F6F6C 		.ascii	"bool_t\000"
 6890      5F7400
 6891              	.LASF134:
 6892 0970 72657376 		.ascii	"resvd1c\000"
 6892      64316300 
 6893              	.LASF125:
 6894 0978 75736272 		.ascii	"usbreqhandler_t\000"
 6894      65716861 
 6894      6E646C65 
 6894      725F7400 
 6895              	.LASF246:
 6896 0988 75736250 		.ascii	"usbPrepareQueuedReceive\000"
 6896      72657061 
 6896      72655175 
 6896      65756564 
 6896      52656365 
 6897              	.LASF136:
 6898 09a0 44494550 		.ascii	"DIEPCTL\000"
 6898      43544C00 
 6899              	.LASF122:
 6900 09a8 75736263 		.ascii	"usbcallback_t\000"
 6900      616C6C62 
 6900      61636B5F 
 6900      7400
 6901              	.LASF27:
 6902 09b6 54687265 		.ascii	"Thread\000"
 6902      616400
 6903              	.LASF153:
 6904 09bd 47494E54 		.ascii	"GINTSTS\000"
 6904      53545300 
 6905              	.LASF138:
 6906 09c5 44494550 		.ascii	"DIEPINT\000"
 6906      494E5400 
 6907              	.LASF159:
 6908 09cd 484E5054 		.ascii	"HNPTXSTS\000"
 6908      58535453 
 6908      00
 6909              	.LASF21:
 6910 09d6 74726566 		.ascii	"trefs_t\000"
 6910      735F7400 
 6911              	.LASF260:
 6912 09de 2E2E2F2E 		.ascii	"../../os/hal/src/usb.c\000"
ARM GAS  /tmp/ccouNqwt.s 			page 131


 6912      2E2F6F73 
 6912      2F68616C 
 6912      2F737263 
 6912      2F757362 
 6913              	.LASF235:
 6914 09f5 736F665F 		.ascii	"sof_cb\000"
 6914      636200
 6915              	.LASF199:
 6916 09fc 72657376 		.ascii	"resvdE04\000"
 6916      64453034 
 6916      00
 6917              	.LASF160:
 6918 0a05 72657376 		.ascii	"resvd30\000"
 6918      64333000 
 6919              	.LASF196:
 6920 0a0d 72657376 		.ascii	"resvd8C0\000"
 6920      64384330 
 6920      00
 6921              	.LASF161:
 6922 0a16 72657376 		.ascii	"resvd34\000"
 6922      64333400 
 6923              	.LASF15:
 6924 0a1e 75696E74 		.ascii	"uint32_t\000"
 6924      33325F74 
 6924      00
 6925              	.LASF94:
 6926 0a27 75736265 		.ascii	"usbep_t\000"
 6926      705F7400 
 6927              	.LASF47:
 6928 0a2f 54687265 		.ascii	"ThreadsQueue\000"
 6928      61647351 
 6928      75657565 
 6928      00
 6929              	.LASF115:
 6930 0a3c 5553425F 		.ascii	"USB_EVENT_SUSPEND\000"
 6930      4556454E 
 6930      545F5355 
 6930      5350454E 
 6930      4400
 6931              	.LASF57:
 6932 0a4e 7264796D 		.ascii	"rdymsg\000"
 6932      736700
 6933              	.LASF3:
 6934 0a55 73686F72 		.ascii	"short unsigned int\000"
 6934      7420756E 
 6934      7369676E 
 6934      65642069 
 6934      6E7400
 6935              	.LASF180:
 6936 0a68 44535453 		.ascii	"DSTS\000"
 6936      00
 6937              	.LASF233:
 6938 0a6d 6765745F 		.ascii	"get_descriptor_cb\000"
 6938      64657363 
 6938      72697074 
 6938      6F725F63 
 6938      6200
ARM GAS  /tmp/ccouNqwt.s 			page 132


 6939              	.LASF71:
 6940 0a7f 496E7075 		.ascii	"InputQueue\000"
 6940      74517565 
 6940      756500
 6941              	.LASF254:
 6942 0a8a 5F757362 		.ascii	"_usb_ep0in\000"
 6942      5F657030 
 6942      696E00
 6943              	.LASF79:
 6944 0a95 6F75745F 		.ascii	"out_params\000"
 6944      70617261 
 6944      6D7300
 6945              	.LASF101:
 6946 0aa0 45505F53 		.ascii	"EP_STATUS_DISABLED\000"
 6946      54415455 
 6946      535F4449 
 6946      5341424C 
 6946      454400
 6947              	.LASF242:
 6948 0ab3 65706370 		.ascii	"epcp\000"
 6948      00
 6949              	.LASF171:
 6950 0ab8 48505458 		.ascii	"HPTXSTS\000"
 6950      53545300 
 6951              	.LASF163:
 6952 0ac0 72657376 		.ascii	"resvd58\000"
 6952      64353800 
 6953              	.LASF109:
 6954 0ac8 5553425F 		.ascii	"USB_EP0_SENDING_STS\000"
 6954      4550305F 
 6954      53454E44 
 6954      494E475F 
 6954      53545300 
 6955              	.LASF168:
 6956 0adc 48464952 		.ascii	"HFIR\000"
 6956      00
 6957              	.LASF107:
 6958 0ae1 5553425F 		.ascii	"USB_EP0_WAITING_STS\000"
 6958      4550305F 
 6958      57414954 
 6958      494E475F 
 6958      53545300 
 6959              	.LASF34:
 6960 0af5 705F6E61 		.ascii	"p_name\000"
 6960      6D6500
 6961              	.LASF56:
 6962 0afc 6D5F6E65 		.ascii	"m_next\000"
 6962      787400
 6963              	.LASF89:
 6964 0b03 706D6E65 		.ascii	"pmnext\000"
 6964      787400
 6965              	.LASF210:
 6966 0b0a 74787175 		.ascii	"txqueued\000"
 6966      65756564 
 6966      00
 6967              	.LASF151:
 6968 0b13 47555342 		.ascii	"GUSBCFG\000"
ARM GAS  /tmp/ccouNqwt.s 			page 133


 6968      43464700 
 6969              	.LASF108:
 6970 0b1b 5553425F 		.ascii	"USB_EP0_RX\000"
 6970      4550305F 
 6970      525800
 6971              	.LASF166:
 6972 0b26 72657376 		.ascii	"resvd140\000"
 6972      64313430 
 6972      00
 6973              	.LASF42:
 6974 0b2f 705F6D73 		.ascii	"p_msg\000"
 6974      6700
 6975              	.LASF35:
 6976 0b35 705F7374 		.ascii	"p_state\000"
 6976      61746500 
 6977              		.ident	"GCC: (GNU Tools for ARM Embedded Processors) 4.7.4 20130613 (release) [ARM/embedded-4_7-br
ARM GAS  /tmp/ccouNqwt.s 			page 134


DEFINED SYMBOLS
                            *ABS*:00000000 usb.c
     /tmp/ccouNqwt.s:19     .rodata.zero_status:00000000 $d
     /tmp/ccouNqwt.s:22     .rodata.zero_status:00000000 zero_status
     /tmp/ccouNqwt.s:25     .rodata.active_status:00000000 $d
     /tmp/ccouNqwt.s:28     .rodata.active_status:00000000 active_status
     /tmp/ccouNqwt.s:31     .rodata.halted_status:00000000 $d
     /tmp/ccouNqwt.s:34     .rodata.halted_status:00000000 halted_status
     /tmp/ccouNqwt.s:38     .text.set_address:00000000 $t
     /tmp/ccouNqwt.s:43     .text.set_address:00000000 set_address
     /tmp/ccouNqwt.s:91     .text.default_handler:00000000 $t
     /tmp/ccouNqwt.s:96     .text.default_handler:00000000 default_handler
     /tmp/ccouNqwt.s:624    .text.usbInit:00000000 $t
     /tmp/ccouNqwt.s:630    .text.usbInit:00000000 usbInit
     /tmp/ccouNqwt.s:649    .text.usbObjectInit:00000000 $t
     /tmp/ccouNqwt.s:655    .text.usbObjectInit:00000000 usbObjectInit
     /tmp/ccouNqwt.s:717    .text.usbStart:00000000 $t
     /tmp/ccouNqwt.s:723    .text.usbStart:00000000 usbStart
     /tmp/ccouNqwt.s:812    .text.usbStop:00000000 $t
     /tmp/ccouNqwt.s:818    .text.usbStop:00000000 usbStop
     /tmp/ccouNqwt.s:882    .text.usbInitEndpointI:00000000 $t
     /tmp/ccouNqwt.s:888    .text.usbInitEndpointI:00000000 usbInitEndpointI
     /tmp/ccouNqwt.s:959    .text.usbDisableEndpointsI:00000000 $t
     /tmp/ccouNqwt.s:965    .text.usbDisableEndpointsI:00000000 usbDisableEndpointsI
     /tmp/ccouNqwt.s:1025   .text.usbPrepareReceive:00000000 $t
     /tmp/ccouNqwt.s:1031   .text.usbPrepareReceive:00000000 usbPrepareReceive
     /tmp/ccouNqwt.s:1086   .text.usbPrepareTransmit:00000000 $t
     /tmp/ccouNqwt.s:1092   .text.usbPrepareTransmit:00000000 usbPrepareTransmit
     /tmp/ccouNqwt.s:1147   .text.usbPrepareQueuedReceive:00000000 $t
     /tmp/ccouNqwt.s:1153   .text.usbPrepareQueuedReceive:00000000 usbPrepareQueuedReceive
     /tmp/ccouNqwt.s:1208   .text.usbPrepareQueuedTransmit:00000000 $t
     /tmp/ccouNqwt.s:1214   .text.usbPrepareQueuedTransmit:00000000 usbPrepareQueuedTransmit
     /tmp/ccouNqwt.s:1269   .text.usbStartReceiveI:00000000 $t
     /tmp/ccouNqwt.s:1275   .text.usbStartReceiveI:00000000 usbStartReceiveI
     /tmp/ccouNqwt.s:1333   .text.usbStartTransmitI:00000000 $t
     /tmp/ccouNqwt.s:1339   .text.usbStartTransmitI:00000000 usbStartTransmitI
     /tmp/ccouNqwt.s:1397   .text.usbStallReceiveI:00000000 $t
     /tmp/ccouNqwt.s:1403   .text.usbStallReceiveI:00000000 usbStallReceiveI
     /tmp/ccouNqwt.s:1448   .text.usbStallTransmitI:00000000 $t
     /tmp/ccouNqwt.s:1454   .text.usbStallTransmitI:00000000 usbStallTransmitI
     /tmp/ccouNqwt.s:1499   .text._usb_reset:00000000 $t
     /tmp/ccouNqwt.s:1505   .text._usb_reset:00000000 _usb_reset
     /tmp/ccouNqwt.s:1579   .text._usb_ep0setup:00000000 $t
     /tmp/ccouNqwt.s:1585   .text._usb_ep0setup:00000000 _usb_ep0setup
     /tmp/ccouNqwt.s:1852   .text._usb_ep0in:00000000 $t
     /tmp/ccouNqwt.s:1858   .text._usb_ep0in:00000000 _usb_ep0in
     /tmp/ccouNqwt.s:2028   .text._usb_ep0out:00000000 $t
     /tmp/ccouNqwt.s:2034   .text._usb_ep0out:00000000 _usb_ep0out
                     .debug_frame:00000010 $d

UNDEFINED SYMBOLS
usb_lld_set_address
usb_lld_get_status_in
usb_lld_get_status_out
usb_lld_clear_in
usb_lld_clear_out
usb_lld_stall_in
ARM GAS  /tmp/ccouNqwt.s 			page 135


usb_lld_stall_out
usb_lld_init
usb_lld_start
usb_lld_stop
memset
usb_lld_init_endpoint
usb_lld_disable_endpoints
usb_lld_prepare_receive
usb_lld_prepare_transmit
usb_lld_start_out
usb_lld_start_in
usb_lld_reset
usb_lld_read_setup
