ARM GAS  /tmp/ccouNqwt.s 			page 1


   1              		.syntax unified
   2              		.cpu cortex-m4
   3              		.fpu softvfp
   4              		.eabi_attribute 20, 1
   5              		.eabi_attribute 21, 1
   6              		.eabi_attribute 23, 3
   7              		.eabi_attribute 24, 1
   8              		.eabi_attribute 25, 1
   9              		.eabi_attribute 26, 1
  10              		.eabi_attribute 30, 6
  11              		.eabi_attribute 34, 1
  12              		.eabi_attribute 18, 4
  13              		.thumb
  14              		.file	"usb.c"
  15              		.text
  16              	.Ltext0:
  17              		.cfi_sections	.debug_frame
  18              		.section	.rodata.zero_status,"a",%progbits
  19              		.align	2
  20              		.type	zero_status, %object
  21              		.size	zero_status, 2
  22              	zero_status:
  23 0000 0000     		.space	2
  24 0002 0000     		.section	.rodata.active_status,"a",%progbits
  25              		.align	2
  26              		.type	active_status, %object
  27              		.size	active_status, 2
  28              	active_status:
  29 0000 0000     		.space	2
  30 0002 0000     		.section	.rodata.halted_status,"a",%progbits
  31              		.align	2
  32              		.type	halted_status, %object
  33              		.size	halted_status, 2
  34              	halted_status:
  35 0000 01       		.byte	1
  36 0001 00       		.byte	0
  37 0002 0000     		.section	.text.set_address,"ax",%progbits
  38              		.align	2
  39              		.p2align 4,,15
  40              		.thumb
  41              		.thumb_func
  42              		.type	set_address, %function
  43              	set_address:
  44              	.LFB118:
  45              		.file 1 "../../os/hal/src/usb.c"
  46              		.loc 1 62 0
  47              		.cfi_startproc
  48              		@ args = 0, pretend = 0, frame = 8
  49              		@ frame_needed = 0, uses_anonymous_args = 0
  50 0000 00B5     		push	{lr}
  51              	.LCFI0:
  52              		.cfi_def_cfa_offset 4
  53              		.cfi_offset 14, -4
  54 0002 83B0     		sub	sp, sp, #12
  55              	.LCFI1:
  56              		.cfi_def_cfa_offset 16
  57 0004 0190     		str	r0, [sp, #4]
ARM GAS  /tmp/ccouNqwt.s 			page 2


  58              		.loc 1 64 0
  59 0006 019B     		ldr	r3, [sp, #4]
  60 0008 93F84620 		ldrb	r2, [r3, #70]	@ zero_extendqisi2
  61 000c 019B     		ldr	r3, [sp, #4]
  62 000e 83F84E20 		strb	r2, [r3, #78]
  63              		.loc 1 65 0
  64 0012 0198     		ldr	r0, [sp, #4]
  65 0014 FFF7FEFF 		bl	usb_lld_set_address
  66              		.loc 1 66 0
  67 0018 019B     		ldr	r3, [sp, #4]
  68 001a 5B68     		ldr	r3, [r3, #4]
  69 001c 1B68     		ldr	r3, [r3, #0]
  70 001e 002B     		cmp	r3, #0
  71 0020 06D0     		beq	.L2
  72              		.loc 1 66 0 is_stmt 0 discriminator 1
  73 0022 019B     		ldr	r3, [sp, #4]
  74 0024 5B68     		ldr	r3, [r3, #4]
  75 0026 1B68     		ldr	r3, [r3, #0]
  76 0028 0198     		ldr	r0, [sp, #4]
  77 002a 4FF00101 		mov	r1, #1
  78 002e 9847     		blx	r3
  79              	.L2:
  80              		.loc 1 67 0 is_stmt 1
  81 0030 019B     		ldr	r3, [sp, #4]
  82 0032 4FF00302 		mov	r2, #3
  83 0036 1A70     		strb	r2, [r3, #0]
  84              		.loc 1 68 0
  85 0038 03B0     		add	sp, sp, #12
  86 003a 00BD     		pop	{pc}
  87              		.cfi_endproc
  88              	.LFE118:
  89              		.size	set_address, .-set_address
  90 003c AFF30080 		.section	.text.default_handler,"ax",%progbits
  91              		.align	2
  92              		.p2align 4,,15
  93              		.thumb
  94              		.thumb_func
  95              		.type	default_handler, %function
  96              	default_handler:
  97              	.LFB119:
  98              		.loc 1 82 0
  99              		.cfi_startproc
 100              		@ args = 0, pretend = 0, frame = 16
 101              		@ frame_needed = 0, uses_anonymous_args = 0
 102 0000 10B5     		push	{r4, lr}
 103              	.LCFI2:
 104              		.cfi_def_cfa_offset 8
 105              		.cfi_offset 4, -8
 106              		.cfi_offset 14, -4
 107 0002 84B0     		sub	sp, sp, #16
 108              	.LCFI3:
 109              		.cfi_def_cfa_offset 24
 110 0004 0190     		str	r0, [sp, #4]
 111              		.loc 1 86 0
 112 0006 019B     		ldr	r3, [sp, #4]
 113 0008 93F84430 		ldrb	r3, [r3, #68]	@ zero_extendqisi2
 114 000c 03F07F02 		and	r2, r3, #127
ARM GAS  /tmp/ccouNqwt.s 			page 3


 115              		.loc 1 88 0
 116 0010 019B     		ldr	r3, [sp, #4]
 117 0012 93F84530 		ldrb	r3, [r3, #69]	@ zero_extendqisi2
 118 0016 4FEA0323 		lsl	r3, r3, #8
 119              		.loc 1 87 0
 120 001a 1343     		orrs	r3, r3, r2
 121              		.loc 1 86 0
 122 001c B3F5407F 		cmp	r3, #768
 123 0020 63D0     		beq	.L10
 124 0022 B3F5407F 		cmp	r3, #768
 125 0026 12DC     		bgt	.L16
 126 0028 022B     		cmp	r3, #2
 127 002a 00F01881 		beq	.L7
 128 002e 022B     		cmp	r3, #2
 129 0030 05DC     		bgt	.L17
 130 0032 002B     		cmp	r3, #0
 131 0034 29D0     		beq	.L5
 132 0036 012B     		cmp	r3, #1
 133 0038 00F00081 		beq	.L6
 134 003c F4E1     		b	.L4
 135              	.L17:
 136 003e B3F5807F 		cmp	r3, #256
 137 0042 32D0     		beq	.L8
 138 0044 B3F5817F 		cmp	r3, #258
 139 0048 00F07A81 		beq	.L9
 140 004c ECE1     		b	.L4
 141              	.L16:
 142 004e B3F5C06F 		cmp	r3, #1536
 143 0052 00F08680 		beq	.L13
 144 0056 B3F5C06F 		cmp	r3, #1536
 145 005a 08DC     		bgt	.L18
 146 005c 40F20232 		movw	r2, #770
 147 0060 9342     		cmp	r3, r2
 148 0062 00F0A781 		beq	.L11
 149 0066 B3F5A06F 		cmp	r3, #1280
 150 006a 5ED0     		beq	.L12
 151 006c DCE1     		b	.L4
 152              	.L18:
 153 006e B3F5106F 		cmp	r3, #2304
 154 0072 00F0B480 		beq	.L15
 155 0076 40F60242 		movw	r2, #3074
 156 007a 9342     		cmp	r3, r2
 157 007c 00F0DE80 		beq	.L6
 158 0080 B3F5006F 		cmp	r3, #2048
 159 0084 00F09B80 		beq	.L14
 160 0088 CEE1     		b	.L4
 161              	.L5:
 162              		.loc 1 91 0
 163 008a 019B     		ldr	r3, [sp, #4]
 164 008c 03F14C02 		add	r2, r3, #76
 165 0090 019B     		ldr	r3, [sp, #4]
 166 0092 9A63     		str	r2, [r3, #56]
 167 0094 019B     		ldr	r3, [sp, #4]
 168 0096 4FF00202 		mov	r2, #2
 169 009a DA63     		str	r2, [r3, #60]
 170 009c 019B     		ldr	r3, [sp, #4]
 171 009e 4FF00002 		mov	r2, #0
ARM GAS  /tmp/ccouNqwt.s 			page 4


 172 00a2 1A64     		str	r2, [r3, #64]
 173              		.loc 1 92 0
 174 00a4 4FF00103 		mov	r3, #1
 175 00a8 C0E1     		b	.L19
 176              	.L8:
 177              		.loc 1 96 0
 178 00aa 019B     		ldr	r3, [sp, #4]
 179 00ac 93F84630 		ldrb	r3, [r3, #70]	@ zero_extendqisi2
 180 00b0 012B     		cmp	r3, #1
 181 00b2 17D1     		bne	.L20
 182              		.loc 1 97 0
 183 00b4 019B     		ldr	r3, [sp, #4]
 184 00b6 B3F84C30 		ldrh	r3, [r3, #76]
 185 00ba 23F00203 		bic	r3, r3, #2
 186 00be 9AB2     		uxth	r2, r3
 187 00c0 019B     		ldr	r3, [sp, #4]
 188 00c2 A3F84C20 		strh	r2, [r3, #76]	@ movhi
 189              		.loc 1 98 0
 190 00c6 019B     		ldr	r3, [sp, #4]
 191 00c8 4FF00002 		mov	r2, #0
 192 00cc 9A63     		str	r2, [r3, #56]
 193 00ce 019B     		ldr	r3, [sp, #4]
 194 00d0 4FF00002 		mov	r2, #0
 195 00d4 DA63     		str	r2, [r3, #60]
 196 00d6 019B     		ldr	r3, [sp, #4]
 197 00d8 4FF00002 		mov	r2, #0
 198 00dc 1A64     		str	r2, [r3, #64]
 199              		.loc 1 99 0
 200 00de 4FF00103 		mov	r3, #1
 201 00e2 A3E1     		b	.L19
 202              	.L20:
 203              		.loc 1 101 0
 204 00e4 4FF00003 		mov	r3, #0
 205 00e8 A0E1     		b	.L19
 206              	.L10:
 207              		.loc 1 105 0
 208 00ea 019B     		ldr	r3, [sp, #4]
 209 00ec 93F84630 		ldrb	r3, [r3, #70]	@ zero_extendqisi2
 210 00f0 012B     		cmp	r3, #1
 211 00f2 17D1     		bne	.L21
 212              		.loc 1 106 0
 213 00f4 019B     		ldr	r3, [sp, #4]
 214 00f6 B3F84C30 		ldrh	r3, [r3, #76]
 215 00fa 43F00203 		orr	r3, r3, #2
 216 00fe 9AB2     		uxth	r2, r3
 217 0100 019B     		ldr	r3, [sp, #4]
 218 0102 A3F84C20 		strh	r2, [r3, #76]	@ movhi
 219              		.loc 1 107 0
 220 0106 019B     		ldr	r3, [sp, #4]
 221 0108 4FF00002 		mov	r2, #0
 222 010c 9A63     		str	r2, [r3, #56]
 223 010e 019B     		ldr	r3, [sp, #4]
 224 0110 4FF00002 		mov	r2, #0
 225 0114 DA63     		str	r2, [r3, #60]
 226 0116 019B     		ldr	r3, [sp, #4]
 227 0118 4FF00002 		mov	r2, #0
 228 011c 1A64     		str	r2, [r3, #64]
ARM GAS  /tmp/ccouNqwt.s 			page 5


 229              		.loc 1 108 0
 230 011e 4FF00103 		mov	r3, #1
 231 0122 83E1     		b	.L19
 232              	.L21:
 233              		.loc 1 110 0
 234 0124 4FF00003 		mov	r3, #0
 235 0128 80E1     		b	.L19
 236              	.L12:
 237              		.loc 1 116 0
 238 012a 019B     		ldr	r3, [sp, #4]
 239 012c 93F84430 		ldrb	r3, [r3, #68]	@ zero_extendqisi2
 240 0130 002B     		cmp	r3, #0
 241 0132 07D1     		bne	.L22
 242              		.loc 1 117 0 discriminator 1
 243 0134 019B     		ldr	r3, [sp, #4]
 244 0136 93F84530 		ldrb	r3, [r3, #69]	@ zero_extendqisi2
 245              		.loc 1 116 0 discriminator 1
 246 013a 052B     		cmp	r3, #5
 247 013c 02D1     		bne	.L22
 248              		.loc 1 118 0
 249 013e 0198     		ldr	r0, [sp, #4]
 250 0140 FFF7FEFF 		bl	set_address
 251              	.L22:
 252              		.loc 1 119 0
 253 0144 019B     		ldr	r3, [sp, #4]
 254 0146 4FF00002 		mov	r2, #0
 255 014a 9A63     		str	r2, [r3, #56]
 256 014c 019B     		ldr	r3, [sp, #4]
 257 014e 4FF00002 		mov	r2, #0
 258 0152 DA63     		str	r2, [r3, #60]
 259 0154 019B     		ldr	r3, [sp, #4]
 260 0156 4FF00002 		mov	r2, #0
 261 015a 1A64     		str	r2, [r3, #64]
 262              		.loc 1 123 0
 263 015c 4FF00103 		mov	r3, #1
 264 0160 64E1     		b	.L19
 265              	.L13:
 266              		.loc 1 126 0
 267 0162 019B     		ldr	r3, [sp, #4]
 268 0164 5B68     		ldr	r3, [r3, #4]
 269 0166 5C68     		ldr	r4, [r3, #4]
 270              		.loc 1 127 0
 271 0168 019B     		ldr	r3, [sp, #4]
 272              		.loc 1 126 0
 273 016a 93F84710 		ldrb	r1, [r3, #71]	@ zero_extendqisi2
 274              		.loc 1 127 0
 275 016e 019B     		ldr	r3, [sp, #4]
 276              		.loc 1 126 0
 277 0170 93F84620 		ldrb	r2, [r3, #70]	@ zero_extendqisi2
 278              		.loc 1 128 0
 279 0174 019B     		ldr	r3, [sp, #4]
 280 0176 93F84830 		ldrb	r3, [r3, #72]	@ zero_extendqisi2
 281              		.loc 1 126 0
 282 017a 1846     		mov	r0, r3
 283              		.loc 1 128 0
 284 017c 019B     		ldr	r3, [sp, #4]
 285 017e 93F84930 		ldrb	r3, [r3, #73]	@ zero_extendqisi2
ARM GAS  /tmp/ccouNqwt.s 			page 6


 286 0182 4FEA0323 		lsl	r3, r3, #8
 287              		.loc 1 126 0
 288 0186 9BB2     		uxth	r3, r3
 289 0188 0343     		orrs	r3, r3, r0
 290 018a 9BB2     		uxth	r3, r3
 291 018c 9BB2     		uxth	r3, r3
 292 018e 0198     		ldr	r0, [sp, #4]
 293 0190 A047     		blx	r4
 294 0192 0390     		str	r0, [sp, #12]
 295              		.loc 1 129 0
 296 0194 039B     		ldr	r3, [sp, #12]
 297 0196 002B     		cmp	r3, #0
 298 0198 02D1     		bne	.L23
 299              		.loc 1 130 0
 300 019a 4FF00003 		mov	r3, #0
 301 019e 45E1     		b	.L19
 302              	.L23:
 303              		.loc 1 131 0
 304 01a0 039B     		ldr	r3, [sp, #12]
 305 01a2 5A68     		ldr	r2, [r3, #4]
 306 01a4 019B     		ldr	r3, [sp, #4]
 307 01a6 9A63     		str	r2, [r3, #56]
 308 01a8 039B     		ldr	r3, [sp, #12]
 309 01aa 1A68     		ldr	r2, [r3, #0]
 310 01ac 019B     		ldr	r3, [sp, #4]
 311 01ae DA63     		str	r2, [r3, #60]
 312 01b0 019B     		ldr	r3, [sp, #4]
 313 01b2 4FF00002 		mov	r2, #0
 314 01b6 1A64     		str	r2, [r3, #64]
 315              		.loc 1 132 0
 316 01b8 4FF00103 		mov	r3, #1
 317 01bc 36E1     		b	.L19
 318              	.L14:
 319              		.loc 1 135 0
 320 01be 019B     		ldr	r3, [sp, #4]
 321 01c0 03F14F02 		add	r2, r3, #79
 322 01c4 019B     		ldr	r3, [sp, #4]
 323 01c6 9A63     		str	r2, [r3, #56]
 324 01c8 019B     		ldr	r3, [sp, #4]
 325 01ca 4FF00102 		mov	r2, #1
 326 01ce DA63     		str	r2, [r3, #60]
 327 01d0 019B     		ldr	r3, [sp, #4]
 328 01d2 4FF00002 		mov	r2, #0
 329 01d6 1A64     		str	r2, [r3, #64]
 330              		.loc 1 136 0
 331 01d8 4FF00103 		mov	r3, #1
 332 01dc 26E1     		b	.L19
 333              	.L15:
 334              		.loc 1 139 0
 335 01de 019B     		ldr	r3, [sp, #4]
 336 01e0 93F84620 		ldrb	r2, [r3, #70]	@ zero_extendqisi2
 337 01e4 019B     		ldr	r3, [sp, #4]
 338 01e6 83F84F20 		strb	r2, [r3, #79]
 339              		.loc 1 140 0
 340 01ea 019B     		ldr	r3, [sp, #4]
 341 01ec 93F84F30 		ldrb	r3, [r3, #79]	@ zero_extendqisi2
 342 01f0 002B     		cmp	r3, #0
ARM GAS  /tmp/ccouNqwt.s 			page 7


 343 01f2 04D1     		bne	.L24
 344              		.loc 1 141 0
 345 01f4 019B     		ldr	r3, [sp, #4]
 346 01f6 4FF00302 		mov	r2, #3
 347 01fa 1A70     		strb	r2, [r3, #0]
 348 01fc 03E0     		b	.L25
 349              	.L24:
 350              		.loc 1 143 0
 351 01fe 019B     		ldr	r3, [sp, #4]
 352 0200 4FF00402 		mov	r2, #4
 353 0204 1A70     		strb	r2, [r3, #0]
 354              	.L25:
 355              		.loc 1 144 0
 356 0206 019B     		ldr	r3, [sp, #4]
 357 0208 5B68     		ldr	r3, [r3, #4]
 358 020a 1B68     		ldr	r3, [r3, #0]
 359 020c 002B     		cmp	r3, #0
 360 020e 06D0     		beq	.L26
 361              		.loc 1 144 0 is_stmt 0 discriminator 1
 362 0210 019B     		ldr	r3, [sp, #4]
 363 0212 5B68     		ldr	r3, [r3, #4]
 364 0214 1B68     		ldr	r3, [r3, #0]
 365 0216 0198     		ldr	r0, [sp, #4]
 366 0218 4FF00201 		mov	r1, #2
 367 021c 9847     		blx	r3
 368              	.L26:
 369              		.loc 1 145 0 is_stmt 1
 370 021e 019B     		ldr	r3, [sp, #4]
 371 0220 4FF00002 		mov	r2, #0
 372 0224 9A63     		str	r2, [r3, #56]
 373 0226 019B     		ldr	r3, [sp, #4]
 374 0228 4FF00002 		mov	r2, #0
 375 022c DA63     		str	r2, [r3, #60]
 376 022e 019B     		ldr	r3, [sp, #4]
 377 0230 4FF00002 		mov	r2, #0
 378 0234 1A64     		str	r2, [r3, #64]
 379              		.loc 1 146 0
 380 0236 4FF00103 		mov	r3, #1
 381 023a F7E0     		b	.L19
 382              	.L6:
 383              		.loc 1 151 0
 384 023c 019A     		ldr	r2, [sp, #4]
 385 023e 40F20003 		movw	r3, #:lower16:zero_status
 386 0242 C0F20003 		movt	r3, #:upper16:zero_status
 387 0246 9363     		str	r3, [r2, #56]
 388 0248 019B     		ldr	r3, [sp, #4]
 389 024a 4FF00202 		mov	r2, #2
 390 024e DA63     		str	r2, [r3, #60]
 391 0250 019B     		ldr	r3, [sp, #4]
 392 0252 4FF00002 		mov	r2, #0
 393 0256 1A64     		str	r2, [r3, #64]
 394              		.loc 1 152 0
 395 0258 4FF00103 		mov	r3, #1
 396 025c E6E0     		b	.L19
 397              	.L7:
 398              		.loc 1 155 0
 399 025e 019B     		ldr	r3, [sp, #4]
ARM GAS  /tmp/ccouNqwt.s 			page 8


 400 0260 93F84830 		ldrb	r3, [r3, #72]	@ zero_extendqisi2
 401 0264 DBB2     		uxtb	r3, r3
 402 0266 5BB2     		sxtb	r3, r3
 403 0268 002B     		cmp	r3, #0
 404 026a 34DA     		bge	.L27
 405              		.loc 1 156 0
 406 026c 019B     		ldr	r3, [sp, #4]
 407 026e 93F84830 		ldrb	r3, [r3, #72]	@ zero_extendqisi2
 408 0272 03F00F03 		and	r3, r3, #15
 409 0276 DBB2     		uxtb	r3, r3
 410 0278 0198     		ldr	r0, [sp, #4]
 411 027a 1946     		mov	r1, r3
 412 027c FFF7FEFF 		bl	usb_lld_get_status_in
 413 0280 0346     		mov	r3, r0
 414 0282 012B     		cmp	r3, #1
 415 0284 02D0     		beq	.L29
 416 0286 022B     		cmp	r3, #2
 417 0288 11D0     		beq	.L30
 418 028a 21E0     		b	.L40
 419              	.L29:
 420              		.loc 1 158 0
 421 028c 019A     		ldr	r2, [sp, #4]
 422 028e 40F20003 		movw	r3, #:lower16:halted_status
 423 0292 C0F20003 		movt	r3, #:upper16:halted_status
 424 0296 9363     		str	r3, [r2, #56]
 425 0298 019B     		ldr	r3, [sp, #4]
 426 029a 4FF00202 		mov	r2, #2
 427 029e DA63     		str	r2, [r3, #60]
 428 02a0 019B     		ldr	r3, [sp, #4]
 429 02a2 4FF00002 		mov	r2, #0
 430 02a6 1A64     		str	r2, [r3, #64]
 431              		.loc 1 159 0
 432 02a8 4FF00103 		mov	r3, #1
 433 02ac BEE0     		b	.L19
 434              	.L30:
 435              		.loc 1 161 0
 436 02ae 019A     		ldr	r2, [sp, #4]
 437 02b0 40F20003 		movw	r3, #:lower16:active_status
 438 02b4 C0F20003 		movt	r3, #:upper16:active_status
 439 02b8 9363     		str	r3, [r2, #56]
 440 02ba 019B     		ldr	r3, [sp, #4]
 441 02bc 4FF00202 		mov	r2, #2
 442 02c0 DA63     		str	r2, [r3, #60]
 443 02c2 019B     		ldr	r3, [sp, #4]
 444 02c4 4FF00002 		mov	r2, #0
 445 02c8 1A64     		str	r2, [r3, #64]
 446              		.loc 1 162 0
 447 02ca 4FF00103 		mov	r3, #1
 448 02ce ADE0     		b	.L19
 449              	.L40:
 450              		.loc 1 164 0
 451 02d0 4FF00003 		mov	r3, #0
 452 02d4 AAE0     		b	.L19
 453              	.L27:
 454              		.loc 1 168 0
 455 02d6 019B     		ldr	r3, [sp, #4]
 456 02d8 93F84830 		ldrb	r3, [r3, #72]	@ zero_extendqisi2
ARM GAS  /tmp/ccouNqwt.s 			page 9


 457 02dc 03F00F03 		and	r3, r3, #15
 458 02e0 DBB2     		uxtb	r3, r3
 459 02e2 0198     		ldr	r0, [sp, #4]
 460 02e4 1946     		mov	r1, r3
 461 02e6 FFF7FEFF 		bl	usb_lld_get_status_out
 462 02ea 0346     		mov	r3, r0
 463 02ec 012B     		cmp	r3, #1
 464 02ee 02D0     		beq	.L32
 465 02f0 022B     		cmp	r3, #2
 466 02f2 11D0     		beq	.L33
 467 02f4 21E0     		b	.L41
 468              	.L32:
 469              		.loc 1 170 0
 470 02f6 019A     		ldr	r2, [sp, #4]
 471 02f8 40F20003 		movw	r3, #:lower16:halted_status
 472 02fc C0F20003 		movt	r3, #:upper16:halted_status
 473 0300 9363     		str	r3, [r2, #56]
 474 0302 019B     		ldr	r3, [sp, #4]
 475 0304 4FF00202 		mov	r2, #2
 476 0308 DA63     		str	r2, [r3, #60]
 477 030a 019B     		ldr	r3, [sp, #4]
 478 030c 4FF00002 		mov	r2, #0
 479 0310 1A64     		str	r2, [r3, #64]
 480              		.loc 1 171 0
 481 0312 4FF00103 		mov	r3, #1
 482 0316 89E0     		b	.L19
 483              	.L33:
 484              		.loc 1 173 0
 485 0318 019A     		ldr	r2, [sp, #4]
 486 031a 40F20003 		movw	r3, #:lower16:active_status
 487 031e C0F20003 		movt	r3, #:upper16:active_status
 488 0322 9363     		str	r3, [r2, #56]
 489 0324 019B     		ldr	r3, [sp, #4]
 490 0326 4FF00202 		mov	r2, #2
 491 032a DA63     		str	r2, [r3, #60]
 492 032c 019B     		ldr	r3, [sp, #4]
 493 032e 4FF00002 		mov	r2, #0
 494 0332 1A64     		str	r2, [r3, #64]
 495              		.loc 1 174 0
 496 0334 4FF00103 		mov	r3, #1
 497 0338 78E0     		b	.L19
 498              	.L41:
 499              		.loc 1 176 0
 500 033a 4FF00003 		mov	r3, #0
 501 033e 75E0     		b	.L19
 502              	.L9:
 503              		.loc 1 181 0
 504 0340 019B     		ldr	r3, [sp, #4]
 505 0342 93F84630 		ldrb	r3, [r3, #70]	@ zero_extendqisi2
 506 0346 002B     		cmp	r3, #0
 507 0348 02D0     		beq	.L34
 508              		.loc 1 182 0
 509 034a 4FF00003 		mov	r3, #0
 510 034e 6DE0     		b	.L19
 511              	.L34:
 512              		.loc 1 184 0
 513 0350 019B     		ldr	r3, [sp, #4]
ARM GAS  /tmp/ccouNqwt.s 			page 10


 514 0352 93F84830 		ldrb	r3, [r3, #72]	@ zero_extendqisi2
 515 0356 03F00F03 		and	r3, r3, #15
 516 035a 002B     		cmp	r3, #0
 517 035c 1BDD     		ble	.L35
 518              		.loc 1 185 0
 519 035e 019B     		ldr	r3, [sp, #4]
 520 0360 93F84830 		ldrb	r3, [r3, #72]	@ zero_extendqisi2
 521 0364 DBB2     		uxtb	r3, r3
 522 0366 5BB2     		sxtb	r3, r3
 523 0368 002B     		cmp	r3, #0
 524 036a 0ADA     		bge	.L36
 525              		.loc 1 186 0
 526 036c 019B     		ldr	r3, [sp, #4]
 527 036e 93F84830 		ldrb	r3, [r3, #72]	@ zero_extendqisi2
 528 0372 03F00F03 		and	r3, r3, #15
 529 0376 DBB2     		uxtb	r3, r3
 530 0378 0198     		ldr	r0, [sp, #4]
 531 037a 1946     		mov	r1, r3
 532 037c FFF7FEFF 		bl	usb_lld_clear_in
 533 0380 09E0     		b	.L35
 534              	.L36:
 535              		.loc 1 188 0
 536 0382 019B     		ldr	r3, [sp, #4]
 537 0384 93F84830 		ldrb	r3, [r3, #72]	@ zero_extendqisi2
 538 0388 03F00F03 		and	r3, r3, #15
 539 038c DBB2     		uxtb	r3, r3
 540 038e 0198     		ldr	r0, [sp, #4]
 541 0390 1946     		mov	r1, r3
 542 0392 FFF7FEFF 		bl	usb_lld_clear_out
 543              	.L35:
 544              		.loc 1 190 0
 545 0396 019B     		ldr	r3, [sp, #4]
 546 0398 4FF00002 		mov	r2, #0
 547 039c 9A63     		str	r2, [r3, #56]
 548 039e 019B     		ldr	r3, [sp, #4]
 549 03a0 4FF00002 		mov	r2, #0
 550 03a4 DA63     		str	r2, [r3, #60]
 551 03a6 019B     		ldr	r3, [sp, #4]
 552 03a8 4FF00002 		mov	r2, #0
 553 03ac 1A64     		str	r2, [r3, #64]
 554              		.loc 1 191 0
 555 03ae 4FF00103 		mov	r3, #1
 556 03b2 3BE0     		b	.L19
 557              	.L11:
 558              		.loc 1 194 0
 559 03b4 019B     		ldr	r3, [sp, #4]
 560 03b6 93F84630 		ldrb	r3, [r3, #70]	@ zero_extendqisi2
 561 03ba 002B     		cmp	r3, #0
 562 03bc 02D0     		beq	.L37
 563              		.loc 1 195 0
 564 03be 4FF00003 		mov	r3, #0
 565 03c2 33E0     		b	.L19
 566              	.L37:
 567              		.loc 1 197 0
 568 03c4 019B     		ldr	r3, [sp, #4]
 569 03c6 93F84830 		ldrb	r3, [r3, #72]	@ zero_extendqisi2
 570 03ca 03F00F03 		and	r3, r3, #15
ARM GAS  /tmp/ccouNqwt.s 			page 11


 571 03ce 002B     		cmp	r3, #0
 572 03d0 1BDD     		ble	.L38
 573              		.loc 1 198 0
 574 03d2 019B     		ldr	r3, [sp, #4]
 575 03d4 93F84830 		ldrb	r3, [r3, #72]	@ zero_extendqisi2
 576 03d8 DBB2     		uxtb	r3, r3
 577 03da 5BB2     		sxtb	r3, r3
 578 03dc 002B     		cmp	r3, #0
 579 03de 0ADA     		bge	.L39
 580              		.loc 1 199 0
 581 03e0 019B     		ldr	r3, [sp, #4]
 582 03e2 93F84830 		ldrb	r3, [r3, #72]	@ zero_extendqisi2
 583 03e6 03F00F03 		and	r3, r3, #15
 584 03ea DBB2     		uxtb	r3, r3
 585 03ec 0198     		ldr	r0, [sp, #4]
 586 03ee 1946     		mov	r1, r3
 587 03f0 FFF7FEFF 		bl	usb_lld_stall_in
 588 03f4 09E0     		b	.L38
 589              	.L39:
 590              		.loc 1 201 0
 591 03f6 019B     		ldr	r3, [sp, #4]
 592 03f8 93F84830 		ldrb	r3, [r3, #72]	@ zero_extendqisi2
 593 03fc 03F00F03 		and	r3, r3, #15
 594 0400 DBB2     		uxtb	r3, r3
 595 0402 0198     		ldr	r0, [sp, #4]
 596 0404 1946     		mov	r1, r3
 597 0406 FFF7FEFF 		bl	usb_lld_stall_out
 598              	.L38:
 599              		.loc 1 203 0
 600 040a 019B     		ldr	r3, [sp, #4]
 601 040c 4FF00002 		mov	r2, #0
 602 0410 9A63     		str	r2, [r3, #56]
 603 0412 019B     		ldr	r3, [sp, #4]
 604 0414 4FF00002 		mov	r2, #0
 605 0418 DA63     		str	r2, [r3, #60]
 606 041a 019B     		ldr	r3, [sp, #4]
 607 041c 4FF00002 		mov	r2, #0
 608 0420 1A64     		str	r2, [r3, #64]
 609              		.loc 1 204 0
 610 0422 4FF00103 		mov	r3, #1
 611 0426 01E0     		b	.L19
 612              	.L4:
 613              		.loc 1 213 0
 614 0428 4FF00003 		mov	r3, #0
 615              	.L19:
 616              		.loc 1 215 0
 617 042c 1846     		mov	r0, r3
 618 042e 04B0     		add	sp, sp, #16
 619 0430 10BD     		pop	{r4, pc}
 620              		.cfi_endproc
 621              	.LFE119:
 622              		.size	default_handler, .-default_handler
 623 0432 00BFAFF3 		.section	.text.usbInit,"ax",%progbits
 623      0080AFF3 
 623      0080AFF3 
 623      0080
 624              		.align	2
ARM GAS  /tmp/ccouNqwt.s 			page 12


 625              		.p2align 4,,15
 626              		.global	usbInit
 627              		.thumb
 628              		.thumb_func
 629              		.type	usbInit, %function
 630              	usbInit:
 631              	.LFB120:
 632              		.loc 1 228 0
 633              		.cfi_startproc
 634              		@ args = 0, pretend = 0, frame = 0
 635              		@ frame_needed = 0, uses_anonymous_args = 0
 636 0000 08B5     		push	{r3, lr}
 637              	.LCFI4:
 638              		.cfi_def_cfa_offset 8
 639              		.cfi_offset 3, -8
 640              		.cfi_offset 14, -4
 641              		.loc 1 230 0
 642 0002 FFF7FEFF 		bl	usb_lld_init
 643              		.loc 1 231 0
 644 0006 08BD     		pop	{r3, pc}
 645              		.cfi_endproc
 646              	.LFE120:
 647              		.size	usbInit, .-usbInit
 648 0008 AFF30080 		.section	.text.usbObjectInit,"ax",%progbits
 648      AFF30080 
 649              		.align	2
 650              		.p2align 4,,15
 651              		.global	usbObjectInit
 652              		.thumb
 653              		.thumb_func
 654              		.type	usbObjectInit, %function
 655              	usbObjectInit:
 656              	.LFB121:
 657              		.loc 1 240 0
 658              		.cfi_startproc
 659              		@ args = 0, pretend = 0, frame = 16
 660              		@ frame_needed = 0, uses_anonymous_args = 0
 661              		@ link register save eliminated.
 662 0000 84B0     		sub	sp, sp, #16
 663              	.LCFI5:
 664              		.cfi_def_cfa_offset 16
 665 0002 0190     		str	r0, [sp, #4]
 666              		.loc 1 243 0
 667 0004 019B     		ldr	r3, [sp, #4]
 668 0006 4FF00102 		mov	r2, #1
 669 000a 1A70     		strb	r2, [r3, #0]
 670              		.loc 1 244 0
 671 000c 019B     		ldr	r3, [sp, #4]
 672 000e 4FF00002 		mov	r2, #0
 673 0012 5A60     		str	r2, [r3, #4]
 674              		.loc 1 245 0
 675 0014 4FF00003 		mov	r3, #0
 676 0018 0393     		str	r3, [sp, #12]
 677 001a 15E0     		b	.L44
 678              	.L45:
 679              		.loc 1 246 0 discriminator 2
 680 001c 019A     		ldr	r2, [sp, #4]
ARM GAS  /tmp/ccouNqwt.s 			page 13


 681 001e 039B     		ldr	r3, [sp, #12]
 682 0020 03F10603 		add	r3, r3, #6
 683 0024 4FEA8303 		lsl	r3, r3, #2
 684 0028 D318     		adds	r3, r2, r3
 685 002a 4FF00002 		mov	r2, #0
 686 002e 5A60     		str	r2, [r3, #4]
 687              		.loc 1 247 0 discriminator 2
 688 0030 019B     		ldr	r3, [sp, #4]
 689 0032 039A     		ldr	r2, [sp, #12]
 690 0034 02F10A02 		add	r2, r2, #10
 691 0038 4FF00001 		mov	r1, #0
 692 003c 43F82210 		str	r1, [r3, r2, lsl #2]
 693              		.loc 1 245 0 discriminator 2
 694 0040 039B     		ldr	r3, [sp, #12]
 695 0042 03F10103 		add	r3, r3, #1
 696 0046 0393     		str	r3, [sp, #12]
 697              	.L44:
 698              		.loc 1 245 0 is_stmt 0 discriminator 1
 699 0048 039B     		ldr	r3, [sp, #12]
 700 004a 022B     		cmp	r3, #2
 701 004c E6D9     		bls	.L45
 702              		.loc 1 249 0 is_stmt 1
 703 004e 019B     		ldr	r3, [sp, #4]
 704 0050 4FF00002 		mov	r2, #0
 705 0054 1A81     		strh	r2, [r3, #8]	@ movhi
 706              		.loc 1 250 0
 707 0056 019B     		ldr	r3, [sp, #4]
 708 0058 4FF00002 		mov	r2, #0
 709 005c 5A81     		strh	r2, [r3, #10]	@ movhi
 710              		.loc 1 251 0
 711 005e 04B0     		add	sp, sp, #16
 712 0060 7047     		bx	lr
 713              		.cfi_endproc
 714              	.LFE121:
 715              		.size	usbObjectInit, .-usbObjectInit
 716 0062 00BFAFF3 		.section	.text.usbStart,"ax",%progbits
 716      0080AFF3 
 716      0080AFF3 
 716      0080
 717              		.align	2
 718              		.p2align 4,,15
 719              		.global	usbStart
 720              		.thumb
 721              		.thumb_func
 722              		.type	usbStart, %function
 723              	usbStart:
 724              	.LFB122:
 725              		.loc 1 261 0
 726              		.cfi_startproc
 727              		@ args = 0, pretend = 0, frame = 16
 728              		@ frame_needed = 0, uses_anonymous_args = 0
 729 0000 00B5     		push	{lr}
 730              	.LCFI6:
 731              		.cfi_def_cfa_offset 4
 732              		.cfi_offset 14, -4
 733 0002 85B0     		sub	sp, sp, #20
 734              	.LCFI7:
ARM GAS  /tmp/ccouNqwt.s 			page 14


 735              		.cfi_def_cfa_offset 24
 736 0004 0190     		str	r0, [sp, #4]
 737 0006 0091     		str	r1, [sp, #0]
 738              		.loc 1 264 0
 739 0008 019B     		ldr	r3, [sp, #4]
 740 000a 002B     		cmp	r3, #0
 741 000c 01D0     		beq	.L48
 742              		.loc 1 264 0 is_stmt 0 discriminator 1
 743 000e 009B     		ldr	r3, [sp, #0]
 744 0010 002B     		cmp	r3, #0
 745              	.L48:
 746              	.LBB2:
 747              		.loc 1 266 0 is_stmt 1
 748 0012 4FF02003 		mov	r3, #32
 749              	@ 266 "../../os/hal/src/usb.c" 1
 750 0016 83F31188 		msr     BASEPRI, r3
 751              	@ 0 "" 2
 752              		.thumb
 753              	.LBE2:
 754              		.loc 1 267 0
 755 001a 019B     		ldr	r3, [sp, #4]
 756 001c 1B78     		ldrb	r3, [r3, #0]	@ zero_extendqisi2
 757 001e 012B     		cmp	r3, #1
 758 0020 02D0     		beq	.L51
 759              		.loc 1 267 0 is_stmt 0 discriminator 2
 760 0022 019B     		ldr	r3, [sp, #4]
 761 0024 1B78     		ldrb	r3, [r3, #0]	@ zero_extendqisi2
 762 0026 022B     		cmp	r3, #2
 763              	.L51:
 764              		.loc 1 269 0 is_stmt 1
 765 0028 019B     		ldr	r3, [sp, #4]
 766 002a 009A     		ldr	r2, [sp, #0]
 767 002c 5A60     		str	r2, [r3, #4]
 768              		.loc 1 270 0
 769 002e 4FF00003 		mov	r3, #0
 770 0032 0393     		str	r3, [sp, #12]
 771 0034 0DE0     		b	.L52
 772              	.L53:
 773              		.loc 1 271 0 discriminator 2
 774 0036 019A     		ldr	r2, [sp, #4]
 775 0038 039B     		ldr	r3, [sp, #12]
 776 003a 03F10203 		add	r3, r3, #2
 777 003e 4FEA8303 		lsl	r3, r3, #2
 778 0042 D318     		adds	r3, r2, r3
 779 0044 4FF00002 		mov	r2, #0
 780 0048 5A60     		str	r2, [r3, #4]
 781              		.loc 1 270 0 discriminator 2
 782 004a 039B     		ldr	r3, [sp, #12]
 783 004c 03F10103 		add	r3, r3, #1
 784 0050 0393     		str	r3, [sp, #12]
 785              	.L52:
 786              		.loc 1 270 0 is_stmt 0 discriminator 1
 787 0052 039B     		ldr	r3, [sp, #12]
 788 0054 032B     		cmp	r3, #3
 789 0056 EED9     		bls	.L53
 790              		.loc 1 272 0 is_stmt 1
 791 0058 0198     		ldr	r0, [sp, #4]
ARM GAS  /tmp/ccouNqwt.s 			page 15


 792 005a FFF7FEFF 		bl	usb_lld_start
 793              		.loc 1 273 0
 794 005e 019B     		ldr	r3, [sp, #4]
 795 0060 4FF00202 		mov	r2, #2
 796 0064 1A70     		strb	r2, [r3, #0]
 797              	.LBB3:
 798              		.loc 1 274 0
 799 0066 4FF00003 		mov	r3, #0
 800              	@ 274 "../../os/hal/src/usb.c" 1
 801 006a 83F31188 		msr     BASEPRI, r3
 802              	@ 0 "" 2
 803              		.thumb
 804              	.LBE3:
 805              		.loc 1 275 0
 806 006e 05B0     		add	sp, sp, #20
 807 0070 00BD     		pop	{pc}
 808              		.cfi_endproc
 809              	.LFE122:
 810              		.size	usbStart, .-usbStart
 811 0072 00BFAFF3 		.section	.text.usbStop,"ax",%progbits
 811      0080AFF3 
 811      0080AFF3 
 811      0080
 812              		.align	2
 813              		.p2align 4,,15
 814              		.global	usbStop
 815              		.thumb
 816              		.thumb_func
 817              		.type	usbStop, %function
 818              	usbStop:
 819              	.LFB123:
 820              		.loc 1 284 0
 821              		.cfi_startproc
 822              		@ args = 0, pretend = 0, frame = 8
 823              		@ frame_needed = 0, uses_anonymous_args = 0
 824 0000 00B5     		push	{lr}
 825              	.LCFI8:
 826              		.cfi_def_cfa_offset 4
 827              		.cfi_offset 14, -4
 828 0002 83B0     		sub	sp, sp, #12
 829              	.LCFI9:
 830              		.cfi_def_cfa_offset 16
 831 0004 0190     		str	r0, [sp, #4]
 832              	.LBB4:
 833              		.loc 1 288 0
 834 0006 4FF02003 		mov	r3, #32
 835              	@ 288 "../../os/hal/src/usb.c" 1
 836 000a 83F31188 		msr     BASEPRI, r3
 837              	@ 0 "" 2
 838              		.thumb
 839              	.LBE4:
 840              		.loc 1 289 0
 841 000e 019B     		ldr	r3, [sp, #4]
 842 0010 1B78     		ldrb	r3, [r3, #0]	@ zero_extendqisi2
 843 0012 012B     		cmp	r3, #1
 844 0014 0AD0     		beq	.L57
 845              		.loc 1 289 0 is_stmt 0 discriminator 2
ARM GAS  /tmp/ccouNqwt.s 			page 16


 846 0016 019B     		ldr	r3, [sp, #4]
 847 0018 1B78     		ldrb	r3, [r3, #0]	@ zero_extendqisi2
 848 001a 022B     		cmp	r3, #2
 849 001c 06D0     		beq	.L57
 850              		.loc 1 289 0 discriminator 3
 851 001e 019B     		ldr	r3, [sp, #4]
 852 0020 1B78     		ldrb	r3, [r3, #0]	@ zero_extendqisi2
 853 0022 032B     		cmp	r3, #3
 854 0024 02D0     		beq	.L57
 855              		.loc 1 289 0 discriminator 4
 856 0026 019B     		ldr	r3, [sp, #4]
 857 0028 1B78     		ldrb	r3, [r3, #0]	@ zero_extendqisi2
 858 002a 042B     		cmp	r3, #4
 859              	.L57:
 860              		.loc 1 292 0 is_stmt 1
 861 002c 0198     		ldr	r0, [sp, #4]
 862 002e FFF7FEFF 		bl	usb_lld_stop
 863              		.loc 1 293 0
 864 0032 019B     		ldr	r3, [sp, #4]
 865 0034 4FF00102 		mov	r2, #1
 866 0038 1A70     		strb	r2, [r3, #0]
 867              	.LBB5:
 868              		.loc 1 294 0
 869 003a 4FF00003 		mov	r3, #0
 870              	@ 294 "../../os/hal/src/usb.c" 1
 871 003e 83F31188 		msr     BASEPRI, r3
 872              	@ 0 "" 2
 873              		.thumb
 874              	.LBE5:
 875              		.loc 1 295 0
 876 0042 03B0     		add	sp, sp, #12
 877 0044 00BD     		pop	{pc}
 878              		.cfi_endproc
 879              	.LFE123:
 880              		.size	usbStop, .-usbStop
 881 0046 00BFAFF3 		.section	.text.usbInitEndpointI,"ax",%progbits
 881      0080AFF3 
 881      0080
 882              		.align	2
 883              		.p2align 4,,15
 884              		.global	usbInitEndpointI
 885              		.thumb
 886              		.thumb_func
 887              		.type	usbInitEndpointI, %function
 888              	usbInitEndpointI:
 889              	.LFB124:
 890              		.loc 1 311 0
 891              		.cfi_startproc
 892              		@ args = 0, pretend = 0, frame = 16
 893              		@ frame_needed = 0, uses_anonymous_args = 0
 894 0000 00B5     		push	{lr}
 895              	.LCFI10:
 896              		.cfi_def_cfa_offset 4
 897              		.cfi_offset 14, -4
 898 0002 85B0     		sub	sp, sp, #20
 899              	.LCFI11:
 900              		.cfi_def_cfa_offset 24
ARM GAS  /tmp/ccouNqwt.s 			page 17


 901 0004 0390     		str	r0, [sp, #12]
 902 0006 0B46     		mov	r3, r1
 903 0008 0192     		str	r2, [sp, #4]
 904 000a 8DF80B30 		strb	r3, [sp, #11]
 905              		.loc 1 314 0
 906 000e 039B     		ldr	r3, [sp, #12]
 907 0010 002B     		cmp	r3, #0
 908 0012 01D0     		beq	.L60
 909              		.loc 1 314 0 is_stmt 0 discriminator 1
 910 0014 019B     		ldr	r3, [sp, #4]
 911 0016 002B     		cmp	r3, #0
 912              	.L60:
 913              		.loc 1 321 0 is_stmt 1
 914 0018 019B     		ldr	r3, [sp, #4]
 915 001a 5B69     		ldr	r3, [r3, #20]
 916 001c 002B     		cmp	r3, #0
 917 001e 08D0     		beq	.L61
 918              		.loc 1 322 0
 919 0020 019B     		ldr	r3, [sp, #4]
 920 0022 5B69     		ldr	r3, [r3, #20]
 921 0024 1846     		mov	r0, r3
 922 0026 4FF00001 		mov	r1, #0
 923 002a 4FF01002 		mov	r2, #16
 924 002e FFF7FEFF 		bl	memset
 925              	.L61:
 926              		.loc 1 323 0
 927 0032 019B     		ldr	r3, [sp, #4]
 928 0034 9B69     		ldr	r3, [r3, #24]
 929 0036 002B     		cmp	r3, #0
 930 0038 08D0     		beq	.L62
 931              		.loc 1 324 0
 932 003a 019B     		ldr	r3, [sp, #4]
 933 003c 9B69     		ldr	r3, [r3, #24]
 934 003e 1846     		mov	r0, r3
 935 0040 4FF00001 		mov	r1, #0
 936 0044 4FF01002 		mov	r2, #16
 937 0048 FFF7FEFF 		bl	memset
 938              	.L62:
 939              		.loc 1 326 0
 940 004c 9DF80B30 		ldrb	r3, [sp, #11]	@ zero_extendqisi2
 941 0050 039A     		ldr	r2, [sp, #12]
 942 0052 03F10203 		add	r3, r3, #2
 943 0056 4FEA8303 		lsl	r3, r3, #2
 944 005a D318     		adds	r3, r2, r3
 945 005c 019A     		ldr	r2, [sp, #4]
 946 005e 5A60     		str	r2, [r3, #4]
 947              		.loc 1 329 0
 948 0060 9DF80B30 		ldrb	r3, [sp, #11]	@ zero_extendqisi2
 949 0064 0398     		ldr	r0, [sp, #12]
 950 0066 1946     		mov	r1, r3
 951 0068 FFF7FEFF 		bl	usb_lld_init_endpoint
 952              		.loc 1 330 0
 953 006c 05B0     		add	sp, sp, #20
 954 006e 00BD     		pop	{pc}
 955              		.cfi_endproc
 956              	.LFE124:
 957              		.size	usbInitEndpointI, .-usbInitEndpointI
ARM GAS  /tmp/ccouNqwt.s 			page 18


 958              		.section	.text.usbDisableEndpointsI,"ax",%progbits
 959              		.align	2
 960              		.p2align 4,,15
 961              		.global	usbDisableEndpointsI
 962              		.thumb
 963              		.thumb_func
 964              		.type	usbDisableEndpointsI, %function
 965              	usbDisableEndpointsI:
 966              	.LFB125:
 967              		.loc 1 343 0
 968              		.cfi_startproc
 969              		@ args = 0, pretend = 0, frame = 16
 970              		@ frame_needed = 0, uses_anonymous_args = 0
 971 0000 00B5     		push	{lr}
 972              	.LCFI12:
 973              		.cfi_def_cfa_offset 4
 974              		.cfi_offset 14, -4
 975 0002 85B0     		sub	sp, sp, #20
 976              	.LCFI13:
 977              		.cfi_def_cfa_offset 24
 978 0004 0190     		str	r0, [sp, #4]
 979              		.loc 1 351 0
 980 0006 019B     		ldr	r3, [sp, #4]
 981 0008 1B89     		ldrh	r3, [r3, #8]
 982 000a 23F00103 		bic	r3, r3, #1
 983 000e 9AB2     		uxth	r2, r3
 984 0010 019B     		ldr	r3, [sp, #4]
 985 0012 1A81     		strh	r2, [r3, #8]	@ movhi
 986              		.loc 1 352 0
 987 0014 019B     		ldr	r3, [sp, #4]
 988 0016 5B89     		ldrh	r3, [r3, #10]
 989 0018 23F00103 		bic	r3, r3, #1
 990 001c 9AB2     		uxth	r2, r3
 991 001e 019B     		ldr	r3, [sp, #4]
 992 0020 5A81     		strh	r2, [r3, #10]	@ movhi
 993              		.loc 1 353 0
 994 0022 4FF00103 		mov	r3, #1
 995 0026 0393     		str	r3, [sp, #12]
 996 0028 0DE0     		b	.L64
 997              	.L65:
 998              		.loc 1 354 0 discriminator 2
 999 002a 019A     		ldr	r2, [sp, #4]
 1000 002c 039B     		ldr	r3, [sp, #12]
 1001 002e 03F10203 		add	r3, r3, #2
 1002 0032 4FEA8303 		lsl	r3, r3, #2
 1003 0036 D318     		adds	r3, r2, r3
 1004 0038 4FF00002 		mov	r2, #0
 1005 003c 5A60     		str	r2, [r3, #4]
 1006              		.loc 1 353 0 discriminator 2
 1007 003e 039B     		ldr	r3, [sp, #12]
 1008 0040 03F10103 		add	r3, r3, #1
 1009 0044 0393     		str	r3, [sp, #12]
 1010              	.L64:
 1011              		.loc 1 353 0 is_stmt 0 discriminator 1
 1012 0046 039B     		ldr	r3, [sp, #12]
 1013 0048 032B     		cmp	r3, #3
 1014 004a EED9     		bls	.L65
ARM GAS  /tmp/ccouNqwt.s 			page 19


 1015              		.loc 1 357 0 is_stmt 1
 1016 004c 0198     		ldr	r0, [sp, #4]
 1017 004e FFF7FEFF 		bl	usb_lld_disable_endpoints
 1018              		.loc 1 358 0
 1019 0052 05B0     		add	sp, sp, #20
 1020 0054 00BD     		pop	{pc}
 1021              		.cfi_endproc
 1022              	.LFE125:
 1023              		.size	usbDisableEndpointsI, .-usbDisableEndpointsI
 1024 0056 00BFAFF3 		.section	.text.usbPrepareReceive,"ax",%progbits
 1024      0080AFF3 
 1024      0080
 1025              		.align	2
 1026              		.p2align 4,,15
 1027              		.global	usbPrepareReceive
 1028              		.thumb
 1029              		.thumb_func
 1030              		.type	usbPrepareReceive, %function
 1031              	usbPrepareReceive:
 1032              	.LFB126:
 1033              		.loc 1 372 0
 1034              		.cfi_startproc
 1035              		@ args = 0, pretend = 0, frame = 24
 1036              		@ frame_needed = 0, uses_anonymous_args = 0
 1037 0000 00B5     		push	{lr}
 1038              	.LCFI14:
 1039              		.cfi_def_cfa_offset 4
 1040              		.cfi_offset 14, -4
 1041 0002 87B0     		sub	sp, sp, #28
 1042              	.LCFI15:
 1043              		.cfi_def_cfa_offset 32
 1044 0004 0390     		str	r0, [sp, #12]
 1045 0006 0192     		str	r2, [sp, #4]
 1046 0008 0093     		str	r3, [sp, #0]
 1047 000a 0B46     		mov	r3, r1
 1048 000c 8DF80B30 		strb	r3, [sp, #11]
 1049              		.loc 1 373 0
 1050 0010 9DF80B30 		ldrb	r3, [sp, #11]	@ zero_extendqisi2
 1051 0014 039A     		ldr	r2, [sp, #12]
 1052 0016 03F10203 		add	r3, r3, #2
 1053 001a 4FEA8303 		lsl	r3, r3, #2
 1054 001e D318     		adds	r3, r2, r3
 1055 0020 5B68     		ldr	r3, [r3, #4]
 1056 0022 9B69     		ldr	r3, [r3, #24]
 1057 0024 0593     		str	r3, [sp, #20]
 1058              		.loc 1 375 0
 1059 0026 059B     		ldr	r3, [sp, #20]
 1060 0028 4FF00002 		mov	r2, #0
 1061 002c 1A70     		strb	r2, [r3, #0]
 1062              		.loc 1 376 0
 1063 002e 059B     		ldr	r3, [sp, #20]
 1064 0030 019A     		ldr	r2, [sp, #4]
 1065 0032 DA60     		str	r2, [r3, #12]
 1066              		.loc 1 377 0
 1067 0034 059B     		ldr	r3, [sp, #20]
 1068 0036 009A     		ldr	r2, [sp, #0]
 1069 0038 5A60     		str	r2, [r3, #4]
ARM GAS  /tmp/ccouNqwt.s 			page 20


 1070              		.loc 1 378 0
 1071 003a 059B     		ldr	r3, [sp, #20]
 1072 003c 4FF00002 		mov	r2, #0
 1073 0040 9A60     		str	r2, [r3, #8]
 1074              		.loc 1 380 0
 1075 0042 9DF80B30 		ldrb	r3, [sp, #11]	@ zero_extendqisi2
 1076 0046 0398     		ldr	r0, [sp, #12]
 1077 0048 1946     		mov	r1, r3
 1078 004a FFF7FEFF 		bl	usb_lld_prepare_receive
 1079              		.loc 1 381 0
 1080 004e 07B0     		add	sp, sp, #28
 1081 0050 00BD     		pop	{pc}
 1082              		.cfi_endproc
 1083              	.LFE126:
 1084              		.size	usbPrepareReceive, .-usbPrepareReceive
 1085 0052 00BFAFF3 		.section	.text.usbPrepareTransmit,"ax",%progbits
 1085      0080AFF3 
 1085      0080AFF3 
 1085      0080
 1086              		.align	2
 1087              		.p2align 4,,15
 1088              		.global	usbPrepareTransmit
 1089              		.thumb
 1090              		.thumb_func
 1091              		.type	usbPrepareTransmit, %function
 1092              	usbPrepareTransmit:
 1093              	.LFB127:
 1094              		.loc 1 398 0
 1095              		.cfi_startproc
 1096              		@ args = 0, pretend = 0, frame = 24
 1097              		@ frame_needed = 0, uses_anonymous_args = 0
 1098 0000 00B5     		push	{lr}
 1099              	.LCFI16:
 1100              		.cfi_def_cfa_offset 4
 1101              		.cfi_offset 14, -4
 1102 0002 87B0     		sub	sp, sp, #28
 1103              	.LCFI17:
 1104              		.cfi_def_cfa_offset 32
 1105 0004 0390     		str	r0, [sp, #12]
 1106 0006 0192     		str	r2, [sp, #4]
 1107 0008 0093     		str	r3, [sp, #0]
 1108 000a 0B46     		mov	r3, r1
 1109 000c 8DF80B30 		strb	r3, [sp, #11]
 1110              		.loc 1 399 0
 1111 0010 9DF80B30 		ldrb	r3, [sp, #11]	@ zero_extendqisi2
 1112 0014 039A     		ldr	r2, [sp, #12]
 1113 0016 03F10203 		add	r3, r3, #2
 1114 001a 4FEA8303 		lsl	r3, r3, #2
 1115 001e D318     		adds	r3, r2, r3
 1116 0020 5B68     		ldr	r3, [r3, #4]
 1117 0022 5B69     		ldr	r3, [r3, #20]
 1118 0024 0593     		str	r3, [sp, #20]
 1119              		.loc 1 401 0
 1120 0026 059B     		ldr	r3, [sp, #20]
 1121 0028 4FF00002 		mov	r2, #0
 1122 002c 1A70     		strb	r2, [r3, #0]
 1123              		.loc 1 402 0
ARM GAS  /tmp/ccouNqwt.s 			page 21


 1124 002e 059B     		ldr	r3, [sp, #20]
 1125 0030 019A     		ldr	r2, [sp, #4]
 1126 0032 DA60     		str	r2, [r3, #12]
 1127              		.loc 1 403 0
 1128 0034 059B     		ldr	r3, [sp, #20]
 1129 0036 009A     		ldr	r2, [sp, #0]
 1130 0038 5A60     		str	r2, [r3, #4]
 1131              		.loc 1 404 0
 1132 003a 059B     		ldr	r3, [sp, #20]
 1133 003c 4FF00002 		mov	r2, #0
 1134 0040 9A60     		str	r2, [r3, #8]
 1135              		.loc 1 406 0
 1136 0042 9DF80B30 		ldrb	r3, [sp, #11]	@ zero_extendqisi2
 1137 0046 0398     		ldr	r0, [sp, #12]
 1138 0048 1946     		mov	r1, r3
 1139 004a FFF7FEFF 		bl	usb_lld_prepare_transmit
 1140              		.loc 1 407 0
 1141 004e 07B0     		add	sp, sp, #28
 1142 0050 00BD     		pop	{pc}
 1143              		.cfi_endproc
 1144              	.LFE127:
 1145              		.size	usbPrepareTransmit, .-usbPrepareTransmit
 1146 0052 00BFAFF3 		.section	.text.usbPrepareQueuedReceive,"ax",%progbits
 1146      0080AFF3 
 1146      0080AFF3 
 1146      0080
 1147              		.align	2
 1148              		.p2align 4,,15
 1149              		.global	usbPrepareQueuedReceive
 1150              		.thumb
 1151              		.thumb_func
 1152              		.type	usbPrepareQueuedReceive, %function
 1153              	usbPrepareQueuedReceive:
 1154              	.LFB128:
 1155              		.loc 1 427 0
 1156              		.cfi_startproc
 1157              		@ args = 0, pretend = 0, frame = 24
 1158              		@ frame_needed = 0, uses_anonymous_args = 0
 1159 0000 00B5     		push	{lr}
 1160              	.LCFI18:
 1161              		.cfi_def_cfa_offset 4
 1162              		.cfi_offset 14, -4
 1163 0002 87B0     		sub	sp, sp, #28
 1164              	.LCFI19:
 1165              		.cfi_def_cfa_offset 32
 1166 0004 0390     		str	r0, [sp, #12]
 1167 0006 0192     		str	r2, [sp, #4]
 1168 0008 0093     		str	r3, [sp, #0]
 1169 000a 0B46     		mov	r3, r1
 1170 000c 8DF80B30 		strb	r3, [sp, #11]
 1171              		.loc 1 428 0
 1172 0010 9DF80B30 		ldrb	r3, [sp, #11]	@ zero_extendqisi2
 1173 0014 039A     		ldr	r2, [sp, #12]
 1174 0016 03F10203 		add	r3, r3, #2
 1175 001a 4FEA8303 		lsl	r3, r3, #2
 1176 001e D318     		adds	r3, r2, r3
 1177 0020 5B68     		ldr	r3, [r3, #4]
ARM GAS  /tmp/ccouNqwt.s 			page 22


 1178 0022 9B69     		ldr	r3, [r3, #24]
 1179 0024 0593     		str	r3, [sp, #20]
 1180              		.loc 1 430 0
 1181 0026 059B     		ldr	r3, [sp, #20]
 1182 0028 4FF00102 		mov	r2, #1
 1183 002c 1A70     		strb	r2, [r3, #0]
 1184              		.loc 1 431 0
 1185 002e 059B     		ldr	r3, [sp, #20]
 1186 0030 019A     		ldr	r2, [sp, #4]
 1187 0032 DA60     		str	r2, [r3, #12]
 1188              		.loc 1 432 0
 1189 0034 059B     		ldr	r3, [sp, #20]
 1190 0036 009A     		ldr	r2, [sp, #0]
 1191 0038 5A60     		str	r2, [r3, #4]
 1192              		.loc 1 433 0
 1193 003a 059B     		ldr	r3, [sp, #20]
 1194 003c 4FF00002 		mov	r2, #0
 1195 0040 9A60     		str	r2, [r3, #8]
 1196              		.loc 1 435 0
 1197 0042 9DF80B30 		ldrb	r3, [sp, #11]	@ zero_extendqisi2
 1198 0046 0398     		ldr	r0, [sp, #12]
 1199 0048 1946     		mov	r1, r3
 1200 004a FFF7FEFF 		bl	usb_lld_prepare_receive
 1201              		.loc 1 436 0
 1202 004e 07B0     		add	sp, sp, #28
 1203 0050 00BD     		pop	{pc}
 1204              		.cfi_endproc
 1205              	.LFE128:
 1206              		.size	usbPrepareQueuedReceive, .-usbPrepareQueuedReceive
 1207 0052 00BFAFF3 		.section	.text.usbPrepareQueuedTransmit,"ax",%progbits
 1207      0080AFF3 
 1207      0080AFF3 
 1207      0080
 1208              		.align	2
 1209              		.p2align 4,,15
 1210              		.global	usbPrepareQueuedTransmit
 1211              		.thumb
 1212              		.thumb_func
 1213              		.type	usbPrepareQueuedTransmit, %function
 1214              	usbPrepareQueuedTransmit:
 1215              	.LFB129:
 1216              		.loc 1 453 0
 1217              		.cfi_startproc
 1218              		@ args = 0, pretend = 0, frame = 24
 1219              		@ frame_needed = 0, uses_anonymous_args = 0
 1220 0000 00B5     		push	{lr}
 1221              	.LCFI20:
 1222              		.cfi_def_cfa_offset 4
 1223              		.cfi_offset 14, -4
 1224 0002 87B0     		sub	sp, sp, #28
 1225              	.LCFI21:
 1226              		.cfi_def_cfa_offset 32
 1227 0004 0390     		str	r0, [sp, #12]
 1228 0006 0192     		str	r2, [sp, #4]
 1229 0008 0093     		str	r3, [sp, #0]
 1230 000a 0B46     		mov	r3, r1
 1231 000c 8DF80B30 		strb	r3, [sp, #11]
ARM GAS  /tmp/ccouNqwt.s 			page 23


 1232              		.loc 1 454 0
 1233 0010 9DF80B30 		ldrb	r3, [sp, #11]	@ zero_extendqisi2
 1234 0014 039A     		ldr	r2, [sp, #12]
 1235 0016 03F10203 		add	r3, r3, #2
 1236 001a 4FEA8303 		lsl	r3, r3, #2
 1237 001e D318     		adds	r3, r2, r3
 1238 0020 5B68     		ldr	r3, [r3, #4]
 1239 0022 5B69     		ldr	r3, [r3, #20]
 1240 0024 0593     		str	r3, [sp, #20]
 1241              		.loc 1 456 0
 1242 0026 059B     		ldr	r3, [sp, #20]
 1243 0028 4FF00102 		mov	r2, #1
 1244 002c 1A70     		strb	r2, [r3, #0]
 1245              		.loc 1 457 0
 1246 002e 059B     		ldr	r3, [sp, #20]
 1247 0030 019A     		ldr	r2, [sp, #4]
 1248 0032 DA60     		str	r2, [r3, #12]
 1249              		.loc 1 458 0
 1250 0034 059B     		ldr	r3, [sp, #20]
 1251 0036 009A     		ldr	r2, [sp, #0]
 1252 0038 5A60     		str	r2, [r3, #4]
 1253              		.loc 1 459 0
 1254 003a 059B     		ldr	r3, [sp, #20]
 1255 003c 4FF00002 		mov	r2, #0
 1256 0040 9A60     		str	r2, [r3, #8]
 1257              		.loc 1 461 0
 1258 0042 9DF80B30 		ldrb	r3, [sp, #11]	@ zero_extendqisi2
 1259 0046 0398     		ldr	r0, [sp, #12]
 1260 0048 1946     		mov	r1, r3
 1261 004a FFF7FEFF 		bl	usb_lld_prepare_transmit
 1262              		.loc 1 462 0
 1263 004e 07B0     		add	sp, sp, #28
 1264 0050 00BD     		pop	{pc}
 1265              		.cfi_endproc
 1266              	.LFE129:
 1267              		.size	usbPrepareQueuedTransmit, .-usbPrepareQueuedTransmit
 1268 0052 00BFAFF3 		.section	.text.usbStartReceiveI,"ax",%progbits
 1268      0080AFF3 
 1268      0080AFF3 
 1268      0080
 1269              		.align	2
 1270              		.p2align 4,,15
 1271              		.global	usbStartReceiveI
 1272              		.thumb
 1273              		.thumb_func
 1274              		.type	usbStartReceiveI, %function
 1275              	usbStartReceiveI:
 1276              	.LFB130:
 1277              		.loc 1 478 0
 1278              		.cfi_startproc
 1279              		@ args = 0, pretend = 0, frame = 8
 1280              		@ frame_needed = 0, uses_anonymous_args = 0
 1281 0000 00B5     		push	{lr}
 1282              	.LCFI22:
 1283              		.cfi_def_cfa_offset 4
 1284              		.cfi_offset 14, -4
 1285 0002 83B0     		sub	sp, sp, #12
ARM GAS  /tmp/ccouNqwt.s 			page 24


 1286              	.LCFI23:
 1287              		.cfi_def_cfa_offset 16
 1288 0004 0190     		str	r0, [sp, #4]
 1289 0006 0B46     		mov	r3, r1
 1290 0008 8DF80330 		strb	r3, [sp, #3]
 1291              		.loc 1 483 0
 1292 000c 019B     		ldr	r3, [sp, #4]
 1293 000e 5B89     		ldrh	r3, [r3, #10]
 1294 0010 1A46     		mov	r2, r3
 1295 0012 9DF80330 		ldrb	r3, [sp, #3]	@ zero_extendqisi2
 1296 0016 42FA03F3 		asr	r3, r2, r3
 1297 001a 03F00103 		and	r3, r3, #1
 1298 001e 002B     		cmp	r3, #0
 1299 0020 02D0     		beq	.L71
 1300              		.loc 1 484 0
 1301 0022 4FF00103 		mov	r3, #1
 1302 0026 16E0     		b	.L72
 1303              	.L71:
 1304              		.loc 1 486 0
 1305 0028 019B     		ldr	r3, [sp, #4]
 1306 002a 5B89     		ldrh	r3, [r3, #10]
 1307 002c 9AB2     		uxth	r2, r3
 1308 002e 9DF80330 		ldrb	r3, [sp, #3]	@ zero_extendqisi2
 1309 0032 4FF00101 		mov	r1, #1
 1310 0036 01FA03F3 		lsl	r3, r1, r3
 1311 003a 9BB2     		uxth	r3, r3
 1312 003c 1343     		orrs	r3, r3, r2
 1313 003e 9BB2     		uxth	r3, r3
 1314 0040 9AB2     		uxth	r2, r3
 1315 0042 019B     		ldr	r3, [sp, #4]
 1316 0044 5A81     		strh	r2, [r3, #10]	@ movhi
 1317              		.loc 1 487 0
 1318 0046 9DF80330 		ldrb	r3, [sp, #3]	@ zero_extendqisi2
 1319 004a 0198     		ldr	r0, [sp, #4]
 1320 004c 1946     		mov	r1, r3
 1321 004e FFF7FEFF 		bl	usb_lld_start_out
 1322              		.loc 1 488 0
 1323 0052 4FF00003 		mov	r3, #0
 1324              	.L72:
 1325              		.loc 1 489 0
 1326 0056 1846     		mov	r0, r3
 1327 0058 03B0     		add	sp, sp, #12
 1328 005a 00BD     		pop	{pc}
 1329              		.cfi_endproc
 1330              	.LFE130:
 1331              		.size	usbStartReceiveI, .-usbStartReceiveI
 1332 005c AFF30080 		.section	.text.usbStartTransmitI,"ax",%progbits
 1333              		.align	2
 1334              		.p2align 4,,15
 1335              		.global	usbStartTransmitI
 1336              		.thumb
 1337              		.thumb_func
 1338              		.type	usbStartTransmitI, %function
 1339              	usbStartTransmitI:
 1340              	.LFB131:
 1341              		.loc 1 505 0
 1342              		.cfi_startproc
ARM GAS  /tmp/ccouNqwt.s 			page 25


 1343              		@ args = 0, pretend = 0, frame = 8
 1344              		@ frame_needed = 0, uses_anonymous_args = 0
 1345 0000 00B5     		push	{lr}
 1346              	.LCFI24:
 1347              		.cfi_def_cfa_offset 4
 1348              		.cfi_offset 14, -4
 1349 0002 83B0     		sub	sp, sp, #12
 1350              	.LCFI25:
 1351              		.cfi_def_cfa_offset 16
 1352 0004 0190     		str	r0, [sp, #4]
 1353 0006 0B46     		mov	r3, r1
 1354 0008 8DF80330 		strb	r3, [sp, #3]
 1355              		.loc 1 510 0
 1356 000c 019B     		ldr	r3, [sp, #4]
 1357 000e 1B89     		ldrh	r3, [r3, #8]
 1358 0010 1A46     		mov	r2, r3
 1359 0012 9DF80330 		ldrb	r3, [sp, #3]	@ zero_extendqisi2
 1360 0016 42FA03F3 		asr	r3, r2, r3
 1361 001a 03F00103 		and	r3, r3, #1
 1362 001e 002B     		cmp	r3, #0
 1363 0020 02D0     		beq	.L74
 1364              		.loc 1 511 0
 1365 0022 4FF00103 		mov	r3, #1
 1366 0026 16E0     		b	.L75
 1367              	.L74:
 1368              		.loc 1 513 0
 1369 0028 019B     		ldr	r3, [sp, #4]
 1370 002a 1B89     		ldrh	r3, [r3, #8]
 1371 002c 9AB2     		uxth	r2, r3
 1372 002e 9DF80330 		ldrb	r3, [sp, #3]	@ zero_extendqisi2
 1373 0032 4FF00101 		mov	r1, #1
 1374 0036 01FA03F3 		lsl	r3, r1, r3
 1375 003a 9BB2     		uxth	r3, r3
 1376 003c 1343     		orrs	r3, r3, r2
 1377 003e 9BB2     		uxth	r3, r3
 1378 0040 9AB2     		uxth	r2, r3
 1379 0042 019B     		ldr	r3, [sp, #4]
 1380 0044 1A81     		strh	r2, [r3, #8]	@ movhi
 1381              		.loc 1 514 0
 1382 0046 9DF80330 		ldrb	r3, [sp, #3]	@ zero_extendqisi2
 1383 004a 0198     		ldr	r0, [sp, #4]
 1384 004c 1946     		mov	r1, r3
 1385 004e FFF7FEFF 		bl	usb_lld_start_in
 1386              		.loc 1 515 0
 1387 0052 4FF00003 		mov	r3, #0
 1388              	.L75:
 1389              		.loc 1 516 0
 1390 0056 1846     		mov	r0, r3
 1391 0058 03B0     		add	sp, sp, #12
 1392 005a 00BD     		pop	{pc}
 1393              		.cfi_endproc
 1394              	.LFE131:
 1395              		.size	usbStartTransmitI, .-usbStartTransmitI
 1396 005c AFF30080 		.section	.text.usbStallReceiveI,"ax",%progbits
 1397              		.align	2
 1398              		.p2align 4,,15
 1399              		.global	usbStallReceiveI
ARM GAS  /tmp/ccouNqwt.s 			page 26


 1400              		.thumb
 1401              		.thumb_func
 1402              		.type	usbStallReceiveI, %function
 1403              	usbStallReceiveI:
 1404              	.LFB132:
 1405              		.loc 1 530 0
 1406              		.cfi_startproc
 1407              		@ args = 0, pretend = 0, frame = 8
 1408              		@ frame_needed = 0, uses_anonymous_args = 0
 1409 0000 00B5     		push	{lr}
 1410              	.LCFI26:
 1411              		.cfi_def_cfa_offset 4
 1412              		.cfi_offset 14, -4
 1413 0002 83B0     		sub	sp, sp, #12
 1414              	.LCFI27:
 1415              		.cfi_def_cfa_offset 16
 1416 0004 0190     		str	r0, [sp, #4]
 1417 0006 0B46     		mov	r3, r1
 1418 0008 8DF80330 		strb	r3, [sp, #3]
 1419              		.loc 1 535 0
 1420 000c 019B     		ldr	r3, [sp, #4]
 1421 000e 5B89     		ldrh	r3, [r3, #10]
 1422 0010 1A46     		mov	r2, r3
 1423 0012 9DF80330 		ldrb	r3, [sp, #3]	@ zero_extendqisi2
 1424 0016 42FA03F3 		asr	r3, r2, r3
 1425 001a 03F00103 		and	r3, r3, #1
 1426 001e 002B     		cmp	r3, #0
 1427 0020 02D0     		beq	.L77
 1428              		.loc 1 536 0
 1429 0022 4FF00103 		mov	r3, #1
 1430 0026 07E0     		b	.L78
 1431              	.L77:
 1432              		.loc 1 538 0
 1433 0028 9DF80330 		ldrb	r3, [sp, #3]	@ zero_extendqisi2
 1434 002c 0198     		ldr	r0, [sp, #4]
 1435 002e 1946     		mov	r1, r3
 1436 0030 FFF7FEFF 		bl	usb_lld_stall_out
 1437              		.loc 1 539 0
 1438 0034 4FF00003 		mov	r3, #0
 1439              	.L78:
 1440              		.loc 1 540 0
 1441 0038 1846     		mov	r0, r3
 1442 003a 03B0     		add	sp, sp, #12
 1443 003c 00BD     		pop	{pc}
 1444              		.cfi_endproc
 1445              	.LFE132:
 1446              		.size	usbStallReceiveI, .-usbStallReceiveI
 1447 003e 00BF     		.section	.text.usbStallTransmitI,"ax",%progbits
 1448              		.align	2
 1449              		.p2align 4,,15
 1450              		.global	usbStallTransmitI
 1451              		.thumb
 1452              		.thumb_func
 1453              		.type	usbStallTransmitI, %function
 1454              	usbStallTransmitI:
 1455              	.LFB133:
 1456              		.loc 1 554 0
ARM GAS  /tmp/ccouNqwt.s 			page 27


 1457              		.cfi_startproc
 1458              		@ args = 0, pretend = 0, frame = 8
 1459              		@ frame_needed = 0, uses_anonymous_args = 0
 1460 0000 00B5     		push	{lr}
 1461              	.LCFI28:
 1462              		.cfi_def_cfa_offset 4
 1463              		.cfi_offset 14, -4
 1464 0002 83B0     		sub	sp, sp, #12
 1465              	.LCFI29:
 1466              		.cfi_def_cfa_offset 16
 1467 0004 0190     		str	r0, [sp, #4]
 1468 0006 0B46     		mov	r3, r1
 1469 0008 8DF80330 		strb	r3, [sp, #3]
 1470              		.loc 1 559 0
 1471 000c 019B     		ldr	r3, [sp, #4]
 1472 000e 1B89     		ldrh	r3, [r3, #8]
 1473 0010 1A46     		mov	r2, r3
 1474 0012 9DF80330 		ldrb	r3, [sp, #3]	@ zero_extendqisi2
 1475 0016 42FA03F3 		asr	r3, r2, r3
 1476 001a 03F00103 		and	r3, r3, #1
 1477 001e 002B     		cmp	r3, #0
 1478 0020 02D0     		beq	.L80
 1479              		.loc 1 560 0
 1480 0022 4FF00103 		mov	r3, #1
 1481 0026 07E0     		b	.L81
 1482              	.L80:
 1483              		.loc 1 562 0
 1484 0028 9DF80330 		ldrb	r3, [sp, #3]	@ zero_extendqisi2
 1485 002c 0198     		ldr	r0, [sp, #4]
 1486 002e 1946     		mov	r1, r3
 1487 0030 FFF7FEFF 		bl	usb_lld_stall_in
 1488              		.loc 1 563 0
 1489 0034 4FF00003 		mov	r3, #0
 1490              	.L81:
 1491              		.loc 1 564 0
 1492 0038 1846     		mov	r0, r3
 1493 003a 03B0     		add	sp, sp, #12
 1494 003c 00BD     		pop	{pc}
 1495              		.cfi_endproc
 1496              	.LFE133:
 1497              		.size	usbStallTransmitI, .-usbStallTransmitI
 1498 003e 00BF     		.section	.text._usb_reset,"ax",%progbits
 1499              		.align	2
 1500              		.p2align 4,,15
 1501              		.global	_usb_reset
 1502              		.thumb
 1503              		.thumb_func
 1504              		.type	_usb_reset, %function
 1505              	_usb_reset:
 1506              	.LFB134:
 1507              		.loc 1 575 0
 1508              		.cfi_startproc
 1509              		@ args = 0, pretend = 0, frame = 16
 1510              		@ frame_needed = 0, uses_anonymous_args = 0
 1511 0000 00B5     		push	{lr}
 1512              	.LCFI30:
 1513              		.cfi_def_cfa_offset 4
ARM GAS  /tmp/ccouNqwt.s 			page 28


 1514              		.cfi_offset 14, -4
 1515 0002 85B0     		sub	sp, sp, #20
 1516              	.LCFI31:
 1517              		.cfi_def_cfa_offset 24
 1518 0004 0190     		str	r0, [sp, #4]
 1519              		.loc 1 578 0
 1520 0006 019B     		ldr	r3, [sp, #4]
 1521 0008 4FF00202 		mov	r2, #2
 1522 000c 1A70     		strb	r2, [r3, #0]
 1523              		.loc 1 579 0
 1524 000e 019B     		ldr	r3, [sp, #4]
 1525 0010 4FF00002 		mov	r2, #0
 1526 0014 A3F84C20 		strh	r2, [r3, #76]	@ movhi
 1527              		.loc 1 580 0
 1528 0018 019B     		ldr	r3, [sp, #4]
 1529 001a 4FF00002 		mov	r2, #0
 1530 001e 83F84E20 		strb	r2, [r3, #78]
 1531              		.loc 1 581 0
 1532 0022 019B     		ldr	r3, [sp, #4]
 1533 0024 4FF00002 		mov	r2, #0
 1534 0028 83F84F20 		strb	r2, [r3, #79]
 1535              		.loc 1 582 0
 1536 002c 019B     		ldr	r3, [sp, #4]
 1537 002e 4FF00002 		mov	r2, #0
 1538 0032 1A81     		strh	r2, [r3, #8]	@ movhi
 1539              		.loc 1 583 0
 1540 0034 019B     		ldr	r3, [sp, #4]
 1541 0036 4FF00002 		mov	r2, #0
 1542 003a 5A81     		strh	r2, [r3, #10]	@ movhi
 1543              		.loc 1 586 0
 1544 003c 4FF00003 		mov	r3, #0
 1545 0040 0393     		str	r3, [sp, #12]
 1546 0042 0DE0     		b	.L83
 1547              	.L84:
 1548              		.loc 1 587 0 discriminator 2
 1549 0044 019A     		ldr	r2, [sp, #4]
 1550 0046 039B     		ldr	r3, [sp, #12]
 1551 0048 03F10203 		add	r3, r3, #2
 1552 004c 4FEA8303 		lsl	r3, r3, #2
 1553 0050 D318     		adds	r3, r2, r3
 1554 0052 4FF00002 		mov	r2, #0
 1555 0056 5A60     		str	r2, [r3, #4]
 1556              		.loc 1 586 0 discriminator 2
 1557 0058 039B     		ldr	r3, [sp, #12]
 1558 005a 03F10103 		add	r3, r3, #1
 1559 005e 0393     		str	r3, [sp, #12]
 1560              	.L83:
 1561              		.loc 1 586 0 is_stmt 0 discriminator 1
 1562 0060 039B     		ldr	r3, [sp, #12]
 1563 0062 032B     		cmp	r3, #3
 1564 0064 EED9     		bls	.L84
 1565              		.loc 1 590 0 is_stmt 1
 1566 0066 019B     		ldr	r3, [sp, #4]
 1567 0068 4FF00002 		mov	r2, #0
 1568 006c 83F83420 		strb	r2, [r3, #52]
 1569              		.loc 1 593 0
 1570 0070 0198     		ldr	r0, [sp, #4]
ARM GAS  /tmp/ccouNqwt.s 			page 29


 1571 0072 FFF7FEFF 		bl	usb_lld_reset
 1572              		.loc 1 594 0
 1573 0076 05B0     		add	sp, sp, #20
 1574 0078 00BD     		pop	{pc}
 1575              		.cfi_endproc
 1576              	.LFE134:
 1577              		.size	_usb_reset, .-_usb_reset
 1578 007a 00BFAFF3 		.section	.text._usb_ep0setup,"ax",%progbits
 1578      0080
 1579              		.align	2
 1580              		.p2align 4,,15
 1581              		.global	_usb_ep0setup
 1582              		.thumb
 1583              		.thumb_func
 1584              		.type	_usb_ep0setup, %function
 1585              	_usb_ep0setup:
 1586              	.LFB135:
 1587              		.loc 1 606 0
 1588              		.cfi_startproc
 1589              		@ args = 0, pretend = 0, frame = 16
 1590              		@ frame_needed = 0, uses_anonymous_args = 0
 1591 0000 00B5     		push	{lr}
 1592              	.LCFI32:
 1593              		.cfi_def_cfa_offset 4
 1594              		.cfi_offset 14, -4
 1595 0002 85B0     		sub	sp, sp, #20
 1596              	.LCFI33:
 1597              		.cfi_def_cfa_offset 24
 1598 0004 0190     		str	r0, [sp, #4]
 1599 0006 0B46     		mov	r3, r1
 1600 0008 8DF80330 		strb	r3, [sp, #3]
 1601              		.loc 1 609 0
 1602 000c 019B     		ldr	r3, [sp, #4]
 1603 000e 4FF00002 		mov	r2, #0
 1604 0012 83F83420 		strb	r2, [r3, #52]
 1605              		.loc 1 610 0
 1606 0016 019B     		ldr	r3, [sp, #4]
 1607 0018 03F14403 		add	r3, r3, #68
 1608 001c 9DF80320 		ldrb	r2, [sp, #3]	@ zero_extendqisi2
 1609 0020 0198     		ldr	r0, [sp, #4]
 1610 0022 1146     		mov	r1, r2
 1611 0024 1A46     		mov	r2, r3
 1612 0026 FFF7FEFF 		bl	usb_lld_read_setup
 1613              		.loc 1 614 0
 1614 002a 019B     		ldr	r3, [sp, #4]
 1615 002c 5B68     		ldr	r3, [r3, #4]
 1616 002e 9B68     		ldr	r3, [r3, #8]
 1617 0030 002B     		cmp	r3, #0
 1618 0032 0AD0     		beq	.L86
 1619              		.loc 1 615 0 discriminator 1
 1620 0034 019B     		ldr	r3, [sp, #4]
 1621 0036 5B68     		ldr	r3, [r3, #4]
 1622 0038 9B68     		ldr	r3, [r3, #8]
 1623 003a 0198     		ldr	r0, [sp, #4]
 1624 003c 9847     		blx	r3
 1625 003e 0346     		mov	r3, r0
 1626 0040 83F00103 		eor	r3, r3, #1
ARM GAS  /tmp/ccouNqwt.s 			page 30


 1627 0044 DBB2     		uxtb	r3, r3
 1628              		.loc 1 614 0 discriminator 1
 1629 0046 002B     		cmp	r3, #0
 1630 0048 2BD0     		beq	.L87
 1631              	.L86:
 1632              		.loc 1 618 0
 1633 004a 019B     		ldr	r3, [sp, #4]
 1634 004c 93F84430 		ldrb	r3, [r3, #68]	@ zero_extendqisi2
 1635 0050 03F06003 		and	r3, r3, #96
 1636 0054 002B     		cmp	r3, #0
 1637 0056 08D1     		bne	.L88
 1638              		.loc 1 619 0 discriminator 1
 1639 0058 0198     		ldr	r0, [sp, #4]
 1640 005a FFF7FEFF 		bl	default_handler
 1641 005e 0346     		mov	r3, r0
 1642 0060 83F00103 		eor	r3, r3, #1
 1643 0064 DBB2     		uxtb	r3, r3
 1644              		.loc 1 618 0 discriminator 1
 1645 0066 002B     		cmp	r3, #0
 1646 0068 1BD0     		beq	.L87
 1647              	.L88:
 1648              		.loc 1 623 0
 1649 006a 0198     		ldr	r0, [sp, #4]
 1650 006c 4FF00001 		mov	r1, #0
 1651 0070 FFF7FEFF 		bl	usb_lld_stall_in
 1652              		.loc 1 624 0
 1653 0074 0198     		ldr	r0, [sp, #4]
 1654 0076 4FF00001 		mov	r1, #0
 1655 007a FFF7FEFF 		bl	usb_lld_stall_out
 1656              		.loc 1 625 0
 1657 007e 019B     		ldr	r3, [sp, #4]
 1658 0080 5B68     		ldr	r3, [r3, #4]
 1659 0082 1B68     		ldr	r3, [r3, #0]
 1660 0084 002B     		cmp	r3, #0
 1661 0086 06D0     		beq	.L89
 1662              		.loc 1 625 0 is_stmt 0 discriminator 1
 1663 0088 019B     		ldr	r3, [sp, #4]
 1664 008a 5B68     		ldr	r3, [r3, #4]
 1665 008c 1B68     		ldr	r3, [r3, #0]
 1666 008e 0198     		ldr	r0, [sp, #4]
 1667 0090 4FF00501 		mov	r1, #5
 1668 0094 9847     		blx	r3
 1669              	.L89:
 1670              		.loc 1 626 0 is_stmt 1
 1671 0096 019B     		ldr	r3, [sp, #4]
 1672 0098 4FF00602 		mov	r2, #6
 1673 009c 83F83420 		strb	r2, [r3, #52]
 1674              		.loc 1 627 0
 1675 00a0 90E0     		b	.L85
 1676              	.L87:
 1677              		.loc 1 634 0
 1678 00a2 019B     		ldr	r3, [sp, #4]
 1679 00a4 93F84A30 		ldrb	r3, [r3, #74]	@ zero_extendqisi2
 1680 00a8 1A46     		mov	r2, r3
 1681 00aa 019B     		ldr	r3, [sp, #4]
 1682 00ac 93F84B30 		ldrb	r3, [r3, #75]	@ zero_extendqisi2
 1683 00b0 4FEA0323 		lsl	r3, r3, #8
ARM GAS  /tmp/ccouNqwt.s 			page 31


 1684 00b4 1343     		orrs	r3, r3, r2
 1685 00b6 0393     		str	r3, [sp, #12]
 1686              		.loc 1 636 0
 1687 00b8 019B     		ldr	r3, [sp, #4]
 1688 00ba DA6B     		ldr	r2, [r3, #60]
 1689 00bc 039B     		ldr	r3, [sp, #12]
 1690 00be 9A42     		cmp	r2, r3
 1691 00c0 02D9     		bls	.L91
 1692              		.loc 1 637 0
 1693 00c2 019B     		ldr	r3, [sp, #4]
 1694 00c4 039A     		ldr	r2, [sp, #12]
 1695 00c6 DA63     		str	r2, [r3, #60]
 1696              	.L91:
 1697              		.loc 1 638 0
 1698 00c8 019B     		ldr	r3, [sp, #4]
 1699 00ca 93F84430 		ldrb	r3, [r3, #68]	@ zero_extendqisi2
 1700 00ce DBB2     		uxtb	r3, r3
 1701 00d0 5BB2     		sxtb	r3, r3
 1702 00d2 002B     		cmp	r3, #0
 1703 00d4 3BDA     		bge	.L92
 1704              		.loc 1 640 0
 1705 00d6 019B     		ldr	r3, [sp, #4]
 1706 00d8 DB6B     		ldr	r3, [r3, #60]
 1707 00da 002B     		cmp	r3, #0
 1708 00dc 1BD0     		beq	.L93
 1709              		.loc 1 642 0
 1710 00de 019B     		ldr	r3, [sp, #4]
 1711 00e0 4FF00102 		mov	r2, #1
 1712 00e4 83F83420 		strb	r2, [r3, #52]
 1713              		.loc 1 643 0
 1714 00e8 019B     		ldr	r3, [sp, #4]
 1715 00ea 9A6B     		ldr	r2, [r3, #56]
 1716 00ec 019B     		ldr	r3, [sp, #4]
 1717 00ee DB6B     		ldr	r3, [r3, #60]
 1718 00f0 0198     		ldr	r0, [sp, #4]
 1719 00f2 4FF00001 		mov	r1, #0
 1720 00f6 FFF7FEFF 		bl	usbPrepareTransmit
 1721              	.LBB6:
 1722              		.loc 1 644 0
 1723 00fa 4FF02003 		mov	r3, #32
 1724              	@ 644 "../../os/hal/src/usb.c" 1
 1725 00fe 83F31188 		msr     BASEPRI, r3
 1726              	@ 0 "" 2
 1727              		.thumb
 1728              	.LBE6:
 1729              		.loc 1 645 0
 1730 0102 0198     		ldr	r0, [sp, #4]
 1731 0104 4FF00001 		mov	r1, #0
 1732 0108 FFF7FEFF 		bl	usbStartTransmitI
 1733              	.LBB7:
 1734              		.loc 1 646 0
 1735 010c 4FF00003 		mov	r3, #0
 1736              	@ 646 "../../os/hal/src/usb.c" 1
 1737 0110 83F31188 		msr     BASEPRI, r3
 1738              	@ 0 "" 2
 1739              		.thumb
 1740 0114 56E0     		b	.L85
ARM GAS  /tmp/ccouNqwt.s 			page 32


 1741              	.L93:
 1742              	.LBE7:
 1743              		.loc 1 651 0
 1744 0116 019B     		ldr	r3, [sp, #4]
 1745 0118 4FF00302 		mov	r2, #3
 1746 011c 83F83420 		strb	r2, [r3, #52]
 1747              		.loc 1 652 0
 1748 0120 0198     		ldr	r0, [sp, #4]
 1749 0122 4FF00001 		mov	r1, #0
 1750 0126 4FF00002 		mov	r2, #0
 1751 012a 4FF00003 		mov	r3, #0
 1752 012e FFF7FEFF 		bl	usbPrepareReceive
 1753              	.LBB8:
 1754              		.loc 1 653 0
 1755 0132 4FF02003 		mov	r3, #32
 1756              	@ 653 "../../os/hal/src/usb.c" 1
 1757 0136 83F31188 		msr     BASEPRI, r3
 1758              	@ 0 "" 2
 1759              		.thumb
 1760              	.LBE8:
 1761              		.loc 1 654 0
 1762 013a 0198     		ldr	r0, [sp, #4]
 1763 013c 4FF00001 		mov	r1, #0
 1764 0140 FFF7FEFF 		bl	usbStartReceiveI
 1765              	.LBB9:
 1766              		.loc 1 655 0
 1767 0144 4FF00003 		mov	r3, #0
 1768              	@ 655 "../../os/hal/src/usb.c" 1
 1769 0148 83F31188 		msr     BASEPRI, r3
 1770              	@ 0 "" 2
 1771              		.thumb
 1772 014c 3AE0     		b	.L85
 1773              	.L92:
 1774              	.LBE9:
 1775              		.loc 1 660 0
 1776 014e 019B     		ldr	r3, [sp, #4]
 1777 0150 DB6B     		ldr	r3, [r3, #60]
 1778 0152 002B     		cmp	r3, #0
 1779 0154 1BD0     		beq	.L94
 1780              		.loc 1 662 0
 1781 0156 019B     		ldr	r3, [sp, #4]
 1782 0158 4FF00402 		mov	r2, #4
 1783 015c 83F83420 		strb	r2, [r3, #52]
 1784              		.loc 1 663 0
 1785 0160 019B     		ldr	r3, [sp, #4]
 1786 0162 9A6B     		ldr	r2, [r3, #56]
 1787 0164 019B     		ldr	r3, [sp, #4]
 1788 0166 DB6B     		ldr	r3, [r3, #60]
 1789 0168 0198     		ldr	r0, [sp, #4]
 1790 016a 4FF00001 		mov	r1, #0
 1791 016e FFF7FEFF 		bl	usbPrepareReceive
 1792              	.LBB10:
 1793              		.loc 1 664 0
 1794 0172 4FF02003 		mov	r3, #32
 1795              	@ 664 "../../os/hal/src/usb.c" 1
 1796 0176 83F31188 		msr     BASEPRI, r3
 1797              	@ 0 "" 2
ARM GAS  /tmp/ccouNqwt.s 			page 33


 1798              		.thumb
 1799              	.LBE10:
 1800              		.loc 1 665 0
 1801 017a 0198     		ldr	r0, [sp, #4]
 1802 017c 4FF00001 		mov	r1, #0
 1803 0180 FFF7FEFF 		bl	usbStartReceiveI
 1804              	.LBB11:
 1805              		.loc 1 666 0
 1806 0184 4FF00003 		mov	r3, #0
 1807              	@ 666 "../../os/hal/src/usb.c" 1
 1808 0188 83F31188 		msr     BASEPRI, r3
 1809              	@ 0 "" 2
 1810              		.thumb
 1811 018c 1AE0     		b	.L85
 1812              	.L94:
 1813              	.LBE11:
 1814              		.loc 1 671 0
 1815 018e 019B     		ldr	r3, [sp, #4]
 1816 0190 4FF00502 		mov	r2, #5
 1817 0194 83F83420 		strb	r2, [r3, #52]
 1818              		.loc 1 672 0
 1819 0198 0198     		ldr	r0, [sp, #4]
 1820 019a 4FF00001 		mov	r1, #0
 1821 019e 4FF00002 		mov	r2, #0
 1822 01a2 4FF00003 		mov	r3, #0
 1823 01a6 FFF7FEFF 		bl	usbPrepareTransmit
 1824              	.LBB12:
 1825              		.loc 1 673 0
 1826 01aa 4FF02003 		mov	r3, #32
 1827              	@ 673 "../../os/hal/src/usb.c" 1
 1828 01ae 83F31188 		msr     BASEPRI, r3
 1829              	@ 0 "" 2
 1830              		.thumb
 1831              	.LBE12:
 1832              		.loc 1 674 0
 1833 01b2 0198     		ldr	r0, [sp, #4]
 1834 01b4 4FF00001 		mov	r1, #0
 1835 01b8 FFF7FEFF 		bl	usbStartTransmitI
 1836              	.LBB13:
 1837              		.loc 1 675 0
 1838 01bc 4FF00003 		mov	r3, #0
 1839              	@ 675 "../../os/hal/src/usb.c" 1
 1840 01c0 83F31188 		msr     BASEPRI, r3
 1841              	@ 0 "" 2
 1842              		.thumb
 1843              	.L85:
 1844              	.LBE13:
 1845              		.loc 1 678 0
 1846 01c4 05B0     		add	sp, sp, #20
 1847 01c6 00BD     		pop	{pc}
 1848              		.cfi_endproc
 1849              	.LFE135:
 1850              		.size	_usb_ep0setup, .-_usb_ep0setup
 1851 01c8 AFF30080 		.section	.text._usb_ep0in,"ax",%progbits
 1851      AFF30080 
 1852              		.align	2
 1853              		.p2align 4,,15
ARM GAS  /tmp/ccouNqwt.s 			page 34


 1854              		.global	_usb_ep0in
 1855              		.thumb
 1856              		.thumb_func
 1857              		.type	_usb_ep0in, %function
 1858              	_usb_ep0in:
 1859              	.LFB136:
 1860              		.loc 1 690 0
 1861              		.cfi_startproc
 1862              		@ args = 0, pretend = 0, frame = 16
 1863              		@ frame_needed = 0, uses_anonymous_args = 0
 1864 0000 00B5     		push	{lr}
 1865              	.LCFI34:
 1866              		.cfi_def_cfa_offset 4
 1867              		.cfi_offset 14, -4
 1868 0002 85B0     		sub	sp, sp, #20
 1869              	.LCFI35:
 1870              		.cfi_def_cfa_offset 24
 1871 0004 0190     		str	r0, [sp, #4]
 1872 0006 0B46     		mov	r3, r1
 1873 0008 8DF80330 		strb	r3, [sp, #3]
 1874              		.loc 1 694 0
 1875 000c 019B     		ldr	r3, [sp, #4]
 1876 000e 93F83430 		ldrb	r3, [r3, #52]	@ zero_extendqisi2
 1877 0012 022B     		cmp	r3, #2
 1878 0014 3BD0     		beq	.L98
 1879 0016 052B     		cmp	r3, #5
 1880 0018 55D0     		beq	.L99
 1881 001a 012B     		cmp	r3, #1
 1882 001c 61D1     		bne	.L103
 1883              	.L97:
 1884              		.loc 1 696 0
 1885 001e 019B     		ldr	r3, [sp, #4]
 1886 0020 93F84A30 		ldrb	r3, [r3, #74]	@ zero_extendqisi2
 1887 0024 1A46     		mov	r2, r3
 1888 0026 019B     		ldr	r3, [sp, #4]
 1889 0028 93F84B30 		ldrb	r3, [r3, #75]	@ zero_extendqisi2
 1890 002c 4FEA0323 		lsl	r3, r3, #8
 1891 0030 1343     		orrs	r3, r3, r2
 1892 0032 0393     		str	r3, [sp, #12]
 1893              		.loc 1 700 0
 1894 0034 019B     		ldr	r3, [sp, #4]
 1895 0036 DA6B     		ldr	r2, [r3, #60]
 1896 0038 039B     		ldr	r3, [sp, #12]
 1897 003a 9A42     		cmp	r2, r3
 1898 003c 27D2     		bcs	.L98
 1899              		.loc 1 700 0 is_stmt 0 discriminator 1
 1900 003e 019B     		ldr	r3, [sp, #4]
 1901 0040 DB6B     		ldr	r3, [r3, #60]
 1902 0042 019A     		ldr	r2, [sp, #4]
 1903 0044 D268     		ldr	r2, [r2, #12]
 1904 0046 128A     		ldrh	r2, [r2, #16]
 1905 0048 B3FBF2F1 		udiv	r1, r3, r2
 1906 004c 02FB01F2 		mul	r2, r2, r1
 1907 0050 9B1A     		subs	r3, r3, r2
 1908 0052 002B     		cmp	r3, #0
 1909 0054 1BD1     		bne	.L98
 1910              		.loc 1 701 0 is_stmt 1
ARM GAS  /tmp/ccouNqwt.s 			page 35


 1911 0056 0198     		ldr	r0, [sp, #4]
 1912 0058 4FF00001 		mov	r1, #0
 1913 005c 4FF00002 		mov	r2, #0
 1914 0060 4FF00003 		mov	r3, #0
 1915 0064 FFF7FEFF 		bl	usbPrepareTransmit
 1916              	.LBB14:
 1917              		.loc 1 702 0
 1918 0068 4FF02003 		mov	r3, #32
 1919              	@ 702 "../../os/hal/src/usb.c" 1
 1920 006c 83F31188 		msr     BASEPRI, r3
 1921              	@ 0 "" 2
 1922              		.thumb
 1923              	.LBE14:
 1924              		.loc 1 703 0
 1925 0070 0198     		ldr	r0, [sp, #4]
 1926 0072 4FF00001 		mov	r1, #0
 1927 0076 FFF7FEFF 		bl	usbStartTransmitI
 1928              	.LBB15:
 1929              		.loc 1 704 0
 1930 007a 4FF00003 		mov	r3, #0
 1931              	@ 704 "../../os/hal/src/usb.c" 1
 1932 007e 83F31188 		msr     BASEPRI, r3
 1933              	@ 0 "" 2
 1934              		.thumb
 1935              	.LBE15:
 1936              		.loc 1 705 0
 1937 0082 019B     		ldr	r3, [sp, #4]
 1938 0084 4FF00202 		mov	r2, #2
 1939 0088 83F83420 		strb	r2, [r3, #52]
 1940              		.loc 1 706 0
 1941 008c 44E0     		b	.L95
 1942              	.L98:
 1943              		.loc 1 711 0
 1944 008e 019B     		ldr	r3, [sp, #4]
 1945 0090 4FF00302 		mov	r2, #3
 1946 0094 83F83420 		strb	r2, [r3, #52]
 1947              		.loc 1 712 0
 1948 0098 0198     		ldr	r0, [sp, #4]
 1949 009a 4FF00001 		mov	r1, #0
 1950 009e 4FF00002 		mov	r2, #0
 1951 00a2 4FF00003 		mov	r3, #0
 1952 00a6 FFF7FEFF 		bl	usbPrepareReceive
 1953              	.LBB16:
 1954              		.loc 1 713 0
 1955 00aa 4FF02003 		mov	r3, #32
 1956              	@ 713 "../../os/hal/src/usb.c" 1
 1957 00ae 83F31188 		msr     BASEPRI, r3
 1958              	@ 0 "" 2
 1959              		.thumb
 1960              	.LBE16:
 1961              		.loc 1 714 0
 1962 00b2 0198     		ldr	r0, [sp, #4]
 1963 00b4 4FF00001 		mov	r1, #0
 1964 00b8 FFF7FEFF 		bl	usbStartReceiveI
 1965              	.LBB17:
 1966              		.loc 1 715 0
 1967 00bc 4FF00003 		mov	r3, #0
ARM GAS  /tmp/ccouNqwt.s 			page 36


 1968              	@ 715 "../../os/hal/src/usb.c" 1
 1969 00c0 83F31188 		msr     BASEPRI, r3
 1970              	@ 0 "" 2
 1971              		.thumb
 1972              	.LBE17:
 1973              		.loc 1 716 0
 1974 00c4 28E0     		b	.L95
 1975              	.L99:
 1976              		.loc 1 719 0
 1977 00c6 019B     		ldr	r3, [sp, #4]
 1978 00c8 1B6C     		ldr	r3, [r3, #64]
 1979 00ca 002B     		cmp	r3, #0
 1980 00cc 03D0     		beq	.L101
 1981              		.loc 1 720 0
 1982 00ce 019B     		ldr	r3, [sp, #4]
 1983 00d0 1B6C     		ldr	r3, [r3, #64]
 1984 00d2 0198     		ldr	r0, [sp, #4]
 1985 00d4 9847     		blx	r3
 1986              	.L101:
 1987              		.loc 1 721 0
 1988 00d6 019B     		ldr	r3, [sp, #4]
 1989 00d8 4FF00002 		mov	r2, #0
 1990 00dc 83F83420 		strb	r2, [r3, #52]
 1991              		.loc 1 722 0
 1992 00e0 1AE0     		b	.L95
 1993              	.L103:
 1994              		.loc 1 729 0
 1995 00e2 0198     		ldr	r0, [sp, #4]
 1996 00e4 4FF00001 		mov	r1, #0
 1997 00e8 FFF7FEFF 		bl	usb_lld_stall_in
 1998              		.loc 1 730 0
 1999 00ec 0198     		ldr	r0, [sp, #4]
 2000 00ee 4FF00001 		mov	r1, #0
 2001 00f2 FFF7FEFF 		bl	usb_lld_stall_out
 2002              		.loc 1 731 0
 2003 00f6 019B     		ldr	r3, [sp, #4]
 2004 00f8 5B68     		ldr	r3, [r3, #4]
 2005 00fa 1B68     		ldr	r3, [r3, #0]
 2006 00fc 002B     		cmp	r3, #0
 2007 00fe 06D0     		beq	.L102
 2008              		.loc 1 731 0 is_stmt 0 discriminator 1
 2009 0100 019B     		ldr	r3, [sp, #4]
 2010 0102 5B68     		ldr	r3, [r3, #4]
 2011 0104 1B68     		ldr	r3, [r3, #0]
 2012 0106 0198     		ldr	r0, [sp, #4]
 2013 0108 4FF00501 		mov	r1, #5
 2014 010c 9847     		blx	r3
 2015              	.L102:
 2016              		.loc 1 732 0 is_stmt 1
 2017 010e 019B     		ldr	r3, [sp, #4]
 2018 0110 4FF00602 		mov	r2, #6
 2019 0114 83F83420 		strb	r2, [r3, #52]
 2020              	.L95:
 2021              		.loc 1 733 0
 2022 0118 05B0     		add	sp, sp, #20
 2023 011a 00BD     		pop	{pc}
 2024              		.cfi_endproc
ARM GAS  /tmp/ccouNqwt.s 			page 37


 2025              	.LFE136:
 2026              		.size	_usb_ep0in, .-_usb_ep0in
 2027 011c AFF30080 		.section	.text._usb_ep0out,"ax",%progbits
 2028              		.align	2
 2029              		.p2align 4,,15
 2030              		.global	_usb_ep0out
 2031              		.thumb
 2032              		.thumb_func
 2033              		.type	_usb_ep0out, %function
 2034              	_usb_ep0out:
 2035              	.LFB137:
 2036              		.loc 1 745 0
 2037              		.cfi_startproc
 2038              		@ args = 0, pretend = 0, frame = 8
 2039              		@ frame_needed = 0, uses_anonymous_args = 0
 2040 0000 00B5     		push	{lr}
 2041              	.LCFI36:
 2042              		.cfi_def_cfa_offset 4
 2043              		.cfi_offset 14, -4
 2044 0002 83B0     		sub	sp, sp, #12
 2045              	.LCFI37:
 2046              		.cfi_def_cfa_offset 16
 2047 0004 0190     		str	r0, [sp, #4]
 2048 0006 0B46     		mov	r3, r1
 2049 0008 8DF80330 		strb	r3, [sp, #3]
 2050              		.loc 1 748 0
 2051 000c 019B     		ldr	r3, [sp, #4]
 2052 000e 93F83430 		ldrb	r3, [r3, #52]	@ zero_extendqisi2
 2053 0012 032B     		cmp	r3, #3
 2054 0014 1DD0     		beq	.L106
 2055 0016 042B     		cmp	r3, #4
 2056 0018 30D1     		bne	.L105
 2057              	.L107:
 2058              		.loc 1 751 0
 2059 001a 019B     		ldr	r3, [sp, #4]
 2060 001c 4FF00502 		mov	r2, #5
 2061 0020 83F83420 		strb	r2, [r3, #52]
 2062              		.loc 1 752 0
 2063 0024 0198     		ldr	r0, [sp, #4]
 2064 0026 4FF00001 		mov	r1, #0
 2065 002a 4FF00002 		mov	r2, #0
 2066 002e 4FF00003 		mov	r3, #0
 2067 0032 FFF7FEFF 		bl	usbPrepareTransmit
 2068              	.LBB18:
 2069              		.loc 1 753 0
 2070 0036 4FF02003 		mov	r3, #32
 2071              	@ 753 "../../os/hal/src/usb.c" 1
 2072 003a 83F31188 		msr     BASEPRI, r3
 2073              	@ 0 "" 2
 2074              		.thumb
 2075              	.LBE18:
 2076              		.loc 1 754 0
 2077 003e 0198     		ldr	r0, [sp, #4]
 2078 0040 4FF00001 		mov	r1, #0
 2079 0044 FFF7FEFF 		bl	usbStartTransmitI
 2080              	.LBB19:
 2081              		.loc 1 755 0
ARM GAS  /tmp/ccouNqwt.s 			page 38


 2082 0048 4FF00003 		mov	r3, #0
 2083              	@ 755 "../../os/hal/src/usb.c" 1
 2084 004c 83F31188 		msr     BASEPRI, r3
 2085              	@ 0 "" 2
 2086              		.thumb
 2087              	.LBE19:
 2088              		.loc 1 756 0
 2089 0050 2FE0     		b	.L104
 2090              	.L106:
 2091              		.loc 1 760 0
 2092 0052 019B     		ldr	r3, [sp, #4]
 2093 0054 DB68     		ldr	r3, [r3, #12]
 2094 0056 9B69     		ldr	r3, [r3, #24]
 2095 0058 9B68     		ldr	r3, [r3, #8]
 2096 005a 002B     		cmp	r3, #0
 2097 005c 0DD1     		bne	.L112
 2098              	.L109:
 2099              		.loc 1 762 0
 2100 005e 019B     		ldr	r3, [sp, #4]
 2101 0060 1B6C     		ldr	r3, [r3, #64]
 2102 0062 002B     		cmp	r3, #0
 2103 0064 03D0     		beq	.L110
 2104              		.loc 1 763 0
 2105 0066 019B     		ldr	r3, [sp, #4]
 2106 0068 1B6C     		ldr	r3, [r3, #64]
 2107 006a 0198     		ldr	r0, [sp, #4]
 2108 006c 9847     		blx	r3
 2109              	.L110:
 2110              		.loc 1 764 0
 2111 006e 019B     		ldr	r3, [sp, #4]
 2112 0070 4FF00002 		mov	r2, #0
 2113 0074 83F83420 		strb	r2, [r3, #52]
 2114              		.loc 1 765 0
 2115 0078 1BE0     		b	.L104
 2116              	.L112:
 2117              		.loc 1 761 0
 2118 007a 00BF     		nop
 2119              	.L105:
 2120              		.loc 1 772 0
 2121 007c 0198     		ldr	r0, [sp, #4]
 2122 007e 4FF00001 		mov	r1, #0
 2123 0082 FFF7FEFF 		bl	usb_lld_stall_in
 2124              		.loc 1 773 0
 2125 0086 0198     		ldr	r0, [sp, #4]
 2126 0088 4FF00001 		mov	r1, #0
 2127 008c FFF7FEFF 		bl	usb_lld_stall_out
 2128              		.loc 1 774 0
 2129 0090 019B     		ldr	r3, [sp, #4]
 2130 0092 5B68     		ldr	r3, [r3, #4]
 2131 0094 1B68     		ldr	r3, [r3, #0]
 2132 0096 002B     		cmp	r3, #0
 2133 0098 06D0     		beq	.L111
 2134              		.loc 1 774 0 is_stmt 0 discriminator 1
 2135 009a 019B     		ldr	r3, [sp, #4]
 2136 009c 5B68     		ldr	r3, [r3, #4]
 2137 009e 1B68     		ldr	r3, [r3, #0]
 2138 00a0 0198     		ldr	r0, [sp, #4]
ARM GAS  /tmp/ccouNqwt.s 			page 39


 2139 00a2 4FF00501 		mov	r1, #5
 2140 00a6 9847     		blx	r3
 2141              	.L111:
 2142              		.loc 1 775 0 is_stmt 1
 2143 00a8 019B     		ldr	r3, [sp, #4]
 2144 00aa 4FF00602 		mov	r2, #6
 2145 00ae 83F83420 		strb	r2, [r3, #52]
 2146              	.L104:
 2147              		.loc 1 776 0
 2148 00b2 03B0     		add	sp, sp, #12
 2149 00b4 00BD     		pop	{pc}
 2150              		.cfi_endproc
 2151              	.LFE137:
 2152              		.size	_usb_ep0out, .-_usb_ep0out
 2153 00b6 00BFAFF3 		.text
 2153      0080AFF3 
 2153      0080
 2154              	.Letext0:
 2155              		.file 2 "/usr/bin/../lib/gcc/arm-none-eabi/4.7.4/include/stddef.h"
 2156              		.file 3 "/usr/bin/../lib/gcc/arm-none-eabi/4.7.4/../../../../arm-none-eabi/include/stdint.h"
 2157              		.file 4 "../../os/ports/GCC/ARMCMx/chtypes.h"
 2158              		.file 5 "../../os/kernel/include/chlists.h"
 2159              		.file 6 "../../os/kernel/include/chthreads.h"
 2160              		.file 7 "../../os/ports/GCC/ARMCMx/chcore_v7m.h"
 2161              		.file 8 "../../os/kernel/include/chmtx.h"
 2162              		.file 9 "../../os/kernel/include/chqueues.h"
 2163              		.file 10 "../../os/hal/include/usb.h"
 2164              		.file 11 "../../os/hal/platforms/STM32/OTGv1/usb_lld.h"
 2165              		.file 12 "../../os/hal/platforms/STM32/OTGv1/stm32_otg.h"
 2166              		.file 13 "../../os/ports/common/ARMCMx/CMSIS/include/core_cm4.h"