ARM GAS  /tmp/ccJwMJrq.s 			page 1


   1              		.syntax unified
   2              		.cpu cortex-m4
   3              		.eabi_attribute 27, 3
   4              		.eabi_attribute 28, 1
   5              		.fpu fpv4-sp-d16
   6              		.eabi_attribute 20, 1
   7              		.eabi_attribute 21, 1
   8              		.eabi_attribute 23, 3
   9              		.eabi_attribute 24, 1
  10              		.eabi_attribute 25, 1
  11              		.eabi_attribute 26, 1
  12              		.eabi_attribute 30, 2
  13              		.eabi_attribute 34, 1
  14              		.eabi_attribute 18, 4
  15              		.thumb
  16              		.file	"chvt.c"
  17              		.text
  18              	.Ltext0:
  19              		.cfi_sections	.debug_frame
  20              		.section	.text._vt_init,"ax",%progbits
  21              		.align	2
  22              		.p2align 4,,15
  23              		.global	_vt_init
  24              		.thumb
  25              		.thumb_func
  26              		.type	_vt_init, %function
  27              	_vt_init:
  28              	.LFB7:
  29              		.file 1 "../../os/kernel/src/chvt.c"
  30              		.loc 1 43 0
  31              		.cfi_startproc
  32              		@ args = 0, pretend = 0, frame = 0
  33              		@ frame_needed = 0, uses_anonymous_args = 0
  34              		@ link register save eliminated.
  35              		.loc 1 45 0
  36 0000 40F20003 		movw	r3, #:lower16:.LANCHOR0
  37 0004 C0F20003 		movt	r3, #:upper16:.LANCHOR0
  38              		.loc 1 46 0
  39 0008 4FF0FF32 		mov	r2, #-1
  40              		.loc 1 47 0
  41 000c 0020     		movs	r0, #0
  42              		.loc 1 45 0
  43 000e 5B60     		str	r3, [r3, #4]
  44 0010 1B60     		str	r3, [r3, #0]
  45              		.loc 1 46 0
  46 0012 9A60     		str	r2, [r3, #8]
  47              		.loc 1 47 0
  48 0014 D860     		str	r0, [r3, #12]
  49 0016 7047     		bx	lr
  50              		.cfi_endproc
  51              	.LFE7:
  52              		.size	_vt_init, .-_vt_init
  53 0018 AFF30080 		.section	.text.chVTSetI,"ax",%progbits
  53      AFF30080 
  54              		.align	2
  55              		.p2align 4,,15
  56              		.global	chVTSetI
ARM GAS  /tmp/ccJwMJrq.s 			page 2


  57              		.thumb
  58              		.thumb_func
  59              		.type	chVTSetI, %function
  60              	chVTSetI:
  61              	.LFB8:
  62              		.loc 1 69 0
  63              		.cfi_startproc
  64              		@ args = 0, pretend = 0, frame = 0
  65              		@ frame_needed = 0, uses_anonymous_args = 0
  66              		@ link register save eliminated.
  67              	.LVL0:
  68 0000 70B4     		push	{r4, r5, r6}
  69              	.LCFI0:
  70              		.cfi_def_cfa_offset 12
  71              		.cfi_offset 4, -12
  72              		.cfi_offset 5, -8
  73              		.cfi_offset 6, -4
  74              		.loc 1 78 0
  75 0002 0C4E     		ldr	r6, .L9
  76              		.loc 1 76 0
  77 0004 0361     		str	r3, [r0, #16]
  78              		.loc 1 78 0
  79 0006 3468     		ldr	r4, [r6, #0]
  80              	.LVL1:
  81              		.loc 1 77 0
  82 0008 C260     		str	r2, [r0, #12]
  83              		.loc 1 79 0
  84 000a A568     		ldr	r5, [r4, #8]
  85 000c A942     		cmp	r1, r5
  86 000e 04D9     		bls	.L3
  87              	.L6:
  88              		.loc 1 81 0
  89 0010 2468     		ldr	r4, [r4, #0]
  90              	.LVL2:
  91              		.loc 1 80 0
  92 0012 491B     		subs	r1, r1, r5
  93              	.LVL3:
  94              		.loc 1 79 0
  95 0014 A568     		ldr	r5, [r4, #8]
  96 0016 8D42     		cmp	r5, r1
  97 0018 FAD3     		bcc	.L6
  98              	.L3:
  99              		.loc 1 84 0
 100 001a 6368     		ldr	r3, [r4, #4]
 101              	.LVL4:
 102 001c 0460     		str	r4, [r0, #0]
 103              		.loc 1 87 0
 104 001e B442     		cmp	r4, r6
 105              		.loc 1 84 0
 106 0020 4360     		str	r3, [r0, #4]
 107              		.loc 1 85 0
 108 0022 1860     		str	r0, [r3, #0]
 109 0024 6060     		str	r0, [r4, #4]
 110              		.loc 1 86 0
 111 0026 8160     		str	r1, [r0, #8]
 112              		.loc 1 87 0
 113 0028 02D0     		beq	.L2
ARM GAS  /tmp/ccJwMJrq.s 			page 3


 114              		.loc 1 88 0
 115 002a A068     		ldr	r0, [r4, #8]
 116              	.LVL5:
 117 002c 411A     		subs	r1, r0, r1
 118              	.LVL6:
 119 002e A160     		str	r1, [r4, #8]
 120              	.L2:
 121              		.loc 1 89 0
 122 0030 70BC     		pop	{r4, r5, r6}
 123 0032 7047     		bx	lr
 124              	.L10:
 125              		.align	2
 126              	.L9:
 127 0034 00000000 		.word	.LANCHOR0
 128              		.cfi_endproc
 129              	.LFE8:
 130              		.size	chVTSetI, .-chVTSetI
 131 0038 AFF30080 		.section	.text.chVTResetI,"ax",%progbits
 131      AFF30080 
 132              		.align	2
 133              		.p2align 4,,15
 134              		.global	chVTResetI
 135              		.thumb
 136              		.thumb_func
 137              		.type	chVTResetI, %function
 138              	chVTResetI:
 139              	.LFB9:
 140              		.loc 1 99 0
 141              		.cfi_startproc
 142              		@ args = 0, pretend = 0, frame = 0
 143              		@ frame_needed = 0, uses_anonymous_args = 0
 144              		@ link register save eliminated.
 145              	.LVL7:
 146              		.loc 1 107 0
 147 0000 0368     		ldr	r3, [r0, #0]
 148 0002 074A     		ldr	r2, .L13
 149 0004 9342     		cmp	r3, r2
 150 0006 03D0     		beq	.L12
 151              		.loc 1 108 0
 152 0008 9968     		ldr	r1, [r3, #8]
 153 000a 8268     		ldr	r2, [r0, #8]
 154 000c 8918     		adds	r1, r1, r2
 155 000e 9960     		str	r1, [r3, #8]
 156              	.L12:
 157              		.loc 1 109 0
 158 0010 4268     		ldr	r2, [r0, #4]
 159 0012 1360     		str	r3, [r2, #0]
 160              		.loc 1 110 0
 161 0014 0368     		ldr	r3, [r0, #0]
 162              		.loc 1 111 0
 163 0016 0021     		movs	r1, #0
 164              		.loc 1 110 0
 165 0018 5A60     		str	r2, [r3, #4]
 166              		.loc 1 111 0
 167 001a C160     		str	r1, [r0, #12]
 168 001c 7047     		bx	lr
 169              	.L14:
ARM GAS  /tmp/ccJwMJrq.s 			page 4


 170 001e 00BF     		.align	2
 171              	.L13:
 172 0020 00000000 		.word	.LANCHOR0
 173              		.cfi_endproc
 174              	.LFE9:
 175              		.size	chVTResetI, .-chVTResetI
 176 0024 AFF30080 		.section	.text.chTimeIsWithin,"ax",%progbits
 176      AFF30080 
 176      AFF30080 
 177              		.align	2
 178              		.p2align 4,,15
 179              		.global	chTimeIsWithin
 180              		.thumb
 181              		.thumb_func
 182              		.type	chTimeIsWithin, %function
 183              	chTimeIsWithin:
 184              	.LFB10:
 185              		.loc 1 127 0
 186              		.cfi_startproc
 187              		@ args = 0, pretend = 0, frame = 0
 188              		@ frame_needed = 0, uses_anonymous_args = 0
 189              		@ link register save eliminated.
 190              	.LVL8:
 191              		.loc 1 129 0
 192 0000 084B     		ldr	r3, .L23
 193              		.loc 1 130 0
 194 0002 8142     		cmp	r1, r0
 195              		.loc 1 129 0
 196 0004 DA68     		ldr	r2, [r3, #12]
 197              	.LVL9:
 198              		.loc 1 130 0
 199 0006 06D9     		bls	.L16
 200              		.loc 1 130 0 is_stmt 0 discriminator 1
 201 0008 8242     		cmp	r2, r0
 202 000a 08D3     		bcc	.L20
 203              	.L22:
 204              		.loc 1 131 0 is_stmt 1 discriminator 2
 205 000c 8A42     		cmp	r2, r1
 206 000e 2CBF     		ite	cs
 207 0010 0020     		movcs	r0, #0
 208              	.LVL10:
 209 0012 0120     		movcc	r0, #1
 210 0014 7047     		bx	lr
 211              	.LVL11:
 212              	.L16:
 213              		.loc 1 131 0 is_stmt 0
 214 0016 8242     		cmp	r2, r0
 215 0018 F8D3     		bcc	.L22
 216 001a 0120     		movs	r0, #1
 217              	.LVL12:
 218              		.loc 1 132 0 is_stmt 1
 219 001c 7047     		bx	lr
 220              	.LVL13:
 221              	.L20:
 222              		.loc 1 130 0
 223 001e 0020     		movs	r0, #0
 224              	.LVL14:
ARM GAS  /tmp/ccJwMJrq.s 			page 5


 225 0020 7047     		bx	lr
 226              	.L24:
 227 0022 00BF     		.align	2
 228              	.L23:
 229 0024 00000000 		.word	.LANCHOR0
 230              		.cfi_endproc
 231              	.LFE10:
 232              		.size	chTimeIsWithin, .-chTimeIsWithin
 233              		.global	vtlist
 234 0028 AFF30080 		.section	.bss.vtlist,"aw",%nobits
 234      AFF30080 
 235              		.align	2
 236              		.set	.LANCHOR0,. + 0
 237              		.type	vtlist, %object
 238              		.size	vtlist, 16
 239              	vtlist:
 240 0000 00000000 		.space	16
 240      00000000 
 240      00000000 
 240      00000000 
 241              		.text
 242              	.Letext0:
 243              		.file 2 "/usr/bin/../lib/gcc/arm-none-eabi/4.7.4/../../../../arm-none-eabi/include/stdint.h"
 244              		.file 3 "../../os/ports/GCC/ARMCMx/chtypes.h"
 245              		.file 4 "../../os/kernel/include/chvt.h"