ARM GAS  /tmp/cc3GJBuB.s 			page 1


   1              		.syntax unified
   2              		.cpu cortex-m4
   3              		.eabi_attribute 27, 3
   4              		.eabi_attribute 28, 1
   5              		.fpu fpv4-sp-d16
   6              		.eabi_attribute 20, 1
   7              		.eabi_attribute 21, 1
   8              		.eabi_attribute 23, 3
   9              		.eabi_attribute 24, 1
  10              		.eabi_attribute 25, 1
  11              		.eabi_attribute 26, 1
  12              		.eabi_attribute 30, 2
  13              		.eabi_attribute 34, 1
  14              		.eabi_attribute 18, 4
  15              		.thumb
  16              		.file	"pwm.c"
  17              		.text
  18              	.Ltext0:
  19              		.cfi_sections	.debug_frame
  20              		.section	.text.pwmInit,"ax",%progbits
  21              		.align	2
  22              		.p2align 4,,15
  23              		.global	pwmInit
  24              		.thumb
  25              		.thumb_func
  26              		.type	pwmInit, %function
  27              	pwmInit:
  28              	.LFB118:
  29              		.file 1 "../../os/hal/src/pwm.c"
  30              		.loc 1 61 0
  31              		.cfi_startproc
  32              		@ args = 0, pretend = 0, frame = 0
  33              		@ frame_needed = 0, uses_anonymous_args = 0
  34              		@ link register save eliminated.
  35              		.loc 1 64 0
  36              		.loc 1 63 0
  37 0000 FFF7FEBF 		b	pwm_lld_init
  38              	.LVL0:
  39              		.cfi_endproc
  40              	.LFE118:
  41              		.size	pwmInit, .-pwmInit
  42 0004 AFF30080 		.section	.text.pwmObjectInit,"ax",%progbits
  42      AFF30080 
  42      AFF30080 
  43              		.align	2
  44              		.p2align 4,,15
  45              		.global	pwmObjectInit
  46              		.thumb
  47              		.thumb_func
  48              		.type	pwmObjectInit, %function
  49              	pwmObjectInit:
  50              	.LFB119:
  51              		.loc 1 73 0
  52              		.cfi_startproc
  53              		@ args = 0, pretend = 0, frame = 0
  54              		@ frame_needed = 0, uses_anonymous_args = 0
  55              		@ link register save eliminated.
ARM GAS  /tmp/cc3GJBuB.s 			page 2


  56              	.LVL1:
  57              		.loc 1 75 0
  58 0000 0123     		movs	r3, #1
  59              		.loc 1 76 0
  60 0002 0021     		movs	r1, #0
  61              		.loc 1 75 0
  62 0004 0370     		strb	r3, [r0, #0]
  63              		.loc 1 76 0
  64 0006 4160     		str	r1, [r0, #4]
  65 0008 7047     		bx	lr
  66              		.cfi_endproc
  67              	.LFE119:
  68              		.size	pwmObjectInit, .-pwmObjectInit
  69 000a 00BFAFF3 		.section	.text.pwmStart,"ax",%progbits
  69      0080
  70              		.align	2
  71              		.p2align 4,,15
  72              		.global	pwmStart
  73              		.thumb
  74              		.thumb_func
  75              		.type	pwmStart, %function
  76              	pwmStart:
  77              	.LFB120:
  78              		.loc 1 92 0
  79              		.cfi_startproc
  80              		@ args = 0, pretend = 0, frame = 0
  81              		@ frame_needed = 0, uses_anonymous_args = 0
  82              	.LVL2:
  83 0000 10B5     		push	{r4, lr}
  84              	.LCFI0:
  85              		.cfi_def_cfa_offset 8
  86              		.cfi_offset 4, -8
  87              		.cfi_offset 14, -4
  88              	.LBB2:
  89              		.loc 1 96 0
  90 0002 2023     		movs	r3, #32
  91              	.LVL3:
  92              	.LBE2:
  93              		.loc 1 92 0
  94 0004 0446     		mov	r4, r0
  95              	.LBB3:
  96              		.loc 1 96 0
  97              	@ 96 "../../os/hal/src/pwm.c" 1
  98 0006 83F31188 		msr     BASEPRI, r3
  99              	@ 0 "" 2
 100              	.LVL4:
 101              		.thumb
 102              	.LBE3:
 103              		.loc 1 100 0
 104 000a 8B88     		ldrh	r3, [r1, #4]
 105              	.LVL5:
 106              		.loc 1 99 0
 107 000c 4160     		str	r1, [r0, #4]
 108              		.loc 1 100 0
 109 000e 0381     		strh	r3, [r0, #8]	@ movhi
 110              		.loc 1 101 0
 111 0010 FFF7FEFF 		bl	pwm_lld_start
ARM GAS  /tmp/cc3GJBuB.s 			page 3


 112              	.LVL6:
 113              		.loc 1 102 0
 114 0014 0220     		movs	r0, #2
 115 0016 2070     		strb	r0, [r4, #0]
 116              	.LBB4:
 117              		.loc 1 103 0
 118 0018 0023     		movs	r3, #0
 119              	.LVL7:
 120              	@ 103 "../../os/hal/src/pwm.c" 1
 121 001a 83F31188 		msr     BASEPRI, r3
 122              	@ 0 "" 2
 123              	.LVL8:
 124              		.thumb
 125 001e 10BD     		pop	{r4, pc}
 126              	.LBE4:
 127              		.cfi_endproc
 128              	.LFE120:
 129              		.size	pwmStart, .-pwmStart
 130              		.section	.text.pwmStop,"ax",%progbits
 131              		.align	2
 132              		.p2align 4,,15
 133              		.global	pwmStop
 134              		.thumb
 135              		.thumb_func
 136              		.type	pwmStop, %function
 137              	pwmStop:
 138              	.LFB121:
 139              		.loc 1 113 0
 140              		.cfi_startproc
 141              		@ args = 0, pretend = 0, frame = 0
 142              		@ frame_needed = 0, uses_anonymous_args = 0
 143              	.LVL9:
 144 0000 10B5     		push	{r4, lr}
 145              	.LCFI1:
 146              		.cfi_def_cfa_offset 8
 147              		.cfi_offset 4, -8
 148              		.cfi_offset 14, -4
 149              	.LBB5:
 150              		.loc 1 117 0
 151 0002 2023     		movs	r3, #32
 152              	.LVL10:
 153              	.LBE5:
 154              		.loc 1 113 0
 155 0004 0446     		mov	r4, r0
 156              	.LBB6:
 157              		.loc 1 117 0
 158              	@ 117 "../../os/hal/src/pwm.c" 1
 159 0006 83F31188 		msr     BASEPRI, r3
 160              	@ 0 "" 2
 161              	.LVL11:
 162              		.thumb
 163              	.LBE6:
 164              		.loc 1 120 0
 165 000a FFF7FEFF 		bl	pwm_lld_stop
 166              	.LVL12:
 167              		.loc 1 121 0
 168 000e 0123     		movs	r3, #1
ARM GAS  /tmp/cc3GJBuB.s 			page 4


 169 0010 2370     		strb	r3, [r4, #0]
 170              	.LBB7:
 171              		.loc 1 122 0
 172 0012 0023     		movs	r3, #0
 173              	.LVL13:
 174              	@ 122 "../../os/hal/src/pwm.c" 1
 175 0014 83F31188 		msr     BASEPRI, r3
 176              	@ 0 "" 2
 177              	.LVL14:
 178              		.thumb
 179 0018 10BD     		pop	{r4, pc}
 180              	.LBE7:
 181              		.cfi_endproc
 182              	.LFE121:
 183              		.size	pwmStop, .-pwmStop
 184 001a 00BFAFF3 		.section	.text.pwmChangePeriod,"ax",%progbits
 184      0080
 185              		.align	2
 186              		.p2align 4,,15
 187              		.global	pwmChangePeriod
 188              		.thumb
 189              		.thumb_func
 190              		.type	pwmChangePeriod, %function
 191              	pwmChangePeriod:
 192              	.LFB122:
 193              		.loc 1 140 0
 194              		.cfi_startproc
 195              		@ args = 0, pretend = 0, frame = 0
 196              		@ frame_needed = 0, uses_anonymous_args = 0
 197              		@ link register save eliminated.
 198              	.LVL15:
 199              	.LBB8:
 200              		.loc 1 144 0
 201 0000 2023     		movs	r3, #32
 202              	.LVL16:
 203              	@ 144 "../../os/hal/src/pwm.c" 1
 204 0002 83F31188 		msr     BASEPRI, r3
 205              	@ 0 "" 2
 206              	.LVL17:
 207              		.thumb
 208              	.LBE8:
 209              		.loc 1 147 0
 210 0006 0369     		ldr	r3, [r0, #16]
 211              	.LVL18:
 212 0008 0181     		strh	r1, [r0, #8]	@ movhi
 213 000a 0139     		subs	r1, r1, #1
 214              	.LVL19:
 215 000c 88B2     		uxth	r0, r1
 216              	.LVL20:
 217 000e D862     		str	r0, [r3, #44]
 218              	.LBB9:
 219              		.loc 1 148 0
 220 0010 0023     		movs	r3, #0
 221              	.LVL21:
 222              	@ 148 "../../os/hal/src/pwm.c" 1
 223 0012 83F31188 		msr     BASEPRI, r3
 224              	@ 0 "" 2
ARM GAS  /tmp/cc3GJBuB.s 			page 5


 225              	.LVL22:
 226              		.thumb
 227 0016 7047     		bx	lr
 228              	.LBE9:
 229              		.cfi_endproc
 230              	.LFE122:
 231              		.size	pwmChangePeriod, .-pwmChangePeriod
 232 0018 AFF30080 		.section	.text.pwmEnableChannel,"ax",%progbits
 232      AFF30080 
 233              		.align	2
 234              		.p2align 4,,15
 235              		.global	pwmEnableChannel
 236              		.thumb
 237              		.thumb_func
 238              		.type	pwmEnableChannel, %function
 239              	pwmEnableChannel:
 240              	.LFB123:
 241              		.loc 1 167 0
 242              		.cfi_startproc
 243              		@ args = 0, pretend = 0, frame = 0
 244              		@ frame_needed = 0, uses_anonymous_args = 0
 245              	.LVL23:
 246 0000 08B5     		push	{r3, lr}
 247              	.LCFI2:
 248              		.cfi_def_cfa_offset 8
 249              		.cfi_offset 3, -8
 250              		.cfi_offset 14, -4
 251              	.LBB10:
 252              		.loc 1 172 0
 253 0002 2023     		movs	r3, #32
 254              	.LVL24:
 255              	@ 172 "../../os/hal/src/pwm.c" 1
 256 0004 83F31188 		msr     BASEPRI, r3
 257              	@ 0 "" 2
 258              	.LVL25:
 259              		.thumb
 260              	.LBE10:
 261              		.loc 1 175 0
 262 0008 FFF7FEFF 		bl	pwm_lld_enable_channel
 263              	.LVL26:
 264              	.LBB11:
 265              		.loc 1 176 0
 266 000c 0023     		movs	r3, #0
 267              	.LVL27:
 268              	@ 176 "../../os/hal/src/pwm.c" 1
 269 000e 83F31188 		msr     BASEPRI, r3
 270              	@ 0 "" 2
 271              	.LVL28:
 272              		.thumb
 273 0012 08BD     		pop	{r3, pc}
 274              	.LBE11:
 275              		.cfi_endproc
 276              	.LFE123:
 277              		.size	pwmEnableChannel, .-pwmEnableChannel
 278 0014 AFF30080 		.section	.text.pwmDisableChannel,"ax",%progbits
 278      AFF30080 
 278      AFF30080 
ARM GAS  /tmp/cc3GJBuB.s 			page 6


 279              		.align	2
 280              		.p2align 4,,15
 281              		.global	pwmDisableChannel
 282              		.thumb
 283              		.thumb_func
 284              		.type	pwmDisableChannel, %function
 285              	pwmDisableChannel:
 286              	.LFB124:
 287              		.loc 1 193 0
 288              		.cfi_startproc
 289              		@ args = 0, pretend = 0, frame = 0
 290              		@ frame_needed = 0, uses_anonymous_args = 0
 291              	.LVL29:
 292 0000 08B5     		push	{r3, lr}
 293              	.LCFI3:
 294              		.cfi_def_cfa_offset 8
 295              		.cfi_offset 3, -8
 296              		.cfi_offset 14, -4
 297              	.LBB12:
 298              		.loc 1 198 0
 299 0002 2023     		movs	r3, #32
 300              	.LVL30:
 301              	@ 198 "../../os/hal/src/pwm.c" 1
 302 0004 83F31188 		msr     BASEPRI, r3
 303              	@ 0 "" 2
 304              	.LVL31:
 305              		.thumb
 306              	.LBE12:
 307              		.loc 1 201 0
 308 0008 FFF7FEFF 		bl	pwm_lld_disable_channel
 309              	.LVL32:
 310              	.LBB13:
 311              		.loc 1 202 0
 312 000c 0023     		movs	r3, #0
 313              	.LVL33:
 314              	@ 202 "../../os/hal/src/pwm.c" 1
 315 000e 83F31188 		msr     BASEPRI, r3
 316              	@ 0 "" 2
 317              	.LVL34:
 318              		.thumb
 319 0012 08BD     		pop	{r3, pc}
 320              	.LBE13:
 321              		.cfi_endproc
 322              	.LFE124:
 323              		.size	pwmDisableChannel, .-pwmDisableChannel
 324 0014 AFF30080 		.text
 324      AFF30080 
 324      AFF30080 
 325              	.Letext0:
 326              		.file 2 "/usr/bin/../lib/gcc/arm-none-eabi/4.7.4/../../../../arm-none-eabi/include/stdint.h"
 327              		.file 3 "../../os/hal/platforms/STM32/stm32.h"
 328              		.file 4 "../../os/hal/include/pwm.h"
 329              		.file 5 "../../os/hal/platforms/STM32/pwm_lld.h"
 330              		.file 6 "../../os/ports/common/ARMCMx/CMSIS/include/core_cm4.h"