ARM GAS  /tmp/cczWKf9x.s 			page 1


   1              		.syntax unified
   2              		.cpu cortex-m4
   3              		.eabi_attribute 27, 3
   4              		.eabi_attribute 28, 1
   5              		.fpu fpv4-sp-d16
   6              		.eabi_attribute 20, 1
   7              		.eabi_attribute 21, 1
   8              		.eabi_attribute 23, 3
   9              		.eabi_attribute 24, 1
  10              		.eabi_attribute 25, 1
  11              		.eabi_attribute 26, 1
  12              		.eabi_attribute 30, 2
  13              		.eabi_attribute 34, 1
  14              		.eabi_attribute 18, 4
  15              		.thumb
  16              		.file	"gdisp.c"
  17              		.text
  18              	.Ltext0:
  19              		.cfi_sections	.debug_frame
  20              		.section	.text._gdispInit,"ax",%progbits
  21              		.align	2
  22              		.p2align 4,,15
  23              		.global	_gdispInit
  24              		.thumb
  25              		.thumb_func
  26              		.type	_gdispInit, %function
  27              	_gdispInit:
  28              	.LFB118:
  29              		.file 1 "../../ext/ugfx/src/gdisp/gdisp.c"
  30              		.loc 1 103 0
  31              		.cfi_startproc
  32              		@ args = 0, pretend = 0, frame = 0
  33              		@ frame_needed = 0, uses_anonymous_args = 0
  34 0000 10B5     		push	{r4, lr}
  35              	.LCFI0:
  36              		.cfi_def_cfa_offset 8
  37              		.cfi_offset 4, -8
  38              		.cfi_offset 14, -4
  39              		.loc 1 105 0
  40 0002 40F20004 		movw	r4, #:lower16:.LANCHOR0
  41 0006 C0F20004 		movt	r4, #:upper16:.LANCHOR0
  42 000a 2046     		mov	r0, r4
  43 000c FFF7FEFF 		bl	chMtxInit
  44              	.LVL0:
  45              		.loc 1 108 0
  46 0010 2046     		mov	r0, r4
  47 0012 FFF7FEFF 		bl	chMtxLock
  48              	.LVL1:
  49              		.loc 1 109 0
  50 0016 FFF7FEFF 		bl	gdisp_lld_init
  51              	.LVL2:
  52              		.loc 1 111 0
  53 001a BDE81040 		pop	{r4, lr}
  54              		.loc 1 110 0
  55 001e FFF7FEBF 		b	chMtxUnlock
  56              	.LVL3:
  57              		.cfi_endproc
ARM GAS  /tmp/cczWKf9x.s 			page 2


  58              	.LFE118:
  59              		.size	_gdispInit, .-_gdispInit
  60 0022 00BFAFF3 		.section	.text.gdispIsBusy,"ax",%progbits
  60      0080AFF3 
  60      0080AFF3 
  60      0080
  61              		.align	2
  62              		.p2align 4,,15
  63              		.global	gdispIsBusy
  64              		.thumb
  65              		.thumb_func
  66              		.type	gdispIsBusy, %function
  67              	gdispIsBusy:
  68              	.LFB119:
  69              		.loc 1 145 0
  70              		.cfi_startproc
  71              		@ args = 0, pretend = 0, frame = 0
  72              		@ frame_needed = 0, uses_anonymous_args = 0
  73              		@ link register save eliminated.
  74              		.loc 1 147 0
  75 0000 0020     		movs	r0, #0
  76 0002 7047     		bx	lr
  77              		.cfi_endproc
  78              	.LFE119:
  79              		.size	gdispIsBusy, .-gdispIsBusy
  80 0004 AFF30080 		.section	.text.gdispClear,"ax",%progbits
  80      AFF30080 
  80      AFF30080 
  81              		.align	2
  82              		.p2align 4,,15
  83              		.global	gdispClear
  84              		.thumb
  85              		.thumb_func
  86              		.type	gdispClear, %function
  87              	gdispClear:
  88              	.LFB120:
  89              		.loc 1 155 0
  90              		.cfi_startproc
  91              		@ args = 0, pretend = 0, frame = 0
  92              		@ frame_needed = 0, uses_anonymous_args = 0
  93              	.LVL4:
  94 0000 10B5     		push	{r4, lr}
  95              	.LCFI1:
  96              		.cfi_def_cfa_offset 8
  97              		.cfi_offset 4, -8
  98              		.cfi_offset 14, -4
  99              		.loc 1 155 0
 100 0002 0446     		mov	r4, r0
 101              		.loc 1 156 0
 102 0004 40F20000 		movw	r0, #:lower16:.LANCHOR0
 103              	.LVL5:
 104 0008 C0F20000 		movt	r0, #:upper16:.LANCHOR0
 105 000c FFF7FEFF 		bl	chMtxLock
 106              	.LVL6:
 107              		.loc 1 157 0
 108 0010 2046     		mov	r0, r4
 109 0012 FFF7FEFF 		bl	gdisp_lld_clear
ARM GAS  /tmp/cczWKf9x.s 			page 3


 110              	.LVL7:
 111              		.loc 1 159 0
 112 0016 BDE81040 		pop	{r4, lr}
 113              		.loc 1 158 0
 114 001a FFF7FEBF 		b	chMtxUnlock
 115              	.LVL8:
 116              		.cfi_endproc
 117              	.LFE120:
 118              		.size	gdispClear, .-gdispClear
 119 001e 00BF     		.section	.text.gdispDrawPixel,"ax",%progbits
 120              		.align	2
 121              		.p2align 4,,15
 122              		.global	gdispDrawPixel
 123              		.thumb
 124              		.thumb_func
 125              		.type	gdispDrawPixel, %function
 126              	gdispDrawPixel:
 127              	.LFB121:
 128              		.loc 1 169 0
 129              		.cfi_startproc
 130              		@ args = 0, pretend = 0, frame = 0
 131              		@ frame_needed = 0, uses_anonymous_args = 0
 132              	.LVL9:
 133 0000 70B5     		push	{r4, r5, r6, lr}
 134              	.LCFI2:
 135              		.cfi_def_cfa_offset 16
 136              		.cfi_offset 4, -16
 137              		.cfi_offset 5, -12
 138              		.cfi_offset 6, -8
 139              		.cfi_offset 14, -4
 140              		.loc 1 169 0
 141 0002 0446     		mov	r4, r0
 142              		.loc 1 170 0
 143 0004 40F20000 		movw	r0, #:lower16:.LANCHOR0
 144              	.LVL10:
 145              		.loc 1 169 0
 146 0008 0E46     		mov	r6, r1
 147 000a 1546     		mov	r5, r2
 148              		.loc 1 170 0
 149 000c C0F20000 		movt	r0, #:upper16:.LANCHOR0
 150 0010 FFF7FEFF 		bl	chMtxLock
 151              	.LVL11:
 152              		.loc 1 171 0
 153 0014 2046     		mov	r0, r4
 154 0016 3146     		mov	r1, r6
 155 0018 2A46     		mov	r2, r5
 156 001a FFF7FEFF 		bl	gdisp_lld_draw_pixel
 157              	.LVL12:
 158              		.loc 1 173 0
 159 001e BDE87040 		pop	{r4, r5, r6, lr}
 160              		.loc 1 172 0
 161 0022 FFF7FEBF 		b	chMtxUnlock
 162              	.LVL13:
 163              		.cfi_endproc
 164              	.LFE121:
 165              		.size	gdispDrawPixel, .-gdispDrawPixel
 166 0026 00BFAFF3 		.section	.text.gdispDrawLine,"ax",%progbits
ARM GAS  /tmp/cczWKf9x.s 			page 4


 166      0080AFF3 
 166      0080
 167              		.align	2
 168              		.p2align 4,,15
 169              		.global	gdispDrawLine
 170              		.thumb
 171              		.thumb_func
 172              		.type	gdispDrawLine, %function
 173              	gdispDrawLine:
 174              	.LFB122:
 175              		.loc 1 185 0
 176              		.cfi_startproc
 177              		@ args = 4, pretend = 0, frame = 0
 178              		@ frame_needed = 0, uses_anonymous_args = 0
 179              	.LVL14:
 180 0000 2DE9F041 		push	{r4, r5, r6, r7, r8, lr}
 181              	.LCFI3:
 182              		.cfi_def_cfa_offset 24
 183              		.cfi_offset 4, -24
 184              		.cfi_offset 5, -20
 185              		.cfi_offset 6, -16
 186              		.cfi_offset 7, -12
 187              		.cfi_offset 8, -8
 188              		.cfi_offset 14, -4
 189 0004 82B0     		sub	sp, sp, #8
 190              	.LCFI4:
 191              		.cfi_def_cfa_offset 32
 192              		.loc 1 185 0
 193 0006 0546     		mov	r5, r0
 194 0008 BDF82040 		ldrh	r4, [sp, #32]
 195              		.loc 1 186 0
 196 000c 40F20000 		movw	r0, #:lower16:.LANCHOR0
 197              	.LVL15:
 198              		.loc 1 185 0
 199 0010 8846     		mov	r8, r1
 200 0012 1746     		mov	r7, r2
 201 0014 1E46     		mov	r6, r3
 202              		.loc 1 186 0
 203 0016 C0F20000 		movt	r0, #:upper16:.LANCHOR0
 204 001a FFF7FEFF 		bl	chMtxLock
 205              	.LVL16:
 206              		.loc 1 187 0
 207 001e 0094     		str	r4, [sp, #0]
 208 0020 2846     		mov	r0, r5
 209 0022 4146     		mov	r1, r8
 210 0024 3A46     		mov	r2, r7
 211 0026 3346     		mov	r3, r6
 212 0028 FFF7FEFF 		bl	gdisp_lld_draw_line
 213              	.LVL17:
 214              		.loc 1 189 0
 215 002c 02B0     		add	sp, sp, #8
 216 002e BDE8F041 		pop	{r4, r5, r6, r7, r8, lr}
 217              		.loc 1 188 0
 218 0032 FFF7FEBF 		b	chMtxUnlock
 219              	.LVL18:
 220              		.cfi_endproc
 221              	.LFE122:
ARM GAS  /tmp/cczWKf9x.s 			page 5


 222              		.size	gdispDrawLine, .-gdispDrawLine
 223 0036 00BFAFF3 		.section	.text.gdispFillArea,"ax",%progbits
 223      0080AFF3 
 223      0080
 224              		.align	2
 225              		.p2align 4,,15
 226              		.global	gdispFillArea
 227              		.thumb
 228              		.thumb_func
 229              		.type	gdispFillArea, %function
 230              	gdispFillArea:
 231              	.LFB123:
 232              		.loc 1 203 0
 233              		.cfi_startproc
 234              		@ args = 4, pretend = 0, frame = 0
 235              		@ frame_needed = 0, uses_anonymous_args = 0
 236              	.LVL19:
 237 0000 2DE9F041 		push	{r4, r5, r6, r7, r8, lr}
 238              	.LCFI5:
 239              		.cfi_def_cfa_offset 24
 240              		.cfi_offset 4, -24
 241              		.cfi_offset 5, -20
 242              		.cfi_offset 6, -16
 243              		.cfi_offset 7, -12
 244              		.cfi_offset 8, -8
 245              		.cfi_offset 14, -4
 246 0004 82B0     		sub	sp, sp, #8
 247              	.LCFI6:
 248              		.cfi_def_cfa_offset 32
 249              		.loc 1 203 0
 250 0006 0546     		mov	r5, r0
 251 0008 BDF82040 		ldrh	r4, [sp, #32]
 252              		.loc 1 204 0
 253 000c 40F20000 		movw	r0, #:lower16:.LANCHOR0
 254              	.LVL20:
 255              		.loc 1 203 0
 256 0010 8846     		mov	r8, r1
 257 0012 1746     		mov	r7, r2
 258 0014 1E46     		mov	r6, r3
 259              		.loc 1 204 0
 260 0016 C0F20000 		movt	r0, #:upper16:.LANCHOR0
 261 001a FFF7FEFF 		bl	chMtxLock
 262              	.LVL21:
 263              		.loc 1 205 0
 264 001e 0094     		str	r4, [sp, #0]
 265 0020 2846     		mov	r0, r5
 266 0022 4146     		mov	r1, r8
 267 0024 3A46     		mov	r2, r7
 268 0026 3346     		mov	r3, r6
 269 0028 FFF7FEFF 		bl	gdisp_lld_fill_area
 270              	.LVL22:
 271              		.loc 1 207 0
 272 002c 02B0     		add	sp, sp, #8
 273 002e BDE8F041 		pop	{r4, r5, r6, r7, r8, lr}
 274              		.loc 1 206 0
 275 0032 FFF7FEBF 		b	chMtxUnlock
 276              	.LVL23:
ARM GAS  /tmp/cczWKf9x.s 			page 6


 277              		.cfi_endproc
 278              	.LFE123:
 279              		.size	gdispFillArea, .-gdispFillArea
 280 0036 00BFAFF3 		.section	.text.gdispBlitAreaEx,"ax",%progbits
 280      0080AFF3 
 280      0080
 281              		.align	2
 282              		.p2align 4,,15
 283              		.global	gdispBlitAreaEx
 284              		.thumb
 285              		.thumb_func
 286              		.type	gdispBlitAreaEx, %function
 287              	gdispBlitAreaEx:
 288              	.LFB124:
 289              		.loc 1 221 0
 290              		.cfi_startproc
 291              		@ args = 16, pretend = 0, frame = 0
 292              		@ frame_needed = 0, uses_anonymous_args = 0
 293              	.LVL24:
 294 0000 2DE9F04F 		push	{r4, r5, r6, r7, r8, r9, sl, fp, lr}
 295              	.LCFI7:
 296              		.cfi_def_cfa_offset 36
 297              		.cfi_offset 4, -36
 298              		.cfi_offset 5, -32
 299              		.cfi_offset 6, -28
 300              		.cfi_offset 7, -24
 301              		.cfi_offset 8, -20
 302              		.cfi_offset 9, -16
 303              		.cfi_offset 10, -12
 304              		.cfi_offset 11, -8
 305              		.cfi_offset 14, -4
 306 0004 85B0     		sub	sp, sp, #20
 307              	.LCFI8:
 308              		.cfi_def_cfa_offset 56
 309              		.loc 1 221 0
 310 0006 8046     		mov	r8, r0
 311 0008 BDF93870 		ldrsh	r7, [sp, #56]
 312 000c BDF93C60 		ldrsh	r6, [sp, #60]
 313 0010 BDF94050 		ldrsh	r5, [sp, #64]
 314 0014 119C     		ldr	r4, [sp, #68]
 315              		.loc 1 222 0
 316 0016 40F20000 		movw	r0, #:lower16:.LANCHOR0
 317              	.LVL25:
 318              		.loc 1 221 0
 319 001a 8B46     		mov	fp, r1
 320 001c 9246     		mov	sl, r2
 321 001e 9946     		mov	r9, r3
 322              		.loc 1 222 0
 323 0020 C0F20000 		movt	r0, #:upper16:.LANCHOR0
 324 0024 FFF7FEFF 		bl	chMtxLock
 325              	.LVL26:
 326              		.loc 1 223 0
 327 0028 0097     		str	r7, [sp, #0]
 328 002a 0196     		str	r6, [sp, #4]
 329 002c 0295     		str	r5, [sp, #8]
 330 002e 0394     		str	r4, [sp, #12]
 331 0030 4046     		mov	r0, r8
ARM GAS  /tmp/cczWKf9x.s 			page 7


 332 0032 5946     		mov	r1, fp
 333 0034 5246     		mov	r2, sl
 334 0036 4B46     		mov	r3, r9
 335 0038 FFF7FEFF 		bl	gdisp_lld_blit_area_ex
 336              	.LVL27:
 337              		.loc 1 225 0
 338 003c 05B0     		add	sp, sp, #20
 339 003e BDE8F04F 		pop	{r4, r5, r6, r7, r8, r9, sl, fp, lr}
 340              		.loc 1 224 0
 341 0042 FFF7FEBF 		b	chMtxUnlock
 342              	.LVL28:
 343              		.cfi_endproc
 344              	.LFE124:
 345              		.size	gdispBlitAreaEx, .-gdispBlitAreaEx
 346 0046 00BFAFF3 		.section	.text.gdispSetClip,"ax",%progbits
 346      0080AFF3 
 346      0080
 347              		.align	2
 348              		.p2align 4,,15
 349              		.global	gdispSetClip
 350              		.thumb
 351              		.thumb_func
 352              		.type	gdispSetClip, %function
 353              	gdispSetClip:
 354              	.LFB125:
 355              		.loc 1 242 0
 356              		.cfi_startproc
 357              		@ args = 0, pretend = 0, frame = 0
 358              		@ frame_needed = 0, uses_anonymous_args = 0
 359              	.LVL29:
 360 0000 F8B5     		push	{r3, r4, r5, r6, r7, lr}
 361              	.LCFI9:
 362              		.cfi_def_cfa_offset 24
 363              		.cfi_offset 3, -24
 364              		.cfi_offset 4, -20
 365              		.cfi_offset 5, -16
 366              		.cfi_offset 6, -12
 367              		.cfi_offset 7, -8
 368              		.cfi_offset 14, -4
 369              		.loc 1 242 0
 370 0002 0446     		mov	r4, r0
 371              		.loc 1 243 0
 372 0004 40F20000 		movw	r0, #:lower16:.LANCHOR0
 373              	.LVL30:
 374              		.loc 1 242 0
 375 0008 0F46     		mov	r7, r1
 376 000a 1646     		mov	r6, r2
 377 000c 1D46     		mov	r5, r3
 378              		.loc 1 243 0
 379 000e C0F20000 		movt	r0, #:upper16:.LANCHOR0
 380 0012 FFF7FEFF 		bl	chMtxLock
 381              	.LVL31:
 382              		.loc 1 244 0
 383 0016 2046     		mov	r0, r4
 384 0018 3946     		mov	r1, r7
 385 001a 3246     		mov	r2, r6
 386 001c 2B46     		mov	r3, r5
ARM GAS  /tmp/cczWKf9x.s 			page 8


 387 001e FFF7FEFF 		bl	gdisp_lld_set_clip
 388              	.LVL32:
 389              		.loc 1 246 0
 390 0022 BDE8F840 		pop	{r3, r4, r5, r6, r7, lr}
 391              		.loc 1 245 0
 392 0026 FFF7FEBF 		b	chMtxUnlock
 393              	.LVL33:
 394              		.cfi_endproc
 395              	.LFE125:
 396              		.size	gdispSetClip, .-gdispSetClip
 397 002a 00BFAFF3 		.section	.text.gdispDrawCircle,"ax",%progbits
 397      0080
 398              		.align	2
 399              		.p2align 4,,15
 400              		.global	gdispDrawCircle
 401              		.thumb
 402              		.thumb_func
 403              		.type	gdispDrawCircle, %function
 404              	gdispDrawCircle:
 405              	.LFB126:
 406              		.loc 1 259 0
 407              		.cfi_startproc
 408              		@ args = 0, pretend = 0, frame = 0
 409              		@ frame_needed = 0, uses_anonymous_args = 0
 410              	.LVL34:
 411 0000 F8B5     		push	{r3, r4, r5, r6, r7, lr}
 412              	.LCFI10:
 413              		.cfi_def_cfa_offset 24
 414              		.cfi_offset 3, -24
 415              		.cfi_offset 4, -20
 416              		.cfi_offset 5, -16
 417              		.cfi_offset 6, -12
 418              		.cfi_offset 7, -8
 419              		.cfi_offset 14, -4
 420              		.loc 1 259 0
 421 0002 0446     		mov	r4, r0
 422              		.loc 1 260 0
 423 0004 40F20000 		movw	r0, #:lower16:.LANCHOR0
 424              	.LVL35:
 425              		.loc 1 259 0
 426 0008 0F46     		mov	r7, r1
 427 000a 1646     		mov	r6, r2
 428 000c 1D46     		mov	r5, r3
 429              		.loc 1 260 0
 430 000e C0F20000 		movt	r0, #:upper16:.LANCHOR0
 431 0012 FFF7FEFF 		bl	chMtxLock
 432              	.LVL36:
 433              		.loc 1 261 0
 434 0016 2046     		mov	r0, r4
 435 0018 3946     		mov	r1, r7
 436 001a 3246     		mov	r2, r6
 437 001c 2B46     		mov	r3, r5
 438 001e FFF7FEFF 		bl	gdisp_lld_draw_circle
 439              	.LVL37:
 440              		.loc 1 263 0
 441 0022 BDE8F840 		pop	{r3, r4, r5, r6, r7, lr}
 442              		.loc 1 262 0
ARM GAS  /tmp/cczWKf9x.s 			page 9


 443 0026 FFF7FEBF 		b	chMtxUnlock
 444              	.LVL38:
 445              		.cfi_endproc
 446              	.LFE126:
 447              		.size	gdispDrawCircle, .-gdispDrawCircle
 448 002a 00BFAFF3 		.section	.text.gdispFillCircle,"ax",%progbits
 448      0080
 449              		.align	2
 450              		.p2align 4,,15
 451              		.global	gdispFillCircle
 452              		.thumb
 453              		.thumb_func
 454              		.type	gdispFillCircle, %function
 455              	gdispFillCircle:
 456              	.LFB127:
 457              		.loc 1 276 0
 458              		.cfi_startproc
 459              		@ args = 0, pretend = 0, frame = 0
 460              		@ frame_needed = 0, uses_anonymous_args = 0
 461              	.LVL39:
 462 0000 F8B5     		push	{r3, r4, r5, r6, r7, lr}
 463              	.LCFI11:
 464              		.cfi_def_cfa_offset 24
 465              		.cfi_offset 3, -24
 466              		.cfi_offset 4, -20
 467              		.cfi_offset 5, -16
 468              		.cfi_offset 6, -12
 469              		.cfi_offset 7, -8
 470              		.cfi_offset 14, -4
 471              		.loc 1 276 0
 472 0002 0446     		mov	r4, r0
 473              		.loc 1 277 0
 474 0004 40F20000 		movw	r0, #:lower16:.LANCHOR0
 475              	.LVL40:
 476              		.loc 1 276 0
 477 0008 0F46     		mov	r7, r1
 478 000a 1646     		mov	r6, r2
 479 000c 1D46     		mov	r5, r3
 480              		.loc 1 277 0
 481 000e C0F20000 		movt	r0, #:upper16:.LANCHOR0
 482 0012 FFF7FEFF 		bl	chMtxLock
 483              	.LVL41:
 484              		.loc 1 278 0
 485 0016 2046     		mov	r0, r4
 486 0018 3946     		mov	r1, r7
 487 001a 3246     		mov	r2, r6
 488 001c 2B46     		mov	r3, r5
 489 001e FFF7FEFF 		bl	gdisp_lld_fill_circle
 490              	.LVL42:
 491              		.loc 1 280 0
 492 0022 BDE8F840 		pop	{r3, r4, r5, r6, r7, lr}
 493              		.loc 1 279 0
 494 0026 FFF7FEBF 		b	chMtxUnlock
 495              	.LVL43:
 496              		.cfi_endproc
 497              	.LFE127:
 498              		.size	gdispFillCircle, .-gdispFillCircle
ARM GAS  /tmp/cczWKf9x.s 			page 10


 499 002a 00BFAFF3 		.section	.text.gdispDrawChar,"ax",%progbits
 499      0080
 500              		.align	2
 501              		.p2align 4,,15
 502              		.global	gdispDrawChar
 503              		.thumb
 504              		.thumb_func
 505              		.type	gdispDrawChar, %function
 506              	gdispDrawChar:
 507              	.LFB128:
 508              		.loc 1 403 0
 509              		.cfi_startproc
 510              		@ args = 4, pretend = 0, frame = 0
 511              		@ frame_needed = 0, uses_anonymous_args = 0
 512              	.LVL44:
 513 0000 2DE9F041 		push	{r4, r5, r6, r7, r8, lr}
 514              	.LCFI12:
 515              		.cfi_def_cfa_offset 24
 516              		.cfi_offset 4, -24
 517              		.cfi_offset 5, -20
 518              		.cfi_offset 6, -16
 519              		.cfi_offset 7, -12
 520              		.cfi_offset 8, -8
 521              		.cfi_offset 14, -4
 522 0004 82B0     		sub	sp, sp, #8
 523              	.LCFI13:
 524              		.cfi_def_cfa_offset 32
 525              		.loc 1 403 0
 526 0006 0546     		mov	r5, r0
 527 0008 BDF82040 		ldrh	r4, [sp, #32]
 528              		.loc 1 404 0
 529 000c 40F20000 		movw	r0, #:lower16:.LANCHOR0
 530              	.LVL45:
 531              		.loc 1 403 0
 532 0010 8846     		mov	r8, r1
 533 0012 1746     		mov	r7, r2
 534 0014 1E46     		mov	r6, r3
 535              		.loc 1 404 0
 536 0016 C0F20000 		movt	r0, #:upper16:.LANCHOR0
 537 001a FFF7FEFF 		bl	chMtxLock
 538              	.LVL46:
 539              		.loc 1 405 0
 540 001e 0094     		str	r4, [sp, #0]
 541 0020 2846     		mov	r0, r5
 542 0022 4146     		mov	r1, r8
 543 0024 3A46     		mov	r2, r7
 544 0026 3346     		mov	r3, r6
 545 0028 FFF7FEFF 		bl	gdisp_lld_draw_char
 546              	.LVL47:
 547              		.loc 1 407 0
 548 002c 02B0     		add	sp, sp, #8
 549 002e BDE8F041 		pop	{r4, r5, r6, r7, r8, lr}
 550              		.loc 1 406 0
 551 0032 FFF7FEBF 		b	chMtxUnlock
 552              	.LVL48:
 553              		.cfi_endproc
 554              	.LFE128:
ARM GAS  /tmp/cczWKf9x.s 			page 11


 555              		.size	gdispDrawChar, .-gdispDrawChar
 556 0036 00BFAFF3 		.section	.text.gdispFillChar,"ax",%progbits
 556      0080AFF3 
 556      0080
 557              		.align	2
 558              		.p2align 4,,15
 559              		.global	gdispFillChar
 560              		.thumb
 561              		.thumb_func
 562              		.type	gdispFillChar, %function
 563              	gdispFillChar:
 564              	.LFB129:
 565              		.loc 1 421 0
 566              		.cfi_startproc
 567              		@ args = 8, pretend = 0, frame = 0
 568              		@ frame_needed = 0, uses_anonymous_args = 0
 569              	.LVL49:
 570 0000 2DE9F043 		push	{r4, r5, r6, r7, r8, r9, lr}
 571              	.LCFI14:
 572              		.cfi_def_cfa_offset 28
 573              		.cfi_offset 4, -28
 574              		.cfi_offset 5, -24
 575              		.cfi_offset 6, -20
 576              		.cfi_offset 7, -16
 577              		.cfi_offset 8, -12
 578              		.cfi_offset 9, -8
 579              		.cfi_offset 14, -4
 580 0004 83B0     		sub	sp, sp, #12
 581              	.LCFI15:
 582              		.cfi_def_cfa_offset 40
 583              		.loc 1 421 0
 584 0006 0646     		mov	r6, r0
 585 0008 BDF82850 		ldrh	r5, [sp, #40]
 586 000c BDF82C40 		ldrh	r4, [sp, #44]
 587              		.loc 1 422 0
 588 0010 40F20000 		movw	r0, #:lower16:.LANCHOR0
 589              	.LVL50:
 590              		.loc 1 421 0
 591 0014 8946     		mov	r9, r1
 592 0016 9046     		mov	r8, r2
 593 0018 1F46     		mov	r7, r3
 594              		.loc 1 422 0
 595 001a C0F20000 		movt	r0, #:upper16:.LANCHOR0
 596 001e FFF7FEFF 		bl	chMtxLock
 597              	.LVL51:
 598              		.loc 1 423 0
 599 0022 0095     		str	r5, [sp, #0]
 600 0024 0194     		str	r4, [sp, #4]
 601 0026 3046     		mov	r0, r6
 602 0028 4946     		mov	r1, r9
 603 002a 4246     		mov	r2, r8
 604 002c 3B46     		mov	r3, r7
 605 002e FFF7FEFF 		bl	gdisp_lld_fill_char
 606              	.LVL52:
 607              		.loc 1 425 0
 608 0032 03B0     		add	sp, sp, #12
 609 0034 BDE8F043 		pop	{r4, r5, r6, r7, r8, r9, lr}
ARM GAS  /tmp/cczWKf9x.s 			page 12


 610              		.loc 1 424 0
 611 0038 FFF7FEBF 		b	chMtxUnlock
 612              	.LVL53:
 613              		.cfi_endproc
 614              	.LFE129:
 615              		.size	gdispFillChar, .-gdispFillChar
 616 003c AFF30080 		.section	.text.gdispDrawBox,"ax",%progbits
 617              		.align	2
 618              		.p2align 4,,15
 619              		.global	gdispDrawBox
 620              		.thumb
 621              		.thumb_func
 622              		.type	gdispDrawBox, %function
 623              	gdispDrawBox:
 624              	.LFB130:
 625              		.loc 1 501 0
 626              		.cfi_startproc
 627              		@ args = 4, pretend = 0, frame = 0
 628              		@ frame_needed = 0, uses_anonymous_args = 0
 629              	.LVL54:
 630 0000 2DE9F04F 		push	{r4, r5, r6, r7, r8, r9, sl, fp, lr}
 631              	.LCFI16:
 632              		.cfi_def_cfa_offset 36
 633              		.cfi_offset 4, -36
 634              		.cfi_offset 5, -32
 635              		.cfi_offset 6, -28
 636              		.cfi_offset 7, -24
 637              		.cfi_offset 8, -20
 638              		.cfi_offset 9, -16
 639              		.cfi_offset 10, -12
 640              		.cfi_offset 11, -8
 641              		.cfi_offset 14, -4
 642              		.loc 1 506 0
 643 0004 1FFA81F8 		uxth	r8, r1
 644 0008 08EB0307 		add	r7, r8, r3
 645              		.loc 1 501 0
 646 000c 83B0     		sub	sp, sp, #12
 647              	.LCFI17:
 648              		.cfi_def_cfa_offset 48
 649              		.loc 1 505 0
 650 000e 00F1FF3C 		add	ip, r0, #-1
 651              		.loc 1 506 0
 652 0012 BFB2     		uxth	r7, r7
 653              		.loc 1 501 0
 654 0014 1C46     		mov	r4, r3
 655              		.loc 1 505 0
 656 0016 0CEB020A 		add	sl, ip, r2
 657              		.loc 1 506 0
 658 001a 7B1E     		subs	r3, r7, #1
 659              	.LVL55:
 660              		.loc 1 508 0
 661 001c 022A     		cmp	r2, #2
 662              		.loc 1 501 0
 663 001e 0E46     		mov	r6, r1
 664 0020 0546     		mov	r5, r0
 665 0022 BDF83090 		ldrh	r9, [sp, #48]
 666              		.loc 1 505 0
ARM GAS  /tmp/cczWKf9x.s 			page 13


 667 0026 1FFA8AFA 		uxth	sl, sl
 668              	.LVL56:
 669              		.loc 1 506 0
 670 002a 1FFA83FB 		uxth	fp, r3
 671              	.LVL57:
 672              		.loc 1 508 0
 673 002e 19DD     		ble	.L14
 674              		.loc 1 509 0
 675 0030 002C     		cmp	r4, #0
 676 0032 14DD     		ble	.L13
 677              		.loc 1 510 0
 678 0034 0FFA8AFA 		sxth	sl, sl
 679              	.LVL58:
 680 0038 CDF80090 		str	r9, [sp, #0]
 681 003c 5246     		mov	r2, sl
 682              	.LVL59:
 683 003e 0B46     		mov	r3, r1
 684              	.LVL60:
 685 0040 FFF7FEFF 		bl	gdispDrawLine
 686              	.LVL61:
 687              		.loc 1 511 0
 688 0044 012C     		cmp	r4, #1
 689 0046 0AD0     		beq	.L13
 690              		.loc 1 512 0
 691 0048 0FFA8BF1 		sxth	r1, fp
 692 004c CDF80090 		str	r9, [sp, #0]
 693 0050 2846     		mov	r0, r5
 694 0052 5246     		mov	r2, sl
 695 0054 0B46     		mov	r3, r1
 696 0056 FFF7FEFF 		bl	gdispDrawLine
 697              	.LVL62:
 698              		.loc 1 513 0
 699 005a 022C     		cmp	r4, #2
 700 005c 0FD1     		bne	.L26
 701              	.L13:
 702              		.loc 1 525 0
 703 005e 03B0     		add	sp, sp, #12
 704 0060 BDE8F08F 		pop	{r4, r5, r6, r7, r8, r9, sl, fp, pc}
 705              	.LVL63:
 706              	.L14:
 707              		.loc 1 519 0
 708 0064 24D0     		beq	.L27
 709              		.loc 1 522 0
 710 0066 012A     		cmp	r2, #1
 711 0068 F9D1     		bne	.L13
 712              		.loc 1 523 0
 713 006a 0246     		mov	r2, r0
 714              	.LVL64:
 715 006c 0FFA8BF3 		sxth	r3, fp
 716              	.LVL65:
 717 0070 CDF83090 		str	r9, [sp, #48]
 718              		.loc 1 525 0
 719 0074 03B0     		add	sp, sp, #12
 720 0076 BDE8F04F 		pop	{r4, r5, r6, r7, r8, r9, sl, fp, lr}
 721              		.loc 1 523 0
 722 007a FFF7FEBF 		b	gdispDrawLine
 723              	.LVL66:
ARM GAS  /tmp/cczWKf9x.s 			page 14


 724              	.L26:
 725              		.loc 1 514 0
 726 007e B81E     		subs	r0, r7, #2
 727 0080 08F10108 		add	r8, r8, #1
 728              	.LVL67:
 729 0084 07B2     		sxth	r7, r0
 730 0086 0FFA88F8 		sxth	r8, r8
 731              	.LVL68:
 732 008a 2846     		mov	r0, r5
 733 008c 2A46     		mov	r2, r5
 734 008e 4146     		mov	r1, r8
 735 0090 3B46     		mov	r3, r7
 736 0092 CDF80090 		str	r9, [sp, #0]
 737 0096 FFF7FEFF 		bl	gdispDrawLine
 738              	.LVL69:
 739              		.loc 1 515 0
 740 009a 5046     		mov	r0, sl
 741 009c 4146     		mov	r1, r8
 742 009e 5246     		mov	r2, sl
 743 00a0 3B46     		mov	r3, r7
 744 00a2 CDF83090 		str	r9, [sp, #48]
 745              		.loc 1 525 0
 746 00a6 03B0     		add	sp, sp, #12
 747 00a8 BDE8F04F 		pop	{r4, r5, r6, r7, r8, r9, sl, fp, lr}
 748              		.loc 1 515 0
 749 00ac FFF7FEBF 		b	gdispDrawLine
 750              	.LVL70:
 751              	.L27:
 752              		.loc 1 520 0
 753 00b0 0FFA8BFB 		sxth	fp, fp
 754 00b4 0246     		mov	r2, r0
 755              	.LVL71:
 756 00b6 5B46     		mov	r3, fp
 757              	.LVL72:
 758 00b8 CDF80090 		str	r9, [sp, #0]
 759 00bc FFF7FEFF 		bl	gdispDrawLine
 760              	.LVL73:
 761              		.loc 1 521 0
 762 00c0 0FFA8AF0 		sxth	r0, sl
 763 00c4 3146     		mov	r1, r6
 764 00c6 0246     		mov	r2, r0
 765 00c8 5B46     		mov	r3, fp
 766 00ca CDF83090 		str	r9, [sp, #48]
 767              		.loc 1 525 0
 768 00ce 03B0     		add	sp, sp, #12
 769 00d0 BDE8F04F 		pop	{r4, r5, r6, r7, r8, r9, sl, fp, lr}
 770              		.loc 1 521 0
 771 00d4 FFF7FEBF 		b	gdispDrawLine
 772              	.LVL74:
 773              		.cfi_endproc
 774              	.LFE130:
 775              		.size	gdispDrawBox, .-gdispDrawBox
 776 00d8 AFF30080 		.section	.text.gdispDrawString,"ax",%progbits
 776      AFF30080 
 777              		.align	2
 778              		.p2align 4,,15
 779              		.global	gdispDrawString
ARM GAS  /tmp/cczWKf9x.s 			page 15


 780              		.thumb
 781              		.thumb_func
 782              		.type	gdispDrawString, %function
 783              	gdispDrawString:
 784              	.LFB131:
 785              		.loc 1 623 0
 786              		.cfi_startproc
 787              		@ args = 4, pretend = 0, frame = 0
 788              		@ frame_needed = 0, uses_anonymous_args = 0
 789              	.LVL75:
 790 0000 2DE9F04F 		push	{r4, r5, r6, r7, r8, r9, sl, fp, lr}
 791              	.LCFI18:
 792              		.cfi_def_cfa_offset 36
 793              		.cfi_offset 4, -36
 794              		.cfi_offset 5, -32
 795              		.cfi_offset 6, -28
 796              		.cfi_offset 7, -24
 797              		.cfi_offset 8, -20
 798              		.cfi_offset 9, -16
 799              		.cfi_offset 10, -12
 800              		.cfi_offset 11, -8
 801              		.cfi_offset 14, -4
 802 0004 83B0     		sub	sp, sp, #12
 803              	.LCFI19:
 804              		.cfi_def_cfa_offset 48
 805              		.loc 1 623 0
 806 0006 8346     		mov	fp, r0
 807 0008 8846     		mov	r8, r1
 808 000a 1C46     		mov	r4, r3
 809 000c BDF83090 		ldrh	r9, [sp, #48]
 810              		.loc 1 629 0
 811 0010 72B3     		cbz	r2, .L28
 812              	.LVL76:
 813              		.loc 1 632 0
 814 0012 1B7B     		ldrb	r3, [r3, #12]	@ zero_extendqisi2
 815              	.LVL77:
 816 0014 6779     		ldrb	r7, [r4, #5]	@ zero_extendqisi2
 817              		.loc 1 623 0
 818 0016 551E     		subs	r5, r2, #1
 819              		.loc 1 632 0
 820 0018 07FB03F7 		mul	r7, r7, r3
 821              	.LVL78:
 822              		.loc 1 631 0
 823 001c 4FF0010A 		mov	sl, #1
 824              	.LVL79:
 825              	.L44:
 826              		.loc 1 633 0 discriminator 1
 827 0020 15F8012F 		ldrb	r2, [r5, #1]!	@ zero_extendqisi2
 828              	.LVL80:
 829 0024 22B3     		cbz	r2, .L28
 830              	.LVL81:
 831              	.L33:
 832              		.loc 1 636 0
 833 0026 A07A     		ldrb	r0, [r4, #10]	@ zero_extendqisi2
 834 0028 8242     		cmp	r2, r0
 835 002a F9D3     		bcc	.L44
 836              		.loc 1 636 0 is_stmt 0 discriminator 1
ARM GAS  /tmp/cczWKf9x.s 			page 16


 837 002c E17A     		ldrb	r1, [r4, #11]	@ zero_extendqisi2
 838 002e 9142     		cmp	r1, r2
 839 0030 C0EB0203 		rsb	r3, r0, r2
 840 0034 F4D3     		bcc	.L44
 841 0036 2069     		ldr	r0, [r4, #16]
 842 0038 267B     		ldrb	r6, [r4, #12]	@ zero_extendqisi2
 843 003a C15C     		ldrb	r1, [r0, r3]	@ zero_extendqisi2
 844 003c 06FB01F6 		mul	r6, r6, r1
 845              	.LVL82:
 846              		.loc 1 637 0 is_stmt 1 discriminator 1
 847 0040 002E     		cmp	r6, #0
 848 0042 EDD0     		beq	.L44
 849              		.loc 1 640 0
 850 0044 37B1     		cbz	r7, .L32
 851              		.loc 1 642 0
 852 0046 07EB0B03 		add	r3, r7, fp
 853              		.loc 1 641 0
 854 004a BAF1000F 		cmp	sl, #0
 855 004e 12D1     		bne	.L35
 856              		.loc 1 642 0
 857 0050 0FFA83FB 		sxth	fp, r3
 858              	.LVL83:
 859              	.L32:
 860              		.loc 1 648 0
 861 0054 5846     		mov	r0, fp
 862 0056 CDF80090 		str	r9, [sp, #0]
 863 005a 4146     		mov	r1, r8
 864 005c 2346     		mov	r3, r4
 865 005e FFF7FEFF 		bl	gdispDrawChar
 866              	.LVL84:
 867              		.loc 1 633 0
 868 0062 15F8012F 		ldrb	r2, [r5, #1]!	@ zero_extendqisi2
 869              		.loc 1 649 0
 870 0066 B344     		add	fp, r6, fp
 871              	.LVL85:
 872 0068 0FFA8BFB 		sxth	fp, fp
 873              	.LVL86:
 874              		.loc 1 633 0
 875 006c 002A     		cmp	r2, #0
 876 006e DAD1     		bne	.L33
 877              	.LVL87:
 878              	.L28:
 879              		.loc 1 651 0
 880 0070 03B0     		add	sp, sp, #12
 881 0072 BDE8F08F 		pop	{r4, r5, r6, r7, r8, r9, sl, fp, pc}
 882              	.LVL88:
 883              	.L35:
 884              		.loc 1 644 0
 885 0076 4FF0000A 		mov	sl, #0
 886              	.LVL89:
 887 007a EBE7     		b	.L32
 888              		.cfi_endproc
 889              	.LFE131:
 890              		.size	gdispDrawString, .-gdispDrawString
 891 007c AFF30080 		.section	.text.gdispFillString,"ax",%progbits
 892              		.align	2
 893              		.p2align 4,,15
ARM GAS  /tmp/cczWKf9x.s 			page 17


 894              		.global	gdispFillString
 895              		.thumb
 896              		.thumb_func
 897              		.type	gdispFillString, %function
 898              	gdispFillString:
 899              	.LFB132:
 900              		.loc 1 655 0
 901              		.cfi_startproc
 902              		@ args = 8, pretend = 0, frame = 24
 903              		@ frame_needed = 0, uses_anonymous_args = 0
 904              	.LVL90:
 905 0000 2DE9F04F 		push	{r4, r5, r6, r7, r8, r9, sl, fp, lr}
 906              	.LCFI20:
 907              		.cfi_def_cfa_offset 36
 908              		.cfi_offset 4, -36
 909              		.cfi_offset 5, -32
 910              		.cfi_offset 6, -28
 911              		.cfi_offset 7, -24
 912              		.cfi_offset 8, -20
 913              		.cfi_offset 9, -16
 914              		.cfi_offset 10, -12
 915              		.cfi_offset 11, -8
 916              		.cfi_offset 14, -4
 917 0004 89B0     		sub	sp, sp, #36
 918              	.LCFI21:
 919              		.cfi_def_cfa_offset 72
 920              		.loc 1 655 0
 921 0006 8946     		mov	r9, r1
 922 0008 BDF84810 		ldrh	r1, [sp, #72]
 923              	.LVL91:
 924 000c BDF84CA0 		ldrh	sl, [sp, #76]
 925 0010 0391     		str	r1, [sp, #12]
 926 0012 8346     		mov	fp, r0
 927 0014 1D46     		mov	r5, r3
 928              		.loc 1 661 0
 929 0016 002A     		cmp	r2, #0
 930 0018 3CD0     		beq	.L45
 931              	.LVL92:
 932              		.loc 1 665 0
 933 001a 187B     		ldrb	r0, [r3, #12]	@ zero_extendqisi2
 934              	.LVL93:
 935 001c 5C79     		ldrb	r4, [r3, #5]	@ zero_extendqisi2
 936              		.loc 1 664 0
 937 001e 2E79     		ldrb	r6, [r5, #4]	@ zero_extendqisi2
 938 0020 5B7B     		ldrb	r3, [r3, #13]	@ zero_extendqisi2
 939              	.LVL94:
 940              		.loc 1 665 0
 941 0022 04FB00F1 		mul	r1, r4, r0
 942              		.loc 1 664 0
 943 0026 06FB03F3 		mul	r3, r6, r3
 944              	.LVL95:
 945              		.loc 1 665 0
 946 002a 1FFA81F8 		uxth	r8, r1
 947              	.LVL96:
 948              		.loc 1 655 0
 949 002e 561E     		subs	r6, r2, #1
 950              		.loc 1 675 0
ARM GAS  /tmp/cczWKf9x.s 			page 18


 951 0030 0FFA88F0 		sxth	r0, r8
 952              		.loc 1 663 0
 953 0034 0122     		movs	r2, #1
 954              	.LVL97:
 955              		.loc 1 675 0
 956 0036 1CB2     		sxth	r4, r3
 957              		.loc 1 665 0
 958 0038 0591     		str	r1, [sp, #20]
 959              		.loc 1 663 0
 960 003a 0492     		str	r2, [sp, #16]
 961              		.loc 1 675 0
 962 003c 0690     		str	r0, [sp, #24]
 963 003e 0794     		str	r4, [sp, #28]
 964              	.LVL98:
 965              	.L61:
 966              		.loc 1 666 0 discriminator 1
 967 0040 16F8014F 		ldrb	r4, [r6, #1]!	@ zero_extendqisi2
 968              	.LVL99:
 969 0044 34B3     		cbz	r4, .L45
 970              	.LVL100:
 971              	.L50:
 972              		.loc 1 669 0
 973 0046 A97A     		ldrb	r1, [r5, #10]	@ zero_extendqisi2
 974 0048 8C42     		cmp	r4, r1
 975 004a F9D3     		bcc	.L61
 976              		.loc 1 669 0 is_stmt 0 discriminator 1
 977 004c EB7A     		ldrb	r3, [r5, #11]	@ zero_extendqisi2
 978 004e A342     		cmp	r3, r4
 979 0050 C1EB0402 		rsb	r2, r1, r4
 980 0054 F4D3     		bcc	.L61
 981 0056 2869     		ldr	r0, [r5, #16]
 982 0058 2F7B     		ldrb	r7, [r5, #12]	@ zero_extendqisi2
 983 005a 815C     		ldrb	r1, [r0, r2]	@ zero_extendqisi2
 984 005c 07FB01F7 		mul	r7, r7, r1
 985              	.LVL101:
 986              		.loc 1 670 0 is_stmt 1 discriminator 1
 987 0060 002F     		cmp	r7, #0
 988 0062 EDD0     		beq	.L61
 989              		.loc 1 673 0
 990 0064 B8F1000F 		cmp	r8, #0
 991 0068 03D0     		beq	.L49
 992              		.loc 1 674 0
 993 006a 049B     		ldr	r3, [sp, #16]
 994 006c ABB1     		cbz	r3, .L62
 995              		.loc 1 678 0
 996 006e 0022     		movs	r2, #0
 997 0070 0492     		str	r2, [sp, #16]
 998              	.L49:
 999              	.LVL102:
 1000              		.loc 1 682 0
 1001 0072 039A     		ldr	r2, [sp, #12]
 1002 0074 5846     		mov	r0, fp
 1003 0076 8DE80404 		stmia	sp, {r2, sl}
 1004 007a 4946     		mov	r1, r9
 1005 007c 2246     		mov	r2, r4
 1006 007e 2B46     		mov	r3, r5
 1007              		.loc 1 683 0
ARM GAS  /tmp/cczWKf9x.s 			page 19


 1008 0080 07EB0B04 		add	r4, r7, fp
 1009              		.loc 1 682 0
 1010 0084 FFF7FEFF 		bl	gdispFillChar
 1011              	.LVL103:
 1012              		.loc 1 683 0
 1013 0088 0FFA84FB 		sxth	fp, r4
 1014              	.LVL104:
 1015              		.loc 1 666 0
 1016 008c 16F8014F 		ldrb	r4, [r6, #1]!	@ zero_extendqisi2
 1017              	.LVL105:
 1018 0090 002C     		cmp	r4, #0
 1019 0092 D8D1     		bne	.L50
 1020              	.LVL106:
 1021              	.L45:
 1022              		.loc 1 685 0
 1023 0094 09B0     		add	sp, sp, #36
 1024 0096 BDE8F08F 		pop	{r4, r5, r6, r7, r8, r9, sl, fp, pc}
 1025              	.LVL107:
 1026              	.L62:
 1027              		.loc 1 675 0
 1028 009a 5846     		mov	r0, fp
 1029 009c CDF800A0 		str	sl, [sp, #0]
 1030 00a0 4946     		mov	r1, r9
 1031 00a2 069A     		ldr	r2, [sp, #24]
 1032 00a4 079B     		ldr	r3, [sp, #28]
 1033 00a6 FFF7FEFF 		bl	gdispFillArea
 1034              	.LVL108:
 1035              		.loc 1 676 0
 1036 00aa 0598     		ldr	r0, [sp, #20]
 1037 00ac 8344     		add	fp, r0, fp
 1038 00ae 0FFA8BFB 		sxth	fp, fp
 1039              	.LVL109:
 1040 00b2 DEE7     		b	.L49
 1041              		.cfi_endproc
 1042              	.LFE132:
 1043              		.size	gdispFillString, .-gdispFillString
 1044 00b4 AFF30080 		.section	.text.gdispGetFontMetric,"ax",%progbits
 1044      AFF30080 
 1044      AFF30080 
 1045              		.align	2
 1046              		.p2align 4,,15
 1047              		.global	gdispGetFontMetric
 1048              		.thumb
 1049              		.thumb_func
 1050              		.type	gdispGetFontMetric, %function
 1051              	gdispGetFontMetric:
 1052              	.LFB135:
 1053              		.loc 1 941 0
 1054              		.cfi_startproc
 1055              		@ args = 0, pretend = 0, frame = 0
 1056              		@ frame_needed = 0, uses_anonymous_args = 0
 1057              		@ link register save eliminated.
 1058              	.LVL110:
 1059              		.loc 1 943 0
 1060 0000 0529     		cmp	r1, #5
 1061 0002 0AD8     		bhi	.L72
 1062 0004 DFE801F0 		tbb	[pc, r1]
ARM GAS  /tmp/cczWKf9x.s 			page 20


 1063              	.L71:
 1064 0008 0C       		.byte	(.L65-.L71)/2
 1065 0009 12       		.byte	(.L66-.L71)/2
 1066 000a 18       		.byte	(.L67-.L71)/2
 1067 000b 1E       		.byte	(.L68-.L71)/2
 1068 000c 24       		.byte	(.L69-.L71)/2
 1069 000d 03       		.byte	(.L70-.L71)/2
 1070              		.align	1
 1071              	.L70:
 1072              		.loc 1 949 0
 1073 000e 037B     		ldrb	r3, [r0, #12]	@ zero_extendqisi2
 1074 0010 407A     		ldrb	r0, [r0, #9]	@ zero_extendqisi2
 1075              	.LVL111:
 1076 0012 00FB03F3 		mul	r3, r0, r3
 1077              		.loc 1 952 0
 1078 0016 18B2     		sxth	r0, r3
 1079 0018 7047     		bx	lr
 1080              	.LVL112:
 1081              	.L72:
 1082              		.loc 1 951 0
 1083 001a 0023     		movs	r3, #0
 1084              		.loc 1 952 0
 1085 001c 18B2     		sxth	r0, r3
 1086              	.LVL113:
 1087 001e 7047     		bx	lr
 1088              	.LVL114:
 1089              	.L65:
 1090              		.loc 1 944 0
 1091 0020 417B     		ldrb	r1, [r0, #13]	@ zero_extendqisi2
 1092              	.LVL115:
 1093 0022 0279     		ldrb	r2, [r0, #4]	@ zero_extendqisi2
 1094 0024 02FB01F3 		mul	r3, r2, r1
 1095              		.loc 1 952 0
 1096 0028 18B2     		sxth	r0, r3
 1097              	.LVL116:
 1098 002a 7047     		bx	lr
 1099              	.LVL117:
 1100              	.L66:
 1101              		.loc 1 945 0
 1102 002c 437B     		ldrb	r3, [r0, #13]	@ zero_extendqisi2
 1103 002e C079     		ldrb	r0, [r0, #7]	@ zero_extendqisi2
 1104              	.LVL118:
 1105 0030 00FB03F3 		mul	r3, r0, r3
 1106              		.loc 1 952 0
 1107 0034 18B2     		sxth	r0, r3
 1108 0036 7047     		bx	lr
 1109              	.LVL119:
 1110              	.L67:
 1111              		.loc 1 946 0
 1112 0038 417B     		ldrb	r1, [r0, #13]	@ zero_extendqisi2
 1113              	.LVL120:
 1114 003a 8279     		ldrb	r2, [r0, #6]	@ zero_extendqisi2
 1115 003c 02FB01F3 		mul	r3, r2, r1
 1116              		.loc 1 952 0
 1117 0040 18B2     		sxth	r0, r3
 1118              	.LVL121:
 1119 0042 7047     		bx	lr
ARM GAS  /tmp/cczWKf9x.s 			page 21


 1120              	.LVL122:
 1121              	.L68:
 1122              		.loc 1 947 0
 1123 0044 037B     		ldrb	r3, [r0, #12]	@ zero_extendqisi2
 1124 0046 4079     		ldrb	r0, [r0, #5]	@ zero_extendqisi2
 1125              	.LVL123:
 1126 0048 00FB03F3 		mul	r3, r0, r3
 1127              		.loc 1 952 0
 1128 004c 18B2     		sxth	r0, r3
 1129 004e 7047     		bx	lr
 1130              	.LVL124:
 1131              	.L69:
 1132              		.loc 1 948 0
 1133 0050 017B     		ldrb	r1, [r0, #12]	@ zero_extendqisi2
 1134              	.LVL125:
 1135 0052 027A     		ldrb	r2, [r0, #8]	@ zero_extendqisi2
 1136 0054 02FB01F3 		mul	r3, r2, r1
 1137              		.loc 1 952 0
 1138 0058 18B2     		sxth	r0, r3
 1139              	.LVL126:
 1140 005a 7047     		bx	lr
 1141              		.cfi_endproc
 1142              	.LFE135:
 1143              		.size	gdispGetFontMetric, .-gdispGetFontMetric
 1144 005c AFF30080 		.section	.text.gdispGetCharWidth,"ax",%progbits
 1145              		.align	2
 1146              		.p2align 4,,15
 1147              		.global	gdispGetCharWidth
 1148              		.thumb
 1149              		.thumb_func
 1150              		.type	gdispGetCharWidth, %function
 1151              	gdispGetCharWidth:
 1152              	.LFB136:
 1153              		.loc 1 956 0
 1154              		.cfi_startproc
 1155              		@ args = 0, pretend = 0, frame = 0
 1156              		@ frame_needed = 0, uses_anonymous_args = 0
 1157              		@ link register save eliminated.
 1158              	.LVL127:
 1159              		.loc 1 958 0
 1160 0000 8B7A     		ldrb	r3, [r1, #10]	@ zero_extendqisi2
 1161 0002 8342     		cmp	r3, r0
 1162 0004 0AD8     		bhi	.L76
 1163              		.loc 1 958 0 is_stmt 0 discriminator 1
 1164 0006 CA7A     		ldrb	r2, [r1, #11]	@ zero_extendqisi2
 1165 0008 8242     		cmp	r2, r0
 1166 000a 07D3     		bcc	.L76
 1167 000c C01A     		subs	r0, r0, r3
 1168              	.LVL128:
 1169 000e 0B69     		ldr	r3, [r1, #16]
 1170 0010 097B     		ldrb	r1, [r1, #12]	@ zero_extendqisi2
 1171              	.LVL129:
 1172 0012 1A5C     		ldrb	r2, [r3, r0]	@ zero_extendqisi2
 1173 0014 02FB01F0 		mul	r0, r2, r1
 1174              		.loc 1 959 0 is_stmt 1 discriminator 1
 1175 0018 00B2     		sxth	r0, r0
 1176 001a 7047     		bx	lr
ARM GAS  /tmp/cczWKf9x.s 			page 22


 1177              	.LVL130:
 1178              	.L76:
 1179              		.loc 1 958 0
 1180 001c 0020     		movs	r0, #0
 1181              	.LVL131:
 1182              		.loc 1 959 0
 1183 001e 00B2     		sxth	r0, r0
 1184 0020 7047     		bx	lr
 1185              		.cfi_endproc
 1186              	.LFE136:
 1187              		.size	gdispGetCharWidth, .-gdispGetCharWidth
 1188 0022 00BFAFF3 		.section	.text.gdispGetStringWidth,"ax",%progbits
 1188      0080AFF3 
 1188      0080AFF3 
 1188      0080
 1189              		.align	2
 1190              		.p2align 4,,15
 1191              		.global	gdispGetStringWidth
 1192              		.thumb
 1193              		.thumb_func
 1194              		.type	gdispGetStringWidth, %function
 1195              	gdispGetStringWidth:
 1196              	.LFB137:
 1197              		.loc 1 963 0
 1198              		.cfi_startproc
 1199              		@ args = 0, pretend = 0, frame = 0
 1200              		@ frame_needed = 0, uses_anonymous_args = 0
 1201              		@ link register save eliminated.
 1202              	.LVL132:
 1203 0000 F0B4     		push	{r4, r5, r6, r7}
 1204              	.LCFI22:
 1205              		.cfi_def_cfa_offset 16
 1206              		.cfi_offset 4, -16
 1207              		.cfi_offset 5, -12
 1208              		.cfi_offset 6, -8
 1209              		.cfi_offset 7, -4
 1210              		.loc 1 971 0
 1211 0002 91F80CC0 		ldrb	ip, [r1, #12]	@ zero_extendqisi2
 1212 0006 4E79     		ldrb	r6, [r1, #5]	@ zero_extendqisi2
 1213              		.loc 1 963 0
 1214 0008 0138     		subs	r0, r0, #1
 1215              	.LVL133:
 1216              		.loc 1 969 0
 1217 000a 0127     		movs	r7, #1
 1218              		.loc 1 971 0
 1219 000c 06FB0CF6 		mul	r6, r6, ip
 1220              	.LVL134:
 1221              		.loc 1 970 0
 1222 0010 0024     		movs	r4, #0
 1223              	.LVL135:
 1224              	.L91:
 1225              		.loc 1 972 0 discriminator 1
 1226 0012 10F8013F 		ldrb	r3, [r0, #1]!	@ zero_extendqisi2
 1227              	.LVL136:
 1228 0016 BBB1     		cbz	r3, .L92
 1229              	.LVL137:
 1230              	.L81:
ARM GAS  /tmp/cczWKf9x.s 			page 23


 1231              		.loc 1 975 0
 1232 0018 8A7A     		ldrb	r2, [r1, #10]	@ zero_extendqisi2
 1233 001a 9342     		cmp	r3, r2
 1234 001c F9D3     		bcc	.L91
 1235              		.loc 1 975 0 is_stmt 0 discriminator 1
 1236 001e CD7A     		ldrb	r5, [r1, #11]	@ zero_extendqisi2
 1237 0020 9D42     		cmp	r5, r3
 1238 0022 C2EB0302 		rsb	r2, r2, r3
 1239 0026 F4D3     		bcc	.L91
 1240 0028 0B69     		ldr	r3, [r1, #16]
 1241 002a 9A5C     		ldrb	r2, [r3, r2]	@ zero_extendqisi2
 1242 002c 02FB0CF3 		mul	r3, r2, ip
 1243              	.LVL138:
 1244              		.loc 1 976 0 is_stmt 1 discriminator 1
 1245 0030 002B     		cmp	r3, #0
 1246 0032 EED0     		beq	.L91
 1247              		.loc 1 979 0
 1248 0034 16B1     		cbz	r6, .L80
 1249              		.loc 1 981 0
 1250 0036 3219     		adds	r2, r6, r4
 1251              		.loc 1 980 0
 1252 0038 4FB9     		cbnz	r7, .L82
 1253              		.loc 1 981 0
 1254 003a 94B2     		uxth	r4, r2
 1255              	.LVL139:
 1256              	.L80:
 1257              		.loc 1 987 0
 1258 003c 1C19     		adds	r4, r3, r4
 1259              	.LVL140:
 1260              		.loc 1 972 0
 1261 003e 10F8013F 		ldrb	r3, [r0, #1]!	@ zero_extendqisi2
 1262              	.LVL141:
 1263              		.loc 1 987 0
 1264 0042 A4B2     		uxth	r4, r4
 1265              	.LVL142:
 1266              		.loc 1 972 0
 1267 0044 002B     		cmp	r3, #0
 1268 0046 E7D1     		bne	.L81
 1269              	.LVL143:
 1270              	.L92:
 1271              		.loc 1 990 0
 1272 0048 20B2     		sxth	r0, r4
 1273 004a F0BC     		pop	{r4, r5, r6, r7}
 1274 004c 7047     		bx	lr
 1275              	.LVL144:
 1276              	.L82:
 1277              		.loc 1 983 0
 1278 004e 0027     		movs	r7, #0
 1279              	.LVL145:
 1280 0050 F4E7     		b	.L80
 1281              		.cfi_endproc
 1282              	.LFE137:
 1283              		.size	gdispGetStringWidth, .-gdispGetStringWidth
 1284 0052 00BFAFF3 		.section	.text.gdispFillStringBox,"ax",%progbits
 1284      0080AFF3 
 1284      0080AFF3 
 1284      0080
ARM GAS  /tmp/cczWKf9x.s 			page 24


 1285              		.align	2
 1286              		.p2align 4,,15
 1287              		.global	gdispFillStringBox
 1288              		.thumb
 1289              		.thumb_func
 1290              		.type	gdispFillStringBox, %function
 1291              	gdispFillStringBox:
 1292              	.LFB134:
 1293              		.loc 1 809 0
 1294              		.cfi_startproc
 1295              		@ args = 20, pretend = 0, frame = 40
 1296              		@ frame_needed = 0, uses_anonymous_args = 0
 1297              	.LVL146:
 1298 0000 2DE9F04F 		push	{r4, r5, r6, r7, r8, r9, sl, fp, lr}
 1299              	.LCFI23:
 1300              		.cfi_def_cfa_offset 36
 1301              		.cfi_offset 4, -36
 1302              		.cfi_offset 5, -32
 1303              		.cfi_offset 6, -28
 1304              		.cfi_offset 7, -24
 1305              		.cfi_offset 8, -20
 1306              		.cfi_offset 9, -16
 1307              		.cfi_offset 10, -12
 1308              		.cfi_offset 11, -8
 1309              		.cfi_offset 14, -4
 1310 0004 8DB0     		sub	sp, sp, #52
 1311              	.LCFI24:
 1312              		.cfi_def_cfa_offset 88
 1313              		.loc 1 816 0
 1314 0006 DFF8F083 		ldr	r8, .L196
 1315              		.loc 1 809 0
 1316 000a 179D     		ldr	r5, [sp, #92]
 1317 000c BDF86040 		ldrh	r4, [sp, #96]
 1318              		.loc 1 818 0
 1319 0010 2F79     		ldrb	r7, [r5, #4]	@ zero_extendqisi2
 1320 0012 6E7B     		ldrb	r6, [r5, #13]	@ zero_extendqisi2
 1321              		.loc 1 809 0
 1322 0014 0894     		str	r4, [sp, #32]
 1323              		.loc 1 818 0
 1324 0016 07FB06F6 		mul	r6, r7, r6
 1325              		.loc 1 809 0
 1326 001a BDF86440 		ldrh	r4, [sp, #100]
 1327 001e 0993     		str	r3, [sp, #36]
 1328              		.loc 1 818 0
 1329 0020 B7B2     		uxth	r7, r6
 1330              		.loc 1 822 0
 1331 0022 3BB2     		sxth	r3, r7
 1332              	.LVL147:
 1333              		.loc 1 809 0
 1334 0024 0694     		str	r4, [sp, #24]
 1335              		.loc 1 818 0
 1336 0026 0B97     		str	r7, [sp, #44]
 1337              		.loc 1 816 0
 1338 0028 169C     		ldr	r4, [sp, #88]
 1339              		.loc 1 822 0
 1340 002a 099F     		ldr	r7, [sp, #36]
 1341              		.loc 1 809 0
ARM GAS  /tmp/cczWKf9x.s 			page 25


 1342 002c 9DF86890 		ldrb	r9, [sp, #104]	@ zero_extendqisi2
 1343              		.loc 1 819 0
 1344 0030 95F805B0 		ldrb	fp, [r5, #5]	@ zero_extendqisi2
 1345 0034 95F80CC0 		ldrb	ip, [r5, #12]	@ zero_extendqisi2
 1346              		.loc 1 809 0
 1347 0038 0591     		str	r1, [sp, #20]
 1348              		.loc 1 816 0
 1349 003a 002C     		cmp	r4, #0
 1350 003c 18BF     		it	ne
 1351 003e A046     		movne	r8, r4
 1352              	.LVL148:
 1353              		.loc 1 822 0
 1354 0040 BB42     		cmp	r3, r7
 1355              		.loc 1 809 0
 1356 0042 8246     		mov	sl, r0
 1357 0044 0792     		str	r2, [sp, #28]
 1358              		.loc 1 822 0
 1359 0046 00F39D80 		bgt	.L93
 1360              		.loc 1 825 0
 1361 004a FF1A     		subs	r7, r7, r3
 1362 004c 7B1C     		adds	r3, r7, #1
 1363 004e 03EBD374 		add	r4, r3, r3, lsr #31
 1364              	.LVL149:
 1365 0052 C4F34F04 		ubfx	r4, r4, #1, #16
 1366              	.LVL150:
 1367              		.loc 1 826 0
 1368 0056 27B2     		sxth	r7, r4
 1369 0058 002F     		cmp	r7, #0
 1370 005a 10DD     		ble	.L97
 1371              		.loc 1 827 0
 1372 005c 069B     		ldr	r3, [sp, #24]
 1373 005e CDF810C0 		str	ip, [sp, #16]
 1374 0062 0093     		str	r3, [sp, #0]
 1375 0064 3B46     		mov	r3, r7
 1376 0066 FFF7FEFF 		bl	gdispFillArea
 1377              	.LVL151:
 1378              		.loc 1 828 0
 1379 006a 0598     		ldr	r0, [sp, #20]
 1380              		.loc 1 829 0
 1381 006c 099A     		ldr	r2, [sp, #36]
 1382 006e DDF810C0 		ldr	ip, [sp, #16]
 1383              		.loc 1 828 0
 1384 0072 2118     		adds	r1, r4, r0
 1385              		.loc 1 829 0
 1386 0074 141B     		subs	r4, r2, r4
 1387              	.LVL152:
 1388              		.loc 1 828 0
 1389 0076 0FB2     		sxth	r7, r1
 1390              		.loc 1 829 0
 1391 0078 23B2     		sxth	r3, r4
 1392              		.loc 1 828 0
 1393 007a 0597     		str	r7, [sp, #20]
 1394              	.LVL153:
 1395              		.loc 1 829 0
 1396 007c 0993     		str	r3, [sp, #36]
 1397              	.LVL154:
 1398              	.L97:
ARM GAS  /tmp/cczWKf9x.s 			page 26


 1399              		.loc 1 833 0
 1400 007e 0998     		ldr	r0, [sp, #36]
 1401 0080 81B2     		uxth	r1, r0
 1402 0082 8E1B     		subs	r6, r1, r6
 1403 0084 B4B2     		uxth	r4, r6
 1404              	.LVL155:
 1405              		.loc 1 834 0
 1406 0086 23B2     		sxth	r3, r4
 1407 0088 002B     		cmp	r3, #0
 1408 008a 0FDD     		ble	.L98
 1409              		.loc 1 835 0
 1410 008c 059A     		ldr	r2, [sp, #20]
 1411 008e 0698     		ldr	r0, [sp, #24]
 1412 0090 CDF810C0 		str	ip, [sp, #16]
 1413 0094 8F18     		adds	r7, r1, r2
 1414 0096 391B     		subs	r1, r7, r4
 1415 0098 0090     		str	r0, [sp, #0]
 1416 009a 09B2     		sxth	r1, r1
 1417 009c 5046     		mov	r0, sl
 1418 009e 079A     		ldr	r2, [sp, #28]
 1419 00a0 FFF7FEFF 		bl	gdispFillArea
 1420              	.LVL156:
 1421 00a4 0B9B     		ldr	r3, [sp, #44]
 1422 00a6 DDF810C0 		ldr	ip, [sp, #16]
 1423 00aa 0993     		str	r3, [sp, #36]
 1424              	.LVL157:
 1425              	.L98:
 1426              		.loc 1 819 0
 1427 00ac 0BFB0CFB 		mul	fp, fp, ip
 1428              		.loc 1 840 0
 1429 00b0 B9F1010F 		cmp	r9, #1
 1430              		.loc 1 819 0
 1431 00b4 CDF82CB0 		str	fp, [sp, #44]
 1432 00b8 1FFA8BFB 		uxth	fp, fp
 1433              	.LVL158:
 1434              		.loc 1 840 0
 1435 00bc 65D0     		beq	.L100
 1436 00be B9F1020F 		cmp	r9, #2
 1437 00c2 00F0B180 		beq	.L189
 1438              		.loc 1 902 0
 1439 00c6 0AF10106 		add	r6, sl, #1
 1440              	.LVL159:
 1441 00ca B6B2     		uxth	r6, r6
 1442              	.LVL160:
 1443 00cc 37B2     		sxth	r7, r6
 1444              	.LVL161:
 1445              	.L105:
 1446              		.loc 1 907 0
 1447 00ce 5745     		cmp	r7, sl
 1448 00d0 00F39C80 		bgt	.L190
 1449              	.LVL162:
 1450              	.L117:
 1451 00d4 0799     		ldr	r1, [sp, #28]
 1452              		.loc 1 809 0 discriminator 1
 1453 00d6 0123     		movs	r3, #1
 1454              		.loc 1 921 0 discriminator 1
 1455 00d8 0FFA8BF4 		sxth	r4, fp
ARM GAS  /tmp/cczWKf9x.s 			page 27


 1456 00dc 8A44     		add	sl, r1, sl
 1457              		.loc 1 809 0 discriminator 1
 1458 00de 08F1FF38 		add	r8, r8, #-1
 1459 00e2 0793     		str	r3, [sp, #28]
 1460              		.loc 1 921 0 discriminator 1
 1461 00e4 0A94     		str	r4, [sp, #40]
 1462 00e6 3846     		mov	r0, r7
 1463              	.L173:
 1464              	.LVL163:
 1465              		.loc 1 912 0 discriminator 1
 1466 00e8 18F8014F 		ldrb	r4, [r8, #1]!	@ zero_extendqisi2
 1467 00ec 002C     		cmp	r4, #0
 1468 00ee 3AD0     		beq	.L121
 1469              	.LVL164:
 1470              	.L122:
 1471              		.loc 1 915 0
 1472 00f0 AF7A     		ldrb	r7, [r5, #10]	@ zero_extendqisi2
 1473 00f2 BC42     		cmp	r4, r7
 1474 00f4 F8D3     		bcc	.L173
 1475              		.loc 1 915 0 is_stmt 0 discriminator 1
 1476 00f6 EA7A     		ldrb	r2, [r5, #11]	@ zero_extendqisi2
 1477 00f8 A242     		cmp	r2, r4
 1478 00fa F5D3     		bcc	.L173
 1479 00fc E11B     		subs	r1, r4, r7
 1480 00fe 2B69     		ldr	r3, [r5, #16]
 1481 0100 95F80C90 		ldrb	r9, [r5, #12]	@ zero_extendqisi2
 1482 0104 5F5C     		ldrb	r7, [r3, r1]	@ zero_extendqisi2
 1483 0106 09FB07F9 		mul	r9, r9, r7
 1484 010a 1FFA89F7 		uxth	r7, r9
 1485              	.LVL165:
 1486              		.loc 1 916 0 is_stmt 1 discriminator 1
 1487 010e 002F     		cmp	r7, #0
 1488 0110 EAD0     		beq	.L173
 1489              		.loc 1 919 0
 1490 0112 BBF1000F 		cmp	fp, #0
 1491 0116 11D0     		beq	.L120
 1492              		.loc 1 920 0
 1493 0118 079A     		ldr	r2, [sp, #28]
 1494 011a 002A     		cmp	r2, #0
 1495 011c 40F08180 		bne	.L127
 1496              		.loc 1 921 0
 1497 0120 0A9A     		ldr	r2, [sp, #40]
 1498 0122 8318     		adds	r3, r0, r2
 1499 0124 5345     		cmp	r3, sl
 1500 0126 1EDC     		bgt	.L121
 1501              		.loc 1 922 0
 1502 0128 0699     		ldr	r1, [sp, #24]
 1503 012a 099B     		ldr	r3, [sp, #36]
 1504 012c 0091     		str	r1, [sp, #0]
 1505 012e 0599     		ldr	r1, [sp, #20]
 1506 0130 FFF7FEFF 		bl	gdispFillArea
 1507              	.LVL166:
 1508              		.loc 1 923 0
 1509 0134 0B98     		ldr	r0, [sp, #44]
 1510 0136 8619     		adds	r6, r0, r6
 1511 0138 B6B2     		uxth	r6, r6
 1512              	.LVL167:
ARM GAS  /tmp/cczWKf9x.s 			page 28


 1513 013a 30B2     		sxth	r0, r6
 1514              	.LVL168:
 1515              	.L120:
 1516              		.loc 1 929 0
 1517 013c 00FA87FC 		sxtah	ip, r0, r7
 1518 0140 D445     		cmp	ip, sl
 1519 0142 10DC     		bgt	.L121
 1520              		.loc 1 930 0
 1521 0144 069A     		ldr	r2, [sp, #24]
 1522 0146 089F     		ldr	r7, [sp, #32]
 1523 0148 0192     		str	r2, [sp, #4]
 1524 014a 0097     		str	r7, [sp, #0]
 1525 014c 2246     		mov	r2, r4
 1526 014e 0599     		ldr	r1, [sp, #20]
 1527              		.loc 1 931 0
 1528 0150 09EB0604 		add	r4, r9, r6
 1529              	.LVL169:
 1530              		.loc 1 930 0
 1531 0154 2B46     		mov	r3, r5
 1532 0156 FFF7FEFF 		bl	gdispFillChar
 1533              	.LVL170:
 1534              		.loc 1 931 0
 1535 015a A6B2     		uxth	r6, r4
 1536              	.LVL171:
 1537              		.loc 1 912 0
 1538 015c 18F8014F 		ldrb	r4, [r8, #1]!	@ zero_extendqisi2
 1539              	.LVL172:
 1540 0160 30B2     		sxth	r0, r6
 1541 0162 002C     		cmp	r4, #0
 1542 0164 C4D1     		bne	.L122
 1543              	.LVL173:
 1544              	.L121:
 1545              		.loc 1 935 0
 1546 0166 5045     		cmp	r0, sl
 1547 0168 0746     		mov	r7, r0
 1548              	.LVL174:
 1549 016a 0BDA     		bge	.L93
 1550              		.loc 1 936 0
 1551 016c C6EB0A03 		rsb	r3, r6, sl
 1552 0170 069C     		ldr	r4, [sp, #24]
 1553 0172 0599     		ldr	r1, [sp, #20]
 1554 0174 1694     		str	r4, [sp, #88]
 1555 0176 1AB2     		sxth	r2, r3
 1556 0178 099B     		ldr	r3, [sp, #36]
 1557              		.loc 1 937 0
 1558 017a 0DB0     		add	sp, sp, #52
 1559 017c BDE8F04F 		pop	{r4, r5, r6, r7, r8, r9, sl, fp, lr}
 1560              		.loc 1 936 0
 1561 0180 FFF7FEBF 		b	gdispFillArea
 1562              	.LVL175:
 1563              	.L93:
 1564              		.loc 1 937 0
 1565 0184 0DB0     		add	sp, sp, #52
 1566 0186 BDE8F08F 		pop	{r4, r5, r6, r7, r8, r9, sl, fp, pc}
 1567              	.LVL176:
 1568              	.L100:
 1569              		.loc 1 843 0
ARM GAS  /tmp/cczWKf9x.s 			page 29


 1570 018a 2946     		mov	r1, r5
 1571 018c 4046     		mov	r0, r8
 1572 018e FFF7FEFF 		bl	gdispGetStringWidth
 1573              	.LVL177:
 1574              		.loc 1 844 0
 1575 0192 0799     		ldr	r1, [sp, #28]
 1576 0194 8142     		cmp	r1, r0
 1577 0196 80F2EC80 		bge	.L191
 1578              		.loc 1 848 0
 1579 019a 079A     		ldr	r2, [sp, #28]
 1580 019c 801A     		subs	r0, r0, r2
 1581              	.LVL178:
 1582 019e 00EBD077 		add	r7, r0, r0, lsr #31
 1583 01a2 4FEA670E 		asr	lr, r7, #1
 1584              	.LVL179:
 1585 01a6 4346     		mov	r3, r8
 1586              		.loc 1 850 0
 1587 01a8 4F46     		mov	r7, r9
 1588              		.loc 1 849 0
 1589 01aa 0021     		movs	r1, #0
 1590 01ac 0FFA8EF4 		sxth	r4, lr
 1591              	.LVL180:
 1592              	.L172:
 1593 01b0 9846     		mov	r8, r3
 1594              	.LVL181:
 1595              		.loc 1 851 0 discriminator 1
 1596 01b2 13F8012B 		ldrb	r2, [r3], #1	@ zero_extendqisi2
 1597              	.LVL182:
 1598 01b6 02B3     		cbz	r2, .L109
 1599              		.loc 1 854 0
 1600 01b8 A87A     		ldrb	r0, [r5, #10]	@ zero_extendqisi2
 1601 01ba 8242     		cmp	r2, r0
 1602              		.loc 1 853 0
 1603 01bc 9846     		mov	r8, r3
 1604              	.LVL183:
 1605              		.loc 1 854 0
 1606 01be F7D3     		bcc	.L172
 1607              		.loc 1 854 0 is_stmt 0 discriminator 1
 1608 01c0 EE7A     		ldrb	r6, [r5, #11]	@ zero_extendqisi2
 1609 01c2 9642     		cmp	r6, r2
 1610 01c4 C0EB0200 		rsb	r0, r0, r2
 1611 01c8 F2D3     		bcc	.L172
 1612 01ca 2A69     		ldr	r2, [r5, #16]
 1613 01cc 2E7B     		ldrb	r6, [r5, #12]	@ zero_extendqisi2
 1614 01ce 125C     		ldrb	r2, [r2, r0]	@ zero_extendqisi2
 1615 01d0 06FB02F2 		mul	r2, r6, r2
 1616              	.LVL184:
 1617              		.loc 1 855 0 is_stmt 1 discriminator 1
 1618 01d4 002A     		cmp	r2, #0
 1619 01d6 EBD0     		beq	.L172
 1620              		.loc 1 858 0
 1621 01d8 BBF1000F 		cmp	fp, #0
 1622 01dc 08D0     		beq	.L108
 1623              		.loc 1 860 0
 1624 01de 0B98     		ldr	r0, [sp, #44]
 1625 01e0 4618     		adds	r6, r0, r1
 1626              		.loc 1 859 0
ARM GAS  /tmp/cczWKf9x.s 			page 30


 1627 01e2 002F     		cmp	r7, #0
 1628 01e4 40F0D280 		bne	.L125
 1629              		.loc 1 860 0
 1630 01e8 B1B2     		uxth	r1, r6
 1631              	.LVL185:
 1632              		.loc 1 861 0
 1633 01ea 08B2     		sxth	r0, r1
 1634 01ec 8442     		cmp	r4, r0
 1635 01ee 04DB     		blt	.L109
 1636              	.LVL186:
 1637              	.L108:
 1638              		.loc 1 867 0
 1639 01f0 5118     		adds	r1, r2, r1
 1640              	.LVL187:
 1641 01f2 89B2     		uxth	r1, r1
 1642              	.LVL188:
 1643              		.loc 1 868 0
 1644 01f4 0AB2     		sxth	r2, r1
 1645              	.LVL189:
 1646 01f6 9442     		cmp	r4, r2
 1647 01f8 DADA     		bge	.L172
 1648              	.LVL190:
 1649              	.L109:
 1650              		.loc 1 870 0
 1651 01fa 0EEB0A0C 		add	ip, lr, sl
 1652 01fe C1EB0C03 		rsb	r3, r1, ip
 1653              	.LVL191:
 1654 0202 9EB2     		uxth	r6, r3
 1655              	.LVL192:
 1656 0204 37B2     		sxth	r7, r6
 1657              	.LVL193:
 1658              		.loc 1 907 0
 1659 0206 5745     		cmp	r7, sl
 1660 0208 7FF764AF 		ble	.L117
 1661              	.LVL194:
 1662              	.L190:
 1663              		.loc 1 908 0
 1664 020c 0698     		ldr	r0, [sp, #24]
 1665 020e 0599     		ldr	r1, [sp, #20]
 1666 0210 0090     		str	r0, [sp, #0]
 1667 0212 CAEB0602 		rsb	r2, sl, r6
 1668 0216 5046     		mov	r0, sl
 1669 0218 12B2     		sxth	r2, r2
 1670 021a 099B     		ldr	r3, [sp, #36]
 1671 021c FFF7FEFF 		bl	gdispFillArea
 1672              	.LVL195:
 1673 0220 58E7     		b	.L117
 1674              	.LVL196:
 1675              	.L127:
 1676              		.loc 1 925 0
 1677 0222 0021     		movs	r1, #0
 1678 0224 0791     		str	r1, [sp, #28]
 1679 0226 89E7     		b	.L120
 1680              	.LVL197:
 1681              	.L189:
 1682              		.loc 1 875 0 discriminator 1
 1683 0228 98F80040 		ldrb	r4, [r8, #0]	@ zero_extendqisi2
ARM GAS  /tmp/cczWKf9x.s 			page 31


 1684              		.loc 1 809 0 discriminator 1
 1685 022c 08F10102 		add	r2, r8, #1
 1686              		.loc 1 875 0 discriminator 1
 1687 0230 002C     		cmp	r4, #0
 1688 0232 00F0D580 		beq	.L192
 1689              	.L111:
 1690              		.loc 1 875 0 is_stmt 0 discriminator 2
 1691 0236 1046     		mov	r0, r2
 1692              	.LVL198:
 1693 0238 0132     		adds	r2, r2, #1
 1694 023a 0778     		ldrb	r7, [r0, #0]	@ zero_extendqisi2
 1695 023c 002F     		cmp	r7, #0
 1696 023e FAD1     		bne	.L111
 1697              	.LVL199:
 1698              	.L103:
 1699              		.loc 1 876 0 is_stmt 1
 1700 0240 079B     		ldr	r3, [sp, #28]
 1701 0242 AAF10201 		sub	r1, sl, #2
 1702 0246 CE18     		adds	r6, r1, r3
 1703              	.LVL200:
 1704              		.loc 1 878 0
 1705 0248 431E     		subs	r3, r0, #1
 1706 024a 9845     		cmp	r8, r3
 1707              		.loc 1 876 0
 1708 024c B6B2     		uxth	r6, r6
 1709              	.LVL201:
 1710              		.loc 1 878 0
 1711 024e 00F29980 		bhi	.L177
 1712              		.loc 1 880 0
 1713 0252 1A46     		mov	r2, r3
 1714              		.loc 1 809 0
 1715 0254 08F1FF38 		add	r8, r8, #-1
 1716 0258 A97A     		ldrb	r1, [r5, #10]	@ zero_extendqisi2
 1717              		.loc 1 880 0
 1718 025a 12F80179 		ldrb	r7, [r2], #-1	@ zero_extendqisi2
 1719              	.LVL202:
 1720 025e C3EB0804 		rsb	r4, r3, r8
 1721 0262 E043     		mvns	r0, r4
 1722              		.loc 1 877 0
 1723 0264 4FF00109 		mov	r9, #1
 1724              		.loc 1 887 0
 1725 0268 0FFA8BF4 		sxth	r4, fp
 1726              		.loc 1 881 0
 1727 026c 8F42     		cmp	r7, r1
 1728              		.loc 1 887 0
 1729 026e 0A94     		str	r4, [sp, #40]
 1730 0270 00EA090C 		and	ip, r0, r9
 1731              		.loc 1 881 0
 1732 0274 17D3     		bcc	.L144
 1733 0276 E87A     		ldrb	r0, [r5, #11]	@ zero_extendqisi2
 1734 0278 B842     		cmp	r0, r7
 1735 027a 14D3     		bcc	.L144
 1736 027c 2869     		ldr	r0, [r5, #16]
 1737 027e 2C7B     		ldrb	r4, [r5, #12]	@ zero_extendqisi2
 1738 0280 7F1A     		subs	r7, r7, r1
 1739 0282 C75D     		ldrb	r7, [r0, r7]	@ zero_extendqisi2
 1740 0284 04FB07F4 		mul	r4, r4, r7
ARM GAS  /tmp/cczWKf9x.s 			page 32


 1741 0288 A0B2     		uxth	r0, r4
 1742              		.loc 1 882 0
 1743 028a 60B1     		cbz	r0, .L144
 1744              		.loc 1 894 0
 1745 028c 37B2     		sxth	r7, r6
 1746 028e 00B2     		sxth	r0, r0
 1747              		.loc 1 890 0
 1748 0290 BBF1000F 		cmp	fp, #0
 1749              		.loc 1 894 0
 1750 0294 C0EB0700 		rsb	r0, r0, r7
 1751              		.loc 1 890 0
 1752 0298 18BF     		it	ne
 1753 029a 4FF00009 		movne	r9, #0
 1754              	.LVL203:
 1755              		.loc 1 894 0
 1756 029e 5045     		cmp	r0, sl
 1757 02a0 71DB     		blt	.L113
 1758              		.loc 1 895 0
 1759 02a2 331B     		subs	r3, r6, r4
 1760              	.LVL204:
 1761 02a4 9EB2     		uxth	r6, r3
 1762              	.LVL205:
 1763              	.L144:
 1764              		.loc 1 878 0
 1765 02a6 4245     		cmp	r2, r8
 1766 02a8 1346     		mov	r3, r2
 1767 02aa 6BD0     		beq	.L177
 1768 02ac BCF1000F 		cmp	ip, #0
 1769 02b0 09D0     		beq	.L186
 1770              		.loc 1 880 0
 1771 02b2 12F80179 		ldrb	r7, [r2], #-1	@ zero_extendqisi2
 1772              	.LVL206:
 1773              		.loc 1 881 0
 1774 02b6 8F42     		cmp	r7, r1
 1775 02b8 02D3     		bcc	.L148
 1776 02ba EC7A     		ldrb	r4, [r5, #11]	@ zero_extendqisi2
 1777 02bc BC42     		cmp	r4, r7
 1778 02be 74D2     		bcs	.L193
 1779              	.LVL207:
 1780              	.L148:
 1781              		.loc 1 878 0
 1782 02c0 4245     		cmp	r2, r8
 1783 02c2 1346     		mov	r3, r2
 1784 02c4 5ED0     		beq	.L177
 1785              	.LVL208:
 1786              	.L186:
 1787 02c6 5846     		mov	r0, fp
 1788 02c8 36E0     		b	.L116
 1789              	.LVL209:
 1790              	.L195:
 1791              		.loc 1 887 0
 1792 02ca DDF828B0 		ldr	fp, [sp, #40]
 1793 02ce 37B2     		sxth	r7, r6
 1794 02d0 CBEB070B 		rsb	fp, fp, r7
 1795 02d4 D345     		cmp	fp, sl
 1796 02d6 66DB     		blt	.L188
 1797              		.loc 1 888 0
ARM GAS  /tmp/cczWKf9x.s 			page 33


 1798 02d8 0B9F     		ldr	r7, [sp, #44]
 1799 02da F61B     		subs	r6, r6, r7
 1800 02dc B6B2     		uxth	r6, r6
 1801              	.LVL210:
 1802              	.L115:
 1803              		.loc 1 894 0
 1804 02de 37B2     		sxth	r7, r6
 1805 02e0 24B2     		sxth	r4, r4
 1806 02e2 3C1B     		subs	r4, r7, r4
 1807 02e4 5445     		cmp	r4, sl
 1808 02e6 5EDB     		blt	.L188
 1809              		.loc 1 895 0
 1810 02e8 CCEB0603 		rsb	r3, ip, r6
 1811 02ec 9EB2     		uxth	r6, r3
 1812              	.LVL211:
 1813              	.L114:
 1814 02ee 1346     		mov	r3, r2
 1815 02f0 013A     		subs	r2, r2, #1
 1816              		.loc 1 880 0
 1817 02f2 93F800C0 		ldrb	ip, [r3, #0]	@ zero_extendqisi2
 1818              		.loc 1 881 0
 1819 02f6 8C45     		cmp	ip, r1
 1820 02f8 1BD3     		bcc	.L153
 1821 02fa EF7A     		ldrb	r7, [r5, #11]	@ zero_extendqisi2
 1822 02fc 6745     		cmp	r7, ip
 1823 02fe 18D3     		bcc	.L153
 1824 0300 2C69     		ldr	r4, [r5, #16]
 1825 0302 2F7B     		ldrb	r7, [r5, #12]	@ zero_extendqisi2
 1826 0304 C1EB0C0B 		rsb	fp, r1, ip
 1827 0308 14F80BC0 		ldrb	ip, [r4, fp]	@ zero_extendqisi2
 1828 030c 07FB0CFC 		mul	ip, r7, ip
 1829 0310 1FFA8CF4 		uxth	r4, ip
 1830              		.loc 1 882 0
 1831 0314 6CB1     		cbz	r4, .L153
 1832              		.loc 1 885 0
 1833 0316 20B1     		cbz	r0, .L154
 1834              		.loc 1 886 0
 1835 0318 B9F1000F 		cmp	r9, #0
 1836 031c 38D0     		beq	.L181
 1837              		.loc 1 890 0
 1838 031e 4FF00009 		mov	r9, #0
 1839              	.LVL212:
 1840              	.L154:
 1841              		.loc 1 894 0
 1842 0322 37B2     		sxth	r7, r6
 1843 0324 24B2     		sxth	r4, r4
 1844 0326 3C1B     		subs	r4, r7, r4
 1845 0328 5445     		cmp	r4, sl
 1846 032a 3CDB     		blt	.L188
 1847              		.loc 1 895 0
 1848 032c CCEB0603 		rsb	r3, ip, r6
 1849 0330 9EB2     		uxth	r6, r3
 1850              	.LVL213:
 1851              	.L153:
 1852              		.loc 1 878 0
 1853 0332 4245     		cmp	r2, r8
 1854 0334 1346     		mov	r3, r2
ARM GAS  /tmp/cczWKf9x.s 			page 34


 1855 0336 24D0     		beq	.L194
 1856              	.LVL214:
 1857              	.L116:
 1858 0338 1346     		mov	r3, r2
 1859 033a 013A     		subs	r2, r2, #1
 1860              		.loc 1 880 0
 1861 033c 93F800B0 		ldrb	fp, [r3, #0]	@ zero_extendqisi2
 1862              		.loc 1 881 0
 1863 0340 8B45     		cmp	fp, r1
 1864 0342 D4D3     		bcc	.L114
 1865              		.loc 1 881 0 is_stmt 0 discriminator 1
 1866 0344 EF7A     		ldrb	r7, [r5, #11]	@ zero_extendqisi2
 1867 0346 5F45     		cmp	r7, fp
 1868 0348 D1D3     		bcc	.L114
 1869 034a C1EB0B0C 		rsb	ip, r1, fp
 1870 034e 2C69     		ldr	r4, [r5, #16]
 1871 0350 2F7B     		ldrb	r7, [r5, #12]	@ zero_extendqisi2
 1872 0352 14F80CB0 		ldrb	fp, [r4, ip]	@ zero_extendqisi2
 1873 0356 07FB0BFC 		mul	ip, r7, fp
 1874 035a 1FFA8CF4 		uxth	r4, ip
 1875              	.LVL215:
 1876              		.loc 1 882 0 is_stmt 1 discriminator 1
 1877 035e 002C     		cmp	r4, #0
 1878 0360 C5D0     		beq	.L114
 1879              		.loc 1 885 0
 1880 0362 0028     		cmp	r0, #0
 1881 0364 BBD0     		beq	.L115
 1882              		.loc 1 886 0
 1883 0366 B9F1000F 		cmp	r9, #0
 1884 036a AED0     		beq	.L195
 1885              		.loc 1 890 0
 1886 036c 4FF00009 		mov	r9, #0
 1887              	.LVL216:
 1888 0370 B5E7     		b	.L115
 1889              	.LVL217:
 1890              	.L191:
 1891              		.loc 1 845 0
 1892 0372 0C1A     		subs	r4, r1, r0
 1893 0374 04EBD476 		add	r6, r4, r4, lsr #31
 1894              	.LVL218:
 1895 0378 0AEB6607 		add	r7, sl, r6, asr #1
 1896 037c BEB2     		uxth	r6, r7
 1897              	.LVL219:
 1898 037e 37B2     		sxth	r7, r6
 1899              	.LVL220:
 1900 0380 A5E6     		b	.L105
 1901              	.LVL221:
 1902              	.L194:
 1903 0382 8346     		mov	fp, r0
 1904              	.LVL222:
 1905              	.L177:
 1906 0384 37B2     		sxth	r7, r6
 1907              	.L113:
 1908              	.LVL223:
 1909              		.loc 1 897 0
 1910 0386 03F10108 		add	r8, r3, #1
 1911              		.loc 1 898 0
ARM GAS  /tmp/cczWKf9x.s 			page 35


 1912 038a A0E6     		b	.L105
 1913              	.LVL224:
 1914              	.L125:
 1915              		.loc 1 863 0
 1916 038c 0027     		movs	r7, #0
 1917              	.LVL225:
 1918 038e 2FE7     		b	.L108
 1919              	.LVL226:
 1920              	.L181:
 1921              		.loc 1 887 0
 1922 0390 DDF828B0 		ldr	fp, [sp, #40]
 1923 0394 37B2     		sxth	r7, r6
 1924 0396 CBEB070B 		rsb	fp, fp, r7
 1925 039a D345     		cmp	fp, sl
 1926 039c 03DB     		blt	.L188
 1927              		.loc 1 888 0
 1928 039e 0B9F     		ldr	r7, [sp, #44]
 1929 03a0 F61B     		subs	r6, r6, r7
 1930              	.LVL227:
 1931 03a2 B6B2     		uxth	r6, r6
 1932              	.LVL228:
 1933 03a4 BDE7     		b	.L154
 1934              	.LVL229:
 1935              	.L188:
 1936 03a6 8346     		mov	fp, r0
 1937 03a8 EDE7     		b	.L113
 1938              	.LVL230:
 1939              	.L193:
 1940              		.loc 1 881 0
 1941 03aa 7F1A     		subs	r7, r7, r1
 1942 03ac 2869     		ldr	r0, [r5, #16]
 1943 03ae 2C7B     		ldrb	r4, [r5, #12]	@ zero_extendqisi2
 1944 03b0 C75D     		ldrb	r7, [r0, r7]	@ zero_extendqisi2
 1945 03b2 04FB07FC 		mul	ip, r4, r7
 1946 03b6 1FFA8CF4 		uxth	r4, ip
 1947              		.loc 1 882 0
 1948 03ba 002C     		cmp	r4, #0
 1949 03bc 80D0     		beq	.L148
 1950              		.loc 1 885 0
 1951 03be BBF1000F 		cmp	fp, #0
 1952 03c2 04D0     		beq	.L149
 1953              		.loc 1 886 0
 1954 03c4 B9F1000F 		cmp	r9, #0
 1955 03c8 0CD0     		beq	.L179
 1956              		.loc 1 890 0
 1957 03ca 4FF00009 		mov	r9, #0
 1958              	.LVL231:
 1959              	.L149:
 1960              		.loc 1 894 0
 1961 03ce 37B2     		sxth	r7, r6
 1962 03d0 24B2     		sxth	r4, r4
 1963 03d2 381B     		subs	r0, r7, r4
 1964 03d4 5045     		cmp	r0, sl
 1965 03d6 D6DB     		blt	.L113
 1966              		.loc 1 895 0
 1967 03d8 CCEB0603 		rsb	r3, ip, r6
 1968              	.LVL232:
ARM GAS  /tmp/cczWKf9x.s 			page 36


 1969 03dc 9EB2     		uxth	r6, r3
 1970              	.LVL233:
 1971 03de 6FE7     		b	.L148
 1972              	.LVL234:
 1973              	.L192:
 1974              		.loc 1 875 0
 1975 03e0 4046     		mov	r0, r8
 1976 03e2 2DE7     		b	.L103
 1977              	.LVL235:
 1978              	.L179:
 1979              		.loc 1 887 0
 1980 03e4 0A98     		ldr	r0, [sp, #40]
 1981 03e6 37B2     		sxth	r7, r6
 1982 03e8 381A     		subs	r0, r7, r0
 1983 03ea 5045     		cmp	r0, sl
 1984 03ec CBDB     		blt	.L113
 1985              		.loc 1 888 0
 1986 03ee 0B9F     		ldr	r7, [sp, #44]
 1987 03f0 F61B     		subs	r6, r6, r7
 1988              	.LVL236:
 1989 03f2 B6B2     		uxth	r6, r6
 1990              	.LVL237:
 1991 03f4 EBE7     		b	.L149
 1992              	.L197:
 1993 03f6 00BF     		.align	2
 1994              	.L196:
 1995 03f8 00000000 		.word	.LC0
 1996              		.cfi_endproc
 1997              	.LFE134:
 1998              		.size	gdispFillStringBox, .-gdispFillStringBox
 1999 03fc AFF30080 		.section	.text.gdispDrawStringBox,"ax",%progbits
 2000              		.align	2
 2001              		.p2align 4,,15
 2002              		.global	gdispDrawStringBox
 2003              		.thumb
 2004              		.thumb_func
 2005              		.type	gdispDrawStringBox, %function
 2006              	gdispDrawStringBox:
 2007              	.LFB133:
 2008              		.loc 1 689 0
 2009              		.cfi_startproc
 2010              		@ args = 16, pretend = 0, frame = 32
 2011              		@ frame_needed = 0, uses_anonymous_args = 0
 2012              	.LVL238:
 2013 0000 2DE9F04F 		push	{r4, r5, r6, r7, r8, r9, sl, fp, lr}
 2014              	.LCFI25:
 2015              		.cfi_def_cfa_offset 36
 2016              		.cfi_offset 4, -36
 2017              		.cfi_offset 5, -32
 2018              		.cfi_offset 6, -28
 2019              		.cfi_offset 7, -24
 2020              		.cfi_offset 8, -20
 2021              		.cfi_offset 9, -16
 2022              		.cfi_offset 10, -12
 2023              		.cfi_offset 11, -8
 2024              		.cfi_offset 14, -4
 2025 0004 8BB0     		sub	sp, sp, #44
ARM GAS  /tmp/cczWKf9x.s 			page 37


 2026              	.LCFI26:
 2027              		.cfi_def_cfa_offset 80
 2028              		.loc 1 689 0
 2029 0006 8246     		mov	sl, r0
 2030 0008 159C     		ldr	r4, [sp, #84]
 2031 000a 149E     		ldr	r6, [sp, #80]
 2032              		.loc 1 698 0
 2033 000c 677B     		ldrb	r7, [r4, #13]	@ zero_extendqisi2
 2034 000e 94F80480 		ldrb	r8, [r4, #4]	@ zero_extendqisi2
 2035              		.loc 1 689 0
 2036 0012 0492     		str	r2, [sp, #16]
 2037              		.loc 1 698 0
 2038 0014 08FB07F7 		mul	r7, r8, r7
 2039              		.loc 1 696 0
 2040 0018 8B4A     		ldr	r2, .L293
 2041              	.LVL239:
 2042              		.loc 1 689 0
 2043 001a BDF85850 		ldrh	r5, [sp, #88]
 2044              		.loc 1 699 0
 2045 001e 94F805C0 		ldrb	ip, [r4, #5]	@ zero_extendqisi2
 2046              		.loc 1 689 0
 2047 0022 0395     		str	r5, [sp, #12]
 2048              		.loc 1 702 0
 2049 0024 3FB2     		sxth	r7, r7
 2050              		.loc 1 696 0
 2051 0026 002E     		cmp	r6, #0
 2052 0028 08BF     		it	eq
 2053 002a 1646     		moveq	r6, r2
 2054              	.LVL240:
 2055              		.loc 1 702 0
 2056 002c 9F42     		cmp	r7, r3
 2057              		.loc 1 689 0
 2058 002e 9DF85C50 		ldrb	r5, [sp, #92]	@ zero_extendqisi2
 2059              		.loc 1 699 0
 2060 0032 94F80C90 		ldrb	r9, [r4, #12]	@ zero_extendqisi2
 2061              	.LVL241:
 2062              		.loc 1 689 0
 2063 0036 8B46     		mov	fp, r1
 2064              		.loc 1 702 0
 2065 0038 4BDC     		bgt	.L198
 2066              		.loc 1 705 0
 2067 003a DB1B     		subs	r3, r3, r7
 2068              	.LVL242:
 2069 003c 581C     		adds	r0, r3, #1
 2070              	.LVL243:
 2071 003e 00EBD071 		add	r1, r0, r0, lsr #31
 2072              	.LVL244:
 2073 0042 4F10     		asrs	r7, r1, #1
 2074              	.LVL245:
 2075              		.loc 1 706 0
 2076 0044 3AB2     		sxth	r2, r7
 2077 0046 002A     		cmp	r2, #0
 2078              		.loc 1 707 0
 2079 0048 C4BF     		itt	gt
 2080 004a 5F44     		addgt	r7, r7, fp
 2081              	.LVL246:
 2082 004c 0FFA87FB 		sxthgt	fp, r7
ARM GAS  /tmp/cczWKf9x.s 			page 38


 2083              	.LVL247:
 2084              		.loc 1 699 0
 2085 0050 0CFB09F8 		mul	r8, ip, r9
 2086              	.LVL248:
 2087              		.loc 1 717 0
 2088 0054 012D     		cmp	r5, #1
 2089              		.loc 1 699 0
 2090 0056 CDF81880 		str	r8, [sp, #24]
 2091 005a 1FFA88F7 		uxth	r7, r8
 2092              	.LVL249:
 2093              		.loc 1 717 0
 2094 005e 3BD0     		beq	.L203
 2095 0060 022D     		cmp	r5, #2
 2096 0062 00F08F80 		beq	.L287
 2097              		.loc 1 779 0
 2098 0066 0AF10105 		add	r5, sl, #1
 2099 006a 3278     		ldrb	r2, [r6, #0]	@ zero_extendqisi2
 2100 006c ADB2     		uxth	r5, r5
 2101              	.LVL250:
 2102              	.L208:
 2103              		.loc 1 794 0 discriminator 1
 2104 006e DDF81080 		ldr	r8, [sp, #16]
 2105 0072 0FFA87FC 		sxth	ip, r7
 2106 0076 C244     		add	sl, sl, r8
 2107 0078 CDF810A0 		str	sl, [sp, #16]
 2108              		.loc 1 797 0 discriminator 1
 2109 007c 4FF00109 		mov	r9, #1
 2110              	.LVL251:
 2111              		.loc 1 794 0 discriminator 1
 2112 0080 CDF814C0 		str	ip, [sp, #20]
 2113 0084 D046     		mov	r8, sl
 2114              		.loc 1 785 0 discriminator 1
 2115 0086 22B3     		cbz	r2, .L198
 2116              	.LVL252:
 2117              	.L230:
 2118              		.loc 1 788 0
 2119 0088 A37A     		ldrb	r3, [r4, #10]	@ zero_extendqisi2
 2120 008a 9342     		cmp	r3, r2
 2121 008c 1DD8     		bhi	.L225
 2122              		.loc 1 788 0 is_stmt 0 discriminator 1
 2123 008e E07A     		ldrb	r0, [r4, #11]	@ zero_extendqisi2
 2124 0090 9042     		cmp	r0, r2
 2125 0092 1AD3     		bcc	.L225
 2126 0094 2169     		ldr	r1, [r4, #16]
 2127 0096 94F80CA0 		ldrb	sl, [r4, #12]	@ zero_extendqisi2
 2128 009a D31A     		subs	r3, r2, r3
 2129 009c C85C     		ldrb	r0, [r1, r3]	@ zero_extendqisi2
 2130 009e 0AFB00FA 		mul	sl, sl, r0
 2131 00a2 1FFA8AF1 		uxth	r1, sl
 2132              	.LVL253:
 2133              		.loc 1 789 0 is_stmt 1 discriminator 1
 2134 00a6 81B1     		cbz	r1, .L225
 2135              		.loc 1 792 0
 2136 00a8 002F     		cmp	r7, #0
 2137 00aa 58D1     		bne	.L226
 2138 00ac 4346     		mov	r3, r8
 2139              	.LVL254:
ARM GAS  /tmp/cczWKf9x.s 			page 39


 2140              	.L227:
 2141              		.loc 1 801 0
 2142 00ae 28B2     		sxth	r0, r5
 2143 00b0 00FA81F1 		sxtah	r1, r0, r1
 2144 00b4 9942     		cmp	r1, r3
 2145 00b6 0CDC     		bgt	.L198
 2146              		.loc 1 802 0
 2147 00b8 039B     		ldr	r3, [sp, #12]
 2148 00ba 5946     		mov	r1, fp
 2149 00bc 0093     		str	r3, [sp, #0]
 2150 00be 2346     		mov	r3, r4
 2151 00c0 FFF7FEFF 		bl	gdispDrawChar
 2152              	.LVL255:
 2153              		.loc 1 803 0
 2154 00c4 0AEB0502 		add	r2, sl, r5
 2155 00c8 95B2     		uxth	r5, r2
 2156              	.LVL256:
 2157              	.L225:
 2158 00ca 16F8012F 		ldrb	r2, [r6, #1]!	@ zero_extendqisi2
 2159              	.LVL257:
 2160              		.loc 1 785 0 discriminator 1
 2161 00ce 002A     		cmp	r2, #0
 2162 00d0 DAD1     		bne	.L230
 2163              	.LVL258:
 2164              	.L198:
 2165              		.loc 1 805 0
 2166 00d2 0BB0     		add	sp, sp, #44
 2167 00d4 BDE8F08F 		pop	{r4, r5, r6, r7, r8, r9, sl, fp, pc}
 2168              	.LVL259:
 2169              	.L203:
 2170              		.loc 1 720 0
 2171 00d8 3046     		mov	r0, r6
 2172 00da 2146     		mov	r1, r4
 2173 00dc FFF7FEFF 		bl	gdispGetStringWidth
 2174              	.LVL260:
 2175              		.loc 1 721 0
 2176 00e0 DDF810C0 		ldr	ip, [sp, #16]
 2177 00e4 6045     		cmp	r0, ip
 2178 00e6 40F31681 		ble	.L288
 2179              		.loc 1 725 0
 2180 00ea DDF810E0 		ldr	lr, [sp, #16]
 2181 00ee CEEB0002 		rsb	r2, lr, r0
 2182 00f2 02EBD270 		add	r0, r2, r2, lsr #31
 2183              	.LVL261:
 2184 00f6 4210     		asrs	r2, r0, #1
 2185              		.loc 1 727 0
 2186 00f8 AC46     		mov	ip, r5
 2187              		.loc 1 725 0
 2188 00fa 0592     		str	r2, [sp, #20]
 2189              	.LVL262:
 2190 00fc 3346     		mov	r3, r6
 2191              		.loc 1 726 0
 2192 00fe 0021     		movs	r1, #0
 2193 0100 15B2     		sxth	r5, r2
 2194              	.LVL263:
 2195              	.L272:
 2196 0102 1E46     		mov	r6, r3
ARM GAS  /tmp/cczWKf9x.s 			page 40


 2197              	.LVL264:
 2198 0104 0133     		adds	r3, r3, #1
 2199              	.LVL265:
 2200              		.loc 1 728 0 discriminator 1
 2201 0106 3278     		ldrb	r2, [r6, #0]	@ zero_extendqisi2
 2202              	.LVL266:
 2203 0108 12B3     		cbz	r2, .L212
 2204              		.loc 1 731 0
 2205 010a A07A     		ldrb	r0, [r4, #10]	@ zero_extendqisi2
 2206 010c 8242     		cmp	r2, r0
 2207 010e F8D3     		bcc	.L272
 2208              		.loc 1 731 0 is_stmt 0 discriminator 1
 2209 0110 94F80B80 		ldrb	r8, [r4, #11]	@ zero_extendqisi2
 2210 0114 9045     		cmp	r8, r2
 2211 0116 C0EB0200 		rsb	r0, r0, r2
 2212 011a F2D3     		bcc	.L272
 2213 011c 2269     		ldr	r2, [r4, #16]
 2214 011e 105C     		ldrb	r0, [r2, r0]	@ zero_extendqisi2
 2215 0120 00FB09F2 		mul	r2, r0, r9
 2216              	.LVL267:
 2217              		.loc 1 732 0 is_stmt 1 discriminator 1
 2218 0124 002A     		cmp	r2, #0
 2219 0126 ECD0     		beq	.L272
 2220              		.loc 1 735 0
 2221 0128 5FB1     		cbz	r7, .L211
 2222              		.loc 1 737 0
 2223 012a DDF818E0 		ldr	lr, [sp, #24]
 2224 012e 0EEB0100 		add	r0, lr, r1
 2225              		.loc 1 736 0
 2226 0132 BCF1000F 		cmp	ip, #0
 2227 0136 40F0F780 		bne	.L232
 2228              		.loc 1 737 0
 2229 013a 81B2     		uxth	r1, r0
 2230              	.LVL268:
 2231              		.loc 1 738 0
 2232 013c 08B2     		sxth	r0, r1
 2233              	.LVL269:
 2234 013e 8542     		cmp	r5, r0
 2235 0140 04DB     		blt	.L286
 2236              	.LVL270:
 2237              	.L211:
 2238              		.loc 1 744 0
 2239 0142 5118     		adds	r1, r2, r1
 2240              	.LVL271:
 2241 0144 89B2     		uxth	r1, r1
 2242              	.LVL272:
 2243              		.loc 1 745 0
 2244 0146 0AB2     		sxth	r2, r1
 2245              	.LVL273:
 2246 0148 9542     		cmp	r5, r2
 2247 014a DADA     		bge	.L272
 2248              	.LVL274:
 2249              	.L286:
 2250 014c 7278     		ldrb	r2, [r6, #1]	@ zero_extendqisi2
 2251              		.loc 1 730 0
 2252 014e 1E46     		mov	r6, r3
 2253              	.LVL275:
ARM GAS  /tmp/cczWKf9x.s 			page 41


 2254              	.L212:
 2255              		.loc 1 747 0
 2256 0150 DDF81490 		ldr	r9, [sp, #20]
 2257 0154 09EB0A03 		add	r3, r9, sl
 2258              	.LVL276:
 2259 0158 5D1A     		subs	r5, r3, r1
 2260 015a ADB2     		uxth	r5, r5
 2261              	.LVL277:
 2262 015c 87E7     		b	.L208
 2263              	.LVL278:
 2264              	.L226:
 2265              		.loc 1 793 0
 2266 015e B9F1000F 		cmp	r9, #0
 2267 0162 03D0     		beq	.L228
 2268 0164 4346     		mov	r3, r8
 2269              		.loc 1 797 0
 2270 0166 4FF00009 		mov	r9, #0
 2271              	.LVL279:
 2272 016a A0E7     		b	.L227
 2273              	.LVL280:
 2274              	.L228:
 2275              		.loc 1 794 0
 2276 016c DDF814C0 		ldr	ip, [sp, #20]
 2277 0170 049B     		ldr	r3, [sp, #16]
 2278 0172 0CFA85F0 		sxtah	r0, ip, r5
 2279 0176 9842     		cmp	r0, r3
 2280 0178 ABDC     		bgt	.L198
 2281              		.loc 1 795 0
 2282 017a DDF818C0 		ldr	ip, [sp, #24]
 2283 017e 6544     		add	r5, ip, r5
 2284 0180 ADB2     		uxth	r5, r5
 2285              	.LVL281:
 2286 0182 94E7     		b	.L227
 2287              	.LVL282:
 2288              	.L287:
 2289              		.loc 1 752 0 discriminator 1
 2290 0184 3378     		ldrb	r3, [r6, #0]	@ zero_extendqisi2
 2291 0186 3046     		mov	r0, r6
 2292 0188 2BB1     		cbz	r3, .L206
 2293              		.loc 1 689 0 discriminator 2
 2294 018a 721C     		adds	r2, r6, #1
 2295              	.L215:
 2296              		.loc 1 752 0 discriminator 2
 2297 018c 1046     		mov	r0, r2
 2298              	.LVL283:
 2299 018e 0132     		adds	r2, r2, #1
 2300 0190 0178     		ldrb	r1, [r0, #0]	@ zero_extendqisi2
 2301 0192 0029     		cmp	r1, #0
 2302 0194 FAD1     		bne	.L215
 2303              	.LVL284:
 2304              	.L206:
 2305              		.loc 1 753 0
 2306 0196 DDF810C0 		ldr	ip, [sp, #16]
 2307              	.LVL285:
 2308 019a AAF10205 		sub	r5, sl, #2
 2309              		.loc 1 755 0
 2310 019e 431E     		subs	r3, r0, #1
ARM GAS  /tmp/cczWKf9x.s 			page 42


 2311              		.loc 1 753 0
 2312 01a0 05EB0C02 		add	r2, r5, ip
 2313              		.loc 1 755 0
 2314 01a4 9E42     		cmp	r6, r3
 2315              		.loc 1 753 0
 2316 01a6 95B2     		uxth	r5, r2
 2317              	.LVL286:
 2318              		.loc 1 755 0
 2319 01a8 00F2C480 		bhi	.L289
 2320              		.loc 1 757 0
 2321 01ac 1846     		mov	r0, r3
 2322              		.loc 1 689 0
 2323 01ae 013E     		subs	r6, r6, #1
 2324 01b0 F11A     		subs	r1, r6, r3
 2325 01b2 0796     		str	r6, [sp, #28]
 2326              		.loc 1 757 0
 2327 01b4 10F80129 		ldrb	r2, [r0], #-1	@ zero_extendqisi2
 2328              	.LVL287:
 2329 01b8 A67A     		ldrb	r6, [r4, #10]	@ zero_extendqisi2
 2330              	.LVL288:
 2331 01ba 6FEA0108 		mvn	r8, r1
 2332              		.loc 1 764 0
 2333 01be 0FFA87FC 		sxth	ip, r7
 2334              		.loc 1 754 0
 2335 01c2 0121     		movs	r1, #1
 2336              		.loc 1 758 0
 2337 01c4 B242     		cmp	r2, r6
 2338              		.loc 1 754 0
 2339 01c6 0591     		str	r1, [sp, #20]
 2340              		.loc 1 764 0
 2341 01c8 CDF820C0 		str	ip, [sp, #32]
 2342 01cc 08EA0108 		and	r8, r8, r1
 2343              		.loc 1 758 0
 2344 01d0 1CD3     		bcc	.L244
 2345 01d2 E17A     		ldrb	r1, [r4, #11]	@ zero_extendqisi2
 2346 01d4 9142     		cmp	r1, r2
 2347 01d6 19D3     		bcc	.L244
 2348 01d8 C6EB020C 		rsb	ip, r6, r2
 2349 01dc 2169     		ldr	r1, [r4, #16]
 2350 01de 11F80C10 		ldrb	r1, [r1, ip]	@ zero_extendqisi2
 2351 01e2 01FB09F1 		mul	r1, r1, r9
 2352 01e6 0991     		str	r1, [sp, #36]
 2353 01e8 89B2     		uxth	r1, r1
 2354              		.loc 1 759 0
 2355 01ea 79B1     		cbz	r1, .L244
 2356              		.loc 1 771 0
 2357 01ec 09B2     		sxth	r1, r1
 2358 01ee 0FFA85FC 		sxth	ip, r5
 2359 01f2 C1EB0C0C 		rsb	ip, r1, ip
 2360              		.loc 1 767 0
 2361 01f6 0599     		ldr	r1, [sp, #20]
 2362 01f8 002F     		cmp	r7, #0
 2363 01fa 18BF     		it	ne
 2364 01fc 0021     		movne	r1, #0
 2365              		.loc 1 771 0
 2366 01fe D445     		cmp	ip, sl
 2367              		.loc 1 767 0
ARM GAS  /tmp/cczWKf9x.s 			page 43


 2368 0200 0591     		str	r1, [sp, #20]
 2369              	.LVL289:
 2370              		.loc 1 771 0
 2371 0202 C0F29C80 		blt	.L276
 2372              		.loc 1 772 0
 2373 0206 099B     		ldr	r3, [sp, #36]
 2374              	.LVL290:
 2375 0208 ED1A     		subs	r5, r5, r3
 2376              	.LVL291:
 2377 020a ADB2     		uxth	r5, r5
 2378              	.LVL292:
 2379              	.L244:
 2380              		.loc 1 755 0
 2381 020c DDF81CC0 		ldr	ip, [sp, #28]
 2382 0210 6045     		cmp	r0, ip
 2383 0212 0346     		mov	r3, r0
 2384 0214 00F08F80 		beq	.L217
 2385 0218 B8F1000F 		cmp	r8, #0
 2386 021c 0CD0     		beq	.L283
 2387              		.loc 1 757 0
 2388 021e 10F80129 		ldrb	r2, [r0], #-1	@ zero_extendqisi2
 2389              	.LVL293:
 2390              		.loc 1 758 0
 2391 0222 B242     		cmp	r2, r6
 2392 0224 03D3     		bcc	.L250
 2393 0226 E17A     		ldrb	r1, [r4, #11]	@ zero_extendqisi2
 2394 0228 9142     		cmp	r1, r2
 2395 022a 80F08F80 		bcs	.L290
 2396              	.LVL294:
 2397              	.L250:
 2398              		.loc 1 755 0
 2399 022e DDF81C80 		ldr	r8, [sp, #28]
 2400 0232 4045     		cmp	r0, r8
 2401 0234 0346     		mov	r3, r0
 2402 0236 7ED0     		beq	.L217
 2403              	.LVL295:
 2404              	.L283:
 2405 0238 DDF81CC0 		ldr	ip, [sp, #28]
 2406 023c CDF80890 		str	r9, [sp, #8]
 2407 0240 CDF81CB0 		str	fp, [sp, #28]
 2408 0244 42E0     		b	.L224
 2409              	.L294:
 2410 0246 00BF     		.align	2
 2411              	.L293:
 2412 0248 00000000 		.word	.LC0
 2413              	.LVL296:
 2414              	.L292:
 2415              		.loc 1 767 0
 2416 024c 0020     		movs	r0, #0
 2417 024e 0590     		str	r0, [sp, #20]
 2418              	.L220:
 2419              	.LVL297:
 2420              		.loc 1 771 0
 2421 0250 28B2     		sxth	r0, r5
 2422 0252 12B2     		sxth	r2, r2
 2423 0254 801A     		subs	r0, r0, r2
 2424 0256 5045     		cmp	r0, sl
ARM GAS  /tmp/cczWKf9x.s 			page 44


 2425 0258 6FDB     		blt	.L284
 2426              		.loc 1 772 0
 2427 025a C8EB0503 		rsb	r3, r8, r5
 2428 025e 9DB2     		uxth	r5, r3
 2429              	.LVL298:
 2430              	.L218:
 2431              		.loc 1 757 0
 2432 0260 0A78     		ldrb	r2, [r1, #0]	@ zero_extendqisi2
 2433              	.LVL299:
 2434 0262 481E     		subs	r0, r1, #1
 2435              		.loc 1 758 0
 2436 0264 B242     		cmp	r2, r6
 2437 0266 0B46     		mov	r3, r1
 2438 0268 2DD3     		bcc	.L257
 2439 026a E17A     		ldrb	r1, [r4, #11]	@ zero_extendqisi2
 2440              	.LVL300:
 2441 026c 9142     		cmp	r1, r2
 2442 026e 2AD3     		bcc	.L257
 2443 0270 2169     		ldr	r1, [r4, #16]
 2444 0272 DDF80890 		ldr	r9, [sp, #8]
 2445 0276 C6EB0208 		rsb	r8, r6, r2
 2446 027a 11F808B0 		ldrb	fp, [r1, r8]	@ zero_extendqisi2
 2447 027e 0BFB09FB 		mul	fp, fp, r9
 2448 0282 1FFA8BF1 		uxth	r1, fp
 2449 0286 0991     		str	r1, [sp, #36]
 2450              		.loc 1 759 0
 2451 0288 E9B1     		cbz	r1, .L257
 2452              		.loc 1 762 0
 2453 028a 7FB1     		cbz	r7, .L281
 2454              		.loc 1 763 0
 2455 028c 0599     		ldr	r1, [sp, #20]
 2456 028e 0029     		cmp	r1, #0
 2457 0290 4DD1     		bne	.L280
 2458              		.loc 1 764 0
 2459 0292 DDF82090 		ldr	r9, [sp, #32]
 2460 0296 0FFA85F8 		sxth	r8, r5
 2461 029a C9EB0801 		rsb	r1, r9, r8
 2462 029e 5145     		cmp	r1, sl
 2463 02a0 4BDB     		blt	.L284
 2464              		.loc 1 765 0
 2465 02a2 DDF81880 		ldr	r8, [sp, #24]
 2466 02a6 C8EB0505 		rsb	r5, r8, r5
 2467              	.LVL301:
 2468 02aa ADB2     		uxth	r5, r5
 2469              	.LVL302:
 2470              	.L281:
 2471              		.loc 1 771 0
 2472 02ac DDF82490 		ldr	r9, [sp, #36]
 2473 02b0 0FFA85F8 		sxth	r8, r5
 2474 02b4 0FFA89F1 		sxth	r1, r9
 2475 02b8 C1EB0801 		rsb	r1, r1, r8
 2476 02bc 5145     		cmp	r1, sl
 2477 02be 3CDB     		blt	.L284
 2478              		.loc 1 772 0
 2479 02c0 CBEB0503 		rsb	r3, fp, r5
 2480              	.LVL303:
 2481 02c4 9DB2     		uxth	r5, r3
ARM GAS  /tmp/cczWKf9x.s 			page 45


 2482              	.LVL304:
 2483              	.L257:
 2484              		.loc 1 755 0
 2485 02c6 6045     		cmp	r0, ip
 2486 02c8 0346     		mov	r3, r0
 2487 02ca 3BD0     		beq	.L291
 2488              	.LVL305:
 2489              	.L224:
 2490              		.loc 1 757 0
 2491 02cc 0278     		ldrb	r2, [r0, #0]	@ zero_extendqisi2
 2492 02ce 411E     		subs	r1, r0, #1
 2493              		.loc 1 758 0
 2494 02d0 B242     		cmp	r2, r6
 2495 02d2 0346     		mov	r3, r0
 2496 02d4 C4D3     		bcc	.L218
 2497              		.loc 1 758 0 is_stmt 0 discriminator 1
 2498 02d6 E07A     		ldrb	r0, [r4, #11]	@ zero_extendqisi2
 2499 02d8 9042     		cmp	r0, r2
 2500 02da C1D3     		bcc	.L218
 2501 02dc 901B     		subs	r0, r2, r6
 2502 02de 2269     		ldr	r2, [r4, #16]
 2503 02e0 12F80090 		ldrb	r9, [r2, r0]	@ zero_extendqisi2
 2504 02e4 0298     		ldr	r0, [sp, #8]
 2505 02e6 09FB00F8 		mul	r8, r9, r0
 2506 02ea 1FFA88F2 		uxth	r2, r8
 2507              	.LVL306:
 2508              		.loc 1 759 0 is_stmt 1 discriminator 1
 2509 02ee 002A     		cmp	r2, #0
 2510 02f0 B6D0     		beq	.L218
 2511              		.loc 1 762 0
 2512 02f2 002F     		cmp	r7, #0
 2513 02f4 ACD0     		beq	.L220
 2514              		.loc 1 763 0
 2515 02f6 0598     		ldr	r0, [sp, #20]
 2516 02f8 0028     		cmp	r0, #0
 2517 02fa A7D1     		bne	.L292
 2518              		.loc 1 764 0
 2519 02fc DDF820B0 		ldr	fp, [sp, #32]
 2520 0300 28B2     		sxth	r0, r5
 2521 0302 CBEB0000 		rsb	r0, fp, r0
 2522 0306 5045     		cmp	r0, sl
 2523 0308 17DB     		blt	.L284
 2524              		.loc 1 765 0
 2525 030a DDF81890 		ldr	r9, [sp, #24]
 2526 030e C9EB0505 		rsb	r5, r9, r5
 2527 0312 ADB2     		uxth	r5, r5
 2528              	.LVL307:
 2529 0314 9CE7     		b	.L220
 2530              	.LVL308:
 2531              	.L288:
 2532              		.loc 1 722 0
 2533 0316 C0EB0C00 		rsb	r0, r0, ip
 2534              	.LVL309:
 2535 031a 00EBD071 		add	r1, r0, r0, lsr #31
 2536 031e 0AEB6102 		add	r2, sl, r1, asr #1
 2537 0322 95B2     		uxth	r5, r2
 2538              	.LVL310:
ARM GAS  /tmp/cczWKf9x.s 			page 46


 2539 0324 3278     		ldrb	r2, [r6, #0]	@ zero_extendqisi2
 2540              	.LVL311:
 2541 0326 A2E6     		b	.L208
 2542              	.LVL312:
 2543              	.L232:
 2544              		.loc 1 740 0
 2545 0328 4FF0000C 		mov	ip, #0
 2546              	.LVL313:
 2547 032c 09E7     		b	.L211
 2548              	.LVL314:
 2549              	.L280:
 2550              		.loc 1 767 0
 2551 032e 0021     		movs	r1, #0
 2552              	.LVL315:
 2553 0330 0591     		str	r1, [sp, #20]
 2554 0332 BBE7     		b	.L281
 2555              	.LVL316:
 2556              	.L289:
 2557 0334 0278     		ldrb	r2, [r0, #0]	@ zero_extendqisi2
 2558              	.LVL317:
 2559              	.L217:
 2560              		.loc 1 774 0
 2561 0336 5E1C     		adds	r6, r3, #1
 2562              		.loc 1 775 0
 2563 0338 99E6     		b	.L208
 2564              	.LVL318:
 2565              	.L284:
 2566 033a DDF81CB0 		ldr	fp, [sp, #28]
 2567              	.LVL319:
 2568              	.L276:
 2569 033e 5A78     		ldrb	r2, [r3, #1]	@ zero_extendqisi2
 2570              	.LVL320:
 2571              		.loc 1 774 0
 2572 0340 5E1C     		adds	r6, r3, #1
 2573 0342 94E6     		b	.L208
 2574              	.LVL321:
 2575              	.L291:
 2576 0344 DDF81CB0 		ldr	fp, [sp, #28]
 2577 0348 5E1C     		adds	r6, r3, #1
 2578 034a 90E6     		b	.L208
 2579              	.LVL322:
 2580              	.L290:
 2581              		.loc 1 758 0
 2582 034c C6EB0208 		rsb	r8, r6, r2
 2583 0350 2169     		ldr	r1, [r4, #16]
 2584 0352 11F80810 		ldrb	r1, [r1, r8]	@ zero_extendqisi2
 2585 0356 01FB09F1 		mul	r1, r1, r9
 2586 035a 0291     		str	r1, [sp, #8]
 2587 035c 89B2     		uxth	r1, r1
 2588 035e 0991     		str	r1, [sp, #36]
 2589              		.loc 1 759 0
 2590 0360 0029     		cmp	r1, #0
 2591 0362 3FF464AF 		beq	.L250
 2592              		.loc 1 762 0
 2593 0366 77B1     		cbz	r7, .L279
 2594              		.loc 1 763 0
 2595 0368 0599     		ldr	r1, [sp, #20]
ARM GAS  /tmp/cczWKf9x.s 			page 47


 2596 036a E1B9     		cbnz	r1, .L277
 2597              		.loc 1 764 0
 2598 036c DDF82080 		ldr	r8, [sp, #32]
 2599 0370 0FFA85FC 		sxth	ip, r5
 2600 0374 C8EB0C01 		rsb	r1, r8, ip
 2601 0378 5145     		cmp	r1, sl
 2602 037a E0DB     		blt	.L276
 2603              		.loc 1 765 0
 2604 037c DDF818C0 		ldr	ip, [sp, #24]
 2605 0380 CCEB0505 		rsb	r5, ip, r5
 2606              	.LVL323:
 2607 0384 ADB2     		uxth	r5, r5
 2608              	.LVL324:
 2609              	.L279:
 2610              		.loc 1 771 0
 2611 0386 DDF82480 		ldr	r8, [sp, #36]
 2612 038a 0FFA85FC 		sxth	ip, r5
 2613 038e 0FFA88F1 		sxth	r1, r8
 2614 0392 C1EB0C01 		rsb	r1, r1, ip
 2615 0396 5145     		cmp	r1, sl
 2616 0398 D1DB     		blt	.L276
 2617              		.loc 1 772 0
 2618 039a DDF808C0 		ldr	ip, [sp, #8]
 2619 039e CCEB0503 		rsb	r3, ip, r5
 2620              	.LVL325:
 2621 03a2 9DB2     		uxth	r5, r3
 2622              	.LVL326:
 2623 03a4 43E7     		b	.L250
 2624              	.LVL327:
 2625              	.L277:
 2626              		.loc 1 767 0
 2627 03a6 0021     		movs	r1, #0
 2628 03a8 0591     		str	r1, [sp, #20]
 2629 03aa ECE7     		b	.L279
 2630              		.cfi_endproc
 2631              	.LFE133:
 2632              		.size	gdispDrawStringBox, .-gdispDrawStringBox
 2633 03ac AFF30080 		.section	.text.gdispBlendColor,"ax",%progbits
 2634              		.align	2
 2635              		.p2align 4,,15
 2636              		.global	gdispBlendColor
 2637              		.thumb
 2638              		.thumb_func
 2639              		.type	gdispBlendColor, %function
 2640              	gdispBlendColor:
 2641              	.LFB138:
 2642              		.loc 1 994 0
 2643              		.cfi_startproc
 2644              		@ args = 0, pretend = 0, frame = 0
 2645              		@ frame_needed = 0, uses_anonymous_args = 0
 2646              		@ link register save eliminated.
 2647              	.LVL328:
 2648 0000 F0B4     		push	{r4, r5, r6, r7}
 2649              	.LCFI27:
 2650              		.cfi_def_cfa_offset 16
 2651              		.cfi_offset 4, -16
 2652              		.cfi_offset 5, -12
ARM GAS  /tmp/cczWKf9x.s 			page 48


 2653              		.cfi_offset 6, -8
 2654              		.cfi_offset 7, -4
 2655              		.loc 1 1000 0
 2656 0002 00F4FC67 		and	r7, r0, #2016
 2657              		.loc 1 995 0
 2658 0006 531C     		adds	r3, r2, #1
 2659              	.LVL329:
 2660              		.loc 1 1000 0
 2661 0008 FC10     		asrs	r4, r7, #3
 2662              		.loc 1 1004 0
 2663 000a 01F4FC6C 		and	ip, r1, #2016
 2664              		.loc 1 999 0
 2665 000e 00F47845 		and	r5, r0, #63488
 2666              		.loc 1 996 0
 2667 0012 C2F58072 		rsb	r2, r2, #256
 2668              	.LVL330:
 2669              		.loc 1 1000 0
 2670 0016 04FB03F7 		mul	r7, r4, r3
 2671              		.loc 1 996 0
 2672 001a 92B2     		uxth	r2, r2
 2673              	.LVL331:
 2674              		.loc 1 1001 0
 2675 001c C600     		lsls	r6, r0, #3
 2676              		.loc 1 999 0
 2677 001e 2D12     		asrs	r5, r5, #8
 2678              		.loc 1 1003 0
 2679 0020 01F47844 		and	r4, r1, #63488
 2680              		.loc 1 1004 0
 2681 0024 4FEAEC00 		asr	r0, ip, #3
 2682              	.LVL332:
 2683              		.loc 1 999 0
 2684 0028 05FB03F5 		mul	r5, r5, r3
 2685              	.LVL333:
 2686              		.loc 1 1004 0
 2687 002c 00FB0270 		mla	r0, r0, r2, r7
 2688              		.loc 1 1001 0
 2689 0030 F6B2     		uxtb	r6, r6
 2690              		.loc 1 1003 0
 2691 0032 2412     		asrs	r4, r4, #8
 2692              		.loc 1 1005 0
 2693 0034 C900     		lsls	r1, r1, #3
 2694              	.LVL334:
 2695              		.loc 1 1001 0
 2696 0036 06FB03F3 		mul	r3, r6, r3
 2697              	.LVL335:
 2698              		.loc 1 1003 0
 2699 003a 04FB0254 		mla	r4, r4, r2, r5
 2700              	.LVL336:
 2701              		.loc 1 1005 0
 2702 003e C9B2     		uxtb	r1, r1
 2703              		.loc 1 1011 0
 2704 0040 4009     		lsrs	r0, r0, #5
 2705              	.LVL337:
 2706              		.loc 1 1005 0
 2707 0042 01FB0232 		mla	r2, r1, r2, r3
 2708              	.LVL338:
 2709              		.loc 1 1011 0
ARM GAS  /tmp/cczWKf9x.s 			page 49


 2710 0046 00F4FC60 		and	r0, r0, #2016
 2711 004a 04F47843 		and	r3, r4, #63488
 2712 004e 1843     		orrs	r0, r0, r3
 2713 0050 C2F3C421 		ubfx	r1, r2, #11, #5
 2714              		.loc 1 1012 0
 2715 0054 0843     		orrs	r0, r0, r1
 2716 0056 F0BC     		pop	{r4, r5, r6, r7}
 2717 0058 7047     		bx	lr
 2718              		.cfi_endproc
 2719              	.LFE138:
 2720              		.size	gdispBlendColor, .-gdispBlendColor
 2721 005a 00BFAFF3 		.section	.rodata.str1.4,"aMS",%progbits,1
 2721      0080
 2722              		.align	2
 2723              	.LC0:
 2724 0000 00       		.ascii	"\000"
 2725 0001 000000   		.section	.bss.gdispMutex,"aw",%nobits
 2726              		.align	2
 2727              		.set	.LANCHOR0,. + 0
 2728              		.type	gdispMutex, %object
 2729              		.size	gdispMutex, 16
 2730              	gdispMutex:
 2731 0000 00000000 		.space	16
 2731      00000000 
 2731      00000000 
 2731      00000000 
 2732              		.text
 2733              	.Letext0:
 2734              		.file 2 "/usr/bin/../lib/gcc/arm-none-eabi/4.7.4/../../../../arm-none-eabi/include/stdint.h"
 2735              		.file 3 "../../os/ports/GCC/ARMCMx/chtypes.h"
 2736              		.file 4 "../../os/kernel/include/chlists.h"
 2737              		.file 5 "../../os/kernel/include/chthreads.h"
 2738              		.file 6 "../../os/ports/GCC/ARMCMx/chcore_v7m.h"
 2739              		.file 7 "../../os/kernel/include/chmtx.h"
 2740              		.file 8 "../../ext/ugfx/include/gos/chibios.h"
 2741              		.file 9 "../../ext/ugfx/include/gdisp/gdisp.h"
 2742              		.file 10 "../../ext/ugfx/include/gdisp/fonts.h"
 2743              		.file 11 "../../ext/ugfx/include/gdisp/lld/gdisp_lld.h"
 2744              		.file 12 "../../os/ports/common/ARMCMx/CMSIS/include/core_cm4.h"