ARM GAS  /tmp/ccU9hxbc.s 			page 1


   1              		.syntax unified
   2              		.cpu cortex-m4
   3              		.eabi_attribute 27, 3
   4              		.eabi_attribute 28, 1
   5              		.fpu fpv4-sp-d16
   6              		.eabi_attribute 20, 1
   7              		.eabi_attribute 21, 1
   8              		.eabi_attribute 23, 3
   9              		.eabi_attribute 24, 1
  10              		.eabi_attribute 25, 1
  11              		.eabi_attribute 26, 1
  12              		.eabi_attribute 30, 2
  13              		.eabi_attribute 34, 1
  14              		.eabi_attribute 18, 4
  15              		.thumb
  16              		.file	"gwin.c"
  17              		.text
  18              	.Ltext0:
  19              		.cfi_sections	.debug_frame
  20              		.section	.text._gwinInit,"ax",%progbits
  21              		.align	2
  22              		.p2align 4,,15
  23              		.global	_gwinInit
  24              		.thumb
  25              		.thumb_func
  26              		.type	_gwinInit, %function
  27              	_gwinInit:
  28              	.LFB118:
  29              		.file 1 "../../ext/ugfx/src/gwin/gwin.c"
  30              		.loc 1 78 0
  31              		.cfi_startproc
  32              		@ args = 0, pretend = 0, frame = 0
  33              		@ frame_needed = 0, uses_anonymous_args = 0
  34 0000 08B5     		push	{r3, lr}
  35              	.LCFI0:
  36              		.cfi_def_cfa_offset 8
  37              		.cfi_offset 3, -8
  38              		.cfi_offset 14, -4
  39              		.loc 1 82 0
  40 0002 FFF7FEFF 		bl	_gwidgetInit
  41              	.LVL0:
  42              		.loc 1 89 0
  43 0006 BDE80840 		pop	{r3, lr}
  44              		.loc 1 87 0
  45 000a FFF7FEBF 		b	_gwmInit
  46              	.LVL1:
  47              		.cfi_endproc
  48              	.LFE118:
  49              		.size	_gwinInit, .-_gwinInit
  50 000e 00BF     		.section	.text._gwindowCreate,"ax",%progbits
  51              		.align	2
  52              		.p2align 4,,15
  53              		.global	_gwindowCreate
  54              		.thumb
  55              		.thumb_func
  56              		.type	_gwindowCreate, %function
  57              	_gwindowCreate:
ARM GAS  /tmp/ccU9hxbc.s 			page 2


  58              	.LFB119:
  59              		.loc 1 93 0
  60              		.cfi_startproc
  61              		@ args = 0, pretend = 0, frame = 8
  62              		@ frame_needed = 0, uses_anonymous_args = 0
  63              	.LVL2:
  64 0000 70B5     		push	{r4, r5, r6, lr}
  65              	.LCFI1:
  66              		.cfi_def_cfa_offset 16
  67              		.cfi_offset 4, -16
  68              		.cfi_offset 5, -12
  69              		.cfi_offset 6, -8
  70              		.cfi_offset 14, -4
  71 0002 0D46     		mov	r5, r1
  72 0004 82B0     		sub	sp, sp, #8
  73              	.LCFI2:
  74              		.cfi_def_cfa_offset 24
  75              		.loc 1 95 0
  76 0006 0446     		mov	r4, r0
  77 0008 0028     		cmp	r0, #0
  78 000a 1FD0     		beq	.L12
  79              		.loc 1 100 0
  80 000c 8382     		strh	r3, [r0, #20]	@ movhi
  81              	.LVL3:
  82              	.L6:
  83              		.loc 1 105 0
  84 000e 164B     		ldr	r3, .L14
  85              		.loc 1 111 0
  86 0010 1649     		ldr	r1, .L14+4
  87              		.loc 1 105 0
  88 0012 1888     		ldrh	r0, [r3, #0]
  89              		.loc 1 111 0
  90 0014 0968     		ldr	r1, [r1, #0]
  91              		.loc 1 104 0
  92 0016 164E     		ldr	r6, .L14+8
  93              		.loc 1 107 0
  94 0018 164B     		ldr	r3, .L14+12
  95              		.loc 1 111 0
  96 001a 0968     		ldr	r1, [r1, #0]
  97              		.loc 1 104 0
  98 001c 3688     		ldrh	r6, [r6, #0]
  99              		.loc 1 107 0
 100 001e 1B68     		ldr	r3, [r3, #0]
 101              		.loc 1 103 0
 102 0020 6260     		str	r2, [r4, #4]
 103              		.loc 1 105 0
 104 0022 6082     		strh	r0, [r4, #18]	@ movhi
 105              		.loc 1 111 0
 106 0024 8A68     		ldr	r2, [r1, #8]
 107              		.loc 1 104 0
 108 0026 2682     		strh	r6, [r4, #16]	@ movhi
 109              		.loc 1 111 0
 110 0028 2946     		mov	r1, r5
 111              		.loc 1 107 0
 112 002a A361     		str	r3, [r4, #24]
 113              		.loc 1 111 0
 114 002c 2046     		mov	r0, r4
ARM GAS  /tmp/ccU9hxbc.s 			page 3


 115 002e 9047     		blx	r2
 116              	.LVL4:
 117 0030 0546     		mov	r5, r0
 118              	.LVL5:
 119 0032 18B9     		cbnz	r0, .L5
 120              		.loc 1 112 0
 121 0034 A08A     		ldrh	r0, [r4, #20]
 122 0036 C307     		lsls	r3, r0, #31
 123 0038 03D4     		bmi	.L13
 124              	.L7:
 125              		.loc 1 97 0
 126 003a 0024     		movs	r4, #0
 127              	.LVL6:
 128              	.L5:
 129              		.loc 1 121 0
 130 003c 2046     		mov	r0, r4
 131 003e 02B0     		add	sp, sp, #8
 132 0040 70BD     		pop	{r4, r5, r6, pc}
 133              	.LVL7:
 134              	.L13:
 135              		.loc 1 113 0
 136 0042 2046     		mov	r0, r4
 137 0044 FFF7FEFF 		bl	chHeapFree
 138              	.LVL8:
 139              		.loc 1 114 0
 140 0048 2C46     		mov	r4, r5
 141              	.LVL9:
 142 004a F7E7     		b	.L5
 143              	.LVL10:
 144              	.L12:
 145              		.loc 1 96 0
 146 004c 5168     		ldr	r1, [r2, #4]
 147              	.LVL11:
 148 004e 0192     		str	r2, [sp, #4]
 149 0050 0093     		str	r3, [sp, #0]
 150 0052 FFF7FEFF 		bl	chHeapAlloc
 151              	.LVL12:
 152 0056 019A     		ldr	r2, [sp, #4]
 153 0058 009B     		ldr	r3, [sp, #0]
 154 005a 0446     		mov	r4, r0
 155 005c 0028     		cmp	r0, #0
 156 005e ECD0     		beq	.L7
 157              		.loc 1 98 0
 158 0060 43F00100 		orr	r0, r3, #1
 159              	.LVL13:
 160 0064 A082     		strh	r0, [r4, #20]	@ movhi
 161 0066 D2E7     		b	.L6
 162              	.L15:
 163              		.align	2
 164              	.L14:
 165 0068 00000000 		.word	.LANCHOR1
 166 006c 00000000 		.word	_GWINwm
 167 0070 00000000 		.word	.LANCHOR0
 168 0074 00000000 		.word	.LANCHOR2
 169              		.cfi_endproc
 170              	.LFE119:
 171              		.size	_gwindowCreate, .-_gwindowCreate
ARM GAS  /tmp/ccU9hxbc.s 			page 4


 172 0078 AFF30080 		.section	.text.gwinSetDefaultColor,"ax",%progbits
 172      AFF30080 
 173              		.align	2
 174              		.p2align 4,,15
 175              		.global	gwinSetDefaultColor
 176              		.thumb
 177              		.thumb_func
 178              		.type	gwinSetDefaultColor, %function
 179              	gwinSetDefaultColor:
 180              	.LFB120:
 181              		.loc 1 127 0
 182              		.cfi_startproc
 183              		@ args = 0, pretend = 0, frame = 0
 184              		@ frame_needed = 0, uses_anonymous_args = 0
 185              		@ link register save eliminated.
 186              	.LVL14:
 187              		.loc 1 128 0
 188 0000 40F20003 		movw	r3, #:lower16:.LANCHOR0
 189 0004 C0F20003 		movt	r3, #:upper16:.LANCHOR0
 190 0008 1880     		strh	r0, [r3, #0]	@ movhi
 191 000a 7047     		bx	lr
 192              		.cfi_endproc
 193              	.LFE120:
 194              		.size	gwinSetDefaultColor, .-gwinSetDefaultColor
 195 000c AFF30080 		.section	.text.gwinGetDefaultColor,"ax",%progbits
 196              		.align	2
 197              		.p2align 4,,15
 198              		.global	gwinGetDefaultColor
 199              		.thumb
 200              		.thumb_func
 201              		.type	gwinGetDefaultColor, %function
 202              	gwinGetDefaultColor:
 203              	.LFB121:
 204              		.loc 1 131 0
 205              		.cfi_startproc
 206              		@ args = 0, pretend = 0, frame = 0
 207              		@ frame_needed = 0, uses_anonymous_args = 0
 208              		@ link register save eliminated.
 209              		.loc 1 132 0
 210 0000 40F20003 		movw	r3, #:lower16:.LANCHOR0
 211 0004 C0F20003 		movt	r3, #:upper16:.LANCHOR0
 212              		.loc 1 133 0
 213 0008 1888     		ldrh	r0, [r3, #0]
 214 000a 7047     		bx	lr
 215              		.cfi_endproc
 216              	.LFE121:
 217              		.size	gwinGetDefaultColor, .-gwinGetDefaultColor
 218 000c AFF30080 		.section	.text.gwinSetDefaultBgColor,"ax",%progbits
 219              		.align	2
 220              		.p2align 4,,15
 221              		.global	gwinSetDefaultBgColor
 222              		.thumb
 223              		.thumb_func
 224              		.type	gwinSetDefaultBgColor, %function
 225              	gwinSetDefaultBgColor:
 226              	.LFB122:
 227              		.loc 1 135 0
ARM GAS  /tmp/ccU9hxbc.s 			page 5


 228              		.cfi_startproc
 229              		@ args = 0, pretend = 0, frame = 0
 230              		@ frame_needed = 0, uses_anonymous_args = 0
 231              		@ link register save eliminated.
 232              	.LVL15:
 233              		.loc 1 136 0
 234 0000 40F20003 		movw	r3, #:lower16:.LANCHOR1
 235 0004 C0F20003 		movt	r3, #:upper16:.LANCHOR1
 236 0008 1880     		strh	r0, [r3, #0]	@ movhi
 237 000a 7047     		bx	lr
 238              		.cfi_endproc
 239              	.LFE122:
 240              		.size	gwinSetDefaultBgColor, .-gwinSetDefaultBgColor
 241 000c AFF30080 		.section	.text.gwinGetDefaultBgColor,"ax",%progbits
 242              		.align	2
 243              		.p2align 4,,15
 244              		.global	gwinGetDefaultBgColor
 245              		.thumb
 246              		.thumb_func
 247              		.type	gwinGetDefaultBgColor, %function
 248              	gwinGetDefaultBgColor:
 249              	.LFB123:
 250              		.loc 1 139 0
 251              		.cfi_startproc
 252              		@ args = 0, pretend = 0, frame = 0
 253              		@ frame_needed = 0, uses_anonymous_args = 0
 254              		@ link register save eliminated.
 255              		.loc 1 140 0
 256 0000 40F20003 		movw	r3, #:lower16:.LANCHOR1
 257 0004 C0F20003 		movt	r3, #:upper16:.LANCHOR1
 258              		.loc 1 141 0
 259 0008 1888     		ldrh	r0, [r3, #0]
 260 000a 7047     		bx	lr
 261              		.cfi_endproc
 262              	.LFE123:
 263              		.size	gwinGetDefaultBgColor, .-gwinGetDefaultBgColor
 264 000c AFF30080 		.section	.text.gwinSetDefaultFont,"ax",%progbits
 265              		.align	2
 266              		.p2align 4,,15
 267              		.global	gwinSetDefaultFont
 268              		.thumb
 269              		.thumb_func
 270              		.type	gwinSetDefaultFont, %function
 271              	gwinSetDefaultFont:
 272              	.LFB124:
 273              		.loc 1 144 0
 274              		.cfi_startproc
 275              		@ args = 0, pretend = 0, frame = 0
 276              		@ frame_needed = 0, uses_anonymous_args = 0
 277              		@ link register save eliminated.
 278              	.LVL16:
 279              		.loc 1 145 0
 280 0000 40F20003 		movw	r3, #:lower16:.LANCHOR2
 281 0004 C0F20003 		movt	r3, #:upper16:.LANCHOR2
 282 0008 1860     		str	r0, [r3, #0]
 283 000a 7047     		bx	lr
 284              		.cfi_endproc
ARM GAS  /tmp/ccU9hxbc.s 			page 6


 285              	.LFE124:
 286              		.size	gwinSetDefaultFont, .-gwinSetDefaultFont
 287 000c AFF30080 		.section	.text.gwinGetDefaultFont,"ax",%progbits
 288              		.align	2
 289              		.p2align 4,,15
 290              		.global	gwinGetDefaultFont
 291              		.thumb
 292              		.thumb_func
 293              		.type	gwinGetDefaultFont, %function
 294              	gwinGetDefaultFont:
 295              	.LFB125:
 296              		.loc 1 148 0
 297              		.cfi_startproc
 298              		@ args = 0, pretend = 0, frame = 0
 299              		@ frame_needed = 0, uses_anonymous_args = 0
 300              		@ link register save eliminated.
 301              		.loc 1 149 0
 302 0000 40F20003 		movw	r3, #:lower16:.LANCHOR2
 303 0004 C0F20003 		movt	r3, #:upper16:.LANCHOR2
 304              		.loc 1 150 0
 305 0008 1868     		ldr	r0, [r3, #0]
 306 000a 7047     		bx	lr
 307              		.cfi_endproc
 308              	.LFE125:
 309              		.size	gwinGetDefaultFont, .-gwinGetDefaultFont
 310 000c AFF30080 		.section	.text.gwinDestroy,"ax",%progbits
 311              		.align	2
 312              		.p2align 4,,15
 313              		.global	gwinDestroy
 314              		.thumb
 315              		.thumb_func
 316              		.type	gwinDestroy, %function
 317              	gwinDestroy:
 318              	.LFB127:
 319              		.loc 1 164 0
 320              		.cfi_startproc
 321              		@ args = 0, pretend = 0, frame = 0
 322              		@ frame_needed = 0, uses_anonymous_args = 0
 323              	.LVL17:
 324              		.loc 1 167 0
 325 0000 0A4B     		ldr	r3, .L31
 326 0002 1968     		ldr	r1, [r3, #0]
 327 0004 0A68     		ldr	r2, [r1, #0]
 328              		.loc 1 164 0
 329 0006 10B5     		push	{r4, lr}
 330              	.LCFI3:
 331              		.cfi_def_cfa_offset 8
 332              		.cfi_offset 4, -8
 333              		.cfi_offset 14, -4
 334              		.loc 1 164 0
 335 0008 0446     		mov	r4, r0
 336              		.loc 1 167 0
 337 000a D368     		ldr	r3, [r2, #12]
 338 000c 9847     		blx	r3
 339              	.LVL18:
 340              		.loc 1 171 0
 341 000e 6068     		ldr	r0, [r4, #4]
ARM GAS  /tmp/ccU9hxbc.s 			page 7


 342 0010 8168     		ldr	r1, [r0, #8]
 343 0012 09B1     		cbz	r1, .L23
 344              		.loc 1 172 0
 345 0014 2046     		mov	r0, r4
 346 0016 8847     		blx	r1
 347              	.LVL19:
 348              	.L23:
 349              		.loc 1 175 0
 350 0018 A28A     		ldrh	r2, [r4, #20]
 351 001a D207     		lsls	r2, r2, #31
 352 001c 02D5     		bpl	.L24
 353              		.loc 1 176 0
 354 001e 2046     		mov	r0, r4
 355 0020 FFF7FEFF 		bl	chHeapFree
 356              	.LVL20:
 357              	.L24:
 358              		.loc 1 178 0
 359 0024 0023     		movs	r3, #0
 360 0026 A382     		strh	r3, [r4, #20]	@ movhi
 361 0028 10BD     		pop	{r4, pc}
 362              	.L32:
 363 002a 00BF     		.align	2
 364              	.L31:
 365 002c 00000000 		.word	_GWINwm
 366              		.cfi_endproc
 367              	.LFE127:
 368              		.size	gwinDestroy, .-gwinDestroy
 369              		.section	.text.gwinGetClassName,"ax",%progbits
 370              		.align	2
 371              		.p2align 4,,15
 372              		.global	gwinGetClassName
 373              		.thumb
 374              		.thumb_func
 375              		.type	gwinGetClassName, %function
 376              	gwinGetClassName:
 377              	.LFB128:
 378              		.loc 1 181 0
 379              		.cfi_startproc
 380              		@ args = 0, pretend = 0, frame = 0
 381              		@ frame_needed = 0, uses_anonymous_args = 0
 382              		@ link register save eliminated.
 383              	.LVL21:
 384              		.loc 1 182 0
 385 0000 4368     		ldr	r3, [r0, #4]
 386              		.loc 1 183 0
 387 0002 1868     		ldr	r0, [r3, #0]
 388              	.LVL22:
 389 0004 7047     		bx	lr
 390              		.cfi_endproc
 391              	.LFE128:
 392              		.size	gwinGetClassName, .-gwinGetClassName
 393 0006 00BFAFF3 		.section	.text.gwinSetVisible,"ax",%progbits
 393      0080AFF3 
 393      0080
 394              		.align	2
 395              		.p2align 4,,15
 396              		.global	gwinSetVisible
ARM GAS  /tmp/ccU9hxbc.s 			page 8


 397              		.thumb
 398              		.thumb_func
 399              		.type	gwinSetVisible, %function
 400              	gwinSetVisible:
 401              	.LFB129:
 402              		.loc 1 185 0
 403              		.cfi_startproc
 404              		@ args = 0, pretend = 0, frame = 0
 405              		@ frame_needed = 0, uses_anonymous_args = 0
 406              	.LVL23:
 407 0000 08B5     		push	{r3, lr}
 408              	.LCFI4:
 409              		.cfi_def_cfa_offset 8
 410              		.cfi_offset 3, -8
 411              		.cfi_offset 14, -4
 412              		.loc 1 187 0
 413 0002 828A     		ldrh	r2, [r0, #20]
 414              		.loc 1 186 0
 415 0004 21B1     		cbz	r1, .L35
 416              		.loc 1 187 0
 417 0006 02F00201 		and	r1, r2, #2
 418              	.LVL24:
 419 000a 89B2     		uxth	r1, r1
 420 000c 71B1     		cbz	r1, .L40
 421              	.L34:
 422 000e 08BD     		pop	{r3, pc}
 423              	.LVL25:
 424              	.L35:
 425              		.loc 1 196 0
 426 0010 02F00201 		and	r1, r2, #2
 427              	.LVL26:
 428 0014 89B2     		uxth	r1, r1
 429 0016 0029     		cmp	r1, #0
 430 0018 F9D0     		beq	.L34
 431              		.loc 1 199 0
 432 001a 0949     		ldr	r1, .L41
 433 001c 0968     		ldr	r1, [r1, #0]
 434 001e 0968     		ldr	r1, [r1, #0]
 435              		.loc 1 197 0
 436 0020 22F00202 		bic	r2, r2, #2
 437 0024 8282     		strh	r2, [r0, #20]	@ movhi
 438              		.loc 1 199 0
 439 0026 0B69     		ldr	r3, [r1, #16]
 440 0028 9847     		blx	r3
 441              	.LVL27:
 442 002a 08BD     		pop	{r3, pc}
 443              	.LVL28:
 444              	.L40:
 445              		.loc 1 190 0
 446 002c 0449     		ldr	r1, .L41
 447 002e 0968     		ldr	r1, [r1, #0]
 448 0030 0968     		ldr	r1, [r1, #0]
 449              		.loc 1 188 0
 450 0032 42F00202 		orr	r2, r2, #2
 451 0036 8282     		strh	r2, [r0, #20]	@ movhi
 452              		.loc 1 190 0
 453 0038 0B69     		ldr	r3, [r1, #16]
ARM GAS  /tmp/ccU9hxbc.s 			page 9


 454 003a 9847     		blx	r3
 455              	.LVL29:
 456 003c 08BD     		pop	{r3, pc}
 457              	.L42:
 458 003e 00BF     		.align	2
 459              	.L41:
 460 0040 00000000 		.word	_GWINwm
 461              		.cfi_endproc
 462              	.LFE129:
 463              		.size	gwinSetVisible, .-gwinSetVisible
 464 0044 AFF30080 		.section	.text.gwinWindowCreate,"ax",%progbits
 464      AFF30080 
 464      AFF30080 
 465              		.align	2
 466              		.p2align 4,,15
 467              		.global	gwinWindowCreate
 468              		.thumb
 469              		.thumb_func
 470              		.type	gwinWindowCreate, %function
 471              	gwinWindowCreate:
 472              	.LFB126:
 473              		.loc 1 157 0
 474              		.cfi_startproc
 475              		@ args = 0, pretend = 0, frame = 0
 476              		@ frame_needed = 0, uses_anonymous_args = 0
 477              	.LVL30:
 478 0000 38B5     		push	{r3, r4, r5, lr}
 479              	.LCFI5:
 480              		.cfi_def_cfa_offset 16
 481              		.cfi_offset 3, -16
 482              		.cfi_offset 4, -12
 483              		.cfi_offset 5, -8
 484              		.cfi_offset 14, -4
 485              		.loc 1 158 0
 486 0002 064A     		ldr	r2, .L48
 487 0004 0023     		movs	r3, #0
 488              		.loc 1 157 0
 489 0006 0D46     		mov	r5, r1
 490              		.loc 1 158 0
 491 0008 FFF7FEFF 		bl	_gwindowCreate
 492              	.LVL31:
 493 000c 0446     		mov	r4, r0
 494 000e 10B1     		cbz	r0, .L44
 495              		.loc 1 160 0
 496 0010 297A     		ldrb	r1, [r5, #8]	@ zero_extendqisi2
 497 0012 FFF7FEFF 		bl	gwinSetVisible
 498              	.LVL32:
 499              	.L44:
 500              		.loc 1 162 0
 501 0016 2046     		mov	r0, r4
 502 0018 38BD     		pop	{r3, r4, r5, pc}
 503              	.L49:
 504 001a 00BF     		.align	2
 505              	.L48:
 506 001c 00000000 		.word	.LANCHOR3
 507              		.cfi_endproc
 508              	.LFE126:
ARM GAS  /tmp/ccU9hxbc.s 			page 10


 509              		.size	gwinWindowCreate, .-gwinWindowCreate
 510              		.section	.text.gwinGetVisible,"ax",%progbits
 511              		.align	2
 512              		.p2align 4,,15
 513              		.global	gwinGetVisible
 514              		.thumb
 515              		.thumb_func
 516              		.type	gwinGetVisible, %function
 517              	gwinGetVisible:
 518              	.LFB130:
 519              		.loc 1 205 0
 520              		.cfi_startproc
 521              		@ args = 0, pretend = 0, frame = 0
 522              		@ frame_needed = 0, uses_anonymous_args = 0
 523              		@ link register save eliminated.
 524              	.LVL33:
 525              		.loc 1 206 0
 526 0000 808A     		ldrh	r0, [r0, #20]
 527              	.LVL34:
 528              		.loc 1 207 0
 529 0002 C0F34000 		ubfx	r0, r0, #1, #1
 530 0006 7047     		bx	lr
 531              		.cfi_endproc
 532              	.LFE130:
 533              		.size	gwinGetVisible, .-gwinGetVisible
 534 0008 AFF30080 		.section	.text.gwinSetEnabled,"ax",%progbits
 534      AFF30080 
 535              		.align	2
 536              		.p2align 4,,15
 537              		.global	gwinSetEnabled
 538              		.thumb
 539              		.thumb_func
 540              		.type	gwinSetEnabled, %function
 541              	gwinSetEnabled:
 542              	.LFB131:
 543              		.loc 1 209 0
 544              		.cfi_startproc
 545              		@ args = 0, pretend = 0, frame = 0
 546              		@ frame_needed = 0, uses_anonymous_args = 0
 547              	.LVL35:
 548              		.loc 1 211 0
 549 0000 838A     		ldrh	r3, [r0, #20]
 550 0002 03F01002 		and	r2, r3, #16
 551              		.loc 1 209 0
 552 0006 10B5     		push	{r4, lr}
 553              	.LCFI6:
 554              		.cfi_def_cfa_offset 8
 555              		.cfi_offset 4, -8
 556              		.cfi_offset 14, -4
 557              		.loc 1 209 0
 558 0008 0446     		mov	r4, r0
 559              		.loc 1 211 0
 560 000a 90B2     		uxth	r0, r2
 561              	.LVL36:
 562              		.loc 1 210 0
 563 000c C9B1     		cbz	r1, .L52
 564              		.loc 1 211 0
ARM GAS  /tmp/ccU9hxbc.s 			page 11


 565 000e B8B9     		cbnz	r0, .L51
 566              		.loc 1 213 0
 567 0010 03F00200 		and	r0, r3, #2
 568              		.loc 1 212 0
 569 0014 43F01001 		orr	r1, r3, #16
 570              	.LVL37:
 571              		.loc 1 213 0
 572 0018 83B2     		uxth	r3, r0
 573              		.loc 1 212 0
 574 001a A182     		strh	r1, [r4, #20]	@ movhi
 575              		.loc 1 213 0
 576 001c 83B1     		cbz	r3, .L51
 577              	.L73:
 578              		.loc 1 223 0 discriminator 1
 579 001e 6268     		ldr	r2, [r4, #4]
 580 0020 D068     		ldr	r0, [r2, #12]
 581 0022 68B1     		cbz	r0, .L51
 582              		.loc 1 225 0
 583 0024 B4F90800 		ldrsh	r0, [r4, #8]
 584 0028 B4F90A10 		ldrsh	r1, [r4, #10]
 585 002c B4F90E30 		ldrsh	r3, [r4, #14]
 586 0030 B4F90C20 		ldrsh	r2, [r4, #12]
 587 0034 FFF7FEFF 		bl	gdispSetClip
 588              	.LVL38:
 589              		.loc 1 227 0
 590 0038 6168     		ldr	r1, [r4, #4]
 591 003a 2046     		mov	r0, r4
 592 003c CB68     		ldr	r3, [r1, #12]
 593 003e 9847     		blx	r3
 594              	.LVL39:
 595              	.L51:
 596 0040 10BD     		pop	{r4, pc}
 597              	.LVL40:
 598              	.L52:
 599              		.loc 1 221 0
 600 0042 0028     		cmp	r0, #0
 601 0044 FCD0     		beq	.L51
 602              		.loc 1 223 0
 603 0046 03F00201 		and	r1, r3, #2
 604              	.LVL41:
 605 004a 8AB2     		uxth	r2, r1
 606              		.loc 1 222 0
 607 004c 23F01003 		bic	r3, r3, #16
 608 0050 A382     		strh	r3, [r4, #20]	@ movhi
 609              		.loc 1 223 0
 610 0052 002A     		cmp	r2, #0
 611 0054 E3D1     		bne	.L73
 612 0056 10BD     		pop	{r4, pc}
 613              		.cfi_endproc
 614              	.LFE131:
 615              		.size	gwinSetEnabled, .-gwinSetEnabled
 616 0058 AFF30080 		.section	.text.gwinGetEnabled,"ax",%progbits
 616      AFF30080 
 617              		.align	2
 618              		.p2align 4,,15
 619              		.global	gwinGetEnabled
 620              		.thumb
ARM GAS  /tmp/ccU9hxbc.s 			page 12


 621              		.thumb_func
 622              		.type	gwinGetEnabled, %function
 623              	gwinGetEnabled:
 624              	.LFB132:
 625              		.loc 1 233 0
 626              		.cfi_startproc
 627              		@ args = 0, pretend = 0, frame = 0
 628              		@ frame_needed = 0, uses_anonymous_args = 0
 629              		@ link register save eliminated.
 630              	.LVL42:
 631              		.loc 1 234 0
 632 0000 808A     		ldrh	r0, [r0, #20]
 633              	.LVL43:
 634              		.loc 1 235 0
 635 0002 C0F30010 		ubfx	r0, r0, #4, #1
 636 0006 7047     		bx	lr
 637              		.cfi_endproc
 638              	.LFE132:
 639              		.size	gwinGetEnabled, .-gwinGetEnabled
 640 0008 AFF30080 		.section	.text.gwinMove,"ax",%progbits
 640      AFF30080 
 641              		.align	2
 642              		.p2align 4,,15
 643              		.global	gwinMove
 644              		.thumb
 645              		.thumb_func
 646              		.type	gwinMove, %function
 647              	gwinMove:
 648              	.LFB133:
 649              		.loc 1 237 0
 650              		.cfi_startproc
 651              		@ args = 0, pretend = 0, frame = 0
 652              		@ frame_needed = 0, uses_anonymous_args = 0
 653              	.LVL44:
 654 0000 70B5     		push	{r4, r5, r6, lr}
 655              	.LCFI7:
 656              		.cfi_def_cfa_offset 16
 657              		.cfi_offset 4, -16
 658              		.cfi_offset 5, -12
 659              		.cfi_offset 6, -8
 660              		.cfi_offset 14, -4
 661              		.loc 1 239 0
 662 0002 40F20003 		movw	r3, #:lower16:_GWINwm
 663 0006 C0F20003 		movt	r3, #:upper16:_GWINwm
 664              		.loc 1 237 0
 665 000a 82B0     		sub	sp, sp, #8
 666              	.LCFI8:
 667              		.cfi_def_cfa_offset 24
 668              		.loc 1 239 0
 669 000c 1D68     		ldr	r5, [r3, #0]
 670 000e B0F90E60 		ldrsh	r6, [r0, #14]
 671 0012 2D68     		ldr	r5, [r5, #0]
 672 0014 0096     		str	r6, [sp, #0]
 673 0016 B0F90C30 		ldrsh	r3, [r0, #12]
 674 001a 6C69     		ldr	r4, [r5, #20]
 675 001c A047     		blx	r4
 676              	.LVL45:
ARM GAS  /tmp/ccU9hxbc.s 			page 13


 677              		.loc 1 243 0
 678 001e 02B0     		add	sp, sp, #8
 679 0020 70BD     		pop	{r4, r5, r6, pc}
 680              		.cfi_endproc
 681              	.LFE133:
 682              		.size	gwinMove, .-gwinMove
 683 0022 00BFAFF3 		.section	.text.gwinResize,"ax",%progbits
 683      0080AFF3 
 683      0080AFF3 
 683      0080
 684              		.align	2
 685              		.p2align 4,,15
 686              		.global	gwinResize
 687              		.thumb
 688              		.thumb_func
 689              		.type	gwinResize, %function
 690              	gwinResize:
 691              	.LFB134:
 692              		.loc 1 245 0
 693              		.cfi_startproc
 694              		@ args = 0, pretend = 0, frame = 0
 695              		@ frame_needed = 0, uses_anonymous_args = 0
 696              	.LVL46:
 697 0000 F0B5     		push	{r4, r5, r6, r7, lr}
 698              	.LCFI9:
 699              		.cfi_def_cfa_offset 20
 700              		.cfi_offset 4, -20
 701              		.cfi_offset 5, -16
 702              		.cfi_offset 6, -12
 703              		.cfi_offset 7, -8
 704              		.cfi_offset 14, -4
 705              		.loc 1 247 0
 706 0002 40F20003 		movw	r3, #:lower16:_GWINwm
 707 0006 C0F20003 		movt	r3, #:upper16:_GWINwm
 708              		.loc 1 245 0
 709 000a 83B0     		sub	sp, sp, #12
 710              	.LCFI10:
 711              		.cfi_def_cfa_offset 32
 712              		.loc 1 247 0
 713 000c 1D68     		ldr	r5, [r3, #0]
 714 000e B0F90860 		ldrsh	r6, [r0, #8]
 715 0012 2F68     		ldr	r7, [r5, #0]
 716 0014 B0F90A50 		ldrsh	r5, [r0, #10]
 717 0018 0092     		str	r2, [sp, #0]
 718              		.loc 1 245 0
 719 001a 0B46     		mov	r3, r1
 720              		.loc 1 247 0
 721 001c 7C69     		ldr	r4, [r7, #20]
 722 001e 3146     		mov	r1, r6
 723              	.LVL47:
 724 0020 2A46     		mov	r2, r5
 725              	.LVL48:
 726 0022 A047     		blx	r4
 727              	.LVL49:
 728              		.loc 1 251 0
 729 0024 03B0     		add	sp, sp, #12
 730 0026 F0BD     		pop	{r4, r5, r6, r7, pc}
ARM GAS  /tmp/ccU9hxbc.s 			page 14


 731              		.cfi_endproc
 732              	.LFE134:
 733              		.size	gwinResize, .-gwinResize
 734 0028 AFF30080 		.section	.text.gwinRedraw,"ax",%progbits
 734      AFF30080 
 735              		.align	2
 736              		.p2align 4,,15
 737              		.global	gwinRedraw
 738              		.thumb
 739              		.thumb_func
 740              		.type	gwinRedraw, %function
 741              	gwinRedraw:
 742              	.LFB135:
 743              		.loc 1 253 0
 744              		.cfi_startproc
 745              		@ args = 0, pretend = 0, frame = 0
 746              		@ frame_needed = 0, uses_anonymous_args = 0
 747              		@ link register save eliminated.
 748              	.LVL50:
 749              		.loc 1 260 0
 750              		.loc 1 255 0
 751 0000 FFF7FEBF 		b	gwinRaise
 752              	.LVL51:
 753              		.cfi_endproc
 754              	.LFE135:
 755              		.size	gwinRedraw, .-gwinRedraw
 756 0004 AFF30080 		.section	.text.gwinSetFont,"ax",%progbits
 756      AFF30080 
 756      AFF30080 
 757              		.align	2
 758              		.p2align 4,,15
 759              		.global	gwinSetFont
 760              		.thumb
 761              		.thumb_func
 762              		.type	gwinSetFont, %function
 763              	gwinSetFont:
 764              	.LFB136:
 765              		.loc 1 263 0
 766              		.cfi_startproc
 767              		@ args = 0, pretend = 0, frame = 0
 768              		@ frame_needed = 0, uses_anonymous_args = 0
 769              		@ link register save eliminated.
 770              	.LVL52:
 771              		.loc 1 264 0
 772 0000 8161     		str	r1, [r0, #24]
 773 0002 7047     		bx	lr
 774              		.cfi_endproc
 775              	.LFE136:
 776              		.size	gwinSetFont, .-gwinSetFont
 777 0004 AFF30080 		.section	.text.gwinClear,"ax",%progbits
 777      AFF30080 
 777      AFF30080 
 778              		.align	2
 779              		.p2align 4,,15
 780              		.global	gwinClear
 781              		.thumb
 782              		.thumb_func
ARM GAS  /tmp/ccU9hxbc.s 			page 15


 783              		.type	gwinClear, %function
 784              	gwinClear:
 785              	.LFB137:
 786              		.loc 1 268 0
 787              		.cfi_startproc
 788              		@ args = 0, pretend = 0, frame = 0
 789              		@ frame_needed = 0, uses_anonymous_args = 0
 790              	.LVL53:
 791 0000 30B5     		push	{r4, r5, lr}
 792              	.LCFI11:
 793              		.cfi_def_cfa_offset 12
 794              		.cfi_offset 4, -12
 795              		.cfi_offset 5, -8
 796              		.cfi_offset 14, -4
 797              		.loc 1 269 0
 798 0002 838A     		ldrh	r3, [r0, #20]
 799              		.loc 1 268 0
 800 0004 0446     		mov	r4, r0
 801              		.loc 1 269 0
 802 0006 03F00200 		and	r0, r3, #2
 803              	.LVL54:
 804 000a 81B2     		uxth	r1, r0
 805              		.loc 1 268 0
 806 000c 83B0     		sub	sp, sp, #12
 807              	.LCFI12:
 808              		.cfi_def_cfa_offset 24
 809              		.loc 1 269 0
 810 000e 09B9     		cbnz	r1, .L87
 811              	.L80:
 812              		.loc 1 278 0
 813 0010 03B0     		add	sp, sp, #12
 814 0012 30BD     		pop	{r4, r5, pc}
 815              	.L87:
 816              		.loc 1 273 0
 817 0014 B4F90800 		ldrsh	r0, [r4, #8]
 818 0018 B4F90A10 		ldrsh	r1, [r4, #10]
 819 001c B4F90C20 		ldrsh	r2, [r4, #12]
 820 0020 B4F90E30 		ldrsh	r3, [r4, #14]
 821 0024 FFF7FEFF 		bl	gdispSetClip
 822              	.LVL55:
 823              		.loc 1 275 0
 824 0028 658A     		ldrh	r5, [r4, #18]
 825 002a B4F90C20 		ldrsh	r2, [r4, #12]
 826 002e B4F90E30 		ldrsh	r3, [r4, #14]
 827 0032 B4F90800 		ldrsh	r0, [r4, #8]
 828 0036 B4F90A10 		ldrsh	r1, [r4, #10]
 829 003a 0095     		str	r5, [sp, #0]
 830 003c FFF7FEFF 		bl	gdispFillArea
 831              	.LVL56:
 832              		.loc 1 276 0
 833 0040 6268     		ldr	r2, [r4, #4]
 834 0042 1369     		ldr	r3, [r2, #16]
 835 0044 002B     		cmp	r3, #0
 836 0046 E3D0     		beq	.L80
 837              		.loc 1 277 0
 838 0048 2046     		mov	r0, r4
 839 004a 9847     		blx	r3
ARM GAS  /tmp/ccU9hxbc.s 			page 16


 840              	.LVL57:
 841 004c E0E7     		b	.L80
 842              		.cfi_endproc
 843              	.LFE137:
 844              		.size	gwinClear, .-gwinClear
 845 004e 00BF     		.section	.text.gwinDrawPixel,"ax",%progbits
 846              		.align	2
 847              		.p2align 4,,15
 848              		.global	gwinDrawPixel
 849              		.thumb
 850              		.thumb_func
 851              		.type	gwinDrawPixel, %function
 852              	gwinDrawPixel:
 853              	.LFB138:
 854              		.loc 1 280 0
 855              		.cfi_startproc
 856              		@ args = 0, pretend = 0, frame = 0
 857              		@ frame_needed = 0, uses_anonymous_args = 0
 858              	.LVL58:
 859              		.loc 1 281 0
 860 0000 838A     		ldrh	r3, [r0, #20]
 861              		.loc 1 280 0
 862 0002 70B5     		push	{r4, r5, r6, lr}
 863              	.LCFI13:
 864              		.cfi_def_cfa_offset 16
 865              		.cfi_offset 4, -16
 866              		.cfi_offset 5, -12
 867              		.cfi_offset 6, -8
 868              		.cfi_offset 14, -4
 869              		.loc 1 280 0
 870 0004 0446     		mov	r4, r0
 871              		.loc 1 281 0
 872 0006 03F00200 		and	r0, r3, #2
 873              	.LVL59:
 874              		.loc 1 280 0
 875 000a 0E46     		mov	r6, r1
 876              		.loc 1 281 0
 877 000c 81B2     		uxth	r1, r0
 878              	.LVL60:
 879              		.loc 1 280 0
 880 000e 1546     		mov	r5, r2
 881              		.loc 1 281 0
 882 0010 01B9     		cbnz	r1, .L90
 883 0012 70BD     		pop	{r4, r5, r6, pc}
 884              	.L90:
 885              		.loc 1 285 0
 886 0014 B4F90800 		ldrsh	r0, [r4, #8]
 887 0018 B4F90A10 		ldrsh	r1, [r4, #10]
 888 001c B4F90C20 		ldrsh	r2, [r4, #12]
 889              	.LVL61:
 890 0020 B4F90E30 		ldrsh	r3, [r4, #14]
 891 0024 FFF7FEFF 		bl	gdispSetClip
 892              	.LVL62:
 893              		.loc 1 287 0
 894 0028 2089     		ldrh	r0, [r4, #8]
 895 002a 6389     		ldrh	r3, [r4, #10]
 896 002c 228A     		ldrh	r2, [r4, #16]
ARM GAS  /tmp/ccU9hxbc.s 			page 17


 897 002e 3018     		adds	r0, r6, r0
 898 0030 E918     		adds	r1, r5, r3
 899 0032 00B2     		sxth	r0, r0
 900 0034 09B2     		sxth	r1, r1
 901              		.loc 1 288 0
 902 0036 BDE87040 		pop	{r4, r5, r6, lr}
 903              		.loc 1 287 0
 904 003a FFF7FEBF 		b	gdispDrawPixel
 905              	.LVL63:
 906              		.cfi_endproc
 907              	.LFE138:
 908              		.size	gwinDrawPixel, .-gwinDrawPixel
 909 003e 00BF     		.section	.text.gwinDrawLine,"ax",%progbits
 910              		.align	2
 911              		.p2align 4,,15
 912              		.global	gwinDrawLine
 913              		.thumb
 914              		.thumb_func
 915              		.type	gwinDrawLine, %function
 916              	gwinDrawLine:
 917              	.LFB139:
 918              		.loc 1 290 0
 919              		.cfi_startproc
 920              		@ args = 4, pretend = 0, frame = 0
 921              		@ frame_needed = 0, uses_anonymous_args = 0
 922              	.LVL64:
 923 0000 2DE9F047 		push	{r4, r5, r6, r7, r8, r9, sl, lr}
 924              	.LCFI14:
 925              		.cfi_def_cfa_offset 32
 926              		.cfi_offset 4, -32
 927              		.cfi_offset 5, -28
 928              		.cfi_offset 6, -24
 929              		.cfi_offset 7, -20
 930              		.cfi_offset 8, -16
 931              		.cfi_offset 9, -12
 932              		.cfi_offset 10, -8
 933              		.cfi_offset 14, -4
 934              		.loc 1 291 0
 935 0004 858A     		ldrh	r5, [r0, #20]
 936              		.loc 1 290 0
 937 0006 BDF92060 		ldrsh	r6, [sp, #32]
 938 000a 0446     		mov	r4, r0
 939              		.loc 1 291 0
 940 000c 05F00200 		and	r0, r5, #2
 941              	.LVL65:
 942 0010 85B2     		uxth	r5, r0
 943              		.loc 1 290 0
 944 0012 8946     		mov	r9, r1
 945 0014 9046     		mov	r8, r2
 946 0016 1F46     		mov	r7, r3
 947              		.loc 1 291 0
 948 0018 0DB9     		cbnz	r5, .L93
 949 001a BDE8F087 		pop	{r4, r5, r6, r7, r8, r9, sl, pc}
 950              	.L93:
 951              		.loc 1 295 0
 952 001e B4F90800 		ldrsh	r0, [r4, #8]
 953 0022 B4F90A10 		ldrsh	r1, [r4, #10]
ARM GAS  /tmp/ccU9hxbc.s 			page 18


 954              	.LVL66:
 955 0026 B4F90C20 		ldrsh	r2, [r4, #12]
 956              	.LVL67:
 957 002a B4F90E30 		ldrsh	r3, [r4, #14]
 958              	.LVL68:
 959 002e FFF7FEFF 		bl	gdispSetClip
 960              	.LVL69:
 961              		.loc 1 297 0
 962 0032 2289     		ldrh	r2, [r4, #8]
 963 0034 6389     		ldrh	r3, [r4, #10]
 964 0036 248A     		ldrh	r4, [r4, #16]
 965              	.LVL70:
 966 0038 02EB0900 		add	r0, r2, r9
 967 003c 03EB0801 		add	r1, r3, r8
 968 0040 D219     		adds	r2, r2, r7
 969 0042 9B19     		adds	r3, r3, r6
 970 0044 00B2     		sxth	r0, r0
 971 0046 09B2     		sxth	r1, r1
 972 0048 12B2     		sxth	r2, r2
 973 004a 1BB2     		sxth	r3, r3
 974 004c 0894     		str	r4, [sp, #32]
 975              		.loc 1 298 0
 976 004e BDE8F047 		pop	{r4, r5, r6, r7, r8, r9, sl, lr}
 977              		.loc 1 297 0
 978 0052 FFF7FEBF 		b	gdispDrawLine
 979              	.LVL71:
 980              		.cfi_endproc
 981              	.LFE139:
 982              		.size	gwinDrawLine, .-gwinDrawLine
 983 0056 00BFAFF3 		.section	.text.gwinDrawBox,"ax",%progbits
 983      0080AFF3 
 983      0080
 984              		.align	2
 985              		.p2align 4,,15
 986              		.global	gwinDrawBox
 987              		.thumb
 988              		.thumb_func
 989              		.type	gwinDrawBox, %function
 990              	gwinDrawBox:
 991              	.LFB140:
 992              		.loc 1 300 0
 993              		.cfi_startproc
 994              		@ args = 4, pretend = 0, frame = 0
 995              		@ frame_needed = 0, uses_anonymous_args = 0
 996              	.LVL72:
 997 0000 2DE9F047 		push	{r4, r5, r6, r7, r8, r9, sl, lr}
 998              	.LCFI15:
 999              		.cfi_def_cfa_offset 32
 1000              		.cfi_offset 4, -32
 1001              		.cfi_offset 5, -28
 1002              		.cfi_offset 6, -24
 1003              		.cfi_offset 7, -20
 1004              		.cfi_offset 8, -16
 1005              		.cfi_offset 9, -12
 1006              		.cfi_offset 10, -8
 1007              		.cfi_offset 14, -4
 1008              		.loc 1 301 0
ARM GAS  /tmp/ccU9hxbc.s 			page 19


 1009 0004 858A     		ldrh	r5, [r0, #20]
 1010              		.loc 1 300 0
 1011 0006 BDF92060 		ldrsh	r6, [sp, #32]
 1012 000a 0446     		mov	r4, r0
 1013              		.loc 1 301 0
 1014 000c 05F00200 		and	r0, r5, #2
 1015              	.LVL73:
 1016 0010 85B2     		uxth	r5, r0
 1017              		.loc 1 300 0
 1018 0012 8946     		mov	r9, r1
 1019 0014 9046     		mov	r8, r2
 1020 0016 1F46     		mov	r7, r3
 1021              		.loc 1 301 0
 1022 0018 0DB9     		cbnz	r5, .L96
 1023 001a BDE8F087 		pop	{r4, r5, r6, r7, r8, r9, sl, pc}
 1024              	.L96:
 1025              		.loc 1 305 0
 1026 001e B4F90800 		ldrsh	r0, [r4, #8]
 1027 0022 B4F90A10 		ldrsh	r1, [r4, #10]
 1028              	.LVL74:
 1029 0026 B4F90C20 		ldrsh	r2, [r4, #12]
 1030              	.LVL75:
 1031 002a B4F90E30 		ldrsh	r3, [r4, #14]
 1032              	.LVL76:
 1033 002e FFF7FEFF 		bl	gdispSetClip
 1034              	.LVL77:
 1035              		.loc 1 307 0
 1036 0032 2189     		ldrh	r1, [r4, #8]
 1037 0034 6289     		ldrh	r2, [r4, #10]
 1038 0036 238A     		ldrh	r3, [r4, #16]
 1039 0038 09EB0100 		add	r0, r9, r1
 1040 003c 08EB0201 		add	r1, r8, r2
 1041 0040 0893     		str	r3, [sp, #32]
 1042 0042 00B2     		sxth	r0, r0
 1043 0044 09B2     		sxth	r1, r1
 1044 0046 3A46     		mov	r2, r7
 1045 0048 3346     		mov	r3, r6
 1046              		.loc 1 308 0
 1047 004a BDE8F047 		pop	{r4, r5, r6, r7, r8, r9, sl, lr}
 1048              		.loc 1 307 0
 1049 004e FFF7FEBF 		b	gdispDrawBox
 1050              	.LVL78:
 1051              		.cfi_endproc
 1052              	.LFE140:
 1053              		.size	gwinDrawBox, .-gwinDrawBox
 1054 0052 00BFAFF3 		.section	.text.gwinFillArea,"ax",%progbits
 1054      0080AFF3 
 1054      0080AFF3 
 1054      0080
 1055              		.align	2
 1056              		.p2align 4,,15
 1057              		.global	gwinFillArea
 1058              		.thumb
 1059              		.thumb_func
 1060              		.type	gwinFillArea, %function
 1061              	gwinFillArea:
 1062              	.LFB141:
ARM GAS  /tmp/ccU9hxbc.s 			page 20


 1063              		.loc 1 310 0
 1064              		.cfi_startproc
 1065              		@ args = 4, pretend = 0, frame = 0
 1066              		@ frame_needed = 0, uses_anonymous_args = 0
 1067              	.LVL79:
 1068 0000 2DE9F047 		push	{r4, r5, r6, r7, r8, r9, sl, lr}
 1069              	.LCFI16:
 1070              		.cfi_def_cfa_offset 32
 1071              		.cfi_offset 4, -32
 1072              		.cfi_offset 5, -28
 1073              		.cfi_offset 6, -24
 1074              		.cfi_offset 7, -20
 1075              		.cfi_offset 8, -16
 1076              		.cfi_offset 9, -12
 1077              		.cfi_offset 10, -8
 1078              		.cfi_offset 14, -4
 1079              		.loc 1 311 0
 1080 0004 858A     		ldrh	r5, [r0, #20]
 1081              		.loc 1 310 0
 1082 0006 BDF92060 		ldrsh	r6, [sp, #32]
 1083 000a 0446     		mov	r4, r0
 1084              		.loc 1 311 0
 1085 000c 05F00200 		and	r0, r5, #2
 1086              	.LVL80:
 1087 0010 85B2     		uxth	r5, r0
 1088              		.loc 1 310 0
 1089 0012 8946     		mov	r9, r1
 1090 0014 9046     		mov	r8, r2
 1091 0016 1F46     		mov	r7, r3
 1092              		.loc 1 311 0
 1093 0018 0DB9     		cbnz	r5, .L99
 1094 001a BDE8F087 		pop	{r4, r5, r6, r7, r8, r9, sl, pc}
 1095              	.L99:
 1096              		.loc 1 315 0
 1097 001e B4F90800 		ldrsh	r0, [r4, #8]
 1098 0022 B4F90A10 		ldrsh	r1, [r4, #10]
 1099              	.LVL81:
 1100 0026 B4F90C20 		ldrsh	r2, [r4, #12]
 1101              	.LVL82:
 1102 002a B4F90E30 		ldrsh	r3, [r4, #14]
 1103              	.LVL83:
 1104 002e FFF7FEFF 		bl	gdispSetClip
 1105              	.LVL84:
 1106              		.loc 1 317 0
 1107 0032 2189     		ldrh	r1, [r4, #8]
 1108 0034 6289     		ldrh	r2, [r4, #10]
 1109 0036 238A     		ldrh	r3, [r4, #16]
 1110 0038 09EB0100 		add	r0, r9, r1
 1111 003c 08EB0201 		add	r1, r8, r2
 1112 0040 0893     		str	r3, [sp, #32]
 1113 0042 00B2     		sxth	r0, r0
 1114 0044 09B2     		sxth	r1, r1
 1115 0046 3A46     		mov	r2, r7
 1116 0048 3346     		mov	r3, r6
 1117              		.loc 1 318 0
 1118 004a BDE8F047 		pop	{r4, r5, r6, r7, r8, r9, sl, lr}
 1119              		.loc 1 317 0
ARM GAS  /tmp/ccU9hxbc.s 			page 21


 1120 004e FFF7FEBF 		b	gdispFillArea
 1121              	.LVL85:
 1122              		.cfi_endproc
 1123              	.LFE141:
 1124              		.size	gwinFillArea, .-gwinFillArea
 1125 0052 00BFAFF3 		.section	.text.gwinBlitArea,"ax",%progbits
 1125      0080AFF3 
 1125      0080AFF3 
 1125      0080
 1126              		.align	2
 1127              		.p2align 4,,15
 1128              		.global	gwinBlitArea
 1129              		.thumb
 1130              		.thumb_func
 1131              		.type	gwinBlitArea, %function
 1132              	gwinBlitArea:
 1133              	.LFB142:
 1134              		.loc 1 320 0
 1135              		.cfi_startproc
 1136              		@ args = 20, pretend = 0, frame = 8
 1137              		@ frame_needed = 0, uses_anonymous_args = 0
 1138              	.LVL86:
 1139 0000 2DE9F04F 		push	{r4, r5, r6, r7, r8, r9, sl, fp, lr}
 1140              	.LCFI17:
 1141              		.cfi_def_cfa_offset 36
 1142              		.cfi_offset 4, -36
 1143              		.cfi_offset 5, -32
 1144              		.cfi_offset 6, -28
 1145              		.cfi_offset 7, -24
 1146              		.cfi_offset 8, -20
 1147              		.cfi_offset 9, -16
 1148              		.cfi_offset 10, -12
 1149              		.cfi_offset 11, -8
 1150              		.cfi_offset 14, -4
 1151 0004 8B46     		mov	fp, r1
 1152              		.loc 1 321 0
 1153 0006 818A     		ldrh	r1, [r0, #20]
 1154              	.LVL87:
 1155              		.loc 1 320 0
 1156 0008 83B0     		sub	sp, sp, #12
 1157              	.LCFI18:
 1158              		.cfi_def_cfa_offset 48
 1159              		.loc 1 320 0
 1160 000a 0446     		mov	r4, r0
 1161              		.loc 1 321 0
 1162 000c 01F00200 		and	r0, r1, #2
 1163              	.LVL88:
 1164 0010 81B2     		uxth	r1, r0
 1165              		.loc 1 320 0
 1166 0012 BDF93050 		ldrsh	r5, [sp, #48]
 1167 0016 BDF934C0 		ldrsh	ip, [sp, #52]
 1168 001a BDF93890 		ldrsh	r9, [sp, #56]
 1169 001e BDF93C80 		ldrsh	r8, [sp, #60]
 1170 0022 109F     		ldr	r7, [sp, #64]
 1171 0024 9246     		mov	sl, r2
 1172 0026 1E46     		mov	r6, r3
 1173              		.loc 1 321 0
ARM GAS  /tmp/ccU9hxbc.s 			page 22


 1174 0028 11B9     		cbnz	r1, .L102
 1175              		.loc 1 328 0
 1176 002a 03B0     		add	sp, sp, #12
 1177 002c BDE8F08F 		pop	{r4, r5, r6, r7, r8, r9, sl, fp, pc}
 1178              	.L102:
 1179              		.loc 1 325 0
 1180 0030 B4F90800 		ldrsh	r0, [r4, #8]
 1181 0034 B4F90A10 		ldrsh	r1, [r4, #10]
 1182 0038 B4F90C20 		ldrsh	r2, [r4, #12]
 1183              	.LVL89:
 1184 003c B4F90E30 		ldrsh	r3, [r4, #14]
 1185              	.LVL90:
 1186 0040 CDF804C0 		str	ip, [sp, #4]
 1187 0044 FFF7FEFF 		bl	gdispSetClip
 1188              	.LVL91:
 1189              		.loc 1 327 0
 1190 0048 2289     		ldrh	r2, [r4, #8]
 1191 004a 6389     		ldrh	r3, [r4, #10]
 1192 004c DDF804C0 		ldr	ip, [sp, #4]
 1193 0050 CDF83490 		str	r9, [sp, #52]
 1194 0054 0BEB0200 		add	r0, fp, r2
 1195 0058 0AEB0301 		add	r1, sl, r3
 1196 005c 00B2     		sxth	r0, r0
 1197 005e 09B2     		sxth	r1, r1
 1198 0060 3246     		mov	r2, r6
 1199 0062 2B46     		mov	r3, r5
 1200 0064 CDF830C0 		str	ip, [sp, #48]
 1201 0068 CDF83880 		str	r8, [sp, #56]
 1202 006c 0F97     		str	r7, [sp, #60]
 1203              		.loc 1 328 0
 1204 006e 03B0     		add	sp, sp, #12
 1205 0070 BDE8F04F 		pop	{r4, r5, r6, r7, r8, r9, sl, fp, lr}
 1206              		.loc 1 327 0
 1207 0074 FFF7FEBF 		b	gdispBlitAreaEx
 1208              	.LVL92:
 1209              		.cfi_endproc
 1210              	.LFE142:
 1211              		.size	gwinBlitArea, .-gwinBlitArea
 1212 0078 AFF30080 		.section	.text.gwinDrawCircle,"ax",%progbits
 1212      AFF30080 
 1213              		.align	2
 1214              		.p2align 4,,15
 1215              		.global	gwinDrawCircle
 1216              		.thumb
 1217              		.thumb_func
 1218              		.type	gwinDrawCircle, %function
 1219              	gwinDrawCircle:
 1220              	.LFB143:
 1221              		.loc 1 331 0
 1222              		.cfi_startproc
 1223              		@ args = 0, pretend = 0, frame = 0
 1224              		@ frame_needed = 0, uses_anonymous_args = 0
 1225              	.LVL93:
 1226 0000 2DE9F041 		push	{r4, r5, r6, r7, r8, lr}
 1227              	.LCFI19:
 1228              		.cfi_def_cfa_offset 24
 1229              		.cfi_offset 4, -24
ARM GAS  /tmp/ccU9hxbc.s 			page 23


 1230              		.cfi_offset 5, -20
 1231              		.cfi_offset 6, -16
 1232              		.cfi_offset 7, -12
 1233              		.cfi_offset 8, -8
 1234              		.cfi_offset 14, -4
 1235              		.loc 1 332 0
 1236 0004 858A     		ldrh	r5, [r0, #20]
 1237              		.loc 1 331 0
 1238 0006 0446     		mov	r4, r0
 1239              		.loc 1 332 0
 1240 0008 05F00200 		and	r0, r5, #2
 1241              	.LVL94:
 1242 000c 85B2     		uxth	r5, r0
 1243              		.loc 1 331 0
 1244 000e 8846     		mov	r8, r1
 1245 0010 1746     		mov	r7, r2
 1246 0012 1E46     		mov	r6, r3
 1247              		.loc 1 332 0
 1248 0014 0DB9     		cbnz	r5, .L105
 1249 0016 BDE8F081 		pop	{r4, r5, r6, r7, r8, pc}
 1250              	.L105:
 1251              		.loc 1 336 0
 1252 001a B4F90800 		ldrsh	r0, [r4, #8]
 1253 001e B4F90A10 		ldrsh	r1, [r4, #10]
 1254              	.LVL95:
 1255 0022 B4F90C20 		ldrsh	r2, [r4, #12]
 1256              	.LVL96:
 1257 0026 B4F90E30 		ldrsh	r3, [r4, #14]
 1258              	.LVL97:
 1259 002a FFF7FEFF 		bl	gdispSetClip
 1260              	.LVL98:
 1261              		.loc 1 338 0
 1262 002e 2189     		ldrh	r1, [r4, #8]
 1263 0030 6289     		ldrh	r2, [r4, #10]
 1264 0032 238A     		ldrh	r3, [r4, #16]
 1265 0034 08EB0100 		add	r0, r8, r1
 1266 0038 B918     		adds	r1, r7, r2
 1267 003a 00B2     		sxth	r0, r0
 1268 003c 09B2     		sxth	r1, r1
 1269 003e 3246     		mov	r2, r6
 1270              		.loc 1 339 0
 1271 0040 BDE8F041 		pop	{r4, r5, r6, r7, r8, lr}
 1272              		.loc 1 338 0
 1273 0044 FFF7FEBF 		b	gdispDrawCircle
 1274              	.LVL99:
 1275              		.cfi_endproc
 1276              	.LFE143:
 1277              		.size	gwinDrawCircle, .-gwinDrawCircle
 1278 0048 AFF30080 		.section	.text.gwinFillCircle,"ax",%progbits
 1278      AFF30080 
 1279              		.align	2
 1280              		.p2align 4,,15
 1281              		.global	gwinFillCircle
 1282              		.thumb
 1283              		.thumb_func
 1284              		.type	gwinFillCircle, %function
 1285              	gwinFillCircle:
ARM GAS  /tmp/ccU9hxbc.s 			page 24


 1286              	.LFB144:
 1287              		.loc 1 341 0
 1288              		.cfi_startproc
 1289              		@ args = 0, pretend = 0, frame = 0
 1290              		@ frame_needed = 0, uses_anonymous_args = 0
 1291              	.LVL100:
 1292 0000 2DE9F041 		push	{r4, r5, r6, r7, r8, lr}
 1293              	.LCFI20:
 1294              		.cfi_def_cfa_offset 24
 1295              		.cfi_offset 4, -24
 1296              		.cfi_offset 5, -20
 1297              		.cfi_offset 6, -16
 1298              		.cfi_offset 7, -12
 1299              		.cfi_offset 8, -8
 1300              		.cfi_offset 14, -4
 1301              		.loc 1 342 0
 1302 0004 858A     		ldrh	r5, [r0, #20]
 1303              		.loc 1 341 0
 1304 0006 0446     		mov	r4, r0
 1305              		.loc 1 342 0
 1306 0008 05F00200 		and	r0, r5, #2
 1307              	.LVL101:
 1308 000c 85B2     		uxth	r5, r0
 1309              		.loc 1 341 0
 1310 000e 8846     		mov	r8, r1
 1311 0010 1746     		mov	r7, r2
 1312 0012 1E46     		mov	r6, r3
 1313              		.loc 1 342 0
 1314 0014 0DB9     		cbnz	r5, .L108
 1315 0016 BDE8F081 		pop	{r4, r5, r6, r7, r8, pc}
 1316              	.L108:
 1317              		.loc 1 346 0
 1318 001a B4F90800 		ldrsh	r0, [r4, #8]
 1319 001e B4F90A10 		ldrsh	r1, [r4, #10]
 1320              	.LVL102:
 1321 0022 B4F90C20 		ldrsh	r2, [r4, #12]
 1322              	.LVL103:
 1323 0026 B4F90E30 		ldrsh	r3, [r4, #14]
 1324              	.LVL104:
 1325 002a FFF7FEFF 		bl	gdispSetClip
 1326              	.LVL105:
 1327              		.loc 1 348 0
 1328 002e 2189     		ldrh	r1, [r4, #8]
 1329 0030 6289     		ldrh	r2, [r4, #10]
 1330 0032 238A     		ldrh	r3, [r4, #16]
 1331 0034 08EB0100 		add	r0, r8, r1
 1332 0038 B918     		adds	r1, r7, r2
 1333 003a 00B2     		sxth	r0, r0
 1334 003c 09B2     		sxth	r1, r1
 1335 003e 3246     		mov	r2, r6
 1336              		.loc 1 349 0
 1337 0040 BDE8F041 		pop	{r4, r5, r6, r7, r8, lr}
 1338              		.loc 1 348 0
 1339 0044 FFF7FEBF 		b	gdispFillCircle
 1340              	.LVL106:
 1341              		.cfi_endproc
 1342              	.LFE144:
ARM GAS  /tmp/ccU9hxbc.s 			page 25


 1343              		.size	gwinFillCircle, .-gwinFillCircle
 1344 0048 AFF30080 		.section	.text.gwinDrawChar,"ax",%progbits
 1344      AFF30080 
 1345              		.align	2
 1346              		.p2align 4,,15
 1347              		.global	gwinDrawChar
 1348              		.thumb
 1349              		.thumb_func
 1350              		.type	gwinDrawChar, %function
 1351              	gwinDrawChar:
 1352              	.LFB145:
 1353              		.loc 1 409 0
 1354              		.cfi_startproc
 1355              		@ args = 0, pretend = 0, frame = 0
 1356              		@ frame_needed = 0, uses_anonymous_args = 0
 1357              	.LVL107:
 1358 0000 2DE9F041 		push	{r4, r5, r6, r7, r8, lr}
 1359              	.LCFI21:
 1360              		.cfi_def_cfa_offset 24
 1361              		.cfi_offset 4, -24
 1362              		.cfi_offset 5, -20
 1363              		.cfi_offset 6, -16
 1364              		.cfi_offset 7, -12
 1365              		.cfi_offset 8, -8
 1366              		.cfi_offset 14, -4
 1367              		.loc 1 410 0
 1368 0004 858A     		ldrh	r5, [r0, #20]
 1369              		.loc 1 409 0
 1370 0006 0446     		mov	r4, r0
 1371              		.loc 1 410 0
 1372 0008 05F00200 		and	r0, r5, #2
 1373              	.LVL108:
 1374 000c 85B2     		uxth	r5, r0
 1375              		.loc 1 409 0
 1376 000e 82B0     		sub	sp, sp, #8
 1377              	.LCFI22:
 1378              		.cfi_def_cfa_offset 32
 1379              		.loc 1 409 0
 1380 0010 8846     		mov	r8, r1
 1381 0012 1746     		mov	r7, r2
 1382 0014 1E46     		mov	r6, r3
 1383              		.loc 1 410 0
 1384 0016 BDB1     		cbz	r5, .L109
 1385              		.loc 1 410 0 is_stmt 0 discriminator 1
 1386 0018 A369     		ldr	r3, [r4, #24]
 1387              	.LVL109:
 1388 001a ABB1     		cbz	r3, .L109
 1389              		.loc 1 414 0 is_stmt 1
 1390 001c B4F90800 		ldrsh	r0, [r4, #8]
 1391 0020 B4F90A10 		ldrsh	r1, [r4, #10]
 1392              	.LVL110:
 1393 0024 B4F90C20 		ldrsh	r2, [r4, #12]
 1394              	.LVL111:
 1395 0028 B4F90E30 		ldrsh	r3, [r4, #14]
 1396 002c FFF7FEFF 		bl	gdispSetClip
 1397              	.LVL112:
 1398              		.loc 1 416 0
ARM GAS  /tmp/ccU9hxbc.s 			page 26


 1399 0030 2089     		ldrh	r0, [r4, #8]
 1400 0032 6189     		ldrh	r1, [r4, #10]
 1401 0034 228A     		ldrh	r2, [r4, #16]
 1402 0036 A369     		ldr	r3, [r4, #24]
 1403 0038 0092     		str	r2, [sp, #0]
 1404 003a 4044     		add	r0, r8, r0
 1405 003c 7918     		adds	r1, r7, r1
 1406 003e 00B2     		sxth	r0, r0
 1407 0040 09B2     		sxth	r1, r1
 1408 0042 3246     		mov	r2, r6
 1409 0044 FFF7FEFF 		bl	gdispDrawChar
 1410              	.LVL113:
 1411              	.L109:
 1412              		.loc 1 417 0
 1413 0048 02B0     		add	sp, sp, #8
 1414 004a BDE8F081 		pop	{r4, r5, r6, r7, r8, pc}
 1415              		.cfi_endproc
 1416              	.LFE145:
 1417              		.size	gwinDrawChar, .-gwinDrawChar
 1418 004e 00BF     		.section	.text.gwinFillChar,"ax",%progbits
 1419              		.align	2
 1420              		.p2align 4,,15
 1421              		.global	gwinFillChar
 1422              		.thumb
 1423              		.thumb_func
 1424              		.type	gwinFillChar, %function
 1425              	gwinFillChar:
 1426              	.LFB146:
 1427              		.loc 1 419 0
 1428              		.cfi_startproc
 1429              		@ args = 0, pretend = 0, frame = 0
 1430              		@ frame_needed = 0, uses_anonymous_args = 0
 1431              	.LVL114:
 1432 0000 2DE9F041 		push	{r4, r5, r6, r7, r8, lr}
 1433              	.LCFI23:
 1434              		.cfi_def_cfa_offset 24
 1435              		.cfi_offset 4, -24
 1436              		.cfi_offset 5, -20
 1437              		.cfi_offset 6, -16
 1438              		.cfi_offset 7, -12
 1439              		.cfi_offset 8, -8
 1440              		.cfi_offset 14, -4
 1441              		.loc 1 420 0
 1442 0004 858A     		ldrh	r5, [r0, #20]
 1443              		.loc 1 419 0
 1444 0006 0446     		mov	r4, r0
 1445              		.loc 1 420 0
 1446 0008 05F00200 		and	r0, r5, #2
 1447              	.LVL115:
 1448 000c 85B2     		uxth	r5, r0
 1449              		.loc 1 419 0
 1450 000e 82B0     		sub	sp, sp, #8
 1451              	.LCFI24:
 1452              		.cfi_def_cfa_offset 32
 1453              		.loc 1 419 0
 1454 0010 8846     		mov	r8, r1
 1455 0012 1746     		mov	r7, r2
ARM GAS  /tmp/ccU9hxbc.s 			page 27


 1456 0014 1E46     		mov	r6, r3
 1457              		.loc 1 420 0
 1458 0016 CDB1     		cbz	r5, .L117
 1459              		.loc 1 420 0 is_stmt 0 discriminator 1
 1460 0018 A369     		ldr	r3, [r4, #24]
 1461              	.LVL116:
 1462 001a BBB1     		cbz	r3, .L117
 1463              		.loc 1 424 0 is_stmt 1
 1464 001c B4F90800 		ldrsh	r0, [r4, #8]
 1465 0020 B4F90A10 		ldrsh	r1, [r4, #10]
 1466              	.LVL117:
 1467 0024 B4F90C20 		ldrsh	r2, [r4, #12]
 1468              	.LVL118:
 1469 0028 B4F90E30 		ldrsh	r3, [r4, #14]
 1470 002c FFF7FEFF 		bl	gdispSetClip
 1471              	.LVL119:
 1472              		.loc 1 426 0
 1473 0030 2089     		ldrh	r0, [r4, #8]
 1474 0032 6189     		ldrh	r1, [r4, #10]
 1475 0034 628A     		ldrh	r2, [r4, #18]
 1476 0036 258A     		ldrh	r5, [r4, #16]
 1477 0038 A369     		ldr	r3, [r4, #24]
 1478 003a 0192     		str	r2, [sp, #4]
 1479 003c 4044     		add	r0, r8, r0
 1480 003e 7918     		adds	r1, r7, r1
 1481 0040 0095     		str	r5, [sp, #0]
 1482 0042 00B2     		sxth	r0, r0
 1483 0044 09B2     		sxth	r1, r1
 1484 0046 3246     		mov	r2, r6
 1485 0048 FFF7FEFF 		bl	gdispFillChar
 1486              	.LVL120:
 1487              	.L117:
 1488              		.loc 1 427 0
 1489 004c 02B0     		add	sp, sp, #8
 1490 004e BDE8F081 		pop	{r4, r5, r6, r7, r8, pc}
 1491              		.cfi_endproc
 1492              	.LFE146:
 1493              		.size	gwinFillChar, .-gwinFillChar
 1494 0052 00BFAFF3 		.section	.text.gwinDrawString,"ax",%progbits
 1494      0080AFF3 
 1494      0080AFF3 
 1494      0080
 1495              		.align	2
 1496              		.p2align 4,,15
 1497              		.global	gwinDrawString
 1498              		.thumb
 1499              		.thumb_func
 1500              		.type	gwinDrawString, %function
 1501              	gwinDrawString:
 1502              	.LFB147:
 1503              		.loc 1 429 0
 1504              		.cfi_startproc
 1505              		@ args = 0, pretend = 0, frame = 0
 1506              		@ frame_needed = 0, uses_anonymous_args = 0
 1507              	.LVL121:
 1508 0000 2DE9F041 		push	{r4, r5, r6, r7, r8, lr}
 1509              	.LCFI25:
ARM GAS  /tmp/ccU9hxbc.s 			page 28


 1510              		.cfi_def_cfa_offset 24
 1511              		.cfi_offset 4, -24
 1512              		.cfi_offset 5, -20
 1513              		.cfi_offset 6, -16
 1514              		.cfi_offset 7, -12
 1515              		.cfi_offset 8, -8
 1516              		.cfi_offset 14, -4
 1517              		.loc 1 430 0
 1518 0004 858A     		ldrh	r5, [r0, #20]
 1519              		.loc 1 429 0
 1520 0006 0446     		mov	r4, r0
 1521              		.loc 1 430 0
 1522 0008 05F00200 		and	r0, r5, #2
 1523              	.LVL122:
 1524 000c 85B2     		uxth	r5, r0
 1525              		.loc 1 429 0
 1526 000e 82B0     		sub	sp, sp, #8
 1527              	.LCFI26:
 1528              		.cfi_def_cfa_offset 32
 1529              		.loc 1 429 0
 1530 0010 8846     		mov	r8, r1
 1531 0012 1746     		mov	r7, r2
 1532 0014 1E46     		mov	r6, r3
 1533              		.loc 1 430 0
 1534 0016 BDB1     		cbz	r5, .L125
 1535              		.loc 1 430 0 is_stmt 0 discriminator 1
 1536 0018 A369     		ldr	r3, [r4, #24]
 1537              	.LVL123:
 1538 001a ABB1     		cbz	r3, .L125
 1539              		.loc 1 434 0 is_stmt 1
 1540 001c B4F90800 		ldrsh	r0, [r4, #8]
 1541 0020 B4F90A10 		ldrsh	r1, [r4, #10]
 1542              	.LVL124:
 1543 0024 B4F90C20 		ldrsh	r2, [r4, #12]
 1544              	.LVL125:
 1545 0028 B4F90E30 		ldrsh	r3, [r4, #14]
 1546 002c FFF7FEFF 		bl	gdispSetClip
 1547              	.LVL126:
 1548              		.loc 1 436 0
 1549 0030 2089     		ldrh	r0, [r4, #8]
 1550 0032 6189     		ldrh	r1, [r4, #10]
 1551 0034 228A     		ldrh	r2, [r4, #16]
 1552 0036 A369     		ldr	r3, [r4, #24]
 1553 0038 0092     		str	r2, [sp, #0]
 1554 003a 4044     		add	r0, r8, r0
 1555 003c 7918     		adds	r1, r7, r1
 1556 003e 00B2     		sxth	r0, r0
 1557 0040 09B2     		sxth	r1, r1
 1558 0042 3246     		mov	r2, r6
 1559 0044 FFF7FEFF 		bl	gdispDrawString
 1560              	.LVL127:
 1561              	.L125:
 1562              		.loc 1 437 0
 1563 0048 02B0     		add	sp, sp, #8
 1564 004a BDE8F081 		pop	{r4, r5, r6, r7, r8, pc}
 1565              		.cfi_endproc
 1566              	.LFE147:
ARM GAS  /tmp/ccU9hxbc.s 			page 29


 1567              		.size	gwinDrawString, .-gwinDrawString
 1568 004e 00BF     		.section	.text.gwinFillString,"ax",%progbits
 1569              		.align	2
 1570              		.p2align 4,,15
 1571              		.global	gwinFillString
 1572              		.thumb
 1573              		.thumb_func
 1574              		.type	gwinFillString, %function
 1575              	gwinFillString:
 1576              	.LFB148:
 1577              		.loc 1 439 0
 1578              		.cfi_startproc
 1579              		@ args = 0, pretend = 0, frame = 0
 1580              		@ frame_needed = 0, uses_anonymous_args = 0
 1581              	.LVL128:
 1582 0000 2DE9F041 		push	{r4, r5, r6, r7, r8, lr}
 1583              	.LCFI27:
 1584              		.cfi_def_cfa_offset 24
 1585              		.cfi_offset 4, -24
 1586              		.cfi_offset 5, -20
 1587              		.cfi_offset 6, -16
 1588              		.cfi_offset 7, -12
 1589              		.cfi_offset 8, -8
 1590              		.cfi_offset 14, -4
 1591              		.loc 1 440 0
 1592 0004 858A     		ldrh	r5, [r0, #20]
 1593              		.loc 1 439 0
 1594 0006 0446     		mov	r4, r0
 1595              		.loc 1 440 0
 1596 0008 05F00200 		and	r0, r5, #2
 1597              	.LVL129:
 1598 000c 85B2     		uxth	r5, r0
 1599              		.loc 1 439 0
 1600 000e 82B0     		sub	sp, sp, #8
 1601              	.LCFI28:
 1602              		.cfi_def_cfa_offset 32
 1603              		.loc 1 439 0
 1604 0010 8846     		mov	r8, r1
 1605 0012 1746     		mov	r7, r2
 1606 0014 1E46     		mov	r6, r3
 1607              		.loc 1 440 0
 1608 0016 CDB1     		cbz	r5, .L133
 1609              		.loc 1 440 0 is_stmt 0 discriminator 1
 1610 0018 A369     		ldr	r3, [r4, #24]
 1611              	.LVL130:
 1612 001a BBB1     		cbz	r3, .L133
 1613              		.loc 1 444 0 is_stmt 1
 1614 001c B4F90800 		ldrsh	r0, [r4, #8]
 1615 0020 B4F90A10 		ldrsh	r1, [r4, #10]
 1616              	.LVL131:
 1617 0024 B4F90C20 		ldrsh	r2, [r4, #12]
 1618              	.LVL132:
 1619 0028 B4F90E30 		ldrsh	r3, [r4, #14]
 1620 002c FFF7FEFF 		bl	gdispSetClip
 1621              	.LVL133:
 1622              		.loc 1 446 0
 1623 0030 2089     		ldrh	r0, [r4, #8]
ARM GAS  /tmp/ccU9hxbc.s 			page 30


 1624 0032 6189     		ldrh	r1, [r4, #10]
 1625 0034 628A     		ldrh	r2, [r4, #18]
 1626 0036 258A     		ldrh	r5, [r4, #16]
 1627 0038 A369     		ldr	r3, [r4, #24]
 1628 003a 0192     		str	r2, [sp, #4]
 1629 003c 4044     		add	r0, r8, r0
 1630 003e 7918     		adds	r1, r7, r1
 1631 0040 0095     		str	r5, [sp, #0]
 1632 0042 00B2     		sxth	r0, r0
 1633 0044 09B2     		sxth	r1, r1
 1634 0046 3246     		mov	r2, r6
 1635 0048 FFF7FEFF 		bl	gdispFillString
 1636              	.LVL134:
 1637              	.L133:
 1638              		.loc 1 447 0
 1639 004c 02B0     		add	sp, sp, #8
 1640 004e BDE8F081 		pop	{r4, r5, r6, r7, r8, pc}
 1641              		.cfi_endproc
 1642              	.LFE148:
 1643              		.size	gwinFillString, .-gwinFillString
 1644 0052 00BFAFF3 		.section	.text.gwinDrawStringBox,"ax",%progbits
 1644      0080AFF3 
 1644      0080AFF3 
 1644      0080
 1645              		.align	2
 1646              		.p2align 4,,15
 1647              		.global	gwinDrawStringBox
 1648              		.thumb
 1649              		.thumb_func
 1650              		.type	gwinDrawStringBox, %function
 1651              	gwinDrawStringBox:
 1652              	.LFB149:
 1653              		.loc 1 449 0
 1654              		.cfi_startproc
 1655              		@ args = 12, pretend = 0, frame = 0
 1656              		@ frame_needed = 0, uses_anonymous_args = 0
 1657              	.LVL135:
 1658 0000 2DE9F041 		push	{r4, r5, r6, r7, r8, lr}
 1659              	.LCFI29:
 1660              		.cfi_def_cfa_offset 24
 1661              		.cfi_offset 4, -24
 1662              		.cfi_offset 5, -20
 1663              		.cfi_offset 6, -16
 1664              		.cfi_offset 7, -12
 1665              		.cfi_offset 8, -8
 1666              		.cfi_offset 14, -4
 1667              		.loc 1 450 0
 1668 0004 858A     		ldrh	r5, [r0, #20]
 1669              		.loc 1 449 0
 1670 0006 0446     		mov	r4, r0
 1671              		.loc 1 450 0
 1672 0008 05F00200 		and	r0, r5, #2
 1673              	.LVL136:
 1674 000c 85B2     		uxth	r5, r0
 1675              		.loc 1 449 0
 1676 000e 84B0     		sub	sp, sp, #16
 1677              	.LCFI30:
ARM GAS  /tmp/ccU9hxbc.s 			page 31


 1678              		.cfi_def_cfa_offset 40
 1679              		.loc 1 449 0
 1680 0010 8846     		mov	r8, r1
 1681 0012 1746     		mov	r7, r2
 1682 0014 1E46     		mov	r6, r3
 1683              		.loc 1 450 0
 1684 0016 05B3     		cbz	r5, .L141
 1685              		.loc 1 450 0 is_stmt 0 discriminator 1
 1686 0018 A369     		ldr	r3, [r4, #24]
 1687              	.LVL137:
 1688 001a F3B1     		cbz	r3, .L141
 1689              		.loc 1 454 0 is_stmt 1
 1690 001c B4F90800 		ldrsh	r0, [r4, #8]
 1691 0020 B4F90A10 		ldrsh	r1, [r4, #10]
 1692              	.LVL138:
 1693 0024 B4F90C20 		ldrsh	r2, [r4, #12]
 1694              	.LVL139:
 1695 0028 B4F90E30 		ldrsh	r3, [r4, #14]
 1696 002c FFF7FEFF 		bl	gdispSetClip
 1697              	.LVL140:
 1698              		.loc 1 456 0
 1699 0030 6089     		ldrh	r0, [r4, #10]
 1700 0032 2589     		ldrh	r5, [r4, #8]
 1701 0034 A169     		ldr	r1, [r4, #24]
 1702 0036 228A     		ldrh	r2, [r4, #16]
 1703 0038 0B9B     		ldr	r3, [sp, #44]
 1704 003a 0191     		str	r1, [sp, #4]
 1705 003c 3F18     		adds	r7, r7, r0
 1706 003e 9DF83000 		ldrb	r0, [sp, #48]	@ zero_extendqisi2
 1707 0042 0093     		str	r3, [sp, #0]
 1708 0044 A844     		add	r8, r8, r5
 1709 0046 0292     		str	r2, [sp, #8]
 1710 0048 0390     		str	r0, [sp, #12]
 1711 004a 39B2     		sxth	r1, r7
 1712 004c 0FFA88F0 		sxth	r0, r8
 1713 0050 3246     		mov	r2, r6
 1714 0052 BDF92830 		ldrsh	r3, [sp, #40]
 1715 0056 FFF7FEFF 		bl	gdispDrawStringBox
 1716              	.LVL141:
 1717              	.L141:
 1718              		.loc 1 457 0
 1719 005a 04B0     		add	sp, sp, #16
 1720 005c BDE8F081 		pop	{r4, r5, r6, r7, r8, pc}
 1721              		.cfi_endproc
 1722              	.LFE149:
 1723              		.size	gwinDrawStringBox, .-gwinDrawStringBox
 1724              		.section	.text.gwinFillStringBox,"ax",%progbits
 1725              		.align	2
 1726              		.p2align 4,,15
 1727              		.global	gwinFillStringBox
 1728              		.thumb
 1729              		.thumb_func
 1730              		.type	gwinFillStringBox, %function
 1731              	gwinFillStringBox:
 1732              	.LFB150:
 1733              		.loc 1 459 0
 1734              		.cfi_startproc
ARM GAS  /tmp/ccU9hxbc.s 			page 32


 1735              		@ args = 12, pretend = 0, frame = 0
 1736              		@ frame_needed = 0, uses_anonymous_args = 0
 1737              	.LVL142:
 1738 0000 2DE9F041 		push	{r4, r5, r6, r7, r8, lr}
 1739              	.LCFI31:
 1740              		.cfi_def_cfa_offset 24
 1741              		.cfi_offset 4, -24
 1742              		.cfi_offset 5, -20
 1743              		.cfi_offset 6, -16
 1744              		.cfi_offset 7, -12
 1745              		.cfi_offset 8, -8
 1746              		.cfi_offset 14, -4
 1747              		.loc 1 460 0
 1748 0004 858A     		ldrh	r5, [r0, #20]
 1749              		.loc 1 459 0
 1750 0006 0446     		mov	r4, r0
 1751              		.loc 1 460 0
 1752 0008 05F00200 		and	r0, r5, #2
 1753              	.LVL143:
 1754 000c 85B2     		uxth	r5, r0
 1755              		.loc 1 459 0
 1756 000e 86B0     		sub	sp, sp, #24
 1757              	.LCFI32:
 1758              		.cfi_def_cfa_offset 48
 1759              		.loc 1 459 0
 1760 0010 8846     		mov	r8, r1
 1761 0012 1746     		mov	r7, r2
 1762 0014 1E46     		mov	r6, r3
 1763              		.loc 1 460 0
 1764 0016 1DB3     		cbz	r5, .L149
 1765              		.loc 1 460 0 is_stmt 0 discriminator 1
 1766 0018 A369     		ldr	r3, [r4, #24]
 1767              	.LVL144:
 1768 001a 0BB3     		cbz	r3, .L149
 1769              		.loc 1 464 0 is_stmt 1
 1770 001c B4F90800 		ldrsh	r0, [r4, #8]
 1771 0020 B4F90A10 		ldrsh	r1, [r4, #10]
 1772              	.LVL145:
 1773 0024 B4F90C20 		ldrsh	r2, [r4, #12]
 1774              	.LVL146:
 1775 0028 B4F90E30 		ldrsh	r3, [r4, #14]
 1776 002c FFF7FEFF 		bl	gdispSetClip
 1777              	.LVL147:
 1778              		.loc 1 466 0
 1779 0030 A069     		ldr	r0, [r4, #24]
 1780 0032 B4F808E0 		ldrh	lr, [r4, #8]
 1781 0036 6589     		ldrh	r5, [r4, #10]
 1782 0038 218A     		ldrh	r1, [r4, #16]
 1783 003a 628A     		ldrh	r2, [r4, #18]
 1784 003c 0D9B     		ldr	r3, [sp, #52]
 1785 003e 0190     		str	r0, [sp, #4]
 1786 0040 9DF83800 		ldrb	r0, [sp, #56]	@ zero_extendqisi2
 1787 0044 0093     		str	r3, [sp, #0]
 1788 0046 F044     		add	r8, r8, lr
 1789 0048 7F19     		adds	r7, r7, r5
 1790 004a 0291     		str	r1, [sp, #8]
 1791 004c 0392     		str	r2, [sp, #12]
ARM GAS  /tmp/ccU9hxbc.s 			page 33


 1792 004e 0490     		str	r0, [sp, #16]
 1793 0050 39B2     		sxth	r1, r7
 1794 0052 0FFA88F0 		sxth	r0, r8
 1795 0056 3246     		mov	r2, r6
 1796 0058 BDF93030 		ldrsh	r3, [sp, #48]
 1797 005c FFF7FEFF 		bl	gdispFillStringBox
 1798              	.LVL148:
 1799              	.L149:
 1800              		.loc 1 467 0
 1801 0060 06B0     		add	sp, sp, #24
 1802 0062 BDE8F081 		pop	{r4, r5, r6, r7, r8, pc}
 1803              		.cfi_endproc
 1804              	.LFE150:
 1805              		.size	gwinFillStringBox, .-gwinFillStringBox
 1806 0066 00BFAFF3 		.section	.text.gwinDrawImage,"ax",%progbits
 1806      0080AFF3 
 1806      0080
 1807              		.align	2
 1808              		.p2align 4,,15
 1809              		.global	gwinDrawImage
 1810              		.thumb
 1811              		.thumb_func
 1812              		.type	gwinDrawImage, %function
 1813              	gwinDrawImage:
 1814              	.LFB151:
 1815              		.loc 1 493 0
 1816              		.cfi_startproc
 1817              		@ args = 16, pretend = 0, frame = 0
 1818              		@ frame_needed = 0, uses_anonymous_args = 0
 1819              	.LVL149:
 1820 0000 2DE9F04F 		push	{r4, r5, r6, r7, r8, r9, sl, fp, lr}
 1821              	.LCFI33:
 1822              		.cfi_def_cfa_offset 36
 1823              		.cfi_offset 4, -36
 1824              		.cfi_offset 5, -32
 1825              		.cfi_offset 6, -28
 1826              		.cfi_offset 7, -24
 1827              		.cfi_offset 8, -20
 1828              		.cfi_offset 9, -16
 1829              		.cfi_offset 10, -12
 1830              		.cfi_offset 11, -8
 1831              		.cfi_offset 14, -4
 1832              		.loc 1 494 0
 1833 0004 858A     		ldrh	r5, [r0, #20]
 1834              		.loc 1 493 0
 1835 0006 81B0     		sub	sp, sp, #4
 1836              	.LCFI34:
 1837              		.cfi_def_cfa_offset 40
 1838              		.loc 1 493 0
 1839 0008 0446     		mov	r4, r0
 1840              		.loc 1 494 0
 1841 000a 05F00200 		and	r0, r5, #2
 1842              	.LVL150:
 1843 000e 80B2     		uxth	r0, r0
 1844              		.loc 1 493 0
 1845 0010 0F46     		mov	r7, r1
 1846 0012 BDF92860 		ldrsh	r6, [sp, #40]
ARM GAS  /tmp/ccU9hxbc.s 			page 34


 1847 0016 BDF92CA0 		ldrsh	sl, [sp, #44]
 1848 001a BDF93090 		ldrsh	r9, [sp, #48]
 1849 001e BDF93480 		ldrsh	r8, [sp, #52]
 1850 0022 9346     		mov	fp, r2
 1851 0024 1D46     		mov	r5, r3
 1852              		.loc 1 494 0
 1853 0026 10B9     		cbnz	r0, .L159
 1854              		.loc 1 501 0
 1855 0028 01B0     		add	sp, sp, #4
 1856 002a BDE8F08F 		pop	{r4, r5, r6, r7, r8, r9, sl, fp, pc}
 1857              	.L159:
 1858              		.loc 1 498 0
 1859 002e B4F90800 		ldrsh	r0, [r4, #8]
 1860 0032 B4F90A10 		ldrsh	r1, [r4, #10]
 1861              	.LVL151:
 1862 0036 B4F90C20 		ldrsh	r2, [r4, #12]
 1863              	.LVL152:
 1864 003a B4F90E30 		ldrsh	r3, [r4, #14]
 1865              	.LVL153:
 1866 003e FFF7FEFF 		bl	gdispSetClip
 1867              	.LVL154:
 1868              		.loc 1 500 0
 1869 0042 2289     		ldrh	r2, [r4, #8]
 1870 0044 6389     		ldrh	r3, [r4, #10]
 1871 0046 CDF828A0 		str	sl, [sp, #40]
 1872 004a 0BEB0201 		add	r1, fp, r2
 1873 004e EA18     		adds	r2, r5, r3
 1874 0050 3846     		mov	r0, r7
 1875 0052 09B2     		sxth	r1, r1
 1876 0054 12B2     		sxth	r2, r2
 1877 0056 3346     		mov	r3, r6
 1878 0058 CDF82C90 		str	r9, [sp, #44]
 1879 005c CDF83080 		str	r8, [sp, #48]
 1880              		.loc 1 501 0
 1881 0060 01B0     		add	sp, sp, #4
 1882 0062 BDE8F04F 		pop	{r4, r5, r6, r7, r8, r9, sl, fp, lr}
 1883              		.loc 1 500 0
 1884 0066 FFF7FEBF 		b	gdispImageDraw
 1885              	.LVL155:
 1886              		.cfi_endproc
 1887              	.LFE151:
 1888              		.size	gwinDrawImage, .-gwinDrawImage
 1889 006a 00BFAFF3 		.section	.rodata.basegwinVMT,"a",%progbits
 1889      0080
 1890              		.align	2
 1891              		.set	.LANCHOR3,. + 0
 1892              		.type	basegwinVMT, %object
 1893              		.size	basegwinVMT, 20
 1894              	basegwinVMT:
 1895 0000 00000000 		.word	.LC0
 1896 0004 1C000000 		.word	28
 1897 0008 00000000 		.word	0
 1898 000c 00000000 		.word	0
 1899 0010 00000000 		.word	0
 1900              		.section	.bss.defaultFont,"aw",%nobits
 1901              		.align	2
 1902              		.set	.LANCHOR2,. + 0
ARM GAS  /tmp/ccU9hxbc.s 			page 35


 1903              		.type	defaultFont, %object
 1904              		.size	defaultFont, 4
 1905              	defaultFont:
 1906 0000 00000000 		.space	4
 1907              		.section	.rodata.str1.4,"aMS",%progbits,1
 1908              		.align	2
 1909              	.LC0:
 1910 0000 4757494E 		.ascii	"GWIN\000"
 1910      00
 1911 0005 000000   		.section	.bss.defaultBgColor,"aw",%nobits
 1912              		.align	1
 1913              		.set	.LANCHOR1,. + 0
 1914              		.type	defaultBgColor, %object
 1915              		.size	defaultBgColor, 2
 1916              	defaultBgColor:
 1917 0000 0000     		.space	2
 1918              		.section	.data.defaultFgColor,"aw",%progbits
 1919              		.align	1
 1920              		.set	.LANCHOR0,. + 0
 1921              		.type	defaultFgColor, %object
 1922              		.size	defaultFgColor, 2
 1923              	defaultFgColor:
 1924 0000 FFFF     		.short	-1
 1925              		.text
 1926              	.Letext0:
 1927              		.file 2 "/usr/bin/../lib/gcc/arm-none-eabi/4.7.4/include/stddef.h"
 1928              		.file 3 "/usr/bin/../lib/gcc/arm-none-eabi/4.7.4/../../../../arm-none-eabi/include/stdint.h"
 1929              		.file 4 "../../os/ports/GCC/ARMCMx/chtypes.h"
 1930              		.file 5 "../../os/kernel/include/chlists.h"
 1931              		.file 6 "../../os/kernel/include/chthreads.h"
 1932              		.file 7 "../../os/ports/GCC/ARMCMx/chcore_v7m.h"
 1933              		.file 8 "../../os/kernel/include/chmtx.h"
 1934              		.file 9 "../../os/kernel/include/chmemcore.h"
 1935              		.file 10 "../../os/kernel/include/chheap.h"
 1936              		.file 11 "../../ext/ugfx/include/gqueue/gqueue.h"
 1937              		.file 12 "../../ext/ugfx/include/gdisp/gdisp.h"
 1938              		.file 13 "../../ext/ugfx/include/gdisp/image.h"
 1939              		.file 14 "../../ext/ugfx/include/gwin/gwin.h"
 1940              		.file 15 "../../ext/ugfx/include/gwin/class_gwin.h"
 1941              		.file 16 "../../os/ports/common/ARMCMx/CMSIS/include/core_cm4.h"