ARM GAS  /tmp/ccXNsibo.s 			page 1


   1              		.syntax unified
   2              		.cpu cortex-m4
   3              		.eabi_attribute 27, 3
   4              		.eabi_attribute 28, 1
   5              		.fpu fpv4-sp-d16
   6              		.eabi_attribute 20, 1
   7              		.eabi_attribute 21, 1
   8              		.eabi_attribute 23, 3
   9              		.eabi_attribute 24, 1
  10              		.eabi_attribute 25, 1
  11              		.eabi_attribute 26, 1
  12              		.eabi_attribute 30, 2
  13              		.eabi_attribute 34, 1
  14              		.eabi_attribute 18, 4
  15              		.thumb
  16              		.file	"main.c"
  17              		.text
  18              	.Ltext0:
  19              		.cfi_sections	.debug_frame
  20              		.section	.text.startup.main,"ax",%progbits
  21              		.align	2
  22              		.p2align 4,,15
  23              		.global	main
  24              		.thumb
  25              		.thumb_func
  26              		.type	main, %function
  27              	main:
  28              	.LFB119:
  29              		.file 1 "main.c"
  30              		.loc 1 24 0
  31              		.cfi_startproc
  32              		@ args = 0, pretend = 0, frame = 32
  33              		@ frame_needed = 0, uses_anonymous_args = 0
  34 0000 F0B5     		push	{r4, r5, r6, r7, lr}
  35              	.LCFI0:
  36              		.cfi_def_cfa_offset 20
  37              		.cfi_offset 4, -20
  38              		.cfi_offset 5, -16
  39              		.cfi_offset 6, -12
  40              		.cfi_offset 7, -8
  41              		.cfi_offset 14, -4
  42 0002 89B0     		sub	sp, sp, #36
  43              	.LCFI1:
  44              		.cfi_def_cfa_offset 56
  45              		.loc 1 28 0
  46 0004 FFF7FEFF 		bl	gfxInit
  47              	.LVL0:
  48              		.loc 1 31 0
  49 0008 2A48     		ldr	r0, .L7
  50 000a FFF7FEFF 		bl	gdispOpenFont
  51              	.LVL1:
  52 000e FFF7FEFF 		bl	gwinSetDefaultFont
  53              	.LVL2:
  54              		.loc 1 32 0
  55 0012 0021     		movs	r1, #0
  56 0014 2848     		ldr	r0, .L7+4
  57 0016 FFF7FEFF 		bl	gwinSetDefaultStyle
ARM GAS  /tmp/ccXNsibo.s 			page 2


  58              	.LVL3:
  59              		.loc 1 33 0
  60 001a 4FF6FF70 		movw	r0, #65535
  61 001e FFF7FEFF 		bl	gdispClear
  62              	.LVL4:
  63              		.loc 1 36 0
  64 0022 0020     		movs	r0, #0
  65 0024 FFF7FEFF 		bl	gwinAttachMouse
  66              	.LVL5:
  67              	.LBB5:
  68              	.LBB6:
  69              		.loc 1 10 0
  70 0028 0024     		movs	r4, #0
  71              		.loc 1 16 0
  72 002a 244A     		ldr	r2, .L7+8
  73              		.loc 1 10 0
  74 002c 0594     		str	r4, [sp, #20]
  75              		.loc 1 13 0
  76 002e 0123     		movs	r3, #1
  77              		.loc 1 16 0
  78 0030 0A25     		movs	r5, #10
  79 0032 C826     		movs	r6, #200
  80 0034 1427     		movs	r7, #20
  81              		.loc 1 17 0
  82 0036 01A9     		add	r1, sp, #4
  83 0038 2046     		mov	r0, r4
  84              		.loc 1 13 0
  85 003a 8DF80C30 		strb	r3, [sp, #12]
  86              		.loc 1 16 0
  87 003e 0492     		str	r2, [sp, #16]
  88              		.loc 1 11 0
  89 0040 0694     		str	r4, [sp, #24]
  90              		.loc 1 12 0
  91 0042 0794     		str	r4, [sp, #28]
  92              		.loc 1 16 0
  93 0044 ADF80650 		strh	r5, [sp, #6]	@ movhi
  94 0048 ADF80450 		strh	r5, [sp, #4]	@ movhi
  95 004c ADF80860 		strh	r6, [sp, #8]	@ movhi
  96 0050 ADF80A70 		strh	r7, [sp, #10]	@ movhi
  97              		.loc 1 17 0
  98 0054 FFF7FEFF 		bl	gwinSliderCreate
  99              	.LVL6:
 100 0058 1949     		ldr	r1, .L7+12
 101              		.loc 1 20 0
 102 005a ADF80450 		strh	r5, [sp, #4]	@ movhi
 103 005e 194D     		ldr	r5, .L7+16
 104              		.loc 1 17 0
 105 0060 0860     		str	r0, [r1, #0]
 106              		.loc 1 21 0
 107 0062 01A9     		add	r1, sp, #4
 108 0064 2046     		mov	r0, r4
 109              		.loc 1 20 0
 110 0066 2824     		movs	r4, #40
 111 0068 ADF80870 		strh	r7, [sp, #8]	@ movhi
 112 006c ADF80A60 		strh	r6, [sp, #10]	@ movhi
 113 0070 ADF80640 		strh	r4, [sp, #6]	@ movhi
 114 0074 0495     		str	r5, [sp, #16]
ARM GAS  /tmp/ccXNsibo.s 			page 3


 115              		.loc 1 21 0
 116 0076 FFF7FEFF 		bl	gwinSliderCreate
 117              	.LVL7:
 118 007a 134E     		ldr	r6, .L7+20
 119 007c 3060     		str	r0, [r6, #0]
 120              	.LBE6:
 121              	.LBE5:
 122              		.loc 1 42 0
 123 007e 1348     		ldr	r0, .L7+24
 124 0080 FFF7FEFF 		bl	geventListenerInit
 125              	.LVL8:
 126              		.loc 1 43 0
 127 0084 1148     		ldr	r0, .L7+24
 128 0086 FFF7FEFF 		bl	gwinAttachListener
 129              	.LVL9:
 130              		.loc 1 49 0
 131 008a 40F20127 		movw	r7, #513
 132              	.L5:
 133              		.loc 1 47 0
 134 008e 4FF0FF31 		mov	r1, #-1
 135 0092 0E48     		ldr	r0, .L7+24
 136 0094 FFF7FEFF 		bl	geventEventWait
 137              	.LVL10:
 138 0098 0446     		mov	r4, r0
 139              	.LVL11:
 140              		.loc 1 49 0
 141 009a 0088     		ldrh	r0, [r0, #0]
 142              	.LVL12:
 143 009c B842     		cmp	r0, r7
 144 009e F6D1     		bne	.L5
 145              	.LBB7:
 146              		.loc 1 51 0
 147 00a0 6068     		ldr	r0, [r4, #4]
 148 00a2 FFF7FEFF 		bl	gwinGetText
 149              	.LVL13:
 150 00a6 A268     		ldr	r2, [r4, #8]
 151 00a8 0146     		mov	r1, r0
 152 00aa 0948     		ldr	r0, .L7+28
 153 00ac FFF7FEFF 		bl	printf
 154              	.LVL14:
 155              		.loc 1 52 0
 156 00b0 EDE7     		b	.L5
 157              	.L8:
 158 00b2 00BF     		.align	2
 159              	.L7:
 160 00b4 00000000 		.word	.LC0
 161 00b8 00000000 		.word	WhiteWidgetStyle
 162 00bc 04000000 		.word	.LC1
 163 00c0 00000000 		.word	.LANCHOR0
 164 00c4 08000000 		.word	.LC2
 165 00c8 00000000 		.word	.LANCHOR1
 166 00cc 00000000 		.word	.LANCHOR2
 167 00d0 0C000000 		.word	.LC3
 168              	.LBE7:
 169              		.cfi_endproc
 170              	.LFE119:
 171              		.size	main, .-main
ARM GAS  /tmp/ccXNsibo.s 			page 4


 172 00d4 AFF30080 		.section	.bss.gl,"aw",%nobits
 172      AFF30080 
 172      AFF30080 
 173              		.align	2
 174              		.set	.LANCHOR2,. + 0
 175              		.type	gl, %object
 176              		.size	gl, 72
 177              	gl:
 178 0000 00000000 		.space	72
 178      00000000 
 178      00000000 
 178      00000000 
 178      00000000 
 179              		.section	.bss.ghSlider1,"aw",%nobits
 180              		.align	2
 181              		.set	.LANCHOR0,. + 0
 182              		.type	ghSlider1, %object
 183              		.size	ghSlider1, 4
 184              	ghSlider1:
 185 0000 00000000 		.space	4
 186              		.section	.bss.ghSlider2,"aw",%nobits
 187              		.align	2
 188              		.set	.LANCHOR1,. + 0
 189              		.type	ghSlider2, %object
 190              		.size	ghSlider2, 4
 191              	ghSlider2:
 192 0000 00000000 		.space	4
 193              		.section	.rodata.str1.4,"aMS",%progbits,1
 194              		.align	2
 195              	.LC0:
 196 0000 55493200 		.ascii	"UI2\000"
 197              	.LC1:
 198 0004 533100   		.ascii	"S1\000"
 199 0007 00       		.space	1
 200              	.LC2:
 201 0008 533200   		.ascii	"S2\000"
 202 000b 00       		.space	1
 203              	.LC3:
 204 000c 536C6964 		.ascii	"Slider %s = %d\012\000"
 204      65722025 
 204      73203D20 
 204      25640A00 
 205              		.text
 206              	.Letext0:
 207              		.file 2 "/usr/bin/../lib/gcc/arm-none-eabi/4.7.4/../../../../arm-none-eabi/include/stdint.h"
 208              		.file 3 "../../os/ports/GCC/ARMCMx/chtypes.h"
 209              		.file 4 "../../os/kernel/include/chlists.h"
 210              		.file 5 "../../os/kernel/include/chthreads.h"
 211              		.file 6 "../../os/ports/GCC/ARMCMx/chcore_v7m.h"
 212              		.file 7 "../../os/kernel/include/chsem.h"
 213              		.file 8 "../../os/kernel/include/chmtx.h"
 214              		.file 9 "../../ext/ugfx/include/gos/chibios.h"
 215              		.file 10 "../../ext/ugfx/include/gqueue/gqueue.h"
 216              		.file 11 "../../ext/ugfx/include/gevent/gevent.h"
 217              		.file 12 "../../ext/ugfx/include/gdisp/gdisp.h"
 218              		.file 13 "../../ext/ugfx/include/gwin/gwin.h"
 219              		.file 14 "../../ext/ugfx/include/gwin/gwidget.h"
ARM GAS  /tmp/ccXNsibo.s 			page 5


 220              		.file 15 "../../ext/ugfx/include/gwin/slider.h"
 221              		.file 16 "../../os/ports/common/ARMCMx/CMSIS/include/core_cm4.h"
 222              		.file 17 "<built-in>"
 223              		.file 18 "../../ext/ugfx/include/gfx.h"