ARM GAS  /tmp/ccxWoBWC.s 			page 1


   1              		.syntax unified
   2              		.cpu cortex-m4
   3              		.eabi_attribute 27, 3
   4              		.eabi_attribute 28, 1
   5              		.fpu fpv4-sp-d16
   6              		.eabi_attribute 20, 1
   7              		.eabi_attribute 21, 1
   8              		.eabi_attribute 23, 3
   9              		.eabi_attribute 24, 1
  10              		.eabi_attribute 25, 1
  11              		.eabi_attribute 26, 1
  12              		.eabi_attribute 30, 2
  13              		.eabi_attribute 34, 1
  14              		.eabi_attribute 18, 4
  15              		.thumb
  16              		.file	"stm32_dma.c"
  17              		.text
  18              	.Ltext0:
  19              		.cfi_sections	.debug_frame
  20              		.section	.text.Vector6C,"ax",%progbits
  21              		.align	2
  22              		.p2align 4,,15
  23              		.global	Vector6C
  24              		.thumb
  25              		.thumb_func
  26              		.type	Vector6C, %function
  27              	Vector6C:
  28              	.LFB118:
  29              		.file 1 "../../os/hal/platforms/STM32F4xx/stm32_dma.c"
  30              		.loc 1 128 0
  31              		.cfi_startproc
  32              		@ args = 0, pretend = 0, frame = 0
  33              		@ frame_needed = 0, uses_anonymous_args = 0
  34              		.loc 1 133 0
  35 0000 4FF4C043 		mov	r3, #24576
  36 0004 C4F20203 		movt	r3, 16386
  37              		.loc 1 135 0
  38 0008 0748     		ldr	r0, .L7
  39              		.loc 1 133 0
  40 000a 1968     		ldr	r1, [r3, #0]
  41              		.loc 1 135 0
  42 000c 0268     		ldr	r2, [r0, #0]
  43              		.loc 1 128 0
  44 000e 10B5     		push	{r4, lr}
  45              	.LCFI0:
  46              		.cfi_def_cfa_offset 8
  47              		.cfi_offset 4, -8
  48              		.cfi_offset 14, -4
  49              		.loc 1 134 0
  50 0010 3D24     		movs	r4, #61
  51              		.loc 1 133 0
  52 0012 01F03D01 		and	r1, r1, #61
  53              	.LVL0:
  54              		.loc 1 134 0
  55 0016 9C60     		str	r4, [r3, #8]
  56              		.loc 1 135 0
  57 0018 0AB1     		cbz	r2, .L2
ARM GAS  /tmp/ccxWoBWC.s 			page 2


  58              		.loc 1 136 0
  59 001a 4068     		ldr	r0, [r0, #4]
  60 001c 9047     		blx	r2
  61              	.LVL1:
  62              	.L2:
  63              		.loc 1 139 0
  64 001e BDE81040 		pop	{r4, lr}
  65              		.loc 1 138 0
  66 0022 FFF7FEBF 		b	_port_irq_epilogue
  67              	.LVL2:
  68              	.L8:
  69 0026 00BF     		.align	2
  70              	.L7:
  71 0028 00000000 		.word	.LANCHOR0
  72              		.cfi_endproc
  73              	.LFE118:
  74              		.size	Vector6C, .-Vector6C
  75 002c AFF30080 		.section	.text.Vector70,"ax",%progbits
  76              		.align	2
  77              		.p2align 4,,15
  78              		.global	Vector70
  79              		.thumb
  80              		.thumb_func
  81              		.type	Vector70, %function
  82              	Vector70:
  83              	.LFB119:
  84              		.loc 1 146 0
  85              		.cfi_startproc
  86              		@ args = 0, pretend = 0, frame = 0
  87              		@ frame_needed = 0, uses_anonymous_args = 0
  88              		.loc 1 151 0
  89 0000 4FF4C043 		mov	r3, #24576
  90 0004 C4F20203 		movt	r3, 16386
  91              		.loc 1 153 0
  92 0008 0848     		ldr	r0, .L14
  93              		.loc 1 151 0
  94 000a 1968     		ldr	r1, [r3, #0]
  95              		.loc 1 153 0
  96 000c 8268     		ldr	r2, [r0, #8]
  97              		.loc 1 146 0
  98 000e 10B5     		push	{r4, lr}
  99              	.LCFI1:
 100              		.cfi_def_cfa_offset 8
 101              		.cfi_offset 4, -8
 102              		.cfi_offset 14, -4
 103              		.loc 1 151 0
 104 0010 8C09     		lsrs	r4, r1, #6
 105 0012 04F03D01 		and	r1, r4, #61
 106              	.LVL3:
 107              		.loc 1 152 0
 108 0016 4FF47464 		mov	r4, #3904
 109 001a 9C60     		str	r4, [r3, #8]
 110              		.loc 1 153 0
 111 001c 0AB1     		cbz	r2, .L10
 112              		.loc 1 154 0
 113 001e C068     		ldr	r0, [r0, #12]
 114 0020 9047     		blx	r2
ARM GAS  /tmp/ccxWoBWC.s 			page 3


 115              	.LVL4:
 116              	.L10:
 117              		.loc 1 157 0
 118 0022 BDE81040 		pop	{r4, lr}
 119              		.loc 1 156 0
 120 0026 FFF7FEBF 		b	_port_irq_epilogue
 121              	.LVL5:
 122              	.L15:
 123 002a 00BF     		.align	2
 124              	.L14:
 125 002c 00000000 		.word	.LANCHOR0
 126              		.cfi_endproc
 127              	.LFE119:
 128              		.size	Vector70, .-Vector70
 129              		.section	.text.Vector74,"ax",%progbits
 130              		.align	2
 131              		.p2align 4,,15
 132              		.global	Vector74
 133              		.thumb
 134              		.thumb_func
 135              		.type	Vector74, %function
 136              	Vector74:
 137              	.LFB120:
 138              		.loc 1 164 0
 139              		.cfi_startproc
 140              		@ args = 0, pretend = 0, frame = 0
 141              		@ frame_needed = 0, uses_anonymous_args = 0
 142              		.loc 1 169 0
 143 0000 4FF4C043 		mov	r3, #24576
 144 0004 C4F20203 		movt	r3, 16386
 145              		.loc 1 171 0
 146 0008 0848     		ldr	r0, .L21
 147              		.loc 1 169 0
 148 000a 1968     		ldr	r1, [r3, #0]
 149              		.loc 1 171 0
 150 000c 0269     		ldr	r2, [r0, #16]
 151              		.loc 1 164 0
 152 000e 10B5     		push	{r4, lr}
 153              	.LCFI2:
 154              		.cfi_def_cfa_offset 8
 155              		.cfi_offset 4, -8
 156              		.cfi_offset 14, -4
 157              		.loc 1 169 0
 158 0010 0C0C     		lsrs	r4, r1, #16
 159 0012 04F03D01 		and	r1, r4, #61
 160              	.LVL6:
 161              		.loc 1 170 0
 162 0016 4FF47414 		mov	r4, #3997696
 163 001a 9C60     		str	r4, [r3, #8]
 164              		.loc 1 171 0
 165 001c 0AB1     		cbz	r2, .L17
 166              		.loc 1 172 0
 167 001e 4069     		ldr	r0, [r0, #20]
 168 0020 9047     		blx	r2
 169              	.LVL7:
 170              	.L17:
 171              		.loc 1 175 0
ARM GAS  /tmp/ccxWoBWC.s 			page 4


 172 0022 BDE81040 		pop	{r4, lr}
 173              		.loc 1 174 0
 174 0026 FFF7FEBF 		b	_port_irq_epilogue
 175              	.LVL8:
 176              	.L22:
 177 002a 00BF     		.align	2
 178              	.L21:
 179 002c 00000000 		.word	.LANCHOR0
 180              		.cfi_endproc
 181              	.LFE120:
 182              		.size	Vector74, .-Vector74
 183              		.section	.text.Vector78,"ax",%progbits
 184              		.align	2
 185              		.p2align 4,,15
 186              		.global	Vector78
 187              		.thumb
 188              		.thumb_func
 189              		.type	Vector78, %function
 190              	Vector78:
 191              	.LFB121:
 192              		.loc 1 182 0
 193              		.cfi_startproc
 194              		@ args = 0, pretend = 0, frame = 0
 195              		@ frame_needed = 0, uses_anonymous_args = 0
 196              		.loc 1 187 0
 197 0000 4FF4C043 		mov	r3, #24576
 198 0004 C4F20203 		movt	r3, 16386
 199              		.loc 1 189 0
 200 0008 0848     		ldr	r0, .L28
 201              		.loc 1 187 0
 202 000a 1968     		ldr	r1, [r3, #0]
 203              		.loc 1 189 0
 204 000c 8269     		ldr	r2, [r0, #24]
 205              		.loc 1 182 0
 206 000e 10B5     		push	{r4, lr}
 207              	.LCFI3:
 208              		.cfi_def_cfa_offset 8
 209              		.cfi_offset 4, -8
 210              		.cfi_offset 14, -4
 211              		.loc 1 187 0
 212 0010 8C0D     		lsrs	r4, r1, #22
 213 0012 04F03D01 		and	r1, r4, #61
 214              	.LVL9:
 215              		.loc 1 188 0
 216 0016 4FF07464 		mov	r4, #255852544
 217 001a 9C60     		str	r4, [r3, #8]
 218              		.loc 1 189 0
 219 001c 0AB1     		cbz	r2, .L24
 220              		.loc 1 190 0
 221 001e C069     		ldr	r0, [r0, #28]
 222 0020 9047     		blx	r2
 223              	.LVL10:
 224              	.L24:
 225              		.loc 1 193 0
 226 0022 BDE81040 		pop	{r4, lr}
 227              		.loc 1 192 0
 228 0026 FFF7FEBF 		b	_port_irq_epilogue
ARM GAS  /tmp/ccxWoBWC.s 			page 5


 229              	.LVL11:
 230              	.L29:
 231 002a 00BF     		.align	2
 232              	.L28:
 233 002c 00000000 		.word	.LANCHOR0
 234              		.cfi_endproc
 235              	.LFE121:
 236              		.size	Vector78, .-Vector78
 237              		.section	.text.Vector7C,"ax",%progbits
 238              		.align	2
 239              		.p2align 4,,15
 240              		.global	Vector7C
 241              		.thumb
 242              		.thumb_func
 243              		.type	Vector7C, %function
 244              	Vector7C:
 245              	.LFB122:
 246              		.loc 1 200 0
 247              		.cfi_startproc
 248              		@ args = 0, pretend = 0, frame = 0
 249              		@ frame_needed = 0, uses_anonymous_args = 0
 250              		.loc 1 205 0
 251 0000 4FF4C043 		mov	r3, #24576
 252 0004 C4F20203 		movt	r3, 16386
 253              		.loc 1 207 0
 254 0008 0748     		ldr	r0, .L35
 255              		.loc 1 205 0
 256 000a 5968     		ldr	r1, [r3, #4]
 257              		.loc 1 207 0
 258 000c 026A     		ldr	r2, [r0, #32]
 259              		.loc 1 200 0
 260 000e 10B5     		push	{r4, lr}
 261              	.LCFI4:
 262              		.cfi_def_cfa_offset 8
 263              		.cfi_offset 4, -8
 264              		.cfi_offset 14, -4
 265              		.loc 1 206 0
 266 0010 3D24     		movs	r4, #61
 267              		.loc 1 205 0
 268 0012 01F03D01 		and	r1, r1, #61
 269              	.LVL12:
 270              		.loc 1 206 0
 271 0016 DC60     		str	r4, [r3, #12]
 272              		.loc 1 207 0
 273 0018 0AB1     		cbz	r2, .L31
 274              		.loc 1 208 0
 275 001a 406A     		ldr	r0, [r0, #36]
 276 001c 9047     		blx	r2
 277              	.LVL13:
 278              	.L31:
 279              		.loc 1 211 0
 280 001e BDE81040 		pop	{r4, lr}
 281              		.loc 1 210 0
 282 0022 FFF7FEBF 		b	_port_irq_epilogue
 283              	.LVL14:
 284              	.L36:
 285 0026 00BF     		.align	2
ARM GAS  /tmp/ccxWoBWC.s 			page 6


 286              	.L35:
 287 0028 00000000 		.word	.LANCHOR0
 288              		.cfi_endproc
 289              	.LFE122:
 290              		.size	Vector7C, .-Vector7C
 291 002c AFF30080 		.section	.text.Vector80,"ax",%progbits
 292              		.align	2
 293              		.p2align 4,,15
 294              		.global	Vector80
 295              		.thumb
 296              		.thumb_func
 297              		.type	Vector80, %function
 298              	Vector80:
 299              	.LFB123:
 300              		.loc 1 218 0
 301              		.cfi_startproc
 302              		@ args = 0, pretend = 0, frame = 0
 303              		@ frame_needed = 0, uses_anonymous_args = 0
 304              		.loc 1 223 0
 305 0000 4FF4C043 		mov	r3, #24576
 306 0004 C4F20203 		movt	r3, 16386
 307              		.loc 1 225 0
 308 0008 0848     		ldr	r0, .L42
 309              		.loc 1 223 0
 310 000a 5968     		ldr	r1, [r3, #4]
 311              		.loc 1 225 0
 312 000c 826A     		ldr	r2, [r0, #40]
 313              		.loc 1 218 0
 314 000e 10B5     		push	{r4, lr}
 315              	.LCFI5:
 316              		.cfi_def_cfa_offset 8
 317              		.cfi_offset 4, -8
 318              		.cfi_offset 14, -4
 319              		.loc 1 223 0
 320 0010 8C09     		lsrs	r4, r1, #6
 321 0012 04F03D01 		and	r1, r4, #61
 322              	.LVL15:
 323              		.loc 1 224 0
 324 0016 4FF47464 		mov	r4, #3904
 325 001a DC60     		str	r4, [r3, #12]
 326              		.loc 1 225 0
 327 001c 0AB1     		cbz	r2, .L38
 328              		.loc 1 226 0
 329 001e C06A     		ldr	r0, [r0, #44]
 330 0020 9047     		blx	r2
 331              	.LVL16:
 332              	.L38:
 333              		.loc 1 229 0
 334 0022 BDE81040 		pop	{r4, lr}
 335              		.loc 1 228 0
 336 0026 FFF7FEBF 		b	_port_irq_epilogue
 337              	.LVL17:
 338              	.L43:
 339 002a 00BF     		.align	2
 340              	.L42:
 341 002c 00000000 		.word	.LANCHOR0
 342              		.cfi_endproc
ARM GAS  /tmp/ccxWoBWC.s 			page 7


 343              	.LFE123:
 344              		.size	Vector80, .-Vector80
 345              		.section	.text.Vector84,"ax",%progbits
 346              		.align	2
 347              		.p2align 4,,15
 348              		.global	Vector84
 349              		.thumb
 350              		.thumb_func
 351              		.type	Vector84, %function
 352              	Vector84:
 353              	.LFB124:
 354              		.loc 1 236 0
 355              		.cfi_startproc
 356              		@ args = 0, pretend = 0, frame = 0
 357              		@ frame_needed = 0, uses_anonymous_args = 0
 358              		.loc 1 241 0
 359 0000 4FF4C043 		mov	r3, #24576
 360 0004 C4F20203 		movt	r3, 16386
 361              		.loc 1 243 0
 362 0008 0848     		ldr	r0, .L49
 363              		.loc 1 241 0
 364 000a 5968     		ldr	r1, [r3, #4]
 365              		.loc 1 243 0
 366 000c 026B     		ldr	r2, [r0, #48]
 367              		.loc 1 236 0
 368 000e 10B5     		push	{r4, lr}
 369              	.LCFI6:
 370              		.cfi_def_cfa_offset 8
 371              		.cfi_offset 4, -8
 372              		.cfi_offset 14, -4
 373              		.loc 1 241 0
 374 0010 0C0C     		lsrs	r4, r1, #16
 375 0012 04F03D01 		and	r1, r4, #61
 376              	.LVL18:
 377              		.loc 1 242 0
 378 0016 4FF47414 		mov	r4, #3997696
 379 001a DC60     		str	r4, [r3, #12]
 380              		.loc 1 243 0
 381 001c 0AB1     		cbz	r2, .L45
 382              		.loc 1 244 0
 383 001e 406B     		ldr	r0, [r0, #52]
 384 0020 9047     		blx	r2
 385              	.LVL19:
 386              	.L45:
 387              		.loc 1 247 0
 388 0022 BDE81040 		pop	{r4, lr}
 389              		.loc 1 246 0
 390 0026 FFF7FEBF 		b	_port_irq_epilogue
 391              	.LVL20:
 392              	.L50:
 393 002a 00BF     		.align	2
 394              	.L49:
 395 002c 00000000 		.word	.LANCHOR0
 396              		.cfi_endproc
 397              	.LFE124:
 398              		.size	Vector84, .-Vector84
 399              		.section	.text.VectorFC,"ax",%progbits
ARM GAS  /tmp/ccxWoBWC.s 			page 8


 400              		.align	2
 401              		.p2align 4,,15
 402              		.global	VectorFC
 403              		.thumb
 404              		.thumb_func
 405              		.type	VectorFC, %function
 406              	VectorFC:
 407              	.LFB125:
 408              		.loc 1 254 0
 409              		.cfi_startproc
 410              		@ args = 0, pretend = 0, frame = 0
 411              		@ frame_needed = 0, uses_anonymous_args = 0
 412              		.loc 1 259 0
 413 0000 4FF4C043 		mov	r3, #24576
 414 0004 C4F20203 		movt	r3, 16386
 415              		.loc 1 261 0
 416 0008 0848     		ldr	r0, .L56
 417              		.loc 1 259 0
 418 000a 5968     		ldr	r1, [r3, #4]
 419              		.loc 1 261 0
 420 000c 826B     		ldr	r2, [r0, #56]
 421              		.loc 1 254 0
 422 000e 10B5     		push	{r4, lr}
 423              	.LCFI7:
 424              		.cfi_def_cfa_offset 8
 425              		.cfi_offset 4, -8
 426              		.cfi_offset 14, -4
 427              		.loc 1 259 0
 428 0010 8C0D     		lsrs	r4, r1, #22
 429 0012 04F03D01 		and	r1, r4, #61
 430              	.LVL21:
 431              		.loc 1 260 0
 432 0016 4FF07464 		mov	r4, #255852544
 433 001a DC60     		str	r4, [r3, #12]
 434              		.loc 1 261 0
 435 001c 0AB1     		cbz	r2, .L52
 436              		.loc 1 262 0
 437 001e C06B     		ldr	r0, [r0, #60]
 438 0020 9047     		blx	r2
 439              	.LVL22:
 440              	.L52:
 441              		.loc 1 265 0
 442 0022 BDE81040 		pop	{r4, lr}
 443              		.loc 1 264 0
 444 0026 FFF7FEBF 		b	_port_irq_epilogue
 445              	.LVL23:
 446              	.L57:
 447 002a 00BF     		.align	2
 448              	.L56:
 449 002c 00000000 		.word	.LANCHOR0
 450              		.cfi_endproc
 451              	.LFE125:
 452              		.size	VectorFC, .-VectorFC
 453              		.section	.text.Vector120,"ax",%progbits
 454              		.align	2
 455              		.p2align 4,,15
 456              		.global	Vector120
ARM GAS  /tmp/ccxWoBWC.s 			page 9


 457              		.thumb
 458              		.thumb_func
 459              		.type	Vector120, %function
 460              	Vector120:
 461              	.LFB126:
 462              		.loc 1 272 0
 463              		.cfi_startproc
 464              		@ args = 0, pretend = 0, frame = 0
 465              		@ frame_needed = 0, uses_anonymous_args = 0
 466              		.loc 1 277 0
 467 0000 4FF4C843 		mov	r3, #25600
 468 0004 C4F20203 		movt	r3, 16386
 469              		.loc 1 279 0
 470 0008 0748     		ldr	r0, .L63
 471              		.loc 1 277 0
 472 000a 1968     		ldr	r1, [r3, #0]
 473              		.loc 1 279 0
 474 000c 026C     		ldr	r2, [r0, #64]
 475              		.loc 1 272 0
 476 000e 10B5     		push	{r4, lr}
 477              	.LCFI8:
 478              		.cfi_def_cfa_offset 8
 479              		.cfi_offset 4, -8
 480              		.cfi_offset 14, -4
 481              		.loc 1 278 0
 482 0010 3D24     		movs	r4, #61
 483              		.loc 1 277 0
 484 0012 01F03D01 		and	r1, r1, #61
 485              	.LVL24:
 486              		.loc 1 278 0
 487 0016 9C60     		str	r4, [r3, #8]
 488              		.loc 1 279 0
 489 0018 0AB1     		cbz	r2, .L59
 490              		.loc 1 280 0
 491 001a 406C     		ldr	r0, [r0, #68]
 492 001c 9047     		blx	r2
 493              	.LVL25:
 494              	.L59:
 495              		.loc 1 283 0
 496 001e BDE81040 		pop	{r4, lr}
 497              		.loc 1 282 0
 498 0022 FFF7FEBF 		b	_port_irq_epilogue
 499              	.LVL26:
 500              	.L64:
 501 0026 00BF     		.align	2
 502              	.L63:
 503 0028 00000000 		.word	.LANCHOR0
 504              		.cfi_endproc
 505              	.LFE126:
 506              		.size	Vector120, .-Vector120
 507 002c AFF30080 		.section	.text.Vector124,"ax",%progbits
 508              		.align	2
 509              		.p2align 4,,15
 510              		.global	Vector124
 511              		.thumb
 512              		.thumb_func
 513              		.type	Vector124, %function
ARM GAS  /tmp/ccxWoBWC.s 			page 10


 514              	Vector124:
 515              	.LFB127:
 516              		.loc 1 290 0
 517              		.cfi_startproc
 518              		@ args = 0, pretend = 0, frame = 0
 519              		@ frame_needed = 0, uses_anonymous_args = 0
 520              		.loc 1 295 0
 521 0000 4FF4C843 		mov	r3, #25600
 522 0004 C4F20203 		movt	r3, 16386
 523              		.loc 1 297 0
 524 0008 0848     		ldr	r0, .L70
 525              		.loc 1 295 0
 526 000a 1968     		ldr	r1, [r3, #0]
 527              		.loc 1 297 0
 528 000c 826C     		ldr	r2, [r0, #72]
 529              		.loc 1 290 0
 530 000e 10B5     		push	{r4, lr}
 531              	.LCFI9:
 532              		.cfi_def_cfa_offset 8
 533              		.cfi_offset 4, -8
 534              		.cfi_offset 14, -4
 535              		.loc 1 295 0
 536 0010 8C09     		lsrs	r4, r1, #6
 537 0012 04F03D01 		and	r1, r4, #61
 538              	.LVL27:
 539              		.loc 1 296 0
 540 0016 4FF47464 		mov	r4, #3904
 541 001a 9C60     		str	r4, [r3, #8]
 542              		.loc 1 297 0
 543 001c 0AB1     		cbz	r2, .L66
 544              		.loc 1 298 0
 545 001e C06C     		ldr	r0, [r0, #76]
 546 0020 9047     		blx	r2
 547              	.LVL28:
 548              	.L66:
 549              		.loc 1 301 0
 550 0022 BDE81040 		pop	{r4, lr}
 551              		.loc 1 300 0
 552 0026 FFF7FEBF 		b	_port_irq_epilogue
 553              	.LVL29:
 554              	.L71:
 555 002a 00BF     		.align	2
 556              	.L70:
 557 002c 00000000 		.word	.LANCHOR0
 558              		.cfi_endproc
 559              	.LFE127:
 560              		.size	Vector124, .-Vector124
 561              		.section	.text.Vector128,"ax",%progbits
 562              		.align	2
 563              		.p2align 4,,15
 564              		.global	Vector128
 565              		.thumb
 566              		.thumb_func
 567              		.type	Vector128, %function
 568              	Vector128:
 569              	.LFB128:
 570              		.loc 1 308 0
ARM GAS  /tmp/ccxWoBWC.s 			page 11


 571              		.cfi_startproc
 572              		@ args = 0, pretend = 0, frame = 0
 573              		@ frame_needed = 0, uses_anonymous_args = 0
 574              		.loc 1 313 0
 575 0000 4FF4C843 		mov	r3, #25600
 576 0004 C4F20203 		movt	r3, 16386
 577              		.loc 1 315 0
 578 0008 0848     		ldr	r0, .L77
 579              		.loc 1 313 0
 580 000a 1968     		ldr	r1, [r3, #0]
 581              		.loc 1 315 0
 582 000c 026D     		ldr	r2, [r0, #80]
 583              		.loc 1 308 0
 584 000e 10B5     		push	{r4, lr}
 585              	.LCFI10:
 586              		.cfi_def_cfa_offset 8
 587              		.cfi_offset 4, -8
 588              		.cfi_offset 14, -4
 589              		.loc 1 313 0
 590 0010 0C0C     		lsrs	r4, r1, #16
 591 0012 04F03D01 		and	r1, r4, #61
 592              	.LVL30:
 593              		.loc 1 314 0
 594 0016 4FF47414 		mov	r4, #3997696
 595 001a 9C60     		str	r4, [r3, #8]
 596              		.loc 1 315 0
 597 001c 0AB1     		cbz	r2, .L73
 598              		.loc 1 316 0
 599 001e 406D     		ldr	r0, [r0, #84]
 600 0020 9047     		blx	r2
 601              	.LVL31:
 602              	.L73:
 603              		.loc 1 319 0
 604 0022 BDE81040 		pop	{r4, lr}
 605              		.loc 1 318 0
 606 0026 FFF7FEBF 		b	_port_irq_epilogue
 607              	.LVL32:
 608              	.L78:
 609 002a 00BF     		.align	2
 610              	.L77:
 611 002c 00000000 		.word	.LANCHOR0
 612              		.cfi_endproc
 613              	.LFE128:
 614              		.size	Vector128, .-Vector128
 615              		.section	.text.Vector12C,"ax",%progbits
 616              		.align	2
 617              		.p2align 4,,15
 618              		.global	Vector12C
 619              		.thumb
 620              		.thumb_func
 621              		.type	Vector12C, %function
 622              	Vector12C:
 623              	.LFB129:
 624              		.loc 1 326 0
 625              		.cfi_startproc
 626              		@ args = 0, pretend = 0, frame = 0
 627              		@ frame_needed = 0, uses_anonymous_args = 0
ARM GAS  /tmp/ccxWoBWC.s 			page 12


 628              		.loc 1 331 0
 629 0000 4FF4C843 		mov	r3, #25600
 630 0004 C4F20203 		movt	r3, 16386
 631              		.loc 1 333 0
 632 0008 0848     		ldr	r0, .L84
 633              		.loc 1 331 0
 634 000a 1968     		ldr	r1, [r3, #0]
 635              		.loc 1 333 0
 636 000c 826D     		ldr	r2, [r0, #88]
 637              		.loc 1 326 0
 638 000e 10B5     		push	{r4, lr}
 639              	.LCFI11:
 640              		.cfi_def_cfa_offset 8
 641              		.cfi_offset 4, -8
 642              		.cfi_offset 14, -4
 643              		.loc 1 331 0
 644 0010 8C0D     		lsrs	r4, r1, #22
 645 0012 04F03D01 		and	r1, r4, #61
 646              	.LVL33:
 647              		.loc 1 332 0
 648 0016 4FF07464 		mov	r4, #255852544
 649 001a 9C60     		str	r4, [r3, #8]
 650              		.loc 1 333 0
 651 001c 0AB1     		cbz	r2, .L80
 652              		.loc 1 334 0
 653 001e C06D     		ldr	r0, [r0, #92]
 654 0020 9047     		blx	r2
 655              	.LVL34:
 656              	.L80:
 657              		.loc 1 337 0
 658 0022 BDE81040 		pop	{r4, lr}
 659              		.loc 1 336 0
 660 0026 FFF7FEBF 		b	_port_irq_epilogue
 661              	.LVL35:
 662              	.L85:
 663 002a 00BF     		.align	2
 664              	.L84:
 665 002c 00000000 		.word	.LANCHOR0
 666              		.cfi_endproc
 667              	.LFE129:
 668              		.size	Vector12C, .-Vector12C
 669              		.section	.text.Vector130,"ax",%progbits
 670              		.align	2
 671              		.p2align 4,,15
 672              		.global	Vector130
 673              		.thumb
 674              		.thumb_func
 675              		.type	Vector130, %function
 676              	Vector130:
 677              	.LFB130:
 678              		.loc 1 344 0
 679              		.cfi_startproc
 680              		@ args = 0, pretend = 0, frame = 0
 681              		@ frame_needed = 0, uses_anonymous_args = 0
 682              		.loc 1 349 0
 683 0000 4FF4C843 		mov	r3, #25600
 684 0004 C4F20203 		movt	r3, 16386
ARM GAS  /tmp/ccxWoBWC.s 			page 13


 685              		.loc 1 351 0
 686 0008 0748     		ldr	r0, .L91
 687              		.loc 1 349 0
 688 000a 5968     		ldr	r1, [r3, #4]
 689              		.loc 1 351 0
 690 000c 026E     		ldr	r2, [r0, #96]
 691              		.loc 1 344 0
 692 000e 10B5     		push	{r4, lr}
 693              	.LCFI12:
 694              		.cfi_def_cfa_offset 8
 695              		.cfi_offset 4, -8
 696              		.cfi_offset 14, -4
 697              		.loc 1 350 0
 698 0010 3D24     		movs	r4, #61
 699              		.loc 1 349 0
 700 0012 01F03D01 		and	r1, r1, #61
 701              	.LVL36:
 702              		.loc 1 350 0
 703 0016 DC60     		str	r4, [r3, #12]
 704              		.loc 1 351 0
 705 0018 0AB1     		cbz	r2, .L87
 706              		.loc 1 352 0
 707 001a 406E     		ldr	r0, [r0, #100]
 708 001c 9047     		blx	r2
 709              	.LVL37:
 710              	.L87:
 711              		.loc 1 355 0
 712 001e BDE81040 		pop	{r4, lr}
 713              		.loc 1 354 0
 714 0022 FFF7FEBF 		b	_port_irq_epilogue
 715              	.LVL38:
 716              	.L92:
 717 0026 00BF     		.align	2
 718              	.L91:
 719 0028 00000000 		.word	.LANCHOR0
 720              		.cfi_endproc
 721              	.LFE130:
 722              		.size	Vector130, .-Vector130
 723 002c AFF30080 		.section	.text.Vector150,"ax",%progbits
 724              		.align	2
 725              		.p2align 4,,15
 726              		.global	Vector150
 727              		.thumb
 728              		.thumb_func
 729              		.type	Vector150, %function
 730              	Vector150:
 731              	.LFB131:
 732              		.loc 1 362 0
 733              		.cfi_startproc
 734              		@ args = 0, pretend = 0, frame = 0
 735              		@ frame_needed = 0, uses_anonymous_args = 0
 736              		.loc 1 367 0
 737 0000 4FF4C843 		mov	r3, #25600
 738 0004 C4F20203 		movt	r3, 16386
 739              		.loc 1 369 0
 740 0008 0848     		ldr	r0, .L98
 741              		.loc 1 367 0
ARM GAS  /tmp/ccxWoBWC.s 			page 14


 742 000a 5968     		ldr	r1, [r3, #4]
 743              		.loc 1 369 0
 744 000c 826E     		ldr	r2, [r0, #104]
 745              		.loc 1 362 0
 746 000e 10B5     		push	{r4, lr}
 747              	.LCFI13:
 748              		.cfi_def_cfa_offset 8
 749              		.cfi_offset 4, -8
 750              		.cfi_offset 14, -4
 751              		.loc 1 367 0
 752 0010 8C09     		lsrs	r4, r1, #6
 753 0012 04F03D01 		and	r1, r4, #61
 754              	.LVL39:
 755              		.loc 1 368 0
 756 0016 4FF47464 		mov	r4, #3904
 757 001a DC60     		str	r4, [r3, #12]
 758              		.loc 1 369 0
 759 001c 0AB1     		cbz	r2, .L94
 760              		.loc 1 370 0
 761 001e C06E     		ldr	r0, [r0, #108]
 762 0020 9047     		blx	r2
 763              	.LVL40:
 764              	.L94:
 765              		.loc 1 373 0
 766 0022 BDE81040 		pop	{r4, lr}
 767              		.loc 1 372 0
 768 0026 FFF7FEBF 		b	_port_irq_epilogue
 769              	.LVL41:
 770              	.L99:
 771 002a 00BF     		.align	2
 772              	.L98:
 773 002c 00000000 		.word	.LANCHOR0
 774              		.cfi_endproc
 775              	.LFE131:
 776              		.size	Vector150, .-Vector150
 777              		.section	.text.Vector154,"ax",%progbits
 778              		.align	2
 779              		.p2align 4,,15
 780              		.global	Vector154
 781              		.thumb
 782              		.thumb_func
 783              		.type	Vector154, %function
 784              	Vector154:
 785              	.LFB132:
 786              		.loc 1 380 0
 787              		.cfi_startproc
 788              		@ args = 0, pretend = 0, frame = 0
 789              		@ frame_needed = 0, uses_anonymous_args = 0
 790              		.loc 1 385 0
 791 0000 4FF4C843 		mov	r3, #25600
 792 0004 C4F20203 		movt	r3, 16386
 793              		.loc 1 387 0
 794 0008 0848     		ldr	r0, .L105
 795              		.loc 1 385 0
 796 000a 5968     		ldr	r1, [r3, #4]
 797              		.loc 1 387 0
 798 000c 026F     		ldr	r2, [r0, #112]
ARM GAS  /tmp/ccxWoBWC.s 			page 15


 799              		.loc 1 380 0
 800 000e 10B5     		push	{r4, lr}
 801              	.LCFI14:
 802              		.cfi_def_cfa_offset 8
 803              		.cfi_offset 4, -8
 804              		.cfi_offset 14, -4
 805              		.loc 1 385 0
 806 0010 0C0C     		lsrs	r4, r1, #16
 807 0012 04F03D01 		and	r1, r4, #61
 808              	.LVL42:
 809              		.loc 1 386 0
 810 0016 4FF47414 		mov	r4, #3997696
 811 001a DC60     		str	r4, [r3, #12]
 812              		.loc 1 387 0
 813 001c 0AB1     		cbz	r2, .L101
 814              		.loc 1 388 0
 815 001e 406F     		ldr	r0, [r0, #116]
 816 0020 9047     		blx	r2
 817              	.LVL43:
 818              	.L101:
 819              		.loc 1 391 0
 820 0022 BDE81040 		pop	{r4, lr}
 821              		.loc 1 390 0
 822 0026 FFF7FEBF 		b	_port_irq_epilogue
 823              	.LVL44:
 824              	.L106:
 825 002a 00BF     		.align	2
 826              	.L105:
 827 002c 00000000 		.word	.LANCHOR0
 828              		.cfi_endproc
 829              	.LFE132:
 830              		.size	Vector154, .-Vector154
 831              		.section	.text.Vector158,"ax",%progbits
 832              		.align	2
 833              		.p2align 4,,15
 834              		.global	Vector158
 835              		.thumb
 836              		.thumb_func
 837              		.type	Vector158, %function
 838              	Vector158:
 839              	.LFB133:
 840              		.loc 1 398 0
 841              		.cfi_startproc
 842              		@ args = 0, pretend = 0, frame = 0
 843              		@ frame_needed = 0, uses_anonymous_args = 0
 844              		.loc 1 403 0
 845 0000 4FF4C843 		mov	r3, #25600
 846 0004 C4F20203 		movt	r3, 16386
 847              		.loc 1 405 0
 848 0008 0848     		ldr	r0, .L112
 849              		.loc 1 403 0
 850 000a 5968     		ldr	r1, [r3, #4]
 851              		.loc 1 405 0
 852 000c 826F     		ldr	r2, [r0, #120]
 853              		.loc 1 398 0
 854 000e 10B5     		push	{r4, lr}
 855              	.LCFI15:
ARM GAS  /tmp/ccxWoBWC.s 			page 16


 856              		.cfi_def_cfa_offset 8
 857              		.cfi_offset 4, -8
 858              		.cfi_offset 14, -4
 859              		.loc 1 403 0
 860 0010 8C0D     		lsrs	r4, r1, #22
 861 0012 04F03D01 		and	r1, r4, #61
 862              	.LVL45:
 863              		.loc 1 404 0
 864 0016 4FF07464 		mov	r4, #255852544
 865 001a DC60     		str	r4, [r3, #12]
 866              		.loc 1 405 0
 867 001c 0AB1     		cbz	r2, .L108
 868              		.loc 1 406 0
 869 001e C06F     		ldr	r0, [r0, #124]
 870 0020 9047     		blx	r2
 871              	.LVL46:
 872              	.L108:
 873              		.loc 1 409 0
 874 0022 BDE81040 		pop	{r4, lr}
 875              		.loc 1 408 0
 876 0026 FFF7FEBF 		b	_port_irq_epilogue
 877              	.LVL47:
 878              	.L113:
 879 002a 00BF     		.align	2
 880              	.L112:
 881 002c 00000000 		.word	.LANCHOR0
 882              		.cfi_endproc
 883              	.LFE133:
 884              		.size	Vector158, .-Vector158
 885              		.section	.text.dmaInit,"ax",%progbits
 886              		.align	2
 887              		.p2align 4,,15
 888              		.global	dmaInit
 889              		.thumb
 890              		.thumb_func
 891              		.type	dmaInit, %function
 892              	dmaInit:
 893              	.LFB134:
 894              		.loc 1 420 0
 895              		.cfi_startproc
 896              		@ args = 0, pretend = 0, frame = 40
 897              		@ frame_needed = 0, uses_anonymous_args = 0
 898              		@ link register save eliminated.
 899 0000 2DE9F00F 		push	{r4, r5, r6, r7, r8, r9, sl, fp}
 900              	.LCFI16:
 901              		.cfi_def_cfa_offset 32
 902              		.cfi_offset 4, -32
 903              		.cfi_offset 5, -28
 904              		.cfi_offset 6, -24
 905              		.cfi_offset 7, -20
 906              		.cfi_offset 8, -16
 907              		.cfi_offset 9, -12
 908              		.cfi_offset 10, -8
 909              		.cfi_offset 11, -4
 910              		.loc 1 423 0
 911 0004 40F20005 		movw	r5, #:lower16:.LANCHOR1
 912              		.loc 1 420 0
ARM GAS  /tmp/ccxWoBWC.s 			page 17


 913 0008 8AB0     		sub	sp, sp, #40
 914              	.LCFI17:
 915              		.cfi_def_cfa_offset 72
 916              		.loc 1 423 0
 917 000a C0F20005 		movt	r5, #:upper16:.LANCHOR1
 918              		.loc 1 425 0
 919 000e 46F24040 		movw	r0, #25664
 920              		.loc 1 423 0
 921 0012 0295     		str	r5, [sp, #8]
 922              		.loc 1 425 0
 923 0014 7830     		adds	r0, r0, #120
 924 0016 46F21045 		movw	r5, #25616
 925 001a C4F20205 		movt	r5, 16386
 926 001e A0F58060 		sub	r0, r0, #1024
 927 0022 0495     		str	r5, [sp, #16]
 928 0024 C4F20200 		movt	r0, 16386
 929 0028 46F24045 		movw	r5, #25664
 930 002c 0390     		str	r0, [sp, #12]
 931 002e C4F20205 		movt	r5, 16386
 932 0032 46F22840 		movw	r0, #25640
 933 0036 0695     		str	r5, [sp, #24]
 934 0038 C4F20200 		movt	r0, 16386
 935 003c 46F27045 		movw	r5, #25712
 936 0040 0590     		str	r0, [sp, #20]
 937 0042 C4F20205 		movt	r5, 16386
 938 0046 46F25840 		movw	r0, #25688
 939 004a 0195     		str	r5, [sp, #4]
 940 004c C4F20200 		movt	r0, 16386
 941 0050 46F2B845 		movw	r5, #25784
 942 0054 0790     		str	r0, [sp, #28]
 943 0056 C4F20205 		movt	r5, 16386
 944 005a 46F28840 		movw	r0, #25736
 945 005e 0995     		str	r5, [sp, #36]
 946 0060 C4F20200 		movt	r0, 16386
 947              		.loc 1 423 0
 948 0064 029D     		ldr	r5, [sp, #8]
 949              		.loc 1 425 0
 950 0066 0890     		str	r0, [sp, #32]
 951 0068 46F2100B 		movw	fp, #24592
 952              		.loc 1 423 0
 953 006c 0020     		movs	r0, #0
 954              		.loc 1 426 0
 955 006e 40F20003 		movw	r3, #:lower16:.LANCHOR0
 956              		.loc 1 425 0
 957 0072 46F2280A 		movw	sl, #24616
 958 0076 46F24009 		movw	r9, #24640
 959 007a 46F25808 		movw	r8, #24664
 960 007e 46F2700C 		movw	ip, #24688
 961 0082 46F28807 		movw	r7, #24712
 962 0086 46F2A006 		movw	r6, #24736
 963              		.loc 1 426 0
 964 008a C0F20003 		movt	r3, #:upper16:.LANCHOR0
 965              		.loc 1 423 0
 966 008e 2860     		str	r0, [r5, #0]
 967              	.LVL48:
 968              		.loc 1 425 0
 969 0090 C4F2020B 		movt	fp, 16386
ARM GAS  /tmp/ccxWoBWC.s 			page 18


 970 0094 039D     		ldr	r5, [sp, #12]
 971 0096 CBF80000 		str	r0, [fp, #0]
 972 009a C4F2020A 		movt	sl, 16386
 973 009e C4F20209 		movt	r9, 16386
 974 00a2 C4F20208 		movt	r8, 16386
 975 00a6 C4F2020C 		movt	ip, 16386
 976 00aa C4F20207 		movt	r7, 16386
 977 00ae C4F20206 		movt	r6, 16386
 978              		.loc 1 426 0
 979 00b2 1860     		str	r0, [r3, #0]
 980              	.LVL49:
 981              		.loc 1 425 0
 982 00b4 CAF80000 		str	r0, [sl, #0]
 983              		.loc 1 426 0
 984 00b8 9860     		str	r0, [r3, #8]
 985              	.LVL50:
 986              		.loc 1 425 0
 987 00ba C9F80000 		str	r0, [r9, #0]
 988              		.loc 1 426 0
 989 00be 1861     		str	r0, [r3, #16]
 990              	.LVL51:
 991              		.loc 1 425 0
 992 00c0 C8F80000 		str	r0, [r8, #0]
 993              		.loc 1 426 0
 994 00c4 9861     		str	r0, [r3, #24]
 995              	.LVL52:
 996              		.loc 1 425 0
 997 00c6 CCF80000 		str	r0, [ip, #0]
 998              		.loc 1 426 0
 999 00ca 1862     		str	r0, [r3, #32]
 1000              	.LVL53:
 1001              		.loc 1 425 0
 1002 00cc 3860     		str	r0, [r7, #0]
 1003              		.loc 1 426 0
 1004 00ce 9862     		str	r0, [r3, #40]
 1005              	.LVL54:
 1006              		.loc 1 425 0
 1007 00d0 3060     		str	r0, [r6, #0]
 1008              		.loc 1 426 0
 1009 00d2 1863     		str	r0, [r3, #48]
 1010              	.LVL55:
 1011              		.loc 1 425 0
 1012 00d4 2860     		str	r0, [r5, #0]
 1013 00d6 049D     		ldr	r5, [sp, #16]
 1014              		.loc 1 426 0
 1015 00d8 9863     		str	r0, [r3, #56]
 1016              	.LVL56:
 1017              		.loc 1 425 0
 1018 00da 2860     		str	r0, [r5, #0]
 1019 00dc 059D     		ldr	r5, [sp, #20]
 1020              		.loc 1 426 0
 1021 00de 1864     		str	r0, [r3, #64]
 1022              	.LVL57:
 1023              		.loc 1 425 0
 1024 00e0 2860     		str	r0, [r5, #0]
 1025 00e2 069D     		ldr	r5, [sp, #24]
 1026              		.loc 1 426 0
ARM GAS  /tmp/ccxWoBWC.s 			page 19


 1027 00e4 9864     		str	r0, [r3, #72]
 1028              	.LVL58:
 1029              		.loc 1 425 0
 1030 00e6 2860     		str	r0, [r5, #0]
 1031 00e8 079D     		ldr	r5, [sp, #28]
 1032              		.loc 1 426 0
 1033 00ea 1865     		str	r0, [r3, #80]
 1034              	.LVL59:
 1035              		.loc 1 425 0
 1036 00ec 46F21044 		movw	r4, #25616
 1037 00f0 2860     		str	r0, [r5, #0]
 1038 00f2 6034     		adds	r4, r4, #96
 1039 00f4 019D     		ldr	r5, [sp, #4]
 1040              		.loc 1 426 0
 1041 00f6 9865     		str	r0, [r3, #88]
 1042              	.LVL60:
 1043              		.loc 1 425 0
 1044 00f8 3034     		adds	r4, r4, #48
 1045 00fa 2860     		str	r0, [r5, #0]
 1046 00fc C4F20204 		movt	r4, 16386
 1047 0100 089D     		ldr	r5, [sp, #32]
 1048              		.loc 1 426 0
 1049 0102 1866     		str	r0, [r3, #96]
 1050              	.LVL61:
 1051              		.loc 1 428 0
 1052 0104 4FF4C041 		mov	r1, #24576
 1053              		.loc 1 430 0
 1054 0108 4FF4C842 		mov	r2, #25600
 1055              		.loc 1 425 0
 1056 010c 2860     		str	r0, [r5, #0]
 1057              		.loc 1 428 0
 1058 010e C4F20201 		movt	r1, 16386
 1059              		.loc 1 426 0
 1060 0112 9866     		str	r0, [r3, #104]
 1061              	.LVL62:
 1062              		.loc 1 430 0
 1063 0114 C4F20202 		movt	r2, 16386
 1064              		.loc 1 425 0
 1065 0118 2060     		str	r0, [r4, #0]
 1066 011a 099C     		ldr	r4, [sp, #36]
 1067              		.loc 1 426 0
 1068 011c 1867     		str	r0, [r3, #112]
 1069              	.LVL63:
 1070              		.loc 1 428 0
 1071 011e 4FF0FF35 		mov	r5, #-1
 1072              		.loc 1 425 0
 1073 0122 2060     		str	r0, [r4, #0]
 1074              		.loc 1 426 0
 1075 0124 9867     		str	r0, [r3, #120]
 1076              	.LVL64:
 1077              		.loc 1 428 0
 1078 0126 8D60     		str	r5, [r1, #8]
 1079              		.loc 1 429 0
 1080 0128 CD60     		str	r5, [r1, #12]
 1081              		.loc 1 430 0
 1082 012a 9560     		str	r5, [r2, #8]
 1083              		.loc 1 431 0
ARM GAS  /tmp/ccxWoBWC.s 			page 20


 1084 012c D560     		str	r5, [r2, #12]
 1085              		.loc 1 432 0
 1086 012e 0AB0     		add	sp, sp, #40
 1087 0130 BDE8F00F 		pop	{r4, r5, r6, r7, r8, r9, sl, fp}
 1088 0134 7047     		bx	lr
 1089              		.cfi_endproc
 1090              	.LFE134:
 1091              		.size	dmaInit, .-dmaInit
 1092              		.section	.text.dmaStreamAllocate,"ax",%progbits
 1093              		.align	2
 1094              		.p2align 4,,15
 1095              		.global	dmaStreamAllocate
 1096              		.thumb
 1097              		.thumb_func
 1098              		.type	dmaStreamAllocate, %function
 1099              	dmaStreamAllocate:
 1100              	.LFB135:
 1101              		.loc 1 461 0
 1102              		.cfi_startproc
 1103              		@ args = 0, pretend = 0, frame = 0
 1104              		@ frame_needed = 0, uses_anonymous_args = 0
 1105              	.LVL65:
 1106 0000 2DE9F041 		push	{r4, r5, r6, r7, r8, lr}
 1107              	.LCFI18:
 1108              		.cfi_def_cfa_offset 24
 1109              		.cfi_offset 4, -24
 1110              		.cfi_offset 5, -20
 1111              		.cfi_offset 6, -16
 1112              		.cfi_offset 7, -12
 1113              		.cfi_offset 8, -8
 1114              		.cfi_offset 14, -4
 1115              		.loc 1 466 0
 1116 0004 244E     		ldr	r6, .L130
 1117 0006 447A     		ldrb	r4, [r0, #9]	@ zero_extendqisi2
 1118 0008 3768     		ldr	r7, [r6, #0]
 1119 000a 0125     		movs	r5, #1
 1120 000c 05FA04FC 		lsl	ip, r5, r4
 1121 0010 1CEA070F 		tst	ip, r7
 1122 0014 3AD1     		bne	.L120
 1123              		.loc 1 470 0
 1124 0016 214D     		ldr	r5, .L130+4
 1125              		.loc 1 472 0
 1126 0018 4CEA0707 		orr	r7, ip, r7
 1127              		.loc 1 471 0
 1128 001c 05EBC408 		add	r8, r5, r4, lsl #3
 1129              		.loc 1 475 0
 1130 0020 17F0FF0F 		tst	r7, #255
 1131              		.loc 1 470 0
 1132 0024 45F83420 		str	r2, [r5, r4, lsl #3]
 1133              		.loc 1 471 0
 1134 0028 C8F80430 		str	r3, [r8, #4]
 1135              		.loc 1 472 0
 1136 002c 3760     		str	r7, [r6, #0]
 1137              		.loc 1 475 0
 1138 002e 07D0     		beq	.L117
 1139              		.loc 1 476 0
 1140 0030 4FF46053 		mov	r3, #14336
ARM GAS  /tmp/ccxWoBWC.s 			page 21


 1141              	.LVL66:
 1142 0034 C4F20203 		movt	r3, 16386
 1143 0038 1C6B     		ldr	r4, [r3, #48]
 1144 003a 44F40016 		orr	r6, r4, #2097152
 1145 003e 1E63     		str	r6, [r3, #48]
 1146              	.L117:
 1147              		.loc 1 477 0
 1148 0040 17F47F4F 		tst	r7, #65280
 1149 0044 19D1     		bne	.L129
 1150              	.L118:
 1151              		.loc 1 481 0
 1152 0046 0468     		ldr	r4, [r0, #0]
 1153 0048 2668     		ldr	r6, [r4, #0]
 1154 004a 26F01F05 		bic	r5, r6, #31
 1155 004e 2560     		str	r5, [r4, #0]
 1156              	.L119:
 1157              		.loc 1 481 0 is_stmt 0 discriminator 1
 1158 0050 2768     		ldr	r7, [r4, #0]
 1159 0052 17F00105 		ands	r5, r7, #1
 1160 0056 FBD1     		bne	.L119
 1161              		.loc 1 481 0 discriminator 2
 1162 0058 067A     		ldrb	r6, [r0, #8]	@ zero_extendqisi2
 1163 005a 4368     		ldr	r3, [r0, #4]
 1164 005c 3D27     		movs	r7, #61
 1165 005e 07FA06F6 		lsl	r6, r7, r6
 1166 0062 1E60     		str	r6, [r3, #0]
 1167              		.loc 1 483 0 is_stmt 1 discriminator 2
 1168 0064 2123     		movs	r3, #33
 1169              		.loc 1 482 0 discriminator 2
 1170 0066 2560     		str	r5, [r4, #0]
 1171              		.loc 1 483 0 discriminator 2
 1172 0068 6361     		str	r3, [r4, #20]
 1173              		.loc 1 486 0 discriminator 2
 1174 006a 92B1     		cbz	r2, .L121
 1175              		.loc 1 487 0
 1176 006c 807A     		ldrb	r0, [r0, #10]	@ zero_extendqisi2
 1177              	.LVL67:
 1178 006e 0901     		lsls	r1, r1, #4
 1179              	.LVL68:
 1180 0070 FFF7FEFF 		bl	nvicEnableVector
 1181              	.LVL69:
 1182              		.loc 1 489 0
 1183 0074 2846     		mov	r0, r5
 1184 0076 BDE8F081 		pop	{r4, r5, r6, r7, r8, pc}
 1185              	.LVL70:
 1186              	.L129:
 1187              		.loc 1 478 0
 1188 007a 4FF46055 		mov	r5, #14336
 1189 007e C4F20205 		movt	r5, 16386
 1190 0082 2F6B     		ldr	r7, [r5, #48]
 1191 0084 47F48003 		orr	r3, r7, #4194304
 1192 0088 2B63     		str	r3, [r5, #48]
 1193 008a DCE7     		b	.L118
 1194              	.LVL71:
 1195              	.L120:
 1196              		.loc 1 467 0
 1197 008c 2846     		mov	r0, r5
ARM GAS  /tmp/ccxWoBWC.s 			page 22


 1198              	.LVL72:
 1199 008e BDE8F081 		pop	{r4, r5, r6, r7, r8, pc}
 1200              	.LVL73:
 1201              	.L121:
 1202              		.loc 1 489 0
 1203 0092 1046     		mov	r0, r2
 1204              	.LVL74:
 1205              		.loc 1 490 0
 1206 0094 BDE8F081 		pop	{r4, r5, r6, r7, r8, pc}
 1207              	.L131:
 1208              		.align	2
 1209              	.L130:
 1210 0098 00000000 		.word	.LANCHOR1
 1211 009c 00000000 		.word	.LANCHOR0
 1212              		.cfi_endproc
 1213              	.LFE135:
 1214              		.size	dmaStreamAllocate, .-dmaStreamAllocate
 1215              		.section	.text.dmaStreamRelease,"ax",%progbits
 1216              		.align	2
 1217              		.p2align 4,,15
 1218              		.global	dmaStreamRelease
 1219              		.thumb
 1220              		.thumb_func
 1221              		.type	dmaStreamRelease, %function
 1222              	dmaStreamRelease:
 1223              	.LFB136:
 1224              		.loc 1 505 0
 1225              		.cfi_startproc
 1226              		@ args = 0, pretend = 0, frame = 0
 1227              		@ frame_needed = 0, uses_anonymous_args = 0
 1228              	.LVL75:
 1229 0000 10B5     		push	{r4, lr}
 1230              	.LCFI19:
 1231              		.cfi_def_cfa_offset 8
 1232              		.cfi_offset 4, -8
 1233              		.cfi_offset 14, -4
 1234              		.loc 1 505 0
 1235 0002 0446     		mov	r4, r0
 1236              		.loc 1 514 0
 1237 0004 807A     		ldrb	r0, [r0, #10]	@ zero_extendqisi2
 1238              	.LVL76:
 1239 0006 FFF7FEFF 		bl	nvicDisableVector
 1240              	.LVL77:
 1241              		.loc 1 517 0
 1242 000a 104A     		ldr	r2, .L135
 1243 000c 637A     		ldrb	r3, [r4, #9]	@ zero_extendqisi2
 1244 000e 1168     		ldr	r1, [r2, #0]
 1245 0010 0120     		movs	r0, #1
 1246 0012 00FA03F3 		lsl	r3, r0, r3
 1247 0016 21EA0300 		bic	r0, r1, r3
 1248              		.loc 1 520 0
 1249 001a 10F0FF0F 		tst	r0, #255
 1250              		.loc 1 517 0
 1251 001e 1060     		str	r0, [r2, #0]
 1252              		.loc 1 520 0
 1253 0020 07D1     		bne	.L133
 1254              		.loc 1 521 0
ARM GAS  /tmp/ccxWoBWC.s 			page 23


 1255 0022 4FF46052 		mov	r2, #14336
 1256 0026 C4F20202 		movt	r2, 16386
 1257 002a 116B     		ldr	r1, [r2, #48]
 1258 002c 21F40013 		bic	r3, r1, #2097152
 1259 0030 1363     		str	r3, [r2, #48]
 1260              	.L133:
 1261              		.loc 1 522 0
 1262 0032 10F47F4F 		tst	r0, #65280
 1263 0036 07D1     		bne	.L132
 1264              		.loc 1 523 0
 1265 0038 4FF46050 		mov	r0, #14336
 1266 003c C4F20200 		movt	r0, 16386
 1267 0040 026B     		ldr	r2, [r0, #48]
 1268 0042 22F48001 		bic	r1, r2, #4194304
 1269 0046 0163     		str	r1, [r0, #48]
 1270              	.L132:
 1271 0048 10BD     		pop	{r4, pc}
 1272              	.L136:
 1273 004a 00BF     		.align	2
 1274              	.L135:
 1275 004c 00000000 		.word	.LANCHOR1
 1276              		.cfi_endproc
 1277              	.LFE136:
 1278              		.size	dmaStreamRelease, .-dmaStreamRelease
 1279              		.global	_stm32_dma_streams
 1280              		.section	.bss.dma_isr_redir,"aw",%nobits
 1281              		.align	2
 1282              		.set	.LANCHOR0,. + 0
 1283              		.type	dma_isr_redir, %object
 1284              		.size	dma_isr_redir, 128
 1285              	dma_isr_redir:
 1286 0000 00000000 		.space	128
 1286      00000000 
 1286      00000000 
 1286      00000000 
 1286      00000000 
 1287              		.section	.rodata._stm32_dma_streams,"a",%progbits
 1288              		.align	2
 1289              		.type	_stm32_dma_streams, %object
 1290              		.size	_stm32_dma_streams, 192
 1291              	_stm32_dma_streams:
 1292 0000 10600240 		.word	1073897488
 1293 0004 08600240 		.word	1073897480
 1294 0008 00       		.byte	0
 1295 0009 00       		.byte	0
 1296 000a 0B       		.byte	11
 1297 000b 00       		.space	1
 1298 000c 28600240 		.word	1073897512
 1299 0010 08600240 		.word	1073897480
 1300 0014 06       		.byte	6
 1301 0015 01       		.byte	1
 1302 0016 0C       		.byte	12
 1303 0017 00       		.space	1
 1304 0018 40600240 		.word	1073897536
 1305 001c 08600240 		.word	1073897480
 1306 0020 10       		.byte	16
 1307 0021 02       		.byte	2
ARM GAS  /tmp/ccxWoBWC.s 			page 24


 1308 0022 0D       		.byte	13
 1309 0023 00       		.space	1
 1310 0024 58600240 		.word	1073897560
 1311 0028 08600240 		.word	1073897480
 1312 002c 16       		.byte	22
 1313 002d 03       		.byte	3
 1314 002e 0E       		.byte	14
 1315 002f 00       		.space	1
 1316 0030 70600240 		.word	1073897584
 1317 0034 0C600240 		.word	1073897484
 1318 0038 00       		.byte	0
 1319 0039 04       		.byte	4
 1320 003a 0F       		.byte	15
 1321 003b 00       		.space	1
 1322 003c 88600240 		.word	1073897608
 1323 0040 0C600240 		.word	1073897484
 1324 0044 06       		.byte	6
 1325 0045 05       		.byte	5
 1326 0046 10       		.byte	16
 1327 0047 00       		.space	1
 1328 0048 A0600240 		.word	1073897632
 1329 004c 0C600240 		.word	1073897484
 1330 0050 10       		.byte	16
 1331 0051 06       		.byte	6
 1332 0052 11       		.byte	17
 1333 0053 00       		.space	1
 1334 0054 B8600240 		.word	1073897656
 1335 0058 0C600240 		.word	1073897484
 1336 005c 16       		.byte	22
 1337 005d 07       		.byte	7
 1338 005e 2F       		.byte	47
 1339 005f 00       		.space	1
 1340 0060 10640240 		.word	1073898512
 1341 0064 08640240 		.word	1073898504
 1342 0068 00       		.byte	0
 1343 0069 08       		.byte	8
 1344 006a 38       		.byte	56
 1345 006b 00       		.space	1
 1346 006c 28640240 		.word	1073898536
 1347 0070 08640240 		.word	1073898504
 1348 0074 06       		.byte	6
 1349 0075 09       		.byte	9
 1350 0076 39       		.byte	57
 1351 0077 00       		.space	1
 1352 0078 40640240 		.word	1073898560
 1353 007c 08640240 		.word	1073898504
 1354 0080 10       		.byte	16
 1355 0081 0A       		.byte	10
 1356 0082 3A       		.byte	58
 1357 0083 00       		.space	1
 1358 0084 58640240 		.word	1073898584
 1359 0088 08640240 		.word	1073898504
 1360 008c 16       		.byte	22
 1361 008d 0B       		.byte	11
 1362 008e 3B       		.byte	59
 1363 008f 00       		.space	1
 1364 0090 70640240 		.word	1073898608
ARM GAS  /tmp/ccxWoBWC.s 			page 25


 1365 0094 0C640240 		.word	1073898508
 1366 0098 00       		.byte	0
 1367 0099 0C       		.byte	12
 1368 009a 3C       		.byte	60
 1369 009b 00       		.space	1
 1370 009c 88640240 		.word	1073898632
 1371 00a0 0C640240 		.word	1073898508
 1372 00a4 06       		.byte	6
 1373 00a5 0D       		.byte	13
 1374 00a6 44       		.byte	68
 1375 00a7 00       		.space	1
 1376 00a8 A0640240 		.word	1073898656
 1377 00ac 0C640240 		.word	1073898508
 1378 00b0 10       		.byte	16
 1379 00b1 0E       		.byte	14
 1380 00b2 45       		.byte	69
 1381 00b3 00       		.space	1
 1382 00b4 B8640240 		.word	1073898680
 1383 00b8 0C640240 		.word	1073898508
 1384 00bc 16       		.byte	22
 1385 00bd 0F       		.byte	15
 1386 00be 46       		.byte	70
 1387 00bf 00       		.space	1
 1388              		.section	.bss.dma_streams_mask,"aw",%nobits
 1389              		.align	2
 1390              		.set	.LANCHOR1,. + 0
 1391              		.type	dma_streams_mask, %object
 1392              		.size	dma_streams_mask, 4
 1393              	dma_streams_mask:
 1394 0000 00000000 		.space	4
 1395              		.text
 1396              	.Letext0:
 1397              		.file 2 "/usr/bin/../lib/gcc/arm-none-eabi/4.7.4/../../../../arm-none-eabi/include/stdint.h"
 1398              		.file 3 "../../os/ports/GCC/ARMCMx/chtypes.h"
 1399              		.file 4 "../../os/hal/platforms/STM32F4xx/stm32f4xx.h"
 1400              		.file 5 "../../os/hal/platforms/STM32F4xx/stm32_dma.h"
 1401              		.file 6 "../../os/ports/common/ARMCMx/CMSIS/include/core_cm4.h"
 1402              		.file 7 "../../os/ports/GCC/ARMCMx/chcore_v7m.h"
 1403              		.file 8 "../../os/ports/common/ARMCMx/nvic.h"
 1404              		.section	.debug_info,"",%progbits
 1405              	.Ldebug_info0:
 1406 0000 200B0000 		.4byte	0xb20
 1407 0004 0200     		.2byte	0x2
 1408 0006 00000000 		.4byte	.Ldebug_abbrev0
 1409 000a 04       		.byte	0x4
 1410 000b 01       		.uleb128 0x1
 1411 000c 3F040000 		.4byte	.LASF180
 1412 0010 01       		.byte	0x1
 1413 0011 75000000 		.4byte	.LASF181
 1414 0015 C1000000 		.4byte	.LASF182
 1415 0019 00000000 		.4byte	.Ldebug_ranges0+0
 1416 001d 00000000 		.4byte	0
 1417 0021 00000000 		.4byte	0
 1418 0025 00000000 		.4byte	.Ldebug_line0
 1419 0029 02       		.uleb128 0x2
 1420 002a 04       		.byte	0x4
 1421 002b 05       		.byte	0x5
ARM GAS  /tmp/ccxWoBWC.s 			page 26


 1422 002c 696E7400 		.ascii	"int\000"
 1423 0030 03       		.uleb128 0x3
 1424 0031 04       		.byte	0x4
 1425 0032 07       		.byte	0x7
 1426 0033 F1020000 		.4byte	.LASF0
 1427 0037 03       		.uleb128 0x3
 1428 0038 01       		.byte	0x1
 1429 0039 06       		.byte	0x6
 1430 003a C6010000 		.4byte	.LASF1
 1431 003e 04       		.uleb128 0x4
 1432 003f 66080000 		.4byte	.LASF5
 1433 0043 02       		.byte	0x2
 1434 0044 2A       		.byte	0x2a
 1435 0045 49000000 		.4byte	0x49
 1436 0049 03       		.uleb128 0x3
 1437 004a 01       		.byte	0x1
 1438 004b 08       		.byte	0x8
 1439 004c 29060000 		.4byte	.LASF2
 1440 0050 03       		.uleb128 0x3
 1441 0051 02       		.byte	0x2
 1442 0052 05       		.byte	0x5
 1443 0053 70060000 		.4byte	.LASF3
 1444 0057 03       		.uleb128 0x3
 1445 0058 02       		.byte	0x2
 1446 0059 07       		.byte	0x7
 1447 005a B6030000 		.4byte	.LASF4
 1448 005e 04       		.uleb128 0x4
 1449 005f 21060000 		.4byte	.LASF6
 1450 0063 02       		.byte	0x2
 1451 0064 4F       		.byte	0x4f
 1452 0065 69000000 		.4byte	0x69
 1453 0069 03       		.uleb128 0x3
 1454 006a 04       		.byte	0x4
 1455 006b 05       		.byte	0x5
 1456 006c 27020000 		.4byte	.LASF7
 1457 0070 04       		.uleb128 0x4
 1458 0071 5E020000 		.4byte	.LASF8
 1459 0075 02       		.byte	0x2
 1460 0076 50       		.byte	0x50
 1461 0077 7B000000 		.4byte	0x7b
 1462 007b 03       		.uleb128 0x3
 1463 007c 04       		.byte	0x4
 1464 007d 07       		.byte	0x7
 1465 007e 68030000 		.4byte	.LASF9
 1466 0082 03       		.uleb128 0x3
 1467 0083 08       		.byte	0x8
 1468 0084 05       		.byte	0x5
 1469 0085 B8010000 		.4byte	.LASF10
 1470 0089 03       		.uleb128 0x3
 1471 008a 08       		.byte	0x8
 1472 008b 07       		.byte	0x7
 1473 008c 0D010000 		.4byte	.LASF11
 1474 0090 04       		.uleb128 0x4
 1475 0091 FD010000 		.4byte	.LASF12
 1476 0095 03       		.byte	0x3
 1477 0096 24       		.byte	0x24
 1478 0097 9B000000 		.4byte	0x9b
ARM GAS  /tmp/ccxWoBWC.s 			page 27


 1479 009b 03       		.uleb128 0x3
 1480 009c 01       		.byte	0x1
 1481 009d 02       		.byte	0x2
 1482 009e 1B060000 		.4byte	.LASF13
 1483 00a2 05       		.uleb128 0x5
 1484 00a3 04       		.byte	0x4
 1485 00a4 06       		.uleb128 0x6
 1486 00a5 70000000 		.4byte	0x70
 1487 00a9 03       		.uleb128 0x3
 1488 00aa 04       		.byte	0x4
 1489 00ab 07       		.byte	0x7
 1490 00ac C5040000 		.4byte	.LASF14
 1491 00b0 03       		.uleb128 0x3
 1492 00b1 01       		.byte	0x1
 1493 00b2 08       		.byte	0x8
 1494 00b3 41070000 		.4byte	.LASF15
 1495 00b7 07       		.uleb128 0x7
 1496 00b8 BA040000 		.4byte	.LASF183
 1497 00bc 01       		.byte	0x1
 1498 00bd 04       		.byte	0x4
 1499 00be 8C       		.byte	0x8c
 1500 00bf F2020000 		.4byte	0x2f2
 1501 00c3 08       		.uleb128 0x8
 1502 00c4 8B070000 		.4byte	.LASF16
 1503 00c8 72       		.sleb128 -14
 1504 00c9 08       		.uleb128 0x8
 1505 00ca 36030000 		.4byte	.LASF17
 1506 00ce 74       		.sleb128 -12
 1507 00cf 08       		.uleb128 0x8
 1508 00d0 60070000 		.4byte	.LASF18
 1509 00d4 75       		.sleb128 -11
 1510 00d5 08       		.uleb128 0x8
 1511 00d6 06070000 		.4byte	.LASF19
 1512 00da 76       		.sleb128 -10
 1513 00db 08       		.uleb128 0x8
 1514 00dc AA030000 		.4byte	.LASF20
 1515 00e0 7B       		.sleb128 -5
 1516 00e1 08       		.uleb128 0x8
 1517 00e2 E0070000 		.4byte	.LASF21
 1518 00e6 7C       		.sleb128 -4
 1519 00e7 08       		.uleb128 0x8
 1520 00e8 99020000 		.4byte	.LASF22
 1521 00ec 7E       		.sleb128 -2
 1522 00ed 08       		.uleb128 0x8
 1523 00ee 88040000 		.4byte	.LASF23
 1524 00f2 7F       		.sleb128 -1
 1525 00f3 08       		.uleb128 0x8
 1526 00f4 72010000 		.4byte	.LASF24
 1527 00f8 00       		.sleb128 0
 1528 00f9 08       		.uleb128 0x8
 1529 00fa 28000000 		.4byte	.LASF25
 1530 00fe 01       		.sleb128 1
 1531 00ff 08       		.uleb128 0x8
 1532 0100 BF070000 		.4byte	.LASF26
 1533 0104 02       		.sleb128 2
 1534 0105 08       		.uleb128 0x8
 1535 0106 64010000 		.4byte	.LASF27
ARM GAS  /tmp/ccxWoBWC.s 			page 28


 1536 010a 03       		.sleb128 3
 1537 010b 08       		.uleb128 0x8
 1538 010c CC060000 		.4byte	.LASF28
 1539 0110 04       		.sleb128 4
 1540 0111 08       		.uleb128 0x8
 1541 0112 28090000 		.4byte	.LASF29
 1542 0116 05       		.sleb128 5
 1543 0117 08       		.uleb128 0x8
 1544 0118 37080000 		.4byte	.LASF30
 1545 011c 06       		.sleb128 6
 1546 011d 08       		.uleb128 0x8
 1547 011e 4C090000 		.4byte	.LASF31
 1548 0122 07       		.sleb128 7
 1549 0123 08       		.uleb128 0x8
 1550 0124 B1060000 		.4byte	.LASF32
 1551 0128 08       		.sleb128 8
 1552 0129 08       		.uleb128 0x8
 1553 012a 37050000 		.4byte	.LASF33
 1554 012e 09       		.sleb128 9
 1555 012f 08       		.uleb128 0x8
 1556 0130 57060000 		.4byte	.LASF34
 1557 0134 0A       		.sleb128 10
 1558 0135 08       		.uleb128 0x8
 1559 0136 57090000 		.4byte	.LASF35
 1560 013a 0B       		.sleb128 11
 1561 013b 08       		.uleb128 0x8
 1562 013c 15040000 		.4byte	.LASF36
 1563 0140 0C       		.sleb128 12
 1564 0141 08       		.uleb128 0x8
 1565 0142 4C050000 		.4byte	.LASF37
 1566 0146 0D       		.sleb128 13
 1567 0147 08       		.uleb128 0x8
 1568 0148 08030000 		.4byte	.LASF38
 1569 014c 0E       		.sleb128 14
 1570 014d 08       		.uleb128 0x8
 1571 014e 09050000 		.4byte	.LASF39
 1572 0152 0F       		.sleb128 15
 1573 0153 08       		.uleb128 0x8
 1574 0154 39020000 		.4byte	.LASF40
 1575 0158 10       		.sleb128 16
 1576 0159 08       		.uleb128 0x8
 1577 015a 1A030000 		.4byte	.LASF41
 1578 015e 11       		.sleb128 17
 1579 015f 08       		.uleb128 0x8
 1580 0160 CF080000 		.4byte	.LASF42
 1581 0164 12       		.sleb128 18
 1582 0165 08       		.uleb128 0x8
 1583 0166 E6030000 		.4byte	.LASF43
 1584 016a 13       		.sleb128 19
 1585 016b 08       		.uleb128 0x8
 1586 016c 1A000000 		.4byte	.LASF44
 1587 0170 14       		.sleb128 20
 1588 0171 08       		.uleb128 0x8
 1589 0172 FF000000 		.4byte	.LASF45
 1590 0176 15       		.sleb128 21
 1591 0177 08       		.uleb128 0x8
 1592 0178 FA080000 		.4byte	.LASF46
ARM GAS  /tmp/ccxWoBWC.s 			page 29


 1593 017c 16       		.sleb128 22
 1594 017d 08       		.uleb128 0x8
 1595 017e 56000000 		.4byte	.LASF47
 1596 0182 17       		.sleb128 23
 1597 0183 08       		.uleb128 0x8
 1598 0184 37060000 		.4byte	.LASF48
 1599 0188 18       		.sleb128 24
 1600 0189 08       		.uleb128 0x8
 1601 018a D7040000 		.4byte	.LASF49
 1602 018e 19       		.sleb128 25
 1603 018f 08       		.uleb128 0x8
 1604 0190 8F060000 		.4byte	.LASF50
 1605 0194 1A       		.sleb128 26
 1606 0195 08       		.uleb128 0x8
 1607 0196 95040000 		.4byte	.LASF51
 1608 019a 1B       		.sleb128 27
 1609 019b 08       		.uleb128 0x8
 1610 019c 2D080000 		.4byte	.LASF52
 1611 01a0 1C       		.sleb128 28
 1612 01a1 08       		.uleb128 0x8
 1613 01a2 42090000 		.4byte	.LASF53
 1614 01a6 1D       		.sleb128 29
 1615 01a7 08       		.uleb128 0x8
 1616 01a8 5A010000 		.4byte	.LASF54
 1617 01ac 1E       		.sleb128 30
 1618 01ad 08       		.uleb128 0x8
 1619 01ae A2000000 		.4byte	.LASF55
 1620 01b2 1F       		.sleb128 31
 1621 01b3 08       		.uleb128 0x8
 1622 01b4 C2080000 		.4byte	.LASF56
 1623 01b8 20       		.sleb128 32
 1624 01b9 08       		.uleb128 0x8
 1625 01ba FC040000 		.4byte	.LASF57
 1626 01be 21       		.sleb128 33
 1627 01bf 08       		.uleb128 0x8
 1628 01c0 4D010000 		.4byte	.LASF58
 1629 01c4 22       		.sleb128 34
 1630 01c5 08       		.uleb128 0x8
 1631 01c6 0B040000 		.4byte	.LASF59
 1632 01ca 23       		.sleb128 35
 1633 01cb 08       		.uleb128 0x8
 1634 01cc 42050000 		.4byte	.LASF60
 1635 01d0 24       		.sleb128 36
 1636 01d1 08       		.uleb128 0x8
 1637 01d2 42080000 		.4byte	.LASF61
 1638 01d6 25       		.sleb128 37
 1639 01d7 08       		.uleb128 0x8
 1640 01d8 FA060000 		.4byte	.LASF62
 1641 01dc 26       		.sleb128 38
 1642 01dd 08       		.uleb128 0x8
 1643 01de 12080000 		.4byte	.LASF63
 1644 01e2 27       		.sleb128 39
 1645 01e3 08       		.uleb128 0x8
 1646 01e4 FC030000 		.4byte	.LASF64
 1647 01e8 28       		.sleb128 40
 1648 01e9 08       		.uleb128 0x8
 1649 01ea 24010000 		.4byte	.LASF65
ARM GAS  /tmp/ccxWoBWC.s 			page 30


 1650 01ee 29       		.sleb128 41
 1651 01ef 08       		.uleb128 0x8
 1652 01f0 88020000 		.4byte	.LASF66
 1653 01f4 2A       		.sleb128 42
 1654 01f5 08       		.uleb128 0x8
 1655 01f6 86010000 		.4byte	.LASF67
 1656 01fa 2B       		.sleb128 43
 1657 01fb 08       		.uleb128 0x8
 1658 01fc A5020000 		.4byte	.LASF68
 1659 0200 2C       		.sleb128 44
 1660 0201 08       		.uleb128 0x8
 1661 0202 A2040000 		.4byte	.LASF69
 1662 0206 2D       		.sleb128 45
 1663 0207 08       		.uleb128 0x8
 1664 0208 AB010000 		.4byte	.LASF70
 1665 020c 2E       		.sleb128 46
 1666 020d 08       		.uleb128 0x8
 1667 020e 2F070000 		.4byte	.LASF71
 1668 0212 2F       		.sleb128 47
 1669 0213 08       		.uleb128 0x8
 1670 0214 11060000 		.4byte	.LASF72
 1671 0218 30       		.sleb128 48
 1672 0219 08       		.uleb128 0x8
 1673 021a 7C010000 		.4byte	.LASF73
 1674 021e 31       		.sleb128 49
 1675 021f 08       		.uleb128 0x8
 1676 0220 2D050000 		.4byte	.LASF74
 1677 0224 32       		.sleb128 50
 1678 0225 08       		.uleb128 0x8
 1679 0226 EC050000 		.4byte	.LASF75
 1680 022a 33       		.sleb128 51
 1681 022b 08       		.uleb128 0x8
 1682 022c 7D020000 		.4byte	.LASF76
 1683 0230 34       		.sleb128 52
 1684 0231 08       		.uleb128 0x8
 1685 0232 84060000 		.4byte	.LASF77
 1686 0236 35       		.sleb128 53
 1687 0237 08       		.uleb128 0x8
 1688 0238 67020000 		.4byte	.LASF78
 1689 023c 36       		.sleb128 54
 1690 023d 08       		.uleb128 0x8
 1691 023e 6E070000 		.4byte	.LASF79
 1692 0242 37       		.sleb128 55
 1693 0243 08       		.uleb128 0x8
 1694 0244 F2070000 		.4byte	.LASF80
 1695 0248 38       		.sleb128 56
 1696 0249 08       		.uleb128 0x8
 1697 024a D8080000 		.4byte	.LASF81
 1698 024e 39       		.sleb128 57
 1699 024f 08       		.uleb128 0x8
 1700 0250 C9030000 		.4byte	.LASF82
 1701 0254 3A       		.sleb128 58
 1702 0255 08       		.uleb128 0x8
 1703 0256 EA040000 		.4byte	.LASF83
 1704 025a 3B       		.sleb128 59
 1705 025b 08       		.uleb128 0x8
 1706 025c FF050000 		.4byte	.LASF84
ARM GAS  /tmp/ccxWoBWC.s 			page 31


 1707 0260 3C       		.sleb128 60
 1708 0261 08       		.uleb128 0x8
 1709 0262 CE040000 		.4byte	.LASF85
 1710 0266 3D       		.sleb128 61
 1711 0267 08       		.uleb128 0x8
 1712 0268 50020000 		.4byte	.LASF86
 1713 026c 3E       		.sleb128 62
 1714 026d 08       		.uleb128 0x8
 1715 026e 5E050000 		.4byte	.LASF87
 1716 0272 3F       		.sleb128 63
 1717 0273 08       		.uleb128 0x8
 1718 0274 31000000 		.4byte	.LASF88
 1719 0278 C000     		.sleb128 64
 1720 027a 08       		.uleb128 0x8
 1721 027b D2010000 		.4byte	.LASF89
 1722 027f C100     		.sleb128 65
 1723 0281 08       		.uleb128 0x8
 1724 0282 1A090000 		.4byte	.LASF90
 1725 0286 C200     		.sleb128 66
 1726 0288 08       		.uleb128 0x8
 1727 0289 E5060000 		.4byte	.LASF91
 1728 028d C300     		.sleb128 67
 1729 028f 08       		.uleb128 0x8
 1730 0290 AF000000 		.4byte	.LASF92
 1731 0294 C400     		.sleb128 68
 1732 0296 08       		.uleb128 0x8
 1733 0297 44000000 		.4byte	.LASF93
 1734 029b C500     		.sleb128 69
 1735 029d 08       		.uleb128 0x8
 1736 029e CB020000 		.4byte	.LASF94
 1737 02a2 C600     		.sleb128 70
 1738 02a4 08       		.uleb128 0x8
 1739 02a5 1B050000 		.4byte	.LASF95
 1740 02a9 C700     		.sleb128 71
 1741 02ab 08       		.uleb128 0x8
 1742 02ac 5B030000 		.4byte	.LASF96
 1743 02b0 C800     		.sleb128 72
 1744 02b2 08       		.uleb128 0x8
 1745 02b3 63000000 		.4byte	.LASF97
 1746 02b7 C900     		.sleb128 73
 1747 02b9 08       		.uleb128 0x8
 1748 02ba 96030000 		.4byte	.LASF98
 1749 02be CA00     		.sleb128 74
 1750 02c0 08       		.uleb128 0x8
 1751 02c1 78070000 		.4byte	.LASF99
 1752 02c5 CB00     		.sleb128 75
 1753 02c7 08       		.uleb128 0x8
 1754 02c8 31090000 		.4byte	.LASF100
 1755 02cc CC00     		.sleb128 76
 1756 02ce 08       		.uleb128 0x8
 1757 02cf 87050000 		.4byte	.LASF101
 1758 02d3 CD00     		.sleb128 77
 1759 02d5 08       		.uleb128 0x8
 1760 02d6 7E080000 		.4byte	.LASF102
 1761 02da CE00     		.sleb128 78
 1762 02dc 08       		.uleb128 0x8
 1763 02dd E0010000 		.4byte	.LASF103
ARM GAS  /tmp/ccxWoBWC.s 			page 32


 1764 02e1 CF00     		.sleb128 79
 1765 02e3 08       		.uleb128 0x8
 1766 02e4 62060000 		.4byte	.LASF104
 1767 02e8 D000     		.sleb128 80
 1768 02ea 08       		.uleb128 0x8
 1769 02eb A0080000 		.4byte	.LASF105
 1770 02ef D100     		.sleb128 81
 1771 02f1 00       		.byte	0
 1772 02f2 09       		.uleb128 0x9
 1773 02f3 70000000 		.4byte	0x70
 1774 02f7 02030000 		.4byte	0x302
 1775 02fb 0A       		.uleb128 0xa
 1776 02fc A9000000 		.4byte	0xa9
 1777 0300 01       		.byte	0x1
 1778 0301 00       		.byte	0
 1779 0302 06       		.uleb128 0x6
 1780 0303 5E000000 		.4byte	0x5e
 1781 0307 0B       		.uleb128 0xb
 1782 0308 18       		.byte	0x18
 1783 0309 04       		.byte	0x4
 1784 030a D301     		.2byte	0x1d3
 1785 030c 6A030000 		.4byte	0x36a
 1786 0310 0C       		.uleb128 0xc
 1787 0311 435200   		.ascii	"CR\000"
 1788 0314 04       		.byte	0x4
 1789 0315 D501     		.2byte	0x1d5
 1790 0317 A4000000 		.4byte	0xa4
 1791 031b 02       		.byte	0x2
 1792 031c 23       		.byte	0x23
 1793 031d 00       		.uleb128 0
 1794 031e 0D       		.uleb128 0xd
 1795 031f 9F070000 		.4byte	.LASF106
 1796 0323 04       		.byte	0x4
 1797 0324 D601     		.2byte	0x1d6
 1798 0326 A4000000 		.4byte	0xa4
 1799 032a 02       		.byte	0x2
 1800 032b 23       		.byte	0x23
 1801 032c 04       		.uleb128 0x4
 1802 032d 0C       		.uleb128 0xc
 1803 032e 50415200 		.ascii	"PAR\000"
 1804 0332 04       		.byte	0x4
 1805 0333 D701     		.2byte	0x1d7
 1806 0335 A4000000 		.4byte	0xa4
 1807 0339 02       		.byte	0x2
 1808 033a 23       		.byte	0x23
 1809 033b 08       		.uleb128 0x8
 1810 033c 0D       		.uleb128 0xd
 1811 033d 3F000000 		.4byte	.LASF107
 1812 0341 04       		.byte	0x4
 1813 0342 D801     		.2byte	0x1d8
 1814 0344 A4000000 		.4byte	0xa4
 1815 0348 02       		.byte	0x2
 1816 0349 23       		.byte	0x23
 1817 034a 0C       		.uleb128 0xc
 1818 034b 0D       		.uleb128 0xd
 1819 034c 04080000 		.4byte	.LASF108
 1820 0350 04       		.byte	0x4
ARM GAS  /tmp/ccxWoBWC.s 			page 33


 1821 0351 D901     		.2byte	0x1d9
 1822 0353 A4000000 		.4byte	0xa4
 1823 0357 02       		.byte	0x2
 1824 0358 23       		.byte	0x23
 1825 0359 10       		.uleb128 0x10
 1826 035a 0C       		.uleb128 0xc
 1827 035b 46435200 		.ascii	"FCR\000"
 1828 035f 04       		.byte	0x4
 1829 0360 DA01     		.2byte	0x1da
 1830 0362 A4000000 		.4byte	0xa4
 1831 0366 02       		.byte	0x2
 1832 0367 23       		.byte	0x23
 1833 0368 14       		.uleb128 0x14
 1834 0369 00       		.byte	0
 1835 036a 0E       		.uleb128 0xe
 1836 036b A4070000 		.4byte	.LASF109
 1837 036f 04       		.byte	0x4
 1838 0370 DB01     		.2byte	0x1db
 1839 0372 07030000 		.4byte	0x307
 1840 0376 0B       		.uleb128 0xb
 1841 0377 10       		.byte	0x10
 1842 0378 04       		.byte	0x4
 1843 0379 DD01     		.2byte	0x1dd
 1844 037b BC030000 		.4byte	0x3bc
 1845 037f 0D       		.uleb128 0xd
 1846 0380 70000000 		.4byte	.LASF110
 1847 0384 04       		.byte	0x4
 1848 0385 DF01     		.2byte	0x1df
 1849 0387 A4000000 		.4byte	0xa4
 1850 038b 02       		.byte	0x2
 1851 038c 23       		.byte	0x23
 1852 038d 00       		.uleb128 0
 1853 038e 0D       		.uleb128 0xd
 1854 038f 30040000 		.4byte	.LASF111
 1855 0393 04       		.byte	0x4
 1856 0394 E001     		.2byte	0x1e0
 1857 0396 A4000000 		.4byte	0xa4
 1858 039a 02       		.byte	0x2
 1859 039b 23       		.byte	0x23
 1860 039c 04       		.uleb128 0x4
 1861 039d 0D       		.uleb128 0xd
 1862 039e BF040000 		.4byte	.LASF112
 1863 03a2 04       		.byte	0x4
 1864 03a3 E101     		.2byte	0x1e1
 1865 03a5 A4000000 		.4byte	0xa4
 1866 03a9 02       		.byte	0x2
 1867 03aa 23       		.byte	0x23
 1868 03ab 08       		.uleb128 0x8
 1869 03ac 0D       		.uleb128 0xd
 1870 03ad F4080000 		.4byte	.LASF113
 1871 03b1 04       		.byte	0x4
 1872 03b2 E201     		.2byte	0x1e2
 1873 03b4 A4000000 		.4byte	0xa4
 1874 03b8 02       		.byte	0x2
 1875 03b9 23       		.byte	0x23
 1876 03ba 0C       		.uleb128 0xc
 1877 03bb 00       		.byte	0
ARM GAS  /tmp/ccxWoBWC.s 			page 34


 1878 03bc 0E       		.uleb128 0xe
 1879 03bd E5020000 		.4byte	.LASF114
 1880 03c1 04       		.byte	0x4
 1881 03c2 E301     		.2byte	0x1e3
 1882 03c4 76030000 		.4byte	0x376
 1883 03c8 0B       		.uleb128 0xb
 1884 03c9 88       		.byte	0x88
 1885 03ca 04       		.byte	0x4
 1886 03cb DB02     		.2byte	0x2db
 1887 03cd 95050000 		.4byte	0x595
 1888 03d1 0C       		.uleb128 0xc
 1889 03d2 435200   		.ascii	"CR\000"
 1890 03d5 04       		.byte	0x4
 1891 03d6 DD02     		.2byte	0x2dd
 1892 03d8 A4000000 		.4byte	0xa4
 1893 03dc 02       		.byte	0x2
 1894 03dd 23       		.byte	0x23
 1895 03de 00       		.uleb128 0
 1896 03df 0D       		.uleb128 0xd
 1897 03e0 75020000 		.4byte	.LASF115
 1898 03e4 04       		.byte	0x4
 1899 03e5 DE02     		.2byte	0x2de
 1900 03e7 A4000000 		.4byte	0xa4
 1901 03eb 02       		.byte	0x2
 1902 03ec 23       		.byte	0x23
 1903 03ed 04       		.uleb128 0x4
 1904 03ee 0D       		.uleb128 0xd
 1905 03ef A9080000 		.4byte	.LASF116
 1906 03f3 04       		.byte	0x4
 1907 03f4 DF02     		.2byte	0x2df
 1908 03f6 A4000000 		.4byte	0xa4
 1909 03fa 02       		.byte	0x2
 1910 03fb 23       		.byte	0x23
 1911 03fc 08       		.uleb128 0x8
 1912 03fd 0C       		.uleb128 0xc
 1913 03fe 43495200 		.ascii	"CIR\000"
 1914 0402 04       		.byte	0x4
 1915 0403 E002     		.2byte	0x2e0
 1916 0405 A4000000 		.4byte	0xa4
 1917 0409 02       		.byte	0x2
 1918 040a 23       		.byte	0x23
 1919 040b 0C       		.uleb128 0xc
 1920 040c 0D       		.uleb128 0xd
 1921 040d EA010000 		.4byte	.LASF117
 1922 0411 04       		.byte	0x4
 1923 0412 E102     		.2byte	0x2e1
 1924 0414 A4000000 		.4byte	0xa4
 1925 0418 02       		.byte	0x2
 1926 0419 23       		.byte	0x23
 1927 041a 10       		.uleb128 0x10
 1928 041b 0D       		.uleb128 0xd
 1929 041c B8020000 		.4byte	.LASF118
 1930 0420 04       		.byte	0x4
 1931 0421 E202     		.2byte	0x2e2
 1932 0423 A4000000 		.4byte	0xa4
 1933 0427 02       		.byte	0x2
 1934 0428 23       		.byte	0x23
ARM GAS  /tmp/ccxWoBWC.s 			page 35


 1935 0429 14       		.uleb128 0x14
 1936 042a 0D       		.uleb128 0xd
 1937 042b F3030000 		.4byte	.LASF119
 1938 042f 04       		.byte	0x4
 1939 0430 E302     		.2byte	0x2e3
 1940 0432 A4000000 		.4byte	0xa4
 1941 0436 02       		.byte	0x2
 1942 0437 23       		.byte	0x23
 1943 0438 18       		.uleb128 0x18
 1944 0439 0D       		.uleb128 0xd
 1945 043a 93050000 		.4byte	.LASF120
 1946 043e 04       		.byte	0x4
 1947 043f E402     		.2byte	0x2e4
 1948 0441 70000000 		.4byte	0x70
 1949 0445 02       		.byte	0x2
 1950 0446 23       		.byte	0x23
 1951 0447 1C       		.uleb128 0x1c
 1952 0448 0D       		.uleb128 0xd
 1953 0449 7E050000 		.4byte	.LASF121
 1954 044d 04       		.byte	0x4
 1955 044e E502     		.2byte	0x2e5
 1956 0450 A4000000 		.4byte	0xa4
 1957 0454 02       		.byte	0x2
 1958 0455 23       		.byte	0x23
 1959 0456 20       		.uleb128 0x20
 1960 0457 0D       		.uleb128 0xd
 1961 0458 30020000 		.4byte	.LASF122
 1962 045c 04       		.byte	0x4
 1963 045d E602     		.2byte	0x2e6
 1964 045f A4000000 		.4byte	0xa4
 1965 0463 02       		.byte	0x2
 1966 0464 23       		.byte	0x23
 1967 0465 24       		.uleb128 0x24
 1968 0466 0D       		.uleb128 0xd
 1969 0467 9D050000 		.4byte	.LASF123
 1970 046b 04       		.byte	0x4
 1971 046c E702     		.2byte	0x2e7
 1972 046e F2020000 		.4byte	0x2f2
 1973 0472 02       		.byte	0x2
 1974 0473 23       		.byte	0x23
 1975 0474 28       		.uleb128 0x28
 1976 0475 0D       		.uleb128 0xd
 1977 0476 DD020000 		.4byte	.LASF124
 1978 047a 04       		.byte	0x4
 1979 047b E802     		.2byte	0x2e8
 1980 047d A4000000 		.4byte	0xa4
 1981 0481 02       		.byte	0x2
 1982 0482 23       		.byte	0x23
 1983 0483 30       		.uleb128 0x30
 1984 0484 0D       		.uleb128 0xd
 1985 0485 B7070000 		.4byte	.LASF125
 1986 0489 04       		.byte	0x4
 1987 048a E902     		.2byte	0x2e9
 1988 048c A4000000 		.4byte	0xa4
 1989 0490 02       		.byte	0x2
 1990 0491 23       		.byte	0x23
 1991 0492 34       		.uleb128 0x34
ARM GAS  /tmp/ccxWoBWC.s 			page 36


 1992 0493 0D       		.uleb128 0xd
 1993 0494 C4060000 		.4byte	.LASF126
 1994 0498 04       		.byte	0x4
 1995 0499 EA02     		.2byte	0x2ea
 1996 049b A4000000 		.4byte	0xa4
 1997 049f 02       		.byte	0x2
 1998 04a0 23       		.byte	0x23
 1999 04a1 38       		.uleb128 0x38
 2000 04a2 0D       		.uleb128 0xd
 2001 04a3 A7050000 		.4byte	.LASF127
 2002 04a7 04       		.byte	0x4
 2003 04a8 EB02     		.2byte	0x2eb
 2004 04aa 70000000 		.4byte	0x70
 2005 04ae 02       		.byte	0x2
 2006 04af 23       		.byte	0x23
 2007 04b0 3C       		.uleb128 0x3c
 2008 04b1 0D       		.uleb128 0xd
 2009 04b2 1F070000 		.4byte	.LASF128
 2010 04b6 04       		.byte	0x4
 2011 04b7 EC02     		.2byte	0x2ec
 2012 04b9 A4000000 		.4byte	0xa4
 2013 04bd 02       		.byte	0x2
 2014 04be 23       		.byte	0x23
 2015 04bf 40       		.uleb128 0x40
 2016 04c0 0D       		.uleb128 0xd
 2017 04c1 BC060000 		.4byte	.LASF129
 2018 04c5 04       		.byte	0x4
 2019 04c6 ED02     		.2byte	0x2ed
 2020 04c8 A4000000 		.4byte	0xa4
 2021 04cc 02       		.byte	0x2
 2022 04cd 23       		.byte	0x23
 2023 04ce 44       		.uleb128 0x44
 2024 04cf 0D       		.uleb128 0xd
 2025 04d0 B1050000 		.4byte	.LASF130
 2026 04d4 04       		.byte	0x4
 2027 04d5 EE02     		.2byte	0x2ee
 2028 04d7 F2020000 		.4byte	0x2f2
 2029 04db 02       		.byte	0x2
 2030 04dc 23       		.byte	0x23
 2031 04dd 48       		.uleb128 0x48
 2032 04de 0D       		.uleb128 0xd
 2033 04df 6E080000 		.4byte	.LASF131
 2034 04e3 04       		.byte	0x4
 2035 04e4 EF02     		.2byte	0x2ef
 2036 04e6 A4000000 		.4byte	0xa4
 2037 04ea 02       		.byte	0x2
 2038 04eb 23       		.byte	0x23
 2039 04ec 50       		.uleb128 0x50
 2040 04ed 0D       		.uleb128 0xd
 2041 04ee 6B050000 		.4byte	.LASF132
 2042 04f2 04       		.byte	0x4
 2043 04f3 F002     		.2byte	0x2f0
 2044 04f5 A4000000 		.4byte	0xa4
 2045 04f9 02       		.byte	0x2
 2046 04fa 23       		.byte	0x23
 2047 04fb 54       		.uleb128 0x54
 2048 04fc 0D       		.uleb128 0xd
ARM GAS  /tmp/ccxWoBWC.s 			page 37


 2049 04fd 7A060000 		.4byte	.LASF133
 2050 0501 04       		.byte	0x4
 2051 0502 F102     		.2byte	0x2f1
 2052 0504 A4000000 		.4byte	0xa4
 2053 0508 02       		.byte	0x2
 2054 0509 23       		.byte	0x23
 2055 050a 58       		.uleb128 0x58
 2056 050b 0D       		.uleb128 0xd
 2057 050c BB050000 		.4byte	.LASF134
 2058 0510 04       		.byte	0x4
 2059 0511 F202     		.2byte	0x2f2
 2060 0513 70000000 		.4byte	0x70
 2061 0517 02       		.byte	0x2
 2062 0518 23       		.byte	0x23
 2063 0519 5C       		.uleb128 0x5c
 2064 051a 0D       		.uleb128 0xd
 2065 051b 10000000 		.4byte	.LASF135
 2066 051f 04       		.byte	0x4
 2067 0520 F302     		.2byte	0x2f3
 2068 0522 A4000000 		.4byte	0xa4
 2069 0526 02       		.byte	0x2
 2070 0527 23       		.byte	0x23
 2071 0528 60       		.uleb128 0x60
 2072 0529 0D       		.uleb128 0xd
 2073 052a 35040000 		.4byte	.LASF136
 2074 052e 04       		.byte	0x4
 2075 052f F402     		.2byte	0x2f4
 2076 0531 A4000000 		.4byte	0xa4
 2077 0535 02       		.byte	0x2
 2078 0536 23       		.byte	0x23
 2079 0537 64       		.uleb128 0x64
 2080 0538 0D       		.uleb128 0xd
 2081 0539 C5050000 		.4byte	.LASF137
 2082 053d 04       		.byte	0x4
 2083 053e F502     		.2byte	0x2f5
 2084 0540 F2020000 		.4byte	0x2f2
 2085 0544 02       		.byte	0x2
 2086 0545 23       		.byte	0x23
 2087 0546 68       		.uleb128 0x68
 2088 0547 0D       		.uleb128 0xd
 2089 0548 4E080000 		.4byte	.LASF138
 2090 054c 04       		.byte	0x4
 2091 054d F602     		.2byte	0x2f6
 2092 054f A4000000 		.4byte	0xa4
 2093 0553 02       		.byte	0x2
 2094 0554 23       		.byte	0x23
 2095 0555 70       		.uleb128 0x70
 2096 0556 0C       		.uleb128 0xc
 2097 0557 43535200 		.ascii	"CSR\000"
 2098 055b 04       		.byte	0x4
 2099 055c F702     		.2byte	0x2f7
 2100 055e A4000000 		.4byte	0xa4
 2101 0562 02       		.byte	0x2
 2102 0563 23       		.byte	0x23
 2103 0564 74       		.uleb128 0x74
 2104 0565 0D       		.uleb128 0xd
 2105 0566 CF050000 		.4byte	.LASF139
ARM GAS  /tmp/ccxWoBWC.s 			page 38


 2106 056a 04       		.byte	0x4
 2107 056b F802     		.2byte	0x2f8
 2108 056d F2020000 		.4byte	0x2f2
 2109 0571 02       		.byte	0x2
 2110 0572 23       		.byte	0x23
 2111 0573 78       		.uleb128 0x78
 2112 0574 0D       		.uleb128 0xd
 2113 0575 1E080000 		.4byte	.LASF140
 2114 0579 04       		.byte	0x4
 2115 057a F902     		.2byte	0x2f9
 2116 057c A4000000 		.4byte	0xa4
 2117 0580 03       		.byte	0x3
 2118 0581 23       		.byte	0x23
 2119 0582 8001     		.uleb128 0x80
 2120 0584 0D       		.uleb128 0xd
 2121 0585 DB030000 		.4byte	.LASF141
 2122 0589 04       		.byte	0x4
 2123 058a FA02     		.2byte	0x2fa
 2124 058c A4000000 		.4byte	0xa4
 2125 0590 03       		.byte	0x3
 2126 0591 23       		.byte	0x23
 2127 0592 8401     		.uleb128 0x84
 2128 0594 00       		.byte	0
 2129 0595 0E       		.uleb128 0xe
 2130 0596 7A030000 		.4byte	.LASF142
 2131 059a 04       		.byte	0x4
 2132 059b FB02     		.2byte	0x2fb
 2133 059d C8030000 		.4byte	0x3c8
 2134 05a1 0F       		.uleb128 0xf
 2135 05a2 0C       		.byte	0xc
 2136 05a3 05       		.byte	0x5
 2137 05a4 DA       		.byte	0xda
 2138 05a5 F0050000 		.4byte	0x5f0
 2139 05a9 10       		.uleb128 0x10
 2140 05aa F8000000 		.4byte	.LASF143
 2141 05ae 05       		.byte	0x5
 2142 05af DB       		.byte	0xdb
 2143 05b0 F0050000 		.4byte	0x5f0
 2144 05b4 02       		.byte	0x2
 2145 05b5 23       		.byte	0x23
 2146 05b6 00       		.uleb128 0
 2147 05b7 10       		.uleb128 0x10
 2148 05b8 D7060000 		.4byte	.LASF144
 2149 05bc 05       		.byte	0x5
 2150 05bd DC       		.byte	0xdc
 2151 05be F6050000 		.4byte	0x5f6
 2152 05c2 02       		.byte	0x2
 2153 05c3 23       		.byte	0x23
 2154 05c4 04       		.uleb128 0x4
 2155 05c5 10       		.uleb128 0x10
 2156 05c6 86030000 		.4byte	.LASF145
 2157 05ca 05       		.byte	0x5
 2158 05cb DD       		.byte	0xdd
 2159 05cc 3E000000 		.4byte	0x3e
 2160 05d0 02       		.byte	0x2
 2161 05d1 23       		.byte	0x23
 2162 05d2 08       		.uleb128 0x8
ARM GAS  /tmp/ccxWoBWC.s 			page 39


 2163 05d3 10       		.uleb128 0x10
 2164 05d4 C1020000 		.4byte	.LASF146
 2165 05d8 05       		.byte	0x5
 2166 05d9 DF       		.byte	0xdf
 2167 05da 3E000000 		.4byte	0x3e
 2168 05de 02       		.byte	0x2
 2169 05df 23       		.byte	0x23
 2170 05e0 09       		.uleb128 0x9
 2171 05e1 10       		.uleb128 0x10
 2172 05e2 33010000 		.4byte	.LASF147
 2173 05e6 05       		.byte	0x5
 2174 05e7 E0       		.byte	0xe0
 2175 05e8 3E000000 		.4byte	0x3e
 2176 05ec 02       		.byte	0x2
 2177 05ed 23       		.byte	0x23
 2178 05ee 0A       		.uleb128 0xa
 2179 05ef 00       		.byte	0
 2180 05f0 11       		.uleb128 0x11
 2181 05f1 04       		.byte	0x4
 2182 05f2 6A030000 		.4byte	0x36a
 2183 05f6 11       		.uleb128 0x11
 2184 05f7 04       		.byte	0x4
 2185 05f8 A4000000 		.4byte	0xa4
 2186 05fc 04       		.uleb128 0x4
 2187 05fd D9050000 		.4byte	.LASF148
 2188 0601 05       		.byte	0x5
 2189 0602 E1       		.byte	0xe1
 2190 0603 A1050000 		.4byte	0x5a1
 2191 0607 04       		.uleb128 0x4
 2192 0608 4C030000 		.4byte	.LASF149
 2193 060c 05       		.byte	0x5
 2194 060d EA       		.byte	0xea
 2195 060e 12060000 		.4byte	0x612
 2196 0612 11       		.uleb128 0x11
 2197 0613 04       		.byte	0x4
 2198 0614 18060000 		.4byte	0x618
 2199 0618 12       		.uleb128 0x12
 2200 0619 01       		.byte	0x1
 2201 061a 29060000 		.4byte	0x629
 2202 061e 13       		.uleb128 0x13
 2203 061f A2000000 		.4byte	0xa2
 2204 0623 13       		.uleb128 0x13
 2205 0624 70000000 		.4byte	0x70
 2206 0628 00       		.byte	0
 2207 0629 11       		.uleb128 0x11
 2208 062a 04       		.byte	0x4
 2209 062b 2F060000 		.4byte	0x62f
 2210 062f 14       		.uleb128 0x14
 2211 0630 FC050000 		.4byte	0x5fc
 2212 0634 0F       		.uleb128 0xf
 2213 0635 08       		.byte	0x8
 2214 0636 01       		.byte	0x1
 2215 0637 64       		.byte	0x64
 2216 0638 59060000 		.4byte	0x659
 2217 063c 10       		.uleb128 0x10
 2218 063d 75050000 		.4byte	.LASF150
 2219 0641 01       		.byte	0x1
ARM GAS  /tmp/ccxWoBWC.s 			page 40


 2220 0642 65       		.byte	0x65
 2221 0643 07060000 		.4byte	0x607
 2222 0647 02       		.byte	0x2
 2223 0648 23       		.byte	0x23
 2224 0649 00       		.uleb128 0
 2225 064a 10       		.uleb128 0x10
 2226 064b A7060000 		.4byte	.LASF151
 2227 064f 01       		.byte	0x1
 2228 0650 66       		.byte	0x66
 2229 0651 A2000000 		.4byte	0xa2
 2230 0655 02       		.byte	0x2
 2231 0656 23       		.byte	0x23
 2232 0657 04       		.uleb128 0x4
 2233 0658 00       		.byte	0
 2234 0659 04       		.uleb128 0x4
 2235 065a 00000000 		.4byte	.LASF152
 2236 065e 01       		.byte	0x1
 2237 065f 67       		.byte	0x67
 2238 0660 34060000 		.4byte	0x634
 2239 0664 15       		.uleb128 0x15
 2240 0665 01       		.byte	0x1
 2241 0666 F6050000 		.4byte	.LASF153
 2242 066a 01       		.byte	0x1
 2243 066b 80       		.byte	0x80
 2244 066c 01       		.byte	0x1
 2245 066d 00000000 		.4byte	.LFB118
 2246 0671 2C000000 		.4byte	.LFE118
 2247 0675 00000000 		.4byte	.LLST0
 2248 0679 01       		.byte	0x1
 2249 067a 98060000 		.4byte	0x698
 2250 067e 16       		.uleb128 0x16
 2251 067f 78080000 		.4byte	.LASF155
 2252 0683 01       		.byte	0x1
 2253 0684 81       		.byte	0x81
 2254 0685 70000000 		.4byte	0x70
 2255 0689 20000000 		.4byte	.LLST1
 2256 068d 17       		.uleb128 0x17
 2257 068e 26000000 		.4byte	.LVL2
 2258 0692 01       		.byte	0x1
 2259 0693 ED0A0000 		.4byte	0xaed
 2260 0697 00       		.byte	0
 2261 0698 15       		.uleb128 0x15
 2262 0699 01       		.byte	0x1
 2263 069a DC060000 		.4byte	.LASF154
 2264 069e 01       		.byte	0x1
 2265 069f 92       		.byte	0x92
 2266 06a0 01       		.byte	0x1
 2267 06a1 00000000 		.4byte	.LFB119
 2268 06a5 30000000 		.4byte	.LFE119
 2269 06a9 33000000 		.4byte	.LLST2
 2270 06ad 01       		.byte	0x1
 2271 06ae CC060000 		.4byte	0x6cc
 2272 06b2 16       		.uleb128 0x16
 2273 06b3 78080000 		.4byte	.LASF155
 2274 06b7 01       		.byte	0x1
 2275 06b8 93       		.byte	0x93
 2276 06b9 70000000 		.4byte	0x70
ARM GAS  /tmp/ccxWoBWC.s 			page 41


 2277 06bd 53000000 		.4byte	.LLST3
 2278 06c1 17       		.uleb128 0x17
 2279 06c2 2A000000 		.4byte	.LVL5
 2280 06c6 01       		.byte	0x1
 2281 06c7 ED0A0000 		.4byte	0xaed
 2282 06cb 00       		.byte	0
 2283 06cc 15       		.uleb128 0x15
 2284 06cd 01       		.byte	0x1
 2285 06ce F1060000 		.4byte	.LASF156
 2286 06d2 01       		.byte	0x1
 2287 06d3 A4       		.byte	0xa4
 2288 06d4 01       		.byte	0x1
 2289 06d5 00000000 		.4byte	.LFB120
 2290 06d9 30000000 		.4byte	.LFE120
 2291 06dd 66000000 		.4byte	.LLST4
 2292 06e1 01       		.byte	0x1
 2293 06e2 00070000 		.4byte	0x700
 2294 06e6 16       		.uleb128 0x16
 2295 06e7 78080000 		.4byte	.LASF155
 2296 06eb 01       		.byte	0x1
 2297 06ec A5       		.byte	0xa5
 2298 06ed 70000000 		.4byte	0x70
 2299 06f1 86000000 		.4byte	.LLST5
 2300 06f5 17       		.uleb128 0x17
 2301 06f6 2A000000 		.4byte	.LVL8
 2302 06fa 01       		.byte	0x1
 2303 06fb ED0A0000 		.4byte	0xaed
 2304 06ff 00       		.byte	0
 2305 0700 15       		.uleb128 0x15
 2306 0701 01       		.byte	0x1
 2307 0702 16070000 		.4byte	.LASF157
 2308 0706 01       		.byte	0x1
 2309 0707 B6       		.byte	0xb6
 2310 0708 01       		.byte	0x1
 2311 0709 00000000 		.4byte	.LFB121
 2312 070d 30000000 		.4byte	.LFE121
 2313 0711 99000000 		.4byte	.LLST6
 2314 0715 01       		.byte	0x1
 2315 0716 34070000 		.4byte	0x734
 2316 071a 16       		.uleb128 0x16
 2317 071b 78080000 		.4byte	.LASF155
 2318 071f 01       		.byte	0x1
 2319 0720 B7       		.byte	0xb7
 2320 0721 70000000 		.4byte	0x70
 2321 0725 B9000000 		.4byte	.LLST7
 2322 0729 17       		.uleb128 0x17
 2323 072a 2A000000 		.4byte	.LVL11
 2324 072e 01       		.byte	0x1
 2325 072f ED0A0000 		.4byte	0xaed
 2326 0733 00       		.byte	0
 2327 0734 15       		.uleb128 0x15
 2328 0735 01       		.byte	0x1
 2329 0736 57070000 		.4byte	.LASF158
 2330 073a 01       		.byte	0x1
 2331 073b C8       		.byte	0xc8
 2332 073c 01       		.byte	0x1
 2333 073d 00000000 		.4byte	.LFB122
ARM GAS  /tmp/ccxWoBWC.s 			page 42


 2334 0741 2C000000 		.4byte	.LFE122
 2335 0745 CC000000 		.4byte	.LLST8
 2336 0749 01       		.byte	0x1
 2337 074a 68070000 		.4byte	0x768
 2338 074e 16       		.uleb128 0x16
 2339 074f 78080000 		.4byte	.LASF155
 2340 0753 01       		.byte	0x1
 2341 0754 C9       		.byte	0xc9
 2342 0755 70000000 		.4byte	0x70
 2343 0759 EC000000 		.4byte	.LLST9
 2344 075d 17       		.uleb128 0x17
 2345 075e 26000000 		.4byte	.LVL14
 2346 0762 01       		.byte	0x1
 2347 0763 ED0A0000 		.4byte	0xaed
 2348 0767 00       		.byte	0
 2349 0768 15       		.uleb128 0x15
 2350 0769 01       		.byte	0x1
 2351 076a 09080000 		.4byte	.LASF159
 2352 076e 01       		.byte	0x1
 2353 076f DA       		.byte	0xda
 2354 0770 01       		.byte	0x1
 2355 0771 00000000 		.4byte	.LFB123
 2356 0775 30000000 		.4byte	.LFE123
 2357 0779 FF000000 		.4byte	.LLST10
 2358 077d 01       		.byte	0x1
 2359 077e 9C070000 		.4byte	0x79c
 2360 0782 16       		.uleb128 0x16
 2361 0783 78080000 		.4byte	.LASF155
 2362 0787 01       		.byte	0x1
 2363 0788 DB       		.byte	0xdb
 2364 0789 70000000 		.4byte	0x70
 2365 078d 1F010000 		.4byte	.LLST11
 2366 0791 17       		.uleb128 0x17
 2367 0792 2A000000 		.4byte	.LVL17
 2368 0796 01       		.byte	0x1
 2369 0797 ED0A0000 		.4byte	0xaed
 2370 079b 00       		.byte	0
 2371 079c 15       		.uleb128 0x15
 2372 079d 01       		.byte	0x1
 2373 079e 24080000 		.4byte	.LASF160
 2374 07a2 01       		.byte	0x1
 2375 07a3 EC       		.byte	0xec
 2376 07a4 01       		.byte	0x1
 2377 07a5 00000000 		.4byte	.LFB124
 2378 07a9 30000000 		.4byte	.LFE124
 2379 07ad 32010000 		.4byte	.LLST12
 2380 07b1 01       		.byte	0x1
 2381 07b2 D0070000 		.4byte	0x7d0
 2382 07b6 16       		.uleb128 0x16
 2383 07b7 78080000 		.4byte	.LASF155
 2384 07bb 01       		.byte	0x1
 2385 07bc ED       		.byte	0xed
 2386 07bd 70000000 		.4byte	0x70
 2387 07c1 52010000 		.4byte	.LLST13
 2388 07c5 17       		.uleb128 0x17
 2389 07c6 2A000000 		.4byte	.LVL20
 2390 07ca 01       		.byte	0x1
ARM GAS  /tmp/ccxWoBWC.s 			page 43


 2391 07cb ED0A0000 		.4byte	0xaed
 2392 07cf 00       		.byte	0
 2393 07d0 15       		.uleb128 0x15
 2394 07d1 01       		.byte	0x1
 2395 07d2 8D030000 		.4byte	.LASF161
 2396 07d6 01       		.byte	0x1
 2397 07d7 FE       		.byte	0xfe
 2398 07d8 01       		.byte	0x1
 2399 07d9 00000000 		.4byte	.LFB125
 2400 07dd 30000000 		.4byte	.LFE125
 2401 07e1 65010000 		.4byte	.LLST14
 2402 07e5 01       		.byte	0x1
 2403 07e6 04080000 		.4byte	0x804
 2404 07ea 16       		.uleb128 0x16
 2405 07eb 78080000 		.4byte	.LASF155
 2406 07ef 01       		.byte	0x1
 2407 07f0 FF       		.byte	0xff
 2408 07f1 70000000 		.4byte	0x70
 2409 07f5 85010000 		.4byte	.LLST15
 2410 07f9 17       		.uleb128 0x17
 2411 07fa 2A000000 		.4byte	.LVL23
 2412 07fe 01       		.byte	0x1
 2413 07ff ED0A0000 		.4byte	0xaed
 2414 0803 00       		.byte	0
 2415 0804 18       		.uleb128 0x18
 2416 0805 01       		.byte	0x1
 2417 0806 96080000 		.4byte	.LASF162
 2418 080a 01       		.byte	0x1
 2419 080b 1001     		.2byte	0x110
 2420 080d 01       		.byte	0x1
 2421 080e 00000000 		.4byte	.LFB126
 2422 0812 2C000000 		.4byte	.LFE126
 2423 0816 98010000 		.4byte	.LLST16
 2424 081a 01       		.byte	0x1
 2425 081b 3A080000 		.4byte	0x83a
 2426 081f 19       		.uleb128 0x19
 2427 0820 78080000 		.4byte	.LASF155
 2428 0824 01       		.byte	0x1
 2429 0825 1101     		.2byte	0x111
 2430 0827 70000000 		.4byte	0x70
 2431 082b B8010000 		.4byte	.LLST17
 2432 082f 17       		.uleb128 0x17
 2433 0830 26000000 		.4byte	.LVL26
 2434 0834 01       		.byte	0x1
 2435 0835 ED0A0000 		.4byte	0xaed
 2436 0839 00       		.byte	0
 2437 083a 18       		.uleb128 0x18
 2438 083b 01       		.byte	0x1
 2439 083c AE080000 		.4byte	.LASF163
 2440 0840 01       		.byte	0x1
 2441 0841 2201     		.2byte	0x122
 2442 0843 01       		.byte	0x1
 2443 0844 00000000 		.4byte	.LFB127
 2444 0848 30000000 		.4byte	.LFE127
 2445 084c CB010000 		.4byte	.LLST18
 2446 0850 01       		.byte	0x1
 2447 0851 70080000 		.4byte	0x870
ARM GAS  /tmp/ccxWoBWC.s 			page 44


 2448 0855 19       		.uleb128 0x19
 2449 0856 78080000 		.4byte	.LASF155
 2450 085a 01       		.byte	0x1
 2451 085b 2301     		.2byte	0x123
 2452 085d 70000000 		.4byte	0x70
 2453 0861 EB010000 		.4byte	.LLST19
 2454 0865 17       		.uleb128 0x17
 2455 0866 2A000000 		.4byte	.LVL29
 2456 086a 01       		.byte	0x1
 2457 086b ED0A0000 		.4byte	0xaed
 2458 086f 00       		.byte	0
 2459 0870 18       		.uleb128 0x18
 2460 0871 01       		.byte	0x1
 2461 0872 B8080000 		.4byte	.LASF164
 2462 0876 01       		.byte	0x1
 2463 0877 3401     		.2byte	0x134
 2464 0879 01       		.byte	0x1
 2465 087a 00000000 		.4byte	.LFB128
 2466 087e 30000000 		.4byte	.LFE128
 2467 0882 FE010000 		.4byte	.LLST20
 2468 0886 01       		.byte	0x1
 2469 0887 A6080000 		.4byte	0x8a6
 2470 088b 19       		.uleb128 0x19
 2471 088c 78080000 		.4byte	.LASF155
 2472 0890 01       		.byte	0x1
 2473 0891 3501     		.2byte	0x135
 2474 0893 70000000 		.4byte	0x70
 2475 0897 1E020000 		.4byte	.LLST21
 2476 089b 17       		.uleb128 0x17
 2477 089c 2A000000 		.4byte	.LVL32
 2478 08a0 01       		.byte	0x1
 2479 08a1 ED0A0000 		.4byte	0xaed
 2480 08a5 00       		.byte	0
 2481 08a6 18       		.uleb128 0x18
 2482 08a7 01       		.byte	0x1
 2483 08a8 EA080000 		.4byte	.LASF165
 2484 08ac 01       		.byte	0x1
 2485 08ad 4601     		.2byte	0x146
 2486 08af 01       		.byte	0x1
 2487 08b0 00000000 		.4byte	.LFB129
 2488 08b4 30000000 		.4byte	.LFE129
 2489 08b8 31020000 		.4byte	.LLST22
 2490 08bc 01       		.byte	0x1
 2491 08bd DC080000 		.4byte	0x8dc
 2492 08c1 19       		.uleb128 0x19
 2493 08c2 78080000 		.4byte	.LASF155
 2494 08c6 01       		.byte	0x1
 2495 08c7 4701     		.2byte	0x147
 2496 08c9 70000000 		.4byte	0x70
 2497 08cd 51020000 		.4byte	.LLST23
 2498 08d1 17       		.uleb128 0x17
 2499 08d2 2A000000 		.4byte	.LVL35
 2500 08d6 01       		.byte	0x1
 2501 08d7 ED0A0000 		.4byte	0xaed
 2502 08db 00       		.byte	0
 2503 08dc 18       		.uleb128 0x18
 2504 08dd 01       		.byte	0x1
ARM GAS  /tmp/ccxWoBWC.s 			page 45


 2505 08de 1D020000 		.4byte	.LASF166
 2506 08e2 01       		.byte	0x1
 2507 08e3 5801     		.2byte	0x158
 2508 08e5 01       		.byte	0x1
 2509 08e6 00000000 		.4byte	.LFB130
 2510 08ea 2C000000 		.4byte	.LFE130
 2511 08ee 64020000 		.4byte	.LLST24
 2512 08f2 01       		.byte	0x1
 2513 08f3 12090000 		.4byte	0x912
 2514 08f7 19       		.uleb128 0x19
 2515 08f8 78080000 		.4byte	.LASF155
 2516 08fc 01       		.byte	0x1
 2517 08fd 5901     		.2byte	0x159
 2518 08ff 70000000 		.4byte	0x70
 2519 0903 84020000 		.4byte	.LLST25
 2520 0907 17       		.uleb128 0x17
 2521 0908 26000000 		.4byte	.LVL38
 2522 090c 01       		.byte	0x1
 2523 090d ED0A0000 		.4byte	0xaed
 2524 0911 00       		.byte	0
 2525 0912 18       		.uleb128 0x18
 2526 0913 01       		.byte	0x1
 2527 0914 FE020000 		.4byte	.LASF167
 2528 0918 01       		.byte	0x1
 2529 0919 6A01     		.2byte	0x16a
 2530 091b 01       		.byte	0x1
 2531 091c 00000000 		.4byte	.LFB131
 2532 0920 30000000 		.4byte	.LFE131
 2533 0924 97020000 		.4byte	.LLST26
 2534 0928 01       		.byte	0x1
 2535 0929 48090000 		.4byte	0x948
 2536 092d 19       		.uleb128 0x19
 2537 092e 78080000 		.4byte	.LASF155
 2538 0932 01       		.byte	0x1
 2539 0933 6B01     		.2byte	0x16b
 2540 0935 70000000 		.4byte	0x70
 2541 0939 B7020000 		.4byte	.LLST27
 2542 093d 17       		.uleb128 0x17
 2543 093e 2A000000 		.4byte	.LVL41
 2544 0942 01       		.byte	0x1
 2545 0943 ED0A0000 		.4byte	0xaed
 2546 0947 00       		.byte	0
 2547 0948 18       		.uleb128 0x18
 2548 0949 01       		.byte	0x1
 2549 094a 2C030000 		.4byte	.LASF168
 2550 094e 01       		.byte	0x1
 2551 094f 7C01     		.2byte	0x17c
 2552 0951 01       		.byte	0x1
 2553 0952 00000000 		.4byte	.LFB132
 2554 0956 30000000 		.4byte	.LFE132
 2555 095a CA020000 		.4byte	.LLST28
 2556 095e 01       		.byte	0x1
 2557 095f 7E090000 		.4byte	0x97e
 2558 0963 19       		.uleb128 0x19
 2559 0964 78080000 		.4byte	.LASF155
 2560 0968 01       		.byte	0x1
 2561 0969 7D01     		.2byte	0x17d
ARM GAS  /tmp/ccxWoBWC.s 			page 46


 2562 096b 70000000 		.4byte	0x70
 2563 096f EA020000 		.4byte	.LLST29
 2564 0973 17       		.uleb128 0x17
 2565 0974 2A000000 		.4byte	.LVL44
 2566 0978 01       		.byte	0x1
 2567 0979 ED0A0000 		.4byte	0xaed
 2568 097d 00       		.byte	0
 2569 097e 18       		.uleb128 0x18
 2570 097f 01       		.byte	0x1
 2571 0980 F3010000 		.4byte	.LASF169
 2572 0984 01       		.byte	0x1
 2573 0985 8E01     		.2byte	0x18e
 2574 0987 01       		.byte	0x1
 2575 0988 00000000 		.4byte	.LFB133
 2576 098c 30000000 		.4byte	.LFE133
 2577 0990 FD020000 		.4byte	.LLST30
 2578 0994 01       		.byte	0x1
 2579 0995 B4090000 		.4byte	0x9b4
 2580 0999 19       		.uleb128 0x19
 2581 099a 78080000 		.4byte	.LASF155
 2582 099e 01       		.byte	0x1
 2583 099f 8F01     		.2byte	0x18f
 2584 09a1 70000000 		.4byte	0x70
 2585 09a5 1D030000 		.4byte	.LLST31
 2586 09a9 17       		.uleb128 0x17
 2587 09aa 2A000000 		.4byte	.LVL47
 2588 09ae 01       		.byte	0x1
 2589 09af ED0A0000 		.4byte	0xaed
 2590 09b3 00       		.byte	0
 2591 09b4 1A       		.uleb128 0x1a
 2592 09b5 01       		.byte	0x1
 2593 09b6 27070000 		.4byte	.LASF170
 2594 09ba 01       		.byte	0x1
 2595 09bb A401     		.2byte	0x1a4
 2596 09bd 01       		.byte	0x1
 2597 09be 00000000 		.4byte	.LFB134
 2598 09c2 36010000 		.4byte	.LFE134
 2599 09c6 30030000 		.4byte	.LLST32
 2600 09ca 01       		.byte	0x1
 2601 09cb DE090000 		.4byte	0x9de
 2602 09cf 1B       		.uleb128 0x1b
 2603 09d0 6900     		.ascii	"i\000"
 2604 09d2 01       		.byte	0x1
 2605 09d3 A501     		.2byte	0x1a5
 2606 09d5 29000000 		.4byte	0x29
 2607 09d9 5D030000 		.4byte	.LLST33
 2608 09dd 00       		.byte	0
 2609 09de 1C       		.uleb128 0x1c
 2610 09df 01       		.byte	0x1
 2611 09e0 08090000 		.4byte	.LASF184
 2612 09e4 01       		.byte	0x1
 2613 09e5 CA01     		.2byte	0x1ca
 2614 09e7 01       		.byte	0x1
 2615 09e8 90000000 		.4byte	0x90
 2616 09ec 00000000 		.4byte	.LFB135
 2617 09f0 A0000000 		.4byte	.LFE135
 2618 09f4 31040000 		.4byte	.LLST34
ARM GAS  /tmp/ccxWoBWC.s 			page 47


 2619 09f8 01       		.byte	0x1
 2620 09f9 510A0000 		.4byte	0xa51
 2621 09fd 1D       		.uleb128 0x1d
 2622 09fe 16020000 		.4byte	.LASF171
 2623 0a02 01       		.byte	0x1
 2624 0a03 CA01     		.2byte	0x1ca
 2625 0a05 29060000 		.4byte	0x629
 2626 0a09 51040000 		.4byte	.LLST35
 2627 0a0d 1D       		.uleb128 0x1d
 2628 0a0e 27040000 		.4byte	.LASF172
 2629 0a12 01       		.byte	0x1
 2630 0a13 CB01     		.2byte	0x1cb
 2631 0a15 70000000 		.4byte	0x70
 2632 0a19 A4040000 		.4byte	.LLST36
 2633 0a1d 1D       		.uleb128 0x1d
 2634 0a1e 4B020000 		.4byte	.LASF173
 2635 0a22 01       		.byte	0x1
 2636 0a23 CC01     		.2byte	0x1cc
 2637 0a25 07060000 		.4byte	0x607
 2638 0a29 D0040000 		.4byte	.LLST37
 2639 0a2d 1D       		.uleb128 0x1d
 2640 0a2e 27050000 		.4byte	.LASF174
 2641 0a32 01       		.byte	0x1
 2642 0a33 CD01     		.2byte	0x1cd
 2643 0a35 A2000000 		.4byte	0xa2
 2644 0a39 FC040000 		.4byte	.LLST38
 2645 0a3d 1E       		.uleb128 0x1e
 2646 0a3e 74000000 		.4byte	.LVL69
 2647 0a42 F80A0000 		.4byte	0xaf8
 2648 0a46 1F       		.uleb128 0x1f
 2649 0a47 01       		.byte	0x1
 2650 0a48 51       		.byte	0x51
 2651 0a49 05       		.byte	0x5
 2652 0a4a F3       		.byte	0xf3
 2653 0a4b 01       		.uleb128 0x1
 2654 0a4c 51       		.byte	0x51
 2655 0a4d 34       		.byte	0x34
 2656 0a4e 24       		.byte	0x24
 2657 0a4f 00       		.byte	0
 2658 0a50 00       		.byte	0
 2659 0a51 1A       		.uleb128 0x1a
 2660 0a52 01       		.byte	0x1
 2661 0a53 46070000 		.4byte	.LASF175
 2662 0a57 01       		.byte	0x1
 2663 0a58 F901     		.2byte	0x1f9
 2664 0a5a 01       		.byte	0x1
 2665 0a5b 00000000 		.4byte	.LFB136
 2666 0a5f 50000000 		.4byte	.LFE136
 2667 0a63 4C050000 		.4byte	.LLST39
 2668 0a67 01       		.byte	0x1
 2669 0a68 860A0000 		.4byte	0xa86
 2670 0a6c 1D       		.uleb128 0x1d
 2671 0a6d 16020000 		.4byte	.LASF171
 2672 0a71 01       		.byte	0x1
 2673 0a72 F901     		.2byte	0x1f9
 2674 0a74 29060000 		.4byte	0x629
 2675 0a78 6C050000 		.4byte	.LLST40
ARM GAS  /tmp/ccxWoBWC.s 			page 48


 2676 0a7c 20       		.uleb128 0x20
 2677 0a7d 0A000000 		.4byte	.LVL77
 2678 0a81 120B0000 		.4byte	0xb12
 2679 0a85 00       		.byte	0
 2680 0a86 21       		.uleb128 0x21
 2681 0a87 CF070000 		.4byte	.LASF176
 2682 0a8b 01       		.byte	0x1
 2683 0a8c 6C       		.byte	0x6c
 2684 0a8d 70000000 		.4byte	0x70
 2685 0a91 05       		.byte	0x5
 2686 0a92 03       		.byte	0x3
 2687 0a93 00000000 		.4byte	dma_streams_mask
 2688 0a97 09       		.uleb128 0x9
 2689 0a98 59060000 		.4byte	0x659
 2690 0a9c A70A0000 		.4byte	0xaa7
 2691 0aa0 0A       		.uleb128 0xa
 2692 0aa1 A9000000 		.4byte	0xa9
 2693 0aa5 0F       		.byte	0xf
 2694 0aa6 00       		.byte	0
 2695 0aa7 21       		.uleb128 0x21
 2696 0aa8 88080000 		.4byte	.LASF177
 2697 0aac 01       		.byte	0x1
 2698 0aad 71       		.byte	0x71
 2699 0aae 970A0000 		.4byte	0xa97
 2700 0ab2 05       		.byte	0x5
 2701 0ab3 03       		.byte	0x3
 2702 0ab4 00000000 		.4byte	dma_isr_redir
 2703 0ab8 22       		.uleb128 0x22
 2704 0ab9 4A060000 		.4byte	.LASF178
 2705 0abd 06       		.byte	0x6
 2706 0abe 9806     		.2byte	0x698
 2707 0ac0 02030000 		.4byte	0x302
 2708 0ac4 01       		.byte	0x1
 2709 0ac5 01       		.byte	0x1
 2710 0ac6 09       		.uleb128 0x9
 2711 0ac7 FC050000 		.4byte	0x5fc
 2712 0acb D60A0000 		.4byte	0xad6
 2713 0acf 0A       		.uleb128 0xa
 2714 0ad0 A9000000 		.4byte	0xa9
 2715 0ad4 0F       		.byte	0xf
 2716 0ad5 00       		.byte	0
 2717 0ad6 23       		.uleb128 0x23
 2718 0ad7 3A010000 		.4byte	.LASF179
 2719 0adb 01       		.byte	0x1
 2720 0adc 4A       		.byte	0x4a
 2721 0add E80A0000 		.4byte	0xae8
 2722 0ae1 01       		.byte	0x1
 2723 0ae2 05       		.byte	0x5
 2724 0ae3 03       		.byte	0x3
 2725 0ae4 00000000 		.4byte	_stm32_dma_streams
 2726 0ae8 14       		.uleb128 0x14
 2727 0ae9 C60A0000 		.4byte	0xac6
 2728 0aed 24       		.uleb128 0x24
 2729 0aee 01       		.byte	0x1
 2730 0aef 53080000 		.4byte	.LASF185
 2731 0af3 07       		.byte	0x7
 2732 0af4 FC01     		.2byte	0x1fc
ARM GAS  /tmp/ccxWoBWC.s 			page 49


 2733 0af6 01       		.byte	0x1
 2734 0af7 01       		.byte	0x1
 2735 0af8 25       		.uleb128 0x25
 2736 0af9 01       		.byte	0x1
 2737 0afa 9A010000 		.4byte	.LASF186
 2738 0afe 08       		.byte	0x8
 2739 0aff 1C01     		.2byte	0x11c
 2740 0b01 01       		.byte	0x1
 2741 0b02 01       		.byte	0x1
 2742 0b03 120B0000 		.4byte	0xb12
 2743 0b07 13       		.uleb128 0x13
 2744 0b08 70000000 		.4byte	0x70
 2745 0b0c 13       		.uleb128 0x13
 2746 0b0d 70000000 		.4byte	0x70
 2747 0b11 00       		.byte	0
 2748 0b12 26       		.uleb128 0x26
 2749 0b13 01       		.byte	0x1
 2750 0b14 04020000 		.4byte	.LASF187
 2751 0b18 08       		.byte	0x8
 2752 0b19 1D01     		.2byte	0x11d
 2753 0b1b 01       		.byte	0x1
 2754 0b1c 01       		.byte	0x1
 2755 0b1d 13       		.uleb128 0x13
 2756 0b1e 70000000 		.4byte	0x70
 2757 0b22 00       		.byte	0
 2758 0b23 00       		.byte	0
 2759              		.section	.debug_abbrev,"",%progbits
 2760              	.Ldebug_abbrev0:
 2761 0000 01       		.uleb128 0x1
 2762 0001 11       		.uleb128 0x11
 2763 0002 01       		.byte	0x1
 2764 0003 25       		.uleb128 0x25
 2765 0004 0E       		.uleb128 0xe
 2766 0005 13       		.uleb128 0x13
 2767 0006 0B       		.uleb128 0xb
 2768 0007 03       		.uleb128 0x3
 2769 0008 0E       		.uleb128 0xe
 2770 0009 1B       		.uleb128 0x1b
 2771 000a 0E       		.uleb128 0xe
 2772 000b 55       		.uleb128 0x55
 2773 000c 06       		.uleb128 0x6
 2774 000d 11       		.uleb128 0x11
 2775 000e 01       		.uleb128 0x1
 2776 000f 52       		.uleb128 0x52
 2777 0010 01       		.uleb128 0x1
 2778 0011 10       		.uleb128 0x10
 2779 0012 06       		.uleb128 0x6
 2780 0013 00       		.byte	0
 2781 0014 00       		.byte	0
 2782 0015 02       		.uleb128 0x2
 2783 0016 24       		.uleb128 0x24
 2784 0017 00       		.byte	0
 2785 0018 0B       		.uleb128 0xb
 2786 0019 0B       		.uleb128 0xb
 2787 001a 3E       		.uleb128 0x3e
 2788 001b 0B       		.uleb128 0xb
 2789 001c 03       		.uleb128 0x3
ARM GAS  /tmp/ccxWoBWC.s 			page 50


 2790 001d 08       		.uleb128 0x8
 2791 001e 00       		.byte	0
 2792 001f 00       		.byte	0
 2793 0020 03       		.uleb128 0x3
 2794 0021 24       		.uleb128 0x24
 2795 0022 00       		.byte	0
 2796 0023 0B       		.uleb128 0xb
 2797 0024 0B       		.uleb128 0xb
 2798 0025 3E       		.uleb128 0x3e
 2799 0026 0B       		.uleb128 0xb
 2800 0027 03       		.uleb128 0x3
 2801 0028 0E       		.uleb128 0xe
 2802 0029 00       		.byte	0
 2803 002a 00       		.byte	0
 2804 002b 04       		.uleb128 0x4
 2805 002c 16       		.uleb128 0x16
 2806 002d 00       		.byte	0
 2807 002e 03       		.uleb128 0x3
 2808 002f 0E       		.uleb128 0xe
 2809 0030 3A       		.uleb128 0x3a
 2810 0031 0B       		.uleb128 0xb
 2811 0032 3B       		.uleb128 0x3b
 2812 0033 0B       		.uleb128 0xb
 2813 0034 49       		.uleb128 0x49
 2814 0035 13       		.uleb128 0x13
 2815 0036 00       		.byte	0
 2816 0037 00       		.byte	0
 2817 0038 05       		.uleb128 0x5
 2818 0039 0F       		.uleb128 0xf
 2819 003a 00       		.byte	0
 2820 003b 0B       		.uleb128 0xb
 2821 003c 0B       		.uleb128 0xb
 2822 003d 00       		.byte	0
 2823 003e 00       		.byte	0
 2824 003f 06       		.uleb128 0x6
 2825 0040 35       		.uleb128 0x35
 2826 0041 00       		.byte	0
 2827 0042 49       		.uleb128 0x49
 2828 0043 13       		.uleb128 0x13
 2829 0044 00       		.byte	0
 2830 0045 00       		.byte	0
 2831 0046 07       		.uleb128 0x7
 2832 0047 04       		.uleb128 0x4
 2833 0048 01       		.byte	0x1
 2834 0049 03       		.uleb128 0x3
 2835 004a 0E       		.uleb128 0xe
 2836 004b 0B       		.uleb128 0xb
 2837 004c 0B       		.uleb128 0xb
 2838 004d 3A       		.uleb128 0x3a
 2839 004e 0B       		.uleb128 0xb
 2840 004f 3B       		.uleb128 0x3b
 2841 0050 0B       		.uleb128 0xb
 2842 0051 01       		.uleb128 0x1
 2843 0052 13       		.uleb128 0x13
 2844 0053 00       		.byte	0
 2845 0054 00       		.byte	0
 2846 0055 08       		.uleb128 0x8
ARM GAS  /tmp/ccxWoBWC.s 			page 51


 2847 0056 28       		.uleb128 0x28
 2848 0057 00       		.byte	0
 2849 0058 03       		.uleb128 0x3
 2850 0059 0E       		.uleb128 0xe
 2851 005a 1C       		.uleb128 0x1c
 2852 005b 0D       		.uleb128 0xd
 2853 005c 00       		.byte	0
 2854 005d 00       		.byte	0
 2855 005e 09       		.uleb128 0x9
 2856 005f 01       		.uleb128 0x1
 2857 0060 01       		.byte	0x1
 2858 0061 49       		.uleb128 0x49
 2859 0062 13       		.uleb128 0x13
 2860 0063 01       		.uleb128 0x1
 2861 0064 13       		.uleb128 0x13
 2862 0065 00       		.byte	0
 2863 0066 00       		.byte	0
 2864 0067 0A       		.uleb128 0xa
 2865 0068 21       		.uleb128 0x21
 2866 0069 00       		.byte	0
 2867 006a 49       		.uleb128 0x49
 2868 006b 13       		.uleb128 0x13
 2869 006c 2F       		.uleb128 0x2f
 2870 006d 0B       		.uleb128 0xb
 2871 006e 00       		.byte	0
 2872 006f 00       		.byte	0
 2873 0070 0B       		.uleb128 0xb
 2874 0071 13       		.uleb128 0x13
 2875 0072 01       		.byte	0x1
 2876 0073 0B       		.uleb128 0xb
 2877 0074 0B       		.uleb128 0xb
 2878 0075 3A       		.uleb128 0x3a
 2879 0076 0B       		.uleb128 0xb
 2880 0077 3B       		.uleb128 0x3b
 2881 0078 05       		.uleb128 0x5
 2882 0079 01       		.uleb128 0x1
 2883 007a 13       		.uleb128 0x13
 2884 007b 00       		.byte	0
 2885 007c 00       		.byte	0
 2886 007d 0C       		.uleb128 0xc
 2887 007e 0D       		.uleb128 0xd
 2888 007f 00       		.byte	0
 2889 0080 03       		.uleb128 0x3
 2890 0081 08       		.uleb128 0x8
 2891 0082 3A       		.uleb128 0x3a
 2892 0083 0B       		.uleb128 0xb
 2893 0084 3B       		.uleb128 0x3b
 2894 0085 05       		.uleb128 0x5
 2895 0086 49       		.uleb128 0x49
 2896 0087 13       		.uleb128 0x13
 2897 0088 38       		.uleb128 0x38
 2898 0089 0A       		.uleb128 0xa
 2899 008a 00       		.byte	0
 2900 008b 00       		.byte	0
 2901 008c 0D       		.uleb128 0xd
 2902 008d 0D       		.uleb128 0xd
 2903 008e 00       		.byte	0
ARM GAS  /tmp/ccxWoBWC.s 			page 52


 2904 008f 03       		.uleb128 0x3
 2905 0090 0E       		.uleb128 0xe
 2906 0091 3A       		.uleb128 0x3a
 2907 0092 0B       		.uleb128 0xb
 2908 0093 3B       		.uleb128 0x3b
 2909 0094 05       		.uleb128 0x5
 2910 0095 49       		.uleb128 0x49
 2911 0096 13       		.uleb128 0x13
 2912 0097 38       		.uleb128 0x38
 2913 0098 0A       		.uleb128 0xa
 2914 0099 00       		.byte	0
 2915 009a 00       		.byte	0
 2916 009b 0E       		.uleb128 0xe
 2917 009c 16       		.uleb128 0x16
 2918 009d 00       		.byte	0
 2919 009e 03       		.uleb128 0x3
 2920 009f 0E       		.uleb128 0xe
 2921 00a0 3A       		.uleb128 0x3a
 2922 00a1 0B       		.uleb128 0xb
 2923 00a2 3B       		.uleb128 0x3b
 2924 00a3 05       		.uleb128 0x5
 2925 00a4 49       		.uleb128 0x49
 2926 00a5 13       		.uleb128 0x13
 2927 00a6 00       		.byte	0
 2928 00a7 00       		.byte	0
 2929 00a8 0F       		.uleb128 0xf
 2930 00a9 13       		.uleb128 0x13
 2931 00aa 01       		.byte	0x1
 2932 00ab 0B       		.uleb128 0xb
 2933 00ac 0B       		.uleb128 0xb
 2934 00ad 3A       		.uleb128 0x3a
 2935 00ae 0B       		.uleb128 0xb
 2936 00af 3B       		.uleb128 0x3b
 2937 00b0 0B       		.uleb128 0xb
 2938 00b1 01       		.uleb128 0x1
 2939 00b2 13       		.uleb128 0x13
 2940 00b3 00       		.byte	0
 2941 00b4 00       		.byte	0
 2942 00b5 10       		.uleb128 0x10
 2943 00b6 0D       		.uleb128 0xd
 2944 00b7 00       		.byte	0
 2945 00b8 03       		.uleb128 0x3
 2946 00b9 0E       		.uleb128 0xe
 2947 00ba 3A       		.uleb128 0x3a
 2948 00bb 0B       		.uleb128 0xb
 2949 00bc 3B       		.uleb128 0x3b
 2950 00bd 0B       		.uleb128 0xb
 2951 00be 49       		.uleb128 0x49
 2952 00bf 13       		.uleb128 0x13
 2953 00c0 38       		.uleb128 0x38
 2954 00c1 0A       		.uleb128 0xa
 2955 00c2 00       		.byte	0
 2956 00c3 00       		.byte	0
 2957 00c4 11       		.uleb128 0x11
 2958 00c5 0F       		.uleb128 0xf
 2959 00c6 00       		.byte	0
 2960 00c7 0B       		.uleb128 0xb
ARM GAS  /tmp/ccxWoBWC.s 			page 53


 2961 00c8 0B       		.uleb128 0xb
 2962 00c9 49       		.uleb128 0x49
 2963 00ca 13       		.uleb128 0x13
 2964 00cb 00       		.byte	0
 2965 00cc 00       		.byte	0
 2966 00cd 12       		.uleb128 0x12
 2967 00ce 15       		.uleb128 0x15
 2968 00cf 01       		.byte	0x1
 2969 00d0 27       		.uleb128 0x27
 2970 00d1 0C       		.uleb128 0xc
 2971 00d2 01       		.uleb128 0x1
 2972 00d3 13       		.uleb128 0x13
 2973 00d4 00       		.byte	0
 2974 00d5 00       		.byte	0
 2975 00d6 13       		.uleb128 0x13
 2976 00d7 05       		.uleb128 0x5
 2977 00d8 00       		.byte	0
 2978 00d9 49       		.uleb128 0x49
 2979 00da 13       		.uleb128 0x13
 2980 00db 00       		.byte	0
 2981 00dc 00       		.byte	0
 2982 00dd 14       		.uleb128 0x14
 2983 00de 26       		.uleb128 0x26
 2984 00df 00       		.byte	0
 2985 00e0 49       		.uleb128 0x49
 2986 00e1 13       		.uleb128 0x13
 2987 00e2 00       		.byte	0
 2988 00e3 00       		.byte	0
 2989 00e4 15       		.uleb128 0x15
 2990 00e5 2E       		.uleb128 0x2e
 2991 00e6 01       		.byte	0x1
 2992 00e7 3F       		.uleb128 0x3f
 2993 00e8 0C       		.uleb128 0xc
 2994 00e9 03       		.uleb128 0x3
 2995 00ea 0E       		.uleb128 0xe
 2996 00eb 3A       		.uleb128 0x3a
 2997 00ec 0B       		.uleb128 0xb
 2998 00ed 3B       		.uleb128 0x3b
 2999 00ee 0B       		.uleb128 0xb
 3000 00ef 27       		.uleb128 0x27
 3001 00f0 0C       		.uleb128 0xc
 3002 00f1 11       		.uleb128 0x11
 3003 00f2 01       		.uleb128 0x1
 3004 00f3 12       		.uleb128 0x12
 3005 00f4 01       		.uleb128 0x1
 3006 00f5 40       		.uleb128 0x40
 3007 00f6 06       		.uleb128 0x6
 3008 00f7 9642     		.uleb128 0x2116
 3009 00f9 0C       		.uleb128 0xc
 3010 00fa 01       		.uleb128 0x1
 3011 00fb 13       		.uleb128 0x13
 3012 00fc 00       		.byte	0
 3013 00fd 00       		.byte	0
 3014 00fe 16       		.uleb128 0x16
 3015 00ff 34       		.uleb128 0x34
 3016 0100 00       		.byte	0
 3017 0101 03       		.uleb128 0x3
ARM GAS  /tmp/ccxWoBWC.s 			page 54


 3018 0102 0E       		.uleb128 0xe
 3019 0103 3A       		.uleb128 0x3a
 3020 0104 0B       		.uleb128 0xb
 3021 0105 3B       		.uleb128 0x3b
 3022 0106 0B       		.uleb128 0xb
 3023 0107 49       		.uleb128 0x49
 3024 0108 13       		.uleb128 0x13
 3025 0109 02       		.uleb128 0x2
 3026 010a 06       		.uleb128 0x6
 3027 010b 00       		.byte	0
 3028 010c 00       		.byte	0
 3029 010d 17       		.uleb128 0x17
 3030 010e 898201   		.uleb128 0x4109
 3031 0111 00       		.byte	0
 3032 0112 11       		.uleb128 0x11
 3033 0113 01       		.uleb128 0x1
 3034 0114 9542     		.uleb128 0x2115
 3035 0116 0C       		.uleb128 0xc
 3036 0117 31       		.uleb128 0x31
 3037 0118 13       		.uleb128 0x13
 3038 0119 00       		.byte	0
 3039 011a 00       		.byte	0
 3040 011b 18       		.uleb128 0x18
 3041 011c 2E       		.uleb128 0x2e
 3042 011d 01       		.byte	0x1
 3043 011e 3F       		.uleb128 0x3f
 3044 011f 0C       		.uleb128 0xc
 3045 0120 03       		.uleb128 0x3
 3046 0121 0E       		.uleb128 0xe
 3047 0122 3A       		.uleb128 0x3a
 3048 0123 0B       		.uleb128 0xb
 3049 0124 3B       		.uleb128 0x3b
 3050 0125 05       		.uleb128 0x5
 3051 0126 27       		.uleb128 0x27
 3052 0127 0C       		.uleb128 0xc
 3053 0128 11       		.uleb128 0x11
 3054 0129 01       		.uleb128 0x1
 3055 012a 12       		.uleb128 0x12
 3056 012b 01       		.uleb128 0x1
 3057 012c 40       		.uleb128 0x40
 3058 012d 06       		.uleb128 0x6
 3059 012e 9642     		.uleb128 0x2116
 3060 0130 0C       		.uleb128 0xc
 3061 0131 01       		.uleb128 0x1
 3062 0132 13       		.uleb128 0x13
 3063 0133 00       		.byte	0
 3064 0134 00       		.byte	0
 3065 0135 19       		.uleb128 0x19
 3066 0136 34       		.uleb128 0x34
 3067 0137 00       		.byte	0
 3068 0138 03       		.uleb128 0x3
 3069 0139 0E       		.uleb128 0xe
 3070 013a 3A       		.uleb128 0x3a
 3071 013b 0B       		.uleb128 0xb
 3072 013c 3B       		.uleb128 0x3b
 3073 013d 05       		.uleb128 0x5
 3074 013e 49       		.uleb128 0x49
ARM GAS  /tmp/ccxWoBWC.s 			page 55


 3075 013f 13       		.uleb128 0x13
 3076 0140 02       		.uleb128 0x2
 3077 0141 06       		.uleb128 0x6
 3078 0142 00       		.byte	0
 3079 0143 00       		.byte	0
 3080 0144 1A       		.uleb128 0x1a
 3081 0145 2E       		.uleb128 0x2e
 3082 0146 01       		.byte	0x1
 3083 0147 3F       		.uleb128 0x3f
 3084 0148 0C       		.uleb128 0xc
 3085 0149 03       		.uleb128 0x3
 3086 014a 0E       		.uleb128 0xe
 3087 014b 3A       		.uleb128 0x3a
 3088 014c 0B       		.uleb128 0xb
 3089 014d 3B       		.uleb128 0x3b
 3090 014e 05       		.uleb128 0x5
 3091 014f 27       		.uleb128 0x27
 3092 0150 0C       		.uleb128 0xc
 3093 0151 11       		.uleb128 0x11
 3094 0152 01       		.uleb128 0x1
 3095 0153 12       		.uleb128 0x12
 3096 0154 01       		.uleb128 0x1
 3097 0155 40       		.uleb128 0x40
 3098 0156 06       		.uleb128 0x6
 3099 0157 9742     		.uleb128 0x2117
 3100 0159 0C       		.uleb128 0xc
 3101 015a 01       		.uleb128 0x1
 3102 015b 13       		.uleb128 0x13
 3103 015c 00       		.byte	0
 3104 015d 00       		.byte	0
 3105 015e 1B       		.uleb128 0x1b
 3106 015f 34       		.uleb128 0x34
 3107 0160 00       		.byte	0
 3108 0161 03       		.uleb128 0x3
 3109 0162 08       		.uleb128 0x8
 3110 0163 3A       		.uleb128 0x3a
 3111 0164 0B       		.uleb128 0xb
 3112 0165 3B       		.uleb128 0x3b
 3113 0166 05       		.uleb128 0x5
 3114 0167 49       		.uleb128 0x49
 3115 0168 13       		.uleb128 0x13
 3116 0169 02       		.uleb128 0x2
 3117 016a 06       		.uleb128 0x6
 3118 016b 00       		.byte	0
 3119 016c 00       		.byte	0
 3120 016d 1C       		.uleb128 0x1c
 3121 016e 2E       		.uleb128 0x2e
 3122 016f 01       		.byte	0x1
 3123 0170 3F       		.uleb128 0x3f
 3124 0171 0C       		.uleb128 0xc
 3125 0172 03       		.uleb128 0x3
 3126 0173 0E       		.uleb128 0xe
 3127 0174 3A       		.uleb128 0x3a
 3128 0175 0B       		.uleb128 0xb
 3129 0176 3B       		.uleb128 0x3b
 3130 0177 05       		.uleb128 0x5
 3131 0178 27       		.uleb128 0x27
ARM GAS  /tmp/ccxWoBWC.s 			page 56


 3132 0179 0C       		.uleb128 0xc
 3133 017a 49       		.uleb128 0x49
 3134 017b 13       		.uleb128 0x13
 3135 017c 11       		.uleb128 0x11
 3136 017d 01       		.uleb128 0x1
 3137 017e 12       		.uleb128 0x12
 3138 017f 01       		.uleb128 0x1
 3139 0180 40       		.uleb128 0x40
 3140 0181 06       		.uleb128 0x6
 3141 0182 9742     		.uleb128 0x2117
 3142 0184 0C       		.uleb128 0xc
 3143 0185 01       		.uleb128 0x1
 3144 0186 13       		.uleb128 0x13
 3145 0187 00       		.byte	0
 3146 0188 00       		.byte	0
 3147 0189 1D       		.uleb128 0x1d
 3148 018a 05       		.uleb128 0x5
 3149 018b 00       		.byte	0
 3150 018c 03       		.uleb128 0x3
 3151 018d 0E       		.uleb128 0xe
 3152 018e 3A       		.uleb128 0x3a
 3153 018f 0B       		.uleb128 0xb
 3154 0190 3B       		.uleb128 0x3b
 3155 0191 05       		.uleb128 0x5
 3156 0192 49       		.uleb128 0x49
 3157 0193 13       		.uleb128 0x13
 3158 0194 02       		.uleb128 0x2
 3159 0195 06       		.uleb128 0x6
 3160 0196 00       		.byte	0
 3161 0197 00       		.byte	0
 3162 0198 1E       		.uleb128 0x1e
 3163 0199 898201   		.uleb128 0x4109
 3164 019c 01       		.byte	0x1
 3165 019d 11       		.uleb128 0x11
 3166 019e 01       		.uleb128 0x1
 3167 019f 31       		.uleb128 0x31
 3168 01a0 13       		.uleb128 0x13
 3169 01a1 00       		.byte	0
 3170 01a2 00       		.byte	0
 3171 01a3 1F       		.uleb128 0x1f
 3172 01a4 8A8201   		.uleb128 0x410a
 3173 01a7 00       		.byte	0
 3174 01a8 02       		.uleb128 0x2
 3175 01a9 0A       		.uleb128 0xa
 3176 01aa 9142     		.uleb128 0x2111
 3177 01ac 0A       		.uleb128 0xa
 3178 01ad 00       		.byte	0
 3179 01ae 00       		.byte	0
 3180 01af 20       		.uleb128 0x20
 3181 01b0 898201   		.uleb128 0x4109
 3182 01b3 00       		.byte	0
 3183 01b4 11       		.uleb128 0x11
 3184 01b5 01       		.uleb128 0x1
 3185 01b6 31       		.uleb128 0x31
 3186 01b7 13       		.uleb128 0x13
 3187 01b8 00       		.byte	0
 3188 01b9 00       		.byte	0
ARM GAS  /tmp/ccxWoBWC.s 			page 57


 3189 01ba 21       		.uleb128 0x21
 3190 01bb 34       		.uleb128 0x34
 3191 01bc 00       		.byte	0
 3192 01bd 03       		.uleb128 0x3
 3193 01be 0E       		.uleb128 0xe
 3194 01bf 3A       		.uleb128 0x3a
 3195 01c0 0B       		.uleb128 0xb
 3196 01c1 3B       		.uleb128 0x3b
 3197 01c2 0B       		.uleb128 0xb
 3198 01c3 49       		.uleb128 0x49
 3199 01c4 13       		.uleb128 0x13
 3200 01c5 02       		.uleb128 0x2
 3201 01c6 0A       		.uleb128 0xa
 3202 01c7 00       		.byte	0
 3203 01c8 00       		.byte	0
 3204 01c9 22       		.uleb128 0x22
 3205 01ca 34       		.uleb128 0x34
 3206 01cb 00       		.byte	0
 3207 01cc 03       		.uleb128 0x3
 3208 01cd 0E       		.uleb128 0xe
 3209 01ce 3A       		.uleb128 0x3a
 3210 01cf 0B       		.uleb128 0xb
 3211 01d0 3B       		.uleb128 0x3b
 3212 01d1 05       		.uleb128 0x5
 3213 01d2 49       		.uleb128 0x49
 3214 01d3 13       		.uleb128 0x13
 3215 01d4 3F       		.uleb128 0x3f
 3216 01d5 0C       		.uleb128 0xc
 3217 01d6 3C       		.uleb128 0x3c
 3218 01d7 0C       		.uleb128 0xc
 3219 01d8 00       		.byte	0
 3220 01d9 00       		.byte	0
 3221 01da 23       		.uleb128 0x23
 3222 01db 34       		.uleb128 0x34
 3223 01dc 00       		.byte	0
 3224 01dd 03       		.uleb128 0x3
 3225 01de 0E       		.uleb128 0xe
 3226 01df 3A       		.uleb128 0x3a
 3227 01e0 0B       		.uleb128 0xb
 3228 01e1 3B       		.uleb128 0x3b
 3229 01e2 0B       		.uleb128 0xb
 3230 01e3 49       		.uleb128 0x49
 3231 01e4 13       		.uleb128 0x13
 3232 01e5 3F       		.uleb128 0x3f
 3233 01e6 0C       		.uleb128 0xc
 3234 01e7 02       		.uleb128 0x2
 3235 01e8 0A       		.uleb128 0xa
 3236 01e9 00       		.byte	0
 3237 01ea 00       		.byte	0
 3238 01eb 24       		.uleb128 0x24
 3239 01ec 2E       		.uleb128 0x2e
 3240 01ed 00       		.byte	0
 3241 01ee 3F       		.uleb128 0x3f
 3242 01ef 0C       		.uleb128 0xc
 3243 01f0 03       		.uleb128 0x3
 3244 01f1 0E       		.uleb128 0xe
 3245 01f2 3A       		.uleb128 0x3a
ARM GAS  /tmp/ccxWoBWC.s 			page 58


 3246 01f3 0B       		.uleb128 0xb
 3247 01f4 3B       		.uleb128 0x3b
 3248 01f5 05       		.uleb128 0x5
 3249 01f6 27       		.uleb128 0x27
 3250 01f7 0C       		.uleb128 0xc
 3251 01f8 3C       		.uleb128 0x3c
 3252 01f9 0C       		.uleb128 0xc
 3253 01fa 00       		.byte	0
 3254 01fb 00       		.byte	0
 3255 01fc 25       		.uleb128 0x25
 3256 01fd 2E       		.uleb128 0x2e
 3257 01fe 01       		.byte	0x1
 3258 01ff 3F       		.uleb128 0x3f
 3259 0200 0C       		.uleb128 0xc
 3260 0201 03       		.uleb128 0x3
 3261 0202 0E       		.uleb128 0xe
 3262 0203 3A       		.uleb128 0x3a
 3263 0204 0B       		.uleb128 0xb
 3264 0205 3B       		.uleb128 0x3b
 3265 0206 05       		.uleb128 0x5
 3266 0207 27       		.uleb128 0x27
 3267 0208 0C       		.uleb128 0xc
 3268 0209 3C       		.uleb128 0x3c
 3269 020a 0C       		.uleb128 0xc
 3270 020b 01       		.uleb128 0x1
 3271 020c 13       		.uleb128 0x13
 3272 020d 00       		.byte	0
 3273 020e 00       		.byte	0
 3274 020f 26       		.uleb128 0x26
 3275 0210 2E       		.uleb128 0x2e
 3276 0211 01       		.byte	0x1
 3277 0212 3F       		.uleb128 0x3f
 3278 0213 0C       		.uleb128 0xc
 3279 0214 03       		.uleb128 0x3
 3280 0215 0E       		.uleb128 0xe
 3281 0216 3A       		.uleb128 0x3a
 3282 0217 0B       		.uleb128 0xb
 3283 0218 3B       		.uleb128 0x3b
 3284 0219 05       		.uleb128 0x5
 3285 021a 27       		.uleb128 0x27
 3286 021b 0C       		.uleb128 0xc
 3287 021c 3C       		.uleb128 0x3c
 3288 021d 0C       		.uleb128 0xc
 3289 021e 00       		.byte	0
 3290 021f 00       		.byte	0
 3291 0220 00       		.byte	0
 3292              		.section	.debug_loc,"",%progbits
 3293              	.Ldebug_loc0:
 3294              	.LLST0:
 3295 0000 00000000 		.4byte	.LFB118
 3296 0004 10000000 		.4byte	.LCFI0
 3297 0008 0200     		.2byte	0x2
 3298 000a 7D       		.byte	0x7d
 3299 000b 00       		.sleb128 0
 3300 000c 10000000 		.4byte	.LCFI0
 3301 0010 2C000000 		.4byte	.LFE118
 3302 0014 0200     		.2byte	0x2
ARM GAS  /tmp/ccxWoBWC.s 			page 59


 3303 0016 7D       		.byte	0x7d
 3304 0017 08       		.sleb128 8
 3305 0018 00000000 		.4byte	0
 3306 001c 00000000 		.4byte	0
 3307              	.LLST1:
 3308 0020 16000000 		.4byte	.LVL0
 3309 0024 1D000000 		.4byte	.LVL1-1
 3310 0028 0100     		.2byte	0x1
 3311 002a 51       		.byte	0x51
 3312 002b 00000000 		.4byte	0
 3313 002f 00000000 		.4byte	0
 3314              	.LLST2:
 3315 0033 00000000 		.4byte	.LFB119
 3316 0037 10000000 		.4byte	.LCFI1
 3317 003b 0200     		.2byte	0x2
 3318 003d 7D       		.byte	0x7d
 3319 003e 00       		.sleb128 0
 3320 003f 10000000 		.4byte	.LCFI1
 3321 0043 30000000 		.4byte	.LFE119
 3322 0047 0200     		.2byte	0x2
 3323 0049 7D       		.byte	0x7d
 3324 004a 08       		.sleb128 8
 3325 004b 00000000 		.4byte	0
 3326 004f 00000000 		.4byte	0
 3327              	.LLST3:
 3328 0053 16000000 		.4byte	.LVL3
 3329 0057 21000000 		.4byte	.LVL4-1
 3330 005b 0100     		.2byte	0x1
 3331 005d 51       		.byte	0x51
 3332 005e 00000000 		.4byte	0
 3333 0062 00000000 		.4byte	0
 3334              	.LLST4:
 3335 0066 00000000 		.4byte	.LFB120
 3336 006a 10000000 		.4byte	.LCFI2
 3337 006e 0200     		.2byte	0x2
 3338 0070 7D       		.byte	0x7d
 3339 0071 00       		.sleb128 0
 3340 0072 10000000 		.4byte	.LCFI2
 3341 0076 30000000 		.4byte	.LFE120
 3342 007a 0200     		.2byte	0x2
 3343 007c 7D       		.byte	0x7d
 3344 007d 08       		.sleb128 8
 3345 007e 00000000 		.4byte	0
 3346 0082 00000000 		.4byte	0
 3347              	.LLST5:
 3348 0086 16000000 		.4byte	.LVL6
 3349 008a 21000000 		.4byte	.LVL7-1
 3350 008e 0100     		.2byte	0x1
 3351 0090 51       		.byte	0x51
 3352 0091 00000000 		.4byte	0
 3353 0095 00000000 		.4byte	0
 3354              	.LLST6:
 3355 0099 00000000 		.4byte	.LFB121
 3356 009d 10000000 		.4byte	.LCFI3
 3357 00a1 0200     		.2byte	0x2
 3358 00a3 7D       		.byte	0x7d
 3359 00a4 00       		.sleb128 0
ARM GAS  /tmp/ccxWoBWC.s 			page 60


 3360 00a5 10000000 		.4byte	.LCFI3
 3361 00a9 30000000 		.4byte	.LFE121
 3362 00ad 0200     		.2byte	0x2
 3363 00af 7D       		.byte	0x7d
 3364 00b0 08       		.sleb128 8
 3365 00b1 00000000 		.4byte	0
 3366 00b5 00000000 		.4byte	0
 3367              	.LLST7:
 3368 00b9 16000000 		.4byte	.LVL9
 3369 00bd 21000000 		.4byte	.LVL10-1
 3370 00c1 0100     		.2byte	0x1
 3371 00c3 51       		.byte	0x51
 3372 00c4 00000000 		.4byte	0
 3373 00c8 00000000 		.4byte	0
 3374              	.LLST8:
 3375 00cc 00000000 		.4byte	.LFB122
 3376 00d0 10000000 		.4byte	.LCFI4
 3377 00d4 0200     		.2byte	0x2
 3378 00d6 7D       		.byte	0x7d
 3379 00d7 00       		.sleb128 0
 3380 00d8 10000000 		.4byte	.LCFI4
 3381 00dc 2C000000 		.4byte	.LFE122
 3382 00e0 0200     		.2byte	0x2
 3383 00e2 7D       		.byte	0x7d
 3384 00e3 08       		.sleb128 8
 3385 00e4 00000000 		.4byte	0
 3386 00e8 00000000 		.4byte	0
 3387              	.LLST9:
 3388 00ec 16000000 		.4byte	.LVL12
 3389 00f0 1D000000 		.4byte	.LVL13-1
 3390 00f4 0100     		.2byte	0x1
 3391 00f6 51       		.byte	0x51
 3392 00f7 00000000 		.4byte	0
 3393 00fb 00000000 		.4byte	0
 3394              	.LLST10:
 3395 00ff 00000000 		.4byte	.LFB123
 3396 0103 10000000 		.4byte	.LCFI5
 3397 0107 0200     		.2byte	0x2
 3398 0109 7D       		.byte	0x7d
 3399 010a 00       		.sleb128 0
 3400 010b 10000000 		.4byte	.LCFI5
 3401 010f 30000000 		.4byte	.LFE123
 3402 0113 0200     		.2byte	0x2
 3403 0115 7D       		.byte	0x7d
 3404 0116 08       		.sleb128 8
 3405 0117 00000000 		.4byte	0
 3406 011b 00000000 		.4byte	0
 3407              	.LLST11:
 3408 011f 16000000 		.4byte	.LVL15
 3409 0123 21000000 		.4byte	.LVL16-1
 3410 0127 0100     		.2byte	0x1
 3411 0129 51       		.byte	0x51
 3412 012a 00000000 		.4byte	0
 3413 012e 00000000 		.4byte	0
 3414              	.LLST12:
 3415 0132 00000000 		.4byte	.LFB124
 3416 0136 10000000 		.4byte	.LCFI6
ARM GAS  /tmp/ccxWoBWC.s 			page 61


 3417 013a 0200     		.2byte	0x2
 3418 013c 7D       		.byte	0x7d
 3419 013d 00       		.sleb128 0
 3420 013e 10000000 		.4byte	.LCFI6
 3421 0142 30000000 		.4byte	.LFE124
 3422 0146 0200     		.2byte	0x2
 3423 0148 7D       		.byte	0x7d
 3424 0149 08       		.sleb128 8
 3425 014a 00000000 		.4byte	0
 3426 014e 00000000 		.4byte	0
 3427              	.LLST13:
 3428 0152 16000000 		.4byte	.LVL18
 3429 0156 21000000 		.4byte	.LVL19-1
 3430 015a 0100     		.2byte	0x1
 3431 015c 51       		.byte	0x51
 3432 015d 00000000 		.4byte	0
 3433 0161 00000000 		.4byte	0
 3434              	.LLST14:
 3435 0165 00000000 		.4byte	.LFB125
 3436 0169 10000000 		.4byte	.LCFI7
 3437 016d 0200     		.2byte	0x2
 3438 016f 7D       		.byte	0x7d
 3439 0170 00       		.sleb128 0
 3440 0171 10000000 		.4byte	.LCFI7
 3441 0175 30000000 		.4byte	.LFE125
 3442 0179 0200     		.2byte	0x2
 3443 017b 7D       		.byte	0x7d
 3444 017c 08       		.sleb128 8
 3445 017d 00000000 		.4byte	0
 3446 0181 00000000 		.4byte	0
 3447              	.LLST15:
 3448 0185 16000000 		.4byte	.LVL21
 3449 0189 21000000 		.4byte	.LVL22-1
 3450 018d 0100     		.2byte	0x1
 3451 018f 51       		.byte	0x51
 3452 0190 00000000 		.4byte	0
 3453 0194 00000000 		.4byte	0
 3454              	.LLST16:
 3455 0198 00000000 		.4byte	.LFB126
 3456 019c 10000000 		.4byte	.LCFI8
 3457 01a0 0200     		.2byte	0x2
 3458 01a2 7D       		.byte	0x7d
 3459 01a3 00       		.sleb128 0
 3460 01a4 10000000 		.4byte	.LCFI8
 3461 01a8 2C000000 		.4byte	.LFE126
 3462 01ac 0200     		.2byte	0x2
 3463 01ae 7D       		.byte	0x7d
 3464 01af 08       		.sleb128 8
 3465 01b0 00000000 		.4byte	0
 3466 01b4 00000000 		.4byte	0
 3467              	.LLST17:
 3468 01b8 16000000 		.4byte	.LVL24
 3469 01bc 1D000000 		.4byte	.LVL25-1
 3470 01c0 0100     		.2byte	0x1
 3471 01c2 51       		.byte	0x51
 3472 01c3 00000000 		.4byte	0
 3473 01c7 00000000 		.4byte	0
ARM GAS  /tmp/ccxWoBWC.s 			page 62


 3474              	.LLST18:
 3475 01cb 00000000 		.4byte	.LFB127
 3476 01cf 10000000 		.4byte	.LCFI9
 3477 01d3 0200     		.2byte	0x2
 3478 01d5 7D       		.byte	0x7d
 3479 01d6 00       		.sleb128 0
 3480 01d7 10000000 		.4byte	.LCFI9
 3481 01db 30000000 		.4byte	.LFE127
 3482 01df 0200     		.2byte	0x2
 3483 01e1 7D       		.byte	0x7d
 3484 01e2 08       		.sleb128 8
 3485 01e3 00000000 		.4byte	0
 3486 01e7 00000000 		.4byte	0
 3487              	.LLST19:
 3488 01eb 16000000 		.4byte	.LVL27
 3489 01ef 21000000 		.4byte	.LVL28-1
 3490 01f3 0100     		.2byte	0x1
 3491 01f5 51       		.byte	0x51
 3492 01f6 00000000 		.4byte	0
 3493 01fa 00000000 		.4byte	0
 3494              	.LLST20:
 3495 01fe 00000000 		.4byte	.LFB128
 3496 0202 10000000 		.4byte	.LCFI10
 3497 0206 0200     		.2byte	0x2
 3498 0208 7D       		.byte	0x7d
 3499 0209 00       		.sleb128 0
 3500 020a 10000000 		.4byte	.LCFI10
 3501 020e 30000000 		.4byte	.LFE128
 3502 0212 0200     		.2byte	0x2
 3503 0214 7D       		.byte	0x7d
 3504 0215 08       		.sleb128 8
 3505 0216 00000000 		.4byte	0
 3506 021a 00000000 		.4byte	0
 3507              	.LLST21:
 3508 021e 16000000 		.4byte	.LVL30
 3509 0222 21000000 		.4byte	.LVL31-1
 3510 0226 0100     		.2byte	0x1
 3511 0228 51       		.byte	0x51
 3512 0229 00000000 		.4byte	0
 3513 022d 00000000 		.4byte	0
 3514              	.LLST22:
 3515 0231 00000000 		.4byte	.LFB129
 3516 0235 10000000 		.4byte	.LCFI11
 3517 0239 0200     		.2byte	0x2
 3518 023b 7D       		.byte	0x7d
 3519 023c 00       		.sleb128 0
 3520 023d 10000000 		.4byte	.LCFI11
 3521 0241 30000000 		.4byte	.LFE129
 3522 0245 0200     		.2byte	0x2
 3523 0247 7D       		.byte	0x7d
 3524 0248 08       		.sleb128 8
 3525 0249 00000000 		.4byte	0
 3526 024d 00000000 		.4byte	0
 3527              	.LLST23:
 3528 0251 16000000 		.4byte	.LVL33
 3529 0255 21000000 		.4byte	.LVL34-1
 3530 0259 0100     		.2byte	0x1
ARM GAS  /tmp/ccxWoBWC.s 			page 63


 3531 025b 51       		.byte	0x51
 3532 025c 00000000 		.4byte	0
 3533 0260 00000000 		.4byte	0
 3534              	.LLST24:
 3535 0264 00000000 		.4byte	.LFB130
 3536 0268 10000000 		.4byte	.LCFI12
 3537 026c 0200     		.2byte	0x2
 3538 026e 7D       		.byte	0x7d
 3539 026f 00       		.sleb128 0
 3540 0270 10000000 		.4byte	.LCFI12
 3541 0274 2C000000 		.4byte	.LFE130
 3542 0278 0200     		.2byte	0x2
 3543 027a 7D       		.byte	0x7d
 3544 027b 08       		.sleb128 8
 3545 027c 00000000 		.4byte	0
 3546 0280 00000000 		.4byte	0
 3547              	.LLST25:
 3548 0284 16000000 		.4byte	.LVL36
 3549 0288 1D000000 		.4byte	.LVL37-1
 3550 028c 0100     		.2byte	0x1
 3551 028e 51       		.byte	0x51
 3552 028f 00000000 		.4byte	0
 3553 0293 00000000 		.4byte	0
 3554              	.LLST26:
 3555 0297 00000000 		.4byte	.LFB131
 3556 029b 10000000 		.4byte	.LCFI13
 3557 029f 0200     		.2byte	0x2
 3558 02a1 7D       		.byte	0x7d
 3559 02a2 00       		.sleb128 0
 3560 02a3 10000000 		.4byte	.LCFI13
 3561 02a7 30000000 		.4byte	.LFE131
 3562 02ab 0200     		.2byte	0x2
 3563 02ad 7D       		.byte	0x7d
 3564 02ae 08       		.sleb128 8
 3565 02af 00000000 		.4byte	0
 3566 02b3 00000000 		.4byte	0
 3567              	.LLST27:
 3568 02b7 16000000 		.4byte	.LVL39
 3569 02bb 21000000 		.4byte	.LVL40-1
 3570 02bf 0100     		.2byte	0x1
 3571 02c1 51       		.byte	0x51
 3572 02c2 00000000 		.4byte	0
 3573 02c6 00000000 		.4byte	0
 3574              	.LLST28:
 3575 02ca 00000000 		.4byte	.LFB132
 3576 02ce 10000000 		.4byte	.LCFI14
 3577 02d2 0200     		.2byte	0x2
 3578 02d4 7D       		.byte	0x7d
 3579 02d5 00       		.sleb128 0
 3580 02d6 10000000 		.4byte	.LCFI14
 3581 02da 30000000 		.4byte	.LFE132
 3582 02de 0200     		.2byte	0x2
 3583 02e0 7D       		.byte	0x7d
 3584 02e1 08       		.sleb128 8
 3585 02e2 00000000 		.4byte	0
 3586 02e6 00000000 		.4byte	0
 3587              	.LLST29:
ARM GAS  /tmp/ccxWoBWC.s 			page 64


 3588 02ea 16000000 		.4byte	.LVL42
 3589 02ee 21000000 		.4byte	.LVL43-1
 3590 02f2 0100     		.2byte	0x1
 3591 02f4 51       		.byte	0x51
 3592 02f5 00000000 		.4byte	0
 3593 02f9 00000000 		.4byte	0
 3594              	.LLST30:
 3595 02fd 00000000 		.4byte	.LFB133
 3596 0301 10000000 		.4byte	.LCFI15
 3597 0305 0200     		.2byte	0x2
 3598 0307 7D       		.byte	0x7d
 3599 0308 00       		.sleb128 0
 3600 0309 10000000 		.4byte	.LCFI15
 3601 030d 30000000 		.4byte	.LFE133
 3602 0311 0200     		.2byte	0x2
 3603 0313 7D       		.byte	0x7d
 3604 0314 08       		.sleb128 8
 3605 0315 00000000 		.4byte	0
 3606 0319 00000000 		.4byte	0
 3607              	.LLST31:
 3608 031d 16000000 		.4byte	.LVL45
 3609 0321 21000000 		.4byte	.LVL46-1
 3610 0325 0100     		.2byte	0x1
 3611 0327 51       		.byte	0x51
 3612 0328 00000000 		.4byte	0
 3613 032c 00000000 		.4byte	0
 3614              	.LLST32:
 3615 0330 00000000 		.4byte	.LFB134
 3616 0334 04000000 		.4byte	.LCFI16
 3617 0338 0200     		.2byte	0x2
 3618 033a 7D       		.byte	0x7d
 3619 033b 00       		.sleb128 0
 3620 033c 04000000 		.4byte	.LCFI16
 3621 0340 0A000000 		.4byte	.LCFI17
 3622 0344 0200     		.2byte	0x2
 3623 0346 7D       		.byte	0x7d
 3624 0347 20       		.sleb128 32
 3625 0348 0A000000 		.4byte	.LCFI17
 3626 034c 36010000 		.4byte	.LFE134
 3627 0350 0300     		.2byte	0x3
 3628 0352 7D       		.byte	0x7d
 3629 0353 C800     		.sleb128 72
 3630 0355 00000000 		.4byte	0
 3631 0359 00000000 		.4byte	0
 3632              	.LLST33:
 3633 035d 90000000 		.4byte	.LVL48
 3634 0361 B4000000 		.4byte	.LVL49
 3635 0365 0200     		.2byte	0x2
 3636 0367 30       		.byte	0x30
 3637 0368 9F       		.byte	0x9f
 3638 0369 B4000000 		.4byte	.LVL49
 3639 036d BA000000 		.4byte	.LVL50
 3640 0371 0200     		.2byte	0x2
 3641 0373 31       		.byte	0x31
 3642 0374 9F       		.byte	0x9f
 3643 0375 BA000000 		.4byte	.LVL50
 3644 0379 C0000000 		.4byte	.LVL51
ARM GAS  /tmp/ccxWoBWC.s 			page 65


 3645 037d 0200     		.2byte	0x2
 3646 037f 32       		.byte	0x32
 3647 0380 9F       		.byte	0x9f
 3648 0381 C0000000 		.4byte	.LVL51
 3649 0385 C6000000 		.4byte	.LVL52
 3650 0389 0200     		.2byte	0x2
 3651 038b 33       		.byte	0x33
 3652 038c 9F       		.byte	0x9f
 3653 038d C6000000 		.4byte	.LVL52
 3654 0391 CC000000 		.4byte	.LVL53
 3655 0395 0200     		.2byte	0x2
 3656 0397 34       		.byte	0x34
 3657 0398 9F       		.byte	0x9f
 3658 0399 CC000000 		.4byte	.LVL53
 3659 039d D0000000 		.4byte	.LVL54
 3660 03a1 0200     		.2byte	0x2
 3661 03a3 35       		.byte	0x35
 3662 03a4 9F       		.byte	0x9f
 3663 03a5 D0000000 		.4byte	.LVL54
 3664 03a9 D4000000 		.4byte	.LVL55
 3665 03ad 0200     		.2byte	0x2
 3666 03af 36       		.byte	0x36
 3667 03b0 9F       		.byte	0x9f
 3668 03b1 D4000000 		.4byte	.LVL55
 3669 03b5 DA000000 		.4byte	.LVL56
 3670 03b9 0200     		.2byte	0x2
 3671 03bb 37       		.byte	0x37
 3672 03bc 9F       		.byte	0x9f
 3673 03bd DA000000 		.4byte	.LVL56
 3674 03c1 E0000000 		.4byte	.LVL57
 3675 03c5 0200     		.2byte	0x2
 3676 03c7 38       		.byte	0x38
 3677 03c8 9F       		.byte	0x9f
 3678 03c9 E0000000 		.4byte	.LVL57
 3679 03cd E6000000 		.4byte	.LVL58
 3680 03d1 0200     		.2byte	0x2
 3681 03d3 39       		.byte	0x39
 3682 03d4 9F       		.byte	0x9f
 3683 03d5 E6000000 		.4byte	.LVL58
 3684 03d9 EC000000 		.4byte	.LVL59
 3685 03dd 0200     		.2byte	0x2
 3686 03df 3A       		.byte	0x3a
 3687 03e0 9F       		.byte	0x9f
 3688 03e1 EC000000 		.4byte	.LVL59
 3689 03e5 F8000000 		.4byte	.LVL60
 3690 03e9 0200     		.2byte	0x2
 3691 03eb 3B       		.byte	0x3b
 3692 03ec 9F       		.byte	0x9f
 3693 03ed F8000000 		.4byte	.LVL60
 3694 03f1 04010000 		.4byte	.LVL61
 3695 03f5 0200     		.2byte	0x2
 3696 03f7 3C       		.byte	0x3c
 3697 03f8 9F       		.byte	0x9f
 3698 03f9 04010000 		.4byte	.LVL61
 3699 03fd 14010000 		.4byte	.LVL62
 3700 0401 0200     		.2byte	0x2
 3701 0403 3D       		.byte	0x3d
ARM GAS  /tmp/ccxWoBWC.s 			page 66


 3702 0404 9F       		.byte	0x9f
 3703 0405 14010000 		.4byte	.LVL62
 3704 0409 1E010000 		.4byte	.LVL63
 3705 040d 0200     		.2byte	0x2
 3706 040f 3E       		.byte	0x3e
 3707 0410 9F       		.byte	0x9f
 3708 0411 1E010000 		.4byte	.LVL63
 3709 0415 26010000 		.4byte	.LVL64
 3710 0419 0200     		.2byte	0x2
 3711 041b 3F       		.byte	0x3f
 3712 041c 9F       		.byte	0x9f
 3713 041d 26010000 		.4byte	.LVL64
 3714 0421 36010000 		.4byte	.LFE134
 3715 0425 0200     		.2byte	0x2
 3716 0427 40       		.byte	0x40
 3717 0428 9F       		.byte	0x9f
 3718 0429 00000000 		.4byte	0
 3719 042d 00000000 		.4byte	0
 3720              	.LLST34:
 3721 0431 00000000 		.4byte	.LFB135
 3722 0435 04000000 		.4byte	.LCFI18
 3723 0439 0200     		.2byte	0x2
 3724 043b 7D       		.byte	0x7d
 3725 043c 00       		.sleb128 0
 3726 043d 04000000 		.4byte	.LCFI18
 3727 0441 A0000000 		.4byte	.LFE135
 3728 0445 0200     		.2byte	0x2
 3729 0447 7D       		.byte	0x7d
 3730 0448 18       		.sleb128 24
 3731 0449 00000000 		.4byte	0
 3732 044d 00000000 		.4byte	0
 3733              	.LLST35:
 3734 0451 00000000 		.4byte	.LVL65
 3735 0455 6E000000 		.4byte	.LVL67
 3736 0459 0100     		.2byte	0x1
 3737 045b 50       		.byte	0x50
 3738 045c 6E000000 		.4byte	.LVL67
 3739 0460 7A000000 		.4byte	.LVL70
 3740 0464 0400     		.2byte	0x4
 3741 0466 F3       		.byte	0xf3
 3742 0467 01       		.uleb128 0x1
 3743 0468 50       		.byte	0x50
 3744 0469 9F       		.byte	0x9f
 3745 046a 7A000000 		.4byte	.LVL70
 3746 046e 8E000000 		.4byte	.LVL72
 3747 0472 0100     		.2byte	0x1
 3748 0474 50       		.byte	0x50
 3749 0475 8E000000 		.4byte	.LVL72
 3750 0479 92000000 		.4byte	.LVL73
 3751 047d 0400     		.2byte	0x4
 3752 047f F3       		.byte	0xf3
 3753 0480 01       		.uleb128 0x1
 3754 0481 50       		.byte	0x50
 3755 0482 9F       		.byte	0x9f
 3756 0483 92000000 		.4byte	.LVL73
 3757 0487 94000000 		.4byte	.LVL74
 3758 048b 0100     		.2byte	0x1
ARM GAS  /tmp/ccxWoBWC.s 			page 67


 3759 048d 50       		.byte	0x50
 3760 048e 94000000 		.4byte	.LVL74
 3761 0492 A0000000 		.4byte	.LFE135
 3762 0496 0400     		.2byte	0x4
 3763 0498 F3       		.byte	0xf3
 3764 0499 01       		.uleb128 0x1
 3765 049a 50       		.byte	0x50
 3766 049b 9F       		.byte	0x9f
 3767 049c 00000000 		.4byte	0
 3768 04a0 00000000 		.4byte	0
 3769              	.LLST36:
 3770 04a4 00000000 		.4byte	.LVL65
 3771 04a8 70000000 		.4byte	.LVL68
 3772 04ac 0100     		.2byte	0x1
 3773 04ae 51       		.byte	0x51
 3774 04af 70000000 		.4byte	.LVL68
 3775 04b3 7A000000 		.4byte	.LVL70
 3776 04b7 0400     		.2byte	0x4
 3777 04b9 F3       		.byte	0xf3
 3778 04ba 01       		.uleb128 0x1
 3779 04bb 51       		.byte	0x51
 3780 04bc 9F       		.byte	0x9f
 3781 04bd 7A000000 		.4byte	.LVL70
 3782 04c1 A0000000 		.4byte	.LFE135
 3783 04c5 0100     		.2byte	0x1
 3784 04c7 51       		.byte	0x51
 3785 04c8 00000000 		.4byte	0
 3786 04cc 00000000 		.4byte	0
 3787              	.LLST37:
 3788 04d0 00000000 		.4byte	.LVL65
 3789 04d4 73000000 		.4byte	.LVL69-1
 3790 04d8 0100     		.2byte	0x1
 3791 04da 52       		.byte	0x52
 3792 04db 73000000 		.4byte	.LVL69-1
 3793 04df 7A000000 		.4byte	.LVL70
 3794 04e3 0400     		.2byte	0x4
 3795 04e5 F3       		.byte	0xf3
 3796 04e6 01       		.uleb128 0x1
 3797 04e7 52       		.byte	0x52
 3798 04e8 9F       		.byte	0x9f
 3799 04e9 7A000000 		.4byte	.LVL70
 3800 04ed A0000000 		.4byte	.LFE135
 3801 04f1 0100     		.2byte	0x1
 3802 04f3 52       		.byte	0x52
 3803 04f4 00000000 		.4byte	0
 3804 04f8 00000000 		.4byte	0
 3805              	.LLST38:
 3806 04fc 00000000 		.4byte	.LVL65
 3807 0500 34000000 		.4byte	.LVL66
 3808 0504 0100     		.2byte	0x1
 3809 0506 53       		.byte	0x53
 3810 0507 34000000 		.4byte	.LVL66
 3811 050b 73000000 		.4byte	.LVL69-1
 3812 050f 0200     		.2byte	0x2
 3813 0511 78       		.byte	0x78
 3814 0512 04       		.sleb128 4
 3815 0513 73000000 		.4byte	.LVL69-1
ARM GAS  /tmp/ccxWoBWC.s 			page 68


 3816 0517 7A000000 		.4byte	.LVL70
 3817 051b 0400     		.2byte	0x4
 3818 051d F3       		.byte	0xf3
 3819 051e 01       		.uleb128 0x1
 3820 051f 53       		.byte	0x53
 3821 0520 9F       		.byte	0x9f
 3822 0521 7A000000 		.4byte	.LVL70
 3823 0525 8C000000 		.4byte	.LVL71
 3824 0529 0200     		.2byte	0x2
 3825 052b 78       		.byte	0x78
 3826 052c 04       		.sleb128 4
 3827 052d 8C000000 		.4byte	.LVL71
 3828 0531 92000000 		.4byte	.LVL73
 3829 0535 0100     		.2byte	0x1
 3830 0537 53       		.byte	0x53
 3831 0538 92000000 		.4byte	.LVL73
 3832 053c A0000000 		.4byte	.LFE135
 3833 0540 0200     		.2byte	0x2
 3834 0542 78       		.byte	0x78
 3835 0543 04       		.sleb128 4
 3836 0544 00000000 		.4byte	0
 3837 0548 00000000 		.4byte	0
 3838              	.LLST39:
 3839 054c 00000000 		.4byte	.LFB136
 3840 0550 02000000 		.4byte	.LCFI19
 3841 0554 0200     		.2byte	0x2
 3842 0556 7D       		.byte	0x7d
 3843 0557 00       		.sleb128 0
 3844 0558 02000000 		.4byte	.LCFI19
 3845 055c 50000000 		.4byte	.LFE136
 3846 0560 0200     		.2byte	0x2
 3847 0562 7D       		.byte	0x7d
 3848 0563 08       		.sleb128 8
 3849 0564 00000000 		.4byte	0
 3850 0568 00000000 		.4byte	0
 3851              	.LLST40:
 3852 056c 00000000 		.4byte	.LVL75
 3853 0570 06000000 		.4byte	.LVL76
 3854 0574 0100     		.2byte	0x1
 3855 0576 50       		.byte	0x50
 3856 0577 06000000 		.4byte	.LVL76
 3857 057b 50000000 		.4byte	.LFE136
 3858 057f 0100     		.2byte	0x1
 3859 0581 54       		.byte	0x54
 3860 0582 00000000 		.4byte	0
 3861 0586 00000000 		.4byte	0
 3862              		.section	.debug_aranges,"",%progbits
 3863 0000 AC000000 		.4byte	0xac
 3864 0004 0200     		.2byte	0x2
 3865 0006 00000000 		.4byte	.Ldebug_info0
 3866 000a 04       		.byte	0x4
 3867 000b 00       		.byte	0
 3868 000c 0000     		.2byte	0
 3869 000e 0000     		.2byte	0
 3870 0010 00000000 		.4byte	.LFB118
 3871 0014 2C000000 		.4byte	.LFE118-.LFB118
 3872 0018 00000000 		.4byte	.LFB119
ARM GAS  /tmp/ccxWoBWC.s 			page 69


 3873 001c 30000000 		.4byte	.LFE119-.LFB119
 3874 0020 00000000 		.4byte	.LFB120
 3875 0024 30000000 		.4byte	.LFE120-.LFB120
 3876 0028 00000000 		.4byte	.LFB121
 3877 002c 30000000 		.4byte	.LFE121-.LFB121
 3878 0030 00000000 		.4byte	.LFB122
 3879 0034 2C000000 		.4byte	.LFE122-.LFB122
 3880 0038 00000000 		.4byte	.LFB123
 3881 003c 30000000 		.4byte	.LFE123-.LFB123
 3882 0040 00000000 		.4byte	.LFB124
 3883 0044 30000000 		.4byte	.LFE124-.LFB124
 3884 0048 00000000 		.4byte	.LFB125
 3885 004c 30000000 		.4byte	.LFE125-.LFB125
 3886 0050 00000000 		.4byte	.LFB126
 3887 0054 2C000000 		.4byte	.LFE126-.LFB126
 3888 0058 00000000 		.4byte	.LFB127
 3889 005c 30000000 		.4byte	.LFE127-.LFB127
 3890 0060 00000000 		.4byte	.LFB128
 3891 0064 30000000 		.4byte	.LFE128-.LFB128
 3892 0068 00000000 		.4byte	.LFB129
 3893 006c 30000000 		.4byte	.LFE129-.LFB129
 3894 0070 00000000 		.4byte	.LFB130
 3895 0074 2C000000 		.4byte	.LFE130-.LFB130
 3896 0078 00000000 		.4byte	.LFB131
 3897 007c 30000000 		.4byte	.LFE131-.LFB131
 3898 0080 00000000 		.4byte	.LFB132
 3899 0084 30000000 		.4byte	.LFE132-.LFB132
 3900 0088 00000000 		.4byte	.LFB133
 3901 008c 30000000 		.4byte	.LFE133-.LFB133
 3902 0090 00000000 		.4byte	.LFB134
 3903 0094 36010000 		.4byte	.LFE134-.LFB134
 3904 0098 00000000 		.4byte	.LFB135
 3905 009c A0000000 		.4byte	.LFE135-.LFB135
 3906 00a0 00000000 		.4byte	.LFB136
 3907 00a4 50000000 		.4byte	.LFE136-.LFB136
 3908 00a8 00000000 		.4byte	0
 3909 00ac 00000000 		.4byte	0
 3910              		.section	.debug_ranges,"",%progbits
 3911              	.Ldebug_ranges0:
 3912 0000 00000000 		.4byte	.LFB118
 3913 0004 2C000000 		.4byte	.LFE118
 3914 0008 00000000 		.4byte	.LFB119
 3915 000c 30000000 		.4byte	.LFE119
 3916 0010 00000000 		.4byte	.LFB120
 3917 0014 30000000 		.4byte	.LFE120
 3918 0018 00000000 		.4byte	.LFB121
 3919 001c 30000000 		.4byte	.LFE121
 3920 0020 00000000 		.4byte	.LFB122
 3921 0024 2C000000 		.4byte	.LFE122
 3922 0028 00000000 		.4byte	.LFB123
 3923 002c 30000000 		.4byte	.LFE123
 3924 0030 00000000 		.4byte	.LFB124
 3925 0034 30000000 		.4byte	.LFE124
 3926 0038 00000000 		.4byte	.LFB125
 3927 003c 30000000 		.4byte	.LFE125
 3928 0040 00000000 		.4byte	.LFB126
 3929 0044 2C000000 		.4byte	.LFE126
ARM GAS  /tmp/ccxWoBWC.s 			page 70


 3930 0048 00000000 		.4byte	.LFB127
 3931 004c 30000000 		.4byte	.LFE127
 3932 0050 00000000 		.4byte	.LFB128
 3933 0054 30000000 		.4byte	.LFE128
 3934 0058 00000000 		.4byte	.LFB129
 3935 005c 30000000 		.4byte	.LFE129
 3936 0060 00000000 		.4byte	.LFB130
 3937 0064 2C000000 		.4byte	.LFE130
 3938 0068 00000000 		.4byte	.LFB131
 3939 006c 30000000 		.4byte	.LFE131
 3940 0070 00000000 		.4byte	.LFB132
 3941 0074 30000000 		.4byte	.LFE132
 3942 0078 00000000 		.4byte	.LFB133
 3943 007c 30000000 		.4byte	.LFE133
 3944 0080 00000000 		.4byte	.LFB134
 3945 0084 36010000 		.4byte	.LFE134
 3946 0088 00000000 		.4byte	.LFB135
 3947 008c A0000000 		.4byte	.LFE135
 3948 0090 00000000 		.4byte	.LFB136
 3949 0094 50000000 		.4byte	.LFE136
 3950 0098 00000000 		.4byte	0
 3951 009c 00000000 		.4byte	0
 3952              		.section	.debug_line,"",%progbits
 3953              	.Ldebug_line0:
 3954 0000 D5030000 		.section	.debug_str,"MS",%progbits,1
 3954      02004E01 
 3954      00000201 
 3954      FB0E0D00 
 3954      01010101 
 3955              	.LASF152:
 3956 0000 646D615F 		.ascii	"dma_isr_redir_t\000"
 3956      6973725F 
 3956      72656469 
 3956      725F7400 
 3957              	.LASF135:
 3958 0010 41504231 		.ascii	"APB1LPENR\000"
 3958      4C50454E 
 3958      5200
 3959              	.LASF44:
 3960 001a 43414E31 		.ascii	"CAN1_RX0_IRQn\000"
 3960      5F525830 
 3960      5F495251 
 3960      6E00
 3961              	.LASF25:
 3962 0028 5056445F 		.ascii	"PVD_IRQn\000"
 3962      4952516E 
 3962      00
 3963              	.LASF88:
 3964 0031 43414E32 		.ascii	"CAN2_RX0_IRQn\000"
 3964      5F525830 
 3964      5F495251 
 3964      6E00
 3965              	.LASF107:
 3966 003f 4D304152 		.ascii	"M0AR\000"
 3966      00
 3967              	.LASF93:
 3968 0044 444D4132 		.ascii	"DMA2_Stream6_IRQn\000"
ARM GAS  /tmp/ccxWoBWC.s 			page 71


 3968      5F537472 
 3968      65616D36 
 3968      5F495251 
 3968      6E00
 3969              	.LASF47:
 3970 0056 45585449 		.ascii	"EXTI9_5_IRQn\000"
 3970      395F355F 
 3970      4952516E 
 3970      00
 3971              	.LASF97:
 3972 0063 49324333 		.ascii	"I2C3_ER_IRQn\000"
 3972      5F45525F 
 3972      4952516E 
 3972      00
 3973              	.LASF110:
 3974 0070 4C495352 		.ascii	"LISR\000"
 3974      00
 3975              	.LASF181:
 3976 0075 2E2E2F2E 		.ascii	"../../os/hal/platforms/STM32F4xx/stm32_dma.c\000"
 3976      2E2F6F73 
 3976      2F68616C 
 3976      2F706C61 
 3976      74666F72 
 3977              	.LASF55:
 3978 00a2 49324331 		.ascii	"I2C1_EV_IRQn\000"
 3978      5F45565F 
 3978      4952516E 
 3978      00
 3979              	.LASF92:
 3980 00af 444D4132 		.ascii	"DMA2_Stream5_IRQn\000"
 3980      5F537472 
 3980      65616D35 
 3980      5F495251 
 3980      6E00
 3981              	.LASF182:
 3982 00c1 2F686F6D 		.ascii	"/home/witold/Dokumenty/arm/ChibiOS-master/demos/sli"
 3982      652F7769 
 3982      746F6C64 
 3982      2F446F6B 
 3982      756D656E 
 3983 00f4 64657200 		.ascii	"der\000"
 3984              	.LASF143:
 3985 00f8 73747265 		.ascii	"stream\000"
 3985      616D00
 3986              	.LASF45:
 3987 00ff 43414E31 		.ascii	"CAN1_RX1_IRQn\000"
 3987      5F525831 
 3987      5F495251 
 3987      6E00
 3988              	.LASF11:
 3989 010d 6C6F6E67 		.ascii	"long long unsigned int\000"
 3989      206C6F6E 
 3989      6720756E 
 3989      7369676E 
 3989      65642069 
 3990              	.LASF65:
 3991 0124 5254435F 		.ascii	"RTC_Alarm_IRQn\000"
ARM GAS  /tmp/ccxWoBWC.s 			page 72


 3991      416C6172 
 3991      6D5F4952 
 3991      516E00
 3992              	.LASF147:
 3993 0133 76656374 		.ascii	"vector\000"
 3993      6F7200
 3994              	.LASF179:
 3995 013a 5F73746D 		.ascii	"_stm32_dma_streams\000"
 3995      33325F64 
 3995      6D615F73 
 3995      74726561 
 3995      6D7300
 3996              	.LASF58:
 3997 014d 49324332 		.ascii	"I2C2_ER_IRQn\000"
 3997      5F45525F 
 3997      4952516E 
 3997      00
 3998              	.LASF54:
 3999 015a 54494D34 		.ascii	"TIM4_IRQn\000"
 3999      5F495251 
 3999      6E00
 4000              	.LASF27:
 4001 0164 5254435F 		.ascii	"RTC_WKUP_IRQn\000"
 4001      574B5550 
 4001      5F495251 
 4001      6E00
 4002              	.LASF24:
 4003 0172 57574447 		.ascii	"WWDG_IRQn\000"
 4003      5F495251 
 4003      6E00
 4004              	.LASF73:
 4005 017c 5344494F 		.ascii	"SDIO_IRQn\000"
 4005      5F495251 
 4005      6E00
 4006              	.LASF67:
 4007 0186 54494D38 		.ascii	"TIM8_BRK_TIM12_IRQn\000"
 4007      5F42524B 
 4007      5F54494D 
 4007      31325F49 
 4007      52516E00 
 4008              	.LASF186:
 4009 019a 6E766963 		.ascii	"nvicEnableVector\000"
 4009      456E6162 
 4009      6C655665 
 4009      63746F72 
 4009      00
 4010              	.LASF70:
 4011 01ab 54494D38 		.ascii	"TIM8_CC_IRQn\000"
 4011      5F43435F 
 4011      4952516E 
 4011      00
 4012              	.LASF10:
 4013 01b8 6C6F6E67 		.ascii	"long long int\000"
 4013      206C6F6E 
 4013      6720696E 
 4013      7400
 4014              	.LASF1:
ARM GAS  /tmp/ccxWoBWC.s 			page 73


 4015 01c6 7369676E 		.ascii	"signed char\000"
 4015      65642063 
 4015      68617200 
 4016              	.LASF89:
 4017 01d2 43414E32 		.ascii	"CAN2_RX1_IRQn\000"
 4017      5F525831 
 4017      5F495251 
 4017      6E00
 4018              	.LASF103:
 4019 01e0 43525950 		.ascii	"CRYP_IRQn\000"
 4019      5F495251 
 4019      6E00
 4020              	.LASF117:
 4021 01ea 41484231 		.ascii	"AHB1RSTR\000"
 4021      52535452 
 4021      00
 4022              	.LASF169:
 4023 01f3 56656374 		.ascii	"Vector158\000"
 4023      6F723135 
 4023      3800
 4024              	.LASF12:
 4025 01fd 626F6F6C 		.ascii	"bool_t\000"
 4025      5F7400
 4026              	.LASF187:
 4027 0204 6E766963 		.ascii	"nvicDisableVector\000"
 4027      44697361 
 4027      626C6556 
 4027      6563746F 
 4027      7200
 4028              	.LASF171:
 4029 0216 646D6173 		.ascii	"dmastp\000"
 4029      747000
 4030              	.LASF166:
 4031 021d 56656374 		.ascii	"Vector130\000"
 4031      6F723133 
 4031      3000
 4032              	.LASF7:
 4033 0227 6C6F6E67 		.ascii	"long int\000"
 4033      20696E74 
 4033      00
 4034              	.LASF122:
 4035 0230 41504232 		.ascii	"APB2RSTR\000"
 4035      52535452 
 4035      00
 4036              	.LASF40:
 4037 0239 444D4131 		.ascii	"DMA1_Stream5_IRQn\000"
 4037      5F537472 
 4037      65616D35 
 4037      5F495251 
 4037      6E00
 4038              	.LASF173:
 4039 024b 66756E63 		.ascii	"func\000"
 4039      00
 4040              	.LASF86:
 4041 0250 4554485F 		.ascii	"ETH_WKUP_IRQn\000"
 4041      574B5550 
 4041      5F495251 
ARM GAS  /tmp/ccxWoBWC.s 			page 74


 4041      6E00
 4042              	.LASF8:
 4043 025e 75696E74 		.ascii	"uint32_t\000"
 4043      33325F74 
 4043      00
 4044              	.LASF78:
 4045 0267 54494D36 		.ascii	"TIM6_DAC_IRQn\000"
 4045      5F444143 
 4045      5F495251 
 4045      6E00
 4046              	.LASF115:
 4047 0275 504C4C43 		.ascii	"PLLCFGR\000"
 4047      46475200 
 4048              	.LASF76:
 4049 027d 55415254 		.ascii	"UART4_IRQn\000"
 4049      345F4952 
 4049      516E00
 4050              	.LASF66:
 4051 0288 4F54475F 		.ascii	"OTG_FS_WKUP_IRQn\000"
 4051      46535F57 
 4051      4B55505F 
 4051      4952516E 
 4051      00
 4052              	.LASF22:
 4053 0299 50656E64 		.ascii	"PendSV_IRQn\000"
 4053      53565F49 
 4053      52516E00 
 4054              	.LASF68:
 4055 02a5 54494D38 		.ascii	"TIM8_UP_TIM13_IRQn\000"
 4055      5F55505F 
 4055      54494D31 
 4055      335F4952 
 4055      516E00
 4056              	.LASF118:
 4057 02b8 41484232 		.ascii	"AHB2RSTR\000"
 4057      52535452 
 4057      00
 4058              	.LASF146:
 4059 02c1 73656C66 		.ascii	"selfindex\000"
 4059      696E6465 
 4059      7800
 4060              	.LASF94:
 4061 02cb 444D4132 		.ascii	"DMA2_Stream7_IRQn\000"
 4061      5F537472 
 4061      65616D37 
 4061      5F495251 
 4061      6E00
 4062              	.LASF124:
 4063 02dd 41484231 		.ascii	"AHB1ENR\000"
 4063      454E5200 
 4064              	.LASF114:
 4065 02e5 444D415F 		.ascii	"DMA_TypeDef\000"
 4065      54797065 
 4065      44656600 
 4066              	.LASF0:
 4067 02f1 756E7369 		.ascii	"unsigned int\000"
 4067      676E6564 
ARM GAS  /tmp/ccxWoBWC.s 			page 75


 4067      20696E74 
 4067      00
 4068              	.LASF167:
 4069 02fe 56656374 		.ascii	"Vector150\000"
 4069      6F723135 
 4069      3000
 4070              	.LASF38:
 4071 0308 444D4131 		.ascii	"DMA1_Stream3_IRQn\000"
 4071      5F537472 
 4071      65616D33 
 4071      5F495251 
 4071      6E00
 4072              	.LASF41:
 4073 031a 444D4131 		.ascii	"DMA1_Stream6_IRQn\000"
 4073      5F537472 
 4073      65616D36 
 4073      5F495251 
 4073      6E00
 4074              	.LASF168:
 4075 032c 56656374 		.ascii	"Vector154\000"
 4075      6F723135 
 4075      3400
 4076              	.LASF17:
 4077 0336 4D656D6F 		.ascii	"MemoryManagement_IRQn\000"
 4077      72794D61 
 4077      6E616765 
 4077      6D656E74 
 4077      5F495251 
 4078              	.LASF149:
 4079 034c 73746D33 		.ascii	"stm32_dmaisr_t\000"
 4079      325F646D 
 4079      61697372 
 4079      5F7400
 4080              	.LASF96:
 4081 035b 49324333 		.ascii	"I2C3_EV_IRQn\000"
 4081      5F45565F 
 4081      4952516E 
 4081      00
 4082              	.LASF9:
 4083 0368 6C6F6E67 		.ascii	"long unsigned int\000"
 4083      20756E73 
 4083      69676E65 
 4083      6420696E 
 4083      7400
 4084              	.LASF142:
 4085 037a 5243435F 		.ascii	"RCC_TypeDef\000"
 4085      54797065 
 4085      44656600 
 4086              	.LASF145:
 4087 0386 69736869 		.ascii	"ishift\000"
 4087      667400
 4088              	.LASF161:
 4089 038d 56656374 		.ascii	"VectorFC\000"
 4089      6F724643 
 4089      00
 4090              	.LASF98:
 4091 0396 4F54475F 		.ascii	"OTG_HS_EP1_OUT_IRQn\000"
ARM GAS  /tmp/ccxWoBWC.s 			page 76


 4091      48535F45 
 4091      50315F4F 
 4091      55545F49 
 4091      52516E00 
 4092              	.LASF20:
 4093 03aa 53564361 		.ascii	"SVCall_IRQn\000"
 4093      6C6C5F49 
 4093      52516E00 
 4094              	.LASF4:
 4095 03b6 73686F72 		.ascii	"short unsigned int\000"
 4095      7420756E 
 4095      7369676E 
 4095      65642069 
 4095      6E7400
 4096              	.LASF82:
 4097 03c9 444D4132 		.ascii	"DMA2_Stream2_IRQn\000"
 4097      5F537472 
 4097      65616D32 
 4097      5F495251 
 4097      6E00
 4098              	.LASF141:
 4099 03db 504C4C49 		.ascii	"PLLI2SCFGR\000"
 4099      32534346 
 4099      475200
 4100              	.LASF43:
 4101 03e6 43414E31 		.ascii	"CAN1_TX_IRQn\000"
 4101      5F54585F 
 4101      4952516E 
 4101      00
 4102              	.LASF119:
 4103 03f3 41484233 		.ascii	"AHB3RSTR\000"
 4103      52535452 
 4103      00
 4104              	.LASF64:
 4105 03fc 45585449 		.ascii	"EXTI15_10_IRQn\000"
 4105      31355F31 
 4105      305F4952 
 4105      516E00
 4106              	.LASF59:
 4107 040b 53504931 		.ascii	"SPI1_IRQn\000"
 4107      5F495251 
 4107      6E00
 4108              	.LASF36:
 4109 0415 444D4131 		.ascii	"DMA1_Stream1_IRQn\000"
 4109      5F537472 
 4109      65616D31 
 4109      5F495251 
 4109      6E00
 4110              	.LASF172:
 4111 0427 7072696F 		.ascii	"priority\000"
 4111      72697479 
 4111      00
 4112              	.LASF111:
 4113 0430 48495352 		.ascii	"HISR\000"
 4113      00
 4114              	.LASF136:
 4115 0435 41504232 		.ascii	"APB2LPENR\000"
ARM GAS  /tmp/ccxWoBWC.s 			page 77


 4115      4C50454E 
 4115      5200
 4116              	.LASF180:
 4117 043f 474E5520 		.ascii	"GNU C 4.7.4 20130613 (release) [ARM/embedded-4_7-br"
 4117      4320342E 
 4117      372E3420 
 4117      32303133 
 4117      30363133 
 4118 0472 616E6368 		.ascii	"anch revision 200083]\000"
 4118      20726576 
 4118      6973696F 
 4118      6E203230 
 4118      30303833 
 4119              	.LASF23:
 4120 0488 53797354 		.ascii	"SysTick_IRQn\000"
 4120      69636B5F 
 4120      4952516E 
 4120      00
 4121              	.LASF51:
 4122 0495 54494D31 		.ascii	"TIM1_CC_IRQn\000"
 4122      5F43435F 
 4122      4952516E 
 4122      00
 4123              	.LASF69:
 4124 04a2 54494D38 		.ascii	"TIM8_TRG_COM_TIM14_IRQn\000"
 4124      5F545247 
 4124      5F434F4D 
 4124      5F54494D 
 4124      31345F49 
 4125              	.LASF183:
 4126 04ba 4952516E 		.ascii	"IRQn\000"
 4126      00
 4127              	.LASF112:
 4128 04bf 4C494643 		.ascii	"LIFCR\000"
 4128      5200
 4129              	.LASF14:
 4130 04c5 73697A65 		.ascii	"sizetype\000"
 4130      74797065 
 4130      00
 4131              	.LASF85:
 4132 04ce 4554485F 		.ascii	"ETH_IRQn\000"
 4132      4952516E 
 4132      00
 4133              	.LASF49:
 4134 04d7 54494D31 		.ascii	"TIM1_UP_TIM10_IRQn\000"
 4134      5F55505F 
 4134      54494D31 
 4134      305F4952 
 4134      516E00
 4135              	.LASF83:
 4136 04ea 444D4132 		.ascii	"DMA2_Stream3_IRQn\000"
 4136      5F537472 
 4136      65616D33 
 4136      5F495251 
 4136      6E00
 4137              	.LASF57:
 4138 04fc 49324332 		.ascii	"I2C2_EV_IRQn\000"
ARM GAS  /tmp/ccxWoBWC.s 			page 78


 4138      5F45565F 
 4138      4952516E 
 4138      00
 4139              	.LASF39:
 4140 0509 444D4131 		.ascii	"DMA1_Stream4_IRQn\000"
 4140      5F537472 
 4140      65616D34 
 4140      5F495251 
 4140      6E00
 4141              	.LASF95:
 4142 051b 55534152 		.ascii	"USART6_IRQn\000"
 4142      54365F49 
 4142      52516E00 
 4143              	.LASF174:
 4144 0527 70617261 		.ascii	"param\000"
 4144      6D00
 4145              	.LASF74:
 4146 052d 54494D35 		.ascii	"TIM5_IRQn\000"
 4146      5F495251 
 4146      6E00
 4147              	.LASF33:
 4148 0537 45585449 		.ascii	"EXTI3_IRQn\000"
 4148      335F4952 
 4148      516E00
 4149              	.LASF60:
 4150 0542 53504932 		.ascii	"SPI2_IRQn\000"
 4150      5F495251 
 4150      6E00
 4151              	.LASF37:
 4152 054c 444D4131 		.ascii	"DMA1_Stream2_IRQn\000"
 4152      5F537472 
 4152      65616D32 
 4152      5F495251 
 4152      6E00
 4153              	.LASF87:
 4154 055e 43414E32 		.ascii	"CAN2_TX_IRQn\000"
 4154      5F54585F 
 4154      4952516E 
 4154      00
 4155              	.LASF132:
 4156 056b 41484232 		.ascii	"AHB2LPENR\000"
 4156      4C50454E 
 4156      5200
 4157              	.LASF150:
 4158 0575 646D615F 		.ascii	"dma_func\000"
 4158      66756E63 
 4158      00
 4159              	.LASF121:
 4160 057e 41504231 		.ascii	"APB1RSTR\000"
 4160      52535452 
 4160      00
 4161              	.LASF101:
 4162 0587 4F54475F 		.ascii	"OTG_HS_IRQn\000"
 4162      48535F49 
 4162      52516E00 
 4163              	.LASF120:
 4164 0593 52455345 		.ascii	"RESERVED0\000"
ARM GAS  /tmp/ccxWoBWC.s 			page 79


 4164      52564544 
 4164      3000
 4165              	.LASF123:
 4166 059d 52455345 		.ascii	"RESERVED1\000"
 4166      52564544 
 4166      3100
 4167              	.LASF127:
 4168 05a7 52455345 		.ascii	"RESERVED2\000"
 4168      52564544 
 4168      3200
 4169              	.LASF130:
 4170 05b1 52455345 		.ascii	"RESERVED3\000"
 4170      52564544 
 4170      3300
 4171              	.LASF134:
 4172 05bb 52455345 		.ascii	"RESERVED4\000"
 4172      52564544 
 4172      3400
 4173              	.LASF137:
 4174 05c5 52455345 		.ascii	"RESERVED5\000"
 4174      52564544 
 4174      3500
 4175              	.LASF139:
 4176 05cf 52455345 		.ascii	"RESERVED6\000"
 4176      52564544 
 4176      3600
 4177              	.LASF148:
 4178 05d9 73746D33 		.ascii	"stm32_dma_stream_t\000"
 4178      325F646D 
 4178      615F7374 
 4178      7265616D 
 4178      5F7400
 4179              	.LASF75:
 4180 05ec 53504933 		.ascii	"SPI3_IRQn\000"
 4180      5F495251 
 4180      6E00
 4181              	.LASF153:
 4182 05f6 56656374 		.ascii	"Vector6C\000"
 4182      6F723643 
 4182      00
 4183              	.LASF84:
 4184 05ff 444D4132 		.ascii	"DMA2_Stream4_IRQn\000"
 4184      5F537472 
 4184      65616D34 
 4184      5F495251 
 4184      6E00
 4185              	.LASF72:
 4186 0611 46534D43 		.ascii	"FSMC_IRQn\000"
 4186      5F495251 
 4186      6E00
 4187              	.LASF13:
 4188 061b 5F426F6F 		.ascii	"_Bool\000"
 4188      6C00
 4189              	.LASF6:
 4190 0621 696E7433 		.ascii	"int32_t\000"
 4190      325F7400 
 4191              	.LASF2:
ARM GAS  /tmp/ccxWoBWC.s 			page 80


 4192 0629 756E7369 		.ascii	"unsigned char\000"
 4192      676E6564 
 4192      20636861 
 4192      7200
 4193              	.LASF48:
 4194 0637 54494D31 		.ascii	"TIM1_BRK_TIM9_IRQn\000"
 4194      5F42524B 
 4194      5F54494D 
 4194      395F4952 
 4194      516E00
 4195              	.LASF178:
 4196 064a 49544D5F 		.ascii	"ITM_RxBuffer\000"
 4196      52784275 
 4196      66666572 
 4196      00
 4197              	.LASF34:
 4198 0657 45585449 		.ascii	"EXTI4_IRQn\000"
 4198      345F4952 
 4198      516E00
 4199              	.LASF104:
 4200 0662 48415348 		.ascii	"HASH_RNG_IRQn\000"
 4200      5F524E47 
 4200      5F495251 
 4200      6E00
 4201              	.LASF3:
 4202 0670 73686F72 		.ascii	"short int\000"
 4202      7420696E 
 4202      7400
 4203              	.LASF133:
 4204 067a 41484233 		.ascii	"AHB3LPENR\000"
 4204      4C50454E 
 4204      5200
 4205              	.LASF77:
 4206 0684 55415254 		.ascii	"UART5_IRQn\000"
 4206      355F4952 
 4206      516E00
 4207              	.LASF50:
 4208 068f 54494D31 		.ascii	"TIM1_TRG_COM_TIM11_IRQn\000"
 4208      5F545247 
 4208      5F434F4D 
 4208      5F54494D 
 4208      31315F49 
 4209              	.LASF151:
 4210 06a7 646D615F 		.ascii	"dma_param\000"
 4210      70617261 
 4210      6D00
 4211              	.LASF32:
 4212 06b1 45585449 		.ascii	"EXTI2_IRQn\000"
 4212      325F4952 
 4212      516E00
 4213              	.LASF129:
 4214 06bc 41504232 		.ascii	"APB2ENR\000"
 4214      454E5200 
 4215              	.LASF126:
 4216 06c4 41484233 		.ascii	"AHB3ENR\000"
 4216      454E5200 
 4217              	.LASF28:
ARM GAS  /tmp/ccxWoBWC.s 			page 81


 4218 06cc 464C4153 		.ascii	"FLASH_IRQn\000"
 4218      485F4952 
 4218      516E00
 4219              	.LASF144:
 4220 06d7 69666372 		.ascii	"ifcr\000"
 4220      00
 4221              	.LASF154:
 4222 06dc 56656374 		.ascii	"Vector70\000"
 4222      6F723730 
 4222      00
 4223              	.LASF91:
 4224 06e5 4F54475F 		.ascii	"OTG_FS_IRQn\000"
 4224      46535F49 
 4224      52516E00 
 4225              	.LASF156:
 4226 06f1 56656374 		.ascii	"Vector74\000"
 4226      6F723734 
 4226      00
 4227              	.LASF62:
 4228 06fa 55534152 		.ascii	"USART2_IRQn\000"
 4228      54325F49 
 4228      52516E00 
 4229              	.LASF19:
 4230 0706 55736167 		.ascii	"UsageFault_IRQn\000"
 4230      65466175 
 4230      6C745F49 
 4230      52516E00 
 4231              	.LASF157:
 4232 0716 56656374 		.ascii	"Vector78\000"
 4232      6F723738 
 4232      00
 4233              	.LASF128:
 4234 071f 41504231 		.ascii	"APB1ENR\000"
 4234      454E5200 
 4235              	.LASF170:
 4236 0727 646D6149 		.ascii	"dmaInit\000"
 4236      6E697400 
 4237              	.LASF71:
 4238 072f 444D4131 		.ascii	"DMA1_Stream7_IRQn\000"
 4238      5F537472 
 4238      65616D37 
 4238      5F495251 
 4238      6E00
 4239              	.LASF15:
 4240 0741 63686172 		.ascii	"char\000"
 4240      00
 4241              	.LASF175:
 4242 0746 646D6153 		.ascii	"dmaStreamRelease\000"
 4242      74726561 
 4242      6D52656C 
 4242      65617365 
 4242      00
 4243              	.LASF158:
 4244 0757 56656374 		.ascii	"Vector7C\000"
 4244      6F723743 
 4244      00
 4245              	.LASF18:
ARM GAS  /tmp/ccxWoBWC.s 			page 82


 4246 0760 42757346 		.ascii	"BusFault_IRQn\000"
 4246      61756C74 
 4246      5F495251 
 4246      6E00
 4247              	.LASF79:
 4248 076e 54494D37 		.ascii	"TIM7_IRQn\000"
 4248      5F495251 
 4248      6E00
 4249              	.LASF99:
 4250 0778 4F54475F 		.ascii	"OTG_HS_EP1_IN_IRQn\000"
 4250      48535F45 
 4250      50315F49 
 4250      4E5F4952 
 4250      516E00
 4251              	.LASF16:
 4252 078b 4E6F6E4D 		.ascii	"NonMaskableInt_IRQn\000"
 4252      61736B61 
 4252      626C6549 
 4252      6E745F49 
 4252      52516E00 
 4253              	.LASF106:
 4254 079f 4E445452 		.ascii	"NDTR\000"
 4254      00
 4255              	.LASF109:
 4256 07a4 444D415F 		.ascii	"DMA_Stream_TypeDef\000"
 4256      53747265 
 4256      616D5F54 
 4256      79706544 
 4256      656600
 4257              	.LASF125:
 4258 07b7 41484232 		.ascii	"AHB2ENR\000"
 4258      454E5200 
 4259              	.LASF26:
 4260 07bf 54414D50 		.ascii	"TAMP_STAMP_IRQn\000"
 4260      5F535441 
 4260      4D505F49 
 4260      52516E00 
 4261              	.LASF176:
 4262 07cf 646D615F 		.ascii	"dma_streams_mask\000"
 4262      73747265 
 4262      616D735F 
 4262      6D61736B 
 4262      00
 4263              	.LASF21:
 4264 07e0 44656275 		.ascii	"DebugMonitor_IRQn\000"
 4264      674D6F6E 
 4264      69746F72 
 4264      5F495251 
 4264      6E00
 4265              	.LASF80:
 4266 07f2 444D4132 		.ascii	"DMA2_Stream0_IRQn\000"
 4266      5F537472 
 4266      65616D30 
 4266      5F495251 
 4266      6E00
 4267              	.LASF108:
 4268 0804 4D314152 		.ascii	"M1AR\000"
ARM GAS  /tmp/ccxWoBWC.s 			page 83


 4268      00
 4269              	.LASF159:
 4270 0809 56656374 		.ascii	"Vector80\000"
 4270      6F723830 
 4270      00
 4271              	.LASF63:
 4272 0812 55534152 		.ascii	"USART3_IRQn\000"
 4272      54335F49 
 4272      52516E00 
 4273              	.LASF140:
 4274 081e 53534347 		.ascii	"SSCGR\000"
 4274      5200
 4275              	.LASF160:
 4276 0824 56656374 		.ascii	"Vector84\000"
 4276      6F723834 
 4276      00
 4277              	.LASF52:
 4278 082d 54494D32 		.ascii	"TIM2_IRQn\000"
 4278      5F495251 
 4278      6E00
 4279              	.LASF30:
 4280 0837 45585449 		.ascii	"EXTI0_IRQn\000"
 4280      305F4952 
 4280      516E00
 4281              	.LASF61:
 4282 0842 55534152 		.ascii	"USART1_IRQn\000"
 4282      54315F49 
 4282      52516E00 
 4283              	.LASF138:
 4284 084e 42444352 		.ascii	"BDCR\000"
 4284      00
 4285              	.LASF185:
 4286 0853 5F706F72 		.ascii	"_port_irq_epilogue\000"
 4286      745F6972 
 4286      715F6570 
 4286      696C6F67 
 4286      756500
 4287              	.LASF5:
 4288 0866 75696E74 		.ascii	"uint8_t\000"
 4288      385F7400 
 4289              	.LASF131:
 4290 086e 41484231 		.ascii	"AHB1LPENR\000"
 4290      4C50454E 
 4290      5200
 4291              	.LASF155:
 4292 0878 666C6167 		.ascii	"flags\000"
 4292      7300
 4293              	.LASF102:
 4294 087e 44434D49 		.ascii	"DCMI_IRQn\000"
 4294      5F495251 
 4294      6E00
 4295              	.LASF177:
 4296 0888 646D615F 		.ascii	"dma_isr_redir\000"
 4296      6973725F 
 4296      72656469 
 4296      7200
 4297              	.LASF162:
ARM GAS  /tmp/ccxWoBWC.s 			page 84


 4298 0896 56656374 		.ascii	"Vector120\000"
 4298      6F723132 
 4298      3000
 4299              	.LASF105:
 4300 08a0 4650555F 		.ascii	"FPU_IRQn\000"
 4300      4952516E 
 4300      00
 4301              	.LASF116:
 4302 08a9 43464752 		.ascii	"CFGR\000"
 4302      00
 4303              	.LASF163:
 4304 08ae 56656374 		.ascii	"Vector124\000"
 4304      6F723132 
 4304      3400
 4305              	.LASF164:
 4306 08b8 56656374 		.ascii	"Vector128\000"
 4306      6F723132 
 4306      3800
 4307              	.LASF56:
 4308 08c2 49324331 		.ascii	"I2C1_ER_IRQn\000"
 4308      5F45525F 
 4308      4952516E 
 4308      00
 4309              	.LASF42:
 4310 08cf 4144435F 		.ascii	"ADC_IRQn\000"
 4310      4952516E 
 4310      00
 4311              	.LASF81:
 4312 08d8 444D4132 		.ascii	"DMA2_Stream1_IRQn\000"
 4312      5F537472 
 4312      65616D31 
 4312      5F495251 
 4312      6E00
 4313              	.LASF165:
 4314 08ea 56656374 		.ascii	"Vector12C\000"
 4314      6F723132 
 4314      4300
 4315              	.LASF113:
 4316 08f4 48494643 		.ascii	"HIFCR\000"
 4316      5200
 4317              	.LASF46:
 4318 08fa 43414E31 		.ascii	"CAN1_SCE_IRQn\000"
 4318      5F534345 
 4318      5F495251 
 4318      6E00
 4319              	.LASF184:
 4320 0908 646D6153 		.ascii	"dmaStreamAllocate\000"
 4320      74726561 
 4320      6D416C6C 
 4320      6F636174 
 4320      6500
 4321              	.LASF90:
 4322 091a 43414E32 		.ascii	"CAN2_SCE_IRQn\000"
 4322      5F534345 
 4322      5F495251 
 4322      6E00
 4323              	.LASF29:
ARM GAS  /tmp/ccxWoBWC.s 			page 85


 4324 0928 5243435F 		.ascii	"RCC_IRQn\000"
 4324      4952516E 
 4324      00
 4325              	.LASF100:
 4326 0931 4F54475F 		.ascii	"OTG_HS_WKUP_IRQn\000"
 4326      48535F57 
 4326      4B55505F 
 4326      4952516E 
 4326      00
 4327              	.LASF53:
 4328 0942 54494D33 		.ascii	"TIM3_IRQn\000"
 4328      5F495251 
 4328      6E00
 4329              	.LASF31:
 4330 094c 45585449 		.ascii	"EXTI1_IRQn\000"
 4330      315F4952 
 4330      516E00
 4331              	.LASF35:
 4332 0957 444D4131 		.ascii	"DMA1_Stream0_IRQn\000"
 4332      5F537472 
 4332      65616D30 
 4332      5F495251 
 4332      6E00
 4333              		.ident	"GCC: (GNU Tools for ARM Embedded Processors) 4.7.4 20130613 (release) [ARM/embedded-4_7-br
ARM GAS  /tmp/ccxWoBWC.s 			page 86


DEFINED SYMBOLS
                            *ABS*:00000000 stm32_dma.c
     /tmp/ccxWoBWC.s:21     .text.Vector6C:00000000 $t
     /tmp/ccxWoBWC.s:27     .text.Vector6C:00000000 Vector6C
     /tmp/ccxWoBWC.s:71     .text.Vector6C:00000028 $d
     /tmp/ccxWoBWC.s:76     .text.Vector70:00000000 $t
     /tmp/ccxWoBWC.s:82     .text.Vector70:00000000 Vector70
     /tmp/ccxWoBWC.s:125    .text.Vector70:0000002c $d
     /tmp/ccxWoBWC.s:130    .text.Vector74:00000000 $t
     /tmp/ccxWoBWC.s:136    .text.Vector74:00000000 Vector74
     /tmp/ccxWoBWC.s:179    .text.Vector74:0000002c $d
     /tmp/ccxWoBWC.s:184    .text.Vector78:00000000 $t
     /tmp/ccxWoBWC.s:190    .text.Vector78:00000000 Vector78
     /tmp/ccxWoBWC.s:233    .text.Vector78:0000002c $d
     /tmp/ccxWoBWC.s:238    .text.Vector7C:00000000 $t
     /tmp/ccxWoBWC.s:244    .text.Vector7C:00000000 Vector7C
     /tmp/ccxWoBWC.s:287    .text.Vector7C:00000028 $d
     /tmp/ccxWoBWC.s:292    .text.Vector80:00000000 $t
     /tmp/ccxWoBWC.s:298    .text.Vector80:00000000 Vector80
     /tmp/ccxWoBWC.s:341    .text.Vector80:0000002c $d
     /tmp/ccxWoBWC.s:346    .text.Vector84:00000000 $t
     /tmp/ccxWoBWC.s:352    .text.Vector84:00000000 Vector84
     /tmp/ccxWoBWC.s:395    .text.Vector84:0000002c $d
     /tmp/ccxWoBWC.s:400    .text.VectorFC:00000000 $t
     /tmp/ccxWoBWC.s:406    .text.VectorFC:00000000 VectorFC
     /tmp/ccxWoBWC.s:449    .text.VectorFC:0000002c $d
     /tmp/ccxWoBWC.s:454    .text.Vector120:00000000 $t
     /tmp/ccxWoBWC.s:460    .text.Vector120:00000000 Vector120
     /tmp/ccxWoBWC.s:503    .text.Vector120:00000028 $d
     /tmp/ccxWoBWC.s:508    .text.Vector124:00000000 $t
     /tmp/ccxWoBWC.s:514    .text.Vector124:00000000 Vector124
     /tmp/ccxWoBWC.s:557    .text.Vector124:0000002c $d
     /tmp/ccxWoBWC.s:562    .text.Vector128:00000000 $t
     /tmp/ccxWoBWC.s:568    .text.Vector128:00000000 Vector128
     /tmp/ccxWoBWC.s:611    .text.Vector128:0000002c $d
     /tmp/ccxWoBWC.s:616    .text.Vector12C:00000000 $t
     /tmp/ccxWoBWC.s:622    .text.Vector12C:00000000 Vector12C
     /tmp/ccxWoBWC.s:665    .text.Vector12C:0000002c $d
     /tmp/ccxWoBWC.s:670    .text.Vector130:00000000 $t
     /tmp/ccxWoBWC.s:676    .text.Vector130:00000000 Vector130
     /tmp/ccxWoBWC.s:719    .text.Vector130:00000028 $d
     /tmp/ccxWoBWC.s:724    .text.Vector150:00000000 $t
     /tmp/ccxWoBWC.s:730    .text.Vector150:00000000 Vector150
     /tmp/ccxWoBWC.s:773    .text.Vector150:0000002c $d
     /tmp/ccxWoBWC.s:778    .text.Vector154:00000000 $t
     /tmp/ccxWoBWC.s:784    .text.Vector154:00000000 Vector154
     /tmp/ccxWoBWC.s:827    .text.Vector154:0000002c $d
     /tmp/ccxWoBWC.s:832    .text.Vector158:00000000 $t
     /tmp/ccxWoBWC.s:838    .text.Vector158:00000000 Vector158
     /tmp/ccxWoBWC.s:881    .text.Vector158:0000002c $d
     /tmp/ccxWoBWC.s:886    .text.dmaInit:00000000 $t
     /tmp/ccxWoBWC.s:892    .text.dmaInit:00000000 dmaInit
     /tmp/ccxWoBWC.s:1390   .bss.dma_streams_mask:00000000 .LANCHOR1
     /tmp/ccxWoBWC.s:1282   .bss.dma_isr_redir:00000000 .LANCHOR0
     /tmp/ccxWoBWC.s:1093   .text.dmaStreamAllocate:00000000 $t
     /tmp/ccxWoBWC.s:1099   .text.dmaStreamAllocate:00000000 dmaStreamAllocate
     /tmp/ccxWoBWC.s:1210   .text.dmaStreamAllocate:00000098 $d
ARM GAS  /tmp/ccxWoBWC.s 			page 87


     /tmp/ccxWoBWC.s:1216   .text.dmaStreamRelease:00000000 $t
     /tmp/ccxWoBWC.s:1222   .text.dmaStreamRelease:00000000 dmaStreamRelease
     /tmp/ccxWoBWC.s:1275   .text.dmaStreamRelease:0000004c $d
     /tmp/ccxWoBWC.s:1291   .rodata._stm32_dma_streams:00000000 _stm32_dma_streams
     /tmp/ccxWoBWC.s:1281   .bss.dma_isr_redir:00000000 $d
     /tmp/ccxWoBWC.s:1285   .bss.dma_isr_redir:00000000 dma_isr_redir
     /tmp/ccxWoBWC.s:1288   .rodata._stm32_dma_streams:00000000 $d
     /tmp/ccxWoBWC.s:1389   .bss.dma_streams_mask:00000000 $d
     /tmp/ccxWoBWC.s:1393   .bss.dma_streams_mask:00000000 dma_streams_mask
                     .debug_frame:00000010 $d
     /tmp/ccxWoBWC.s:75     .text.Vector6C:0000002c $t
     /tmp/ccxWoBWC.s:291    .text.Vector7C:0000002c $t
     /tmp/ccxWoBWC.s:507    .text.Vector120:0000002c $t
     /tmp/ccxWoBWC.s:723    .text.Vector130:0000002c $t

UNDEFINED SYMBOLS
_port_irq_epilogue
nvicEnableVector
nvicDisableVector
