ARM GAS  /tmp/ccxWoBWC.s 			page 1


   1              		.syntax unified
   2              		.cpu cortex-m4
   3              		.eabi_attribute 27, 3
   4              		.eabi_attribute 28, 1
   5              		.fpu fpv4-sp-d16
   6              		.eabi_attribute 20, 1
   7              		.eabi_attribute 21, 1
   8              		.eabi_attribute 23, 3
   9              		.eabi_attribute 24, 1
  10              		.eabi_attribute 25, 1
  11              		.eabi_attribute 26, 1
  12              		.eabi_attribute 30, 2
  13              		.eabi_attribute 34, 1
  14              		.eabi_attribute 18, 4
  15              		.thumb
  16              		.file	"stm32_dma.c"
  17              		.text
  18              	.Ltext0:
  19              		.cfi_sections	.debug_frame
  20              		.section	.text.Vector6C,"ax",%progbits
  21              		.align	2
  22              		.p2align 4,,15
  23              		.global	Vector6C
  24              		.thumb
  25              		.thumb_func
  26              		.type	Vector6C, %function
  27              	Vector6C:
  28              	.LFB118:
  29              		.file 1 "../../os/hal/platforms/STM32F4xx/stm32_dma.c"
  30              		.loc 1 128 0
  31              		.cfi_startproc
  32              		@ args = 0, pretend = 0, frame = 0
  33              		@ frame_needed = 0, uses_anonymous_args = 0
  34              		.loc 1 133 0
  35 0000 4FF4C043 		mov	r3, #24576
  36 0004 C4F20203 		movt	r3, 16386
  37              		.loc 1 135 0
  38 0008 0748     		ldr	r0, .L7
  39              		.loc 1 133 0
  40 000a 1968     		ldr	r1, [r3, #0]
  41              		.loc 1 135 0
  42 000c 0268     		ldr	r2, [r0, #0]
  43              		.loc 1 128 0
  44 000e 10B5     		push	{r4, lr}
  45              	.LCFI0:
  46              		.cfi_def_cfa_offset 8
  47              		.cfi_offset 4, -8
  48              		.cfi_offset 14, -4
  49              		.loc 1 134 0
  50 0010 3D24     		movs	r4, #61
  51              		.loc 1 133 0
  52 0012 01F03D01 		and	r1, r1, #61
  53              	.LVL0:
  54              		.loc 1 134 0
  55 0016 9C60     		str	r4, [r3, #8]
  56              		.loc 1 135 0
  57 0018 0AB1     		cbz	r2, .L2
ARM GAS  /tmp/ccxWoBWC.s 			page 2


  58              		.loc 1 136 0
  59 001a 4068     		ldr	r0, [r0, #4]
  60 001c 9047     		blx	r2
  61              	.LVL1:
  62              	.L2:
  63              		.loc 1 139 0
  64 001e BDE81040 		pop	{r4, lr}
  65              		.loc 1 138 0
  66 0022 FFF7FEBF 		b	_port_irq_epilogue
  67              	.LVL2:
  68              	.L8:
  69 0026 00BF     		.align	2
  70              	.L7:
  71 0028 00000000 		.word	.LANCHOR0
  72              		.cfi_endproc
  73              	.LFE118:
  74              		.size	Vector6C, .-Vector6C
  75 002c AFF30080 		.section	.text.Vector70,"ax",%progbits
  76              		.align	2
  77              		.p2align 4,,15
  78              		.global	Vector70
  79              		.thumb
  80              		.thumb_func
  81              		.type	Vector70, %function
  82              	Vector70:
  83              	.LFB119:
  84              		.loc 1 146 0
  85              		.cfi_startproc
  86              		@ args = 0, pretend = 0, frame = 0
  87              		@ frame_needed = 0, uses_anonymous_args = 0
  88              		.loc 1 151 0
  89 0000 4FF4C043 		mov	r3, #24576
  90 0004 C4F20203 		movt	r3, 16386
  91              		.loc 1 153 0
  92 0008 0848     		ldr	r0, .L14
  93              		.loc 1 151 0
  94 000a 1968     		ldr	r1, [r3, #0]
  95              		.loc 1 153 0
  96 000c 8268     		ldr	r2, [r0, #8]
  97              		.loc 1 146 0
  98 000e 10B5     		push	{r4, lr}
  99              	.LCFI1:
 100              		.cfi_def_cfa_offset 8
 101              		.cfi_offset 4, -8
 102              		.cfi_offset 14, -4
 103              		.loc 1 151 0
 104 0010 8C09     		lsrs	r4, r1, #6
 105 0012 04F03D01 		and	r1, r4, #61
 106              	.LVL3:
 107              		.loc 1 152 0
 108 0016 4FF47464 		mov	r4, #3904
 109 001a 9C60     		str	r4, [r3, #8]
 110              		.loc 1 153 0
 111 001c 0AB1     		cbz	r2, .L10
 112              		.loc 1 154 0
 113 001e C068     		ldr	r0, [r0, #12]
 114 0020 9047     		blx	r2
ARM GAS  /tmp/ccxWoBWC.s 			page 3


 115              	.LVL4:
 116              	.L10:
 117              		.loc 1 157 0
 118 0022 BDE81040 		pop	{r4, lr}
 119              		.loc 1 156 0
 120 0026 FFF7FEBF 		b	_port_irq_epilogue
 121              	.LVL5:
 122              	.L15:
 123 002a 00BF     		.align	2
 124              	.L14:
 125 002c 00000000 		.word	.LANCHOR0
 126              		.cfi_endproc
 127              	.LFE119:
 128              		.size	Vector70, .-Vector70
 129              		.section	.text.Vector74,"ax",%progbits
 130              		.align	2
 131              		.p2align 4,,15
 132              		.global	Vector74
 133              		.thumb
 134              		.thumb_func
 135              		.type	Vector74, %function
 136              	Vector74:
 137              	.LFB120:
 138              		.loc 1 164 0
 139              		.cfi_startproc
 140              		@ args = 0, pretend = 0, frame = 0
 141              		@ frame_needed = 0, uses_anonymous_args = 0
 142              		.loc 1 169 0
 143 0000 4FF4C043 		mov	r3, #24576
 144 0004 C4F20203 		movt	r3, 16386
 145              		.loc 1 171 0
 146 0008 0848     		ldr	r0, .L21
 147              		.loc 1 169 0
 148 000a 1968     		ldr	r1, [r3, #0]
 149              		.loc 1 171 0
 150 000c 0269     		ldr	r2, [r0, #16]
 151              		.loc 1 164 0
 152 000e 10B5     		push	{r4, lr}
 153              	.LCFI2:
 154              		.cfi_def_cfa_offset 8
 155              		.cfi_offset 4, -8
 156              		.cfi_offset 14, -4
 157              		.loc 1 169 0
 158 0010 0C0C     		lsrs	r4, r1, #16
 159 0012 04F03D01 		and	r1, r4, #61
 160              	.LVL6:
 161              		.loc 1 170 0
 162 0016 4FF47414 		mov	r4, #3997696
 163 001a 9C60     		str	r4, [r3, #8]
 164              		.loc 1 171 0
 165 001c 0AB1     		cbz	r2, .L17
 166              		.loc 1 172 0
 167 001e 4069     		ldr	r0, [r0, #20]
 168 0020 9047     		blx	r2
 169              	.LVL7:
 170              	.L17:
 171              		.loc 1 175 0
ARM GAS  /tmp/ccxWoBWC.s 			page 4


 172 0022 BDE81040 		pop	{r4, lr}
 173              		.loc 1 174 0
 174 0026 FFF7FEBF 		b	_port_irq_epilogue
 175              	.LVL8:
 176              	.L22:
 177 002a 00BF     		.align	2
 178              	.L21:
 179 002c 00000000 		.word	.LANCHOR0
 180              		.cfi_endproc
 181              	.LFE120:
 182              		.size	Vector74, .-Vector74
 183              		.section	.text.Vector78,"ax",%progbits
 184              		.align	2
 185              		.p2align 4,,15
 186              		.global	Vector78
 187              		.thumb
 188              		.thumb_func
 189              		.type	Vector78, %function
 190              	Vector78:
 191              	.LFB121:
 192              		.loc 1 182 0
 193              		.cfi_startproc
 194              		@ args = 0, pretend = 0, frame = 0
 195              		@ frame_needed = 0, uses_anonymous_args = 0
 196              		.loc 1 187 0
 197 0000 4FF4C043 		mov	r3, #24576
 198 0004 C4F20203 		movt	r3, 16386
 199              		.loc 1 189 0
 200 0008 0848     		ldr	r0, .L28
 201              		.loc 1 187 0
 202 000a 1968     		ldr	r1, [r3, #0]
 203              		.loc 1 189 0
 204 000c 8269     		ldr	r2, [r0, #24]
 205              		.loc 1 182 0
 206 000e 10B5     		push	{r4, lr}
 207              	.LCFI3:
 208              		.cfi_def_cfa_offset 8
 209              		.cfi_offset 4, -8
 210              		.cfi_offset 14, -4
 211              		.loc 1 187 0
 212 0010 8C0D     		lsrs	r4, r1, #22
 213 0012 04F03D01 		and	r1, r4, #61
 214              	.LVL9:
 215              		.loc 1 188 0
 216 0016 4FF07464 		mov	r4, #255852544
 217 001a 9C60     		str	r4, [r3, #8]
 218              		.loc 1 189 0
 219 001c 0AB1     		cbz	r2, .L24
 220              		.loc 1 190 0
 221 001e C069     		ldr	r0, [r0, #28]
 222 0020 9047     		blx	r2
 223              	.LVL10:
 224              	.L24:
 225              		.loc 1 193 0
 226 0022 BDE81040 		pop	{r4, lr}
 227              		.loc 1 192 0
 228 0026 FFF7FEBF 		b	_port_irq_epilogue
ARM GAS  /tmp/ccxWoBWC.s 			page 5


 229              	.LVL11:
 230              	.L29:
 231 002a 00BF     		.align	2
 232              	.L28:
 233 002c 00000000 		.word	.LANCHOR0
 234              		.cfi_endproc
 235              	.LFE121:
 236              		.size	Vector78, .-Vector78
 237              		.section	.text.Vector7C,"ax",%progbits
 238              		.align	2
 239              		.p2align 4,,15
 240              		.global	Vector7C
 241              		.thumb
 242              		.thumb_func
 243              		.type	Vector7C, %function
 244              	Vector7C:
 245              	.LFB122:
 246              		.loc 1 200 0
 247              		.cfi_startproc
 248              		@ args = 0, pretend = 0, frame = 0
 249              		@ frame_needed = 0, uses_anonymous_args = 0
 250              		.loc 1 205 0
 251 0000 4FF4C043 		mov	r3, #24576
 252 0004 C4F20203 		movt	r3, 16386
 253              		.loc 1 207 0
 254 0008 0748     		ldr	r0, .L35
 255              		.loc 1 205 0
 256 000a 5968     		ldr	r1, [r3, #4]
 257              		.loc 1 207 0
 258 000c 026A     		ldr	r2, [r0, #32]
 259              		.loc 1 200 0
 260 000e 10B5     		push	{r4, lr}
 261              	.LCFI4:
 262              		.cfi_def_cfa_offset 8
 263              		.cfi_offset 4, -8
 264              		.cfi_offset 14, -4
 265              		.loc 1 206 0
 266 0010 3D24     		movs	r4, #61
 267              		.loc 1 205 0
 268 0012 01F03D01 		and	r1, r1, #61
 269              	.LVL12:
 270              		.loc 1 206 0
 271 0016 DC60     		str	r4, [r3, #12]
 272              		.loc 1 207 0
 273 0018 0AB1     		cbz	r2, .L31
 274              		.loc 1 208 0
 275 001a 406A     		ldr	r0, [r0, #36]
 276 001c 9047     		blx	r2
 277              	.LVL13:
 278              	.L31:
 279              		.loc 1 211 0
 280 001e BDE81040 		pop	{r4, lr}
 281              		.loc 1 210 0
 282 0022 FFF7FEBF 		b	_port_irq_epilogue
 283              	.LVL14:
 284              	.L36:
 285 0026 00BF     		.align	2
ARM GAS  /tmp/ccxWoBWC.s 			page 6


 286              	.L35:
 287 0028 00000000 		.word	.LANCHOR0
 288              		.cfi_endproc
 289              	.LFE122:
 290              		.size	Vector7C, .-Vector7C
 291 002c AFF30080 		.section	.text.Vector80,"ax",%progbits
 292              		.align	2
 293              		.p2align 4,,15
 294              		.global	Vector80
 295              		.thumb
 296              		.thumb_func
 297              		.type	Vector80, %function
 298              	Vector80:
 299              	.LFB123:
 300              		.loc 1 218 0
 301              		.cfi_startproc
 302              		@ args = 0, pretend = 0, frame = 0
 303              		@ frame_needed = 0, uses_anonymous_args = 0
 304              		.loc 1 223 0
 305 0000 4FF4C043 		mov	r3, #24576
 306 0004 C4F20203 		movt	r3, 16386
 307              		.loc 1 225 0
 308 0008 0848     		ldr	r0, .L42
 309              		.loc 1 223 0
 310 000a 5968     		ldr	r1, [r3, #4]
 311              		.loc 1 225 0
 312 000c 826A     		ldr	r2, [r0, #40]
 313              		.loc 1 218 0
 314 000e 10B5     		push	{r4, lr}
 315              	.LCFI5:
 316              		.cfi_def_cfa_offset 8
 317              		.cfi_offset 4, -8
 318              		.cfi_offset 14, -4
 319              		.loc 1 223 0
 320 0010 8C09     		lsrs	r4, r1, #6
 321 0012 04F03D01 		and	r1, r4, #61
 322              	.LVL15:
 323              		.loc 1 224 0
 324 0016 4FF47464 		mov	r4, #3904
 325 001a DC60     		str	r4, [r3, #12]
 326              		.loc 1 225 0
 327 001c 0AB1     		cbz	r2, .L38
 328              		.loc 1 226 0
 329 001e C06A     		ldr	r0, [r0, #44]
 330 0020 9047     		blx	r2
 331              	.LVL16:
 332              	.L38:
 333              		.loc 1 229 0
 334 0022 BDE81040 		pop	{r4, lr}
 335              		.loc 1 228 0
 336 0026 FFF7FEBF 		b	_port_irq_epilogue
 337              	.LVL17:
 338              	.L43:
 339 002a 00BF     		.align	2
 340              	.L42:
 341 002c 00000000 		.word	.LANCHOR0
 342              		.cfi_endproc
ARM GAS  /tmp/ccxWoBWC.s 			page 7


 343              	.LFE123:
 344              		.size	Vector80, .-Vector80
 345              		.section	.text.Vector84,"ax",%progbits
 346              		.align	2
 347              		.p2align 4,,15
 348              		.global	Vector84
 349              		.thumb
 350              		.thumb_func
 351              		.type	Vector84, %function
 352              	Vector84:
 353              	.LFB124:
 354              		.loc 1 236 0
 355              		.cfi_startproc
 356              		@ args = 0, pretend = 0, frame = 0
 357              		@ frame_needed = 0, uses_anonymous_args = 0
 358              		.loc 1 241 0
 359 0000 4FF4C043 		mov	r3, #24576
 360 0004 C4F20203 		movt	r3, 16386
 361              		.loc 1 243 0
 362 0008 0848     		ldr	r0, .L49
 363              		.loc 1 241 0
 364 000a 5968     		ldr	r1, [r3, #4]
 365              		.loc 1 243 0
 366 000c 026B     		ldr	r2, [r0, #48]
 367              		.loc 1 236 0
 368 000e 10B5     		push	{r4, lr}
 369              	.LCFI6:
 370              		.cfi_def_cfa_offset 8
 371              		.cfi_offset 4, -8
 372              		.cfi_offset 14, -4
 373              		.loc 1 241 0
 374 0010 0C0C     		lsrs	r4, r1, #16
 375 0012 04F03D01 		and	r1, r4, #61
 376              	.LVL18:
 377              		.loc 1 242 0
 378 0016 4FF47414 		mov	r4, #3997696
 379 001a DC60     		str	r4, [r3, #12]
 380              		.loc 1 243 0
 381 001c 0AB1     		cbz	r2, .L45
 382              		.loc 1 244 0
 383 001e 406B     		ldr	r0, [r0, #52]
 384 0020 9047     		blx	r2
 385              	.LVL19:
 386              	.L45:
 387              		.loc 1 247 0
 388 0022 BDE81040 		pop	{r4, lr}
 389              		.loc 1 246 0
 390 0026 FFF7FEBF 		b	_port_irq_epilogue
 391              	.LVL20:
 392              	.L50:
 393 002a 00BF     		.align	2
 394              	.L49:
 395 002c 00000000 		.word	.LANCHOR0
 396              		.cfi_endproc
 397              	.LFE124:
 398              		.size	Vector84, .-Vector84
 399              		.section	.text.VectorFC,"ax",%progbits
ARM GAS  /tmp/ccxWoBWC.s 			page 8


 400              		.align	2
 401              		.p2align 4,,15
 402              		.global	VectorFC
 403              		.thumb
 404              		.thumb_func
 405              		.type	VectorFC, %function
 406              	VectorFC:
 407              	.LFB125:
 408              		.loc 1 254 0
 409              		.cfi_startproc
 410              		@ args = 0, pretend = 0, frame = 0
 411              		@ frame_needed = 0, uses_anonymous_args = 0
 412              		.loc 1 259 0
 413 0000 4FF4C043 		mov	r3, #24576
 414 0004 C4F20203 		movt	r3, 16386
 415              		.loc 1 261 0
 416 0008 0848     		ldr	r0, .L56
 417              		.loc 1 259 0
 418 000a 5968     		ldr	r1, [r3, #4]
 419              		.loc 1 261 0
 420 000c 826B     		ldr	r2, [r0, #56]
 421              		.loc 1 254 0
 422 000e 10B5     		push	{r4, lr}
 423              	.LCFI7:
 424              		.cfi_def_cfa_offset 8
 425              		.cfi_offset 4, -8
 426              		.cfi_offset 14, -4
 427              		.loc 1 259 0
 428 0010 8C0D     		lsrs	r4, r1, #22
 429 0012 04F03D01 		and	r1, r4, #61
 430              	.LVL21:
 431              		.loc 1 260 0
 432 0016 4FF07464 		mov	r4, #255852544
 433 001a DC60     		str	r4, [r3, #12]
 434              		.loc 1 261 0
 435 001c 0AB1     		cbz	r2, .L52
 436              		.loc 1 262 0
 437 001e C06B     		ldr	r0, [r0, #60]
 438 0020 9047     		blx	r2
 439              	.LVL22:
 440              	.L52:
 441              		.loc 1 265 0
 442 0022 BDE81040 		pop	{r4, lr}
 443              		.loc 1 264 0
 444 0026 FFF7FEBF 		b	_port_irq_epilogue
 445              	.LVL23:
 446              	.L57:
 447 002a 00BF     		.align	2
 448              	.L56:
 449 002c 00000000 		.word	.LANCHOR0
 450              		.cfi_endproc
 451              	.LFE125:
 452              		.size	VectorFC, .-VectorFC
 453              		.section	.text.Vector120,"ax",%progbits
 454              		.align	2
 455              		.p2align 4,,15
 456              		.global	Vector120
ARM GAS  /tmp/ccxWoBWC.s 			page 9


 457              		.thumb
 458              		.thumb_func
 459              		.type	Vector120, %function
 460              	Vector120:
 461              	.LFB126:
 462              		.loc 1 272 0
 463              		.cfi_startproc
 464              		@ args = 0, pretend = 0, frame = 0
 465              		@ frame_needed = 0, uses_anonymous_args = 0
 466              		.loc 1 277 0
 467 0000 4FF4C843 		mov	r3, #25600
 468 0004 C4F20203 		movt	r3, 16386
 469              		.loc 1 279 0
 470 0008 0748     		ldr	r0, .L63
 471              		.loc 1 277 0
 472 000a 1968     		ldr	r1, [r3, #0]
 473              		.loc 1 279 0
 474 000c 026C     		ldr	r2, [r0, #64]
 475              		.loc 1 272 0
 476 000e 10B5     		push	{r4, lr}
 477              	.LCFI8:
 478              		.cfi_def_cfa_offset 8
 479              		.cfi_offset 4, -8
 480              		.cfi_offset 14, -4
 481              		.loc 1 278 0
 482 0010 3D24     		movs	r4, #61
 483              		.loc 1 277 0
 484 0012 01F03D01 		and	r1, r1, #61
 485              	.LVL24:
 486              		.loc 1 278 0
 487 0016 9C60     		str	r4, [r3, #8]
 488              		.loc 1 279 0
 489 0018 0AB1     		cbz	r2, .L59
 490              		.loc 1 280 0
 491 001a 406C     		ldr	r0, [r0, #68]
 492 001c 9047     		blx	r2
 493              	.LVL25:
 494              	.L59:
 495              		.loc 1 283 0
 496 001e BDE81040 		pop	{r4, lr}
 497              		.loc 1 282 0
 498 0022 FFF7FEBF 		b	_port_irq_epilogue
 499              	.LVL26:
 500              	.L64:
 501 0026 00BF     		.align	2
 502              	.L63:
 503 0028 00000000 		.word	.LANCHOR0
 504              		.cfi_endproc
 505              	.LFE126:
 506              		.size	Vector120, .-Vector120
 507 002c AFF30080 		.section	.text.Vector124,"ax",%progbits
 508              		.align	2
 509              		.p2align 4,,15
 510              		.global	Vector124
 511              		.thumb
 512              		.thumb_func
 513              		.type	Vector124, %function
ARM GAS  /tmp/ccxWoBWC.s 			page 10


 514              	Vector124:
 515              	.LFB127:
 516              		.loc 1 290 0
 517              		.cfi_startproc
 518              		@ args = 0, pretend = 0, frame = 0
 519              		@ frame_needed = 0, uses_anonymous_args = 0
 520              		.loc 1 295 0
 521 0000 4FF4C843 		mov	r3, #25600
 522 0004 C4F20203 		movt	r3, 16386
 523              		.loc 1 297 0
 524 0008 0848     		ldr	r0, .L70
 525              		.loc 1 295 0
 526 000a 1968     		ldr	r1, [r3, #0]
 527              		.loc 1 297 0
 528 000c 826C     		ldr	r2, [r0, #72]
 529              		.loc 1 290 0
 530 000e 10B5     		push	{r4, lr}
 531              	.LCFI9:
 532              		.cfi_def_cfa_offset 8
 533              		.cfi_offset 4, -8
 534              		.cfi_offset 14, -4
 535              		.loc 1 295 0
 536 0010 8C09     		lsrs	r4, r1, #6
 537 0012 04F03D01 		and	r1, r4, #61
 538              	.LVL27:
 539              		.loc 1 296 0
 540 0016 4FF47464 		mov	r4, #3904
 541 001a 9C60     		str	r4, [r3, #8]
 542              		.loc 1 297 0
 543 001c 0AB1     		cbz	r2, .L66
 544              		.loc 1 298 0
 545 001e C06C     		ldr	r0, [r0, #76]
 546 0020 9047     		blx	r2
 547              	.LVL28:
 548              	.L66:
 549              		.loc 1 301 0
 550 0022 BDE81040 		pop	{r4, lr}
 551              		.loc 1 300 0
 552 0026 FFF7FEBF 		b	_port_irq_epilogue
 553              	.LVL29:
 554              	.L71:
 555 002a 00BF     		.align	2
 556              	.L70:
 557 002c 00000000 		.word	.LANCHOR0
 558              		.cfi_endproc
 559              	.LFE127:
 560              		.size	Vector124, .-Vector124
 561              		.section	.text.Vector128,"ax",%progbits
 562              		.align	2
 563              		.p2align 4,,15
 564              		.global	Vector128
 565              		.thumb
 566              		.thumb_func
 567              		.type	Vector128, %function
 568              	Vector128:
 569              	.LFB128:
 570              		.loc 1 308 0
ARM GAS  /tmp/ccxWoBWC.s 			page 11


 571              		.cfi_startproc
 572              		@ args = 0, pretend = 0, frame = 0
 573              		@ frame_needed = 0, uses_anonymous_args = 0
 574              		.loc 1 313 0
 575 0000 4FF4C843 		mov	r3, #25600
 576 0004 C4F20203 		movt	r3, 16386
 577              		.loc 1 315 0
 578 0008 0848     		ldr	r0, .L77
 579              		.loc 1 313 0
 580 000a 1968     		ldr	r1, [r3, #0]
 581              		.loc 1 315 0
 582 000c 026D     		ldr	r2, [r0, #80]
 583              		.loc 1 308 0
 584 000e 10B5     		push	{r4, lr}
 585              	.LCFI10:
 586              		.cfi_def_cfa_offset 8
 587              		.cfi_offset 4, -8
 588              		.cfi_offset 14, -4
 589              		.loc 1 313 0
 590 0010 0C0C     		lsrs	r4, r1, #16
 591 0012 04F03D01 		and	r1, r4, #61
 592              	.LVL30:
 593              		.loc 1 314 0
 594 0016 4FF47414 		mov	r4, #3997696
 595 001a 9C60     		str	r4, [r3, #8]
 596              		.loc 1 315 0
 597 001c 0AB1     		cbz	r2, .L73
 598              		.loc 1 316 0
 599 001e 406D     		ldr	r0, [r0, #84]
 600 0020 9047     		blx	r2
 601              	.LVL31:
 602              	.L73:
 603              		.loc 1 319 0
 604 0022 BDE81040 		pop	{r4, lr}
 605              		.loc 1 318 0
 606 0026 FFF7FEBF 		b	_port_irq_epilogue
 607              	.LVL32:
 608              	.L78:
 609 002a 00BF     		.align	2
 610              	.L77:
 611 002c 00000000 		.word	.LANCHOR0
 612              		.cfi_endproc
 613              	.LFE128:
 614              		.size	Vector128, .-Vector128
 615              		.section	.text.Vector12C,"ax",%progbits
 616              		.align	2
 617              		.p2align 4,,15
 618              		.global	Vector12C
 619              		.thumb
 620              		.thumb_func
 621              		.type	Vector12C, %function
 622              	Vector12C:
 623              	.LFB129:
 624              		.loc 1 326 0
 625              		.cfi_startproc
 626              		@ args = 0, pretend = 0, frame = 0
 627              		@ frame_needed = 0, uses_anonymous_args = 0
ARM GAS  /tmp/ccxWoBWC.s 			page 12


 628              		.loc 1 331 0
 629 0000 4FF4C843 		mov	r3, #25600
 630 0004 C4F20203 		movt	r3, 16386
 631              		.loc 1 333 0
 632 0008 0848     		ldr	r0, .L84
 633              		.loc 1 331 0
 634 000a 1968     		ldr	r1, [r3, #0]
 635              		.loc 1 333 0
 636 000c 826D     		ldr	r2, [r0, #88]
 637              		.loc 1 326 0
 638 000e 10B5     		push	{r4, lr}
 639              	.LCFI11:
 640              		.cfi_def_cfa_offset 8
 641              		.cfi_offset 4, -8
 642              		.cfi_offset 14, -4
 643              		.loc 1 331 0
 644 0010 8C0D     		lsrs	r4, r1, #22
 645 0012 04F03D01 		and	r1, r4, #61
 646              	.LVL33:
 647              		.loc 1 332 0
 648 0016 4FF07464 		mov	r4, #255852544
 649 001a 9C60     		str	r4, [r3, #8]
 650              		.loc 1 333 0
 651 001c 0AB1     		cbz	r2, .L80
 652              		.loc 1 334 0
 653 001e C06D     		ldr	r0, [r0, #92]
 654 0020 9047     		blx	r2
 655              	.LVL34:
 656              	.L80:
 657              		.loc 1 337 0
 658 0022 BDE81040 		pop	{r4, lr}
 659              		.loc 1 336 0
 660 0026 FFF7FEBF 		b	_port_irq_epilogue
 661              	.LVL35:
 662              	.L85:
 663 002a 00BF     		.align	2
 664              	.L84:
 665 002c 00000000 		.word	.LANCHOR0
 666              		.cfi_endproc
 667              	.LFE129:
 668              		.size	Vector12C, .-Vector12C
 669              		.section	.text.Vector130,"ax",%progbits
 670              		.align	2
 671              		.p2align 4,,15
 672              		.global	Vector130
 673              		.thumb
 674              		.thumb_func
 675              		.type	Vector130, %function
 676              	Vector130:
 677              	.LFB130:
 678              		.loc 1 344 0
 679              		.cfi_startproc
 680              		@ args = 0, pretend = 0, frame = 0
 681              		@ frame_needed = 0, uses_anonymous_args = 0
 682              		.loc 1 349 0
 683 0000 4FF4C843 		mov	r3, #25600
 684 0004 C4F20203 		movt	r3, 16386
ARM GAS  /tmp/ccxWoBWC.s 			page 13


 685              		.loc 1 351 0
 686 0008 0748     		ldr	r0, .L91
 687              		.loc 1 349 0
 688 000a 5968     		ldr	r1, [r3, #4]
 689              		.loc 1 351 0
 690 000c 026E     		ldr	r2, [r0, #96]
 691              		.loc 1 344 0
 692 000e 10B5     		push	{r4, lr}
 693              	.LCFI12:
 694              		.cfi_def_cfa_offset 8
 695              		.cfi_offset 4, -8
 696              		.cfi_offset 14, -4
 697              		.loc 1 350 0
 698 0010 3D24     		movs	r4, #61
 699              		.loc 1 349 0
 700 0012 01F03D01 		and	r1, r1, #61
 701              	.LVL36:
 702              		.loc 1 350 0
 703 0016 DC60     		str	r4, [r3, #12]
 704              		.loc 1 351 0
 705 0018 0AB1     		cbz	r2, .L87
 706              		.loc 1 352 0
 707 001a 406E     		ldr	r0, [r0, #100]
 708 001c 9047     		blx	r2
 709              	.LVL37:
 710              	.L87:
 711              		.loc 1 355 0
 712 001e BDE81040 		pop	{r4, lr}
 713              		.loc 1 354 0
 714 0022 FFF7FEBF 		b	_port_irq_epilogue
 715              	.LVL38:
 716              	.L92:
 717 0026 00BF     		.align	2
 718              	.L91:
 719 0028 00000000 		.word	.LANCHOR0
 720              		.cfi_endproc
 721              	.LFE130:
 722              		.size	Vector130, .-Vector130
 723 002c AFF30080 		.section	.text.Vector150,"ax",%progbits
 724              		.align	2
 725              		.p2align 4,,15
 726              		.global	Vector150
 727              		.thumb
 728              		.thumb_func
 729              		.type	Vector150, %function
 730              	Vector150:
 731              	.LFB131:
 732              		.loc 1 362 0
 733              		.cfi_startproc
 734              		@ args = 0, pretend = 0, frame = 0
 735              		@ frame_needed = 0, uses_anonymous_args = 0
 736              		.loc 1 367 0
 737 0000 4FF4C843 		mov	r3, #25600
 738 0004 C4F20203 		movt	r3, 16386
 739              		.loc 1 369 0
 740 0008 0848     		ldr	r0, .L98
 741              		.loc 1 367 0
ARM GAS  /tmp/ccxWoBWC.s 			page 14


 742 000a 5968     		ldr	r1, [r3, #4]
 743              		.loc 1 369 0
 744 000c 826E     		ldr	r2, [r0, #104]
 745              		.loc 1 362 0
 746 000e 10B5     		push	{r4, lr}
 747              	.LCFI13:
 748              		.cfi_def_cfa_offset 8
 749              		.cfi_offset 4, -8
 750              		.cfi_offset 14, -4
 751              		.loc 1 367 0
 752 0010 8C09     		lsrs	r4, r1, #6
 753 0012 04F03D01 		and	r1, r4, #61
 754              	.LVL39:
 755              		.loc 1 368 0
 756 0016 4FF47464 		mov	r4, #3904
 757 001a DC60     		str	r4, [r3, #12]
 758              		.loc 1 369 0
 759 001c 0AB1     		cbz	r2, .L94
 760              		.loc 1 370 0
 761 001e C06E     		ldr	r0, [r0, #108]
 762 0020 9047     		blx	r2
 763              	.LVL40:
 764              	.L94:
 765              		.loc 1 373 0
 766 0022 BDE81040 		pop	{r4, lr}
 767              		.loc 1 372 0
 768 0026 FFF7FEBF 		b	_port_irq_epilogue
 769              	.LVL41:
 770              	.L99:
 771 002a 00BF     		.align	2
 772              	.L98:
 773 002c 00000000 		.word	.LANCHOR0
 774              		.cfi_endproc
 775              	.LFE131:
 776              		.size	Vector150, .-Vector150
 777              		.section	.text.Vector154,"ax",%progbits
 778              		.align	2
 779              		.p2align 4,,15
 780              		.global	Vector154
 781              		.thumb
 782              		.thumb_func
 783              		.type	Vector154, %function
 784              	Vector154:
 785              	.LFB132:
 786              		.loc 1 380 0
 787              		.cfi_startproc
 788              		@ args = 0, pretend = 0, frame = 0
 789              		@ frame_needed = 0, uses_anonymous_args = 0
 790              		.loc 1 385 0
 791 0000 4FF4C843 		mov	r3, #25600
 792 0004 C4F20203 		movt	r3, 16386
 793              		.loc 1 387 0
 794 0008 0848     		ldr	r0, .L105
 795              		.loc 1 385 0
 796 000a 5968     		ldr	r1, [r3, #4]
 797              		.loc 1 387 0
 798 000c 026F     		ldr	r2, [r0, #112]
ARM GAS  /tmp/ccxWoBWC.s 			page 15


 799              		.loc 1 380 0
 800 000e 10B5     		push	{r4, lr}
 801              	.LCFI14:
 802              		.cfi_def_cfa_offset 8
 803              		.cfi_offset 4, -8
 804              		.cfi_offset 14, -4
 805              		.loc 1 385 0
 806 0010 0C0C     		lsrs	r4, r1, #16
 807 0012 04F03D01 		and	r1, r4, #61
 808              	.LVL42:
 809              		.loc 1 386 0
 810 0016 4FF47414 		mov	r4, #3997696
 811 001a DC60     		str	r4, [r3, #12]
 812              		.loc 1 387 0
 813 001c 0AB1     		cbz	r2, .L101
 814              		.loc 1 388 0
 815 001e 406F     		ldr	r0, [r0, #116]
 816 0020 9047     		blx	r2
 817              	.LVL43:
 818              	.L101:
 819              		.loc 1 391 0
 820 0022 BDE81040 		pop	{r4, lr}
 821              		.loc 1 390 0
 822 0026 FFF7FEBF 		b	_port_irq_epilogue
 823              	.LVL44:
 824              	.L106:
 825 002a 00BF     		.align	2
 826              	.L105:
 827 002c 00000000 		.word	.LANCHOR0
 828              		.cfi_endproc
 829              	.LFE132:
 830              		.size	Vector154, .-Vector154
 831              		.section	.text.Vector158,"ax",%progbits
 832              		.align	2
 833              		.p2align 4,,15
 834              		.global	Vector158
 835              		.thumb
 836              		.thumb_func
 837              		.type	Vector158, %function
 838              	Vector158:
 839              	.LFB133:
 840              		.loc 1 398 0
 841              		.cfi_startproc
 842              		@ args = 0, pretend = 0, frame = 0
 843              		@ frame_needed = 0, uses_anonymous_args = 0
 844              		.loc 1 403 0
 845 0000 4FF4C843 		mov	r3, #25600
 846 0004 C4F20203 		movt	r3, 16386
 847              		.loc 1 405 0
 848 0008 0848     		ldr	r0, .L112
 849              		.loc 1 403 0
 850 000a 5968     		ldr	r1, [r3, #4]
 851              		.loc 1 405 0
 852 000c 826F     		ldr	r2, [r0, #120]
 853              		.loc 1 398 0
 854 000e 10B5     		push	{r4, lr}
 855              	.LCFI15:
ARM GAS  /tmp/ccxWoBWC.s 			page 16


 856              		.cfi_def_cfa_offset 8
 857              		.cfi_offset 4, -8
 858              		.cfi_offset 14, -4
 859              		.loc 1 403 0
 860 0010 8C0D     		lsrs	r4, r1, #22
 861 0012 04F03D01 		and	r1, r4, #61
 862              	.LVL45:
 863              		.loc 1 404 0
 864 0016 4FF07464 		mov	r4, #255852544
 865 001a DC60     		str	r4, [r3, #12]
 866              		.loc 1 405 0
 867 001c 0AB1     		cbz	r2, .L108
 868              		.loc 1 406 0
 869 001e C06F     		ldr	r0, [r0, #124]
 870 0020 9047     		blx	r2
 871              	.LVL46:
 872              	.L108:
 873              		.loc 1 409 0
 874 0022 BDE81040 		pop	{r4, lr}
 875              		.loc 1 408 0
 876 0026 FFF7FEBF 		b	_port_irq_epilogue
 877              	.LVL47:
 878              	.L113:
 879 002a 00BF     		.align	2
 880              	.L112:
 881 002c 00000000 		.word	.LANCHOR0
 882              		.cfi_endproc
 883              	.LFE133:
 884              		.size	Vector158, .-Vector158
 885              		.section	.text.dmaInit,"ax",%progbits
 886              		.align	2
 887              		.p2align 4,,15
 888              		.global	dmaInit
 889              		.thumb
 890              		.thumb_func
 891              		.type	dmaInit, %function
 892              	dmaInit:
 893              	.LFB134:
 894              		.loc 1 420 0
 895              		.cfi_startproc
 896              		@ args = 0, pretend = 0, frame = 40
 897              		@ frame_needed = 0, uses_anonymous_args = 0
 898              		@ link register save eliminated.
 899 0000 2DE9F00F 		push	{r4, r5, r6, r7, r8, r9, sl, fp}
 900              	.LCFI16:
 901              		.cfi_def_cfa_offset 32
 902              		.cfi_offset 4, -32
 903              		.cfi_offset 5, -28
 904              		.cfi_offset 6, -24
 905              		.cfi_offset 7, -20
 906              		.cfi_offset 8, -16
 907              		.cfi_offset 9, -12
 908              		.cfi_offset 10, -8
 909              		.cfi_offset 11, -4
 910              		.loc 1 423 0
 911 0004 40F20005 		movw	r5, #:lower16:.LANCHOR1
 912              		.loc 1 420 0
ARM GAS  /tmp/ccxWoBWC.s 			page 17


 913 0008 8AB0     		sub	sp, sp, #40
 914              	.LCFI17:
 915              		.cfi_def_cfa_offset 72
 916              		.loc 1 423 0
 917 000a C0F20005 		movt	r5, #:upper16:.LANCHOR1
 918              		.loc 1 425 0
 919 000e 46F24040 		movw	r0, #25664
 920              		.loc 1 423 0
 921 0012 0295     		str	r5, [sp, #8]
 922              		.loc 1 425 0
 923 0014 7830     		adds	r0, r0, #120
 924 0016 46F21045 		movw	r5, #25616
 925 001a C4F20205 		movt	r5, 16386
 926 001e A0F58060 		sub	r0, r0, #1024
 927 0022 0495     		str	r5, [sp, #16]
 928 0024 C4F20200 		movt	r0, 16386
 929 0028 46F24045 		movw	r5, #25664
 930 002c 0390     		str	r0, [sp, #12]
 931 002e C4F20205 		movt	r5, 16386
 932 0032 46F22840 		movw	r0, #25640
 933 0036 0695     		str	r5, [sp, #24]
 934 0038 C4F20200 		movt	r0, 16386
 935 003c 46F27045 		movw	r5, #25712
 936 0040 0590     		str	r0, [sp, #20]
 937 0042 C4F20205 		movt	r5, 16386
 938 0046 46F25840 		movw	r0, #25688
 939 004a 0195     		str	r5, [sp, #4]
 940 004c C4F20200 		movt	r0, 16386
 941 0050 46F2B845 		movw	r5, #25784
 942 0054 0790     		str	r0, [sp, #28]
 943 0056 C4F20205 		movt	r5, 16386
 944 005a 46F28840 		movw	r0, #25736
 945 005e 0995     		str	r5, [sp, #36]
 946 0060 C4F20200 		movt	r0, 16386
 947              		.loc 1 423 0
 948 0064 029D     		ldr	r5, [sp, #8]
 949              		.loc 1 425 0
 950 0066 0890     		str	r0, [sp, #32]
 951 0068 46F2100B 		movw	fp, #24592
 952              		.loc 1 423 0
 953 006c 0020     		movs	r0, #0
 954              		.loc 1 426 0
 955 006e 40F20003 		movw	r3, #:lower16:.LANCHOR0
 956              		.loc 1 425 0
 957 0072 46F2280A 		movw	sl, #24616
 958 0076 46F24009 		movw	r9, #24640
 959 007a 46F25808 		movw	r8, #24664
 960 007e 46F2700C 		movw	ip, #24688
 961 0082 46F28807 		movw	r7, #24712
 962 0086 46F2A006 		movw	r6, #24736
 963              		.loc 1 426 0
 964 008a C0F20003 		movt	r3, #:upper16:.LANCHOR0
 965              		.loc 1 423 0
 966 008e 2860     		str	r0, [r5, #0]
 967              	.LVL48:
 968              		.loc 1 425 0
 969 0090 C4F2020B 		movt	fp, 16386
ARM GAS  /tmp/ccxWoBWC.s 			page 18


 970 0094 039D     		ldr	r5, [sp, #12]
 971 0096 CBF80000 		str	r0, [fp, #0]
 972 009a C4F2020A 		movt	sl, 16386
 973 009e C4F20209 		movt	r9, 16386
 974 00a2 C4F20208 		movt	r8, 16386
 975 00a6 C4F2020C 		movt	ip, 16386
 976 00aa C4F20207 		movt	r7, 16386
 977 00ae C4F20206 		movt	r6, 16386
 978              		.loc 1 426 0
 979 00b2 1860     		str	r0, [r3, #0]
 980              	.LVL49:
 981              		.loc 1 425 0
 982 00b4 CAF80000 		str	r0, [sl, #0]
 983              		.loc 1 426 0
 984 00b8 9860     		str	r0, [r3, #8]
 985              	.LVL50:
 986              		.loc 1 425 0
 987 00ba C9F80000 		str	r0, [r9, #0]
 988              		.loc 1 426 0
 989 00be 1861     		str	r0, [r3, #16]
 990              	.LVL51:
 991              		.loc 1 425 0
 992 00c0 C8F80000 		str	r0, [r8, #0]
 993              		.loc 1 426 0
 994 00c4 9861     		str	r0, [r3, #24]
 995              	.LVL52:
 996              		.loc 1 425 0
 997 00c6 CCF80000 		str	r0, [ip, #0]
 998              		.loc 1 426 0
 999 00ca 1862     		str	r0, [r3, #32]
 1000              	.LVL53:
 1001              		.loc 1 425 0
 1002 00cc 3860     		str	r0, [r7, #0]
 1003              		.loc 1 426 0
 1004 00ce 9862     		str	r0, [r3, #40]
 1005              	.LVL54:
 1006              		.loc 1 425 0
 1007 00d0 3060     		str	r0, [r6, #0]
 1008              		.loc 1 426 0
 1009 00d2 1863     		str	r0, [r3, #48]
 1010              	.LVL55:
 1011              		.loc 1 425 0
 1012 00d4 2860     		str	r0, [r5, #0]
 1013 00d6 049D     		ldr	r5, [sp, #16]
 1014              		.loc 1 426 0
 1015 00d8 9863     		str	r0, [r3, #56]
 1016              	.LVL56:
 1017              		.loc 1 425 0
 1018 00da 2860     		str	r0, [r5, #0]
 1019 00dc 059D     		ldr	r5, [sp, #20]
 1020              		.loc 1 426 0
 1021 00de 1864     		str	r0, [r3, #64]
 1022              	.LVL57:
 1023              		.loc 1 425 0
 1024 00e0 2860     		str	r0, [r5, #0]
 1025 00e2 069D     		ldr	r5, [sp, #24]
 1026              		.loc 1 426 0
ARM GAS  /tmp/ccxWoBWC.s 			page 19


 1027 00e4 9864     		str	r0, [r3, #72]
 1028              	.LVL58:
 1029              		.loc 1 425 0
 1030 00e6 2860     		str	r0, [r5, #0]
 1031 00e8 079D     		ldr	r5, [sp, #28]
 1032              		.loc 1 426 0
 1033 00ea 1865     		str	r0, [r3, #80]
 1034              	.LVL59:
 1035              		.loc 1 425 0
 1036 00ec 46F21044 		movw	r4, #25616
 1037 00f0 2860     		str	r0, [r5, #0]
 1038 00f2 6034     		adds	r4, r4, #96
 1039 00f4 019D     		ldr	r5, [sp, #4]
 1040              		.loc 1 426 0
 1041 00f6 9865     		str	r0, [r3, #88]
 1042              	.LVL60:
 1043              		.loc 1 425 0
 1044 00f8 3034     		adds	r4, r4, #48
 1045 00fa 2860     		str	r0, [r5, #0]
 1046 00fc C4F20204 		movt	r4, 16386
 1047 0100 089D     		ldr	r5, [sp, #32]
 1048              		.loc 1 426 0
 1049 0102 1866     		str	r0, [r3, #96]
 1050              	.LVL61:
 1051              		.loc 1 428 0
 1052 0104 4FF4C041 		mov	r1, #24576
 1053              		.loc 1 430 0
 1054 0108 4FF4C842 		mov	r2, #25600
 1055              		.loc 1 425 0
 1056 010c 2860     		str	r0, [r5, #0]
 1057              		.loc 1 428 0
 1058 010e C4F20201 		movt	r1, 16386
 1059              		.loc 1 426 0
 1060 0112 9866     		str	r0, [r3, #104]
 1061              	.LVL62:
 1062              		.loc 1 430 0
 1063 0114 C4F20202 		movt	r2, 16386
 1064              		.loc 1 425 0
 1065 0118 2060     		str	r0, [r4, #0]
 1066 011a 099C     		ldr	r4, [sp, #36]
 1067              		.loc 1 426 0
 1068 011c 1867     		str	r0, [r3, #112]
 1069              	.LVL63:
 1070              		.loc 1 428 0
 1071 011e 4FF0FF35 		mov	r5, #-1
 1072              		.loc 1 425 0
 1073 0122 2060     		str	r0, [r4, #0]
 1074              		.loc 1 426 0
 1075 0124 9867     		str	r0, [r3, #120]
 1076              	.LVL64:
 1077              		.loc 1 428 0
 1078 0126 8D60     		str	r5, [r1, #8]
 1079              		.loc 1 429 0
 1080 0128 CD60     		str	r5, [r1, #12]
 1081              		.loc 1 430 0
 1082 012a 9560     		str	r5, [r2, #8]
 1083              		.loc 1 431 0
ARM GAS  /tmp/ccxWoBWC.s 			page 20


 1084 012c D560     		str	r5, [r2, #12]
 1085              		.loc 1 432 0
 1086 012e 0AB0     		add	sp, sp, #40
 1087 0130 BDE8F00F 		pop	{r4, r5, r6, r7, r8, r9, sl, fp}
 1088 0134 7047     		bx	lr
 1089              		.cfi_endproc
 1090              	.LFE134:
 1091              		.size	dmaInit, .-dmaInit
 1092              		.section	.text.dmaStreamAllocate,"ax",%progbits
 1093              		.align	2
 1094              		.p2align 4,,15
 1095              		.global	dmaStreamAllocate
 1096              		.thumb
 1097              		.thumb_func
 1098              		.type	dmaStreamAllocate, %function
 1099              	dmaStreamAllocate:
 1100              	.LFB135:
 1101              		.loc 1 461 0
 1102              		.cfi_startproc
 1103              		@ args = 0, pretend = 0, frame = 0
 1104              		@ frame_needed = 0, uses_anonymous_args = 0
 1105              	.LVL65:
 1106 0000 2DE9F041 		push	{r4, r5, r6, r7, r8, lr}
 1107              	.LCFI18:
 1108              		.cfi_def_cfa_offset 24
 1109              		.cfi_offset 4, -24
 1110              		.cfi_offset 5, -20
 1111              		.cfi_offset 6, -16
 1112              		.cfi_offset 7, -12
 1113              		.cfi_offset 8, -8
 1114              		.cfi_offset 14, -4
 1115              		.loc 1 466 0
 1116 0004 244E     		ldr	r6, .L130
 1117 0006 447A     		ldrb	r4, [r0, #9]	@ zero_extendqisi2
 1118 0008 3768     		ldr	r7, [r6, #0]
 1119 000a 0125     		movs	r5, #1
 1120 000c 05FA04FC 		lsl	ip, r5, r4
 1121 0010 1CEA070F 		tst	ip, r7
 1122 0014 3AD1     		bne	.L120
 1123              		.loc 1 470 0
 1124 0016 214D     		ldr	r5, .L130+4
 1125              		.loc 1 472 0
 1126 0018 4CEA0707 		orr	r7, ip, r7
 1127              		.loc 1 471 0
 1128 001c 05EBC408 		add	r8, r5, r4, lsl #3
 1129              		.loc 1 475 0
 1130 0020 17F0FF0F 		tst	r7, #255
 1131              		.loc 1 470 0
 1132 0024 45F83420 		str	r2, [r5, r4, lsl #3]
 1133              		.loc 1 471 0
 1134 0028 C8F80430 		str	r3, [r8, #4]
 1135              		.loc 1 472 0
 1136 002c 3760     		str	r7, [r6, #0]
 1137              		.loc 1 475 0
 1138 002e 07D0     		beq	.L117
 1139              		.loc 1 476 0
 1140 0030 4FF46053 		mov	r3, #14336
ARM GAS  /tmp/ccxWoBWC.s 			page 21


 1141              	.LVL66:
 1142 0034 C4F20203 		movt	r3, 16386
 1143 0038 1C6B     		ldr	r4, [r3, #48]
 1144 003a 44F40016 		orr	r6, r4, #2097152
 1145 003e 1E63     		str	r6, [r3, #48]
 1146              	.L117:
 1147              		.loc 1 477 0
 1148 0040 17F47F4F 		tst	r7, #65280
 1149 0044 19D1     		bne	.L129
 1150              	.L118:
 1151              		.loc 1 481 0
 1152 0046 0468     		ldr	r4, [r0, #0]
 1153 0048 2668     		ldr	r6, [r4, #0]
 1154 004a 26F01F05 		bic	r5, r6, #31
 1155 004e 2560     		str	r5, [r4, #0]
 1156              	.L119:
 1157              		.loc 1 481 0 is_stmt 0 discriminator 1
 1158 0050 2768     		ldr	r7, [r4, #0]
 1159 0052 17F00105 		ands	r5, r7, #1
 1160 0056 FBD1     		bne	.L119
 1161              		.loc 1 481 0 discriminator 2
 1162 0058 067A     		ldrb	r6, [r0, #8]	@ zero_extendqisi2
 1163 005a 4368     		ldr	r3, [r0, #4]
 1164 005c 3D27     		movs	r7, #61
 1165 005e 07FA06F6 		lsl	r6, r7, r6
 1166 0062 1E60     		str	r6, [r3, #0]
 1167              		.loc 1 483 0 is_stmt 1 discriminator 2
 1168 0064 2123     		movs	r3, #33
 1169              		.loc 1 482 0 discriminator 2
 1170 0066 2560     		str	r5, [r4, #0]
 1171              		.loc 1 483 0 discriminator 2
 1172 0068 6361     		str	r3, [r4, #20]
 1173              		.loc 1 486 0 discriminator 2
 1174 006a 92B1     		cbz	r2, .L121
 1175              		.loc 1 487 0
 1176 006c 807A     		ldrb	r0, [r0, #10]	@ zero_extendqisi2
 1177              	.LVL67:
 1178 006e 0901     		lsls	r1, r1, #4
 1179              	.LVL68:
 1180 0070 FFF7FEFF 		bl	nvicEnableVector
 1181              	.LVL69:
 1182              		.loc 1 489 0
 1183 0074 2846     		mov	r0, r5
 1184 0076 BDE8F081 		pop	{r4, r5, r6, r7, r8, pc}
 1185              	.LVL70:
 1186              	.L129:
 1187              		.loc 1 478 0
 1188 007a 4FF46055 		mov	r5, #14336
 1189 007e C4F20205 		movt	r5, 16386
 1190 0082 2F6B     		ldr	r7, [r5, #48]
 1191 0084 47F48003 		orr	r3, r7, #4194304
 1192 0088 2B63     		str	r3, [r5, #48]
 1193 008a DCE7     		b	.L118
 1194              	.LVL71:
 1195              	.L120:
 1196              		.loc 1 467 0
 1197 008c 2846     		mov	r0, r5
ARM GAS  /tmp/ccxWoBWC.s 			page 22


 1198              	.LVL72:
 1199 008e BDE8F081 		pop	{r4, r5, r6, r7, r8, pc}
 1200              	.LVL73:
 1201              	.L121:
 1202              		.loc 1 489 0
 1203 0092 1046     		mov	r0, r2
 1204              	.LVL74:
 1205              		.loc 1 490 0
 1206 0094 BDE8F081 		pop	{r4, r5, r6, r7, r8, pc}
 1207              	.L131:
 1208              		.align	2
 1209              	.L130:
 1210 0098 00000000 		.word	.LANCHOR1
 1211 009c 00000000 		.word	.LANCHOR0
 1212              		.cfi_endproc
 1213              	.LFE135:
 1214              		.size	dmaStreamAllocate, .-dmaStreamAllocate
 1215              		.section	.text.dmaStreamRelease,"ax",%progbits
 1216              		.align	2
 1217              		.p2align 4,,15
 1218              		.global	dmaStreamRelease
 1219              		.thumb
 1220              		.thumb_func
 1221              		.type	dmaStreamRelease, %function
 1222              	dmaStreamRelease:
 1223              	.LFB136:
 1224              		.loc 1 505 0
 1225              		.cfi_startproc
 1226              		@ args = 0, pretend = 0, frame = 0
 1227              		@ frame_needed = 0, uses_anonymous_args = 0
 1228              	.LVL75:
 1229 0000 10B5     		push	{r4, lr}
 1230              	.LCFI19:
 1231              		.cfi_def_cfa_offset 8
 1232              		.cfi_offset 4, -8
 1233              		.cfi_offset 14, -4
 1234              		.loc 1 505 0
 1235 0002 0446     		mov	r4, r0
 1236              		.loc 1 514 0
 1237 0004 807A     		ldrb	r0, [r0, #10]	@ zero_extendqisi2
 1238              	.LVL76:
 1239 0006 FFF7FEFF 		bl	nvicDisableVector
 1240              	.LVL77:
 1241              		.loc 1 517 0
 1242 000a 104A     		ldr	r2, .L135
 1243 000c 637A     		ldrb	r3, [r4, #9]	@ zero_extendqisi2
 1244 000e 1168     		ldr	r1, [r2, #0]
 1245 0010 0120     		movs	r0, #1
 1246 0012 00FA03F3 		lsl	r3, r0, r3
 1247 0016 21EA0300 		bic	r0, r1, r3
 1248              		.loc 1 520 0
 1249 001a 10F0FF0F 		tst	r0, #255
 1250              		.loc 1 517 0
 1251 001e 1060     		str	r0, [r2, #0]
 1252              		.loc 1 520 0
 1253 0020 07D1     		bne	.L133
 1254              		.loc 1 521 0
ARM GAS  /tmp/ccxWoBWC.s 			page 23


 1255 0022 4FF46052 		mov	r2, #14336
 1256 0026 C4F20202 		movt	r2, 16386
 1257 002a 116B     		ldr	r1, [r2, #48]
 1258 002c 21F40013 		bic	r3, r1, #2097152
 1259 0030 1363     		str	r3, [r2, #48]
 1260              	.L133:
 1261              		.loc 1 522 0
 1262 0032 10F47F4F 		tst	r0, #65280
 1263 0036 07D1     		bne	.L132
 1264              		.loc 1 523 0
 1265 0038 4FF46050 		mov	r0, #14336
 1266 003c C4F20200 		movt	r0, 16386
 1267 0040 026B     		ldr	r2, [r0, #48]
 1268 0042 22F48001 		bic	r1, r2, #4194304
 1269 0046 0163     		str	r1, [r0, #48]
 1270              	.L132:
 1271 0048 10BD     		pop	{r4, pc}
 1272              	.L136:
 1273 004a 00BF     		.align	2
 1274              	.L135:
 1275 004c 00000000 		.word	.LANCHOR1
 1276              		.cfi_endproc
 1277              	.LFE136:
 1278              		.size	dmaStreamRelease, .-dmaStreamRelease
 1279              		.global	_stm32_dma_streams
 1280              		.section	.bss.dma_isr_redir,"aw",%nobits
 1281              		.align	2
 1282              		.set	.LANCHOR0,. + 0
 1283              		.type	dma_isr_redir, %object
 1284              		.size	dma_isr_redir, 128
 1285              	dma_isr_redir:
 1286 0000 00000000 		.space	128
 1286      00000000 
 1286      00000000 
 1286      00000000 
 1286      00000000 
 1287              		.section	.rodata._stm32_dma_streams,"a",%progbits
 1288              		.align	2
 1289              		.type	_stm32_dma_streams, %object
 1290              		.size	_stm32_dma_streams, 192
 1291              	_stm32_dma_streams:
 1292 0000 10600240 		.word	1073897488
 1293 0004 08600240 		.word	1073897480
 1294 0008 00       		.byte	0
 1295 0009 00       		.byte	0
 1296 000a 0B       		.byte	11
 1297 000b 00       		.space	1
 1298 000c 28600240 		.word	1073897512
 1299 0010 08600240 		.word	1073897480
 1300 0014 06       		.byte	6
 1301 0015 01       		.byte	1
 1302 0016 0C       		.byte	12
 1303 0017 00       		.space	1
 1304 0018 40600240 		.word	1073897536
 1305 001c 08600240 		.word	1073897480
 1306 0020 10       		.byte	16
 1307 0021 02       		.byte	2
ARM GAS  /tmp/ccxWoBWC.s 			page 24


 1308 0022 0D       		.byte	13
 1309 0023 00       		.space	1
 1310 0024 58600240 		.word	1073897560
 1311 0028 08600240 		.word	1073897480
 1312 002c 16       		.byte	22
 1313 002d 03       		.byte	3
 1314 002e 0E       		.byte	14
 1315 002f 00       		.space	1
 1316 0030 70600240 		.word	1073897584
 1317 0034 0C600240 		.word	1073897484
 1318 0038 00       		.byte	0
 1319 0039 04       		.byte	4
 1320 003a 0F       		.byte	15
 1321 003b 00       		.space	1
 1322 003c 88600240 		.word	1073897608
 1323 0040 0C600240 		.word	1073897484
 1324 0044 06       		.byte	6
 1325 0045 05       		.byte	5
 1326 0046 10       		.byte	16
 1327 0047 00       		.space	1
 1328 0048 A0600240 		.word	1073897632
 1329 004c 0C600240 		.word	1073897484
 1330 0050 10       		.byte	16
 1331 0051 06       		.byte	6
 1332 0052 11       		.byte	17
 1333 0053 00       		.space	1
 1334 0054 B8600240 		.word	1073897656
 1335 0058 0C600240 		.word	1073897484
 1336 005c 16       		.byte	22
 1337 005d 07       		.byte	7
 1338 005e 2F       		.byte	47
 1339 005f 00       		.space	1
 1340 0060 10640240 		.word	1073898512
 1341 0064 08640240 		.word	1073898504
 1342 0068 00       		.byte	0
 1343 0069 08       		.byte	8
 1344 006a 38       		.byte	56
 1345 006b 00       		.space	1
 1346 006c 28640240 		.word	1073898536
 1347 0070 08640240 		.word	1073898504
 1348 0074 06       		.byte	6
 1349 0075 09       		.byte	9
 1350 0076 39       		.byte	57
 1351 0077 00       		.space	1
 1352 0078 40640240 		.word	1073898560
 1353 007c 08640240 		.word	1073898504
 1354 0080 10       		.byte	16
 1355 0081 0A       		.byte	10
 1356 0082 3A       		.byte	58
 1357 0083 00       		.space	1
 1358 0084 58640240 		.word	1073898584
 1359 0088 08640240 		.word	1073898504
 1360 008c 16       		.byte	22
 1361 008d 0B       		.byte	11
 1362 008e 3B       		.byte	59
 1363 008f 00       		.space	1
 1364 0090 70640240 		.word	1073898608
ARM GAS  /tmp/ccxWoBWC.s 			page 25


 1365 0094 0C640240 		.word	1073898508
 1366 0098 00       		.byte	0
 1367 0099 0C       		.byte	12
 1368 009a 3C       		.byte	60
 1369 009b 00       		.space	1
 1370 009c 88640240 		.word	1073898632
 1371 00a0 0C640240 		.word	1073898508
 1372 00a4 06       		.byte	6
 1373 00a5 0D       		.byte	13
 1374 00a6 44       		.byte	68
 1375 00a7 00       		.space	1
 1376 00a8 A0640240 		.word	1073898656
 1377 00ac 0C640240 		.word	1073898508
 1378 00b0 10       		.byte	16
 1379 00b1 0E       		.byte	14
 1380 00b2 45       		.byte	69
 1381 00b3 00       		.space	1
 1382 00b4 B8640240 		.word	1073898680
 1383 00b8 0C640240 		.word	1073898508
 1384 00bc 16       		.byte	22
 1385 00bd 0F       		.byte	15
 1386 00be 46       		.byte	70
 1387 00bf 00       		.space	1
 1388              		.section	.bss.dma_streams_mask,"aw",%nobits
 1389              		.align	2
 1390              		.set	.LANCHOR1,. + 0
 1391              		.type	dma_streams_mask, %object
 1392              		.size	dma_streams_mask, 4
 1393              	dma_streams_mask:
 1394 0000 00000000 		.space	4
 1395              		.text
 1396              	.Letext0:
 1397              		.file 2 "/usr/bin/../lib/gcc/arm-none-eabi/4.7.4/../../../../arm-none-eabi/include/stdint.h"
 1398              		.file 3 "../../os/ports/GCC/ARMCMx/chtypes.h"
 1399              		.file 4 "../../os/hal/platforms/STM32F4xx/stm32f4xx.h"
 1400              		.file 5 "../../os/hal/platforms/STM32F4xx/stm32_dma.h"
 1401              		.file 6 "../../os/ports/common/ARMCMx/CMSIS/include/core_cm4.h"
 1402              		.file 7 "../../os/ports/GCC/ARMCMx/chcore_v7m.h"
 1403              		.file 8 "../../os/ports/common/ARMCMx/nvic.h"