ARM GAS  /tmp/ccCrYZbl.s 			page 1


   1              		.syntax unified
   2              		.cpu cortex-m4
   3              		.eabi_attribute 27, 3
   4              		.eabi_attribute 28, 1
   5              		.fpu fpv4-sp-d16
   6              		.eabi_attribute 20, 1
   7              		.eabi_attribute 21, 1
   8              		.eabi_attribute 23, 3
   9              		.eabi_attribute 24, 1
  10              		.eabi_attribute 25, 1
  11              		.eabi_attribute 26, 1
  12              		.eabi_attribute 30, 2
  13              		.eabi_attribute 34, 1
  14              		.eabi_attribute 18, 4
  15              		.thumb
  16              		.file	"testthd.c"
  17              		.text
  18              	.Ltext0:
  19              		.cfi_sections	.debug_frame
  20              		.section	.text.thd3_execute,"ax",%progbits
  21              		.align	2
  22              		.p2align 4,,15
  23              		.thumb
  24              		.thumb_func
  25              		.type	thd3_execute, %function
  26              	thd3_execute:
  27              	.LFB10:
  28              		.file 1 "../../test/testthd.c"
  29              		.loc 1 126 0
  30              		.cfi_startproc
  31              		@ args = 0, pretend = 0, frame = 0
  32              		@ frame_needed = 0, uses_anonymous_args = 0
  33 0000 F8B5     		push	{r3, r4, r5, r6, r7, lr}
  34              	.LCFI0:
  35              		.cfi_def_cfa_offset 24
  36              		.cfi_offset 3, -24
  37              		.cfi_offset 4, -20
  38              		.cfi_offset 5, -16
  39              		.cfi_offset 6, -12
  40              		.cfi_offset 7, -8
  41              		.cfi_offset 14, -4
  42              		.loc 1 129 0
  43 0002 4D4E     		ldr	r6, .L7
  44 0004 B369     		ldr	r3, [r6, #24]
  45 0006 9C68     		ldr	r4, [r3, #8]
  46              	.LVL0:
  47              		.loc 1 130 0
  48 0008 651C     		adds	r5, r4, #1
  49 000a 2846     		mov	r0, r5
  50 000c FFF7FEFF 		bl	chThdSetPriority
  51              	.LVL1:
  52              		.loc 1 131 0
  53 0010 021B     		subs	r2, r0, r4
  54 0012 5142     		rsbs	r1, r2, #0
  55 0014 5141     		adcs	r1, r1, r2
  56              		.loc 1 130 0
  57 0016 0746     		mov	r7, r0
ARM GAS  /tmp/ccCrYZbl.s 			page 2


  58              	.LVL2:
  59              		.loc 1 131 0
  60 0018 0120     		movs	r0, #1
  61              	.LVL3:
  62 001a FFF7FEFF 		bl	_test_assert
  63              	.LVL4:
  64 001e 00B1     		cbz	r0, .L6
  65              	.LVL5:
  66              	.L1:
  67 0020 F8BD     		pop	{r3, r4, r5, r6, r7, pc}
  68              	.LVL6:
  69              	.L6:
  70              		.loc 1 133 0
  71 0022 B069     		ldr	r0, [r6, #24]
  72 0024 8368     		ldr	r3, [r0, #8]
  73 0026 0220     		movs	r0, #2
  74 0028 EA1A     		subs	r2, r5, r3
  75 002a 5142     		rsbs	r1, r2, #0
  76 002c 5141     		adcs	r1, r1, r2
  77 002e FFF7FEFF 		bl	_test_assert
  78              	.LVL7:
  79 0032 0028     		cmp	r0, #0
  80 0034 F4D1     		bne	.L1
  81              		.loc 1 135 0
  82 0036 3846     		mov	r0, r7
  83 0038 FFF7FEFF 		bl	chThdSetPriority
  84              	.LVL8:
  85              		.loc 1 136 0
  86 003c B5EB000C 		subs	ip, r5, r0
  87 0040 DCF10000 		rsbs	r0, ip, #0
  88              	.LVL9:
  89 0044 50EB0C01 		adcs	r1, r0, ip
  90 0048 0320     		movs	r0, #3
  91 004a FFF7FEFF 		bl	_test_assert
  92              	.LVL10:
  93 004e 0028     		cmp	r0, #0
  94 0050 E6D1     		bne	.L1
  95              		.loc 1 138 0
  96 0052 B369     		ldr	r3, [r6, #24]
  97 0054 9A68     		ldr	r2, [r3, #8]
  98 0056 0420     		movs	r0, #4
  99 0058 B2EB040E 		subs	lr, r2, r4
 100 005c DEF10001 		rsbs	r1, lr, #0
 101 0060 51EB0E01 		adcs	r1, r1, lr
 102 0064 FFF7FEFF 		bl	_test_assert
 103              	.LVL11:
 104 0068 0028     		cmp	r0, #0
 105 006a D9D1     		bne	.L1
 106              	.LBB2:
 107              		.loc 1 143 0
 108 006c 2023     		movs	r3, #32
 109              	.LVL12:
 110              	@ 143 "../../test/testthd.c" 1
 111 006e 83F31188 		msr     BASEPRI, r3
 112              	@ 0 "" 2
 113              	.LVL13:
 114              		.thumb
ARM GAS  /tmp/ccCrYZbl.s 			page 3


 115              	.LBE2:
 116              		.loc 1 144 0
 117 0072 B769     		ldr	r7, [r6, #24]
 118 0074 BB68     		ldr	r3, [r7, #8]
 119              	.LVL14:
 120 0076 9A1C     		adds	r2, r3, #2
 121 0078 BA60     		str	r2, [r7, #8]
 122              	.LBB3:
 123              		.loc 1 145 0
 124 007a 0346     		mov	r3, r0
 125              	.LVL15:
 126              	@ 145 "../../test/testthd.c" 1
 127 007c 83F31188 		msr     BASEPRI, r3
 128              	@ 0 "" 2
 129              	.LVL16:
 130              		.thumb
 131              	.LBE3:
 132              		.loc 1 146 0
 133 0080 B069     		ldr	r0, [r6, #24]
 134 0082 8168     		ldr	r1, [r0, #8]
 135 0084 A71C     		adds	r7, r4, #2
 136 0086 0520     		movs	r0, #5
 137 0088 CB1B     		subs	r3, r1, r7
 138              	.LVL17:
 139 008a 5A42     		rsbs	r2, r3, #0
 140 008c 52EB0301 		adcs	r1, r2, r3
 141 0090 FFF7FEFF 		bl	_test_assert
 142              	.LVL18:
 143 0094 0028     		cmp	r0, #0
 144 0096 C3D1     		bne	.L1
 145              		.loc 1 150 0
 146 0098 2846     		mov	r0, r5
 147 009a FFF7FEFF 		bl	chThdSetPriority
 148              	.LVL19:
 149              		.loc 1 151 0
 150 009e 001B     		subs	r0, r0, r4
 151              	.LVL20:
 152 00a0 4142     		rsbs	r1, r0, #0
 153 00a2 4141     		adcs	r1, r1, r0
 154 00a4 0620     		movs	r0, #6
 155 00a6 FFF7FEFF 		bl	_test_assert
 156              	.LVL21:
 157 00aa 0028     		cmp	r0, #0
 158 00ac B8D1     		bne	.L1
 159              		.loc 1 153 0
 160 00ae B369     		ldr	r3, [r6, #24]
 161 00b0 9A68     		ldr	r2, [r3, #8]
 162 00b2 0720     		movs	r0, #7
 163 00b4 B7EB020C 		subs	ip, r7, r2
 164 00b8 DCF10001 		rsbs	r1, ip, #0
 165 00bc 51EB0C01 		adcs	r1, r1, ip
 166 00c0 FFF7FEFF 		bl	_test_assert
 167              	.LVL22:
 168 00c4 0028     		cmp	r0, #0
 169 00c6 ABD1     		bne	.L1
 170              		.loc 1 155 0
 171 00c8 B069     		ldr	r0, [r6, #24]
ARM GAS  /tmp/ccCrYZbl.s 			page 4


 172 00ca 036C     		ldr	r3, [r0, #64]
 173 00cc 0820     		movs	r0, #8
 174 00ce B5EB030E 		subs	lr, r5, r3
 175 00d2 DEF10002 		rsbs	r2, lr, #0
 176 00d6 52EB0E01 		adcs	r1, r2, lr
 177 00da FFF7FEFF 		bl	_test_assert
 178              	.LVL23:
 179 00de 0028     		cmp	r0, #0
 180 00e0 9ED1     		bne	.L1
 181              		.loc 1 159 0
 182 00e2 E71C     		adds	r7, r4, #3
 183 00e4 3846     		mov	r0, r7
 184 00e6 FFF7FEFF 		bl	chThdSetPriority
 185              	.LVL24:
 186              		.loc 1 160 0
 187 00ea 281A     		subs	r0, r5, r0
 188              	.LVL25:
 189 00ec 4142     		rsbs	r1, r0, #0
 190 00ee 4141     		adcs	r1, r1, r0
 191 00f0 0920     		movs	r0, #9
 192 00f2 FFF7FEFF 		bl	_test_assert
 193              	.LVL26:
 194 00f6 0028     		cmp	r0, #0
 195 00f8 92D1     		bne	.L1
 196              		.loc 1 162 0
 197 00fa B369     		ldr	r3, [r6, #24]
 198 00fc 9A68     		ldr	r2, [r3, #8]
 199 00fe 0A20     		movs	r0, #10
 200 0100 BB1A     		subs	r3, r7, r2
 201 0102 5942     		rsbs	r1, r3, #0
 202 0104 5941     		adcs	r1, r1, r3
 203 0106 FFF7FEFF 		bl	_test_assert
 204              	.LVL27:
 205 010a 0028     		cmp	r0, #0
 206 010c 88D1     		bne	.L1
 207              		.loc 1 164 0
 208 010e B069     		ldr	r0, [r6, #24]
 209 0110 026C     		ldr	r2, [r0, #64]
 210 0112 0B20     		movs	r0, #11
 211 0114 BB1A     		subs	r3, r7, r2
 212 0116 5942     		rsbs	r1, r3, #0
 213 0118 5941     		adcs	r1, r1, r3
 214 011a FFF7FEFF 		bl	_test_assert
 215              	.LVL28:
 216 011e 0028     		cmp	r0, #0
 217 0120 7FF47EAF 		bne	.L1
 218              	.LBB4:
 219              		.loc 1 167 0
 220 0124 2023     		movs	r3, #32
 221              	.LVL29:
 222              	@ 167 "../../test/testthd.c" 1
 223 0126 83F31188 		msr     BASEPRI, r3
 224              	@ 0 "" 2
 225              	.LVL30:
 226              		.thumb
 227              	.LBE4:
 228              		.loc 1 168 0
ARM GAS  /tmp/ccCrYZbl.s 			page 5


 229 012a B169     		ldr	r1, [r6, #24]
 230              	.LBB5:
 231              		.loc 1 170 0
 232 012c 0346     		mov	r3, r0
 233              	.LVL31:
 234              	.LBE5:
 235              		.loc 1 168 0
 236 012e 8C60     		str	r4, [r1, #8]
 237              		.loc 1 169 0
 238 0130 0C64     		str	r4, [r1, #64]
 239              	.LBB6:
 240              		.loc 1 170 0
 241              	@ 170 "../../test/testthd.c" 1
 242 0132 83F31188 		msr     BASEPRI, r3
 243              	@ 0 "" 2
 244              	.LVL32:
 245              		.thumb
 246 0136 73E7     		b	.L1
 247              	.L8:
 248              		.align	2
 249              	.L7:
 250 0138 00000000 		.word	rlist
 251              	.LBE6:
 252              		.cfi_endproc
 253              	.LFE10:
 254              		.size	thd3_execute, .-thd3_execute
 255 013c AFF30080 		.section	.text.thd2_execute,"ax",%progbits
 256              		.align	2
 257              		.p2align 4,,15
 258              		.thumb
 259              		.thumb_func
 260              		.type	thd2_execute, %function
 261              	thd2_execute:
 262              	.LFB9:
 263              		.loc 1 94 0
 264              		.cfi_startproc
 265              		@ args = 0, pretend = 0, frame = 0
 266              		@ frame_needed = 0, uses_anonymous_args = 0
 267 0000 F0B5     		push	{r4, r5, r6, r7, lr}
 268              	.LCFI1:
 269              		.cfi_def_cfa_offset 20
 270              		.cfi_offset 4, -20
 271              		.cfi_offset 5, -16
 272              		.cfi_offset 6, -12
 273              		.cfi_offset 7, -8
 274              		.cfi_offset 14, -4
 275              		.loc 1 96 0
 276 0002 40F20007 		movw	r7, #:lower16:rlist
 277 0006 C0F20007 		movt	r7, #:upper16:rlist
 278 000a 40F20006 		movw	r6, #:lower16:wa
 279 000e BB69     		ldr	r3, [r7, #24]
 280              		.loc 1 94 0
 281 0010 83B0     		sub	sp, sp, #12
 282              	.LCFI2:
 283              		.cfi_def_cfa_offset 32
 284              		.loc 1 96 0
 285 0012 C0F20006 		movt	r6, #:upper16:wa
ARM GAS  /tmp/ccCrYZbl.s 			page 6


 286 0016 9A68     		ldr	r2, [r3, #8]
 287 0018 7068     		ldr	r0, [r6, #4]
 288 001a 40F20005 		movw	r5, #:lower16:thread
 289 001e 40F20001 		movw	r1, #:lower16:.LC0
 290 0022 C0F20005 		movt	r5, #:upper16:thread
 291 0026 C0F20001 		movt	r1, #:upper16:.LC0
 292 002a 043A     		subs	r2, r2, #4
 293 002c 2B46     		mov	r3, r5
 294 002e 0091     		str	r1, [sp, #0]
 295 0030 4FF4DC71 		mov	r1, #440
 296 0034 FFF7FEFF 		bl	chThdCreateStatic
 297              	.LVL33:
 298              		.loc 1 97 0
 299 0038 BC69     		ldr	r4, [r7, #24]
 300 003a 3168     		ldr	r1, [r6, #0]
 301 003c A368     		ldr	r3, [r4, #8]
 302              		.loc 1 96 0
 303 003e 40F20004 		movw	r4, #:lower16:threads
 304 0042 C0F20004 		movt	r4, #:upper16:threads
 305              		.loc 1 97 0
 306 0046 5A1F     		subs	r2, r3, #5
 307              		.loc 1 96 0
 308 0048 6060     		str	r0, [r4, #4]
 309              		.loc 1 97 0
 310 004a 40F20000 		movw	r0, #:lower16:.LC1
 311 004e C0F20000 		movt	r0, #:upper16:.LC1
 312 0052 2B46     		mov	r3, r5
 313 0054 0090     		str	r0, [sp, #0]
 314 0056 0846     		mov	r0, r1
 315 0058 4FF4DC71 		mov	r1, #440
 316 005c FFF7FEFF 		bl	chThdCreateStatic
 317              	.LVL34:
 318              		.loc 1 98 0
 319 0060 BA69     		ldr	r2, [r7, #24]
 320 0062 3169     		ldr	r1, [r6, #16]
 321 0064 9368     		ldr	r3, [r2, #8]
 322              		.loc 1 97 0
 323 0066 2060     		str	r0, [r4, #0]
 324              		.loc 1 98 0
 325 0068 40F20000 		movw	r0, #:lower16:.LC2
 326 006c C0F20000 		movt	r0, #:upper16:.LC2
 327 0070 5A1E     		subs	r2, r3, #1
 328 0072 0090     		str	r0, [sp, #0]
 329 0074 2B46     		mov	r3, r5
 330 0076 0846     		mov	r0, r1
 331 0078 4FF4DC71 		mov	r1, #440
 332 007c FFF7FEFF 		bl	chThdCreateStatic
 333              	.LVL35:
 334              		.loc 1 99 0
 335 0080 BA69     		ldr	r2, [r7, #24]
 336 0082 F168     		ldr	r1, [r6, #12]
 337 0084 9268     		ldr	r2, [r2, #8]
 338              		.loc 1 98 0
 339 0086 2061     		str	r0, [r4, #16]
 340              		.loc 1 99 0
 341 0088 40F20000 		movw	r0, #:lower16:.LC3
 342 008c C0F20000 		movt	r0, #:upper16:.LC3
ARM GAS  /tmp/ccCrYZbl.s 			page 7


 343 0090 2B46     		mov	r3, r5
 344 0092 0090     		str	r0, [sp, #0]
 345 0094 023A     		subs	r2, r2, #2
 346 0096 0846     		mov	r0, r1
 347 0098 4FF4DC71 		mov	r1, #440
 348 009c FFF7FEFF 		bl	chThdCreateStatic
 349              	.LVL36:
 350              	.LBB7:
 351              		.loc 1 101 0
 352 00a0 2023     		movs	r3, #32
 353              	.LVL37:
 354              	.LBE7:
 355              		.loc 1 99 0
 356 00a2 E060     		str	r0, [r4, #12]
 357              	.LBB8:
 358              		.loc 1 101 0
 359              	@ 101 "../../test/testthd.c" 1
 360 00a4 83F31188 		msr     BASEPRI, r3
 361              	@ 0 "" 2
 362              	.LVL38:
 363              		.thumb
 364              	.LBE8:
 365              		.loc 1 102 0
 366 00a8 BB69     		ldr	r3, [r7, #24]
 367              	.LVL39:
 368 00aa B068     		ldr	r0, [r6, #8]
 369 00ac 9A68     		ldr	r2, [r3, #8]
 370 00ae 40F20001 		movw	r1, #:lower16:.LC4
 371 00b2 C0F20001 		movt	r1, #:upper16:.LC4
 372 00b6 2B46     		mov	r3, r5
 373 00b8 0091     		str	r1, [sp, #0]
 374 00ba 033A     		subs	r2, r2, #3
 375 00bc 4FF4DC71 		mov	r1, #440
 376 00c0 FFF7FEFF 		bl	chThdCreateI
 377              	.LVL40:
 378              	.LBB9:
 379              		.loc 1 103 0
 380 00c4 0023     		movs	r3, #0
 381              	.LVL41:
 382              	.LBE9:
 383              		.loc 1 102 0
 384 00c6 A060     		str	r0, [r4, #8]
 385              	.LBB10:
 386              		.loc 1 103 0
 387              	@ 103 "../../test/testthd.c" 1
 388 00c8 83F31188 		msr     BASEPRI, r3
 389              	@ 0 "" 2
 390              	.LVL42:
 391              		.thumb
 392              	.LBE10:
 393              		.loc 1 104 0
 394 00cc A068     		ldr	r0, [r4, #8]
 395 00ce FFF7FEFF 		bl	chThdResume
 396              	.LVL43:
 397              		.loc 1 105 0
 398 00d2 FFF7FEFF 		bl	test_wait_threads
 399              	.LVL44:
ARM GAS  /tmp/ccCrYZbl.s 			page 8


 400              		.loc 1 106 0
 401 00d6 40F20001 		movw	r1, #:lower16:.LC5
 402 00da 0120     		movs	r0, #1
 403 00dc C0F20001 		movt	r1, #:upper16:.LC5
 404              		.loc 1 107 0
 405 00e0 03B0     		add	sp, sp, #12
 406 00e2 BDE8F040 		pop	{r4, r5, r6, r7, lr}
 407              		.loc 1 106 0
 408 00e6 FFF7FEBF 		b	_test_assert_sequence
 409              	.LVL45:
 410              		.cfi_endproc
 411              	.LFE9:
 412              		.size	thd2_execute, .-thd2_execute
 413 00ea 00BFAFF3 		.section	.text.thd1_execute,"ax",%progbits
 413      0080
 414              		.align	2
 415              		.p2align 4,,15
 416              		.thumb
 417              		.thumb_func
 418              		.type	thd1_execute, %function
 419              	thd1_execute:
 420              	.LFB8:
 421              		.loc 1 66 0
 422              		.cfi_startproc
 423              		@ args = 0, pretend = 0, frame = 0
 424              		@ frame_needed = 0, uses_anonymous_args = 0
 425 0000 2DE9F041 		push	{r4, r5, r6, r7, r8, lr}
 426              	.LCFI3:
 427              		.cfi_def_cfa_offset 24
 428              		.cfi_offset 4, -24
 429              		.cfi_offset 5, -20
 430              		.cfi_offset 6, -16
 431              		.cfi_offset 7, -12
 432              		.cfi_offset 8, -8
 433              		.cfi_offset 14, -4
 434              		.loc 1 68 0
 435 0004 40F20008 		movw	r8, #:lower16:rlist
 436 0008 C0F20008 		movt	r8, #:upper16:rlist
 437 000c 40F20006 		movw	r6, #:lower16:wa
 438 0010 D8F81830 		ldr	r3, [r8, #24]
 439              		.loc 1 66 0
 440 0014 82B0     		sub	sp, sp, #8
 441              	.LCFI4:
 442              		.cfi_def_cfa_offset 32
 443              		.loc 1 68 0
 444 0016 C0F20006 		movt	r6, #:upper16:wa
 445 001a 9A68     		ldr	r2, [r3, #8]
 446 001c 3068     		ldr	r0, [r6, #0]
 447 001e 40F20005 		movw	r5, #:lower16:thread
 448 0022 40F20004 		movw	r4, #:lower16:.LC1
 449 0026 C0F20005 		movt	r5, #:upper16:thread
 450 002a C0F20004 		movt	r4, #:upper16:.LC1
 451 002e 053A     		subs	r2, r2, #5
 452 0030 2B46     		mov	r3, r5
 453 0032 0094     		str	r4, [sp, #0]
 454 0034 4FF4DC71 		mov	r1, #440
 455 0038 FFF7FEFF 		bl	chThdCreateStatic
ARM GAS  /tmp/ccCrYZbl.s 			page 9


 456              	.LVL46:
 457 003c 40F20004 		movw	r4, #:lower16:threads
 458 0040 C0F20004 		movt	r4, #:upper16:threads
 459              		.loc 1 69 0
 460 0044 D8F81810 		ldr	r1, [r8, #24]
 461 0048 7768     		ldr	r7, [r6, #4]
 462 004a 8B68     		ldr	r3, [r1, #8]
 463              		.loc 1 68 0
 464 004c 2060     		str	r0, [r4, #0]
 465              		.loc 1 69 0
 466 004e 40F20000 		movw	r0, #:lower16:.LC0
 467 0052 C0F20000 		movt	r0, #:upper16:.LC0
 468 0056 1A1F     		subs	r2, r3, #4
 469 0058 0090     		str	r0, [sp, #0]
 470 005a 2B46     		mov	r3, r5
 471 005c 4FF4DC71 		mov	r1, #440
 472 0060 3846     		mov	r0, r7
 473 0062 FFF7FEFF 		bl	chThdCreateStatic
 474              	.LVL47:
 475              		.loc 1 70 0
 476 0066 D8F81820 		ldr	r2, [r8, #24]
 477 006a B768     		ldr	r7, [r6, #8]
 478 006c 9368     		ldr	r3, [r2, #8]
 479              		.loc 1 69 0
 480 006e 6060     		str	r0, [r4, #4]
 481              		.loc 1 70 0
 482 0070 40F20000 		movw	r0, #:lower16:.LC4
 483 0074 C0F20000 		movt	r0, #:upper16:.LC4
 484 0078 DA1E     		subs	r2, r3, #3
 485 007a 0090     		str	r0, [sp, #0]
 486 007c 2B46     		mov	r3, r5
 487 007e 4FF4DC71 		mov	r1, #440
 488 0082 3846     		mov	r0, r7
 489 0084 FFF7FEFF 		bl	chThdCreateStatic
 490              	.LVL48:
 491              		.loc 1 71 0
 492 0088 D8F81810 		ldr	r1, [r8, #24]
 493 008c F768     		ldr	r7, [r6, #12]
 494 008e 8A68     		ldr	r2, [r1, #8]
 495              		.loc 1 70 0
 496 0090 A060     		str	r0, [r4, #8]
 497              		.loc 1 71 0
 498 0092 40F20000 		movw	r0, #:lower16:.LC3
 499 0096 C0F20000 		movt	r0, #:upper16:.LC3
 500 009a 023A     		subs	r2, r2, #2
 501 009c 2B46     		mov	r3, r5
 502 009e 0090     		str	r0, [sp, #0]
 503 00a0 4FF4DC71 		mov	r1, #440
 504 00a4 3846     		mov	r0, r7
 505 00a6 FFF7FEFF 		bl	chThdCreateStatic
 506              	.LVL49:
 507              		.loc 1 72 0
 508 00aa D8F81830 		ldr	r3, [r8, #24]
 509 00ae 3669     		ldr	r6, [r6, #16]
 510 00b0 9A68     		ldr	r2, [r3, #8]
 511              		.loc 1 71 0
 512 00b2 E060     		str	r0, [r4, #12]
ARM GAS  /tmp/ccCrYZbl.s 			page 10


 513              		.loc 1 72 0
 514 00b4 40F20000 		movw	r0, #:lower16:.LC2
 515 00b8 C0F20000 		movt	r0, #:upper16:.LC2
 516 00bc 4FF4DC71 		mov	r1, #440
 517 00c0 013A     		subs	r2, r2, #1
 518 00c2 2B46     		mov	r3, r5
 519 00c4 0090     		str	r0, [sp, #0]
 520 00c6 3046     		mov	r0, r6
 521 00c8 FFF7FEFF 		bl	chThdCreateStatic
 522              	.LVL50:
 523 00cc 2061     		str	r0, [r4, #16]
 524              		.loc 1 73 0
 525 00ce FFF7FEFF 		bl	test_wait_threads
 526              	.LVL51:
 527              		.loc 1 74 0
 528 00d2 40F20001 		movw	r1, #:lower16:.LC5
 529 00d6 0120     		movs	r0, #1
 530 00d8 C0F20001 		movt	r1, #:upper16:.LC5
 531              		.loc 1 75 0
 532 00dc 02B0     		add	sp, sp, #8
 533 00de BDE8F041 		pop	{r4, r5, r6, r7, r8, lr}
 534              		.loc 1 74 0
 535 00e2 FFF7FEBF 		b	_test_assert_sequence
 536              	.LVL52:
 537              		.cfi_endproc
 538              	.LFE8:
 539              		.size	thd1_execute, .-thd1_execute
 540 00e6 00BFAFF3 		.section	.text.thread,"ax",%progbits
 540      0080AFF3 
 540      0080
 541              		.align	2
 542              		.p2align 4,,15
 543              		.thumb
 544              		.thumb_func
 545              		.type	thread, %function
 546              	thread:
 547              	.LFB7:
 548              		.loc 1 60 0
 549              		.cfi_startproc
 550              		@ args = 0, pretend = 0, frame = 0
 551              		@ frame_needed = 0, uses_anonymous_args = 0
 552              	.LVL53:
 553 0000 08B5     		push	{r3, lr}
 554              	.LCFI5:
 555              		.cfi_def_cfa_offset 8
 556              		.cfi_offset 3, -8
 557              		.cfi_offset 14, -4
 558              		.loc 1 62 0
 559 0002 0078     		ldrb	r0, [r0, #0]	@ zero_extendqisi2
 560              	.LVL54:
 561 0004 FFF7FEFF 		bl	test_emit_token
 562              	.LVL55:
 563              		.loc 1 64 0
 564 0008 0020     		movs	r0, #0
 565 000a 08BD     		pop	{r3, pc}
 566              		.cfi_endproc
 567              	.LFE7:
ARM GAS  /tmp/ccCrYZbl.s 			page 11


 568              		.size	thread, .-thread
 569 000c AFF30080 		.section	.text.thd4_execute,"ax",%progbits
 570              		.align	2
 571              		.p2align 4,,15
 572              		.thumb
 573              		.thumb_func
 574              		.type	thd4_execute, %function
 575              	thd4_execute:
 576              	.LFB11:
 577              		.loc 1 189 0
 578              		.cfi_startproc
 579              		@ args = 0, pretend = 0, frame = 0
 580              		@ frame_needed = 0, uses_anonymous_args = 0
 581 0000 38B5     		push	{r3, r4, r5, lr}
 582              	.LCFI6:
 583              		.cfi_def_cfa_offset 16
 584              		.cfi_offset 3, -16
 585              		.cfi_offset 4, -12
 586              		.cfi_offset 5, -8
 587              		.cfi_offset 14, -4
 588              		.loc 1 195 0
 589 0002 1C4D     		ldr	r5, .L17
 590              		.loc 1 192 0
 591 0004 FFF7FEFF 		bl	test_wait_tick
 592              	.LVL56:
 593              		.loc 1 195 0
 594 0008 EC68     		ldr	r4, [r5, #12]
 595              	.LVL57:
 596              		.loc 1 196 0
 597 000a 6420     		movs	r0, #100
 598 000c FFF7FEFF 		bl	chThdSleep
 599              	.LVL58:
 600              		.loc 1 197 0
 601 0010 0120     		movs	r0, #1
 602 0012 04F16401 		add	r1, r4, #100
 603 0016 04F16502 		add	r2, r4, #101
 604 001a FFF7FEFF 		bl	_test_assert_time_window
 605              	.LVL59:
 606 001e 00B1     		cbz	r0, .L16
 607              	.LVL60:
 608              	.L12:
 609 0020 38BD     		pop	{r3, r4, r5, pc}
 610              	.LVL61:
 611              	.L16:
 612              		.loc 1 200 0
 613 0022 EC68     		ldr	r4, [r5, #12]
 614              	.LVL62:
 615              		.loc 1 201 0
 616 0024 6420     		movs	r0, #100
 617 0026 FFF7FEFF 		bl	chThdSleep
 618              	.LVL63:
 619              		.loc 1 202 0
 620 002a 0220     		movs	r0, #2
 621 002c 04F16401 		add	r1, r4, #100
 622 0030 04F16502 		add	r2, r4, #101
 623 0034 FFF7FEFF 		bl	_test_assert_time_window
 624              	.LVL64:
ARM GAS  /tmp/ccCrYZbl.s 			page 12


 625 0038 0028     		cmp	r0, #0
 626 003a F1D1     		bne	.L12
 627              	.LBB13:
 628              	.LBB14:
 629              		.loc 1 205 0
 630 003c EC68     		ldr	r4, [r5, #12]
 631              	.LVL65:
 632              		.loc 1 206 0
 633 003e 4FF47A70 		mov	r0, #1000
 634 0042 FFF7FEFF 		bl	chThdSleep
 635              	.LVL66:
 636              		.loc 1 207 0
 637 0046 0320     		movs	r0, #3
 638 0048 04F57A71 		add	r1, r4, #1000
 639 004c 04F2E932 		addw	r2, r4, #1001
 640 0050 FFF7FEFF 		bl	_test_assert_time_window
 641              	.LVL67:
 642 0054 0028     		cmp	r0, #0
 643 0056 E3D1     		bne	.L12
 644              		.loc 1 210 0
 645 0058 EC68     		ldr	r4, [r5, #12]
 646              	.LVL68:
 647 005a 04F16405 		add	r5, r4, #100
 648              	.LVL69:
 649              		.loc 1 211 0
 650 005e 2846     		mov	r0, r5
 651 0060 FFF7FEFF 		bl	chThdSleepUntil
 652              	.LVL70:
 653              		.loc 1 212 0
 654 0064 0420     		movs	r0, #4
 655 0066 2946     		mov	r1, r5
 656 0068 04F16502 		add	r2, r4, #101
 657              	.LBE14:
 658              	.LBE13:
 659              		.loc 1 213 0
 660 006c BDE83840 		pop	{r3, r4, r5, lr}
 661              	.LBB16:
 662              	.LBB15:
 663              		.loc 1 212 0
 664 0070 FFF7FEBF 		b	_test_assert_time_window
 665              	.LVL71:
 666              	.L18:
 667              		.align	2
 668              	.L17:
 669 0074 00000000 		.word	vtlist
 670              	.LBE15:
 671              	.LBE16:
 672              		.cfi_endproc
 673              	.LFE11:
 674              		.size	thd4_execute, .-thd4_execute
 675              		.global	patternthd
 676              		.global	testthd4
 677              		.global	testthd3
 678              		.global	testthd2
 679              		.global	testthd1
 680 0078 AFF30080 		.section	.rodata.testthd1,"a",%progbits
 680      AFF30080 
ARM GAS  /tmp/ccCrYZbl.s 			page 13


 681              		.align	2
 682              		.type	testthd1, %object
 683              		.size	testthd1, 16
 684              	testthd1:
 685 0000 64000000 		.word	.LC9
 686 0004 00000000 		.word	0
 687 0008 00000000 		.word	0
 688 000c 00000000 		.word	thd1_execute
 689              		.section	.rodata.testthd2,"a",%progbits
 690              		.align	2
 691              		.type	testthd2, %object
 692              		.size	testthd2, 16
 693              	testthd2:
 694 0000 48000000 		.word	.LC8
 695 0004 00000000 		.word	0
 696 0008 00000000 		.word	0
 697 000c 00000000 		.word	thd2_execute
 698              		.section	.rodata.testthd3,"a",%progbits
 699              		.align	2
 700              		.type	testthd3, %object
 701              		.size	testthd3, 16
 702              	testthd3:
 703 0000 2C000000 		.word	.LC7
 704 0004 00000000 		.word	0
 705 0008 00000000 		.word	0
 706 000c 00000000 		.word	thd3_execute
 707              		.section	.rodata.testthd4,"a",%progbits
 708              		.align	2
 709              		.type	testthd4, %object
 710              		.size	testthd4, 16
 711              	testthd4:
 712 0000 1C000000 		.word	.LC6
 713 0004 00000000 		.word	0
 714 0008 00000000 		.word	0
 715 000c 00000000 		.word	thd4_execute
 716              		.section	.rodata.patternthd,"a",%progbits
 717              		.align	2
 718              		.type	patternthd, %object
 719              		.size	patternthd, 20
 720              	patternthd:
 721 0000 00000000 		.word	testthd1
 722 0004 00000000 		.word	testthd2
 723 0008 00000000 		.word	testthd3
 724 000c 00000000 		.word	testthd4
 725 0010 00000000 		.word	0
 726              		.section	.rodata.str1.4,"aMS",%progbits,1
 727              		.align	2
 728              	.LC0:
 729 0000 4400     		.ascii	"D\000"
 730 0002 0000     		.space	2
 731              	.LC1:
 732 0004 4500     		.ascii	"E\000"
 733 0006 0000     		.space	2
 734              	.LC2:
 735 0008 4100     		.ascii	"A\000"
 736 000a 0000     		.space	2
 737              	.LC3:
ARM GAS  /tmp/ccCrYZbl.s 			page 14


 738 000c 4200     		.ascii	"B\000"
 739 000e 0000     		.space	2
 740              	.LC4:
 741 0010 4300     		.ascii	"C\000"
 742 0012 0000     		.space	2
 743              	.LC5:
 744 0014 41424344 		.ascii	"ABCDE\000"
 744      4500
 745 001a 0000     		.space	2
 746              	.LC6:
 747 001c 54687265 		.ascii	"Threads, delays\000"
 747      6164732C 
 747      2064656C 
 747      61797300 
 748              	.LC7:
 749 002c 54687265 		.ascii	"Threads, priority change\000"
 749      6164732C 
 749      20707269 
 749      6F726974 
 749      79206368 
 750 0045 000000   		.space	3
 751              	.LC8:
 752 0048 54687265 		.ascii	"Threads, enqueuing test #2\000"
 752      6164732C 
 752      20656E71 
 752      75657569 
 752      6E672074 
 753 0063 00       		.space	1
 754              	.LC9:
 755 0064 54687265 		.ascii	"Threads, enqueuing test #1\000"
 755      6164732C 
 755      20656E71 
 755      75657569 
 755      6E672074 
 756 007f 00       		.text
 757              	.Letext0:
 758              		.file 2 "/usr/bin/../lib/gcc/arm-none-eabi/4.7.4/include/stddef.h"
 759              		.file 3 "/usr/bin/../lib/gcc/arm-none-eabi/4.7.4/../../../../arm-none-eabi/include/stdint.h"
 760              		.file 4 "../../os/ports/GCC/ARMCMx/chtypes.h"
 761              		.file 5 "../../os/kernel/include/chlists.h"
 762              		.file 6 "../../os/kernel/include/chthreads.h"
 763              		.file 7 "../../os/ports/GCC/ARMCMx/chcore_v7m.h"
 764              		.file 8 "../../os/kernel/include/chvt.h"
 765              		.file 9 "../../os/kernel/include/chschd.h"
 766              		.file 10 "../../os/kernel/include/chmtx.h"
 767              		.file 11 "../../test/test.h"
 768              		.section	.debug_info,"",%progbits
 769              	.Ldebug_info0:
 770 0000 240E0000 		.4byte	0xe24
 771 0004 0200     		.2byte	0x2
 772 0006 00000000 		.4byte	.Ldebug_abbrev0
 773 000a 04       		.byte	0x4
 774 000b 01       		.uleb128 0x1
 775 000c D1010000 		.4byte	.LASF102
 776 0010 01       		.byte	0x1
 777 0011 F2020000 		.4byte	.LASF103
 778 0015 28000000 		.4byte	.LASF104
ARM GAS  /tmp/ccCrYZbl.s 			page 15


 779 0019 78000000 		.4byte	.Ldebug_ranges0+0x78
 780 001d 00000000 		.4byte	0
 781 0021 00000000 		.4byte	0
 782 0025 00000000 		.4byte	.Ldebug_line0
 783 0029 02       		.uleb128 0x2
 784 002a 04       		.byte	0x4
 785 002b 05       		.byte	0x5
 786 002c 696E7400 		.ascii	"int\000"
 787 0030 03       		.uleb128 0x3
 788 0031 0E000000 		.4byte	.LASF2
 789 0035 02       		.byte	0x2
 790 0036 D5       		.byte	0xd5
 791 0037 3B000000 		.4byte	0x3b
 792 003b 04       		.uleb128 0x4
 793 003c 04       		.byte	0x4
 794 003d 07       		.byte	0x7
 795 003e 48010000 		.4byte	.LASF0
 796 0042 04       		.uleb128 0x4
 797 0043 01       		.byte	0x1
 798 0044 06       		.byte	0x6
 799 0045 8B000000 		.4byte	.LASF1
 800 0049 03       		.uleb128 0x3
 801 004a 60040000 		.4byte	.LASF3
 802 004e 03       		.byte	0x3
 803 004f 2A       		.byte	0x2a
 804 0050 54000000 		.4byte	0x54
 805 0054 04       		.uleb128 0x4
 806 0055 01       		.byte	0x1
 807 0056 08       		.byte	0x8
 808 0057 48030000 		.4byte	.LASF4
 809 005b 04       		.uleb128 0x4
 810 005c 02       		.byte	0x2
 811 005d 05       		.byte	0x5
 812 005e 6F030000 		.4byte	.LASF5
 813 0062 04       		.uleb128 0x4
 814 0063 02       		.byte	0x2
 815 0064 07       		.byte	0x7
 816 0065 92010000 		.4byte	.LASF6
 817 0069 03       		.uleb128 0x3
 818 006a 40030000 		.4byte	.LASF7
 819 006e 03       		.byte	0x3
 820 006f 4F       		.byte	0x4f
 821 0070 74000000 		.4byte	0x74
 822 0074 04       		.uleb128 0x4
 823 0075 04       		.byte	0x4
 824 0076 05       		.byte	0x5
 825 0077 D5000000 		.4byte	.LASF8
 826 007b 03       		.uleb128 0x3
 827 007c CB030000 		.4byte	.LASF9
 828 0080 03       		.byte	0x3
 829 0081 50       		.byte	0x50
 830 0082 86000000 		.4byte	0x86
 831 0086 04       		.uleb128 0x4
 832 0087 04       		.byte	0x4
 833 0088 07       		.byte	0x7
 834 0089 5D010000 		.4byte	.LASF10
 835 008d 04       		.uleb128 0x4
ARM GAS  /tmp/ccCrYZbl.s 			page 16


 836 008e 08       		.byte	0x8
 837 008f 05       		.byte	0x5
 838 0090 7D000000 		.4byte	.LASF11
 839 0094 04       		.uleb128 0x4
 840 0095 08       		.byte	0x8
 841 0096 07       		.byte	0x7
 842 0097 5F000000 		.4byte	.LASF12
 843 009b 03       		.uleb128 0x3
 844 009c 9F000000 		.4byte	.LASF13
 845 00a0 04       		.byte	0x4
 846 00a1 24       		.byte	0x24
 847 00a2 A6000000 		.4byte	0xa6
 848 00a6 04       		.uleb128 0x4
 849 00a7 01       		.byte	0x1
 850 00a8 02       		.byte	0x2
 851 00a9 3A030000 		.4byte	.LASF14
 852 00ad 03       		.uleb128 0x3
 853 00ae AB010000 		.4byte	.LASF15
 854 00b2 04       		.byte	0x4
 855 00b3 25       		.byte	0x25
 856 00b4 49000000 		.4byte	0x49
 857 00b8 03       		.uleb128 0x3
 858 00b9 DE000000 		.4byte	.LASF16
 859 00bd 04       		.byte	0x4
 860 00be 26       		.byte	0x26
 861 00bf 49000000 		.4byte	0x49
 862 00c3 03       		.uleb128 0x3
 863 00c4 07030000 		.4byte	.LASF17
 864 00c8 04       		.byte	0x4
 865 00c9 27       		.byte	0x27
 866 00ca 49000000 		.4byte	0x49
 867 00ce 03       		.uleb128 0x3
 868 00cf BE000000 		.4byte	.LASF18
 869 00d3 04       		.byte	0x4
 870 00d4 28       		.byte	0x28
 871 00d5 49000000 		.4byte	0x49
 872 00d9 03       		.uleb128 0x3
 873 00da 2B030000 		.4byte	.LASF19
 874 00de 04       		.byte	0x4
 875 00df 29       		.byte	0x29
 876 00e0 7B000000 		.4byte	0x7b
 877 00e4 03       		.uleb128 0x3
 878 00e5 A5010000 		.4byte	.LASF20
 879 00e9 04       		.byte	0x4
 880 00ea 2A       		.byte	0x2a
 881 00eb 69000000 		.4byte	0x69
 882 00ef 03       		.uleb128 0x3
 883 00f0 BF010000 		.4byte	.LASF21
 884 00f4 04       		.byte	0x4
 885 00f5 2C       		.byte	0x2c
 886 00f6 7B000000 		.4byte	0x7b
 887 00fa 03       		.uleb128 0x3
 888 00fb 00040000 		.4byte	.LASF22
 889 00ff 04       		.byte	0x4
 890 0100 2E       		.byte	0x2e
 891 0101 7B000000 		.4byte	0x7b
 892 0105 03       		.uleb128 0x3
ARM GAS  /tmp/ccCrYZbl.s 			page 17


 893 0106 B0030000 		.4byte	.LASF23
 894 010a 05       		.byte	0x5
 895 010b 23       		.byte	0x23
 896 010c 10010000 		.4byte	0x110
 897 0110 05       		.uleb128 0x5
 898 0111 B0030000 		.4byte	.LASF23
 899 0115 48       		.byte	0x48
 900 0116 06       		.byte	0x6
 901 0117 57       		.byte	0x57
 902 0118 35020000 		.4byte	0x235
 903 011c 06       		.uleb128 0x6
 904 011d A1030000 		.4byte	.LASF24
 905 0121 06       		.byte	0x6
 906 0122 58       		.byte	0x58
 907 0123 5A020000 		.4byte	0x25a
 908 0127 02       		.byte	0x2
 909 0128 23       		.byte	0x23
 910 0129 00       		.uleb128 0
 911 012a 06       		.uleb128 0x6
 912 012b 1C030000 		.4byte	.LASF25
 913 012f 06       		.byte	0x6
 914 0130 5A       		.byte	0x5a
 915 0131 5A020000 		.4byte	0x25a
 916 0135 02       		.byte	0x2
 917 0136 23       		.byte	0x23
 918 0137 04       		.uleb128 0x4
 919 0138 06       		.uleb128 0x6
 920 0139 76000000 		.4byte	.LASF26
 921 013d 06       		.byte	0x6
 922 013e 5C       		.byte	0x5c
 923 013f D9000000 		.4byte	0xd9
 924 0143 02       		.byte	0x2
 925 0144 23       		.byte	0x23
 926 0145 08       		.uleb128 0x8
 927 0146 06       		.uleb128 0x6
 928 0147 9D040000 		.4byte	.LASF27
 929 014b 06       		.byte	0x6
 930 014c 5D       		.byte	0x5d
 931 014d 18040000 		.4byte	0x418
 932 0151 02       		.byte	0x2
 933 0152 23       		.byte	0x23
 934 0153 0C       		.uleb128 0xc
 935 0154 06       		.uleb128 0x6
 936 0155 00010000 		.4byte	.LASF28
 937 0159 06       		.byte	0x6
 938 015a 5F       		.byte	0x5f
 939 015b 5A020000 		.4byte	0x25a
 940 015f 02       		.byte	0x2
 941 0160 23       		.byte	0x23
 942 0161 10       		.uleb128 0x10
 943 0162 06       		.uleb128 0x6
 944 0163 94020000 		.4byte	.LASF29
 945 0167 06       		.byte	0x6
 946 0168 60       		.byte	0x60
 947 0169 5A020000 		.4byte	0x25a
 948 016d 02       		.byte	0x2
 949 016e 23       		.byte	0x23
ARM GAS  /tmp/ccCrYZbl.s 			page 18


 950 016f 14       		.uleb128 0x14
 951 0170 06       		.uleb128 0x6
 952 0171 6F040000 		.4byte	.LASF30
 953 0175 06       		.byte	0x6
 954 0176 67       		.byte	0x67
 955 0177 F9050000 		.4byte	0x5f9
 956 017b 02       		.byte	0x2
 957 017c 23       		.byte	0x23
 958 017d 18       		.uleb128 0x18
 959 017e 06       		.uleb128 0x6
 960 017f 79030000 		.4byte	.LASF31
 961 0183 06       		.byte	0x6
 962 0184 72       		.byte	0x72
 963 0185 B8000000 		.4byte	0xb8
 964 0189 02       		.byte	0x2
 965 018a 23       		.byte	0x23
 966 018b 1C       		.uleb128 0x1c
 967 018c 06       		.uleb128 0x6
 968 018d A8030000 		.4byte	.LASF32
 969 0191 06       		.byte	0x6
 970 0192 76       		.byte	0x76
 971 0193 AD000000 		.4byte	0xad
 972 0197 02       		.byte	0x2
 973 0198 23       		.byte	0x23
 974 0199 1D       		.uleb128 0x1d
 975 019a 06       		.uleb128 0x6
 976 019b 49040000 		.4byte	.LASF33
 977 019f 06       		.byte	0x6
 978 01a0 7B       		.byte	0x7b
 979 01a1 C3000000 		.4byte	0xc3
 980 01a5 02       		.byte	0x2
 981 01a6 23       		.byte	0x23
 982 01a7 1E       		.uleb128 0x1e
 983 01a8 06       		.uleb128 0x6
 984 01a9 81030000 		.4byte	.LASF34
 985 01ad 06       		.byte	0x6
 986 01ae 81       		.byte	0x81
 987 01af CE000000 		.4byte	0xce
 988 01b3 02       		.byte	0x2
 989 01b4 23       		.byte	0x23
 990 01b5 1F       		.uleb128 0x1f
 991 01b6 06       		.uleb128 0x6
 992 01b7 1E040000 		.4byte	.LASF35
 993 01bb 06       		.byte	0x6
 994 01bc 88       		.byte	0x88
 995 01bd 04050000 		.4byte	0x504
 996 01c1 02       		.byte	0x2
 997 01c2 23       		.byte	0x23
 998 01c3 20       		.uleb128 0x20
 999 01c4 07       		.uleb128 0x7
 1000 01c5 705F7500 		.ascii	"p_u\000"
 1001 01c9 06       		.byte	0x6
 1002 01ca AD       		.byte	0xad
 1003 01cb C4050000 		.4byte	0x5c4
 1004 01cf 02       		.byte	0x2
 1005 01d0 23       		.byte	0x23
 1006 01d1 24       		.uleb128 0x24
ARM GAS  /tmp/ccCrYZbl.s 			page 19


 1007 01d2 06       		.uleb128 0x6
 1008 01d3 A3040000 		.4byte	.LASF36
 1009 01d7 06       		.byte	0x6
 1010 01d8 B2       		.byte	0xb2
 1011 01d9 82020000 		.4byte	0x282
 1012 01dd 02       		.byte	0x2
 1013 01de 23       		.byte	0x23
 1014 01df 28       		.uleb128 0x28
 1015 01e0 06       		.uleb128 0x6
 1016 01e1 2C040000 		.4byte	.LASF37
 1017 01e5 06       		.byte	0x6
 1018 01e6 B8       		.byte	0xb8
 1019 01e7 60020000 		.4byte	0x260
 1020 01eb 02       		.byte	0x2
 1021 01ec 23       		.byte	0x23
 1022 01ed 2C       		.uleb128 0x2c
 1023 01ee 06       		.uleb128 0x6
 1024 01ef 08000000 		.4byte	.LASF38
 1025 01f3 06       		.byte	0x6
 1026 01f4 BC       		.byte	0xbc
 1027 01f5 E4000000 		.4byte	0xe4
 1028 01f9 02       		.byte	0x2
 1029 01fa 23       		.byte	0x23
 1030 01fb 34       		.uleb128 0x34
 1031 01fc 06       		.uleb128 0x6
 1032 01fd C0030000 		.4byte	.LASF39
 1033 0201 06       		.byte	0x6
 1034 0202 C2       		.byte	0xc2
 1035 0203 EF000000 		.4byte	0xef
 1036 0207 02       		.byte	0x2
 1037 0208 23       		.byte	0x23
 1038 0209 38       		.uleb128 0x38
 1039 020a 06       		.uleb128 0x6
 1040 020b 65030000 		.4byte	.LASF40
 1041 020f 06       		.byte	0x6
 1042 0210 C9       		.byte	0xc9
 1043 0211 0B060000 		.4byte	0x60b
 1044 0215 02       		.byte	0x2
 1045 0216 23       		.byte	0x23
 1046 0217 3C       		.uleb128 0x3c
 1047 0218 06       		.uleb128 0x6
 1048 0219 0A040000 		.4byte	.LASF41
 1049 021d 06       		.byte	0x6
 1050 021e CD       		.byte	0xcd
 1051 021f D9000000 		.4byte	0xd9
 1052 0223 02       		.byte	0x2
 1053 0224 23       		.byte	0x23
 1054 0225 40       		.uleb128 0x40
 1055 0226 06       		.uleb128 0x6
 1056 0227 97000000 		.4byte	.LASF42
 1057 022b 06       		.byte	0x6
 1058 022c D3       		.byte	0xd3
 1059 022d 98020000 		.4byte	0x298
 1060 0231 02       		.byte	0x2
 1061 0232 23       		.byte	0x23
 1062 0233 44       		.uleb128 0x44
 1063 0234 00       		.byte	0
ARM GAS  /tmp/ccCrYZbl.s 			page 20


 1064 0235 08       		.uleb128 0x8
 1065 0236 08       		.byte	0x8
 1066 0237 05       		.byte	0x5
 1067 0238 5A       		.byte	0x5a
 1068 0239 5A020000 		.4byte	0x25a
 1069 023d 06       		.uleb128 0x6
 1070 023e A1030000 		.4byte	.LASF24
 1071 0242 05       		.byte	0x5
 1072 0243 5B       		.byte	0x5b
 1073 0244 5A020000 		.4byte	0x25a
 1074 0248 02       		.byte	0x2
 1075 0249 23       		.byte	0x23
 1076 024a 00       		.uleb128 0
 1077 024b 06       		.uleb128 0x6
 1078 024c 1C030000 		.4byte	.LASF25
 1079 0250 05       		.byte	0x5
 1080 0251 5D       		.byte	0x5d
 1081 0252 5A020000 		.4byte	0x25a
 1082 0256 02       		.byte	0x2
 1083 0257 23       		.byte	0x23
 1084 0258 04       		.uleb128 0x4
 1085 0259 00       		.byte	0
 1086 025a 09       		.uleb128 0x9
 1087 025b 04       		.byte	0x4
 1088 025c 05010000 		.4byte	0x105
 1089 0260 03       		.uleb128 0x3
 1090 0261 A2020000 		.4byte	.LASF43
 1091 0265 05       		.byte	0x5
 1092 0266 5F       		.byte	0x5f
 1093 0267 35020000 		.4byte	0x235
 1094 026b 08       		.uleb128 0x8
 1095 026c 04       		.byte	0x4
 1096 026d 05       		.byte	0x5
 1097 026e 64       		.byte	0x64
 1098 026f 82020000 		.4byte	0x282
 1099 0273 06       		.uleb128 0x6
 1100 0274 A1030000 		.4byte	.LASF24
 1101 0278 05       		.byte	0x5
 1102 0279 66       		.byte	0x66
 1103 027a 5A020000 		.4byte	0x25a
 1104 027e 02       		.byte	0x2
 1105 027f 23       		.byte	0x23
 1106 0280 00       		.uleb128 0
 1107 0281 00       		.byte	0
 1108 0282 03       		.uleb128 0x3
 1109 0283 B3010000 		.4byte	.LASF44
 1110 0287 05       		.byte	0x5
 1111 0288 69       		.byte	0x69
 1112 0289 6B020000 		.4byte	0x26b
 1113 028d 03       		.uleb128 0x3
 1114 028e 2A010000 		.4byte	.LASF45
 1115 0292 07       		.byte	0x7
 1116 0293 DE       		.byte	0xde
 1117 0294 98020000 		.4byte	0x298
 1118 0298 0A       		.uleb128 0xa
 1119 0299 04       		.byte	0x4
 1120 029a 0B       		.uleb128 0xb
ARM GAS  /tmp/ccCrYZbl.s 			page 21


 1121 029b 25040000 		.4byte	.LASF46
 1122 029f 64       		.byte	0x64
 1123 02a0 07       		.byte	0x7
 1124 02a1 0501     		.2byte	0x105
 1125 02a3 18040000 		.4byte	0x418
 1126 02a7 0C       		.uleb128 0xc
 1127 02a8 73313600 		.ascii	"s16\000"
 1128 02ac 07       		.byte	0x7
 1129 02ad 0701     		.2byte	0x107
 1130 02af 8D020000 		.4byte	0x28d
 1131 02b3 02       		.byte	0x2
 1132 02b4 23       		.byte	0x23
 1133 02b5 00       		.uleb128 0
 1134 02b6 0C       		.uleb128 0xc
 1135 02b7 73313700 		.ascii	"s17\000"
 1136 02bb 07       		.byte	0x7
 1137 02bc 0801     		.2byte	0x108
 1138 02be 8D020000 		.4byte	0x28d
 1139 02c2 02       		.byte	0x2
 1140 02c3 23       		.byte	0x23
 1141 02c4 04       		.uleb128 0x4
 1142 02c5 0C       		.uleb128 0xc
 1143 02c6 73313800 		.ascii	"s18\000"
 1144 02ca 07       		.byte	0x7
 1145 02cb 0901     		.2byte	0x109
 1146 02cd 8D020000 		.4byte	0x28d
 1147 02d1 02       		.byte	0x2
 1148 02d2 23       		.byte	0x23
 1149 02d3 08       		.uleb128 0x8
 1150 02d4 0C       		.uleb128 0xc
 1151 02d5 73313900 		.ascii	"s19\000"
 1152 02d9 07       		.byte	0x7
 1153 02da 0A01     		.2byte	0x10a
 1154 02dc 8D020000 		.4byte	0x28d
 1155 02e0 02       		.byte	0x2
 1156 02e1 23       		.byte	0x23
 1157 02e2 0C       		.uleb128 0xc
 1158 02e3 0C       		.uleb128 0xc
 1159 02e4 73323000 		.ascii	"s20\000"
 1160 02e8 07       		.byte	0x7
 1161 02e9 0B01     		.2byte	0x10b
 1162 02eb 8D020000 		.4byte	0x28d
 1163 02ef 02       		.byte	0x2
 1164 02f0 23       		.byte	0x23
 1165 02f1 10       		.uleb128 0x10
 1166 02f2 0C       		.uleb128 0xc
 1167 02f3 73323100 		.ascii	"s21\000"
 1168 02f7 07       		.byte	0x7
 1169 02f8 0C01     		.2byte	0x10c
 1170 02fa 8D020000 		.4byte	0x28d
 1171 02fe 02       		.byte	0x2
 1172 02ff 23       		.byte	0x23
 1173 0300 14       		.uleb128 0x14
 1174 0301 0C       		.uleb128 0xc
 1175 0302 73323200 		.ascii	"s22\000"
 1176 0306 07       		.byte	0x7
 1177 0307 0D01     		.2byte	0x10d
ARM GAS  /tmp/ccCrYZbl.s 			page 22


 1178 0309 8D020000 		.4byte	0x28d
 1179 030d 02       		.byte	0x2
 1180 030e 23       		.byte	0x23
 1181 030f 18       		.uleb128 0x18
 1182 0310 0C       		.uleb128 0xc
 1183 0311 73323300 		.ascii	"s23\000"
 1184 0315 07       		.byte	0x7
 1185 0316 0E01     		.2byte	0x10e
 1186 0318 8D020000 		.4byte	0x28d
 1187 031c 02       		.byte	0x2
 1188 031d 23       		.byte	0x23
 1189 031e 1C       		.uleb128 0x1c
 1190 031f 0C       		.uleb128 0xc
 1191 0320 73323400 		.ascii	"s24\000"
 1192 0324 07       		.byte	0x7
 1193 0325 0F01     		.2byte	0x10f
 1194 0327 8D020000 		.4byte	0x28d
 1195 032b 02       		.byte	0x2
 1196 032c 23       		.byte	0x23
 1197 032d 20       		.uleb128 0x20
 1198 032e 0C       		.uleb128 0xc
 1199 032f 73323500 		.ascii	"s25\000"
 1200 0333 07       		.byte	0x7
 1201 0334 1001     		.2byte	0x110
 1202 0336 8D020000 		.4byte	0x28d
 1203 033a 02       		.byte	0x2
 1204 033b 23       		.byte	0x23
 1205 033c 24       		.uleb128 0x24
 1206 033d 0C       		.uleb128 0xc
 1207 033e 73323600 		.ascii	"s26\000"
 1208 0342 07       		.byte	0x7
 1209 0343 1101     		.2byte	0x111
 1210 0345 8D020000 		.4byte	0x28d
 1211 0349 02       		.byte	0x2
 1212 034a 23       		.byte	0x23
 1213 034b 28       		.uleb128 0x28
 1214 034c 0C       		.uleb128 0xc
 1215 034d 73323700 		.ascii	"s27\000"
 1216 0351 07       		.byte	0x7
 1217 0352 1201     		.2byte	0x112
 1218 0354 8D020000 		.4byte	0x28d
 1219 0358 02       		.byte	0x2
 1220 0359 23       		.byte	0x23
 1221 035a 2C       		.uleb128 0x2c
 1222 035b 0C       		.uleb128 0xc
 1223 035c 73323800 		.ascii	"s28\000"
 1224 0360 07       		.byte	0x7
 1225 0361 1301     		.2byte	0x113
 1226 0363 8D020000 		.4byte	0x28d
 1227 0367 02       		.byte	0x2
 1228 0368 23       		.byte	0x23
 1229 0369 30       		.uleb128 0x30
 1230 036a 0C       		.uleb128 0xc
 1231 036b 73323900 		.ascii	"s29\000"
 1232 036f 07       		.byte	0x7
 1233 0370 1401     		.2byte	0x114
 1234 0372 8D020000 		.4byte	0x28d
ARM GAS  /tmp/ccCrYZbl.s 			page 23


 1235 0376 02       		.byte	0x2
 1236 0377 23       		.byte	0x23
 1237 0378 34       		.uleb128 0x34
 1238 0379 0C       		.uleb128 0xc
 1239 037a 73333000 		.ascii	"s30\000"
 1240 037e 07       		.byte	0x7
 1241 037f 1501     		.2byte	0x115
 1242 0381 8D020000 		.4byte	0x28d
 1243 0385 02       		.byte	0x2
 1244 0386 23       		.byte	0x23
 1245 0387 38       		.uleb128 0x38
 1246 0388 0C       		.uleb128 0xc
 1247 0389 73333100 		.ascii	"s31\000"
 1248 038d 07       		.byte	0x7
 1249 038e 1601     		.2byte	0x116
 1250 0390 8D020000 		.4byte	0x28d
 1251 0394 02       		.byte	0x2
 1252 0395 23       		.byte	0x23
 1253 0396 3C       		.uleb128 0x3c
 1254 0397 0C       		.uleb128 0xc
 1255 0398 723400   		.ascii	"r4\000"
 1256 039b 07       		.byte	0x7
 1257 039c 1801     		.2byte	0x118
 1258 039e 8D020000 		.4byte	0x28d
 1259 03a2 02       		.byte	0x2
 1260 03a3 23       		.byte	0x23
 1261 03a4 40       		.uleb128 0x40
 1262 03a5 0C       		.uleb128 0xc
 1263 03a6 723500   		.ascii	"r5\000"
 1264 03a9 07       		.byte	0x7
 1265 03aa 1901     		.2byte	0x119
 1266 03ac 8D020000 		.4byte	0x28d
 1267 03b0 02       		.byte	0x2
 1268 03b1 23       		.byte	0x23
 1269 03b2 44       		.uleb128 0x44
 1270 03b3 0C       		.uleb128 0xc
 1271 03b4 723600   		.ascii	"r6\000"
 1272 03b7 07       		.byte	0x7
 1273 03b8 1A01     		.2byte	0x11a
 1274 03ba 8D020000 		.4byte	0x28d
 1275 03be 02       		.byte	0x2
 1276 03bf 23       		.byte	0x23
 1277 03c0 48       		.uleb128 0x48
 1278 03c1 0C       		.uleb128 0xc
 1279 03c2 723700   		.ascii	"r7\000"
 1280 03c5 07       		.byte	0x7
 1281 03c6 1B01     		.2byte	0x11b
 1282 03c8 8D020000 		.4byte	0x28d
 1283 03cc 02       		.byte	0x2
 1284 03cd 23       		.byte	0x23
 1285 03ce 4C       		.uleb128 0x4c
 1286 03cf 0C       		.uleb128 0xc
 1287 03d0 723800   		.ascii	"r8\000"
 1288 03d3 07       		.byte	0x7
 1289 03d4 1C01     		.2byte	0x11c
 1290 03d6 8D020000 		.4byte	0x28d
 1291 03da 02       		.byte	0x2
ARM GAS  /tmp/ccCrYZbl.s 			page 24


 1292 03db 23       		.byte	0x23
 1293 03dc 50       		.uleb128 0x50
 1294 03dd 0C       		.uleb128 0xc
 1295 03de 723900   		.ascii	"r9\000"
 1296 03e1 07       		.byte	0x7
 1297 03e2 1D01     		.2byte	0x11d
 1298 03e4 8D020000 		.4byte	0x28d
 1299 03e8 02       		.byte	0x2
 1300 03e9 23       		.byte	0x23
 1301 03ea 54       		.uleb128 0x54
 1302 03eb 0C       		.uleb128 0xc
 1303 03ec 72313000 		.ascii	"r10\000"
 1304 03f0 07       		.byte	0x7
 1305 03f1 1E01     		.2byte	0x11e
 1306 03f3 8D020000 		.4byte	0x28d
 1307 03f7 02       		.byte	0x2
 1308 03f8 23       		.byte	0x23
 1309 03f9 58       		.uleb128 0x58
 1310 03fa 0C       		.uleb128 0xc
 1311 03fb 72313100 		.ascii	"r11\000"
 1312 03ff 07       		.byte	0x7
 1313 0400 1F01     		.2byte	0x11f
 1314 0402 8D020000 		.4byte	0x28d
 1315 0406 02       		.byte	0x2
 1316 0407 23       		.byte	0x23
 1317 0408 5C       		.uleb128 0x5c
 1318 0409 0C       		.uleb128 0xc
 1319 040a 6C7200   		.ascii	"lr\000"
 1320 040d 07       		.byte	0x7
 1321 040e 2001     		.2byte	0x120
 1322 0410 8D020000 		.4byte	0x28d
 1323 0414 02       		.byte	0x2
 1324 0415 23       		.byte	0x23
 1325 0416 60       		.uleb128 0x60
 1326 0417 00       		.byte	0
 1327 0418 0B       		.uleb128 0xb
 1328 0419 8A010000 		.4byte	.LASF47
 1329 041d 04       		.byte	0x4
 1330 041e 07       		.byte	0x7
 1331 041f 2A01     		.2byte	0x12a
 1332 0421 35040000 		.4byte	0x435
 1333 0425 0C       		.uleb128 0xc
 1334 0426 72313300 		.ascii	"r13\000"
 1335 042a 07       		.byte	0x7
 1336 042b 2B01     		.2byte	0x12b
 1337 042d 35040000 		.4byte	0x435
 1338 0431 02       		.byte	0x2
 1339 0432 23       		.byte	0x23
 1340 0433 00       		.uleb128 0
 1341 0434 00       		.byte	0
 1342 0435 09       		.uleb128 0x9
 1343 0436 04       		.byte	0x4
 1344 0437 9A020000 		.4byte	0x29a
 1345 043b 04       		.uleb128 0x4
 1346 043c 04       		.byte	0x4
 1347 043d 07       		.byte	0x7
 1348 043e 41020000 		.4byte	.LASF48
ARM GAS  /tmp/ccCrYZbl.s 			page 25


 1349 0442 03       		.uleb128 0x3
 1350 0443 15040000 		.4byte	.LASF49
 1351 0447 08       		.byte	0x8
 1352 0448 51       		.byte	0x51
 1353 0449 4D040000 		.4byte	0x44d
 1354 044d 09       		.uleb128 0x9
 1355 044e 04       		.byte	0x4
 1356 044f 53040000 		.4byte	0x453
 1357 0453 0D       		.uleb128 0xd
 1358 0454 01       		.byte	0x1
 1359 0455 5F040000 		.4byte	0x45f
 1360 0459 0E       		.uleb128 0xe
 1361 045a 98020000 		.4byte	0x298
 1362 045e 00       		.byte	0
 1363 045f 03       		.uleb128 0x3
 1364 0460 7D010000 		.4byte	.LASF50
 1365 0464 08       		.byte	0x8
 1366 0465 56       		.byte	0x56
 1367 0466 6A040000 		.4byte	0x46a
 1368 046a 05       		.uleb128 0x5
 1369 046b 7D010000 		.4byte	.LASF50
 1370 046f 14       		.byte	0x14
 1371 0470 08       		.byte	0x8
 1372 0471 5D       		.byte	0x5d
 1373 0472 BD040000 		.4byte	0x4bd
 1374 0476 06       		.uleb128 0x6
 1375 0477 55010000 		.4byte	.LASF51
 1376 047b 08       		.byte	0x8
 1377 047c 5E       		.byte	0x5e
 1378 047d BD040000 		.4byte	0x4bd
 1379 0481 02       		.byte	0x2
 1380 0482 23       		.byte	0x23
 1381 0483 00       		.uleb128 0
 1382 0484 06       		.uleb128 0x6
 1383 0485 33010000 		.4byte	.LASF52
 1384 0489 08       		.byte	0x8
 1385 048a 60       		.byte	0x60
 1386 048b BD040000 		.4byte	0x4bd
 1387 048f 02       		.byte	0x2
 1388 0490 23       		.byte	0x23
 1389 0491 04       		.uleb128 0x4
 1390 0492 06       		.uleb128 0x6
 1391 0493 39020000 		.4byte	.LASF53
 1392 0497 08       		.byte	0x8
 1393 0498 62       		.byte	0x62
 1394 0499 FA000000 		.4byte	0xfa
 1395 049d 02       		.byte	0x2
 1396 049e 23       		.byte	0x23
 1397 049f 08       		.uleb128 0x8
 1398 04a0 06       		.uleb128 0x6
 1399 04a1 6E020000 		.4byte	.LASF54
 1400 04a5 08       		.byte	0x8
 1401 04a6 63       		.byte	0x63
 1402 04a7 42040000 		.4byte	0x442
 1403 04ab 02       		.byte	0x2
 1404 04ac 23       		.byte	0x23
 1405 04ad 0C       		.uleb128 0xc
ARM GAS  /tmp/ccCrYZbl.s 			page 26


 1406 04ae 06       		.uleb128 0x6
 1407 04af 37040000 		.4byte	.LASF55
 1408 04b3 08       		.byte	0x8
 1409 04b4 65       		.byte	0x65
 1410 04b5 98020000 		.4byte	0x298
 1411 04b9 02       		.byte	0x2
 1412 04ba 23       		.byte	0x23
 1413 04bb 10       		.uleb128 0x10
 1414 04bc 00       		.byte	0
 1415 04bd 09       		.uleb128 0x9
 1416 04be 04       		.byte	0x4
 1417 04bf 5F040000 		.4byte	0x45f
 1418 04c3 08       		.uleb128 0x8
 1419 04c4 10       		.byte	0x10
 1420 04c5 08       		.byte	0x8
 1421 04c6 6F       		.byte	0x6f
 1422 04c7 04050000 		.4byte	0x504
 1423 04cb 06       		.uleb128 0x6
 1424 04cc 55010000 		.4byte	.LASF51
 1425 04d0 08       		.byte	0x8
 1426 04d1 70       		.byte	0x70
 1427 04d2 BD040000 		.4byte	0x4bd
 1428 04d6 02       		.byte	0x2
 1429 04d7 23       		.byte	0x23
 1430 04d8 00       		.uleb128 0
 1431 04d9 06       		.uleb128 0x6
 1432 04da 33010000 		.4byte	.LASF52
 1433 04de 08       		.byte	0x8
 1434 04df 72       		.byte	0x72
 1435 04e0 BD040000 		.4byte	0x4bd
 1436 04e4 02       		.byte	0x2
 1437 04e5 23       		.byte	0x23
 1438 04e6 04       		.uleb128 0x4
 1439 04e7 06       		.uleb128 0x6
 1440 04e8 39020000 		.4byte	.LASF53
 1441 04ec 08       		.byte	0x8
 1442 04ed 74       		.byte	0x74
 1443 04ee FA000000 		.4byte	0xfa
 1444 04f2 02       		.byte	0x2
 1445 04f3 23       		.byte	0x23
 1446 04f4 08       		.uleb128 0x8
 1447 04f5 06       		.uleb128 0x6
 1448 04f6 83040000 		.4byte	.LASF56
 1449 04fa 08       		.byte	0x8
 1450 04fb 75       		.byte	0x75
 1451 04fc 04050000 		.4byte	0x504
 1452 0500 02       		.byte	0x2
 1453 0501 23       		.byte	0x23
 1454 0502 0C       		.uleb128 0xc
 1455 0503 00       		.byte	0
 1456 0504 0F       		.uleb128 0xf
 1457 0505 FA000000 		.4byte	0xfa
 1458 0509 03       		.uleb128 0x3
 1459 050a 8E040000 		.4byte	.LASF57
 1460 050e 08       		.byte	0x8
 1461 050f 76       		.byte	0x76
 1462 0510 C3040000 		.4byte	0x4c3
ARM GAS  /tmp/ccCrYZbl.s 			page 27


 1463 0514 08       		.uleb128 0x8
 1464 0515 1C       		.byte	0x1c
 1465 0516 09       		.byte	0x9
 1466 0517 57       		.byte	0x57
 1467 0518 71050000 		.4byte	0x571
 1468 051c 06       		.uleb128 0x6
 1469 051d D4030000 		.4byte	.LASF58
 1470 0521 09       		.byte	0x9
 1471 0522 58       		.byte	0x58
 1472 0523 60020000 		.4byte	0x260
 1473 0527 02       		.byte	0x2
 1474 0528 23       		.byte	0x23
 1475 0529 00       		.uleb128 0
 1476 052a 06       		.uleb128 0x6
 1477 052b 93030000 		.4byte	.LASF59
 1478 052f 09       		.byte	0x9
 1479 0530 59       		.byte	0x59
 1480 0531 D9000000 		.4byte	0xd9
 1481 0535 02       		.byte	0x2
 1482 0536 23       		.byte	0x23
 1483 0537 08       		.uleb128 0x8
 1484 0538 06       		.uleb128 0x6
 1485 0539 9C020000 		.4byte	.LASF60
 1486 053d 09       		.byte	0x9
 1487 053e 5B       		.byte	0x5b
 1488 053f 18040000 		.4byte	0x418
 1489 0543 02       		.byte	0x2
 1490 0544 23       		.byte	0x23
 1491 0545 0C       		.uleb128 0xc
 1492 0546 06       		.uleb128 0x6
 1493 0547 22010000 		.4byte	.LASF61
 1494 054b 09       		.byte	0x9
 1495 054c 5E       		.byte	0x5e
 1496 054d 5A020000 		.4byte	0x25a
 1497 0551 02       		.byte	0x2
 1498 0552 23       		.byte	0x23
 1499 0553 10       		.uleb128 0x10
 1500 0554 06       		.uleb128 0x6
 1501 0555 DA020000 		.4byte	.LASF62
 1502 0559 09       		.byte	0x9
 1503 055a 5F       		.byte	0x5f
 1504 055b 5A020000 		.4byte	0x25a
 1505 055f 02       		.byte	0x2
 1506 0560 23       		.byte	0x23
 1507 0561 14       		.uleb128 0x14
 1508 0562 06       		.uleb128 0x6
 1509 0563 D0020000 		.4byte	.LASF63
 1510 0567 09       		.byte	0x9
 1511 0568 62       		.byte	0x62
 1512 0569 5A020000 		.4byte	0x25a
 1513 056d 02       		.byte	0x2
 1514 056e 23       		.byte	0x23
 1515 056f 18       		.uleb128 0x18
 1516 0570 00       		.byte	0
 1517 0571 03       		.uleb128 0x3
 1518 0572 50040000 		.4byte	.LASF64
 1519 0576 09       		.byte	0x9
ARM GAS  /tmp/ccCrYZbl.s 			page 28


 1520 0577 64       		.byte	0x64
 1521 0578 14050000 		.4byte	0x514
 1522 057c 05       		.uleb128 0x5
 1523 057d CB010000 		.4byte	.LASF65
 1524 0581 10       		.byte	0x10
 1525 0582 0A       		.byte	0xa
 1526 0583 25       		.byte	0x25
 1527 0584 B3050000 		.4byte	0x5b3
 1528 0588 06       		.uleb128 0x6
 1529 0589 A6000000 		.4byte	.LASF66
 1530 058d 0A       		.byte	0xa
 1531 058e 26       		.byte	0x26
 1532 058f 60020000 		.4byte	0x260
 1533 0593 02       		.byte	0x2
 1534 0594 23       		.byte	0x23
 1535 0595 00       		.uleb128 0
 1536 0596 06       		.uleb128 0x6
 1537 0597 95040000 		.4byte	.LASF67
 1538 059b 0A       		.byte	0xa
 1539 059c 28       		.byte	0x28
 1540 059d 5A020000 		.4byte	0x25a
 1541 05a1 02       		.byte	0x2
 1542 05a2 23       		.byte	0x23
 1543 05a3 08       		.uleb128 0x8
 1544 05a4 06       		.uleb128 0x6
 1545 05a5 F9030000 		.4byte	.LASF68
 1546 05a9 0A       		.byte	0xa
 1547 05aa 2A       		.byte	0x2a
 1548 05ab B3050000 		.4byte	0x5b3
 1549 05af 02       		.byte	0x2
 1550 05b0 23       		.byte	0x23
 1551 05b1 0C       		.uleb128 0xc
 1552 05b2 00       		.byte	0
 1553 05b3 09       		.uleb128 0x9
 1554 05b4 04       		.byte	0x4
 1555 05b5 7C050000 		.4byte	0x57c
 1556 05b9 03       		.uleb128 0x3
 1557 05ba CB010000 		.4byte	.LASF65
 1558 05be 0A       		.byte	0xa
 1559 05bf 2C       		.byte	0x2c
 1560 05c0 7C050000 		.4byte	0x57c
 1561 05c4 10       		.uleb128 0x10
 1562 05c5 04       		.byte	0x4
 1563 05c6 06       		.byte	0x6
 1564 05c7 8F       		.byte	0x8f
 1565 05c8 F9050000 		.4byte	0x5f9
 1566 05cc 11       		.uleb128 0x11
 1567 05cd 1A000000 		.4byte	.LASF69
 1568 05d1 06       		.byte	0x6
 1569 05d2 96       		.byte	0x96
 1570 05d3 E4000000 		.4byte	0xe4
 1571 05d7 11       		.uleb128 0x11
 1572 05d8 19010000 		.4byte	.LASF70
 1573 05dc 06       		.byte	0x6
 1574 05dd 9D       		.byte	0x9d
 1575 05de E4000000 		.4byte	0xe4
 1576 05e2 11       		.uleb128 0x11
ARM GAS  /tmp/ccCrYZbl.s 			page 29


 1577 05e3 68040000 		.4byte	.LASF71
 1578 05e7 06       		.byte	0x6
 1579 05e8 A4       		.byte	0xa4
 1580 05e9 98020000 		.4byte	0x298
 1581 05ed 11       		.uleb128 0x11
 1582 05ee 9A030000 		.4byte	.LASF72
 1583 05f2 06       		.byte	0x6
 1584 05f3 AB       		.byte	0xab
 1585 05f4 EF000000 		.4byte	0xef
 1586 05f8 00       		.byte	0
 1587 05f9 09       		.uleb128 0x9
 1588 05fa 04       		.byte	0x4
 1589 05fb FF050000 		.4byte	0x5ff
 1590 05ff 12       		.uleb128 0x12
 1591 0600 04060000 		.4byte	0x604
 1592 0604 04       		.uleb128 0x4
 1593 0605 01       		.byte	0x1
 1594 0606 08       		.byte	0x8
 1595 0607 DC030000 		.4byte	.LASF73
 1596 060b 09       		.uleb128 0x9
 1597 060c 04       		.byte	0x4
 1598 060d B9050000 		.4byte	0x5b9
 1599 0611 03       		.uleb128 0x3
 1600 0612 00000000 		.4byte	.LASF74
 1601 0616 06       		.byte	0x6
 1602 0617 DE       		.byte	0xde
 1603 0618 1C060000 		.4byte	0x61c
 1604 061c 09       		.uleb128 0x9
 1605 061d 04       		.byte	0x4
 1606 061e 22060000 		.4byte	0x622
 1607 0622 13       		.uleb128 0x13
 1608 0623 01       		.byte	0x1
 1609 0624 E4000000 		.4byte	0xe4
 1610 0628 32060000 		.4byte	0x632
 1611 062c 0E       		.uleb128 0xe
 1612 062d 98020000 		.4byte	0x298
 1613 0631 00       		.byte	0
 1614 0632 05       		.uleb128 0x5
 1615 0633 B7030000 		.4byte	.LASF75
 1616 0637 10       		.byte	0x10
 1617 0638 0B       		.byte	0xb
 1618 0639 3B       		.byte	0x3b
 1619 063a 77060000 		.4byte	0x677
 1620 063e 06       		.uleb128 0x6
 1621 063f 78010000 		.4byte	.LASF76
 1622 0643 0B       		.byte	0xb
 1623 0644 3C       		.byte	0x3c
 1624 0645 F9050000 		.4byte	0x5f9
 1625 0649 02       		.byte	0x2
 1626 064a 23       		.byte	0x23
 1627 064b 00       		.uleb128 0
 1628 064c 06       		.uleb128 0x6
 1629 064d AF020000 		.4byte	.LASF77
 1630 0651 0B       		.byte	0xb
 1631 0652 3D       		.byte	0x3d
 1632 0653 79060000 		.4byte	0x679
 1633 0657 02       		.byte	0x2
ARM GAS  /tmp/ccCrYZbl.s 			page 30


 1634 0658 23       		.byte	0x23
 1635 0659 04       		.uleb128 0x4
 1636 065a 06       		.uleb128 0x6
 1637 065b 6F010000 		.4byte	.LASF78
 1638 065f 0B       		.byte	0xb
 1639 0660 3E       		.byte	0x3e
 1640 0661 79060000 		.4byte	0x679
 1641 0665 02       		.byte	0x2
 1642 0666 23       		.byte	0x23
 1643 0667 08       		.uleb128 0x8
 1644 0668 06       		.uleb128 0x6
 1645 0669 23030000 		.4byte	.LASF79
 1646 066d 0B       		.byte	0xb
 1647 066e 3F       		.byte	0x3f
 1648 066f 79060000 		.4byte	0x679
 1649 0673 02       		.byte	0x2
 1650 0674 23       		.byte	0x23
 1651 0675 0C       		.uleb128 0xc
 1652 0676 00       		.byte	0
 1653 0677 14       		.uleb128 0x14
 1654 0678 01       		.byte	0x1
 1655 0679 09       		.uleb128 0x9
 1656 067a 04       		.byte	0x4
 1657 067b 77060000 		.4byte	0x677
 1658 067f 15       		.uleb128 0x15
 1659 0680 E1030000 		.4byte	.LASF105
 1660 0684 01       		.byte	0x1
 1661 0685 BD       		.byte	0xbd
 1662 0686 01       		.byte	0x1
 1663 0687 01       		.byte	0x1
 1664 0688 98060000 		.4byte	0x698
 1665 068c 16       		.uleb128 0x16
 1666 068d CB020000 		.4byte	.LASF106
 1667 0691 01       		.byte	0x1
 1668 0692 BE       		.byte	0xbe
 1669 0693 FA000000 		.4byte	0xfa
 1670 0697 00       		.byte	0
 1671 0698 17       		.uleb128 0x17
 1672 0699 0F030000 		.4byte	.LASF81
 1673 069d 01       		.byte	0x1
 1674 069e 7E       		.byte	0x7e
 1675 069f 01       		.byte	0x1
 1676 06a0 00000000 		.4byte	.LFB10
 1677 06a4 3C010000 		.4byte	.LFE10
 1678 06a8 00000000 		.4byte	.LLST0
 1679 06ac 01       		.byte	0x1
 1680 06ad 65080000 		.4byte	0x865
 1681 06b1 18       		.uleb128 0x18
 1682 06b2 15000000 		.4byte	.LASF80
 1683 06b6 01       		.byte	0x1
 1684 06b7 7F       		.byte	0x7f
 1685 06b8 D9000000 		.4byte	0xd9
 1686 06bc 01       		.byte	0x1
 1687 06bd 54       		.byte	0x54
 1688 06be 19       		.uleb128 0x19
 1689 06bf 703100   		.ascii	"p1\000"
 1690 06c2 01       		.byte	0x1
ARM GAS  /tmp/ccCrYZbl.s 			page 31


 1691 06c3 7F       		.byte	0x7f
 1692 06c4 D9000000 		.4byte	0xd9
 1693 06c8 20000000 		.4byte	.LLST1
 1694 06cc 1A       		.uleb128 0x1a
 1695 06cd 6C000000 		.4byte	.LBB2
 1696 06d1 72000000 		.4byte	.LBE2
 1697 06d5 E9060000 		.4byte	0x6e9
 1698 06d9 19       		.uleb128 0x19
 1699 06da 746D7000 		.ascii	"tmp\000"
 1700 06de 01       		.byte	0x1
 1701 06df 8F       		.byte	0x8f
 1702 06e0 7B000000 		.4byte	0x7b
 1703 06e4 6A000000 		.4byte	.LLST2
 1704 06e8 00       		.byte	0
 1705 06e9 1A       		.uleb128 0x1a
 1706 06ea 7A000000 		.4byte	.LBB3
 1707 06ee 80000000 		.4byte	.LBE3
 1708 06f2 06070000 		.4byte	0x706
 1709 06f6 19       		.uleb128 0x19
 1710 06f7 746D7000 		.ascii	"tmp\000"
 1711 06fb 01       		.byte	0x1
 1712 06fc 91       		.byte	0x91
 1713 06fd 7B000000 		.4byte	0x7b
 1714 0701 7D000000 		.4byte	.LLST3
 1715 0705 00       		.byte	0
 1716 0706 1A       		.uleb128 0x1a
 1717 0707 24010000 		.4byte	.LBB4
 1718 070b 2A010000 		.4byte	.LBE4
 1719 070f 23070000 		.4byte	0x723
 1720 0713 19       		.uleb128 0x19
 1721 0714 746D7000 		.ascii	"tmp\000"
 1722 0718 01       		.byte	0x1
 1723 0719 A7       		.byte	0xa7
 1724 071a 7B000000 		.4byte	0x7b
 1725 071e 90000000 		.4byte	.LLST4
 1726 0722 00       		.byte	0
 1727 0723 1B       		.uleb128 0x1b
 1728 0724 00000000 		.4byte	.Ldebug_ranges0+0
 1729 0728 3C070000 		.4byte	0x73c
 1730 072c 19       		.uleb128 0x19
 1731 072d 746D7000 		.ascii	"tmp\000"
 1732 0731 01       		.byte	0x1
 1733 0732 AA       		.byte	0xaa
 1734 0733 7B000000 		.4byte	0x7b
 1735 0737 A3000000 		.4byte	.LLST5
 1736 073b 00       		.byte	0
 1737 073c 1C       		.uleb128 0x1c
 1738 073d 10000000 		.4byte	.LVL1
 1739 0741 E30C0000 		.4byte	0xce3
 1740 0745 50070000 		.4byte	0x750
 1741 0749 1D       		.uleb128 0x1d
 1742 074a 01       		.byte	0x1
 1743 074b 50       		.byte	0x50
 1744 074c 02       		.byte	0x2
 1745 074d 75       		.byte	0x75
 1746 074e 00       		.sleb128 0
 1747 074f 00       		.byte	0
ARM GAS  /tmp/ccCrYZbl.s 			page 32


 1748 0750 1C       		.uleb128 0x1c
 1749 0751 1E000000 		.4byte	.LVL4
 1750 0755 FC0C0000 		.4byte	0xcfc
 1751 0759 6E070000 		.4byte	0x76e
 1752 075d 1D       		.uleb128 0x1d
 1753 075e 01       		.byte	0x1
 1754 075f 51       		.byte	0x51
 1755 0760 07       		.byte	0x7
 1756 0761 77       		.byte	0x77
 1757 0762 00       		.sleb128 0
 1758 0763 74       		.byte	0x74
 1759 0764 00       		.sleb128 0
 1760 0765 1C       		.byte	0x1c
 1761 0766 30       		.byte	0x30
 1762 0767 29       		.byte	0x29
 1763 0768 1D       		.uleb128 0x1d
 1764 0769 01       		.byte	0x1
 1765 076a 50       		.byte	0x50
 1766 076b 01       		.byte	0x1
 1767 076c 31       		.byte	0x31
 1768 076d 00       		.byte	0
 1769 076e 1C       		.uleb128 0x1c
 1770 076f 32000000 		.4byte	.LVL7
 1771 0773 FC0C0000 		.4byte	0xcfc
 1772 0777 81070000 		.4byte	0x781
 1773 077b 1D       		.uleb128 0x1d
 1774 077c 01       		.byte	0x1
 1775 077d 50       		.byte	0x50
 1776 077e 01       		.byte	0x1
 1777 077f 32       		.byte	0x32
 1778 0780 00       		.byte	0
 1779 0781 1C       		.uleb128 0x1c
 1780 0782 3C000000 		.4byte	.LVL8
 1781 0786 E30C0000 		.4byte	0xce3
 1782 078a 95070000 		.4byte	0x795
 1783 078e 1D       		.uleb128 0x1d
 1784 078f 01       		.byte	0x1
 1785 0790 50       		.byte	0x50
 1786 0791 02       		.byte	0x2
 1787 0792 77       		.byte	0x77
 1788 0793 00       		.sleb128 0
 1789 0794 00       		.byte	0
 1790 0795 1C       		.uleb128 0x1c
 1791 0796 4E000000 		.4byte	.LVL10
 1792 079a FC0C0000 		.4byte	0xcfc
 1793 079e A8070000 		.4byte	0x7a8
 1794 07a2 1D       		.uleb128 0x1d
 1795 07a3 01       		.byte	0x1
 1796 07a4 50       		.byte	0x50
 1797 07a5 01       		.byte	0x1
 1798 07a6 33       		.byte	0x33
 1799 07a7 00       		.byte	0
 1800 07a8 1C       		.uleb128 0x1c
 1801 07a9 68000000 		.4byte	.LVL11
 1802 07ad FC0C0000 		.4byte	0xcfc
 1803 07b1 BB070000 		.4byte	0x7bb
 1804 07b5 1D       		.uleb128 0x1d
ARM GAS  /tmp/ccCrYZbl.s 			page 33


 1805 07b6 01       		.byte	0x1
 1806 07b7 50       		.byte	0x50
 1807 07b8 01       		.byte	0x1
 1808 07b9 34       		.byte	0x34
 1809 07ba 00       		.byte	0
 1810 07bb 1C       		.uleb128 0x1c
 1811 07bc 94000000 		.4byte	.LVL18
 1812 07c0 FC0C0000 		.4byte	0xcfc
 1813 07c4 CE070000 		.4byte	0x7ce
 1814 07c8 1D       		.uleb128 0x1d
 1815 07c9 01       		.byte	0x1
 1816 07ca 50       		.byte	0x50
 1817 07cb 01       		.byte	0x1
 1818 07cc 35       		.byte	0x35
 1819 07cd 00       		.byte	0
 1820 07ce 1C       		.uleb128 0x1c
 1821 07cf 9E000000 		.4byte	.LVL19
 1822 07d3 E30C0000 		.4byte	0xce3
 1823 07d7 E2070000 		.4byte	0x7e2
 1824 07db 1D       		.uleb128 0x1d
 1825 07dc 01       		.byte	0x1
 1826 07dd 50       		.byte	0x50
 1827 07de 02       		.byte	0x2
 1828 07df 75       		.byte	0x75
 1829 07e0 00       		.sleb128 0
 1830 07e1 00       		.byte	0
 1831 07e2 1C       		.uleb128 0x1c
 1832 07e3 AA000000 		.4byte	.LVL21
 1833 07e7 FC0C0000 		.4byte	0xcfc
 1834 07eb F5070000 		.4byte	0x7f5
 1835 07ef 1D       		.uleb128 0x1d
 1836 07f0 01       		.byte	0x1
 1837 07f1 50       		.byte	0x50
 1838 07f2 01       		.byte	0x1
 1839 07f3 36       		.byte	0x36
 1840 07f4 00       		.byte	0
 1841 07f5 1C       		.uleb128 0x1c
 1842 07f6 C4000000 		.4byte	.LVL22
 1843 07fa FC0C0000 		.4byte	0xcfc
 1844 07fe 08080000 		.4byte	0x808
 1845 0802 1D       		.uleb128 0x1d
 1846 0803 01       		.byte	0x1
 1847 0804 50       		.byte	0x50
 1848 0805 01       		.byte	0x1
 1849 0806 37       		.byte	0x37
 1850 0807 00       		.byte	0
 1851 0808 1C       		.uleb128 0x1c
 1852 0809 DE000000 		.4byte	.LVL23
 1853 080d FC0C0000 		.4byte	0xcfc
 1854 0811 1B080000 		.4byte	0x81b
 1855 0815 1D       		.uleb128 0x1d
 1856 0816 01       		.byte	0x1
 1857 0817 50       		.byte	0x50
 1858 0818 01       		.byte	0x1
 1859 0819 38       		.byte	0x38
 1860 081a 00       		.byte	0
 1861 081b 1C       		.uleb128 0x1c
ARM GAS  /tmp/ccCrYZbl.s 			page 34


 1862 081c EA000000 		.4byte	.LVL24
 1863 0820 E30C0000 		.4byte	0xce3
 1864 0824 2F080000 		.4byte	0x82f
 1865 0828 1D       		.uleb128 0x1d
 1866 0829 01       		.byte	0x1
 1867 082a 50       		.byte	0x50
 1868 082b 02       		.byte	0x2
 1869 082c 77       		.byte	0x77
 1870 082d 00       		.sleb128 0
 1871 082e 00       		.byte	0
 1872 082f 1C       		.uleb128 0x1c
 1873 0830 F6000000 		.4byte	.LVL26
 1874 0834 FC0C0000 		.4byte	0xcfc
 1875 0838 42080000 		.4byte	0x842
 1876 083c 1D       		.uleb128 0x1d
 1877 083d 01       		.byte	0x1
 1878 083e 50       		.byte	0x50
 1879 083f 01       		.byte	0x1
 1880 0840 39       		.byte	0x39
 1881 0841 00       		.byte	0
 1882 0842 1C       		.uleb128 0x1c
 1883 0843 0A010000 		.4byte	.LVL27
 1884 0847 FC0C0000 		.4byte	0xcfc
 1885 084b 55080000 		.4byte	0x855
 1886 084f 1D       		.uleb128 0x1d
 1887 0850 01       		.byte	0x1
 1888 0851 50       		.byte	0x50
 1889 0852 01       		.byte	0x1
 1890 0853 3A       		.byte	0x3a
 1891 0854 00       		.byte	0
 1892 0855 1E       		.uleb128 0x1e
 1893 0856 1E010000 		.4byte	.LVL28
 1894 085a FC0C0000 		.4byte	0xcfc
 1895 085e 1D       		.uleb128 0x1d
 1896 085f 01       		.byte	0x1
 1897 0860 50       		.byte	0x50
 1898 0861 01       		.byte	0x1
 1899 0862 3B       		.byte	0x3b
 1900 0863 00       		.byte	0
 1901 0864 00       		.byte	0
 1902 0865 17       		.uleb128 0x17
 1903 0866 1A020000 		.4byte	.LASF82
 1904 086a 01       		.byte	0x1
 1905 086b 5E       		.byte	0x5e
 1906 086c 01       		.byte	0x1
 1907 086d 00000000 		.4byte	.LFB9
 1908 0871 EA000000 		.4byte	.LFE9
 1909 0875 C1000000 		.4byte	.LLST6
 1910 0879 01       		.byte	0x1
 1911 087a B8090000 		.4byte	0x9b8
 1912 087e 1B       		.uleb128 0x1b
 1913 087f 18000000 		.4byte	.Ldebug_ranges0+0x18
 1914 0883 97080000 		.4byte	0x897
 1915 0887 19       		.uleb128 0x19
 1916 0888 746D7000 		.ascii	"tmp\000"
 1917 088c 01       		.byte	0x1
 1918 088d 65       		.byte	0x65
ARM GAS  /tmp/ccCrYZbl.s 			page 35


 1919 088e 7B000000 		.4byte	0x7b
 1920 0892 ED000000 		.4byte	.LLST7
 1921 0896 00       		.byte	0
 1922 0897 1B       		.uleb128 0x1b
 1923 0898 30000000 		.4byte	.Ldebug_ranges0+0x30
 1924 089c B0080000 		.4byte	0x8b0
 1925 08a0 19       		.uleb128 0x19
 1926 08a1 746D7000 		.ascii	"tmp\000"
 1927 08a5 01       		.byte	0x1
 1928 08a6 67       		.byte	0x67
 1929 08a7 7B000000 		.4byte	0x7b
 1930 08ab 00010000 		.4byte	.LLST8
 1931 08af 00       		.byte	0
 1932 08b0 1C       		.uleb128 0x1c
 1933 08b1 38000000 		.4byte	.LVL33
 1934 08b5 190D0000 		.4byte	0xd19
 1935 08b9 DC080000 		.4byte	0x8dc
 1936 08bd 1D       		.uleb128 0x1d
 1937 08be 01       		.byte	0x1
 1938 08bf 53       		.byte	0x53
 1939 08c0 02       		.byte	0x2
 1940 08c1 75       		.byte	0x75
 1941 08c2 00       		.sleb128 0
 1942 08c3 1D       		.uleb128 0x1d
 1943 08c4 01       		.byte	0x1
 1944 08c5 51       		.byte	0x51
 1945 08c6 03       		.byte	0x3
 1946 08c7 0A       		.byte	0xa
 1947 08c8 B801     		.2byte	0x1b8
 1948 08ca 1D       		.uleb128 0x1d
 1949 08cb 01       		.byte	0x1
 1950 08cc 50       		.byte	0x50
 1951 08cd 03       		.byte	0x3
 1952 08ce 76       		.byte	0x76
 1953 08cf 04       		.sleb128 4
 1954 08d0 06       		.byte	0x6
 1955 08d1 1D       		.uleb128 0x1d
 1956 08d2 02       		.byte	0x2
 1957 08d3 7D       		.byte	0x7d
 1958 08d4 00       		.sleb128 0
 1959 08d5 05       		.byte	0x5
 1960 08d6 03       		.byte	0x3
 1961 08d7 00000000 		.4byte	.LC0
 1962 08db 00       		.byte	0
 1963 08dc 1C       		.uleb128 0x1c
 1964 08dd 60000000 		.4byte	.LVL34
 1965 08e1 190D0000 		.4byte	0xd19
 1966 08e5 08090000 		.4byte	0x908
 1967 08e9 1D       		.uleb128 0x1d
 1968 08ea 01       		.byte	0x1
 1969 08eb 53       		.byte	0x53
 1970 08ec 02       		.byte	0x2
 1971 08ed 75       		.byte	0x75
 1972 08ee 00       		.sleb128 0
 1973 08ef 1D       		.uleb128 0x1d
 1974 08f0 01       		.byte	0x1
 1975 08f1 51       		.byte	0x51
ARM GAS  /tmp/ccCrYZbl.s 			page 36


 1976 08f2 03       		.byte	0x3
 1977 08f3 0A       		.byte	0xa
 1978 08f4 B801     		.2byte	0x1b8
 1979 08f6 1D       		.uleb128 0x1d
 1980 08f7 01       		.byte	0x1
 1981 08f8 50       		.byte	0x50
 1982 08f9 03       		.byte	0x3
 1983 08fa 76       		.byte	0x76
 1984 08fb 00       		.sleb128 0
 1985 08fc 06       		.byte	0x6
 1986 08fd 1D       		.uleb128 0x1d
 1987 08fe 02       		.byte	0x2
 1988 08ff 7D       		.byte	0x7d
 1989 0900 00       		.sleb128 0
 1990 0901 05       		.byte	0x5
 1991 0902 03       		.byte	0x3
 1992 0903 04000000 		.4byte	.LC1
 1993 0907 00       		.byte	0
 1994 0908 1C       		.uleb128 0x1c
 1995 0909 80000000 		.4byte	.LVL35
 1996 090d 190D0000 		.4byte	0xd19
 1997 0911 34090000 		.4byte	0x934
 1998 0915 1D       		.uleb128 0x1d
 1999 0916 01       		.byte	0x1
 2000 0917 53       		.byte	0x53
 2001 0918 02       		.byte	0x2
 2002 0919 75       		.byte	0x75
 2003 091a 00       		.sleb128 0
 2004 091b 1D       		.uleb128 0x1d
 2005 091c 01       		.byte	0x1
 2006 091d 51       		.byte	0x51
 2007 091e 03       		.byte	0x3
 2008 091f 0A       		.byte	0xa
 2009 0920 B801     		.2byte	0x1b8
 2010 0922 1D       		.uleb128 0x1d
 2011 0923 01       		.byte	0x1
 2012 0924 50       		.byte	0x50
 2013 0925 03       		.byte	0x3
 2014 0926 76       		.byte	0x76
 2015 0927 10       		.sleb128 16
 2016 0928 06       		.byte	0x6
 2017 0929 1D       		.uleb128 0x1d
 2018 092a 02       		.byte	0x2
 2019 092b 7D       		.byte	0x7d
 2020 092c 00       		.sleb128 0
 2021 092d 05       		.byte	0x5
 2022 092e 03       		.byte	0x3
 2023 092f 08000000 		.4byte	.LC2
 2024 0933 00       		.byte	0
 2025 0934 1C       		.uleb128 0x1c
 2026 0935 A0000000 		.4byte	.LVL36
 2027 0939 190D0000 		.4byte	0xd19
 2028 093d 60090000 		.4byte	0x960
 2029 0941 1D       		.uleb128 0x1d
 2030 0942 01       		.byte	0x1
 2031 0943 53       		.byte	0x53
 2032 0944 02       		.byte	0x2
ARM GAS  /tmp/ccCrYZbl.s 			page 37


 2033 0945 75       		.byte	0x75
 2034 0946 00       		.sleb128 0
 2035 0947 1D       		.uleb128 0x1d
 2036 0948 01       		.byte	0x1
 2037 0949 51       		.byte	0x51
 2038 094a 03       		.byte	0x3
 2039 094b 0A       		.byte	0xa
 2040 094c B801     		.2byte	0x1b8
 2041 094e 1D       		.uleb128 0x1d
 2042 094f 01       		.byte	0x1
 2043 0950 50       		.byte	0x50
 2044 0951 03       		.byte	0x3
 2045 0952 76       		.byte	0x76
 2046 0953 0C       		.sleb128 12
 2047 0954 06       		.byte	0x6
 2048 0955 1D       		.uleb128 0x1d
 2049 0956 02       		.byte	0x2
 2050 0957 7D       		.byte	0x7d
 2051 0958 00       		.sleb128 0
 2052 0959 05       		.byte	0x5
 2053 095a 03       		.byte	0x3
 2054 095b 0C000000 		.4byte	.LC3
 2055 095f 00       		.byte	0
 2056 0960 1C       		.uleb128 0x1c
 2057 0961 C4000000 		.4byte	.LVL40
 2058 0965 460D0000 		.4byte	0xd46
 2059 0969 8C090000 		.4byte	0x98c
 2060 096d 1D       		.uleb128 0x1d
 2061 096e 01       		.byte	0x1
 2062 096f 53       		.byte	0x53
 2063 0970 02       		.byte	0x2
 2064 0971 75       		.byte	0x75
 2065 0972 00       		.sleb128 0
 2066 0973 1D       		.uleb128 0x1d
 2067 0974 01       		.byte	0x1
 2068 0975 51       		.byte	0x51
 2069 0976 03       		.byte	0x3
 2070 0977 0A       		.byte	0xa
 2071 0978 B801     		.2byte	0x1b8
 2072 097a 1D       		.uleb128 0x1d
 2073 097b 01       		.byte	0x1
 2074 097c 50       		.byte	0x50
 2075 097d 03       		.byte	0x3
 2076 097e 76       		.byte	0x76
 2077 097f 08       		.sleb128 8
 2078 0980 06       		.byte	0x6
 2079 0981 1D       		.uleb128 0x1d
 2080 0982 02       		.byte	0x2
 2081 0983 7D       		.byte	0x7d
 2082 0984 00       		.sleb128 0
 2083 0985 05       		.byte	0x5
 2084 0986 03       		.byte	0x3
 2085 0987 10000000 		.4byte	.LC4
 2086 098b 00       		.byte	0
 2087 098c 1F       		.uleb128 0x1f
 2088 098d D2000000 		.4byte	.LVL43
 2089 0991 730D0000 		.4byte	0xd73
ARM GAS  /tmp/ccCrYZbl.s 			page 38


 2090 0995 1F       		.uleb128 0x1f
 2091 0996 D6000000 		.4byte	.LVL44
 2092 099a 8C0D0000 		.4byte	0xd8c
 2093 099e 20       		.uleb128 0x20
 2094 099f EA000000 		.4byte	.LVL45
 2095 09a3 01       		.byte	0x1
 2096 09a4 960D0000 		.4byte	0xd96
 2097 09a8 1D       		.uleb128 0x1d
 2098 09a9 01       		.byte	0x1
 2099 09aa 51       		.byte	0x51
 2100 09ab 05       		.byte	0x5
 2101 09ac 03       		.byte	0x3
 2102 09ad 14000000 		.4byte	.LC5
 2103 09b1 1D       		.uleb128 0x1d
 2104 09b2 01       		.byte	0x1
 2105 09b3 50       		.byte	0x50
 2106 09b4 01       		.byte	0x1
 2107 09b5 31       		.byte	0x31
 2108 09b6 00       		.byte	0
 2109 09b7 00       		.byte	0
 2110 09b8 17       		.uleb128 0x17
 2111 09b9 3B010000 		.4byte	.LASF83
 2112 09bd 01       		.byte	0x1
 2113 09be 42       		.byte	0x42
 2114 09bf 01       		.byte	0x1
 2115 09c0 00000000 		.4byte	.LFB8
 2116 09c4 E6000000 		.4byte	.LFE8
 2117 09c8 13010000 		.4byte	.LLST9
 2118 09cc 01       		.byte	0x1
 2119 09cd C90A0000 		.4byte	0xac9
 2120 09d1 1C       		.uleb128 0x1c
 2121 09d2 3C000000 		.4byte	.LVL46
 2122 09d6 190D0000 		.4byte	0xd19
 2123 09da FA090000 		.4byte	0x9fa
 2124 09de 1D       		.uleb128 0x1d
 2125 09df 01       		.byte	0x1
 2126 09e0 53       		.byte	0x53
 2127 09e1 02       		.byte	0x2
 2128 09e2 75       		.byte	0x75
 2129 09e3 00       		.sleb128 0
 2130 09e4 1D       		.uleb128 0x1d
 2131 09e5 01       		.byte	0x1
 2132 09e6 51       		.byte	0x51
 2133 09e7 03       		.byte	0x3
 2134 09e8 0A       		.byte	0xa
 2135 09e9 B801     		.2byte	0x1b8
 2136 09eb 1D       		.uleb128 0x1d
 2137 09ec 01       		.byte	0x1
 2138 09ed 50       		.byte	0x50
 2139 09ee 03       		.byte	0x3
 2140 09ef 76       		.byte	0x76
 2141 09f0 00       		.sleb128 0
 2142 09f1 06       		.byte	0x6
 2143 09f2 1D       		.uleb128 0x1d
 2144 09f3 02       		.byte	0x2
 2145 09f4 7D       		.byte	0x7d
 2146 09f5 00       		.sleb128 0
ARM GAS  /tmp/ccCrYZbl.s 			page 39


 2147 09f6 02       		.byte	0x2
 2148 09f7 74       		.byte	0x74
 2149 09f8 00       		.sleb128 0
 2150 09f9 00       		.byte	0
 2151 09fa 1C       		.uleb128 0x1c
 2152 09fb 66000000 		.4byte	.LVL47
 2153 09ff 190D0000 		.4byte	0xd19
 2154 0a03 250A0000 		.4byte	0xa25
 2155 0a07 1D       		.uleb128 0x1d
 2156 0a08 01       		.byte	0x1
 2157 0a09 53       		.byte	0x53
 2158 0a0a 02       		.byte	0x2
 2159 0a0b 75       		.byte	0x75
 2160 0a0c 00       		.sleb128 0
 2161 0a0d 1D       		.uleb128 0x1d
 2162 0a0e 01       		.byte	0x1
 2163 0a0f 51       		.byte	0x51
 2164 0a10 03       		.byte	0x3
 2165 0a11 0A       		.byte	0xa
 2166 0a12 B801     		.2byte	0x1b8
 2167 0a14 1D       		.uleb128 0x1d
 2168 0a15 01       		.byte	0x1
 2169 0a16 50       		.byte	0x50
 2170 0a17 02       		.byte	0x2
 2171 0a18 77       		.byte	0x77
 2172 0a19 00       		.sleb128 0
 2173 0a1a 1D       		.uleb128 0x1d
 2174 0a1b 02       		.byte	0x2
 2175 0a1c 7D       		.byte	0x7d
 2176 0a1d 00       		.sleb128 0
 2177 0a1e 05       		.byte	0x5
 2178 0a1f 03       		.byte	0x3
 2179 0a20 00000000 		.4byte	.LC0
 2180 0a24 00       		.byte	0
 2181 0a25 1C       		.uleb128 0x1c
 2182 0a26 88000000 		.4byte	.LVL48
 2183 0a2a 190D0000 		.4byte	0xd19
 2184 0a2e 500A0000 		.4byte	0xa50
 2185 0a32 1D       		.uleb128 0x1d
 2186 0a33 01       		.byte	0x1
 2187 0a34 53       		.byte	0x53
 2188 0a35 02       		.byte	0x2
 2189 0a36 75       		.byte	0x75
 2190 0a37 00       		.sleb128 0
 2191 0a38 1D       		.uleb128 0x1d
 2192 0a39 01       		.byte	0x1
 2193 0a3a 51       		.byte	0x51
 2194 0a3b 03       		.byte	0x3
 2195 0a3c 0A       		.byte	0xa
 2196 0a3d B801     		.2byte	0x1b8
 2197 0a3f 1D       		.uleb128 0x1d
 2198 0a40 01       		.byte	0x1
 2199 0a41 50       		.byte	0x50
 2200 0a42 02       		.byte	0x2
 2201 0a43 77       		.byte	0x77
 2202 0a44 00       		.sleb128 0
 2203 0a45 1D       		.uleb128 0x1d
ARM GAS  /tmp/ccCrYZbl.s 			page 40


 2204 0a46 02       		.byte	0x2
 2205 0a47 7D       		.byte	0x7d
 2206 0a48 00       		.sleb128 0
 2207 0a49 05       		.byte	0x5
 2208 0a4a 03       		.byte	0x3
 2209 0a4b 10000000 		.4byte	.LC4
 2210 0a4f 00       		.byte	0
 2211 0a50 1C       		.uleb128 0x1c
 2212 0a51 AA000000 		.4byte	.LVL49
 2213 0a55 190D0000 		.4byte	0xd19
 2214 0a59 7B0A0000 		.4byte	0xa7b
 2215 0a5d 1D       		.uleb128 0x1d
 2216 0a5e 01       		.byte	0x1
 2217 0a5f 53       		.byte	0x53
 2218 0a60 02       		.byte	0x2
 2219 0a61 75       		.byte	0x75
 2220 0a62 00       		.sleb128 0
 2221 0a63 1D       		.uleb128 0x1d
 2222 0a64 01       		.byte	0x1
 2223 0a65 51       		.byte	0x51
 2224 0a66 03       		.byte	0x3
 2225 0a67 0A       		.byte	0xa
 2226 0a68 B801     		.2byte	0x1b8
 2227 0a6a 1D       		.uleb128 0x1d
 2228 0a6b 01       		.byte	0x1
 2229 0a6c 50       		.byte	0x50
 2230 0a6d 02       		.byte	0x2
 2231 0a6e 77       		.byte	0x77
 2232 0a6f 00       		.sleb128 0
 2233 0a70 1D       		.uleb128 0x1d
 2234 0a71 02       		.byte	0x2
 2235 0a72 7D       		.byte	0x7d
 2236 0a73 00       		.sleb128 0
 2237 0a74 05       		.byte	0x5
 2238 0a75 03       		.byte	0x3
 2239 0a76 0C000000 		.4byte	.LC3
 2240 0a7a 00       		.byte	0
 2241 0a7b 1C       		.uleb128 0x1c
 2242 0a7c CC000000 		.4byte	.LVL50
 2243 0a80 190D0000 		.4byte	0xd19
 2244 0a84 A60A0000 		.4byte	0xaa6
 2245 0a88 1D       		.uleb128 0x1d
 2246 0a89 01       		.byte	0x1
 2247 0a8a 53       		.byte	0x53
 2248 0a8b 02       		.byte	0x2
 2249 0a8c 75       		.byte	0x75
 2250 0a8d 00       		.sleb128 0
 2251 0a8e 1D       		.uleb128 0x1d
 2252 0a8f 01       		.byte	0x1
 2253 0a90 51       		.byte	0x51
 2254 0a91 03       		.byte	0x3
 2255 0a92 0A       		.byte	0xa
 2256 0a93 B801     		.2byte	0x1b8
 2257 0a95 1D       		.uleb128 0x1d
 2258 0a96 01       		.byte	0x1
 2259 0a97 50       		.byte	0x50
 2260 0a98 02       		.byte	0x2
ARM GAS  /tmp/ccCrYZbl.s 			page 41


 2261 0a99 76       		.byte	0x76
 2262 0a9a 00       		.sleb128 0
 2263 0a9b 1D       		.uleb128 0x1d
 2264 0a9c 02       		.byte	0x2
 2265 0a9d 7D       		.byte	0x7d
 2266 0a9e 00       		.sleb128 0
 2267 0a9f 05       		.byte	0x5
 2268 0aa0 03       		.byte	0x3
 2269 0aa1 08000000 		.4byte	.LC2
 2270 0aa5 00       		.byte	0
 2271 0aa6 1F       		.uleb128 0x1f
 2272 0aa7 D2000000 		.4byte	.LVL51
 2273 0aab 8C0D0000 		.4byte	0xd8c
 2274 0aaf 20       		.uleb128 0x20
 2275 0ab0 E6000000 		.4byte	.LVL52
 2276 0ab4 01       		.byte	0x1
 2277 0ab5 960D0000 		.4byte	0xd96
 2278 0ab9 1D       		.uleb128 0x1d
 2279 0aba 01       		.byte	0x1
 2280 0abb 51       		.byte	0x51
 2281 0abc 05       		.byte	0x5
 2282 0abd 03       		.byte	0x3
 2283 0abe 14000000 		.4byte	.LC5
 2284 0ac2 1D       		.uleb128 0x1d
 2285 0ac3 01       		.byte	0x1
 2286 0ac4 50       		.byte	0x50
 2287 0ac5 01       		.byte	0x1
 2288 0ac6 31       		.byte	0x31
 2289 0ac7 00       		.byte	0
 2290 0ac8 00       		.byte	0
 2291 0ac9 21       		.uleb128 0x21
 2292 0aca 33030000 		.4byte	.LASF107
 2293 0ace 01       		.byte	0x1
 2294 0acf 3C       		.byte	0x3c
 2295 0ad0 01       		.byte	0x1
 2296 0ad1 E4000000 		.4byte	0xe4
 2297 0ad5 00000000 		.4byte	.LFB7
 2298 0ad9 0C000000 		.4byte	.LFE7
 2299 0add 3F010000 		.4byte	.LLST10
 2300 0ae1 01       		.byte	0x1
 2301 0ae2 FD0A0000 		.4byte	0xafd
 2302 0ae6 22       		.uleb128 0x22
 2303 0ae7 7000     		.ascii	"p\000"
 2304 0ae9 01       		.byte	0x1
 2305 0aea 3C       		.byte	0x3c
 2306 0aeb 98020000 		.4byte	0x298
 2307 0aef 5F010000 		.4byte	.LLST11
 2308 0af3 1F       		.uleb128 0x1f
 2309 0af4 08000000 		.4byte	.LVL55
 2310 0af8 B90D0000 		.4byte	0xdb9
 2311 0afc 00       		.byte	0
 2312 0afd 23       		.uleb128 0x23
 2313 0afe 7F060000 		.4byte	0x67f
 2314 0b02 00000000 		.4byte	.LFB11
 2315 0b06 78000000 		.4byte	.LFE11
 2316 0b0a 80010000 		.4byte	.LLST12
 2317 0b0e 01       		.byte	0x1
ARM GAS  /tmp/ccCrYZbl.s 			page 42


 2318 0b0f 160C0000 		.4byte	0xc16
 2319 0b13 24       		.uleb128 0x24
 2320 0b14 8C060000 		.4byte	0x68c
 2321 0b18 A0010000 		.4byte	.LLST13
 2322 0b1c 25       		.uleb128 0x25
 2323 0b1d 7F060000 		.4byte	0x67f
 2324 0b21 3C000000 		.4byte	.LBB13
 2325 0b25 48000000 		.4byte	.Ldebug_ranges0+0x48
 2326 0b29 01       		.byte	0x1
 2327 0b2a BD       		.byte	0xbd
 2328 0b2b A60B0000 		.4byte	0xba6
 2329 0b2f 26       		.uleb128 0x26
 2330 0b30 60000000 		.4byte	.Ldebug_ranges0+0x60
 2331 0b34 24       		.uleb128 0x24
 2332 0b35 8C060000 		.4byte	0x68c
 2333 0b39 BE010000 		.4byte	.LLST14
 2334 0b3d 1C       		.uleb128 0x1c
 2335 0b3e 46000000 		.4byte	.LVL66
 2336 0b42 CD0D0000 		.4byte	0xdcd
 2337 0b46 520B0000 		.4byte	0xb52
 2338 0b4a 1D       		.uleb128 0x1d
 2339 0b4b 01       		.byte	0x1
 2340 0b4c 50       		.byte	0x50
 2341 0b4d 03       		.byte	0x3
 2342 0b4e 0A       		.byte	0xa
 2343 0b4f E803     		.2byte	0x3e8
 2344 0b51 00       		.byte	0
 2345 0b52 1C       		.uleb128 0x1c
 2346 0b53 54000000 		.4byte	.LVL67
 2347 0b57 E20D0000 		.4byte	0xde2
 2348 0b5b 730B0000 		.4byte	0xb73
 2349 0b5f 1D       		.uleb128 0x1d
 2350 0b60 01       		.byte	0x1
 2351 0b61 52       		.byte	0x52
 2352 0b62 03       		.byte	0x3
 2353 0b63 74       		.byte	0x74
 2354 0b64 E907     		.sleb128 1001
 2355 0b66 1D       		.uleb128 0x1d
 2356 0b67 01       		.byte	0x1
 2357 0b68 51       		.byte	0x51
 2358 0b69 03       		.byte	0x3
 2359 0b6a 74       		.byte	0x74
 2360 0b6b E807     		.sleb128 1000
 2361 0b6d 1D       		.uleb128 0x1d
 2362 0b6e 01       		.byte	0x1
 2363 0b6f 50       		.byte	0x50
 2364 0b70 01       		.byte	0x1
 2365 0b71 33       		.byte	0x33
 2366 0b72 00       		.byte	0
 2367 0b73 1C       		.uleb128 0x1c
 2368 0b74 64000000 		.4byte	.LVL70
 2369 0b78 040E0000 		.4byte	0xe04
 2370 0b7c 870B0000 		.4byte	0xb87
 2371 0b80 1D       		.uleb128 0x1d
 2372 0b81 01       		.byte	0x1
 2373 0b82 50       		.byte	0x50
 2374 0b83 02       		.byte	0x2
ARM GAS  /tmp/ccCrYZbl.s 			page 43


 2375 0b84 75       		.byte	0x75
 2376 0b85 00       		.sleb128 0
 2377 0b86 00       		.byte	0
 2378 0b87 20       		.uleb128 0x20
 2379 0b88 74000000 		.4byte	.LVL71
 2380 0b8c 01       		.byte	0x1
 2381 0b8d E20D0000 		.4byte	0xde2
 2382 0b91 1D       		.uleb128 0x1d
 2383 0b92 01       		.byte	0x1
 2384 0b93 52       		.byte	0x52
 2385 0b94 03       		.byte	0x3
 2386 0b95 74       		.byte	0x74
 2387 0b96 E500     		.sleb128 101
 2388 0b98 1D       		.uleb128 0x1d
 2389 0b99 01       		.byte	0x1
 2390 0b9a 51       		.byte	0x51
 2391 0b9b 02       		.byte	0x2
 2392 0b9c 75       		.byte	0x75
 2393 0b9d 00       		.sleb128 0
 2394 0b9e 1D       		.uleb128 0x1d
 2395 0b9f 01       		.byte	0x1
 2396 0ba0 50       		.byte	0x50
 2397 0ba1 01       		.byte	0x1
 2398 0ba2 34       		.byte	0x34
 2399 0ba3 00       		.byte	0
 2400 0ba4 00       		.byte	0
 2401 0ba5 00       		.byte	0
 2402 0ba6 1F       		.uleb128 0x1f
 2403 0ba7 08000000 		.4byte	.LVL56
 2404 0bab 190E0000 		.4byte	0xe19
 2405 0baf 1C       		.uleb128 0x1c
 2406 0bb0 10000000 		.4byte	.LVL58
 2407 0bb4 CD0D0000 		.4byte	0xdcd
 2408 0bb8 C30B0000 		.4byte	0xbc3
 2409 0bbc 1D       		.uleb128 0x1d
 2410 0bbd 01       		.byte	0x1
 2411 0bbe 50       		.byte	0x50
 2412 0bbf 02       		.byte	0x2
 2413 0bc0 08       		.byte	0x8
 2414 0bc1 64       		.byte	0x64
 2415 0bc2 00       		.byte	0
 2416 0bc3 1C       		.uleb128 0x1c
 2417 0bc4 1E000000 		.4byte	.LVL59
 2418 0bc8 E20D0000 		.4byte	0xde2
 2419 0bcc E40B0000 		.4byte	0xbe4
 2420 0bd0 1D       		.uleb128 0x1d
 2421 0bd1 01       		.byte	0x1
 2422 0bd2 52       		.byte	0x52
 2423 0bd3 03       		.byte	0x3
 2424 0bd4 74       		.byte	0x74
 2425 0bd5 E500     		.sleb128 101
 2426 0bd7 1D       		.uleb128 0x1d
 2427 0bd8 01       		.byte	0x1
 2428 0bd9 51       		.byte	0x51
 2429 0bda 03       		.byte	0x3
 2430 0bdb 74       		.byte	0x74
 2431 0bdc E400     		.sleb128 100
ARM GAS  /tmp/ccCrYZbl.s 			page 44


 2432 0bde 1D       		.uleb128 0x1d
 2433 0bdf 01       		.byte	0x1
 2434 0be0 50       		.byte	0x50
 2435 0be1 01       		.byte	0x1
 2436 0be2 31       		.byte	0x31
 2437 0be3 00       		.byte	0
 2438 0be4 1C       		.uleb128 0x1c
 2439 0be5 2A000000 		.4byte	.LVL63
 2440 0be9 CD0D0000 		.4byte	0xdcd
 2441 0bed F80B0000 		.4byte	0xbf8
 2442 0bf1 1D       		.uleb128 0x1d
 2443 0bf2 01       		.byte	0x1
 2444 0bf3 50       		.byte	0x50
 2445 0bf4 02       		.byte	0x2
 2446 0bf5 08       		.byte	0x8
 2447 0bf6 64       		.byte	0x64
 2448 0bf7 00       		.byte	0
 2449 0bf8 1E       		.uleb128 0x1e
 2450 0bf9 38000000 		.4byte	.LVL64
 2451 0bfd E20D0000 		.4byte	0xde2
 2452 0c01 1D       		.uleb128 0x1d
 2453 0c02 01       		.byte	0x1
 2454 0c03 52       		.byte	0x52
 2455 0c04 03       		.byte	0x3
 2456 0c05 74       		.byte	0x74
 2457 0c06 E500     		.sleb128 101
 2458 0c08 1D       		.uleb128 0x1d
 2459 0c09 01       		.byte	0x1
 2460 0c0a 51       		.byte	0x51
 2461 0c0b 03       		.byte	0x3
 2462 0c0c 74       		.byte	0x74
 2463 0c0d E400     		.sleb128 100
 2464 0c0f 1D       		.uleb128 0x1d
 2465 0c10 01       		.byte	0x1
 2466 0c11 50       		.byte	0x50
 2467 0c12 01       		.byte	0x1
 2468 0c13 32       		.byte	0x32
 2469 0c14 00       		.byte	0
 2470 0c15 00       		.byte	0
 2471 0c16 27       		.uleb128 0x27
 2472 0c17 21000000 		.4byte	.LASF84
 2473 0c1b 08       		.byte	0x8
 2474 0c1c D4       		.byte	0xd4
 2475 0c1d 09050000 		.4byte	0x509
 2476 0c21 01       		.byte	0x1
 2477 0c22 01       		.byte	0x1
 2478 0c23 27       		.uleb128 0x27
 2479 0c24 5A040000 		.4byte	.LASF85
 2480 0c28 09       		.byte	0x9
 2481 0c29 68       		.byte	0x68
 2482 0c2a 71050000 		.4byte	0x571
 2483 0c2e 01       		.byte	0x1
 2484 0c2f 01       		.byte	0x1
 2485 0c30 28       		.uleb128 0x28
 2486 0c31 5A020000 		.4byte	0x25a
 2487 0c35 400C0000 		.4byte	0xc40
 2488 0c39 29       		.uleb128 0x29
ARM GAS  /tmp/ccCrYZbl.s 			page 45


 2489 0c3a 3B040000 		.4byte	0x43b
 2490 0c3e 04       		.byte	0x4
 2491 0c3f 00       		.byte	0
 2492 0c40 27       		.uleb128 0x27
 2493 0c41 8B030000 		.4byte	.LASF86
 2494 0c45 0B       		.byte	0xb
 2495 0c46 A5       		.byte	0xa5
 2496 0c47 300C0000 		.4byte	0xc30
 2497 0c4b 01       		.byte	0x1
 2498 0c4c 01       		.byte	0x1
 2499 0c4d 28       		.uleb128 0x28
 2500 0c4e 98020000 		.4byte	0x298
 2501 0c52 580C0000 		.4byte	0xc58
 2502 0c56 2A       		.uleb128 0x2a
 2503 0c57 00       		.byte	0
 2504 0c58 2B       		.uleb128 0x2b
 2505 0c59 776100   		.ascii	"wa\000"
 2506 0c5c 0B       		.byte	0xb
 2507 0c5d A7       		.byte	0xa7
 2508 0c5e 640C0000 		.4byte	0xc64
 2509 0c62 01       		.byte	0x1
 2510 0c63 01       		.byte	0x1
 2511 0c64 12       		.uleb128 0x12
 2512 0c65 4D0C0000 		.4byte	0xc4d
 2513 0c69 2C       		.uleb128 0x2c
 2514 0c6a 4A020000 		.4byte	.LASF87
 2515 0c6e 01       		.byte	0x1
 2516 0c6f 4D       		.byte	0x4d
 2517 0c70 7B0C0000 		.4byte	0xc7b
 2518 0c74 01       		.byte	0x1
 2519 0c75 05       		.byte	0x5
 2520 0c76 03       		.byte	0x3
 2521 0c77 00000000 		.4byte	testthd1
 2522 0c7b 12       		.uleb128 0x12
 2523 0c7c 32060000 		.4byte	0x632
 2524 0c80 2C       		.uleb128 0x2c
 2525 0c81 53020000 		.4byte	.LASF88
 2526 0c85 01       		.byte	0x1
 2527 0c86 6D       		.byte	0x6d
 2528 0c87 7B0C0000 		.4byte	0xc7b
 2529 0c8b 01       		.byte	0x1
 2530 0c8c 05       		.byte	0x5
 2531 0c8d 03       		.byte	0x3
 2532 0c8e 00000000 		.4byte	testthd2
 2533 0c92 2C       		.uleb128 0x2c
 2534 0c93 5C020000 		.4byte	.LASF89
 2535 0c97 01       		.byte	0x1
 2536 0c98 AE       		.byte	0xae
 2537 0c99 7B0C0000 		.4byte	0xc7b
 2538 0c9d 01       		.byte	0x1
 2539 0c9e 05       		.byte	0x5
 2540 0c9f 03       		.byte	0x3
 2541 0ca0 00000000 		.4byte	testthd3
 2542 0ca4 2C       		.uleb128 0x2c
 2543 0ca5 65020000 		.4byte	.LASF90
 2544 0ca9 01       		.byte	0x1
 2545 0caa D7       		.byte	0xd7
ARM GAS  /tmp/ccCrYZbl.s 			page 46


 2546 0cab 7B0C0000 		.4byte	0xc7b
 2547 0caf 01       		.byte	0x1
 2548 0cb0 05       		.byte	0x5
 2549 0cb1 03       		.byte	0x3
 2550 0cb2 00000000 		.4byte	testthd4
 2551 0cb6 28       		.uleb128 0x28
 2552 0cb7 C60C0000 		.4byte	0xcc6
 2553 0cbb C60C0000 		.4byte	0xcc6
 2554 0cbf 29       		.uleb128 0x29
 2555 0cc0 3B040000 		.4byte	0x43b
 2556 0cc4 04       		.byte	0x4
 2557 0cc5 00       		.byte	0
 2558 0cc6 09       		.uleb128 0x9
 2559 0cc7 04       		.byte	0x4
 2560 0cc8 7B0C0000 		.4byte	0xc7b
 2561 0ccc 2C       		.uleb128 0x2c
 2562 0ccd EE030000 		.4byte	.LASF91
 2563 0cd1 01       		.byte	0x1
 2564 0cd2 E1       		.byte	0xe1
 2565 0cd3 DE0C0000 		.4byte	0xcde
 2566 0cd7 01       		.byte	0x1
 2567 0cd8 05       		.byte	0x5
 2568 0cd9 03       		.byte	0x3
 2569 0cda 00000000 		.4byte	patternthd
 2570 0cde 12       		.uleb128 0x12
 2571 0cdf B60C0000 		.4byte	0xcb6
 2572 0ce3 2D       		.uleb128 0x2d
 2573 0ce4 01       		.byte	0x1
 2574 0ce5 08010000 		.4byte	.LASF92
 2575 0ce9 06       		.byte	0x6
 2576 0cea 6B01     		.2byte	0x16b
 2577 0cec 01       		.byte	0x1
 2578 0ced D9000000 		.4byte	0xd9
 2579 0cf1 01       		.byte	0x1
 2580 0cf2 FC0C0000 		.4byte	0xcfc
 2581 0cf6 0E       		.uleb128 0xe
 2582 0cf7 D9000000 		.4byte	0xd9
 2583 0cfb 00       		.byte	0
 2584 0cfc 2E       		.uleb128 0x2e
 2585 0cfd 01       		.byte	0x1
 2586 0cfe 76040000 		.4byte	.LASF93
 2587 0d02 0B       		.byte	0xb
 2588 0d03 58       		.byte	0x58
 2589 0d04 01       		.byte	0x1
 2590 0d05 9B000000 		.4byte	0x9b
 2591 0d09 01       		.byte	0x1
 2592 0d0a 190D0000 		.4byte	0xd19
 2593 0d0e 0E       		.uleb128 0xe
 2594 0d0f 3B000000 		.4byte	0x3b
 2595 0d13 0E       		.uleb128 0xe
 2596 0d14 9B000000 		.4byte	0x9b
 2597 0d18 00       		.byte	0
 2598 0d19 2D       		.uleb128 0x2d
 2599 0d1a 01       		.byte	0x1
 2600 0d1b 27020000 		.4byte	.LASF94
 2601 0d1f 06       		.byte	0x6
 2602 0d20 6901     		.2byte	0x169
ARM GAS  /tmp/ccCrYZbl.s 			page 47


 2603 0d22 01       		.byte	0x1
 2604 0d23 5A020000 		.4byte	0x25a
 2605 0d27 01       		.byte	0x1
 2606 0d28 460D0000 		.4byte	0xd46
 2607 0d2c 0E       		.uleb128 0xe
 2608 0d2d 98020000 		.4byte	0x298
 2609 0d31 0E       		.uleb128 0xe
 2610 0d32 30000000 		.4byte	0x30
 2611 0d36 0E       		.uleb128 0xe
 2612 0d37 D9000000 		.4byte	0xd9
 2613 0d3b 0E       		.uleb128 0xe
 2614 0d3c 11060000 		.4byte	0x611
 2615 0d40 0E       		.uleb128 0xe
 2616 0d41 98020000 		.4byte	0x298
 2617 0d45 00       		.byte	0
 2618 0d46 2D       		.uleb128 0x2d
 2619 0d47 01       		.byte	0x1
 2620 0d48 C8000000 		.4byte	.LASF95
 2621 0d4c 06       		.byte	0x6
 2622 0d4d 6701     		.2byte	0x167
 2623 0d4f 01       		.byte	0x1
 2624 0d50 5A020000 		.4byte	0x25a
 2625 0d54 01       		.byte	0x1
 2626 0d55 730D0000 		.4byte	0xd73
 2627 0d59 0E       		.uleb128 0xe
 2628 0d5a 98020000 		.4byte	0x298
 2629 0d5e 0E       		.uleb128 0xe
 2630 0d5f 30000000 		.4byte	0x30
 2631 0d63 0E       		.uleb128 0xe
 2632 0d64 D9000000 		.4byte	0xd9
 2633 0d68 0E       		.uleb128 0xe
 2634 0d69 11060000 		.4byte	0x611
 2635 0d6d 0E       		.uleb128 0xe
 2636 0d6e 98020000 		.4byte	0x298
 2637 0d72 00       		.byte	0
 2638 0d73 2D       		.uleb128 0x2d
 2639 0d74 01       		.byte	0x1
 2640 0d75 76020000 		.4byte	.LASF96
 2641 0d79 06       		.byte	0x6
 2642 0d7a 6C01     		.2byte	0x16c
 2643 0d7c 01       		.byte	0x1
 2644 0d7d 5A020000 		.4byte	0x25a
 2645 0d81 01       		.byte	0x1
 2646 0d82 8C0D0000 		.4byte	0xd8c
 2647 0d86 0E       		.uleb128 0xe
 2648 0d87 5A020000 		.4byte	0x25a
 2649 0d8b 00       		.byte	0
 2650 0d8c 2F       		.uleb128 0x2f
 2651 0d8d 01       		.byte	0x1
 2652 0d8e 82020000 		.4byte	.LASF108
 2653 0d92 0B       		.byte	0xb
 2654 0d93 5C       		.byte	0x5c
 2655 0d94 01       		.byte	0x1
 2656 0d95 01       		.byte	0x1
 2657 0d96 2E       		.uleb128 0x2e
 2658 0d97 01       		.byte	0x1
 2659 0d98 B5020000 		.4byte	.LASF97
ARM GAS  /tmp/ccCrYZbl.s 			page 48


 2660 0d9c 0B       		.byte	0xb
 2661 0d9d 59       		.byte	0x59
 2662 0d9e 01       		.byte	0x1
 2663 0d9f 9B000000 		.4byte	0x9b
 2664 0da3 01       		.byte	0x1
 2665 0da4 B30D0000 		.4byte	0xdb3
 2666 0da8 0E       		.uleb128 0xe
 2667 0da9 3B000000 		.4byte	0x3b
 2668 0dad 0E       		.uleb128 0xe
 2669 0dae B30D0000 		.4byte	0xdb3
 2670 0db2 00       		.byte	0
 2671 0db3 09       		.uleb128 0x9
 2672 0db4 04       		.byte	0x4
 2673 0db5 04060000 		.4byte	0x604
 2674 0db9 30       		.uleb128 0x30
 2675 0dba 01       		.byte	0x1
 2676 0dbb AE000000 		.4byte	.LASF98
 2677 0dbf 0B       		.byte	0xb
 2678 0dc0 56       		.byte	0x56
 2679 0dc1 01       		.byte	0x1
 2680 0dc2 01       		.byte	0x1
 2681 0dc3 CD0D0000 		.4byte	0xdcd
 2682 0dc7 0E       		.uleb128 0xe
 2683 0dc8 04060000 		.4byte	0x604
 2684 0dcc 00       		.byte	0
 2685 0dcd 31       		.uleb128 0x31
 2686 0dce 01       		.byte	0x1
 2687 0dcf 3E040000 		.4byte	.LASF99
 2688 0dd3 06       		.byte	0x6
 2689 0dd4 6E01     		.2byte	0x16e
 2690 0dd6 01       		.byte	0x1
 2691 0dd7 01       		.byte	0x1
 2692 0dd8 E20D0000 		.4byte	0xde2
 2693 0ddc 0E       		.uleb128 0xe
 2694 0ddd FA000000 		.4byte	0xfa
 2695 0de1 00       		.byte	0
 2696 0de2 2E       		.uleb128 0x2e
 2697 0de3 01       		.byte	0x1
 2698 0de4 E7000000 		.4byte	.LASF100
 2699 0de8 0B       		.byte	0xb
 2700 0de9 5A       		.byte	0x5a
 2701 0dea 01       		.byte	0x1
 2702 0deb 9B000000 		.4byte	0x9b
 2703 0def 01       		.byte	0x1
 2704 0df0 040E0000 		.4byte	0xe04
 2705 0df4 0E       		.uleb128 0xe
 2706 0df5 3B000000 		.4byte	0x3b
 2707 0df9 0E       		.uleb128 0xe
 2708 0dfa FA000000 		.4byte	0xfa
 2709 0dfe 0E       		.uleb128 0xe
 2710 0dff FA000000 		.4byte	0xfa
 2711 0e03 00       		.byte	0
 2712 0e04 31       		.uleb128 0x31
 2713 0e05 01       		.byte	0x1
 2714 0e06 E2020000 		.4byte	.LASF101
 2715 0e0a 06       		.byte	0x6
 2716 0e0b 6F01     		.2byte	0x16f
ARM GAS  /tmp/ccCrYZbl.s 			page 49


 2717 0e0d 01       		.byte	0x1
 2718 0e0e 01       		.byte	0x1
 2719 0e0f 190E0000 		.4byte	0xe19
 2720 0e13 0E       		.uleb128 0xe
 2721 0e14 FA000000 		.4byte	0xfa
 2722 0e18 00       		.byte	0
 2723 0e19 32       		.uleb128 0x32
 2724 0e1a 01       		.byte	0x1
 2725 0e1b 56030000 		.4byte	.LASF109
 2726 0e1f 0B       		.byte	0xb
 2727 0e20 5D       		.byte	0x5d
 2728 0e21 01       		.byte	0x1
 2729 0e22 FA000000 		.4byte	0xfa
 2730 0e26 01       		.byte	0x1
 2731 0e27 00       		.byte	0
 2732              		.section	.debug_abbrev,"",%progbits
 2733              	.Ldebug_abbrev0:
 2734 0000 01       		.uleb128 0x1
 2735 0001 11       		.uleb128 0x11
 2736 0002 01       		.byte	0x1
 2737 0003 25       		.uleb128 0x25
 2738 0004 0E       		.uleb128 0xe
 2739 0005 13       		.uleb128 0x13
 2740 0006 0B       		.uleb128 0xb
 2741 0007 03       		.uleb128 0x3
 2742 0008 0E       		.uleb128 0xe
 2743 0009 1B       		.uleb128 0x1b
 2744 000a 0E       		.uleb128 0xe
 2745 000b 55       		.uleb128 0x55
 2746 000c 06       		.uleb128 0x6
 2747 000d 11       		.uleb128 0x11
 2748 000e 01       		.uleb128 0x1
 2749 000f 52       		.uleb128 0x52
 2750 0010 01       		.uleb128 0x1
 2751 0011 10       		.uleb128 0x10
 2752 0012 06       		.uleb128 0x6
 2753 0013 00       		.byte	0
 2754 0014 00       		.byte	0
 2755 0015 02       		.uleb128 0x2
 2756 0016 24       		.uleb128 0x24
 2757 0017 00       		.byte	0
 2758 0018 0B       		.uleb128 0xb
 2759 0019 0B       		.uleb128 0xb
 2760 001a 3E       		.uleb128 0x3e
 2761 001b 0B       		.uleb128 0xb
 2762 001c 03       		.uleb128 0x3
 2763 001d 08       		.uleb128 0x8
 2764 001e 00       		.byte	0
 2765 001f 00       		.byte	0
 2766 0020 03       		.uleb128 0x3
 2767 0021 16       		.uleb128 0x16
 2768 0022 00       		.byte	0
 2769 0023 03       		.uleb128 0x3
 2770 0024 0E       		.uleb128 0xe
 2771 0025 3A       		.uleb128 0x3a
 2772 0026 0B       		.uleb128 0xb
 2773 0027 3B       		.uleb128 0x3b
ARM GAS  /tmp/ccCrYZbl.s 			page 50


 2774 0028 0B       		.uleb128 0xb
 2775 0029 49       		.uleb128 0x49
 2776 002a 13       		.uleb128 0x13
 2777 002b 00       		.byte	0
 2778 002c 00       		.byte	0
 2779 002d 04       		.uleb128 0x4
 2780 002e 24       		.uleb128 0x24
 2781 002f 00       		.byte	0
 2782 0030 0B       		.uleb128 0xb
 2783 0031 0B       		.uleb128 0xb
 2784 0032 3E       		.uleb128 0x3e
 2785 0033 0B       		.uleb128 0xb
 2786 0034 03       		.uleb128 0x3
 2787 0035 0E       		.uleb128 0xe
 2788 0036 00       		.byte	0
 2789 0037 00       		.byte	0
 2790 0038 05       		.uleb128 0x5
 2791 0039 13       		.uleb128 0x13
 2792 003a 01       		.byte	0x1
 2793 003b 03       		.uleb128 0x3
 2794 003c 0E       		.uleb128 0xe
 2795 003d 0B       		.uleb128 0xb
 2796 003e 0B       		.uleb128 0xb
 2797 003f 3A       		.uleb128 0x3a
 2798 0040 0B       		.uleb128 0xb
 2799 0041 3B       		.uleb128 0x3b
 2800 0042 0B       		.uleb128 0xb
 2801 0043 01       		.uleb128 0x1
 2802 0044 13       		.uleb128 0x13
 2803 0045 00       		.byte	0
 2804 0046 00       		.byte	0
 2805 0047 06       		.uleb128 0x6
 2806 0048 0D       		.uleb128 0xd
 2807 0049 00       		.byte	0
 2808 004a 03       		.uleb128 0x3
 2809 004b 0E       		.uleb128 0xe
 2810 004c 3A       		.uleb128 0x3a
 2811 004d 0B       		.uleb128 0xb
 2812 004e 3B       		.uleb128 0x3b
 2813 004f 0B       		.uleb128 0xb
 2814 0050 49       		.uleb128 0x49
 2815 0051 13       		.uleb128 0x13
 2816 0052 38       		.uleb128 0x38
 2817 0053 0A       		.uleb128 0xa
 2818 0054 00       		.byte	0
 2819 0055 00       		.byte	0
 2820 0056 07       		.uleb128 0x7
 2821 0057 0D       		.uleb128 0xd
 2822 0058 00       		.byte	0
 2823 0059 03       		.uleb128 0x3
 2824 005a 08       		.uleb128 0x8
 2825 005b 3A       		.uleb128 0x3a
 2826 005c 0B       		.uleb128 0xb
 2827 005d 3B       		.uleb128 0x3b
 2828 005e 0B       		.uleb128 0xb
 2829 005f 49       		.uleb128 0x49
 2830 0060 13       		.uleb128 0x13
ARM GAS  /tmp/ccCrYZbl.s 			page 51


 2831 0061 38       		.uleb128 0x38
 2832 0062 0A       		.uleb128 0xa
 2833 0063 00       		.byte	0
 2834 0064 00       		.byte	0
 2835 0065 08       		.uleb128 0x8
 2836 0066 13       		.uleb128 0x13
 2837 0067 01       		.byte	0x1
 2838 0068 0B       		.uleb128 0xb
 2839 0069 0B       		.uleb128 0xb
 2840 006a 3A       		.uleb128 0x3a
 2841 006b 0B       		.uleb128 0xb
 2842 006c 3B       		.uleb128 0x3b
 2843 006d 0B       		.uleb128 0xb
 2844 006e 01       		.uleb128 0x1
 2845 006f 13       		.uleb128 0x13
 2846 0070 00       		.byte	0
 2847 0071 00       		.byte	0
 2848 0072 09       		.uleb128 0x9
 2849 0073 0F       		.uleb128 0xf
 2850 0074 00       		.byte	0
 2851 0075 0B       		.uleb128 0xb
 2852 0076 0B       		.uleb128 0xb
 2853 0077 49       		.uleb128 0x49
 2854 0078 13       		.uleb128 0x13
 2855 0079 00       		.byte	0
 2856 007a 00       		.byte	0
 2857 007b 0A       		.uleb128 0xa
 2858 007c 0F       		.uleb128 0xf
 2859 007d 00       		.byte	0
 2860 007e 0B       		.uleb128 0xb
 2861 007f 0B       		.uleb128 0xb
 2862 0080 00       		.byte	0
 2863 0081 00       		.byte	0
 2864 0082 0B       		.uleb128 0xb
 2865 0083 13       		.uleb128 0x13
 2866 0084 01       		.byte	0x1
 2867 0085 03       		.uleb128 0x3
 2868 0086 0E       		.uleb128 0xe
 2869 0087 0B       		.uleb128 0xb
 2870 0088 0B       		.uleb128 0xb
 2871 0089 3A       		.uleb128 0x3a
 2872 008a 0B       		.uleb128 0xb
 2873 008b 3B       		.uleb128 0x3b
 2874 008c 05       		.uleb128 0x5
 2875 008d 01       		.uleb128 0x1
 2876 008e 13       		.uleb128 0x13
 2877 008f 00       		.byte	0
 2878 0090 00       		.byte	0
 2879 0091 0C       		.uleb128 0xc
 2880 0092 0D       		.uleb128 0xd
 2881 0093 00       		.byte	0
 2882 0094 03       		.uleb128 0x3
 2883 0095 08       		.uleb128 0x8
 2884 0096 3A       		.uleb128 0x3a
 2885 0097 0B       		.uleb128 0xb
 2886 0098 3B       		.uleb128 0x3b
 2887 0099 05       		.uleb128 0x5
ARM GAS  /tmp/ccCrYZbl.s 			page 52


 2888 009a 49       		.uleb128 0x49
 2889 009b 13       		.uleb128 0x13
 2890 009c 38       		.uleb128 0x38
 2891 009d 0A       		.uleb128 0xa
 2892 009e 00       		.byte	0
 2893 009f 00       		.byte	0
 2894 00a0 0D       		.uleb128 0xd
 2895 00a1 15       		.uleb128 0x15
 2896 00a2 01       		.byte	0x1
 2897 00a3 27       		.uleb128 0x27
 2898 00a4 0C       		.uleb128 0xc
 2899 00a5 01       		.uleb128 0x1
 2900 00a6 13       		.uleb128 0x13
 2901 00a7 00       		.byte	0
 2902 00a8 00       		.byte	0
 2903 00a9 0E       		.uleb128 0xe
 2904 00aa 05       		.uleb128 0x5
 2905 00ab 00       		.byte	0
 2906 00ac 49       		.uleb128 0x49
 2907 00ad 13       		.uleb128 0x13
 2908 00ae 00       		.byte	0
 2909 00af 00       		.byte	0
 2910 00b0 0F       		.uleb128 0xf
 2911 00b1 35       		.uleb128 0x35
 2912 00b2 00       		.byte	0
 2913 00b3 49       		.uleb128 0x49
 2914 00b4 13       		.uleb128 0x13
 2915 00b5 00       		.byte	0
 2916 00b6 00       		.byte	0
 2917 00b7 10       		.uleb128 0x10
 2918 00b8 17       		.uleb128 0x17
 2919 00b9 01       		.byte	0x1
 2920 00ba 0B       		.uleb128 0xb
 2921 00bb 0B       		.uleb128 0xb
 2922 00bc 3A       		.uleb128 0x3a
 2923 00bd 0B       		.uleb128 0xb
 2924 00be 3B       		.uleb128 0x3b
 2925 00bf 0B       		.uleb128 0xb
 2926 00c0 01       		.uleb128 0x1
 2927 00c1 13       		.uleb128 0x13
 2928 00c2 00       		.byte	0
 2929 00c3 00       		.byte	0
 2930 00c4 11       		.uleb128 0x11
 2931 00c5 0D       		.uleb128 0xd
 2932 00c6 00       		.byte	0
 2933 00c7 03       		.uleb128 0x3
 2934 00c8 0E       		.uleb128 0xe
 2935 00c9 3A       		.uleb128 0x3a
 2936 00ca 0B       		.uleb128 0xb
 2937 00cb 3B       		.uleb128 0x3b
 2938 00cc 0B       		.uleb128 0xb
 2939 00cd 49       		.uleb128 0x49
 2940 00ce 13       		.uleb128 0x13
 2941 00cf 00       		.byte	0
 2942 00d0 00       		.byte	0
 2943 00d1 12       		.uleb128 0x12
 2944 00d2 26       		.uleb128 0x26
ARM GAS  /tmp/ccCrYZbl.s 			page 53


 2945 00d3 00       		.byte	0
 2946 00d4 49       		.uleb128 0x49
 2947 00d5 13       		.uleb128 0x13
 2948 00d6 00       		.byte	0
 2949 00d7 00       		.byte	0
 2950 00d8 13       		.uleb128 0x13
 2951 00d9 15       		.uleb128 0x15
 2952 00da 01       		.byte	0x1
 2953 00db 27       		.uleb128 0x27
 2954 00dc 0C       		.uleb128 0xc
 2955 00dd 49       		.uleb128 0x49
 2956 00de 13       		.uleb128 0x13
 2957 00df 01       		.uleb128 0x1
 2958 00e0 13       		.uleb128 0x13
 2959 00e1 00       		.byte	0
 2960 00e2 00       		.byte	0
 2961 00e3 14       		.uleb128 0x14
 2962 00e4 15       		.uleb128 0x15
 2963 00e5 00       		.byte	0
 2964 00e6 27       		.uleb128 0x27
 2965 00e7 0C       		.uleb128 0xc
 2966 00e8 00       		.byte	0
 2967 00e9 00       		.byte	0
 2968 00ea 15       		.uleb128 0x15
 2969 00eb 2E       		.uleb128 0x2e
 2970 00ec 01       		.byte	0x1
 2971 00ed 03       		.uleb128 0x3
 2972 00ee 0E       		.uleb128 0xe
 2973 00ef 3A       		.uleb128 0x3a
 2974 00f0 0B       		.uleb128 0xb
 2975 00f1 3B       		.uleb128 0x3b
 2976 00f2 0B       		.uleb128 0xb
 2977 00f3 27       		.uleb128 0x27
 2978 00f4 0C       		.uleb128 0xc
 2979 00f5 20       		.uleb128 0x20
 2980 00f6 0B       		.uleb128 0xb
 2981 00f7 01       		.uleb128 0x1
 2982 00f8 13       		.uleb128 0x13
 2983 00f9 00       		.byte	0
 2984 00fa 00       		.byte	0
 2985 00fb 16       		.uleb128 0x16
 2986 00fc 34       		.uleb128 0x34
 2987 00fd 00       		.byte	0
 2988 00fe 03       		.uleb128 0x3
 2989 00ff 0E       		.uleb128 0xe
 2990 0100 3A       		.uleb128 0x3a
 2991 0101 0B       		.uleb128 0xb
 2992 0102 3B       		.uleb128 0x3b
 2993 0103 0B       		.uleb128 0xb
 2994 0104 49       		.uleb128 0x49
 2995 0105 13       		.uleb128 0x13
 2996 0106 00       		.byte	0
 2997 0107 00       		.byte	0
 2998 0108 17       		.uleb128 0x17
 2999 0109 2E       		.uleb128 0x2e
 3000 010a 01       		.byte	0x1
 3001 010b 03       		.uleb128 0x3
ARM GAS  /tmp/ccCrYZbl.s 			page 54


 3002 010c 0E       		.uleb128 0xe
 3003 010d 3A       		.uleb128 0x3a
 3004 010e 0B       		.uleb128 0xb
 3005 010f 3B       		.uleb128 0x3b
 3006 0110 0B       		.uleb128 0xb
 3007 0111 27       		.uleb128 0x27
 3008 0112 0C       		.uleb128 0xc
 3009 0113 11       		.uleb128 0x11
 3010 0114 01       		.uleb128 0x1
 3011 0115 12       		.uleb128 0x12
 3012 0116 01       		.uleb128 0x1
 3013 0117 40       		.uleb128 0x40
 3014 0118 06       		.uleb128 0x6
 3015 0119 9742     		.uleb128 0x2117
 3016 011b 0C       		.uleb128 0xc
 3017 011c 01       		.uleb128 0x1
 3018 011d 13       		.uleb128 0x13
 3019 011e 00       		.byte	0
 3020 011f 00       		.byte	0
 3021 0120 18       		.uleb128 0x18
 3022 0121 34       		.uleb128 0x34
 3023 0122 00       		.byte	0
 3024 0123 03       		.uleb128 0x3
 3025 0124 0E       		.uleb128 0xe
 3026 0125 3A       		.uleb128 0x3a
 3027 0126 0B       		.uleb128 0xb
 3028 0127 3B       		.uleb128 0x3b
 3029 0128 0B       		.uleb128 0xb
 3030 0129 49       		.uleb128 0x49
 3031 012a 13       		.uleb128 0x13
 3032 012b 02       		.uleb128 0x2
 3033 012c 0A       		.uleb128 0xa
 3034 012d 00       		.byte	0
 3035 012e 00       		.byte	0
 3036 012f 19       		.uleb128 0x19
 3037 0130 34       		.uleb128 0x34
 3038 0131 00       		.byte	0
 3039 0132 03       		.uleb128 0x3
 3040 0133 08       		.uleb128 0x8
 3041 0134 3A       		.uleb128 0x3a
 3042 0135 0B       		.uleb128 0xb
 3043 0136 3B       		.uleb128 0x3b
 3044 0137 0B       		.uleb128 0xb
 3045 0138 49       		.uleb128 0x49
 3046 0139 13       		.uleb128 0x13
 3047 013a 02       		.uleb128 0x2
 3048 013b 06       		.uleb128 0x6
 3049 013c 00       		.byte	0
 3050 013d 00       		.byte	0
 3051 013e 1A       		.uleb128 0x1a
 3052 013f 0B       		.uleb128 0xb
 3053 0140 01       		.byte	0x1
 3054 0141 11       		.uleb128 0x11
 3055 0142 01       		.uleb128 0x1
 3056 0143 12       		.uleb128 0x12
 3057 0144 01       		.uleb128 0x1
 3058 0145 01       		.uleb128 0x1
ARM GAS  /tmp/ccCrYZbl.s 			page 55


 3059 0146 13       		.uleb128 0x13
 3060 0147 00       		.byte	0
 3061 0148 00       		.byte	0
 3062 0149 1B       		.uleb128 0x1b
 3063 014a 0B       		.uleb128 0xb
 3064 014b 01       		.byte	0x1
 3065 014c 55       		.uleb128 0x55
 3066 014d 06       		.uleb128 0x6
 3067 014e 01       		.uleb128 0x1
 3068 014f 13       		.uleb128 0x13
 3069 0150 00       		.byte	0
 3070 0151 00       		.byte	0
 3071 0152 1C       		.uleb128 0x1c
 3072 0153 898201   		.uleb128 0x4109
 3073 0156 01       		.byte	0x1
 3074 0157 11       		.uleb128 0x11
 3075 0158 01       		.uleb128 0x1
 3076 0159 31       		.uleb128 0x31
 3077 015a 13       		.uleb128 0x13
 3078 015b 01       		.uleb128 0x1
 3079 015c 13       		.uleb128 0x13
 3080 015d 00       		.byte	0
 3081 015e 00       		.byte	0
 3082 015f 1D       		.uleb128 0x1d
 3083 0160 8A8201   		.uleb128 0x410a
 3084 0163 00       		.byte	0
 3085 0164 02       		.uleb128 0x2
 3086 0165 0A       		.uleb128 0xa
 3087 0166 9142     		.uleb128 0x2111
 3088 0168 0A       		.uleb128 0xa
 3089 0169 00       		.byte	0
 3090 016a 00       		.byte	0
 3091 016b 1E       		.uleb128 0x1e
 3092 016c 898201   		.uleb128 0x4109
 3093 016f 01       		.byte	0x1
 3094 0170 11       		.uleb128 0x11
 3095 0171 01       		.uleb128 0x1
 3096 0172 31       		.uleb128 0x31
 3097 0173 13       		.uleb128 0x13
 3098 0174 00       		.byte	0
 3099 0175 00       		.byte	0
 3100 0176 1F       		.uleb128 0x1f
 3101 0177 898201   		.uleb128 0x4109
 3102 017a 00       		.byte	0
 3103 017b 11       		.uleb128 0x11
 3104 017c 01       		.uleb128 0x1
 3105 017d 31       		.uleb128 0x31
 3106 017e 13       		.uleb128 0x13
 3107 017f 00       		.byte	0
 3108 0180 00       		.byte	0
 3109 0181 20       		.uleb128 0x20
 3110 0182 898201   		.uleb128 0x4109
 3111 0185 01       		.byte	0x1
 3112 0186 11       		.uleb128 0x11
 3113 0187 01       		.uleb128 0x1
 3114 0188 9542     		.uleb128 0x2115
 3115 018a 0C       		.uleb128 0xc
ARM GAS  /tmp/ccCrYZbl.s 			page 56


 3116 018b 31       		.uleb128 0x31
 3117 018c 13       		.uleb128 0x13
 3118 018d 00       		.byte	0
 3119 018e 00       		.byte	0
 3120 018f 21       		.uleb128 0x21
 3121 0190 2E       		.uleb128 0x2e
 3122 0191 01       		.byte	0x1
 3123 0192 03       		.uleb128 0x3
 3124 0193 0E       		.uleb128 0xe
 3125 0194 3A       		.uleb128 0x3a
 3126 0195 0B       		.uleb128 0xb
 3127 0196 3B       		.uleb128 0x3b
 3128 0197 0B       		.uleb128 0xb
 3129 0198 27       		.uleb128 0x27
 3130 0199 0C       		.uleb128 0xc
 3131 019a 49       		.uleb128 0x49
 3132 019b 13       		.uleb128 0x13
 3133 019c 11       		.uleb128 0x11
 3134 019d 01       		.uleb128 0x1
 3135 019e 12       		.uleb128 0x12
 3136 019f 01       		.uleb128 0x1
 3137 01a0 40       		.uleb128 0x40
 3138 01a1 06       		.uleb128 0x6
 3139 01a2 9742     		.uleb128 0x2117
 3140 01a4 0C       		.uleb128 0xc
 3141 01a5 01       		.uleb128 0x1
 3142 01a6 13       		.uleb128 0x13
 3143 01a7 00       		.byte	0
 3144 01a8 00       		.byte	0
 3145 01a9 22       		.uleb128 0x22
 3146 01aa 05       		.uleb128 0x5
 3147 01ab 00       		.byte	0
 3148 01ac 03       		.uleb128 0x3
 3149 01ad 08       		.uleb128 0x8
 3150 01ae 3A       		.uleb128 0x3a
 3151 01af 0B       		.uleb128 0xb
 3152 01b0 3B       		.uleb128 0x3b
 3153 01b1 0B       		.uleb128 0xb
 3154 01b2 49       		.uleb128 0x49
 3155 01b3 13       		.uleb128 0x13
 3156 01b4 02       		.uleb128 0x2
 3157 01b5 06       		.uleb128 0x6
 3158 01b6 00       		.byte	0
 3159 01b7 00       		.byte	0
 3160 01b8 23       		.uleb128 0x23
 3161 01b9 2E       		.uleb128 0x2e
 3162 01ba 01       		.byte	0x1
 3163 01bb 31       		.uleb128 0x31
 3164 01bc 13       		.uleb128 0x13
 3165 01bd 11       		.uleb128 0x11
 3166 01be 01       		.uleb128 0x1
 3167 01bf 12       		.uleb128 0x12
 3168 01c0 01       		.uleb128 0x1
 3169 01c1 40       		.uleb128 0x40
 3170 01c2 06       		.uleb128 0x6
 3171 01c3 9742     		.uleb128 0x2117
 3172 01c5 0C       		.uleb128 0xc
ARM GAS  /tmp/ccCrYZbl.s 			page 57


 3173 01c6 01       		.uleb128 0x1
 3174 01c7 13       		.uleb128 0x13
 3175 01c8 00       		.byte	0
 3176 01c9 00       		.byte	0
 3177 01ca 24       		.uleb128 0x24
 3178 01cb 34       		.uleb128 0x34
 3179 01cc 00       		.byte	0
 3180 01cd 31       		.uleb128 0x31
 3181 01ce 13       		.uleb128 0x13
 3182 01cf 02       		.uleb128 0x2
 3183 01d0 06       		.uleb128 0x6
 3184 01d1 00       		.byte	0
 3185 01d2 00       		.byte	0
 3186 01d3 25       		.uleb128 0x25
 3187 01d4 1D       		.uleb128 0x1d
 3188 01d5 01       		.byte	0x1
 3189 01d6 31       		.uleb128 0x31
 3190 01d7 13       		.uleb128 0x13
 3191 01d8 52       		.uleb128 0x52
 3192 01d9 01       		.uleb128 0x1
 3193 01da 55       		.uleb128 0x55
 3194 01db 06       		.uleb128 0x6
 3195 01dc 58       		.uleb128 0x58
 3196 01dd 0B       		.uleb128 0xb
 3197 01de 59       		.uleb128 0x59
 3198 01df 0B       		.uleb128 0xb
 3199 01e0 01       		.uleb128 0x1
 3200 01e1 13       		.uleb128 0x13
 3201 01e2 00       		.byte	0
 3202 01e3 00       		.byte	0
 3203 01e4 26       		.uleb128 0x26
 3204 01e5 0B       		.uleb128 0xb
 3205 01e6 01       		.byte	0x1
 3206 01e7 55       		.uleb128 0x55
 3207 01e8 06       		.uleb128 0x6
 3208 01e9 00       		.byte	0
 3209 01ea 00       		.byte	0
 3210 01eb 27       		.uleb128 0x27
 3211 01ec 34       		.uleb128 0x34
 3212 01ed 00       		.byte	0
 3213 01ee 03       		.uleb128 0x3
 3214 01ef 0E       		.uleb128 0xe
 3215 01f0 3A       		.uleb128 0x3a
 3216 01f1 0B       		.uleb128 0xb
 3217 01f2 3B       		.uleb128 0x3b
 3218 01f3 0B       		.uleb128 0xb
 3219 01f4 49       		.uleb128 0x49
 3220 01f5 13       		.uleb128 0x13
 3221 01f6 3F       		.uleb128 0x3f
 3222 01f7 0C       		.uleb128 0xc
 3223 01f8 3C       		.uleb128 0x3c
 3224 01f9 0C       		.uleb128 0xc
 3225 01fa 00       		.byte	0
 3226 01fb 00       		.byte	0
 3227 01fc 28       		.uleb128 0x28
 3228 01fd 01       		.uleb128 0x1
 3229 01fe 01       		.byte	0x1
ARM GAS  /tmp/ccCrYZbl.s 			page 58


 3230 01ff 49       		.uleb128 0x49
 3231 0200 13       		.uleb128 0x13
 3232 0201 01       		.uleb128 0x1
 3233 0202 13       		.uleb128 0x13
 3234 0203 00       		.byte	0
 3235 0204 00       		.byte	0
 3236 0205 29       		.uleb128 0x29
 3237 0206 21       		.uleb128 0x21
 3238 0207 00       		.byte	0
 3239 0208 49       		.uleb128 0x49
 3240 0209 13       		.uleb128 0x13
 3241 020a 2F       		.uleb128 0x2f
 3242 020b 0B       		.uleb128 0xb
 3243 020c 00       		.byte	0
 3244 020d 00       		.byte	0
 3245 020e 2A       		.uleb128 0x2a
 3246 020f 21       		.uleb128 0x21
 3247 0210 00       		.byte	0
 3248 0211 00       		.byte	0
 3249 0212 00       		.byte	0
 3250 0213 2B       		.uleb128 0x2b
 3251 0214 34       		.uleb128 0x34
 3252 0215 00       		.byte	0
 3253 0216 03       		.uleb128 0x3
 3254 0217 08       		.uleb128 0x8
 3255 0218 3A       		.uleb128 0x3a
 3256 0219 0B       		.uleb128 0xb
 3257 021a 3B       		.uleb128 0x3b
 3258 021b 0B       		.uleb128 0xb
 3259 021c 49       		.uleb128 0x49
 3260 021d 13       		.uleb128 0x13
 3261 021e 3F       		.uleb128 0x3f
 3262 021f 0C       		.uleb128 0xc
 3263 0220 3C       		.uleb128 0x3c
 3264 0221 0C       		.uleb128 0xc
 3265 0222 00       		.byte	0
 3266 0223 00       		.byte	0
 3267 0224 2C       		.uleb128 0x2c
 3268 0225 34       		.uleb128 0x34
 3269 0226 00       		.byte	0
 3270 0227 03       		.uleb128 0x3
 3271 0228 0E       		.uleb128 0xe
 3272 0229 3A       		.uleb128 0x3a
 3273 022a 0B       		.uleb128 0xb
 3274 022b 3B       		.uleb128 0x3b
 3275 022c 0B       		.uleb128 0xb
 3276 022d 49       		.uleb128 0x49
 3277 022e 13       		.uleb128 0x13
 3278 022f 3F       		.uleb128 0x3f
 3279 0230 0C       		.uleb128 0xc
 3280 0231 02       		.uleb128 0x2
 3281 0232 0A       		.uleb128 0xa
 3282 0233 00       		.byte	0
 3283 0234 00       		.byte	0
 3284 0235 2D       		.uleb128 0x2d
 3285 0236 2E       		.uleb128 0x2e
 3286 0237 01       		.byte	0x1
ARM GAS  /tmp/ccCrYZbl.s 			page 59


 3287 0238 3F       		.uleb128 0x3f
 3288 0239 0C       		.uleb128 0xc
 3289 023a 03       		.uleb128 0x3
 3290 023b 0E       		.uleb128 0xe
 3291 023c 3A       		.uleb128 0x3a
 3292 023d 0B       		.uleb128 0xb
 3293 023e 3B       		.uleb128 0x3b
 3294 023f 05       		.uleb128 0x5
 3295 0240 27       		.uleb128 0x27
 3296 0241 0C       		.uleb128 0xc
 3297 0242 49       		.uleb128 0x49
 3298 0243 13       		.uleb128 0x13
 3299 0244 3C       		.uleb128 0x3c
 3300 0245 0C       		.uleb128 0xc
 3301 0246 01       		.uleb128 0x1
 3302 0247 13       		.uleb128 0x13
 3303 0248 00       		.byte	0
 3304 0249 00       		.byte	0
 3305 024a 2E       		.uleb128 0x2e
 3306 024b 2E       		.uleb128 0x2e
 3307 024c 01       		.byte	0x1
 3308 024d 3F       		.uleb128 0x3f
 3309 024e 0C       		.uleb128 0xc
 3310 024f 03       		.uleb128 0x3
 3311 0250 0E       		.uleb128 0xe
 3312 0251 3A       		.uleb128 0x3a
 3313 0252 0B       		.uleb128 0xb
 3314 0253 3B       		.uleb128 0x3b
 3315 0254 0B       		.uleb128 0xb
 3316 0255 27       		.uleb128 0x27
 3317 0256 0C       		.uleb128 0xc
 3318 0257 49       		.uleb128 0x49
 3319 0258 13       		.uleb128 0x13
 3320 0259 3C       		.uleb128 0x3c
 3321 025a 0C       		.uleb128 0xc
 3322 025b 01       		.uleb128 0x1
 3323 025c 13       		.uleb128 0x13
 3324 025d 00       		.byte	0
 3325 025e 00       		.byte	0
 3326 025f 2F       		.uleb128 0x2f
 3327 0260 2E       		.uleb128 0x2e
 3328 0261 00       		.byte	0
 3329 0262 3F       		.uleb128 0x3f
 3330 0263 0C       		.uleb128 0xc
 3331 0264 03       		.uleb128 0x3
 3332 0265 0E       		.uleb128 0xe
 3333 0266 3A       		.uleb128 0x3a
 3334 0267 0B       		.uleb128 0xb
 3335 0268 3B       		.uleb128 0x3b
 3336 0269 0B       		.uleb128 0xb
 3337 026a 27       		.uleb128 0x27
 3338 026b 0C       		.uleb128 0xc
 3339 026c 3C       		.uleb128 0x3c
 3340 026d 0C       		.uleb128 0xc
 3341 026e 00       		.byte	0
 3342 026f 00       		.byte	0
 3343 0270 30       		.uleb128 0x30
ARM GAS  /tmp/ccCrYZbl.s 			page 60


 3344 0271 2E       		.uleb128 0x2e
 3345 0272 01       		.byte	0x1
 3346 0273 3F       		.uleb128 0x3f
 3347 0274 0C       		.uleb128 0xc
 3348 0275 03       		.uleb128 0x3
 3349 0276 0E       		.uleb128 0xe
 3350 0277 3A       		.uleb128 0x3a
 3351 0278 0B       		.uleb128 0xb
 3352 0279 3B       		.uleb128 0x3b
 3353 027a 0B       		.uleb128 0xb
 3354 027b 27       		.uleb128 0x27
 3355 027c 0C       		.uleb128 0xc
 3356 027d 3C       		.uleb128 0x3c
 3357 027e 0C       		.uleb128 0xc
 3358 027f 01       		.uleb128 0x1
 3359 0280 13       		.uleb128 0x13
 3360 0281 00       		.byte	0
 3361 0282 00       		.byte	0
 3362 0283 31       		.uleb128 0x31
 3363 0284 2E       		.uleb128 0x2e
 3364 0285 01       		.byte	0x1
 3365 0286 3F       		.uleb128 0x3f
 3366 0287 0C       		.uleb128 0xc
 3367 0288 03       		.uleb128 0x3
 3368 0289 0E       		.uleb128 0xe
 3369 028a 3A       		.uleb128 0x3a
 3370 028b 0B       		.uleb128 0xb
 3371 028c 3B       		.uleb128 0x3b
 3372 028d 05       		.uleb128 0x5
 3373 028e 27       		.uleb128 0x27
 3374 028f 0C       		.uleb128 0xc
 3375 0290 3C       		.uleb128 0x3c
 3376 0291 0C       		.uleb128 0xc
 3377 0292 01       		.uleb128 0x1
 3378 0293 13       		.uleb128 0x13
 3379 0294 00       		.byte	0
 3380 0295 00       		.byte	0
 3381 0296 32       		.uleb128 0x32
 3382 0297 2E       		.uleb128 0x2e
 3383 0298 00       		.byte	0
 3384 0299 3F       		.uleb128 0x3f
 3385 029a 0C       		.uleb128 0xc
 3386 029b 03       		.uleb128 0x3
 3387 029c 0E       		.uleb128 0xe
 3388 029d 3A       		.uleb128 0x3a
 3389 029e 0B       		.uleb128 0xb
 3390 029f 3B       		.uleb128 0x3b
 3391 02a0 0B       		.uleb128 0xb
 3392 02a1 27       		.uleb128 0x27
 3393 02a2 0C       		.uleb128 0xc
 3394 02a3 49       		.uleb128 0x49
 3395 02a4 13       		.uleb128 0x13
 3396 02a5 3C       		.uleb128 0x3c
 3397 02a6 0C       		.uleb128 0xc
 3398 02a7 00       		.byte	0
 3399 02a8 00       		.byte	0
 3400 02a9 00       		.byte	0
ARM GAS  /tmp/ccCrYZbl.s 			page 61


 3401              		.section	.debug_loc,"",%progbits
 3402              	.Ldebug_loc0:
 3403              	.LLST0:
 3404 0000 00000000 		.4byte	.LFB10
 3405 0004 02000000 		.4byte	.LCFI0
 3406 0008 0200     		.2byte	0x2
 3407 000a 7D       		.byte	0x7d
 3408 000b 00       		.sleb128 0
 3409 000c 02000000 		.4byte	.LCFI0
 3410 0010 3C010000 		.4byte	.LFE10
 3411 0014 0200     		.2byte	0x2
 3412 0016 7D       		.byte	0x7d
 3413 0017 18       		.sleb128 24
 3414 0018 00000000 		.4byte	0
 3415 001c 00000000 		.4byte	0
 3416              	.LLST1:
 3417 0020 18000000 		.4byte	.LVL2
 3418 0024 1A000000 		.4byte	.LVL3
 3419 0028 0100     		.2byte	0x1
 3420 002a 50       		.byte	0x50
 3421 002b 1A000000 		.4byte	.LVL3
 3422 002f 20000000 		.4byte	.LVL5
 3423 0033 0100     		.2byte	0x1
 3424 0035 57       		.byte	0x57
 3425 0036 22000000 		.4byte	.LVL6
 3426 003a 3C000000 		.4byte	.LVL8
 3427 003e 0100     		.2byte	0x1
 3428 0040 57       		.byte	0x57
 3429 0041 3C000000 		.4byte	.LVL8
 3430 0045 44000000 		.4byte	.LVL9
 3431 0049 0100     		.2byte	0x1
 3432 004b 50       		.byte	0x50
 3433 004c 9E000000 		.4byte	.LVL19
 3434 0050 A0000000 		.4byte	.LVL20
 3435 0054 0100     		.2byte	0x1
 3436 0056 50       		.byte	0x50
 3437 0057 EA000000 		.4byte	.LVL24
 3438 005b EC000000 		.4byte	.LVL25
 3439 005f 0100     		.2byte	0x1
 3440 0061 50       		.byte	0x50
 3441 0062 00000000 		.4byte	0
 3442 0066 00000000 		.4byte	0
 3443              	.LLST2:
 3444 006a 72000000 		.4byte	.LVL13
 3445 006e 76000000 		.4byte	.LVL14
 3446 0072 0100     		.2byte	0x1
 3447 0074 53       		.byte	0x53
 3448 0075 00000000 		.4byte	0
 3449 0079 00000000 		.4byte	0
 3450              	.LLST3:
 3451 007d 80000000 		.4byte	.LVL16
 3452 0081 8A000000 		.4byte	.LVL17
 3453 0085 0100     		.2byte	0x1
 3454 0087 53       		.byte	0x53
 3455 0088 00000000 		.4byte	0
 3456 008c 00000000 		.4byte	0
 3457              	.LLST4:
ARM GAS  /tmp/ccCrYZbl.s 			page 62


 3458 0090 2A010000 		.4byte	.LVL30
 3459 0094 2E010000 		.4byte	.LVL31
 3460 0098 0100     		.2byte	0x1
 3461 009a 53       		.byte	0x53
 3462 009b 00000000 		.4byte	0
 3463 009f 00000000 		.4byte	0
 3464              	.LLST5:
 3465 00a3 20000000 		.4byte	.LVL5
 3466 00a7 22000000 		.4byte	.LVL6
 3467 00ab 0100     		.2byte	0x1
 3468 00ad 53       		.byte	0x53
 3469 00ae 36010000 		.4byte	.LVL32
 3470 00b2 3C010000 		.4byte	.LFE10
 3471 00b6 0100     		.2byte	0x1
 3472 00b8 53       		.byte	0x53
 3473 00b9 00000000 		.4byte	0
 3474 00bd 00000000 		.4byte	0
 3475              	.LLST6:
 3476 00c1 00000000 		.4byte	.LFB9
 3477 00c5 02000000 		.4byte	.LCFI1
 3478 00c9 0200     		.2byte	0x2
 3479 00cb 7D       		.byte	0x7d
 3480 00cc 00       		.sleb128 0
 3481 00cd 02000000 		.4byte	.LCFI1
 3482 00d1 12000000 		.4byte	.LCFI2
 3483 00d5 0200     		.2byte	0x2
 3484 00d7 7D       		.byte	0x7d
 3485 00d8 14       		.sleb128 20
 3486 00d9 12000000 		.4byte	.LCFI2
 3487 00dd EA000000 		.4byte	.LFE9
 3488 00e1 0200     		.2byte	0x2
 3489 00e3 7D       		.byte	0x7d
 3490 00e4 20       		.sleb128 32
 3491 00e5 00000000 		.4byte	0
 3492 00e9 00000000 		.4byte	0
 3493              	.LLST7:
 3494 00ed A8000000 		.4byte	.LVL38
 3495 00f1 AA000000 		.4byte	.LVL39
 3496 00f5 0100     		.2byte	0x1
 3497 00f7 53       		.byte	0x53
 3498 00f8 00000000 		.4byte	0
 3499 00fc 00000000 		.4byte	0
 3500              	.LLST8:
 3501 0100 CC000000 		.4byte	.LVL42
 3502 0104 D1000000 		.4byte	.LVL43-1
 3503 0108 0100     		.2byte	0x1
 3504 010a 53       		.byte	0x53
 3505 010b 00000000 		.4byte	0
 3506 010f 00000000 		.4byte	0
 3507              	.LLST9:
 3508 0113 00000000 		.4byte	.LFB8
 3509 0117 04000000 		.4byte	.LCFI3
 3510 011b 0200     		.2byte	0x2
 3511 011d 7D       		.byte	0x7d
 3512 011e 00       		.sleb128 0
 3513 011f 04000000 		.4byte	.LCFI3
 3514 0123 16000000 		.4byte	.LCFI4
ARM GAS  /tmp/ccCrYZbl.s 			page 63


 3515 0127 0200     		.2byte	0x2
 3516 0129 7D       		.byte	0x7d
 3517 012a 18       		.sleb128 24
 3518 012b 16000000 		.4byte	.LCFI4
 3519 012f E6000000 		.4byte	.LFE8
 3520 0133 0200     		.2byte	0x2
 3521 0135 7D       		.byte	0x7d
 3522 0136 20       		.sleb128 32
 3523 0137 00000000 		.4byte	0
 3524 013b 00000000 		.4byte	0
 3525              	.LLST10:
 3526 013f 00000000 		.4byte	.LFB7
 3527 0143 02000000 		.4byte	.LCFI5
 3528 0147 0200     		.2byte	0x2
 3529 0149 7D       		.byte	0x7d
 3530 014a 00       		.sleb128 0
 3531 014b 02000000 		.4byte	.LCFI5
 3532 014f 0C000000 		.4byte	.LFE7
 3533 0153 0200     		.2byte	0x2
 3534 0155 7D       		.byte	0x7d
 3535 0156 08       		.sleb128 8
 3536 0157 00000000 		.4byte	0
 3537 015b 00000000 		.4byte	0
 3538              	.LLST11:
 3539 015f 00000000 		.4byte	.LVL53
 3540 0163 04000000 		.4byte	.LVL54
 3541 0167 0100     		.2byte	0x1
 3542 0169 50       		.byte	0x50
 3543 016a 04000000 		.4byte	.LVL54
 3544 016e 0C000000 		.4byte	.LFE7
 3545 0172 0400     		.2byte	0x4
 3546 0174 F3       		.byte	0xf3
 3547 0175 01       		.uleb128 0x1
 3548 0176 50       		.byte	0x50
 3549 0177 9F       		.byte	0x9f
 3550 0178 00000000 		.4byte	0
 3551 017c 00000000 		.4byte	0
 3552              	.LLST12:
 3553 0180 00000000 		.4byte	.LFB11
 3554 0184 02000000 		.4byte	.LCFI6
 3555 0188 0200     		.2byte	0x2
 3556 018a 7D       		.byte	0x7d
 3557 018b 00       		.sleb128 0
 3558 018c 02000000 		.4byte	.LCFI6
 3559 0190 78000000 		.4byte	.LFE11
 3560 0194 0200     		.2byte	0x2
 3561 0196 7D       		.byte	0x7d
 3562 0197 10       		.sleb128 16
 3563 0198 00000000 		.4byte	0
 3564 019c 00000000 		.4byte	0
 3565              	.LLST13:
 3566 01a0 0A000000 		.4byte	.LVL57
 3567 01a4 20000000 		.4byte	.LVL60
 3568 01a8 0100     		.2byte	0x1
 3569 01aa 54       		.byte	0x54
 3570 01ab 22000000 		.4byte	.LVL61
 3571 01af 3E000000 		.4byte	.LVL65
ARM GAS  /tmp/ccCrYZbl.s 			page 64


 3572 01b3 0100     		.2byte	0x1
 3573 01b5 54       		.byte	0x54
 3574 01b6 00000000 		.4byte	0
 3575 01ba 00000000 		.4byte	0
 3576              	.LLST14:
 3577 01be 3E000000 		.4byte	.LVL65
 3578 01c2 5A000000 		.4byte	.LVL68
 3579 01c6 0100     		.2byte	0x1
 3580 01c8 54       		.byte	0x54
 3581 01c9 5E000000 		.4byte	.LVL69
 3582 01cd 78000000 		.4byte	.LFE11
 3583 01d1 0100     		.2byte	0x1
 3584 01d3 55       		.byte	0x55
 3585 01d4 00000000 		.4byte	0
 3586 01d8 00000000 		.4byte	0
 3587              		.section	.debug_aranges,"",%progbits
 3588 0000 3C000000 		.4byte	0x3c
 3589 0004 0200     		.2byte	0x2
 3590 0006 00000000 		.4byte	.Ldebug_info0
 3591 000a 04       		.byte	0x4
 3592 000b 00       		.byte	0
 3593 000c 0000     		.2byte	0
 3594 000e 0000     		.2byte	0
 3595 0010 00000000 		.4byte	.LFB10
 3596 0014 3C010000 		.4byte	.LFE10-.LFB10
 3597 0018 00000000 		.4byte	.LFB9
 3598 001c EA000000 		.4byte	.LFE9-.LFB9
 3599 0020 00000000 		.4byte	.LFB8
 3600 0024 E6000000 		.4byte	.LFE8-.LFB8
 3601 0028 00000000 		.4byte	.LFB7
 3602 002c 0C000000 		.4byte	.LFE7-.LFB7
 3603 0030 00000000 		.4byte	.LFB11
 3604 0034 78000000 		.4byte	.LFE11-.LFB11
 3605 0038 00000000 		.4byte	0
 3606 003c 00000000 		.4byte	0
 3607              		.section	.debug_ranges,"",%progbits
 3608              	.Ldebug_ranges0:
 3609 0000 2C010000 		.4byte	.LBB5
 3610 0004 2E010000 		.4byte	.LBE5
 3611 0008 32010000 		.4byte	.LBB6
 3612 000c 3C010000 		.4byte	.LBE6
 3613 0010 00000000 		.4byte	0
 3614 0014 00000000 		.4byte	0
 3615 0018 A0000000 		.4byte	.LBB7
 3616 001c A2000000 		.4byte	.LBE7
 3617 0020 A4000000 		.4byte	.LBB8
 3618 0024 A8000000 		.4byte	.LBE8
 3619 0028 00000000 		.4byte	0
 3620 002c 00000000 		.4byte	0
 3621 0030 C4000000 		.4byte	.LBB9
 3622 0034 C6000000 		.4byte	.LBE9
 3623 0038 C8000000 		.4byte	.LBB10
 3624 003c CC000000 		.4byte	.LBE10
 3625 0040 00000000 		.4byte	0
 3626 0044 00000000 		.4byte	0
 3627 0048 3C000000 		.4byte	.LBB13
 3628 004c 6C000000 		.4byte	.LBE13
ARM GAS  /tmp/ccCrYZbl.s 			page 65


 3629 0050 70000000 		.4byte	.LBB16
 3630 0054 78000000 		.4byte	.LBE16
 3631 0058 00000000 		.4byte	0
 3632 005c 00000000 		.4byte	0
 3633 0060 3C000000 		.4byte	.LBB14
 3634 0064 6C000000 		.4byte	.LBE14
 3635 0068 70000000 		.4byte	.LBB15
 3636 006c 78000000 		.4byte	.LBE15
 3637 0070 00000000 		.4byte	0
 3638 0074 00000000 		.4byte	0
 3639 0078 00000000 		.4byte	.LFB10
 3640 007c 3C010000 		.4byte	.LFE10
 3641 0080 00000000 		.4byte	.LFB9
 3642 0084 EA000000 		.4byte	.LFE9
 3643 0088 00000000 		.4byte	.LFB8
 3644 008c E6000000 		.4byte	.LFE8
 3645 0090 00000000 		.4byte	.LFB7
 3646 0094 0C000000 		.4byte	.LFE7
 3647 0098 00000000 		.4byte	.LFB11
 3648 009c 78000000 		.4byte	.LFE11
 3649 00a0 00000000 		.4byte	0
 3650 00a4 00000000 		.4byte	0
 3651              		.section	.debug_line,"",%progbits
 3652              	.Ldebug_line0:
 3653 0000 04020000 		.section	.debug_str,"MS",%progbits,1
 3653      02005301 
 3653      00000201 
 3653      FB0E0D00 
 3653      01010101 
 3654              	.LASF74:
 3655 0000 7466756E 		.ascii	"tfunc_t\000"
 3655      635F7400 
 3656              	.LASF38:
 3657 0008 705F6D73 		.ascii	"p_msg\000"
 3657      6700
 3658              	.LASF2:
 3659 000e 73697A65 		.ascii	"size_t\000"
 3659      5F7400
 3660              	.LASF80:
 3661 0015 7072696F 		.ascii	"prio\000"
 3661      00
 3662              	.LASF69:
 3663 001a 7264796D 		.ascii	"rdymsg\000"
 3663      736700
 3664              	.LASF84:
 3665 0021 76746C69 		.ascii	"vtlist\000"
 3665      737400
 3666              	.LASF104:
 3667 0028 2F686F6D 		.ascii	"/home/witold/Dokumenty/arm/ChibiOS-master/demos/sli"
 3667      652F7769 
 3667      746F6C64 
 3667      2F446F6B 
 3667      756D656E 
 3668 005b 64657200 		.ascii	"der\000"
 3669              	.LASF12:
 3670 005f 6C6F6E67 		.ascii	"long long unsigned int\000"
 3670      206C6F6E 
ARM GAS  /tmp/ccCrYZbl.s 			page 66


 3670      6720756E 
 3670      7369676E 
 3670      65642069 
 3671              	.LASF26:
 3672 0076 705F7072 		.ascii	"p_prio\000"
 3672      696F00
 3673              	.LASF11:
 3674 007d 6C6F6E67 		.ascii	"long long int\000"
 3674      206C6F6E 
 3674      6720696E 
 3674      7400
 3675              	.LASF1:
 3676 008b 7369676E 		.ascii	"signed char\000"
 3676      65642063 
 3676      68617200 
 3677              	.LASF42:
 3678 0097 705F6D70 		.ascii	"p_mpool\000"
 3678      6F6F6C00 
 3679              	.LASF13:
 3680 009f 626F6F6C 		.ascii	"bool_t\000"
 3680      5F7400
 3681              	.LASF66:
 3682 00a6 6D5F7175 		.ascii	"m_queue\000"
 3682      65756500 
 3683              	.LASF98:
 3684 00ae 74657374 		.ascii	"test_emit_token\000"
 3684      5F656D69 
 3684      745F746F 
 3684      6B656E00 
 3685              	.LASF18:
 3686 00be 74736C69 		.ascii	"tslices_t\000"
 3686      6365735F 
 3686      7400
 3687              	.LASF95:
 3688 00c8 63685468 		.ascii	"chThdCreateI\000"
 3688      64437265 
 3688      61746549 
 3688      00
 3689              	.LASF8:
 3690 00d5 6C6F6E67 		.ascii	"long int\000"
 3690      20696E74 
 3690      00
 3691              	.LASF16:
 3692 00de 74737461 		.ascii	"tstate_t\000"
 3692      74655F74 
 3692      00
 3693              	.LASF100:
 3694 00e7 5F746573 		.ascii	"_test_assert_time_window\000"
 3694      745F6173 
 3694      73657274 
 3694      5F74696D 
 3694      655F7769 
 3695              	.LASF28:
 3696 0100 705F6E65 		.ascii	"p_newer\000"
 3696      77657200 
 3697              	.LASF92:
 3698 0108 63685468 		.ascii	"chThdSetPriority\000"
ARM GAS  /tmp/ccCrYZbl.s 			page 67


 3698      64536574 
 3698      5072696F 
 3698      72697479 
 3698      00
 3699              	.LASF70:
 3700 0119 65786974 		.ascii	"exitcode\000"
 3700      636F6465 
 3700      00
 3701              	.LASF61:
 3702 0122 725F6E65 		.ascii	"r_newer\000"
 3702      77657200 
 3703              	.LASF45:
 3704 012a 72656761 		.ascii	"regarm_t\000"
 3704      726D5F74 
 3704      00
 3705              	.LASF52:
 3706 0133 76745F70 		.ascii	"vt_prev\000"
 3706      72657600 
 3707              	.LASF83:
 3708 013b 74686431 		.ascii	"thd1_execute\000"
 3708      5F657865 
 3708      63757465 
 3708      00
 3709              	.LASF0:
 3710 0148 756E7369 		.ascii	"unsigned int\000"
 3710      676E6564 
 3710      20696E74 
 3710      00
 3711              	.LASF51:
 3712 0155 76745F6E 		.ascii	"vt_next\000"
 3712      65787400 
 3713              	.LASF10:
 3714 015d 6C6F6E67 		.ascii	"long unsigned int\000"
 3714      20756E73 
 3714      69676E65 
 3714      6420696E 
 3714      7400
 3715              	.LASF78:
 3716 016f 74656172 		.ascii	"teardown\000"
 3716      646F776E 
 3716      00
 3717              	.LASF76:
 3718 0178 6E616D65 		.ascii	"name\000"
 3718      00
 3719              	.LASF50:
 3720 017d 56697274 		.ascii	"VirtualTimer\000"
 3720      75616C54 
 3720      696D6572 
 3720      00
 3721              	.LASF47:
 3722 018a 636F6E74 		.ascii	"context\000"
 3722      65787400 
 3723              	.LASF6:
 3724 0192 73686F72 		.ascii	"short unsigned int\000"
 3724      7420756E 
 3724      7369676E 
 3724      65642069 
ARM GAS  /tmp/ccCrYZbl.s 			page 68


 3724      6E7400
 3725              	.LASF20:
 3726 01a5 6D73675F 		.ascii	"msg_t\000"
 3726      7400
 3727              	.LASF15:
 3728 01ab 746D6F64 		.ascii	"tmode_t\000"
 3728      655F7400 
 3729              	.LASF44:
 3730 01b3 54687265 		.ascii	"ThreadsList\000"
 3730      6164734C 
 3730      69737400 
 3731              	.LASF21:
 3732 01bf 6576656E 		.ascii	"eventmask_t\000"
 3732      746D6173 
 3732      6B5F7400 
 3733              	.LASF65:
 3734 01cb 4D757465 		.ascii	"Mutex\000"
 3734      7800
 3735              	.LASF102:
 3736 01d1 474E5520 		.ascii	"GNU C 4.7.4 20130613 (release) [ARM/embedded-4_7-br"
 3736      4320342E 
 3736      372E3420 
 3736      32303133 
 3736      30363133 
 3737 0204 616E6368 		.ascii	"anch revision 200083]\000"
 3737      20726576 
 3737      6973696F 
 3737      6E203230 
 3737      30303833 
 3738              	.LASF82:
 3739 021a 74686432 		.ascii	"thd2_execute\000"
 3739      5F657865 
 3739      63757465 
 3739      00
 3740              	.LASF94:
 3741 0227 63685468 		.ascii	"chThdCreateStatic\000"
 3741      64437265 
 3741      61746553 
 3741      74617469 
 3741      6300
 3742              	.LASF53:
 3743 0239 76745F74 		.ascii	"vt_time\000"
 3743      696D6500 
 3744              	.LASF48:
 3745 0241 73697A65 		.ascii	"sizetype\000"
 3745      74797065 
 3745      00
 3746              	.LASF87:
 3747 024a 74657374 		.ascii	"testthd1\000"
 3747      74686431 
 3747      00
 3748              	.LASF88:
 3749 0253 74657374 		.ascii	"testthd2\000"
 3749      74686432 
 3749      00
 3750              	.LASF89:
 3751 025c 74657374 		.ascii	"testthd3\000"
ARM GAS  /tmp/ccCrYZbl.s 			page 69


 3751      74686433 
 3751      00
 3752              	.LASF90:
 3753 0265 74657374 		.ascii	"testthd4\000"
 3753      74686434 
 3753      00
 3754              	.LASF54:
 3755 026e 76745F66 		.ascii	"vt_func\000"
 3755      756E6300 
 3756              	.LASF96:
 3757 0276 63685468 		.ascii	"chThdResume\000"
 3757      64526573 
 3757      756D6500 
 3758              	.LASF108:
 3759 0282 74657374 		.ascii	"test_wait_threads\000"
 3759      5F776169 
 3759      745F7468 
 3759      72656164 
 3759      7300
 3760              	.LASF29:
 3761 0294 705F6F6C 		.ascii	"p_older\000"
 3761      64657200 
 3762              	.LASF60:
 3763 029c 725F6374 		.ascii	"r_ctx\000"
 3763      7800
 3764              	.LASF43:
 3765 02a2 54687265 		.ascii	"ThreadsQueue\000"
 3765      61647351 
 3765      75657565 
 3765      00
 3766              	.LASF77:
 3767 02af 73657475 		.ascii	"setup\000"
 3767      7000
 3768              	.LASF97:
 3769 02b5 5F746573 		.ascii	"_test_assert_sequence\000"
 3769      745F6173 
 3769      73657274 
 3769      5F736571 
 3769      75656E63 
 3770              	.LASF106:
 3771 02cb 74696D65 		.ascii	"time\000"
 3771      00
 3772              	.LASF63:
 3773 02d0 725F6375 		.ascii	"r_current\000"
 3773      7272656E 
 3773      7400
 3774              	.LASF62:
 3775 02da 725F6F6C 		.ascii	"r_older\000"
 3775      64657200 
 3776              	.LASF101:
 3777 02e2 63685468 		.ascii	"chThdSleepUntil\000"
 3777      64536C65 
 3777      6570556E 
 3777      74696C00 
 3778              	.LASF103:
 3779 02f2 2E2E2F2E 		.ascii	"../../test/testthd.c\000"
 3779      2E2F7465 
ARM GAS  /tmp/ccCrYZbl.s 			page 70


 3779      73742F74 
 3779      65737474 
 3779      68642E63 
 3780              	.LASF17:
 3781 0307 74726566 		.ascii	"trefs_t\000"
 3781      735F7400 
 3782              	.LASF81:
 3783 030f 74686433 		.ascii	"thd3_execute\000"
 3783      5F657865 
 3783      63757465 
 3783      00
 3784              	.LASF25:
 3785 031c 705F7072 		.ascii	"p_prev\000"
 3785      657600
 3786              	.LASF79:
 3787 0323 65786563 		.ascii	"execute\000"
 3787      75746500 
 3788              	.LASF19:
 3789 032b 74707269 		.ascii	"tprio_t\000"
 3789      6F5F7400 
 3790              	.LASF107:
 3791 0333 74687265 		.ascii	"thread\000"
 3791      616400
 3792              	.LASF14:
 3793 033a 5F426F6F 		.ascii	"_Bool\000"
 3793      6C00
 3794              	.LASF7:
 3795 0340 696E7433 		.ascii	"int32_t\000"
 3795      325F7400 
 3796              	.LASF4:
 3797 0348 756E7369 		.ascii	"unsigned char\000"
 3797      676E6564 
 3797      20636861 
 3797      7200
 3798              	.LASF109:
 3799 0356 74657374 		.ascii	"test_wait_tick\000"
 3799      5F776169 
 3799      745F7469 
 3799      636B00
 3800              	.LASF40:
 3801 0365 705F6D74 		.ascii	"p_mtxlist\000"
 3801      786C6973 
 3801      7400
 3802              	.LASF5:
 3803 036f 73686F72 		.ascii	"short int\000"
 3803      7420696E 
 3803      7400
 3804              	.LASF31:
 3805 0379 705F7374 		.ascii	"p_state\000"
 3805      61746500 
 3806              	.LASF34:
 3807 0381 705F7072 		.ascii	"p_preempt\000"
 3807      65656D70 
 3807      7400
 3808              	.LASF86:
 3809 038b 74687265 		.ascii	"threads\000"
 3809      61647300 
ARM GAS  /tmp/ccCrYZbl.s 			page 71


 3810              	.LASF59:
 3811 0393 725F7072 		.ascii	"r_prio\000"
 3811      696F00
 3812              	.LASF72:
 3813 039a 65776D61 		.ascii	"ewmask\000"
 3813      736B00
 3814              	.LASF24:
 3815 03a1 705F6E65 		.ascii	"p_next\000"
 3815      787400
 3816              	.LASF32:
 3817 03a8 705F666C 		.ascii	"p_flags\000"
 3817      61677300 
 3818              	.LASF23:
 3819 03b0 54687265 		.ascii	"Thread\000"
 3819      616400
 3820              	.LASF75:
 3821 03b7 74657374 		.ascii	"testcase\000"
 3821      63617365 
 3821      00
 3822              	.LASF39:
 3823 03c0 705F6570 		.ascii	"p_epending\000"
 3823      656E6469 
 3823      6E6700
 3824              	.LASF9:
 3825 03cb 75696E74 		.ascii	"uint32_t\000"
 3825      33325F74 
 3825      00
 3826              	.LASF58:
 3827 03d4 725F7175 		.ascii	"r_queue\000"
 3827      65756500 
 3828              	.LASF73:
 3829 03dc 63686172 		.ascii	"char\000"
 3829      00
 3830              	.LASF105:
 3831 03e1 74686434 		.ascii	"thd4_execute\000"
 3831      5F657865 
 3831      63757465 
 3831      00
 3832              	.LASF91:
 3833 03ee 70617474 		.ascii	"patternthd\000"
 3833      65726E74 
 3833      686400
 3834              	.LASF68:
 3835 03f9 6D5F6E65 		.ascii	"m_next\000"
 3835      787400
 3836              	.LASF22:
 3837 0400 73797374 		.ascii	"systime_t\000"
 3837      696D655F 
 3837      7400
 3838              	.LASF41:
 3839 040a 705F7265 		.ascii	"p_realprio\000"
 3839      616C7072 
 3839      696F00
 3840              	.LASF49:
 3841 0415 76746675 		.ascii	"vtfunc_t\000"
 3841      6E635F74 
 3841      00
ARM GAS  /tmp/ccCrYZbl.s 			page 72


 3842              	.LASF35:
 3843 041e 705F7469 		.ascii	"p_time\000"
 3843      6D6500
 3844              	.LASF46:
 3845 0425 696E7463 		.ascii	"intctx\000"
 3845      747800
 3846              	.LASF37:
 3847 042c 705F6D73 		.ascii	"p_msgqueue\000"
 3847      67717565 
 3847      756500
 3848              	.LASF55:
 3849 0437 76745F70 		.ascii	"vt_par\000"
 3849      617200
 3850              	.LASF99:
 3851 043e 63685468 		.ascii	"chThdSleep\000"
 3851      64536C65 
 3851      657000
 3852              	.LASF33:
 3853 0449 705F7265 		.ascii	"p_refs\000"
 3853      667300
 3854              	.LASF64:
 3855 0450 52656164 		.ascii	"ReadyList\000"
 3855      794C6973 
 3855      7400
 3856              	.LASF85:
 3857 045a 726C6973 		.ascii	"rlist\000"
 3857      7400
 3858              	.LASF3:
 3859 0460 75696E74 		.ascii	"uint8_t\000"
 3859      385F7400 
 3860              	.LASF71:
 3861 0468 77746F62 		.ascii	"wtobjp\000"
 3861      6A7000
 3862              	.LASF30:
 3863 046f 705F6E61 		.ascii	"p_name\000"
 3863      6D6500
 3864              	.LASF93:
 3865 0476 5F746573 		.ascii	"_test_assert\000"
 3865      745F6173 
 3865      73657274 
 3865      00
 3866              	.LASF56:
 3867 0483 76745F73 		.ascii	"vt_systime\000"
 3867      79737469 
 3867      6D6500
 3868              	.LASF57:
 3869 048e 56544C69 		.ascii	"VTList\000"
 3869      737400
 3870              	.LASF67:
 3871 0495 6D5F6F77 		.ascii	"m_owner\000"
 3871      6E657200 
 3872              	.LASF27:
 3873 049d 705F6374 		.ascii	"p_ctx\000"
 3873      7800
 3874              	.LASF36:
 3875 04a3 705F7761 		.ascii	"p_waiting\000"
 3875      6974696E 
ARM GAS  /tmp/ccCrYZbl.s 			page 73


 3875      6700
 3876              		.ident	"GCC: (GNU Tools for ARM Embedded Processors) 4.7.4 20130613 (release) [ARM/embedded-4_7-br
ARM GAS  /tmp/ccCrYZbl.s 			page 74


DEFINED SYMBOLS
                            *ABS*:00000000 testthd.c
     /tmp/ccCrYZbl.s:21     .text.thd3_execute:00000000 $t
     /tmp/ccCrYZbl.s:26     .text.thd3_execute:00000000 thd3_execute
     /tmp/ccCrYZbl.s:250    .text.thd3_execute:00000138 $d
     /tmp/ccCrYZbl.s:256    .text.thd2_execute:00000000 $t
     /tmp/ccCrYZbl.s:261    .text.thd2_execute:00000000 thd2_execute
     /tmp/ccCrYZbl.s:546    .text.thread:00000000 thread
     /tmp/ccCrYZbl.s:728    .rodata.str1.4:00000000 .LC0
     /tmp/ccCrYZbl.s:731    .rodata.str1.4:00000004 .LC1
     /tmp/ccCrYZbl.s:734    .rodata.str1.4:00000008 .LC2
     /tmp/ccCrYZbl.s:737    .rodata.str1.4:0000000c .LC3
     /tmp/ccCrYZbl.s:740    .rodata.str1.4:00000010 .LC4
     /tmp/ccCrYZbl.s:743    .rodata.str1.4:00000014 .LC5
     /tmp/ccCrYZbl.s:414    .text.thd1_execute:00000000 $t
     /tmp/ccCrYZbl.s:419    .text.thd1_execute:00000000 thd1_execute
     /tmp/ccCrYZbl.s:541    .text.thread:00000000 $t
     /tmp/ccCrYZbl.s:570    .text.thd4_execute:00000000 $t
     /tmp/ccCrYZbl.s:575    .text.thd4_execute:00000000 thd4_execute
     /tmp/ccCrYZbl.s:669    .text.thd4_execute:00000074 $d
     /tmp/ccCrYZbl.s:720    .rodata.patternthd:00000000 patternthd
     /tmp/ccCrYZbl.s:711    .rodata.testthd4:00000000 testthd4
     /tmp/ccCrYZbl.s:702    .rodata.testthd3:00000000 testthd3
     /tmp/ccCrYZbl.s:693    .rodata.testthd2:00000000 testthd2
     /tmp/ccCrYZbl.s:684    .rodata.testthd1:00000000 testthd1
     /tmp/ccCrYZbl.s:681    .rodata.testthd1:00000000 $d
     /tmp/ccCrYZbl.s:690    .rodata.testthd2:00000000 $d
     /tmp/ccCrYZbl.s:699    .rodata.testthd3:00000000 $d
     /tmp/ccCrYZbl.s:708    .rodata.testthd4:00000000 $d
     /tmp/ccCrYZbl.s:717    .rodata.patternthd:00000000 $d
     /tmp/ccCrYZbl.s:727    .rodata.str1.4:00000000 $d
                     .debug_frame:00000010 $d
     /tmp/ccCrYZbl.s:255    .text.thd3_execute:0000013c $t
     /tmp/ccCrYZbl.s:680    .text.thd4_execute:00000078 $t

UNDEFINED SYMBOLS
chThdSetPriority
_test_assert
rlist
wa
chThdCreateStatic
threads
chThdCreateI
chThdResume
test_wait_threads
_test_assert_sequence
test_emit_token
test_wait_tick
chThdSleep
_test_assert_time_window
chThdSleepUntil
vtlist
