ARM GAS  /tmp/ccCrYZbl.s 			page 1


   1              		.syntax unified
   2              		.cpu cortex-m4
   3              		.eabi_attribute 27, 3
   4              		.eabi_attribute 28, 1
   5              		.fpu fpv4-sp-d16
   6              		.eabi_attribute 20, 1
   7              		.eabi_attribute 21, 1
   8              		.eabi_attribute 23, 3
   9              		.eabi_attribute 24, 1
  10              		.eabi_attribute 25, 1
  11              		.eabi_attribute 26, 1
  12              		.eabi_attribute 30, 2
  13              		.eabi_attribute 34, 1
  14              		.eabi_attribute 18, 4
  15              		.thumb
  16              		.file	"testthd.c"
  17              		.text
  18              	.Ltext0:
  19              		.cfi_sections	.debug_frame
  20              		.section	.text.thd3_execute,"ax",%progbits
  21              		.align	2
  22              		.p2align 4,,15
  23              		.thumb
  24              		.thumb_func
  25              		.type	thd3_execute, %function
  26              	thd3_execute:
  27              	.LFB10:
  28              		.file 1 "../../test/testthd.c"
  29              		.loc 1 126 0
  30              		.cfi_startproc
  31              		@ args = 0, pretend = 0, frame = 0
  32              		@ frame_needed = 0, uses_anonymous_args = 0
  33 0000 F8B5     		push	{r3, r4, r5, r6, r7, lr}
  34              	.LCFI0:
  35              		.cfi_def_cfa_offset 24
  36              		.cfi_offset 3, -24
  37              		.cfi_offset 4, -20
  38              		.cfi_offset 5, -16
  39              		.cfi_offset 6, -12
  40              		.cfi_offset 7, -8
  41              		.cfi_offset 14, -4
  42              		.loc 1 129 0
  43 0002 4D4E     		ldr	r6, .L7
  44 0004 B369     		ldr	r3, [r6, #24]
  45 0006 9C68     		ldr	r4, [r3, #8]
  46              	.LVL0:
  47              		.loc 1 130 0
  48 0008 651C     		adds	r5, r4, #1
  49 000a 2846     		mov	r0, r5
  50 000c FFF7FEFF 		bl	chThdSetPriority
  51              	.LVL1:
  52              		.loc 1 131 0
  53 0010 021B     		subs	r2, r0, r4
  54 0012 5142     		rsbs	r1, r2, #0
  55 0014 5141     		adcs	r1, r1, r2
  56              		.loc 1 130 0
  57 0016 0746     		mov	r7, r0
ARM GAS  /tmp/ccCrYZbl.s 			page 2


  58              	.LVL2:
  59              		.loc 1 131 0
  60 0018 0120     		movs	r0, #1
  61              	.LVL3:
  62 001a FFF7FEFF 		bl	_test_assert
  63              	.LVL4:
  64 001e 00B1     		cbz	r0, .L6
  65              	.LVL5:
  66              	.L1:
  67 0020 F8BD     		pop	{r3, r4, r5, r6, r7, pc}
  68              	.LVL6:
  69              	.L6:
  70              		.loc 1 133 0
  71 0022 B069     		ldr	r0, [r6, #24]
  72 0024 8368     		ldr	r3, [r0, #8]
  73 0026 0220     		movs	r0, #2
  74 0028 EA1A     		subs	r2, r5, r3
  75 002a 5142     		rsbs	r1, r2, #0
  76 002c 5141     		adcs	r1, r1, r2
  77 002e FFF7FEFF 		bl	_test_assert
  78              	.LVL7:
  79 0032 0028     		cmp	r0, #0
  80 0034 F4D1     		bne	.L1
  81              		.loc 1 135 0
  82 0036 3846     		mov	r0, r7
  83 0038 FFF7FEFF 		bl	chThdSetPriority
  84              	.LVL8:
  85              		.loc 1 136 0
  86 003c B5EB000C 		subs	ip, r5, r0
  87 0040 DCF10000 		rsbs	r0, ip, #0
  88              	.LVL9:
  89 0044 50EB0C01 		adcs	r1, r0, ip
  90 0048 0320     		movs	r0, #3
  91 004a FFF7FEFF 		bl	_test_assert
  92              	.LVL10:
  93 004e 0028     		cmp	r0, #0
  94 0050 E6D1     		bne	.L1
  95              		.loc 1 138 0
  96 0052 B369     		ldr	r3, [r6, #24]
  97 0054 9A68     		ldr	r2, [r3, #8]
  98 0056 0420     		movs	r0, #4
  99 0058 B2EB040E 		subs	lr, r2, r4
 100 005c DEF10001 		rsbs	r1, lr, #0
 101 0060 51EB0E01 		adcs	r1, r1, lr
 102 0064 FFF7FEFF 		bl	_test_assert
 103              	.LVL11:
 104 0068 0028     		cmp	r0, #0
 105 006a D9D1     		bne	.L1
 106              	.LBB2:
 107              		.loc 1 143 0
 108 006c 2023     		movs	r3, #32
 109              	.LVL12:
 110              	@ 143 "../../test/testthd.c" 1
 111 006e 83F31188 		msr     BASEPRI, r3
 112              	@ 0 "" 2
 113              	.LVL13:
 114              		.thumb
ARM GAS  /tmp/ccCrYZbl.s 			page 3


 115              	.LBE2:
 116              		.loc 1 144 0
 117 0072 B769     		ldr	r7, [r6, #24]
 118 0074 BB68     		ldr	r3, [r7, #8]
 119              	.LVL14:
 120 0076 9A1C     		adds	r2, r3, #2
 121 0078 BA60     		str	r2, [r7, #8]
 122              	.LBB3:
 123              		.loc 1 145 0
 124 007a 0346     		mov	r3, r0
 125              	.LVL15:
 126              	@ 145 "../../test/testthd.c" 1
 127 007c 83F31188 		msr     BASEPRI, r3
 128              	@ 0 "" 2
 129              	.LVL16:
 130              		.thumb
 131              	.LBE3:
 132              		.loc 1 146 0
 133 0080 B069     		ldr	r0, [r6, #24]
 134 0082 8168     		ldr	r1, [r0, #8]
 135 0084 A71C     		adds	r7, r4, #2
 136 0086 0520     		movs	r0, #5
 137 0088 CB1B     		subs	r3, r1, r7
 138              	.LVL17:
 139 008a 5A42     		rsbs	r2, r3, #0
 140 008c 52EB0301 		adcs	r1, r2, r3
 141 0090 FFF7FEFF 		bl	_test_assert
 142              	.LVL18:
 143 0094 0028     		cmp	r0, #0
 144 0096 C3D1     		bne	.L1
 145              		.loc 1 150 0
 146 0098 2846     		mov	r0, r5
 147 009a FFF7FEFF 		bl	chThdSetPriority
 148              	.LVL19:
 149              		.loc 1 151 0
 150 009e 001B     		subs	r0, r0, r4
 151              	.LVL20:
 152 00a0 4142     		rsbs	r1, r0, #0
 153 00a2 4141     		adcs	r1, r1, r0
 154 00a4 0620     		movs	r0, #6
 155 00a6 FFF7FEFF 		bl	_test_assert
 156              	.LVL21:
 157 00aa 0028     		cmp	r0, #0
 158 00ac B8D1     		bne	.L1
 159              		.loc 1 153 0
 160 00ae B369     		ldr	r3, [r6, #24]
 161 00b0 9A68     		ldr	r2, [r3, #8]
 162 00b2 0720     		movs	r0, #7
 163 00b4 B7EB020C 		subs	ip, r7, r2
 164 00b8 DCF10001 		rsbs	r1, ip, #0
 165 00bc 51EB0C01 		adcs	r1, r1, ip
 166 00c0 FFF7FEFF 		bl	_test_assert
 167              	.LVL22:
 168 00c4 0028     		cmp	r0, #0
 169 00c6 ABD1     		bne	.L1
 170              		.loc 1 155 0
 171 00c8 B069     		ldr	r0, [r6, #24]
ARM GAS  /tmp/ccCrYZbl.s 			page 4


 172 00ca 036C     		ldr	r3, [r0, #64]
 173 00cc 0820     		movs	r0, #8
 174 00ce B5EB030E 		subs	lr, r5, r3
 175 00d2 DEF10002 		rsbs	r2, lr, #0
 176 00d6 52EB0E01 		adcs	r1, r2, lr
 177 00da FFF7FEFF 		bl	_test_assert
 178              	.LVL23:
 179 00de 0028     		cmp	r0, #0
 180 00e0 9ED1     		bne	.L1
 181              		.loc 1 159 0
 182 00e2 E71C     		adds	r7, r4, #3
 183 00e4 3846     		mov	r0, r7
 184 00e6 FFF7FEFF 		bl	chThdSetPriority
 185              	.LVL24:
 186              		.loc 1 160 0
 187 00ea 281A     		subs	r0, r5, r0
 188              	.LVL25:
 189 00ec 4142     		rsbs	r1, r0, #0
 190 00ee 4141     		adcs	r1, r1, r0
 191 00f0 0920     		movs	r0, #9
 192 00f2 FFF7FEFF 		bl	_test_assert
 193              	.LVL26:
 194 00f6 0028     		cmp	r0, #0
 195 00f8 92D1     		bne	.L1
 196              		.loc 1 162 0
 197 00fa B369     		ldr	r3, [r6, #24]
 198 00fc 9A68     		ldr	r2, [r3, #8]
 199 00fe 0A20     		movs	r0, #10
 200 0100 BB1A     		subs	r3, r7, r2
 201 0102 5942     		rsbs	r1, r3, #0
 202 0104 5941     		adcs	r1, r1, r3
 203 0106 FFF7FEFF 		bl	_test_assert
 204              	.LVL27:
 205 010a 0028     		cmp	r0, #0
 206 010c 88D1     		bne	.L1
 207              		.loc 1 164 0
 208 010e B069     		ldr	r0, [r6, #24]
 209 0110 026C     		ldr	r2, [r0, #64]
 210 0112 0B20     		movs	r0, #11
 211 0114 BB1A     		subs	r3, r7, r2
 212 0116 5942     		rsbs	r1, r3, #0
 213 0118 5941     		adcs	r1, r1, r3
 214 011a FFF7FEFF 		bl	_test_assert
 215              	.LVL28:
 216 011e 0028     		cmp	r0, #0
 217 0120 7FF47EAF 		bne	.L1
 218              	.LBB4:
 219              		.loc 1 167 0
 220 0124 2023     		movs	r3, #32
 221              	.LVL29:
 222              	@ 167 "../../test/testthd.c" 1
 223 0126 83F31188 		msr     BASEPRI, r3
 224              	@ 0 "" 2
 225              	.LVL30:
 226              		.thumb
 227              	.LBE4:
 228              		.loc 1 168 0
ARM GAS  /tmp/ccCrYZbl.s 			page 5


 229 012a B169     		ldr	r1, [r6, #24]
 230              	.LBB5:
 231              		.loc 1 170 0
 232 012c 0346     		mov	r3, r0
 233              	.LVL31:
 234              	.LBE5:
 235              		.loc 1 168 0
 236 012e 8C60     		str	r4, [r1, #8]
 237              		.loc 1 169 0
 238 0130 0C64     		str	r4, [r1, #64]
 239              	.LBB6:
 240              		.loc 1 170 0
 241              	@ 170 "../../test/testthd.c" 1
 242 0132 83F31188 		msr     BASEPRI, r3
 243              	@ 0 "" 2
 244              	.LVL32:
 245              		.thumb
 246 0136 73E7     		b	.L1
 247              	.L8:
 248              		.align	2
 249              	.L7:
 250 0138 00000000 		.word	rlist
 251              	.LBE6:
 252              		.cfi_endproc
 253              	.LFE10:
 254              		.size	thd3_execute, .-thd3_execute
 255 013c AFF30080 		.section	.text.thd2_execute,"ax",%progbits
 256              		.align	2
 257              		.p2align 4,,15
 258              		.thumb
 259              		.thumb_func
 260              		.type	thd2_execute, %function
 261              	thd2_execute:
 262              	.LFB9:
 263              		.loc 1 94 0
 264              		.cfi_startproc
 265              		@ args = 0, pretend = 0, frame = 0
 266              		@ frame_needed = 0, uses_anonymous_args = 0
 267 0000 F0B5     		push	{r4, r5, r6, r7, lr}
 268              	.LCFI1:
 269              		.cfi_def_cfa_offset 20
 270              		.cfi_offset 4, -20
 271              		.cfi_offset 5, -16
 272              		.cfi_offset 6, -12
 273              		.cfi_offset 7, -8
 274              		.cfi_offset 14, -4
 275              		.loc 1 96 0
 276 0002 40F20007 		movw	r7, #:lower16:rlist
 277 0006 C0F20007 		movt	r7, #:upper16:rlist
 278 000a 40F20006 		movw	r6, #:lower16:wa
 279 000e BB69     		ldr	r3, [r7, #24]
 280              		.loc 1 94 0
 281 0010 83B0     		sub	sp, sp, #12
 282              	.LCFI2:
 283              		.cfi_def_cfa_offset 32
 284              		.loc 1 96 0
 285 0012 C0F20006 		movt	r6, #:upper16:wa
ARM GAS  /tmp/ccCrYZbl.s 			page 6


 286 0016 9A68     		ldr	r2, [r3, #8]
 287 0018 7068     		ldr	r0, [r6, #4]
 288 001a 40F20005 		movw	r5, #:lower16:thread
 289 001e 40F20001 		movw	r1, #:lower16:.LC0
 290 0022 C0F20005 		movt	r5, #:upper16:thread
 291 0026 C0F20001 		movt	r1, #:upper16:.LC0
 292 002a 043A     		subs	r2, r2, #4
 293 002c 2B46     		mov	r3, r5
 294 002e 0091     		str	r1, [sp, #0]
 295 0030 4FF4DC71 		mov	r1, #440
 296 0034 FFF7FEFF 		bl	chThdCreateStatic
 297              	.LVL33:
 298              		.loc 1 97 0
 299 0038 BC69     		ldr	r4, [r7, #24]
 300 003a 3168     		ldr	r1, [r6, #0]
 301 003c A368     		ldr	r3, [r4, #8]
 302              		.loc 1 96 0
 303 003e 40F20004 		movw	r4, #:lower16:threads
 304 0042 C0F20004 		movt	r4, #:upper16:threads
 305              		.loc 1 97 0
 306 0046 5A1F     		subs	r2, r3, #5
 307              		.loc 1 96 0
 308 0048 6060     		str	r0, [r4, #4]
 309              		.loc 1 97 0
 310 004a 40F20000 		movw	r0, #:lower16:.LC1
 311 004e C0F20000 		movt	r0, #:upper16:.LC1
 312 0052 2B46     		mov	r3, r5
 313 0054 0090     		str	r0, [sp, #0]
 314 0056 0846     		mov	r0, r1
 315 0058 4FF4DC71 		mov	r1, #440
 316 005c FFF7FEFF 		bl	chThdCreateStatic
 317              	.LVL34:
 318              		.loc 1 98 0
 319 0060 BA69     		ldr	r2, [r7, #24]
 320 0062 3169     		ldr	r1, [r6, #16]
 321 0064 9368     		ldr	r3, [r2, #8]
 322              		.loc 1 97 0
 323 0066 2060     		str	r0, [r4, #0]
 324              		.loc 1 98 0
 325 0068 40F20000 		movw	r0, #:lower16:.LC2
 326 006c C0F20000 		movt	r0, #:upper16:.LC2
 327 0070 5A1E     		subs	r2, r3, #1
 328 0072 0090     		str	r0, [sp, #0]
 329 0074 2B46     		mov	r3, r5
 330 0076 0846     		mov	r0, r1
 331 0078 4FF4DC71 		mov	r1, #440
 332 007c FFF7FEFF 		bl	chThdCreateStatic
 333              	.LVL35:
 334              		.loc 1 99 0
 335 0080 BA69     		ldr	r2, [r7, #24]
 336 0082 F168     		ldr	r1, [r6, #12]
 337 0084 9268     		ldr	r2, [r2, #8]
 338              		.loc 1 98 0
 339 0086 2061     		str	r0, [r4, #16]
 340              		.loc 1 99 0
 341 0088 40F20000 		movw	r0, #:lower16:.LC3
 342 008c C0F20000 		movt	r0, #:upper16:.LC3
ARM GAS  /tmp/ccCrYZbl.s 			page 7


 343 0090 2B46     		mov	r3, r5
 344 0092 0090     		str	r0, [sp, #0]
 345 0094 023A     		subs	r2, r2, #2
 346 0096 0846     		mov	r0, r1
 347 0098 4FF4DC71 		mov	r1, #440
 348 009c FFF7FEFF 		bl	chThdCreateStatic
 349              	.LVL36:
 350              	.LBB7:
 351              		.loc 1 101 0
 352 00a0 2023     		movs	r3, #32
 353              	.LVL37:
 354              	.LBE7:
 355              		.loc 1 99 0
 356 00a2 E060     		str	r0, [r4, #12]
 357              	.LBB8:
 358              		.loc 1 101 0
 359              	@ 101 "../../test/testthd.c" 1
 360 00a4 83F31188 		msr     BASEPRI, r3
 361              	@ 0 "" 2
 362              	.LVL38:
 363              		.thumb
 364              	.LBE8:
 365              		.loc 1 102 0
 366 00a8 BB69     		ldr	r3, [r7, #24]
 367              	.LVL39:
 368 00aa B068     		ldr	r0, [r6, #8]
 369 00ac 9A68     		ldr	r2, [r3, #8]
 370 00ae 40F20001 		movw	r1, #:lower16:.LC4
 371 00b2 C0F20001 		movt	r1, #:upper16:.LC4
 372 00b6 2B46     		mov	r3, r5
 373 00b8 0091     		str	r1, [sp, #0]
 374 00ba 033A     		subs	r2, r2, #3
 375 00bc 4FF4DC71 		mov	r1, #440
 376 00c0 FFF7FEFF 		bl	chThdCreateI
 377              	.LVL40:
 378              	.LBB9:
 379              		.loc 1 103 0
 380 00c4 0023     		movs	r3, #0
 381              	.LVL41:
 382              	.LBE9:
 383              		.loc 1 102 0
 384 00c6 A060     		str	r0, [r4, #8]
 385              	.LBB10:
 386              		.loc 1 103 0
 387              	@ 103 "../../test/testthd.c" 1
 388 00c8 83F31188 		msr     BASEPRI, r3
 389              	@ 0 "" 2
 390              	.LVL42:
 391              		.thumb
 392              	.LBE10:
 393              		.loc 1 104 0
 394 00cc A068     		ldr	r0, [r4, #8]
 395 00ce FFF7FEFF 		bl	chThdResume
 396              	.LVL43:
 397              		.loc 1 105 0
 398 00d2 FFF7FEFF 		bl	test_wait_threads
 399              	.LVL44:
ARM GAS  /tmp/ccCrYZbl.s 			page 8


 400              		.loc 1 106 0
 401 00d6 40F20001 		movw	r1, #:lower16:.LC5
 402 00da 0120     		movs	r0, #1
 403 00dc C0F20001 		movt	r1, #:upper16:.LC5
 404              		.loc 1 107 0
 405 00e0 03B0     		add	sp, sp, #12
 406 00e2 BDE8F040 		pop	{r4, r5, r6, r7, lr}
 407              		.loc 1 106 0
 408 00e6 FFF7FEBF 		b	_test_assert_sequence
 409              	.LVL45:
 410              		.cfi_endproc
 411              	.LFE9:
 412              		.size	thd2_execute, .-thd2_execute
 413 00ea 00BFAFF3 		.section	.text.thd1_execute,"ax",%progbits
 413      0080
 414              		.align	2
 415              		.p2align 4,,15
 416              		.thumb
 417              		.thumb_func
 418              		.type	thd1_execute, %function
 419              	thd1_execute:
 420              	.LFB8:
 421              		.loc 1 66 0
 422              		.cfi_startproc
 423              		@ args = 0, pretend = 0, frame = 0
 424              		@ frame_needed = 0, uses_anonymous_args = 0
 425 0000 2DE9F041 		push	{r4, r5, r6, r7, r8, lr}
 426              	.LCFI3:
 427              		.cfi_def_cfa_offset 24
 428              		.cfi_offset 4, -24
 429              		.cfi_offset 5, -20
 430              		.cfi_offset 6, -16
 431              		.cfi_offset 7, -12
 432              		.cfi_offset 8, -8
 433              		.cfi_offset 14, -4
 434              		.loc 1 68 0
 435 0004 40F20008 		movw	r8, #:lower16:rlist
 436 0008 C0F20008 		movt	r8, #:upper16:rlist
 437 000c 40F20006 		movw	r6, #:lower16:wa
 438 0010 D8F81830 		ldr	r3, [r8, #24]
 439              		.loc 1 66 0
 440 0014 82B0     		sub	sp, sp, #8
 441              	.LCFI4:
 442              		.cfi_def_cfa_offset 32
 443              		.loc 1 68 0
 444 0016 C0F20006 		movt	r6, #:upper16:wa
 445 001a 9A68     		ldr	r2, [r3, #8]
 446 001c 3068     		ldr	r0, [r6, #0]
 447 001e 40F20005 		movw	r5, #:lower16:thread
 448 0022 40F20004 		movw	r4, #:lower16:.LC1
 449 0026 C0F20005 		movt	r5, #:upper16:thread
 450 002a C0F20004 		movt	r4, #:upper16:.LC1
 451 002e 053A     		subs	r2, r2, #5
 452 0030 2B46     		mov	r3, r5
 453 0032 0094     		str	r4, [sp, #0]
 454 0034 4FF4DC71 		mov	r1, #440
 455 0038 FFF7FEFF 		bl	chThdCreateStatic
ARM GAS  /tmp/ccCrYZbl.s 			page 9


 456              	.LVL46:
 457 003c 40F20004 		movw	r4, #:lower16:threads
 458 0040 C0F20004 		movt	r4, #:upper16:threads
 459              		.loc 1 69 0
 460 0044 D8F81810 		ldr	r1, [r8, #24]
 461 0048 7768     		ldr	r7, [r6, #4]
 462 004a 8B68     		ldr	r3, [r1, #8]
 463              		.loc 1 68 0
 464 004c 2060     		str	r0, [r4, #0]
 465              		.loc 1 69 0
 466 004e 40F20000 		movw	r0, #:lower16:.LC0
 467 0052 C0F20000 		movt	r0, #:upper16:.LC0
 468 0056 1A1F     		subs	r2, r3, #4
 469 0058 0090     		str	r0, [sp, #0]
 470 005a 2B46     		mov	r3, r5
 471 005c 4FF4DC71 		mov	r1, #440
 472 0060 3846     		mov	r0, r7
 473 0062 FFF7FEFF 		bl	chThdCreateStatic
 474              	.LVL47:
 475              		.loc 1 70 0
 476 0066 D8F81820 		ldr	r2, [r8, #24]
 477 006a B768     		ldr	r7, [r6, #8]
 478 006c 9368     		ldr	r3, [r2, #8]
 479              		.loc 1 69 0
 480 006e 6060     		str	r0, [r4, #4]
 481              		.loc 1 70 0
 482 0070 40F20000 		movw	r0, #:lower16:.LC4
 483 0074 C0F20000 		movt	r0, #:upper16:.LC4
 484 0078 DA1E     		subs	r2, r3, #3
 485 007a 0090     		str	r0, [sp, #0]
 486 007c 2B46     		mov	r3, r5
 487 007e 4FF4DC71 		mov	r1, #440
 488 0082 3846     		mov	r0, r7
 489 0084 FFF7FEFF 		bl	chThdCreateStatic
 490              	.LVL48:
 491              		.loc 1 71 0
 492 0088 D8F81810 		ldr	r1, [r8, #24]
 493 008c F768     		ldr	r7, [r6, #12]
 494 008e 8A68     		ldr	r2, [r1, #8]
 495              		.loc 1 70 0
 496 0090 A060     		str	r0, [r4, #8]
 497              		.loc 1 71 0
 498 0092 40F20000 		movw	r0, #:lower16:.LC3
 499 0096 C0F20000 		movt	r0, #:upper16:.LC3
 500 009a 023A     		subs	r2, r2, #2
 501 009c 2B46     		mov	r3, r5
 502 009e 0090     		str	r0, [sp, #0]
 503 00a0 4FF4DC71 		mov	r1, #440
 504 00a4 3846     		mov	r0, r7
 505 00a6 FFF7FEFF 		bl	chThdCreateStatic
 506              	.LVL49:
 507              		.loc 1 72 0
 508 00aa D8F81830 		ldr	r3, [r8, #24]
 509 00ae 3669     		ldr	r6, [r6, #16]
 510 00b0 9A68     		ldr	r2, [r3, #8]
 511              		.loc 1 71 0
 512 00b2 E060     		str	r0, [r4, #12]
ARM GAS  /tmp/ccCrYZbl.s 			page 10


 513              		.loc 1 72 0
 514 00b4 40F20000 		movw	r0, #:lower16:.LC2
 515 00b8 C0F20000 		movt	r0, #:upper16:.LC2
 516 00bc 4FF4DC71 		mov	r1, #440
 517 00c0 013A     		subs	r2, r2, #1
 518 00c2 2B46     		mov	r3, r5
 519 00c4 0090     		str	r0, [sp, #0]
 520 00c6 3046     		mov	r0, r6
 521 00c8 FFF7FEFF 		bl	chThdCreateStatic
 522              	.LVL50:
 523 00cc 2061     		str	r0, [r4, #16]
 524              		.loc 1 73 0
 525 00ce FFF7FEFF 		bl	test_wait_threads
 526              	.LVL51:
 527              		.loc 1 74 0
 528 00d2 40F20001 		movw	r1, #:lower16:.LC5
 529 00d6 0120     		movs	r0, #1
 530 00d8 C0F20001 		movt	r1, #:upper16:.LC5
 531              		.loc 1 75 0
 532 00dc 02B0     		add	sp, sp, #8
 533 00de BDE8F041 		pop	{r4, r5, r6, r7, r8, lr}
 534              		.loc 1 74 0
 535 00e2 FFF7FEBF 		b	_test_assert_sequence
 536              	.LVL52:
 537              		.cfi_endproc
 538              	.LFE8:
 539              		.size	thd1_execute, .-thd1_execute
 540 00e6 00BFAFF3 		.section	.text.thread,"ax",%progbits
 540      0080AFF3 
 540      0080
 541              		.align	2
 542              		.p2align 4,,15
 543              		.thumb
 544              		.thumb_func
 545              		.type	thread, %function
 546              	thread:
 547              	.LFB7:
 548              		.loc 1 60 0
 549              		.cfi_startproc
 550              		@ args = 0, pretend = 0, frame = 0
 551              		@ frame_needed = 0, uses_anonymous_args = 0
 552              	.LVL53:
 553 0000 08B5     		push	{r3, lr}
 554              	.LCFI5:
 555              		.cfi_def_cfa_offset 8
 556              		.cfi_offset 3, -8
 557              		.cfi_offset 14, -4
 558              		.loc 1 62 0
 559 0002 0078     		ldrb	r0, [r0, #0]	@ zero_extendqisi2
 560              	.LVL54:
 561 0004 FFF7FEFF 		bl	test_emit_token
 562              	.LVL55:
 563              		.loc 1 64 0
 564 0008 0020     		movs	r0, #0
 565 000a 08BD     		pop	{r3, pc}
 566              		.cfi_endproc
 567              	.LFE7:
ARM GAS  /tmp/ccCrYZbl.s 			page 11


 568              		.size	thread, .-thread
 569 000c AFF30080 		.section	.text.thd4_execute,"ax",%progbits
 570              		.align	2
 571              		.p2align 4,,15
 572              		.thumb
 573              		.thumb_func
 574              		.type	thd4_execute, %function
 575              	thd4_execute:
 576              	.LFB11:
 577              		.loc 1 189 0
 578              		.cfi_startproc
 579              		@ args = 0, pretend = 0, frame = 0
 580              		@ frame_needed = 0, uses_anonymous_args = 0
 581 0000 38B5     		push	{r3, r4, r5, lr}
 582              	.LCFI6:
 583              		.cfi_def_cfa_offset 16
 584              		.cfi_offset 3, -16
 585              		.cfi_offset 4, -12
 586              		.cfi_offset 5, -8
 587              		.cfi_offset 14, -4
 588              		.loc 1 195 0
 589 0002 1C4D     		ldr	r5, .L17
 590              		.loc 1 192 0
 591 0004 FFF7FEFF 		bl	test_wait_tick
 592              	.LVL56:
 593              		.loc 1 195 0
 594 0008 EC68     		ldr	r4, [r5, #12]
 595              	.LVL57:
 596              		.loc 1 196 0
 597 000a 6420     		movs	r0, #100
 598 000c FFF7FEFF 		bl	chThdSleep
 599              	.LVL58:
 600              		.loc 1 197 0
 601 0010 0120     		movs	r0, #1
 602 0012 04F16401 		add	r1, r4, #100
 603 0016 04F16502 		add	r2, r4, #101
 604 001a FFF7FEFF 		bl	_test_assert_time_window
 605              	.LVL59:
 606 001e 00B1     		cbz	r0, .L16
 607              	.LVL60:
 608              	.L12:
 609 0020 38BD     		pop	{r3, r4, r5, pc}
 610              	.LVL61:
 611              	.L16:
 612              		.loc 1 200 0
 613 0022 EC68     		ldr	r4, [r5, #12]
 614              	.LVL62:
 615              		.loc 1 201 0
 616 0024 6420     		movs	r0, #100
 617 0026 FFF7FEFF 		bl	chThdSleep
 618              	.LVL63:
 619              		.loc 1 202 0
 620 002a 0220     		movs	r0, #2
 621 002c 04F16401 		add	r1, r4, #100
 622 0030 04F16502 		add	r2, r4, #101
 623 0034 FFF7FEFF 		bl	_test_assert_time_window
 624              	.LVL64:
ARM GAS  /tmp/ccCrYZbl.s 			page 12


 625 0038 0028     		cmp	r0, #0
 626 003a F1D1     		bne	.L12
 627              	.LBB13:
 628              	.LBB14:
 629              		.loc 1 205 0
 630 003c EC68     		ldr	r4, [r5, #12]
 631              	.LVL65:
 632              		.loc 1 206 0
 633 003e 4FF47A70 		mov	r0, #1000
 634 0042 FFF7FEFF 		bl	chThdSleep
 635              	.LVL66:
 636              		.loc 1 207 0
 637 0046 0320     		movs	r0, #3
 638 0048 04F57A71 		add	r1, r4, #1000
 639 004c 04F2E932 		addw	r2, r4, #1001
 640 0050 FFF7FEFF 		bl	_test_assert_time_window
 641              	.LVL67:
 642 0054 0028     		cmp	r0, #0
 643 0056 E3D1     		bne	.L12
 644              		.loc 1 210 0
 645 0058 EC68     		ldr	r4, [r5, #12]
 646              	.LVL68:
 647 005a 04F16405 		add	r5, r4, #100
 648              	.LVL69:
 649              		.loc 1 211 0
 650 005e 2846     		mov	r0, r5
 651 0060 FFF7FEFF 		bl	chThdSleepUntil
 652              	.LVL70:
 653              		.loc 1 212 0
 654 0064 0420     		movs	r0, #4
 655 0066 2946     		mov	r1, r5
 656 0068 04F16502 		add	r2, r4, #101
 657              	.LBE14:
 658              	.LBE13:
 659              		.loc 1 213 0
 660 006c BDE83840 		pop	{r3, r4, r5, lr}
 661              	.LBB16:
 662              	.LBB15:
 663              		.loc 1 212 0
 664 0070 FFF7FEBF 		b	_test_assert_time_window
 665              	.LVL71:
 666              	.L18:
 667              		.align	2
 668              	.L17:
 669 0074 00000000 		.word	vtlist
 670              	.LBE15:
 671              	.LBE16:
 672              		.cfi_endproc
 673              	.LFE11:
 674              		.size	thd4_execute, .-thd4_execute
 675              		.global	patternthd
 676              		.global	testthd4
 677              		.global	testthd3
 678              		.global	testthd2
 679              		.global	testthd1
 680 0078 AFF30080 		.section	.rodata.testthd1,"a",%progbits
 680      AFF30080 
ARM GAS  /tmp/ccCrYZbl.s 			page 13


 681              		.align	2
 682              		.type	testthd1, %object
 683              		.size	testthd1, 16
 684              	testthd1:
 685 0000 64000000 		.word	.LC9
 686 0004 00000000 		.word	0
 687 0008 00000000 		.word	0
 688 000c 00000000 		.word	thd1_execute
 689              		.section	.rodata.testthd2,"a",%progbits
 690              		.align	2
 691              		.type	testthd2, %object
 692              		.size	testthd2, 16
 693              	testthd2:
 694 0000 48000000 		.word	.LC8
 695 0004 00000000 		.word	0
 696 0008 00000000 		.word	0
 697 000c 00000000 		.word	thd2_execute
 698              		.section	.rodata.testthd3,"a",%progbits
 699              		.align	2
 700              		.type	testthd3, %object
 701              		.size	testthd3, 16
 702              	testthd3:
 703 0000 2C000000 		.word	.LC7
 704 0004 00000000 		.word	0
 705 0008 00000000 		.word	0
 706 000c 00000000 		.word	thd3_execute
 707              		.section	.rodata.testthd4,"a",%progbits
 708              		.align	2
 709              		.type	testthd4, %object
 710              		.size	testthd4, 16
 711              	testthd4:
 712 0000 1C000000 		.word	.LC6
 713 0004 00000000 		.word	0
 714 0008 00000000 		.word	0
 715 000c 00000000 		.word	thd4_execute
 716              		.section	.rodata.patternthd,"a",%progbits
 717              		.align	2
 718              		.type	patternthd, %object
 719              		.size	patternthd, 20
 720              	patternthd:
 721 0000 00000000 		.word	testthd1
 722 0004 00000000 		.word	testthd2
 723 0008 00000000 		.word	testthd3
 724 000c 00000000 		.word	testthd4
 725 0010 00000000 		.word	0
 726              		.section	.rodata.str1.4,"aMS",%progbits,1
 727              		.align	2
 728              	.LC0:
 729 0000 4400     		.ascii	"D\000"
 730 0002 0000     		.space	2
 731              	.LC1:
 732 0004 4500     		.ascii	"E\000"
 733 0006 0000     		.space	2
 734              	.LC2:
 735 0008 4100     		.ascii	"A\000"
 736 000a 0000     		.space	2
 737              	.LC3:
ARM GAS  /tmp/ccCrYZbl.s 			page 14


 738 000c 4200     		.ascii	"B\000"
 739 000e 0000     		.space	2
 740              	.LC4:
 741 0010 4300     		.ascii	"C\000"
 742 0012 0000     		.space	2
 743              	.LC5:
 744 0014 41424344 		.ascii	"ABCDE\000"
 744      4500
 745 001a 0000     		.space	2
 746              	.LC6:
 747 001c 54687265 		.ascii	"Threads, delays\000"
 747      6164732C 
 747      2064656C 
 747      61797300 
 748              	.LC7:
 749 002c 54687265 		.ascii	"Threads, priority change\000"
 749      6164732C 
 749      20707269 
 749      6F726974 
 749      79206368 
 750 0045 000000   		.space	3
 751              	.LC8:
 752 0048 54687265 		.ascii	"Threads, enqueuing test #2\000"
 752      6164732C 
 752      20656E71 
 752      75657569 
 752      6E672074 
 753 0063 00       		.space	1
 754              	.LC9:
 755 0064 54687265 		.ascii	"Threads, enqueuing test #1\000"
 755      6164732C 
 755      20656E71 
 755      75657569 
 755      6E672074 
 756 007f 00       		.text
 757              	.Letext0:
 758              		.file 2 "/usr/bin/../lib/gcc/arm-none-eabi/4.7.4/include/stddef.h"
 759              		.file 3 "/usr/bin/../lib/gcc/arm-none-eabi/4.7.4/../../../../arm-none-eabi/include/stdint.h"
 760              		.file 4 "../../os/ports/GCC/ARMCMx/chtypes.h"
 761              		.file 5 "../../os/kernel/include/chlists.h"
 762              		.file 6 "../../os/kernel/include/chthreads.h"
 763              		.file 7 "../../os/ports/GCC/ARMCMx/chcore_v7m.h"
 764              		.file 8 "../../os/kernel/include/chvt.h"
 765              		.file 9 "../../os/kernel/include/chschd.h"
 766              		.file 10 "../../os/kernel/include/chmtx.h"
 767              		.file 11 "../../test/test.h"