ARM GAS  /tmp/ccZUWmXH.s 			page 1


   1              		.syntax unified
   2              		.cpu cortex-m4
   3              		.eabi_attribute 27, 3
   4              		.eabi_attribute 28, 1
   5              		.fpu fpv4-sp-d16
   6              		.eabi_attribute 20, 1
   7              		.eabi_attribute 21, 1
   8              		.eabi_attribute 23, 3
   9              		.eabi_attribute 24, 1
  10              		.eabi_attribute 25, 1
  11              		.eabi_attribute 26, 1
  12              		.eabi_attribute 30, 2
  13              		.eabi_attribute 34, 1
  14              		.eabi_attribute 18, 4
  15              		.thumb
  16              		.file	"gdisp_lld.c"
  17              		.text
  18              	.Ltext0:
  19              		.cfi_sections	.debug_frame
  20              		.section	.text.set_viewport,"ax",%progbits
  21              		.align	2
  22              		.p2align 4,,15
  23              		.thumb
  24              		.thumb_func
  25              		.type	set_viewport, %function
  26              	set_viewport:
  27              	.LFB130:
  28              		.file 1 "../../ext/ugfx/drivers/gdisp/SSD1289/gdisp_lld.c"
  29              		.loc 1 75 0
  30              		.cfi_startproc
  31              		@ args = 0, pretend = 0, frame = 0
  32              		@ frame_needed = 0, uses_anonymous_args = 0
  33              		@ link register save eliminated.
  34              	.LVL0:
  35 0000 70B4     		push	{r4, r5, r6}
  36              	.LCFI0:
  37              		.cfi_def_cfa_offset 12
  38              		.cfi_offset 4, -12
  39              		.cfi_offset 5, -8
  40              		.cfi_offset 6, -4
  41              		.loc 1 88 0
  42 0002 6D4C     		ldr	r4, .L19
  43 0004 2479     		ldrb	r4, [r4, #4]	@ zero_extendqisi2
  44 0006 032C     		cmp	r4, #3
  45 0008 00F2B780 		bhi	.L2
  46 000c DFE804F0 		tbb	[pc, r4]
  47              	.L7:
  48 0010 8E       		.byte	(.L3-.L7)/2
  49 0011 5C       		.byte	(.L4-.L7)/2
  50 0012 2A       		.byte	(.L5-.L7)/2
  51 0013 02       		.byte	(.L6-.L7)/2
  52              		.align	1
  53              	.L6:
  54              	.LVL1:
  55              		.loc 1 95 0
  56 0014 8518     		adds	r5, r0, r2
  57              		.loc 1 97 0
ARM GAS  /tmp/ccZUWmXH.s 			page 2


  58 0016 461E     		subs	r6, r0, #1
  59              		.loc 1 95 0
  60 0018 013D     		subs	r5, r5, #1
  61 001a C9B2     		uxtb	r1, r1
  62              	.LVL2:
  63              	.LBB428:
  64              	.LBB429:
  65              		.file 2 "./gdisp_lld_board.h"
  66              		.loc 2 153 0
  67 001c 0023     		movs	r3, #0
  68              	.LVL3:
  69              	.LBE429:
  70              	.LBE428:
  71              	.LBB432:
  72              	.LBB433:
  73              		.loc 2 144 0
  74 001e 4FF0C044 		mov	r4, #1610612736
  75              	.LBE433:
  76              	.LBE432:
  77              	.LBB435:
  78              	.LBB430:
  79              		.loc 2 153 0
  80 0022 C6F20203 		movt	r3, 24578
  81              	.LBE430:
  82              	.LBE435:
  83              		.loc 1 97 0
  84 0026 B218     		adds	r2, r6, r2
  85              	.LVL4:
  86              		.loc 1 95 0
  87 0028 41EA0526 		orr	r6, r1, r5, lsl #8
  88 002c B5B2     		uxth	r5, r6
  89              	.LBB436:
  90              	.LBB434:
  91              		.loc 2 144 0
  92 002e 4426     		movs	r6, #68
  93 0030 2680     		strh	r6, [r4, #0]	@ movhi
  94              	.LVL5:
  95              	.LBE434:
  96              	.LBE436:
  97              		.loc 1 96 0
  98 0032 C005     		lsls	r0, r0, #23
  99              	.LVL6:
 100              	.LBB437:
 101              	.LBB431:
 102              		.loc 2 153 0
 103 0034 1D80     		strh	r5, [r3, #0]	@ movhi
 104              	.LVL7:
 105              	.LBE431:
 106              	.LBE437:
 107              		.loc 1 97 0
 108 0036 D205     		lsls	r2, r2, #23
 109              	.LBB438:
 110              	.LBB439:
 111              		.loc 2 144 0
 112 0038 4525     		movs	r5, #69
 113              	.LVL8:
 114 003a 2580     		strh	r5, [r4, #0]	@ movhi
ARM GAS  /tmp/ccZUWmXH.s 			page 3


 115              	.LBE439:
 116              	.LBE438:
 117              		.loc 1 96 0
 118 003c C00D     		lsrs	r0, r0, #23
 119              	.LVL9:
 120              		.loc 1 97 0
 121 003e D20D     		lsrs	r2, r2, #23
 122              	.LBB440:
 123              	.LBB441:
 124              		.loc 2 144 0
 125 0040 4625     		movs	r5, #70
 126              	.LBE441:
 127              	.LBE440:
 128              	.LBB443:
 129              	.LBB444:
 130              		.loc 2 153 0
 131 0042 1880     		strh	r0, [r3, #0]	@ movhi
 132              	.LVL10:
 133              	.LBE444:
 134              	.LBE443:
 135              	.LBB445:
 136              	.LBB442:
 137              		.loc 2 144 0
 138 0044 2580     		strh	r5, [r4, #0]	@ movhi
 139              	.LVL11:
 140              	.LBE442:
 141              	.LBE445:
 142              	.LBB446:
 143              	.LBB447:
 144              		.loc 2 153 0
 145 0046 1A80     		strh	r2, [r3, #0]	@ movhi
 146              	.LVL12:
 147              	.L9:
 148              	.LBE447:
 149              	.LBE446:
 150              	.LBB448:
 151              	.LBB449:
 152              	.LBB450:
 153              	.LBB451:
 154 0048 0023     		movs	r3, #0
 155              	.LBE451:
 156              	.LBE450:
 157              	.LBB454:
 158              	.LBB455:
 159              		.loc 2 144 0
 160 004a 4FF0C042 		mov	r2, #1610612736
 161              	.LBE455:
 162              	.LBE454:
 163              	.LBB457:
 164              	.LBB452:
 165              		.loc 2 153 0
 166 004e C6F20203 		movt	r3, 24578
 167              	.LBE452:
 168              	.LBE457:
 169              		.loc 1 65 0
 170 0052 89B2     		uxth	r1, r1
 171              	.LVL13:
ARM GAS  /tmp/ccZUWmXH.s 			page 4


 172              	.LBB458:
 173              	.LBB456:
 174              		.loc 2 144 0
 175 0054 4E24     		movs	r4, #78
 176 0056 1480     		strh	r4, [r2, #0]	@ movhi
 177              	.LBE456:
 178              	.LBE458:
 179              	.LBB459:
 180              	.LBB453:
 181              		.loc 2 153 0
 182 0058 1980     		strh	r1, [r3, #0]	@ movhi
 183              	.LVL14:
 184              	.LBE453:
 185              	.LBE459:
 186              	.LBB460:
 187              	.LBB461:
 188              		.loc 2 144 0
 189 005a 4F21     		movs	r1, #79
 190              	.LVL15:
 191 005c 1180     		strh	r1, [r2, #0]	@ movhi
 192              	.LVL16:
 193              	.LBE461:
 194              	.LBE460:
 195              	.LBB462:
 196              	.LBB463:
 197              		.loc 2 153 0
 198 005e 1880     		strh	r0, [r3, #0]	@ movhi
 199              	.LVL17:
 200              	.L1:
 201              	.LBE463:
 202              	.LBE462:
 203              	.LBE449:
 204              	.LBE448:
 205              		.loc 1 112 0
 206 0060 70BC     		pop	{r4, r5, r6}
 207 0062 7047     		bx	lr
 208              	.LVL18:
 209              	.L5:
 210              		.loc 1 100 0
 211 0064 86B2     		uxth	r6, r0
 212 0066 C6F1F004 		rsb	r4, r6, #240
 213              		.loc 1 101 0
 214 006a 89B2     		uxth	r1, r1
 215              		.loc 1 100 0
 216 006c A21A     		subs	r2, r4, r2
 217              	.LVL19:
 218              		.loc 1 101 0
 219 006e C1F5A075 		rsb	r5, r1, #320
 220              		.loc 1 100 0
 221 0072 C0F1EF00 		rsb	r0, r0, #239
 222              	.LVL20:
 223 0076 D2B2     		uxtb	r2, r2
 224              	.LBB511:
 225              	.LBB512:
 226              		.loc 2 153 0
 227 0078 0024     		movs	r4, #0
 228 007a C6F20204 		movt	r4, 24578
ARM GAS  /tmp/ccZUWmXH.s 			page 5


 229              	.LBE512:
 230              	.LBE511:
 231              		.loc 1 101 0
 232 007e EB1A     		subs	r3, r5, r3
 233              	.LVL21:
 234              		.loc 1 100 0
 235 0080 42EA0022 		orr	r2, r2, r0, lsl #8
 236              	.LBB514:
 237              	.LBB515:
 238              		.loc 2 144 0
 239 0084 4FF0C045 		mov	r5, #1610612736
 240              	.LBE515:
 241              	.LBE514:
 242              		.loc 1 102 0
 243 0088 C1F59F71 		rsb	r1, r1, #318
 244              	.LVL22:
 245              		.loc 1 100 0
 246 008c 90B2     		uxth	r0, r2
 247              	.LVL23:
 248              		.loc 1 102 0
 249 008e 0131     		adds	r1, r1, #1
 250              		.loc 1 101 0
 251 0090 DB05     		lsls	r3, r3, #23
 252              	.LBB517:
 253              	.LBB516:
 254              		.loc 2 144 0
 255 0092 4422     		movs	r2, #68
 256              	.LVL24:
 257 0094 2A80     		strh	r2, [r5, #0]	@ movhi
 258              	.LBE516:
 259              	.LBE517:
 260              		.loc 1 101 0
 261 0096 DB0D     		lsrs	r3, r3, #23
 262              	.LBB518:
 263              	.LBB513:
 264              		.loc 2 153 0
 265 0098 2080     		strh	r0, [r4, #0]	@ movhi
 266              	.LVL25:
 267              	.LBE513:
 268              	.LBE518:
 269              		.loc 1 102 0
 270 009a C905     		lsls	r1, r1, #23
 271              	.LBB519:
 272              	.LBB520:
 273              		.loc 2 144 0
 274 009c 4520     		movs	r0, #69
 275              	.LVL26:
 276 009e 2880     		strh	r0, [r5, #0]	@ movhi
 277              	.LVL27:
 278              	.LBE520:
 279              	.LBE519:
 280              		.loc 1 102 0
 281 00a0 C90D     		lsrs	r1, r1, #23
 282              	.LBB521:
 283              	.LBB522:
 284              		.loc 2 153 0
 285 00a2 2380     		strh	r3, [r4, #0]	@ movhi
ARM GAS  /tmp/ccZUWmXH.s 			page 6


 286              	.LVL28:
 287              	.LBE522:
 288              	.LBE521:
 289              	.LBB523:
 290              	.LBB524:
 291              		.loc 2 144 0
 292 00a4 4623     		movs	r3, #70
 293              	.LVL29:
 294 00a6 2B80     		strh	r3, [r5, #0]	@ movhi
 295              	.LBE524:
 296              	.LBE523:
 297              	.LBB525:
 298              	.LBB526:
 299              		.loc 2 153 0
 300 00a8 2180     		strh	r1, [r4, #0]	@ movhi
 301              	.LVL30:
 302              	.L10:
 303              	.LBE526:
 304              	.LBE525:
 305              	.LBB527:
 306              	.LBB508:
 307              	.LBB464:
 308              	.LBB465:
 309              		.loc 2 144 0
 310 00aa 4FF0C042 		mov	r2, #1610612736
 311              	.LBE465:
 312              	.LBE464:
 313              		.loc 1 57 0
 314 00ae C6F1EF00 		rsb	r0, r6, #239
 315              	.LBB467:
 316              	.LBB468:
 317              		.loc 2 153 0
 318 00b2 0023     		movs	r3, #0
 319 00b4 C6F20203 		movt	r3, 24578
 320              	.LBE468:
 321              	.LBE467:
 322              		.loc 1 57 0
 323 00b8 C6B2     		uxtb	r6, r0
 324              	.LVL31:
 325              	.LBB470:
 326              	.LBB466:
 327              		.loc 2 144 0
 328 00ba 4E20     		movs	r0, #78
 329 00bc 1080     		strh	r0, [r2, #0]	@ movhi
 330              	.LBE466:
 331              	.LBE470:
 332              	.LBB471:
 333              	.LBB472:
 334 00be 4F20     		movs	r0, #79
 335              	.LBE472:
 336              	.LBE471:
 337              	.LBB474:
 338              	.LBB469:
 339              		.loc 2 153 0
 340 00c0 1E80     		strh	r6, [r3, #0]	@ movhi
 341              	.LVL32:
 342              	.LBE469:
ARM GAS  /tmp/ccZUWmXH.s 			page 7


 343              	.LBE474:
 344              	.LBB475:
 345              	.LBB473:
 346              		.loc 2 144 0
 347 00c2 1080     		strh	r0, [r2, #0]	@ movhi
 348              	.LVL33:
 349              	.LBE473:
 350              	.LBE475:
 351              	.LBB476:
 352              	.LBB477:
 353              		.loc 2 153 0
 354 00c4 1980     		strh	r1, [r3, #0]	@ movhi
 355 00c6 CBE7     		b	.L1
 356              	.LVL34:
 357              	.L4:
 358              	.LBE477:
 359              	.LBE476:
 360              	.LBE508:
 361              	.LBE527:
 362              		.loc 1 105 0
 363 00c8 8EB2     		uxth	r6, r1
 364 00ca C6F1F004 		rsb	r4, r6, #240
 365              		.loc 1 106 0
 366 00ce 80B2     		uxth	r0, r0
 367              		.loc 1 105 0
 368 00d0 E31A     		subs	r3, r4, r3
 369              	.LVL35:
 370              		.loc 1 106 0
 371 00d2 C0F5A075 		rsb	r5, r0, #320
 372              		.loc 1 105 0
 373 00d6 C1F1EF01 		rsb	r1, r1, #239
 374              	.LVL36:
 375 00da DBB2     		uxtb	r3, r3
 376              	.LBB528:
 377              	.LBB529:
 378              		.loc 2 153 0
 379 00dc 0024     		movs	r4, #0
 380 00de C6F20204 		movt	r4, 24578
 381              	.LBE529:
 382              	.LBE528:
 383              		.loc 1 106 0
 384 00e2 AA1A     		subs	r2, r5, r2
 385              	.LVL37:
 386              		.loc 1 105 0
 387 00e4 43EA0123 		orr	r3, r3, r1, lsl #8
 388              	.LBB531:
 389              	.LBB532:
 390              		.loc 2 144 0
 391 00e8 4FF0C045 		mov	r5, #1610612736
 392              	.LBE532:
 393              	.LBE531:
 394              		.loc 1 107 0
 395 00ec C0F59F70 		rsb	r0, r0, #318
 396              	.LVL38:
 397              		.loc 1 105 0
 398 00f0 99B2     		uxth	r1, r3
 399              	.LVL39:
ARM GAS  /tmp/ccZUWmXH.s 			page 8


 400              		.loc 1 107 0
 401 00f2 0130     		adds	r0, r0, #1
 402              		.loc 1 106 0
 403 00f4 D205     		lsls	r2, r2, #23
 404              	.LBB534:
 405              	.LBB533:
 406              		.loc 2 144 0
 407 00f6 4423     		movs	r3, #68
 408              	.LVL40:
 409 00f8 2B80     		strh	r3, [r5, #0]	@ movhi
 410              	.LBE533:
 411              	.LBE534:
 412              		.loc 1 106 0
 413 00fa D20D     		lsrs	r2, r2, #23
 414              	.LBB535:
 415              	.LBB530:
 416              		.loc 2 153 0
 417 00fc 2180     		strh	r1, [r4, #0]	@ movhi
 418              	.LVL41:
 419              	.LBE530:
 420              	.LBE535:
 421              		.loc 1 107 0
 422 00fe C005     		lsls	r0, r0, #23
 423              	.LBB536:
 424              	.LBB537:
 425              		.loc 2 144 0
 426 0100 4521     		movs	r1, #69
 427              	.LVL42:
 428 0102 2980     		strh	r1, [r5, #0]	@ movhi
 429              	.LVL43:
 430              	.LBE537:
 431              	.LBE536:
 432              		.loc 1 107 0
 433 0104 C00D     		lsrs	r0, r0, #23
 434              	.LBB538:
 435              	.LBB539:
 436              		.loc 2 153 0
 437 0106 2280     		strh	r2, [r4, #0]	@ movhi
 438              	.LVL44:
 439              	.LBE539:
 440              	.LBE538:
 441              	.LBB540:
 442              	.LBB541:
 443              		.loc 2 144 0
 444 0108 4622     		movs	r2, #70
 445              	.LVL45:
 446 010a 2A80     		strh	r2, [r5, #0]	@ movhi
 447              	.LBE541:
 448              	.LBE540:
 449              	.LBB542:
 450              	.LBB543:
 451              		.loc 2 153 0
 452 010c 2080     		strh	r0, [r4, #0]	@ movhi
 453              	.LVL46:
 454              	.L11:
 455              	.LBE543:
 456              	.LBE542:
ARM GAS  /tmp/ccZUWmXH.s 			page 9


 457              	.LBB544:
 458              	.LBB509:
 459              	.LBB478:
 460              	.LBB479:
 461              	.LBB480:
 462              	.LBB481:
 463              		.loc 2 144 0
 464 010e 4FF0C042 		mov	r2, #1610612736
 465              	.LBE481:
 466              	.LBE480:
 467              		.loc 1 69 0
 468 0112 C6F1EF01 		rsb	r1, r6, #239
 469              	.LBB483:
 470              	.LBB484:
 471              		.loc 2 153 0
 472 0116 0023     		movs	r3, #0
 473 0118 C6F20203 		movt	r3, 24578
 474              	.LBE484:
 475              	.LBE483:
 476              		.loc 1 69 0
 477 011c CEB2     		uxtb	r6, r1
 478              	.LVL47:
 479              	.LBB486:
 480              	.LBB482:
 481              		.loc 2 144 0
 482 011e 4E21     		movs	r1, #78
 483 0120 1180     		strh	r1, [r2, #0]	@ movhi
 484              	.LBE482:
 485              	.LBE486:
 486              	.LBB487:
 487              	.LBB488:
 488 0122 4F21     		movs	r1, #79
 489              	.LBE488:
 490              	.LBE487:
 491              	.LBB490:
 492              	.LBB485:
 493              		.loc 2 153 0
 494 0124 1E80     		strh	r6, [r3, #0]	@ movhi
 495              	.LVL48:
 496              	.LBE485:
 497              	.LBE490:
 498              	.LBB491:
 499              	.LBB489:
 500              		.loc 2 144 0
 501 0126 1180     		strh	r1, [r2, #0]	@ movhi
 502              	.LVL49:
 503              	.LBE489:
 504              	.LBE491:
 505              	.LBB492:
 506              	.LBB493:
 507              		.loc 2 153 0
 508 0128 1880     		strh	r0, [r3, #0]	@ movhi
 509 012a 99E7     		b	.L1
 510              	.LVL50:
 511              	.L3:
 512              	.LBE493:
 513              	.LBE492:
ARM GAS  /tmp/ccZUWmXH.s 			page 10


 514              	.LBE479:
 515              	.LBE478:
 516              	.LBE509:
 517              	.LBE544:
 518              		.loc 1 90 0
 519 012c 8618     		adds	r6, r0, r2
 520              		.loc 1 92 0
 521 012e 4D1E     		subs	r5, r1, #1
 522              		.loc 1 90 0
 523 0130 721E     		subs	r2, r6, #1
 524              	.LVL51:
 525 0132 C0B2     		uxtb	r0, r0
 526              	.LVL52:
 527              	.LBB545:
 528              	.LBB546:
 529              		.loc 2 153 0
 530 0134 0024     		movs	r4, #0
 531 0136 C6F20204 		movt	r4, 24578
 532              	.LBE546:
 533              	.LBE545:
 534              		.loc 1 92 0
 535 013a EB18     		adds	r3, r5, r3
 536              	.LVL53:
 537              		.loc 1 90 0
 538 013c 40EA0226 		orr	r6, r0, r2, lsl #8
 539              	.LBB548:
 540              	.LBB549:
 541              		.loc 2 144 0
 542 0140 4FF0C045 		mov	r5, #1610612736
 543              	.LBE549:
 544              	.LBE548:
 545              		.loc 1 90 0
 546 0144 B2B2     		uxth	r2, r6
 547              	.LVL54:
 548              	.LBB551:
 549              	.LBB550:
 550              		.loc 2 144 0
 551 0146 4426     		movs	r6, #68
 552              	.LVL55:
 553 0148 2E80     		strh	r6, [r5, #0]	@ movhi
 554              	.LBE550:
 555              	.LBE551:
 556              		.loc 1 91 0
 557 014a C905     		lsls	r1, r1, #23
 558              	.LVL56:
 559              	.LBB552:
 560              	.LBB547:
 561              		.loc 2 153 0
 562 014c 2280     		strh	r2, [r4, #0]	@ movhi
 563              	.LVL57:
 564              	.LBE547:
 565              	.LBE552:
 566              		.loc 1 92 0
 567 014e DB05     		lsls	r3, r3, #23
 568              	.LBB553:
 569              	.LBB554:
 570              		.loc 2 144 0
ARM GAS  /tmp/ccZUWmXH.s 			page 11


 571 0150 4522     		movs	r2, #69
 572              	.LVL58:
 573 0152 2A80     		strh	r2, [r5, #0]	@ movhi
 574              	.LBE554:
 575              	.LBE553:
 576              		.loc 1 91 0
 577 0154 C90D     		lsrs	r1, r1, #23
 578              	.LVL59:
 579              		.loc 1 92 0
 580 0156 DB0D     		lsrs	r3, r3, #23
 581              	.LBB555:
 582              	.LBB556:
 583              		.loc 2 144 0
 584 0158 4622     		movs	r2, #70
 585              	.LBE556:
 586              	.LBE555:
 587              	.LBB558:
 588              	.LBB559:
 589              		.loc 2 153 0
 590 015a 2180     		strh	r1, [r4, #0]	@ movhi
 591              	.LVL60:
 592              	.LBE559:
 593              	.LBE558:
 594              	.LBB560:
 595              	.LBB557:
 596              		.loc 2 144 0
 597 015c 2A80     		strh	r2, [r5, #0]	@ movhi
 598              	.LVL61:
 599              	.LBE557:
 600              	.LBE560:
 601              	.LBB561:
 602              	.LBB562:
 603              		.loc 2 153 0
 604 015e 2380     		strh	r3, [r4, #0]	@ movhi
 605              	.LVL62:
 606              	.L8:
 607              	.LBE562:
 608              	.LBE561:
 609              	.LBB563:
 610              	.LBB510:
 611              	.LBB494:
 612              	.LBB495:
 613 0160 0023     		movs	r3, #0
 614              	.LBE495:
 615              	.LBE494:
 616              	.LBB498:
 617              	.LBB499:
 618              		.loc 2 144 0
 619 0162 4FF0C042 		mov	r2, #1610612736
 620              	.LBE499:
 621              	.LBE498:
 622              	.LBB501:
 623              	.LBB496:
 624              		.loc 2 153 0
 625 0166 C6F20203 		movt	r3, 24578
 626              	.LBE496:
 627              	.LBE501:
ARM GAS  /tmp/ccZUWmXH.s 			page 12


 628              		.loc 1 61 0
 629 016a 80B2     		uxth	r0, r0
 630              	.LVL63:
 631              	.LBB502:
 632              	.LBB500:
 633              		.loc 2 144 0
 634 016c 4E24     		movs	r4, #78
 635 016e 1480     		strh	r4, [r2, #0]	@ movhi
 636              	.LBE500:
 637              	.LBE502:
 638              	.LBB503:
 639              	.LBB497:
 640              		.loc 2 153 0
 641 0170 1880     		strh	r0, [r3, #0]	@ movhi
 642              	.LVL64:
 643              	.LBE497:
 644              	.LBE503:
 645              	.LBB504:
 646              	.LBB505:
 647              		.loc 2 144 0
 648 0172 4F20     		movs	r0, #79
 649              	.LVL65:
 650 0174 1080     		strh	r0, [r2, #0]	@ movhi
 651              	.LVL66:
 652              	.LBE505:
 653              	.LBE504:
 654              	.LBB506:
 655              	.LBB507:
 656              		.loc 2 153 0
 657 0176 1980     		strh	r1, [r3, #0]	@ movhi
 658 0178 72E7     		b	.L1
 659              	.LVL67:
 660              	.L2:
 661              	.LBE507:
 662              	.LBE506:
 663              		.loc 1 55 0
 664 017a 032C     		cmp	r4, #3
 665 017c 3FF670AF 		bhi	.L1
 666 0180 DFE804F0 		tbb	[pc, r4]
 667              	.LVL68:
 668              	.L17:
 669 0184 06       		.byte	(.L13-.L17)/2
 670 0185 0A       		.byte	(.L14-.L17)/2
 671 0186 12       		.byte	(.L15-.L17)/2
 672 0187 02       		.byte	(.L16-.L17)/2
 673              		.align	1
 674              	.L16:
 675 0188 C005     		lsls	r0, r0, #23
 676              	.LVL69:
 677 018a C9B2     		uxtb	r1, r1
 678              	.LVL70:
 679 018c C00D     		lsrs	r0, r0, #23
 680 018e 5BE7     		b	.L9
 681              	.LVL71:
 682              	.L13:
 683 0190 CC05     		lsls	r4, r1, #23
 684 0192 C0B2     		uxtb	r0, r0
ARM GAS  /tmp/ccZUWmXH.s 			page 13


 685              	.LVL72:
 686 0194 E10D     		lsrs	r1, r4, #23
 687              	.LVL73:
 688 0196 E3E7     		b	.L8
 689              	.LVL74:
 690              	.L14:
 691 0198 85B2     		uxth	r5, r0
 692 019a C5F59F76 		rsb	r6, r5, #318
 693 019e 731C     		adds	r3, r6, #1
 694 01a0 DA05     		lsls	r2, r3, #23
 695              	.LVL75:
 696 01a2 8EB2     		uxth	r6, r1
 697 01a4 D00D     		lsrs	r0, r2, #23
 698              	.LVL76:
 699 01a6 B2E7     		b	.L11
 700              	.LVL77:
 701              	.L15:
 702 01a8 8DB2     		uxth	r5, r1
 703 01aa C5F59F76 		rsb	r6, r5, #318
 704 01ae 731C     		adds	r3, r6, #1
 705 01b0 DA05     		lsls	r2, r3, #23
 706              	.LVL78:
 707 01b2 86B2     		uxth	r6, r0
 708 01b4 D10D     		lsrs	r1, r2, #23
 709              	.LVL79:
 710 01b6 78E7     		b	.L10
 711              	.L20:
 712              		.align	2
 713              	.L19:
 714 01b8 00000000 		.word	.LANCHOR0
 715              	.LBE510:
 716              	.LBE563:
 717              		.cfi_endproc
 718              	.LFE130:
 719              		.size	set_viewport, .-set_viewport
 720 01bc AFF30080 		.section	.text.gdisp_lld_init,"ax",%progbits
 721              		.align	2
 722              		.p2align 4,,15
 723              		.global	gdisp_lld_init
 724              		.thumb
 725              		.thumb_func
 726              		.type	gdisp_lld_init, %function
 727              	gdisp_lld_init:
 728              	.LFB132:
 729              		.loc 1 137 0
 730              		.cfi_startproc
 731              		@ args = 0, pretend = 0, frame = 32
 732              		@ frame_needed = 0, uses_anonymous_args = 0
 733 0000 2DE9F04F 		push	{r4, r5, r6, r7, r8, r9, sl, fp, lr}
 734              	.LCFI1:
 735              		.cfi_def_cfa_offset 36
 736              		.cfi_offset 4, -36
 737              		.cfi_offset 5, -32
 738              		.cfi_offset 6, -28
 739              		.cfi_offset 7, -24
 740              		.cfi_offset 8, -20
 741              		.cfi_offset 9, -16
ARM GAS  /tmp/ccZUWmXH.s 			page 14


 742              		.cfi_offset 10, -12
 743              		.cfi_offset 11, -8
 744              		.cfi_offset 14, -4
 745              	.LBB734:
 746              	.LBB735:
 747              		.loc 2 72 0
 748 0004 40F20003 		movw	r3, #:lower16:.LANCHOR1
 749              		.loc 2 60 0
 750 0008 4FF46054 		mov	r4, #14336
 751 000c C4F20204 		movt	r4, 16386
 752              		.loc 2 72 0
 753 0010 C0F20003 		movt	r3, #:upper16:.LANCHOR1
 754 0014 93E80700 		ldmia	r3, {r0, r1, r2}
 755              		.loc 2 60 0
 756 0018 A66B     		ldr	r6, [r4, #56]
 757              	.LBE735:
 758              	.LBE734:
 759              		.loc 1 137 0
 760 001a 89B0     		sub	sp, sp, #36
 761              	.LCFI2:
 762              		.cfi_def_cfa_offset 72
 763              	.LBB739:
 764              	.LBB736:
 765              		.loc 2 75 0
 766 001c 0C33     		adds	r3, r3, #12
 767              		.loc 2 72 0
 768 001e 02AD     		add	r5, sp, #8
 769              		.loc 2 60 0
 770 0020 46F00107 		orr	r7, r6, #1
 771 0024 A763     		str	r7, [r4, #56]
 772              		.loc 2 72 0
 773 0026 85E80700 		stmia	r5, {r0, r1, r2}
 774              		.loc 2 75 0
 775 002a 93E80700 		ldmia	r3, {r0, r1, r2}
 776 002e 05AC     		add	r4, sp, #20
 777 0030 84E80700 		stmia	r4, {r0, r1, r2}
 778              		.loc 2 78 0
 779 0034 2846     		mov	r0, r5
 780 0036 40F20261 		movw	r1, #1538
 781 003a FFF7FEFF 		bl	palSetBusMode
 782              	.LVL80:
 783              		.loc 2 79 0
 784 003e 2046     		mov	r0, r4
 785 0040 40F20261 		movw	r1, #1538
 786 0044 FFF7FEFF 		bl	palSetBusMode
 787              	.LVL81:
 788              		.loc 2 82 0
 789 0048 40F60A27 		movw	r7, #2570
 790 004c 4FF02043 		mov	r3, #-1610612736
 791              		.loc 2 90 0
 792 0050 0026     		movs	r6, #0
 793              		.loc 2 82 0
 794 0052 C0F20A07 		movt	r7, 10
 795 0056 5F60     		str	r7, [r3, #4]
 796              		.loc 2 90 0
 797 0058 4FF48061 		mov	r1, #1024
 798 005c C4F20206 		movt	r6, 16386
ARM GAS  /tmp/ccZUWmXH.s 			page 15


 799              		.loc 2 88 0
 800 0060 41F21107 		movw	r7, #4113
 801 0064 1F60     		str	r7, [r3, #0]
 802              		.loc 2 90 0
 803 0066 1922     		movs	r2, #25
 804              	.LBE736:
 805              	.LBE739:
 806              	.LBB740:
 807              	.LBB741:
 808              		.loc 2 102 0
 809 0068 8846     		mov	r8, r1
 810              	.LBE741:
 811              	.LBE740:
 812              	.LBB743:
 813              	.LBB737:
 814              		.loc 2 90 0
 815 006a 3046     		mov	r0, r6
 816              	.LBE737:
 817              	.LBE743:
 818              	.LBB744:
 819              	.LBB745:
 820              		.loc 2 153 0
 821 006c 0024     		movs	r4, #0
 822              	.LBE745:
 823              	.LBE744:
 824              	.LBB749:
 825              	.LBB750:
 826              		.loc 2 144 0
 827 006e 4FF0C045 		mov	r5, #1610612736
 828              	.LBE750:
 829              	.LBE749:
 830              	.LBB753:
 831              	.LBB746:
 832              		.loc 2 153 0
 833 0072 C6F20204 		movt	r4, 24578
 834              	.LBE746:
 835              	.LBE753:
 836              	.LBB754:
 837              	.LBB738:
 838              		.loc 2 90 0
 839 0076 FFF7FEFF 		bl	_pal_lld_setgroupmode
 840              	.LVL82:
 841              	.LBE738:
 842              	.LBE754:
 843              		.loc 1 143 0
 844 007a 1420     		movs	r0, #20
 845              	.LBB755:
 846              	.LBB742:
 847              		.loc 2 102 0
 848 007c A6F81A80 		strh	r8, [r6, #26]	@ movhi
 849              	.LBE742:
 850              	.LBE755:
 851              	.LBB756:
 852              	.LBB751:
 853              		.loc 2 144 0
 854 0080 0027     		movs	r7, #0
 855              	.LBE751:
ARM GAS  /tmp/ccZUWmXH.s 			page 16


 856              	.LBE756:
 857              		.loc 1 143 0
 858 0082 FFF7FEFF 		bl	gfxSleepMilliseconds
 859              	.LVL83:
 860              	.LBB757:
 861              	.LBB747:
 862              		.loc 2 153 0
 863 0086 4FF00109 		mov	r9, #1
 864              	.LBE747:
 865              	.LBE757:
 866              		.loc 1 145 0
 867 008a 1420     		movs	r0, #20
 868              	.LBB758:
 869              	.LBB759:
 870              		.loc 2 104 0
 871 008c A6F81880 		strh	r8, [r6, #24]	@ movhi
 872              	.LBE759:
 873              	.LBE758:
 874              		.loc 1 145 0
 875 0090 FFF7FEFF 		bl	gfxSleepMilliseconds
 876              	.LVL84:
 877              	.LBB760:
 878              	.LBB752:
 879              		.loc 2 144 0
 880 0094 2F80     		strh	r7, [r5, #0]	@ movhi
 881              	.LVL85:
 882              	.LBE752:
 883              	.LBE760:
 884              		.loc 1 150 0
 885 0096 0520     		movs	r0, #5
 886              	.LBB761:
 887              	.LBB748:
 888              		.loc 2 153 0
 889 0098 A4F80090 		strh	r9, [r4, #0]	@ movhi
 890              	.LBE748:
 891              	.LBE761:
 892              		.loc 1 150 0
 893 009c FFF7FEFF 		bl	gfxSleepMicroseconds
 894              	.LVL86:
 895              	.LBB762:
 896              	.LBB763:
 897              		.loc 2 144 0
 898 00a0 4FF0030A 		mov	sl, #3
 899              	.LBE763:
 900              	.LBE762:
 901              	.LBB765:
 902              	.LBB766:
 903              		.loc 2 153 0
 904 00a4 4AF6A401 		movw	r1, #43172
 905              	.LBE766:
 906              	.LBE765:
 907              	.LBB768:
 908              	.LBB764:
 909              		.loc 2 144 0
 910 00a8 A5F800A0 		strh	sl, [r5, #0]	@ movhi
 911              	.LVL87:
 912              	.LBE764:
ARM GAS  /tmp/ccZUWmXH.s 			page 17


 913              	.LBE768:
 914              		.loc 1 151 0
 915 00ac 0520     		movs	r0, #5
 916              	.LBB769:
 917              	.LBB767:
 918              		.loc 2 153 0
 919 00ae 2180     		strh	r1, [r4, #0]	@ movhi
 920              	.LBE767:
 921              	.LBE769:
 922              		.loc 1 151 0
 923 00b0 FFF7FEFF 		bl	gfxSleepMicroseconds
 924              	.LVL88:
 925              	.LBB770:
 926              	.LBB771:
 927              		.loc 2 144 0
 928 00b4 0C20     		movs	r0, #12
 929 00b6 2880     		strh	r0, [r5, #0]	@ movhi
 930              	.LVL89:
 931              	.LBE771:
 932              	.LBE770:
 933              		.loc 1 152 0
 934 00b8 0520     		movs	r0, #5
 935              	.LBB772:
 936              	.LBB773:
 937              		.loc 2 153 0
 938 00ba 2780     		strh	r7, [r4, #0]	@ movhi
 939              	.LBE773:
 940              	.LBE772:
 941              		.loc 1 152 0
 942 00bc FFF7FEFF 		bl	gfxSleepMicroseconds
 943              	.LVL90:
 944              	.LBB774:
 945              	.LBB775:
 946              		.loc 2 153 0
 947 00c0 40F60C06 		movw	r6, #2060
 948              	.LBE775:
 949              	.LBE774:
 950              	.LBB777:
 951              	.LBB778:
 952              		.loc 2 144 0
 953 00c4 0D22     		movs	r2, #13
 954 00c6 2A80     		strh	r2, [r5, #0]	@ movhi
 955              	.LVL91:
 956              	.LBE778:
 957              	.LBE777:
 958              		.loc 1 153 0
 959 00c8 0520     		movs	r0, #5
 960              	.LBB779:
 961              	.LBB776:
 962              		.loc 2 153 0
 963 00ca 2680     		strh	r6, [r4, #0]	@ movhi
 964              	.LBE776:
 965              	.LBE779:
 966              		.loc 1 153 0
 967 00cc FFF7FEFF 		bl	gfxSleepMicroseconds
 968              	.LVL92:
 969              	.LBB780:
ARM GAS  /tmp/ccZUWmXH.s 			page 18


 970              	.LBB781:
 971              		.loc 2 144 0
 972 00d0 0E23     		movs	r3, #14
 973              	.LBE781:
 974              	.LBE780:
 975              	.LBB783:
 976              	.LBB784:
 977              		.loc 2 153 0
 978 00d2 4FF42C51 		mov	r1, #11008
 979              	.LBE784:
 980              	.LBE783:
 981              	.LBB786:
 982              	.LBB782:
 983              		.loc 2 144 0
 984 00d6 2B80     		strh	r3, [r5, #0]	@ movhi
 985              	.LVL93:
 986              	.LBE782:
 987              	.LBE786:
 988              		.loc 1 154 0
 989 00d8 0520     		movs	r0, #5
 990              	.LBB787:
 991              	.LBB785:
 992              		.loc 2 153 0
 993 00da 2180     		strh	r1, [r4, #0]	@ movhi
 994              	.LBE785:
 995              	.LBE787:
 996              		.loc 1 154 0
 997 00dc FFF7FEFF 		bl	gfxSleepMicroseconds
 998              	.LVL94:
 999              	.LBB788:
 1000              	.LBB789:
 1001              		.loc 2 153 0
 1002 00e0 B022     		movs	r2, #176
 1003              	.LBE789:
 1004              	.LBE788:
 1005              	.LBB791:
 1006              	.LBB792:
 1007              		.loc 2 144 0
 1008 00e2 1E20     		movs	r0, #30
 1009 00e4 2880     		strh	r0, [r5, #0]	@ movhi
 1010              	.LVL95:
 1011              	.LBE792:
 1012              	.LBE791:
 1013              	.LBB793:
 1014              	.LBB794:
 1015              		.loc 2 153 0
 1016 00e6 42F63F36 		movw	r6, #11071
 1017              	.LBE794:
 1018              	.LBE793:
 1019              	.LBB796:
 1020              	.LBB790:
 1021 00ea 2280     		strh	r2, [r4, #0]	@ movhi
 1022              	.LBE790:
 1023              	.LBE796:
 1024              		.loc 1 155 0
 1025 00ec 0520     		movs	r0, #5
 1026 00ee FFF7FEFF 		bl	gfxSleepMicroseconds
ARM GAS  /tmp/ccZUWmXH.s 			page 19


 1027              	.LVL96:
 1028              	.LBB797:
 1029              	.LBB798:
 1030              		.loc 2 144 0
 1031 00f2 A5F80090 		strh	r9, [r5, #0]	@ movhi
 1032              	.LVL97:
 1033              	.LBE798:
 1034              	.LBE797:
 1035              		.loc 1 156 0
 1036 00f6 0520     		movs	r0, #5
 1037              	.LBB799:
 1038              	.LBB795:
 1039              		.loc 2 153 0
 1040 00f8 2680     		strh	r6, [r4, #0]	@ movhi
 1041              	.LBE795:
 1042              	.LBE799:
 1043              		.loc 1 156 0
 1044 00fa FFF7FEFF 		bl	gfxSleepMicroseconds
 1045              	.LVL98:
 1046              	.LBB800:
 1047              	.LBB801:
 1048              		.loc 2 153 0
 1049 00fe 4FF4C061 		mov	r1, #1536
 1050              	.LBE801:
 1051              	.LBE800:
 1052              	.LBB803:
 1053              	.LBB804:
 1054              		.loc 2 144 0
 1055 0102 0223     		movs	r3, #2
 1056 0104 2B80     		strh	r3, [r5, #0]	@ movhi
 1057              	.LVL99:
 1058              	.LBE804:
 1059              	.LBE803:
 1060              		.loc 1 157 0
 1061 0106 0520     		movs	r0, #5
 1062              	.LBB805:
 1063              	.LBB802:
 1064              		.loc 2 153 0
 1065 0108 2180     		strh	r1, [r4, #0]	@ movhi
 1066              	.LBE802:
 1067              	.LBE805:
 1068              		.loc 1 157 0
 1069 010a FFF7FEFF 		bl	gfxSleepMicroseconds
 1070              	.LVL100:
 1071              	.LBB806:
 1072              	.LBB807:
 1073              		.loc 2 144 0
 1074 010e 1020     		movs	r0, #16
 1075 0110 2880     		strh	r0, [r5, #0]	@ movhi
 1076              	.LVL101:
 1077              	.LBE807:
 1078              	.LBE806:
 1079              		.loc 1 158 0
 1080 0112 0520     		movs	r0, #5
 1081              	.LBB808:
 1082              	.LBB809:
 1083              		.loc 2 153 0
ARM GAS  /tmp/ccZUWmXH.s 			page 20


 1084 0114 2780     		strh	r7, [r4, #0]	@ movhi
 1085              	.LBE809:
 1086              	.LBE808:
 1087              	.LBB810:
 1088              	.LBB811:
 1089              		.loc 2 144 0
 1090 0116 0526     		movs	r6, #5
 1091              	.LBE811:
 1092              	.LBE810:
 1093              		.loc 1 158 0
 1094 0118 FFF7FEFF 		bl	gfxSleepMicroseconds
 1095              	.LVL102:
 1096              	.LBB813:
 1097              	.LBB814:
 1098              		.loc 2 144 0
 1099 011c 1122     		movs	r2, #17
 1100              	.LBE814:
 1101              	.LBE813:
 1102              	.LBB816:
 1103              	.LBB817:
 1104              		.loc 2 153 0
 1105 011e 46F27003 		movw	r3, #24688
 1106              	.LBE817:
 1107              	.LBE816:
 1108              	.LBB819:
 1109              	.LBB815:
 1110              		.loc 2 144 0
 1111 0122 2A80     		strh	r2, [r5, #0]	@ movhi
 1112              	.LVL103:
 1113              	.LBE815:
 1114              	.LBE819:
 1115              		.loc 1 159 0
 1116 0124 3046     		mov	r0, r6
 1117              	.LBB820:
 1118              	.LBB818:
 1119              		.loc 2 153 0
 1120 0126 2380     		strh	r3, [r4, #0]	@ movhi
 1121              	.LBE818:
 1122              	.LBE820:
 1123              		.loc 1 159 0
 1124 0128 FFF7FEFF 		bl	gfxSleepMicroseconds
 1125              	.LVL104:
 1126              	.LBB821:
 1127              	.LBB812:
 1128              		.loc 2 144 0
 1129 012c 2E80     		strh	r6, [r5, #0]	@ movhi
 1130              	.LVL105:
 1131              	.LBE812:
 1132              	.LBE821:
 1133              		.loc 1 160 0
 1134 012e 3046     		mov	r0, r6
 1135              	.LBB822:
 1136              	.LBB823:
 1137              		.loc 2 153 0
 1138 0130 2780     		strh	r7, [r4, #0]	@ movhi
 1139              	.LBE823:
 1140              	.LBE822:
ARM GAS  /tmp/ccZUWmXH.s 			page 21


 1141              		.loc 1 160 0
 1142 0132 FFF7FEFF 		bl	gfxSleepMicroseconds
 1143              	.LVL106:
 1144              	.LBB824:
 1145              	.LBB825:
 1146              		.loc 2 144 0
 1147 0136 0621     		movs	r1, #6
 1148 0138 2980     		strh	r1, [r5, #0]	@ movhi
 1149              	.LVL107:
 1150              	.LBE825:
 1151              	.LBE824:
 1152              		.loc 1 161 0
 1153 013a 3046     		mov	r0, r6
 1154              	.LBB826:
 1155              	.LBB827:
 1156              		.loc 2 153 0
 1157 013c 2780     		strh	r7, [r4, #0]	@ movhi
 1158              	.LBE827:
 1159              	.LBE826:
 1160              		.loc 1 161 0
 1161 013e FFF7FEFF 		bl	gfxSleepMicroseconds
 1162              	.LVL108:
 1163              	.LBB828:
 1164              	.LBB829:
 1165              		.loc 2 153 0
 1166 0142 4EF61C72 		movw	r2, #61212
 1167              	.LBE829:
 1168              	.LBE828:
 1169              	.LBB831:
 1170              	.LBB832:
 1171              		.loc 2 144 0
 1172 0146 1620     		movs	r0, #22
 1173 0148 2880     		strh	r0, [r5, #0]	@ movhi
 1174              	.LVL109:
 1175              	.LBE832:
 1176              	.LBE831:
 1177              	.LBB833:
 1178              	.LBB830:
 1179              		.loc 2 153 0
 1180 014a 2280     		strh	r2, [r4, #0]	@ movhi
 1181              	.LBE830:
 1182              	.LBE833:
 1183              		.loc 1 162 0
 1184 014c 3046     		mov	r0, r6
 1185 014e FFF7FEFF 		bl	gfxSleepMicroseconds
 1186              	.LVL110:
 1187              	.LBB834:
 1188              	.LBB835:
 1189              		.loc 2 144 0
 1190 0152 1723     		movs	r3, #23
 1191 0154 2B80     		strh	r3, [r5, #0]	@ movhi
 1192              	.LVL111:
 1193              	.LBE835:
 1194              	.LBE834:
 1195              		.loc 1 163 0
 1196 0156 3046     		mov	r0, r6
 1197              	.LBB836:
ARM GAS  /tmp/ccZUWmXH.s 			page 22


 1198              	.LBB837:
 1199              		.loc 2 153 0
 1200 0158 A4F800A0 		strh	sl, [r4, #0]	@ movhi
 1201              	.LBE837:
 1202              	.LBE836:
 1203              		.loc 1 163 0
 1204 015c FFF7FEFF 		bl	gfxSleepMicroseconds
 1205              	.LVL112:
 1206              	.LBB838:
 1207              	.LBB839:
 1208              		.loc 2 144 0
 1209 0160 0721     		movs	r1, #7
 1210              	.LBE839:
 1211              	.LBE838:
 1212              	.LBB841:
 1213              	.LBB842:
 1214              		.loc 2 153 0
 1215 0162 01F59672 		add	r2, r1, #300
 1216              	.LBE842:
 1217              	.LBE841:
 1218              	.LBB844:
 1219              	.LBB840:
 1220              		.loc 2 144 0
 1221 0166 2980     		strh	r1, [r5, #0]	@ movhi
 1222              	.LVL113:
 1223              	.LBE840:
 1224              	.LBE844:
 1225              		.loc 1 164 0
 1226 0168 3046     		mov	r0, r6
 1227              	.LBB845:
 1228              	.LBB843:
 1229              		.loc 2 153 0
 1230 016a 2280     		strh	r2, [r4, #0]	@ movhi
 1231              	.LBE843:
 1232              	.LBE845:
 1233              		.loc 1 164 0
 1234 016c FFF7FEFF 		bl	gfxSleepMicroseconds
 1235              	.LVL114:
 1236              	.LBB846:
 1237              	.LBB847:
 1238              		.loc 2 144 0
 1239 0170 0B20     		movs	r0, #11
 1240 0172 2880     		strh	r0, [r5, #0]	@ movhi
 1241              	.LVL115:
 1242              	.LBE847:
 1243              	.LBE846:
 1244              		.loc 1 165 0
 1245 0174 3046     		mov	r0, r6
 1246              	.LBB848:
 1247              	.LBB849:
 1248              		.loc 2 153 0
 1249 0176 2780     		strh	r7, [r4, #0]	@ movhi
 1250              	.LBE849:
 1251              	.LBE848:
 1252              		.loc 1 165 0
 1253 0178 FFF7FEFF 		bl	gfxSleepMicroseconds
 1254              	.LVL116:
ARM GAS  /tmp/ccZUWmXH.s 			page 23


 1255              	.LBB850:
 1256              	.LBB851:
 1257              		.loc 2 144 0
 1258 017c 0F23     		movs	r3, #15
 1259 017e 2B80     		strh	r3, [r5, #0]	@ movhi
 1260              	.LVL117:
 1261              	.LBE851:
 1262              	.LBE850:
 1263              		.loc 1 166 0
 1264 0180 3046     		mov	r0, r6
 1265              	.LBB852:
 1266              	.LBB853:
 1267              		.loc 2 153 0
 1268 0182 2780     		strh	r7, [r4, #0]	@ movhi
 1269              	.LBE853:
 1270              	.LBE852:
 1271              		.loc 1 166 0
 1272 0184 FFF7FEFF 		bl	gfxSleepMicroseconds
 1273              	.LVL118:
 1274              	.LBB854:
 1275              	.LBB855:
 1276              		.loc 2 144 0
 1277 0188 4121     		movs	r1, #65
 1278 018a 2980     		strh	r1, [r5, #0]	@ movhi
 1279              	.LVL119:
 1280              	.LBE855:
 1281              	.LBE854:
 1282              		.loc 1 167 0
 1283 018c 3046     		mov	r0, r6
 1284              	.LBB856:
 1285              	.LBB857:
 1286              		.loc 2 153 0
 1287 018e 2780     		strh	r7, [r4, #0]	@ movhi
 1288              	.LBE857:
 1289              	.LBE856:
 1290              		.loc 1 167 0
 1291 0190 FFF7FEFF 		bl	gfxSleepMicroseconds
 1292              	.LVL120:
 1293              	.LBB858:
 1294              	.LBB859:
 1295              		.loc 2 144 0
 1296 0194 4222     		movs	r2, #66
 1297 0196 2A80     		strh	r2, [r5, #0]	@ movhi
 1298              	.LVL121:
 1299              	.LBE859:
 1300              	.LBE858:
 1301              		.loc 1 168 0
 1302 0198 3046     		mov	r0, r6
 1303              	.LBB860:
 1304              	.LBB861:
 1305              		.loc 2 153 0
 1306 019a 2780     		strh	r7, [r4, #0]	@ movhi
 1307              	.LBE861:
 1308              	.LBE860:
 1309              		.loc 1 168 0
 1310 019c FFF7FEFF 		bl	gfxSleepMicroseconds
 1311              	.LVL122:
ARM GAS  /tmp/ccZUWmXH.s 			page 24


 1312              	.LBB862:
 1313              	.LBB863:
 1314              		.loc 2 144 0
 1315 01a0 4820     		movs	r0, #72
 1316 01a2 2880     		strh	r0, [r5, #0]	@ movhi
 1317              	.LVL123:
 1318              	.LBE863:
 1319              	.LBE862:
 1320              		.loc 1 169 0
 1321 01a4 3046     		mov	r0, r6
 1322              	.LBB864:
 1323              	.LBB865:
 1324              		.loc 2 153 0
 1325 01a6 2780     		strh	r7, [r4, #0]	@ movhi
 1326              	.LBE865:
 1327              	.LBE864:
 1328              		.loc 1 169 0
 1329 01a8 FFF7FEFF 		bl	gfxSleepMicroseconds
 1330              	.LVL124:
 1331              	.LBB866:
 1332              	.LBB867:
 1333              		.loc 2 153 0
 1334 01ac 40F23F1B 		movw	fp, #319
 1335              	.LBE867:
 1336              	.LBE866:
 1337              	.LBB869:
 1338              	.LBB870:
 1339              		.loc 2 144 0
 1340 01b0 4923     		movs	r3, #73
 1341 01b2 2B80     		strh	r3, [r5, #0]	@ movhi
 1342              	.LVL125:
 1343              	.LBE870:
 1344              	.LBE869:
 1345              		.loc 1 170 0
 1346 01b4 3046     		mov	r0, r6
 1347              	.LBB871:
 1348              	.LBB868:
 1349              		.loc 2 153 0
 1350 01b6 A4F800B0 		strh	fp, [r4, #0]	@ movhi
 1351              	.LBE868:
 1352              	.LBE871:
 1353              		.loc 1 170 0
 1354 01ba FFF7FEFF 		bl	gfxSleepMicroseconds
 1355              	.LVL126:
 1356              	.LBB872:
 1357              	.LBB873:
 1358              		.loc 2 144 0
 1359 01be 4A21     		movs	r1, #74
 1360 01c0 2980     		strh	r1, [r5, #0]	@ movhi
 1361              	.LVL127:
 1362              	.LBE873:
 1363              	.LBE872:
 1364              		.loc 1 171 0
 1365 01c2 3046     		mov	r0, r6
 1366              	.LBB874:
 1367              	.LBB875:
 1368              		.loc 2 153 0
ARM GAS  /tmp/ccZUWmXH.s 			page 25


 1369 01c4 2780     		strh	r7, [r4, #0]	@ movhi
 1370              	.LBE875:
 1371              	.LBE874:
 1372              		.loc 1 171 0
 1373 01c6 FFF7FEFF 		bl	gfxSleepMicroseconds
 1374              	.LVL128:
 1375              	.LBB876:
 1376              	.LBB877:
 1377              		.loc 2 144 0
 1378 01ca 4B22     		movs	r2, #75
 1379 01cc 2A80     		strh	r2, [r5, #0]	@ movhi
 1380              	.LVL129:
 1381              	.LBE877:
 1382              	.LBE876:
 1383              		.loc 1 172 0
 1384 01ce 3046     		mov	r0, r6
 1385              	.LBB878:
 1386              	.LBB879:
 1387              		.loc 2 153 0
 1388 01d0 2780     		strh	r7, [r4, #0]	@ movhi
 1389              	.LBE879:
 1390              	.LBE878:
 1391              		.loc 1 172 0
 1392 01d2 FFF7FEFF 		bl	gfxSleepMicroseconds
 1393              	.LVL130:
 1394              	.LBB880:
 1395              	.LBB881:
 1396              		.loc 2 153 0
 1397 01d6 4FF46F43 		mov	r3, #61184
 1398              	.LBE881:
 1399              	.LBE880:
 1400              	.LBB883:
 1401              	.LBB884:
 1402              		.loc 2 144 0
 1403 01da 4420     		movs	r0, #68
 1404 01dc 2880     		strh	r0, [r5, #0]	@ movhi
 1405              	.LVL131:
 1406              	.LBE884:
 1407              	.LBE883:
 1408              	.LBB885:
 1409              	.LBB882:
 1410              		.loc 2 153 0
 1411 01de 2380     		strh	r3, [r4, #0]	@ movhi
 1412              	.LBE882:
 1413              	.LBE885:
 1414              		.loc 1 173 0
 1415 01e0 3046     		mov	r0, r6
 1416 01e2 FFF7FEFF 		bl	gfxSleepMicroseconds
 1417              	.LVL132:
 1418              	.LBB886:
 1419              	.LBB887:
 1420              		.loc 2 144 0
 1421 01e6 4521     		movs	r1, #69
 1422 01e8 2980     		strh	r1, [r5, #0]	@ movhi
 1423              	.LVL133:
 1424              	.LBE887:
 1425              	.LBE886:
ARM GAS  /tmp/ccZUWmXH.s 			page 26


 1426              		.loc 1 174 0
 1427 01ea 3046     		mov	r0, r6
 1428              	.LBB888:
 1429              	.LBB889:
 1430              		.loc 2 153 0
 1431 01ec 2780     		strh	r7, [r4, #0]	@ movhi
 1432              	.LBE889:
 1433              	.LBE888:
 1434              		.loc 1 174 0
 1435 01ee FFF7FEFF 		bl	gfxSleepMicroseconds
 1436              	.LVL134:
 1437              	.LBB890:
 1438              	.LBB891:
 1439              		.loc 2 144 0
 1440 01f2 4622     		movs	r2, #70
 1441 01f4 2A80     		strh	r2, [r5, #0]	@ movhi
 1442              	.LVL135:
 1443              	.LBE891:
 1444              	.LBE890:
 1445              		.loc 1 175 0
 1446 01f6 3046     		mov	r0, r6
 1447              	.LBB892:
 1448              	.LBB893:
 1449              		.loc 2 153 0
 1450 01f8 A4F800B0 		strh	fp, [r4, #0]	@ movhi
 1451              	.LBE893:
 1452              	.LBE892:
 1453              		.loc 1 175 0
 1454 01fc FFF7FEFF 		bl	gfxSleepMicroseconds
 1455              	.LVL136:
 1456              	.LBB894:
 1457              	.LBB895:
 1458              		.loc 2 153 0
 1459 0200 40F20773 		movw	r3, #1799
 1460              	.LBE895:
 1461              	.LBE894:
 1462              	.LBB897:
 1463              	.LBB898:
 1464              		.loc 2 144 0
 1465 0204 3020     		movs	r0, #48
 1466 0206 2880     		strh	r0, [r5, #0]	@ movhi
 1467              	.LVL137:
 1468              	.LBE898:
 1469              	.LBE897:
 1470              	.LBB899:
 1471              	.LBB896:
 1472              		.loc 2 153 0
 1473 0208 2380     		strh	r3, [r4, #0]	@ movhi
 1474              	.LBE896:
 1475              	.LBE899:
 1476              		.loc 1 176 0
 1477 020a 3046     		mov	r0, r6
 1478 020c FFF7FEFF 		bl	gfxSleepMicroseconds
 1479              	.LVL138:
 1480              	.LBB900:
 1481              	.LBB901:
 1482              		.loc 2 153 0
ARM GAS  /tmp/ccZUWmXH.s 			page 27


 1483 0210 4FF40178 		mov	r8, #516
 1484              	.LBE901:
 1485              	.LBE900:
 1486              	.LBB903:
 1487              	.LBB904:
 1488              		.loc 2 144 0
 1489 0214 3121     		movs	r1, #49
 1490 0216 2980     		strh	r1, [r5, #0]	@ movhi
 1491              	.LVL139:
 1492              	.LBE904:
 1493              	.LBE903:
 1494              		.loc 1 177 0
 1495 0218 3046     		mov	r0, r6
 1496              	.LBB905:
 1497              	.LBB902:
 1498              		.loc 2 153 0
 1499 021a A4F80080 		strh	r8, [r4, #0]	@ movhi
 1500              	.LBE902:
 1501              	.LBE905:
 1502              		.loc 1 177 0
 1503 021e FFF7FEFF 		bl	gfxSleepMicroseconds
 1504              	.LVL140:
 1505              	.LBB906:
 1506              	.LBB907:
 1507              		.loc 2 144 0
 1508 0222 3222     		movs	r2, #50
 1509 0224 2A80     		strh	r2, [r5, #0]	@ movhi
 1510              	.LVL141:
 1511 0226 1346     		mov	r3, r2	@ movhi
 1512              	.LBE907:
 1513              	.LBE906:
 1514              	.LBB908:
 1515              	.LBB909:
 1516              		.loc 2 153 0
 1517 0228 A4F80080 		strh	r8, [r4, #0]	@ movhi
 1518              	.LBE909:
 1519              	.LBE908:
 1520              		.loc 1 178 0
 1521 022c 3046     		mov	r0, r6
 1522 022e 0193     		str	r3, [sp, #4]
 1523              	.LBB910:
 1524              	.LBB911:
 1525              		.loc 2 153 0
 1526 0230 40F2025B 		movw	fp, #1282
 1527              	.LBE911:
 1528              	.LBE910:
 1529              		.loc 1 178 0
 1530 0234 FFF7FEFF 		bl	gfxSleepMicroseconds
 1531              	.LVL142:
 1532              	.LBB913:
 1533              	.LBB914:
 1534              		.loc 2 144 0
 1535 0238 3320     		movs	r0, #51
 1536 023a 2880     		strh	r0, [r5, #0]	@ movhi
 1537              	.LVL143:
 1538              	.LBE914:
 1539              	.LBE913:
ARM GAS  /tmp/ccZUWmXH.s 			page 28


 1540              		.loc 1 179 0
 1541 023c 3046     		mov	r0, r6
 1542              	.LBB915:
 1543              	.LBB912:
 1544              		.loc 2 153 0
 1545 023e A4F800B0 		strh	fp, [r4, #0]	@ movhi
 1546              	.LBE912:
 1547              	.LBE915:
 1548              		.loc 1 179 0
 1549 0242 FFF7FEFF 		bl	gfxSleepMicroseconds
 1550              	.LVL144:
 1551              	.LBB916:
 1552              	.LBB917:
 1553              		.loc 2 144 0
 1554 0246 3421     		movs	r1, #52
 1555              	.LBE917:
 1556              	.LBE916:
 1557              	.LBB919:
 1558              	.LBB920:
 1559              		.loc 2 153 0
 1560 0248 40F20752 		movw	r2, #1287
 1561              	.LBE920:
 1562              	.LBE919:
 1563              	.LBB922:
 1564              	.LBB918:
 1565              		.loc 2 144 0
 1566 024c 2980     		strh	r1, [r5, #0]	@ movhi
 1567              	.LVL145:
 1568              	.LBE918:
 1569              	.LBE922:
 1570              		.loc 1 180 0
 1571 024e 3046     		mov	r0, r6
 1572              	.LBB923:
 1573              	.LBB921:
 1574              		.loc 2 153 0
 1575 0250 2280     		strh	r2, [r4, #0]	@ movhi
 1576              	.LBE921:
 1577              	.LBE923:
 1578              		.loc 1 180 0
 1579 0252 FFF7FEFF 		bl	gfxSleepMicroseconds
 1580              	.LVL146:
 1581              	.LBB924:
 1582              	.LBB925:
 1583              		.loc 2 144 0
 1584 0256 3523     		movs	r3, #53
 1585 0258 2B80     		strh	r3, [r5, #0]	@ movhi
 1586              	.LVL147:
 1587              	.LBE925:
 1588              	.LBE924:
 1589              		.loc 1 181 0
 1590 025a 3046     		mov	r0, r6
 1591              	.LBB926:
 1592              	.LBB927:
 1593              		.loc 2 153 0
 1594 025c A4F80080 		strh	r8, [r4, #0]	@ movhi
 1595              	.LBE927:
 1596              	.LBE926:
ARM GAS  /tmp/ccZUWmXH.s 			page 29


 1597              		.loc 1 181 0
 1598 0260 FFF7FEFF 		bl	gfxSleepMicroseconds
 1599              	.LVL148:
 1600              	.LBB928:
 1601              	.LBB929:
 1602              		.loc 2 144 0
 1603 0264 3620     		movs	r0, #54
 1604 0266 2880     		strh	r0, [r5, #0]	@ movhi
 1605              	.LVL149:
 1606              	.LBE929:
 1607              	.LBE928:
 1608              		.loc 1 182 0
 1609 0268 3046     		mov	r0, r6
 1610              	.LBB930:
 1611              	.LBB931:
 1612              		.loc 2 153 0
 1613 026a A4F80080 		strh	r8, [r4, #0]	@ movhi
 1614              	.LBE931:
 1615              	.LBE930:
 1616              		.loc 1 182 0
 1617 026e FFF7FEFF 		bl	gfxSleepMicroseconds
 1618              	.LVL150:
 1619              	.LBB932:
 1620              	.LBB933:
 1621              		.loc 2 144 0
 1622 0272 3721     		movs	r1, #55
 1623 0274 2980     		strh	r1, [r5, #0]	@ movhi
 1624              	.LVL151:
 1625              	.LBE933:
 1626              	.LBE932:
 1627              		.loc 1 183 0
 1628 0276 3046     		mov	r0, r6
 1629              	.LBB934:
 1630              	.LBB935:
 1631              		.loc 2 153 0
 1632 0278 A4F800B0 		strh	fp, [r4, #0]	@ movhi
 1633              	.LBE935:
 1634              	.LBE934:
 1635              		.loc 1 183 0
 1636 027c FFF7FEFF 		bl	gfxSleepMicroseconds
 1637              	.LVL152:
 1638              	.LBB936:
 1639              	.LBB937:
 1640              		.loc 2 153 0
 1641 0280 08F1FE08 		add	r8, r8, #254
 1642              	.LBE937:
 1643              	.LBE936:
 1644              	.LBB939:
 1645              	.LBB940:
 1646              		.loc 2 144 0
 1647 0284 3A22     		movs	r2, #58
 1648 0286 2A80     		strh	r2, [r5, #0]	@ movhi
 1649              	.LVL153:
 1650              	.LBE940:
 1651              	.LBE939:
 1652              		.loc 1 184 0
 1653 0288 3046     		mov	r0, r6
ARM GAS  /tmp/ccZUWmXH.s 			page 30


 1654              	.LBB941:
 1655              	.LBB938:
 1656              		.loc 2 153 0
 1657 028a A4F80080 		strh	r8, [r4, #0]	@ movhi
 1658              	.LBE938:
 1659              	.LBE941:
 1660              		.loc 1 184 0
 1661 028e FFF7FEFF 		bl	gfxSleepMicroseconds
 1662              	.LVL154:
 1663              	.LBB942:
 1664              	.LBB943:
 1665              		.loc 2 144 0
 1666 0292 3B23     		movs	r3, #59
 1667 0294 2B80     		strh	r3, [r5, #0]	@ movhi
 1668              	.LVL155:
 1669              	.LBE943:
 1670              	.LBE942:
 1671              		.loc 1 185 0
 1672 0296 3046     		mov	r0, r6
 1673              	.LBB944:
 1674              	.LBB945:
 1675              		.loc 2 153 0
 1676 0298 A4F80080 		strh	r8, [r4, #0]	@ movhi
 1677              	.LBE945:
 1678              	.LBE944:
 1679              		.loc 1 185 0
 1680 029c FFF7FEFF 		bl	gfxSleepMicroseconds
 1681              	.LVL156:
 1682              	.LBB946:
 1683              	.LBB947:
 1684              		.loc 2 144 0
 1685 02a0 2320     		movs	r0, #35
 1686 02a2 2880     		strh	r0, [r5, #0]	@ movhi
 1687              	.LVL157:
 1688              	.LBE947:
 1689              	.LBE946:
 1690              		.loc 1 186 0
 1691 02a4 3046     		mov	r0, r6
 1692              	.LBB948:
 1693              	.LBB949:
 1694              		.loc 2 153 0
 1695 02a6 2780     		strh	r7, [r4, #0]	@ movhi
 1696              	.LBE949:
 1697              	.LBE948:
 1698              		.loc 1 186 0
 1699 02a8 FFF7FEFF 		bl	gfxSleepMicroseconds
 1700              	.LVL158:
 1701              	.LBB950:
 1702              	.LBB951:
 1703              		.loc 2 144 0
 1704 02ac 2421     		movs	r1, #36
 1705 02ae 2980     		strh	r1, [r5, #0]	@ movhi
 1706              	.LVL159:
 1707              	.LBE951:
 1708              	.LBE950:
 1709              		.loc 1 187 0
 1710 02b0 3046     		mov	r0, r6
ARM GAS  /tmp/ccZUWmXH.s 			page 31


 1711              	.LBB952:
 1712              	.LBB953:
 1713              		.loc 2 153 0
 1714 02b2 2780     		strh	r7, [r4, #0]	@ movhi
 1715              	.LBE953:
 1716              	.LBE952:
 1717              		.loc 1 187 0
 1718 02b4 FFF7FEFF 		bl	gfxSleepMicroseconds
 1719              	.LVL160:
 1720              	.LBB954:
 1721              	.LBB955:
 1722              		.loc 2 144 0
 1723 02b8 2522     		movs	r2, #37
 1724              	.LBE955:
 1725              	.LBE954:
 1726              	.LBB957:
 1727              	.LBB958:
 1728              		.loc 2 153 0
 1729 02ba 4FF40043 		mov	r3, #32768
 1730              	.LBE958:
 1731              	.LBE957:
 1732              	.LBB960:
 1733              	.LBB956:
 1734              		.loc 2 144 0
 1735 02be 2A80     		strh	r2, [r5, #0]	@ movhi
 1736              	.LVL161:
 1737              	.LBE956:
 1738              	.LBE960:
 1739              		.loc 1 188 0
 1740 02c0 3046     		mov	r0, r6
 1741              	.LBB961:
 1742              	.LBB959:
 1743              		.loc 2 153 0
 1744 02c2 2380     		strh	r3, [r4, #0]	@ movhi
 1745              	.LBE959:
 1746              	.LBE961:
 1747              		.loc 1 188 0
 1748 02c4 FFF7FEFF 		bl	gfxSleepMicroseconds
 1749              	.LVL162:
 1750              	.LBB962:
 1751              	.LBB963:
 1752              		.loc 2 144 0
 1753 02c8 4F20     		movs	r0, #79
 1754 02ca 2880     		strh	r0, [r5, #0]	@ movhi
 1755              	.LVL163:
 1756              	.LBE963:
 1757              	.LBE962:
 1758              		.loc 1 189 0
 1759 02cc 3046     		mov	r0, r6
 1760              	.LBB964:
 1761              	.LBB965:
 1762              		.loc 2 153 0
 1763 02ce 2780     		strh	r7, [r4, #0]	@ movhi
 1764              	.LBE965:
 1765              	.LBE964:
 1766              		.loc 1 189 0
 1767 02d0 FFF7FEFF 		bl	gfxSleepMicroseconds
ARM GAS  /tmp/ccZUWmXH.s 			page 32


 1768              	.LVL164:
 1769              	.LBB966:
 1770              	.LBB967:
 1771              		.loc 2 144 0
 1772 02d4 4E21     		movs	r1, #78
 1773 02d6 2980     		strh	r1, [r5, #0]	@ movhi
 1774              	.LVL165:
 1775              	.LBE967:
 1776              	.LBE966:
 1777              		.loc 1 190 0
 1778 02d8 3046     		mov	r0, r6
 1779              	.LBB968:
 1780              	.LBB969:
 1781              		.loc 2 153 0
 1782 02da 2780     		strh	r7, [r4, #0]	@ movhi
 1783              	.LBE969:
 1784              	.LBE968:
 1785              		.loc 1 190 0
 1786 02dc FFF7FEFF 		bl	gfxSleepMicroseconds
 1787              	.LVL166:
 1788              		.loc 1 199 0
 1789 02e0 40F20003 		movw	r3, #:lower16:.LANCHOR0
 1790 02e4 C0F20003 		movt	r3, #:upper16:.LANCHOR0
 1791              		.loc 1 203 0
 1792 02e8 6421     		movs	r1, #100
 1793              		.loc 1 199 0
 1794 02ea F022     		movs	r2, #240
 1795              		.loc 1 203 0
 1796 02ec 9971     		strb	r1, [r3, #6]
 1797              		.loc 1 199 0
 1798 02ee 1A80     		strh	r2, [r3, #0]	@ movhi
 1799              		.loc 1 204 0
 1800 02f0 019A     		ldr	r2, [sp, #4]
 1801              		.loc 1 201 0
 1802 02f2 1F71     		strb	r7, [r3, #4]
 1803              		.loc 1 200 0
 1804 02f4 4FF4A070 		mov	r0, #320
 1805 02f8 5880     		strh	r0, [r3, #2]	@ movhi
 1806              		.loc 1 202 0
 1807 02fa 83F805A0 		strb	sl, [r3, #5]
 1808              		.loc 1 204 0
 1809 02fe DA71     		strb	r2, [r3, #7]
 1810              		.loc 1 212 0
 1811 0300 4846     		mov	r0, r9
 1812 0302 09B0     		add	sp, sp, #36
 1813 0304 BDE8F08F 		pop	{r4, r5, r6, r7, r8, r9, sl, fp, pc}
 1814              		.cfi_endproc
 1815              	.LFE132:
 1816              		.size	gdisp_lld_init, .-gdisp_lld_init
 1817 0308 AFF30080 		.section	.text.gdisp_lld_draw_pixel,"ax",%progbits
 1817      AFF30080 
 1818              		.align	2
 1819              		.p2align 4,,15
 1820              		.global	gdisp_lld_draw_pixel
 1821              		.thumb
 1822              		.thumb_func
 1823              		.type	gdisp_lld_draw_pixel, %function
ARM GAS  /tmp/ccZUWmXH.s 			page 33


 1824              	gdisp_lld_draw_pixel:
 1825              	.LFB133:
 1826              		.loc 1 223 0
 1827              		.cfi_startproc
 1828              		@ args = 0, pretend = 0, frame = 0
 1829              		@ frame_needed = 0, uses_anonymous_args = 0
 1830              		@ link register save eliminated.
 1831              	.LVL167:
 1832              	.LBB1034:
 1833              	.LBB1035:
 1834              		.loc 1 55 0
 1835 0000 224B     		ldr	r3, .L31
 1836 0002 1B79     		ldrb	r3, [r3, #4]	@ zero_extendqisi2
 1837              	.LVL168:
 1838              	.LBE1035:
 1839              	.LBE1034:
 1840              		.loc 1 223 0
 1841 0004 30B4     		push	{r4, r5}
 1842              	.LCFI3:
 1843              		.cfi_def_cfa_offset 8
 1844              		.cfi_offset 4, -8
 1845              		.cfi_offset 5, -4
 1846              	.LBB1080:
 1847              	.LBB1078:
 1848              		.loc 1 55 0
 1849 0006 032B     		cmp	r3, #3
 1850 0008 16D8     		bhi	.L23
 1851 000a DFE803F0 		tbb	[pc, r3]
 1852              	.L28:
 1853 000e 39       		.byte	(.L24-.L28)/2
 1854 000f 2E       		.byte	(.L25-.L28)/2
 1855 0010 02       		.byte	(.L26-.L28)/2
 1856 0011 1F       		.byte	(.L27-.L28)/2
 1857              		.align	1
 1858              	.L26:
 1859              	.LVL169:
 1860              		.loc 1 58 0
 1861 0012 C1F59F71 		rsb	r1, r1, #318
 1862              	.LVL170:
 1863              	.LBB1036:
 1864              	.LBB1037:
 1865              		.loc 2 153 0
 1866 0016 0023     		movs	r3, #0
 1867              	.LBE1037:
 1868              	.LBE1036:
 1869              		.loc 1 58 0
 1870 0018 0131     		adds	r1, r1, #1
 1871              	.LBB1039:
 1872              	.LBB1040:
 1873              		.loc 2 144 0
 1874 001a 4FF0C044 		mov	r4, #1610612736
 1875              	.LBE1040:
 1876              	.LBE1039:
 1877              	.LBB1041:
 1878              	.LBB1038:
 1879              		.loc 2 153 0
 1880 001e C6F20203 		movt	r3, 24578
ARM GAS  /tmp/ccZUWmXH.s 			page 34


 1881              	.LBE1038:
 1882              	.LBE1041:
 1883              		.loc 1 57 0
 1884 0022 C0F1EF00 		rsb	r0, r0, #239
 1885              	.LVL171:
 1886              	.L29:
 1887              		.loc 1 62 0
 1888 0026 CD05     		lsls	r5, r1, #23
 1889              		.loc 1 61 0
 1890 0028 C0B2     		uxtb	r0, r0
 1891              	.LVL172:
 1892              		.loc 1 62 0
 1893 002a E90D     		lsrs	r1, r5, #23
 1894              	.LBB1042:
 1895              	.LBB1043:
 1896              		.loc 2 144 0
 1897 002c 4E25     		movs	r5, #78
 1898 002e 2580     		strh	r5, [r4, #0]	@ movhi
 1899              	.LBE1043:
 1900              	.LBE1042:
 1901              	.LBB1045:
 1902              	.LBB1046:
 1903              		.loc 2 153 0
 1904 0030 1880     		strh	r0, [r3, #0]	@ movhi
 1905              	.LVL173:
 1906              	.LBE1046:
 1907              	.LBE1045:
 1908              	.LBB1049:
 1909              	.LBB1050:
 1910              		.loc 2 144 0
 1911 0032 4F20     		movs	r0, #79
 1912              	.LVL174:
 1913 0034 2080     		strh	r0, [r4, #0]	@ movhi
 1914              	.LBE1050:
 1915              	.LBE1049:
 1916              	.LBB1051:
 1917              	.LBB1052:
 1918              		.loc 2 153 0
 1919 0036 1980     		strh	r1, [r3, #0]	@ movhi
 1920              	.LVL175:
 1921              	.L23:
 1922              	.LBE1052:
 1923              	.LBE1051:
 1924              	.LBE1078:
 1925              	.LBE1080:
 1926              	.LBB1081:
 1927              	.LBB1082:
 1928 0038 0023     		movs	r3, #0
 1929 003a C6F20203 		movt	r3, 24578
 1930              	.LBE1082:
 1931              	.LBE1081:
 1932              	.LBB1084:
 1933              	.LBB1085:
 1934              		.loc 2 144 0
 1935 003e 4FF0C041 		mov	r1, #1610612736
 1936 0042 2220     		movs	r0, #34
 1937 0044 0880     		strh	r0, [r1, #0]	@ movhi
ARM GAS  /tmp/ccZUWmXH.s 			page 35


 1938              	.LVL176:
 1939              	.LBE1085:
 1940              	.LBE1084:
 1941              	.LBB1086:
 1942              	.LBB1083:
 1943              		.loc 2 153 0
 1944 0046 1A80     		strh	r2, [r3, #0]	@ movhi
 1945              	.LBE1083:
 1946              	.LBE1086:
 1947              		.loc 1 232 0
 1948 0048 30BC     		pop	{r4, r5}
 1949 004a 7047     		bx	lr
 1950              	.LVL177:
 1951              	.L27:
 1952              	.LBB1087:
 1953              	.LBB1079:
 1954              	.LBB1053:
 1955              	.LBB1054:
 1956              		.loc 2 153 0
 1957 004c 0023     		movs	r3, #0
 1958              	.LBE1054:
 1959              	.LBE1053:
 1960              	.LBB1056:
 1961              	.LBB1057:
 1962              		.loc 2 144 0
 1963 004e 4FF0C044 		mov	r4, #1610612736
 1964              	.LBE1057:
 1965              	.LBE1056:
 1966              	.LBB1058:
 1967              	.LBB1055:
 1968              		.loc 2 153 0
 1969 0052 C6F20203 		movt	r3, 24578
 1970              	.LVL178:
 1971              	.L30:
 1972              	.LBE1055:
 1973              	.LBE1058:
 1974              	.LBB1059:
 1975              	.LBB1060:
 1976              		.loc 1 70 0
 1977 0056 C505     		lsls	r5, r0, #23
 1978              		.loc 1 69 0
 1979 0058 C9B2     		uxtb	r1, r1
 1980              	.LVL179:
 1981              		.loc 1 70 0
 1982 005a E80D     		lsrs	r0, r5, #23
 1983              	.LBB1061:
 1984              	.LBB1062:
 1985              		.loc 2 144 0
 1986 005c 4E25     		movs	r5, #78
 1987 005e 2580     		strh	r5, [r4, #0]	@ movhi
 1988              	.LBE1062:
 1989              	.LBE1061:
 1990              	.LBB1064:
 1991              	.LBB1065:
 1992              		.loc 2 153 0
 1993 0060 1980     		strh	r1, [r3, #0]	@ movhi
 1994              	.LVL180:
ARM GAS  /tmp/ccZUWmXH.s 			page 36


 1995              	.LBE1065:
 1996              	.LBE1064:
 1997              	.LBB1068:
 1998              	.LBB1069:
 1999              		.loc 2 144 0
 2000 0062 4F21     		movs	r1, #79
 2001              	.LVL181:
 2002 0064 2180     		strh	r1, [r4, #0]	@ movhi
 2003              	.LBE1069:
 2004              	.LBE1068:
 2005              	.LBB1070:
 2006              	.LBB1071:
 2007              		.loc 2 153 0
 2008 0066 1880     		strh	r0, [r3, #0]	@ movhi
 2009 0068 E6E7     		b	.L23
 2010              	.LVL182:
 2011              	.L25:
 2012              	.LBE1071:
 2013              	.LBE1070:
 2014              		.loc 1 70 0
 2015 006a C0F59F70 		rsb	r0, r0, #318
 2016              	.LVL183:
 2017              	.LBB1072:
 2018              	.LBB1066:
 2019              		.loc 2 153 0
 2020 006e 0023     		movs	r3, #0
 2021              	.LBE1066:
 2022              	.LBE1072:
 2023              		.loc 1 70 0
 2024 0070 0130     		adds	r0, r0, #1
 2025              	.LBB1073:
 2026              	.LBB1063:
 2027              		.loc 2 144 0
 2028 0072 4FF0C044 		mov	r4, #1610612736
 2029              	.LBE1063:
 2030              	.LBE1073:
 2031              	.LBB1074:
 2032              	.LBB1067:
 2033              		.loc 2 153 0
 2034 0076 C6F20203 		movt	r3, 24578
 2035              	.LBE1067:
 2036              	.LBE1074:
 2037              		.loc 1 69 0
 2038 007a C1F1EF01 		rsb	r1, r1, #239
 2039              	.LVL184:
 2040 007e EAE7     		b	.L30
 2041              	.LVL185:
 2042              	.L24:
 2043              	.LBE1060:
 2044              	.LBE1059:
 2045              	.LBB1075:
 2046              	.LBB1047:
 2047              		.loc 2 153 0
 2048 0080 0023     		movs	r3, #0
 2049              	.LBE1047:
 2050              	.LBE1075:
 2051              	.LBB1076:
ARM GAS  /tmp/ccZUWmXH.s 			page 37


 2052              	.LBB1044:
 2053              		.loc 2 144 0
 2054 0082 4FF0C044 		mov	r4, #1610612736
 2055              	.LBE1044:
 2056              	.LBE1076:
 2057              	.LBB1077:
 2058              	.LBB1048:
 2059              		.loc 2 153 0
 2060 0086 C6F20203 		movt	r3, 24578
 2061 008a CCE7     		b	.L29
 2062              	.L32:
 2063              		.align	2
 2064              	.L31:
 2065 008c 00000000 		.word	.LANCHOR0
 2066              	.LBE1048:
 2067              	.LBE1077:
 2068              	.LBE1079:
 2069              	.LBE1087:
 2070              		.cfi_endproc
 2071              	.LFE133:
 2072              		.size	gdisp_lld_draw_pixel, .-gdisp_lld_draw_pixel
 2073              		.section	.text.gdisp_lld_draw_circle,"ax",%progbits
 2074              		.align	2
 2075              		.p2align 4,,15
 2076              		.global	gdisp_lld_draw_circle
 2077              		.thumb
 2078              		.thumb_func
 2079              		.type	gdisp_lld_draw_circle, %function
 2080              	gdisp_lld_draw_circle:
 2081              	.LFB119:
 2082              		.file 3 "../../ext/ugfx/include/gdisp/lld/emulation.c"
 2083              		.loc 3 170 0
 2084              		.cfi_startproc
 2085              		@ args = 0, pretend = 0, frame = 24
 2086              		@ frame_needed = 0, uses_anonymous_args = 0
 2087              	.LVL186:
 2088 0000 2DE9F04F 		push	{r4, r5, r6, r7, r8, r9, sl, fp, lr}
 2089              	.LCFI4:
 2090              		.cfi_def_cfa_offset 36
 2091              		.cfi_offset 4, -36
 2092              		.cfi_offset 5, -32
 2093              		.cfi_offset 6, -28
 2094              		.cfi_offset 7, -24
 2095              		.cfi_offset 8, -20
 2096              		.cfi_offset 9, -16
 2097              		.cfi_offset 10, -12
 2098              		.cfi_offset 11, -8
 2099              		.cfi_offset 14, -4
 2100              		.loc 3 175 0
 2101 0004 C2F10105 		rsb	r5, r2, #1
 2102              		.loc 3 170 0
 2103 0008 87B0     		sub	sp, sp, #28
 2104              	.LCFI5:
 2105              		.cfi_def_cfa_offset 64
 2106              		.loc 3 170 0
 2107 000a 1C46     		mov	r4, r3
 2108 000c 1FFA80F8 		uxth	r8, r0
ARM GAS  /tmp/ccZUWmXH.s 			page 38


 2109              		.loc 3 175 0
 2110 0010 ABB2     		uxth	r3, r5
 2111              	.LVL187:
 2112 0012 8FB2     		uxth	r7, r1
 2113 0014 0020     		movs	r0, #0
 2114              	.LVL188:
 2115 0016 11B2     		sxth	r1, r2
 2116              	.LVL189:
 2117              		.loc 3 174 0
 2118 0018 0392     		str	r2, [sp, #12]
 2119              		.loc 3 175 0
 2120 001a 0493     		str	r3, [sp, #16]
 2121              	.LVL190:
 2122 001c 0290     		str	r0, [sp, #8]
 2123 001e 0591     		str	r1, [sp, #20]
 2124 0020 17E0     		b	.L36
 2125              	.LVL191:
 2126              	.L34:
 2127              		.loc 3 189 0
 2128 0022 059A     		ldr	r2, [sp, #20]
 2129 0024 0398     		ldr	r0, [sp, #12]
 2130 0026 049B     		ldr	r3, [sp, #16]
 2131 0028 0299     		ldr	r1, [sp, #8]
 2132 002a 0533     		adds	r3, r3, #5
 2133 002c 891A     		subs	r1, r1, r2
 2134 002e 421E     		subs	r2, r0, #1
 2135 0030 03EB4101 		add	r1, r3, r1, lsl #1
 2136 0034 93B2     		uxth	r3, r2
 2137              		.loc 3 170 0
 2138 0036 0135     		adds	r5, r5, #1
 2139 0038 1AB2     		sxth	r2, r3
 2140              		.loc 3 189 0
 2141 003a 89B2     		uxth	r1, r1
 2142 003c 0393     		str	r3, [sp, #12]
 2143              		.loc 3 170 0
 2144 003e A8B2     		uxth	r0, r5
 2145 0040 0592     		str	r2, [sp, #20]
 2146              		.loc 3 189 0
 2147 0042 0491     		str	r1, [sp, #16]
 2148              	.LVL192:
 2149              	.L35:
 2150              		.loc 3 190 0
 2151 0044 05B2     		sxth	r5, r0
 2152 0046 0299     		ldr	r1, [sp, #8]
 2153 0048 0598     		ldr	r0, [sp, #20]
 2154              	.LVL193:
 2155 004a 4B1C     		adds	r3, r1, #1
 2156 004c 8542     		cmp	r5, r0
 2157 004e 0293     		str	r3, [sp, #8]
 2158 0050 58DC     		bgt	.L38
 2159              	.LVL194:
 2160              	.L36:
 2161              		.loc 3 170 0
 2162 0052 029A     		ldr	r2, [sp, #8]
 2163              		.loc 3 178 0
 2164 0054 039E     		ldr	r6, [sp, #12]
 2165              		.loc 3 170 0
ARM GAS  /tmp/ccZUWmXH.s 			page 39


 2166 0056 95B2     		uxth	r5, r2
 2167              		.loc 3 178 0
 2168 0058 B6B2     		uxth	r6, r6
 2169 005a 06EB070A 		add	sl, r6, r7
 2170              		.loc 3 170 0
 2171 005e 08EB0503 		add	r3, r8, r5
 2172              		.loc 3 178 0
 2173 0062 1BB2     		sxth	r3, r3
 2174 0064 0FFA8AFA 		sxth	sl, sl
 2175 0068 1846     		mov	r0, r3
 2176 006a 5146     		mov	r1, sl
 2177 006c 2246     		mov	r2, r4
 2178 006e 0093     		str	r3, [sp, #0]
 2179              		.loc 3 170 0
 2180 0070 07EB0509 		add	r9, r7, r5
 2181              		.loc 3 178 0
 2182 0074 FFF7FEFF 		bl	gdisp_lld_draw_pixel
 2183              	.LVL195:
 2184              		.loc 3 179 0
 2185 0078 06EB080C 		add	ip, r6, r8
 2186 007c 0FFA8CFB 		sxth	fp, ip
 2187 0080 0FFA89F9 		sxth	r9, r9
 2188 0084 5846     		mov	r0, fp
 2189 0086 4946     		mov	r1, r9
 2190 0088 2246     		mov	r2, r4
 2191 008a CDF804B0 		str	fp, [sp, #4]
 2192 008e FFF7FEFF 		bl	gdisp_lld_draw_pixel
 2193              	.LVL196:
 2194              		.loc 3 170 0
 2195 0092 C5EB0800 		rsb	r0, r5, r8
 2196              		.loc 3 180 0
 2197 0096 0FFA80FB 		sxth	fp, r0
 2198 009a 5146     		mov	r1, sl
 2199 009c 5846     		mov	r0, fp
 2200 009e 2246     		mov	r2, r4
 2201 00a0 FFF7FEFF 		bl	gdisp_lld_draw_pixel
 2202              	.LVL197:
 2203              		.loc 3 181 0
 2204 00a4 C6EB0801 		rsb	r1, r6, r8
 2205 00a8 0FFA81FA 		sxth	sl, r1
 2206 00ac 5046     		mov	r0, sl
 2207 00ae 4946     		mov	r1, r9
 2208 00b0 2246     		mov	r2, r4
 2209 00b2 FFF7FEFF 		bl	gdisp_lld_draw_pixel
 2210              	.LVL198:
 2211              		.loc 3 182 0
 2212 00b6 DDF804C0 		ldr	ip, [sp, #4]
 2213              		.loc 3 170 0
 2214 00ba 7A1B     		subs	r2, r7, r5
 2215              		.loc 3 182 0
 2216 00bc 0FFA82F9 		sxth	r9, r2
 2217 00c0 6046     		mov	r0, ip
 2218 00c2 4946     		mov	r1, r9
 2219 00c4 2246     		mov	r2, r4
 2220 00c6 FFF7FEFF 		bl	gdisp_lld_draw_pixel
 2221              	.LVL199:
 2222              		.loc 3 183 0
ARM GAS  /tmp/ccZUWmXH.s 			page 40


 2223 00ca BE1B     		subs	r6, r7, r6
 2224 00cc 009B     		ldr	r3, [sp, #0]
 2225 00ce 36B2     		sxth	r6, r6
 2226 00d0 1846     		mov	r0, r3
 2227 00d2 3146     		mov	r1, r6
 2228 00d4 2246     		mov	r2, r4
 2229 00d6 FFF7FEFF 		bl	gdisp_lld_draw_pixel
 2230              	.LVL200:
 2231              		.loc 3 184 0
 2232 00da 5846     		mov	r0, fp
 2233 00dc 3146     		mov	r1, r6
 2234 00de 2246     		mov	r2, r4
 2235 00e0 FFF7FEFF 		bl	gdisp_lld_draw_pixel
 2236              	.LVL201:
 2237              		.loc 3 185 0
 2238 00e4 5046     		mov	r0, sl
 2239 00e6 2246     		mov	r2, r4
 2240 00e8 4946     		mov	r1, r9
 2241 00ea FFF7FEFF 		bl	gdisp_lld_draw_pixel
 2242              	.LVL202:
 2243              		.loc 3 186 0
 2244 00ee 0498     		ldr	r0, [sp, #16]
 2245 00f0 0204     		lsls	r2, r0, #16
 2246 00f2 96D5     		bpl	.L34
 2247              		.loc 3 187 0
 2248 00f4 C31C     		adds	r3, r0, #3
 2249 00f6 03EB4500 		add	r0, r3, r5, lsl #1
 2250 00fa 82B2     		uxth	r2, r0
 2251              		.loc 3 170 0
 2252 00fc 0135     		adds	r5, r5, #1
 2253              		.loc 3 187 0
 2254 00fe 0492     		str	r2, [sp, #16]
 2255              		.loc 3 170 0
 2256 0100 A8B2     		uxth	r0, r5
 2257              	.LVL203:
 2258 0102 9FE7     		b	.L35
 2259              	.LVL204:
 2260              	.L38:
 2261              		.loc 3 191 0
 2262 0104 07B0     		add	sp, sp, #28
 2263 0106 BDE8F08F 		pop	{r4, r5, r6, r7, r8, r9, sl, fp, pc}
 2264              		.cfi_endproc
 2265              	.LFE119:
 2266              		.size	gdisp_lld_draw_circle, .-gdisp_lld_draw_circle
 2267 010a 00BFAFF3 		.section	.text.gdisp_lld_clear,"ax",%progbits
 2267      0080
 2268              		.align	2
 2269              		.p2align 4,,15
 2270              		.global	gdisp_lld_clear
 2271              		.thumb
 2272              		.thumb_func
 2273              		.type	gdisp_lld_clear, %function
 2274              	gdisp_lld_clear:
 2275              	.LFB134:
 2276              		.loc 1 260 0
 2277              		.cfi_startproc
 2278              		@ args = 0, pretend = 0, frame = 0
ARM GAS  /tmp/ccZUWmXH.s 			page 41


 2279              		@ frame_needed = 0, uses_anonymous_args = 0
 2280              	.LVL205:
 2281 0000 38B5     		push	{r3, r4, r5, lr}
 2282              	.LCFI6:
 2283              		.cfi_def_cfa_offset 16
 2284              		.cfi_offset 3, -16
 2285              		.cfi_offset 4, -12
 2286              		.cfi_offset 5, -8
 2287              		.cfi_offset 14, -4
 2288              	.LBB1154:
 2289              	.LBB1155:
 2290              		.loc 1 115 0
 2291 0002 1D4D     		ldr	r5, .L49
 2292              	.LBE1155:
 2293              	.LBE1154:
 2294              		.loc 1 260 0
 2295 0004 0446     		mov	r4, r0
 2296              	.LBB1157:
 2297              	.LBB1156:
 2298              		.loc 1 115 0
 2299 0006 0020     		movs	r0, #0
 2300              	.LVL206:
 2301 0008 B5F90230 		ldrsh	r3, [r5, #2]
 2302 000c B5F90020 		ldrsh	r2, [r5, #0]
 2303 0010 0146     		mov	r1, r0
 2304 0012 FFF7FEFF 		bl	set_viewport
 2305              	.LVL207:
 2306              	.LBE1156:
 2307              	.LBE1157:
 2308              	.LBB1158:
 2309              	.LBB1159:
 2310              		.loc 1 55 0
 2311 0016 2B79     		ldrb	r3, [r5, #4]	@ zero_extendqisi2
 2312 0018 032B     		cmp	r3, #3
 2313 001a 0FD8     		bhi	.L40
 2314 001c DFE803F0 		tbb	[pc, r3]
 2315              	.L45:
 2316 0020 02       		.byte	(.L44-.L45)/2
 2317 0021 1C       		.byte	(.L42-.L45)/2
 2318 0022 1C       		.byte	(.L42-.L45)/2
 2319 0023 02       		.byte	(.L44-.L45)/2
 2320              		.align	1
 2321              	.L44:
 2322              	.LVL208:
 2323              	.LBB1160:
 2324              	.LBB1161:
 2325              		.loc 2 144 0
 2326 0024 4FF0C041 		mov	r1, #1610612736
 2327              	.LBE1161:
 2328              	.LBE1160:
 2329              	.LBB1163:
 2330              	.LBB1164:
 2331              		.loc 2 153 0
 2332 0028 0023     		movs	r3, #0
 2333 002a C6F20203 		movt	r3, 24578
 2334              	.LBE1164:
 2335              	.LBE1163:
ARM GAS  /tmp/ccZUWmXH.s 			page 42


 2336              	.LBB1167:
 2337              	.LBB1162:
 2338              		.loc 2 144 0
 2339 002e 4E20     		movs	r0, #78
 2340 0030 0880     		strh	r0, [r1, #0]	@ movhi
 2341              	.LVL209:
 2342              	.LBE1162:
 2343              	.LBE1167:
 2344              	.LBB1168:
 2345              	.LBB1165:
 2346              		.loc 2 153 0
 2347 0032 0022     		movs	r2, #0
 2348              	.LBE1165:
 2349              	.LBE1168:
 2350              	.LBB1169:
 2351              	.LBB1170:
 2352              		.loc 2 144 0
 2353 0034 4F20     		movs	r0, #79
 2354              	.LBE1170:
 2355              	.LBE1169:
 2356              	.LBB1172:
 2357              	.LBB1166:
 2358              		.loc 2 153 0
 2359 0036 1A80     		strh	r2, [r3, #0]	@ movhi
 2360              	.LVL210:
 2361              	.LBE1166:
 2362              	.LBE1172:
 2363              	.LBB1173:
 2364              	.LBB1171:
 2365              		.loc 2 144 0
 2366 0038 0880     		strh	r0, [r1, #0]	@ movhi
 2367              	.LVL211:
 2368              	.LBE1171:
 2369              	.LBE1173:
 2370              	.LBB1174:
 2371              	.LBB1175:
 2372              		.loc 2 153 0
 2373 003a 1A80     		strh	r2, [r3, #0]	@ movhi
 2374              	.LVL212:
 2375              	.L40:
 2376              	.LBE1175:
 2377              	.LBE1174:
 2378              	.LBE1159:
 2379              	.LBE1158:
 2380              	.LBB1194:
 2381              	.LBB1195:
 2382              		.loc 2 144 0
 2383 003c 4FF0C043 		mov	r3, #1610612736
 2384              	.LBE1195:
 2385              	.LBE1194:
 2386              	.LBB1197:
 2387              	.LBB1198:
 2388              		.loc 2 153 0
 2389 0040 0022     		movs	r2, #0
 2390              	.LBE1198:
 2391              	.LBE1197:
 2392              	.LBB1201:
ARM GAS  /tmp/ccZUWmXH.s 			page 43


 2393              	.LBB1196:
 2394              		.loc 2 144 0
 2395 0042 2221     		movs	r1, #34
 2396 0044 1980     		strh	r1, [r3, #0]	@ movhi
 2397              	.LVL213:
 2398 0046 4FF49630 		mov	r0, #76800
 2399              	.LBE1196:
 2400              	.LBE1201:
 2401              	.LBB1202:
 2402              	.LBB1199:
 2403              		.loc 2 153 0
 2404 004a C6F20202 		movt	r2, 24578
 2405              	.LVL214:
 2406              	.L46:
 2407              	.LBE1199:
 2408              	.LBE1202:
 2409              		.loc 1 285 0
 2410 004e 0238     		subs	r0, r0, #2
 2411              	.LBB1203:
 2412              	.LBB1200:
 2413              		.loc 2 153 0
 2414 0050 1480     		strh	r4, [r2, #0]	@ movhi
 2415 0052 1480     		strh	r4, [r2, #0]	@ movhi
 2416              	.LBE1200:
 2417              	.LBE1203:
 2418              		.loc 1 285 0
 2419 0054 FBD1     		bne	.L46
 2420              		.loc 1 291 0
 2421 0056 38BD     		pop	{r3, r4, r5, pc}
 2422              	.LVL215:
 2423              	.L42:
 2424              	.LBB1204:
 2425              	.LBB1193:
 2426              	.LBB1176:
 2427              	.LBB1177:
 2428              	.LBB1178:
 2429              		.loc 2 144 0
 2430 0058 4FF0C042 		mov	r2, #1610612736
 2431              	.LBE1178:
 2432              	.LBE1177:
 2433              	.LBB1180:
 2434              	.LBB1181:
 2435              		.loc 2 153 0
 2436 005c 0020     		movs	r0, #0
 2437 005e C6F20200 		movt	r0, 24578
 2438              	.LBE1181:
 2439              	.LBE1180:
 2440              	.LBB1184:
 2441              	.LBB1179:
 2442              		.loc 2 144 0
 2443 0062 4E21     		movs	r1, #78
 2444 0064 1180     		strh	r1, [r2, #0]	@ movhi
 2445              	.LVL216:
 2446              	.LBE1179:
 2447              	.LBE1184:
 2448              	.LBB1185:
 2449              	.LBB1182:
ARM GAS  /tmp/ccZUWmXH.s 			page 44


 2450              		.loc 2 153 0
 2451 0066 EF23     		movs	r3, #239
 2452              	.LBE1182:
 2453              	.LBE1185:
 2454              	.LBB1186:
 2455              	.LBB1187:
 2456              		.loc 2 144 0
 2457 0068 4F21     		movs	r1, #79
 2458              	.LBE1187:
 2459              	.LBE1186:
 2460              	.LBB1189:
 2461              	.LBB1183:
 2462              		.loc 2 153 0
 2463 006a 0380     		strh	r3, [r0, #0]	@ movhi
 2464              	.LVL217:
 2465              	.LBE1183:
 2466              	.LBE1189:
 2467              	.LBB1190:
 2468              	.LBB1188:
 2469              		.loc 2 144 0
 2470 006c 1180     		strh	r1, [r2, #0]	@ movhi
 2471              	.LVL218:
 2472              	.LBE1188:
 2473              	.LBE1190:
 2474              	.LBB1191:
 2475              	.LBB1192:
 2476              		.loc 2 153 0
 2477 006e 40F23F12 		movw	r2, #319
 2478 0072 0280     		strh	r2, [r0, #0]	@ movhi
 2479 0074 E2E7     		b	.L40
 2480              	.L50:
 2481 0076 00BF     		.align	2
 2482              	.L49:
 2483 0078 00000000 		.word	.LANCHOR0
 2484              	.LBE1192:
 2485              	.LBE1191:
 2486              	.LBE1176:
 2487              	.LBE1193:
 2488              	.LBE1204:
 2489              		.cfi_endproc
 2490              	.LFE134:
 2491              		.size	gdisp_lld_clear, .-gdisp_lld_clear
 2492 007c AFF30080 		.section	.text.gdisp_lld_fill_area,"ax",%progbits
 2493              		.align	2
 2494              		.p2align 4,,15
 2495              		.global	gdisp_lld_fill_area
 2496              		.thumb
 2497              		.thumb_func
 2498              		.type	gdisp_lld_fill_area, %function
 2499              	gdisp_lld_fill_area:
 2500              	.LFB135:
 2501              		.loc 1 305 0
 2502              		.cfi_startproc
 2503              		@ args = 4, pretend = 0, frame = 0
 2504              		@ frame_needed = 0, uses_anonymous_args = 0
 2505              	.LVL219:
 2506 0000 38B5     		push	{r3, r4, r5, lr}
ARM GAS  /tmp/ccZUWmXH.s 			page 45


 2507              	.LCFI7:
 2508              		.cfi_def_cfa_offset 16
 2509              		.cfi_offset 3, -16
 2510              		.cfi_offset 4, -12
 2511              		.cfi_offset 5, -8
 2512              		.cfi_offset 14, -4
 2513              		.loc 1 316 0
 2514 0002 02FB03F5 		mul	r5, r2, r3
 2515              	.LVL220:
 2516              		.loc 1 305 0
 2517 0006 BDF81040 		ldrh	r4, [sp, #16]
 2518              		.loc 1 319 0
 2519 000a FFF7FEFF 		bl	set_viewport
 2520              	.LVL221:
 2521              	.LBB1205:
 2522              	.LBB1206:
 2523              		.loc 2 144 0
 2524 000e 4FF0C043 		mov	r3, #1610612736
 2525 0012 2222     		movs	r2, #34
 2526 0014 1A80     		strh	r2, [r3, #0]	@ movhi
 2527              	.LVL222:
 2528              	.LBE1206:
 2529              	.LBE1205:
 2530              		.loc 1 336 0
 2531 0016 9DB1     		cbz	r5, .L51
 2532              	.LBB1207:
 2533              	.LBB1208:
 2534              		.loc 2 153 0
 2535 0018 0020     		movs	r0, #0
 2536 001a C6F20200 		movt	r0, 24578
 2537              	.LBE1208:
 2538              	.LBE1207:
 2539              		.loc 1 336 0
 2540 001e 0123     		movs	r3, #1
 2541 0020 691E     		subs	r1, r5, #1
 2542 0022 9D42     		cmp	r5, r3
 2543              	.LBB1212:
 2544              	.LBB1209:
 2545              		.loc 2 153 0
 2546 0024 0480     		strh	r4, [r0, #0]	@ movhi
 2547 0026 01F00102 		and	r2, r1, #1
 2548              	.LVL223:
 2549              	.LBE1209:
 2550              	.LBE1212:
 2551              		.loc 1 336 0
 2552 002a 0AD0     		beq	.L62
 2553 002c 1AB1     		cbz	r2, .L52
 2554 002e 0223     		movs	r3, #2
 2555 0030 9D42     		cmp	r5, r3
 2556              	.LBB1213:
 2557              	.LBB1210:
 2558              		.loc 2 153 0
 2559 0032 0480     		strh	r4, [r0, #0]	@ movhi
 2560              	.LBE1210:
 2561              	.LBE1213:
 2562              		.loc 1 336 0
 2563 0034 06D0     		beq	.L63
ARM GAS  /tmp/ccZUWmXH.s 			page 46


 2564              	.LVL224:
 2565              	.L52:
 2566 0036 0233     		adds	r3, r3, #2
 2567 0038 9D42     		cmp	r5, r3
 2568              	.LBB1214:
 2569              	.LBB1211:
 2570              		.loc 2 153 0
 2571 003a 0480     		strh	r4, [r0, #0]	@ movhi
 2572 003c 0480     		strh	r4, [r0, #0]	@ movhi
 2573              	.LBE1211:
 2574              	.LBE1214:
 2575              		.loc 1 336 0
 2576 003e FAD1     		bne	.L52
 2577              	.LVL225:
 2578              	.L51:
 2579 0040 38BD     		pop	{r3, r4, r5, pc}
 2580              	.LVL226:
 2581              	.L62:
 2582 0042 38BD     		pop	{r3, r4, r5, pc}
 2583              	.L63:
 2584 0044 38BD     		pop	{r3, r4, r5, pc}
 2585              		.cfi_endproc
 2586              	.LFE135:
 2587              		.size	gdisp_lld_fill_area, .-gdisp_lld_fill_area
 2588 0046 00BFAFF3 		.section	.text.gdisp_lld_draw_line,"ax",%progbits
 2588      0080AFF3 
 2588      0080
 2589              		.align	2
 2590              		.p2align 4,,15
 2591              		.global	gdisp_lld_draw_line
 2592              		.thumb
 2593              		.thumb_func
 2594              		.type	gdisp_lld_draw_line, %function
 2595              	gdisp_lld_draw_line:
 2596              	.LFB118:
 2597              		.loc 3 39 0
 2598              		.cfi_startproc
 2599              		@ args = 4, pretend = 0, frame = 16
 2600              		@ frame_needed = 0, uses_anonymous_args = 0
 2601              	.LVL227:
 2602 0000 2DE9F04F 		push	{r4, r5, r6, r7, r8, r9, sl, fp, lr}
 2603              	.LCFI8:
 2604              		.cfi_def_cfa_offset 36
 2605              		.cfi_offset 4, -36
 2606              		.cfi_offset 5, -32
 2607              		.cfi_offset 6, -28
 2608              		.cfi_offset 7, -24
 2609              		.cfi_offset 8, -20
 2610              		.cfi_offset 9, -16
 2611              		.cfi_offset 10, -12
 2612              		.cfi_offset 11, -8
 2613              		.cfi_offset 14, -4
 2614 0004 85B0     		sub	sp, sp, #20
 2615              	.LCFI9:
 2616              		.cfi_def_cfa_offset 56
 2617              		.loc 3 46 0
 2618 0006 9042     		cmp	r0, r2
ARM GAS  /tmp/ccZUWmXH.s 			page 47


 2619              		.loc 3 39 0
 2620 0008 8146     		mov	r9, r0
 2621 000a 0C46     		mov	r4, r1
 2622 000c BDF83850 		ldrh	r5, [sp, #56]
 2623              		.loc 3 46 0
 2624 0010 00F00A81 		beq	.L115
 2625              		.loc 3 53 0
 2626 0014 9942     		cmp	r1, r3
 2627 0016 00F01481 		beq	.L116
 2628              		.loc 3 62 0
 2629 001a 9042     		cmp	r0, r2
 2630 001c 40F38380 		ble	.L117
 2631              		.loc 3 66 0
 2632 0020 821A     		subs	r2, r0, r2
 2633              	.LVL228:
 2634              		.loc 3 69 0
 2635 0022 A342     		cmp	r3, r4
 2636              		.loc 3 66 0
 2637 0024 90B2     		uxth	r0, r2
 2638              	.LVL229:
 2639              		.loc 3 67 0
 2640 0026 4FF6FF76 		movw	r6, #65535
 2641              	.LVL230:
 2642              		.loc 3 69 0
 2643 002a C0F28280 		blt	.L71
 2644              	.LVL231:
 2645              	.L119:
 2646              		.loc 3 70 0
 2647 002e 1F1B     		subs	r7, r3, r4
 2648 0030 B9B2     		uxth	r1, r7
 2649              	.LVL232:
 2650              		.loc 3 77 0
 2651 0032 0FFA81FB 		sxth	fp, r1
 2652 0036 0FFA80FA 		sxth	sl, r0
 2653              		.loc 3 71 0
 2654 003a 0127     		movs	r7, #1
 2655              	.LVL233:
 2656              		.loc 3 77 0
 2657 003c D345     		cmp	fp, sl
 2658 003e 00F38380 		bgt	.L73
 2659              	.LVL234:
 2660              	.L120:
 2661              		.loc 3 78 0
 2662 0042 4B00     		lsls	r3, r1, #1
 2663              		.loc 3 79 0
 2664 0044 82B2     		uxth	r2, r0
 2665              		.loc 3 78 0
 2666 0046 98B2     		uxth	r0, r3
 2667              		.loc 3 79 0
 2668 0048 811A     		subs	r1, r0, r2
 2669 004a 8BB2     		uxth	r3, r1
 2670              		.loc 3 80 0
 2671 004c 9A1A     		subs	r2, r3, r2
 2672              		.loc 3 78 0
 2673 004e 0290     		str	r0, [sp, #8]
 2674              	.LVL235:
 2675              		.loc 3 82 0
ARM GAS  /tmp/ccZUWmXH.s 			page 48


 2676 0050 BAF1000F 		cmp	sl, #0
 2677              		.loc 3 80 0
 2678 0054 90B2     		uxth	r0, r2
 2679              		.loc 3 79 0
 2680 0056 1FFA83F8 		uxth	r8, r3
 2681              	.LVL236:
 2682              		.loc 3 80 0
 2683 005a 0190     		str	r0, [sp, #4]
 2684              	.LVL237:
 2685              		.loc 3 82 0
 2686 005c C0F2E180 		blt	.L64
 2687 0060 0AF00103 		and	r3, sl, #1
 2688              	.LVL238:
 2689              		.loc 3 83 0
 2690 0064 4846     		mov	r0, r9
 2691 0066 2146     		mov	r1, r4
 2692 0068 2A46     		mov	r2, r5
 2693 006a 0393     		str	r3, [sp, #12]
 2694 006c FFF7FEFF 		bl	gdisp_lld_draw_pixel
 2695              	.LVL239:
 2696              		.loc 3 84 0
 2697 0070 18F4004F 		tst	r8, #32768
 2698 0074 40F02581 		bne	.L118
 2699              		.loc 3 88 0
 2700 0078 0199     		ldr	r1, [sp, #4]
 2701              		.loc 3 89 0
 2702 007a B144     		add	r9, r9, r6
 2703              	.LVL240:
 2704              		.loc 3 88 0
 2705 007c 01EB0802 		add	r2, r1, r8
 2706              		.loc 3 90 0
 2707 0080 E419     		adds	r4, r4, r7
 2708              	.LVL241:
 2709              		.loc 3 88 0
 2710 0082 1FFA82FB 		uxth	fp, r2
 2711              		.loc 3 89 0
 2712 0086 0FFA89F9 		sxth	r9, r9
 2713              		.loc 3 90 0
 2714 008a 24B2     		sxth	r4, r4
 2715              	.LVL242:
 2716              	.L107:
 2717              		.loc 3 82 0
 2718 008c 4FF00108 		mov	r8, #1
 2719              	.LVL243:
 2720 0090 C245     		cmp	sl, r8
 2721 0092 C0F2C680 		blt	.L64
 2722 0096 039A     		ldr	r2, [sp, #12]
 2723 0098 A2B3     		cbz	r2, .L74
 2724              		.loc 3 83 0
 2725 009a 4846     		mov	r0, r9
 2726 009c 2146     		mov	r1, r4
 2727 009e 2A46     		mov	r2, r5
 2728 00a0 FFF7FEFF 		bl	gdisp_lld_draw_pixel
 2729              	.LVL244:
 2730              		.loc 3 84 0
 2731 00a4 1BF4004F 		tst	fp, #32768
 2732 00a8 18D0     		beq	.L90
ARM GAS  /tmp/ccZUWmXH.s 			page 49


 2733 00aa DFE0     		b	.L104
 2734              	.LVL245:
 2735              	.L76:
 2736              		.loc 3 88 0
 2737 00ac 019A     		ldr	r2, [sp, #4]
 2738              		.loc 3 89 0
 2739 00ae 09EB060E 		add	lr, r9, r6
 2740              		.loc 3 88 0
 2741 00b2 02EB0B00 		add	r0, r2, fp
 2742              		.loc 3 90 0
 2743 00b6 E419     		adds	r4, r4, r7
 2744 00b8 24B2     		sxth	r4, r4
 2745              		.loc 3 88 0
 2746 00ba 1FFA80FB 		uxth	fp, r0
 2747              		.loc 3 89 0
 2748 00be 0FFA8EF9 		sxth	r9, lr
 2749              	.LVL246:
 2750              	.L77:
 2751              		.loc 3 82 0
 2752 00c2 08F1010C 		add	ip, r8, #1
 2753              		.loc 3 83 0
 2754 00c6 2146     		mov	r1, r4
 2755 00c8 4846     		mov	r0, r9
 2756 00ca 2A46     		mov	r2, r5
 2757              		.loc 3 82 0
 2758 00cc 1FFA8CF8 		uxth	r8, ip
 2759              		.loc 3 83 0
 2760 00d0 FFF7FEFF 		bl	gdisp_lld_draw_pixel
 2761              	.LVL247:
 2762              		.loc 3 84 0
 2763 00d4 1BF4004F 		tst	fp, #32768
 2764 00d8 40F0C880 		bne	.L104
 2765              	.LVL248:
 2766              	.L90:
 2767              		.loc 3 88 0
 2768 00dc 019A     		ldr	r2, [sp, #4]
 2769              		.loc 3 89 0
 2770 00de 09EB0603 		add	r3, r9, r6
 2771              		.loc 3 88 0
 2772 00e2 02EB0B00 		add	r0, r2, fp
 2773              		.loc 3 90 0
 2774 00e6 E419     		adds	r4, r4, r7
 2775              		.loc 3 88 0
 2776 00e8 1FFA80FB 		uxth	fp, r0
 2777              		.loc 3 89 0
 2778 00ec 0FFA83F9 		sxth	r9, r3
 2779              		.loc 3 90 0
 2780 00f0 24B2     		sxth	r4, r4
 2781              	.LVL249:
 2782              	.L110:
 2783              		.loc 3 82 0
 2784 00f2 08F10108 		add	r8, r8, #1
 2785 00f6 1FFA88F8 		uxth	r8, r8
 2786 00fa 0FFA88F1 		sxth	r1, r8
 2787 00fe 8A45     		cmp	sl, r1
 2788 0100 C0F28F80 		blt	.L64
 2789              	.LVL250:
ARM GAS  /tmp/ccZUWmXH.s 			page 50


 2790              	.L74:
 2791              		.loc 3 83 0
 2792 0104 4846     		mov	r0, r9
 2793 0106 2A46     		mov	r2, r5
 2794 0108 2146     		mov	r1, r4
 2795 010a FFF7FEFF 		bl	gdisp_lld_draw_pixel
 2796              	.LVL251:
 2797              		.loc 3 84 0
 2798 010e 1BF4004F 		tst	fp, #32768
 2799 0112 CBD0     		beq	.L76
 2800              		.loc 3 85 0
 2801 0114 029B     		ldr	r3, [sp, #8]
 2802              		.loc 3 86 0
 2803 0116 B144     		add	r9, r9, r6
 2804              		.loc 3 85 0
 2805 0118 03EB0B01 		add	r1, r3, fp
 2806 011c 1FFA81FB 		uxth	fp, r1
 2807              		.loc 3 86 0
 2808 0120 0FFA89F9 		sxth	r9, r9
 2809 0124 CDE7     		b	.L77
 2810              	.LVL252:
 2811              	.L117:
 2812              		.loc 3 63 0
 2813 0126 111A     		subs	r1, r2, r0
 2814              	.LVL253:
 2815              		.loc 3 64 0
 2816 0128 0126     		movs	r6, #1
 2817              		.loc 3 69 0
 2818 012a A342     		cmp	r3, r4
 2819              		.loc 3 63 0
 2820 012c 88B2     		uxth	r0, r1
 2821              	.LVL254:
 2822              		.loc 3 69 0
 2823 012e BFF67EAF 		bge	.L119
 2824              	.LVL255:
 2825              	.L71:
 2826              		.loc 3 73 0
 2827 0132 E31A     		subs	r3, r4, r3
 2828              	.LVL256:
 2829 0134 99B2     		uxth	r1, r3
 2830              	.LVL257:
 2831              		.loc 3 77 0
 2832 0136 0FFA81FB 		sxth	fp, r1
 2833 013a 0FFA80FA 		sxth	sl, r0
 2834 013e D345     		cmp	fp, sl
 2835              		.loc 3 74 0
 2836 0140 4FF6FF77 		movw	r7, #65535
 2837              	.LVL258:
 2838              		.loc 3 77 0
 2839 0144 7FF77DAF 		ble	.L120
 2840              	.LVL259:
 2841              	.L73:
 2842              		.loc 3 94 0
 2843 0148 4200     		lsls	r2, r0, #1
 2844 014a 93B2     		uxth	r3, r2
 2845              		.loc 3 95 0
 2846 014c 88B2     		uxth	r0, r1
ARM GAS  /tmp/ccZUWmXH.s 			page 51


 2847 014e 191A     		subs	r1, r3, r0
 2848 0150 8AB2     		uxth	r2, r1
 2849              		.loc 3 96 0
 2850 0152 101A     		subs	r0, r2, r0
 2851              		.loc 3 94 0
 2852 0154 0293     		str	r3, [sp, #8]
 2853              	.LVL260:
 2854              		.loc 3 98 0
 2855 0156 BBF1000F 		cmp	fp, #0
 2856              		.loc 3 96 0
 2857 015a 83B2     		uxth	r3, r0
 2858              		.loc 3 95 0
 2859 015c 1FFA82F8 		uxth	r8, r2
 2860              	.LVL261:
 2861              		.loc 3 96 0
 2862 0160 0193     		str	r3, [sp, #4]
 2863              	.LVL262:
 2864              		.loc 3 98 0
 2865 0162 5EDB     		blt	.L64
 2866 0164 0BF00103 		and	r3, fp, #1
 2867              		.loc 3 99 0
 2868 0168 4846     		mov	r0, r9
 2869 016a 2146     		mov	r1, r4
 2870 016c 2A46     		mov	r2, r5
 2871              	.LVL263:
 2872 016e 0393     		str	r3, [sp, #12]
 2873 0170 FFF7FEFF 		bl	gdisp_lld_draw_pixel
 2874              	.LVL264:
 2875              		.loc 3 100 0
 2876 0174 18F4004F 		tst	r8, #32768
 2877 0178 40F09B80 		bne	.L121
 2878              		.loc 3 104 0
 2879 017c 0199     		ldr	r1, [sp, #4]
 2880              		.loc 3 105 0
 2881 017e B144     		add	r9, r9, r6
 2882              	.LVL265:
 2883              		.loc 3 104 0
 2884 0180 01EB0802 		add	r2, r1, r8
 2885              		.loc 3 106 0
 2886 0184 E419     		adds	r4, r4, r7
 2887              	.LVL266:
 2888              		.loc 3 104 0
 2889 0186 1FFA82FA 		uxth	sl, r2
 2890              		.loc 3 105 0
 2891 018a 0FFA89F9 		sxth	r9, r9
 2892              	.LVL267:
 2893              		.loc 3 106 0
 2894 018e 24B2     		sxth	r4, r4
 2895              	.LVL268:
 2896              	.L111:
 2897              		.loc 3 98 0
 2898 0190 4FF00108 		mov	r8, #1
 2899              	.LVL269:
 2900 0194 C345     		cmp	fp, r8
 2901 0196 44DB     		blt	.L64
 2902 0198 039A     		ldr	r2, [sp, #12]
 2903 019a 92B3     		cbz	r2, .L81
ARM GAS  /tmp/ccZUWmXH.s 			page 52


 2904              		.loc 3 99 0
 2905 019c 4846     		mov	r0, r9
 2906 019e 2146     		mov	r1, r4
 2907 01a0 2A46     		mov	r2, r5
 2908 01a2 FFF7FEFF 		bl	gdisp_lld_draw_pixel
 2909              	.LVL270:
 2910              		.loc 3 100 0
 2911 01a6 1AF4004F 		tst	sl, #32768
 2912 01aa 17D0     		beq	.L97
 2913 01ac 56E0     		b	.L106
 2914              	.LVL271:
 2915              	.L79:
 2916              		.loc 3 104 0
 2917 01ae 019A     		ldr	r2, [sp, #4]
 2918              		.loc 3 106 0
 2919 01b0 E319     		adds	r3, r4, r7
 2920              		.loc 3 104 0
 2921 01b2 02EB0A00 		add	r0, r2, sl
 2922              		.loc 3 105 0
 2923 01b6 09EB060A 		add	sl, r9, r6
 2924 01ba 0FFA8AF9 		sxth	r9, sl
 2925              		.loc 3 106 0
 2926 01be 1CB2     		sxth	r4, r3
 2927              		.loc 3 104 0
 2928 01c0 1FFA80FA 		uxth	sl, r0
 2929              	.LVL272:
 2930              	.L80:
 2931              		.loc 3 98 0
 2932 01c4 08F1010C 		add	ip, r8, #1
 2933              		.loc 3 99 0
 2934 01c8 4846     		mov	r0, r9
 2935 01ca 2146     		mov	r1, r4
 2936 01cc 2A46     		mov	r2, r5
 2937              		.loc 3 98 0
 2938 01ce 1FFA8CF8 		uxth	r8, ip
 2939              		.loc 3 99 0
 2940 01d2 FFF7FEFF 		bl	gdisp_lld_draw_pixel
 2941              	.LVL273:
 2942              		.loc 3 100 0
 2943 01d6 1AF4004F 		tst	sl, #32768
 2944 01da 3FD1     		bne	.L106
 2945              	.LVL274:
 2946              	.L97:
 2947              		.loc 3 104 0
 2948 01dc 0198     		ldr	r0, [sp, #4]
 2949              		.loc 3 105 0
 2950 01de 09EB060E 		add	lr, r9, r6
 2951              		.loc 3 104 0
 2952 01e2 00EB0A03 		add	r3, r0, sl
 2953              		.loc 3 106 0
 2954 01e6 E119     		adds	r1, r4, r7
 2955              		.loc 3 104 0
 2956 01e8 1FFA83FA 		uxth	sl, r3
 2957              		.loc 3 105 0
 2958 01ec 0FFA8EF9 		sxth	r9, lr
 2959              	.LVL275:
 2960              		.loc 3 106 0
ARM GAS  /tmp/ccZUWmXH.s 			page 53


 2961 01f0 0CB2     		sxth	r4, r1
 2962              	.LVL276:
 2963              	.L114:
 2964              		.loc 3 98 0
 2965 01f2 08F10108 		add	r8, r8, #1
 2966 01f6 1FFA88F8 		uxth	r8, r8
 2967 01fa 0FFA88F1 		sxth	r1, r8
 2968 01fe 8B45     		cmp	fp, r1
 2969 0200 0FDB     		blt	.L64
 2970              	.LVL277:
 2971              	.L81:
 2972              		.loc 3 99 0
 2973 0202 2146     		mov	r1, r4
 2974 0204 2A46     		mov	r2, r5
 2975 0206 4846     		mov	r0, r9
 2976 0208 FFF7FEFF 		bl	gdisp_lld_draw_pixel
 2977              	.LVL278:
 2978              		.loc 3 100 0
 2979 020c 1AF4004F 		tst	sl, #32768
 2980 0210 CDD0     		beq	.L79
 2981              		.loc 3 101 0
 2982 0212 0299     		ldr	r1, [sp, #8]
 2983              		.loc 3 102 0
 2984 0214 E419     		adds	r4, r4, r7
 2985              		.loc 3 101 0
 2986 0216 01EB0A02 		add	r2, r1, sl
 2987 021a 1FFA82FA 		uxth	sl, r2
 2988              		.loc 3 102 0
 2989 021e 24B2     		sxth	r4, r4
 2990 0220 D0E7     		b	.L80
 2991              	.LVL279:
 2992              	.L64:
 2993              		.loc 3 110 0
 2994 0222 05B0     		add	sp, sp, #20
 2995 0224 BDE8F08F 		pop	{r4, r5, r6, r7, r8, r9, sl, fp, pc}
 2996              	.LVL280:
 2997              	.L115:
 2998              		.loc 3 47 0
 2999 0228 8B42     		cmp	r3, r1
 3000 022a 29DD     		ble	.L66
 3001              		.loc 3 48 0
 3002 022c C1F10104 		rsb	r4, r1, #1
 3003 0230 E318     		adds	r3, r4, r3
 3004              	.LVL281:
 3005 0232 0122     		movs	r2, #1
 3006              	.LVL282:
 3007 0234 1BB2     		sxth	r3, r3
 3008 0236 0E95     		str	r5, [sp, #56]
 3009              		.loc 3 110 0
 3010 0238 05B0     		add	sp, sp, #20
 3011 023a BDE8F04F 		pop	{r4, r5, r6, r7, r8, r9, sl, fp, lr}
 3012              		.loc 3 48 0
 3013 023e FFF7FEBF 		b	gdisp_lld_fill_area
 3014              	.LVL283:
 3015              	.L116:
 3016              		.loc 3 54 0
 3017 0242 9042     		cmp	r0, r2
ARM GAS  /tmp/ccZUWmXH.s 			page 54


 3018 0244 27DA     		bge	.L68
 3019              		.loc 3 55 0
 3020 0246 C0F10109 		rsb	r9, r0, #1
 3021 024a 4A44     		add	r2, r9, r2
 3022              	.LVL284:
 3023 024c 12B2     		sxth	r2, r2
 3024 024e 0123     		movs	r3, #1
 3025              	.LVL285:
 3026 0250 0E95     		str	r5, [sp, #56]
 3027              		.loc 3 110 0
 3028 0252 05B0     		add	sp, sp, #20
 3029 0254 BDE8F04F 		pop	{r4, r5, r6, r7, r8, r9, sl, fp, lr}
 3030              		.loc 3 55 0
 3031 0258 FFF7FEBF 		b	gdisp_lld_fill_area
 3032              	.LVL286:
 3033              	.L106:
 3034              		.loc 3 101 0
 3035 025c 0298     		ldr	r0, [sp, #8]
 3036              		.loc 3 102 0
 3037 025e E419     		adds	r4, r4, r7
 3038              		.loc 3 101 0
 3039 0260 00EB0A03 		add	r3, r0, sl
 3040 0264 1FFA83FA 		uxth	sl, r3
 3041              		.loc 3 102 0
 3042 0268 24B2     		sxth	r4, r4
 3043 026a C2E7     		b	.L114
 3044              	.LVL287:
 3045              	.L104:
 3046              		.loc 3 85 0
 3047 026c 0298     		ldr	r0, [sp, #8]
 3048              		.loc 3 86 0
 3049 026e 09EB060C 		add	ip, r9, r6
 3050              		.loc 3 85 0
 3051 0272 00EB0B03 		add	r3, r0, fp
 3052 0276 1FFA83FB 		uxth	fp, r3
 3053              		.loc 3 86 0
 3054 027a 0FFA8CF9 		sxth	r9, ip
 3055 027e 38E7     		b	.L110
 3056              	.LVL288:
 3057              	.L66:
 3058              		.loc 3 50 0
 3059 0280 0131     		adds	r1, r1, #1
 3060              	.LVL289:
 3061 0282 CC1A     		subs	r4, r1, r3
 3062 0284 0122     		movs	r2, #1
 3063              	.LVL290:
 3064 0286 1946     		mov	r1, r3
 3065 0288 23B2     		sxth	r3, r4
 3066              	.LVL291:
 3067 028a 0E95     		str	r5, [sp, #56]
 3068              		.loc 3 110 0
 3069 028c 05B0     		add	sp, sp, #20
 3070 028e BDE8F04F 		pop	{r4, r5, r6, r7, r8, r9, sl, fp, lr}
 3071              		.loc 3 50 0
 3072 0292 FFF7FEBF 		b	gdisp_lld_fill_area
 3073              	.LVL292:
 3074              	.L68:
ARM GAS  /tmp/ccZUWmXH.s 			page 55


 3075              		.loc 3 57 0
 3076 0296 00F10109 		add	r9, r0, #1
 3077 029a C2EB0909 		rsb	r9, r2, r9
 3078 029e 1046     		mov	r0, r2
 3079              	.LVL293:
 3080 02a0 0123     		movs	r3, #1
 3081              	.LVL294:
 3082 02a2 0FFA89F2 		sxth	r2, r9
 3083              	.LVL295:
 3084 02a6 0E95     		str	r5, [sp, #56]
 3085              		.loc 3 110 0
 3086 02a8 05B0     		add	sp, sp, #20
 3087 02aa BDE8F04F 		pop	{r4, r5, r6, r7, r8, r9, sl, fp, lr}
 3088              		.loc 3 57 0
 3089 02ae FFF7FEBF 		b	gdisp_lld_fill_area
 3090              	.LVL296:
 3091              	.L121:
 3092              		.loc 3 101 0
 3093 02b2 0298     		ldr	r0, [sp, #8]
 3094              		.loc 3 102 0
 3095 02b4 E119     		adds	r1, r4, r7
 3096              		.loc 3 101 0
 3097 02b6 00EB0803 		add	r3, r0, r8
 3098 02ba 1FFA83FA 		uxth	sl, r3
 3099              		.loc 3 102 0
 3100 02be 0CB2     		sxth	r4, r1
 3101              	.LVL297:
 3102 02c0 66E7     		b	.L111
 3103              	.LVL298:
 3104              	.L118:
 3105              		.loc 3 85 0
 3106 02c2 0298     		ldr	r0, [sp, #8]
 3107              		.loc 3 86 0
 3108 02c4 09EB0601 		add	r1, r9, r6
 3109              		.loc 3 85 0
 3110 02c8 00EB0803 		add	r3, r0, r8
 3111 02cc 1FFA83FB 		uxth	fp, r3
 3112              		.loc 3 86 0
 3113 02d0 0FFA81F9 		sxth	r9, r1
 3114              	.LVL299:
 3115 02d4 DAE6     		b	.L107
 3116              		.cfi_endproc
 3117              	.LFE118:
 3118              		.size	gdisp_lld_draw_line, .-gdisp_lld_draw_line
 3119 02d6 00BFAFF3 		.section	.text.gdisp_lld_fill_circle,"ax",%progbits
 3119      0080AFF3 
 3119      0080
 3120              		.align	2
 3121              		.p2align 4,,15
 3122              		.global	gdisp_lld_fill_circle
 3123              		.thumb
 3124              		.thumb_func
 3125              		.type	gdisp_lld_fill_circle, %function
 3126              	gdisp_lld_fill_circle:
 3127              	.LFB120:
 3128              		.loc 3 195 0
 3129              		.cfi_startproc
ARM GAS  /tmp/ccZUWmXH.s 			page 56


 3130              		@ args = 0, pretend = 0, frame = 16
 3131              		@ frame_needed = 0, uses_anonymous_args = 0
 3132              	.LVL300:
 3133 0000 2DE9F04F 		push	{r4, r5, r6, r7, r8, r9, sl, fp, lr}
 3134              	.LCFI10:
 3135              		.cfi_def_cfa_offset 36
 3136              		.cfi_offset 4, -36
 3137              		.cfi_offset 5, -32
 3138              		.cfi_offset 6, -28
 3139              		.cfi_offset 7, -24
 3140              		.cfi_offset 8, -20
 3141              		.cfi_offset 9, -16
 3142              		.cfi_offset 10, -12
 3143              		.cfi_offset 11, -8
 3144              		.cfi_offset 14, -4
 3145              		.loc 3 199 0
 3146 0004 9246     		mov	sl, r2
 3147              		.loc 3 195 0
 3148 0006 87B0     		sub	sp, sp, #28
 3149              	.LCFI11:
 3150              		.cfi_def_cfa_offset 64
 3151              		.loc 3 200 0
 3152 0008 C2F10104 		rsb	r4, r2, #1
 3153 000c A2B2     		uxth	r2, r4
 3154              	.LVL301:
 3155 000e 1FFA80F8 		uxth	r8, r0
 3156 0012 0FFA8AF0 		sxth	r0, sl
 3157              	.LVL302:
 3158              		.loc 3 195 0
 3159 0016 1F46     		mov	r7, r3
 3160              		.loc 3 200 0
 3161 0018 0492     		str	r2, [sp, #16]
 3162              	.LVL303:
 3163 001a 8EB2     		uxth	r6, r1
 3164 001c 4FF00009 		mov	r9, #0
 3165 0020 0590     		str	r0, [sp, #20]
 3166 0022 17E0     		b	.L125
 3167              	.LVL304:
 3168              	.L123:
 3169              		.loc 3 210 0
 3170 0024 059A     		ldr	r2, [sp, #20]
 3171 0026 0499     		ldr	r1, [sp, #16]
 3172 0028 0AF1FF3A 		add	sl, sl, #-1
 3173              	.LVL305:
 3174 002c 4B1D     		adds	r3, r1, #5
 3175 002e C2EB0900 		rsb	r0, r2, r9
 3176 0032 1FFA8AFA 		uxth	sl, sl
 3177              	.LVL306:
 3178 0036 03EB4000 		add	r0, r3, r0, lsl #1
 3179 003a 0FFA8AF2 		sxth	r2, sl
 3180              		.loc 3 195 0
 3181 003e 0134     		adds	r4, r4, #1
 3182              		.loc 3 210 0
 3183 0040 83B2     		uxth	r3, r0
 3184 0042 0592     		str	r2, [sp, #20]
 3185              		.loc 3 195 0
 3186 0044 A1B2     		uxth	r1, r4
ARM GAS  /tmp/ccZUWmXH.s 			page 57


 3187              		.loc 3 210 0
 3188 0046 0493     		str	r3, [sp, #16]
 3189              	.LVL307:
 3190              		.loc 3 211 0
 3191 0048 059B     		ldr	r3, [sp, #20]
 3192 004a 0CB2     		sxth	r4, r1
 3193              	.LVL308:
 3194 004c 9C42     		cmp	r4, r3
 3195 004e 09F10109 		add	r9, r9, #1
 3196 0052 45DC     		bgt	.L127
 3197              	.LVL309:
 3198              	.L125:
 3199              		.loc 3 203 0
 3200 0054 1FFA8AF5 		uxth	r5, sl
 3201              		.loc 3 195 0
 3202 0058 1FFA89F4 		uxth	r4, r9
 3203 005c C4EB080C 		rsb	ip, r4, r8
 3204              		.loc 3 203 0
 3205 0060 A919     		adds	r1, r5, r6
 3206              		.loc 3 195 0
 3207 0062 08EB040B 		add	fp, r8, r4
 3208              		.loc 3 203 0
 3209 0066 0FFA8CFE 		sxth	lr, ip
 3210 006a 09B2     		sxth	r1, r1
 3211 006c 0FFA8BFB 		sxth	fp, fp
 3212 0070 7046     		mov	r0, lr
 3213 0072 5A46     		mov	r2, fp
 3214 0074 0B46     		mov	r3, r1
 3215 0076 0097     		str	r7, [sp, #0]
 3216 0078 CDF80CE0 		str	lr, [sp, #12]
 3217 007c FFF7FEFF 		bl	gdisp_lld_draw_line
 3218              	.LVL310:
 3219              		.loc 3 204 0
 3220 0080 DDF80CC0 		ldr	ip, [sp, #12]
 3221 0084 0097     		str	r7, [sp, #0]
 3222 0086 731B     		subs	r3, r6, r5
 3223 0088 19B2     		sxth	r1, r3
 3224 008a 6046     		mov	r0, ip
 3225 008c 5A46     		mov	r2, fp
 3226 008e 0B46     		mov	r3, r1
 3227 0090 FFF7FEFF 		bl	gdisp_lld_draw_line
 3228              	.LVL311:
 3229              		.loc 3 205 0
 3230 0094 C5EB0800 		rsb	r0, r5, r8
 3231              		.loc 3 195 0
 3232 0098 3219     		adds	r2, r6, r4
 3233              		.loc 3 205 0
 3234 009a 4544     		add	r5, r5, r8
 3235 009c 11B2     		sxth	r1, r2
 3236 009e 0FFA80FB 		sxth	fp, r0
 3237 00a2 2DB2     		sxth	r5, r5
 3238 00a4 0B46     		mov	r3, r1
 3239 00a6 5846     		mov	r0, fp
 3240 00a8 2A46     		mov	r2, r5
 3241 00aa 0097     		str	r7, [sp, #0]
 3242 00ac FFF7FEFF 		bl	gdisp_lld_draw_line
 3243              	.LVL312:
ARM GAS  /tmp/ccZUWmXH.s 			page 58


 3244              		.loc 3 195 0
 3245 00b0 311B     		subs	r1, r6, r4
 3246              		.loc 3 206 0
 3247 00b2 09B2     		sxth	r1, r1
 3248 00b4 0B46     		mov	r3, r1
 3249 00b6 0097     		str	r7, [sp, #0]
 3250 00b8 5846     		mov	r0, fp
 3251 00ba 2A46     		mov	r2, r5
 3252 00bc FFF7FEFF 		bl	gdisp_lld_draw_line
 3253              	.LVL313:
 3254              		.loc 3 207 0
 3255 00c0 049B     		ldr	r3, [sp, #16]
 3256 00c2 1904     		lsls	r1, r3, #16
 3257 00c4 AED5     		bpl	.L123
 3258              		.loc 3 208 0
 3259 00c6 D81C     		adds	r0, r3, #3
 3260 00c8 00EB4401 		add	r1, r0, r4, lsl #1
 3261              		.loc 3 195 0
 3262 00cc 0134     		adds	r4, r4, #1
 3263              		.loc 3 208 0
 3264 00ce 8AB2     		uxth	r2, r1
 3265              		.loc 3 211 0
 3266 00d0 059B     		ldr	r3, [sp, #20]
 3267              		.loc 3 208 0
 3268 00d2 0492     		str	r2, [sp, #16]
 3269              		.loc 3 195 0
 3270 00d4 A1B2     		uxth	r1, r4
 3271              	.LVL314:
 3272              		.loc 3 211 0
 3273 00d6 0CB2     		sxth	r4, r1
 3274              	.LVL315:
 3275 00d8 9C42     		cmp	r4, r3
 3276 00da 09F10109 		add	r9, r9, #1
 3277 00de B9DD     		ble	.L125
 3278              	.LVL316:
 3279              	.L127:
 3280              		.loc 3 212 0
 3281 00e0 07B0     		add	sp, sp, #28
 3282 00e2 BDE8F08F 		pop	{r4, r5, r6, r7, r8, r9, sl, fp, pc}
 3283              		.cfi_endproc
 3284              	.LFE120:
 3285              		.size	gdisp_lld_fill_circle, .-gdisp_lld_fill_circle
 3286 00e6 00BFAFF3 		.section	.text.gdisp_lld_blit_area_ex,"ax",%progbits
 3286      0080AFF3 
 3286      0080
 3287              		.align	2
 3288              		.p2align 4,,15
 3289              		.global	gdisp_lld_blit_area_ex
 3290              		.thumb
 3291              		.thumb_func
 3292              		.type	gdisp_lld_blit_area_ex, %function
 3293              	gdisp_lld_blit_area_ex:
 3294              	.LFB136:
 3295              		.loc 1 358 0
 3296              		.cfi_startproc
 3297              		@ args = 16, pretend = 0, frame = 0
 3298              		@ frame_needed = 0, uses_anonymous_args = 0
ARM GAS  /tmp/ccZUWmXH.s 			page 59


 3299              	.LVL317:
 3300 0000 2DE9F047 		push	{r4, r5, r6, r7, r8, r9, sl, lr}
 3301              	.LCFI12:
 3302              		.cfi_def_cfa_offset 32
 3303              		.cfi_offset 4, -32
 3304              		.cfi_offset 5, -28
 3305              		.cfi_offset 6, -24
 3306              		.cfi_offset 7, -20
 3307              		.cfi_offset 8, -16
 3308              		.cfi_offset 9, -12
 3309              		.cfi_offset 10, -8
 3310              		.cfi_offset 14, -4
 3311              		.loc 1 358 0
 3312 0004 BDF92070 		ldrsh	r7, [sp, #32]
 3313 0008 BDF92880 		ldrsh	r8, [sp, #40]
 3314              		.loc 1 369 0
 3315 000c BDF924E0 		ldrsh	lr, [sp, #36]
 3316 0010 0B9D     		ldr	r5, [sp, #44]
 3317              		.loc 1 358 0
 3318 0012 0E46     		mov	r6, r1
 3319              		.loc 1 369 0
 3320 0014 0EFB087C 		mla	ip, lr, r8, r7
 3321              		.loc 1 358 0
 3322 0018 9946     		mov	r9, r3
 3323 001a 1446     		mov	r4, r2
 3324              		.loc 1 369 0
 3325 001c 05EB4C05 		add	r5, r5, ip, lsl #1
 3326              	.LVL318:
 3327              		.loc 1 372 0
 3328 0020 FFF7FEFF 		bl	set_viewport
 3329              	.LVL319:
 3330              		.loc 1 392 0
 3331 0024 09EB0600 		add	r0, r9, r6
 3332              		.loc 1 394 0
 3333 0028 0FFA80FC 		sxth	ip, r0
 3334              		.loc 1 391 0
 3335 002c 3B19     		adds	r3, r7, r4
 3336              	.LBB1215:
 3337              	.LBB1216:
 3338              		.loc 2 144 0
 3339 002e 4FF0C042 		mov	r2, #1610612736
 3340 0032 2221     		movs	r1, #34
 3341              	.LBE1216:
 3342              	.LBE1215:
 3343              		.loc 1 391 0
 3344 0034 9BB2     		uxth	r3, r3
 3345              		.loc 1 394 0
 3346 0036 6645     		cmp	r6, ip
 3347              	.LBB1218:
 3348              	.LBB1217:
 3349              		.loc 2 144 0
 3350 0038 1180     		strh	r1, [r2, #0]	@ movhi
 3351              	.LBE1217:
 3352              	.LBE1218:
 3353              		.loc 1 391 0
 3354 003a 98B2     		uxth	r0, r3
 3355              	.LVL320:
ARM GAS  /tmp/ccZUWmXH.s 			page 60


 3356              		.loc 1 393 0
 3357 003c C4EB0808 		rsb	r8, r4, r8
 3358              	.LVL321:
 3359              		.loc 1 394 0
 3360 0040 36DA     		bge	.L128
 3361              		.loc 1 358 0
 3362 0042 FC43     		mvns	r4, r7
 3363 0044 1B19     		adds	r3, r3, r4
 3364              	.LVL322:
 3365 0046 1FFA83F9 		uxth	r9, r3
 3366              	.LVL323:
 3367 004a 09F10101 		add	r1, r9, #1
 3368              	.LBB1219:
 3369              	.LBB1220:
 3370              		.loc 2 153 0
 3371 004e 0024     		movs	r4, #0
 3372              	.LBE1220:
 3373              	.LBE1219:
 3374              		.loc 1 358 0
 3375 0050 4FEA4109 		lsl	r9, r1, #1
 3376 0054 4FEA4808 		lsl	r8, r8, #1
 3377              	.LVL324:
 3378 0058 01B2     		sxth	r1, r0
 3379              	.LBB1226:
 3380              	.LBB1221:
 3381              		.loc 2 153 0
 3382 005a C6F20204 		movt	r4, 24578
 3383              	.LVL325:
 3384              	.L130:
 3385              	.LBE1221:
 3386              	.LBE1226:
 3387              		.loc 1 395 0 discriminator 1
 3388 005e 8F42     		cmp	r7, r1
 3389 0060 21DA     		bge	.L132
 3390              		.loc 1 396 0
 3391 0062 2B46     		mov	r3, r5
 3392              		.loc 1 395 0
 3393 0064 7A1C     		adds	r2, r7, #1
 3394 0066 781A     		subs	r0, r7, r1
 3395              		.loc 1 396 0
 3396 0068 33F802AB 		ldrh	sl, [r3], #2
 3397              	.LVL326:
 3398              		.loc 1 395 0
 3399 006c 12B2     		sxth	r2, r2
 3400 006e C043     		mvns	r0, r0
 3401 0070 9142     		cmp	r1, r2
 3402              	.LBB1227:
 3403              	.LBB1222:
 3404              		.loc 2 153 0
 3405 0072 A4F800A0 		strh	sl, [r4, #0]	@ movhi
 3406 0076 00F00100 		and	r0, r0, #1
 3407              	.LBE1222:
 3408              	.LBE1227:
 3409              		.loc 1 395 0
 3410 007a 13D0     		beq	.L141
 3411 007c 30B1     		cbz	r0, .L131
 3412 007e 0132     		adds	r2, r2, #1
ARM GAS  /tmp/ccZUWmXH.s 			page 61


 3413              		.loc 1 396 0
 3414 0080 33F8020B 		ldrh	r0, [r3], #2
 3415              	.LVL327:
 3416              		.loc 1 395 0
 3417 0084 12B2     		sxth	r2, r2
 3418              	.LVL328:
 3419 0086 9142     		cmp	r1, r2
 3420              	.LBB1228:
 3421              	.LBB1223:
 3422              		.loc 2 153 0
 3423 0088 2080     		strh	r0, [r4, #0]	@ movhi
 3424              	.LBE1223:
 3425              	.LBE1228:
 3426              		.loc 1 395 0
 3427 008a 0BD0     		beq	.L141
 3428              	.L131:
 3429              		.loc 1 396 0 discriminator 2
 3430 008c 1846     		mov	r0, r3
 3431              		.loc 1 395 0 discriminator 2
 3432 008e 0232     		adds	r2, r2, #2
 3433              		.loc 1 396 0 discriminator 2
 3434 0090 30F802AB 		ldrh	sl, [r0], #2
 3435              	.LBB1229:
 3436              	.LBB1224:
 3437              		.loc 2 153 0 discriminator 2
 3438 0094 A4F800A0 		strh	sl, [r4, #0]	@ movhi
 3439              	.LBE1224:
 3440              	.LBE1229:
 3441              		.loc 1 396 0 discriminator 2
 3442 0098 5B88     		ldrh	r3, [r3, #2]
 3443              		.loc 1 395 0 discriminator 2
 3444 009a 12B2     		sxth	r2, r2
 3445              	.LBB1230:
 3446              	.LBB1225:
 3447              		.loc 2 153 0 discriminator 2
 3448 009c 2380     		strh	r3, [r4, #0]	@ movhi
 3449              	.LBE1225:
 3450              	.LBE1230:
 3451              		.loc 1 396 0 discriminator 2
 3452 009e 831C     		adds	r3, r0, #2
 3453              		.loc 1 395 0 discriminator 2
 3454 00a0 9142     		cmp	r1, r2
 3455 00a2 F3D1     		bne	.L131
 3456              	.L141:
 3457 00a4 4D44     		add	r5, r5, r9
 3458              	.L132:
 3459              		.loc 1 394 0
 3460 00a6 0136     		adds	r6, r6, #1
 3461 00a8 36B2     		sxth	r6, r6
 3462              	.LVL329:
 3463 00aa B445     		cmp	ip, r6
 3464 00ac 4544     		add	r5, r5, r8
 3465              	.LVL330:
 3466 00ae D6D1     		bne	.L130
 3467              	.LVL331:
 3468              	.L128:
 3469 00b0 BDE8F087 		pop	{r4, r5, r6, r7, r8, r9, sl, pc}
ARM GAS  /tmp/ccZUWmXH.s 			page 62


 3470              		.cfi_endproc
 3471              	.LFE136:
 3472              		.size	gdisp_lld_blit_area_ex, .-gdisp_lld_blit_area_ex
 3473              		.global	GDISP
 3474 00b4 AFF30080 		.section	.rodata
 3474      AFF30080 
 3474      AFF30080 
 3475              		.align	2
 3476              		.set	.LANCHOR1,. + 0
 3477              	.LC0:
 3478 0000 000C0240 		.word	1073875968
 3479 0004 B3CF0000 		.word	53171
 3480 0008 00000000 		.word	0
 3481              	.LC1:
 3482 000c 00100240 		.word	1073876992
 3483 0010 80FF0000 		.word	65408
 3484 0014 00000000 		.word	0
 3485              		.section	.bss.GDISP,"aw",%nobits
 3486              		.align	2
 3487              		.set	.LANCHOR0,. + 0
 3488              		.type	GDISP, %object
 3489              		.size	GDISP, 8
 3490              	GDISP:
 3491 0000 00000000 		.space	8
 3491      00000000 
 3492              		.text
 3493              	.Letext0:
 3494              		.file 4 "/usr/bin/../lib/gcc/arm-none-eabi/4.7.4/../../../../arm-none-eabi/include/stdint.h"
 3495              		.file 5 "../../os/ports/GCC/ARMCMx/chtypes.h"
 3496              		.file 6 "../../os/hal/platforms/STM32F4xx/stm32f4xx.h"
 3497              		.file 7 "../../os/hal/platforms/STM32/GPIOv2/pal_lld.h"
 3498              		.file 8 "../../os/hal/include/pal.h"
 3499              		.file 9 "../../ext/ugfx/include/gos/chibios.h"
 3500              		.file 10 "../../ext/ugfx/include/gdisp/gdisp.h"
 3501              		.file 11 "../../os/ports/common/ARMCMx/CMSIS/include/core_cm4.h"
 3502              		.section	.debug_info,"",%progbits
 3503              	.Ldebug_info0:
 3504 0000 C1220000 		.4byte	0x22c1
 3505 0004 0200     		.2byte	0x2
 3506 0006 00000000 		.4byte	.Ldebug_abbrev0
 3507 000a 04       		.byte	0x4
 3508 000b 01       		.uleb128 0x1
 3509 000c B8020000 		.4byte	.LASF129
 3510 0010 01       		.byte	0x1
 3511 0011 39010000 		.4byte	.LASF130
 3512 0015 19000000 		.4byte	.LASF131
 3513 0019 68070000 		.4byte	.Ldebug_ranges0+0x768
 3514 001d 00000000 		.4byte	0
 3515 0021 00000000 		.4byte	0
 3516 0025 00000000 		.4byte	.Ldebug_line0
 3517 0029 02       		.uleb128 0x2
 3518 002a 04       		.byte	0x4
 3519 002b 05       		.byte	0x5
 3520 002c 696E7400 		.ascii	"int\000"
 3521 0030 03       		.uleb128 0x3
 3522 0031 04       		.byte	0x4
 3523 0032 07       		.byte	0x7
ARM GAS  /tmp/ccZUWmXH.s 			page 63


 3524 0033 CA010000 		.4byte	.LASF0
 3525 0037 03       		.uleb128 0x3
 3526 0038 01       		.byte	0x1
 3527 0039 06       		.byte	0x6
 3528 003a D8000000 		.4byte	.LASF1
 3529 003e 04       		.uleb128 0x4
 3530 003f A2050000 		.4byte	.LASF3
 3531 0043 04       		.byte	0x4
 3532 0044 2A       		.byte	0x2a
 3533 0045 49000000 		.4byte	0x49
 3534 0049 03       		.uleb128 0x3
 3535 004a 01       		.byte	0x1
 3536 004b 08       		.byte	0x8
 3537 004c 1D040000 		.4byte	.LASF2
 3538 0050 04       		.uleb128 0x4
 3539 0051 C2000000 		.4byte	.LASF4
 3540 0055 04       		.byte	0x4
 3541 0056 35       		.byte	0x35
 3542 0057 5B000000 		.4byte	0x5b
 3543 005b 03       		.uleb128 0x3
 3544 005c 02       		.byte	0x2
 3545 005d 05       		.byte	0x5
 3546 005e AE020000 		.4byte	.LASF5
 3547 0062 04       		.uleb128 0x4
 3548 0063 6A010000 		.4byte	.LASF6
 3549 0067 04       		.byte	0x4
 3550 0068 36       		.byte	0x36
 3551 0069 6D000000 		.4byte	0x6d
 3552 006d 03       		.uleb128 0x3
 3553 006e 02       		.byte	0x2
 3554 006f 07       		.byte	0x7
 3555 0070 53020000 		.4byte	.LASF7
 3556 0074 04       		.uleb128 0x4
 3557 0075 15040000 		.4byte	.LASF8
 3558 0079 04       		.byte	0x4
 3559 007a 4F       		.byte	0x4f
 3560 007b 7F000000 		.4byte	0x7f
 3561 007f 03       		.uleb128 0x3
 3562 0080 04       		.byte	0x4
 3563 0081 05       		.byte	0x5
 3564 0082 6B000000 		.4byte	.LASF9
 3565 0086 04       		.uleb128 0x4
 3566 0087 AB040000 		.4byte	.LASF10
 3567 008b 04       		.byte	0x4
 3568 008c 50       		.byte	0x50
 3569 008d 91000000 		.4byte	0x91
 3570 0091 03       		.uleb128 0x3
 3571 0092 04       		.byte	0x4
 3572 0093 07       		.byte	0x7
 3573 0094 FD010000 		.4byte	.LASF11
 3574 0098 03       		.uleb128 0x3
 3575 0099 08       		.byte	0x8
 3576 009a 05       		.byte	0x5
 3577 009b CA000000 		.4byte	.LASF12
 3578 009f 03       		.uleb128 0x3
 3579 00a0 08       		.byte	0x8
 3580 00a1 07       		.byte	0x7
ARM GAS  /tmp/ccZUWmXH.s 			page 64


 3581 00a2 7A000000 		.4byte	.LASF13
 3582 00a6 04       		.uleb128 0x4
 3583 00a7 66040000 		.4byte	.LASF14
 3584 00ab 04       		.byte	0x4
 3585 00ac A0       		.byte	0xa0
 3586 00ad 30000000 		.4byte	0x30
 3587 00b1 04       		.uleb128 0x4
 3588 00b2 F2000000 		.4byte	.LASF15
 3589 00b6 05       		.byte	0x5
 3590 00b7 24       		.byte	0x24
 3591 00b8 BC000000 		.4byte	0xbc
 3592 00bc 03       		.uleb128 0x3
 3593 00bd 01       		.byte	0x1
 3594 00be 02       		.byte	0x2
 3595 00bf 0F040000 		.4byte	.LASF16
 3596 00c3 04       		.uleb128 0x4
 3597 00c4 04050000 		.4byte	.LASF17
 3598 00c8 05       		.byte	0x5
 3599 00c9 2E       		.byte	0x2e
 3600 00ca 86000000 		.4byte	0x86
 3601 00ce 05       		.uleb128 0x5
 3602 00cf 86000000 		.4byte	0x86
 3603 00d3 03       		.uleb128 0x3
 3604 00d4 04       		.byte	0x4
 3605 00d5 07       		.byte	0x7
 3606 00d6 2B030000 		.4byte	.LASF18
 3607 00da 03       		.uleb128 0x3
 3608 00db 01       		.byte	0x1
 3609 00dc 08       		.byte	0x8
 3610 00dd D4040000 		.4byte	.LASF19
 3611 00e1 06       		.uleb128 0x6
 3612 00e2 86000000 		.4byte	0x86
 3613 00e6 F1000000 		.4byte	0xf1
 3614 00ea 07       		.uleb128 0x7
 3615 00eb D3000000 		.4byte	0xd3
 3616 00ef 07       		.byte	0x7
 3617 00f0 00       		.byte	0
 3618 00f1 06       		.uleb128 0x6
 3619 00f2 86000000 		.4byte	0x86
 3620 00f6 01010000 		.4byte	0x101
 3621 00fa 07       		.uleb128 0x7
 3622 00fb D3000000 		.4byte	0xd3
 3623 00ff 01       		.byte	0x1
 3624 0100 00       		.byte	0
 3625 0101 05       		.uleb128 0x5
 3626 0102 74000000 		.4byte	0x74
 3627 0106 08       		.uleb128 0x8
 3628 0107 20       		.byte	0x20
 3629 0108 06       		.byte	0x6
 3630 0109 4F02     		.2byte	0x24f
 3631 010b 1F010000 		.4byte	0x11f
 3632 010f 09       		.uleb128 0x9
 3633 0110 1A060000 		.4byte	.LASF21
 3634 0114 06       		.byte	0x6
 3635 0115 5102     		.2byte	0x251
 3636 0117 1F010000 		.4byte	0x11f
 3637 011b 02       		.byte	0x2
ARM GAS  /tmp/ccZUWmXH.s 			page 65


 3638 011c 23       		.byte	0x23
 3639 011d 00       		.uleb128 0
 3640 011e 00       		.byte	0
 3641 011f 05       		.uleb128 0x5
 3642 0120 E1000000 		.4byte	0xe1
 3643 0124 0A       		.uleb128 0xa
 3644 0125 98040000 		.4byte	.LASF20
 3645 0129 06       		.byte	0x6
 3646 012a 5202     		.2byte	0x252
 3647 012c 06010000 		.4byte	0x106
 3648 0130 08       		.uleb128 0x8
 3649 0131 88       		.byte	0x88
 3650 0132 06       		.byte	0x6
 3651 0133 DB02     		.2byte	0x2db
 3652 0135 FD020000 		.4byte	0x2fd
 3653 0139 0B       		.uleb128 0xb
 3654 013a 435200   		.ascii	"CR\000"
 3655 013d 06       		.byte	0x6
 3656 013e DD02     		.2byte	0x2dd
 3657 0140 CE000000 		.4byte	0xce
 3658 0144 02       		.byte	0x2
 3659 0145 23       		.byte	0x23
 3660 0146 00       		.uleb128 0
 3661 0147 09       		.uleb128 0x9
 3662 0148 80010000 		.4byte	.LASF22
 3663 014c 06       		.byte	0x6
 3664 014d DE02     		.2byte	0x2de
 3665 014f CE000000 		.4byte	0xce
 3666 0153 02       		.byte	0x2
 3667 0154 23       		.byte	0x23
 3668 0155 04       		.uleb128 0x4
 3669 0156 09       		.uleb128 0x9
 3670 0157 F5050000 		.4byte	.LASF23
 3671 015b 06       		.byte	0x6
 3672 015c DF02     		.2byte	0x2df
 3673 015e CE000000 		.4byte	0xce
 3674 0162 02       		.byte	0x2
 3675 0163 23       		.byte	0x23
 3676 0164 08       		.uleb128 0x8
 3677 0165 0B       		.uleb128 0xb
 3678 0166 43495200 		.ascii	"CIR\000"
 3679 016a 06       		.byte	0x6
 3680 016b E002     		.2byte	0x2e0
 3681 016d CE000000 		.4byte	0xce
 3682 0171 02       		.byte	0x2
 3683 0172 23       		.byte	0x23
 3684 0173 0C       		.uleb128 0xc
 3685 0174 09       		.uleb128 0x9
 3686 0175 E9000000 		.4byte	.LASF24
 3687 0179 06       		.byte	0x6
 3688 017a E102     		.2byte	0x2e1
 3689 017c CE000000 		.4byte	0xce
 3690 0180 02       		.byte	0x2
 3691 0181 23       		.byte	0x23
 3692 0182 10       		.uleb128 0x10
 3693 0183 09       		.uleb128 0x9
 3694 0184 EB040000 		.4byte	.LASF25
ARM GAS  /tmp/ccZUWmXH.s 			page 66


 3695 0188 06       		.byte	0x6
 3696 0189 E202     		.2byte	0x2e2
 3697 018b CE000000 		.4byte	0xce
 3698 018f 02       		.byte	0x2
 3699 0190 23       		.byte	0x23
 3700 0191 14       		.uleb128 0x14
 3701 0192 09       		.uleb128 0x9
 3702 0193 8D020000 		.4byte	.LASF26
 3703 0197 06       		.byte	0x6
 3704 0198 E302     		.2byte	0x2e3
 3705 019a CE000000 		.4byte	0xce
 3706 019e 02       		.byte	0x2
 3707 019f 23       		.byte	0x23
 3708 01a0 18       		.uleb128 0x18
 3709 01a1 09       		.uleb128 0x9
 3710 01a2 82040000 		.4byte	.LASF27
 3711 01a6 06       		.byte	0x6
 3712 01a7 E402     		.2byte	0x2e4
 3713 01a9 86000000 		.4byte	0x86
 3714 01ad 02       		.byte	0x2
 3715 01ae 23       		.byte	0x23
 3716 01af 1C       		.uleb128 0x1c
 3717 01b0 09       		.uleb128 0x9
 3718 01b1 96030000 		.4byte	.LASF28
 3719 01b5 06       		.byte	0x6
 3720 01b6 E502     		.2byte	0x2e5
 3721 01b8 CE000000 		.4byte	0xce
 3722 01bc 02       		.byte	0x2
 3723 01bd 23       		.byte	0x23
 3724 01be 20       		.uleb128 0x20
 3725 01bf 09       		.uleb128 0x9
 3726 01c0 1A010000 		.4byte	.LASF29
 3727 01c4 06       		.byte	0x6
 3728 01c5 E602     		.2byte	0x2e6
 3729 01c7 CE000000 		.4byte	0xce
 3730 01cb 02       		.byte	0x2
 3731 01cc 23       		.byte	0x23
 3732 01cd 24       		.uleb128 0x24
 3733 01ce 09       		.uleb128 0x9
 3734 01cf D3030000 		.4byte	.LASF30
 3735 01d3 06       		.byte	0x6
 3736 01d4 E702     		.2byte	0x2e7
 3737 01d6 F1000000 		.4byte	0xf1
 3738 01da 02       		.byte	0x2
 3739 01db 23       		.byte	0x23
 3740 01dc 28       		.uleb128 0x28
 3741 01dd 09       		.uleb128 0x9
 3742 01de D9050000 		.4byte	.LASF31
 3743 01e2 06       		.byte	0x6
 3744 01e3 E802     		.2byte	0x2e8
 3745 01e5 CE000000 		.4byte	0xce
 3746 01e9 02       		.byte	0x2
 3747 01ea 23       		.byte	0x23
 3748 01eb 30       		.uleb128 0x30
 3749 01ec 09       		.uleb128 0x9
 3750 01ed 4B050000 		.4byte	.LASF32
 3751 01f1 06       		.byte	0x6
ARM GAS  /tmp/ccZUWmXH.s 			page 67


 3752 01f2 E902     		.2byte	0x2e9
 3753 01f4 CE000000 		.4byte	0xce
 3754 01f8 02       		.byte	0x2
 3755 01f9 23       		.byte	0x23
 3756 01fa 34       		.uleb128 0x34
 3757 01fb 09       		.uleb128 0x9
 3758 01fc 1C020000 		.4byte	.LASF33
 3759 0200 06       		.byte	0x6
 3760 0201 EA02     		.2byte	0x2ea
 3761 0203 CE000000 		.4byte	0xce
 3762 0207 02       		.byte	0x2
 3763 0208 23       		.byte	0x23
 3764 0209 38       		.uleb128 0x38
 3765 020a 09       		.uleb128 0x9
 3766 020b DD030000 		.4byte	.LASF34
 3767 020f 06       		.byte	0x6
 3768 0210 EB02     		.2byte	0x2eb
 3769 0212 86000000 		.4byte	0x86
 3770 0216 02       		.byte	0x2
 3771 0217 23       		.byte	0x23
 3772 0218 3C       		.uleb128 0x3c
 3773 0219 09       		.uleb128 0x9
 3774 021a 33050000 		.4byte	.LASF35
 3775 021e 06       		.byte	0x6
 3776 021f EC02     		.2byte	0x2ec
 3777 0221 CE000000 		.4byte	0xce
 3778 0225 02       		.byte	0x2
 3779 0226 23       		.byte	0x23
 3780 0227 40       		.uleb128 0x40
 3781 0228 09       		.uleb128 0x9
 3782 0229 7A040000 		.4byte	.LASF36
 3783 022d 06       		.byte	0x6
 3784 022e ED02     		.2byte	0x2ed
 3785 0230 CE000000 		.4byte	0xce
 3786 0234 02       		.byte	0x2
 3787 0235 23       		.byte	0x23
 3788 0236 44       		.uleb128 0x44
 3789 0237 09       		.uleb128 0x9
 3790 0238 E7030000 		.4byte	.LASF37
 3791 023c 06       		.byte	0x6
 3792 023d EE02     		.2byte	0x2ee
 3793 023f F1000000 		.4byte	0xf1
 3794 0243 02       		.byte	0x2
 3795 0244 23       		.byte	0x23
 3796 0245 48       		.uleb128 0x48
 3797 0246 09       		.uleb128 0x9
 3798 0247 B8000000 		.4byte	.LASF38
 3799 024b 06       		.byte	0x6
 3800 024c EF02     		.2byte	0x2ef
 3801 024e CE000000 		.4byte	0xce
 3802 0252 02       		.byte	0x2
 3803 0253 23       		.byte	0x23
 3804 0254 50       		.uleb128 0x50
 3805 0255 09       		.uleb128 0x9
 3806 0256 63030000 		.4byte	.LASF39
 3807 025a 06       		.byte	0x6
 3808 025b F002     		.2byte	0x2f0
ARM GAS  /tmp/ccZUWmXH.s 			page 68


 3809 025d CE000000 		.4byte	0xce
 3810 0261 02       		.byte	0x2
 3811 0262 23       		.byte	0x23
 3812 0263 54       		.uleb128 0x54
 3813 0264 09       		.uleb128 0x9
 3814 0265 5C040000 		.4byte	.LASF40
 3815 0269 06       		.byte	0x6
 3816 026a F102     		.2byte	0x2f1
 3817 026c CE000000 		.4byte	0xce
 3818 0270 02       		.byte	0x2
 3819 0271 23       		.byte	0x23
 3820 0272 58       		.uleb128 0x58
 3821 0273 09       		.uleb128 0x9
 3822 0274 F1030000 		.4byte	.LASF41
 3823 0278 06       		.byte	0x6
 3824 0279 F202     		.2byte	0x2f2
 3825 027b 86000000 		.4byte	0x86
 3826 027f 02       		.byte	0x2
 3827 0280 23       		.byte	0x23
 3828 0281 5C       		.uleb128 0x5c
 3829 0282 09       		.uleb128 0x9
 3830 0283 66020000 		.4byte	.LASF42
 3831 0287 06       		.byte	0x6
 3832 0288 F302     		.2byte	0x2f3
 3833 028a CE000000 		.4byte	0xce
 3834 028e 02       		.byte	0x2
 3835 028f 23       		.byte	0x23
 3836 0290 60       		.uleb128 0x60
 3837 0291 09       		.uleb128 0x9
 3838 0292 A4020000 		.4byte	.LASF43
 3839 0296 06       		.byte	0x6
 3840 0297 F402     		.2byte	0x2f4
 3841 0299 CE000000 		.4byte	0xce
 3842 029d 02       		.byte	0x2
 3843 029e 23       		.byte	0x23
 3844 029f 64       		.uleb128 0x64
 3845 02a0 09       		.uleb128 0x9
 3846 02a1 FB030000 		.4byte	.LASF44
 3847 02a5 06       		.byte	0x6
 3848 02a6 F502     		.2byte	0x2f5
 3849 02a8 F1000000 		.4byte	0xf1
 3850 02ac 02       		.byte	0x2
 3851 02ad 23       		.byte	0x23
 3852 02ae 68       		.uleb128 0x68
 3853 02af 09       		.uleb128 0x9
 3854 02b0 46050000 		.4byte	.LASF45
 3855 02b4 06       		.byte	0x6
 3856 02b5 F602     		.2byte	0x2f6
 3857 02b7 CE000000 		.4byte	0xce
 3858 02bb 02       		.byte	0x2
 3859 02bc 23       		.byte	0x23
 3860 02bd 70       		.uleb128 0x70
 3861 02be 0B       		.uleb128 0xb
 3862 02bf 43535200 		.ascii	"CSR\000"
 3863 02c3 06       		.byte	0x6
 3864 02c4 F702     		.2byte	0x2f7
 3865 02c6 CE000000 		.4byte	0xce
ARM GAS  /tmp/ccZUWmXH.s 			page 69


 3866 02ca 02       		.byte	0x2
 3867 02cb 23       		.byte	0x23
 3868 02cc 74       		.uleb128 0x74
 3869 02cd 09       		.uleb128 0x9
 3870 02ce 05040000 		.4byte	.LASF46
 3871 02d2 06       		.byte	0x6
 3872 02d3 F802     		.2byte	0x2f8
 3873 02d5 F1000000 		.4byte	0xf1
 3874 02d9 02       		.byte	0x2
 3875 02da 23       		.byte	0x23
 3876 02db 78       		.uleb128 0x78
 3877 02dc 09       		.uleb128 0x9
 3878 02dd 85050000 		.4byte	.LASF47
 3879 02e1 06       		.byte	0x6
 3880 02e2 F902     		.2byte	0x2f9
 3881 02e4 CE000000 		.4byte	0xce
 3882 02e8 03       		.byte	0x3
 3883 02e9 23       		.byte	0x23
 3884 02ea 8001     		.uleb128 0x80
 3885 02ec 09       		.uleb128 0x9
 3886 02ed 70020000 		.4byte	.LASF48
 3887 02f1 06       		.byte	0x6
 3888 02f2 FA02     		.2byte	0x2fa
 3889 02f4 CE000000 		.4byte	0xce
 3890 02f8 03       		.byte	0x3
 3891 02f9 23       		.byte	0x23
 3892 02fa 8401     		.uleb128 0x84
 3893 02fc 00       		.byte	0
 3894 02fd 0A       		.uleb128 0xa
 3895 02fe 24020000 		.4byte	.LASF49
 3896 0302 06       		.byte	0x6
 3897 0303 FB02     		.2byte	0x2fb
 3898 0305 30010000 		.4byte	0x130
 3899 0309 0C       		.uleb128 0xc
 3900 030a 04       		.byte	0x4
 3901 030b 07       		.byte	0x7
 3902 030c 96       		.byte	0x96
 3903 030d 2E030000 		.4byte	0x32e
 3904 0311 0D       		.uleb128 0xd
 3905 0312 73657400 		.ascii	"set\000"
 3906 0316 07       		.byte	0x7
 3907 0317 97       		.byte	0x97
 3908 0318 62000000 		.4byte	0x62
 3909 031c 02       		.byte	0x2
 3910 031d 23       		.byte	0x23
 3911 031e 00       		.uleb128 0
 3912 031f 0E       		.uleb128 0xe
 3913 0320 34030000 		.4byte	.LASF50
 3914 0324 07       		.byte	0x7
 3915 0325 98       		.byte	0x98
 3916 0326 62000000 		.4byte	0x62
 3917 032a 02       		.byte	0x2
 3918 032b 23       		.byte	0x23
 3919 032c 02       		.uleb128 0x2
 3920 032d 00       		.byte	0
 3921 032e 0F       		.uleb128 0xf
 3922 032f 04       		.byte	0x4
ARM GAS  /tmp/ccZUWmXH.s 			page 70


 3923 0330 07       		.byte	0x7
 3924 0331 94       		.byte	0x94
 3925 0332 49030000 		.4byte	0x349
 3926 0336 10       		.uleb128 0x10
 3927 0337 5700     		.ascii	"W\000"
 3928 0339 07       		.byte	0x7
 3929 033a 95       		.byte	0x95
 3930 033b 86000000 		.4byte	0x86
 3931 033f 10       		.uleb128 0x10
 3932 0340 4800     		.ascii	"H\000"
 3933 0342 07       		.byte	0x7
 3934 0343 99       		.byte	0x99
 3935 0344 09030000 		.4byte	0x309
 3936 0348 00       		.byte	0
 3937 0349 0C       		.uleb128 0xc
 3938 034a 28       		.byte	0x28
 3939 034b 07       		.byte	0x7
 3940 034c 8C       		.byte	0x8c
 3941 034d DE030000 		.4byte	0x3de
 3942 0351 0E       		.uleb128 0xe
 3943 0352 74000000 		.4byte	.LASF51
 3944 0356 07       		.byte	0x7
 3945 0357 8E       		.byte	0x8e
 3946 0358 CE000000 		.4byte	0xce
 3947 035c 02       		.byte	0x2
 3948 035d 23       		.byte	0x23
 3949 035e 00       		.uleb128 0
 3950 035f 0E       		.uleb128 0xe
 3951 0360 64000000 		.4byte	.LASF52
 3952 0364 07       		.byte	0x7
 3953 0365 8F       		.byte	0x8f
 3954 0366 CE000000 		.4byte	0xce
 3955 036a 02       		.byte	0x2
 3956 036b 23       		.byte	0x23
 3957 036c 04       		.uleb128 0x4
 3958 036d 0E       		.uleb128 0xe
 3959 036e 93010000 		.4byte	.LASF53
 3960 0372 07       		.byte	0x7
 3961 0373 90       		.byte	0x90
 3962 0374 CE000000 		.4byte	0xce
 3963 0378 02       		.byte	0x2
 3964 0379 23       		.byte	0x23
 3965 037a 08       		.uleb128 0x8
 3966 037b 0E       		.uleb128 0xe
 3967 037c 0E000000 		.4byte	.LASF54
 3968 0380 07       		.byte	0x7
 3969 0381 91       		.byte	0x91
 3970 0382 CE000000 		.4byte	0xce
 3971 0386 02       		.byte	0x2
 3972 0387 23       		.byte	0x23
 3973 0388 0C       		.uleb128 0xc
 3974 0389 0D       		.uleb128 0xd
 3975 038a 49445200 		.ascii	"IDR\000"
 3976 038e 07       		.byte	0x7
 3977 038f 92       		.byte	0x92
 3978 0390 CE000000 		.4byte	0xce
 3979 0394 02       		.byte	0x2
ARM GAS  /tmp/ccZUWmXH.s 			page 71


 3980 0395 23       		.byte	0x23
 3981 0396 10       		.uleb128 0x10
 3982 0397 0D       		.uleb128 0xd
 3983 0398 4F445200 		.ascii	"ODR\000"
 3984 039c 07       		.byte	0x7
 3985 039d 93       		.byte	0x93
 3986 039e CE000000 		.4byte	0xce
 3987 03a2 02       		.byte	0x2
 3988 03a3 23       		.byte	0x23
 3989 03a4 14       		.uleb128 0x14
 3990 03a5 0E       		.uleb128 0xe
 3991 03a6 E4000000 		.4byte	.LASF55
 3992 03aa 07       		.byte	0x7
 3993 03ab 9A       		.byte	0x9a
 3994 03ac DE030000 		.4byte	0x3de
 3995 03b0 02       		.byte	0x2
 3996 03b1 23       		.byte	0x23
 3997 03b2 18       		.uleb128 0x18
 3998 03b3 0E       		.uleb128 0xe
 3999 03b4 14000000 		.4byte	.LASF56
 4000 03b8 07       		.byte	0x7
 4001 03b9 9B       		.byte	0x9b
 4002 03ba CE000000 		.4byte	0xce
 4003 03be 02       		.byte	0x2
 4004 03bf 23       		.byte	0x23
 4005 03c0 1C       		.uleb128 0x1c
 4006 03c1 0E       		.uleb128 0xe
 4007 03c2 B9030000 		.4byte	.LASF57
 4008 03c6 07       		.byte	0x7
 4009 03c7 9C       		.byte	0x9c
 4010 03c8 CE000000 		.4byte	0xce
 4011 03cc 02       		.byte	0x2
 4012 03cd 23       		.byte	0x23
 4013 03ce 20       		.uleb128 0x20
 4014 03cf 0E       		.uleb128 0xe
 4015 03d0 A6030000 		.4byte	.LASF58
 4016 03d4 07       		.byte	0x7
 4017 03d5 9D       		.byte	0x9d
 4018 03d6 CE000000 		.4byte	0xce
 4019 03da 02       		.byte	0x2
 4020 03db 23       		.byte	0x23
 4021 03dc 24       		.uleb128 0x24
 4022 03dd 00       		.byte	0
 4023 03de 05       		.uleb128 0x5
 4024 03df 2E030000 		.4byte	0x32e
 4025 03e3 04       		.uleb128 0x4
 4026 03e4 0F020000 		.4byte	.LASF59
 4027 03e8 07       		.byte	0x7
 4028 03e9 9E       		.byte	0x9e
 4029 03ea 49030000 		.4byte	0x349
 4030 03ee 04       		.uleb128 0x4
 4031 03ef 3A030000 		.4byte	.LASF60
 4032 03f3 07       		.byte	0x7
 4033 03f4 E8       		.byte	0xe8
 4034 03f5 86000000 		.4byte	0x86
 4035 03f9 04       		.uleb128 0x4
 4036 03fa 11060000 		.4byte	.LASF61
ARM GAS  /tmp/ccZUWmXH.s 			page 72


 4037 03fe 07       		.byte	0x7
 4038 03ff ED       		.byte	0xed
 4039 0400 86000000 		.4byte	0x86
 4040 0404 04       		.uleb128 0x4
 4041 0405 3B050000 		.4byte	.LASF62
 4042 0409 07       		.byte	0x7
 4043 040a F5       		.byte	0xf5
 4044 040b 0F040000 		.4byte	0x40f
 4045 040f 11       		.uleb128 0x11
 4046 0410 04       		.byte	0x4
 4047 0411 E3030000 		.4byte	0x3e3
 4048 0415 0C       		.uleb128 0xc
 4049 0416 0C       		.byte	0xc
 4050 0417 08       		.byte	0x8
 4051 0418 7E       		.byte	0x7e
 4052 0419 48040000 		.4byte	0x448
 4053 041d 0E       		.uleb128 0xe
 4054 041e 9F030000 		.4byte	.LASF63
 4055 0422 08       		.byte	0x8
 4056 0423 82       		.byte	0x82
 4057 0424 04040000 		.4byte	0x404
 4058 0428 02       		.byte	0x2
 4059 0429 23       		.byte	0x23
 4060 042a 00       		.uleb128 0
 4061 042b 0E       		.uleb128 0xe
 4062 042c 9B010000 		.4byte	.LASF64
 4063 0430 08       		.byte	0x8
 4064 0431 88       		.byte	0x88
 4065 0432 EE030000 		.4byte	0x3ee
 4066 0436 02       		.byte	0x2
 4067 0437 23       		.byte	0x23
 4068 0438 04       		.uleb128 0x4
 4069 0439 0E       		.uleb128 0xe
 4070 043a 2C050000 		.4byte	.LASF65
 4071 043e 08       		.byte	0x8
 4072 043f 8C       		.byte	0x8c
 4073 0440 A6000000 		.4byte	0xa6
 4074 0444 02       		.byte	0x2
 4075 0445 23       		.byte	0x23
 4076 0446 08       		.uleb128 0x8
 4077 0447 00       		.byte	0
 4078 0448 04       		.uleb128 0x4
 4079 0449 B8010000 		.4byte	.LASF66
 4080 044d 08       		.byte	0x8
 4081 044e 8D       		.byte	0x8d
 4082 044f 15040000 		.4byte	0x415
 4083 0453 04       		.uleb128 0x4
 4084 0454 8C040000 		.4byte	.LASF67
 4085 0458 09       		.byte	0x9
 4086 0459 24       		.byte	0x24
 4087 045a C3000000 		.4byte	0xc3
 4088 045e 04       		.uleb128 0x4
 4089 045f 6D030000 		.4byte	.LASF68
 4090 0463 0A       		.byte	0xa
 4091 0464 23       		.byte	0x23
 4092 0465 50000000 		.4byte	0x50
 4093 0469 12       		.uleb128 0x12
ARM GAS  /tmp/ccZUWmXH.s 			page 73


 4094 046a 57030000 		.4byte	.LASF74
 4095 046e 01       		.byte	0x1
 4096 046f 0A       		.byte	0xa
 4097 0470 46       		.byte	0x46
 4098 0471 8E040000 		.4byte	0x48e
 4099 0475 13       		.uleb128 0x13
 4100 0476 93050000 		.4byte	.LASF69
 4101 047a 00       		.sleb128 0
 4102 047b 13       		.uleb128 0x13
 4103 047c BE040000 		.4byte	.LASF70
 4104 0480 01       		.sleb128 1
 4105 0481 13       		.uleb128 0x13
 4106 0482 00060000 		.4byte	.LASF71
 4107 0486 02       		.sleb128 2
 4108 0487 13       		.uleb128 0x13
 4109 0488 3A040000 		.4byte	.LASF72
 4110 048c 03       		.sleb128 3
 4111 048d 00       		.byte	0
 4112 048e 04       		.uleb128 0x4
 4113 048f E1050000 		.4byte	.LASF73
 4114 0493 0A       		.byte	0xa
 4115 0494 46       		.byte	0x46
 4116 0495 69040000 		.4byte	0x469
 4117 0499 12       		.uleb128 0x12
 4118 049a 75030000 		.4byte	.LASF75
 4119 049e 01       		.byte	0x1
 4120 049f 0A       		.byte	0xa
 4121 04a0 4A       		.byte	0x4a
 4122 04a1 BE040000 		.4byte	0x4be
 4123 04a5 13       		.uleb128 0x13
 4124 04a6 D7010000 		.4byte	.LASF76
 4125 04aa 00       		.sleb128 0
 4126 04ab 13       		.uleb128 0x13
 4127 04ac CE050000 		.4byte	.LASF77
 4128 04b0 01       		.sleb128 1
 4129 04b1 13       		.uleb128 0x13
 4130 04b2 2B040000 		.4byte	.LASF78
 4131 04b6 02       		.sleb128 2
 4132 04b7 13       		.uleb128 0x13
 4133 04b8 30020000 		.4byte	.LASF79
 4134 04bc 03       		.sleb128 3
 4135 04bd 00       		.byte	0
 4136 04be 04       		.uleb128 0x4
 4137 04bf 7B020000 		.4byte	.LASF80
 4138 04c3 0A       		.byte	0xa
 4139 04c4 4A       		.byte	0x4a
 4140 04c5 99040000 		.4byte	0x499
 4141 04c9 14       		.uleb128 0x14
 4142 04ca 00000000 		.4byte	.LASF132
 4143 04ce 08       		.byte	0x8
 4144 04cf 0A       		.byte	0xa
 4145 04d0 51       		.byte	0x51
 4146 04d1 2A050000 		.4byte	0x52a
 4147 04d5 0E       		.uleb128 0xe
 4148 04d6 FA050000 		.4byte	.LASF81
 4149 04da 0A       		.byte	0xa
 4150 04db 52       		.byte	0x52
ARM GAS  /tmp/ccZUWmXH.s 			page 74


 4151 04dc 5E040000 		.4byte	0x45e
 4152 04e0 02       		.byte	0x2
 4153 04e1 23       		.byte	0x23
 4154 04e2 00       		.uleb128 0
 4155 04e3 0E       		.uleb128 0xe
 4156 04e4 51000000 		.4byte	.LASF82
 4157 04e8 0A       		.byte	0xa
 4158 04e9 53       		.byte	0x53
 4159 04ea 5E040000 		.4byte	0x45e
 4160 04ee 02       		.byte	0x2
 4161 04ef 23       		.byte	0x23
 4162 04f0 02       		.uleb128 0x2
 4163 04f1 0E       		.uleb128 0xe
 4164 04f2 F9000000 		.4byte	.LASF83
 4165 04f6 0A       		.byte	0xa
 4166 04f7 54       		.byte	0x54
 4167 04f8 8E040000 		.4byte	0x48e
 4168 04fc 02       		.byte	0x2
 4169 04fd 23       		.byte	0x23
 4170 04fe 04       		.uleb128 0x4
 4171 04ff 0E       		.uleb128 0xe
 4172 0500 FA040000 		.4byte	.LASF84
 4173 0504 0A       		.byte	0xa
 4174 0505 55       		.byte	0x55
 4175 0506 BE040000 		.4byte	0x4be
 4176 050a 02       		.byte	0x2
 4177 050b 23       		.byte	0x23
 4178 050c 05       		.uleb128 0x5
 4179 050d 0E       		.uleb128 0xe
 4180 050e B4040000 		.4byte	.LASF85
 4181 0512 0A       		.byte	0xa
 4182 0513 56       		.byte	0x56
 4183 0514 3E000000 		.4byte	0x3e
 4184 0518 02       		.byte	0x2
 4185 0519 23       		.byte	0x23
 4186 051a 06       		.uleb128 0x6
 4187 051b 0E       		.uleb128 0xe
 4188 051c F4010000 		.4byte	.LASF86
 4189 0520 0A       		.byte	0xa
 4190 0521 57       		.byte	0x57
 4191 0522 3E000000 		.4byte	0x3e
 4192 0526 02       		.byte	0x2
 4193 0527 23       		.byte	0x23
 4194 0528 07       		.uleb128 0x7
 4195 0529 00       		.byte	0
 4196 052a 04       		.uleb128 0x4
 4197 052b BE010000 		.4byte	.LASF87
 4198 052f 0A       		.byte	0xa
 4199 0530 5C       		.byte	0x5c
 4200 0531 C9040000 		.4byte	0x4c9
 4201 0535 04       		.uleb128 0x4
 4202 0536 0E030000 		.4byte	.LASF88
 4203 053a 0A       		.byte	0xa
 4204 053b DB       		.byte	0xdb
 4205 053c 62000000 		.4byte	0x62
 4206 0540 0A       		.uleb128 0xa
 4207 0541 8B050000 		.4byte	.LASF89
ARM GAS  /tmp/ccZUWmXH.s 			page 75


 4208 0545 0A       		.byte	0xa
 4209 0546 2701     		.2byte	0x127
 4210 0548 35050000 		.4byte	0x535
 4211 054c 15       		.uleb128 0x15
 4212 054d 96020000 		.4byte	.LASF90
 4213 0551 02       		.byte	0x2
 4214 0552 72       		.byte	0x72
 4215 0553 01       		.byte	0x1
 4216 0554 03       		.byte	0x3
 4217 0555 65050000 		.4byte	0x565
 4218 0559 16       		.uleb128 0x16
 4219 055a D9040000 		.4byte	.LASF92
 4220 055e 02       		.byte	0x2
 4221 055f 72       		.byte	0x72
 4222 0560 3E000000 		.4byte	0x3e
 4223 0564 00       		.byte	0
 4224 0565 15       		.uleb128 0x15
 4225 0566 73050000 		.4byte	.LASF91
 4226 056a 02       		.byte	0x2
 4227 056b 90       		.byte	0x90
 4228 056c 01       		.byte	0x1
 4229 056d 03       		.byte	0x3
 4230 056e 7E050000 		.4byte	0x57e
 4231 0572 16       		.uleb128 0x16
 4232 0573 F4040000 		.4byte	.LASF93
 4233 0577 02       		.byte	0x2
 4234 0578 90       		.byte	0x90
 4235 0579 62000000 		.4byte	0x62
 4236 057d 00       		.byte	0
 4237 057e 15       		.uleb128 0x15
 4238 057f AD000000 		.4byte	.LASF94
 4239 0583 02       		.byte	0x2
 4240 0584 99       		.byte	0x99
 4241 0585 01       		.byte	0x1
 4242 0586 03       		.byte	0x3
 4243 0587 97050000 		.4byte	0x597
 4244 058b 16       		.uleb128 0x16
 4245 058c 4E020000 		.4byte	.LASF95
 4246 0590 02       		.byte	0x2
 4247 0591 99       		.byte	0x99
 4248 0592 62000000 		.4byte	0x62
 4249 0596 00       		.byte	0
 4250 0597 15       		.uleb128 0x15
 4251 0598 AD010000 		.4byte	.LASF96
 4252 059c 01       		.byte	0x1
 4253 059d 32       		.byte	0x32
 4254 059e 01       		.byte	0x1
 4255 059f 03       		.byte	0x3
 4256 05a0 B7050000 		.4byte	0x5b7
 4257 05a4 17       		.uleb128 0x17
 4258 05a5 7800     		.ascii	"x\000"
 4259 05a7 01       		.byte	0x1
 4260 05a8 32       		.byte	0x32
 4261 05a9 5E040000 		.4byte	0x45e
 4262 05ad 17       		.uleb128 0x17
 4263 05ae 7900     		.ascii	"y\000"
 4264 05b0 01       		.byte	0x1
ARM GAS  /tmp/ccZUWmXH.s 			page 76


 4265 05b1 32       		.byte	0x32
 4266 05b2 5E040000 		.4byte	0x45e
 4267 05b6 00       		.byte	0
 4268 05b7 15       		.uleb128 0x15
 4269 05b8 A0010000 		.4byte	.LASF97
 4270 05bc 02       		.byte	0x2
 4271 05bd 64       		.byte	0x64
 4272 05be 01       		.byte	0x1
 4273 05bf 03       		.byte	0x3
 4274 05c0 D0050000 		.4byte	0x5d0
 4275 05c4 16       		.uleb128 0x16
 4276 05c5 05010000 		.4byte	.LASF98
 4277 05c9 02       		.byte	0x2
 4278 05ca 64       		.byte	0x64
 4279 05cb B1000000 		.4byte	0xb1
 4280 05cf 00       		.byte	0
 4281 05d0 18       		.uleb128 0x18
 4282 05d1 58000000 		.4byte	.LASF99
 4283 05d5 02       		.byte	0x2
 4284 05d6 7C       		.byte	0x7c
 4285 05d7 01       		.byte	0x1
 4286 05d8 03       		.byte	0x3
 4287 05d9 18       		.uleb128 0x18
 4288 05da 50040000 		.4byte	.LASF100
 4289 05de 02       		.byte	0x2
 4290 05df 85       		.byte	0x85
 4291 05e0 01       		.byte	0x1
 4292 05e1 03       		.byte	0x3
 4293 05e2 19       		.uleb128 0x19
 4294 05e3 73010000 		.4byte	.LASF133
 4295 05e7 01       		.byte	0x1
 4296 05e8 4B       		.byte	0x4b
 4297 05e9 01       		.byte	0x1
 4298 05ea 00000000 		.4byte	.LFB130
 4299 05ee BC010000 		.4byte	.LFE130
 4300 05f2 00000000 		.4byte	.LLST0
 4301 05f6 01       		.byte	0x1
 4302 05f7 F20A0000 		.4byte	0xaf2
 4303 05fb 1A       		.uleb128 0x1a
 4304 05fc 7800     		.ascii	"x\000"
 4305 05fe 01       		.byte	0x1
 4306 05ff 4B       		.byte	0x4b
 4307 0600 5E040000 		.4byte	0x45e
 4308 0604 20000000 		.4byte	.LLST1
 4309 0608 1A       		.uleb128 0x1a
 4310 0609 7900     		.ascii	"y\000"
 4311 060b 01       		.byte	0x1
 4312 060c 4B       		.byte	0x4b
 4313 060d 5E040000 		.4byte	0x45e
 4314 0611 EA000000 		.4byte	.LLST2
 4315 0615 1A       		.uleb128 0x1a
 4316 0616 637800   		.ascii	"cx\000"
 4317 0619 01       		.byte	0x1
 4318 061a 4B       		.byte	0x4b
 4319 061b 5E040000 		.4byte	0x45e
 4320 061f A9010000 		.4byte	.LLST3
 4321 0623 1A       		.uleb128 0x1a
ARM GAS  /tmp/ccZUWmXH.s 			page 77


 4322 0624 637900   		.ascii	"cy\000"
 4323 0627 01       		.byte	0x1
 4324 0628 4B       		.byte	0x4b
 4325 0629 5E040000 		.4byte	0x45e
 4326 062d 47020000 		.4byte	.LLST4
 4327 0631 1B       		.uleb128 0x1b
 4328 0632 7E050000 		.4byte	0x57e
 4329 0636 1C000000 		.4byte	.LBB428
 4330 063a 00000000 		.4byte	.Ldebug_ranges0+0
 4331 063e 01       		.byte	0x1
 4332 063f 5F       		.byte	0x5f
 4333 0640 4E060000 		.4byte	0x64e
 4334 0644 1C       		.uleb128 0x1c
 4335 0645 8B050000 		.4byte	0x58b
 4336 0649 CC020000 		.4byte	.LLST5
 4337 064d 00       		.byte	0
 4338 064e 1B       		.uleb128 0x1b
 4339 064f 65050000 		.4byte	0x565
 4340 0653 1E000000 		.4byte	.LBB432
 4341 0657 20000000 		.4byte	.Ldebug_ranges0+0x20
 4342 065b 01       		.byte	0x1
 4343 065c 5F       		.byte	0x5f
 4344 065d 6B060000 		.4byte	0x66b
 4345 0661 1C       		.uleb128 0x1c
 4346 0662 72050000 		.4byte	0x572
 4347 0666 DF020000 		.4byte	.LLST6
 4348 066a 00       		.byte	0
 4349 066b 1D       		.uleb128 0x1d
 4350 066c 65050000 		.4byte	0x565
 4351 0670 38000000 		.4byte	.LBB438
 4352 0674 3C000000 		.4byte	.LBE438
 4353 0678 01       		.byte	0x1
 4354 0679 60       		.byte	0x60
 4355 067a 88060000 		.4byte	0x688
 4356 067e 1C       		.uleb128 0x1c
 4357 067f 72050000 		.4byte	0x572
 4358 0683 F4020000 		.4byte	.LLST7
 4359 0687 00       		.byte	0
 4360 0688 1B       		.uleb128 0x1b
 4361 0689 65050000 		.4byte	0x565
 4362 068d 40000000 		.4byte	.LBB440
 4363 0691 38000000 		.4byte	.Ldebug_ranges0+0x38
 4364 0695 01       		.byte	0x1
 4365 0696 61       		.byte	0x61
 4366 0697 A5060000 		.4byte	0x6a5
 4367 069b 1C       		.uleb128 0x1c
 4368 069c 72050000 		.4byte	0x572
 4369 06a0 09030000 		.4byte	.LLST8
 4370 06a4 00       		.byte	0
 4371 06a5 1D       		.uleb128 0x1d
 4372 06a6 7E050000 		.4byte	0x57e
 4373 06aa 42000000 		.4byte	.LBB443
 4374 06ae 44000000 		.4byte	.LBE443
 4375 06b2 01       		.byte	0x1
 4376 06b3 60       		.byte	0x60
 4377 06b4 C2060000 		.4byte	0x6c2
 4378 06b8 1C       		.uleb128 0x1c
ARM GAS  /tmp/ccZUWmXH.s 			page 78


 4379 06b9 8B050000 		.4byte	0x58b
 4380 06bd 1E030000 		.4byte	.LLST9
 4381 06c1 00       		.byte	0
 4382 06c2 1D       		.uleb128 0x1d
 4383 06c3 7E050000 		.4byte	0x57e
 4384 06c7 46000000 		.4byte	.LBB446
 4385 06cb 48000000 		.4byte	.LBE446
 4386 06cf 01       		.byte	0x1
 4387 06d0 61       		.byte	0x61
 4388 06d1 DF060000 		.4byte	0x6df
 4389 06d5 1C       		.uleb128 0x1c
 4390 06d6 8B050000 		.4byte	0x58b
 4391 06da 31030000 		.4byte	.LLST10
 4392 06de 00       		.byte	0
 4393 06df 1B       		.uleb128 0x1b
 4394 06e0 97050000 		.4byte	0x597
 4395 06e4 48000000 		.4byte	.LBB448
 4396 06e8 50000000 		.4byte	.Ldebug_ranges0+0x50
 4397 06ec 01       		.byte	0x1
 4398 06ed 6F       		.byte	0x6f
 4399 06ee EB080000 		.4byte	0x8eb
 4400 06f2 1C       		.uleb128 0x1c
 4401 06f3 AD050000 		.4byte	0x5ad
 4402 06f7 44030000 		.4byte	.LLST11
 4403 06fb 1C       		.uleb128 0x1c
 4404 06fc A4050000 		.4byte	0x5a4
 4405 0700 6D030000 		.4byte	.LLST12
 4406 0704 1B       		.uleb128 0x1b
 4407 0705 7E050000 		.4byte	0x57e
 4408 0709 48000000 		.4byte	.LBB450
 4409 070d 78000000 		.4byte	.Ldebug_ranges0+0x78
 4410 0711 01       		.byte	0x1
 4411 0712 41       		.byte	0x41
 4412 0713 21070000 		.4byte	0x721
 4413 0717 1C       		.uleb128 0x1c
 4414 0718 8B050000 		.4byte	0x58b
 4415 071c A1030000 		.4byte	.LLST13
 4416 0720 00       		.byte	0
 4417 0721 1B       		.uleb128 0x1b
 4418 0722 65050000 		.4byte	0x565
 4419 0726 4A000000 		.4byte	.LBB454
 4420 072a 98000000 		.4byte	.Ldebug_ranges0+0x98
 4421 072e 01       		.byte	0x1
 4422 072f 41       		.byte	0x41
 4423 0730 3E070000 		.4byte	0x73e
 4424 0734 1C       		.uleb128 0x1c
 4425 0735 72050000 		.4byte	0x572
 4426 0739 B4030000 		.4byte	.LLST14
 4427 073d 00       		.byte	0
 4428 073e 1D       		.uleb128 0x1d
 4429 073f 65050000 		.4byte	0x565
 4430 0743 5A000000 		.4byte	.LBB460
 4431 0747 5E000000 		.4byte	.LBE460
 4432 074b 01       		.byte	0x1
 4433 074c 42       		.byte	0x42
 4434 074d 5B070000 		.4byte	0x75b
 4435 0751 1C       		.uleb128 0x1c
ARM GAS  /tmp/ccZUWmXH.s 			page 79


 4436 0752 72050000 		.4byte	0x572
 4437 0756 C9030000 		.4byte	.LLST15
 4438 075a 00       		.byte	0
 4439 075b 1D       		.uleb128 0x1d
 4440 075c 7E050000 		.4byte	0x57e
 4441 0760 5E000000 		.4byte	.LBB462
 4442 0764 60000000 		.4byte	.LBE462
 4443 0768 01       		.byte	0x1
 4444 0769 42       		.byte	0x42
 4445 076a 78070000 		.4byte	0x778
 4446 076e 1C       		.uleb128 0x1c
 4447 076f 8B050000 		.4byte	0x58b
 4448 0773 DE030000 		.4byte	.LLST16
 4449 0777 00       		.byte	0
 4450 0778 1B       		.uleb128 0x1b
 4451 0779 65050000 		.4byte	0x565
 4452 077d AA000000 		.4byte	.LBB464
 4453 0781 B0000000 		.4byte	.Ldebug_ranges0+0xb0
 4454 0785 01       		.byte	0x1
 4455 0786 39       		.byte	0x39
 4456 0787 95070000 		.4byte	0x795
 4457 078b 1C       		.uleb128 0x1c
 4458 078c 72050000 		.4byte	0x572
 4459 0790 F1030000 		.4byte	.LLST17
 4460 0794 00       		.byte	0
 4461 0795 1B       		.uleb128 0x1b
 4462 0796 7E050000 		.4byte	0x57e
 4463 079a B2000000 		.4byte	.LBB467
 4464 079e C8000000 		.4byte	.Ldebug_ranges0+0xc8
 4465 07a2 01       		.byte	0x1
 4466 07a3 39       		.byte	0x39
 4467 07a4 B2070000 		.4byte	0x7b2
 4468 07a8 1C       		.uleb128 0x1c
 4469 07a9 8B050000 		.4byte	0x58b
 4470 07ad 06040000 		.4byte	.LLST18
 4471 07b1 00       		.byte	0
 4472 07b2 1B       		.uleb128 0x1b
 4473 07b3 65050000 		.4byte	0x565
 4474 07b7 BE000000 		.4byte	.LBB471
 4475 07bb E0000000 		.4byte	.Ldebug_ranges0+0xe0
 4476 07bf 01       		.byte	0x1
 4477 07c0 3A       		.byte	0x3a
 4478 07c1 CF070000 		.4byte	0x7cf
 4479 07c5 1C       		.uleb128 0x1c
 4480 07c6 72050000 		.4byte	0x572
 4481 07ca 19040000 		.4byte	.LLST19
 4482 07ce 00       		.byte	0
 4483 07cf 1D       		.uleb128 0x1d
 4484 07d0 7E050000 		.4byte	0x57e
 4485 07d4 C4000000 		.4byte	.LBB476
 4486 07d8 C8000000 		.4byte	.LBE476
 4487 07dc 01       		.byte	0x1
 4488 07dd 3A       		.byte	0x3a
 4489 07de EC070000 		.4byte	0x7ec
 4490 07e2 1C       		.uleb128 0x1c
 4491 07e3 8B050000 		.4byte	0x58b
 4492 07e7 2E040000 		.4byte	.LLST20
ARM GAS  /tmp/ccZUWmXH.s 			page 80


 4493 07eb 00       		.byte	0
 4494 07ec 1D       		.uleb128 0x1d
 4495 07ed 97050000 		.4byte	0x597
 4496 07f1 0E010000 		.4byte	.LBB478
 4497 07f5 2C010000 		.4byte	.LBE478
 4498 07f9 01       		.byte	0x1
 4499 07fa 4B       		.byte	0x4b
 4500 07fb 7A080000 		.4byte	0x87a
 4501 07ff 1E       		.uleb128 0x1e
 4502 0800 AD050000 		.4byte	0x5ad
 4503 0804 1E       		.uleb128 0x1e
 4504 0805 A4050000 		.4byte	0x5a4
 4505 0809 1B       		.uleb128 0x1b
 4506 080a 65050000 		.4byte	0x565
 4507 080e 0E010000 		.4byte	.LBB480
 4508 0812 F8000000 		.4byte	.Ldebug_ranges0+0xf8
 4509 0816 01       		.byte	0x1
 4510 0817 45       		.byte	0x45
 4511 0818 26080000 		.4byte	0x826
 4512 081c 1C       		.uleb128 0x1c
 4513 081d 72050000 		.4byte	0x572
 4514 0821 41040000 		.4byte	.LLST21
 4515 0825 00       		.byte	0
 4516 0826 1B       		.uleb128 0x1b
 4517 0827 7E050000 		.4byte	0x57e
 4518 082b 16010000 		.4byte	.LBB483
 4519 082f 10010000 		.4byte	.Ldebug_ranges0+0x110
 4520 0833 01       		.byte	0x1
 4521 0834 45       		.byte	0x45
 4522 0835 43080000 		.4byte	0x843
 4523 0839 1C       		.uleb128 0x1c
 4524 083a 8B050000 		.4byte	0x58b
 4525 083e 56040000 		.4byte	.LLST22
 4526 0842 00       		.byte	0
 4527 0843 1B       		.uleb128 0x1b
 4528 0844 65050000 		.4byte	0x565
 4529 0848 22010000 		.4byte	.LBB487
 4530 084c 28010000 		.4byte	.Ldebug_ranges0+0x128
 4531 0850 01       		.byte	0x1
 4532 0851 46       		.byte	0x46
 4533 0852 60080000 		.4byte	0x860
 4534 0856 1C       		.uleb128 0x1c
 4535 0857 72050000 		.4byte	0x572
 4536 085b 69040000 		.4byte	.LLST23
 4537 085f 00       		.byte	0
 4538 0860 1F       		.uleb128 0x1f
 4539 0861 7E050000 		.4byte	0x57e
 4540 0865 28010000 		.4byte	.LBB492
 4541 0869 2C010000 		.4byte	.LBE492
 4542 086d 01       		.byte	0x1
 4543 086e 46       		.byte	0x46
 4544 086f 1C       		.uleb128 0x1c
 4545 0870 8B050000 		.4byte	0x58b
 4546 0874 7E040000 		.4byte	.LLST24
 4547 0878 00       		.byte	0
 4548 0879 00       		.byte	0
 4549 087a 1B       		.uleb128 0x1b
ARM GAS  /tmp/ccZUWmXH.s 			page 81


 4550 087b 7E050000 		.4byte	0x57e
 4551 087f 60010000 		.4byte	.LBB494
 4552 0883 40010000 		.4byte	.Ldebug_ranges0+0x140
 4553 0887 01       		.byte	0x1
 4554 0888 3D       		.byte	0x3d
 4555 0889 97080000 		.4byte	0x897
 4556 088d 1C       		.uleb128 0x1c
 4557 088e 8B050000 		.4byte	0x58b
 4558 0892 91040000 		.4byte	.LLST25
 4559 0896 00       		.byte	0
 4560 0897 1B       		.uleb128 0x1b
 4561 0898 65050000 		.4byte	0x565
 4562 089c 62010000 		.4byte	.LBB498
 4563 08a0 60010000 		.4byte	.Ldebug_ranges0+0x160
 4564 08a4 01       		.byte	0x1
 4565 08a5 3D       		.byte	0x3d
 4566 08a6 B4080000 		.4byte	0x8b4
 4567 08aa 1C       		.uleb128 0x1c
 4568 08ab 72050000 		.4byte	0x572
 4569 08af A4040000 		.4byte	.LLST26
 4570 08b3 00       		.byte	0
 4571 08b4 1D       		.uleb128 0x1d
 4572 08b5 65050000 		.4byte	0x565
 4573 08b9 72010000 		.4byte	.LBB504
 4574 08bd 76010000 		.4byte	.LBE504
 4575 08c1 01       		.byte	0x1
 4576 08c2 3E       		.byte	0x3e
 4577 08c3 D1080000 		.4byte	0x8d1
 4578 08c7 1C       		.uleb128 0x1c
 4579 08c8 72050000 		.4byte	0x572
 4580 08cc B9040000 		.4byte	.LLST27
 4581 08d0 00       		.byte	0
 4582 08d1 1F       		.uleb128 0x1f
 4583 08d2 7E050000 		.4byte	0x57e
 4584 08d6 76010000 		.4byte	.LBB506
 4585 08da 7A010000 		.4byte	.LBE506
 4586 08de 01       		.byte	0x1
 4587 08df 3E       		.byte	0x3e
 4588 08e0 1C       		.uleb128 0x1c
 4589 08e1 8B050000 		.4byte	0x58b
 4590 08e5 CE040000 		.4byte	.LLST28
 4591 08e9 00       		.byte	0
 4592 08ea 00       		.byte	0
 4593 08eb 1B       		.uleb128 0x1b
 4594 08ec 7E050000 		.4byte	0x57e
 4595 08f0 78000000 		.4byte	.LBB511
 4596 08f4 78010000 		.4byte	.Ldebug_ranges0+0x178
 4597 08f8 01       		.byte	0x1
 4598 08f9 64       		.byte	0x64
 4599 08fa 08090000 		.4byte	0x908
 4600 08fe 1C       		.uleb128 0x1c
 4601 08ff 8B050000 		.4byte	0x58b
 4602 0903 E1040000 		.4byte	.LLST29
 4603 0907 00       		.byte	0
 4604 0908 1B       		.uleb128 0x1b
 4605 0909 65050000 		.4byte	0x565
 4606 090d 84000000 		.4byte	.LBB514
ARM GAS  /tmp/ccZUWmXH.s 			page 82


 4607 0911 90010000 		.4byte	.Ldebug_ranges0+0x190
 4608 0915 01       		.byte	0x1
 4609 0916 64       		.byte	0x64
 4610 0917 25090000 		.4byte	0x925
 4611 091b 1C       		.uleb128 0x1c
 4612 091c 72050000 		.4byte	0x572
 4613 0920 FF040000 		.4byte	.LLST30
 4614 0924 00       		.byte	0
 4615 0925 1D       		.uleb128 0x1d
 4616 0926 65050000 		.4byte	0x565
 4617 092a 9C000000 		.4byte	.LBB519
 4618 092e A0000000 		.4byte	.LBE519
 4619 0932 01       		.byte	0x1
 4620 0933 65       		.byte	0x65
 4621 0934 42090000 		.4byte	0x942
 4622 0938 1C       		.uleb128 0x1c
 4623 0939 72050000 		.4byte	0x572
 4624 093d 14050000 		.4byte	.LLST31
 4625 0941 00       		.byte	0
 4626 0942 1D       		.uleb128 0x1d
 4627 0943 7E050000 		.4byte	0x57e
 4628 0947 A2000000 		.4byte	.LBB521
 4629 094b A4000000 		.4byte	.LBE521
 4630 094f 01       		.byte	0x1
 4631 0950 65       		.byte	0x65
 4632 0951 5F090000 		.4byte	0x95f
 4633 0955 1C       		.uleb128 0x1c
 4634 0956 8B050000 		.4byte	0x58b
 4635 095a 29050000 		.4byte	.LLST32
 4636 095e 00       		.byte	0
 4637 095f 1D       		.uleb128 0x1d
 4638 0960 65050000 		.4byte	0x565
 4639 0964 A4000000 		.4byte	.LBB523
 4640 0968 A8000000 		.4byte	.LBE523
 4641 096c 01       		.byte	0x1
 4642 096d 66       		.byte	0x66
 4643 096e 7C090000 		.4byte	0x97c
 4644 0972 1C       		.uleb128 0x1c
 4645 0973 72050000 		.4byte	0x572
 4646 0977 3C050000 		.4byte	.LLST33
 4647 097b 00       		.byte	0
 4648 097c 1D       		.uleb128 0x1d
 4649 097d 7E050000 		.4byte	0x57e
 4650 0981 A8000000 		.4byte	.LBB525
 4651 0985 AA000000 		.4byte	.LBE525
 4652 0989 01       		.byte	0x1
 4653 098a 66       		.byte	0x66
 4654 098b 99090000 		.4byte	0x999
 4655 098f 1C       		.uleb128 0x1c
 4656 0990 8B050000 		.4byte	0x58b
 4657 0994 51050000 		.4byte	.LLST34
 4658 0998 00       		.byte	0
 4659 0999 1B       		.uleb128 0x1b
 4660 099a 7E050000 		.4byte	0x57e
 4661 099e DC000000 		.4byte	.LBB528
 4662 09a2 A8010000 		.4byte	.Ldebug_ranges0+0x1a8
 4663 09a6 01       		.byte	0x1
ARM GAS  /tmp/ccZUWmXH.s 			page 83


 4664 09a7 69       		.byte	0x69
 4665 09a8 B6090000 		.4byte	0x9b6
 4666 09ac 1C       		.uleb128 0x1c
 4667 09ad 8B050000 		.4byte	0x58b
 4668 09b1 64050000 		.4byte	.LLST35
 4669 09b5 00       		.byte	0
 4670 09b6 1B       		.uleb128 0x1b
 4671 09b7 65050000 		.4byte	0x565
 4672 09bb E8000000 		.4byte	.LBB531
 4673 09bf C0010000 		.4byte	.Ldebug_ranges0+0x1c0
 4674 09c3 01       		.byte	0x1
 4675 09c4 69       		.byte	0x69
 4676 09c5 D3090000 		.4byte	0x9d3
 4677 09c9 1C       		.uleb128 0x1c
 4678 09ca 72050000 		.4byte	0x572
 4679 09ce 82050000 		.4byte	.LLST36
 4680 09d2 00       		.byte	0
 4681 09d3 1D       		.uleb128 0x1d
 4682 09d4 65050000 		.4byte	0x565
 4683 09d8 00010000 		.4byte	.LBB536
 4684 09dc 04010000 		.4byte	.LBE536
 4685 09e0 01       		.byte	0x1
 4686 09e1 6A       		.byte	0x6a
 4687 09e2 F0090000 		.4byte	0x9f0
 4688 09e6 1C       		.uleb128 0x1c
 4689 09e7 72050000 		.4byte	0x572
 4690 09eb 97050000 		.4byte	.LLST37
 4691 09ef 00       		.byte	0
 4692 09f0 1D       		.uleb128 0x1d
 4693 09f1 7E050000 		.4byte	0x57e
 4694 09f5 06010000 		.4byte	.LBB538
 4695 09f9 08010000 		.4byte	.LBE538
 4696 09fd 01       		.byte	0x1
 4697 09fe 6A       		.byte	0x6a
 4698 09ff 0D0A0000 		.4byte	0xa0d
 4699 0a03 1C       		.uleb128 0x1c
 4700 0a04 8B050000 		.4byte	0x58b
 4701 0a08 AC050000 		.4byte	.LLST38
 4702 0a0c 00       		.byte	0
 4703 0a0d 1D       		.uleb128 0x1d
 4704 0a0e 65050000 		.4byte	0x565
 4705 0a12 08010000 		.4byte	.LBB540
 4706 0a16 0C010000 		.4byte	.LBE540
 4707 0a1a 01       		.byte	0x1
 4708 0a1b 6B       		.byte	0x6b
 4709 0a1c 2A0A0000 		.4byte	0xa2a
 4710 0a20 1C       		.uleb128 0x1c
 4711 0a21 72050000 		.4byte	0x572
 4712 0a25 BF050000 		.4byte	.LLST39
 4713 0a29 00       		.byte	0
 4714 0a2a 1D       		.uleb128 0x1d
 4715 0a2b 7E050000 		.4byte	0x57e
 4716 0a2f 0C010000 		.4byte	.LBB542
 4717 0a33 0E010000 		.4byte	.LBE542
 4718 0a37 01       		.byte	0x1
 4719 0a38 6B       		.byte	0x6b
 4720 0a39 470A0000 		.4byte	0xa47
ARM GAS  /tmp/ccZUWmXH.s 			page 84


 4721 0a3d 1C       		.uleb128 0x1c
 4722 0a3e 8B050000 		.4byte	0x58b
 4723 0a42 D4050000 		.4byte	.LLST40
 4724 0a46 00       		.byte	0
 4725 0a47 1B       		.uleb128 0x1b
 4726 0a48 7E050000 		.4byte	0x57e
 4727 0a4c 34010000 		.4byte	.LBB545
 4728 0a50 D8010000 		.4byte	.Ldebug_ranges0+0x1d8
 4729 0a54 01       		.byte	0x1
 4730 0a55 5A       		.byte	0x5a
 4731 0a56 640A0000 		.4byte	0xa64
 4732 0a5a 1C       		.uleb128 0x1c
 4733 0a5b 8B050000 		.4byte	0x58b
 4734 0a5f E7050000 		.4byte	.LLST41
 4735 0a63 00       		.byte	0
 4736 0a64 1B       		.uleb128 0x1b
 4737 0a65 65050000 		.4byte	0x565
 4738 0a69 40010000 		.4byte	.LBB548
 4739 0a6d F0010000 		.4byte	.Ldebug_ranges0+0x1f0
 4740 0a71 01       		.byte	0x1
 4741 0a72 5A       		.byte	0x5a
 4742 0a73 810A0000 		.4byte	0xa81
 4743 0a77 1C       		.uleb128 0x1c
 4744 0a78 72050000 		.4byte	0x572
 4745 0a7c 05060000 		.4byte	.LLST42
 4746 0a80 00       		.byte	0
 4747 0a81 1D       		.uleb128 0x1d
 4748 0a82 65050000 		.4byte	0x565
 4749 0a86 50010000 		.4byte	.LBB553
 4750 0a8a 54010000 		.4byte	.LBE553
 4751 0a8e 01       		.byte	0x1
 4752 0a8f 5B       		.byte	0x5b
 4753 0a90 9E0A0000 		.4byte	0xa9e
 4754 0a94 1C       		.uleb128 0x1c
 4755 0a95 72050000 		.4byte	0x572
 4756 0a99 1A060000 		.4byte	.LLST43
 4757 0a9d 00       		.byte	0
 4758 0a9e 1B       		.uleb128 0x1b
 4759 0a9f 65050000 		.4byte	0x565
 4760 0aa3 58010000 		.4byte	.LBB555
 4761 0aa7 08020000 		.4byte	.Ldebug_ranges0+0x208
 4762 0aab 01       		.byte	0x1
 4763 0aac 5C       		.byte	0x5c
 4764 0aad BB0A0000 		.4byte	0xabb
 4765 0ab1 1C       		.uleb128 0x1c
 4766 0ab2 72050000 		.4byte	0x572
 4767 0ab6 2F060000 		.4byte	.LLST44
 4768 0aba 00       		.byte	0
 4769 0abb 1D       		.uleb128 0x1d
 4770 0abc 7E050000 		.4byte	0x57e
 4771 0ac0 5A010000 		.4byte	.LBB558
 4772 0ac4 5C010000 		.4byte	.LBE558
 4773 0ac8 01       		.byte	0x1
 4774 0ac9 5B       		.byte	0x5b
 4775 0aca D80A0000 		.4byte	0xad8
 4776 0ace 1C       		.uleb128 0x1c
 4777 0acf 8B050000 		.4byte	0x58b
ARM GAS  /tmp/ccZUWmXH.s 			page 85


 4778 0ad3 44060000 		.4byte	.LLST45
 4779 0ad7 00       		.byte	0
 4780 0ad8 1F       		.uleb128 0x1f
 4781 0ad9 7E050000 		.4byte	0x57e
 4782 0add 5E010000 		.4byte	.LBB561
 4783 0ae1 60010000 		.4byte	.LBE561
 4784 0ae5 01       		.byte	0x1
 4785 0ae6 5C       		.byte	0x5c
 4786 0ae7 1C       		.uleb128 0x1c
 4787 0ae8 8B050000 		.4byte	0x58b
 4788 0aec 57060000 		.4byte	.LLST46
 4789 0af0 00       		.byte	0
 4790 0af1 00       		.byte	0
 4791 0af2 15       		.uleb128 0x15
 4792 0af3 88010000 		.4byte	.LASF101
 4793 0af7 02       		.byte	0x2
 4794 0af8 30       		.byte	0x30
 4795 0af9 01       		.byte	0x1
 4796 0afa 03       		.byte	0x3
 4797 0afb 160B0000 		.4byte	0xb16
 4798 0aff 20       		.uleb128 0x20
 4799 0b00 0E050000 		.4byte	.LASF102
 4800 0b04 02       		.byte	0x2
 4801 0b05 48       		.byte	0x48
 4802 0b06 48040000 		.4byte	0x448
 4803 0b0a 20       		.uleb128 0x20
 4804 0b0b 13050000 		.4byte	.LASF103
 4805 0b0f 02       		.byte	0x2
 4806 0b10 4B       		.byte	0x4b
 4807 0b11 48040000 		.4byte	0x448
 4808 0b15 00       		.byte	0
 4809 0b16 21       		.uleb128 0x21
 4810 0b17 01       		.byte	0x1
 4811 0b18 0B010000 		.4byte	.LASF134
 4812 0b1c 01       		.byte	0x1
 4813 0b1d 89       		.byte	0x89
 4814 0b1e 01       		.byte	0x1
 4815 0b1f B1000000 		.4byte	0xb1
 4816 0b23 00000000 		.4byte	.LFB132
 4817 0b27 08030000 		.4byte	.LFE132
 4818 0b2b 6A060000 		.4byte	.LLST47
 4819 0b2f 01       		.byte	0x1
 4820 0b30 9E170000 		.4byte	0x179e
 4821 0b34 1B       		.uleb128 0x1b
 4822 0b35 F20A0000 		.4byte	0xaf2
 4823 0b39 04000000 		.4byte	.LBB734
 4824 0b3d 20020000 		.4byte	.Ldebug_ranges0+0x220
 4825 0b41 01       		.byte	0x1
 4826 0b42 8B       		.byte	0x8b
 4827 0b43 AF0B0000 		.4byte	0xbaf
 4828 0b47 22       		.uleb128 0x22
 4829 0b48 48020000 		.4byte	.Ldebug_ranges0+0x248
 4830 0b4c 23       		.uleb128 0x23
 4831 0b4d FF0A0000 		.4byte	0xaff
 4832 0b51 02       		.byte	0x2
 4833 0b52 91       		.byte	0x91
 4834 0b53 40       		.sleb128 -64
ARM GAS  /tmp/ccZUWmXH.s 			page 86


 4835 0b54 23       		.uleb128 0x23
 4836 0b55 0A0B0000 		.4byte	0xb0a
 4837 0b59 02       		.byte	0x2
 4838 0b5a 91       		.byte	0x91
 4839 0b5b 4C       		.sleb128 -52
 4840 0b5c 24       		.uleb128 0x24
 4841 0b5d 3E000000 		.4byte	.LVL80
 4842 0b61 61220000 		.4byte	0x2261
 4843 0b65 770B0000 		.4byte	0xb77
 4844 0b69 25       		.uleb128 0x25
 4845 0b6a 01       		.byte	0x1
 4846 0b6b 51       		.byte	0x51
 4847 0b6c 03       		.byte	0x3
 4848 0b6d 0A       		.byte	0xa
 4849 0b6e 0206     		.2byte	0x602
 4850 0b70 25       		.uleb128 0x25
 4851 0b71 01       		.byte	0x1
 4852 0b72 50       		.byte	0x50
 4853 0b73 02       		.byte	0x2
 4854 0b74 75       		.byte	0x75
 4855 0b75 00       		.sleb128 0
 4856 0b76 00       		.byte	0
 4857 0b77 24       		.uleb128 0x24
 4858 0b78 48000000 		.4byte	.LVL81
 4859 0b7c 61220000 		.4byte	0x2261
 4860 0b80 920B0000 		.4byte	0xb92
 4861 0b84 25       		.uleb128 0x25
 4862 0b85 01       		.byte	0x1
 4863 0b86 51       		.byte	0x51
 4864 0b87 03       		.byte	0x3
 4865 0b88 0A       		.byte	0xa
 4866 0b89 0206     		.2byte	0x602
 4867 0b8b 25       		.uleb128 0x25
 4868 0b8c 01       		.byte	0x1
 4869 0b8d 50       		.byte	0x50
 4870 0b8e 02       		.byte	0x2
 4871 0b8f 74       		.byte	0x74
 4872 0b90 00       		.sleb128 0
 4873 0b91 00       		.byte	0
 4874 0b92 26       		.uleb128 0x26
 4875 0b93 7A000000 		.4byte	.LVL82
 4876 0b97 81220000 		.4byte	0x2281
 4877 0b9b 25       		.uleb128 0x25
 4878 0b9c 01       		.byte	0x1
 4879 0b9d 52       		.byte	0x52
 4880 0b9e 01       		.byte	0x1
 4881 0b9f 49       		.byte	0x49
 4882 0ba0 25       		.uleb128 0x25
 4883 0ba1 01       		.byte	0x1
 4884 0ba2 51       		.byte	0x51
 4885 0ba3 02       		.byte	0x2
 4886 0ba4 78       		.byte	0x78
 4887 0ba5 00       		.sleb128 0
 4888 0ba6 25       		.uleb128 0x25
 4889 0ba7 01       		.byte	0x1
 4890 0ba8 50       		.byte	0x50
 4891 0ba9 02       		.byte	0x2
ARM GAS  /tmp/ccZUWmXH.s 			page 87


 4892 0baa 76       		.byte	0x76
 4893 0bab 00       		.sleb128 0
 4894 0bac 00       		.byte	0
 4895 0bad 00       		.byte	0
 4896 0bae 00       		.byte	0
 4897 0baf 1B       		.uleb128 0x1b
 4898 0bb0 B7050000 		.4byte	0x5b7
 4899 0bb4 68000000 		.4byte	.LBB740
 4900 0bb8 70020000 		.4byte	.Ldebug_ranges0+0x270
 4901 0bbc 01       		.byte	0x1
 4902 0bbd 8E       		.byte	0x8e
 4903 0bbe C90B0000 		.4byte	0xbc9
 4904 0bc2 27       		.uleb128 0x27
 4905 0bc3 C4050000 		.4byte	0x5c4
 4906 0bc7 01       		.byte	0x1
 4907 0bc8 00       		.byte	0
 4908 0bc9 1B       		.uleb128 0x1b
 4909 0bca 7E050000 		.4byte	0x57e
 4910 0bce 6C000000 		.4byte	.LBB744
 4911 0bd2 88020000 		.4byte	.Ldebug_ranges0+0x288
 4912 0bd6 01       		.byte	0x1
 4913 0bd7 96       		.byte	0x96
 4914 0bd8 E30B0000 		.4byte	0xbe3
 4915 0bdc 27       		.uleb128 0x27
 4916 0bdd 8B050000 		.4byte	0x58b
 4917 0be1 01       		.byte	0x1
 4918 0be2 00       		.byte	0
 4919 0be3 1B       		.uleb128 0x1b
 4920 0be4 65050000 		.4byte	0x565
 4921 0be8 6E000000 		.4byte	.LBB749
 4922 0bec B0020000 		.4byte	.Ldebug_ranges0+0x2b0
 4923 0bf0 01       		.byte	0x1
 4924 0bf1 96       		.byte	0x96
 4925 0bf2 FD0B0000 		.4byte	0xbfd
 4926 0bf6 27       		.uleb128 0x27
 4927 0bf7 72050000 		.4byte	0x572
 4928 0bfb 00       		.byte	0
 4929 0bfc 00       		.byte	0
 4930 0bfd 1D       		.uleb128 0x1d
 4931 0bfe B7050000 		.4byte	0x5b7
 4932 0c02 8C000000 		.4byte	.LBB758
 4933 0c06 90000000 		.4byte	.LBE758
 4934 0c0a 01       		.byte	0x1
 4935 0c0b 90       		.byte	0x90
 4936 0c0c 170C0000 		.4byte	0xc17
 4937 0c10 27       		.uleb128 0x27
 4938 0c11 C4050000 		.4byte	0x5c4
 4939 0c15 00       		.byte	0
 4940 0c16 00       		.byte	0
 4941 0c17 1B       		.uleb128 0x1b
 4942 0c18 65050000 		.4byte	0x565
 4943 0c1c A0000000 		.4byte	.LBB762
 4944 0c20 D0020000 		.4byte	.Ldebug_ranges0+0x2d0
 4945 0c24 01       		.byte	0x1
 4946 0c25 97       		.byte	0x97
 4947 0c26 310C0000 		.4byte	0xc31
 4948 0c2a 27       		.uleb128 0x27
ARM GAS  /tmp/ccZUWmXH.s 			page 88


 4949 0c2b 72050000 		.4byte	0x572
 4950 0c2f 03       		.byte	0x3
 4951 0c30 00       		.byte	0
 4952 0c31 1B       		.uleb128 0x1b
 4953 0c32 7E050000 		.4byte	0x57e
 4954 0c36 A4000000 		.4byte	.LBB765
 4955 0c3a E8020000 		.4byte	.Ldebug_ranges0+0x2e8
 4956 0c3e 01       		.byte	0x1
 4957 0c3f 97       		.byte	0x97
 4958 0c40 4D0C0000 		.4byte	0xc4d
 4959 0c44 28       		.uleb128 0x28
 4960 0c45 8B050000 		.4byte	0x58b
 4961 0c49 A4D17E   		.sleb128 -22364
 4962 0c4c 00       		.byte	0
 4963 0c4d 1D       		.uleb128 0x1d
 4964 0c4e 65050000 		.4byte	0x565
 4965 0c52 B4000000 		.4byte	.LBB770
 4966 0c56 B8000000 		.4byte	.LBE770
 4967 0c5a 01       		.byte	0x1
 4968 0c5b 98       		.byte	0x98
 4969 0c5c 670C0000 		.4byte	0xc67
 4970 0c60 27       		.uleb128 0x27
 4971 0c61 72050000 		.4byte	0x572
 4972 0c65 0C       		.byte	0xc
 4973 0c66 00       		.byte	0
 4974 0c67 1D       		.uleb128 0x1d
 4975 0c68 7E050000 		.4byte	0x57e
 4976 0c6c BA000000 		.4byte	.LBB772
 4977 0c70 BC000000 		.4byte	.LBE772
 4978 0c74 01       		.byte	0x1
 4979 0c75 98       		.byte	0x98
 4980 0c76 810C0000 		.4byte	0xc81
 4981 0c7a 27       		.uleb128 0x27
 4982 0c7b 8B050000 		.4byte	0x58b
 4983 0c7f 00       		.byte	0
 4984 0c80 00       		.byte	0
 4985 0c81 1B       		.uleb128 0x1b
 4986 0c82 7E050000 		.4byte	0x57e
 4987 0c86 C0000000 		.4byte	.LBB774
 4988 0c8a 00030000 		.4byte	.Ldebug_ranges0+0x300
 4989 0c8e 01       		.byte	0x1
 4990 0c8f 99       		.byte	0x99
 4991 0c90 9C0C0000 		.4byte	0xc9c
 4992 0c94 29       		.uleb128 0x29
 4993 0c95 8B050000 		.4byte	0x58b
 4994 0c99 0C08     		.2byte	0x80c
 4995 0c9b 00       		.byte	0
 4996 0c9c 1D       		.uleb128 0x1d
 4997 0c9d 65050000 		.4byte	0x565
 4998 0ca1 C4000000 		.4byte	.LBB777
 4999 0ca5 C8000000 		.4byte	.LBE777
 5000 0ca9 01       		.byte	0x1
 5001 0caa 99       		.byte	0x99
 5002 0cab B60C0000 		.4byte	0xcb6
 5003 0caf 27       		.uleb128 0x27
 5004 0cb0 72050000 		.4byte	0x572
 5005 0cb4 0D       		.byte	0xd
ARM GAS  /tmp/ccZUWmXH.s 			page 89


 5006 0cb5 00       		.byte	0
 5007 0cb6 1B       		.uleb128 0x1b
 5008 0cb7 65050000 		.4byte	0x565
 5009 0cbb D0000000 		.4byte	.LBB780
 5010 0cbf 18030000 		.4byte	.Ldebug_ranges0+0x318
 5011 0cc3 01       		.byte	0x1
 5012 0cc4 9A       		.byte	0x9a
 5013 0cc5 D00C0000 		.4byte	0xcd0
 5014 0cc9 27       		.uleb128 0x27
 5015 0cca 72050000 		.4byte	0x572
 5016 0cce 0E       		.byte	0xe
 5017 0ccf 00       		.byte	0
 5018 0cd0 1B       		.uleb128 0x1b
 5019 0cd1 7E050000 		.4byte	0x57e
 5020 0cd5 D2000000 		.4byte	.LBB783
 5021 0cd9 30030000 		.4byte	.Ldebug_ranges0+0x330
 5022 0cdd 01       		.byte	0x1
 5023 0cde 9A       		.byte	0x9a
 5024 0cdf EB0C0000 		.4byte	0xceb
 5025 0ce3 29       		.uleb128 0x29
 5026 0ce4 8B050000 		.4byte	0x58b
 5027 0ce8 002B     		.2byte	0x2b00
 5028 0cea 00       		.byte	0
 5029 0ceb 1B       		.uleb128 0x1b
 5030 0cec 7E050000 		.4byte	0x57e
 5031 0cf0 E0000000 		.4byte	.LBB788
 5032 0cf4 48030000 		.4byte	.Ldebug_ranges0+0x348
 5033 0cf8 01       		.byte	0x1
 5034 0cf9 9B       		.byte	0x9b
 5035 0cfa 050D0000 		.4byte	0xd05
 5036 0cfe 27       		.uleb128 0x27
 5037 0cff 8B050000 		.4byte	0x58b
 5038 0d03 B0       		.byte	0xb0
 5039 0d04 00       		.byte	0
 5040 0d05 1D       		.uleb128 0x1d
 5041 0d06 65050000 		.4byte	0x565
 5042 0d0a E2000000 		.4byte	.LBB791
 5043 0d0e E6000000 		.4byte	.LBE791
 5044 0d12 01       		.byte	0x1
 5045 0d13 9B       		.byte	0x9b
 5046 0d14 1F0D0000 		.4byte	0xd1f
 5047 0d18 27       		.uleb128 0x27
 5048 0d19 72050000 		.4byte	0x572
 5049 0d1d 1E       		.byte	0x1e
 5050 0d1e 00       		.byte	0
 5051 0d1f 1B       		.uleb128 0x1b
 5052 0d20 7E050000 		.4byte	0x57e
 5053 0d24 E6000000 		.4byte	.LBB793
 5054 0d28 60030000 		.4byte	.Ldebug_ranges0+0x360
 5055 0d2c 01       		.byte	0x1
 5056 0d2d 9C       		.byte	0x9c
 5057 0d2e 3A0D0000 		.4byte	0xd3a
 5058 0d32 29       		.uleb128 0x29
 5059 0d33 8B050000 		.4byte	0x58b
 5060 0d37 3F2B     		.2byte	0x2b3f
 5061 0d39 00       		.byte	0
 5062 0d3a 1D       		.uleb128 0x1d
ARM GAS  /tmp/ccZUWmXH.s 			page 90


 5063 0d3b 65050000 		.4byte	0x565
 5064 0d3f F2000000 		.4byte	.LBB797
 5065 0d43 F6000000 		.4byte	.LBE797
 5066 0d47 01       		.byte	0x1
 5067 0d48 9C       		.byte	0x9c
 5068 0d49 540D0000 		.4byte	0xd54
 5069 0d4d 27       		.uleb128 0x27
 5070 0d4e 72050000 		.4byte	0x572
 5071 0d52 01       		.byte	0x1
 5072 0d53 00       		.byte	0
 5073 0d54 1B       		.uleb128 0x1b
 5074 0d55 7E050000 		.4byte	0x57e
 5075 0d59 FE000000 		.4byte	.LBB800
 5076 0d5d 78030000 		.4byte	.Ldebug_ranges0+0x378
 5077 0d61 01       		.byte	0x1
 5078 0d62 9D       		.byte	0x9d
 5079 0d63 6F0D0000 		.4byte	0xd6f
 5080 0d67 29       		.uleb128 0x29
 5081 0d68 8B050000 		.4byte	0x58b
 5082 0d6c 0006     		.2byte	0x600
 5083 0d6e 00       		.byte	0
 5084 0d6f 1D       		.uleb128 0x1d
 5085 0d70 65050000 		.4byte	0x565
 5086 0d74 02010000 		.4byte	.LBB803
 5087 0d78 06010000 		.4byte	.LBE803
 5088 0d7c 01       		.byte	0x1
 5089 0d7d 9D       		.byte	0x9d
 5090 0d7e 890D0000 		.4byte	0xd89
 5091 0d82 27       		.uleb128 0x27
 5092 0d83 72050000 		.4byte	0x572
 5093 0d87 02       		.byte	0x2
 5094 0d88 00       		.byte	0
 5095 0d89 1D       		.uleb128 0x1d
 5096 0d8a 65050000 		.4byte	0x565
 5097 0d8e 0E010000 		.4byte	.LBB806
 5098 0d92 12010000 		.4byte	.LBE806
 5099 0d96 01       		.byte	0x1
 5100 0d97 9E       		.byte	0x9e
 5101 0d98 A30D0000 		.4byte	0xda3
 5102 0d9c 27       		.uleb128 0x27
 5103 0d9d 72050000 		.4byte	0x572
 5104 0da1 10       		.byte	0x10
 5105 0da2 00       		.byte	0
 5106 0da3 1D       		.uleb128 0x1d
 5107 0da4 7E050000 		.4byte	0x57e
 5108 0da8 14010000 		.4byte	.LBB808
 5109 0dac 16010000 		.4byte	.LBE808
 5110 0db0 01       		.byte	0x1
 5111 0db1 9E       		.byte	0x9e
 5112 0db2 BD0D0000 		.4byte	0xdbd
 5113 0db6 27       		.uleb128 0x27
 5114 0db7 8B050000 		.4byte	0x58b
 5115 0dbb 00       		.byte	0
 5116 0dbc 00       		.byte	0
 5117 0dbd 1B       		.uleb128 0x1b
 5118 0dbe 65050000 		.4byte	0x565
 5119 0dc2 16010000 		.4byte	.LBB810
ARM GAS  /tmp/ccZUWmXH.s 			page 91


 5120 0dc6 90030000 		.4byte	.Ldebug_ranges0+0x390
 5121 0dca 01       		.byte	0x1
 5122 0dcb A0       		.byte	0xa0
 5123 0dcc D70D0000 		.4byte	0xdd7
 5124 0dd0 27       		.uleb128 0x27
 5125 0dd1 72050000 		.4byte	0x572
 5126 0dd5 05       		.byte	0x5
 5127 0dd6 00       		.byte	0
 5128 0dd7 1B       		.uleb128 0x1b
 5129 0dd8 65050000 		.4byte	0x565
 5130 0ddc 1C010000 		.4byte	.LBB813
 5131 0de0 A8030000 		.4byte	.Ldebug_ranges0+0x3a8
 5132 0de4 01       		.byte	0x1
 5133 0de5 9F       		.byte	0x9f
 5134 0de6 F10D0000 		.4byte	0xdf1
 5135 0dea 27       		.uleb128 0x27
 5136 0deb 72050000 		.4byte	0x572
 5137 0def 11       		.byte	0x11
 5138 0df0 00       		.byte	0
 5139 0df1 1B       		.uleb128 0x1b
 5140 0df2 7E050000 		.4byte	0x57e
 5141 0df6 1E010000 		.4byte	.LBB816
 5142 0dfa C0030000 		.4byte	.Ldebug_ranges0+0x3c0
 5143 0dfe 01       		.byte	0x1
 5144 0dff 9F       		.byte	0x9f
 5145 0e00 0C0E0000 		.4byte	0xe0c
 5146 0e04 29       		.uleb128 0x29
 5147 0e05 8B050000 		.4byte	0x58b
 5148 0e09 7060     		.2byte	0x6070
 5149 0e0b 00       		.byte	0
 5150 0e0c 1D       		.uleb128 0x1d
 5151 0e0d 7E050000 		.4byte	0x57e
 5152 0e11 30010000 		.4byte	.LBB822
 5153 0e15 32010000 		.4byte	.LBE822
 5154 0e19 01       		.byte	0x1
 5155 0e1a A0       		.byte	0xa0
 5156 0e1b 260E0000 		.4byte	0xe26
 5157 0e1f 27       		.uleb128 0x27
 5158 0e20 8B050000 		.4byte	0x58b
 5159 0e24 00       		.byte	0
 5160 0e25 00       		.byte	0
 5161 0e26 1D       		.uleb128 0x1d
 5162 0e27 65050000 		.4byte	0x565
 5163 0e2b 36010000 		.4byte	.LBB824
 5164 0e2f 3A010000 		.4byte	.LBE824
 5165 0e33 01       		.byte	0x1
 5166 0e34 A1       		.byte	0xa1
 5167 0e35 400E0000 		.4byte	0xe40
 5168 0e39 27       		.uleb128 0x27
 5169 0e3a 72050000 		.4byte	0x572
 5170 0e3e 06       		.byte	0x6
 5171 0e3f 00       		.byte	0
 5172 0e40 1D       		.uleb128 0x1d
 5173 0e41 7E050000 		.4byte	0x57e
 5174 0e45 3C010000 		.4byte	.LBB826
 5175 0e49 3E010000 		.4byte	.LBE826
 5176 0e4d 01       		.byte	0x1
ARM GAS  /tmp/ccZUWmXH.s 			page 92


 5177 0e4e A1       		.byte	0xa1
 5178 0e4f 5A0E0000 		.4byte	0xe5a
 5179 0e53 27       		.uleb128 0x27
 5180 0e54 8B050000 		.4byte	0x58b
 5181 0e58 00       		.byte	0
 5182 0e59 00       		.byte	0
 5183 0e5a 1B       		.uleb128 0x1b
 5184 0e5b 7E050000 		.4byte	0x57e
 5185 0e5f 42010000 		.4byte	.LBB828
 5186 0e63 D8030000 		.4byte	.Ldebug_ranges0+0x3d8
 5187 0e67 01       		.byte	0x1
 5188 0e68 A2       		.byte	0xa2
 5189 0e69 750E0000 		.4byte	0xe75
 5190 0e6d 28       		.uleb128 0x28
 5191 0e6e 8B050000 		.4byte	0x58b
 5192 0e72 9C5E     		.sleb128 -4324
 5193 0e74 00       		.byte	0
 5194 0e75 1D       		.uleb128 0x1d
 5195 0e76 65050000 		.4byte	0x565
 5196 0e7a 46010000 		.4byte	.LBB831
 5197 0e7e 4A010000 		.4byte	.LBE831
 5198 0e82 01       		.byte	0x1
 5199 0e83 A2       		.byte	0xa2
 5200 0e84 8F0E0000 		.4byte	0xe8f
 5201 0e88 27       		.uleb128 0x27
 5202 0e89 72050000 		.4byte	0x572
 5203 0e8d 16       		.byte	0x16
 5204 0e8e 00       		.byte	0
 5205 0e8f 1D       		.uleb128 0x1d
 5206 0e90 65050000 		.4byte	0x565
 5207 0e94 52010000 		.4byte	.LBB834
 5208 0e98 56010000 		.4byte	.LBE834
 5209 0e9c 01       		.byte	0x1
 5210 0e9d A3       		.byte	0xa3
 5211 0e9e A90E0000 		.4byte	0xea9
 5212 0ea2 27       		.uleb128 0x27
 5213 0ea3 72050000 		.4byte	0x572
 5214 0ea7 17       		.byte	0x17
 5215 0ea8 00       		.byte	0
 5216 0ea9 1D       		.uleb128 0x1d
 5217 0eaa 7E050000 		.4byte	0x57e
 5218 0eae 58010000 		.4byte	.LBB836
 5219 0eb2 5C010000 		.4byte	.LBE836
 5220 0eb6 01       		.byte	0x1
 5221 0eb7 A3       		.byte	0xa3
 5222 0eb8 C30E0000 		.4byte	0xec3
 5223 0ebc 27       		.uleb128 0x27
 5224 0ebd 8B050000 		.4byte	0x58b
 5225 0ec1 03       		.byte	0x3
 5226 0ec2 00       		.byte	0
 5227 0ec3 1B       		.uleb128 0x1b
 5228 0ec4 65050000 		.4byte	0x565
 5229 0ec8 60010000 		.4byte	.LBB838
 5230 0ecc F0030000 		.4byte	.Ldebug_ranges0+0x3f0
 5231 0ed0 01       		.byte	0x1
 5232 0ed1 A4       		.byte	0xa4
 5233 0ed2 DD0E0000 		.4byte	0xedd
ARM GAS  /tmp/ccZUWmXH.s 			page 93


 5234 0ed6 27       		.uleb128 0x27
 5235 0ed7 72050000 		.4byte	0x572
 5236 0edb 07       		.byte	0x7
 5237 0edc 00       		.byte	0
 5238 0edd 1B       		.uleb128 0x1b
 5239 0ede 7E050000 		.4byte	0x57e
 5240 0ee2 62010000 		.4byte	.LBB841
 5241 0ee6 08040000 		.4byte	.Ldebug_ranges0+0x408
 5242 0eea 01       		.byte	0x1
 5243 0eeb A4       		.byte	0xa4
 5244 0eec F80E0000 		.4byte	0xef8
 5245 0ef0 29       		.uleb128 0x29
 5246 0ef1 8B050000 		.4byte	0x58b
 5247 0ef5 3301     		.2byte	0x133
 5248 0ef7 00       		.byte	0
 5249 0ef8 1D       		.uleb128 0x1d
 5250 0ef9 65050000 		.4byte	0x565
 5251 0efd 70010000 		.4byte	.LBB846
 5252 0f01 74010000 		.4byte	.LBE846
 5253 0f05 01       		.byte	0x1
 5254 0f06 A5       		.byte	0xa5
 5255 0f07 120F0000 		.4byte	0xf12
 5256 0f0b 27       		.uleb128 0x27
 5257 0f0c 72050000 		.4byte	0x572
 5258 0f10 0B       		.byte	0xb
 5259 0f11 00       		.byte	0
 5260 0f12 1D       		.uleb128 0x1d
 5261 0f13 7E050000 		.4byte	0x57e
 5262 0f17 76010000 		.4byte	.LBB848
 5263 0f1b 78010000 		.4byte	.LBE848
 5264 0f1f 01       		.byte	0x1
 5265 0f20 A5       		.byte	0xa5
 5266 0f21 2C0F0000 		.4byte	0xf2c
 5267 0f25 27       		.uleb128 0x27
 5268 0f26 8B050000 		.4byte	0x58b
 5269 0f2a 00       		.byte	0
 5270 0f2b 00       		.byte	0
 5271 0f2c 1D       		.uleb128 0x1d
 5272 0f2d 65050000 		.4byte	0x565
 5273 0f31 7C010000 		.4byte	.LBB850
 5274 0f35 80010000 		.4byte	.LBE850
 5275 0f39 01       		.byte	0x1
 5276 0f3a A6       		.byte	0xa6
 5277 0f3b 460F0000 		.4byte	0xf46
 5278 0f3f 27       		.uleb128 0x27
 5279 0f40 72050000 		.4byte	0x572
 5280 0f44 0F       		.byte	0xf
 5281 0f45 00       		.byte	0
 5282 0f46 1D       		.uleb128 0x1d
 5283 0f47 7E050000 		.4byte	0x57e
 5284 0f4b 82010000 		.4byte	.LBB852
 5285 0f4f 84010000 		.4byte	.LBE852
 5286 0f53 01       		.byte	0x1
 5287 0f54 A6       		.byte	0xa6
 5288 0f55 600F0000 		.4byte	0xf60
 5289 0f59 27       		.uleb128 0x27
 5290 0f5a 8B050000 		.4byte	0x58b
ARM GAS  /tmp/ccZUWmXH.s 			page 94


 5291 0f5e 00       		.byte	0
 5292 0f5f 00       		.byte	0
 5293 0f60 1D       		.uleb128 0x1d
 5294 0f61 65050000 		.4byte	0x565
 5295 0f65 88010000 		.4byte	.LBB854
 5296 0f69 8C010000 		.4byte	.LBE854
 5297 0f6d 01       		.byte	0x1
 5298 0f6e A7       		.byte	0xa7
 5299 0f6f 7A0F0000 		.4byte	0xf7a
 5300 0f73 27       		.uleb128 0x27
 5301 0f74 72050000 		.4byte	0x572
 5302 0f78 41       		.byte	0x41
 5303 0f79 00       		.byte	0
 5304 0f7a 1D       		.uleb128 0x1d
 5305 0f7b 7E050000 		.4byte	0x57e
 5306 0f7f 8E010000 		.4byte	.LBB856
 5307 0f83 90010000 		.4byte	.LBE856
 5308 0f87 01       		.byte	0x1
 5309 0f88 A7       		.byte	0xa7
 5310 0f89 940F0000 		.4byte	0xf94
 5311 0f8d 27       		.uleb128 0x27
 5312 0f8e 8B050000 		.4byte	0x58b
 5313 0f92 00       		.byte	0
 5314 0f93 00       		.byte	0
 5315 0f94 1D       		.uleb128 0x1d
 5316 0f95 65050000 		.4byte	0x565
 5317 0f99 94010000 		.4byte	.LBB858
 5318 0f9d 98010000 		.4byte	.LBE858
 5319 0fa1 01       		.byte	0x1
 5320 0fa2 A8       		.byte	0xa8
 5321 0fa3 AE0F0000 		.4byte	0xfae
 5322 0fa7 27       		.uleb128 0x27
 5323 0fa8 72050000 		.4byte	0x572
 5324 0fac 42       		.byte	0x42
 5325 0fad 00       		.byte	0
 5326 0fae 1D       		.uleb128 0x1d
 5327 0faf 7E050000 		.4byte	0x57e
 5328 0fb3 9A010000 		.4byte	.LBB860
 5329 0fb7 9C010000 		.4byte	.LBE860
 5330 0fbb 01       		.byte	0x1
 5331 0fbc A8       		.byte	0xa8
 5332 0fbd C80F0000 		.4byte	0xfc8
 5333 0fc1 27       		.uleb128 0x27
 5334 0fc2 8B050000 		.4byte	0x58b
 5335 0fc6 00       		.byte	0
 5336 0fc7 00       		.byte	0
 5337 0fc8 1D       		.uleb128 0x1d
 5338 0fc9 65050000 		.4byte	0x565
 5339 0fcd A0010000 		.4byte	.LBB862
 5340 0fd1 A4010000 		.4byte	.LBE862
 5341 0fd5 01       		.byte	0x1
 5342 0fd6 A9       		.byte	0xa9
 5343 0fd7 E20F0000 		.4byte	0xfe2
 5344 0fdb 27       		.uleb128 0x27
 5345 0fdc 72050000 		.4byte	0x572
 5346 0fe0 48       		.byte	0x48
 5347 0fe1 00       		.byte	0
ARM GAS  /tmp/ccZUWmXH.s 			page 95


 5348 0fe2 1D       		.uleb128 0x1d
 5349 0fe3 7E050000 		.4byte	0x57e
 5350 0fe7 A6010000 		.4byte	.LBB864
 5351 0feb A8010000 		.4byte	.LBE864
 5352 0fef 01       		.byte	0x1
 5353 0ff0 A9       		.byte	0xa9
 5354 0ff1 FC0F0000 		.4byte	0xffc
 5355 0ff5 27       		.uleb128 0x27
 5356 0ff6 8B050000 		.4byte	0x58b
 5357 0ffa 00       		.byte	0
 5358 0ffb 00       		.byte	0
 5359 0ffc 1B       		.uleb128 0x1b
 5360 0ffd 7E050000 		.4byte	0x57e
 5361 1001 AC010000 		.4byte	.LBB866
 5362 1005 20040000 		.4byte	.Ldebug_ranges0+0x420
 5363 1009 01       		.byte	0x1
 5364 100a AA       		.byte	0xaa
 5365 100b 17100000 		.4byte	0x1017
 5366 100f 29       		.uleb128 0x29
 5367 1010 8B050000 		.4byte	0x58b
 5368 1014 3F01     		.2byte	0x13f
 5369 1016 00       		.byte	0
 5370 1017 1D       		.uleb128 0x1d
 5371 1018 65050000 		.4byte	0x565
 5372 101c B0010000 		.4byte	.LBB869
 5373 1020 B4010000 		.4byte	.LBE869
 5374 1024 01       		.byte	0x1
 5375 1025 AA       		.byte	0xaa
 5376 1026 31100000 		.4byte	0x1031
 5377 102a 27       		.uleb128 0x27
 5378 102b 72050000 		.4byte	0x572
 5379 102f 49       		.byte	0x49
 5380 1030 00       		.byte	0
 5381 1031 1D       		.uleb128 0x1d
 5382 1032 65050000 		.4byte	0x565
 5383 1036 BE010000 		.4byte	.LBB872
 5384 103a C2010000 		.4byte	.LBE872
 5385 103e 01       		.byte	0x1
 5386 103f AB       		.byte	0xab
 5387 1040 4B100000 		.4byte	0x104b
 5388 1044 27       		.uleb128 0x27
 5389 1045 72050000 		.4byte	0x572
 5390 1049 4A       		.byte	0x4a
 5391 104a 00       		.byte	0
 5392 104b 1D       		.uleb128 0x1d
 5393 104c 7E050000 		.4byte	0x57e
 5394 1050 C4010000 		.4byte	.LBB874
 5395 1054 C6010000 		.4byte	.LBE874
 5396 1058 01       		.byte	0x1
 5397 1059 AB       		.byte	0xab
 5398 105a 65100000 		.4byte	0x1065
 5399 105e 27       		.uleb128 0x27
 5400 105f 8B050000 		.4byte	0x58b
 5401 1063 00       		.byte	0
 5402 1064 00       		.byte	0
 5403 1065 1D       		.uleb128 0x1d
 5404 1066 65050000 		.4byte	0x565
ARM GAS  /tmp/ccZUWmXH.s 			page 96


 5405 106a CA010000 		.4byte	.LBB876
 5406 106e CE010000 		.4byte	.LBE876
 5407 1072 01       		.byte	0x1
 5408 1073 AC       		.byte	0xac
 5409 1074 7F100000 		.4byte	0x107f
 5410 1078 27       		.uleb128 0x27
 5411 1079 72050000 		.4byte	0x572
 5412 107d 4B       		.byte	0x4b
 5413 107e 00       		.byte	0
 5414 107f 1D       		.uleb128 0x1d
 5415 1080 7E050000 		.4byte	0x57e
 5416 1084 D0010000 		.4byte	.LBB878
 5417 1088 D2010000 		.4byte	.LBE878
 5418 108c 01       		.byte	0x1
 5419 108d AC       		.byte	0xac
 5420 108e 99100000 		.4byte	0x1099
 5421 1092 27       		.uleb128 0x27
 5422 1093 8B050000 		.4byte	0x58b
 5423 1097 00       		.byte	0
 5424 1098 00       		.byte	0
 5425 1099 1B       		.uleb128 0x1b
 5426 109a 7E050000 		.4byte	0x57e
 5427 109e D6010000 		.4byte	.LBB880
 5428 10a2 38040000 		.4byte	.Ldebug_ranges0+0x438
 5429 10a6 01       		.byte	0x1
 5430 10a7 AD       		.byte	0xad
 5431 10a8 B4100000 		.4byte	0x10b4
 5432 10ac 28       		.uleb128 0x28
 5433 10ad 8B050000 		.4byte	0x58b
 5434 10b1 805E     		.sleb128 -4352
 5435 10b3 00       		.byte	0
 5436 10b4 1D       		.uleb128 0x1d
 5437 10b5 65050000 		.4byte	0x565
 5438 10b9 DA010000 		.4byte	.LBB883
 5439 10bd DE010000 		.4byte	.LBE883
 5440 10c1 01       		.byte	0x1
 5441 10c2 AD       		.byte	0xad
 5442 10c3 CE100000 		.4byte	0x10ce
 5443 10c7 27       		.uleb128 0x27
 5444 10c8 72050000 		.4byte	0x572
 5445 10cc 44       		.byte	0x44
 5446 10cd 00       		.byte	0
 5447 10ce 1D       		.uleb128 0x1d
 5448 10cf 65050000 		.4byte	0x565
 5449 10d3 E6010000 		.4byte	.LBB886
 5450 10d7 EA010000 		.4byte	.LBE886
 5451 10db 01       		.byte	0x1
 5452 10dc AE       		.byte	0xae
 5453 10dd E8100000 		.4byte	0x10e8
 5454 10e1 27       		.uleb128 0x27
 5455 10e2 72050000 		.4byte	0x572
 5456 10e6 45       		.byte	0x45
 5457 10e7 00       		.byte	0
 5458 10e8 1D       		.uleb128 0x1d
 5459 10e9 7E050000 		.4byte	0x57e
 5460 10ed EC010000 		.4byte	.LBB888
 5461 10f1 EE010000 		.4byte	.LBE888
ARM GAS  /tmp/ccZUWmXH.s 			page 97


 5462 10f5 01       		.byte	0x1
 5463 10f6 AE       		.byte	0xae
 5464 10f7 02110000 		.4byte	0x1102
 5465 10fb 27       		.uleb128 0x27
 5466 10fc 8B050000 		.4byte	0x58b
 5467 1100 00       		.byte	0
 5468 1101 00       		.byte	0
 5469 1102 1D       		.uleb128 0x1d
 5470 1103 65050000 		.4byte	0x565
 5471 1107 F2010000 		.4byte	.LBB890
 5472 110b F6010000 		.4byte	.LBE890
 5473 110f 01       		.byte	0x1
 5474 1110 AF       		.byte	0xaf
 5475 1111 1C110000 		.4byte	0x111c
 5476 1115 27       		.uleb128 0x27
 5477 1116 72050000 		.4byte	0x572
 5478 111a 46       		.byte	0x46
 5479 111b 00       		.byte	0
 5480 111c 1D       		.uleb128 0x1d
 5481 111d 7E050000 		.4byte	0x57e
 5482 1121 F8010000 		.4byte	.LBB892
 5483 1125 FC010000 		.4byte	.LBE892
 5484 1129 01       		.byte	0x1
 5485 112a AF       		.byte	0xaf
 5486 112b 37110000 		.4byte	0x1137
 5487 112f 29       		.uleb128 0x29
 5488 1130 8B050000 		.4byte	0x58b
 5489 1134 3F01     		.2byte	0x13f
 5490 1136 00       		.byte	0
 5491 1137 1B       		.uleb128 0x1b
 5492 1138 7E050000 		.4byte	0x57e
 5493 113c 00020000 		.4byte	.LBB894
 5494 1140 50040000 		.4byte	.Ldebug_ranges0+0x450
 5495 1144 01       		.byte	0x1
 5496 1145 B0       		.byte	0xb0
 5497 1146 52110000 		.4byte	0x1152
 5498 114a 29       		.uleb128 0x29
 5499 114b 8B050000 		.4byte	0x58b
 5500 114f 0707     		.2byte	0x707
 5501 1151 00       		.byte	0
 5502 1152 1D       		.uleb128 0x1d
 5503 1153 65050000 		.4byte	0x565
 5504 1157 04020000 		.4byte	.LBB897
 5505 115b 08020000 		.4byte	.LBE897
 5506 115f 01       		.byte	0x1
 5507 1160 B0       		.byte	0xb0
 5508 1161 6C110000 		.4byte	0x116c
 5509 1165 27       		.uleb128 0x27
 5510 1166 72050000 		.4byte	0x572
 5511 116a 30       		.byte	0x30
 5512 116b 00       		.byte	0
 5513 116c 1B       		.uleb128 0x1b
 5514 116d 7E050000 		.4byte	0x57e
 5515 1171 10020000 		.4byte	.LBB900
 5516 1175 68040000 		.4byte	.Ldebug_ranges0+0x468
 5517 1179 01       		.byte	0x1
 5518 117a B1       		.byte	0xb1
ARM GAS  /tmp/ccZUWmXH.s 			page 98


 5519 117b 87110000 		.4byte	0x1187
 5520 117f 29       		.uleb128 0x29
 5521 1180 8B050000 		.4byte	0x58b
 5522 1184 0402     		.2byte	0x204
 5523 1186 00       		.byte	0
 5524 1187 1D       		.uleb128 0x1d
 5525 1188 65050000 		.4byte	0x565
 5526 118c 14020000 		.4byte	.LBB903
 5527 1190 18020000 		.4byte	.LBE903
 5528 1194 01       		.byte	0x1
 5529 1195 B1       		.byte	0xb1
 5530 1196 A1110000 		.4byte	0x11a1
 5531 119a 27       		.uleb128 0x27
 5532 119b 72050000 		.4byte	0x572
 5533 119f 31       		.byte	0x31
 5534 11a0 00       		.byte	0
 5535 11a1 1D       		.uleb128 0x1d
 5536 11a2 65050000 		.4byte	0x565
 5537 11a6 22020000 		.4byte	.LBB906
 5538 11aa 28020000 		.4byte	.LBE906
 5539 11ae 01       		.byte	0x1
 5540 11af B2       		.byte	0xb2
 5541 11b0 BB110000 		.4byte	0x11bb
 5542 11b4 27       		.uleb128 0x27
 5543 11b5 72050000 		.4byte	0x572
 5544 11b9 32       		.byte	0x32
 5545 11ba 00       		.byte	0
 5546 11bb 1D       		.uleb128 0x1d
 5547 11bc 7E050000 		.4byte	0x57e
 5548 11c0 28020000 		.4byte	.LBB908
 5549 11c4 2C020000 		.4byte	.LBE908
 5550 11c8 01       		.byte	0x1
 5551 11c9 B2       		.byte	0xb2
 5552 11ca D6110000 		.4byte	0x11d6
 5553 11ce 29       		.uleb128 0x29
 5554 11cf 8B050000 		.4byte	0x58b
 5555 11d3 0402     		.2byte	0x204
 5556 11d5 00       		.byte	0
 5557 11d6 1B       		.uleb128 0x1b
 5558 11d7 7E050000 		.4byte	0x57e
 5559 11db 30020000 		.4byte	.LBB910
 5560 11df 80040000 		.4byte	.Ldebug_ranges0+0x480
 5561 11e3 01       		.byte	0x1
 5562 11e4 B3       		.byte	0xb3
 5563 11e5 F1110000 		.4byte	0x11f1
 5564 11e9 29       		.uleb128 0x29
 5565 11ea 8B050000 		.4byte	0x58b
 5566 11ee 0205     		.2byte	0x502
 5567 11f0 00       		.byte	0
 5568 11f1 1D       		.uleb128 0x1d
 5569 11f2 65050000 		.4byte	0x565
 5570 11f6 38020000 		.4byte	.LBB913
 5571 11fa 3C020000 		.4byte	.LBE913
 5572 11fe 01       		.byte	0x1
 5573 11ff B3       		.byte	0xb3
 5574 1200 0B120000 		.4byte	0x120b
 5575 1204 27       		.uleb128 0x27
ARM GAS  /tmp/ccZUWmXH.s 			page 99


 5576 1205 72050000 		.4byte	0x572
 5577 1209 33       		.byte	0x33
 5578 120a 00       		.byte	0
 5579 120b 1B       		.uleb128 0x1b
 5580 120c 65050000 		.4byte	0x565
 5581 1210 46020000 		.4byte	.LBB916
 5582 1214 98040000 		.4byte	.Ldebug_ranges0+0x498
 5583 1218 01       		.byte	0x1
 5584 1219 B4       		.byte	0xb4
 5585 121a 25120000 		.4byte	0x1225
 5586 121e 27       		.uleb128 0x27
 5587 121f 72050000 		.4byte	0x572
 5588 1223 34       		.byte	0x34
 5589 1224 00       		.byte	0
 5590 1225 1B       		.uleb128 0x1b
 5591 1226 7E050000 		.4byte	0x57e
 5592 122a 48020000 		.4byte	.LBB919
 5593 122e B0040000 		.4byte	.Ldebug_ranges0+0x4b0
 5594 1232 01       		.byte	0x1
 5595 1233 B4       		.byte	0xb4
 5596 1234 40120000 		.4byte	0x1240
 5597 1238 29       		.uleb128 0x29
 5598 1239 8B050000 		.4byte	0x58b
 5599 123d 0705     		.2byte	0x507
 5600 123f 00       		.byte	0
 5601 1240 1D       		.uleb128 0x1d
 5602 1241 65050000 		.4byte	0x565
 5603 1245 56020000 		.4byte	.LBB924
 5604 1249 5A020000 		.4byte	.LBE924
 5605 124d 01       		.byte	0x1
 5606 124e B5       		.byte	0xb5
 5607 124f 5A120000 		.4byte	0x125a
 5608 1253 27       		.uleb128 0x27
 5609 1254 72050000 		.4byte	0x572
 5610 1258 35       		.byte	0x35
 5611 1259 00       		.byte	0
 5612 125a 1D       		.uleb128 0x1d
 5613 125b 7E050000 		.4byte	0x57e
 5614 125f 5C020000 		.4byte	.LBB926
 5615 1263 60020000 		.4byte	.LBE926
 5616 1267 01       		.byte	0x1
 5617 1268 B5       		.byte	0xb5
 5618 1269 75120000 		.4byte	0x1275
 5619 126d 29       		.uleb128 0x29
 5620 126e 8B050000 		.4byte	0x58b
 5621 1272 0402     		.2byte	0x204
 5622 1274 00       		.byte	0
 5623 1275 1D       		.uleb128 0x1d
 5624 1276 65050000 		.4byte	0x565
 5625 127a 64020000 		.4byte	.LBB928
 5626 127e 68020000 		.4byte	.LBE928
 5627 1282 01       		.byte	0x1
 5628 1283 B6       		.byte	0xb6
 5629 1284 8F120000 		.4byte	0x128f
 5630 1288 27       		.uleb128 0x27
 5631 1289 72050000 		.4byte	0x572
 5632 128d 36       		.byte	0x36
ARM GAS  /tmp/ccZUWmXH.s 			page 100


 5633 128e 00       		.byte	0
 5634 128f 1D       		.uleb128 0x1d
 5635 1290 7E050000 		.4byte	0x57e
 5636 1294 6A020000 		.4byte	.LBB930
 5637 1298 6E020000 		.4byte	.LBE930
 5638 129c 01       		.byte	0x1
 5639 129d B6       		.byte	0xb6
 5640 129e AA120000 		.4byte	0x12aa
 5641 12a2 29       		.uleb128 0x29
 5642 12a3 8B050000 		.4byte	0x58b
 5643 12a7 0402     		.2byte	0x204
 5644 12a9 00       		.byte	0
 5645 12aa 1D       		.uleb128 0x1d
 5646 12ab 65050000 		.4byte	0x565
 5647 12af 72020000 		.4byte	.LBB932
 5648 12b3 76020000 		.4byte	.LBE932
 5649 12b7 01       		.byte	0x1
 5650 12b8 B7       		.byte	0xb7
 5651 12b9 C4120000 		.4byte	0x12c4
 5652 12bd 27       		.uleb128 0x27
 5653 12be 72050000 		.4byte	0x572
 5654 12c2 37       		.byte	0x37
 5655 12c3 00       		.byte	0
 5656 12c4 1D       		.uleb128 0x1d
 5657 12c5 7E050000 		.4byte	0x57e
 5658 12c9 78020000 		.4byte	.LBB934
 5659 12cd 7C020000 		.4byte	.LBE934
 5660 12d1 01       		.byte	0x1
 5661 12d2 B7       		.byte	0xb7
 5662 12d3 DF120000 		.4byte	0x12df
 5663 12d7 29       		.uleb128 0x29
 5664 12d8 8B050000 		.4byte	0x58b
 5665 12dc 0205     		.2byte	0x502
 5666 12de 00       		.byte	0
 5667 12df 1B       		.uleb128 0x1b
 5668 12e0 7E050000 		.4byte	0x57e
 5669 12e4 80020000 		.4byte	.LBB936
 5670 12e8 C8040000 		.4byte	.Ldebug_ranges0+0x4c8
 5671 12ec 01       		.byte	0x1
 5672 12ed B8       		.byte	0xb8
 5673 12ee FA120000 		.4byte	0x12fa
 5674 12f2 29       		.uleb128 0x29
 5675 12f3 8B050000 		.4byte	0x58b
 5676 12f7 0203     		.2byte	0x302
 5677 12f9 00       		.byte	0
 5678 12fa 1D       		.uleb128 0x1d
 5679 12fb 65050000 		.4byte	0x565
 5680 12ff 84020000 		.4byte	.LBB939
 5681 1303 88020000 		.4byte	.LBE939
 5682 1307 01       		.byte	0x1
 5683 1308 B8       		.byte	0xb8
 5684 1309 14130000 		.4byte	0x1314
 5685 130d 27       		.uleb128 0x27
 5686 130e 72050000 		.4byte	0x572
 5687 1312 3A       		.byte	0x3a
 5688 1313 00       		.byte	0
 5689 1314 1D       		.uleb128 0x1d
ARM GAS  /tmp/ccZUWmXH.s 			page 101


 5690 1315 65050000 		.4byte	0x565
 5691 1319 92020000 		.4byte	.LBB942
 5692 131d 96020000 		.4byte	.LBE942
 5693 1321 01       		.byte	0x1
 5694 1322 B9       		.byte	0xb9
 5695 1323 2E130000 		.4byte	0x132e
 5696 1327 27       		.uleb128 0x27
 5697 1328 72050000 		.4byte	0x572
 5698 132c 3B       		.byte	0x3b
 5699 132d 00       		.byte	0
 5700 132e 1D       		.uleb128 0x1d
 5701 132f 7E050000 		.4byte	0x57e
 5702 1333 98020000 		.4byte	.LBB944
 5703 1337 9C020000 		.4byte	.LBE944
 5704 133b 01       		.byte	0x1
 5705 133c B9       		.byte	0xb9
 5706 133d 49130000 		.4byte	0x1349
 5707 1341 29       		.uleb128 0x29
 5708 1342 8B050000 		.4byte	0x58b
 5709 1346 0203     		.2byte	0x302
 5710 1348 00       		.byte	0
 5711 1349 1D       		.uleb128 0x1d
 5712 134a 65050000 		.4byte	0x565
 5713 134e A0020000 		.4byte	.LBB946
 5714 1352 A4020000 		.4byte	.LBE946
 5715 1356 01       		.byte	0x1
 5716 1357 BA       		.byte	0xba
 5717 1358 63130000 		.4byte	0x1363
 5718 135c 27       		.uleb128 0x27
 5719 135d 72050000 		.4byte	0x572
 5720 1361 23       		.byte	0x23
 5721 1362 00       		.byte	0
 5722 1363 1D       		.uleb128 0x1d
 5723 1364 7E050000 		.4byte	0x57e
 5724 1368 A6020000 		.4byte	.LBB948
 5725 136c A8020000 		.4byte	.LBE948
 5726 1370 01       		.byte	0x1
 5727 1371 BA       		.byte	0xba
 5728 1372 7D130000 		.4byte	0x137d
 5729 1376 27       		.uleb128 0x27
 5730 1377 8B050000 		.4byte	0x58b
 5731 137b 00       		.byte	0
 5732 137c 00       		.byte	0
 5733 137d 1D       		.uleb128 0x1d
 5734 137e 65050000 		.4byte	0x565
 5735 1382 AC020000 		.4byte	.LBB950
 5736 1386 B0020000 		.4byte	.LBE950
 5737 138a 01       		.byte	0x1
 5738 138b BB       		.byte	0xbb
 5739 138c 97130000 		.4byte	0x1397
 5740 1390 27       		.uleb128 0x27
 5741 1391 72050000 		.4byte	0x572
 5742 1395 24       		.byte	0x24
 5743 1396 00       		.byte	0
 5744 1397 1D       		.uleb128 0x1d
 5745 1398 7E050000 		.4byte	0x57e
 5746 139c B2020000 		.4byte	.LBB952
ARM GAS  /tmp/ccZUWmXH.s 			page 102


 5747 13a0 B4020000 		.4byte	.LBE952
 5748 13a4 01       		.byte	0x1
 5749 13a5 BB       		.byte	0xbb
 5750 13a6 B1130000 		.4byte	0x13b1
 5751 13aa 27       		.uleb128 0x27
 5752 13ab 8B050000 		.4byte	0x58b
 5753 13af 00       		.byte	0
 5754 13b0 00       		.byte	0
 5755 13b1 1B       		.uleb128 0x1b
 5756 13b2 65050000 		.4byte	0x565
 5757 13b6 B8020000 		.4byte	.LBB954
 5758 13ba E0040000 		.4byte	.Ldebug_ranges0+0x4e0
 5759 13be 01       		.byte	0x1
 5760 13bf BC       		.byte	0xbc
 5761 13c0 CB130000 		.4byte	0x13cb
 5762 13c4 27       		.uleb128 0x27
 5763 13c5 72050000 		.4byte	0x572
 5764 13c9 25       		.byte	0x25
 5765 13ca 00       		.byte	0
 5766 13cb 1B       		.uleb128 0x1b
 5767 13cc 7E050000 		.4byte	0x57e
 5768 13d0 BA020000 		.4byte	.LBB957
 5769 13d4 F8040000 		.4byte	.Ldebug_ranges0+0x4f8
 5770 13d8 01       		.byte	0x1
 5771 13d9 BC       		.byte	0xbc
 5772 13da E7130000 		.4byte	0x13e7
 5773 13de 28       		.uleb128 0x28
 5774 13df 8B050000 		.4byte	0x58b
 5775 13e3 80807E   		.sleb128 -32768
 5776 13e6 00       		.byte	0
 5777 13e7 1D       		.uleb128 0x1d
 5778 13e8 65050000 		.4byte	0x565
 5779 13ec C8020000 		.4byte	.LBB962
 5780 13f0 CC020000 		.4byte	.LBE962
 5781 13f4 01       		.byte	0x1
 5782 13f5 BD       		.byte	0xbd
 5783 13f6 01140000 		.4byte	0x1401
 5784 13fa 27       		.uleb128 0x27
 5785 13fb 72050000 		.4byte	0x572
 5786 13ff 4F       		.byte	0x4f
 5787 1400 00       		.byte	0
 5788 1401 1D       		.uleb128 0x1d
 5789 1402 7E050000 		.4byte	0x57e
 5790 1406 CE020000 		.4byte	.LBB964
 5791 140a D0020000 		.4byte	.LBE964
 5792 140e 01       		.byte	0x1
 5793 140f BD       		.byte	0xbd
 5794 1410 1B140000 		.4byte	0x141b
 5795 1414 27       		.uleb128 0x27
 5796 1415 8B050000 		.4byte	0x58b
 5797 1419 00       		.byte	0
 5798 141a 00       		.byte	0
 5799 141b 1D       		.uleb128 0x1d
 5800 141c 65050000 		.4byte	0x565
 5801 1420 D4020000 		.4byte	.LBB966
 5802 1424 D8020000 		.4byte	.LBE966
 5803 1428 01       		.byte	0x1
ARM GAS  /tmp/ccZUWmXH.s 			page 103


 5804 1429 BE       		.byte	0xbe
 5805 142a 35140000 		.4byte	0x1435
 5806 142e 27       		.uleb128 0x27
 5807 142f 72050000 		.4byte	0x572
 5808 1433 4E       		.byte	0x4e
 5809 1434 00       		.byte	0
 5810 1435 1D       		.uleb128 0x1d
 5811 1436 7E050000 		.4byte	0x57e
 5812 143a DA020000 		.4byte	.LBB968
 5813 143e DC020000 		.4byte	.LBE968
 5814 1442 01       		.byte	0x1
 5815 1443 BE       		.byte	0xbe
 5816 1444 4F140000 		.4byte	0x144f
 5817 1448 27       		.uleb128 0x27
 5818 1449 8B050000 		.4byte	0x58b
 5819 144d 00       		.byte	0
 5820 144e 00       		.byte	0
 5821 144f 24       		.uleb128 0x24
 5822 1450 86000000 		.4byte	.LVL83
 5823 1454 A0220000 		.4byte	0x22a0
 5824 1458 62140000 		.4byte	0x1462
 5825 145c 25       		.uleb128 0x25
 5826 145d 01       		.byte	0x1
 5827 145e 50       		.byte	0x50
 5828 145f 01       		.byte	0x1
 5829 1460 44       		.byte	0x44
 5830 1461 00       		.byte	0
 5831 1462 24       		.uleb128 0x24
 5832 1463 94000000 		.4byte	.LVL84
 5833 1467 A0220000 		.4byte	0x22a0
 5834 146b 75140000 		.4byte	0x1475
 5835 146f 25       		.uleb128 0x25
 5836 1470 01       		.byte	0x1
 5837 1471 50       		.byte	0x50
 5838 1472 01       		.byte	0x1
 5839 1473 44       		.byte	0x44
 5840 1474 00       		.byte	0
 5841 1475 24       		.uleb128 0x24
 5842 1476 A0000000 		.4byte	.LVL86
 5843 147a B4220000 		.4byte	0x22b4
 5844 147e 88140000 		.4byte	0x1488
 5845 1482 25       		.uleb128 0x25
 5846 1483 01       		.byte	0x1
 5847 1484 50       		.byte	0x50
 5848 1485 01       		.byte	0x1
 5849 1486 35       		.byte	0x35
 5850 1487 00       		.byte	0
 5851 1488 24       		.uleb128 0x24
 5852 1489 B4000000 		.4byte	.LVL88
 5853 148d B4220000 		.4byte	0x22b4
 5854 1491 9B140000 		.4byte	0x149b
 5855 1495 25       		.uleb128 0x25
 5856 1496 01       		.byte	0x1
 5857 1497 50       		.byte	0x50
 5858 1498 01       		.byte	0x1
 5859 1499 35       		.byte	0x35
 5860 149a 00       		.byte	0
ARM GAS  /tmp/ccZUWmXH.s 			page 104


 5861 149b 24       		.uleb128 0x24
 5862 149c C0000000 		.4byte	.LVL90
 5863 14a0 B4220000 		.4byte	0x22b4
 5864 14a4 AE140000 		.4byte	0x14ae
 5865 14a8 25       		.uleb128 0x25
 5866 14a9 01       		.byte	0x1
 5867 14aa 50       		.byte	0x50
 5868 14ab 01       		.byte	0x1
 5869 14ac 35       		.byte	0x35
 5870 14ad 00       		.byte	0
 5871 14ae 24       		.uleb128 0x24
 5872 14af D0000000 		.4byte	.LVL92
 5873 14b3 B4220000 		.4byte	0x22b4
 5874 14b7 C1140000 		.4byte	0x14c1
 5875 14bb 25       		.uleb128 0x25
 5876 14bc 01       		.byte	0x1
 5877 14bd 50       		.byte	0x50
 5878 14be 01       		.byte	0x1
 5879 14bf 35       		.byte	0x35
 5880 14c0 00       		.byte	0
 5881 14c1 24       		.uleb128 0x24
 5882 14c2 E0000000 		.4byte	.LVL94
 5883 14c6 B4220000 		.4byte	0x22b4
 5884 14ca D4140000 		.4byte	0x14d4
 5885 14ce 25       		.uleb128 0x25
 5886 14cf 01       		.byte	0x1
 5887 14d0 50       		.byte	0x50
 5888 14d1 01       		.byte	0x1
 5889 14d2 35       		.byte	0x35
 5890 14d3 00       		.byte	0
 5891 14d4 24       		.uleb128 0x24
 5892 14d5 F2000000 		.4byte	.LVL96
 5893 14d9 B4220000 		.4byte	0x22b4
 5894 14dd E7140000 		.4byte	0x14e7
 5895 14e1 25       		.uleb128 0x25
 5896 14e2 01       		.byte	0x1
 5897 14e3 50       		.byte	0x50
 5898 14e4 01       		.byte	0x1
 5899 14e5 35       		.byte	0x35
 5900 14e6 00       		.byte	0
 5901 14e7 24       		.uleb128 0x24
 5902 14e8 FE000000 		.4byte	.LVL98
 5903 14ec B4220000 		.4byte	0x22b4
 5904 14f0 FA140000 		.4byte	0x14fa
 5905 14f4 25       		.uleb128 0x25
 5906 14f5 01       		.byte	0x1
 5907 14f6 50       		.byte	0x50
 5908 14f7 01       		.byte	0x1
 5909 14f8 35       		.byte	0x35
 5910 14f9 00       		.byte	0
 5911 14fa 24       		.uleb128 0x24
 5912 14fb 0E010000 		.4byte	.LVL100
 5913 14ff B4220000 		.4byte	0x22b4
 5914 1503 0D150000 		.4byte	0x150d
 5915 1507 25       		.uleb128 0x25
 5916 1508 01       		.byte	0x1
 5917 1509 50       		.byte	0x50
ARM GAS  /tmp/ccZUWmXH.s 			page 105


 5918 150a 01       		.byte	0x1
 5919 150b 35       		.byte	0x35
 5920 150c 00       		.byte	0
 5921 150d 24       		.uleb128 0x24
 5922 150e 1C010000 		.4byte	.LVL102
 5923 1512 B4220000 		.4byte	0x22b4
 5924 1516 21150000 		.4byte	0x1521
 5925 151a 25       		.uleb128 0x25
 5926 151b 01       		.byte	0x1
 5927 151c 50       		.byte	0x50
 5928 151d 02       		.byte	0x2
 5929 151e 76       		.byte	0x76
 5930 151f 00       		.sleb128 0
 5931 1520 00       		.byte	0
 5932 1521 24       		.uleb128 0x24
 5933 1522 2C010000 		.4byte	.LVL104
 5934 1526 B4220000 		.4byte	0x22b4
 5935 152a 35150000 		.4byte	0x1535
 5936 152e 25       		.uleb128 0x25
 5937 152f 01       		.byte	0x1
 5938 1530 50       		.byte	0x50
 5939 1531 02       		.byte	0x2
 5940 1532 76       		.byte	0x76
 5941 1533 00       		.sleb128 0
 5942 1534 00       		.byte	0
 5943 1535 24       		.uleb128 0x24
 5944 1536 36010000 		.4byte	.LVL106
 5945 153a B4220000 		.4byte	0x22b4
 5946 153e 49150000 		.4byte	0x1549
 5947 1542 25       		.uleb128 0x25
 5948 1543 01       		.byte	0x1
 5949 1544 50       		.byte	0x50
 5950 1545 02       		.byte	0x2
 5951 1546 76       		.byte	0x76
 5952 1547 00       		.sleb128 0
 5953 1548 00       		.byte	0
 5954 1549 24       		.uleb128 0x24
 5955 154a 42010000 		.4byte	.LVL108
 5956 154e B4220000 		.4byte	0x22b4
 5957 1552 5D150000 		.4byte	0x155d
 5958 1556 25       		.uleb128 0x25
 5959 1557 01       		.byte	0x1
 5960 1558 50       		.byte	0x50
 5961 1559 02       		.byte	0x2
 5962 155a 76       		.byte	0x76
 5963 155b 00       		.sleb128 0
 5964 155c 00       		.byte	0
 5965 155d 24       		.uleb128 0x24
 5966 155e 52010000 		.4byte	.LVL110
 5967 1562 B4220000 		.4byte	0x22b4
 5968 1566 71150000 		.4byte	0x1571
 5969 156a 25       		.uleb128 0x25
 5970 156b 01       		.byte	0x1
 5971 156c 50       		.byte	0x50
 5972 156d 02       		.byte	0x2
 5973 156e 76       		.byte	0x76
 5974 156f 00       		.sleb128 0
ARM GAS  /tmp/ccZUWmXH.s 			page 106


 5975 1570 00       		.byte	0
 5976 1571 24       		.uleb128 0x24
 5977 1572 60010000 		.4byte	.LVL112
 5978 1576 B4220000 		.4byte	0x22b4
 5979 157a 85150000 		.4byte	0x1585
 5980 157e 25       		.uleb128 0x25
 5981 157f 01       		.byte	0x1
 5982 1580 50       		.byte	0x50
 5983 1581 02       		.byte	0x2
 5984 1582 76       		.byte	0x76
 5985 1583 00       		.sleb128 0
 5986 1584 00       		.byte	0
 5987 1585 24       		.uleb128 0x24
 5988 1586 70010000 		.4byte	.LVL114
 5989 158a B4220000 		.4byte	0x22b4
 5990 158e 99150000 		.4byte	0x1599
 5991 1592 25       		.uleb128 0x25
 5992 1593 01       		.byte	0x1
 5993 1594 50       		.byte	0x50
 5994 1595 02       		.byte	0x2
 5995 1596 76       		.byte	0x76
 5996 1597 00       		.sleb128 0
 5997 1598 00       		.byte	0
 5998 1599 24       		.uleb128 0x24
 5999 159a 7C010000 		.4byte	.LVL116
 6000 159e B4220000 		.4byte	0x22b4
 6001 15a2 AD150000 		.4byte	0x15ad
 6002 15a6 25       		.uleb128 0x25
 6003 15a7 01       		.byte	0x1
 6004 15a8 50       		.byte	0x50
 6005 15a9 02       		.byte	0x2
 6006 15aa 76       		.byte	0x76
 6007 15ab 00       		.sleb128 0
 6008 15ac 00       		.byte	0
 6009 15ad 24       		.uleb128 0x24
 6010 15ae 88010000 		.4byte	.LVL118
 6011 15b2 B4220000 		.4byte	0x22b4
 6012 15b6 C1150000 		.4byte	0x15c1
 6013 15ba 25       		.uleb128 0x25
 6014 15bb 01       		.byte	0x1
 6015 15bc 50       		.byte	0x50
 6016 15bd 02       		.byte	0x2
 6017 15be 76       		.byte	0x76
 6018 15bf 00       		.sleb128 0
 6019 15c0 00       		.byte	0
 6020 15c1 24       		.uleb128 0x24
 6021 15c2 94010000 		.4byte	.LVL120
 6022 15c6 B4220000 		.4byte	0x22b4
 6023 15ca D5150000 		.4byte	0x15d5
 6024 15ce 25       		.uleb128 0x25
 6025 15cf 01       		.byte	0x1
 6026 15d0 50       		.byte	0x50
 6027 15d1 02       		.byte	0x2
 6028 15d2 76       		.byte	0x76
 6029 15d3 00       		.sleb128 0
 6030 15d4 00       		.byte	0
 6031 15d5 24       		.uleb128 0x24
ARM GAS  /tmp/ccZUWmXH.s 			page 107


 6032 15d6 A0010000 		.4byte	.LVL122
 6033 15da B4220000 		.4byte	0x22b4
 6034 15de E9150000 		.4byte	0x15e9
 6035 15e2 25       		.uleb128 0x25
 6036 15e3 01       		.byte	0x1
 6037 15e4 50       		.byte	0x50
 6038 15e5 02       		.byte	0x2
 6039 15e6 76       		.byte	0x76
 6040 15e7 00       		.sleb128 0
 6041 15e8 00       		.byte	0
 6042 15e9 24       		.uleb128 0x24
 6043 15ea AC010000 		.4byte	.LVL124
 6044 15ee B4220000 		.4byte	0x22b4
 6045 15f2 FD150000 		.4byte	0x15fd
 6046 15f6 25       		.uleb128 0x25
 6047 15f7 01       		.byte	0x1
 6048 15f8 50       		.byte	0x50
 6049 15f9 02       		.byte	0x2
 6050 15fa 76       		.byte	0x76
 6051 15fb 00       		.sleb128 0
 6052 15fc 00       		.byte	0
 6053 15fd 24       		.uleb128 0x24
 6054 15fe BE010000 		.4byte	.LVL126
 6055 1602 B4220000 		.4byte	0x22b4
 6056 1606 11160000 		.4byte	0x1611
 6057 160a 25       		.uleb128 0x25
 6058 160b 01       		.byte	0x1
 6059 160c 50       		.byte	0x50
 6060 160d 02       		.byte	0x2
 6061 160e 76       		.byte	0x76
 6062 160f 00       		.sleb128 0
 6063 1610 00       		.byte	0
 6064 1611 24       		.uleb128 0x24
 6065 1612 CA010000 		.4byte	.LVL128
 6066 1616 B4220000 		.4byte	0x22b4
 6067 161a 25160000 		.4byte	0x1625
 6068 161e 25       		.uleb128 0x25
 6069 161f 01       		.byte	0x1
 6070 1620 50       		.byte	0x50
 6071 1621 02       		.byte	0x2
 6072 1622 76       		.byte	0x76
 6073 1623 00       		.sleb128 0
 6074 1624 00       		.byte	0
 6075 1625 24       		.uleb128 0x24
 6076 1626 D6010000 		.4byte	.LVL130
 6077 162a B4220000 		.4byte	0x22b4
 6078 162e 39160000 		.4byte	0x1639
 6079 1632 25       		.uleb128 0x25
 6080 1633 01       		.byte	0x1
 6081 1634 50       		.byte	0x50
 6082 1635 02       		.byte	0x2
 6083 1636 76       		.byte	0x76
 6084 1637 00       		.sleb128 0
 6085 1638 00       		.byte	0
 6086 1639 24       		.uleb128 0x24
 6087 163a E6010000 		.4byte	.LVL132
 6088 163e B4220000 		.4byte	0x22b4
ARM GAS  /tmp/ccZUWmXH.s 			page 108


 6089 1642 4D160000 		.4byte	0x164d
 6090 1646 25       		.uleb128 0x25
 6091 1647 01       		.byte	0x1
 6092 1648 50       		.byte	0x50
 6093 1649 02       		.byte	0x2
 6094 164a 76       		.byte	0x76
 6095 164b 00       		.sleb128 0
 6096 164c 00       		.byte	0
 6097 164d 24       		.uleb128 0x24
 6098 164e F2010000 		.4byte	.LVL134
 6099 1652 B4220000 		.4byte	0x22b4
 6100 1656 61160000 		.4byte	0x1661
 6101 165a 25       		.uleb128 0x25
 6102 165b 01       		.byte	0x1
 6103 165c 50       		.byte	0x50
 6104 165d 02       		.byte	0x2
 6105 165e 76       		.byte	0x76
 6106 165f 00       		.sleb128 0
 6107 1660 00       		.byte	0
 6108 1661 24       		.uleb128 0x24
 6109 1662 00020000 		.4byte	.LVL136
 6110 1666 B4220000 		.4byte	0x22b4
 6111 166a 75160000 		.4byte	0x1675
 6112 166e 25       		.uleb128 0x25
 6113 166f 01       		.byte	0x1
 6114 1670 50       		.byte	0x50
 6115 1671 02       		.byte	0x2
 6116 1672 76       		.byte	0x76
 6117 1673 00       		.sleb128 0
 6118 1674 00       		.byte	0
 6119 1675 24       		.uleb128 0x24
 6120 1676 10020000 		.4byte	.LVL138
 6121 167a B4220000 		.4byte	0x22b4
 6122 167e 89160000 		.4byte	0x1689
 6123 1682 25       		.uleb128 0x25
 6124 1683 01       		.byte	0x1
 6125 1684 50       		.byte	0x50
 6126 1685 02       		.byte	0x2
 6127 1686 76       		.byte	0x76
 6128 1687 00       		.sleb128 0
 6129 1688 00       		.byte	0
 6130 1689 24       		.uleb128 0x24
 6131 168a 22020000 		.4byte	.LVL140
 6132 168e B4220000 		.4byte	0x22b4
 6133 1692 9D160000 		.4byte	0x169d
 6134 1696 25       		.uleb128 0x25
 6135 1697 01       		.byte	0x1
 6136 1698 50       		.byte	0x50
 6137 1699 02       		.byte	0x2
 6138 169a 76       		.byte	0x76
 6139 169b 00       		.sleb128 0
 6140 169c 00       		.byte	0
 6141 169d 24       		.uleb128 0x24
 6142 169e 38020000 		.4byte	.LVL142
 6143 16a2 B4220000 		.4byte	0x22b4
 6144 16a6 B1160000 		.4byte	0x16b1
 6145 16aa 25       		.uleb128 0x25
ARM GAS  /tmp/ccZUWmXH.s 			page 109


 6146 16ab 01       		.byte	0x1
 6147 16ac 50       		.byte	0x50
 6148 16ad 02       		.byte	0x2
 6149 16ae 76       		.byte	0x76
 6150 16af 00       		.sleb128 0
 6151 16b0 00       		.byte	0
 6152 16b1 24       		.uleb128 0x24
 6153 16b2 46020000 		.4byte	.LVL144
 6154 16b6 B4220000 		.4byte	0x22b4
 6155 16ba C5160000 		.4byte	0x16c5
 6156 16be 25       		.uleb128 0x25
 6157 16bf 01       		.byte	0x1
 6158 16c0 50       		.byte	0x50
 6159 16c1 02       		.byte	0x2
 6160 16c2 76       		.byte	0x76
 6161 16c3 00       		.sleb128 0
 6162 16c4 00       		.byte	0
 6163 16c5 24       		.uleb128 0x24
 6164 16c6 56020000 		.4byte	.LVL146
 6165 16ca B4220000 		.4byte	0x22b4
 6166 16ce D9160000 		.4byte	0x16d9
 6167 16d2 25       		.uleb128 0x25
 6168 16d3 01       		.byte	0x1
 6169 16d4 50       		.byte	0x50
 6170 16d5 02       		.byte	0x2
 6171 16d6 76       		.byte	0x76
 6172 16d7 00       		.sleb128 0
 6173 16d8 00       		.byte	0
 6174 16d9 24       		.uleb128 0x24
 6175 16da 64020000 		.4byte	.LVL148
 6176 16de B4220000 		.4byte	0x22b4
 6177 16e2 ED160000 		.4byte	0x16ed
 6178 16e6 25       		.uleb128 0x25
 6179 16e7 01       		.byte	0x1
 6180 16e8 50       		.byte	0x50
 6181 16e9 02       		.byte	0x2
 6182 16ea 76       		.byte	0x76
 6183 16eb 00       		.sleb128 0
 6184 16ec 00       		.byte	0
 6185 16ed 24       		.uleb128 0x24
 6186 16ee 72020000 		.4byte	.LVL150
 6187 16f2 B4220000 		.4byte	0x22b4
 6188 16f6 01170000 		.4byte	0x1701
 6189 16fa 25       		.uleb128 0x25
 6190 16fb 01       		.byte	0x1
 6191 16fc 50       		.byte	0x50
 6192 16fd 02       		.byte	0x2
 6193 16fe 76       		.byte	0x76
 6194 16ff 00       		.sleb128 0
 6195 1700 00       		.byte	0
 6196 1701 24       		.uleb128 0x24
 6197 1702 80020000 		.4byte	.LVL152
 6198 1706 B4220000 		.4byte	0x22b4
 6199 170a 15170000 		.4byte	0x1715
 6200 170e 25       		.uleb128 0x25
 6201 170f 01       		.byte	0x1
 6202 1710 50       		.byte	0x50
ARM GAS  /tmp/ccZUWmXH.s 			page 110


 6203 1711 02       		.byte	0x2
 6204 1712 76       		.byte	0x76
 6205 1713 00       		.sleb128 0
 6206 1714 00       		.byte	0
 6207 1715 24       		.uleb128 0x24
 6208 1716 92020000 		.4byte	.LVL154
 6209 171a B4220000 		.4byte	0x22b4
 6210 171e 29170000 		.4byte	0x1729
 6211 1722 25       		.uleb128 0x25
 6212 1723 01       		.byte	0x1
 6213 1724 50       		.byte	0x50
 6214 1725 02       		.byte	0x2
 6215 1726 76       		.byte	0x76
 6216 1727 00       		.sleb128 0
 6217 1728 00       		.byte	0
 6218 1729 24       		.uleb128 0x24
 6219 172a A0020000 		.4byte	.LVL156
 6220 172e B4220000 		.4byte	0x22b4
 6221 1732 3D170000 		.4byte	0x173d
 6222 1736 25       		.uleb128 0x25
 6223 1737 01       		.byte	0x1
 6224 1738 50       		.byte	0x50
 6225 1739 02       		.byte	0x2
 6226 173a 76       		.byte	0x76
 6227 173b 00       		.sleb128 0
 6228 173c 00       		.byte	0
 6229 173d 24       		.uleb128 0x24
 6230 173e AC020000 		.4byte	.LVL158
 6231 1742 B4220000 		.4byte	0x22b4
 6232 1746 51170000 		.4byte	0x1751
 6233 174a 25       		.uleb128 0x25
 6234 174b 01       		.byte	0x1
 6235 174c 50       		.byte	0x50
 6236 174d 02       		.byte	0x2
 6237 174e 76       		.byte	0x76
 6238 174f 00       		.sleb128 0
 6239 1750 00       		.byte	0
 6240 1751 24       		.uleb128 0x24
 6241 1752 B8020000 		.4byte	.LVL160
 6242 1756 B4220000 		.4byte	0x22b4
 6243 175a 65170000 		.4byte	0x1765
 6244 175e 25       		.uleb128 0x25
 6245 175f 01       		.byte	0x1
 6246 1760 50       		.byte	0x50
 6247 1761 02       		.byte	0x2
 6248 1762 76       		.byte	0x76
 6249 1763 00       		.sleb128 0
 6250 1764 00       		.byte	0
 6251 1765 24       		.uleb128 0x24
 6252 1766 C8020000 		.4byte	.LVL162
 6253 176a B4220000 		.4byte	0x22b4
 6254 176e 79170000 		.4byte	0x1779
 6255 1772 25       		.uleb128 0x25
 6256 1773 01       		.byte	0x1
 6257 1774 50       		.byte	0x50
 6258 1775 02       		.byte	0x2
 6259 1776 76       		.byte	0x76
ARM GAS  /tmp/ccZUWmXH.s 			page 111


 6260 1777 00       		.sleb128 0
 6261 1778 00       		.byte	0
 6262 1779 24       		.uleb128 0x24
 6263 177a D4020000 		.4byte	.LVL164
 6264 177e B4220000 		.4byte	0x22b4
 6265 1782 8D170000 		.4byte	0x178d
 6266 1786 25       		.uleb128 0x25
 6267 1787 01       		.byte	0x1
 6268 1788 50       		.byte	0x50
 6269 1789 02       		.byte	0x2
 6270 178a 76       		.byte	0x76
 6271 178b 00       		.sleb128 0
 6272 178c 00       		.byte	0
 6273 178d 26       		.uleb128 0x26
 6274 178e E0020000 		.4byte	.LVL166
 6275 1792 B4220000 		.4byte	0x22b4
 6276 1796 25       		.uleb128 0x25
 6277 1797 01       		.byte	0x1
 6278 1798 50       		.byte	0x50
 6279 1799 02       		.byte	0x2
 6280 179a 76       		.byte	0x76
 6281 179b 00       		.sleb128 0
 6282 179c 00       		.byte	0
 6283 179d 00       		.byte	0
 6284 179e 2A       		.uleb128 0x2a
 6285 179f 01       		.byte	0x1
 6286 17a0 BE030000 		.4byte	.LASF105
 6287 17a4 01       		.byte	0x1
 6288 17a5 DF       		.byte	0xdf
 6289 17a6 01       		.byte	0x1
 6290 17a7 00000000 		.4byte	.LFB133
 6291 17ab 90000000 		.4byte	.LFE133
 6292 17af 97060000 		.4byte	.LLST48
 6293 17b3 01       		.byte	0x1
 6294 17b4 AB190000 		.4byte	0x19ab
 6295 17b8 1A       		.uleb128 0x1a
 6296 17b9 7800     		.ascii	"x\000"
 6297 17bb 01       		.byte	0x1
 6298 17bc DF       		.byte	0xdf
 6299 17bd 5E040000 		.4byte	0x45e
 6300 17c1 B7060000 		.4byte	.LLST49
 6301 17c5 1A       		.uleb128 0x1a
 6302 17c6 7900     		.ascii	"y\000"
 6303 17c8 01       		.byte	0x1
 6304 17c9 DF       		.byte	0xdf
 6305 17ca 5E040000 		.4byte	0x45e
 6306 17ce 15070000 		.4byte	.LLST50
 6307 17d2 2B       		.uleb128 0x2b
 6308 17d3 CE040000 		.4byte	.LASF104
 6309 17d7 01       		.byte	0x1
 6310 17d8 DF       		.byte	0xdf
 6311 17d9 35050000 		.4byte	0x535
 6312 17dd 01       		.byte	0x1
 6313 17de 52       		.byte	0x52
 6314 17df 1B       		.uleb128 0x1b
 6315 17e0 97050000 		.4byte	0x597
 6316 17e4 00000000 		.4byte	.LBB1034
ARM GAS  /tmp/ccZUWmXH.s 			page 112


 6317 17e8 10050000 		.4byte	.Ldebug_ranges0+0x510
 6318 17ec 01       		.byte	0x1
 6319 17ed E5       		.byte	0xe5
 6320 17ee 74190000 		.4byte	0x1974
 6321 17f2 1C       		.uleb128 0x1c
 6322 17f3 AD050000 		.4byte	0x5ad
 6323 17f7 73070000 		.4byte	.LLST51
 6324 17fb 1C       		.uleb128 0x1c
 6325 17fc A4050000 		.4byte	0x5a4
 6326 1800 A7070000 		.4byte	.LLST52
 6327 1804 1B       		.uleb128 0x1b
 6328 1805 7E050000 		.4byte	0x57e
 6329 1809 16000000 		.4byte	.LBB1036
 6330 180d 30050000 		.4byte	.Ldebug_ranges0+0x530
 6331 1811 01       		.byte	0x1
 6332 1812 39       		.byte	0x39
 6333 1813 1D180000 		.4byte	0x181d
 6334 1817 1E       		.uleb128 0x1e
 6335 1818 8B050000 		.4byte	0x58b
 6336 181c 00       		.byte	0
 6337 181d 1D       		.uleb128 0x1d
 6338 181e 65050000 		.4byte	0x565
 6339 1822 1A000000 		.4byte	.LBB1039
 6340 1826 1E000000 		.4byte	.LBE1039
 6341 182a 01       		.byte	0x1
 6342 182b 39       		.byte	0x39
 6343 182c 3A180000 		.4byte	0x183a
 6344 1830 1C       		.uleb128 0x1c
 6345 1831 72050000 		.4byte	0x572
 6346 1835 DB070000 		.4byte	.LLST53
 6347 1839 00       		.byte	0
 6348 183a 1B       		.uleb128 0x1b
 6349 183b 65050000 		.4byte	0x565
 6350 183f 2C000000 		.4byte	.LBB1042
 6351 1843 48050000 		.4byte	.Ldebug_ranges0+0x548
 6352 1847 01       		.byte	0x1
 6353 1848 3D       		.byte	0x3d
 6354 1849 54180000 		.4byte	0x1854
 6355 184d 27       		.uleb128 0x27
 6356 184e 72050000 		.4byte	0x572
 6357 1852 4E       		.byte	0x4e
 6358 1853 00       		.byte	0
 6359 1854 1B       		.uleb128 0x1b
 6360 1855 7E050000 		.4byte	0x57e
 6361 1859 30000000 		.4byte	.LBB1045
 6362 185d 60050000 		.4byte	.Ldebug_ranges0+0x560
 6363 1861 01       		.byte	0x1
 6364 1862 3D       		.byte	0x3d
 6365 1863 71180000 		.4byte	0x1871
 6366 1867 1C       		.uleb128 0x1c
 6367 1868 8B050000 		.4byte	0x58b
 6368 186c F0070000 		.4byte	.LLST54
 6369 1870 00       		.byte	0
 6370 1871 1D       		.uleb128 0x1d
 6371 1872 65050000 		.4byte	0x565
 6372 1876 32000000 		.4byte	.LBB1049
 6373 187a 36000000 		.4byte	.LBE1049
ARM GAS  /tmp/ccZUWmXH.s 			page 113


 6374 187e 01       		.byte	0x1
 6375 187f 3E       		.byte	0x3e
 6376 1880 8E180000 		.4byte	0x188e
 6377 1884 1C       		.uleb128 0x1c
 6378 1885 72050000 		.4byte	0x572
 6379 1889 03080000 		.4byte	.LLST55
 6380 188d 00       		.byte	0
 6381 188e 1D       		.uleb128 0x1d
 6382 188f 7E050000 		.4byte	0x57e
 6383 1893 36000000 		.4byte	.LBB1051
 6384 1897 38000000 		.4byte	.LBE1051
 6385 189b 01       		.byte	0x1
 6386 189c 3E       		.byte	0x3e
 6387 189d AB180000 		.4byte	0x18ab
 6388 18a1 1C       		.uleb128 0x1c
 6389 18a2 8B050000 		.4byte	0x58b
 6390 18a6 18080000 		.4byte	.LLST56
 6391 18aa 00       		.byte	0
 6392 18ab 1B       		.uleb128 0x1b
 6393 18ac 7E050000 		.4byte	0x57e
 6394 18b0 4C000000 		.4byte	.LBB1053
 6395 18b4 80050000 		.4byte	.Ldebug_ranges0+0x580
 6396 18b8 01       		.byte	0x1
 6397 18b9 41       		.byte	0x41
 6398 18ba C4180000 		.4byte	0x18c4
 6399 18be 1E       		.uleb128 0x1e
 6400 18bf 8B050000 		.4byte	0x58b
 6401 18c3 00       		.byte	0
 6402 18c4 1D       		.uleb128 0x1d
 6403 18c5 65050000 		.4byte	0x565
 6404 18c9 4E000000 		.4byte	.LBB1056
 6405 18cd 52000000 		.4byte	.LBE1056
 6406 18d1 01       		.byte	0x1
 6407 18d2 41       		.byte	0x41
 6408 18d3 E1180000 		.4byte	0x18e1
 6409 18d7 1C       		.uleb128 0x1c
 6410 18d8 72050000 		.4byte	0x572
 6411 18dc 2B080000 		.4byte	.LLST57
 6412 18e0 00       		.byte	0
 6413 18e1 1F       		.uleb128 0x1f
 6414 18e2 97050000 		.4byte	0x597
 6415 18e6 56000000 		.4byte	.LBB1059
 6416 18ea 80000000 		.4byte	.LBE1059
 6417 18ee 01       		.byte	0x1
 6418 18ef DF       		.byte	0xdf
 6419 18f0 1C       		.uleb128 0x1c
 6420 18f1 AD050000 		.4byte	0x5ad
 6421 18f5 40080000 		.4byte	.LLST58
 6422 18f9 1C       		.uleb128 0x1c
 6423 18fa A4050000 		.4byte	0x5a4
 6424 18fe 53080000 		.4byte	.LLST59
 6425 1902 1B       		.uleb128 0x1b
 6426 1903 65050000 		.4byte	0x565
 6427 1907 5C000000 		.4byte	.LBB1061
 6428 190b 98050000 		.4byte	.Ldebug_ranges0+0x598
 6429 190f 01       		.byte	0x1
 6430 1910 45       		.byte	0x45
ARM GAS  /tmp/ccZUWmXH.s 			page 114


 6431 1911 1F190000 		.4byte	0x191f
 6432 1915 1C       		.uleb128 0x1c
 6433 1916 72050000 		.4byte	0x572
 6434 191a 66080000 		.4byte	.LLST60
 6435 191e 00       		.byte	0
 6436 191f 1B       		.uleb128 0x1b
 6437 1920 7E050000 		.4byte	0x57e
 6438 1924 60000000 		.4byte	.LBB1064
 6439 1928 B0050000 		.4byte	.Ldebug_ranges0+0x5b0
 6440 192c 01       		.byte	0x1
 6441 192d 45       		.byte	0x45
 6442 192e 3C190000 		.4byte	0x193c
 6443 1932 1C       		.uleb128 0x1c
 6444 1933 8B050000 		.4byte	0x58b
 6445 1937 7B080000 		.4byte	.LLST61
 6446 193b 00       		.byte	0
 6447 193c 1D       		.uleb128 0x1d
 6448 193d 65050000 		.4byte	0x565
 6449 1941 62000000 		.4byte	.LBB1068
 6450 1945 66000000 		.4byte	.LBE1068
 6451 1949 01       		.byte	0x1
 6452 194a 46       		.byte	0x46
 6453 194b 59190000 		.4byte	0x1959
 6454 194f 1C       		.uleb128 0x1c
 6455 1950 72050000 		.4byte	0x572
 6456 1954 8E080000 		.4byte	.LLST62
 6457 1958 00       		.byte	0
 6458 1959 1F       		.uleb128 0x1f
 6459 195a 7E050000 		.4byte	0x57e
 6460 195e 66000000 		.4byte	.LBB1070
 6461 1962 6A000000 		.4byte	.LBE1070
 6462 1966 01       		.byte	0x1
 6463 1967 46       		.byte	0x46
 6464 1968 1C       		.uleb128 0x1c
 6465 1969 8B050000 		.4byte	0x58b
 6466 196d A3080000 		.4byte	.LLST63
 6467 1971 00       		.byte	0
 6468 1972 00       		.byte	0
 6469 1973 00       		.byte	0
 6470 1974 1B       		.uleb128 0x1b
 6471 1975 7E050000 		.4byte	0x57e
 6472 1979 38000000 		.4byte	.LBB1081
 6473 197d D0050000 		.4byte	.Ldebug_ranges0+0x5d0
 6474 1981 01       		.byte	0x1
 6475 1982 E6       		.byte	0xe6
 6476 1983 91190000 		.4byte	0x1991
 6477 1987 1C       		.uleb128 0x1c
 6478 1988 8B050000 		.4byte	0x58b
 6479 198c B6080000 		.4byte	.LLST64
 6480 1990 00       		.byte	0
 6481 1991 1F       		.uleb128 0x1f
 6482 1992 65050000 		.4byte	0x565
 6483 1996 3E000000 		.4byte	.LBB1084
 6484 199a 46000000 		.4byte	.LBE1084
 6485 199e 01       		.byte	0x1
 6486 199f E6       		.byte	0xe6
 6487 19a0 1C       		.uleb128 0x1c
ARM GAS  /tmp/ccZUWmXH.s 			page 115


 6488 19a1 72050000 		.4byte	0x572
 6489 19a5 C9080000 		.4byte	.LLST65
 6490 19a9 00       		.byte	0
 6491 19aa 00       		.byte	0
 6492 19ab 2A       		.uleb128 0x2a
 6493 19ac 01       		.byte	0x1
 6494 19ad 38020000 		.4byte	.LASF106
 6495 19b1 03       		.byte	0x3
 6496 19b2 AA       		.byte	0xaa
 6497 19b3 01       		.byte	0x1
 6498 19b4 00000000 		.4byte	.LFB119
 6499 19b8 0A010000 		.4byte	.LFE119
 6500 19bc DE080000 		.4byte	.LLST66
 6501 19c0 01       		.byte	0x1
 6502 19c1 171B0000 		.4byte	0x1b17
 6503 19c5 1A       		.uleb128 0x1a
 6504 19c6 7800     		.ascii	"x\000"
 6505 19c8 03       		.byte	0x3
 6506 19c9 AA       		.byte	0xaa
 6507 19ca 5E040000 		.4byte	0x45e
 6508 19ce 0B090000 		.4byte	.LLST67
 6509 19d2 1A       		.uleb128 0x1a
 6510 19d3 7900     		.ascii	"y\000"
 6511 19d5 03       		.byte	0x3
 6512 19d6 AA       		.byte	0xaa
 6513 19d7 5E040000 		.4byte	0x45e
 6514 19db 29090000 		.4byte	.LLST68
 6515 19df 2C       		.uleb128 0x2c
 6516 19e0 07030000 		.4byte	.LASF107
 6517 19e4 03       		.byte	0x3
 6518 19e5 AA       		.byte	0xaa
 6519 19e6 5E040000 		.4byte	0x45e
 6520 19ea 47090000 		.4byte	.LLST69
 6521 19ee 2C       		.uleb128 0x2c
 6522 19ef CE040000 		.4byte	.LASF104
 6523 19f3 03       		.byte	0x3
 6524 19f4 AA       		.byte	0xaa
 6525 19f5 35050000 		.4byte	0x535
 6526 19f9 66090000 		.4byte	.LLST70
 6527 19fd 2D       		.uleb128 0x2d
 6528 19fe 6100     		.ascii	"a\000"
 6529 1a00 03       		.byte	0x3
 6530 1a01 AB       		.byte	0xab
 6531 1a02 5E040000 		.4byte	0x45e
 6532 1a06 87090000 		.4byte	.LLST71
 6533 1a0a 2D       		.uleb128 0x2d
 6534 1a0b 6200     		.ascii	"b\000"
 6535 1a0d 03       		.byte	0x3
 6536 1a0e AB       		.byte	0xab
 6537 1a0f 5E040000 		.4byte	0x45e
 6538 1a13 B1090000 		.4byte	.LLST72
 6539 1a17 2E       		.uleb128 0x2e
 6540 1a18 5000     		.ascii	"P\000"
 6541 1a1a 03       		.byte	0x3
 6542 1a1b AB       		.byte	0xab
 6543 1a1c 5E040000 		.4byte	0x45e
 6544 1a20 02       		.byte	0x2
ARM GAS  /tmp/ccZUWmXH.s 			page 116


 6545 1a21 91       		.byte	0x91
 6546 1a22 50       		.sleb128 -48
 6547 1a23 24       		.uleb128 0x24
 6548 1a24 78000000 		.4byte	.LVL195
 6549 1a28 9E170000 		.4byte	0x179e
 6550 1a2c 461A0000 		.4byte	0x1a46
 6551 1a30 25       		.uleb128 0x25
 6552 1a31 01       		.byte	0x1
 6553 1a32 52       		.byte	0x52
 6554 1a33 02       		.byte	0x2
 6555 1a34 74       		.byte	0x74
 6556 1a35 00       		.sleb128 0
 6557 1a36 25       		.uleb128 0x25
 6558 1a37 01       		.byte	0x1
 6559 1a38 51       		.byte	0x51
 6560 1a39 02       		.byte	0x2
 6561 1a3a 7A       		.byte	0x7a
 6562 1a3b 00       		.sleb128 0
 6563 1a3c 25       		.uleb128 0x25
 6564 1a3d 01       		.byte	0x1
 6565 1a3e 50       		.byte	0x50
 6566 1a3f 05       		.byte	0x5
 6567 1a40 78       		.byte	0x78
 6568 1a41 00       		.sleb128 0
 6569 1a42 75       		.byte	0x75
 6570 1a43 00       		.sleb128 0
 6571 1a44 22       		.byte	0x22
 6572 1a45 00       		.byte	0
 6573 1a46 24       		.uleb128 0x24
 6574 1a47 92000000 		.4byte	.LVL196
 6575 1a4b 9E170000 		.4byte	0x179e
 6576 1a4f 661A0000 		.4byte	0x1a66
 6577 1a53 25       		.uleb128 0x25
 6578 1a54 01       		.byte	0x1
 6579 1a55 52       		.byte	0x52
 6580 1a56 02       		.byte	0x2
 6581 1a57 74       		.byte	0x74
 6582 1a58 00       		.sleb128 0
 6583 1a59 25       		.uleb128 0x25
 6584 1a5a 01       		.byte	0x1
 6585 1a5b 51       		.byte	0x51
 6586 1a5c 02       		.byte	0x2
 6587 1a5d 79       		.byte	0x79
 6588 1a5e 00       		.sleb128 0
 6589 1a5f 25       		.uleb128 0x25
 6590 1a60 01       		.byte	0x1
 6591 1a61 50       		.byte	0x50
 6592 1a62 02       		.byte	0x2
 6593 1a63 7B       		.byte	0x7b
 6594 1a64 00       		.sleb128 0
 6595 1a65 00       		.byte	0
 6596 1a66 24       		.uleb128 0x24
 6597 1a67 A4000000 		.4byte	.LVL197
 6598 1a6b 9E170000 		.4byte	0x179e
 6599 1a6f 861A0000 		.4byte	0x1a86
 6600 1a73 25       		.uleb128 0x25
 6601 1a74 01       		.byte	0x1
ARM GAS  /tmp/ccZUWmXH.s 			page 117


 6602 1a75 52       		.byte	0x52
 6603 1a76 02       		.byte	0x2
 6604 1a77 74       		.byte	0x74
 6605 1a78 00       		.sleb128 0
 6606 1a79 25       		.uleb128 0x25
 6607 1a7a 01       		.byte	0x1
 6608 1a7b 51       		.byte	0x51
 6609 1a7c 02       		.byte	0x2
 6610 1a7d 7A       		.byte	0x7a
 6611 1a7e 00       		.sleb128 0
 6612 1a7f 25       		.uleb128 0x25
 6613 1a80 01       		.byte	0x1
 6614 1a81 50       		.byte	0x50
 6615 1a82 02       		.byte	0x2
 6616 1a83 7B       		.byte	0x7b
 6617 1a84 00       		.sleb128 0
 6618 1a85 00       		.byte	0
 6619 1a86 24       		.uleb128 0x24
 6620 1a87 B6000000 		.4byte	.LVL198
 6621 1a8b 9E170000 		.4byte	0x179e
 6622 1a8f A61A0000 		.4byte	0x1aa6
 6623 1a93 25       		.uleb128 0x25
 6624 1a94 01       		.byte	0x1
 6625 1a95 52       		.byte	0x52
 6626 1a96 02       		.byte	0x2
 6627 1a97 74       		.byte	0x74
 6628 1a98 00       		.sleb128 0
 6629 1a99 25       		.uleb128 0x25
 6630 1a9a 01       		.byte	0x1
 6631 1a9b 51       		.byte	0x51
 6632 1a9c 02       		.byte	0x2
 6633 1a9d 79       		.byte	0x79
 6634 1a9e 00       		.sleb128 0
 6635 1a9f 25       		.uleb128 0x25
 6636 1aa0 01       		.byte	0x1
 6637 1aa1 50       		.byte	0x50
 6638 1aa2 02       		.byte	0x2
 6639 1aa3 7A       		.byte	0x7a
 6640 1aa4 00       		.sleb128 0
 6641 1aa5 00       		.byte	0
 6642 1aa6 24       		.uleb128 0x24
 6643 1aa7 CA000000 		.4byte	.LVL199
 6644 1aab 9E170000 		.4byte	0x179e
 6645 1aaf C01A0000 		.4byte	0x1ac0
 6646 1ab3 25       		.uleb128 0x25
 6647 1ab4 01       		.byte	0x1
 6648 1ab5 52       		.byte	0x52
 6649 1ab6 02       		.byte	0x2
 6650 1ab7 74       		.byte	0x74
 6651 1ab8 00       		.sleb128 0
 6652 1ab9 25       		.uleb128 0x25
 6653 1aba 01       		.byte	0x1
 6654 1abb 51       		.byte	0x51
 6655 1abc 02       		.byte	0x2
 6656 1abd 79       		.byte	0x79
 6657 1abe 00       		.sleb128 0
 6658 1abf 00       		.byte	0
ARM GAS  /tmp/ccZUWmXH.s 			page 118


 6659 1ac0 24       		.uleb128 0x24
 6660 1ac1 DA000000 		.4byte	.LVL200
 6661 1ac5 9E170000 		.4byte	0x179e
 6662 1ac9 DA1A0000 		.4byte	0x1ada
 6663 1acd 25       		.uleb128 0x25
 6664 1ace 01       		.byte	0x1
 6665 1acf 52       		.byte	0x52
 6666 1ad0 02       		.byte	0x2
 6667 1ad1 74       		.byte	0x74
 6668 1ad2 00       		.sleb128 0
 6669 1ad3 25       		.uleb128 0x25
 6670 1ad4 01       		.byte	0x1
 6671 1ad5 51       		.byte	0x51
 6672 1ad6 02       		.byte	0x2
 6673 1ad7 76       		.byte	0x76
 6674 1ad8 00       		.sleb128 0
 6675 1ad9 00       		.byte	0
 6676 1ada 24       		.uleb128 0x24
 6677 1adb E4000000 		.4byte	.LVL201
 6678 1adf 9E170000 		.4byte	0x179e
 6679 1ae3 FA1A0000 		.4byte	0x1afa
 6680 1ae7 25       		.uleb128 0x25
 6681 1ae8 01       		.byte	0x1
 6682 1ae9 52       		.byte	0x52
 6683 1aea 02       		.byte	0x2
 6684 1aeb 74       		.byte	0x74
 6685 1aec 00       		.sleb128 0
 6686 1aed 25       		.uleb128 0x25
 6687 1aee 01       		.byte	0x1
 6688 1aef 51       		.byte	0x51
 6689 1af0 02       		.byte	0x2
 6690 1af1 76       		.byte	0x76
 6691 1af2 00       		.sleb128 0
 6692 1af3 25       		.uleb128 0x25
 6693 1af4 01       		.byte	0x1
 6694 1af5 50       		.byte	0x50
 6695 1af6 02       		.byte	0x2
 6696 1af7 7B       		.byte	0x7b
 6697 1af8 00       		.sleb128 0
 6698 1af9 00       		.byte	0
 6699 1afa 26       		.uleb128 0x26
 6700 1afb EE000000 		.4byte	.LVL202
 6701 1aff 9E170000 		.4byte	0x179e
 6702 1b03 25       		.uleb128 0x25
 6703 1b04 01       		.byte	0x1
 6704 1b05 52       		.byte	0x52
 6705 1b06 02       		.byte	0x2
 6706 1b07 74       		.byte	0x74
 6707 1b08 00       		.sleb128 0
 6708 1b09 25       		.uleb128 0x25
 6709 1b0a 01       		.byte	0x1
 6710 1b0b 51       		.byte	0x51
 6711 1b0c 02       		.byte	0x2
 6712 1b0d 79       		.byte	0x79
 6713 1b0e 00       		.sleb128 0
 6714 1b0f 25       		.uleb128 0x25
 6715 1b10 01       		.byte	0x1
ARM GAS  /tmp/ccZUWmXH.s 			page 119


 6716 1b11 50       		.byte	0x50
 6717 1b12 02       		.byte	0x2
 6718 1b13 7A       		.byte	0x7a
 6719 1b14 00       		.sleb128 0
 6720 1b15 00       		.byte	0
 6721 1b16 00       		.byte	0
 6722 1b17 18       		.uleb128 0x18
 6723 1b18 BF050000 		.4byte	.LASF108
 6724 1b1c 01       		.byte	0x1
 6725 1b1d 72       		.byte	0x72
 6726 1b1e 01       		.byte	0x1
 6727 1b1f 03       		.byte	0x3
 6728 1b20 2F       		.uleb128 0x2f
 6729 1b21 01       		.byte	0x1
 6730 1b22 47030000 		.4byte	.LASF109
 6731 1b26 01       		.byte	0x1
 6732 1b27 0401     		.2byte	0x104
 6733 1b29 01       		.byte	0x1
 6734 1b2a 00000000 		.4byte	.LFB134
 6735 1b2e 7C000000 		.4byte	.LFE134
 6736 1b32 D0090000 		.4byte	.LLST73
 6737 1b36 01       		.byte	0x1
 6738 1b37 E41C0000 		.4byte	0x1ce4
 6739 1b3b 30       		.uleb128 0x30
 6740 1b3c CE040000 		.4byte	.LASF104
 6741 1b40 01       		.byte	0x1
 6742 1b41 0401     		.2byte	0x104
 6743 1b43 35050000 		.4byte	0x535
 6744 1b47 F0090000 		.4byte	.LLST74
 6745 1b4b 31       		.uleb128 0x31
 6746 1b4c 4B040000 		.4byte	.LASF110
 6747 1b50 01       		.byte	0x1
 6748 1b51 0501     		.2byte	0x105
 6749 1b53 30000000 		.4byte	0x30
 6750 1b57 002C0100 		.4byte	0x12c00
 6751 1b5b 32       		.uleb128 0x32
 6752 1b5c F4040000 		.4byte	.LASF93
 6753 1b60 01       		.byte	0x1
 6754 1b61 1C01     		.2byte	0x11c
 6755 1b63 86000000 		.4byte	0x86
 6756 1b67 110A0000 		.4byte	.LLST75
 6757 1b6b 33       		.uleb128 0x33
 6758 1b6c 171B0000 		.4byte	0x1b17
 6759 1b70 02000000 		.4byte	.LBB1154
 6760 1b74 E8050000 		.4byte	.Ldebug_ranges0+0x5e8
 6761 1b78 01       		.byte	0x1
 6762 1b79 0A01     		.2byte	0x10a
 6763 1b7b 941B0000 		.4byte	0x1b94
 6764 1b7f 26       		.uleb128 0x26
 6765 1b80 16000000 		.4byte	.LVL207
 6766 1b84 E2050000 		.4byte	0x5e2
 6767 1b88 25       		.uleb128 0x25
 6768 1b89 01       		.byte	0x1
 6769 1b8a 51       		.byte	0x51
 6770 1b8b 01       		.byte	0x1
 6771 1b8c 30       		.byte	0x30
 6772 1b8d 25       		.uleb128 0x25
ARM GAS  /tmp/ccZUWmXH.s 			page 120


 6773 1b8e 01       		.byte	0x1
 6774 1b8f 50       		.byte	0x50
 6775 1b90 01       		.byte	0x1
 6776 1b91 30       		.byte	0x30
 6777 1b92 00       		.byte	0
 6778 1b93 00       		.byte	0
 6779 1b94 33       		.uleb128 0x33
 6780 1b95 97050000 		.4byte	0x597
 6781 1b99 16000000 		.4byte	.LBB1158
 6782 1b9d 00060000 		.4byte	.Ldebug_ranges0+0x600
 6783 1ba1 01       		.byte	0x1
 6784 1ba2 0B01     		.2byte	0x10b
 6785 1ba4 AB1C0000 		.4byte	0x1cab
 6786 1ba8 27       		.uleb128 0x27
 6787 1ba9 AD050000 		.4byte	0x5ad
 6788 1bad 00       		.byte	0
 6789 1bae 27       		.uleb128 0x27
 6790 1baf A4050000 		.4byte	0x5a4
 6791 1bb3 00       		.byte	0
 6792 1bb4 1B       		.uleb128 0x1b
 6793 1bb5 65050000 		.4byte	0x565
 6794 1bb9 24000000 		.4byte	.LBB1160
 6795 1bbd 18060000 		.4byte	.Ldebug_ranges0+0x618
 6796 1bc1 01       		.byte	0x1
 6797 1bc2 41       		.byte	0x41
 6798 1bc3 D11B0000 		.4byte	0x1bd1
 6799 1bc7 1C       		.uleb128 0x1c
 6800 1bc8 72050000 		.4byte	0x572
 6801 1bcc 250A0000 		.4byte	.LLST76
 6802 1bd0 00       		.byte	0
 6803 1bd1 1B       		.uleb128 0x1b
 6804 1bd2 7E050000 		.4byte	0x57e
 6805 1bd6 28000000 		.4byte	.LBB1163
 6806 1bda 30060000 		.4byte	.Ldebug_ranges0+0x630
 6807 1bde 01       		.byte	0x1
 6808 1bdf 41       		.byte	0x41
 6809 1be0 EE1B0000 		.4byte	0x1bee
 6810 1be4 1C       		.uleb128 0x1c
 6811 1be5 8B050000 		.4byte	0x58b
 6812 1be9 3A0A0000 		.4byte	.LLST77
 6813 1bed 00       		.byte	0
 6814 1bee 1B       		.uleb128 0x1b
 6815 1bef 65050000 		.4byte	0x565
 6816 1bf3 34000000 		.4byte	.LBB1169
 6817 1bf7 50060000 		.4byte	.Ldebug_ranges0+0x650
 6818 1bfb 01       		.byte	0x1
 6819 1bfc 42       		.byte	0x42
 6820 1bfd 0B1C0000 		.4byte	0x1c0b
 6821 1c01 1C       		.uleb128 0x1c
 6822 1c02 72050000 		.4byte	0x572
 6823 1c06 4E0A0000 		.4byte	.LLST78
 6824 1c0a 00       		.byte	0
 6825 1c0b 1D       		.uleb128 0x1d
 6826 1c0c 7E050000 		.4byte	0x57e
 6827 1c10 3A000000 		.4byte	.LBB1174
 6828 1c14 3C000000 		.4byte	.LBE1174
 6829 1c18 01       		.byte	0x1
ARM GAS  /tmp/ccZUWmXH.s 			page 121


 6830 1c19 42       		.byte	0x42
 6831 1c1a 281C0000 		.4byte	0x1c28
 6832 1c1e 1C       		.uleb128 0x1c
 6833 1c1f 8B050000 		.4byte	0x58b
 6834 1c23 630A0000 		.4byte	.LLST79
 6835 1c27 00       		.byte	0
 6836 1c28 34       		.uleb128 0x34
 6837 1c29 97050000 		.4byte	0x597
 6838 1c2d 58000000 		.4byte	.LBB1176
 6839 1c31 7C000000 		.4byte	.LBE1176
 6840 1c35 01       		.byte	0x1
 6841 1c36 0401     		.2byte	0x104
 6842 1c38 27       		.uleb128 0x27
 6843 1c39 AD050000 		.4byte	0x5ad
 6844 1c3d 00       		.byte	0
 6845 1c3e 27       		.uleb128 0x27
 6846 1c3f A4050000 		.4byte	0x5a4
 6847 1c43 00       		.byte	0
 6848 1c44 1B       		.uleb128 0x1b
 6849 1c45 65050000 		.4byte	0x565
 6850 1c49 58000000 		.4byte	.LBB1177
 6851 1c4d 68060000 		.4byte	.Ldebug_ranges0+0x668
 6852 1c51 01       		.byte	0x1
 6853 1c52 45       		.byte	0x45
 6854 1c53 5E1C0000 		.4byte	0x1c5e
 6855 1c57 27       		.uleb128 0x27
 6856 1c58 72050000 		.4byte	0x572
 6857 1c5c 4E       		.byte	0x4e
 6858 1c5d 00       		.byte	0
 6859 1c5e 1B       		.uleb128 0x1b
 6860 1c5f 7E050000 		.4byte	0x57e
 6861 1c63 5C000000 		.4byte	.LBB1180
 6862 1c67 80060000 		.4byte	.Ldebug_ranges0+0x680
 6863 1c6b 01       		.byte	0x1
 6864 1c6c 45       		.byte	0x45
 6865 1c6d 781C0000 		.4byte	0x1c78
 6866 1c71 27       		.uleb128 0x27
 6867 1c72 8B050000 		.4byte	0x58b
 6868 1c76 EF       		.byte	0xef
 6869 1c77 00       		.byte	0
 6870 1c78 1B       		.uleb128 0x1b
 6871 1c79 65050000 		.4byte	0x565
 6872 1c7d 68000000 		.4byte	.LBB1186
 6873 1c81 A0060000 		.4byte	.Ldebug_ranges0+0x6a0
 6874 1c85 01       		.byte	0x1
 6875 1c86 46       		.byte	0x46
 6876 1c87 921C0000 		.4byte	0x1c92
 6877 1c8b 27       		.uleb128 0x27
 6878 1c8c 72050000 		.4byte	0x572
 6879 1c90 4F       		.byte	0x4f
 6880 1c91 00       		.byte	0
 6881 1c92 1F       		.uleb128 0x1f
 6882 1c93 7E050000 		.4byte	0x57e
 6883 1c97 6E000000 		.4byte	.LBB1191
 6884 1c9b 7C000000 		.4byte	.LBE1191
 6885 1c9f 01       		.byte	0x1
 6886 1ca0 46       		.byte	0x46
ARM GAS  /tmp/ccZUWmXH.s 			page 122


 6887 1ca1 29       		.uleb128 0x29
 6888 1ca2 8B050000 		.4byte	0x58b
 6889 1ca6 3F01     		.2byte	0x13f
 6890 1ca8 00       		.byte	0
 6891 1ca9 00       		.byte	0
 6892 1caa 00       		.byte	0
 6893 1cab 33       		.uleb128 0x33
 6894 1cac 65050000 		.4byte	0x565
 6895 1cb0 3C000000 		.4byte	.LBB1194
 6896 1cb4 B8060000 		.4byte	.Ldebug_ranges0+0x6b8
 6897 1cb8 01       		.byte	0x1
 6898 1cb9 0D01     		.2byte	0x10d
 6899 1cbb C91C0000 		.4byte	0x1cc9
 6900 1cbf 1C       		.uleb128 0x1c
 6901 1cc0 72050000 		.4byte	0x572
 6902 1cc4 770A0000 		.4byte	.LLST80
 6903 1cc8 00       		.byte	0
 6904 1cc9 35       		.uleb128 0x35
 6905 1cca 7E050000 		.4byte	0x57e
 6906 1cce 40000000 		.4byte	.LBB1197
 6907 1cd2 D0060000 		.4byte	.Ldebug_ranges0+0x6d0
 6908 1cd6 01       		.byte	0x1
 6909 1cd7 1E01     		.2byte	0x11e
 6910 1cd9 1C       		.uleb128 0x1c
 6911 1cda 8B050000 		.4byte	0x58b
 6912 1cde 8C0A0000 		.4byte	.LLST81
 6913 1ce2 00       		.byte	0
 6914 1ce3 00       		.byte	0
 6915 1ce4 2F       		.uleb128 0x2f
 6916 1ce5 01       		.byte	0x1
 6917 1ce6 E0010000 		.4byte	.LASF111
 6918 1cea 01       		.byte	0x1
 6919 1ceb 3101     		.2byte	0x131
 6920 1ced 01       		.byte	0x1
 6921 1cee 00000000 		.4byte	.LFB135
 6922 1cf2 46000000 		.4byte	.LFE135
 6923 1cf6 9F0A0000 		.4byte	.LLST82
 6924 1cfa 01       		.byte	0x1
 6925 1cfb A91D0000 		.4byte	0x1da9
 6926 1cff 36       		.uleb128 0x36
 6927 1d00 7800     		.ascii	"x\000"
 6928 1d02 01       		.byte	0x1
 6929 1d03 3101     		.2byte	0x131
 6930 1d05 5E040000 		.4byte	0x45e
 6931 1d09 BF0A0000 		.4byte	.LLST83
 6932 1d0d 36       		.uleb128 0x36
 6933 1d0e 7900     		.ascii	"y\000"
 6934 1d10 01       		.byte	0x1
 6935 1d11 3101     		.2byte	0x131
 6936 1d13 5E040000 		.4byte	0x45e
 6937 1d17 E00A0000 		.4byte	.LLST84
 6938 1d1b 36       		.uleb128 0x36
 6939 1d1c 637800   		.ascii	"cx\000"
 6940 1d1f 01       		.byte	0x1
 6941 1d20 3101     		.2byte	0x131
 6942 1d22 5E040000 		.4byte	0x45e
 6943 1d26 010B0000 		.4byte	.LLST85
ARM GAS  /tmp/ccZUWmXH.s 			page 123


 6944 1d2a 36       		.uleb128 0x36
 6945 1d2b 637900   		.ascii	"cy\000"
 6946 1d2e 01       		.byte	0x1
 6947 1d2f 3101     		.2byte	0x131
 6948 1d31 5E040000 		.4byte	0x45e
 6949 1d35 220B0000 		.4byte	.LLST86
 6950 1d39 37       		.uleb128 0x37
 6951 1d3a CE040000 		.4byte	.LASF104
 6952 1d3e 01       		.byte	0x1
 6953 1d3f 3101     		.2byte	0x131
 6954 1d41 35050000 		.4byte	0x535
 6955 1d45 02       		.byte	0x2
 6956 1d46 91       		.byte	0x91
 6957 1d47 00       		.sleb128 0
 6958 1d48 38       		.uleb128 0x38
 6959 1d49 4B040000 		.4byte	.LASF110
 6960 1d4d 01       		.byte	0x1
 6961 1d4e 3201     		.2byte	0x132
 6962 1d50 30000000 		.4byte	0x30
 6963 1d54 01       		.byte	0x1
 6964 1d55 55       		.byte	0x55
 6965 1d56 32       		.uleb128 0x32
 6966 1d57 F4040000 		.4byte	.LASF93
 6967 1d5b 01       		.byte	0x1
 6968 1d5c 4F01     		.2byte	0x14f
 6969 1d5e 86000000 		.4byte	0x86
 6970 1d62 430B0000 		.4byte	.LLST87
 6971 1d66 39       		.uleb128 0x39
 6972 1d67 65050000 		.4byte	0x565
 6973 1d6b 0E000000 		.4byte	.LBB1205
 6974 1d6f 16000000 		.4byte	.LBE1205
 6975 1d73 01       		.byte	0x1
 6976 1d74 4001     		.2byte	0x140
 6977 1d76 811D0000 		.4byte	0x1d81
 6978 1d7a 27       		.uleb128 0x27
 6979 1d7b 72050000 		.4byte	0x572
 6980 1d7f 22       		.byte	0x22
 6981 1d80 00       		.byte	0
 6982 1d81 33       		.uleb128 0x33
 6983 1d82 7E050000 		.4byte	0x57e
 6984 1d86 18000000 		.4byte	.LBB1207
 6985 1d8a F0060000 		.4byte	.Ldebug_ranges0+0x6f0
 6986 1d8e 01       		.byte	0x1
 6987 1d8f 5101     		.2byte	0x151
 6988 1d91 9F1D0000 		.4byte	0x1d9f
 6989 1d95 1C       		.uleb128 0x1c
 6990 1d96 8B050000 		.4byte	0x58b
 6991 1d9a 570B0000 		.4byte	.LLST88
 6992 1d9e 00       		.byte	0
 6993 1d9f 3A       		.uleb128 0x3a
 6994 1da0 0E000000 		.4byte	.LVL221
 6995 1da4 E2050000 		.4byte	0x5e2
 6996 1da8 00       		.byte	0
 6997 1da9 2A       		.uleb128 0x2a
 6998 1daa 01       		.byte	0x1
 6999 1dab 18050000 		.4byte	.LASF112
 7000 1daf 03       		.byte	0x3
ARM GAS  /tmp/ccZUWmXH.s 			page 124


 7001 1db0 27       		.byte	0x27
 7002 1db1 01       		.byte	0x1
 7003 1db2 00000000 		.4byte	.LFB118
 7004 1db6 D6020000 		.4byte	.LFE118
 7005 1dba 820B0000 		.4byte	.LLST89
 7006 1dbe 01       		.byte	0x1
 7007 1dbf E11F0000 		.4byte	0x1fe1
 7008 1dc3 1A       		.uleb128 0x1a
 7009 1dc4 783000   		.ascii	"x0\000"
 7010 1dc7 03       		.byte	0x3
 7011 1dc8 27       		.byte	0x27
 7012 1dc9 5E040000 		.4byte	0x45e
 7013 1dcd AE0B0000 		.4byte	.LLST90
 7014 1dd1 1A       		.uleb128 0x1a
 7015 1dd2 793000   		.ascii	"y0\000"
 7016 1dd5 03       		.byte	0x3
 7017 1dd6 27       		.byte	0x27
 7018 1dd7 5E040000 		.4byte	0x45e
 7019 1ddb 990C0000 		.4byte	.LLST91
 7020 1ddf 1A       		.uleb128 0x1a
 7021 1de0 783100   		.ascii	"x1\000"
 7022 1de3 03       		.byte	0x3
 7023 1de4 27       		.byte	0x27
 7024 1de5 5E040000 		.4byte	0x45e
 7025 1de9 840D0000 		.4byte	.LLST92
 7026 1ded 1A       		.uleb128 0x1a
 7027 1dee 793100   		.ascii	"y1\000"
 7028 1df1 03       		.byte	0x3
 7029 1df2 27       		.byte	0x27
 7030 1df3 5E040000 		.4byte	0x45e
 7031 1df7 220E0000 		.4byte	.LLST93
 7032 1dfb 2B       		.uleb128 0x2b
 7033 1dfc CE040000 		.4byte	.LASF104
 7034 1e00 03       		.byte	0x3
 7035 1e01 27       		.byte	0x27
 7036 1e02 35050000 		.4byte	0x535
 7037 1e06 02       		.byte	0x2
 7038 1e07 91       		.byte	0x91
 7039 1e08 00       		.sleb128 0
 7040 1e09 2D       		.uleb128 0x2d
 7041 1e0a 647900   		.ascii	"dy\000"
 7042 1e0d 03       		.byte	0x3
 7043 1e0e 28       		.byte	0x28
 7044 1e0f 50000000 		.4byte	0x50
 7045 1e13 C00E0000 		.4byte	.LLST94
 7046 1e17 2D       		.uleb128 0x2d
 7047 1e18 647800   		.ascii	"dx\000"
 7048 1e1b 03       		.byte	0x3
 7049 1e1c 28       		.byte	0x28
 7050 1e1d 50000000 		.4byte	0x50
 7051 1e21 0D0F0000 		.4byte	.LLST95
 7052 1e25 3B       		.uleb128 0x3b
 7053 1e26 96000000 		.4byte	.LASF113
 7054 1e2a 03       		.byte	0x3
 7055 1e2b 29       		.byte	0x29
 7056 1e2c 50000000 		.4byte	0x50
 7057 1e30 4F0F0000 		.4byte	.LLST96
ARM GAS  /tmp/ccZUWmXH.s 			page 125


 7058 1e34 3B       		.uleb128 0x3b
 7059 1e35 9B000000 		.4byte	.LASF114
 7060 1e39 03       		.byte	0x3
 7061 1e3a 29       		.byte	0x29
 7062 1e3b 50000000 		.4byte	0x50
 7063 1e3f 7A0F0000 		.4byte	.LLST97
 7064 1e43 2D       		.uleb128 0x2d
 7065 1e44 5000     		.ascii	"P\000"
 7066 1e46 03       		.byte	0x3
 7067 1e47 2A       		.byte	0x2a
 7068 1e48 50000000 		.4byte	0x50
 7069 1e4c B10F0000 		.4byte	.LLST98
 7070 1e50 3B       		.uleb128 0x3b
 7071 1e51 91000000 		.4byte	.LASF115
 7072 1e55 03       		.byte	0x3
 7073 1e56 2A       		.byte	0x2a
 7074 1e57 50000000 		.4byte	0x50
 7075 1e5b F00F0000 		.4byte	.LLST99
 7076 1e5f 2D       		.uleb128 0x2d
 7077 1e60 6900     		.ascii	"i\000"
 7078 1e62 03       		.byte	0x3
 7079 1e63 2A       		.byte	0x2a
 7080 1e64 50000000 		.4byte	0x50
 7081 1e68 28100000 		.4byte	.LLST100
 7082 1e6c 24       		.uleb128 0x24
 7083 1e6d 70000000 		.4byte	.LVL239
 7084 1e71 9E170000 		.4byte	0x179e
 7085 1e75 8C1E0000 		.4byte	0x1e8c
 7086 1e79 25       		.uleb128 0x25
 7087 1e7a 01       		.byte	0x1
 7088 1e7b 52       		.byte	0x52
 7089 1e7c 02       		.byte	0x2
 7090 1e7d 75       		.byte	0x75
 7091 1e7e 00       		.sleb128 0
 7092 1e7f 25       		.uleb128 0x25
 7093 1e80 01       		.byte	0x1
 7094 1e81 51       		.byte	0x51
 7095 1e82 02       		.byte	0x2
 7096 1e83 74       		.byte	0x74
 7097 1e84 00       		.sleb128 0
 7098 1e85 25       		.uleb128 0x25
 7099 1e86 01       		.byte	0x1
 7100 1e87 50       		.byte	0x50
 7101 1e88 02       		.byte	0x2
 7102 1e89 79       		.byte	0x79
 7103 1e8a 00       		.sleb128 0
 7104 1e8b 00       		.byte	0
 7105 1e8c 24       		.uleb128 0x24
 7106 1e8d A4000000 		.4byte	.LVL244
 7107 1e91 9E170000 		.4byte	0x179e
 7108 1e95 AC1E0000 		.4byte	0x1eac
 7109 1e99 25       		.uleb128 0x25
 7110 1e9a 01       		.byte	0x1
 7111 1e9b 52       		.byte	0x52
 7112 1e9c 02       		.byte	0x2
 7113 1e9d 75       		.byte	0x75
 7114 1e9e 00       		.sleb128 0
ARM GAS  /tmp/ccZUWmXH.s 			page 126


 7115 1e9f 25       		.uleb128 0x25
 7116 1ea0 01       		.byte	0x1
 7117 1ea1 51       		.byte	0x51
 7118 1ea2 02       		.byte	0x2
 7119 1ea3 74       		.byte	0x74
 7120 1ea4 00       		.sleb128 0
 7121 1ea5 25       		.uleb128 0x25
 7122 1ea6 01       		.byte	0x1
 7123 1ea7 50       		.byte	0x50
 7124 1ea8 02       		.byte	0x2
 7125 1ea9 79       		.byte	0x79
 7126 1eaa 00       		.sleb128 0
 7127 1eab 00       		.byte	0
 7128 1eac 24       		.uleb128 0x24
 7129 1ead D4000000 		.4byte	.LVL247
 7130 1eb1 9E170000 		.4byte	0x179e
 7131 1eb5 CC1E0000 		.4byte	0x1ecc
 7132 1eb9 25       		.uleb128 0x25
 7133 1eba 01       		.byte	0x1
 7134 1ebb 52       		.byte	0x52
 7135 1ebc 02       		.byte	0x2
 7136 1ebd 75       		.byte	0x75
 7137 1ebe 00       		.sleb128 0
 7138 1ebf 25       		.uleb128 0x25
 7139 1ec0 01       		.byte	0x1
 7140 1ec1 51       		.byte	0x51
 7141 1ec2 02       		.byte	0x2
 7142 1ec3 74       		.byte	0x74
 7143 1ec4 00       		.sleb128 0
 7144 1ec5 25       		.uleb128 0x25
 7145 1ec6 01       		.byte	0x1
 7146 1ec7 50       		.byte	0x50
 7147 1ec8 02       		.byte	0x2
 7148 1ec9 79       		.byte	0x79
 7149 1eca 00       		.sleb128 0
 7150 1ecb 00       		.byte	0
 7151 1ecc 24       		.uleb128 0x24
 7152 1ecd 0E010000 		.4byte	.LVL251
 7153 1ed1 9E170000 		.4byte	0x179e
 7154 1ed5 EC1E0000 		.4byte	0x1eec
 7155 1ed9 25       		.uleb128 0x25
 7156 1eda 01       		.byte	0x1
 7157 1edb 52       		.byte	0x52
 7158 1edc 02       		.byte	0x2
 7159 1edd 75       		.byte	0x75
 7160 1ede 00       		.sleb128 0
 7161 1edf 25       		.uleb128 0x25
 7162 1ee0 01       		.byte	0x1
 7163 1ee1 51       		.byte	0x51
 7164 1ee2 02       		.byte	0x2
 7165 1ee3 74       		.byte	0x74
 7166 1ee4 00       		.sleb128 0
 7167 1ee5 25       		.uleb128 0x25
 7168 1ee6 01       		.byte	0x1
 7169 1ee7 50       		.byte	0x50
 7170 1ee8 02       		.byte	0x2
 7171 1ee9 79       		.byte	0x79
ARM GAS  /tmp/ccZUWmXH.s 			page 127


 7172 1eea 00       		.sleb128 0
 7173 1eeb 00       		.byte	0
 7174 1eec 24       		.uleb128 0x24
 7175 1eed 74010000 		.4byte	.LVL264
 7176 1ef1 9E170000 		.4byte	0x179e
 7177 1ef5 0C1F0000 		.4byte	0x1f0c
 7178 1ef9 25       		.uleb128 0x25
 7179 1efa 01       		.byte	0x1
 7180 1efb 52       		.byte	0x52
 7181 1efc 02       		.byte	0x2
 7182 1efd 75       		.byte	0x75
 7183 1efe 00       		.sleb128 0
 7184 1eff 25       		.uleb128 0x25
 7185 1f00 01       		.byte	0x1
 7186 1f01 51       		.byte	0x51
 7187 1f02 02       		.byte	0x2
 7188 1f03 74       		.byte	0x74
 7189 1f04 00       		.sleb128 0
 7190 1f05 25       		.uleb128 0x25
 7191 1f06 01       		.byte	0x1
 7192 1f07 50       		.byte	0x50
 7193 1f08 02       		.byte	0x2
 7194 1f09 79       		.byte	0x79
 7195 1f0a 00       		.sleb128 0
 7196 1f0b 00       		.byte	0
 7197 1f0c 24       		.uleb128 0x24
 7198 1f0d A6010000 		.4byte	.LVL270
 7199 1f11 9E170000 		.4byte	0x179e
 7200 1f15 2C1F0000 		.4byte	0x1f2c
 7201 1f19 25       		.uleb128 0x25
 7202 1f1a 01       		.byte	0x1
 7203 1f1b 52       		.byte	0x52
 7204 1f1c 02       		.byte	0x2
 7205 1f1d 75       		.byte	0x75
 7206 1f1e 00       		.sleb128 0
 7207 1f1f 25       		.uleb128 0x25
 7208 1f20 01       		.byte	0x1
 7209 1f21 51       		.byte	0x51
 7210 1f22 02       		.byte	0x2
 7211 1f23 74       		.byte	0x74
 7212 1f24 00       		.sleb128 0
 7213 1f25 25       		.uleb128 0x25
 7214 1f26 01       		.byte	0x1
 7215 1f27 50       		.byte	0x50
 7216 1f28 02       		.byte	0x2
 7217 1f29 79       		.byte	0x79
 7218 1f2a 00       		.sleb128 0
 7219 1f2b 00       		.byte	0
 7220 1f2c 24       		.uleb128 0x24
 7221 1f2d D6010000 		.4byte	.LVL273
 7222 1f31 9E170000 		.4byte	0x179e
 7223 1f35 4C1F0000 		.4byte	0x1f4c
 7224 1f39 25       		.uleb128 0x25
 7225 1f3a 01       		.byte	0x1
 7226 1f3b 52       		.byte	0x52
 7227 1f3c 02       		.byte	0x2
 7228 1f3d 75       		.byte	0x75
ARM GAS  /tmp/ccZUWmXH.s 			page 128


 7229 1f3e 00       		.sleb128 0
 7230 1f3f 25       		.uleb128 0x25
 7231 1f40 01       		.byte	0x1
 7232 1f41 51       		.byte	0x51
 7233 1f42 02       		.byte	0x2
 7234 1f43 74       		.byte	0x74
 7235 1f44 00       		.sleb128 0
 7236 1f45 25       		.uleb128 0x25
 7237 1f46 01       		.byte	0x1
 7238 1f47 50       		.byte	0x50
 7239 1f48 02       		.byte	0x2
 7240 1f49 79       		.byte	0x79
 7241 1f4a 00       		.sleb128 0
 7242 1f4b 00       		.byte	0
 7243 1f4c 24       		.uleb128 0x24
 7244 1f4d 0C020000 		.4byte	.LVL278
 7245 1f51 9E170000 		.4byte	0x179e
 7246 1f55 6C1F0000 		.4byte	0x1f6c
 7247 1f59 25       		.uleb128 0x25
 7248 1f5a 01       		.byte	0x1
 7249 1f5b 52       		.byte	0x52
 7250 1f5c 02       		.byte	0x2
 7251 1f5d 75       		.byte	0x75
 7252 1f5e 00       		.sleb128 0
 7253 1f5f 25       		.uleb128 0x25
 7254 1f60 01       		.byte	0x1
 7255 1f61 51       		.byte	0x51
 7256 1f62 02       		.byte	0x2
 7257 1f63 74       		.byte	0x74
 7258 1f64 00       		.sleb128 0
 7259 1f65 25       		.uleb128 0x25
 7260 1f66 01       		.byte	0x1
 7261 1f67 50       		.byte	0x50
 7262 1f68 02       		.byte	0x2
 7263 1f69 79       		.byte	0x79
 7264 1f6a 00       		.sleb128 0
 7265 1f6b 00       		.byte	0
 7266 1f6c 3C       		.uleb128 0x3c
 7267 1f6d 42020000 		.4byte	.LVL283
 7268 1f71 01       		.byte	0x1
 7269 1f72 E41C0000 		.4byte	0x1ce4
 7270 1f76 871F0000 		.4byte	0x1f87
 7271 1f7a 25       		.uleb128 0x25
 7272 1f7b 01       		.byte	0x1
 7273 1f7c 52       		.byte	0x52
 7274 1f7d 01       		.byte	0x1
 7275 1f7e 31       		.byte	0x31
 7276 1f7f 25       		.uleb128 0x25
 7277 1f80 02       		.byte	0x2
 7278 1f81 91       		.byte	0x91
 7279 1f82 00       		.sleb128 0
 7280 1f83 02       		.byte	0x2
 7281 1f84 75       		.byte	0x75
 7282 1f85 00       		.sleb128 0
 7283 1f86 00       		.byte	0
 7284 1f87 3C       		.uleb128 0x3c
 7285 1f88 5C020000 		.4byte	.LVL286
ARM GAS  /tmp/ccZUWmXH.s 			page 129


 7286 1f8c 01       		.byte	0x1
 7287 1f8d E41C0000 		.4byte	0x1ce4
 7288 1f91 A21F0000 		.4byte	0x1fa2
 7289 1f95 25       		.uleb128 0x25
 7290 1f96 01       		.byte	0x1
 7291 1f97 53       		.byte	0x53
 7292 1f98 01       		.byte	0x1
 7293 1f99 31       		.byte	0x31
 7294 1f9a 25       		.uleb128 0x25
 7295 1f9b 02       		.byte	0x2
 7296 1f9c 91       		.byte	0x91
 7297 1f9d 00       		.sleb128 0
 7298 1f9e 02       		.byte	0x2
 7299 1f9f 75       		.byte	0x75
 7300 1fa0 00       		.sleb128 0
 7301 1fa1 00       		.byte	0
 7302 1fa2 3C       		.uleb128 0x3c
 7303 1fa3 96020000 		.4byte	.LVL292
 7304 1fa7 01       		.byte	0x1
 7305 1fa8 E41C0000 		.4byte	0x1ce4
 7306 1fac C31F0000 		.4byte	0x1fc3
 7307 1fb0 25       		.uleb128 0x25
 7308 1fb1 01       		.byte	0x1
 7309 1fb2 53       		.byte	0x53
 7310 1fb3 02       		.byte	0x2
 7311 1fb4 74       		.byte	0x74
 7312 1fb5 00       		.sleb128 0
 7313 1fb6 25       		.uleb128 0x25
 7314 1fb7 01       		.byte	0x1
 7315 1fb8 52       		.byte	0x52
 7316 1fb9 01       		.byte	0x1
 7317 1fba 31       		.byte	0x31
 7318 1fbb 25       		.uleb128 0x25
 7319 1fbc 02       		.byte	0x2
 7320 1fbd 91       		.byte	0x91
 7321 1fbe 00       		.sleb128 0
 7322 1fbf 02       		.byte	0x2
 7323 1fc0 75       		.byte	0x75
 7324 1fc1 00       		.sleb128 0
 7325 1fc2 00       		.byte	0
 7326 1fc3 3D       		.uleb128 0x3d
 7327 1fc4 B2020000 		.4byte	.LVL296
 7328 1fc8 01       		.byte	0x1
 7329 1fc9 E41C0000 		.4byte	0x1ce4
 7330 1fcd 25       		.uleb128 0x25
 7331 1fce 01       		.byte	0x1
 7332 1fcf 53       		.byte	0x53
 7333 1fd0 01       		.byte	0x1
 7334 1fd1 31       		.byte	0x31
 7335 1fd2 25       		.uleb128 0x25
 7336 1fd3 01       		.byte	0x1
 7337 1fd4 52       		.byte	0x52
 7338 1fd5 02       		.byte	0x2
 7339 1fd6 79       		.byte	0x79
 7340 1fd7 00       		.sleb128 0
 7341 1fd8 25       		.uleb128 0x25
 7342 1fd9 02       		.byte	0x2
ARM GAS  /tmp/ccZUWmXH.s 			page 130


 7343 1fda 91       		.byte	0x91
 7344 1fdb 00       		.sleb128 0
 7345 1fdc 02       		.byte	0x2
 7346 1fdd 75       		.byte	0x75
 7347 1fde 00       		.sleb128 0
 7348 1fdf 00       		.byte	0
 7349 1fe0 00       		.byte	0
 7350 1fe1 2A       		.uleb128 0x2a
 7351 1fe2 01       		.byte	0x1
 7352 1fe3 23010000 		.4byte	.LASF116
 7353 1fe7 03       		.byte	0x3
 7354 1fe8 C3       		.byte	0xc3
 7355 1fe9 01       		.byte	0x1
 7356 1fea 00000000 		.4byte	.LFB120
 7357 1fee E6000000 		.4byte	.LFE120
 7358 1ff2 54100000 		.4byte	.LLST101
 7359 1ff6 01       		.byte	0x1
 7360 1ff7 1F210000 		.4byte	0x211f
 7361 1ffb 1A       		.uleb128 0x1a
 7362 1ffc 7800     		.ascii	"x\000"
 7363 1ffe 03       		.byte	0x3
 7364 1fff C3       		.byte	0xc3
 7365 2000 5E040000 		.4byte	0x45e
 7366 2004 81100000 		.4byte	.LLST102
 7367 2008 1A       		.uleb128 0x1a
 7368 2009 7900     		.ascii	"y\000"
 7369 200b 03       		.byte	0x3
 7370 200c C3       		.byte	0xc3
 7371 200d 5E040000 		.4byte	0x45e
 7372 2011 9F100000 		.4byte	.LLST103
 7373 2015 2C       		.uleb128 0x2c
 7374 2016 07030000 		.4byte	.LASF107
 7375 201a 03       		.byte	0x3
 7376 201b C3       		.byte	0xc3
 7377 201c 5E040000 		.4byte	0x45e
 7378 2020 BD100000 		.4byte	.LLST104
 7379 2024 2C       		.uleb128 0x2c
 7380 2025 CE040000 		.4byte	.LASF104
 7381 2029 03       		.byte	0x3
 7382 202a C3       		.byte	0xc3
 7383 202b 35050000 		.4byte	0x535
 7384 202f DE100000 		.4byte	.LLST105
 7385 2033 2D       		.uleb128 0x2d
 7386 2034 6100     		.ascii	"a\000"
 7387 2036 03       		.byte	0x3
 7388 2037 C4       		.byte	0xc4
 7389 2038 5E040000 		.4byte	0x45e
 7390 203c FF100000 		.4byte	.LLST106
 7391 2040 2D       		.uleb128 0x2d
 7392 2041 6200     		.ascii	"b\000"
 7393 2043 03       		.byte	0x3
 7394 2044 C4       		.byte	0xc4
 7395 2045 5E040000 		.4byte	0x45e
 7396 2049 3F110000 		.4byte	.LLST107
 7397 204d 2E       		.uleb128 0x2e
 7398 204e 5000     		.ascii	"P\000"
 7399 2050 03       		.byte	0x3
ARM GAS  /tmp/ccZUWmXH.s 			page 131


 7400 2051 C4       		.byte	0xc4
 7401 2052 5E040000 		.4byte	0x45e
 7402 2056 02       		.byte	0x2
 7403 2057 91       		.byte	0x91
 7404 2058 50       		.sleb128 -48
 7405 2059 24       		.uleb128 0x24
 7406 205a 80000000 		.4byte	.LVL310
 7407 205e A91D0000 		.4byte	0x1da9
 7408 2062 8F200000 		.4byte	0x208f
 7409 2066 25       		.uleb128 0x25
 7410 2067 01       		.byte	0x1
 7411 2068 53       		.byte	0x53
 7412 2069 05       		.byte	0x5
 7413 206a 75       		.byte	0x75
 7414 206b 00       		.sleb128 0
 7415 206c 76       		.byte	0x76
 7416 206d 00       		.sleb128 0
 7417 206e 22       		.byte	0x22
 7418 206f 25       		.uleb128 0x25
 7419 2070 01       		.byte	0x1
 7420 2071 52       		.byte	0x52
 7421 2072 02       		.byte	0x2
 7422 2073 7B       		.byte	0x7b
 7423 2074 00       		.sleb128 0
 7424 2075 25       		.uleb128 0x25
 7425 2076 01       		.byte	0x1
 7426 2077 51       		.byte	0x51
 7427 2078 05       		.byte	0x5
 7428 2079 75       		.byte	0x75
 7429 207a 00       		.sleb128 0
 7430 207b 76       		.byte	0x76
 7431 207c 00       		.sleb128 0
 7432 207d 22       		.byte	0x22
 7433 207e 25       		.uleb128 0x25
 7434 207f 01       		.byte	0x1
 7435 2080 50       		.byte	0x50
 7436 2081 05       		.byte	0x5
 7437 2082 78       		.byte	0x78
 7438 2083 00       		.sleb128 0
 7439 2084 74       		.byte	0x74
 7440 2085 00       		.sleb128 0
 7441 2086 1C       		.byte	0x1c
 7442 2087 25       		.uleb128 0x25
 7443 2088 02       		.byte	0x2
 7444 2089 7D       		.byte	0x7d
 7445 208a 00       		.sleb128 0
 7446 208b 02       		.byte	0x2
 7447 208c 77       		.byte	0x77
 7448 208d 00       		.sleb128 0
 7449 208e 00       		.byte	0
 7450 208f 24       		.uleb128 0x24
 7451 2090 94000000 		.4byte	.LVL311
 7452 2094 A91D0000 		.4byte	0x1da9
 7453 2098 BC200000 		.4byte	0x20bc
 7454 209c 25       		.uleb128 0x25
 7455 209d 01       		.byte	0x1
 7456 209e 53       		.byte	0x53
ARM GAS  /tmp/ccZUWmXH.s 			page 132


 7457 209f 05       		.byte	0x5
 7458 20a0 76       		.byte	0x76
 7459 20a1 00       		.sleb128 0
 7460 20a2 75       		.byte	0x75
 7461 20a3 00       		.sleb128 0
 7462 20a4 1C       		.byte	0x1c
 7463 20a5 25       		.uleb128 0x25
 7464 20a6 01       		.byte	0x1
 7465 20a7 52       		.byte	0x52
 7466 20a8 02       		.byte	0x2
 7467 20a9 7B       		.byte	0x7b
 7468 20aa 00       		.sleb128 0
 7469 20ab 25       		.uleb128 0x25
 7470 20ac 01       		.byte	0x1
 7471 20ad 51       		.byte	0x51
 7472 20ae 05       		.byte	0x5
 7473 20af 76       		.byte	0x76
 7474 20b0 00       		.sleb128 0
 7475 20b1 75       		.byte	0x75
 7476 20b2 00       		.sleb128 0
 7477 20b3 1C       		.byte	0x1c
 7478 20b4 25       		.uleb128 0x25
 7479 20b5 02       		.byte	0x2
 7480 20b6 7D       		.byte	0x7d
 7481 20b7 00       		.sleb128 0
 7482 20b8 02       		.byte	0x2
 7483 20b9 77       		.byte	0x77
 7484 20ba 00       		.sleb128 0
 7485 20bb 00       		.byte	0
 7486 20bc 24       		.uleb128 0x24
 7487 20bd B0000000 		.4byte	.LVL312
 7488 20c1 A91D0000 		.4byte	0x1da9
 7489 20c5 EF200000 		.4byte	0x20ef
 7490 20c9 25       		.uleb128 0x25
 7491 20ca 01       		.byte	0x1
 7492 20cb 53       		.byte	0x53
 7493 20cc 05       		.byte	0x5
 7494 20cd 76       		.byte	0x76
 7495 20ce 00       		.sleb128 0
 7496 20cf 74       		.byte	0x74
 7497 20d0 00       		.sleb128 0
 7498 20d1 22       		.byte	0x22
 7499 20d2 25       		.uleb128 0x25
 7500 20d3 01       		.byte	0x1
 7501 20d4 52       		.byte	0x52
 7502 20d5 02       		.byte	0x2
 7503 20d6 75       		.byte	0x75
 7504 20d7 00       		.sleb128 0
 7505 20d8 25       		.uleb128 0x25
 7506 20d9 01       		.byte	0x1
 7507 20da 51       		.byte	0x51
 7508 20db 05       		.byte	0x5
 7509 20dc 76       		.byte	0x76
 7510 20dd 00       		.sleb128 0
 7511 20de 74       		.byte	0x74
 7512 20df 00       		.sleb128 0
 7513 20e0 22       		.byte	0x22
ARM GAS  /tmp/ccZUWmXH.s 			page 133


 7514 20e1 25       		.uleb128 0x25
 7515 20e2 01       		.byte	0x1
 7516 20e3 50       		.byte	0x50
 7517 20e4 02       		.byte	0x2
 7518 20e5 7B       		.byte	0x7b
 7519 20e6 00       		.sleb128 0
 7520 20e7 25       		.uleb128 0x25
 7521 20e8 02       		.byte	0x2
 7522 20e9 7D       		.byte	0x7d
 7523 20ea 00       		.sleb128 0
 7524 20eb 02       		.byte	0x2
 7525 20ec 77       		.byte	0x77
 7526 20ed 00       		.sleb128 0
 7527 20ee 00       		.byte	0
 7528 20ef 26       		.uleb128 0x26
 7529 20f0 C0000000 		.4byte	.LVL313
 7530 20f4 A91D0000 		.4byte	0x1da9
 7531 20f8 25       		.uleb128 0x25
 7532 20f9 01       		.byte	0x1
 7533 20fa 53       		.byte	0x53
 7534 20fb 05       		.byte	0x5
 7535 20fc 76       		.byte	0x76
 7536 20fd 00       		.sleb128 0
 7537 20fe 74       		.byte	0x74
 7538 20ff 00       		.sleb128 0
 7539 2100 1C       		.byte	0x1c
 7540 2101 25       		.uleb128 0x25
 7541 2102 01       		.byte	0x1
 7542 2103 52       		.byte	0x52
 7543 2104 02       		.byte	0x2
 7544 2105 75       		.byte	0x75
 7545 2106 00       		.sleb128 0
 7546 2107 25       		.uleb128 0x25
 7547 2108 01       		.byte	0x1
 7548 2109 51       		.byte	0x51
 7549 210a 05       		.byte	0x5
 7550 210b 76       		.byte	0x76
 7551 210c 00       		.sleb128 0
 7552 210d 74       		.byte	0x74
 7553 210e 00       		.sleb128 0
 7554 210f 1C       		.byte	0x1c
 7555 2110 25       		.uleb128 0x25
 7556 2111 01       		.byte	0x1
 7557 2112 50       		.byte	0x50
 7558 2113 02       		.byte	0x2
 7559 2114 7B       		.byte	0x7b
 7560 2115 00       		.sleb128 0
 7561 2116 25       		.uleb128 0x25
 7562 2117 02       		.byte	0x2
 7563 2118 7D       		.byte	0x7d
 7564 2119 00       		.sleb128 0
 7565 211a 02       		.byte	0x2
 7566 211b 77       		.byte	0x77
 7567 211c 00       		.sleb128 0
 7568 211d 00       		.byte	0
 7569 211e 00       		.byte	0
 7570 211f 2F       		.uleb128 0x2f
ARM GAS  /tmp/ccZUWmXH.s 			page 134


 7571 2120 01       		.byte	0x1
 7572 2121 7F030000 		.4byte	.LASF117
 7573 2125 01       		.byte	0x1
 7574 2126 6601     		.2byte	0x166
 7575 2128 01       		.byte	0x1
 7576 2129 00000000 		.4byte	.LFB136
 7577 212d B4000000 		.4byte	.LFE136
 7578 2131 75110000 		.4byte	.LLST108
 7579 2135 01       		.byte	0x1
 7580 2136 36220000 		.4byte	0x2236
 7581 213a 36       		.uleb128 0x36
 7582 213b 7800     		.ascii	"x\000"
 7583 213d 01       		.byte	0x1
 7584 213e 6601     		.2byte	0x166
 7585 2140 5E040000 		.4byte	0x45e
 7586 2144 95110000 		.4byte	.LLST109
 7587 2148 36       		.uleb128 0x36
 7588 2149 7900     		.ascii	"y\000"
 7589 214b 01       		.byte	0x1
 7590 214c 6601     		.2byte	0x166
 7591 214e 5E040000 		.4byte	0x45e
 7592 2152 C1110000 		.4byte	.LLST110
 7593 2156 36       		.uleb128 0x36
 7594 2157 637800   		.ascii	"cx\000"
 7595 215a 01       		.byte	0x1
 7596 215b 6601     		.2byte	0x166
 7597 215d 5E040000 		.4byte	0x45e
 7598 2161 F8110000 		.4byte	.LLST111
 7599 2165 36       		.uleb128 0x36
 7600 2166 637900   		.ascii	"cy\000"
 7601 2169 01       		.byte	0x1
 7602 216a 6601     		.2byte	0x166
 7603 216c 5E040000 		.4byte	0x45e
 7604 2170 19120000 		.4byte	.LLST112
 7605 2174 37       		.uleb128 0x37
 7606 2175 E1040000 		.4byte	.LASF118
 7607 2179 01       		.byte	0x1
 7608 217a 6601     		.2byte	0x166
 7609 217c 5E040000 		.4byte	0x45e
 7610 2180 02       		.byte	0x2
 7611 2181 91       		.byte	0x91
 7612 2182 00       		.sleb128 0
 7613 2183 37       		.uleb128 0x37
 7614 2184 E6040000 		.4byte	.LASF119
 7615 2188 01       		.byte	0x1
 7616 2189 6601     		.2byte	0x166
 7617 218b 5E040000 		.4byte	0x45e
 7618 218f 02       		.byte	0x2
 7619 2190 91       		.byte	0x91
 7620 2191 04       		.sleb128 4
 7621 2192 37       		.uleb128 0x37
 7622 2193 7F050000 		.4byte	.LASF120
 7623 2197 01       		.byte	0x1
 7624 2198 6601     		.2byte	0x166
 7625 219a 5E040000 		.4byte	0x45e
 7626 219e 02       		.byte	0x2
 7627 219f 91       		.byte	0x91
ARM GAS  /tmp/ccZUWmXH.s 			page 135


 7628 21a0 08       		.sleb128 8
 7629 21a1 30       		.uleb128 0x30
 7630 21a2 73040000 		.4byte	.LASF121
 7631 21a6 01       		.byte	0x1
 7632 21a7 6601     		.2byte	0x166
 7633 21a9 36220000 		.4byte	0x2236
 7634 21ad 3A120000 		.4byte	.LLST113
 7635 21b1 32       		.uleb128 0x32
 7636 21b2 69050000 		.4byte	.LASF122
 7637 21b6 01       		.byte	0x1
 7638 21b7 8501     		.2byte	0x185
 7639 21b9 5E040000 		.4byte	0x45e
 7640 21bd 64120000 		.4byte	.LLST114
 7641 21c1 32       		.uleb128 0x32
 7642 21c2 6E050000 		.4byte	.LASF123
 7643 21c6 01       		.byte	0x1
 7644 21c7 8501     		.2byte	0x185
 7645 21c9 5E040000 		.4byte	0x45e
 7646 21cd 82120000 		.4byte	.LLST115
 7647 21d1 3E       		.uleb128 0x3e
 7648 21d2 6C6700   		.ascii	"lg\000"
 7649 21d5 01       		.byte	0x1
 7650 21d6 8601     		.2byte	0x186
 7651 21d8 86000000 		.4byte	0x86
 7652 21dc 9A120000 		.4byte	.LLST116
 7653 21e0 33       		.uleb128 0x33
 7654 21e1 65050000 		.4byte	0x565
 7655 21e5 2E000000 		.4byte	.LBB1215
 7656 21e9 18070000 		.4byte	.Ldebug_ranges0+0x718
 7657 21ed 01       		.byte	0x1
 7658 21ee 7501     		.2byte	0x175
 7659 21f0 FB210000 		.4byte	0x21fb
 7660 21f4 27       		.uleb128 0x27
 7661 21f5 72050000 		.4byte	0x572
 7662 21f9 22       		.byte	0x22
 7663 21fa 00       		.byte	0
 7664 21fb 33       		.uleb128 0x33
 7665 21fc 7E050000 		.4byte	0x57e
 7666 2200 4E000000 		.4byte	.LBB1219
 7667 2204 30070000 		.4byte	.Ldebug_ranges0+0x730
 7668 2208 01       		.byte	0x1
 7669 2209 8C01     		.2byte	0x18c
 7670 220b 19220000 		.4byte	0x2219
 7671 220f 1C       		.uleb128 0x1c
 7672 2210 8B050000 		.4byte	0x58b
 7673 2214 AD120000 		.4byte	.LLST117
 7674 2218 00       		.byte	0
 7675 2219 26       		.uleb128 0x26
 7676 221a 24000000 		.4byte	.LVL319
 7677 221e E2050000 		.4byte	0x5e2
 7678 2222 25       		.uleb128 0x25
 7679 2223 01       		.byte	0x1
 7680 2224 53       		.byte	0x53
 7681 2225 02       		.byte	0x2
 7682 2226 79       		.byte	0x79
 7683 2227 00       		.sleb128 0
 7684 2228 25       		.uleb128 0x25
ARM GAS  /tmp/ccZUWmXH.s 			page 136


 7685 2229 01       		.byte	0x1
 7686 222a 52       		.byte	0x52
 7687 222b 02       		.byte	0x2
 7688 222c 74       		.byte	0x74
 7689 222d 00       		.sleb128 0
 7690 222e 25       		.uleb128 0x25
 7691 222f 01       		.byte	0x1
 7692 2230 51       		.byte	0x51
 7693 2231 02       		.byte	0x2
 7694 2232 76       		.byte	0x76
 7695 2233 00       		.sleb128 0
 7696 2234 00       		.byte	0
 7697 2235 00       		.byte	0
 7698 2236 11       		.uleb128 0x11
 7699 2237 04       		.byte	0x4
 7700 2238 3C220000 		.4byte	0x223c
 7701 223c 3F       		.uleb128 0x3f
 7702 223d 40050000 		.4byte	0x540
 7703 2241 40       		.uleb128 0x40
 7704 2242 A0000000 		.4byte	.LASF124
 7705 2246 0B       		.byte	0xb
 7706 2247 9806     		.2byte	0x698
 7707 2249 01010000 		.4byte	0x101
 7708 224d 01       		.byte	0x1
 7709 224e 01       		.byte	0x1
 7710 224f 41       		.uleb128 0x41
 7711 2250 01030000 		.4byte	.LASF125
 7712 2254 03       		.byte	0x3
 7713 2255 1E       		.byte	0x1e
 7714 2256 2A050000 		.4byte	0x52a
 7715 225a 01       		.byte	0x1
 7716 225b 05       		.byte	0x5
 7717 225c 03       		.byte	0x3
 7718 225d 00000000 		.4byte	GDISP
 7719 2261 42       		.uleb128 0x42
 7720 2262 01       		.byte	0x1
 7721 2263 AB030000 		.4byte	.LASF126
 7722 2267 08       		.byte	0x8
 7723 2268 1302     		.2byte	0x213
 7724 226a 01       		.byte	0x1
 7725 226b 01       		.byte	0x1
 7726 226c 7B220000 		.4byte	0x227b
 7727 2270 43       		.uleb128 0x43
 7728 2271 7B220000 		.4byte	0x227b
 7729 2275 43       		.uleb128 0x43
 7730 2276 F9030000 		.4byte	0x3f9
 7731 227a 00       		.byte	0
 7732 227b 11       		.uleb128 0x11
 7733 227c 04       		.byte	0x4
 7734 227d 48040000 		.4byte	0x448
 7735 2281 42       		.uleb128 0x42
 7736 2282 01       		.byte	0x1
 7737 2283 53050000 		.4byte	.LASF127
 7738 2287 07       		.byte	0x7
 7739 2288 BA01     		.2byte	0x1ba
 7740 228a 01       		.byte	0x1
 7741 228b 01       		.byte	0x1
ARM GAS  /tmp/ccZUWmXH.s 			page 137


 7742 228c A0220000 		.4byte	0x22a0
 7743 2290 43       		.uleb128 0x43
 7744 2291 04040000 		.4byte	0x404
 7745 2295 43       		.uleb128 0x43
 7746 2296 EE030000 		.4byte	0x3ee
 7747 229a 43       		.uleb128 0x43
 7748 229b F9030000 		.4byte	0x3f9
 7749 229f 00       		.byte	0
 7750 22a0 44       		.uleb128 0x44
 7751 22a1 01       		.byte	0x1
 7752 22a2 AA050000 		.4byte	.LASF128
 7753 22a6 09       		.byte	0x9
 7754 22a7 50       		.byte	0x50
 7755 22a8 01       		.byte	0x1
 7756 22a9 01       		.byte	0x1
 7757 22aa B4220000 		.4byte	0x22b4
 7758 22ae 43       		.uleb128 0x43
 7759 22af 53040000 		.4byte	0x453
 7760 22b3 00       		.byte	0
 7761 22b4 45       		.uleb128 0x45
 7762 22b5 01       		.byte	0x1
 7763 22b6 16030000 		.4byte	.LASF135
 7764 22ba 09       		.byte	0x9
 7765 22bb 51       		.byte	0x51
 7766 22bc 01       		.byte	0x1
 7767 22bd 01       		.byte	0x1
 7768 22be 43       		.uleb128 0x43
 7769 22bf 53040000 		.4byte	0x453
 7770 22c3 00       		.byte	0
 7771 22c4 00       		.byte	0
 7772              		.section	.debug_abbrev,"",%progbits
 7773              	.Ldebug_abbrev0:
 7774 0000 01       		.uleb128 0x1
 7775 0001 11       		.uleb128 0x11
 7776 0002 01       		.byte	0x1
 7777 0003 25       		.uleb128 0x25
 7778 0004 0E       		.uleb128 0xe
 7779 0005 13       		.uleb128 0x13
 7780 0006 0B       		.uleb128 0xb
 7781 0007 03       		.uleb128 0x3
 7782 0008 0E       		.uleb128 0xe
 7783 0009 1B       		.uleb128 0x1b
 7784 000a 0E       		.uleb128 0xe
 7785 000b 55       		.uleb128 0x55
 7786 000c 06       		.uleb128 0x6
 7787 000d 11       		.uleb128 0x11
 7788 000e 01       		.uleb128 0x1
 7789 000f 52       		.uleb128 0x52
 7790 0010 01       		.uleb128 0x1
 7791 0011 10       		.uleb128 0x10
 7792 0012 06       		.uleb128 0x6
 7793 0013 00       		.byte	0
 7794 0014 00       		.byte	0
 7795 0015 02       		.uleb128 0x2
 7796 0016 24       		.uleb128 0x24
 7797 0017 00       		.byte	0
 7798 0018 0B       		.uleb128 0xb
ARM GAS  /tmp/ccZUWmXH.s 			page 138


 7799 0019 0B       		.uleb128 0xb
 7800 001a 3E       		.uleb128 0x3e
 7801 001b 0B       		.uleb128 0xb
 7802 001c 03       		.uleb128 0x3
 7803 001d 08       		.uleb128 0x8
 7804 001e 00       		.byte	0
 7805 001f 00       		.byte	0
 7806 0020 03       		.uleb128 0x3
 7807 0021 24       		.uleb128 0x24
 7808 0022 00       		.byte	0
 7809 0023 0B       		.uleb128 0xb
 7810 0024 0B       		.uleb128 0xb
 7811 0025 3E       		.uleb128 0x3e
 7812 0026 0B       		.uleb128 0xb
 7813 0027 03       		.uleb128 0x3
 7814 0028 0E       		.uleb128 0xe
 7815 0029 00       		.byte	0
 7816 002a 00       		.byte	0
 7817 002b 04       		.uleb128 0x4
 7818 002c 16       		.uleb128 0x16
 7819 002d 00       		.byte	0
 7820 002e 03       		.uleb128 0x3
 7821 002f 0E       		.uleb128 0xe
 7822 0030 3A       		.uleb128 0x3a
 7823 0031 0B       		.uleb128 0xb
 7824 0032 3B       		.uleb128 0x3b
 7825 0033 0B       		.uleb128 0xb
 7826 0034 49       		.uleb128 0x49
 7827 0035 13       		.uleb128 0x13
 7828 0036 00       		.byte	0
 7829 0037 00       		.byte	0
 7830 0038 05       		.uleb128 0x5
 7831 0039 35       		.uleb128 0x35
 7832 003a 00       		.byte	0
 7833 003b 49       		.uleb128 0x49
 7834 003c 13       		.uleb128 0x13
 7835 003d 00       		.byte	0
 7836 003e 00       		.byte	0
 7837 003f 06       		.uleb128 0x6
 7838 0040 01       		.uleb128 0x1
 7839 0041 01       		.byte	0x1
 7840 0042 49       		.uleb128 0x49
 7841 0043 13       		.uleb128 0x13
 7842 0044 01       		.uleb128 0x1
 7843 0045 13       		.uleb128 0x13
 7844 0046 00       		.byte	0
 7845 0047 00       		.byte	0
 7846 0048 07       		.uleb128 0x7
 7847 0049 21       		.uleb128 0x21
 7848 004a 00       		.byte	0
 7849 004b 49       		.uleb128 0x49
 7850 004c 13       		.uleb128 0x13
 7851 004d 2F       		.uleb128 0x2f
 7852 004e 0B       		.uleb128 0xb
 7853 004f 00       		.byte	0
 7854 0050 00       		.byte	0
 7855 0051 08       		.uleb128 0x8
ARM GAS  /tmp/ccZUWmXH.s 			page 139


 7856 0052 13       		.uleb128 0x13
 7857 0053 01       		.byte	0x1
 7858 0054 0B       		.uleb128 0xb
 7859 0055 0B       		.uleb128 0xb
 7860 0056 3A       		.uleb128 0x3a
 7861 0057 0B       		.uleb128 0xb
 7862 0058 3B       		.uleb128 0x3b
 7863 0059 05       		.uleb128 0x5
 7864 005a 01       		.uleb128 0x1
 7865 005b 13       		.uleb128 0x13
 7866 005c 00       		.byte	0
 7867 005d 00       		.byte	0
 7868 005e 09       		.uleb128 0x9
 7869 005f 0D       		.uleb128 0xd
 7870 0060 00       		.byte	0
 7871 0061 03       		.uleb128 0x3
 7872 0062 0E       		.uleb128 0xe
 7873 0063 3A       		.uleb128 0x3a
 7874 0064 0B       		.uleb128 0xb
 7875 0065 3B       		.uleb128 0x3b
 7876 0066 05       		.uleb128 0x5
 7877 0067 49       		.uleb128 0x49
 7878 0068 13       		.uleb128 0x13
 7879 0069 38       		.uleb128 0x38
 7880 006a 0A       		.uleb128 0xa
 7881 006b 00       		.byte	0
 7882 006c 00       		.byte	0
 7883 006d 0A       		.uleb128 0xa
 7884 006e 16       		.uleb128 0x16
 7885 006f 00       		.byte	0
 7886 0070 03       		.uleb128 0x3
 7887 0071 0E       		.uleb128 0xe
 7888 0072 3A       		.uleb128 0x3a
 7889 0073 0B       		.uleb128 0xb
 7890 0074 3B       		.uleb128 0x3b
 7891 0075 05       		.uleb128 0x5
 7892 0076 49       		.uleb128 0x49
 7893 0077 13       		.uleb128 0x13
 7894 0078 00       		.byte	0
 7895 0079 00       		.byte	0
 7896 007a 0B       		.uleb128 0xb
 7897 007b 0D       		.uleb128 0xd
 7898 007c 00       		.byte	0
 7899 007d 03       		.uleb128 0x3
 7900 007e 08       		.uleb128 0x8
 7901 007f 3A       		.uleb128 0x3a
 7902 0080 0B       		.uleb128 0xb
 7903 0081 3B       		.uleb128 0x3b
 7904 0082 05       		.uleb128 0x5
 7905 0083 49       		.uleb128 0x49
 7906 0084 13       		.uleb128 0x13
 7907 0085 38       		.uleb128 0x38
 7908 0086 0A       		.uleb128 0xa
 7909 0087 00       		.byte	0
 7910 0088 00       		.byte	0
 7911 0089 0C       		.uleb128 0xc
 7912 008a 13       		.uleb128 0x13
ARM GAS  /tmp/ccZUWmXH.s 			page 140


 7913 008b 01       		.byte	0x1
 7914 008c 0B       		.uleb128 0xb
 7915 008d 0B       		.uleb128 0xb
 7916 008e 3A       		.uleb128 0x3a
 7917 008f 0B       		.uleb128 0xb
 7918 0090 3B       		.uleb128 0x3b
 7919 0091 0B       		.uleb128 0xb
 7920 0092 01       		.uleb128 0x1
 7921 0093 13       		.uleb128 0x13
 7922 0094 00       		.byte	0
 7923 0095 00       		.byte	0
 7924 0096 0D       		.uleb128 0xd
 7925 0097 0D       		.uleb128 0xd
 7926 0098 00       		.byte	0
 7927 0099 03       		.uleb128 0x3
 7928 009a 08       		.uleb128 0x8
 7929 009b 3A       		.uleb128 0x3a
 7930 009c 0B       		.uleb128 0xb
 7931 009d 3B       		.uleb128 0x3b
 7932 009e 0B       		.uleb128 0xb
 7933 009f 49       		.uleb128 0x49
 7934 00a0 13       		.uleb128 0x13
 7935 00a1 38       		.uleb128 0x38
 7936 00a2 0A       		.uleb128 0xa
 7937 00a3 00       		.byte	0
 7938 00a4 00       		.byte	0
 7939 00a5 0E       		.uleb128 0xe
 7940 00a6 0D       		.uleb128 0xd
 7941 00a7 00       		.byte	0
 7942 00a8 03       		.uleb128 0x3
 7943 00a9 0E       		.uleb128 0xe
 7944 00aa 3A       		.uleb128 0x3a
 7945 00ab 0B       		.uleb128 0xb
 7946 00ac 3B       		.uleb128 0x3b
 7947 00ad 0B       		.uleb128 0xb
 7948 00ae 49       		.uleb128 0x49
 7949 00af 13       		.uleb128 0x13
 7950 00b0 38       		.uleb128 0x38
 7951 00b1 0A       		.uleb128 0xa
 7952 00b2 00       		.byte	0
 7953 00b3 00       		.byte	0
 7954 00b4 0F       		.uleb128 0xf
 7955 00b5 17       		.uleb128 0x17
 7956 00b6 01       		.byte	0x1
 7957 00b7 0B       		.uleb128 0xb
 7958 00b8 0B       		.uleb128 0xb
 7959 00b9 3A       		.uleb128 0x3a
 7960 00ba 0B       		.uleb128 0xb
 7961 00bb 3B       		.uleb128 0x3b
 7962 00bc 0B       		.uleb128 0xb
 7963 00bd 01       		.uleb128 0x1
 7964 00be 13       		.uleb128 0x13
 7965 00bf 00       		.byte	0
 7966 00c0 00       		.byte	0
 7967 00c1 10       		.uleb128 0x10
 7968 00c2 0D       		.uleb128 0xd
 7969 00c3 00       		.byte	0
ARM GAS  /tmp/ccZUWmXH.s 			page 141


 7970 00c4 03       		.uleb128 0x3
 7971 00c5 08       		.uleb128 0x8
 7972 00c6 3A       		.uleb128 0x3a
 7973 00c7 0B       		.uleb128 0xb
 7974 00c8 3B       		.uleb128 0x3b
 7975 00c9 0B       		.uleb128 0xb
 7976 00ca 49       		.uleb128 0x49
 7977 00cb 13       		.uleb128 0x13
 7978 00cc 00       		.byte	0
 7979 00cd 00       		.byte	0
 7980 00ce 11       		.uleb128 0x11
 7981 00cf 0F       		.uleb128 0xf
 7982 00d0 00       		.byte	0
 7983 00d1 0B       		.uleb128 0xb
 7984 00d2 0B       		.uleb128 0xb
 7985 00d3 49       		.uleb128 0x49
 7986 00d4 13       		.uleb128 0x13
 7987 00d5 00       		.byte	0
 7988 00d6 00       		.byte	0
 7989 00d7 12       		.uleb128 0x12
 7990 00d8 04       		.uleb128 0x4
 7991 00d9 01       		.byte	0x1
 7992 00da 03       		.uleb128 0x3
 7993 00db 0E       		.uleb128 0xe
 7994 00dc 0B       		.uleb128 0xb
 7995 00dd 0B       		.uleb128 0xb
 7996 00de 3A       		.uleb128 0x3a
 7997 00df 0B       		.uleb128 0xb
 7998 00e0 3B       		.uleb128 0x3b
 7999 00e1 0B       		.uleb128 0xb
 8000 00e2 01       		.uleb128 0x1
 8001 00e3 13       		.uleb128 0x13
 8002 00e4 00       		.byte	0
 8003 00e5 00       		.byte	0
 8004 00e6 13       		.uleb128 0x13
 8005 00e7 28       		.uleb128 0x28
 8006 00e8 00       		.byte	0
 8007 00e9 03       		.uleb128 0x3
 8008 00ea 0E       		.uleb128 0xe
 8009 00eb 1C       		.uleb128 0x1c
 8010 00ec 0D       		.uleb128 0xd
 8011 00ed 00       		.byte	0
 8012 00ee 00       		.byte	0
 8013 00ef 14       		.uleb128 0x14
 8014 00f0 13       		.uleb128 0x13
 8015 00f1 01       		.byte	0x1
 8016 00f2 03       		.uleb128 0x3
 8017 00f3 0E       		.uleb128 0xe
 8018 00f4 0B       		.uleb128 0xb
 8019 00f5 0B       		.uleb128 0xb
 8020 00f6 3A       		.uleb128 0x3a
 8021 00f7 0B       		.uleb128 0xb
 8022 00f8 3B       		.uleb128 0x3b
 8023 00f9 0B       		.uleb128 0xb
 8024 00fa 01       		.uleb128 0x1
 8025 00fb 13       		.uleb128 0x13
 8026 00fc 00       		.byte	0
ARM GAS  /tmp/ccZUWmXH.s 			page 142


 8027 00fd 00       		.byte	0
 8028 00fe 15       		.uleb128 0x15
 8029 00ff 2E       		.uleb128 0x2e
 8030 0100 01       		.byte	0x1
 8031 0101 03       		.uleb128 0x3
 8032 0102 0E       		.uleb128 0xe
 8033 0103 3A       		.uleb128 0x3a
 8034 0104 0B       		.uleb128 0xb
 8035 0105 3B       		.uleb128 0x3b
 8036 0106 0B       		.uleb128 0xb
 8037 0107 27       		.uleb128 0x27
 8038 0108 0C       		.uleb128 0xc
 8039 0109 20       		.uleb128 0x20
 8040 010a 0B       		.uleb128 0xb
 8041 010b 01       		.uleb128 0x1
 8042 010c 13       		.uleb128 0x13
 8043 010d 00       		.byte	0
 8044 010e 00       		.byte	0
 8045 010f 16       		.uleb128 0x16
 8046 0110 05       		.uleb128 0x5
 8047 0111 00       		.byte	0
 8048 0112 03       		.uleb128 0x3
 8049 0113 0E       		.uleb128 0xe
 8050 0114 3A       		.uleb128 0x3a
 8051 0115 0B       		.uleb128 0xb
 8052 0116 3B       		.uleb128 0x3b
 8053 0117 0B       		.uleb128 0xb
 8054 0118 49       		.uleb128 0x49
 8055 0119 13       		.uleb128 0x13
 8056 011a 00       		.byte	0
 8057 011b 00       		.byte	0
 8058 011c 17       		.uleb128 0x17
 8059 011d 05       		.uleb128 0x5
 8060 011e 00       		.byte	0
 8061 011f 03       		.uleb128 0x3
 8062 0120 08       		.uleb128 0x8
 8063 0121 3A       		.uleb128 0x3a
 8064 0122 0B       		.uleb128 0xb
 8065 0123 3B       		.uleb128 0x3b
 8066 0124 0B       		.uleb128 0xb
 8067 0125 49       		.uleb128 0x49
 8068 0126 13       		.uleb128 0x13
 8069 0127 00       		.byte	0
 8070 0128 00       		.byte	0
 8071 0129 18       		.uleb128 0x18
 8072 012a 2E       		.uleb128 0x2e
 8073 012b 00       		.byte	0
 8074 012c 03       		.uleb128 0x3
 8075 012d 0E       		.uleb128 0xe
 8076 012e 3A       		.uleb128 0x3a
 8077 012f 0B       		.uleb128 0xb
 8078 0130 3B       		.uleb128 0x3b
 8079 0131 0B       		.uleb128 0xb
 8080 0132 27       		.uleb128 0x27
 8081 0133 0C       		.uleb128 0xc
 8082 0134 20       		.uleb128 0x20
 8083 0135 0B       		.uleb128 0xb
ARM GAS  /tmp/ccZUWmXH.s 			page 143


 8084 0136 00       		.byte	0
 8085 0137 00       		.byte	0
 8086 0138 19       		.uleb128 0x19
 8087 0139 2E       		.uleb128 0x2e
 8088 013a 01       		.byte	0x1
 8089 013b 03       		.uleb128 0x3
 8090 013c 0E       		.uleb128 0xe
 8091 013d 3A       		.uleb128 0x3a
 8092 013e 0B       		.uleb128 0xb
 8093 013f 3B       		.uleb128 0x3b
 8094 0140 0B       		.uleb128 0xb
 8095 0141 27       		.uleb128 0x27
 8096 0142 0C       		.uleb128 0xc
 8097 0143 11       		.uleb128 0x11
 8098 0144 01       		.uleb128 0x1
 8099 0145 12       		.uleb128 0x12
 8100 0146 01       		.uleb128 0x1
 8101 0147 40       		.uleb128 0x40
 8102 0148 06       		.uleb128 0x6
 8103 0149 9742     		.uleb128 0x2117
 8104 014b 0C       		.uleb128 0xc
 8105 014c 01       		.uleb128 0x1
 8106 014d 13       		.uleb128 0x13
 8107 014e 00       		.byte	0
 8108 014f 00       		.byte	0
 8109 0150 1A       		.uleb128 0x1a
 8110 0151 05       		.uleb128 0x5
 8111 0152 00       		.byte	0
 8112 0153 03       		.uleb128 0x3
 8113 0154 08       		.uleb128 0x8
 8114 0155 3A       		.uleb128 0x3a
 8115 0156 0B       		.uleb128 0xb
 8116 0157 3B       		.uleb128 0x3b
 8117 0158 0B       		.uleb128 0xb
 8118 0159 49       		.uleb128 0x49
 8119 015a 13       		.uleb128 0x13
 8120 015b 02       		.uleb128 0x2
 8121 015c 06       		.uleb128 0x6
 8122 015d 00       		.byte	0
 8123 015e 00       		.byte	0
 8124 015f 1B       		.uleb128 0x1b
 8125 0160 1D       		.uleb128 0x1d
 8126 0161 01       		.byte	0x1
 8127 0162 31       		.uleb128 0x31
 8128 0163 13       		.uleb128 0x13
 8129 0164 52       		.uleb128 0x52
 8130 0165 01       		.uleb128 0x1
 8131 0166 55       		.uleb128 0x55
 8132 0167 06       		.uleb128 0x6
 8133 0168 58       		.uleb128 0x58
 8134 0169 0B       		.uleb128 0xb
 8135 016a 59       		.uleb128 0x59
 8136 016b 0B       		.uleb128 0xb
 8137 016c 01       		.uleb128 0x1
 8138 016d 13       		.uleb128 0x13
 8139 016e 00       		.byte	0
 8140 016f 00       		.byte	0
ARM GAS  /tmp/ccZUWmXH.s 			page 144


 8141 0170 1C       		.uleb128 0x1c
 8142 0171 05       		.uleb128 0x5
 8143 0172 00       		.byte	0
 8144 0173 31       		.uleb128 0x31
 8145 0174 13       		.uleb128 0x13
 8146 0175 02       		.uleb128 0x2
 8147 0176 06       		.uleb128 0x6
 8148 0177 00       		.byte	0
 8149 0178 00       		.byte	0
 8150 0179 1D       		.uleb128 0x1d
 8151 017a 1D       		.uleb128 0x1d
 8152 017b 01       		.byte	0x1
 8153 017c 31       		.uleb128 0x31
 8154 017d 13       		.uleb128 0x13
 8155 017e 11       		.uleb128 0x11
 8156 017f 01       		.uleb128 0x1
 8157 0180 12       		.uleb128 0x12
 8158 0181 01       		.uleb128 0x1
 8159 0182 58       		.uleb128 0x58
 8160 0183 0B       		.uleb128 0xb
 8161 0184 59       		.uleb128 0x59
 8162 0185 0B       		.uleb128 0xb
 8163 0186 01       		.uleb128 0x1
 8164 0187 13       		.uleb128 0x13
 8165 0188 00       		.byte	0
 8166 0189 00       		.byte	0
 8167 018a 1E       		.uleb128 0x1e
 8168 018b 05       		.uleb128 0x5
 8169 018c 00       		.byte	0
 8170 018d 31       		.uleb128 0x31
 8171 018e 13       		.uleb128 0x13
 8172 018f 00       		.byte	0
 8173 0190 00       		.byte	0
 8174 0191 1F       		.uleb128 0x1f
 8175 0192 1D       		.uleb128 0x1d
 8176 0193 01       		.byte	0x1
 8177 0194 31       		.uleb128 0x31
 8178 0195 13       		.uleb128 0x13
 8179 0196 11       		.uleb128 0x11
 8180 0197 01       		.uleb128 0x1
 8181 0198 12       		.uleb128 0x12
 8182 0199 01       		.uleb128 0x1
 8183 019a 58       		.uleb128 0x58
 8184 019b 0B       		.uleb128 0xb
 8185 019c 59       		.uleb128 0x59
 8186 019d 0B       		.uleb128 0xb
 8187 019e 00       		.byte	0
 8188 019f 00       		.byte	0
 8189 01a0 20       		.uleb128 0x20
 8190 01a1 34       		.uleb128 0x34
 8191 01a2 00       		.byte	0
 8192 01a3 03       		.uleb128 0x3
 8193 01a4 0E       		.uleb128 0xe
 8194 01a5 3A       		.uleb128 0x3a
 8195 01a6 0B       		.uleb128 0xb
 8196 01a7 3B       		.uleb128 0x3b
 8197 01a8 0B       		.uleb128 0xb
ARM GAS  /tmp/ccZUWmXH.s 			page 145


 8198 01a9 49       		.uleb128 0x49
 8199 01aa 13       		.uleb128 0x13
 8200 01ab 00       		.byte	0
 8201 01ac 00       		.byte	0
 8202 01ad 21       		.uleb128 0x21
 8203 01ae 2E       		.uleb128 0x2e
 8204 01af 01       		.byte	0x1
 8205 01b0 3F       		.uleb128 0x3f
 8206 01b1 0C       		.uleb128 0xc
 8207 01b2 03       		.uleb128 0x3
 8208 01b3 0E       		.uleb128 0xe
 8209 01b4 3A       		.uleb128 0x3a
 8210 01b5 0B       		.uleb128 0xb
 8211 01b6 3B       		.uleb128 0x3b
 8212 01b7 0B       		.uleb128 0xb
 8213 01b8 27       		.uleb128 0x27
 8214 01b9 0C       		.uleb128 0xc
 8215 01ba 49       		.uleb128 0x49
 8216 01bb 13       		.uleb128 0x13
 8217 01bc 11       		.uleb128 0x11
 8218 01bd 01       		.uleb128 0x1
 8219 01be 12       		.uleb128 0x12
 8220 01bf 01       		.uleb128 0x1
 8221 01c0 40       		.uleb128 0x40
 8222 01c1 06       		.uleb128 0x6
 8223 01c2 9742     		.uleb128 0x2117
 8224 01c4 0C       		.uleb128 0xc
 8225 01c5 01       		.uleb128 0x1
 8226 01c6 13       		.uleb128 0x13
 8227 01c7 00       		.byte	0
 8228 01c8 00       		.byte	0
 8229 01c9 22       		.uleb128 0x22
 8230 01ca 0B       		.uleb128 0xb
 8231 01cb 01       		.byte	0x1
 8232 01cc 55       		.uleb128 0x55
 8233 01cd 06       		.uleb128 0x6
 8234 01ce 00       		.byte	0
 8235 01cf 00       		.byte	0
 8236 01d0 23       		.uleb128 0x23
 8237 01d1 34       		.uleb128 0x34
 8238 01d2 00       		.byte	0
 8239 01d3 31       		.uleb128 0x31
 8240 01d4 13       		.uleb128 0x13
 8241 01d5 02       		.uleb128 0x2
 8242 01d6 0A       		.uleb128 0xa
 8243 01d7 00       		.byte	0
 8244 01d8 00       		.byte	0
 8245 01d9 24       		.uleb128 0x24
 8246 01da 898201   		.uleb128 0x4109
 8247 01dd 01       		.byte	0x1
 8248 01de 11       		.uleb128 0x11
 8249 01df 01       		.uleb128 0x1
 8250 01e0 31       		.uleb128 0x31
 8251 01e1 13       		.uleb128 0x13
 8252 01e2 01       		.uleb128 0x1
 8253 01e3 13       		.uleb128 0x13
 8254 01e4 00       		.byte	0
ARM GAS  /tmp/ccZUWmXH.s 			page 146


 8255 01e5 00       		.byte	0
 8256 01e6 25       		.uleb128 0x25
 8257 01e7 8A8201   		.uleb128 0x410a
 8258 01ea 00       		.byte	0
 8259 01eb 02       		.uleb128 0x2
 8260 01ec 0A       		.uleb128 0xa
 8261 01ed 9142     		.uleb128 0x2111
 8262 01ef 0A       		.uleb128 0xa
 8263 01f0 00       		.byte	0
 8264 01f1 00       		.byte	0
 8265 01f2 26       		.uleb128 0x26
 8266 01f3 898201   		.uleb128 0x4109
 8267 01f6 01       		.byte	0x1
 8268 01f7 11       		.uleb128 0x11
 8269 01f8 01       		.uleb128 0x1
 8270 01f9 31       		.uleb128 0x31
 8271 01fa 13       		.uleb128 0x13
 8272 01fb 00       		.byte	0
 8273 01fc 00       		.byte	0
 8274 01fd 27       		.uleb128 0x27
 8275 01fe 05       		.uleb128 0x5
 8276 01ff 00       		.byte	0
 8277 0200 31       		.uleb128 0x31
 8278 0201 13       		.uleb128 0x13
 8279 0202 1C       		.uleb128 0x1c
 8280 0203 0B       		.uleb128 0xb
 8281 0204 00       		.byte	0
 8282 0205 00       		.byte	0
 8283 0206 28       		.uleb128 0x28
 8284 0207 05       		.uleb128 0x5
 8285 0208 00       		.byte	0
 8286 0209 31       		.uleb128 0x31
 8287 020a 13       		.uleb128 0x13
 8288 020b 1C       		.uleb128 0x1c
 8289 020c 0D       		.uleb128 0xd
 8290 020d 00       		.byte	0
 8291 020e 00       		.byte	0
 8292 020f 29       		.uleb128 0x29
 8293 0210 05       		.uleb128 0x5
 8294 0211 00       		.byte	0
 8295 0212 31       		.uleb128 0x31
 8296 0213 13       		.uleb128 0x13
 8297 0214 1C       		.uleb128 0x1c
 8298 0215 05       		.uleb128 0x5
 8299 0216 00       		.byte	0
 8300 0217 00       		.byte	0
 8301 0218 2A       		.uleb128 0x2a
 8302 0219 2E       		.uleb128 0x2e
 8303 021a 01       		.byte	0x1
 8304 021b 3F       		.uleb128 0x3f
 8305 021c 0C       		.uleb128 0xc
 8306 021d 03       		.uleb128 0x3
 8307 021e 0E       		.uleb128 0xe
 8308 021f 3A       		.uleb128 0x3a
 8309 0220 0B       		.uleb128 0xb
 8310 0221 3B       		.uleb128 0x3b
 8311 0222 0B       		.uleb128 0xb
ARM GAS  /tmp/ccZUWmXH.s 			page 147


 8312 0223 27       		.uleb128 0x27
 8313 0224 0C       		.uleb128 0xc
 8314 0225 11       		.uleb128 0x11
 8315 0226 01       		.uleb128 0x1
 8316 0227 12       		.uleb128 0x12
 8317 0228 01       		.uleb128 0x1
 8318 0229 40       		.uleb128 0x40
 8319 022a 06       		.uleb128 0x6
 8320 022b 9742     		.uleb128 0x2117
 8321 022d 0C       		.uleb128 0xc
 8322 022e 01       		.uleb128 0x1
 8323 022f 13       		.uleb128 0x13
 8324 0230 00       		.byte	0
 8325 0231 00       		.byte	0
 8326 0232 2B       		.uleb128 0x2b
 8327 0233 05       		.uleb128 0x5
 8328 0234 00       		.byte	0
 8329 0235 03       		.uleb128 0x3
 8330 0236 0E       		.uleb128 0xe
 8331 0237 3A       		.uleb128 0x3a
 8332 0238 0B       		.uleb128 0xb
 8333 0239 3B       		.uleb128 0x3b
 8334 023a 0B       		.uleb128 0xb
 8335 023b 49       		.uleb128 0x49
 8336 023c 13       		.uleb128 0x13
 8337 023d 02       		.uleb128 0x2
 8338 023e 0A       		.uleb128 0xa
 8339 023f 00       		.byte	0
 8340 0240 00       		.byte	0
 8341 0241 2C       		.uleb128 0x2c
 8342 0242 05       		.uleb128 0x5
 8343 0243 00       		.byte	0
 8344 0244 03       		.uleb128 0x3
 8345 0245 0E       		.uleb128 0xe
 8346 0246 3A       		.uleb128 0x3a
 8347 0247 0B       		.uleb128 0xb
 8348 0248 3B       		.uleb128 0x3b
 8349 0249 0B       		.uleb128 0xb
 8350 024a 49       		.uleb128 0x49
 8351 024b 13       		.uleb128 0x13
 8352 024c 02       		.uleb128 0x2
 8353 024d 06       		.uleb128 0x6
 8354 024e 00       		.byte	0
 8355 024f 00       		.byte	0
 8356 0250 2D       		.uleb128 0x2d
 8357 0251 34       		.uleb128 0x34
 8358 0252 00       		.byte	0
 8359 0253 03       		.uleb128 0x3
 8360 0254 08       		.uleb128 0x8
 8361 0255 3A       		.uleb128 0x3a
 8362 0256 0B       		.uleb128 0xb
 8363 0257 3B       		.uleb128 0x3b
 8364 0258 0B       		.uleb128 0xb
 8365 0259 49       		.uleb128 0x49
 8366 025a 13       		.uleb128 0x13
 8367 025b 02       		.uleb128 0x2
 8368 025c 06       		.uleb128 0x6
ARM GAS  /tmp/ccZUWmXH.s 			page 148


 8369 025d 00       		.byte	0
 8370 025e 00       		.byte	0
 8371 025f 2E       		.uleb128 0x2e
 8372 0260 34       		.uleb128 0x34
 8373 0261 00       		.byte	0
 8374 0262 03       		.uleb128 0x3
 8375 0263 08       		.uleb128 0x8
 8376 0264 3A       		.uleb128 0x3a
 8377 0265 0B       		.uleb128 0xb
 8378 0266 3B       		.uleb128 0x3b
 8379 0267 0B       		.uleb128 0xb
 8380 0268 49       		.uleb128 0x49
 8381 0269 13       		.uleb128 0x13
 8382 026a 02       		.uleb128 0x2
 8383 026b 0A       		.uleb128 0xa
 8384 026c 00       		.byte	0
 8385 026d 00       		.byte	0
 8386 026e 2F       		.uleb128 0x2f
 8387 026f 2E       		.uleb128 0x2e
 8388 0270 01       		.byte	0x1
 8389 0271 3F       		.uleb128 0x3f
 8390 0272 0C       		.uleb128 0xc
 8391 0273 03       		.uleb128 0x3
 8392 0274 0E       		.uleb128 0xe
 8393 0275 3A       		.uleb128 0x3a
 8394 0276 0B       		.uleb128 0xb
 8395 0277 3B       		.uleb128 0x3b
 8396 0278 05       		.uleb128 0x5
 8397 0279 27       		.uleb128 0x27
 8398 027a 0C       		.uleb128 0xc
 8399 027b 11       		.uleb128 0x11
 8400 027c 01       		.uleb128 0x1
 8401 027d 12       		.uleb128 0x12
 8402 027e 01       		.uleb128 0x1
 8403 027f 40       		.uleb128 0x40
 8404 0280 06       		.uleb128 0x6
 8405 0281 9742     		.uleb128 0x2117
 8406 0283 0C       		.uleb128 0xc
 8407 0284 01       		.uleb128 0x1
 8408 0285 13       		.uleb128 0x13
 8409 0286 00       		.byte	0
 8410 0287 00       		.byte	0
 8411 0288 30       		.uleb128 0x30
 8412 0289 05       		.uleb128 0x5
 8413 028a 00       		.byte	0
 8414 028b 03       		.uleb128 0x3
 8415 028c 0E       		.uleb128 0xe
 8416 028d 3A       		.uleb128 0x3a
 8417 028e 0B       		.uleb128 0xb
 8418 028f 3B       		.uleb128 0x3b
 8419 0290 05       		.uleb128 0x5
 8420 0291 49       		.uleb128 0x49
 8421 0292 13       		.uleb128 0x13
 8422 0293 02       		.uleb128 0x2
 8423 0294 06       		.uleb128 0x6
 8424 0295 00       		.byte	0
 8425 0296 00       		.byte	0
ARM GAS  /tmp/ccZUWmXH.s 			page 149


 8426 0297 31       		.uleb128 0x31
 8427 0298 34       		.uleb128 0x34
 8428 0299 00       		.byte	0
 8429 029a 03       		.uleb128 0x3
 8430 029b 0E       		.uleb128 0xe
 8431 029c 3A       		.uleb128 0x3a
 8432 029d 0B       		.uleb128 0xb
 8433 029e 3B       		.uleb128 0x3b
 8434 029f 05       		.uleb128 0x5
 8435 02a0 49       		.uleb128 0x49
 8436 02a1 13       		.uleb128 0x13
 8437 02a2 1C       		.uleb128 0x1c
 8438 02a3 06       		.uleb128 0x6
 8439 02a4 00       		.byte	0
 8440 02a5 00       		.byte	0
 8441 02a6 32       		.uleb128 0x32
 8442 02a7 34       		.uleb128 0x34
 8443 02a8 00       		.byte	0
 8444 02a9 03       		.uleb128 0x3
 8445 02aa 0E       		.uleb128 0xe
 8446 02ab 3A       		.uleb128 0x3a
 8447 02ac 0B       		.uleb128 0xb
 8448 02ad 3B       		.uleb128 0x3b
 8449 02ae 05       		.uleb128 0x5
 8450 02af 49       		.uleb128 0x49
 8451 02b0 13       		.uleb128 0x13
 8452 02b1 02       		.uleb128 0x2
 8453 02b2 06       		.uleb128 0x6
 8454 02b3 00       		.byte	0
 8455 02b4 00       		.byte	0
 8456 02b5 33       		.uleb128 0x33
 8457 02b6 1D       		.uleb128 0x1d
 8458 02b7 01       		.byte	0x1
 8459 02b8 31       		.uleb128 0x31
 8460 02b9 13       		.uleb128 0x13
 8461 02ba 52       		.uleb128 0x52
 8462 02bb 01       		.uleb128 0x1
 8463 02bc 55       		.uleb128 0x55
 8464 02bd 06       		.uleb128 0x6
 8465 02be 58       		.uleb128 0x58
 8466 02bf 0B       		.uleb128 0xb
 8467 02c0 59       		.uleb128 0x59
 8468 02c1 05       		.uleb128 0x5
 8469 02c2 01       		.uleb128 0x1
 8470 02c3 13       		.uleb128 0x13
 8471 02c4 00       		.byte	0
 8472 02c5 00       		.byte	0
 8473 02c6 34       		.uleb128 0x34
 8474 02c7 1D       		.uleb128 0x1d
 8475 02c8 01       		.byte	0x1
 8476 02c9 31       		.uleb128 0x31
 8477 02ca 13       		.uleb128 0x13
 8478 02cb 11       		.uleb128 0x11
 8479 02cc 01       		.uleb128 0x1
 8480 02cd 12       		.uleb128 0x12
 8481 02ce 01       		.uleb128 0x1
 8482 02cf 58       		.uleb128 0x58
ARM GAS  /tmp/ccZUWmXH.s 			page 150


 8483 02d0 0B       		.uleb128 0xb
 8484 02d1 59       		.uleb128 0x59
 8485 02d2 05       		.uleb128 0x5
 8486 02d3 00       		.byte	0
 8487 02d4 00       		.byte	0
 8488 02d5 35       		.uleb128 0x35
 8489 02d6 1D       		.uleb128 0x1d
 8490 02d7 01       		.byte	0x1
 8491 02d8 31       		.uleb128 0x31
 8492 02d9 13       		.uleb128 0x13
 8493 02da 52       		.uleb128 0x52
 8494 02db 01       		.uleb128 0x1
 8495 02dc 55       		.uleb128 0x55
 8496 02dd 06       		.uleb128 0x6
 8497 02de 58       		.uleb128 0x58
 8498 02df 0B       		.uleb128 0xb
 8499 02e0 59       		.uleb128 0x59
 8500 02e1 05       		.uleb128 0x5
 8501 02e2 00       		.byte	0
 8502 02e3 00       		.byte	0
 8503 02e4 36       		.uleb128 0x36
 8504 02e5 05       		.uleb128 0x5
 8505 02e6 00       		.byte	0
 8506 02e7 03       		.uleb128 0x3
 8507 02e8 08       		.uleb128 0x8
 8508 02e9 3A       		.uleb128 0x3a
 8509 02ea 0B       		.uleb128 0xb
 8510 02eb 3B       		.uleb128 0x3b
 8511 02ec 05       		.uleb128 0x5
 8512 02ed 49       		.uleb128 0x49
 8513 02ee 13       		.uleb128 0x13
 8514 02ef 02       		.uleb128 0x2
 8515 02f0 06       		.uleb128 0x6
 8516 02f1 00       		.byte	0
 8517 02f2 00       		.byte	0
 8518 02f3 37       		.uleb128 0x37
 8519 02f4 05       		.uleb128 0x5
 8520 02f5 00       		.byte	0
 8521 02f6 03       		.uleb128 0x3
 8522 02f7 0E       		.uleb128 0xe
 8523 02f8 3A       		.uleb128 0x3a
 8524 02f9 0B       		.uleb128 0xb
 8525 02fa 3B       		.uleb128 0x3b
 8526 02fb 05       		.uleb128 0x5
 8527 02fc 49       		.uleb128 0x49
 8528 02fd 13       		.uleb128 0x13
 8529 02fe 02       		.uleb128 0x2
 8530 02ff 0A       		.uleb128 0xa
 8531 0300 00       		.byte	0
 8532 0301 00       		.byte	0
 8533 0302 38       		.uleb128 0x38
 8534 0303 34       		.uleb128 0x34
 8535 0304 00       		.byte	0
 8536 0305 03       		.uleb128 0x3
 8537 0306 0E       		.uleb128 0xe
 8538 0307 3A       		.uleb128 0x3a
 8539 0308 0B       		.uleb128 0xb
ARM GAS  /tmp/ccZUWmXH.s 			page 151


 8540 0309 3B       		.uleb128 0x3b
 8541 030a 05       		.uleb128 0x5
 8542 030b 49       		.uleb128 0x49
 8543 030c 13       		.uleb128 0x13
 8544 030d 02       		.uleb128 0x2
 8545 030e 0A       		.uleb128 0xa
 8546 030f 00       		.byte	0
 8547 0310 00       		.byte	0
 8548 0311 39       		.uleb128 0x39
 8549 0312 1D       		.uleb128 0x1d
 8550 0313 01       		.byte	0x1
 8551 0314 31       		.uleb128 0x31
 8552 0315 13       		.uleb128 0x13
 8553 0316 11       		.uleb128 0x11
 8554 0317 01       		.uleb128 0x1
 8555 0318 12       		.uleb128 0x12
 8556 0319 01       		.uleb128 0x1
 8557 031a 58       		.uleb128 0x58
 8558 031b 0B       		.uleb128 0xb
 8559 031c 59       		.uleb128 0x59
 8560 031d 05       		.uleb128 0x5
 8561 031e 01       		.uleb128 0x1
 8562 031f 13       		.uleb128 0x13
 8563 0320 00       		.byte	0
 8564 0321 00       		.byte	0
 8565 0322 3A       		.uleb128 0x3a
 8566 0323 898201   		.uleb128 0x4109
 8567 0326 00       		.byte	0
 8568 0327 11       		.uleb128 0x11
 8569 0328 01       		.uleb128 0x1
 8570 0329 31       		.uleb128 0x31
 8571 032a 13       		.uleb128 0x13
 8572 032b 00       		.byte	0
 8573 032c 00       		.byte	0
 8574 032d 3B       		.uleb128 0x3b
 8575 032e 34       		.uleb128 0x34
 8576 032f 00       		.byte	0
 8577 0330 03       		.uleb128 0x3
 8578 0331 0E       		.uleb128 0xe
 8579 0332 3A       		.uleb128 0x3a
 8580 0333 0B       		.uleb128 0xb
 8581 0334 3B       		.uleb128 0x3b
 8582 0335 0B       		.uleb128 0xb
 8583 0336 49       		.uleb128 0x49
 8584 0337 13       		.uleb128 0x13
 8585 0338 02       		.uleb128 0x2
 8586 0339 06       		.uleb128 0x6
 8587 033a 00       		.byte	0
 8588 033b 00       		.byte	0
 8589 033c 3C       		.uleb128 0x3c
 8590 033d 898201   		.uleb128 0x4109
 8591 0340 01       		.byte	0x1
 8592 0341 11       		.uleb128 0x11
 8593 0342 01       		.uleb128 0x1
 8594 0343 9542     		.uleb128 0x2115
 8595 0345 0C       		.uleb128 0xc
 8596 0346 31       		.uleb128 0x31
ARM GAS  /tmp/ccZUWmXH.s 			page 152


 8597 0347 13       		.uleb128 0x13
 8598 0348 01       		.uleb128 0x1
 8599 0349 13       		.uleb128 0x13
 8600 034a 00       		.byte	0
 8601 034b 00       		.byte	0
 8602 034c 3D       		.uleb128 0x3d
 8603 034d 898201   		.uleb128 0x4109
 8604 0350 01       		.byte	0x1
 8605 0351 11       		.uleb128 0x11
 8606 0352 01       		.uleb128 0x1
 8607 0353 9542     		.uleb128 0x2115
 8608 0355 0C       		.uleb128 0xc
 8609 0356 31       		.uleb128 0x31
 8610 0357 13       		.uleb128 0x13
 8611 0358 00       		.byte	0
 8612 0359 00       		.byte	0
 8613 035a 3E       		.uleb128 0x3e
 8614 035b 34       		.uleb128 0x34
 8615 035c 00       		.byte	0
 8616 035d 03       		.uleb128 0x3
 8617 035e 08       		.uleb128 0x8
 8618 035f 3A       		.uleb128 0x3a
 8619 0360 0B       		.uleb128 0xb
 8620 0361 3B       		.uleb128 0x3b
 8621 0362 05       		.uleb128 0x5
 8622 0363 49       		.uleb128 0x49
 8623 0364 13       		.uleb128 0x13
 8624 0365 02       		.uleb128 0x2
 8625 0366 06       		.uleb128 0x6
 8626 0367 00       		.byte	0
 8627 0368 00       		.byte	0
 8628 0369 3F       		.uleb128 0x3f
 8629 036a 26       		.uleb128 0x26
 8630 036b 00       		.byte	0
 8631 036c 49       		.uleb128 0x49
 8632 036d 13       		.uleb128 0x13
 8633 036e 00       		.byte	0
 8634 036f 00       		.byte	0
 8635 0370 40       		.uleb128 0x40
 8636 0371 34       		.uleb128 0x34
 8637 0372 00       		.byte	0
 8638 0373 03       		.uleb128 0x3
 8639 0374 0E       		.uleb128 0xe
 8640 0375 3A       		.uleb128 0x3a
 8641 0376 0B       		.uleb128 0xb
 8642 0377 3B       		.uleb128 0x3b
 8643 0378 05       		.uleb128 0x5
 8644 0379 49       		.uleb128 0x49
 8645 037a 13       		.uleb128 0x13
 8646 037b 3F       		.uleb128 0x3f
 8647 037c 0C       		.uleb128 0xc
 8648 037d 3C       		.uleb128 0x3c
 8649 037e 0C       		.uleb128 0xc
 8650 037f 00       		.byte	0
 8651 0380 00       		.byte	0
 8652 0381 41       		.uleb128 0x41
 8653 0382 34       		.uleb128 0x34
ARM GAS  /tmp/ccZUWmXH.s 			page 153


 8654 0383 00       		.byte	0
 8655 0384 03       		.uleb128 0x3
 8656 0385 0E       		.uleb128 0xe
 8657 0386 3A       		.uleb128 0x3a
 8658 0387 0B       		.uleb128 0xb
 8659 0388 3B       		.uleb128 0x3b
 8660 0389 0B       		.uleb128 0xb
 8661 038a 49       		.uleb128 0x49
 8662 038b 13       		.uleb128 0x13
 8663 038c 3F       		.uleb128 0x3f
 8664 038d 0C       		.uleb128 0xc
 8665 038e 02       		.uleb128 0x2
 8666 038f 0A       		.uleb128 0xa
 8667 0390 00       		.byte	0
 8668 0391 00       		.byte	0
 8669 0392 42       		.uleb128 0x42
 8670 0393 2E       		.uleb128 0x2e
 8671 0394 01       		.byte	0x1
 8672 0395 3F       		.uleb128 0x3f
 8673 0396 0C       		.uleb128 0xc
 8674 0397 03       		.uleb128 0x3
 8675 0398 0E       		.uleb128 0xe
 8676 0399 3A       		.uleb128 0x3a
 8677 039a 0B       		.uleb128 0xb
 8678 039b 3B       		.uleb128 0x3b
 8679 039c 05       		.uleb128 0x5
 8680 039d 27       		.uleb128 0x27
 8681 039e 0C       		.uleb128 0xc
 8682 039f 3C       		.uleb128 0x3c
 8683 03a0 0C       		.uleb128 0xc
 8684 03a1 01       		.uleb128 0x1
 8685 03a2 13       		.uleb128 0x13
 8686 03a3 00       		.byte	0
 8687 03a4 00       		.byte	0
 8688 03a5 43       		.uleb128 0x43
 8689 03a6 05       		.uleb128 0x5
 8690 03a7 00       		.byte	0
 8691 03a8 49       		.uleb128 0x49
 8692 03a9 13       		.uleb128 0x13
 8693 03aa 00       		.byte	0
 8694 03ab 00       		.byte	0
 8695 03ac 44       		.uleb128 0x44
 8696 03ad 2E       		.uleb128 0x2e
 8697 03ae 01       		.byte	0x1
 8698 03af 3F       		.uleb128 0x3f
 8699 03b0 0C       		.uleb128 0xc
 8700 03b1 03       		.uleb128 0x3
 8701 03b2 0E       		.uleb128 0xe
 8702 03b3 3A       		.uleb128 0x3a
 8703 03b4 0B       		.uleb128 0xb
 8704 03b5 3B       		.uleb128 0x3b
 8705 03b6 0B       		.uleb128 0xb
 8706 03b7 27       		.uleb128 0x27
 8707 03b8 0C       		.uleb128 0xc
 8708 03b9 3C       		.uleb128 0x3c
 8709 03ba 0C       		.uleb128 0xc
 8710 03bb 01       		.uleb128 0x1
ARM GAS  /tmp/ccZUWmXH.s 			page 154


 8711 03bc 13       		.uleb128 0x13
 8712 03bd 00       		.byte	0
 8713 03be 00       		.byte	0
 8714 03bf 45       		.uleb128 0x45
 8715 03c0 2E       		.uleb128 0x2e
 8716 03c1 01       		.byte	0x1
 8717 03c2 3F       		.uleb128 0x3f
 8718 03c3 0C       		.uleb128 0xc
 8719 03c4 03       		.uleb128 0x3
 8720 03c5 0E       		.uleb128 0xe
 8721 03c6 3A       		.uleb128 0x3a
 8722 03c7 0B       		.uleb128 0xb
 8723 03c8 3B       		.uleb128 0x3b
 8724 03c9 0B       		.uleb128 0xb
 8725 03ca 27       		.uleb128 0x27
 8726 03cb 0C       		.uleb128 0xc
 8727 03cc 3C       		.uleb128 0x3c
 8728 03cd 0C       		.uleb128 0xc
 8729 03ce 00       		.byte	0
 8730 03cf 00       		.byte	0
 8731 03d0 00       		.byte	0
 8732              		.section	.debug_loc,"",%progbits
 8733              	.Ldebug_loc0:
 8734              	.LLST0:
 8735 0000 00000000 		.4byte	.LFB130
 8736 0004 02000000 		.4byte	.LCFI0
 8737 0008 0200     		.2byte	0x2
 8738 000a 7D       		.byte	0x7d
 8739 000b 00       		.sleb128 0
 8740 000c 02000000 		.4byte	.LCFI0
 8741 0010 BC010000 		.4byte	.LFE130
 8742 0014 0200     		.2byte	0x2
 8743 0016 7D       		.byte	0x7d
 8744 0017 0C       		.sleb128 12
 8745 0018 00000000 		.4byte	0
 8746 001c 00000000 		.4byte	0
 8747              	.LLST1:
 8748 0020 00000000 		.4byte	.LVL0
 8749 0024 34000000 		.4byte	.LVL6
 8750 0028 0100     		.2byte	0x1
 8751 002a 50       		.byte	0x50
 8752 002b 34000000 		.4byte	.LVL6
 8753 002f 64000000 		.4byte	.LVL18
 8754 0033 0400     		.2byte	0x4
 8755 0035 F3       		.byte	0xf3
 8756 0036 01       		.uleb128 0x1
 8757 0037 50       		.byte	0x50
 8758 0038 9F       		.byte	0x9f
 8759 0039 64000000 		.4byte	.LVL18
 8760 003d 76000000 		.4byte	.LVL20
 8761 0041 0100     		.2byte	0x1
 8762 0043 50       		.byte	0x50
 8763 0044 76000000 		.4byte	.LVL20
 8764 0048 AA000000 		.4byte	.LVL30
 8765 004c 0100     		.2byte	0x1
 8766 004e 56       		.byte	0x56
 8767 004f AA000000 		.4byte	.LVL30
ARM GAS  /tmp/ccZUWmXH.s 			page 155


 8768 0053 C8000000 		.4byte	.LVL34
 8769 0057 0400     		.2byte	0x4
 8770 0059 F3       		.byte	0xf3
 8771 005a 01       		.uleb128 0x1
 8772 005b 50       		.byte	0x50
 8773 005c 9F       		.byte	0x9f
 8774 005d C8000000 		.4byte	.LVL34
 8775 0061 F0000000 		.4byte	.LVL38
 8776 0065 0100     		.2byte	0x1
 8777 0067 50       		.byte	0x50
 8778 0068 F0000000 		.4byte	.LVL38
 8779 006c 2C010000 		.4byte	.LVL50
 8780 0070 0400     		.2byte	0x4
 8781 0072 F3       		.byte	0xf3
 8782 0073 01       		.uleb128 0x1
 8783 0074 50       		.byte	0x50
 8784 0075 9F       		.byte	0x9f
 8785 0076 2C010000 		.4byte	.LVL50
 8786 007a 34010000 		.4byte	.LVL52
 8787 007e 0100     		.2byte	0x1
 8788 0080 50       		.byte	0x50
 8789 0081 34010000 		.4byte	.LVL52
 8790 0085 7A010000 		.4byte	.LVL67
 8791 0089 0400     		.2byte	0x4
 8792 008b F3       		.byte	0xf3
 8793 008c 01       		.uleb128 0x1
 8794 008d 50       		.byte	0x50
 8795 008e 9F       		.byte	0x9f
 8796 008f 7A010000 		.4byte	.LVL67
 8797 0093 8A010000 		.4byte	.LVL69
 8798 0097 0100     		.2byte	0x1
 8799 0099 50       		.byte	0x50
 8800 009a 8A010000 		.4byte	.LVL69
 8801 009e 90010000 		.4byte	.LVL71
 8802 00a2 0400     		.2byte	0x4
 8803 00a4 F3       		.byte	0xf3
 8804 00a5 01       		.uleb128 0x1
 8805 00a6 50       		.byte	0x50
 8806 00a7 9F       		.byte	0x9f
 8807 00a8 90010000 		.4byte	.LVL71
 8808 00ac 94010000 		.4byte	.LVL72
 8809 00b0 0100     		.2byte	0x1
 8810 00b2 50       		.byte	0x50
 8811 00b3 94010000 		.4byte	.LVL72
 8812 00b7 98010000 		.4byte	.LVL74
 8813 00bb 0400     		.2byte	0x4
 8814 00bd F3       		.byte	0xf3
 8815 00be 01       		.uleb128 0x1
 8816 00bf 50       		.byte	0x50
 8817 00c0 9F       		.byte	0x9f
 8818 00c1 98010000 		.4byte	.LVL74
 8819 00c5 A6010000 		.4byte	.LVL76
 8820 00c9 0100     		.2byte	0x1
 8821 00cb 50       		.byte	0x50
 8822 00cc A6010000 		.4byte	.LVL76
 8823 00d0 A8010000 		.4byte	.LVL77
 8824 00d4 0100     		.2byte	0x1
ARM GAS  /tmp/ccZUWmXH.s 			page 156


 8825 00d6 55       		.byte	0x55
 8826 00d7 A8010000 		.4byte	.LVL77
 8827 00db BC010000 		.4byte	.LFE130
 8828 00df 0100     		.2byte	0x1
 8829 00e1 50       		.byte	0x50
 8830 00e2 00000000 		.4byte	0
 8831 00e6 00000000 		.4byte	0
 8832              	.LLST2:
 8833 00ea 00000000 		.4byte	.LVL0
 8834 00ee 1C000000 		.4byte	.LVL2
 8835 00f2 0100     		.2byte	0x1
 8836 00f4 51       		.byte	0x51
 8837 00f5 1C000000 		.4byte	.LVL2
 8838 00f9 64000000 		.4byte	.LVL18
 8839 00fd 0400     		.2byte	0x4
 8840 00ff F3       		.byte	0xf3
 8841 0100 01       		.uleb128 0x1
 8842 0101 51       		.byte	0x51
 8843 0102 9F       		.byte	0x9f
 8844 0103 64000000 		.4byte	.LVL18
 8845 0107 8C000000 		.4byte	.LVL22
 8846 010b 0100     		.2byte	0x1
 8847 010d 51       		.byte	0x51
 8848 010e 8C000000 		.4byte	.LVL22
 8849 0112 C8000000 		.4byte	.LVL34
 8850 0116 0400     		.2byte	0x4
 8851 0118 F3       		.byte	0xf3
 8852 0119 01       		.uleb128 0x1
 8853 011a 51       		.byte	0x51
 8854 011b 9F       		.byte	0x9f
 8855 011c C8000000 		.4byte	.LVL34
 8856 0120 DA000000 		.4byte	.LVL36
 8857 0124 0100     		.2byte	0x1
 8858 0126 51       		.byte	0x51
 8859 0127 DA000000 		.4byte	.LVL36
 8860 012b 0E010000 		.4byte	.LVL46
 8861 012f 0100     		.2byte	0x1
 8862 0131 56       		.byte	0x56
 8863 0132 0E010000 		.4byte	.LVL46
 8864 0136 2C010000 		.4byte	.LVL50
 8865 013a 0400     		.2byte	0x4
 8866 013c F3       		.byte	0xf3
 8867 013d 01       		.uleb128 0x1
 8868 013e 51       		.byte	0x51
 8869 013f 9F       		.byte	0x9f
 8870 0140 2C010000 		.4byte	.LVL50
 8871 0144 4C010000 		.4byte	.LVL56
 8872 0148 0100     		.2byte	0x1
 8873 014a 51       		.byte	0x51
 8874 014b 4C010000 		.4byte	.LVL56
 8875 014f 7A010000 		.4byte	.LVL67
 8876 0153 0400     		.2byte	0x4
 8877 0155 F3       		.byte	0xf3
 8878 0156 01       		.uleb128 0x1
 8879 0157 51       		.byte	0x51
 8880 0158 9F       		.byte	0x9f
 8881 0159 7A010000 		.4byte	.LVL67
ARM GAS  /tmp/ccZUWmXH.s 			page 157


 8882 015d 8C010000 		.4byte	.LVL70
 8883 0161 0100     		.2byte	0x1
 8884 0163 51       		.byte	0x51
 8885 0164 8C010000 		.4byte	.LVL70
 8886 0168 90010000 		.4byte	.LVL71
 8887 016c 0400     		.2byte	0x4
 8888 016e F3       		.byte	0xf3
 8889 016f 01       		.uleb128 0x1
 8890 0170 51       		.byte	0x51
 8891 0171 9F       		.byte	0x9f
 8892 0172 90010000 		.4byte	.LVL71
 8893 0176 96010000 		.4byte	.LVL73
 8894 017a 0100     		.2byte	0x1
 8895 017c 51       		.byte	0x51
 8896 017d 96010000 		.4byte	.LVL73
 8897 0181 98010000 		.4byte	.LVL74
 8898 0185 0400     		.2byte	0x4
 8899 0187 F3       		.byte	0xf3
 8900 0188 01       		.uleb128 0x1
 8901 0189 51       		.byte	0x51
 8902 018a 9F       		.byte	0x9f
 8903 018b 98010000 		.4byte	.LVL74
 8904 018f B6010000 		.4byte	.LVL79
 8905 0193 0100     		.2byte	0x1
 8906 0195 51       		.byte	0x51
 8907 0196 B6010000 		.4byte	.LVL79
 8908 019a BC010000 		.4byte	.LFE130
 8909 019e 0100     		.2byte	0x1
 8910 01a0 55       		.byte	0x55
 8911 01a1 00000000 		.4byte	0
 8912 01a5 00000000 		.4byte	0
 8913              	.LLST3:
 8914 01a9 00000000 		.4byte	.LVL0
 8915 01ad 28000000 		.4byte	.LVL4
 8916 01b1 0100     		.2byte	0x1
 8917 01b3 52       		.byte	0x52
 8918 01b4 28000000 		.4byte	.LVL4
 8919 01b8 64000000 		.4byte	.LVL18
 8920 01bc 0400     		.2byte	0x4
 8921 01be F3       		.byte	0xf3
 8922 01bf 01       		.uleb128 0x1
 8923 01c0 52       		.byte	0x52
 8924 01c1 9F       		.byte	0x9f
 8925 01c2 64000000 		.4byte	.LVL18
 8926 01c6 6E000000 		.4byte	.LVL19
 8927 01ca 0100     		.2byte	0x1
 8928 01cc 52       		.byte	0x52
 8929 01cd 6E000000 		.4byte	.LVL19
 8930 01d1 C8000000 		.4byte	.LVL34
 8931 01d5 0400     		.2byte	0x4
 8932 01d7 F3       		.byte	0xf3
 8933 01d8 01       		.uleb128 0x1
 8934 01d9 52       		.byte	0x52
 8935 01da 9F       		.byte	0x9f
 8936 01db C8000000 		.4byte	.LVL34
 8937 01df E4000000 		.4byte	.LVL37
 8938 01e3 0100     		.2byte	0x1
ARM GAS  /tmp/ccZUWmXH.s 			page 158


 8939 01e5 52       		.byte	0x52
 8940 01e6 E4000000 		.4byte	.LVL37
 8941 01ea 2C010000 		.4byte	.LVL50
 8942 01ee 0400     		.2byte	0x4
 8943 01f0 F3       		.byte	0xf3
 8944 01f1 01       		.uleb128 0x1
 8945 01f2 52       		.byte	0x52
 8946 01f3 9F       		.byte	0x9f
 8947 01f4 2C010000 		.4byte	.LVL50
 8948 01f8 32010000 		.4byte	.LVL51
 8949 01fc 0100     		.2byte	0x1
 8950 01fe 52       		.byte	0x52
 8951 01ff 32010000 		.4byte	.LVL51
 8952 0203 7A010000 		.4byte	.LVL67
 8953 0207 0400     		.2byte	0x4
 8954 0209 F3       		.byte	0xf3
 8955 020a 01       		.uleb128 0x1
 8956 020b 52       		.byte	0x52
 8957 020c 9F       		.byte	0x9f
 8958 020d 7A010000 		.4byte	.LVL67
 8959 0211 A2010000 		.4byte	.LVL75
 8960 0215 0100     		.2byte	0x1
 8961 0217 52       		.byte	0x52
 8962 0218 A2010000 		.4byte	.LVL75
 8963 021c A8010000 		.4byte	.LVL77
 8964 0220 0400     		.2byte	0x4
 8965 0222 F3       		.byte	0xf3
 8966 0223 01       		.uleb128 0x1
 8967 0224 52       		.byte	0x52
 8968 0225 9F       		.byte	0x9f
 8969 0226 A8010000 		.4byte	.LVL77
 8970 022a B2010000 		.4byte	.LVL78
 8971 022e 0100     		.2byte	0x1
 8972 0230 52       		.byte	0x52
 8973 0231 B2010000 		.4byte	.LVL78
 8974 0235 BC010000 		.4byte	.LFE130
 8975 0239 0400     		.2byte	0x4
 8976 023b F3       		.byte	0xf3
 8977 023c 01       		.uleb128 0x1
 8978 023d 52       		.byte	0x52
 8979 023e 9F       		.byte	0x9f
 8980 023f 00000000 		.4byte	0
 8981 0243 00000000 		.4byte	0
 8982              	.LLST4:
 8983 0247 00000000 		.4byte	.LVL0
 8984 024b 1E000000 		.4byte	.LVL3
 8985 024f 0100     		.2byte	0x1
 8986 0251 53       		.byte	0x53
 8987 0252 1E000000 		.4byte	.LVL3
 8988 0256 64000000 		.4byte	.LVL18
 8989 025a 0400     		.2byte	0x4
 8990 025c F3       		.byte	0xf3
 8991 025d 01       		.uleb128 0x1
 8992 025e 53       		.byte	0x53
 8993 025f 9F       		.byte	0x9f
 8994 0260 64000000 		.4byte	.LVL18
 8995 0264 80000000 		.4byte	.LVL21
ARM GAS  /tmp/ccZUWmXH.s 			page 159


 8996 0268 0100     		.2byte	0x1
 8997 026a 53       		.byte	0x53
 8998 026b 80000000 		.4byte	.LVL21
 8999 026f C8000000 		.4byte	.LVL34
 9000 0273 0400     		.2byte	0x4
 9001 0275 F3       		.byte	0xf3
 9002 0276 01       		.uleb128 0x1
 9003 0277 53       		.byte	0x53
 9004 0278 9F       		.byte	0x9f
 9005 0279 C8000000 		.4byte	.LVL34
 9006 027d D2000000 		.4byte	.LVL35
 9007 0281 0100     		.2byte	0x1
 9008 0283 53       		.byte	0x53
 9009 0284 D2000000 		.4byte	.LVL35
 9010 0288 2C010000 		.4byte	.LVL50
 9011 028c 0400     		.2byte	0x4
 9012 028e F3       		.byte	0xf3
 9013 028f 01       		.uleb128 0x1
 9014 0290 53       		.byte	0x53
 9015 0291 9F       		.byte	0x9f
 9016 0292 2C010000 		.4byte	.LVL50
 9017 0296 3C010000 		.4byte	.LVL53
 9018 029a 0100     		.2byte	0x1
 9019 029c 53       		.byte	0x53
 9020 029d 3C010000 		.4byte	.LVL53
 9021 02a1 7A010000 		.4byte	.LVL67
 9022 02a5 0400     		.2byte	0x4
 9023 02a7 F3       		.byte	0xf3
 9024 02a8 01       		.uleb128 0x1
 9025 02a9 53       		.byte	0x53
 9026 02aa 9F       		.byte	0x9f
 9027 02ab 7A010000 		.4byte	.LVL67
 9028 02af 84010000 		.4byte	.LVL68
 9029 02b3 0100     		.2byte	0x1
 9030 02b5 53       		.byte	0x53
 9031 02b6 84010000 		.4byte	.LVL68
 9032 02ba BC010000 		.4byte	.LFE130
 9033 02be 0400     		.2byte	0x4
 9034 02c0 F3       		.byte	0xf3
 9035 02c1 01       		.uleb128 0x1
 9036 02c2 53       		.byte	0x53
 9037 02c3 9F       		.byte	0x9f
 9038 02c4 00000000 		.4byte	0
 9039 02c8 00000000 		.4byte	0
 9040              	.LLST5:
 9041 02cc 32000000 		.4byte	.LVL5
 9042 02d0 3A000000 		.4byte	.LVL8
 9043 02d4 0100     		.2byte	0x1
 9044 02d6 55       		.byte	0x55
 9045 02d7 00000000 		.4byte	0
 9046 02db 00000000 		.4byte	0
 9047              	.LLST6:
 9048 02df 14000000 		.4byte	.LVL1
 9049 02e3 48000000 		.4byte	.LVL12
 9050 02e7 0300     		.2byte	0x3
 9051 02e9 08       		.byte	0x8
 9052 02ea 44       		.byte	0x44
ARM GAS  /tmp/ccZUWmXH.s 			page 160


 9053 02eb 9F       		.byte	0x9f
 9054 02ec 00000000 		.4byte	0
 9055 02f0 00000000 		.4byte	0
 9056              	.LLST7:
 9057 02f4 36000000 		.4byte	.LVL7
 9058 02f8 48000000 		.4byte	.LVL12
 9059 02fc 0300     		.2byte	0x3
 9060 02fe 08       		.byte	0x8
 9061 02ff 45       		.byte	0x45
 9062 0300 9F       		.byte	0x9f
 9063 0301 00000000 		.4byte	0
 9064 0305 00000000 		.4byte	0
 9065              	.LLST8:
 9066 0309 44000000 		.4byte	.LVL10
 9067 030d 48000000 		.4byte	.LVL12
 9068 0311 0300     		.2byte	0x3
 9069 0313 08       		.byte	0x8
 9070 0314 46       		.byte	0x46
 9071 0315 9F       		.byte	0x9f
 9072 0316 00000000 		.4byte	0
 9073 031a 00000000 		.4byte	0
 9074              	.LLST9:
 9075 031e 3E000000 		.4byte	.LVL9
 9076 0322 48000000 		.4byte	.LVL12
 9077 0326 0100     		.2byte	0x1
 9078 0328 50       		.byte	0x50
 9079 0329 00000000 		.4byte	0
 9080 032d 00000000 		.4byte	0
 9081              	.LLST10:
 9082 0331 46000000 		.4byte	.LVL11
 9083 0335 48000000 		.4byte	.LVL12
 9084 0339 0100     		.2byte	0x1
 9085 033b 52       		.byte	0x52
 9086 033c 00000000 		.4byte	0
 9087 0340 00000000 		.4byte	0
 9088              	.LLST11:
 9089 0344 7A010000 		.4byte	.LVL67
 9090 0348 8C010000 		.4byte	.LVL70
 9091 034c 0100     		.2byte	0x1
 9092 034e 51       		.byte	0x51
 9093 034f 90010000 		.4byte	.LVL71
 9094 0353 96010000 		.4byte	.LVL73
 9095 0357 0100     		.2byte	0x1
 9096 0359 51       		.byte	0x51
 9097 035a 98010000 		.4byte	.LVL74
 9098 035e B6010000 		.4byte	.LVL79
 9099 0362 0100     		.2byte	0x1
 9100 0364 51       		.byte	0x51
 9101 0365 00000000 		.4byte	0
 9102 0369 00000000 		.4byte	0
 9103              	.LLST12:
 9104 036d 7A010000 		.4byte	.LVL67
 9105 0371 8A010000 		.4byte	.LVL69
 9106 0375 0100     		.2byte	0x1
 9107 0377 50       		.byte	0x50
 9108 0378 90010000 		.4byte	.LVL71
 9109 037c 94010000 		.4byte	.LVL72
ARM GAS  /tmp/ccZUWmXH.s 			page 161


 9110 0380 0100     		.2byte	0x1
 9111 0382 50       		.byte	0x50
 9112 0383 98010000 		.4byte	.LVL74
 9113 0387 A6010000 		.4byte	.LVL76
 9114 038b 0100     		.2byte	0x1
 9115 038d 50       		.byte	0x50
 9116 038e A8010000 		.4byte	.LVL77
 9117 0392 BC010000 		.4byte	.LFE130
 9118 0396 0100     		.2byte	0x1
 9119 0398 50       		.byte	0x50
 9120 0399 00000000 		.4byte	0
 9121 039d 00000000 		.4byte	0
 9122              	.LLST13:
 9123 03a1 54000000 		.4byte	.LVL13
 9124 03a5 5C000000 		.4byte	.LVL15
 9125 03a9 0100     		.2byte	0x1
 9126 03ab 51       		.byte	0x51
 9127 03ac 00000000 		.4byte	0
 9128 03b0 00000000 		.4byte	0
 9129              	.LLST14:
 9130 03b4 48000000 		.4byte	.LVL12
 9131 03b8 60000000 		.4byte	.LVL17
 9132 03bc 0300     		.2byte	0x3
 9133 03be 08       		.byte	0x8
 9134 03bf 4E       		.byte	0x4e
 9135 03c0 9F       		.byte	0x9f
 9136 03c1 00000000 		.4byte	0
 9137 03c5 00000000 		.4byte	0
 9138              	.LLST15:
 9139 03c9 5A000000 		.4byte	.LVL14
 9140 03cd 60000000 		.4byte	.LVL17
 9141 03d1 0300     		.2byte	0x3
 9142 03d3 08       		.byte	0x8
 9143 03d4 4F       		.byte	0x4f
 9144 03d5 9F       		.byte	0x9f
 9145 03d6 00000000 		.4byte	0
 9146 03da 00000000 		.4byte	0
 9147              	.LLST16:
 9148 03de 5E000000 		.4byte	.LVL16
 9149 03e2 60000000 		.4byte	.LVL17
 9150 03e6 0100     		.2byte	0x1
 9151 03e8 50       		.byte	0x50
 9152 03e9 00000000 		.4byte	0
 9153 03ed 00000000 		.4byte	0
 9154              	.LLST17:
 9155 03f1 AA000000 		.4byte	.LVL30
 9156 03f5 C8000000 		.4byte	.LVL34
 9157 03f9 0300     		.2byte	0x3
 9158 03fb 08       		.byte	0x8
 9159 03fc 4E       		.byte	0x4e
 9160 03fd 9F       		.byte	0x9f
 9161 03fe 00000000 		.4byte	0
 9162 0402 00000000 		.4byte	0
 9163              	.LLST18:
 9164 0406 BA000000 		.4byte	.LVL31
 9165 040a C8000000 		.4byte	.LVL34
 9166 040e 0100     		.2byte	0x1
ARM GAS  /tmp/ccZUWmXH.s 			page 162


 9167 0410 56       		.byte	0x56
 9168 0411 00000000 		.4byte	0
 9169 0415 00000000 		.4byte	0
 9170              	.LLST19:
 9171 0419 C2000000 		.4byte	.LVL32
 9172 041d C8000000 		.4byte	.LVL34
 9173 0421 0300     		.2byte	0x3
 9174 0423 08       		.byte	0x8
 9175 0424 4F       		.byte	0x4f
 9176 0425 9F       		.byte	0x9f
 9177 0426 00000000 		.4byte	0
 9178 042a 00000000 		.4byte	0
 9179              	.LLST20:
 9180 042e C4000000 		.4byte	.LVL33
 9181 0432 C8000000 		.4byte	.LVL34
 9182 0436 0100     		.2byte	0x1
 9183 0438 51       		.byte	0x51
 9184 0439 00000000 		.4byte	0
 9185 043d 00000000 		.4byte	0
 9186              	.LLST21:
 9187 0441 0E010000 		.4byte	.LVL46
 9188 0445 2C010000 		.4byte	.LVL50
 9189 0449 0300     		.2byte	0x3
 9190 044b 08       		.byte	0x8
 9191 044c 4E       		.byte	0x4e
 9192 044d 9F       		.byte	0x9f
 9193 044e 00000000 		.4byte	0
 9194 0452 00000000 		.4byte	0
 9195              	.LLST22:
 9196 0456 1E010000 		.4byte	.LVL47
 9197 045a 2C010000 		.4byte	.LVL50
 9198 045e 0100     		.2byte	0x1
 9199 0460 56       		.byte	0x56
 9200 0461 00000000 		.4byte	0
 9201 0465 00000000 		.4byte	0
 9202              	.LLST23:
 9203 0469 26010000 		.4byte	.LVL48
 9204 046d 2C010000 		.4byte	.LVL50
 9205 0471 0300     		.2byte	0x3
 9206 0473 08       		.byte	0x8
 9207 0474 4F       		.byte	0x4f
 9208 0475 9F       		.byte	0x9f
 9209 0476 00000000 		.4byte	0
 9210 047a 00000000 		.4byte	0
 9211              	.LLST24:
 9212 047e 28010000 		.4byte	.LVL49
 9213 0482 2C010000 		.4byte	.LVL50
 9214 0486 0100     		.2byte	0x1
 9215 0488 50       		.byte	0x50
 9216 0489 00000000 		.4byte	0
 9217 048d 00000000 		.4byte	0
 9218              	.LLST25:
 9219 0491 6C010000 		.4byte	.LVL63
 9220 0495 74010000 		.4byte	.LVL65
 9221 0499 0100     		.2byte	0x1
 9222 049b 50       		.byte	0x50
 9223 049c 00000000 		.4byte	0
ARM GAS  /tmp/ccZUWmXH.s 			page 163


 9224 04a0 00000000 		.4byte	0
 9225              	.LLST26:
 9226 04a4 60010000 		.4byte	.LVL62
 9227 04a8 7A010000 		.4byte	.LVL67
 9228 04ac 0300     		.2byte	0x3
 9229 04ae 08       		.byte	0x8
 9230 04af 4E       		.byte	0x4e
 9231 04b0 9F       		.byte	0x9f
 9232 04b1 00000000 		.4byte	0
 9233 04b5 00000000 		.4byte	0
 9234              	.LLST27:
 9235 04b9 72010000 		.4byte	.LVL64
 9236 04bd 7A010000 		.4byte	.LVL67
 9237 04c1 0300     		.2byte	0x3
 9238 04c3 08       		.byte	0x8
 9239 04c4 4F       		.byte	0x4f
 9240 04c5 9F       		.byte	0x9f
 9241 04c6 00000000 		.4byte	0
 9242 04ca 00000000 		.4byte	0
 9243              	.LLST28:
 9244 04ce 76010000 		.4byte	.LVL66
 9245 04d2 7A010000 		.4byte	.LVL67
 9246 04d6 0100     		.2byte	0x1
 9247 04d8 51       		.byte	0x51
 9248 04d9 00000000 		.4byte	0
 9249 04dd 00000000 		.4byte	0
 9250              	.LLST29:
 9251 04e1 8E000000 		.4byte	.LVL23
 9252 04e5 94000000 		.4byte	.LVL24
 9253 04e9 0100     		.2byte	0x1
 9254 04eb 52       		.byte	0x52
 9255 04ec 94000000 		.4byte	.LVL24
 9256 04f0 9E000000 		.4byte	.LVL26
 9257 04f4 0100     		.2byte	0x1
 9258 04f6 50       		.byte	0x50
 9259 04f7 00000000 		.4byte	0
 9260 04fb 00000000 		.4byte	0
 9261              	.LLST30:
 9262 04ff 64000000 		.4byte	.LVL18
 9263 0503 AA000000 		.4byte	.LVL30
 9264 0507 0300     		.2byte	0x3
 9265 0509 08       		.byte	0x8
 9266 050a 44       		.byte	0x44
 9267 050b 9F       		.byte	0x9f
 9268 050c 00000000 		.4byte	0
 9269 0510 00000000 		.4byte	0
 9270              	.LLST31:
 9271 0514 9A000000 		.4byte	.LVL25
 9272 0518 AA000000 		.4byte	.LVL30
 9273 051c 0300     		.2byte	0x3
 9274 051e 08       		.byte	0x8
 9275 051f 45       		.byte	0x45
 9276 0520 9F       		.byte	0x9f
 9277 0521 00000000 		.4byte	0
 9278 0525 00000000 		.4byte	0
 9279              	.LLST32:
 9280 0529 A0000000 		.4byte	.LVL27
ARM GAS  /tmp/ccZUWmXH.s 			page 164


 9281 052d A6000000 		.4byte	.LVL29
 9282 0531 0100     		.2byte	0x1
 9283 0533 53       		.byte	0x53
 9284 0534 00000000 		.4byte	0
 9285 0538 00000000 		.4byte	0
 9286              	.LLST33:
 9287 053c A4000000 		.4byte	.LVL28
 9288 0540 AA000000 		.4byte	.LVL30
 9289 0544 0300     		.2byte	0x3
 9290 0546 08       		.byte	0x8
 9291 0547 46       		.byte	0x46
 9292 0548 9F       		.byte	0x9f
 9293 0549 00000000 		.4byte	0
 9294 054d 00000000 		.4byte	0
 9295              	.LLST34:
 9296 0551 A4000000 		.4byte	.LVL28
 9297 0555 AA000000 		.4byte	.LVL30
 9298 0559 0100     		.2byte	0x1
 9299 055b 51       		.byte	0x51
 9300 055c 00000000 		.4byte	0
 9301 0560 00000000 		.4byte	0
 9302              	.LLST35:
 9303 0564 F2000000 		.4byte	.LVL39
 9304 0568 F8000000 		.4byte	.LVL40
 9305 056c 0100     		.2byte	0x1
 9306 056e 53       		.byte	0x53
 9307 056f F8000000 		.4byte	.LVL40
 9308 0573 02010000 		.4byte	.LVL42
 9309 0577 0100     		.2byte	0x1
 9310 0579 51       		.byte	0x51
 9311 057a 00000000 		.4byte	0
 9312 057e 00000000 		.4byte	0
 9313              	.LLST36:
 9314 0582 C8000000 		.4byte	.LVL34
 9315 0586 0E010000 		.4byte	.LVL46
 9316 058a 0300     		.2byte	0x3
 9317 058c 08       		.byte	0x8
 9318 058d 44       		.byte	0x44
 9319 058e 9F       		.byte	0x9f
 9320 058f 00000000 		.4byte	0
 9321 0593 00000000 		.4byte	0
 9322              	.LLST37:
 9323 0597 FE000000 		.4byte	.LVL41
 9324 059b 0E010000 		.4byte	.LVL46
 9325 059f 0300     		.2byte	0x3
 9326 05a1 08       		.byte	0x8
 9327 05a2 45       		.byte	0x45
 9328 05a3 9F       		.byte	0x9f
 9329 05a4 00000000 		.4byte	0
 9330 05a8 00000000 		.4byte	0
 9331              	.LLST38:
 9332 05ac 04010000 		.4byte	.LVL43
 9333 05b0 0A010000 		.4byte	.LVL45
 9334 05b4 0100     		.2byte	0x1
 9335 05b6 52       		.byte	0x52
 9336 05b7 00000000 		.4byte	0
 9337 05bb 00000000 		.4byte	0
ARM GAS  /tmp/ccZUWmXH.s 			page 165


 9338              	.LLST39:
 9339 05bf 08010000 		.4byte	.LVL44
 9340 05c3 0E010000 		.4byte	.LVL46
 9341 05c7 0300     		.2byte	0x3
 9342 05c9 08       		.byte	0x8
 9343 05ca 46       		.byte	0x46
 9344 05cb 9F       		.byte	0x9f
 9345 05cc 00000000 		.4byte	0
 9346 05d0 00000000 		.4byte	0
 9347              	.LLST40:
 9348 05d4 08010000 		.4byte	.LVL44
 9349 05d8 0E010000 		.4byte	.LVL46
 9350 05dc 0100     		.2byte	0x1
 9351 05de 50       		.byte	0x50
 9352 05df 00000000 		.4byte	0
 9353 05e3 00000000 		.4byte	0
 9354              	.LLST41:
 9355 05e7 46010000 		.4byte	.LVL54
 9356 05eb 48010000 		.4byte	.LVL55
 9357 05ef 0100     		.2byte	0x1
 9358 05f1 56       		.byte	0x56
 9359 05f2 48010000 		.4byte	.LVL55
 9360 05f6 52010000 		.4byte	.LVL58
 9361 05fa 0100     		.2byte	0x1
 9362 05fc 52       		.byte	0x52
 9363 05fd 00000000 		.4byte	0
 9364 0601 00000000 		.4byte	0
 9365              	.LLST42:
 9366 0605 2C010000 		.4byte	.LVL50
 9367 0609 60010000 		.4byte	.LVL62
 9368 060d 0300     		.2byte	0x3
 9369 060f 08       		.byte	0x8
 9370 0610 44       		.byte	0x44
 9371 0611 9F       		.byte	0x9f
 9372 0612 00000000 		.4byte	0
 9373 0616 00000000 		.4byte	0
 9374              	.LLST43:
 9375 061a 4E010000 		.4byte	.LVL57
 9376 061e 60010000 		.4byte	.LVL62
 9377 0622 0300     		.2byte	0x3
 9378 0624 08       		.byte	0x8
 9379 0625 45       		.byte	0x45
 9380 0626 9F       		.byte	0x9f
 9381 0627 00000000 		.4byte	0
 9382 062b 00000000 		.4byte	0
 9383              	.LLST44:
 9384 062f 5C010000 		.4byte	.LVL60
 9385 0633 60010000 		.4byte	.LVL62
 9386 0637 0300     		.2byte	0x3
 9387 0639 08       		.byte	0x8
 9388 063a 46       		.byte	0x46
 9389 063b 9F       		.byte	0x9f
 9390 063c 00000000 		.4byte	0
 9391 0640 00000000 		.4byte	0
 9392              	.LLST45:
 9393 0644 56010000 		.4byte	.LVL59
 9394 0648 60010000 		.4byte	.LVL62
ARM GAS  /tmp/ccZUWmXH.s 			page 166


 9395 064c 0100     		.2byte	0x1
 9396 064e 51       		.byte	0x51
 9397 064f 00000000 		.4byte	0
 9398 0653 00000000 		.4byte	0
 9399              	.LLST46:
 9400 0657 5E010000 		.4byte	.LVL61
 9401 065b 60010000 		.4byte	.LVL62
 9402 065f 0100     		.2byte	0x1
 9403 0661 53       		.byte	0x53
 9404 0662 00000000 		.4byte	0
 9405 0666 00000000 		.4byte	0
 9406              	.LLST47:
 9407 066a 00000000 		.4byte	.LFB132
 9408 066e 04000000 		.4byte	.LCFI1
 9409 0672 0200     		.2byte	0x2
 9410 0674 7D       		.byte	0x7d
 9411 0675 00       		.sleb128 0
 9412 0676 04000000 		.4byte	.LCFI1
 9413 067a 1C000000 		.4byte	.LCFI2
 9414 067e 0200     		.2byte	0x2
 9415 0680 7D       		.byte	0x7d
 9416 0681 24       		.sleb128 36
 9417 0682 1C000000 		.4byte	.LCFI2
 9418 0686 08030000 		.4byte	.LFE132
 9419 068a 0300     		.2byte	0x3
 9420 068c 7D       		.byte	0x7d
 9421 068d C800     		.sleb128 72
 9422 068f 00000000 		.4byte	0
 9423 0693 00000000 		.4byte	0
 9424              	.LLST48:
 9425 0697 00000000 		.4byte	.LFB133
 9426 069b 06000000 		.4byte	.LCFI3
 9427 069f 0200     		.2byte	0x2
 9428 06a1 7D       		.byte	0x7d
 9429 06a2 00       		.sleb128 0
 9430 06a3 06000000 		.4byte	.LCFI3
 9431 06a7 90000000 		.4byte	.LFE133
 9432 06ab 0200     		.2byte	0x2
 9433 06ad 7D       		.byte	0x7d
 9434 06ae 08       		.sleb128 8
 9435 06af 00000000 		.4byte	0
 9436 06b3 00000000 		.4byte	0
 9437              	.LLST49:
 9438 06b7 00000000 		.4byte	.LVL167
 9439 06bb 26000000 		.4byte	.LVL171
 9440 06bf 0100     		.2byte	0x1
 9441 06c1 50       		.byte	0x50
 9442 06c2 26000000 		.4byte	.LVL171
 9443 06c6 4C000000 		.4byte	.LVL177
 9444 06ca 0400     		.2byte	0x4
 9445 06cc F3       		.byte	0xf3
 9446 06cd 01       		.uleb128 0x1
 9447 06ce 50       		.byte	0x50
 9448 06cf 9F       		.byte	0x9f
 9449 06d0 4C000000 		.4byte	.LVL177
 9450 06d4 56000000 		.4byte	.LVL178
 9451 06d8 0100     		.2byte	0x1
ARM GAS  /tmp/ccZUWmXH.s 			page 167


 9452 06da 50       		.byte	0x50
 9453 06db 56000000 		.4byte	.LVL178
 9454 06df 6A000000 		.4byte	.LVL182
 9455 06e3 0400     		.2byte	0x4
 9456 06e5 F3       		.byte	0xf3
 9457 06e6 01       		.uleb128 0x1
 9458 06e7 50       		.byte	0x50
 9459 06e8 9F       		.byte	0x9f
 9460 06e9 6A000000 		.4byte	.LVL182
 9461 06ed 6E000000 		.4byte	.LVL183
 9462 06f1 0100     		.2byte	0x1
 9463 06f3 50       		.byte	0x50
 9464 06f4 6E000000 		.4byte	.LVL183
 9465 06f8 80000000 		.4byte	.LVL185
 9466 06fc 0400     		.2byte	0x4
 9467 06fe F3       		.byte	0xf3
 9468 06ff 01       		.uleb128 0x1
 9469 0700 50       		.byte	0x50
 9470 0701 9F       		.byte	0x9f
 9471 0702 80000000 		.4byte	.LVL185
 9472 0706 90000000 		.4byte	.LFE133
 9473 070a 0100     		.2byte	0x1
 9474 070c 50       		.byte	0x50
 9475 070d 00000000 		.4byte	0
 9476 0711 00000000 		.4byte	0
 9477              	.LLST50:
 9478 0715 00000000 		.4byte	.LVL167
 9479 0719 16000000 		.4byte	.LVL170
 9480 071d 0100     		.2byte	0x1
 9481 071f 51       		.byte	0x51
 9482 0720 16000000 		.4byte	.LVL170
 9483 0724 4C000000 		.4byte	.LVL177
 9484 0728 0400     		.2byte	0x4
 9485 072a F3       		.byte	0xf3
 9486 072b 01       		.uleb128 0x1
 9487 072c 51       		.byte	0x51
 9488 072d 9F       		.byte	0x9f
 9489 072e 4C000000 		.4byte	.LVL177
 9490 0732 56000000 		.4byte	.LVL178
 9491 0736 0100     		.2byte	0x1
 9492 0738 51       		.byte	0x51
 9493 0739 56000000 		.4byte	.LVL178
 9494 073d 6A000000 		.4byte	.LVL182
 9495 0741 0400     		.2byte	0x4
 9496 0743 F3       		.byte	0xf3
 9497 0744 01       		.uleb128 0x1
 9498 0745 51       		.byte	0x51
 9499 0746 9F       		.byte	0x9f
 9500 0747 6A000000 		.4byte	.LVL182
 9501 074b 7E000000 		.4byte	.LVL184
 9502 074f 0100     		.2byte	0x1
 9503 0751 51       		.byte	0x51
 9504 0752 7E000000 		.4byte	.LVL184
 9505 0756 80000000 		.4byte	.LVL185
 9506 075a 0400     		.2byte	0x4
 9507 075c F3       		.byte	0xf3
 9508 075d 01       		.uleb128 0x1
ARM GAS  /tmp/ccZUWmXH.s 			page 168


 9509 075e 51       		.byte	0x51
 9510 075f 9F       		.byte	0x9f
 9511 0760 80000000 		.4byte	.LVL185
 9512 0764 90000000 		.4byte	.LFE133
 9513 0768 0100     		.2byte	0x1
 9514 076a 51       		.byte	0x51
 9515 076b 00000000 		.4byte	0
 9516 076f 00000000 		.4byte	0
 9517              	.LLST51:
 9518 0773 04000000 		.4byte	.LVL168
 9519 0777 16000000 		.4byte	.LVL170
 9520 077b 0100     		.2byte	0x1
 9521 077d 51       		.byte	0x51
 9522 077e 4C000000 		.4byte	.LVL177
 9523 0782 56000000 		.4byte	.LVL178
 9524 0786 0100     		.2byte	0x1
 9525 0788 51       		.byte	0x51
 9526 0789 6A000000 		.4byte	.LVL182
 9527 078d 7E000000 		.4byte	.LVL184
 9528 0791 0100     		.2byte	0x1
 9529 0793 51       		.byte	0x51
 9530 0794 80000000 		.4byte	.LVL185
 9531 0798 90000000 		.4byte	.LFE133
 9532 079c 0100     		.2byte	0x1
 9533 079e 51       		.byte	0x51
 9534 079f 00000000 		.4byte	0
 9535 07a3 00000000 		.4byte	0
 9536              	.LLST52:
 9537 07a7 04000000 		.4byte	.LVL168
 9538 07ab 26000000 		.4byte	.LVL171
 9539 07af 0100     		.2byte	0x1
 9540 07b1 50       		.byte	0x50
 9541 07b2 4C000000 		.4byte	.LVL177
 9542 07b6 56000000 		.4byte	.LVL178
 9543 07ba 0100     		.2byte	0x1
 9544 07bc 50       		.byte	0x50
 9545 07bd 6A000000 		.4byte	.LVL182
 9546 07c1 6E000000 		.4byte	.LVL183
 9547 07c5 0100     		.2byte	0x1
 9548 07c7 50       		.byte	0x50
 9549 07c8 80000000 		.4byte	.LVL185
 9550 07cc 90000000 		.4byte	.LFE133
 9551 07d0 0100     		.2byte	0x1
 9552 07d2 50       		.byte	0x50
 9553 07d3 00000000 		.4byte	0
 9554 07d7 00000000 		.4byte	0
 9555              	.LLST53:
 9556 07db 12000000 		.4byte	.LVL169
 9557 07df 26000000 		.4byte	.LVL171
 9558 07e3 0300     		.2byte	0x3
 9559 07e5 08       		.byte	0x8
 9560 07e6 4E       		.byte	0x4e
 9561 07e7 9F       		.byte	0x9f
 9562 07e8 00000000 		.4byte	0
 9563 07ec 00000000 		.4byte	0
 9564              	.LLST54:
 9565 07f0 2A000000 		.4byte	.LVL172
ARM GAS  /tmp/ccZUWmXH.s 			page 169


 9566 07f4 34000000 		.4byte	.LVL174
 9567 07f8 0100     		.2byte	0x1
 9568 07fa 50       		.byte	0x50
 9569 07fb 00000000 		.4byte	0
 9570 07ff 00000000 		.4byte	0
 9571              	.LLST55:
 9572 0803 32000000 		.4byte	.LVL173
 9573 0807 38000000 		.4byte	.LVL175
 9574 080b 0300     		.2byte	0x3
 9575 080d 08       		.byte	0x8
 9576 080e 4F       		.byte	0x4f
 9577 080f 9F       		.byte	0x9f
 9578 0810 00000000 		.4byte	0
 9579 0814 00000000 		.4byte	0
 9580              	.LLST56:
 9581 0818 32000000 		.4byte	.LVL173
 9582 081c 38000000 		.4byte	.LVL175
 9583 0820 0100     		.2byte	0x1
 9584 0822 51       		.byte	0x51
 9585 0823 00000000 		.4byte	0
 9586 0827 00000000 		.4byte	0
 9587              	.LLST57:
 9588 082b 4C000000 		.4byte	.LVL177
 9589 082f 56000000 		.4byte	.LVL178
 9590 0833 0300     		.2byte	0x3
 9591 0835 08       		.byte	0x8
 9592 0836 4E       		.byte	0x4e
 9593 0837 9F       		.byte	0x9f
 9594 0838 00000000 		.4byte	0
 9595 083c 00000000 		.4byte	0
 9596              	.LLST58:
 9597 0840 6A000000 		.4byte	.LVL182
 9598 0844 7E000000 		.4byte	.LVL184
 9599 0848 0100     		.2byte	0x1
 9600 084a 51       		.byte	0x51
 9601 084b 00000000 		.4byte	0
 9602 084f 00000000 		.4byte	0
 9603              	.LLST59:
 9604 0853 6A000000 		.4byte	.LVL182
 9605 0857 6E000000 		.4byte	.LVL183
 9606 085b 0100     		.2byte	0x1
 9607 085d 50       		.byte	0x50
 9608 085e 00000000 		.4byte	0
 9609 0862 00000000 		.4byte	0
 9610              	.LLST60:
 9611 0866 6A000000 		.4byte	.LVL182
 9612 086a 80000000 		.4byte	.LVL185
 9613 086e 0300     		.2byte	0x3
 9614 0870 08       		.byte	0x8
 9615 0871 4E       		.byte	0x4e
 9616 0872 9F       		.byte	0x9f
 9617 0873 00000000 		.4byte	0
 9618 0877 00000000 		.4byte	0
 9619              	.LLST61:
 9620 087b 5A000000 		.4byte	.LVL179
 9621 087f 64000000 		.4byte	.LVL181
 9622 0883 0100     		.2byte	0x1
ARM GAS  /tmp/ccZUWmXH.s 			page 170


 9623 0885 51       		.byte	0x51
 9624 0886 00000000 		.4byte	0
 9625 088a 00000000 		.4byte	0
 9626              	.LLST62:
 9627 088e 62000000 		.4byte	.LVL180
 9628 0892 6A000000 		.4byte	.LVL182
 9629 0896 0300     		.2byte	0x3
 9630 0898 08       		.byte	0x8
 9631 0899 4F       		.byte	0x4f
 9632 089a 9F       		.byte	0x9f
 9633 089b 00000000 		.4byte	0
 9634 089f 00000000 		.4byte	0
 9635              	.LLST63:
 9636 08a3 62000000 		.4byte	.LVL180
 9637 08a7 6A000000 		.4byte	.LVL182
 9638 08ab 0100     		.2byte	0x1
 9639 08ad 50       		.byte	0x50
 9640 08ae 00000000 		.4byte	0
 9641 08b2 00000000 		.4byte	0
 9642              	.LLST64:
 9643 08b6 46000000 		.4byte	.LVL176
 9644 08ba 4C000000 		.4byte	.LVL177
 9645 08be 0100     		.2byte	0x1
 9646 08c0 52       		.byte	0x52
 9647 08c1 00000000 		.4byte	0
 9648 08c5 00000000 		.4byte	0
 9649              	.LLST65:
 9650 08c9 38000000 		.4byte	.LVL175
 9651 08cd 4C000000 		.4byte	.LVL177
 9652 08d1 0300     		.2byte	0x3
 9653 08d3 08       		.byte	0x8
 9654 08d4 22       		.byte	0x22
 9655 08d5 9F       		.byte	0x9f
 9656 08d6 00000000 		.4byte	0
 9657 08da 00000000 		.4byte	0
 9658              	.LLST66:
 9659 08de 00000000 		.4byte	.LFB119
 9660 08e2 04000000 		.4byte	.LCFI4
 9661 08e6 0200     		.2byte	0x2
 9662 08e8 7D       		.byte	0x7d
 9663 08e9 00       		.sleb128 0
 9664 08ea 04000000 		.4byte	.LCFI4
 9665 08ee 0A000000 		.4byte	.LCFI5
 9666 08f2 0200     		.2byte	0x2
 9667 08f4 7D       		.byte	0x7d
 9668 08f5 24       		.sleb128 36
 9669 08f6 0A000000 		.4byte	.LCFI5
 9670 08fa 0A010000 		.4byte	.LFE119
 9671 08fe 0300     		.2byte	0x3
 9672 0900 7D       		.byte	0x7d
 9673 0901 C000     		.sleb128 64
 9674 0903 00000000 		.4byte	0
 9675 0907 00000000 		.4byte	0
 9676              	.LLST67:
 9677 090b 00000000 		.4byte	.LVL186
 9678 090f 16000000 		.4byte	.LVL188
 9679 0913 0100     		.2byte	0x1
ARM GAS  /tmp/ccZUWmXH.s 			page 171


 9680 0915 50       		.byte	0x50
 9681 0916 16000000 		.4byte	.LVL188
 9682 091a 0A010000 		.4byte	.LFE119
 9683 091e 0100     		.2byte	0x1
 9684 0920 58       		.byte	0x58
 9685 0921 00000000 		.4byte	0
 9686 0925 00000000 		.4byte	0
 9687              	.LLST68:
 9688 0929 00000000 		.4byte	.LVL186
 9689 092d 18000000 		.4byte	.LVL189
 9690 0931 0100     		.2byte	0x1
 9691 0933 51       		.byte	0x51
 9692 0934 18000000 		.4byte	.LVL189
 9693 0938 0A010000 		.4byte	.LFE119
 9694 093c 0100     		.2byte	0x1
 9695 093e 57       		.byte	0x57
 9696 093f 00000000 		.4byte	0
 9697 0943 00000000 		.4byte	0
 9698              	.LLST69:
 9699 0947 00000000 		.4byte	.LVL186
 9700 094b 22000000 		.4byte	.LVL191
 9701 094f 0100     		.2byte	0x1
 9702 0951 52       		.byte	0x52
 9703 0952 22000000 		.4byte	.LVL191
 9704 0956 0A010000 		.4byte	.LFE119
 9705 095a 0200     		.2byte	0x2
 9706 095c 91       		.byte	0x91
 9707 095d 54       		.sleb128 -44
 9708 095e 00000000 		.4byte	0
 9709 0962 00000000 		.4byte	0
 9710              	.LLST70:
 9711 0966 00000000 		.4byte	.LVL186
 9712 096a 12000000 		.4byte	.LVL187
 9713 096e 0100     		.2byte	0x1
 9714 0970 53       		.byte	0x53
 9715 0971 12000000 		.4byte	.LVL187
 9716 0975 0A010000 		.4byte	.LFE119
 9717 0979 0400     		.2byte	0x4
 9718 097b F3       		.byte	0xf3
 9719 097c 01       		.uleb128 0x1
 9720 097d 53       		.byte	0x53
 9721 097e 9F       		.byte	0x9f
 9722 097f 00000000 		.4byte	0
 9723 0983 00000000 		.4byte	0
 9724              	.LLST71:
 9725 0987 00000000 		.4byte	.LVL186
 9726 098b 22000000 		.4byte	.LVL191
 9727 098f 0200     		.2byte	0x2
 9728 0991 30       		.byte	0x30
 9729 0992 9F       		.byte	0x9f
 9730 0993 44000000 		.4byte	.LVL192
 9731 0997 4A000000 		.4byte	.LVL193
 9732 099b 0100     		.2byte	0x1
 9733 099d 50       		.byte	0x50
 9734 099e 02010000 		.4byte	.LVL203
 9735 09a2 04010000 		.4byte	.LVL204
 9736 09a6 0100     		.2byte	0x1
ARM GAS  /tmp/ccZUWmXH.s 			page 172


 9737 09a8 55       		.byte	0x55
 9738 09a9 00000000 		.4byte	0
 9739 09ad 00000000 		.4byte	0
 9740              	.LLST72:
 9741 09b1 00000000 		.4byte	.LVL186
 9742 09b5 22000000 		.4byte	.LVL191
 9743 09b9 0100     		.2byte	0x1
 9744 09bb 52       		.byte	0x52
 9745 09bc 22000000 		.4byte	.LVL191
 9746 09c0 0A010000 		.4byte	.LFE119
 9747 09c4 0200     		.2byte	0x2
 9748 09c6 91       		.byte	0x91
 9749 09c7 4C       		.sleb128 -52
 9750 09c8 00000000 		.4byte	0
 9751 09cc 00000000 		.4byte	0
 9752              	.LLST73:
 9753 09d0 00000000 		.4byte	.LFB134
 9754 09d4 02000000 		.4byte	.LCFI6
 9755 09d8 0200     		.2byte	0x2
 9756 09da 7D       		.byte	0x7d
 9757 09db 00       		.sleb128 0
 9758 09dc 02000000 		.4byte	.LCFI6
 9759 09e0 7C000000 		.4byte	.LFE134
 9760 09e4 0200     		.2byte	0x2
 9761 09e6 7D       		.byte	0x7d
 9762 09e7 10       		.sleb128 16
 9763 09e8 00000000 		.4byte	0
 9764 09ec 00000000 		.4byte	0
 9765              	.LLST74:
 9766 09f0 00000000 		.4byte	.LVL205
 9767 09f4 08000000 		.4byte	.LVL206
 9768 09f8 0100     		.2byte	0x1
 9769 09fa 50       		.byte	0x50
 9770 09fb 08000000 		.4byte	.LVL206
 9771 09ff 7C000000 		.4byte	.LFE134
 9772 0a03 0400     		.2byte	0x4
 9773 0a05 F3       		.byte	0xf3
 9774 0a06 01       		.uleb128 0x1
 9775 0a07 50       		.byte	0x50
 9776 0a08 9F       		.byte	0x9f
 9777 0a09 00000000 		.4byte	0
 9778 0a0d 00000000 		.4byte	0
 9779              	.LLST75:
 9780 0a11 46000000 		.4byte	.LVL213
 9781 0a15 4E000000 		.4byte	.LVL214
 9782 0a19 0200     		.2byte	0x2
 9783 0a1b 30       		.byte	0x30
 9784 0a1c 9F       		.byte	0x9f
 9785 0a1d 00000000 		.4byte	0
 9786 0a21 00000000 		.4byte	0
 9787              	.LLST76:
 9788 0a25 24000000 		.4byte	.LVL208
 9789 0a29 3C000000 		.4byte	.LVL212
 9790 0a2d 0300     		.2byte	0x3
 9791 0a2f 08       		.byte	0x8
 9792 0a30 4E       		.byte	0x4e
 9793 0a31 9F       		.byte	0x9f
ARM GAS  /tmp/ccZUWmXH.s 			page 173


 9794 0a32 00000000 		.4byte	0
 9795 0a36 00000000 		.4byte	0
 9796              	.LLST77:
 9797 0a3a 32000000 		.4byte	.LVL209
 9798 0a3e 3C000000 		.4byte	.LVL212
 9799 0a42 0200     		.2byte	0x2
 9800 0a44 30       		.byte	0x30
 9801 0a45 9F       		.byte	0x9f
 9802 0a46 00000000 		.4byte	0
 9803 0a4a 00000000 		.4byte	0
 9804              	.LLST78:
 9805 0a4e 38000000 		.4byte	.LVL210
 9806 0a52 3C000000 		.4byte	.LVL212
 9807 0a56 0300     		.2byte	0x3
 9808 0a58 08       		.byte	0x8
 9809 0a59 4F       		.byte	0x4f
 9810 0a5a 9F       		.byte	0x9f
 9811 0a5b 00000000 		.4byte	0
 9812 0a5f 00000000 		.4byte	0
 9813              	.LLST79:
 9814 0a63 3A000000 		.4byte	.LVL211
 9815 0a67 3C000000 		.4byte	.LVL212
 9816 0a6b 0200     		.2byte	0x2
 9817 0a6d 30       		.byte	0x30
 9818 0a6e 9F       		.byte	0x9f
 9819 0a6f 00000000 		.4byte	0
 9820 0a73 00000000 		.4byte	0
 9821              	.LLST80:
 9822 0a77 3C000000 		.4byte	.LVL212
 9823 0a7b 58000000 		.4byte	.LVL215
 9824 0a7f 0300     		.2byte	0x3
 9825 0a81 08       		.byte	0x8
 9826 0a82 22       		.byte	0x22
 9827 0a83 9F       		.byte	0x9f
 9828 0a84 00000000 		.4byte	0
 9829 0a88 00000000 		.4byte	0
 9830              	.LLST81:
 9831 0a8c 4E000000 		.4byte	.LVL214
 9832 0a90 58000000 		.4byte	.LVL215
 9833 0a94 0100     		.2byte	0x1
 9834 0a96 54       		.byte	0x54
 9835 0a97 00000000 		.4byte	0
 9836 0a9b 00000000 		.4byte	0
 9837              	.LLST82:
 9838 0a9f 00000000 		.4byte	.LFB135
 9839 0aa3 02000000 		.4byte	.LCFI7
 9840 0aa7 0200     		.2byte	0x2
 9841 0aa9 7D       		.byte	0x7d
 9842 0aaa 00       		.sleb128 0
 9843 0aab 02000000 		.4byte	.LCFI7
 9844 0aaf 46000000 		.4byte	.LFE135
 9845 0ab3 0200     		.2byte	0x2
 9846 0ab5 7D       		.byte	0x7d
 9847 0ab6 10       		.sleb128 16
 9848 0ab7 00000000 		.4byte	0
 9849 0abb 00000000 		.4byte	0
 9850              	.LLST83:
ARM GAS  /tmp/ccZUWmXH.s 			page 174


 9851 0abf 00000000 		.4byte	.LVL219
 9852 0ac3 0D000000 		.4byte	.LVL221-1
 9853 0ac7 0100     		.2byte	0x1
 9854 0ac9 50       		.byte	0x50
 9855 0aca 0D000000 		.4byte	.LVL221-1
 9856 0ace 46000000 		.4byte	.LFE135
 9857 0ad2 0400     		.2byte	0x4
 9858 0ad4 F3       		.byte	0xf3
 9859 0ad5 01       		.uleb128 0x1
 9860 0ad6 50       		.byte	0x50
 9861 0ad7 9F       		.byte	0x9f
 9862 0ad8 00000000 		.4byte	0
 9863 0adc 00000000 		.4byte	0
 9864              	.LLST84:
 9865 0ae0 00000000 		.4byte	.LVL219
 9866 0ae4 0D000000 		.4byte	.LVL221-1
 9867 0ae8 0100     		.2byte	0x1
 9868 0aea 51       		.byte	0x51
 9869 0aeb 0D000000 		.4byte	.LVL221-1
 9870 0aef 46000000 		.4byte	.LFE135
 9871 0af3 0400     		.2byte	0x4
 9872 0af5 F3       		.byte	0xf3
 9873 0af6 01       		.uleb128 0x1
 9874 0af7 51       		.byte	0x51
 9875 0af8 9F       		.byte	0x9f
 9876 0af9 00000000 		.4byte	0
 9877 0afd 00000000 		.4byte	0
 9878              	.LLST85:
 9879 0b01 00000000 		.4byte	.LVL219
 9880 0b05 0D000000 		.4byte	.LVL221-1
 9881 0b09 0100     		.2byte	0x1
 9882 0b0b 52       		.byte	0x52
 9883 0b0c 0D000000 		.4byte	.LVL221-1
 9884 0b10 46000000 		.4byte	.LFE135
 9885 0b14 0400     		.2byte	0x4
 9886 0b16 F3       		.byte	0xf3
 9887 0b17 01       		.uleb128 0x1
 9888 0b18 52       		.byte	0x52
 9889 0b19 9F       		.byte	0x9f
 9890 0b1a 00000000 		.4byte	0
 9891 0b1e 00000000 		.4byte	0
 9892              	.LLST86:
 9893 0b22 00000000 		.4byte	.LVL219
 9894 0b26 0D000000 		.4byte	.LVL221-1
 9895 0b2a 0100     		.2byte	0x1
 9896 0b2c 53       		.byte	0x53
 9897 0b2d 0D000000 		.4byte	.LVL221-1
 9898 0b31 46000000 		.4byte	.LFE135
 9899 0b35 0400     		.2byte	0x4
 9900 0b37 F3       		.byte	0xf3
 9901 0b38 01       		.uleb128 0x1
 9902 0b39 53       		.byte	0x53
 9903 0b3a 9F       		.byte	0x9f
 9904 0b3b 00000000 		.4byte	0
 9905 0b3f 00000000 		.4byte	0
 9906              	.LLST87:
 9907 0b43 16000000 		.4byte	.LVL222
ARM GAS  /tmp/ccZUWmXH.s 			page 175


 9908 0b47 2A000000 		.4byte	.LVL223
 9909 0b4b 0200     		.2byte	0x2
 9910 0b4d 30       		.byte	0x30
 9911 0b4e 9F       		.byte	0x9f
 9912 0b4f 00000000 		.4byte	0
 9913 0b53 00000000 		.4byte	0
 9914              	.LLST88:
 9915 0b57 2A000000 		.4byte	.LVL223
 9916 0b5b 36000000 		.4byte	.LVL224
 9917 0b5f 0200     		.2byte	0x2
 9918 0b61 91       		.byte	0x91
 9919 0b62 00       		.sleb128 0
 9920 0b63 36000000 		.4byte	.LVL224
 9921 0b67 40000000 		.4byte	.LVL225
 9922 0b6b 0100     		.2byte	0x1
 9923 0b6d 54       		.byte	0x54
 9924 0b6e 42000000 		.4byte	.LVL226
 9925 0b72 46000000 		.4byte	.LFE135
 9926 0b76 0200     		.2byte	0x2
 9927 0b78 91       		.byte	0x91
 9928 0b79 00       		.sleb128 0
 9929 0b7a 00000000 		.4byte	0
 9930 0b7e 00000000 		.4byte	0
 9931              	.LLST89:
 9932 0b82 00000000 		.4byte	.LFB118
 9933 0b86 04000000 		.4byte	.LCFI8
 9934 0b8a 0200     		.2byte	0x2
 9935 0b8c 7D       		.byte	0x7d
 9936 0b8d 00       		.sleb128 0
 9937 0b8e 04000000 		.4byte	.LCFI8
 9938 0b92 06000000 		.4byte	.LCFI9
 9939 0b96 0200     		.2byte	0x2
 9940 0b98 7D       		.byte	0x7d
 9941 0b99 24       		.sleb128 36
 9942 0b9a 06000000 		.4byte	.LCFI9
 9943 0b9e D6020000 		.4byte	.LFE118
 9944 0ba2 0200     		.2byte	0x2
 9945 0ba4 7D       		.byte	0x7d
 9946 0ba5 38       		.sleb128 56
 9947 0ba6 00000000 		.4byte	0
 9948 0baa 00000000 		.4byte	0
 9949              	.LLST90:
 9950 0bae 00000000 		.4byte	.LVL227
 9951 0bb2 26000000 		.4byte	.LVL229
 9952 0bb6 0100     		.2byte	0x1
 9953 0bb8 50       		.byte	0x50
 9954 0bb9 26000000 		.4byte	.LVL229
 9955 0bbd 5C000000 		.4byte	.LVL237
 9956 0bc1 0400     		.2byte	0x4
 9957 0bc3 F3       		.byte	0xf3
 9958 0bc4 01       		.uleb128 0x1
 9959 0bc5 50       		.byte	0x50
 9960 0bc6 9F       		.byte	0x9f
 9961 0bc7 5C000000 		.4byte	.LVL237
 9962 0bcb 7C000000 		.4byte	.LVL240
 9963 0bcf 0100     		.2byte	0x1
 9964 0bd1 59       		.byte	0x59
ARM GAS  /tmp/ccZUWmXH.s 			page 176


 9965 0bd2 26010000 		.4byte	.LVL252
 9966 0bd6 2E010000 		.4byte	.LVL254
 9967 0bda 0100     		.2byte	0x1
 9968 0bdc 50       		.byte	0x50
 9969 0bdd 2E010000 		.4byte	.LVL254
 9970 0be1 62010000 		.4byte	.LVL262
 9971 0be5 0400     		.2byte	0x4
 9972 0be7 F3       		.byte	0xf3
 9973 0be8 01       		.uleb128 0x1
 9974 0be9 50       		.byte	0x50
 9975 0bea 9F       		.byte	0x9f
 9976 0beb 62010000 		.4byte	.LVL262
 9977 0bef 80010000 		.4byte	.LVL265
 9978 0bf3 0100     		.2byte	0x1
 9979 0bf5 59       		.byte	0x59
 9980 0bf6 8E010000 		.4byte	.LVL267
 9981 0bfa AE010000 		.4byte	.LVL271
 9982 0bfe 0100     		.2byte	0x1
 9983 0c00 59       		.byte	0x59
 9984 0c01 C4010000 		.4byte	.LVL272
 9985 0c05 DC010000 		.4byte	.LVL274
 9986 0c09 0100     		.2byte	0x1
 9987 0c0b 59       		.byte	0x59
 9988 0c0c F0010000 		.4byte	.LVL275
 9989 0c10 F2010000 		.4byte	.LVL276
 9990 0c14 0100     		.2byte	0x1
 9991 0c16 5E       		.byte	0x5e
 9992 0c17 F2010000 		.4byte	.LVL276
 9993 0c1b 02020000 		.4byte	.LVL277
 9994 0c1f 0100     		.2byte	0x1
 9995 0c21 59       		.byte	0x59
 9996 0c22 28020000 		.4byte	.LVL280
 9997 0c26 41020000 		.4byte	.LVL283-1
 9998 0c2a 0100     		.2byte	0x1
 9999 0c2c 50       		.byte	0x50
 10000 0c2d 41020000 		.4byte	.LVL283-1
 10001 0c31 42020000 		.4byte	.LVL283
 10002 0c35 0400     		.2byte	0x4
 10003 0c37 F3       		.byte	0xf3
 10004 0c38 01       		.uleb128 0x1
 10005 0c39 50       		.byte	0x50
 10006 0c3a 9F       		.byte	0x9f
 10007 0c3b 42020000 		.4byte	.LVL283
 10008 0c3f 5B020000 		.4byte	.LVL286-1
 10009 0c43 0100     		.2byte	0x1
 10010 0c45 50       		.byte	0x50
 10011 0c46 5B020000 		.4byte	.LVL286-1
 10012 0c4a 5C020000 		.4byte	.LVL286
 10013 0c4e 0400     		.2byte	0x4
 10014 0c50 F3       		.byte	0xf3
 10015 0c51 01       		.uleb128 0x1
 10016 0c52 50       		.byte	0x50
 10017 0c53 9F       		.byte	0x9f
 10018 0c54 80020000 		.4byte	.LVL288
 10019 0c58 95020000 		.4byte	.LVL292-1
 10020 0c5c 0100     		.2byte	0x1
 10021 0c5e 50       		.byte	0x50
ARM GAS  /tmp/ccZUWmXH.s 			page 177


 10022 0c5f 95020000 		.4byte	.LVL292-1
 10023 0c63 96020000 		.4byte	.LVL292
 10024 0c67 0400     		.2byte	0x4
 10025 0c69 F3       		.byte	0xf3
 10026 0c6a 01       		.uleb128 0x1
 10027 0c6b 50       		.byte	0x50
 10028 0c6c 9F       		.byte	0x9f
 10029 0c6d 96020000 		.4byte	.LVL292
 10030 0c71 A0020000 		.4byte	.LVL293
 10031 0c75 0100     		.2byte	0x1
 10032 0c77 50       		.byte	0x50
 10033 0c78 A0020000 		.4byte	.LVL293
 10034 0c7c B2020000 		.4byte	.LVL296
 10035 0c80 0400     		.2byte	0x4
 10036 0c82 F3       		.byte	0xf3
 10037 0c83 01       		.uleb128 0x1
 10038 0c84 50       		.byte	0x50
 10039 0c85 9F       		.byte	0x9f
 10040 0c86 B2020000 		.4byte	.LVL296
 10041 0c8a D4020000 		.4byte	.LVL299
 10042 0c8e 0100     		.2byte	0x1
 10043 0c90 59       		.byte	0x59
 10044 0c91 00000000 		.4byte	0
 10045 0c95 00000000 		.4byte	0
 10046              	.LLST91:
 10047 0c99 00000000 		.4byte	.LVL227
 10048 0c9d 2E000000 		.4byte	.LVL231
 10049 0ca1 0100     		.2byte	0x1
 10050 0ca3 51       		.byte	0x51
 10051 0ca4 2E000000 		.4byte	.LVL231
 10052 0ca8 5C000000 		.4byte	.LVL237
 10053 0cac 0400     		.2byte	0x4
 10054 0cae F3       		.byte	0xf3
 10055 0caf 01       		.uleb128 0x1
 10056 0cb0 51       		.byte	0x51
 10057 0cb1 9F       		.byte	0x9f
 10058 0cb2 5C000000 		.4byte	.LVL237
 10059 0cb6 82000000 		.4byte	.LVL241
 10060 0cba 0100     		.2byte	0x1
 10061 0cbc 54       		.byte	0x54
 10062 0cbd 8C000000 		.4byte	.LVL242
 10063 0cc1 AC000000 		.4byte	.LVL245
 10064 0cc5 0100     		.2byte	0x1
 10065 0cc7 54       		.byte	0x54
 10066 0cc8 C2000000 		.4byte	.LVL246
 10067 0ccc DC000000 		.4byte	.LVL248
 10068 0cd0 0100     		.2byte	0x1
 10069 0cd2 54       		.byte	0x54
 10070 0cd3 F2000000 		.4byte	.LVL249
 10071 0cd7 04010000 		.4byte	.LVL250
 10072 0cdb 0100     		.2byte	0x1
 10073 0cdd 54       		.byte	0x54
 10074 0cde 26010000 		.4byte	.LVL252
 10075 0ce2 28010000 		.4byte	.LVL253
 10076 0ce6 0100     		.2byte	0x1
 10077 0ce8 51       		.byte	0x51
 10078 0ce9 28010000 		.4byte	.LVL253
ARM GAS  /tmp/ccZUWmXH.s 			page 178


 10079 0ced 62010000 		.4byte	.LVL262
 10080 0cf1 0400     		.2byte	0x4
 10081 0cf3 F3       		.byte	0xf3
 10082 0cf4 01       		.uleb128 0x1
 10083 0cf5 51       		.byte	0x51
 10084 0cf6 9F       		.byte	0x9f
 10085 0cf7 62010000 		.4byte	.LVL262
 10086 0cfb 86010000 		.4byte	.LVL266
 10087 0cff 0100     		.2byte	0x1
 10088 0d01 54       		.byte	0x54
 10089 0d02 28020000 		.4byte	.LVL280
 10090 0d06 41020000 		.4byte	.LVL283-1
 10091 0d0a 0100     		.2byte	0x1
 10092 0d0c 51       		.byte	0x51
 10093 0d0d 41020000 		.4byte	.LVL283-1
 10094 0d11 42020000 		.4byte	.LVL283
 10095 0d15 0400     		.2byte	0x4
 10096 0d17 F3       		.byte	0xf3
 10097 0d18 01       		.uleb128 0x1
 10098 0d19 51       		.byte	0x51
 10099 0d1a 9F       		.byte	0x9f
 10100 0d1b 42020000 		.4byte	.LVL283
 10101 0d1f 5B020000 		.4byte	.LVL286-1
 10102 0d23 0100     		.2byte	0x1
 10103 0d25 51       		.byte	0x51
 10104 0d26 5B020000 		.4byte	.LVL286-1
 10105 0d2a 5C020000 		.4byte	.LVL286
 10106 0d2e 0400     		.2byte	0x4
 10107 0d30 F3       		.byte	0xf3
 10108 0d31 01       		.uleb128 0x1
 10109 0d32 51       		.byte	0x51
 10110 0d33 9F       		.byte	0x9f
 10111 0d34 80020000 		.4byte	.LVL288
 10112 0d38 82020000 		.4byte	.LVL289
 10113 0d3c 0100     		.2byte	0x1
 10114 0d3e 51       		.byte	0x51
 10115 0d3f 82020000 		.4byte	.LVL289
 10116 0d43 96020000 		.4byte	.LVL292
 10117 0d47 0400     		.2byte	0x4
 10118 0d49 F3       		.byte	0xf3
 10119 0d4a 01       		.uleb128 0x1
 10120 0d4b 51       		.byte	0x51
 10121 0d4c 9F       		.byte	0x9f
 10122 0d4d 96020000 		.4byte	.LVL292
 10123 0d51 B1020000 		.4byte	.LVL296-1
 10124 0d55 0100     		.2byte	0x1
 10125 0d57 51       		.byte	0x51
 10126 0d58 B1020000 		.4byte	.LVL296-1
 10127 0d5c B2020000 		.4byte	.LVL296
 10128 0d60 0400     		.2byte	0x4
 10129 0d62 F3       		.byte	0xf3
 10130 0d63 01       		.uleb128 0x1
 10131 0d64 51       		.byte	0x51
 10132 0d65 9F       		.byte	0x9f
 10133 0d66 B2020000 		.4byte	.LVL296
 10134 0d6a C0020000 		.4byte	.LVL297
 10135 0d6e 0100     		.2byte	0x1
ARM GAS  /tmp/ccZUWmXH.s 			page 179


 10136 0d70 54       		.byte	0x54
 10137 0d71 C2020000 		.4byte	.LVL298
 10138 0d75 D6020000 		.4byte	.LFE118
 10139 0d79 0100     		.2byte	0x1
 10140 0d7b 54       		.byte	0x54
 10141 0d7c 00000000 		.4byte	0
 10142 0d80 00000000 		.4byte	0
 10143              	.LLST92:
 10144 0d84 00000000 		.4byte	.LVL227
 10145 0d88 22000000 		.4byte	.LVL228
 10146 0d8c 0100     		.2byte	0x1
 10147 0d8e 52       		.byte	0x52
 10148 0d8f 22000000 		.4byte	.LVL228
 10149 0d93 26010000 		.4byte	.LVL252
 10150 0d97 0400     		.2byte	0x4
 10151 0d99 F3       		.byte	0xf3
 10152 0d9a 01       		.uleb128 0x1
 10153 0d9b 52       		.byte	0x52
 10154 0d9c 9F       		.byte	0x9f
 10155 0d9d 26010000 		.4byte	.LVL252
 10156 0da1 32010000 		.4byte	.LVL255
 10157 0da5 0100     		.2byte	0x1
 10158 0da7 52       		.byte	0x52
 10159 0da8 32010000 		.4byte	.LVL255
 10160 0dac 28020000 		.4byte	.LVL280
 10161 0db0 0400     		.2byte	0x4
 10162 0db2 F3       		.byte	0xf3
 10163 0db3 01       		.uleb128 0x1
 10164 0db4 52       		.byte	0x52
 10165 0db5 9F       		.byte	0x9f
 10166 0db6 28020000 		.4byte	.LVL280
 10167 0dba 34020000 		.4byte	.LVL282
 10168 0dbe 0100     		.2byte	0x1
 10169 0dc0 52       		.byte	0x52
 10170 0dc1 34020000 		.4byte	.LVL282
 10171 0dc5 42020000 		.4byte	.LVL283
 10172 0dc9 0400     		.2byte	0x4
 10173 0dcb F3       		.byte	0xf3
 10174 0dcc 01       		.uleb128 0x1
 10175 0dcd 52       		.byte	0x52
 10176 0dce 9F       		.byte	0x9f
 10177 0dcf 42020000 		.4byte	.LVL283
 10178 0dd3 4C020000 		.4byte	.LVL284
 10179 0dd7 0100     		.2byte	0x1
 10180 0dd9 52       		.byte	0x52
 10181 0dda 4C020000 		.4byte	.LVL284
 10182 0dde 80020000 		.4byte	.LVL288
 10183 0de2 0400     		.2byte	0x4
 10184 0de4 F3       		.byte	0xf3
 10185 0de5 01       		.uleb128 0x1
 10186 0de6 52       		.byte	0x52
 10187 0de7 9F       		.byte	0x9f
 10188 0de8 80020000 		.4byte	.LVL288
 10189 0dec 86020000 		.4byte	.LVL290
 10190 0df0 0100     		.2byte	0x1
 10191 0df2 52       		.byte	0x52
 10192 0df3 86020000 		.4byte	.LVL290
ARM GAS  /tmp/ccZUWmXH.s 			page 180


 10193 0df7 96020000 		.4byte	.LVL292
 10194 0dfb 0400     		.2byte	0x4
 10195 0dfd F3       		.byte	0xf3
 10196 0dfe 01       		.uleb128 0x1
 10197 0dff 52       		.byte	0x52
 10198 0e00 9F       		.byte	0x9f
 10199 0e01 96020000 		.4byte	.LVL292
 10200 0e05 A6020000 		.4byte	.LVL295
 10201 0e09 0100     		.2byte	0x1
 10202 0e0b 52       		.byte	0x52
 10203 0e0c A6020000 		.4byte	.LVL295
 10204 0e10 D6020000 		.4byte	.LFE118
 10205 0e14 0400     		.2byte	0x4
 10206 0e16 F3       		.byte	0xf3
 10207 0e17 01       		.uleb128 0x1
 10208 0e18 52       		.byte	0x52
 10209 0e19 9F       		.byte	0x9f
 10210 0e1a 00000000 		.4byte	0
 10211 0e1e 00000000 		.4byte	0
 10212              	.LLST93:
 10213 0e22 00000000 		.4byte	.LVL227
 10214 0e26 42000000 		.4byte	.LVL234
 10215 0e2a 0100     		.2byte	0x1
 10216 0e2c 53       		.byte	0x53
 10217 0e2d 42000000 		.4byte	.LVL234
 10218 0e31 26010000 		.4byte	.LVL252
 10219 0e35 0400     		.2byte	0x4
 10220 0e37 F3       		.byte	0xf3
 10221 0e38 01       		.uleb128 0x1
 10222 0e39 53       		.byte	0x53
 10223 0e3a 9F       		.byte	0x9f
 10224 0e3b 26010000 		.4byte	.LVL252
 10225 0e3f 34010000 		.4byte	.LVL256
 10226 0e43 0100     		.2byte	0x1
 10227 0e45 53       		.byte	0x53
 10228 0e46 34010000 		.4byte	.LVL256
 10229 0e4a 28020000 		.4byte	.LVL280
 10230 0e4e 0400     		.2byte	0x4
 10231 0e50 F3       		.byte	0xf3
 10232 0e51 01       		.uleb128 0x1
 10233 0e52 53       		.byte	0x53
 10234 0e53 9F       		.byte	0x9f
 10235 0e54 28020000 		.4byte	.LVL280
 10236 0e58 32020000 		.4byte	.LVL281
 10237 0e5c 0100     		.2byte	0x1
 10238 0e5e 53       		.byte	0x53
 10239 0e5f 32020000 		.4byte	.LVL281
 10240 0e63 42020000 		.4byte	.LVL283
 10241 0e67 0400     		.2byte	0x4
 10242 0e69 F3       		.byte	0xf3
 10243 0e6a 01       		.uleb128 0x1
 10244 0e6b 53       		.byte	0x53
 10245 0e6c 9F       		.byte	0x9f
 10246 0e6d 42020000 		.4byte	.LVL283
 10247 0e71 50020000 		.4byte	.LVL285
 10248 0e75 0100     		.2byte	0x1
 10249 0e77 53       		.byte	0x53
ARM GAS  /tmp/ccZUWmXH.s 			page 181


 10250 0e78 50020000 		.4byte	.LVL285
 10251 0e7c 80020000 		.4byte	.LVL288
 10252 0e80 0400     		.2byte	0x4
 10253 0e82 F3       		.byte	0xf3
 10254 0e83 01       		.uleb128 0x1
 10255 0e84 53       		.byte	0x53
 10256 0e85 9F       		.byte	0x9f
 10257 0e86 80020000 		.4byte	.LVL288
 10258 0e8a 8A020000 		.4byte	.LVL291
 10259 0e8e 0100     		.2byte	0x1
 10260 0e90 53       		.byte	0x53
 10261 0e91 8A020000 		.4byte	.LVL291
 10262 0e95 96020000 		.4byte	.LVL292
 10263 0e99 0400     		.2byte	0x4
 10264 0e9b F3       		.byte	0xf3
 10265 0e9c 01       		.uleb128 0x1
 10266 0e9d 53       		.byte	0x53
 10267 0e9e 9F       		.byte	0x9f
 10268 0e9f 96020000 		.4byte	.LVL292
 10269 0ea3 A2020000 		.4byte	.LVL294
 10270 0ea7 0100     		.2byte	0x1
 10271 0ea9 53       		.byte	0x53
 10272 0eaa A2020000 		.4byte	.LVL294
 10273 0eae D6020000 		.4byte	.LFE118
 10274 0eb2 0400     		.2byte	0x4
 10275 0eb4 F3       		.byte	0xf3
 10276 0eb5 01       		.uleb128 0x1
 10277 0eb6 53       		.byte	0x53
 10278 0eb7 9F       		.byte	0x9f
 10279 0eb8 00000000 		.4byte	0
 10280 0ebc 00000000 		.4byte	0
 10281              	.LLST94:
 10282 0ec0 32000000 		.4byte	.LVL232
 10283 0ec4 3C000000 		.4byte	.LVL233
 10284 0ec8 0100     		.2byte	0x1
 10285 0eca 57       		.byte	0x57
 10286 0ecb 3C000000 		.4byte	.LVL233
 10287 0ecf 42000000 		.4byte	.LVL234
 10288 0ed3 0100     		.2byte	0x1
 10289 0ed5 51       		.byte	0x51
 10290 0ed6 50000000 		.4byte	.LVL235
 10291 0eda 26010000 		.4byte	.LVL252
 10292 0ede 0200     		.2byte	0x2
 10293 0ee0 91       		.byte	0x91
 10294 0ee1 50       		.sleb128 -48
 10295 0ee2 36010000 		.4byte	.LVL257
 10296 0ee6 48010000 		.4byte	.LVL259
 10297 0eea 0100     		.2byte	0x1
 10298 0eec 53       		.byte	0x53
 10299 0eed 6C020000 		.4byte	.LVL287
 10300 0ef1 80020000 		.4byte	.LVL288
 10301 0ef5 0200     		.2byte	0x2
 10302 0ef7 91       		.byte	0x91
 10303 0ef8 50       		.sleb128 -48
 10304 0ef9 C2020000 		.4byte	.LVL298
 10305 0efd D6020000 		.4byte	.LFE118
 10306 0f01 0200     		.2byte	0x2
ARM GAS  /tmp/ccZUWmXH.s 			page 182


 10307 0f03 91       		.byte	0x91
 10308 0f04 50       		.sleb128 -48
 10309 0f05 00000000 		.4byte	0
 10310 0f09 00000000 		.4byte	0
 10311              	.LLST95:
 10312 0f0d 26000000 		.4byte	.LVL229
 10313 0f11 2E000000 		.4byte	.LVL231
 10314 0f15 0100     		.2byte	0x1
 10315 0f17 52       		.byte	0x52
 10316 0f18 2E010000 		.4byte	.LVL254
 10317 0f1c 32010000 		.4byte	.LVL255
 10318 0f20 0100     		.2byte	0x1
 10319 0f22 51       		.byte	0x51
 10320 0f23 56010000 		.4byte	.LVL260
 10321 0f27 22020000 		.4byte	.LVL279
 10322 0f2b 0200     		.2byte	0x2
 10323 0f2d 91       		.byte	0x91
 10324 0f2e 50       		.sleb128 -48
 10325 0f2f 5C020000 		.4byte	.LVL286
 10326 0f33 6C020000 		.4byte	.LVL287
 10327 0f37 0200     		.2byte	0x2
 10328 0f39 91       		.byte	0x91
 10329 0f3a 50       		.sleb128 -48
 10330 0f3b B2020000 		.4byte	.LVL296
 10331 0f3f C2020000 		.4byte	.LVL298
 10332 0f43 0200     		.2byte	0x2
 10333 0f45 91       		.byte	0x91
 10334 0f46 50       		.sleb128 -48
 10335 0f47 00000000 		.4byte	0
 10336 0f4b 00000000 		.4byte	0
 10337              	.LLST96:
 10338 0f4f 26000000 		.4byte	.LVL229
 10339 0f53 2A000000 		.4byte	.LVL230
 10340 0f57 0300     		.2byte	0x3
 10341 0f59 09       		.byte	0x9
 10342 0f5a FF       		.byte	0xff
 10343 0f5b 9F       		.byte	0x9f
 10344 0f5c 2A000000 		.4byte	.LVL230
 10345 0f60 2E000000 		.4byte	.LVL231
 10346 0f64 0100     		.2byte	0x1
 10347 0f66 56       		.byte	0x56
 10348 0f67 2E010000 		.4byte	.LVL254
 10349 0f6b 32010000 		.4byte	.LVL255
 10350 0f6f 0100     		.2byte	0x1
 10351 0f71 56       		.byte	0x56
 10352 0f72 00000000 		.4byte	0
 10353 0f76 00000000 		.4byte	0
 10354              	.LLST97:
 10355 0f7a 32000000 		.4byte	.LVL232
 10356 0f7e 3C000000 		.4byte	.LVL233
 10357 0f82 0200     		.2byte	0x2
 10358 0f84 31       		.byte	0x31
 10359 0f85 9F       		.byte	0x9f
 10360 0f86 3C000000 		.4byte	.LVL233
 10361 0f8a 42000000 		.4byte	.LVL234
 10362 0f8e 0100     		.2byte	0x1
 10363 0f90 57       		.byte	0x57
ARM GAS  /tmp/ccZUWmXH.s 			page 183


 10364 0f91 36010000 		.4byte	.LVL257
 10365 0f95 44010000 		.4byte	.LVL258
 10366 0f99 0300     		.2byte	0x3
 10367 0f9b 09       		.byte	0x9
 10368 0f9c FF       		.byte	0xff
 10369 0f9d 9F       		.byte	0x9f
 10370 0f9e 44010000 		.4byte	.LVL258
 10371 0fa2 48010000 		.4byte	.LVL259
 10372 0fa6 0100     		.2byte	0x1
 10373 0fa8 57       		.byte	0x57
 10374 0fa9 00000000 		.4byte	0
 10375 0fad 00000000 		.4byte	0
 10376              	.LLST98:
 10377 0fb1 5A000000 		.4byte	.LVL236
 10378 0fb5 64000000 		.4byte	.LVL238
 10379 0fb9 0100     		.2byte	0x1
 10380 0fbb 53       		.byte	0x53
 10381 0fbc 64000000 		.4byte	.LVL238
 10382 0fc0 8C000000 		.4byte	.LVL242
 10383 0fc4 0100     		.2byte	0x1
 10384 0fc6 58       		.byte	0x58
 10385 0fc7 60010000 		.4byte	.LVL261
 10386 0fcb 6E010000 		.4byte	.LVL263
 10387 0fcf 0100     		.2byte	0x1
 10388 0fd1 52       		.byte	0x52
 10389 0fd2 6E010000 		.4byte	.LVL263
 10390 0fd6 90010000 		.4byte	.LVL268
 10391 0fda 0100     		.2byte	0x1
 10392 0fdc 58       		.byte	0x58
 10393 0fdd B2020000 		.4byte	.LVL296
 10394 0fe1 D6020000 		.4byte	.LFE118
 10395 0fe5 0100     		.2byte	0x1
 10396 0fe7 58       		.byte	0x58
 10397 0fe8 00000000 		.4byte	0
 10398 0fec 00000000 		.4byte	0
 10399              	.LLST99:
 10400 0ff0 5C000000 		.4byte	.LVL237
 10401 0ff4 26010000 		.4byte	.LVL252
 10402 0ff8 0200     		.2byte	0x2
 10403 0ffa 91       		.byte	0x91
 10404 0ffb 4C       		.sleb128 -52
 10405 0ffc 62010000 		.4byte	.LVL262
 10406 1000 28020000 		.4byte	.LVL280
 10407 1004 0200     		.2byte	0x2
 10408 1006 91       		.byte	0x91
 10409 1007 4C       		.sleb128 -52
 10410 1008 5C020000 		.4byte	.LVL286
 10411 100c 80020000 		.4byte	.LVL288
 10412 1010 0200     		.2byte	0x2
 10413 1012 91       		.byte	0x91
 10414 1013 4C       		.sleb128 -52
 10415 1014 B2020000 		.4byte	.LVL296
 10416 1018 D6020000 		.4byte	.LFE118
 10417 101c 0200     		.2byte	0x2
 10418 101e 91       		.byte	0x91
 10419 101f 4C       		.sleb128 -52
 10420 1020 00000000 		.4byte	0
ARM GAS  /tmp/ccZUWmXH.s 			page 184


 10421 1024 00000000 		.4byte	0
 10422              	.LLST100:
 10423 1028 5C000000 		.4byte	.LVL237
 10424 102c 90000000 		.4byte	.LVL243
 10425 1030 0200     		.2byte	0x2
 10426 1032 30       		.byte	0x30
 10427 1033 9F       		.byte	0x9f
 10428 1034 62010000 		.4byte	.LVL262
 10429 1038 94010000 		.4byte	.LVL269
 10430 103c 0200     		.2byte	0x2
 10431 103e 30       		.byte	0x30
 10432 103f 9F       		.byte	0x9f
 10433 1040 B2020000 		.4byte	.LVL296
 10434 1044 D6020000 		.4byte	.LFE118
 10435 1048 0200     		.2byte	0x2
 10436 104a 30       		.byte	0x30
 10437 104b 9F       		.byte	0x9f
 10438 104c 00000000 		.4byte	0
 10439 1050 00000000 		.4byte	0
 10440              	.LLST101:
 10441 1054 00000000 		.4byte	.LFB120
 10442 1058 04000000 		.4byte	.LCFI10
 10443 105c 0200     		.2byte	0x2
 10444 105e 7D       		.byte	0x7d
 10445 105f 00       		.sleb128 0
 10446 1060 04000000 		.4byte	.LCFI10
 10447 1064 08000000 		.4byte	.LCFI11
 10448 1068 0200     		.2byte	0x2
 10449 106a 7D       		.byte	0x7d
 10450 106b 24       		.sleb128 36
 10451 106c 08000000 		.4byte	.LCFI11
 10452 1070 E6000000 		.4byte	.LFE120
 10453 1074 0300     		.2byte	0x3
 10454 1076 7D       		.byte	0x7d
 10455 1077 C000     		.sleb128 64
 10456 1079 00000000 		.4byte	0
 10457 107d 00000000 		.4byte	0
 10458              	.LLST102:
 10459 1081 00000000 		.4byte	.LVL300
 10460 1085 16000000 		.4byte	.LVL302
 10461 1089 0100     		.2byte	0x1
 10462 108b 50       		.byte	0x50
 10463 108c 16000000 		.4byte	.LVL302
 10464 1090 E6000000 		.4byte	.LFE120
 10465 1094 0100     		.2byte	0x1
 10466 1096 58       		.byte	0x58
 10467 1097 00000000 		.4byte	0
 10468 109b 00000000 		.4byte	0
 10469              	.LLST103:
 10470 109f 00000000 		.4byte	.LVL300
 10471 10a3 24000000 		.4byte	.LVL304
 10472 10a7 0100     		.2byte	0x1
 10473 10a9 51       		.byte	0x51
 10474 10aa 24000000 		.4byte	.LVL304
 10475 10ae E6000000 		.4byte	.LFE120
 10476 10b2 0100     		.2byte	0x1
 10477 10b4 56       		.byte	0x56
ARM GAS  /tmp/ccZUWmXH.s 			page 185


 10478 10b5 00000000 		.4byte	0
 10479 10b9 00000000 		.4byte	0
 10480              	.LLST104:
 10481 10bd 00000000 		.4byte	.LVL300
 10482 10c1 0E000000 		.4byte	.LVL301
 10483 10c5 0100     		.2byte	0x1
 10484 10c7 52       		.byte	0x52
 10485 10c8 0E000000 		.4byte	.LVL301
 10486 10cc E6000000 		.4byte	.LFE120
 10487 10d0 0400     		.2byte	0x4
 10488 10d2 F3       		.byte	0xf3
 10489 10d3 01       		.uleb128 0x1
 10490 10d4 52       		.byte	0x52
 10491 10d5 9F       		.byte	0x9f
 10492 10d6 00000000 		.4byte	0
 10493 10da 00000000 		.4byte	0
 10494              	.LLST105:
 10495 10de 00000000 		.4byte	.LVL300
 10496 10e2 24000000 		.4byte	.LVL304
 10497 10e6 0100     		.2byte	0x1
 10498 10e8 53       		.byte	0x53
 10499 10e9 24000000 		.4byte	.LVL304
 10500 10ed E6000000 		.4byte	.LFE120
 10501 10f1 0400     		.2byte	0x4
 10502 10f3 F3       		.byte	0xf3
 10503 10f4 01       		.uleb128 0x1
 10504 10f5 53       		.byte	0x53
 10505 10f6 9F       		.byte	0x9f
 10506 10f7 00000000 		.4byte	0
 10507 10fb 00000000 		.4byte	0
 10508              	.LLST106:
 10509 10ff 00000000 		.4byte	.LVL300
 10510 1103 24000000 		.4byte	.LVL304
 10511 1107 0200     		.2byte	0x2
 10512 1109 30       		.byte	0x30
 10513 110a 9F       		.byte	0x9f
 10514 110b 48000000 		.4byte	.LVL307
 10515 110f 4C000000 		.4byte	.LVL308
 10516 1113 0100     		.2byte	0x1
 10517 1115 54       		.byte	0x54
 10518 1116 4C000000 		.4byte	.LVL308
 10519 111a 54000000 		.4byte	.LVL309
 10520 111e 0100     		.2byte	0x1
 10521 1120 51       		.byte	0x51
 10522 1121 D6000000 		.4byte	.LVL314
 10523 1125 D8000000 		.4byte	.LVL315
 10524 1129 0100     		.2byte	0x1
 10525 112b 54       		.byte	0x54
 10526 112c D8000000 		.4byte	.LVL315
 10527 1130 E0000000 		.4byte	.LVL316
 10528 1134 0100     		.2byte	0x1
 10529 1136 51       		.byte	0x51
 10530 1137 00000000 		.4byte	0
 10531 113b 00000000 		.4byte	0
 10532              	.LLST107:
 10533 113f 00000000 		.4byte	.LVL300
 10534 1143 0E000000 		.4byte	.LVL301
ARM GAS  /tmp/ccZUWmXH.s 			page 186


 10535 1147 0100     		.2byte	0x1
 10536 1149 52       		.byte	0x52
 10537 114a 0E000000 		.4byte	.LVL301
 10538 114e 2C000000 		.4byte	.LVL305
 10539 1152 0100     		.2byte	0x1
 10540 1154 5A       		.byte	0x5a
 10541 1155 2C000000 		.4byte	.LVL305
 10542 1159 36000000 		.4byte	.LVL306
 10543 115d 0300     		.2byte	0x3
 10544 115f 7A       		.byte	0x7a
 10545 1160 01       		.sleb128 1
 10546 1161 9F       		.byte	0x9f
 10547 1162 48000000 		.4byte	.LVL307
 10548 1166 E0000000 		.4byte	.LVL316
 10549 116a 0100     		.2byte	0x1
 10550 116c 5A       		.byte	0x5a
 10551 116d 00000000 		.4byte	0
 10552 1171 00000000 		.4byte	0
 10553              	.LLST108:
 10554 1175 00000000 		.4byte	.LFB136
 10555 1179 04000000 		.4byte	.LCFI12
 10556 117d 0200     		.2byte	0x2
 10557 117f 7D       		.byte	0x7d
 10558 1180 00       		.sleb128 0
 10559 1181 04000000 		.4byte	.LCFI12
 10560 1185 B4000000 		.4byte	.LFE136
 10561 1189 0200     		.2byte	0x2
 10562 118b 7D       		.byte	0x7d
 10563 118c 20       		.sleb128 32
 10564 118d 00000000 		.4byte	0
 10565 1191 00000000 		.4byte	0
 10566              	.LLST109:
 10567 1195 00000000 		.4byte	.LVL317
 10568 1199 23000000 		.4byte	.LVL319-1
 10569 119d 0100     		.2byte	0x1
 10570 119f 50       		.byte	0x50
 10571 11a0 23000000 		.4byte	.LVL319-1
 10572 11a4 5E000000 		.4byte	.LVL325
 10573 11a8 0400     		.2byte	0x4
 10574 11aa F3       		.byte	0xf3
 10575 11ab 01       		.uleb128 0x1
 10576 11ac 50       		.byte	0x50
 10577 11ad 9F       		.byte	0x9f
 10578 11ae 5E000000 		.4byte	.LVL325
 10579 11b2 86000000 		.4byte	.LVL328
 10580 11b6 0100     		.2byte	0x1
 10581 11b8 57       		.byte	0x57
 10582 11b9 00000000 		.4byte	0
 10583 11bd 00000000 		.4byte	0
 10584              	.LLST110:
 10585 11c1 00000000 		.4byte	.LVL317
 10586 11c5 23000000 		.4byte	.LVL319-1
 10587 11c9 0100     		.2byte	0x1
 10588 11cb 51       		.byte	0x51
 10589 11cc 23000000 		.4byte	.LVL319-1
 10590 11d0 40000000 		.4byte	.LVL321
 10591 11d4 0400     		.2byte	0x4
ARM GAS  /tmp/ccZUWmXH.s 			page 187


 10592 11d6 F3       		.byte	0xf3
 10593 11d7 01       		.uleb128 0x1
 10594 11d8 51       		.byte	0x51
 10595 11d9 9F       		.byte	0x9f
 10596 11da 40000000 		.4byte	.LVL321
 10597 11de 5E000000 		.4byte	.LVL325
 10598 11e2 0100     		.2byte	0x1
 10599 11e4 56       		.byte	0x56
 10600 11e5 AA000000 		.4byte	.LVL329
 10601 11e9 B0000000 		.4byte	.LVL331
 10602 11ed 0100     		.2byte	0x1
 10603 11ef 56       		.byte	0x56
 10604 11f0 00000000 		.4byte	0
 10605 11f4 00000000 		.4byte	0
 10606              	.LLST111:
 10607 11f8 00000000 		.4byte	.LVL317
 10608 11fc 23000000 		.4byte	.LVL319-1
 10609 1200 0100     		.2byte	0x1
 10610 1202 52       		.byte	0x52
 10611 1203 23000000 		.4byte	.LVL319-1
 10612 1207 B4000000 		.4byte	.LFE136
 10613 120b 0400     		.2byte	0x4
 10614 120d F3       		.byte	0xf3
 10615 120e 01       		.uleb128 0x1
 10616 120f 52       		.byte	0x52
 10617 1210 9F       		.byte	0x9f
 10618 1211 00000000 		.4byte	0
 10619 1215 00000000 		.4byte	0
 10620              	.LLST112:
 10621 1219 00000000 		.4byte	.LVL317
 10622 121d 23000000 		.4byte	.LVL319-1
 10623 1221 0100     		.2byte	0x1
 10624 1223 53       		.byte	0x53
 10625 1224 23000000 		.4byte	.LVL319-1
 10626 1228 B4000000 		.4byte	.LFE136
 10627 122c 0400     		.2byte	0x4
 10628 122e F3       		.byte	0xf3
 10629 122f 01       		.uleb128 0x1
 10630 1230 53       		.byte	0x53
 10631 1231 9F       		.byte	0x9f
 10632 1232 00000000 		.4byte	0
 10633 1236 00000000 		.4byte	0
 10634              	.LLST113:
 10635 123a 00000000 		.4byte	.LVL317
 10636 123e 20000000 		.4byte	.LVL318
 10637 1242 0200     		.2byte	0x2
 10638 1244 91       		.byte	0x91
 10639 1245 0C       		.sleb128 12
 10640 1246 20000000 		.4byte	.LVL318
 10641 124a 84000000 		.4byte	.LVL327
 10642 124e 0100     		.2byte	0x1
 10643 1250 55       		.byte	0x55
 10644 1251 AE000000 		.4byte	.LVL330
 10645 1255 B4000000 		.4byte	.LFE136
 10646 1259 0100     		.2byte	0x1
 10647 125b 55       		.byte	0x55
 10648 125c 00000000 		.4byte	0
ARM GAS  /tmp/ccZUWmXH.s 			page 188


 10649 1260 00000000 		.4byte	0
 10650              	.LLST114:
 10651 1264 3C000000 		.4byte	.LVL320
 10652 1268 46000000 		.4byte	.LVL322
 10653 126c 0100     		.2byte	0x1
 10654 126e 53       		.byte	0x53
 10655 126f 46000000 		.4byte	.LVL322
 10656 1273 5E000000 		.4byte	.LVL325
 10657 1277 0100     		.2byte	0x1
 10658 1279 50       		.byte	0x50
 10659 127a 00000000 		.4byte	0
 10660 127e 00000000 		.4byte	0
 10661              	.LLST115:
 10662 1282 3C000000 		.4byte	.LVL320
 10663 1286 4A000000 		.4byte	.LVL323
 10664 128a 0600     		.2byte	0x6
 10665 128c 79       		.byte	0x79
 10666 128d 00       		.sleb128 0
 10667 128e 76       		.byte	0x76
 10668 128f 00       		.sleb128 0
 10669 1290 22       		.byte	0x22
 10670 1291 9F       		.byte	0x9f
 10671 1292 00000000 		.4byte	0
 10672 1296 00000000 		.4byte	0
 10673              	.LLST116:
 10674 129a 40000000 		.4byte	.LVL321
 10675 129e 58000000 		.4byte	.LVL324
 10676 12a2 0100     		.2byte	0x1
 10677 12a4 58       		.byte	0x58
 10678 12a5 00000000 		.4byte	0
 10679 12a9 00000000 		.4byte	0
 10680              	.LLST117:
 10681 12ad 6C000000 		.4byte	.LVL326
 10682 12b1 84000000 		.4byte	.LVL327
 10683 12b5 0200     		.2byte	0x2
 10684 12b7 75       		.byte	0x75
 10685 12b8 00       		.sleb128 0
 10686 12b9 00000000 		.4byte	0
 10687 12bd 00000000 		.4byte	0
 10688              		.section	.debug_aranges,"",%progbits
 10689 0000 5C000000 		.4byte	0x5c
 10690 0004 0200     		.2byte	0x2
 10691 0006 00000000 		.4byte	.Ldebug_info0
 10692 000a 04       		.byte	0x4
 10693 000b 00       		.byte	0
 10694 000c 0000     		.2byte	0
 10695 000e 0000     		.2byte	0
 10696 0010 00000000 		.4byte	.LFB130
 10697 0014 BC010000 		.4byte	.LFE130-.LFB130
 10698 0018 00000000 		.4byte	.LFB132
 10699 001c 08030000 		.4byte	.LFE132-.LFB132
 10700 0020 00000000 		.4byte	.LFB133
 10701 0024 90000000 		.4byte	.LFE133-.LFB133
 10702 0028 00000000 		.4byte	.LFB119
 10703 002c 0A010000 		.4byte	.LFE119-.LFB119
 10704 0030 00000000 		.4byte	.LFB134
 10705 0034 7C000000 		.4byte	.LFE134-.LFB134
ARM GAS  /tmp/ccZUWmXH.s 			page 189


 10706 0038 00000000 		.4byte	.LFB135
 10707 003c 46000000 		.4byte	.LFE135-.LFB135
 10708 0040 00000000 		.4byte	.LFB118
 10709 0044 D6020000 		.4byte	.LFE118-.LFB118
 10710 0048 00000000 		.4byte	.LFB120
 10711 004c E6000000 		.4byte	.LFE120-.LFB120
 10712 0050 00000000 		.4byte	.LFB136
 10713 0054 B4000000 		.4byte	.LFE136-.LFB136
 10714 0058 00000000 		.4byte	0
 10715 005c 00000000 		.4byte	0
 10716              		.section	.debug_ranges,"",%progbits
 10717              	.Ldebug_ranges0:
 10718 0000 1C000000 		.4byte	.LBB428
 10719 0004 1E000000 		.4byte	.LBE428
 10720 0008 22000000 		.4byte	.LBB435
 10721 000c 26000000 		.4byte	.LBE435
 10722 0010 34000000 		.4byte	.LBB437
 10723 0014 36000000 		.4byte	.LBE437
 10724 0018 00000000 		.4byte	0
 10725 001c 00000000 		.4byte	0
 10726 0020 1E000000 		.4byte	.LBB432
 10727 0024 22000000 		.4byte	.LBE432
 10728 0028 2E000000 		.4byte	.LBB436
 10729 002c 32000000 		.4byte	.LBE436
 10730 0030 00000000 		.4byte	0
 10731 0034 00000000 		.4byte	0
 10732 0038 40000000 		.4byte	.LBB440
 10733 003c 42000000 		.4byte	.LBE440
 10734 0040 44000000 		.4byte	.LBB445
 10735 0044 46000000 		.4byte	.LBE445
 10736 0048 00000000 		.4byte	0
 10737 004c 00000000 		.4byte	0
 10738 0050 48000000 		.4byte	.LBB448
 10739 0054 60000000 		.4byte	.LBE448
 10740 0058 AA000000 		.4byte	.LBB527
 10741 005c C8000000 		.4byte	.LBE527
 10742 0060 0E010000 		.4byte	.LBB544
 10743 0064 2C010000 		.4byte	.LBE544
 10744 0068 60010000 		.4byte	.LBB563
 10745 006c BC010000 		.4byte	.LBE563
 10746 0070 00000000 		.4byte	0
 10747 0074 00000000 		.4byte	0
 10748 0078 48000000 		.4byte	.LBB450
 10749 007c 4A000000 		.4byte	.LBE450
 10750 0080 4E000000 		.4byte	.LBB457
 10751 0084 52000000 		.4byte	.LBE457
 10752 0088 58000000 		.4byte	.LBB459
 10753 008c 5A000000 		.4byte	.LBE459
 10754 0090 00000000 		.4byte	0
 10755 0094 00000000 		.4byte	0
 10756 0098 4A000000 		.4byte	.LBB454
 10757 009c 4E000000 		.4byte	.LBE454
 10758 00a0 54000000 		.4byte	.LBB458
 10759 00a4 58000000 		.4byte	.LBE458
 10760 00a8 00000000 		.4byte	0
 10761 00ac 00000000 		.4byte	0
 10762 00b0 AA000000 		.4byte	.LBB464
ARM GAS  /tmp/ccZUWmXH.s 			page 190


 10763 00b4 AE000000 		.4byte	.LBE464
 10764 00b8 BA000000 		.4byte	.LBB470
 10765 00bc BE000000 		.4byte	.LBE470
 10766 00c0 00000000 		.4byte	0
 10767 00c4 00000000 		.4byte	0
 10768 00c8 B2000000 		.4byte	.LBB467
 10769 00cc B8000000 		.4byte	.LBE467
 10770 00d0 C0000000 		.4byte	.LBB474
 10771 00d4 C2000000 		.4byte	.LBE474
 10772 00d8 00000000 		.4byte	0
 10773 00dc 00000000 		.4byte	0
 10774 00e0 BE000000 		.4byte	.LBB471
 10775 00e4 C0000000 		.4byte	.LBE471
 10776 00e8 C2000000 		.4byte	.LBB475
 10777 00ec C4000000 		.4byte	.LBE475
 10778 00f0 00000000 		.4byte	0
 10779 00f4 00000000 		.4byte	0
 10780 00f8 0E010000 		.4byte	.LBB480
 10781 00fc 12010000 		.4byte	.LBE480
 10782 0100 1E010000 		.4byte	.LBB486
 10783 0104 22010000 		.4byte	.LBE486
 10784 0108 00000000 		.4byte	0
 10785 010c 00000000 		.4byte	0
 10786 0110 16010000 		.4byte	.LBB483
 10787 0114 1C010000 		.4byte	.LBE483
 10788 0118 24010000 		.4byte	.LBB490
 10789 011c 26010000 		.4byte	.LBE490
 10790 0120 00000000 		.4byte	0
 10791 0124 00000000 		.4byte	0
 10792 0128 22010000 		.4byte	.LBB487
 10793 012c 24010000 		.4byte	.LBE487
 10794 0130 26010000 		.4byte	.LBB491
 10795 0134 28010000 		.4byte	.LBE491
 10796 0138 00000000 		.4byte	0
 10797 013c 00000000 		.4byte	0
 10798 0140 60010000 		.4byte	.LBB494
 10799 0144 62010000 		.4byte	.LBE494
 10800 0148 66010000 		.4byte	.LBB501
 10801 014c 6A010000 		.4byte	.LBE501
 10802 0150 70010000 		.4byte	.LBB503
 10803 0154 72010000 		.4byte	.LBE503
 10804 0158 00000000 		.4byte	0
 10805 015c 00000000 		.4byte	0
 10806 0160 62010000 		.4byte	.LBB498
 10807 0164 66010000 		.4byte	.LBE498
 10808 0168 6C010000 		.4byte	.LBB502
 10809 016c 70010000 		.4byte	.LBE502
 10810 0170 00000000 		.4byte	0
 10811 0174 00000000 		.4byte	0
 10812 0178 78000000 		.4byte	.LBB511
 10813 017c 7E000000 		.4byte	.LBE511
 10814 0180 98000000 		.4byte	.LBB518
 10815 0184 9A000000 		.4byte	.LBE518
 10816 0188 00000000 		.4byte	0
 10817 018c 00000000 		.4byte	0
 10818 0190 84000000 		.4byte	.LBB514
 10819 0194 88000000 		.4byte	.LBE514
ARM GAS  /tmp/ccZUWmXH.s 			page 191


 10820 0198 92000000 		.4byte	.LBB517
 10821 019c 96000000 		.4byte	.LBE517
 10822 01a0 00000000 		.4byte	0
 10823 01a4 00000000 		.4byte	0
 10824 01a8 DC000000 		.4byte	.LBB528
 10825 01ac E2000000 		.4byte	.LBE528
 10826 01b0 FC000000 		.4byte	.LBB535
 10827 01b4 FE000000 		.4byte	.LBE535
 10828 01b8 00000000 		.4byte	0
 10829 01bc 00000000 		.4byte	0
 10830 01c0 E8000000 		.4byte	.LBB531
 10831 01c4 EC000000 		.4byte	.LBE531
 10832 01c8 F6000000 		.4byte	.LBB534
 10833 01cc FA000000 		.4byte	.LBE534
 10834 01d0 00000000 		.4byte	0
 10835 01d4 00000000 		.4byte	0
 10836 01d8 34010000 		.4byte	.LBB545
 10837 01dc 3A010000 		.4byte	.LBE545
 10838 01e0 4C010000 		.4byte	.LBB552
 10839 01e4 4E010000 		.4byte	.LBE552
 10840 01e8 00000000 		.4byte	0
 10841 01ec 00000000 		.4byte	0
 10842 01f0 40010000 		.4byte	.LBB548
 10843 01f4 44010000 		.4byte	.LBE548
 10844 01f8 46010000 		.4byte	.LBB551
 10845 01fc 4A010000 		.4byte	.LBE551
 10846 0200 00000000 		.4byte	0
 10847 0204 00000000 		.4byte	0
 10848 0208 58010000 		.4byte	.LBB555
 10849 020c 5A010000 		.4byte	.LBE555
 10850 0210 5C010000 		.4byte	.LBB560
 10851 0214 5E010000 		.4byte	.LBE560
 10852 0218 00000000 		.4byte	0
 10853 021c 00000000 		.4byte	0
 10854 0220 04000000 		.4byte	.LBB734
 10855 0224 1A000000 		.4byte	.LBE734
 10856 0228 1C000000 		.4byte	.LBB739
 10857 022c 68000000 		.4byte	.LBE739
 10858 0230 6A000000 		.4byte	.LBB743
 10859 0234 6C000000 		.4byte	.LBE743
 10860 0238 76000000 		.4byte	.LBB754
 10861 023c 7A000000 		.4byte	.LBE754
 10862 0240 00000000 		.4byte	0
 10863 0244 00000000 		.4byte	0
 10864 0248 04000000 		.4byte	.LBB735
 10865 024c 1A000000 		.4byte	.LBE735
 10866 0250 1C000000 		.4byte	.LBB736
 10867 0254 68000000 		.4byte	.LBE736
 10868 0258 6A000000 		.4byte	.LBB737
 10869 025c 6C000000 		.4byte	.LBE737
 10870 0260 76000000 		.4byte	.LBB738
 10871 0264 7A000000 		.4byte	.LBE738
 10872 0268 00000000 		.4byte	0
 10873 026c 00000000 		.4byte	0
 10874 0270 68000000 		.4byte	.LBB740
 10875 0274 6A000000 		.4byte	.LBE740
 10876 0278 7C000000 		.4byte	.LBB755
ARM GAS  /tmp/ccZUWmXH.s 			page 192


 10877 027c 80000000 		.4byte	.LBE755
 10878 0280 00000000 		.4byte	0
 10879 0284 00000000 		.4byte	0
 10880 0288 6C000000 		.4byte	.LBB744
 10881 028c 6E000000 		.4byte	.LBE744
 10882 0290 72000000 		.4byte	.LBB753
 10883 0294 76000000 		.4byte	.LBE753
 10884 0298 86000000 		.4byte	.LBB757
 10885 029c 8A000000 		.4byte	.LBE757
 10886 02a0 98000000 		.4byte	.LBB761
 10887 02a4 9C000000 		.4byte	.LBE761
 10888 02a8 00000000 		.4byte	0
 10889 02ac 00000000 		.4byte	0
 10890 02b0 6E000000 		.4byte	.LBB749
 10891 02b4 72000000 		.4byte	.LBE749
 10892 02b8 80000000 		.4byte	.LBB756
 10893 02bc 82000000 		.4byte	.LBE756
 10894 02c0 94000000 		.4byte	.LBB760
 10895 02c4 96000000 		.4byte	.LBE760
 10896 02c8 00000000 		.4byte	0
 10897 02cc 00000000 		.4byte	0
 10898 02d0 A0000000 		.4byte	.LBB762
 10899 02d4 A4000000 		.4byte	.LBE762
 10900 02d8 A8000000 		.4byte	.LBB768
 10901 02dc AC000000 		.4byte	.LBE768
 10902 02e0 00000000 		.4byte	0
 10903 02e4 00000000 		.4byte	0
 10904 02e8 A4000000 		.4byte	.LBB765
 10905 02ec A8000000 		.4byte	.LBE765
 10906 02f0 AE000000 		.4byte	.LBB769
 10907 02f4 B0000000 		.4byte	.LBE769
 10908 02f8 00000000 		.4byte	0
 10909 02fc 00000000 		.4byte	0
 10910 0300 C0000000 		.4byte	.LBB774
 10911 0304 C4000000 		.4byte	.LBE774
 10912 0308 CA000000 		.4byte	.LBB779
 10913 030c CC000000 		.4byte	.LBE779
 10914 0310 00000000 		.4byte	0
 10915 0314 00000000 		.4byte	0
 10916 0318 D0000000 		.4byte	.LBB780
 10917 031c D2000000 		.4byte	.LBE780
 10918 0320 D6000000 		.4byte	.LBB786
 10919 0324 D8000000 		.4byte	.LBE786
 10920 0328 00000000 		.4byte	0
 10921 032c 00000000 		.4byte	0
 10922 0330 D2000000 		.4byte	.LBB783
 10923 0334 D6000000 		.4byte	.LBE783
 10924 0338 DA000000 		.4byte	.LBB787
 10925 033c DC000000 		.4byte	.LBE787
 10926 0340 00000000 		.4byte	0
 10927 0344 00000000 		.4byte	0
 10928 0348 E0000000 		.4byte	.LBB788
 10929 034c E2000000 		.4byte	.LBE788
 10930 0350 EA000000 		.4byte	.LBB796
 10931 0354 EC000000 		.4byte	.LBE796
 10932 0358 00000000 		.4byte	0
 10933 035c 00000000 		.4byte	0
ARM GAS  /tmp/ccZUWmXH.s 			page 193


 10934 0360 E6000000 		.4byte	.LBB793
 10935 0364 EA000000 		.4byte	.LBE793
 10936 0368 F8000000 		.4byte	.LBB799
 10937 036c FA000000 		.4byte	.LBE799
 10938 0370 00000000 		.4byte	0
 10939 0374 00000000 		.4byte	0
 10940 0378 FE000000 		.4byte	.LBB800
 10941 037c 02010000 		.4byte	.LBE800
 10942 0380 08010000 		.4byte	.LBB805
 10943 0384 0A010000 		.4byte	.LBE805
 10944 0388 00000000 		.4byte	0
 10945 038c 00000000 		.4byte	0
 10946 0390 16010000 		.4byte	.LBB810
 10947 0394 18010000 		.4byte	.LBE810
 10948 0398 2C010000 		.4byte	.LBB821
 10949 039c 2E010000 		.4byte	.LBE821
 10950 03a0 00000000 		.4byte	0
 10951 03a4 00000000 		.4byte	0
 10952 03a8 1C010000 		.4byte	.LBB813
 10953 03ac 1E010000 		.4byte	.LBE813
 10954 03b0 22010000 		.4byte	.LBB819
 10955 03b4 24010000 		.4byte	.LBE819
 10956 03b8 00000000 		.4byte	0
 10957 03bc 00000000 		.4byte	0
 10958 03c0 1E010000 		.4byte	.LBB816
 10959 03c4 22010000 		.4byte	.LBE816
 10960 03c8 26010000 		.4byte	.LBB820
 10961 03cc 28010000 		.4byte	.LBE820
 10962 03d0 00000000 		.4byte	0
 10963 03d4 00000000 		.4byte	0
 10964 03d8 42010000 		.4byte	.LBB828
 10965 03dc 46010000 		.4byte	.LBE828
 10966 03e0 4A010000 		.4byte	.LBB833
 10967 03e4 4C010000 		.4byte	.LBE833
 10968 03e8 00000000 		.4byte	0
 10969 03ec 00000000 		.4byte	0
 10970 03f0 60010000 		.4byte	.LBB838
 10971 03f4 62010000 		.4byte	.LBE838
 10972 03f8 66010000 		.4byte	.LBB844
 10973 03fc 68010000 		.4byte	.LBE844
 10974 0400 00000000 		.4byte	0
 10975 0404 00000000 		.4byte	0
 10976 0408 62010000 		.4byte	.LBB841
 10977 040c 66010000 		.4byte	.LBE841
 10978 0410 6A010000 		.4byte	.LBB845
 10979 0414 6C010000 		.4byte	.LBE845
 10980 0418 00000000 		.4byte	0
 10981 041c 00000000 		.4byte	0
 10982 0420 AC010000 		.4byte	.LBB866
 10983 0424 B0010000 		.4byte	.LBE866
 10984 0428 B6010000 		.4byte	.LBB871
 10985 042c BA010000 		.4byte	.LBE871
 10986 0430 00000000 		.4byte	0
 10987 0434 00000000 		.4byte	0
 10988 0438 D6010000 		.4byte	.LBB880
 10989 043c DA010000 		.4byte	.LBE880
 10990 0440 DE010000 		.4byte	.LBB885
ARM GAS  /tmp/ccZUWmXH.s 			page 194


 10991 0444 E0010000 		.4byte	.LBE885
 10992 0448 00000000 		.4byte	0
 10993 044c 00000000 		.4byte	0
 10994 0450 00020000 		.4byte	.LBB894
 10995 0454 04020000 		.4byte	.LBE894
 10996 0458 08020000 		.4byte	.LBB899
 10997 045c 0A020000 		.4byte	.LBE899
 10998 0460 00000000 		.4byte	0
 10999 0464 00000000 		.4byte	0
 11000 0468 10020000 		.4byte	.LBB900
 11001 046c 14020000 		.4byte	.LBE900
 11002 0470 1A020000 		.4byte	.LBB905
 11003 0474 1E020000 		.4byte	.LBE905
 11004 0478 00000000 		.4byte	0
 11005 047c 00000000 		.4byte	0
 11006 0480 30020000 		.4byte	.LBB910
 11007 0484 34020000 		.4byte	.LBE910
 11008 0488 3E020000 		.4byte	.LBB915
 11009 048c 42020000 		.4byte	.LBE915
 11010 0490 00000000 		.4byte	0
 11011 0494 00000000 		.4byte	0
 11012 0498 46020000 		.4byte	.LBB916
 11013 049c 48020000 		.4byte	.LBE916
 11014 04a0 4C020000 		.4byte	.LBB922
 11015 04a4 4E020000 		.4byte	.LBE922
 11016 04a8 00000000 		.4byte	0
 11017 04ac 00000000 		.4byte	0
 11018 04b0 48020000 		.4byte	.LBB919
 11019 04b4 4C020000 		.4byte	.LBE919
 11020 04b8 50020000 		.4byte	.LBB923
 11021 04bc 52020000 		.4byte	.LBE923
 11022 04c0 00000000 		.4byte	0
 11023 04c4 00000000 		.4byte	0
 11024 04c8 80020000 		.4byte	.LBB936
 11025 04cc 84020000 		.4byte	.LBE936
 11026 04d0 8A020000 		.4byte	.LBB941
 11027 04d4 8E020000 		.4byte	.LBE941
 11028 04d8 00000000 		.4byte	0
 11029 04dc 00000000 		.4byte	0
 11030 04e0 B8020000 		.4byte	.LBB954
 11031 04e4 BA020000 		.4byte	.LBE954
 11032 04e8 BE020000 		.4byte	.LBB960
 11033 04ec C0020000 		.4byte	.LBE960
 11034 04f0 00000000 		.4byte	0
 11035 04f4 00000000 		.4byte	0
 11036 04f8 BA020000 		.4byte	.LBB957
 11037 04fc BE020000 		.4byte	.LBE957
 11038 0500 C2020000 		.4byte	.LBB961
 11039 0504 C4020000 		.4byte	.LBE961
 11040 0508 00000000 		.4byte	0
 11041 050c 00000000 		.4byte	0
 11042 0510 00000000 		.4byte	.LBB1034
 11043 0514 04000000 		.4byte	.LBE1034
 11044 0518 06000000 		.4byte	.LBB1080
 11045 051c 38000000 		.4byte	.LBE1080
 11046 0520 4C000000 		.4byte	.LBB1087
 11047 0524 90000000 		.4byte	.LBE1087
ARM GAS  /tmp/ccZUWmXH.s 			page 195


 11048 0528 00000000 		.4byte	0
 11049 052c 00000000 		.4byte	0
 11050 0530 16000000 		.4byte	.LBB1036
 11051 0534 18000000 		.4byte	.LBE1036
 11052 0538 1E000000 		.4byte	.LBB1041
 11053 053c 22000000 		.4byte	.LBE1041
 11054 0540 00000000 		.4byte	0
 11055 0544 00000000 		.4byte	0
 11056 0548 2C000000 		.4byte	.LBB1042
 11057 054c 30000000 		.4byte	.LBE1042
 11058 0550 82000000 		.4byte	.LBB1076
 11059 0554 86000000 		.4byte	.LBE1076
 11060 0558 00000000 		.4byte	0
 11061 055c 00000000 		.4byte	0
 11062 0560 30000000 		.4byte	.LBB1045
 11063 0564 32000000 		.4byte	.LBE1045
 11064 0568 80000000 		.4byte	.LBB1075
 11065 056c 82000000 		.4byte	.LBE1075
 11066 0570 86000000 		.4byte	.LBB1077
 11067 0574 90000000 		.4byte	.LBE1077
 11068 0578 00000000 		.4byte	0
 11069 057c 00000000 		.4byte	0
 11070 0580 4C000000 		.4byte	.LBB1053
 11071 0584 4E000000 		.4byte	.LBE1053
 11072 0588 52000000 		.4byte	.LBB1058
 11073 058c 56000000 		.4byte	.LBE1058
 11074 0590 00000000 		.4byte	0
 11075 0594 00000000 		.4byte	0
 11076 0598 5C000000 		.4byte	.LBB1061
 11077 059c 60000000 		.4byte	.LBE1061
 11078 05a0 72000000 		.4byte	.LBB1073
 11079 05a4 76000000 		.4byte	.LBE1073
 11080 05a8 00000000 		.4byte	0
 11081 05ac 00000000 		.4byte	0
 11082 05b0 60000000 		.4byte	.LBB1064
 11083 05b4 62000000 		.4byte	.LBE1064
 11084 05b8 6E000000 		.4byte	.LBB1072
 11085 05bc 70000000 		.4byte	.LBE1072
 11086 05c0 76000000 		.4byte	.LBB1074
 11087 05c4 7A000000 		.4byte	.LBE1074
 11088 05c8 00000000 		.4byte	0
 11089 05cc 00000000 		.4byte	0
 11090 05d0 38000000 		.4byte	.LBB1081
 11091 05d4 3E000000 		.4byte	.LBE1081
 11092 05d8 46000000 		.4byte	.LBB1086
 11093 05dc 48000000 		.4byte	.LBE1086
 11094 05e0 00000000 		.4byte	0
 11095 05e4 00000000 		.4byte	0
 11096 05e8 02000000 		.4byte	.LBB1154
 11097 05ec 04000000 		.4byte	.LBE1154
 11098 05f0 06000000 		.4byte	.LBB1157
 11099 05f4 16000000 		.4byte	.LBE1157
 11100 05f8 00000000 		.4byte	0
 11101 05fc 00000000 		.4byte	0
 11102 0600 16000000 		.4byte	.LBB1158
 11103 0604 3C000000 		.4byte	.LBE1158
 11104 0608 58000000 		.4byte	.LBB1204
ARM GAS  /tmp/ccZUWmXH.s 			page 196


 11105 060c 7C000000 		.4byte	.LBE1204
 11106 0610 00000000 		.4byte	0
 11107 0614 00000000 		.4byte	0
 11108 0618 24000000 		.4byte	.LBB1160
 11109 061c 28000000 		.4byte	.LBE1160
 11110 0620 2E000000 		.4byte	.LBB1167
 11111 0624 32000000 		.4byte	.LBE1167
 11112 0628 00000000 		.4byte	0
 11113 062c 00000000 		.4byte	0
 11114 0630 28000000 		.4byte	.LBB1163
 11115 0634 2E000000 		.4byte	.LBE1163
 11116 0638 32000000 		.4byte	.LBB1168
 11117 063c 34000000 		.4byte	.LBE1168
 11118 0640 36000000 		.4byte	.LBB1172
 11119 0644 38000000 		.4byte	.LBE1172
 11120 0648 00000000 		.4byte	0
 11121 064c 00000000 		.4byte	0
 11122 0650 34000000 		.4byte	.LBB1169
 11123 0654 36000000 		.4byte	.LBE1169
 11124 0658 38000000 		.4byte	.LBB1173
 11125 065c 3A000000 		.4byte	.LBE1173
 11126 0660 00000000 		.4byte	0
 11127 0664 00000000 		.4byte	0
 11128 0668 58000000 		.4byte	.LBB1177
 11129 066c 5C000000 		.4byte	.LBE1177
 11130 0670 62000000 		.4byte	.LBB1184
 11131 0674 66000000 		.4byte	.LBE1184
 11132 0678 00000000 		.4byte	0
 11133 067c 00000000 		.4byte	0
 11134 0680 5C000000 		.4byte	.LBB1180
 11135 0684 62000000 		.4byte	.LBE1180
 11136 0688 66000000 		.4byte	.LBB1185
 11137 068c 68000000 		.4byte	.LBE1185
 11138 0690 6A000000 		.4byte	.LBB1189
 11139 0694 6C000000 		.4byte	.LBE1189
 11140 0698 00000000 		.4byte	0
 11141 069c 00000000 		.4byte	0
 11142 06a0 68000000 		.4byte	.LBB1186
 11143 06a4 6A000000 		.4byte	.LBE1186
 11144 06a8 6C000000 		.4byte	.LBB1190
 11145 06ac 6E000000 		.4byte	.LBE1190
 11146 06b0 00000000 		.4byte	0
 11147 06b4 00000000 		.4byte	0
 11148 06b8 3C000000 		.4byte	.LBB1194
 11149 06bc 40000000 		.4byte	.LBE1194
 11150 06c0 42000000 		.4byte	.LBB1201
 11151 06c4 4A000000 		.4byte	.LBE1201
 11152 06c8 00000000 		.4byte	0
 11153 06cc 00000000 		.4byte	0
 11154 06d0 40000000 		.4byte	.LBB1197
 11155 06d4 42000000 		.4byte	.LBE1197
 11156 06d8 4A000000 		.4byte	.LBB1202
 11157 06dc 4E000000 		.4byte	.LBE1202
 11158 06e0 50000000 		.4byte	.LBB1203
 11159 06e4 54000000 		.4byte	.LBE1203
 11160 06e8 00000000 		.4byte	0
 11161 06ec 00000000 		.4byte	0
ARM GAS  /tmp/ccZUWmXH.s 			page 197


 11162 06f0 18000000 		.4byte	.LBB1207
 11163 06f4 1E000000 		.4byte	.LBE1207
 11164 06f8 24000000 		.4byte	.LBB1212
 11165 06fc 2A000000 		.4byte	.LBE1212
 11166 0700 32000000 		.4byte	.LBB1213
 11167 0704 34000000 		.4byte	.LBE1213
 11168 0708 3A000000 		.4byte	.LBB1214
 11169 070c 3E000000 		.4byte	.LBE1214
 11170 0710 00000000 		.4byte	0
 11171 0714 00000000 		.4byte	0
 11172 0718 2E000000 		.4byte	.LBB1215
 11173 071c 34000000 		.4byte	.LBE1215
 11174 0720 38000000 		.4byte	.LBB1218
 11175 0724 3A000000 		.4byte	.LBE1218
 11176 0728 00000000 		.4byte	0
 11177 072c 00000000 		.4byte	0
 11178 0730 4E000000 		.4byte	.LBB1219
 11179 0734 50000000 		.4byte	.LBE1219
 11180 0738 5A000000 		.4byte	.LBB1226
 11181 073c 5E000000 		.4byte	.LBE1226
 11182 0740 72000000 		.4byte	.LBB1227
 11183 0744 7A000000 		.4byte	.LBE1227
 11184 0748 88000000 		.4byte	.LBB1228
 11185 074c 8A000000 		.4byte	.LBE1228
 11186 0750 94000000 		.4byte	.LBB1229
 11187 0754 98000000 		.4byte	.LBE1229
 11188 0758 9C000000 		.4byte	.LBB1230
 11189 075c 9E000000 		.4byte	.LBE1230
 11190 0760 00000000 		.4byte	0
 11191 0764 00000000 		.4byte	0
 11192 0768 00000000 		.4byte	.LFB130
 11193 076c BC010000 		.4byte	.LFE130
 11194 0770 00000000 		.4byte	.LFB132
 11195 0774 08030000 		.4byte	.LFE132
 11196 0778 00000000 		.4byte	.LFB133
 11197 077c 90000000 		.4byte	.LFE133
 11198 0780 00000000 		.4byte	.LFB119
 11199 0784 0A010000 		.4byte	.LFE119
 11200 0788 00000000 		.4byte	.LFB134
 11201 078c 7C000000 		.4byte	.LFE134
 11202 0790 00000000 		.4byte	.LFB135
 11203 0794 46000000 		.4byte	.LFE135
 11204 0798 00000000 		.4byte	.LFB118
 11205 079c D6020000 		.4byte	.LFE118
 11206 07a0 00000000 		.4byte	.LFB120
 11207 07a4 E6000000 		.4byte	.LFE120
 11208 07a8 00000000 		.4byte	.LFB136
 11209 07ac B4000000 		.4byte	.LFE136
 11210 07b0 00000000 		.4byte	0
 11211 07b4 00000000 		.4byte	0
 11212              		.section	.debug_line,"",%progbits
 11213              	.Ldebug_line0:
 11214 0000 2A0B0000 		.section	.debug_str,"MS",%progbits,1
 11214      02001302 
 11214      00000201 
 11214      FB0E0D00 
 11214      01010101 
ARM GAS  /tmp/ccZUWmXH.s 			page 198


 11215              	.LASF132:
 11216 0000 47444953 		.ascii	"GDISPDriver_t\000"
 11216      50447269 
 11216      7665725F 
 11216      7400
 11217              	.LASF54:
 11218 000e 50555044 		.ascii	"PUPDR\000"
 11218      5200
 11219              	.LASF56:
 11220 0014 4C434B52 		.ascii	"LCKR\000"
 11220      00
 11221              	.LASF131:
 11222 0019 2F686F6D 		.ascii	"/home/witold/Dokumenty/arm/ChibiOS-master/demos/bub"
 11222      652F7769 
 11222      746F6C64 
 11222      2F446F6B 
 11222      756D656E 
 11223 004c 626C6573 		.ascii	"bles\000"
 11223      00
 11224              	.LASF82:
 11225 0051 48656967 		.ascii	"Height\000"
 11225      687400
 11226              	.LASF99:
 11227 0058 61637175 		.ascii	"acquire_bus\000"
 11227      6972655F 
 11227      62757300 
 11228              	.LASF52:
 11229 0064 4F545950 		.ascii	"OTYPER\000"
 11229      455200
 11230              	.LASF9:
 11231 006b 6C6F6E67 		.ascii	"long int\000"
 11231      20696E74 
 11231      00
 11232              	.LASF51:
 11233 0074 4D4F4445 		.ascii	"MODER\000"
 11233      5200
 11234              	.LASF13:
 11235 007a 6C6F6E67 		.ascii	"long long unsigned int\000"
 11235      206C6F6E 
 11235      6720756E 
 11235      7369676E 
 11235      65642069 
 11236              	.LASF115:
 11237 0091 64696666 		.ascii	"diff\000"
 11237      00
 11238              	.LASF113:
 11239 0096 61646478 		.ascii	"addx\000"
 11239      00
 11240              	.LASF114:
 11241 009b 61646479 		.ascii	"addy\000"
 11241      00
 11242              	.LASF124:
 11243 00a0 49544D5F 		.ascii	"ITM_RxBuffer\000"
 11243      52784275 
 11243      66666572 
 11243      00
 11244              	.LASF94:
ARM GAS  /tmp/ccZUWmXH.s 			page 199


 11245 00ad 77726974 		.ascii	"write_data\000"
 11245      655F6461 
 11245      746100
 11246              	.LASF38:
 11247 00b8 41484231 		.ascii	"AHB1LPENR\000"
 11247      4C50454E 
 11247      5200
 11248              	.LASF4:
 11249 00c2 696E7431 		.ascii	"int16_t\000"
 11249      365F7400 
 11250              	.LASF12:
 11251 00ca 6C6F6E67 		.ascii	"long long int\000"
 11251      206C6F6E 
 11251      6720696E 
 11251      7400
 11252              	.LASF1:
 11253 00d8 7369676E 		.ascii	"signed char\000"
 11253      65642063 
 11253      68617200 
 11254              	.LASF55:
 11255 00e4 42535252 		.ascii	"BSRR\000"
 11255      00
 11256              	.LASF24:
 11257 00e9 41484231 		.ascii	"AHB1RSTR\000"
 11257      52535452 
 11257      00
 11258              	.LASF15:
 11259 00f2 626F6F6C 		.ascii	"bool_t\000"
 11259      5F7400
 11260              	.LASF83:
 11261 00f9 4F726965 		.ascii	"Orientation\000"
 11261      6E746174 
 11261      696F6E00 
 11262              	.LASF98:
 11263 0105 73746174 		.ascii	"state\000"
 11263      6500
 11264              	.LASF134:
 11265 010b 67646973 		.ascii	"gdisp_lld_init\000"
 11265      705F6C6C 
 11265      645F696E 
 11265      697400
 11266              	.LASF29:
 11267 011a 41504232 		.ascii	"APB2RSTR\000"
 11267      52535452 
 11267      00
 11268              	.LASF116:
 11269 0123 67646973 		.ascii	"gdisp_lld_fill_circle\000"
 11269      705F6C6C 
 11269      645F6669 
 11269      6C6C5F63 
 11269      6972636C 
 11270              	.LASF130:
 11271 0139 2E2E2F2E 		.ascii	"../../ext/ugfx/drivers/gdisp/SSD1289/gdisp_lld.c\000"
 11271      2E2F6578 
 11271      742F7567 
 11271      66782F64 
 11271      72697665 
ARM GAS  /tmp/ccZUWmXH.s 			page 200


 11272              	.LASF6:
 11273 016a 75696E74 		.ascii	"uint16_t\000"
 11273      31365F74 
 11273      00
 11274              	.LASF133:
 11275 0173 7365745F 		.ascii	"set_viewport\000"
 11275      76696577 
 11275      706F7274 
 11275      00
 11276              	.LASF22:
 11277 0180 504C4C43 		.ascii	"PLLCFGR\000"
 11277      46475200 
 11278              	.LASF101:
 11279 0188 696E6974 		.ascii	"init_board\000"
 11279      5F626F61 
 11279      726400
 11280              	.LASF53:
 11281 0193 4F535045 		.ascii	"OSPEEDR\000"
 11281      45445200 
 11282              	.LASF64:
 11283 019b 6D61736B 		.ascii	"mask\000"
 11283      00
 11284              	.LASF97:
 11285 01a0 73657470 		.ascii	"setpin_reset\000"
 11285      696E5F72 
 11285      65736574 
 11285      00
 11286              	.LASF96:
 11287 01ad 7365745F 		.ascii	"set_cursor\000"
 11287      63757273 
 11287      6F7200
 11288              	.LASF66:
 11289 01b8 494F4275 		.ascii	"IOBus\000"
 11289      7300
 11290              	.LASF87:
 11291 01be 47444953 		.ascii	"GDISPDriver\000"
 11291      50447269 
 11291      76657200 
 11292              	.LASF0:
 11293 01ca 756E7369 		.ascii	"unsigned int\000"
 11293      676E6564 
 11293      20696E74 
 11293      00
 11294              	.LASF76:
 11295 01d7 706F7765 		.ascii	"powerOff\000"
 11295      724F6666 
 11295      00
 11296              	.LASF111:
 11297 01e0 67646973 		.ascii	"gdisp_lld_fill_area\000"
 11297      705F6C6C 
 11297      645F6669 
 11297      6C6C5F61 
 11297      72656100 
 11298              	.LASF86:
 11299 01f4 436F6E74 		.ascii	"Contrast\000"
 11299      72617374 
 11299      00
ARM GAS  /tmp/ccZUWmXH.s 			page 201


 11300              	.LASF11:
 11301 01fd 6C6F6E67 		.ascii	"long unsigned int\000"
 11301      20756E73 
 11301      69676E65 
 11301      6420696E 
 11301      7400
 11302              	.LASF59:
 11303 020f 4750494F 		.ascii	"GPIO_TypeDef\000"
 11303      5F547970 
 11303      65446566 
 11303      00
 11304              	.LASF33:
 11305 021c 41484233 		.ascii	"AHB3ENR\000"
 11305      454E5200 
 11306              	.LASF49:
 11307 0224 5243435F 		.ascii	"RCC_TypeDef\000"
 11307      54797065 
 11307      44656600 
 11308              	.LASF79:
 11309 0230 706F7765 		.ascii	"powerOn\000"
 11309      724F6E00 
 11310              	.LASF106:
 11311 0238 67646973 		.ascii	"gdisp_lld_draw_circle\000"
 11311      705F6C6C 
 11311      645F6472 
 11311      61775F63 
 11311      6972636C 
 11312              	.LASF95:
 11313 024e 64617461 		.ascii	"data\000"
 11313      00
 11314              	.LASF7:
 11315 0253 73686F72 		.ascii	"short unsigned int\000"
 11315      7420756E 
 11315      7369676E 
 11315      65642069 
 11315      6E7400
 11316              	.LASF42:
 11317 0266 41504231 		.ascii	"APB1LPENR\000"
 11317      4C50454E 
 11317      5200
 11318              	.LASF48:
 11319 0270 504C4C49 		.ascii	"PLLI2SCFGR\000"
 11319      32534346 
 11319      475200
 11320              	.LASF80:
 11321 027b 67646973 		.ascii	"gdisp_powermode_t\000"
 11321      705F706F 
 11321      7765726D 
 11321      6F64655F 
 11321      7400
 11322              	.LASF26:
 11323 028d 41484233 		.ascii	"AHB3RSTR\000"
 11323      52535452 
 11323      00
 11324              	.LASF90:
 11325 0296 7365745F 		.ascii	"set_backlight\000"
 11325      6261636B 
ARM GAS  /tmp/ccZUWmXH.s 			page 202


 11325      6C696768 
 11325      7400
 11326              	.LASF43:
 11327 02a4 41504232 		.ascii	"APB2LPENR\000"
 11327      4C50454E 
 11327      5200
 11328              	.LASF5:
 11329 02ae 73686F72 		.ascii	"short int\000"
 11329      7420696E 
 11329      7400
 11330              	.LASF129:
 11331 02b8 474E5520 		.ascii	"GNU C 4.7.4 20130613 (release) [ARM/embedded-4_7-br"
 11331      4320342E 
 11331      372E3420 
 11331      32303133 
 11331      30363133 
 11332 02eb 616E6368 		.ascii	"anch revision 200083]\000"
 11332      20726576 
 11332      6973696F 
 11332      6E203230 
 11332      30303833 
 11333              	.LASF125:
 11334 0301 47444953 		.ascii	"GDISP\000"
 11334      5000
 11335              	.LASF107:
 11336 0307 72616469 		.ascii	"radius\000"
 11336      757300
 11337              	.LASF88:
 11338 030e 636F6C6F 		.ascii	"color_t\000"
 11338      725F7400 
 11339              	.LASF135:
 11340 0316 67667853 		.ascii	"gfxSleepMicroseconds\000"
 11340      6C656570 
 11340      4D696372 
 11340      6F736563 
 11340      6F6E6473 
 11341              	.LASF18:
 11342 032b 73697A65 		.ascii	"sizetype\000"
 11342      74797065 
 11342      00
 11343              	.LASF50:
 11344 0334 636C6561 		.ascii	"clear\000"
 11344      7200
 11345              	.LASF60:
 11346 033a 696F706F 		.ascii	"ioportmask_t\000"
 11346      72746D61 
 11346      736B5F74 
 11346      00
 11347              	.LASF109:
 11348 0347 67646973 		.ascii	"gdisp_lld_clear\000"
 11348      705F6C6C 
 11348      645F636C 
 11348      65617200 
 11349              	.LASF74:
 11350 0357 6F726965 		.ascii	"orientation\000"
 11350      6E746174 
 11350      696F6E00 
ARM GAS  /tmp/ccZUWmXH.s 			page 203


 11351              	.LASF39:
 11352 0363 41484232 		.ascii	"AHB2LPENR\000"
 11352      4C50454E 
 11352      5200
 11353              	.LASF68:
 11354 036d 636F6F72 		.ascii	"coord_t\000"
 11354      645F7400 
 11355              	.LASF75:
 11356 0375 706F7765 		.ascii	"powermode\000"
 11356      726D6F64 
 11356      6500
 11357              	.LASF117:
 11358 037f 67646973 		.ascii	"gdisp_lld_blit_area_ex\000"
 11358      705F6C6C 
 11358      645F626C 
 11358      69745F61 
 11358      7265615F 
 11359              	.LASF28:
 11360 0396 41504231 		.ascii	"APB1RSTR\000"
 11360      52535452 
 11360      00
 11361              	.LASF63:
 11362 039f 706F7274 		.ascii	"portid\000"
 11362      696400
 11363              	.LASF58:
 11364 03a6 41465248 		.ascii	"AFRH\000"
 11364      00
 11365              	.LASF126:
 11366 03ab 70616C53 		.ascii	"palSetBusMode\000"
 11366      65744275 
 11366      734D6F64 
 11366      6500
 11367              	.LASF57:
 11368 03b9 4146524C 		.ascii	"AFRL\000"
 11368      00
 11369              	.LASF105:
 11370 03be 67646973 		.ascii	"gdisp_lld_draw_pixel\000"
 11370      705F6C6C 
 11370      645F6472 
 11370      61775F70 
 11370      6978656C 
 11371              	.LASF30:
 11372 03d3 52455345 		.ascii	"RESERVED1\000"
 11372      52564544 
 11372      3100
 11373              	.LASF34:
 11374 03dd 52455345 		.ascii	"RESERVED2\000"
 11374      52564544 
 11374      3200
 11375              	.LASF37:
 11376 03e7 52455345 		.ascii	"RESERVED3\000"
 11376      52564544 
 11376      3300
 11377              	.LASF41:
 11378 03f1 52455345 		.ascii	"RESERVED4\000"
 11378      52564544 
 11378      3400
ARM GAS  /tmp/ccZUWmXH.s 			page 204


 11379              	.LASF44:
 11380 03fb 52455345 		.ascii	"RESERVED5\000"
 11380      52564544 
 11380      3500
 11381              	.LASF46:
 11382 0405 52455345 		.ascii	"RESERVED6\000"
 11382      52564544 
 11382      3600
 11383              	.LASF16:
 11384 040f 5F426F6F 		.ascii	"_Bool\000"
 11384      6C00
 11385              	.LASF8:
 11386 0415 696E7433 		.ascii	"int32_t\000"
 11386      325F7400 
 11387              	.LASF2:
 11388 041d 756E7369 		.ascii	"unsigned char\000"
 11388      676E6564 
 11388      20636861 
 11388      7200
 11389              	.LASF78:
 11390 042b 706F7765 		.ascii	"powerDeepSleep\000"
 11390      72446565 
 11390      70536C65 
 11390      657000
 11391              	.LASF72:
 11392 043a 47444953 		.ascii	"GDISP_ROTATE_270\000"
 11392      505F524F 
 11392      54415445 
 11392      5F323730 
 11392      00
 11393              	.LASF110:
 11394 044b 61726561 		.ascii	"area\000"
 11394      00
 11395              	.LASF100:
 11396 0450 72656C65 		.ascii	"release_bus\000"
 11396      6173655F 
 11396      62757300 
 11397              	.LASF40:
 11398 045c 41484233 		.ascii	"AHB3LPENR\000"
 11398      4C50454E 
 11398      5200
 11399              	.LASF14:
 11400 0466 75696E74 		.ascii	"uint_fast8_t\000"
 11400      5F666173 
 11400      74385F74 
 11400      00
 11401              	.LASF121:
 11402 0473 62756666 		.ascii	"buffer\000"
 11402      657200
 11403              	.LASF36:
 11404 047a 41504232 		.ascii	"APB2ENR\000"
 11404      454E5200 
 11405              	.LASF27:
 11406 0482 52455345 		.ascii	"RESERVED0\000"
 11406      52564544 
 11406      3000
 11407              	.LASF67:
ARM GAS  /tmp/ccZUWmXH.s 			page 205


 11408 048c 64656C61 		.ascii	"delaytime_t\000"
 11408      7974696D 
 11408      655F7400 
 11409              	.LASF20:
 11410 0498 46534D43 		.ascii	"FSMC_Bank1_TypeDef\000"
 11410      5F42616E 
 11410      6B315F54 
 11410      79706544 
 11410      656600
 11411              	.LASF10:
 11412 04ab 75696E74 		.ascii	"uint32_t\000"
 11412      33325F74 
 11412      00
 11413              	.LASF85:
 11414 04b4 4261636B 		.ascii	"Backlight\000"
 11414      6C696768 
 11414      7400
 11415              	.LASF70:
 11416 04be 47444953 		.ascii	"GDISP_ROTATE_90\000"
 11416      505F524F 
 11416      54415445 
 11416      5F393000 
 11417              	.LASF104:
 11418 04ce 636F6C6F 		.ascii	"color\000"
 11418      7200
 11419              	.LASF19:
 11420 04d4 63686172 		.ascii	"char\000"
 11420      00
 11421              	.LASF92:
 11422 04d9 70657263 		.ascii	"percent\000"
 11422      656E7400 
 11423              	.LASF118:
 11424 04e1 73726378 		.ascii	"srcx\000"
 11424      00
 11425              	.LASF119:
 11426 04e6 73726379 		.ascii	"srcy\000"
 11426      00
 11427              	.LASF25:
 11428 04eb 41484232 		.ascii	"AHB2RSTR\000"
 11428      52535452 
 11428      00
 11429              	.LASF93:
 11430 04f4 696E6465 		.ascii	"index\000"
 11430      7800
 11431              	.LASF84:
 11432 04fa 506F7765 		.ascii	"Powermode\000"
 11432      726D6F64 
 11432      6500
 11433              	.LASF17:
 11434 0504 73797374 		.ascii	"systime_t\000"
 11434      696D655F 
 11434      7400
 11435              	.LASF102:
 11436 050e 62757344 		.ascii	"busD\000"
 11436      00
 11437              	.LASF103:
 11438 0513 62757345 		.ascii	"busE\000"
ARM GAS  /tmp/ccZUWmXH.s 			page 206


 11438      00
 11439              	.LASF112:
 11440 0518 67646973 		.ascii	"gdisp_lld_draw_line\000"
 11440      705F6C6C 
 11440      645F6472 
 11440      61775F6C 
 11440      696E6500 
 11441              	.LASF65:
 11442 052c 6F666673 		.ascii	"offset\000"
 11442      657400
 11443              	.LASF35:
 11444 0533 41504231 		.ascii	"APB1ENR\000"
 11444      454E5200 
 11445              	.LASF62:
 11446 053b 696F706F 		.ascii	"ioportid_t\000"
 11446      72746964 
 11446      5F7400
 11447              	.LASF45:
 11448 0546 42444352 		.ascii	"BDCR\000"
 11448      00
 11449              	.LASF32:
 11450 054b 41484232 		.ascii	"AHB2ENR\000"
 11450      454E5200 
 11451              	.LASF127:
 11452 0553 5F70616C 		.ascii	"_pal_lld_setgroupmode\000"
 11452      5F6C6C64 
 11452      5F736574 
 11452      67726F75 
 11452      706D6F64 
 11453              	.LASF122:
 11454 0569 656E6478 		.ascii	"endx\000"
 11454      00
 11455              	.LASF123:
 11456 056e 656E6479 		.ascii	"endy\000"
 11456      00
 11457              	.LASF91:
 11458 0573 77726974 		.ascii	"write_index\000"
 11458      655F696E 
 11458      64657800 
 11459              	.LASF120:
 11460 057f 73726363 		.ascii	"srccx\000"
 11460      7800
 11461              	.LASF47:
 11462 0585 53534347 		.ascii	"SSCGR\000"
 11462      5200
 11463              	.LASF89:
 11464 058b 70697865 		.ascii	"pixel_t\000"
 11464      6C5F7400 
 11465              	.LASF69:
 11466 0593 47444953 		.ascii	"GDISP_ROTATE_0\000"
 11466      505F524F 
 11466      54415445 
 11466      5F3000
 11467              	.LASF3:
 11468 05a2 75696E74 		.ascii	"uint8_t\000"
 11468      385F7400 
 11469              	.LASF128:
ARM GAS  /tmp/ccZUWmXH.s 			page 207


 11470 05aa 67667853 		.ascii	"gfxSleepMilliseconds\000"
 11470      6C656570 
 11470      4D696C6C 
 11470      69736563 
 11470      6F6E6473 
 11471              	.LASF108:
 11472 05bf 72657365 		.ascii	"reset_viewport\000"
 11472      745F7669 
 11472      6577706F 
 11472      727400
 11473              	.LASF77:
 11474 05ce 706F7765 		.ascii	"powerSleep\000"
 11474      72536C65 
 11474      657000
 11475              	.LASF31:
 11476 05d9 41484231 		.ascii	"AHB1ENR\000"
 11476      454E5200 
 11477              	.LASF73:
 11478 05e1 67646973 		.ascii	"gdisp_orientation_t\000"
 11478      705F6F72 
 11478      69656E74 
 11478      6174696F 
 11478      6E5F7400 
 11479              	.LASF23:
 11480 05f5 43464752 		.ascii	"CFGR\000"
 11480      00
 11481              	.LASF81:
 11482 05fa 57696474 		.ascii	"Width\000"
 11482      6800
 11483              	.LASF71:
 11484 0600 47444953 		.ascii	"GDISP_ROTATE_180\000"
 11484      505F524F 
 11484      54415445 
 11484      5F313830 
 11484      00
 11485              	.LASF61:
 11486 0611 696F6D6F 		.ascii	"iomode_t\000"
 11486      64655F74 
 11486      00
 11487              	.LASF21:
 11488 061a 42544352 		.ascii	"BTCR\000"
 11488      00
 11489              		.ident	"GCC: (GNU Tools for ARM Embedded Processors) 4.7.4 20130613 (release) [ARM/embedded-4_7-br
ARM GAS  /tmp/ccZUWmXH.s 			page 208


DEFINED SYMBOLS
                            *ABS*:00000000 gdisp_lld.c
     /tmp/ccZUWmXH.s:21     .text.set_viewport:00000000 $t
     /tmp/ccZUWmXH.s:26     .text.set_viewport:00000000 set_viewport
     /tmp/ccZUWmXH.s:48     .text.set_viewport:00000010 $d
     /tmp/ccZUWmXH.s:52     .text.set_viewport:00000014 $t
     /tmp/ccZUWmXH.s:669    .text.set_viewport:00000184 $d
     /tmp/ccZUWmXH.s:673    .text.set_viewport:00000188 $t
     /tmp/ccZUWmXH.s:714    .text.set_viewport:000001b8 $d
     /tmp/ccZUWmXH.s:721    .text.gdisp_lld_init:00000000 $t
     /tmp/ccZUWmXH.s:727    .text.gdisp_lld_init:00000000 gdisp_lld_init
     /tmp/ccZUWmXH.s:3476   .rodata:00000000 .LANCHOR1
     /tmp/ccZUWmXH.s:3487   .bss.GDISP:00000000 .LANCHOR0
     /tmp/ccZUWmXH.s:1818   .text.gdisp_lld_draw_pixel:00000000 $t
     /tmp/ccZUWmXH.s:1824   .text.gdisp_lld_draw_pixel:00000000 gdisp_lld_draw_pixel
     /tmp/ccZUWmXH.s:1853   .text.gdisp_lld_draw_pixel:0000000e $d
     /tmp/ccZUWmXH.s:1857   .text.gdisp_lld_draw_pixel:00000012 $t
     /tmp/ccZUWmXH.s:2065   .text.gdisp_lld_draw_pixel:0000008c $d
     /tmp/ccZUWmXH.s:2074   .text.gdisp_lld_draw_circle:00000000 $t
     /tmp/ccZUWmXH.s:2080   .text.gdisp_lld_draw_circle:00000000 gdisp_lld_draw_circle
     /tmp/ccZUWmXH.s:2268   .text.gdisp_lld_clear:00000000 $t
     /tmp/ccZUWmXH.s:2274   .text.gdisp_lld_clear:00000000 gdisp_lld_clear
     /tmp/ccZUWmXH.s:2316   .text.gdisp_lld_clear:00000020 $d
     /tmp/ccZUWmXH.s:2320   .text.gdisp_lld_clear:00000024 $t
     /tmp/ccZUWmXH.s:2483   .text.gdisp_lld_clear:00000078 $d
     /tmp/ccZUWmXH.s:2493   .text.gdisp_lld_fill_area:00000000 $t
     /tmp/ccZUWmXH.s:2499   .text.gdisp_lld_fill_area:00000000 gdisp_lld_fill_area
     /tmp/ccZUWmXH.s:2589   .text.gdisp_lld_draw_line:00000000 $t
     /tmp/ccZUWmXH.s:2595   .text.gdisp_lld_draw_line:00000000 gdisp_lld_draw_line
     /tmp/ccZUWmXH.s:3120   .text.gdisp_lld_fill_circle:00000000 $t
     /tmp/ccZUWmXH.s:3126   .text.gdisp_lld_fill_circle:00000000 gdisp_lld_fill_circle
     /tmp/ccZUWmXH.s:3287   .text.gdisp_lld_blit_area_ex:00000000 $t
     /tmp/ccZUWmXH.s:3293   .text.gdisp_lld_blit_area_ex:00000000 gdisp_lld_blit_area_ex
     /tmp/ccZUWmXH.s:3490   .bss.GDISP:00000000 GDISP
     /tmp/ccZUWmXH.s:3475   .rodata:00000000 $d
     /tmp/ccZUWmXH.s:3486   .bss.GDISP:00000000 $d
                     .debug_frame:00000010 $d
     /tmp/ccZUWmXH.s:720    .text.set_viewport:000001bc $t
     /tmp/ccZUWmXH.s:2492   .text.gdisp_lld_clear:0000007c $t

UNDEFINED SYMBOLS
palSetBusMode
_pal_lld_setgroupmode
gfxSleepMilliseconds
gfxSleepMicroseconds
