ARM GAS  /tmp/ccZUWmXH.s 			page 1


   1              		.syntax unified
   2              		.cpu cortex-m4
   3              		.eabi_attribute 27, 3
   4              		.eabi_attribute 28, 1
   5              		.fpu fpv4-sp-d16
   6              		.eabi_attribute 20, 1
   7              		.eabi_attribute 21, 1
   8              		.eabi_attribute 23, 3
   9              		.eabi_attribute 24, 1
  10              		.eabi_attribute 25, 1
  11              		.eabi_attribute 26, 1
  12              		.eabi_attribute 30, 2
  13              		.eabi_attribute 34, 1
  14              		.eabi_attribute 18, 4
  15              		.thumb
  16              		.file	"gdisp_lld.c"
  17              		.text
  18              	.Ltext0:
  19              		.cfi_sections	.debug_frame
  20              		.section	.text.set_viewport,"ax",%progbits
  21              		.align	2
  22              		.p2align 4,,15
  23              		.thumb
  24              		.thumb_func
  25              		.type	set_viewport, %function
  26              	set_viewport:
  27              	.LFB130:
  28              		.file 1 "../../ext/ugfx/drivers/gdisp/SSD1289/gdisp_lld.c"
  29              		.loc 1 75 0
  30              		.cfi_startproc
  31              		@ args = 0, pretend = 0, frame = 0
  32              		@ frame_needed = 0, uses_anonymous_args = 0
  33              		@ link register save eliminated.
  34              	.LVL0:
  35 0000 70B4     		push	{r4, r5, r6}
  36              	.LCFI0:
  37              		.cfi_def_cfa_offset 12
  38              		.cfi_offset 4, -12
  39              		.cfi_offset 5, -8
  40              		.cfi_offset 6, -4
  41              		.loc 1 88 0
  42 0002 6D4C     		ldr	r4, .L19
  43 0004 2479     		ldrb	r4, [r4, #4]	@ zero_extendqisi2
  44 0006 032C     		cmp	r4, #3
  45 0008 00F2B780 		bhi	.L2
  46 000c DFE804F0 		tbb	[pc, r4]
  47              	.L7:
  48 0010 8E       		.byte	(.L3-.L7)/2
  49 0011 5C       		.byte	(.L4-.L7)/2
  50 0012 2A       		.byte	(.L5-.L7)/2
  51 0013 02       		.byte	(.L6-.L7)/2
  52              		.align	1
  53              	.L6:
  54              	.LVL1:
  55              		.loc 1 95 0
  56 0014 8518     		adds	r5, r0, r2
  57              		.loc 1 97 0
ARM GAS  /tmp/ccZUWmXH.s 			page 2


  58 0016 461E     		subs	r6, r0, #1
  59              		.loc 1 95 0
  60 0018 013D     		subs	r5, r5, #1
  61 001a C9B2     		uxtb	r1, r1
  62              	.LVL2:
  63              	.LBB428:
  64              	.LBB429:
  65              		.file 2 "./gdisp_lld_board.h"
  66              		.loc 2 153 0
  67 001c 0023     		movs	r3, #0
  68              	.LVL3:
  69              	.LBE429:
  70              	.LBE428:
  71              	.LBB432:
  72              	.LBB433:
  73              		.loc 2 144 0
  74 001e 4FF0C044 		mov	r4, #1610612736
  75              	.LBE433:
  76              	.LBE432:
  77              	.LBB435:
  78              	.LBB430:
  79              		.loc 2 153 0
  80 0022 C6F20203 		movt	r3, 24578
  81              	.LBE430:
  82              	.LBE435:
  83              		.loc 1 97 0
  84 0026 B218     		adds	r2, r6, r2
  85              	.LVL4:
  86              		.loc 1 95 0
  87 0028 41EA0526 		orr	r6, r1, r5, lsl #8
  88 002c B5B2     		uxth	r5, r6
  89              	.LBB436:
  90              	.LBB434:
  91              		.loc 2 144 0
  92 002e 4426     		movs	r6, #68
  93 0030 2680     		strh	r6, [r4, #0]	@ movhi
  94              	.LVL5:
  95              	.LBE434:
  96              	.LBE436:
  97              		.loc 1 96 0
  98 0032 C005     		lsls	r0, r0, #23
  99              	.LVL6:
 100              	.LBB437:
 101              	.LBB431:
 102              		.loc 2 153 0
 103 0034 1D80     		strh	r5, [r3, #0]	@ movhi
 104              	.LVL7:
 105              	.LBE431:
 106              	.LBE437:
 107              		.loc 1 97 0
 108 0036 D205     		lsls	r2, r2, #23
 109              	.LBB438:
 110              	.LBB439:
 111              		.loc 2 144 0
 112 0038 4525     		movs	r5, #69
 113              	.LVL8:
 114 003a 2580     		strh	r5, [r4, #0]	@ movhi
ARM GAS  /tmp/ccZUWmXH.s 			page 3


 115              	.LBE439:
 116              	.LBE438:
 117              		.loc 1 96 0
 118 003c C00D     		lsrs	r0, r0, #23
 119              	.LVL9:
 120              		.loc 1 97 0
 121 003e D20D     		lsrs	r2, r2, #23
 122              	.LBB440:
 123              	.LBB441:
 124              		.loc 2 144 0
 125 0040 4625     		movs	r5, #70
 126              	.LBE441:
 127              	.LBE440:
 128              	.LBB443:
 129              	.LBB444:
 130              		.loc 2 153 0
 131 0042 1880     		strh	r0, [r3, #0]	@ movhi
 132              	.LVL10:
 133              	.LBE444:
 134              	.LBE443:
 135              	.LBB445:
 136              	.LBB442:
 137              		.loc 2 144 0
 138 0044 2580     		strh	r5, [r4, #0]	@ movhi
 139              	.LVL11:
 140              	.LBE442:
 141              	.LBE445:
 142              	.LBB446:
 143              	.LBB447:
 144              		.loc 2 153 0
 145 0046 1A80     		strh	r2, [r3, #0]	@ movhi
 146              	.LVL12:
 147              	.L9:
 148              	.LBE447:
 149              	.LBE446:
 150              	.LBB448:
 151              	.LBB449:
 152              	.LBB450:
 153              	.LBB451:
 154 0048 0023     		movs	r3, #0
 155              	.LBE451:
 156              	.LBE450:
 157              	.LBB454:
 158              	.LBB455:
 159              		.loc 2 144 0
 160 004a 4FF0C042 		mov	r2, #1610612736
 161              	.LBE455:
 162              	.LBE454:
 163              	.LBB457:
 164              	.LBB452:
 165              		.loc 2 153 0
 166 004e C6F20203 		movt	r3, 24578
 167              	.LBE452:
 168              	.LBE457:
 169              		.loc 1 65 0
 170 0052 89B2     		uxth	r1, r1
 171              	.LVL13:
ARM GAS  /tmp/ccZUWmXH.s 			page 4


 172              	.LBB458:
 173              	.LBB456:
 174              		.loc 2 144 0
 175 0054 4E24     		movs	r4, #78
 176 0056 1480     		strh	r4, [r2, #0]	@ movhi
 177              	.LBE456:
 178              	.LBE458:
 179              	.LBB459:
 180              	.LBB453:
 181              		.loc 2 153 0
 182 0058 1980     		strh	r1, [r3, #0]	@ movhi
 183              	.LVL14:
 184              	.LBE453:
 185              	.LBE459:
 186              	.LBB460:
 187              	.LBB461:
 188              		.loc 2 144 0
 189 005a 4F21     		movs	r1, #79
 190              	.LVL15:
 191 005c 1180     		strh	r1, [r2, #0]	@ movhi
 192              	.LVL16:
 193              	.LBE461:
 194              	.LBE460:
 195              	.LBB462:
 196              	.LBB463:
 197              		.loc 2 153 0
 198 005e 1880     		strh	r0, [r3, #0]	@ movhi
 199              	.LVL17:
 200              	.L1:
 201              	.LBE463:
 202              	.LBE462:
 203              	.LBE449:
 204              	.LBE448:
 205              		.loc 1 112 0
 206 0060 70BC     		pop	{r4, r5, r6}
 207 0062 7047     		bx	lr
 208              	.LVL18:
 209              	.L5:
 210              		.loc 1 100 0
 211 0064 86B2     		uxth	r6, r0
 212 0066 C6F1F004 		rsb	r4, r6, #240
 213              		.loc 1 101 0
 214 006a 89B2     		uxth	r1, r1
 215              		.loc 1 100 0
 216 006c A21A     		subs	r2, r4, r2
 217              	.LVL19:
 218              		.loc 1 101 0
 219 006e C1F5A075 		rsb	r5, r1, #320
 220              		.loc 1 100 0
 221 0072 C0F1EF00 		rsb	r0, r0, #239
 222              	.LVL20:
 223 0076 D2B2     		uxtb	r2, r2
 224              	.LBB511:
 225              	.LBB512:
 226              		.loc 2 153 0
 227 0078 0024     		movs	r4, #0
 228 007a C6F20204 		movt	r4, 24578
ARM GAS  /tmp/ccZUWmXH.s 			page 5


 229              	.LBE512:
 230              	.LBE511:
 231              		.loc 1 101 0
 232 007e EB1A     		subs	r3, r5, r3
 233              	.LVL21:
 234              		.loc 1 100 0
 235 0080 42EA0022 		orr	r2, r2, r0, lsl #8
 236              	.LBB514:
 237              	.LBB515:
 238              		.loc 2 144 0
 239 0084 4FF0C045 		mov	r5, #1610612736
 240              	.LBE515:
 241              	.LBE514:
 242              		.loc 1 102 0
 243 0088 C1F59F71 		rsb	r1, r1, #318
 244              	.LVL22:
 245              		.loc 1 100 0
 246 008c 90B2     		uxth	r0, r2
 247              	.LVL23:
 248              		.loc 1 102 0
 249 008e 0131     		adds	r1, r1, #1
 250              		.loc 1 101 0
 251 0090 DB05     		lsls	r3, r3, #23
 252              	.LBB517:
 253              	.LBB516:
 254              		.loc 2 144 0
 255 0092 4422     		movs	r2, #68
 256              	.LVL24:
 257 0094 2A80     		strh	r2, [r5, #0]	@ movhi
 258              	.LBE516:
 259              	.LBE517:
 260              		.loc 1 101 0
 261 0096 DB0D     		lsrs	r3, r3, #23
 262              	.LBB518:
 263              	.LBB513:
 264              		.loc 2 153 0
 265 0098 2080     		strh	r0, [r4, #0]	@ movhi
 266              	.LVL25:
 267              	.LBE513:
 268              	.LBE518:
 269              		.loc 1 102 0
 270 009a C905     		lsls	r1, r1, #23
 271              	.LBB519:
 272              	.LBB520:
 273              		.loc 2 144 0
 274 009c 4520     		movs	r0, #69
 275              	.LVL26:
 276 009e 2880     		strh	r0, [r5, #0]	@ movhi
 277              	.LVL27:
 278              	.LBE520:
 279              	.LBE519:
 280              		.loc 1 102 0
 281 00a0 C90D     		lsrs	r1, r1, #23
 282              	.LBB521:
 283              	.LBB522:
 284              		.loc 2 153 0
 285 00a2 2380     		strh	r3, [r4, #0]	@ movhi
ARM GAS  /tmp/ccZUWmXH.s 			page 6


 286              	.LVL28:
 287              	.LBE522:
 288              	.LBE521:
 289              	.LBB523:
 290              	.LBB524:
 291              		.loc 2 144 0
 292 00a4 4623     		movs	r3, #70
 293              	.LVL29:
 294 00a6 2B80     		strh	r3, [r5, #0]	@ movhi
 295              	.LBE524:
 296              	.LBE523:
 297              	.LBB525:
 298              	.LBB526:
 299              		.loc 2 153 0
 300 00a8 2180     		strh	r1, [r4, #0]	@ movhi
 301              	.LVL30:
 302              	.L10:
 303              	.LBE526:
 304              	.LBE525:
 305              	.LBB527:
 306              	.LBB508:
 307              	.LBB464:
 308              	.LBB465:
 309              		.loc 2 144 0
 310 00aa 4FF0C042 		mov	r2, #1610612736
 311              	.LBE465:
 312              	.LBE464:
 313              		.loc 1 57 0
 314 00ae C6F1EF00 		rsb	r0, r6, #239
 315              	.LBB467:
 316              	.LBB468:
 317              		.loc 2 153 0
 318 00b2 0023     		movs	r3, #0
 319 00b4 C6F20203 		movt	r3, 24578
 320              	.LBE468:
 321              	.LBE467:
 322              		.loc 1 57 0
 323 00b8 C6B2     		uxtb	r6, r0
 324              	.LVL31:
 325              	.LBB470:
 326              	.LBB466:
 327              		.loc 2 144 0
 328 00ba 4E20     		movs	r0, #78
 329 00bc 1080     		strh	r0, [r2, #0]	@ movhi
 330              	.LBE466:
 331              	.LBE470:
 332              	.LBB471:
 333              	.LBB472:
 334 00be 4F20     		movs	r0, #79
 335              	.LBE472:
 336              	.LBE471:
 337              	.LBB474:
 338              	.LBB469:
 339              		.loc 2 153 0
 340 00c0 1E80     		strh	r6, [r3, #0]	@ movhi
 341              	.LVL32:
 342              	.LBE469:
ARM GAS  /tmp/ccZUWmXH.s 			page 7


 343              	.LBE474:
 344              	.LBB475:
 345              	.LBB473:
 346              		.loc 2 144 0
 347 00c2 1080     		strh	r0, [r2, #0]	@ movhi
 348              	.LVL33:
 349              	.LBE473:
 350              	.LBE475:
 351              	.LBB476:
 352              	.LBB477:
 353              		.loc 2 153 0
 354 00c4 1980     		strh	r1, [r3, #0]	@ movhi
 355 00c6 CBE7     		b	.L1
 356              	.LVL34:
 357              	.L4:
 358              	.LBE477:
 359              	.LBE476:
 360              	.LBE508:
 361              	.LBE527:
 362              		.loc 1 105 0
 363 00c8 8EB2     		uxth	r6, r1
 364 00ca C6F1F004 		rsb	r4, r6, #240
 365              		.loc 1 106 0
 366 00ce 80B2     		uxth	r0, r0
 367              		.loc 1 105 0
 368 00d0 E31A     		subs	r3, r4, r3
 369              	.LVL35:
 370              		.loc 1 106 0
 371 00d2 C0F5A075 		rsb	r5, r0, #320
 372              		.loc 1 105 0
 373 00d6 C1F1EF01 		rsb	r1, r1, #239
 374              	.LVL36:
 375 00da DBB2     		uxtb	r3, r3
 376              	.LBB528:
 377              	.LBB529:
 378              		.loc 2 153 0
 379 00dc 0024     		movs	r4, #0
 380 00de C6F20204 		movt	r4, 24578
 381              	.LBE529:
 382              	.LBE528:
 383              		.loc 1 106 0
 384 00e2 AA1A     		subs	r2, r5, r2
 385              	.LVL37:
 386              		.loc 1 105 0
 387 00e4 43EA0123 		orr	r3, r3, r1, lsl #8
 388              	.LBB531:
 389              	.LBB532:
 390              		.loc 2 144 0
 391 00e8 4FF0C045 		mov	r5, #1610612736
 392              	.LBE532:
 393              	.LBE531:
 394              		.loc 1 107 0
 395 00ec C0F59F70 		rsb	r0, r0, #318
 396              	.LVL38:
 397              		.loc 1 105 0
 398 00f0 99B2     		uxth	r1, r3
 399              	.LVL39:
ARM GAS  /tmp/ccZUWmXH.s 			page 8


 400              		.loc 1 107 0
 401 00f2 0130     		adds	r0, r0, #1
 402              		.loc 1 106 0
 403 00f4 D205     		lsls	r2, r2, #23
 404              	.LBB534:
 405              	.LBB533:
 406              		.loc 2 144 0
 407 00f6 4423     		movs	r3, #68
 408              	.LVL40:
 409 00f8 2B80     		strh	r3, [r5, #0]	@ movhi
 410              	.LBE533:
 411              	.LBE534:
 412              		.loc 1 106 0
 413 00fa D20D     		lsrs	r2, r2, #23
 414              	.LBB535:
 415              	.LBB530:
 416              		.loc 2 153 0
 417 00fc 2180     		strh	r1, [r4, #0]	@ movhi
 418              	.LVL41:
 419              	.LBE530:
 420              	.LBE535:
 421              		.loc 1 107 0
 422 00fe C005     		lsls	r0, r0, #23
 423              	.LBB536:
 424              	.LBB537:
 425              		.loc 2 144 0
 426 0100 4521     		movs	r1, #69
 427              	.LVL42:
 428 0102 2980     		strh	r1, [r5, #0]	@ movhi
 429              	.LVL43:
 430              	.LBE537:
 431              	.LBE536:
 432              		.loc 1 107 0
 433 0104 C00D     		lsrs	r0, r0, #23
 434              	.LBB538:
 435              	.LBB539:
 436              		.loc 2 153 0
 437 0106 2280     		strh	r2, [r4, #0]	@ movhi
 438              	.LVL44:
 439              	.LBE539:
 440              	.LBE538:
 441              	.LBB540:
 442              	.LBB541:
 443              		.loc 2 144 0
 444 0108 4622     		movs	r2, #70
 445              	.LVL45:
 446 010a 2A80     		strh	r2, [r5, #0]	@ movhi
 447              	.LBE541:
 448              	.LBE540:
 449              	.LBB542:
 450              	.LBB543:
 451              		.loc 2 153 0
 452 010c 2080     		strh	r0, [r4, #0]	@ movhi
 453              	.LVL46:
 454              	.L11:
 455              	.LBE543:
 456              	.LBE542:
ARM GAS  /tmp/ccZUWmXH.s 			page 9


 457              	.LBB544:
 458              	.LBB509:
 459              	.LBB478:
 460              	.LBB479:
 461              	.LBB480:
 462              	.LBB481:
 463              		.loc 2 144 0
 464 010e 4FF0C042 		mov	r2, #1610612736
 465              	.LBE481:
 466              	.LBE480:
 467              		.loc 1 69 0
 468 0112 C6F1EF01 		rsb	r1, r6, #239
 469              	.LBB483:
 470              	.LBB484:
 471              		.loc 2 153 0
 472 0116 0023     		movs	r3, #0
 473 0118 C6F20203 		movt	r3, 24578
 474              	.LBE484:
 475              	.LBE483:
 476              		.loc 1 69 0
 477 011c CEB2     		uxtb	r6, r1
 478              	.LVL47:
 479              	.LBB486:
 480              	.LBB482:
 481              		.loc 2 144 0
 482 011e 4E21     		movs	r1, #78
 483 0120 1180     		strh	r1, [r2, #0]	@ movhi
 484              	.LBE482:
 485              	.LBE486:
 486              	.LBB487:
 487              	.LBB488:
 488 0122 4F21     		movs	r1, #79
 489              	.LBE488:
 490              	.LBE487:
 491              	.LBB490:
 492              	.LBB485:
 493              		.loc 2 153 0
 494 0124 1E80     		strh	r6, [r3, #0]	@ movhi
 495              	.LVL48:
 496              	.LBE485:
 497              	.LBE490:
 498              	.LBB491:
 499              	.LBB489:
 500              		.loc 2 144 0
 501 0126 1180     		strh	r1, [r2, #0]	@ movhi
 502              	.LVL49:
 503              	.LBE489:
 504              	.LBE491:
 505              	.LBB492:
 506              	.LBB493:
 507              		.loc 2 153 0
 508 0128 1880     		strh	r0, [r3, #0]	@ movhi
 509 012a 99E7     		b	.L1
 510              	.LVL50:
 511              	.L3:
 512              	.LBE493:
 513              	.LBE492:
ARM GAS  /tmp/ccZUWmXH.s 			page 10


 514              	.LBE479:
 515              	.LBE478:
 516              	.LBE509:
 517              	.LBE544:
 518              		.loc 1 90 0
 519 012c 8618     		adds	r6, r0, r2
 520              		.loc 1 92 0
 521 012e 4D1E     		subs	r5, r1, #1
 522              		.loc 1 90 0
 523 0130 721E     		subs	r2, r6, #1
 524              	.LVL51:
 525 0132 C0B2     		uxtb	r0, r0
 526              	.LVL52:
 527              	.LBB545:
 528              	.LBB546:
 529              		.loc 2 153 0
 530 0134 0024     		movs	r4, #0
 531 0136 C6F20204 		movt	r4, 24578
 532              	.LBE546:
 533              	.LBE545:
 534              		.loc 1 92 0
 535 013a EB18     		adds	r3, r5, r3
 536              	.LVL53:
 537              		.loc 1 90 0
 538 013c 40EA0226 		orr	r6, r0, r2, lsl #8
 539              	.LBB548:
 540              	.LBB549:
 541              		.loc 2 144 0
 542 0140 4FF0C045 		mov	r5, #1610612736
 543              	.LBE549:
 544              	.LBE548:
 545              		.loc 1 90 0
 546 0144 B2B2     		uxth	r2, r6
 547              	.LVL54:
 548              	.LBB551:
 549              	.LBB550:
 550              		.loc 2 144 0
 551 0146 4426     		movs	r6, #68
 552              	.LVL55:
 553 0148 2E80     		strh	r6, [r5, #0]	@ movhi
 554              	.LBE550:
 555              	.LBE551:
 556              		.loc 1 91 0
 557 014a C905     		lsls	r1, r1, #23
 558              	.LVL56:
 559              	.LBB552:
 560              	.LBB547:
 561              		.loc 2 153 0
 562 014c 2280     		strh	r2, [r4, #0]	@ movhi
 563              	.LVL57:
 564              	.LBE547:
 565              	.LBE552:
 566              		.loc 1 92 0
 567 014e DB05     		lsls	r3, r3, #23
 568              	.LBB553:
 569              	.LBB554:
 570              		.loc 2 144 0
ARM GAS  /tmp/ccZUWmXH.s 			page 11


 571 0150 4522     		movs	r2, #69
 572              	.LVL58:
 573 0152 2A80     		strh	r2, [r5, #0]	@ movhi
 574              	.LBE554:
 575              	.LBE553:
 576              		.loc 1 91 0
 577 0154 C90D     		lsrs	r1, r1, #23
 578              	.LVL59:
 579              		.loc 1 92 0
 580 0156 DB0D     		lsrs	r3, r3, #23
 581              	.LBB555:
 582              	.LBB556:
 583              		.loc 2 144 0
 584 0158 4622     		movs	r2, #70
 585              	.LBE556:
 586              	.LBE555:
 587              	.LBB558:
 588              	.LBB559:
 589              		.loc 2 153 0
 590 015a 2180     		strh	r1, [r4, #0]	@ movhi
 591              	.LVL60:
 592              	.LBE559:
 593              	.LBE558:
 594              	.LBB560:
 595              	.LBB557:
 596              		.loc 2 144 0
 597 015c 2A80     		strh	r2, [r5, #0]	@ movhi
 598              	.LVL61:
 599              	.LBE557:
 600              	.LBE560:
 601              	.LBB561:
 602              	.LBB562:
 603              		.loc 2 153 0
 604 015e 2380     		strh	r3, [r4, #0]	@ movhi
 605              	.LVL62:
 606              	.L8:
 607              	.LBE562:
 608              	.LBE561:
 609              	.LBB563:
 610              	.LBB510:
 611              	.LBB494:
 612              	.LBB495:
 613 0160 0023     		movs	r3, #0
 614              	.LBE495:
 615              	.LBE494:
 616              	.LBB498:
 617              	.LBB499:
 618              		.loc 2 144 0
 619 0162 4FF0C042 		mov	r2, #1610612736
 620              	.LBE499:
 621              	.LBE498:
 622              	.LBB501:
 623              	.LBB496:
 624              		.loc 2 153 0
 625 0166 C6F20203 		movt	r3, 24578
 626              	.LBE496:
 627              	.LBE501:
ARM GAS  /tmp/ccZUWmXH.s 			page 12


 628              		.loc 1 61 0
 629 016a 80B2     		uxth	r0, r0
 630              	.LVL63:
 631              	.LBB502:
 632              	.LBB500:
 633              		.loc 2 144 0
 634 016c 4E24     		movs	r4, #78
 635 016e 1480     		strh	r4, [r2, #0]	@ movhi
 636              	.LBE500:
 637              	.LBE502:
 638              	.LBB503:
 639              	.LBB497:
 640              		.loc 2 153 0
 641 0170 1880     		strh	r0, [r3, #0]	@ movhi
 642              	.LVL64:
 643              	.LBE497:
 644              	.LBE503:
 645              	.LBB504:
 646              	.LBB505:
 647              		.loc 2 144 0
 648 0172 4F20     		movs	r0, #79
 649              	.LVL65:
 650 0174 1080     		strh	r0, [r2, #0]	@ movhi
 651              	.LVL66:
 652              	.LBE505:
 653              	.LBE504:
 654              	.LBB506:
 655              	.LBB507:
 656              		.loc 2 153 0
 657 0176 1980     		strh	r1, [r3, #0]	@ movhi
 658 0178 72E7     		b	.L1
 659              	.LVL67:
 660              	.L2:
 661              	.LBE507:
 662              	.LBE506:
 663              		.loc 1 55 0
 664 017a 032C     		cmp	r4, #3
 665 017c 3FF670AF 		bhi	.L1
 666 0180 DFE804F0 		tbb	[pc, r4]
 667              	.LVL68:
 668              	.L17:
 669 0184 06       		.byte	(.L13-.L17)/2
 670 0185 0A       		.byte	(.L14-.L17)/2
 671 0186 12       		.byte	(.L15-.L17)/2
 672 0187 02       		.byte	(.L16-.L17)/2
 673              		.align	1
 674              	.L16:
 675 0188 C005     		lsls	r0, r0, #23
 676              	.LVL69:
 677 018a C9B2     		uxtb	r1, r1
 678              	.LVL70:
 679 018c C00D     		lsrs	r0, r0, #23
 680 018e 5BE7     		b	.L9
 681              	.LVL71:
 682              	.L13:
 683 0190 CC05     		lsls	r4, r1, #23
 684 0192 C0B2     		uxtb	r0, r0
ARM GAS  /tmp/ccZUWmXH.s 			page 13


 685              	.LVL72:
 686 0194 E10D     		lsrs	r1, r4, #23
 687              	.LVL73:
 688 0196 E3E7     		b	.L8
 689              	.LVL74:
 690              	.L14:
 691 0198 85B2     		uxth	r5, r0
 692 019a C5F59F76 		rsb	r6, r5, #318
 693 019e 731C     		adds	r3, r6, #1
 694 01a0 DA05     		lsls	r2, r3, #23
 695              	.LVL75:
 696 01a2 8EB2     		uxth	r6, r1
 697 01a4 D00D     		lsrs	r0, r2, #23
 698              	.LVL76:
 699 01a6 B2E7     		b	.L11
 700              	.LVL77:
 701              	.L15:
 702 01a8 8DB2     		uxth	r5, r1
 703 01aa C5F59F76 		rsb	r6, r5, #318
 704 01ae 731C     		adds	r3, r6, #1
 705 01b0 DA05     		lsls	r2, r3, #23
 706              	.LVL78:
 707 01b2 86B2     		uxth	r6, r0
 708 01b4 D10D     		lsrs	r1, r2, #23
 709              	.LVL79:
 710 01b6 78E7     		b	.L10
 711              	.L20:
 712              		.align	2
 713              	.L19:
 714 01b8 00000000 		.word	.LANCHOR0
 715              	.LBE510:
 716              	.LBE563:
 717              		.cfi_endproc
 718              	.LFE130:
 719              		.size	set_viewport, .-set_viewport
 720 01bc AFF30080 		.section	.text.gdisp_lld_init,"ax",%progbits
 721              		.align	2
 722              		.p2align 4,,15
 723              		.global	gdisp_lld_init
 724              		.thumb
 725              		.thumb_func
 726              		.type	gdisp_lld_init, %function
 727              	gdisp_lld_init:
 728              	.LFB132:
 729              		.loc 1 137 0
 730              		.cfi_startproc
 731              		@ args = 0, pretend = 0, frame = 32
 732              		@ frame_needed = 0, uses_anonymous_args = 0
 733 0000 2DE9F04F 		push	{r4, r5, r6, r7, r8, r9, sl, fp, lr}
 734              	.LCFI1:
 735              		.cfi_def_cfa_offset 36
 736              		.cfi_offset 4, -36
 737              		.cfi_offset 5, -32
 738              		.cfi_offset 6, -28
 739              		.cfi_offset 7, -24
 740              		.cfi_offset 8, -20
 741              		.cfi_offset 9, -16
ARM GAS  /tmp/ccZUWmXH.s 			page 14


 742              		.cfi_offset 10, -12
 743              		.cfi_offset 11, -8
 744              		.cfi_offset 14, -4
 745              	.LBB734:
 746              	.LBB735:
 747              		.loc 2 72 0
 748 0004 40F20003 		movw	r3, #:lower16:.LANCHOR1
 749              		.loc 2 60 0
 750 0008 4FF46054 		mov	r4, #14336
 751 000c C4F20204 		movt	r4, 16386
 752              		.loc 2 72 0
 753 0010 C0F20003 		movt	r3, #:upper16:.LANCHOR1
 754 0014 93E80700 		ldmia	r3, {r0, r1, r2}
 755              		.loc 2 60 0
 756 0018 A66B     		ldr	r6, [r4, #56]
 757              	.LBE735:
 758              	.LBE734:
 759              		.loc 1 137 0
 760 001a 89B0     		sub	sp, sp, #36
 761              	.LCFI2:
 762              		.cfi_def_cfa_offset 72
 763              	.LBB739:
 764              	.LBB736:
 765              		.loc 2 75 0
 766 001c 0C33     		adds	r3, r3, #12
 767              		.loc 2 72 0
 768 001e 02AD     		add	r5, sp, #8
 769              		.loc 2 60 0
 770 0020 46F00107 		orr	r7, r6, #1
 771 0024 A763     		str	r7, [r4, #56]
 772              		.loc 2 72 0
 773 0026 85E80700 		stmia	r5, {r0, r1, r2}
 774              		.loc 2 75 0
 775 002a 93E80700 		ldmia	r3, {r0, r1, r2}
 776 002e 05AC     		add	r4, sp, #20
 777 0030 84E80700 		stmia	r4, {r0, r1, r2}
 778              		.loc 2 78 0
 779 0034 2846     		mov	r0, r5
 780 0036 40F20261 		movw	r1, #1538
 781 003a FFF7FEFF 		bl	palSetBusMode
 782              	.LVL80:
 783              		.loc 2 79 0
 784 003e 2046     		mov	r0, r4
 785 0040 40F20261 		movw	r1, #1538
 786 0044 FFF7FEFF 		bl	palSetBusMode
 787              	.LVL81:
 788              		.loc 2 82 0
 789 0048 40F60A27 		movw	r7, #2570
 790 004c 4FF02043 		mov	r3, #-1610612736
 791              		.loc 2 90 0
 792 0050 0026     		movs	r6, #0
 793              		.loc 2 82 0
 794 0052 C0F20A07 		movt	r7, 10
 795 0056 5F60     		str	r7, [r3, #4]
 796              		.loc 2 90 0
 797 0058 4FF48061 		mov	r1, #1024
 798 005c C4F20206 		movt	r6, 16386
ARM GAS  /tmp/ccZUWmXH.s 			page 15


 799              		.loc 2 88 0
 800 0060 41F21107 		movw	r7, #4113
 801 0064 1F60     		str	r7, [r3, #0]
 802              		.loc 2 90 0
 803 0066 1922     		movs	r2, #25
 804              	.LBE736:
 805              	.LBE739:
 806              	.LBB740:
 807              	.LBB741:
 808              		.loc 2 102 0
 809 0068 8846     		mov	r8, r1
 810              	.LBE741:
 811              	.LBE740:
 812              	.LBB743:
 813              	.LBB737:
 814              		.loc 2 90 0
 815 006a 3046     		mov	r0, r6
 816              	.LBE737:
 817              	.LBE743:
 818              	.LBB744:
 819              	.LBB745:
 820              		.loc 2 153 0
 821 006c 0024     		movs	r4, #0
 822              	.LBE745:
 823              	.LBE744:
 824              	.LBB749:
 825              	.LBB750:
 826              		.loc 2 144 0
 827 006e 4FF0C045 		mov	r5, #1610612736
 828              	.LBE750:
 829              	.LBE749:
 830              	.LBB753:
 831              	.LBB746:
 832              		.loc 2 153 0
 833 0072 C6F20204 		movt	r4, 24578
 834              	.LBE746:
 835              	.LBE753:
 836              	.LBB754:
 837              	.LBB738:
 838              		.loc 2 90 0
 839 0076 FFF7FEFF 		bl	_pal_lld_setgroupmode
 840              	.LVL82:
 841              	.LBE738:
 842              	.LBE754:
 843              		.loc 1 143 0
 844 007a 1420     		movs	r0, #20
 845              	.LBB755:
 846              	.LBB742:
 847              		.loc 2 102 0
 848 007c A6F81A80 		strh	r8, [r6, #26]	@ movhi
 849              	.LBE742:
 850              	.LBE755:
 851              	.LBB756:
 852              	.LBB751:
 853              		.loc 2 144 0
 854 0080 0027     		movs	r7, #0
 855              	.LBE751:
ARM GAS  /tmp/ccZUWmXH.s 			page 16


 856              	.LBE756:
 857              		.loc 1 143 0
 858 0082 FFF7FEFF 		bl	gfxSleepMilliseconds
 859              	.LVL83:
 860              	.LBB757:
 861              	.LBB747:
 862              		.loc 2 153 0
 863 0086 4FF00109 		mov	r9, #1
 864              	.LBE747:
 865              	.LBE757:
 866              		.loc 1 145 0
 867 008a 1420     		movs	r0, #20
 868              	.LBB758:
 869              	.LBB759:
 870              		.loc 2 104 0
 871 008c A6F81880 		strh	r8, [r6, #24]	@ movhi
 872              	.LBE759:
 873              	.LBE758:
 874              		.loc 1 145 0
 875 0090 FFF7FEFF 		bl	gfxSleepMilliseconds
 876              	.LVL84:
 877              	.LBB760:
 878              	.LBB752:
 879              		.loc 2 144 0
 880 0094 2F80     		strh	r7, [r5, #0]	@ movhi
 881              	.LVL85:
 882              	.LBE752:
 883              	.LBE760:
 884              		.loc 1 150 0
 885 0096 0520     		movs	r0, #5
 886              	.LBB761:
 887              	.LBB748:
 888              		.loc 2 153 0
 889 0098 A4F80090 		strh	r9, [r4, #0]	@ movhi
 890              	.LBE748:
 891              	.LBE761:
 892              		.loc 1 150 0
 893 009c FFF7FEFF 		bl	gfxSleepMicroseconds
 894              	.LVL86:
 895              	.LBB762:
 896              	.LBB763:
 897              		.loc 2 144 0
 898 00a0 4FF0030A 		mov	sl, #3
 899              	.LBE763:
 900              	.LBE762:
 901              	.LBB765:
 902              	.LBB766:
 903              		.loc 2 153 0
 904 00a4 4AF6A401 		movw	r1, #43172
 905              	.LBE766:
 906              	.LBE765:
 907              	.LBB768:
 908              	.LBB764:
 909              		.loc 2 144 0
 910 00a8 A5F800A0 		strh	sl, [r5, #0]	@ movhi
 911              	.LVL87:
 912              	.LBE764:
ARM GAS  /tmp/ccZUWmXH.s 			page 17


 913              	.LBE768:
 914              		.loc 1 151 0
 915 00ac 0520     		movs	r0, #5
 916              	.LBB769:
 917              	.LBB767:
 918              		.loc 2 153 0
 919 00ae 2180     		strh	r1, [r4, #0]	@ movhi
 920              	.LBE767:
 921              	.LBE769:
 922              		.loc 1 151 0
 923 00b0 FFF7FEFF 		bl	gfxSleepMicroseconds
 924              	.LVL88:
 925              	.LBB770:
 926              	.LBB771:
 927              		.loc 2 144 0
 928 00b4 0C20     		movs	r0, #12
 929 00b6 2880     		strh	r0, [r5, #0]	@ movhi
 930              	.LVL89:
 931              	.LBE771:
 932              	.LBE770:
 933              		.loc 1 152 0
 934 00b8 0520     		movs	r0, #5
 935              	.LBB772:
 936              	.LBB773:
 937              		.loc 2 153 0
 938 00ba 2780     		strh	r7, [r4, #0]	@ movhi
 939              	.LBE773:
 940              	.LBE772:
 941              		.loc 1 152 0
 942 00bc FFF7FEFF 		bl	gfxSleepMicroseconds
 943              	.LVL90:
 944              	.LBB774:
 945              	.LBB775:
 946              		.loc 2 153 0
 947 00c0 40F60C06 		movw	r6, #2060
 948              	.LBE775:
 949              	.LBE774:
 950              	.LBB777:
 951              	.LBB778:
 952              		.loc 2 144 0
 953 00c4 0D22     		movs	r2, #13
 954 00c6 2A80     		strh	r2, [r5, #0]	@ movhi
 955              	.LVL91:
 956              	.LBE778:
 957              	.LBE777:
 958              		.loc 1 153 0
 959 00c8 0520     		movs	r0, #5
 960              	.LBB779:
 961              	.LBB776:
 962              		.loc 2 153 0
 963 00ca 2680     		strh	r6, [r4, #0]	@ movhi
 964              	.LBE776:
 965              	.LBE779:
 966              		.loc 1 153 0
 967 00cc FFF7FEFF 		bl	gfxSleepMicroseconds
 968              	.LVL92:
 969              	.LBB780:
ARM GAS  /tmp/ccZUWmXH.s 			page 18


 970              	.LBB781:
 971              		.loc 2 144 0
 972 00d0 0E23     		movs	r3, #14
 973              	.LBE781:
 974              	.LBE780:
 975              	.LBB783:
 976              	.LBB784:
 977              		.loc 2 153 0
 978 00d2 4FF42C51 		mov	r1, #11008
 979              	.LBE784:
 980              	.LBE783:
 981              	.LBB786:
 982              	.LBB782:
 983              		.loc 2 144 0
 984 00d6 2B80     		strh	r3, [r5, #0]	@ movhi
 985              	.LVL93:
 986              	.LBE782:
 987              	.LBE786:
 988              		.loc 1 154 0
 989 00d8 0520     		movs	r0, #5
 990              	.LBB787:
 991              	.LBB785:
 992              		.loc 2 153 0
 993 00da 2180     		strh	r1, [r4, #0]	@ movhi
 994              	.LBE785:
 995              	.LBE787:
 996              		.loc 1 154 0
 997 00dc FFF7FEFF 		bl	gfxSleepMicroseconds
 998              	.LVL94:
 999              	.LBB788:
 1000              	.LBB789:
 1001              		.loc 2 153 0
 1002 00e0 B022     		movs	r2, #176
 1003              	.LBE789:
 1004              	.LBE788:
 1005              	.LBB791:
 1006              	.LBB792:
 1007              		.loc 2 144 0
 1008 00e2 1E20     		movs	r0, #30
 1009 00e4 2880     		strh	r0, [r5, #0]	@ movhi
 1010              	.LVL95:
 1011              	.LBE792:
 1012              	.LBE791:
 1013              	.LBB793:
 1014              	.LBB794:
 1015              		.loc 2 153 0
 1016 00e6 42F63F36 		movw	r6, #11071
 1017              	.LBE794:
 1018              	.LBE793:
 1019              	.LBB796:
 1020              	.LBB790:
 1021 00ea 2280     		strh	r2, [r4, #0]	@ movhi
 1022              	.LBE790:
 1023              	.LBE796:
 1024              		.loc 1 155 0
 1025 00ec 0520     		movs	r0, #5
 1026 00ee FFF7FEFF 		bl	gfxSleepMicroseconds
ARM GAS  /tmp/ccZUWmXH.s 			page 19


 1027              	.LVL96:
 1028              	.LBB797:
 1029              	.LBB798:
 1030              		.loc 2 144 0
 1031 00f2 A5F80090 		strh	r9, [r5, #0]	@ movhi
 1032              	.LVL97:
 1033              	.LBE798:
 1034              	.LBE797:
 1035              		.loc 1 156 0
 1036 00f6 0520     		movs	r0, #5
 1037              	.LBB799:
 1038              	.LBB795:
 1039              		.loc 2 153 0
 1040 00f8 2680     		strh	r6, [r4, #0]	@ movhi
 1041              	.LBE795:
 1042              	.LBE799:
 1043              		.loc 1 156 0
 1044 00fa FFF7FEFF 		bl	gfxSleepMicroseconds
 1045              	.LVL98:
 1046              	.LBB800:
 1047              	.LBB801:
 1048              		.loc 2 153 0
 1049 00fe 4FF4C061 		mov	r1, #1536
 1050              	.LBE801:
 1051              	.LBE800:
 1052              	.LBB803:
 1053              	.LBB804:
 1054              		.loc 2 144 0
 1055 0102 0223     		movs	r3, #2
 1056 0104 2B80     		strh	r3, [r5, #0]	@ movhi
 1057              	.LVL99:
 1058              	.LBE804:
 1059              	.LBE803:
 1060              		.loc 1 157 0
 1061 0106 0520     		movs	r0, #5
 1062              	.LBB805:
 1063              	.LBB802:
 1064              		.loc 2 153 0
 1065 0108 2180     		strh	r1, [r4, #0]	@ movhi
 1066              	.LBE802:
 1067              	.LBE805:
 1068              		.loc 1 157 0
 1069 010a FFF7FEFF 		bl	gfxSleepMicroseconds
 1070              	.LVL100:
 1071              	.LBB806:
 1072              	.LBB807:
 1073              		.loc 2 144 0
 1074 010e 1020     		movs	r0, #16
 1075 0110 2880     		strh	r0, [r5, #0]	@ movhi
 1076              	.LVL101:
 1077              	.LBE807:
 1078              	.LBE806:
 1079              		.loc 1 158 0
 1080 0112 0520     		movs	r0, #5
 1081              	.LBB808:
 1082              	.LBB809:
 1083              		.loc 2 153 0
ARM GAS  /tmp/ccZUWmXH.s 			page 20


 1084 0114 2780     		strh	r7, [r4, #0]	@ movhi
 1085              	.LBE809:
 1086              	.LBE808:
 1087              	.LBB810:
 1088              	.LBB811:
 1089              		.loc 2 144 0
 1090 0116 0526     		movs	r6, #5
 1091              	.LBE811:
 1092              	.LBE810:
 1093              		.loc 1 158 0
 1094 0118 FFF7FEFF 		bl	gfxSleepMicroseconds
 1095              	.LVL102:
 1096              	.LBB813:
 1097              	.LBB814:
 1098              		.loc 2 144 0
 1099 011c 1122     		movs	r2, #17
 1100              	.LBE814:
 1101              	.LBE813:
 1102              	.LBB816:
 1103              	.LBB817:
 1104              		.loc 2 153 0
 1105 011e 46F27003 		movw	r3, #24688
 1106              	.LBE817:
 1107              	.LBE816:
 1108              	.LBB819:
 1109              	.LBB815:
 1110              		.loc 2 144 0
 1111 0122 2A80     		strh	r2, [r5, #0]	@ movhi
 1112              	.LVL103:
 1113              	.LBE815:
 1114              	.LBE819:
 1115              		.loc 1 159 0
 1116 0124 3046     		mov	r0, r6
 1117              	.LBB820:
 1118              	.LBB818:
 1119              		.loc 2 153 0
 1120 0126 2380     		strh	r3, [r4, #0]	@ movhi
 1121              	.LBE818:
 1122              	.LBE820:
 1123              		.loc 1 159 0
 1124 0128 FFF7FEFF 		bl	gfxSleepMicroseconds
 1125              	.LVL104:
 1126              	.LBB821:
 1127              	.LBB812:
 1128              		.loc 2 144 0
 1129 012c 2E80     		strh	r6, [r5, #0]	@ movhi
 1130              	.LVL105:
 1131              	.LBE812:
 1132              	.LBE821:
 1133              		.loc 1 160 0
 1134 012e 3046     		mov	r0, r6
 1135              	.LBB822:
 1136              	.LBB823:
 1137              		.loc 2 153 0
 1138 0130 2780     		strh	r7, [r4, #0]	@ movhi
 1139              	.LBE823:
 1140              	.LBE822:
ARM GAS  /tmp/ccZUWmXH.s 			page 21


 1141              		.loc 1 160 0
 1142 0132 FFF7FEFF 		bl	gfxSleepMicroseconds
 1143              	.LVL106:
 1144              	.LBB824:
 1145              	.LBB825:
 1146              		.loc 2 144 0
 1147 0136 0621     		movs	r1, #6
 1148 0138 2980     		strh	r1, [r5, #0]	@ movhi
 1149              	.LVL107:
 1150              	.LBE825:
 1151              	.LBE824:
 1152              		.loc 1 161 0
 1153 013a 3046     		mov	r0, r6
 1154              	.LBB826:
 1155              	.LBB827:
 1156              		.loc 2 153 0
 1157 013c 2780     		strh	r7, [r4, #0]	@ movhi
 1158              	.LBE827:
 1159              	.LBE826:
 1160              		.loc 1 161 0
 1161 013e FFF7FEFF 		bl	gfxSleepMicroseconds
 1162              	.LVL108:
 1163              	.LBB828:
 1164              	.LBB829:
 1165              		.loc 2 153 0
 1166 0142 4EF61C72 		movw	r2, #61212
 1167              	.LBE829:
 1168              	.LBE828:
 1169              	.LBB831:
 1170              	.LBB832:
 1171              		.loc 2 144 0
 1172 0146 1620     		movs	r0, #22
 1173 0148 2880     		strh	r0, [r5, #0]	@ movhi
 1174              	.LVL109:
 1175              	.LBE832:
 1176              	.LBE831:
 1177              	.LBB833:
 1178              	.LBB830:
 1179              		.loc 2 153 0
 1180 014a 2280     		strh	r2, [r4, #0]	@ movhi
 1181              	.LBE830:
 1182              	.LBE833:
 1183              		.loc 1 162 0
 1184 014c 3046     		mov	r0, r6
 1185 014e FFF7FEFF 		bl	gfxSleepMicroseconds
 1186              	.LVL110:
 1187              	.LBB834:
 1188              	.LBB835:
 1189              		.loc 2 144 0
 1190 0152 1723     		movs	r3, #23
 1191 0154 2B80     		strh	r3, [r5, #0]	@ movhi
 1192              	.LVL111:
 1193              	.LBE835:
 1194              	.LBE834:
 1195              		.loc 1 163 0
 1196 0156 3046     		mov	r0, r6
 1197              	.LBB836:
ARM GAS  /tmp/ccZUWmXH.s 			page 22


 1198              	.LBB837:
 1199              		.loc 2 153 0
 1200 0158 A4F800A0 		strh	sl, [r4, #0]	@ movhi
 1201              	.LBE837:
 1202              	.LBE836:
 1203              		.loc 1 163 0
 1204 015c FFF7FEFF 		bl	gfxSleepMicroseconds
 1205              	.LVL112:
 1206              	.LBB838:
 1207              	.LBB839:
 1208              		.loc 2 144 0
 1209 0160 0721     		movs	r1, #7
 1210              	.LBE839:
 1211              	.LBE838:
 1212              	.LBB841:
 1213              	.LBB842:
 1214              		.loc 2 153 0
 1215 0162 01F59672 		add	r2, r1, #300
 1216              	.LBE842:
 1217              	.LBE841:
 1218              	.LBB844:
 1219              	.LBB840:
 1220              		.loc 2 144 0
 1221 0166 2980     		strh	r1, [r5, #0]	@ movhi
 1222              	.LVL113:
 1223              	.LBE840:
 1224              	.LBE844:
 1225              		.loc 1 164 0
 1226 0168 3046     		mov	r0, r6
 1227              	.LBB845:
 1228              	.LBB843:
 1229              		.loc 2 153 0
 1230 016a 2280     		strh	r2, [r4, #0]	@ movhi
 1231              	.LBE843:
 1232              	.LBE845:
 1233              		.loc 1 164 0
 1234 016c FFF7FEFF 		bl	gfxSleepMicroseconds
 1235              	.LVL114:
 1236              	.LBB846:
 1237              	.LBB847:
 1238              		.loc 2 144 0
 1239 0170 0B20     		movs	r0, #11
 1240 0172 2880     		strh	r0, [r5, #0]	@ movhi
 1241              	.LVL115:
 1242              	.LBE847:
 1243              	.LBE846:
 1244              		.loc 1 165 0
 1245 0174 3046     		mov	r0, r6
 1246              	.LBB848:
 1247              	.LBB849:
 1248              		.loc 2 153 0
 1249 0176 2780     		strh	r7, [r4, #0]	@ movhi
 1250              	.LBE849:
 1251              	.LBE848:
 1252              		.loc 1 165 0
 1253 0178 FFF7FEFF 		bl	gfxSleepMicroseconds
 1254              	.LVL116:
ARM GAS  /tmp/ccZUWmXH.s 			page 23


 1255              	.LBB850:
 1256              	.LBB851:
 1257              		.loc 2 144 0
 1258 017c 0F23     		movs	r3, #15
 1259 017e 2B80     		strh	r3, [r5, #0]	@ movhi
 1260              	.LVL117:
 1261              	.LBE851:
 1262              	.LBE850:
 1263              		.loc 1 166 0
 1264 0180 3046     		mov	r0, r6
 1265              	.LBB852:
 1266              	.LBB853:
 1267              		.loc 2 153 0
 1268 0182 2780     		strh	r7, [r4, #0]	@ movhi
 1269              	.LBE853:
 1270              	.LBE852:
 1271              		.loc 1 166 0
 1272 0184 FFF7FEFF 		bl	gfxSleepMicroseconds
 1273              	.LVL118:
 1274              	.LBB854:
 1275              	.LBB855:
 1276              		.loc 2 144 0
 1277 0188 4121     		movs	r1, #65
 1278 018a 2980     		strh	r1, [r5, #0]	@ movhi
 1279              	.LVL119:
 1280              	.LBE855:
 1281              	.LBE854:
 1282              		.loc 1 167 0
 1283 018c 3046     		mov	r0, r6
 1284              	.LBB856:
 1285              	.LBB857:
 1286              		.loc 2 153 0
 1287 018e 2780     		strh	r7, [r4, #0]	@ movhi
 1288              	.LBE857:
 1289              	.LBE856:
 1290              		.loc 1 167 0
 1291 0190 FFF7FEFF 		bl	gfxSleepMicroseconds
 1292              	.LVL120:
 1293              	.LBB858:
 1294              	.LBB859:
 1295              		.loc 2 144 0
 1296 0194 4222     		movs	r2, #66
 1297 0196 2A80     		strh	r2, [r5, #0]	@ movhi
 1298              	.LVL121:
 1299              	.LBE859:
 1300              	.LBE858:
 1301              		.loc 1 168 0
 1302 0198 3046     		mov	r0, r6
 1303              	.LBB860:
 1304              	.LBB861:
 1305              		.loc 2 153 0
 1306 019a 2780     		strh	r7, [r4, #0]	@ movhi
 1307              	.LBE861:
 1308              	.LBE860:
 1309              		.loc 1 168 0
 1310 019c FFF7FEFF 		bl	gfxSleepMicroseconds
 1311              	.LVL122:
ARM GAS  /tmp/ccZUWmXH.s 			page 24


 1312              	.LBB862:
 1313              	.LBB863:
 1314              		.loc 2 144 0
 1315 01a0 4820     		movs	r0, #72
 1316 01a2 2880     		strh	r0, [r5, #0]	@ movhi
 1317              	.LVL123:
 1318              	.LBE863:
 1319              	.LBE862:
 1320              		.loc 1 169 0
 1321 01a4 3046     		mov	r0, r6
 1322              	.LBB864:
 1323              	.LBB865:
 1324              		.loc 2 153 0
 1325 01a6 2780     		strh	r7, [r4, #0]	@ movhi
 1326              	.LBE865:
 1327              	.LBE864:
 1328              		.loc 1 169 0
 1329 01a8 FFF7FEFF 		bl	gfxSleepMicroseconds
 1330              	.LVL124:
 1331              	.LBB866:
 1332              	.LBB867:
 1333              		.loc 2 153 0
 1334 01ac 40F23F1B 		movw	fp, #319
 1335              	.LBE867:
 1336              	.LBE866:
 1337              	.LBB869:
 1338              	.LBB870:
 1339              		.loc 2 144 0
 1340 01b0 4923     		movs	r3, #73
 1341 01b2 2B80     		strh	r3, [r5, #0]	@ movhi
 1342              	.LVL125:
 1343              	.LBE870:
 1344              	.LBE869:
 1345              		.loc 1 170 0
 1346 01b4 3046     		mov	r0, r6
 1347              	.LBB871:
 1348              	.LBB868:
 1349              		.loc 2 153 0
 1350 01b6 A4F800B0 		strh	fp, [r4, #0]	@ movhi
 1351              	.LBE868:
 1352              	.LBE871:
 1353              		.loc 1 170 0
 1354 01ba FFF7FEFF 		bl	gfxSleepMicroseconds
 1355              	.LVL126:
 1356              	.LBB872:
 1357              	.LBB873:
 1358              		.loc 2 144 0
 1359 01be 4A21     		movs	r1, #74
 1360 01c0 2980     		strh	r1, [r5, #0]	@ movhi
 1361              	.LVL127:
 1362              	.LBE873:
 1363              	.LBE872:
 1364              		.loc 1 171 0
 1365 01c2 3046     		mov	r0, r6
 1366              	.LBB874:
 1367              	.LBB875:
 1368              		.loc 2 153 0
ARM GAS  /tmp/ccZUWmXH.s 			page 25


 1369 01c4 2780     		strh	r7, [r4, #0]	@ movhi
 1370              	.LBE875:
 1371              	.LBE874:
 1372              		.loc 1 171 0
 1373 01c6 FFF7FEFF 		bl	gfxSleepMicroseconds
 1374              	.LVL128:
 1375              	.LBB876:
 1376              	.LBB877:
 1377              		.loc 2 144 0
 1378 01ca 4B22     		movs	r2, #75
 1379 01cc 2A80     		strh	r2, [r5, #0]	@ movhi
 1380              	.LVL129:
 1381              	.LBE877:
 1382              	.LBE876:
 1383              		.loc 1 172 0
 1384 01ce 3046     		mov	r0, r6
 1385              	.LBB878:
 1386              	.LBB879:
 1387              		.loc 2 153 0
 1388 01d0 2780     		strh	r7, [r4, #0]	@ movhi
 1389              	.LBE879:
 1390              	.LBE878:
 1391              		.loc 1 172 0
 1392 01d2 FFF7FEFF 		bl	gfxSleepMicroseconds
 1393              	.LVL130:
 1394              	.LBB880:
 1395              	.LBB881:
 1396              		.loc 2 153 0
 1397 01d6 4FF46F43 		mov	r3, #61184
 1398              	.LBE881:
 1399              	.LBE880:
 1400              	.LBB883:
 1401              	.LBB884:
 1402              		.loc 2 144 0
 1403 01da 4420     		movs	r0, #68
 1404 01dc 2880     		strh	r0, [r5, #0]	@ movhi
 1405              	.LVL131:
 1406              	.LBE884:
 1407              	.LBE883:
 1408              	.LBB885:
 1409              	.LBB882:
 1410              		.loc 2 153 0
 1411 01de 2380     		strh	r3, [r4, #0]	@ movhi
 1412              	.LBE882:
 1413              	.LBE885:
 1414              		.loc 1 173 0
 1415 01e0 3046     		mov	r0, r6
 1416 01e2 FFF7FEFF 		bl	gfxSleepMicroseconds
 1417              	.LVL132:
 1418              	.LBB886:
 1419              	.LBB887:
 1420              		.loc 2 144 0
 1421 01e6 4521     		movs	r1, #69
 1422 01e8 2980     		strh	r1, [r5, #0]	@ movhi
 1423              	.LVL133:
 1424              	.LBE887:
 1425              	.LBE886:
ARM GAS  /tmp/ccZUWmXH.s 			page 26


 1426              		.loc 1 174 0
 1427 01ea 3046     		mov	r0, r6
 1428              	.LBB888:
 1429              	.LBB889:
 1430              		.loc 2 153 0
 1431 01ec 2780     		strh	r7, [r4, #0]	@ movhi
 1432              	.LBE889:
 1433              	.LBE888:
 1434              		.loc 1 174 0
 1435 01ee FFF7FEFF 		bl	gfxSleepMicroseconds
 1436              	.LVL134:
 1437              	.LBB890:
 1438              	.LBB891:
 1439              		.loc 2 144 0
 1440 01f2 4622     		movs	r2, #70
 1441 01f4 2A80     		strh	r2, [r5, #0]	@ movhi
 1442              	.LVL135:
 1443              	.LBE891:
 1444              	.LBE890:
 1445              		.loc 1 175 0
 1446 01f6 3046     		mov	r0, r6
 1447              	.LBB892:
 1448              	.LBB893:
 1449              		.loc 2 153 0
 1450 01f8 A4F800B0 		strh	fp, [r4, #0]	@ movhi
 1451              	.LBE893:
 1452              	.LBE892:
 1453              		.loc 1 175 0
 1454 01fc FFF7FEFF 		bl	gfxSleepMicroseconds
 1455              	.LVL136:
 1456              	.LBB894:
 1457              	.LBB895:
 1458              		.loc 2 153 0
 1459 0200 40F20773 		movw	r3, #1799
 1460              	.LBE895:
 1461              	.LBE894:
 1462              	.LBB897:
 1463              	.LBB898:
 1464              		.loc 2 144 0
 1465 0204 3020     		movs	r0, #48
 1466 0206 2880     		strh	r0, [r5, #0]	@ movhi
 1467              	.LVL137:
 1468              	.LBE898:
 1469              	.LBE897:
 1470              	.LBB899:
 1471              	.LBB896:
 1472              		.loc 2 153 0
 1473 0208 2380     		strh	r3, [r4, #0]	@ movhi
 1474              	.LBE896:
 1475              	.LBE899:
 1476              		.loc 1 176 0
 1477 020a 3046     		mov	r0, r6
 1478 020c FFF7FEFF 		bl	gfxSleepMicroseconds
 1479              	.LVL138:
 1480              	.LBB900:
 1481              	.LBB901:
 1482              		.loc 2 153 0
ARM GAS  /tmp/ccZUWmXH.s 			page 27


 1483 0210 4FF40178 		mov	r8, #516
 1484              	.LBE901:
 1485              	.LBE900:
 1486              	.LBB903:
 1487              	.LBB904:
 1488              		.loc 2 144 0
 1489 0214 3121     		movs	r1, #49
 1490 0216 2980     		strh	r1, [r5, #0]	@ movhi
 1491              	.LVL139:
 1492              	.LBE904:
 1493              	.LBE903:
 1494              		.loc 1 177 0
 1495 0218 3046     		mov	r0, r6
 1496              	.LBB905:
 1497              	.LBB902:
 1498              		.loc 2 153 0
 1499 021a A4F80080 		strh	r8, [r4, #0]	@ movhi
 1500              	.LBE902:
 1501              	.LBE905:
 1502              		.loc 1 177 0
 1503 021e FFF7FEFF 		bl	gfxSleepMicroseconds
 1504              	.LVL140:
 1505              	.LBB906:
 1506              	.LBB907:
 1507              		.loc 2 144 0
 1508 0222 3222     		movs	r2, #50
 1509 0224 2A80     		strh	r2, [r5, #0]	@ movhi
 1510              	.LVL141:
 1511 0226 1346     		mov	r3, r2	@ movhi
 1512              	.LBE907:
 1513              	.LBE906:
 1514              	.LBB908:
 1515              	.LBB909:
 1516              		.loc 2 153 0
 1517 0228 A4F80080 		strh	r8, [r4, #0]	@ movhi
 1518              	.LBE909:
 1519              	.LBE908:
 1520              		.loc 1 178 0
 1521 022c 3046     		mov	r0, r6
 1522 022e 0193     		str	r3, [sp, #4]
 1523              	.LBB910:
 1524              	.LBB911:
 1525              		.loc 2 153 0
 1526 0230 40F2025B 		movw	fp, #1282
 1527              	.LBE911:
 1528              	.LBE910:
 1529              		.loc 1 178 0
 1530 0234 FFF7FEFF 		bl	gfxSleepMicroseconds
 1531              	.LVL142:
 1532              	.LBB913:
 1533              	.LBB914:
 1534              		.loc 2 144 0
 1535 0238 3320     		movs	r0, #51
 1536 023a 2880     		strh	r0, [r5, #0]	@ movhi
 1537              	.LVL143:
 1538              	.LBE914:
 1539              	.LBE913:
ARM GAS  /tmp/ccZUWmXH.s 			page 28


 1540              		.loc 1 179 0
 1541 023c 3046     		mov	r0, r6
 1542              	.LBB915:
 1543              	.LBB912:
 1544              		.loc 2 153 0
 1545 023e A4F800B0 		strh	fp, [r4, #0]	@ movhi
 1546              	.LBE912:
 1547              	.LBE915:
 1548              		.loc 1 179 0
 1549 0242 FFF7FEFF 		bl	gfxSleepMicroseconds
 1550              	.LVL144:
 1551              	.LBB916:
 1552              	.LBB917:
 1553              		.loc 2 144 0
 1554 0246 3421     		movs	r1, #52
 1555              	.LBE917:
 1556              	.LBE916:
 1557              	.LBB919:
 1558              	.LBB920:
 1559              		.loc 2 153 0
 1560 0248 40F20752 		movw	r2, #1287
 1561              	.LBE920:
 1562              	.LBE919:
 1563              	.LBB922:
 1564              	.LBB918:
 1565              		.loc 2 144 0
 1566 024c 2980     		strh	r1, [r5, #0]	@ movhi
 1567              	.LVL145:
 1568              	.LBE918:
 1569              	.LBE922:
 1570              		.loc 1 180 0
 1571 024e 3046     		mov	r0, r6
 1572              	.LBB923:
 1573              	.LBB921:
 1574              		.loc 2 153 0
 1575 0250 2280     		strh	r2, [r4, #0]	@ movhi
 1576              	.LBE921:
 1577              	.LBE923:
 1578              		.loc 1 180 0
 1579 0252 FFF7FEFF 		bl	gfxSleepMicroseconds
 1580              	.LVL146:
 1581              	.LBB924:
 1582              	.LBB925:
 1583              		.loc 2 144 0
 1584 0256 3523     		movs	r3, #53
 1585 0258 2B80     		strh	r3, [r5, #0]	@ movhi
 1586              	.LVL147:
 1587              	.LBE925:
 1588              	.LBE924:
 1589              		.loc 1 181 0
 1590 025a 3046     		mov	r0, r6
 1591              	.LBB926:
 1592              	.LBB927:
 1593              		.loc 2 153 0
 1594 025c A4F80080 		strh	r8, [r4, #0]	@ movhi
 1595              	.LBE927:
 1596              	.LBE926:
ARM GAS  /tmp/ccZUWmXH.s 			page 29


 1597              		.loc 1 181 0
 1598 0260 FFF7FEFF 		bl	gfxSleepMicroseconds
 1599              	.LVL148:
 1600              	.LBB928:
 1601              	.LBB929:
 1602              		.loc 2 144 0
 1603 0264 3620     		movs	r0, #54
 1604 0266 2880     		strh	r0, [r5, #0]	@ movhi
 1605              	.LVL149:
 1606              	.LBE929:
 1607              	.LBE928:
 1608              		.loc 1 182 0
 1609 0268 3046     		mov	r0, r6
 1610              	.LBB930:
 1611              	.LBB931:
 1612              		.loc 2 153 0
 1613 026a A4F80080 		strh	r8, [r4, #0]	@ movhi
 1614              	.LBE931:
 1615              	.LBE930:
 1616              		.loc 1 182 0
 1617 026e FFF7FEFF 		bl	gfxSleepMicroseconds
 1618              	.LVL150:
 1619              	.LBB932:
 1620              	.LBB933:
 1621              		.loc 2 144 0
 1622 0272 3721     		movs	r1, #55
 1623 0274 2980     		strh	r1, [r5, #0]	@ movhi
 1624              	.LVL151:
 1625              	.LBE933:
 1626              	.LBE932:
 1627              		.loc 1 183 0
 1628 0276 3046     		mov	r0, r6
 1629              	.LBB934:
 1630              	.LBB935:
 1631              		.loc 2 153 0
 1632 0278 A4F800B0 		strh	fp, [r4, #0]	@ movhi
 1633              	.LBE935:
 1634              	.LBE934:
 1635              		.loc 1 183 0
 1636 027c FFF7FEFF 		bl	gfxSleepMicroseconds
 1637              	.LVL152:
 1638              	.LBB936:
 1639              	.LBB937:
 1640              		.loc 2 153 0
 1641 0280 08F1FE08 		add	r8, r8, #254
 1642              	.LBE937:
 1643              	.LBE936:
 1644              	.LBB939:
 1645              	.LBB940:
 1646              		.loc 2 144 0
 1647 0284 3A22     		movs	r2, #58
 1648 0286 2A80     		strh	r2, [r5, #0]	@ movhi
 1649              	.LVL153:
 1650              	.LBE940:
 1651              	.LBE939:
 1652              		.loc 1 184 0
 1653 0288 3046     		mov	r0, r6
ARM GAS  /tmp/ccZUWmXH.s 			page 30


 1654              	.LBB941:
 1655              	.LBB938:
 1656              		.loc 2 153 0
 1657 028a A4F80080 		strh	r8, [r4, #0]	@ movhi
 1658              	.LBE938:
 1659              	.LBE941:
 1660              		.loc 1 184 0
 1661 028e FFF7FEFF 		bl	gfxSleepMicroseconds
 1662              	.LVL154:
 1663              	.LBB942:
 1664              	.LBB943:
 1665              		.loc 2 144 0
 1666 0292 3B23     		movs	r3, #59
 1667 0294 2B80     		strh	r3, [r5, #0]	@ movhi
 1668              	.LVL155:
 1669              	.LBE943:
 1670              	.LBE942:
 1671              		.loc 1 185 0
 1672 0296 3046     		mov	r0, r6
 1673              	.LBB944:
 1674              	.LBB945:
 1675              		.loc 2 153 0
 1676 0298 A4F80080 		strh	r8, [r4, #0]	@ movhi
 1677              	.LBE945:
 1678              	.LBE944:
 1679              		.loc 1 185 0
 1680 029c FFF7FEFF 		bl	gfxSleepMicroseconds
 1681              	.LVL156:
 1682              	.LBB946:
 1683              	.LBB947:
 1684              		.loc 2 144 0
 1685 02a0 2320     		movs	r0, #35
 1686 02a2 2880     		strh	r0, [r5, #0]	@ movhi
 1687              	.LVL157:
 1688              	.LBE947:
 1689              	.LBE946:
 1690              		.loc 1 186 0
 1691 02a4 3046     		mov	r0, r6
 1692              	.LBB948:
 1693              	.LBB949:
 1694              		.loc 2 153 0
 1695 02a6 2780     		strh	r7, [r4, #0]	@ movhi
 1696              	.LBE949:
 1697              	.LBE948:
 1698              		.loc 1 186 0
 1699 02a8 FFF7FEFF 		bl	gfxSleepMicroseconds
 1700              	.LVL158:
 1701              	.LBB950:
 1702              	.LBB951:
 1703              		.loc 2 144 0
 1704 02ac 2421     		movs	r1, #36
 1705 02ae 2980     		strh	r1, [r5, #0]	@ movhi
 1706              	.LVL159:
 1707              	.LBE951:
 1708              	.LBE950:
 1709              		.loc 1 187 0
 1710 02b0 3046     		mov	r0, r6
ARM GAS  /tmp/ccZUWmXH.s 			page 31


 1711              	.LBB952:
 1712              	.LBB953:
 1713              		.loc 2 153 0
 1714 02b2 2780     		strh	r7, [r4, #0]	@ movhi
 1715              	.LBE953:
 1716              	.LBE952:
 1717              		.loc 1 187 0
 1718 02b4 FFF7FEFF 		bl	gfxSleepMicroseconds
 1719              	.LVL160:
 1720              	.LBB954:
 1721              	.LBB955:
 1722              		.loc 2 144 0
 1723 02b8 2522     		movs	r2, #37
 1724              	.LBE955:
 1725              	.LBE954:
 1726              	.LBB957:
 1727              	.LBB958:
 1728              		.loc 2 153 0
 1729 02ba 4FF40043 		mov	r3, #32768
 1730              	.LBE958:
 1731              	.LBE957:
 1732              	.LBB960:
 1733              	.LBB956:
 1734              		.loc 2 144 0
 1735 02be 2A80     		strh	r2, [r5, #0]	@ movhi
 1736              	.LVL161:
 1737              	.LBE956:
 1738              	.LBE960:
 1739              		.loc 1 188 0
 1740 02c0 3046     		mov	r0, r6
 1741              	.LBB961:
 1742              	.LBB959:
 1743              		.loc 2 153 0
 1744 02c2 2380     		strh	r3, [r4, #0]	@ movhi
 1745              	.LBE959:
 1746              	.LBE961:
 1747              		.loc 1 188 0
 1748 02c4 FFF7FEFF 		bl	gfxSleepMicroseconds
 1749              	.LVL162:
 1750              	.LBB962:
 1751              	.LBB963:
 1752              		.loc 2 144 0
 1753 02c8 4F20     		movs	r0, #79
 1754 02ca 2880     		strh	r0, [r5, #0]	@ movhi
 1755              	.LVL163:
 1756              	.LBE963:
 1757              	.LBE962:
 1758              		.loc 1 189 0
 1759 02cc 3046     		mov	r0, r6
 1760              	.LBB964:
 1761              	.LBB965:
 1762              		.loc 2 153 0
 1763 02ce 2780     		strh	r7, [r4, #0]	@ movhi
 1764              	.LBE965:
 1765              	.LBE964:
 1766              		.loc 1 189 0
 1767 02d0 FFF7FEFF 		bl	gfxSleepMicroseconds
ARM GAS  /tmp/ccZUWmXH.s 			page 32


 1768              	.LVL164:
 1769              	.LBB966:
 1770              	.LBB967:
 1771              		.loc 2 144 0
 1772 02d4 4E21     		movs	r1, #78
 1773 02d6 2980     		strh	r1, [r5, #0]	@ movhi
 1774              	.LVL165:
 1775              	.LBE967:
 1776              	.LBE966:
 1777              		.loc 1 190 0
 1778 02d8 3046     		mov	r0, r6
 1779              	.LBB968:
 1780              	.LBB969:
 1781              		.loc 2 153 0
 1782 02da 2780     		strh	r7, [r4, #0]	@ movhi
 1783              	.LBE969:
 1784              	.LBE968:
 1785              		.loc 1 190 0
 1786 02dc FFF7FEFF 		bl	gfxSleepMicroseconds
 1787              	.LVL166:
 1788              		.loc 1 199 0
 1789 02e0 40F20003 		movw	r3, #:lower16:.LANCHOR0
 1790 02e4 C0F20003 		movt	r3, #:upper16:.LANCHOR0
 1791              		.loc 1 203 0
 1792 02e8 6421     		movs	r1, #100
 1793              		.loc 1 199 0
 1794 02ea F022     		movs	r2, #240
 1795              		.loc 1 203 0
 1796 02ec 9971     		strb	r1, [r3, #6]
 1797              		.loc 1 199 0
 1798 02ee 1A80     		strh	r2, [r3, #0]	@ movhi
 1799              		.loc 1 204 0
 1800 02f0 019A     		ldr	r2, [sp, #4]
 1801              		.loc 1 201 0
 1802 02f2 1F71     		strb	r7, [r3, #4]
 1803              		.loc 1 200 0
 1804 02f4 4FF4A070 		mov	r0, #320
 1805 02f8 5880     		strh	r0, [r3, #2]	@ movhi
 1806              		.loc 1 202 0
 1807 02fa 83F805A0 		strb	sl, [r3, #5]
 1808              		.loc 1 204 0
 1809 02fe DA71     		strb	r2, [r3, #7]
 1810              		.loc 1 212 0
 1811 0300 4846     		mov	r0, r9
 1812 0302 09B0     		add	sp, sp, #36
 1813 0304 BDE8F08F 		pop	{r4, r5, r6, r7, r8, r9, sl, fp, pc}
 1814              		.cfi_endproc
 1815              	.LFE132:
 1816              		.size	gdisp_lld_init, .-gdisp_lld_init
 1817 0308 AFF30080 		.section	.text.gdisp_lld_draw_pixel,"ax",%progbits
 1817      AFF30080 
 1818              		.align	2
 1819              		.p2align 4,,15
 1820              		.global	gdisp_lld_draw_pixel
 1821              		.thumb
 1822              		.thumb_func
 1823              		.type	gdisp_lld_draw_pixel, %function
ARM GAS  /tmp/ccZUWmXH.s 			page 33


 1824              	gdisp_lld_draw_pixel:
 1825              	.LFB133:
 1826              		.loc 1 223 0
 1827              		.cfi_startproc
 1828              		@ args = 0, pretend = 0, frame = 0
 1829              		@ frame_needed = 0, uses_anonymous_args = 0
 1830              		@ link register save eliminated.
 1831              	.LVL167:
 1832              	.LBB1034:
 1833              	.LBB1035:
 1834              		.loc 1 55 0
 1835 0000 224B     		ldr	r3, .L31
 1836 0002 1B79     		ldrb	r3, [r3, #4]	@ zero_extendqisi2
 1837              	.LVL168:
 1838              	.LBE1035:
 1839              	.LBE1034:
 1840              		.loc 1 223 0
 1841 0004 30B4     		push	{r4, r5}
 1842              	.LCFI3:
 1843              		.cfi_def_cfa_offset 8
 1844              		.cfi_offset 4, -8
 1845              		.cfi_offset 5, -4
 1846              	.LBB1080:
 1847              	.LBB1078:
 1848              		.loc 1 55 0
 1849 0006 032B     		cmp	r3, #3
 1850 0008 16D8     		bhi	.L23
 1851 000a DFE803F0 		tbb	[pc, r3]
 1852              	.L28:
 1853 000e 39       		.byte	(.L24-.L28)/2
 1854 000f 2E       		.byte	(.L25-.L28)/2
 1855 0010 02       		.byte	(.L26-.L28)/2
 1856 0011 1F       		.byte	(.L27-.L28)/2
 1857              		.align	1
 1858              	.L26:
 1859              	.LVL169:
 1860              		.loc 1 58 0
 1861 0012 C1F59F71 		rsb	r1, r1, #318
 1862              	.LVL170:
 1863              	.LBB1036:
 1864              	.LBB1037:
 1865              		.loc 2 153 0
 1866 0016 0023     		movs	r3, #0
 1867              	.LBE1037:
 1868              	.LBE1036:
 1869              		.loc 1 58 0
 1870 0018 0131     		adds	r1, r1, #1
 1871              	.LBB1039:
 1872              	.LBB1040:
 1873              		.loc 2 144 0
 1874 001a 4FF0C044 		mov	r4, #1610612736
 1875              	.LBE1040:
 1876              	.LBE1039:
 1877              	.LBB1041:
 1878              	.LBB1038:
 1879              		.loc 2 153 0
 1880 001e C6F20203 		movt	r3, 24578
ARM GAS  /tmp/ccZUWmXH.s 			page 34


 1881              	.LBE1038:
 1882              	.LBE1041:
 1883              		.loc 1 57 0
 1884 0022 C0F1EF00 		rsb	r0, r0, #239
 1885              	.LVL171:
 1886              	.L29:
 1887              		.loc 1 62 0
 1888 0026 CD05     		lsls	r5, r1, #23
 1889              		.loc 1 61 0
 1890 0028 C0B2     		uxtb	r0, r0
 1891              	.LVL172:
 1892              		.loc 1 62 0
 1893 002a E90D     		lsrs	r1, r5, #23
 1894              	.LBB1042:
 1895              	.LBB1043:
 1896              		.loc 2 144 0
 1897 002c 4E25     		movs	r5, #78
 1898 002e 2580     		strh	r5, [r4, #0]	@ movhi
 1899              	.LBE1043:
 1900              	.LBE1042:
 1901              	.LBB1045:
 1902              	.LBB1046:
 1903              		.loc 2 153 0
 1904 0030 1880     		strh	r0, [r3, #0]	@ movhi
 1905              	.LVL173:
 1906              	.LBE1046:
 1907              	.LBE1045:
 1908              	.LBB1049:
 1909              	.LBB1050:
 1910              		.loc 2 144 0
 1911 0032 4F20     		movs	r0, #79
 1912              	.LVL174:
 1913 0034 2080     		strh	r0, [r4, #0]	@ movhi
 1914              	.LBE1050:
 1915              	.LBE1049:
 1916              	.LBB1051:
 1917              	.LBB1052:
 1918              		.loc 2 153 0
 1919 0036 1980     		strh	r1, [r3, #0]	@ movhi
 1920              	.LVL175:
 1921              	.L23:
 1922              	.LBE1052:
 1923              	.LBE1051:
 1924              	.LBE1078:
 1925              	.LBE1080:
 1926              	.LBB1081:
 1927              	.LBB1082:
 1928 0038 0023     		movs	r3, #0
 1929 003a C6F20203 		movt	r3, 24578
 1930              	.LBE1082:
 1931              	.LBE1081:
 1932              	.LBB1084:
 1933              	.LBB1085:
 1934              		.loc 2 144 0
 1935 003e 4FF0C041 		mov	r1, #1610612736
 1936 0042 2220     		movs	r0, #34
 1937 0044 0880     		strh	r0, [r1, #0]	@ movhi
ARM GAS  /tmp/ccZUWmXH.s 			page 35


 1938              	.LVL176:
 1939              	.LBE1085:
 1940              	.LBE1084:
 1941              	.LBB1086:
 1942              	.LBB1083:
 1943              		.loc 2 153 0
 1944 0046 1A80     		strh	r2, [r3, #0]	@ movhi
 1945              	.LBE1083:
 1946              	.LBE1086:
 1947              		.loc 1 232 0
 1948 0048 30BC     		pop	{r4, r5}
 1949 004a 7047     		bx	lr
 1950              	.LVL177:
 1951              	.L27:
 1952              	.LBB1087:
 1953              	.LBB1079:
 1954              	.LBB1053:
 1955              	.LBB1054:
 1956              		.loc 2 153 0
 1957 004c 0023     		movs	r3, #0
 1958              	.LBE1054:
 1959              	.LBE1053:
 1960              	.LBB1056:
 1961              	.LBB1057:
 1962              		.loc 2 144 0
 1963 004e 4FF0C044 		mov	r4, #1610612736
 1964              	.LBE1057:
 1965              	.LBE1056:
 1966              	.LBB1058:
 1967              	.LBB1055:
 1968              		.loc 2 153 0
 1969 0052 C6F20203 		movt	r3, 24578
 1970              	.LVL178:
 1971              	.L30:
 1972              	.LBE1055:
 1973              	.LBE1058:
 1974              	.LBB1059:
 1975              	.LBB1060:
 1976              		.loc 1 70 0
 1977 0056 C505     		lsls	r5, r0, #23
 1978              		.loc 1 69 0
 1979 0058 C9B2     		uxtb	r1, r1
 1980              	.LVL179:
 1981              		.loc 1 70 0
 1982 005a E80D     		lsrs	r0, r5, #23
 1983              	.LBB1061:
 1984              	.LBB1062:
 1985              		.loc 2 144 0
 1986 005c 4E25     		movs	r5, #78
 1987 005e 2580     		strh	r5, [r4, #0]	@ movhi
 1988              	.LBE1062:
 1989              	.LBE1061:
 1990              	.LBB1064:
 1991              	.LBB1065:
 1992              		.loc 2 153 0
 1993 0060 1980     		strh	r1, [r3, #0]	@ movhi
 1994              	.LVL180:
ARM GAS  /tmp/ccZUWmXH.s 			page 36


 1995              	.LBE1065:
 1996              	.LBE1064:
 1997              	.LBB1068:
 1998              	.LBB1069:
 1999              		.loc 2 144 0
 2000 0062 4F21     		movs	r1, #79
 2001              	.LVL181:
 2002 0064 2180     		strh	r1, [r4, #0]	@ movhi
 2003              	.LBE1069:
 2004              	.LBE1068:
 2005              	.LBB1070:
 2006              	.LBB1071:
 2007              		.loc 2 153 0
 2008 0066 1880     		strh	r0, [r3, #0]	@ movhi
 2009 0068 E6E7     		b	.L23
 2010              	.LVL182:
 2011              	.L25:
 2012              	.LBE1071:
 2013              	.LBE1070:
 2014              		.loc 1 70 0
 2015 006a C0F59F70 		rsb	r0, r0, #318
 2016              	.LVL183:
 2017              	.LBB1072:
 2018              	.LBB1066:
 2019              		.loc 2 153 0
 2020 006e 0023     		movs	r3, #0
 2021              	.LBE1066:
 2022              	.LBE1072:
 2023              		.loc 1 70 0
 2024 0070 0130     		adds	r0, r0, #1
 2025              	.LBB1073:
 2026              	.LBB1063:
 2027              		.loc 2 144 0
 2028 0072 4FF0C044 		mov	r4, #1610612736
 2029              	.LBE1063:
 2030              	.LBE1073:
 2031              	.LBB1074:
 2032              	.LBB1067:
 2033              		.loc 2 153 0
 2034 0076 C6F20203 		movt	r3, 24578
 2035              	.LBE1067:
 2036              	.LBE1074:
 2037              		.loc 1 69 0
 2038 007a C1F1EF01 		rsb	r1, r1, #239
 2039              	.LVL184:
 2040 007e EAE7     		b	.L30
 2041              	.LVL185:
 2042              	.L24:
 2043              	.LBE1060:
 2044              	.LBE1059:
 2045              	.LBB1075:
 2046              	.LBB1047:
 2047              		.loc 2 153 0
 2048 0080 0023     		movs	r3, #0
 2049              	.LBE1047:
 2050              	.LBE1075:
 2051              	.LBB1076:
ARM GAS  /tmp/ccZUWmXH.s 			page 37


 2052              	.LBB1044:
 2053              		.loc 2 144 0
 2054 0082 4FF0C044 		mov	r4, #1610612736
 2055              	.LBE1044:
 2056              	.LBE1076:
 2057              	.LBB1077:
 2058              	.LBB1048:
 2059              		.loc 2 153 0
 2060 0086 C6F20203 		movt	r3, 24578
 2061 008a CCE7     		b	.L29
 2062              	.L32:
 2063              		.align	2
 2064              	.L31:
 2065 008c 00000000 		.word	.LANCHOR0
 2066              	.LBE1048:
 2067              	.LBE1077:
 2068              	.LBE1079:
 2069              	.LBE1087:
 2070              		.cfi_endproc
 2071              	.LFE133:
 2072              		.size	gdisp_lld_draw_pixel, .-gdisp_lld_draw_pixel
 2073              		.section	.text.gdisp_lld_draw_circle,"ax",%progbits
 2074              		.align	2
 2075              		.p2align 4,,15
 2076              		.global	gdisp_lld_draw_circle
 2077              		.thumb
 2078              		.thumb_func
 2079              		.type	gdisp_lld_draw_circle, %function
 2080              	gdisp_lld_draw_circle:
 2081              	.LFB119:
 2082              		.file 3 "../../ext/ugfx/include/gdisp/lld/emulation.c"
 2083              		.loc 3 170 0
 2084              		.cfi_startproc
 2085              		@ args = 0, pretend = 0, frame = 24
 2086              		@ frame_needed = 0, uses_anonymous_args = 0
 2087              	.LVL186:
 2088 0000 2DE9F04F 		push	{r4, r5, r6, r7, r8, r9, sl, fp, lr}
 2089              	.LCFI4:
 2090              		.cfi_def_cfa_offset 36
 2091              		.cfi_offset 4, -36
 2092              		.cfi_offset 5, -32
 2093              		.cfi_offset 6, -28
 2094              		.cfi_offset 7, -24
 2095              		.cfi_offset 8, -20
 2096              		.cfi_offset 9, -16
 2097              		.cfi_offset 10, -12
 2098              		.cfi_offset 11, -8
 2099              		.cfi_offset 14, -4
 2100              		.loc 3 175 0
 2101 0004 C2F10105 		rsb	r5, r2, #1
 2102              		.loc 3 170 0
 2103 0008 87B0     		sub	sp, sp, #28
 2104              	.LCFI5:
 2105              		.cfi_def_cfa_offset 64
 2106              		.loc 3 170 0
 2107 000a 1C46     		mov	r4, r3
 2108 000c 1FFA80F8 		uxth	r8, r0
ARM GAS  /tmp/ccZUWmXH.s 			page 38


 2109              		.loc 3 175 0
 2110 0010 ABB2     		uxth	r3, r5
 2111              	.LVL187:
 2112 0012 8FB2     		uxth	r7, r1
 2113 0014 0020     		movs	r0, #0
 2114              	.LVL188:
 2115 0016 11B2     		sxth	r1, r2
 2116              	.LVL189:
 2117              		.loc 3 174 0
 2118 0018 0392     		str	r2, [sp, #12]
 2119              		.loc 3 175 0
 2120 001a 0493     		str	r3, [sp, #16]
 2121              	.LVL190:
 2122 001c 0290     		str	r0, [sp, #8]
 2123 001e 0591     		str	r1, [sp, #20]
 2124 0020 17E0     		b	.L36
 2125              	.LVL191:
 2126              	.L34:
 2127              		.loc 3 189 0
 2128 0022 059A     		ldr	r2, [sp, #20]
 2129 0024 0398     		ldr	r0, [sp, #12]
 2130 0026 049B     		ldr	r3, [sp, #16]
 2131 0028 0299     		ldr	r1, [sp, #8]
 2132 002a 0533     		adds	r3, r3, #5
 2133 002c 891A     		subs	r1, r1, r2
 2134 002e 421E     		subs	r2, r0, #1
 2135 0030 03EB4101 		add	r1, r3, r1, lsl #1
 2136 0034 93B2     		uxth	r3, r2
 2137              		.loc 3 170 0
 2138 0036 0135     		adds	r5, r5, #1
 2139 0038 1AB2     		sxth	r2, r3
 2140              		.loc 3 189 0
 2141 003a 89B2     		uxth	r1, r1
 2142 003c 0393     		str	r3, [sp, #12]
 2143              		.loc 3 170 0
 2144 003e A8B2     		uxth	r0, r5
 2145 0040 0592     		str	r2, [sp, #20]
 2146              		.loc 3 189 0
 2147 0042 0491     		str	r1, [sp, #16]
 2148              	.LVL192:
 2149              	.L35:
 2150              		.loc 3 190 0
 2151 0044 05B2     		sxth	r5, r0
 2152 0046 0299     		ldr	r1, [sp, #8]
 2153 0048 0598     		ldr	r0, [sp, #20]
 2154              	.LVL193:
 2155 004a 4B1C     		adds	r3, r1, #1
 2156 004c 8542     		cmp	r5, r0
 2157 004e 0293     		str	r3, [sp, #8]
 2158 0050 58DC     		bgt	.L38
 2159              	.LVL194:
 2160              	.L36:
 2161              		.loc 3 170 0
 2162 0052 029A     		ldr	r2, [sp, #8]
 2163              		.loc 3 178 0
 2164 0054 039E     		ldr	r6, [sp, #12]
 2165              		.loc 3 170 0
ARM GAS  /tmp/ccZUWmXH.s 			page 39


 2166 0056 95B2     		uxth	r5, r2
 2167              		.loc 3 178 0
 2168 0058 B6B2     		uxth	r6, r6
 2169 005a 06EB070A 		add	sl, r6, r7
 2170              		.loc 3 170 0
 2171 005e 08EB0503 		add	r3, r8, r5
 2172              		.loc 3 178 0
 2173 0062 1BB2     		sxth	r3, r3
 2174 0064 0FFA8AFA 		sxth	sl, sl
 2175 0068 1846     		mov	r0, r3
 2176 006a 5146     		mov	r1, sl
 2177 006c 2246     		mov	r2, r4
 2178 006e 0093     		str	r3, [sp, #0]
 2179              		.loc 3 170 0
 2180 0070 07EB0509 		add	r9, r7, r5
 2181              		.loc 3 178 0
 2182 0074 FFF7FEFF 		bl	gdisp_lld_draw_pixel
 2183              	.LVL195:
 2184              		.loc 3 179 0
 2185 0078 06EB080C 		add	ip, r6, r8
 2186 007c 0FFA8CFB 		sxth	fp, ip
 2187 0080 0FFA89F9 		sxth	r9, r9
 2188 0084 5846     		mov	r0, fp
 2189 0086 4946     		mov	r1, r9
 2190 0088 2246     		mov	r2, r4
 2191 008a CDF804B0 		str	fp, [sp, #4]
 2192 008e FFF7FEFF 		bl	gdisp_lld_draw_pixel
 2193              	.LVL196:
 2194              		.loc 3 170 0
 2195 0092 C5EB0800 		rsb	r0, r5, r8
 2196              		.loc 3 180 0
 2197 0096 0FFA80FB 		sxth	fp, r0
 2198 009a 5146     		mov	r1, sl
 2199 009c 5846     		mov	r0, fp
 2200 009e 2246     		mov	r2, r4
 2201 00a0 FFF7FEFF 		bl	gdisp_lld_draw_pixel
 2202              	.LVL197:
 2203              		.loc 3 181 0
 2204 00a4 C6EB0801 		rsb	r1, r6, r8
 2205 00a8 0FFA81FA 		sxth	sl, r1
 2206 00ac 5046     		mov	r0, sl
 2207 00ae 4946     		mov	r1, r9
 2208 00b0 2246     		mov	r2, r4
 2209 00b2 FFF7FEFF 		bl	gdisp_lld_draw_pixel
 2210              	.LVL198:
 2211              		.loc 3 182 0
 2212 00b6 DDF804C0 		ldr	ip, [sp, #4]
 2213              		.loc 3 170 0
 2214 00ba 7A1B     		subs	r2, r7, r5
 2215              		.loc 3 182 0
 2216 00bc 0FFA82F9 		sxth	r9, r2
 2217 00c0 6046     		mov	r0, ip
 2218 00c2 4946     		mov	r1, r9
 2219 00c4 2246     		mov	r2, r4
 2220 00c6 FFF7FEFF 		bl	gdisp_lld_draw_pixel
 2221              	.LVL199:
 2222              		.loc 3 183 0
ARM GAS  /tmp/ccZUWmXH.s 			page 40


 2223 00ca BE1B     		subs	r6, r7, r6
 2224 00cc 009B     		ldr	r3, [sp, #0]
 2225 00ce 36B2     		sxth	r6, r6
 2226 00d0 1846     		mov	r0, r3
 2227 00d2 3146     		mov	r1, r6
 2228 00d4 2246     		mov	r2, r4
 2229 00d6 FFF7FEFF 		bl	gdisp_lld_draw_pixel
 2230              	.LVL200:
 2231              		.loc 3 184 0
 2232 00da 5846     		mov	r0, fp
 2233 00dc 3146     		mov	r1, r6
 2234 00de 2246     		mov	r2, r4
 2235 00e0 FFF7FEFF 		bl	gdisp_lld_draw_pixel
 2236              	.LVL201:
 2237              		.loc 3 185 0
 2238 00e4 5046     		mov	r0, sl
 2239 00e6 2246     		mov	r2, r4
 2240 00e8 4946     		mov	r1, r9
 2241 00ea FFF7FEFF 		bl	gdisp_lld_draw_pixel
 2242              	.LVL202:
 2243              		.loc 3 186 0
 2244 00ee 0498     		ldr	r0, [sp, #16]
 2245 00f0 0204     		lsls	r2, r0, #16
 2246 00f2 96D5     		bpl	.L34
 2247              		.loc 3 187 0
 2248 00f4 C31C     		adds	r3, r0, #3
 2249 00f6 03EB4500 		add	r0, r3, r5, lsl #1
 2250 00fa 82B2     		uxth	r2, r0
 2251              		.loc 3 170 0
 2252 00fc 0135     		adds	r5, r5, #1
 2253              		.loc 3 187 0
 2254 00fe 0492     		str	r2, [sp, #16]
 2255              		.loc 3 170 0
 2256 0100 A8B2     		uxth	r0, r5
 2257              	.LVL203:
 2258 0102 9FE7     		b	.L35
 2259              	.LVL204:
 2260              	.L38:
 2261              		.loc 3 191 0
 2262 0104 07B0     		add	sp, sp, #28
 2263 0106 BDE8F08F 		pop	{r4, r5, r6, r7, r8, r9, sl, fp, pc}
 2264              		.cfi_endproc
 2265              	.LFE119:
 2266              		.size	gdisp_lld_draw_circle, .-gdisp_lld_draw_circle
 2267 010a 00BFAFF3 		.section	.text.gdisp_lld_clear,"ax",%progbits
 2267      0080
 2268              		.align	2
 2269              		.p2align 4,,15
 2270              		.global	gdisp_lld_clear
 2271              		.thumb
 2272              		.thumb_func
 2273              		.type	gdisp_lld_clear, %function
 2274              	gdisp_lld_clear:
 2275              	.LFB134:
 2276              		.loc 1 260 0
 2277              		.cfi_startproc
 2278              		@ args = 0, pretend = 0, frame = 0
ARM GAS  /tmp/ccZUWmXH.s 			page 41


 2279              		@ frame_needed = 0, uses_anonymous_args = 0
 2280              	.LVL205:
 2281 0000 38B5     		push	{r3, r4, r5, lr}
 2282              	.LCFI6:
 2283              		.cfi_def_cfa_offset 16
 2284              		.cfi_offset 3, -16
 2285              		.cfi_offset 4, -12
 2286              		.cfi_offset 5, -8
 2287              		.cfi_offset 14, -4
 2288              	.LBB1154:
 2289              	.LBB1155:
 2290              		.loc 1 115 0
 2291 0002 1D4D     		ldr	r5, .L49
 2292              	.LBE1155:
 2293              	.LBE1154:
 2294              		.loc 1 260 0
 2295 0004 0446     		mov	r4, r0
 2296              	.LBB1157:
 2297              	.LBB1156:
 2298              		.loc 1 115 0
 2299 0006 0020     		movs	r0, #0
 2300              	.LVL206:
 2301 0008 B5F90230 		ldrsh	r3, [r5, #2]
 2302 000c B5F90020 		ldrsh	r2, [r5, #0]
 2303 0010 0146     		mov	r1, r0
 2304 0012 FFF7FEFF 		bl	set_viewport
 2305              	.LVL207:
 2306              	.LBE1156:
 2307              	.LBE1157:
 2308              	.LBB1158:
 2309              	.LBB1159:
 2310              		.loc 1 55 0
 2311 0016 2B79     		ldrb	r3, [r5, #4]	@ zero_extendqisi2
 2312 0018 032B     		cmp	r3, #3
 2313 001a 0FD8     		bhi	.L40
 2314 001c DFE803F0 		tbb	[pc, r3]
 2315              	.L45:
 2316 0020 02       		.byte	(.L44-.L45)/2
 2317 0021 1C       		.byte	(.L42-.L45)/2
 2318 0022 1C       		.byte	(.L42-.L45)/2
 2319 0023 02       		.byte	(.L44-.L45)/2
 2320              		.align	1
 2321              	.L44:
 2322              	.LVL208:
 2323              	.LBB1160:
 2324              	.LBB1161:
 2325              		.loc 2 144 0
 2326 0024 4FF0C041 		mov	r1, #1610612736
 2327              	.LBE1161:
 2328              	.LBE1160:
 2329              	.LBB1163:
 2330              	.LBB1164:
 2331              		.loc 2 153 0
 2332 0028 0023     		movs	r3, #0
 2333 002a C6F20203 		movt	r3, 24578
 2334              	.LBE1164:
 2335              	.LBE1163:
ARM GAS  /tmp/ccZUWmXH.s 			page 42


 2336              	.LBB1167:
 2337              	.LBB1162:
 2338              		.loc 2 144 0
 2339 002e 4E20     		movs	r0, #78
 2340 0030 0880     		strh	r0, [r1, #0]	@ movhi
 2341              	.LVL209:
 2342              	.LBE1162:
 2343              	.LBE1167:
 2344              	.LBB1168:
 2345              	.LBB1165:
 2346              		.loc 2 153 0
 2347 0032 0022     		movs	r2, #0
 2348              	.LBE1165:
 2349              	.LBE1168:
 2350              	.LBB1169:
 2351              	.LBB1170:
 2352              		.loc 2 144 0
 2353 0034 4F20     		movs	r0, #79
 2354              	.LBE1170:
 2355              	.LBE1169:
 2356              	.LBB1172:
 2357              	.LBB1166:
 2358              		.loc 2 153 0
 2359 0036 1A80     		strh	r2, [r3, #0]	@ movhi
 2360              	.LVL210:
 2361              	.LBE1166:
 2362              	.LBE1172:
 2363              	.LBB1173:
 2364              	.LBB1171:
 2365              		.loc 2 144 0
 2366 0038 0880     		strh	r0, [r1, #0]	@ movhi
 2367              	.LVL211:
 2368              	.LBE1171:
 2369              	.LBE1173:
 2370              	.LBB1174:
 2371              	.LBB1175:
 2372              		.loc 2 153 0
 2373 003a 1A80     		strh	r2, [r3, #0]	@ movhi
 2374              	.LVL212:
 2375              	.L40:
 2376              	.LBE1175:
 2377              	.LBE1174:
 2378              	.LBE1159:
 2379              	.LBE1158:
 2380              	.LBB1194:
 2381              	.LBB1195:
 2382              		.loc 2 144 0
 2383 003c 4FF0C043 		mov	r3, #1610612736
 2384              	.LBE1195:
 2385              	.LBE1194:
 2386              	.LBB1197:
 2387              	.LBB1198:
 2388              		.loc 2 153 0
 2389 0040 0022     		movs	r2, #0
 2390              	.LBE1198:
 2391              	.LBE1197:
 2392              	.LBB1201:
ARM GAS  /tmp/ccZUWmXH.s 			page 43


 2393              	.LBB1196:
 2394              		.loc 2 144 0
 2395 0042 2221     		movs	r1, #34
 2396 0044 1980     		strh	r1, [r3, #0]	@ movhi
 2397              	.LVL213:
 2398 0046 4FF49630 		mov	r0, #76800
 2399              	.LBE1196:
 2400              	.LBE1201:
 2401              	.LBB1202:
 2402              	.LBB1199:
 2403              		.loc 2 153 0
 2404 004a C6F20202 		movt	r2, 24578
 2405              	.LVL214:
 2406              	.L46:
 2407              	.LBE1199:
 2408              	.LBE1202:
 2409              		.loc 1 285 0
 2410 004e 0238     		subs	r0, r0, #2
 2411              	.LBB1203:
 2412              	.LBB1200:
 2413              		.loc 2 153 0
 2414 0050 1480     		strh	r4, [r2, #0]	@ movhi
 2415 0052 1480     		strh	r4, [r2, #0]	@ movhi
 2416              	.LBE1200:
 2417              	.LBE1203:
 2418              		.loc 1 285 0
 2419 0054 FBD1     		bne	.L46
 2420              		.loc 1 291 0
 2421 0056 38BD     		pop	{r3, r4, r5, pc}
 2422              	.LVL215:
 2423              	.L42:
 2424              	.LBB1204:
 2425              	.LBB1193:
 2426              	.LBB1176:
 2427              	.LBB1177:
 2428              	.LBB1178:
 2429              		.loc 2 144 0
 2430 0058 4FF0C042 		mov	r2, #1610612736
 2431              	.LBE1178:
 2432              	.LBE1177:
 2433              	.LBB1180:
 2434              	.LBB1181:
 2435              		.loc 2 153 0
 2436 005c 0020     		movs	r0, #0
 2437 005e C6F20200 		movt	r0, 24578
 2438              	.LBE1181:
 2439              	.LBE1180:
 2440              	.LBB1184:
 2441              	.LBB1179:
 2442              		.loc 2 144 0
 2443 0062 4E21     		movs	r1, #78
 2444 0064 1180     		strh	r1, [r2, #0]	@ movhi
 2445              	.LVL216:
 2446              	.LBE1179:
 2447              	.LBE1184:
 2448              	.LBB1185:
 2449              	.LBB1182:
ARM GAS  /tmp/ccZUWmXH.s 			page 44


 2450              		.loc 2 153 0
 2451 0066 EF23     		movs	r3, #239
 2452              	.LBE1182:
 2453              	.LBE1185:
 2454              	.LBB1186:
 2455              	.LBB1187:
 2456              		.loc 2 144 0
 2457 0068 4F21     		movs	r1, #79
 2458              	.LBE1187:
 2459              	.LBE1186:
 2460              	.LBB1189:
 2461              	.LBB1183:
 2462              		.loc 2 153 0
 2463 006a 0380     		strh	r3, [r0, #0]	@ movhi
 2464              	.LVL217:
 2465              	.LBE1183:
 2466              	.LBE1189:
 2467              	.LBB1190:
 2468              	.LBB1188:
 2469              		.loc 2 144 0
 2470 006c 1180     		strh	r1, [r2, #0]	@ movhi
 2471              	.LVL218:
 2472              	.LBE1188:
 2473              	.LBE1190:
 2474              	.LBB1191:
 2475              	.LBB1192:
 2476              		.loc 2 153 0
 2477 006e 40F23F12 		movw	r2, #319
 2478 0072 0280     		strh	r2, [r0, #0]	@ movhi
 2479 0074 E2E7     		b	.L40
 2480              	.L50:
 2481 0076 00BF     		.align	2
 2482              	.L49:
 2483 0078 00000000 		.word	.LANCHOR0
 2484              	.LBE1192:
 2485              	.LBE1191:
 2486              	.LBE1176:
 2487              	.LBE1193:
 2488              	.LBE1204:
 2489              		.cfi_endproc
 2490              	.LFE134:
 2491              		.size	gdisp_lld_clear, .-gdisp_lld_clear
 2492 007c AFF30080 		.section	.text.gdisp_lld_fill_area,"ax",%progbits
 2493              		.align	2
 2494              		.p2align 4,,15
 2495              		.global	gdisp_lld_fill_area
 2496              		.thumb
 2497              		.thumb_func
 2498              		.type	gdisp_lld_fill_area, %function
 2499              	gdisp_lld_fill_area:
 2500              	.LFB135:
 2501              		.loc 1 305 0
 2502              		.cfi_startproc
 2503              		@ args = 4, pretend = 0, frame = 0
 2504              		@ frame_needed = 0, uses_anonymous_args = 0
 2505              	.LVL219:
 2506 0000 38B5     		push	{r3, r4, r5, lr}
ARM GAS  /tmp/ccZUWmXH.s 			page 45


 2507              	.LCFI7:
 2508              		.cfi_def_cfa_offset 16
 2509              		.cfi_offset 3, -16
 2510              		.cfi_offset 4, -12
 2511              		.cfi_offset 5, -8
 2512              		.cfi_offset 14, -4
 2513              		.loc 1 316 0
 2514 0002 02FB03F5 		mul	r5, r2, r3
 2515              	.LVL220:
 2516              		.loc 1 305 0
 2517 0006 BDF81040 		ldrh	r4, [sp, #16]
 2518              		.loc 1 319 0
 2519 000a FFF7FEFF 		bl	set_viewport
 2520              	.LVL221:
 2521              	.LBB1205:
 2522              	.LBB1206:
 2523              		.loc 2 144 0
 2524 000e 4FF0C043 		mov	r3, #1610612736
 2525 0012 2222     		movs	r2, #34
 2526 0014 1A80     		strh	r2, [r3, #0]	@ movhi
 2527              	.LVL222:
 2528              	.LBE1206:
 2529              	.LBE1205:
 2530              		.loc 1 336 0
 2531 0016 9DB1     		cbz	r5, .L51
 2532              	.LBB1207:
 2533              	.LBB1208:
 2534              		.loc 2 153 0
 2535 0018 0020     		movs	r0, #0
 2536 001a C6F20200 		movt	r0, 24578
 2537              	.LBE1208:
 2538              	.LBE1207:
 2539              		.loc 1 336 0
 2540 001e 0123     		movs	r3, #1
 2541 0020 691E     		subs	r1, r5, #1
 2542 0022 9D42     		cmp	r5, r3
 2543              	.LBB1212:
 2544              	.LBB1209:
 2545              		.loc 2 153 0
 2546 0024 0480     		strh	r4, [r0, #0]	@ movhi
 2547 0026 01F00102 		and	r2, r1, #1
 2548              	.LVL223:
 2549              	.LBE1209:
 2550              	.LBE1212:
 2551              		.loc 1 336 0
 2552 002a 0AD0     		beq	.L62
 2553 002c 1AB1     		cbz	r2, .L52
 2554 002e 0223     		movs	r3, #2
 2555 0030 9D42     		cmp	r5, r3
 2556              	.LBB1213:
 2557              	.LBB1210:
 2558              		.loc 2 153 0
 2559 0032 0480     		strh	r4, [r0, #0]	@ movhi
 2560              	.LBE1210:
 2561              	.LBE1213:
 2562              		.loc 1 336 0
 2563 0034 06D0     		beq	.L63
ARM GAS  /tmp/ccZUWmXH.s 			page 46


 2564              	.LVL224:
 2565              	.L52:
 2566 0036 0233     		adds	r3, r3, #2
 2567 0038 9D42     		cmp	r5, r3
 2568              	.LBB1214:
 2569              	.LBB1211:
 2570              		.loc 2 153 0
 2571 003a 0480     		strh	r4, [r0, #0]	@ movhi
 2572 003c 0480     		strh	r4, [r0, #0]	@ movhi
 2573              	.LBE1211:
 2574              	.LBE1214:
 2575              		.loc 1 336 0
 2576 003e FAD1     		bne	.L52
 2577              	.LVL225:
 2578              	.L51:
 2579 0040 38BD     		pop	{r3, r4, r5, pc}
 2580              	.LVL226:
 2581              	.L62:
 2582 0042 38BD     		pop	{r3, r4, r5, pc}
 2583              	.L63:
 2584 0044 38BD     		pop	{r3, r4, r5, pc}
 2585              		.cfi_endproc
 2586              	.LFE135:
 2587              		.size	gdisp_lld_fill_area, .-gdisp_lld_fill_area
 2588 0046 00BFAFF3 		.section	.text.gdisp_lld_draw_line,"ax",%progbits
 2588      0080AFF3 
 2588      0080
 2589              		.align	2
 2590              		.p2align 4,,15
 2591              		.global	gdisp_lld_draw_line
 2592              		.thumb
 2593              		.thumb_func
 2594              		.type	gdisp_lld_draw_line, %function
 2595              	gdisp_lld_draw_line:
 2596              	.LFB118:
 2597              		.loc 3 39 0
 2598              		.cfi_startproc
 2599              		@ args = 4, pretend = 0, frame = 16
 2600              		@ frame_needed = 0, uses_anonymous_args = 0
 2601              	.LVL227:
 2602 0000 2DE9F04F 		push	{r4, r5, r6, r7, r8, r9, sl, fp, lr}
 2603              	.LCFI8:
 2604              		.cfi_def_cfa_offset 36
 2605              		.cfi_offset 4, -36
 2606              		.cfi_offset 5, -32
 2607              		.cfi_offset 6, -28
 2608              		.cfi_offset 7, -24
 2609              		.cfi_offset 8, -20
 2610              		.cfi_offset 9, -16
 2611              		.cfi_offset 10, -12
 2612              		.cfi_offset 11, -8
 2613              		.cfi_offset 14, -4
 2614 0004 85B0     		sub	sp, sp, #20
 2615              	.LCFI9:
 2616              		.cfi_def_cfa_offset 56
 2617              		.loc 3 46 0
 2618 0006 9042     		cmp	r0, r2
ARM GAS  /tmp/ccZUWmXH.s 			page 47


 2619              		.loc 3 39 0
 2620 0008 8146     		mov	r9, r0
 2621 000a 0C46     		mov	r4, r1
 2622 000c BDF83850 		ldrh	r5, [sp, #56]
 2623              		.loc 3 46 0
 2624 0010 00F00A81 		beq	.L115
 2625              		.loc 3 53 0
 2626 0014 9942     		cmp	r1, r3
 2627 0016 00F01481 		beq	.L116
 2628              		.loc 3 62 0
 2629 001a 9042     		cmp	r0, r2
 2630 001c 40F38380 		ble	.L117
 2631              		.loc 3 66 0
 2632 0020 821A     		subs	r2, r0, r2
 2633              	.LVL228:
 2634              		.loc 3 69 0
 2635 0022 A342     		cmp	r3, r4
 2636              		.loc 3 66 0
 2637 0024 90B2     		uxth	r0, r2
 2638              	.LVL229:
 2639              		.loc 3 67 0
 2640 0026 4FF6FF76 		movw	r6, #65535
 2641              	.LVL230:
 2642              		.loc 3 69 0
 2643 002a C0F28280 		blt	.L71
 2644              	.LVL231:
 2645              	.L119:
 2646              		.loc 3 70 0
 2647 002e 1F1B     		subs	r7, r3, r4
 2648 0030 B9B2     		uxth	r1, r7
 2649              	.LVL232:
 2650              		.loc 3 77 0
 2651 0032 0FFA81FB 		sxth	fp, r1
 2652 0036 0FFA80FA 		sxth	sl, r0
 2653              		.loc 3 71 0
 2654 003a 0127     		movs	r7, #1
 2655              	.LVL233:
 2656              		.loc 3 77 0
 2657 003c D345     		cmp	fp, sl
 2658 003e 00F38380 		bgt	.L73
 2659              	.LVL234:
 2660              	.L120:
 2661              		.loc 3 78 0
 2662 0042 4B00     		lsls	r3, r1, #1
 2663              		.loc 3 79 0
 2664 0044 82B2     		uxth	r2, r0
 2665              		.loc 3 78 0
 2666 0046 98B2     		uxth	r0, r3
 2667              		.loc 3 79 0
 2668 0048 811A     		subs	r1, r0, r2
 2669 004a 8BB2     		uxth	r3, r1
 2670              		.loc 3 80 0
 2671 004c 9A1A     		subs	r2, r3, r2
 2672              		.loc 3 78 0
 2673 004e 0290     		str	r0, [sp, #8]
 2674              	.LVL235:
 2675              		.loc 3 82 0
ARM GAS  /tmp/ccZUWmXH.s 			page 48


 2676 0050 BAF1000F 		cmp	sl, #0
 2677              		.loc 3 80 0
 2678 0054 90B2     		uxth	r0, r2
 2679              		.loc 3 79 0
 2680 0056 1FFA83F8 		uxth	r8, r3
 2681              	.LVL236:
 2682              		.loc 3 80 0
 2683 005a 0190     		str	r0, [sp, #4]
 2684              	.LVL237:
 2685              		.loc 3 82 0
 2686 005c C0F2E180 		blt	.L64
 2687 0060 0AF00103 		and	r3, sl, #1
 2688              	.LVL238:
 2689              		.loc 3 83 0
 2690 0064 4846     		mov	r0, r9
 2691 0066 2146     		mov	r1, r4
 2692 0068 2A46     		mov	r2, r5
 2693 006a 0393     		str	r3, [sp, #12]
 2694 006c FFF7FEFF 		bl	gdisp_lld_draw_pixel
 2695              	.LVL239:
 2696              		.loc 3 84 0
 2697 0070 18F4004F 		tst	r8, #32768
 2698 0074 40F02581 		bne	.L118
 2699              		.loc 3 88 0
 2700 0078 0199     		ldr	r1, [sp, #4]
 2701              		.loc 3 89 0
 2702 007a B144     		add	r9, r9, r6
 2703              	.LVL240:
 2704              		.loc 3 88 0
 2705 007c 01EB0802 		add	r2, r1, r8
 2706              		.loc 3 90 0
 2707 0080 E419     		adds	r4, r4, r7
 2708              	.LVL241:
 2709              		.loc 3 88 0
 2710 0082 1FFA82FB 		uxth	fp, r2
 2711              		.loc 3 89 0
 2712 0086 0FFA89F9 		sxth	r9, r9
 2713              		.loc 3 90 0
 2714 008a 24B2     		sxth	r4, r4
 2715              	.LVL242:
 2716              	.L107:
 2717              		.loc 3 82 0
 2718 008c 4FF00108 		mov	r8, #1
 2719              	.LVL243:
 2720 0090 C245     		cmp	sl, r8
 2721 0092 C0F2C680 		blt	.L64
 2722 0096 039A     		ldr	r2, [sp, #12]
 2723 0098 A2B3     		cbz	r2, .L74
 2724              		.loc 3 83 0
 2725 009a 4846     		mov	r0, r9
 2726 009c 2146     		mov	r1, r4
 2727 009e 2A46     		mov	r2, r5
 2728 00a0 FFF7FEFF 		bl	gdisp_lld_draw_pixel
 2729              	.LVL244:
 2730              		.loc 3 84 0
 2731 00a4 1BF4004F 		tst	fp, #32768
 2732 00a8 18D0     		beq	.L90
ARM GAS  /tmp/ccZUWmXH.s 			page 49


 2733 00aa DFE0     		b	.L104
 2734              	.LVL245:
 2735              	.L76:
 2736              		.loc 3 88 0
 2737 00ac 019A     		ldr	r2, [sp, #4]
 2738              		.loc 3 89 0
 2739 00ae 09EB060E 		add	lr, r9, r6
 2740              		.loc 3 88 0
 2741 00b2 02EB0B00 		add	r0, r2, fp
 2742              		.loc 3 90 0
 2743 00b6 E419     		adds	r4, r4, r7
 2744 00b8 24B2     		sxth	r4, r4
 2745              		.loc 3 88 0
 2746 00ba 1FFA80FB 		uxth	fp, r0
 2747              		.loc 3 89 0
 2748 00be 0FFA8EF9 		sxth	r9, lr
 2749              	.LVL246:
 2750              	.L77:
 2751              		.loc 3 82 0
 2752 00c2 08F1010C 		add	ip, r8, #1
 2753              		.loc 3 83 0
 2754 00c6 2146     		mov	r1, r4
 2755 00c8 4846     		mov	r0, r9
 2756 00ca 2A46     		mov	r2, r5
 2757              		.loc 3 82 0
 2758 00cc 1FFA8CF8 		uxth	r8, ip
 2759              		.loc 3 83 0
 2760 00d0 FFF7FEFF 		bl	gdisp_lld_draw_pixel
 2761              	.LVL247:
 2762              		.loc 3 84 0
 2763 00d4 1BF4004F 		tst	fp, #32768
 2764 00d8 40F0C880 		bne	.L104
 2765              	.LVL248:
 2766              	.L90:
 2767              		.loc 3 88 0
 2768 00dc 019A     		ldr	r2, [sp, #4]
 2769              		.loc 3 89 0
 2770 00de 09EB0603 		add	r3, r9, r6
 2771              		.loc 3 88 0
 2772 00e2 02EB0B00 		add	r0, r2, fp
 2773              		.loc 3 90 0
 2774 00e6 E419     		adds	r4, r4, r7
 2775              		.loc 3 88 0
 2776 00e8 1FFA80FB 		uxth	fp, r0
 2777              		.loc 3 89 0
 2778 00ec 0FFA83F9 		sxth	r9, r3
 2779              		.loc 3 90 0
 2780 00f0 24B2     		sxth	r4, r4
 2781              	.LVL249:
 2782              	.L110:
 2783              		.loc 3 82 0
 2784 00f2 08F10108 		add	r8, r8, #1
 2785 00f6 1FFA88F8 		uxth	r8, r8
 2786 00fa 0FFA88F1 		sxth	r1, r8
 2787 00fe 8A45     		cmp	sl, r1
 2788 0100 C0F28F80 		blt	.L64
 2789              	.LVL250:
ARM GAS  /tmp/ccZUWmXH.s 			page 50


 2790              	.L74:
 2791              		.loc 3 83 0
 2792 0104 4846     		mov	r0, r9
 2793 0106 2A46     		mov	r2, r5
 2794 0108 2146     		mov	r1, r4
 2795 010a FFF7FEFF 		bl	gdisp_lld_draw_pixel
 2796              	.LVL251:
 2797              		.loc 3 84 0
 2798 010e 1BF4004F 		tst	fp, #32768
 2799 0112 CBD0     		beq	.L76
 2800              		.loc 3 85 0
 2801 0114 029B     		ldr	r3, [sp, #8]
 2802              		.loc 3 86 0
 2803 0116 B144     		add	r9, r9, r6
 2804              		.loc 3 85 0
 2805 0118 03EB0B01 		add	r1, r3, fp
 2806 011c 1FFA81FB 		uxth	fp, r1
 2807              		.loc 3 86 0
 2808 0120 0FFA89F9 		sxth	r9, r9
 2809 0124 CDE7     		b	.L77
 2810              	.LVL252:
 2811              	.L117:
 2812              		.loc 3 63 0
 2813 0126 111A     		subs	r1, r2, r0
 2814              	.LVL253:
 2815              		.loc 3 64 0
 2816 0128 0126     		movs	r6, #1
 2817              		.loc 3 69 0
 2818 012a A342     		cmp	r3, r4
 2819              		.loc 3 63 0
 2820 012c 88B2     		uxth	r0, r1
 2821              	.LVL254:
 2822              		.loc 3 69 0
 2823 012e BFF67EAF 		bge	.L119
 2824              	.LVL255:
 2825              	.L71:
 2826              		.loc 3 73 0
 2827 0132 E31A     		subs	r3, r4, r3
 2828              	.LVL256:
 2829 0134 99B2     		uxth	r1, r3
 2830              	.LVL257:
 2831              		.loc 3 77 0
 2832 0136 0FFA81FB 		sxth	fp, r1
 2833 013a 0FFA80FA 		sxth	sl, r0
 2834 013e D345     		cmp	fp, sl
 2835              		.loc 3 74 0
 2836 0140 4FF6FF77 		movw	r7, #65535
 2837              	.LVL258:
 2838              		.loc 3 77 0
 2839 0144 7FF77DAF 		ble	.L120
 2840              	.LVL259:
 2841              	.L73:
 2842              		.loc 3 94 0
 2843 0148 4200     		lsls	r2, r0, #1
 2844 014a 93B2     		uxth	r3, r2
 2845              		.loc 3 95 0
 2846 014c 88B2     		uxth	r0, r1
ARM GAS  /tmp/ccZUWmXH.s 			page 51


 2847 014e 191A     		subs	r1, r3, r0
 2848 0150 8AB2     		uxth	r2, r1
 2849              		.loc 3 96 0
 2850 0152 101A     		subs	r0, r2, r0
 2851              		.loc 3 94 0
 2852 0154 0293     		str	r3, [sp, #8]
 2853              	.LVL260:
 2854              		.loc 3 98 0
 2855 0156 BBF1000F 		cmp	fp, #0
 2856              		.loc 3 96 0
 2857 015a 83B2     		uxth	r3, r0
 2858              		.loc 3 95 0
 2859 015c 1FFA82F8 		uxth	r8, r2
 2860              	.LVL261:
 2861              		.loc 3 96 0
 2862 0160 0193     		str	r3, [sp, #4]
 2863              	.LVL262:
 2864              		.loc 3 98 0
 2865 0162 5EDB     		blt	.L64
 2866 0164 0BF00103 		and	r3, fp, #1
 2867              		.loc 3 99 0
 2868 0168 4846     		mov	r0, r9
 2869 016a 2146     		mov	r1, r4
 2870 016c 2A46     		mov	r2, r5
 2871              	.LVL263:
 2872 016e 0393     		str	r3, [sp, #12]
 2873 0170 FFF7FEFF 		bl	gdisp_lld_draw_pixel
 2874              	.LVL264:
 2875              		.loc 3 100 0
 2876 0174 18F4004F 		tst	r8, #32768
 2877 0178 40F09B80 		bne	.L121
 2878              		.loc 3 104 0
 2879 017c 0199     		ldr	r1, [sp, #4]
 2880              		.loc 3 105 0
 2881 017e B144     		add	r9, r9, r6
 2882              	.LVL265:
 2883              		.loc 3 104 0
 2884 0180 01EB0802 		add	r2, r1, r8
 2885              		.loc 3 106 0
 2886 0184 E419     		adds	r4, r4, r7
 2887              	.LVL266:
 2888              		.loc 3 104 0
 2889 0186 1FFA82FA 		uxth	sl, r2
 2890              		.loc 3 105 0
 2891 018a 0FFA89F9 		sxth	r9, r9
 2892              	.LVL267:
 2893              		.loc 3 106 0
 2894 018e 24B2     		sxth	r4, r4
 2895              	.LVL268:
 2896              	.L111:
 2897              		.loc 3 98 0
 2898 0190 4FF00108 		mov	r8, #1
 2899              	.LVL269:
 2900 0194 C345     		cmp	fp, r8
 2901 0196 44DB     		blt	.L64
 2902 0198 039A     		ldr	r2, [sp, #12]
 2903 019a 92B3     		cbz	r2, .L81
ARM GAS  /tmp/ccZUWmXH.s 			page 52


 2904              		.loc 3 99 0
 2905 019c 4846     		mov	r0, r9
 2906 019e 2146     		mov	r1, r4
 2907 01a0 2A46     		mov	r2, r5
 2908 01a2 FFF7FEFF 		bl	gdisp_lld_draw_pixel
 2909              	.LVL270:
 2910              		.loc 3 100 0
 2911 01a6 1AF4004F 		tst	sl, #32768
 2912 01aa 17D0     		beq	.L97
 2913 01ac 56E0     		b	.L106
 2914              	.LVL271:
 2915              	.L79:
 2916              		.loc 3 104 0
 2917 01ae 019A     		ldr	r2, [sp, #4]
 2918              		.loc 3 106 0
 2919 01b0 E319     		adds	r3, r4, r7
 2920              		.loc 3 104 0
 2921 01b2 02EB0A00 		add	r0, r2, sl
 2922              		.loc 3 105 0
 2923 01b6 09EB060A 		add	sl, r9, r6
 2924 01ba 0FFA8AF9 		sxth	r9, sl
 2925              		.loc 3 106 0
 2926 01be 1CB2     		sxth	r4, r3
 2927              		.loc 3 104 0
 2928 01c0 1FFA80FA 		uxth	sl, r0
 2929              	.LVL272:
 2930              	.L80:
 2931              		.loc 3 98 0
 2932 01c4 08F1010C 		add	ip, r8, #1
 2933              		.loc 3 99 0
 2934 01c8 4846     		mov	r0, r9
 2935 01ca 2146     		mov	r1, r4
 2936 01cc 2A46     		mov	r2, r5
 2937              		.loc 3 98 0
 2938 01ce 1FFA8CF8 		uxth	r8, ip
 2939              		.loc 3 99 0
 2940 01d2 FFF7FEFF 		bl	gdisp_lld_draw_pixel
 2941              	.LVL273:
 2942              		.loc 3 100 0
 2943 01d6 1AF4004F 		tst	sl, #32768
 2944 01da 3FD1     		bne	.L106
 2945              	.LVL274:
 2946              	.L97:
 2947              		.loc 3 104 0
 2948 01dc 0198     		ldr	r0, [sp, #4]
 2949              		.loc 3 105 0
 2950 01de 09EB060E 		add	lr, r9, r6
 2951              		.loc 3 104 0
 2952 01e2 00EB0A03 		add	r3, r0, sl
 2953              		.loc 3 106 0
 2954 01e6 E119     		adds	r1, r4, r7
 2955              		.loc 3 104 0
 2956 01e8 1FFA83FA 		uxth	sl, r3
 2957              		.loc 3 105 0
 2958 01ec 0FFA8EF9 		sxth	r9, lr
 2959              	.LVL275:
 2960              		.loc 3 106 0
ARM GAS  /tmp/ccZUWmXH.s 			page 53


 2961 01f0 0CB2     		sxth	r4, r1
 2962              	.LVL276:
 2963              	.L114:
 2964              		.loc 3 98 0
 2965 01f2 08F10108 		add	r8, r8, #1
 2966 01f6 1FFA88F8 		uxth	r8, r8
 2967 01fa 0FFA88F1 		sxth	r1, r8
 2968 01fe 8B45     		cmp	fp, r1
 2969 0200 0FDB     		blt	.L64
 2970              	.LVL277:
 2971              	.L81:
 2972              		.loc 3 99 0
 2973 0202 2146     		mov	r1, r4
 2974 0204 2A46     		mov	r2, r5
 2975 0206 4846     		mov	r0, r9
 2976 0208 FFF7FEFF 		bl	gdisp_lld_draw_pixel
 2977              	.LVL278:
 2978              		.loc 3 100 0
 2979 020c 1AF4004F 		tst	sl, #32768
 2980 0210 CDD0     		beq	.L79
 2981              		.loc 3 101 0
 2982 0212 0299     		ldr	r1, [sp, #8]
 2983              		.loc 3 102 0
 2984 0214 E419     		adds	r4, r4, r7
 2985              		.loc 3 101 0
 2986 0216 01EB0A02 		add	r2, r1, sl
 2987 021a 1FFA82FA 		uxth	sl, r2
 2988              		.loc 3 102 0
 2989 021e 24B2     		sxth	r4, r4
 2990 0220 D0E7     		b	.L80
 2991              	.LVL279:
 2992              	.L64:
 2993              		.loc 3 110 0
 2994 0222 05B0     		add	sp, sp, #20
 2995 0224 BDE8F08F 		pop	{r4, r5, r6, r7, r8, r9, sl, fp, pc}
 2996              	.LVL280:
 2997              	.L115:
 2998              		.loc 3 47 0
 2999 0228 8B42     		cmp	r3, r1
 3000 022a 29DD     		ble	.L66
 3001              		.loc 3 48 0
 3002 022c C1F10104 		rsb	r4, r1, #1
 3003 0230 E318     		adds	r3, r4, r3
 3004              	.LVL281:
 3005 0232 0122     		movs	r2, #1
 3006              	.LVL282:
 3007 0234 1BB2     		sxth	r3, r3
 3008 0236 0E95     		str	r5, [sp, #56]
 3009              		.loc 3 110 0
 3010 0238 05B0     		add	sp, sp, #20
 3011 023a BDE8F04F 		pop	{r4, r5, r6, r7, r8, r9, sl, fp, lr}
 3012              		.loc 3 48 0
 3013 023e FFF7FEBF 		b	gdisp_lld_fill_area
 3014              	.LVL283:
 3015              	.L116:
 3016              		.loc 3 54 0
 3017 0242 9042     		cmp	r0, r2
ARM GAS  /tmp/ccZUWmXH.s 			page 54


 3018 0244 27DA     		bge	.L68
 3019              		.loc 3 55 0
 3020 0246 C0F10109 		rsb	r9, r0, #1
 3021 024a 4A44     		add	r2, r9, r2
 3022              	.LVL284:
 3023 024c 12B2     		sxth	r2, r2
 3024 024e 0123     		movs	r3, #1
 3025              	.LVL285:
 3026 0250 0E95     		str	r5, [sp, #56]
 3027              		.loc 3 110 0
 3028 0252 05B0     		add	sp, sp, #20
 3029 0254 BDE8F04F 		pop	{r4, r5, r6, r7, r8, r9, sl, fp, lr}
 3030              		.loc 3 55 0
 3031 0258 FFF7FEBF 		b	gdisp_lld_fill_area
 3032              	.LVL286:
 3033              	.L106:
 3034              		.loc 3 101 0
 3035 025c 0298     		ldr	r0, [sp, #8]
 3036              		.loc 3 102 0
 3037 025e E419     		adds	r4, r4, r7
 3038              		.loc 3 101 0
 3039 0260 00EB0A03 		add	r3, r0, sl
 3040 0264 1FFA83FA 		uxth	sl, r3
 3041              		.loc 3 102 0
 3042 0268 24B2     		sxth	r4, r4
 3043 026a C2E7     		b	.L114
 3044              	.LVL287:
 3045              	.L104:
 3046              		.loc 3 85 0
 3047 026c 0298     		ldr	r0, [sp, #8]
 3048              		.loc 3 86 0
 3049 026e 09EB060C 		add	ip, r9, r6
 3050              		.loc 3 85 0
 3051 0272 00EB0B03 		add	r3, r0, fp
 3052 0276 1FFA83FB 		uxth	fp, r3
 3053              		.loc 3 86 0
 3054 027a 0FFA8CF9 		sxth	r9, ip
 3055 027e 38E7     		b	.L110
 3056              	.LVL288:
 3057              	.L66:
 3058              		.loc 3 50 0
 3059 0280 0131     		adds	r1, r1, #1
 3060              	.LVL289:
 3061 0282 CC1A     		subs	r4, r1, r3
 3062 0284 0122     		movs	r2, #1
 3063              	.LVL290:
 3064 0286 1946     		mov	r1, r3
 3065 0288 23B2     		sxth	r3, r4
 3066              	.LVL291:
 3067 028a 0E95     		str	r5, [sp, #56]
 3068              		.loc 3 110 0
 3069 028c 05B0     		add	sp, sp, #20
 3070 028e BDE8F04F 		pop	{r4, r5, r6, r7, r8, r9, sl, fp, lr}
 3071              		.loc 3 50 0
 3072 0292 FFF7FEBF 		b	gdisp_lld_fill_area
 3073              	.LVL292:
 3074              	.L68:
ARM GAS  /tmp/ccZUWmXH.s 			page 55


 3075              		.loc 3 57 0
 3076 0296 00F10109 		add	r9, r0, #1
 3077 029a C2EB0909 		rsb	r9, r2, r9
 3078 029e 1046     		mov	r0, r2
 3079              	.LVL293:
 3080 02a0 0123     		movs	r3, #1
 3081              	.LVL294:
 3082 02a2 0FFA89F2 		sxth	r2, r9
 3083              	.LVL295:
 3084 02a6 0E95     		str	r5, [sp, #56]
 3085              		.loc 3 110 0
 3086 02a8 05B0     		add	sp, sp, #20
 3087 02aa BDE8F04F 		pop	{r4, r5, r6, r7, r8, r9, sl, fp, lr}
 3088              		.loc 3 57 0
 3089 02ae FFF7FEBF 		b	gdisp_lld_fill_area
 3090              	.LVL296:
 3091              	.L121:
 3092              		.loc 3 101 0
 3093 02b2 0298     		ldr	r0, [sp, #8]
 3094              		.loc 3 102 0
 3095 02b4 E119     		adds	r1, r4, r7
 3096              		.loc 3 101 0
 3097 02b6 00EB0803 		add	r3, r0, r8
 3098 02ba 1FFA83FA 		uxth	sl, r3
 3099              		.loc 3 102 0
 3100 02be 0CB2     		sxth	r4, r1
 3101              	.LVL297:
 3102 02c0 66E7     		b	.L111
 3103              	.LVL298:
 3104              	.L118:
 3105              		.loc 3 85 0
 3106 02c2 0298     		ldr	r0, [sp, #8]
 3107              		.loc 3 86 0
 3108 02c4 09EB0601 		add	r1, r9, r6
 3109              		.loc 3 85 0
 3110 02c8 00EB0803 		add	r3, r0, r8
 3111 02cc 1FFA83FB 		uxth	fp, r3
 3112              		.loc 3 86 0
 3113 02d0 0FFA81F9 		sxth	r9, r1
 3114              	.LVL299:
 3115 02d4 DAE6     		b	.L107
 3116              		.cfi_endproc
 3117              	.LFE118:
 3118              		.size	gdisp_lld_draw_line, .-gdisp_lld_draw_line
 3119 02d6 00BFAFF3 		.section	.text.gdisp_lld_fill_circle,"ax",%progbits
 3119      0080AFF3 
 3119      0080
 3120              		.align	2
 3121              		.p2align 4,,15
 3122              		.global	gdisp_lld_fill_circle
 3123              		.thumb
 3124              		.thumb_func
 3125              		.type	gdisp_lld_fill_circle, %function
 3126              	gdisp_lld_fill_circle:
 3127              	.LFB120:
 3128              		.loc 3 195 0
 3129              		.cfi_startproc
ARM GAS  /tmp/ccZUWmXH.s 			page 56


 3130              		@ args = 0, pretend = 0, frame = 16
 3131              		@ frame_needed = 0, uses_anonymous_args = 0
 3132              	.LVL300:
 3133 0000 2DE9F04F 		push	{r4, r5, r6, r7, r8, r9, sl, fp, lr}
 3134              	.LCFI10:
 3135              		.cfi_def_cfa_offset 36
 3136              		.cfi_offset 4, -36
 3137              		.cfi_offset 5, -32
 3138              		.cfi_offset 6, -28
 3139              		.cfi_offset 7, -24
 3140              		.cfi_offset 8, -20
 3141              		.cfi_offset 9, -16
 3142              		.cfi_offset 10, -12
 3143              		.cfi_offset 11, -8
 3144              		.cfi_offset 14, -4
 3145              		.loc 3 199 0
 3146 0004 9246     		mov	sl, r2
 3147              		.loc 3 195 0
 3148 0006 87B0     		sub	sp, sp, #28
 3149              	.LCFI11:
 3150              		.cfi_def_cfa_offset 64
 3151              		.loc 3 200 0
 3152 0008 C2F10104 		rsb	r4, r2, #1
 3153 000c A2B2     		uxth	r2, r4
 3154              	.LVL301:
 3155 000e 1FFA80F8 		uxth	r8, r0
 3156 0012 0FFA8AF0 		sxth	r0, sl
 3157              	.LVL302:
 3158              		.loc 3 195 0
 3159 0016 1F46     		mov	r7, r3
 3160              		.loc 3 200 0
 3161 0018 0492     		str	r2, [sp, #16]
 3162              	.LVL303:
 3163 001a 8EB2     		uxth	r6, r1
 3164 001c 4FF00009 		mov	r9, #0
 3165 0020 0590     		str	r0, [sp, #20]
 3166 0022 17E0     		b	.L125
 3167              	.LVL304:
 3168              	.L123:
 3169              		.loc 3 210 0
 3170 0024 059A     		ldr	r2, [sp, #20]
 3171 0026 0499     		ldr	r1, [sp, #16]
 3172 0028 0AF1FF3A 		add	sl, sl, #-1
 3173              	.LVL305:
 3174 002c 4B1D     		adds	r3, r1, #5
 3175 002e C2EB0900 		rsb	r0, r2, r9
 3176 0032 1FFA8AFA 		uxth	sl, sl
 3177              	.LVL306:
 3178 0036 03EB4000 		add	r0, r3, r0, lsl #1
 3179 003a 0FFA8AF2 		sxth	r2, sl
 3180              		.loc 3 195 0
 3181 003e 0134     		adds	r4, r4, #1
 3182              		.loc 3 210 0
 3183 0040 83B2     		uxth	r3, r0
 3184 0042 0592     		str	r2, [sp, #20]
 3185              		.loc 3 195 0
 3186 0044 A1B2     		uxth	r1, r4
ARM GAS  /tmp/ccZUWmXH.s 			page 57


 3187              		.loc 3 210 0
 3188 0046 0493     		str	r3, [sp, #16]
 3189              	.LVL307:
 3190              		.loc 3 211 0
 3191 0048 059B     		ldr	r3, [sp, #20]
 3192 004a 0CB2     		sxth	r4, r1
 3193              	.LVL308:
 3194 004c 9C42     		cmp	r4, r3
 3195 004e 09F10109 		add	r9, r9, #1
 3196 0052 45DC     		bgt	.L127
 3197              	.LVL309:
 3198              	.L125:
 3199              		.loc 3 203 0
 3200 0054 1FFA8AF5 		uxth	r5, sl
 3201              		.loc 3 195 0
 3202 0058 1FFA89F4 		uxth	r4, r9
 3203 005c C4EB080C 		rsb	ip, r4, r8
 3204              		.loc 3 203 0
 3205 0060 A919     		adds	r1, r5, r6
 3206              		.loc 3 195 0
 3207 0062 08EB040B 		add	fp, r8, r4
 3208              		.loc 3 203 0
 3209 0066 0FFA8CFE 		sxth	lr, ip
 3210 006a 09B2     		sxth	r1, r1
 3211 006c 0FFA8BFB 		sxth	fp, fp
 3212 0070 7046     		mov	r0, lr
 3213 0072 5A46     		mov	r2, fp
 3214 0074 0B46     		mov	r3, r1
 3215 0076 0097     		str	r7, [sp, #0]
 3216 0078 CDF80CE0 		str	lr, [sp, #12]
 3217 007c FFF7FEFF 		bl	gdisp_lld_draw_line
 3218              	.LVL310:
 3219              		.loc 3 204 0
 3220 0080 DDF80CC0 		ldr	ip, [sp, #12]
 3221 0084 0097     		str	r7, [sp, #0]
 3222 0086 731B     		subs	r3, r6, r5
 3223 0088 19B2     		sxth	r1, r3
 3224 008a 6046     		mov	r0, ip
 3225 008c 5A46     		mov	r2, fp
 3226 008e 0B46     		mov	r3, r1
 3227 0090 FFF7FEFF 		bl	gdisp_lld_draw_line
 3228              	.LVL311:
 3229              		.loc 3 205 0
 3230 0094 C5EB0800 		rsb	r0, r5, r8
 3231              		.loc 3 195 0
 3232 0098 3219     		adds	r2, r6, r4
 3233              		.loc 3 205 0
 3234 009a 4544     		add	r5, r5, r8
 3235 009c 11B2     		sxth	r1, r2
 3236 009e 0FFA80FB 		sxth	fp, r0
 3237 00a2 2DB2     		sxth	r5, r5
 3238 00a4 0B46     		mov	r3, r1
 3239 00a6 5846     		mov	r0, fp
 3240 00a8 2A46     		mov	r2, r5
 3241 00aa 0097     		str	r7, [sp, #0]
 3242 00ac FFF7FEFF 		bl	gdisp_lld_draw_line
 3243              	.LVL312:
ARM GAS  /tmp/ccZUWmXH.s 			page 58


 3244              		.loc 3 195 0
 3245 00b0 311B     		subs	r1, r6, r4
 3246              		.loc 3 206 0
 3247 00b2 09B2     		sxth	r1, r1
 3248 00b4 0B46     		mov	r3, r1
 3249 00b6 0097     		str	r7, [sp, #0]
 3250 00b8 5846     		mov	r0, fp
 3251 00ba 2A46     		mov	r2, r5
 3252 00bc FFF7FEFF 		bl	gdisp_lld_draw_line
 3253              	.LVL313:
 3254              		.loc 3 207 0
 3255 00c0 049B     		ldr	r3, [sp, #16]
 3256 00c2 1904     		lsls	r1, r3, #16
 3257 00c4 AED5     		bpl	.L123
 3258              		.loc 3 208 0
 3259 00c6 D81C     		adds	r0, r3, #3
 3260 00c8 00EB4401 		add	r1, r0, r4, lsl #1
 3261              		.loc 3 195 0
 3262 00cc 0134     		adds	r4, r4, #1
 3263              		.loc 3 208 0
 3264 00ce 8AB2     		uxth	r2, r1
 3265              		.loc 3 211 0
 3266 00d0 059B     		ldr	r3, [sp, #20]
 3267              		.loc 3 208 0
 3268 00d2 0492     		str	r2, [sp, #16]
 3269              		.loc 3 195 0
 3270 00d4 A1B2     		uxth	r1, r4
 3271              	.LVL314:
 3272              		.loc 3 211 0
 3273 00d6 0CB2     		sxth	r4, r1
 3274              	.LVL315:
 3275 00d8 9C42     		cmp	r4, r3
 3276 00da 09F10109 		add	r9, r9, #1
 3277 00de B9DD     		ble	.L125
 3278              	.LVL316:
 3279              	.L127:
 3280              		.loc 3 212 0
 3281 00e0 07B0     		add	sp, sp, #28
 3282 00e2 BDE8F08F 		pop	{r4, r5, r6, r7, r8, r9, sl, fp, pc}
 3283              		.cfi_endproc
 3284              	.LFE120:
 3285              		.size	gdisp_lld_fill_circle, .-gdisp_lld_fill_circle
 3286 00e6 00BFAFF3 		.section	.text.gdisp_lld_blit_area_ex,"ax",%progbits
 3286      0080AFF3 
 3286      0080
 3287              		.align	2
 3288              		.p2align 4,,15
 3289              		.global	gdisp_lld_blit_area_ex
 3290              		.thumb
 3291              		.thumb_func
 3292              		.type	gdisp_lld_blit_area_ex, %function
 3293              	gdisp_lld_blit_area_ex:
 3294              	.LFB136:
 3295              		.loc 1 358 0
 3296              		.cfi_startproc
 3297              		@ args = 16, pretend = 0, frame = 0
 3298              		@ frame_needed = 0, uses_anonymous_args = 0
ARM GAS  /tmp/ccZUWmXH.s 			page 59


 3299              	.LVL317:
 3300 0000 2DE9F047 		push	{r4, r5, r6, r7, r8, r9, sl, lr}
 3301              	.LCFI12:
 3302              		.cfi_def_cfa_offset 32
 3303              		.cfi_offset 4, -32
 3304              		.cfi_offset 5, -28
 3305              		.cfi_offset 6, -24
 3306              		.cfi_offset 7, -20
 3307              		.cfi_offset 8, -16
 3308              		.cfi_offset 9, -12
 3309              		.cfi_offset 10, -8
 3310              		.cfi_offset 14, -4
 3311              		.loc 1 358 0
 3312 0004 BDF92070 		ldrsh	r7, [sp, #32]
 3313 0008 BDF92880 		ldrsh	r8, [sp, #40]
 3314              		.loc 1 369 0
 3315 000c BDF924E0 		ldrsh	lr, [sp, #36]
 3316 0010 0B9D     		ldr	r5, [sp, #44]
 3317              		.loc 1 358 0
 3318 0012 0E46     		mov	r6, r1
 3319              		.loc 1 369 0
 3320 0014 0EFB087C 		mla	ip, lr, r8, r7
 3321              		.loc 1 358 0
 3322 0018 9946     		mov	r9, r3
 3323 001a 1446     		mov	r4, r2
 3324              		.loc 1 369 0
 3325 001c 05EB4C05 		add	r5, r5, ip, lsl #1
 3326              	.LVL318:
 3327              		.loc 1 372 0
 3328 0020 FFF7FEFF 		bl	set_viewport
 3329              	.LVL319:
 3330              		.loc 1 392 0
 3331 0024 09EB0600 		add	r0, r9, r6
 3332              		.loc 1 394 0
 3333 0028 0FFA80FC 		sxth	ip, r0
 3334              		.loc 1 391 0
 3335 002c 3B19     		adds	r3, r7, r4
 3336              	.LBB1215:
 3337              	.LBB1216:
 3338              		.loc 2 144 0
 3339 002e 4FF0C042 		mov	r2, #1610612736
 3340 0032 2221     		movs	r1, #34
 3341              	.LBE1216:
 3342              	.LBE1215:
 3343              		.loc 1 391 0
 3344 0034 9BB2     		uxth	r3, r3
 3345              		.loc 1 394 0
 3346 0036 6645     		cmp	r6, ip
 3347              	.LBB1218:
 3348              	.LBB1217:
 3349              		.loc 2 144 0
 3350 0038 1180     		strh	r1, [r2, #0]	@ movhi
 3351              	.LBE1217:
 3352              	.LBE1218:
 3353              		.loc 1 391 0
 3354 003a 98B2     		uxth	r0, r3
 3355              	.LVL320:
ARM GAS  /tmp/ccZUWmXH.s 			page 60


 3356              		.loc 1 393 0
 3357 003c C4EB0808 		rsb	r8, r4, r8
 3358              	.LVL321:
 3359              		.loc 1 394 0
 3360 0040 36DA     		bge	.L128
 3361              		.loc 1 358 0
 3362 0042 FC43     		mvns	r4, r7
 3363 0044 1B19     		adds	r3, r3, r4
 3364              	.LVL322:
 3365 0046 1FFA83F9 		uxth	r9, r3
 3366              	.LVL323:
 3367 004a 09F10101 		add	r1, r9, #1
 3368              	.LBB1219:
 3369              	.LBB1220:
 3370              		.loc 2 153 0
 3371 004e 0024     		movs	r4, #0
 3372              	.LBE1220:
 3373              	.LBE1219:
 3374              		.loc 1 358 0
 3375 0050 4FEA4109 		lsl	r9, r1, #1
 3376 0054 4FEA4808 		lsl	r8, r8, #1
 3377              	.LVL324:
 3378 0058 01B2     		sxth	r1, r0
 3379              	.LBB1226:
 3380              	.LBB1221:
 3381              		.loc 2 153 0
 3382 005a C6F20204 		movt	r4, 24578
 3383              	.LVL325:
 3384              	.L130:
 3385              	.LBE1221:
 3386              	.LBE1226:
 3387              		.loc 1 395 0 discriminator 1
 3388 005e 8F42     		cmp	r7, r1
 3389 0060 21DA     		bge	.L132
 3390              		.loc 1 396 0
 3391 0062 2B46     		mov	r3, r5
 3392              		.loc 1 395 0
 3393 0064 7A1C     		adds	r2, r7, #1
 3394 0066 781A     		subs	r0, r7, r1
 3395              		.loc 1 396 0
 3396 0068 33F802AB 		ldrh	sl, [r3], #2
 3397              	.LVL326:
 3398              		.loc 1 395 0
 3399 006c 12B2     		sxth	r2, r2
 3400 006e C043     		mvns	r0, r0
 3401 0070 9142     		cmp	r1, r2
 3402              	.LBB1227:
 3403              	.LBB1222:
 3404              		.loc 2 153 0
 3405 0072 A4F800A0 		strh	sl, [r4, #0]	@ movhi
 3406 0076 00F00100 		and	r0, r0, #1
 3407              	.LBE1222:
 3408              	.LBE1227:
 3409              		.loc 1 395 0
 3410 007a 13D0     		beq	.L141
 3411 007c 30B1     		cbz	r0, .L131
 3412 007e 0132     		adds	r2, r2, #1
ARM GAS  /tmp/ccZUWmXH.s 			page 61


 3413              		.loc 1 396 0
 3414 0080 33F8020B 		ldrh	r0, [r3], #2
 3415              	.LVL327:
 3416              		.loc 1 395 0
 3417 0084 12B2     		sxth	r2, r2
 3418              	.LVL328:
 3419 0086 9142     		cmp	r1, r2
 3420              	.LBB1228:
 3421              	.LBB1223:
 3422              		.loc 2 153 0
 3423 0088 2080     		strh	r0, [r4, #0]	@ movhi
 3424              	.LBE1223:
 3425              	.LBE1228:
 3426              		.loc 1 395 0
 3427 008a 0BD0     		beq	.L141
 3428              	.L131:
 3429              		.loc 1 396 0 discriminator 2
 3430 008c 1846     		mov	r0, r3
 3431              		.loc 1 395 0 discriminator 2
 3432 008e 0232     		adds	r2, r2, #2
 3433              		.loc 1 396 0 discriminator 2
 3434 0090 30F802AB 		ldrh	sl, [r0], #2
 3435              	.LBB1229:
 3436              	.LBB1224:
 3437              		.loc 2 153 0 discriminator 2
 3438 0094 A4F800A0 		strh	sl, [r4, #0]	@ movhi
 3439              	.LBE1224:
 3440              	.LBE1229:
 3441              		.loc 1 396 0 discriminator 2
 3442 0098 5B88     		ldrh	r3, [r3, #2]
 3443              		.loc 1 395 0 discriminator 2
 3444 009a 12B2     		sxth	r2, r2
 3445              	.LBB1230:
 3446              	.LBB1225:
 3447              		.loc 2 153 0 discriminator 2
 3448 009c 2380     		strh	r3, [r4, #0]	@ movhi
 3449              	.LBE1225:
 3450              	.LBE1230:
 3451              		.loc 1 396 0 discriminator 2
 3452 009e 831C     		adds	r3, r0, #2
 3453              		.loc 1 395 0 discriminator 2
 3454 00a0 9142     		cmp	r1, r2
 3455 00a2 F3D1     		bne	.L131
 3456              	.L141:
 3457 00a4 4D44     		add	r5, r5, r9
 3458              	.L132:
 3459              		.loc 1 394 0
 3460 00a6 0136     		adds	r6, r6, #1
 3461 00a8 36B2     		sxth	r6, r6
 3462              	.LVL329:
 3463 00aa B445     		cmp	ip, r6
 3464 00ac 4544     		add	r5, r5, r8
 3465              	.LVL330:
 3466 00ae D6D1     		bne	.L130
 3467              	.LVL331:
 3468              	.L128:
 3469 00b0 BDE8F087 		pop	{r4, r5, r6, r7, r8, r9, sl, pc}
ARM GAS  /tmp/ccZUWmXH.s 			page 62


 3470              		.cfi_endproc
 3471              	.LFE136:
 3472              		.size	gdisp_lld_blit_area_ex, .-gdisp_lld_blit_area_ex
 3473              		.global	GDISP
 3474 00b4 AFF30080 		.section	.rodata
 3474      AFF30080 
 3474      AFF30080 
 3475              		.align	2
 3476              		.set	.LANCHOR1,. + 0
 3477              	.LC0:
 3478 0000 000C0240 		.word	1073875968
 3479 0004 B3CF0000 		.word	53171
 3480 0008 00000000 		.word	0
 3481              	.LC1:
 3482 000c 00100240 		.word	1073876992
 3483 0010 80FF0000 		.word	65408
 3484 0014 00000000 		.word	0
 3485              		.section	.bss.GDISP,"aw",%nobits
 3486              		.align	2
 3487              		.set	.LANCHOR0,. + 0
 3488              		.type	GDISP, %object
 3489              		.size	GDISP, 8
 3490              	GDISP:
 3491 0000 00000000 		.space	8
 3491      00000000 
 3492              		.text
 3493              	.Letext0:
 3494              		.file 4 "/usr/bin/../lib/gcc/arm-none-eabi/4.7.4/../../../../arm-none-eabi/include/stdint.h"
 3495              		.file 5 "../../os/ports/GCC/ARMCMx/chtypes.h"
 3496              		.file 6 "../../os/hal/platforms/STM32F4xx/stm32f4xx.h"
 3497              		.file 7 "../../os/hal/platforms/STM32/GPIOv2/pal_lld.h"
 3498              		.file 8 "../../os/hal/include/pal.h"
 3499              		.file 9 "../../ext/ugfx/include/gos/chibios.h"
 3500              		.file 10 "../../ext/ugfx/include/gdisp/gdisp.h"
 3501              		.file 11 "../../os/ports/common/ARMCMx/CMSIS/include/core_cm4.h"