ARM GAS  /tmp/ccWye6mq.s 			page 1


   1              		.syntax unified
   2              		.cpu cortex-m4
   3              		.eabi_attribute 27, 3
   4              		.eabi_attribute 28, 1
   5              		.fpu fpv4-sp-d16
   6              		.eabi_attribute 20, 1
   7              		.eabi_attribute 21, 1
   8              		.eabi_attribute 23, 3
   9              		.eabi_attribute 24, 1
  10              		.eabi_attribute 25, 1
  11              		.eabi_attribute 26, 1
  12              		.eabi_attribute 30, 2
  13              		.eabi_attribute 34, 1
  14              		.eabi_attribute 18, 4
  15              		.thumb
  16              		.file	"main.c"
  17              		.text
  18              	.Ltext0:
  19              		.cfi_sections	.debug_frame
  20              		.section	.text.initialize,"ax",%progbits
  21              		.align	2
  22              		.p2align 4,,15
  23              		.global	initialize
  24              		.thumb
  25              		.thumb_func
  26              		.type	initialize, %function
  27              	initialize:
  28              	.LFB118:
  29              		.file 1 "main.c"
  30              		.loc 1 34 0
  31              		.cfi_startproc
  32              		@ args = 0, pretend = 0, frame = 0
  33              		@ frame_needed = 0, uses_anonymous_args = 0
  34              	.LVL0:
  35 0000 F8B5     		push	{r3, r4, r5, r6, r7, lr}
  36              	.LCFI0:
  37              		.cfi_def_cfa_offset 24
  38              		.cfi_offset 3, -24
  39              		.cfi_offset 4, -20
  40              		.cfi_offset 5, -16
  41              		.cfi_offset 6, -12
  42              		.cfi_offset 7, -8
  43              		.cfi_offset 14, -4
  44 0002 9FED250A 		flds	s0, .L9
  45 0006 2DED048B 		fstmfdd	sp!, {d8, d9}
  46              	.LCFI1:
  47              		.cfi_def_cfa_offset 40
  48              		.cfi_offset 80, -40
  49              		.cfi_offset 82, -32
  50 000a 244D     		ldr	r5, .L9+4
  51              		.loc 1 43 0
  52 000c 9FED248A 		flds	s16, .L9+8
  53 0010 9FED249A 		flds	s18, .L9+12
  54              		.loc 1 33 0
  55 0014 DFED248A 		flds	s17, .L9+16
  56              		.loc 1 34 0
  57 0018 0024     		movs	r4, #0
ARM GAS  /tmp/ccWye6mq.s 			page 2


  58 001a 2DE0     		b	.L3
  59              	.LVL1:
  60              	.L8:
  61 001c 07EE106A 		fmsr	s14, r6	@ int
  62 0020 B8EEC71A 		fsitos	s2, s14
  63 0024 0136     		adds	r6, r6, #1
  64 0026 61EE091A 		fmuls	s3, s2, s18
  65              		.loc 1 33 0
  66 002a 21EEA80A 		fmuls	s0, s3, s17
  67 002e FFF7FEFF 		bl	sinf
  68              	.LVL2:
  69 0032 02EE106A 		fmsr	s4, r6	@ int
  70              		.loc 1 43 0
  71 0036 60EE082A 		fmuls	s5, s0, s16
  72 003a F8EEC27A 		fsitos	s15, s4
  73 003e FDEEE23A 		ftosizs	s7, s5
  74 0042 27EE893A 		fmuls	s6, s15, s18
  75 0046 13EE900A 		fmrs	r0, s7	@ int
  76              		.loc 1 33 0
  77 004a 23EE280A 		fmuls	s0, s6, s17
  78              		.loc 1 43 0
  79 004e A880     		strh	r0, [r5, #4]	@ movhi
  80              		.loc 1 33 0
  81 0050 FFF7FEFF 		bl	sinf
  82              	.LVL3:
  83 0054 04EE104A 		fmsr	s8, r4	@ int
  84              		.loc 1 43 0
  85 0058 20EE085A 		fmuls	s10, s0, s16
  86 005c F8EEC44A 		fsitos	s9, s8
  87 0060 BDEEC56A 		ftosizs	s12, s10
  88 0064 64EE895A 		fmuls	s11, s9, s18
  89 0068 16EE101A 		fmrs	r1, s12	@ int
  90              		.loc 1 33 0
  91 006c 25EEA80A 		fmuls	s0, s11, s17
  92              		.loc 1 43 0
  93 0070 25F8061F 		strh	r1, [r5, #6]!	@ movhi
  94              		.loc 1 33 0
  95 0074 FFF7FEFF 		bl	sinf
  96              	.LVL4:
  97              	.L3:
  98              		.loc 1 43 0 discriminator 2
  99 0078 20EE080A 		fmuls	s0, s0, s16
 100 007c 661C     		adds	r6, r4, #1
 101 007e FDEEC00A 		ftosizs	s1, s0
 102 0082 0334     		adds	r4, r4, #3
 103 0084 10EE903A 		fmrs	r3, s1	@ int
 104 0088 AF1C     		adds	r7, r5, #2
 105              		.loc 1 41 0 discriminator 2
 106 008a B6F5205F 		cmp	r6, #10240
 107              		.loc 1 43 0 discriminator 2
 108 008e 6B80     		strh	r3, [r5, #2]	@ movhi
 109              		.loc 1 41 0 discriminator 2
 110 0090 C4D1     		bne	.L8
 111              		.loc 1 44 0
 112 0092 BDEC048B 		fldmfdd	sp!, {d8, d9}
 113 0096 F8BD     		pop	{r3, r4, r5, r6, r7, pc}
 114              	.L10:
ARM GAS  /tmp/ccWye6mq.s 			page 3


 115              		.align	2
 116              	.L9:
 117 0098 00000000 		.word	0
 118 009c FEFFFFFF 		.word	.LANCHOR0-2
 119 00a0 00000046 		.word	1174405120
 120 00a4 DB0FC940 		.word	1086918619
 121 00a8 00000039 		.word	956301312
 122              		.cfi_endproc
 123              	.LFE118:
 124              		.size	initialize, .-initialize
 125 00ac AFF30080 		.section	.text.matrix,"ax",%progbits
 126              		.align	2
 127              		.p2align 4,,15
 128              		.global	matrix
 129              		.thumb
 130              		.thumb_func
 131              		.type	matrix, %function
 132              	matrix:
 133              	.LFB119:
 134              		.loc 1 48 0
 135              		.cfi_startproc
 136              		@ args = 0, pretend = 0, frame = 24
 137              		@ frame_needed = 0, uses_anonymous_args = 0
 138              	.LVL5:
 139 0000 2DE9F04F 		push	{r4, r5, r6, r7, r8, r9, sl, fp, lr}
 140              	.LCFI2:
 141              		.cfi_def_cfa_offset 36
 142              		.cfi_offset 4, -36
 143              		.cfi_offset 5, -32
 144              		.cfi_offset 6, -28
 145              		.cfi_offset 7, -24
 146              		.cfi_offset 8, -20
 147              		.cfi_offset 9, -16
 148              		.cfi_offset 10, -12
 149              		.cfi_offset 11, -8
 150              		.cfi_offset 14, -4
 151 0004 40F20002 		movw	r2, #:lower16:.LANCHOR1
 152 0008 C0F20002 		movt	r2, #:upper16:.LANCHOR1
 153 000c 87B0     		sub	sp, sp, #28
 154              	.LCFI3:
 155              		.cfi_def_cfa_offset 64
 156 000e 1468     		ldr	r4, [r2, #0]
 157              		.loc 1 48 0
 158 0010 0291     		str	r1, [sp, #8]
 159 0012 C4EB0415 		rsb	r5, r4, r4, lsl #4
 160 0016 0594     		str	r4, [sp, #20]
 161 0018 04EB8404 		add	r4, r4, r4, lsl #2
 162 001c 8246     		mov	sl, r0
 163 001e 2205     		lsls	r2, r4, #20
 164 0020 2805     		lsls	r0, r5, #20
 165              	.LVL6:
 166              		.loc 1 50 0
 167 0022 4FF46046 		mov	r6, #57344
 168 0026 D10C     		lsrs	r1, r2, #19
 169              	.LVL7:
 170 0028 0AF5006C 		add	ip, sl, #2048
 171 002c 0AF58053 		add	r3, sl, #4096
ARM GAS  /tmp/ccWye6mq.s 			page 4


 172 0030 5A4F     		ldr	r7, .L25
 173 0032 0191     		str	r1, [sp, #4]
 174 0034 4FEAD04B 		lsr	fp, r0, #19
 175              		.loc 1 48 0
 176 0038 0024     		movs	r4, #0
 177              		.loc 1 50 0
 178 003a 3546     		mov	r5, r6
 179 003c CDF810C0 		str	ip, [sp, #16]
 180 0040 0393     		str	r3, [sp, #12]
 181              		.loc 1 72 0
 182 0042 4FF01F09 		mov	r9, #31	@ movhi
 183 0046 4FF47838 		mov	r8, #253952
 184 004a 46E0     		b	.L20
 185              	.LVL8:
 186              	.L14:
 187 004c 00F5D550 		add	r0, r0, #6816
 188 0050 41F6FF73 		movw	r3, #8191
 189 0054 0A30     		adds	r0, r0, #10
 190 0056 C8F20003 		movt	r3, 32768
 191 005a 0340     		ands	r3, r3, r0
 192 005c 002B     		cmp	r3, #0
 193              		.loc 1 70 0
 194 005e 31F81220 		ldrh	r2, [r1, r2, lsl #1]
 195              	.LVL9:
 196              		.loc 1 72 0
 197 0062 C0F28580 		blt	.L22
 198              	.L15:
 199 0066 31F81310 		ldrh	r1, [r1, r3, lsl #1]
 200              	.LVL10:
 201 006a 11FB0980 		smlabb	r0, r1, r9, r8
 202              		.loc 1 73 0
 203 006e 0028     		cmp	r0, #0
 204 0070 B8BF     		it	lt
 205 0072 00F57F50 		addlt	r0, r0, #16320
 206              		.loc 1 68 0
 207 0076 1CFB098C 		smlabb	ip, ip, r9, r8
 208              	.LVL11:
 209              		.loc 1 73 0
 210 007a B8BF     		it	lt
 211 007c 3F30     		addlt	r0, r0, #63
 212              		.loc 1 69 0
 213 007e BCF1000F 		cmp	ip, #0
 214 0082 BCBF     		itt	lt
 215 0084 0CF57F5C 		addlt	ip, ip, #16320
 216 0088 0CF13F0C 		addlt	ip, ip, #63
 217              		.loc 1 74 0
 218 008c C0F38733 		ubfx	r3, r0, #14, #8
 219              		.loc 1 70 0
 220 0090 4FF4FC21 		mov	r1, #516096
 221              	.LVL12:
 222 0094 3F20     		movs	r0, #63
 223 0096 12FB0012 		smlabb	r2, r2, r0, r1
 224              	.LVL13:
 225              		.loc 1 71 0
 226 009a 002A     		cmp	r2, #0
 227 009c BCBF     		itt	lt
 228 009e 02F57F52 		addlt	r2, r2, #16320
ARM GAS  /tmp/ccWye6mq.s 			page 5


 229 00a2 3F32     		addlt	r2, r2, #63
 230              		.loc 1 74 0
 231 00a4 CCF3873C 		ubfx	ip, ip, #14, #8
 232              		.loc 1 76 0
 233 00a8 05F50075 		add	r5, r5, #512
 234              		.loc 1 74 0
 235 00ac C2F38730 		ubfx	r0, r2, #14, #8
 236 00b0 03EBCC23 		add	r3, r3, ip, lsl #11
 237              		.loc 1 76 0
 238 00b4 ADB2     		uxth	r5, r5
 239              	.LVL14:
 240              		.loc 1 74 0
 241 00b6 03EB4013 		add	r3, r3, r0, lsl #5
 242              		.loc 1 78 0
 243 00ba 29B2     		sxth	r1, r5
 244              		.loc 1 74 0
 245 00bc 029A     		ldr	r2, [sp, #8]
 246              		.loc 1 78 0
 247 00be 41F6FF70 		movw	r0, #8191
 248 00c2 8142     		cmp	r1, r0
 249              		.loc 1 74 0
 250 00c4 1353     		strh	r3, [r2, r4]	@ movhi
 251              		.loc 1 78 0
 252 00c6 04DD     		ble	.L19
 253              	.LVL15:
 254              		.loc 1 78 0 is_stmt 0 discriminator 1
 255 00c8 06F50076 		add	r6, r6, #512
 256 00cc B6B2     		uxth	r6, r6
 257              	.LVL16:
 258 00ce 4FF46045 		mov	r5, #57344
 259              	.LVL17:
 260              	.L19:
 261 00d2 0234     		adds	r4, r4, #2
 262              	.LVL18:
 263              		.loc 1 58 0 is_stmt 1
 264 00d4 B4F5006F 		cmp	r4, #2048
 265 00d8 51D0     		beq	.L23
 266              	.LVL19:
 267              	.L20:
 268              		.loc 1 63 0
 269 00da 16FB06F0 		smulbb	r0, r6, r6
 270 00de 15FB0502 		smlabb	r2, r5, r5, r0
 271 00e2 07EE902A 		fmsr	s15, r2	@ int
 272 00e6 B8EEE70A 		fsitos	s0, s15
 273              		.loc 1 61 0
 274 00ea 0499     		ldr	r1, [sp, #16]
 275              		.loc 1 60 0
 276 00ec 2AF80450 		strh	r5, [sl, r4]	@ movhi
 277              		.loc 1 63 0
 278 00f0 F1EEC00A 		fsqrts	s1, s0
 279              		.loc 1 61 0
 280 00f4 0E53     		strh	r6, [r1, r4]	@ movhi
 281              		.loc 1 63 0
 282 00f6 F4EE600A 		fcmps	s1, s1
 283 00fa F1EE10FA 		fmstat
 284 00fe 48D1     		bne	.L24
 285              	.L12:
ARM GAS  /tmp/ccWye6mq.s 			page 6


 286              	.LVL20:
 287 0100 BCEEE00A 		ftouizs	s0, s1
 288              		.loc 1 64 0
 289 0104 37F81B20 		ldrh	r2, [r7, fp, lsl #1]
 290              		.loc 1 66 0
 291 0108 DDF804C0 		ldr	ip, [sp, #4]
 292              		.loc 1 63 0
 293 010c 10EE100A 		fmrs	r0, s0	@ int
 294              		.loc 1 66 0
 295 0110 1118     		adds	r1, r2, r0
 296 0112 C804     		lsls	r0, r1, #19
 297 0114 C20C     		lsrs	r2, r0, #19
 298 0116 37F81C30 		ldrh	r3, [r7, ip, lsl #1]
 299 011a 37F81210 		ldrh	r1, [r7, r2, lsl #1]
 300 011e DDF80CC0 		ldr	ip, [sp, #12]
 301 0122 11FB03F3 		smulbb	r3, r1, r3
 302 0126 002B     		cmp	r3, #0
 303 0128 BCBF     		itt	lt
 304 012a 03F57F53 		addlt	r3, r3, #16320
 305 012e 3F33     		addlt	r3, r3, #63
 306 0130 C3F38F31 		ubfx	r1, r3, #14, #16
 307              		.loc 1 68 0
 308 0134 08B2     		sxth	r0, r1
 309              		.loc 1 66 0
 310 0136 2CF80410 		strh	r1, [ip, r4]	@ movhi
 311              		.loc 1 68 0
 312 013a 40F20001 		movw	r1, #:lower16:.LANCHOR2
 313              		.loc 1 70 0
 314 013e 00F51553 		add	r3, r0, #9536
 315 0142 41F6FF72 		movw	r2, #8191
 316              		.loc 1 68 0
 317 0146 C0F20001 		movt	r1, #:upper16:.LANCHOR2
 318              		.loc 1 70 0
 319 014a 1533     		adds	r3, r3, #21
 320 014c C8F20002 		movt	r2, 32768
 321              		.loc 1 68 0
 322 0150 0968     		ldr	r1, [r1, #0]
 323 0152 00F5805C 		add	ip, r0, #4096
 324              		.loc 1 70 0
 325 0156 1A40     		ands	r2, r2, r3
 326 0158 002A     		cmp	r2, #0
 327              		.loc 1 68 0
 328 015a 31F81CC0 		ldrh	ip, [r1, ip, lsl #1]
 329              	.LVL21:
 330              		.loc 1 70 0
 331 015e BFF675AF 		bge	.L14
 332 0162 013A     		subs	r2, r2, #1
 333 0164 6FEAC243 		mvn	r3, r2, lsl #19
 334 0168 6FEAD342 		mvn	r2, r3, lsr #19
 335 016c 0132     		adds	r2, r2, #1
 336 016e 6DE7     		b	.L14
 337              	.LVL22:
 338              	.L22:
 339              		.loc 1 72 0
 340 0170 013B     		subs	r3, r3, #1
 341 0172 6FEAC340 		mvn	r0, r3, lsl #19
 342 0176 6FEAD043 		mvn	r3, r0, lsr #19
ARM GAS  /tmp/ccWye6mq.s 			page 7


 343 017a 0133     		adds	r3, r3, #1
 344 017c 73E7     		b	.L15
 345              	.LVL23:
 346              	.L23:
 347              		.loc 1 80 0
 348 017e 059B     		ldr	r3, [sp, #20]
 349 0180 40F20004 		movw	r4, #:lower16:.LANCHOR1
 350              	.LVL24:
 351 0184 C0F20004 		movt	r4, #:upper16:.LANCHOR1
 352 0188 591C     		adds	r1, r3, #1
 353 018a 2160     		str	r1, [r4, #0]
 354              		.loc 1 81 0
 355 018c 07B0     		add	sp, sp, #28
 356 018e BDE8F08F 		pop	{r4, r5, r6, r7, r8, r9, sl, fp, pc}
 357              	.LVL25:
 358              	.L24:
 359              		.loc 1 63 0
 360 0192 FFF7FEFF 		bl	sqrtf
 361              	.LVL26:
 362 0196 F0EE400A 		fcpys	s1, s0
 363 019a B1E7     		b	.L12
 364              	.L26:
 365              		.align	2
 366              	.L25:
 367 019c 00000000 		.word	.LANCHOR0
 368              		.cfi_endproc
 369              	.LFE119:
 370              		.size	matrix, .-matrix
 371              		.section	.text.rotate,"ax",%progbits
 372              		.align	2
 373              		.p2align 4,,15
 374              		.global	rotate
 375              		.thumb
 376              		.thumb_func
 377              		.type	rotate, %function
 378              	rotate:
 379              	.LFB120:
 380              		.loc 1 85 0
 381              		.cfi_startproc
 382              		@ args = 0, pretend = 0, frame = 8
 383              		@ frame_needed = 0, uses_anonymous_args = 0
 384              		@ link register save eliminated.
 385              	.LVL27:
 386 0000 2DE9F00F 		push	{r4, r5, r6, r7, r8, r9, sl, fp}
 387              	.LCFI4:
 388              		.cfi_def_cfa_offset 32
 389              		.cfi_offset 4, -32
 390              		.cfi_offset 5, -28
 391              		.cfi_offset 6, -24
 392              		.cfi_offset 7, -20
 393              		.cfi_offset 8, -16
 394              		.cfi_offset 9, -12
 395              		.cfi_offset 10, -8
 396              		.cfi_offset 11, -4
 397              		.loc 1 88 0
 398 0004 374D     		ldr	r5, .L36
 399 0006 384C     		ldr	r4, .L36+4
ARM GAS  /tmp/ccWye6mq.s 			page 8


 400              		.loc 1 90 0
 401 0008 35F813C0 		ldrh	ip, [r5, r3, lsl #1]
 402              		.loc 1 88 0
 403 000c 2668     		ldr	r6, [r4, #0]
 404 000e 35F811B0 		ldrh	fp, [r5, r1, lsl #1]
 405              	.LVL28:
 406 0012 36F811A0 		ldrh	sl, [r6, r1, lsl #1]
 407              	.LVL29:
 408              		.loc 1 89 0
 409 0016 35F81290 		ldrh	r9, [r5, r2, lsl #1]
 410              	.LVL30:
 411 001a 36F81280 		ldrh	r8, [r6, r2, lsl #1]
 412              	.LVL31:
 413              		.loc 1 90 0
 414 001e 36F81370 		ldrh	r7, [r6, r3, lsl #1]
 415              	.LVL32:
 416              		.loc 1 85 0
 417 0022 82B0     		sub	sp, sp, #8
 418              	.LCFI5:
 419              		.cfi_def_cfa_offset 40
 420              		.loc 1 90 0
 421 0024 0023     		movs	r3, #0
 422              	.LVL33:
 423 0026 00F58052 		add	r2, r0, #4096
 424              	.LVL34:
 425 002a 00F50061 		add	r1, r0, #2048
 426              	.LVL35:
 427 002e CDF800C0 		str	ip, [sp, #0]
 428              	.LVL36:
 429              	.L34:
 430              		.loc 1 94 0 discriminator 2
 431 0032 D55A     		ldrh	r5, [r2, r3]
 432 0034 C65A     		ldrh	r6, [r0, r3]
 433              	.LVL37:
 434              		.loc 1 95 0 discriminator 2
 435 0036 15FB0AF4 		smulbb	r4, r5, sl
 436 003a 16FB0B44 		smlabb	r4, r6, fp, r4
 437 003e 002C     		cmp	r4, #0
 438 0040 BCBF     		itt	lt
 439 0042 04F5FF54 		addlt	r4, r4, #8160
 440 0046 1F34     		addlt	r4, r4, #31
 441 0048 6413     		asrs	r4, r4, #13
 442              		.loc 1 94 0 discriminator 2
 443 004a 16FB0AF6 		smulbb	r6, r6, sl
 444              	.LVL38:
 445 004e 15FB0BF5 		smulbb	r5, r5, fp
 446              	.LVL39:
 447              		.loc 1 95 0 discriminator 2
 448 0052 D452     		strh	r4, [r2, r3]	@ movhi
 449              		.loc 1 94 0 discriminator 2
 450 0054 741B     		subs	r4, r6, r5
 451 0056 44BF     		itt	mi
 452 0058 04F5FF54 		addmi	r4, r4, #8160
 453 005c 1F34     		addmi	r4, r4, #31
 454 005e 6613     		asrs	r6, r4, #13
 455 0060 C652     		strh	r6, [r0, r3]	@ movhi
 456              		.loc 1 98 0 discriminator 2
ARM GAS  /tmp/ccWye6mq.s 			page 9


 457 0062 CC5A     		ldrh	r4, [r1, r3]
 458 0064 D55A     		ldrh	r5, [r2, r3]
 459 0066 14FB08F6 		smulbb	r6, r4, r8
 460 006a 0196     		str	r6, [sp, #4]
 461 006c DDF804C0 		ldr	ip, [sp, #4]
 462 0070 15FB09F6 		smulbb	r6, r5, r9
 463 0074 BCEB0606 		subs	r6, ip, r6
 464              		.loc 1 99 0 discriminator 2
 465 0078 15FB08F5 		smulbb	r5, r5, r8
 466 007c 14FB0954 		smlabb	r4, r4, r9, r5
 467              		.loc 1 98 0 discriminator 2
 468 0080 44BF     		itt	mi
 469 0082 06F5FF56 		addmi	r6, r6, #8160
 470 0086 1F36     		addmi	r6, r6, #31
 471              		.loc 1 99 0 discriminator 2
 472 0088 002C     		cmp	r4, #0
 473 008a BCBF     		itt	lt
 474 008c 04F5FF54 		addlt	r4, r4, #8160
 475 0090 1F34     		addlt	r4, r4, #31
 476 0092 6513     		asrs	r5, r4, #13
 477              		.loc 1 98 0 discriminator 2
 478 0094 C6F34F36 		ubfx	r6, r6, #13, #16
 479              	.LVL40:
 480              		.loc 1 99 0 discriminator 2
 481 0098 D552     		strh	r5, [r2, r3]	@ movhi
 482              		.loc 1 100 0 discriminator 2
 483 009a CE52     		strh	r6, [r1, r3]	@ movhi
 484              		.loc 1 103 0 discriminator 2
 485 009c DDF800C0 		ldr	ip, [sp, #0]
 486              		.loc 1 102 0 discriminator 2
 487 00a0 C55A     		ldrh	r5, [r0, r3]
 488              	.LVL41:
 489              		.loc 1 103 0 discriminator 2
 490 00a2 16FB07F4 		smulbb	r4, r6, r7
 491 00a6 15FB0C44 		smlabb	r4, r5, ip, r4
 492 00aa 002C     		cmp	r4, #0
 493              		.loc 1 102 0 discriminator 2
 494 00ac DDF800C0 		ldr	ip, [sp, #0]
 495              		.loc 1 103 0 discriminator 2
 496 00b0 BCBF     		itt	lt
 497 00b2 04F5FF54 		addlt	r4, r4, #8160
 498 00b6 1F34     		addlt	r4, r4, #31
 499              		.loc 1 102 0 discriminator 2
 500 00b8 15FB07F5 		smulbb	r5, r5, r7
 501              	.LVL42:
 502 00bc 16FB0CF6 		smulbb	r6, r6, ip
 503              	.LVL43:
 504              		.loc 1 103 0 discriminator 2
 505 00c0 6413     		asrs	r4, r4, #13
 506              		.loc 1 102 0 discriminator 2
 507 00c2 AD1B     		subs	r5, r5, r6
 508 00c4 44BF     		itt	mi
 509 00c6 05F5FF55 		addmi	r5, r5, #8160
 510 00ca 1F35     		addmi	r5, r5, #31
 511 00cc 6D13     		asrs	r5, r5, #13
 512              		.loc 1 103 0 discriminator 2
 513 00ce CC52     		strh	r4, [r1, r3]	@ movhi
ARM GAS  /tmp/ccWye6mq.s 			page 10


 514              		.loc 1 102 0 discriminator 2
 515 00d0 C552     		strh	r5, [r0, r3]	@ movhi
 516 00d2 0233     		adds	r3, r3, #2
 517              	.LVL44:
 518              		.loc 1 92 0 discriminator 2
 519 00d4 B3F5006F 		cmp	r3, #2048
 520 00d8 ABD1     		bne	.L34
 521              		.loc 1 106 0
 522 00da 02B0     		add	sp, sp, #8
 523 00dc BDE8F00F 		pop	{r4, r5, r6, r7, r8, r9, sl, fp}
 524 00e0 7047     		bx	lr
 525              	.L37:
 526 00e2 00BF     		.align	2
 527              	.L36:
 528 00e4 00000000 		.word	.LANCHOR0
 529 00e8 00000000 		.word	.LANCHOR2
 530              		.cfi_endproc
 531              	.LFE120:
 532              		.size	rotate, .-rotate
 533 00ec AFF30080 		.section	.text.draw,"ax",%progbits
 534              		.align	2
 535              		.p2align 4,,15
 536              		.global	draw
 537              		.thumb
 538              		.thumb_func
 539              		.type	draw, %function
 540              	draw:
 541              	.LFB121:
 542              		.loc 1 110 0
 543              		.cfi_startproc
 544              		@ args = 0, pretend = 0, frame = 16
 545              		@ frame_needed = 0, uses_anonymous_args = 0
 546              	.LVL45:
 547 0000 2DE9F04F 		push	{r4, r5, r6, r7, r8, r9, sl, fp, lr}
 548              	.LCFI6:
 549              		.cfi_def_cfa_offset 36
 550              		.cfi_offset 4, -36
 551              		.cfi_offset 5, -32
 552              		.cfi_offset 6, -28
 553              		.cfi_offset 7, -24
 554              		.cfi_offset 8, -20
 555              		.cfi_offset 9, -16
 556              		.cfi_offset 10, -12
 557              		.cfi_offset 11, -8
 558              		.cfi_offset 14, -4
 559 0004 85B0     		sub	sp, sp, #20
 560              	.LCFI7:
 561              		.cfi_def_cfa_offset 56
 562              		.loc 1 110 0
 563 0006 0024     		movs	r4, #0
 564 0008 0090     		str	r0, [sp, #0]
 565 000a 009A     		ldr	r2, [sp, #0]
 566 000c 0391     		str	r1, [sp, #12]
 567              		.loc 1 119 0
 568 000e 48F21F59 		movw	r9, #34079
 569 0012 00F58050 		add	r0, r0, #4096
 570              	.LVL46:
ARM GAS  /tmp/ccWye6mq.s 			page 11


 571 0016 02F50061 		add	r1, r2, #2048
 572              	.LVL47:
 573              		.loc 1 110 0
 574 001a 2546     		mov	r5, r4
 575 001c 0190     		str	r0, [sp, #4]
 576 001e 0291     		str	r1, [sp, #8]
 577              		.loc 1 119 0
 578 0020 C5F2EB19 		movt	r9, 20971
 579 0024 05E0     		b	.L42
 580              	.LVL48:
 581              	.L41:
 582 0026 0135     		adds	r5, r5, #1
 583 0028 0234     		adds	r4, r4, #2
 584              		.loc 1 116 0
 585 002a B5F5806F 		cmp	r5, #1024
 586 002e 00F08880 		beq	.L44
 587              	.LVL49:
 588              	.L42:
 589              		.loc 1 118 0
 590 0032 019B     		ldr	r3, [sp, #4]
 591              		.loc 1 119 0
 592 0034 DDF80080 		ldr	r8, [sp, #0]
 593              		.loc 1 118 0
 594 0038 1F5F     		ldrsh	r7, [r3, r4]
 595              		.loc 1 119 0
 596 003a 38F90420 		ldrsh	r2, [r8, r4]
 597              		.loc 1 118 0
 598 003e 07F50057 		add	r7, r7, #8192
 599              	.LVL50:
 600              		.loc 1 123 0
 601 0042 0023     		movs	r3, #0
 602              		.loc 1 120 0
 603 0044 40F20006 		movw	r6, #:lower16:.LANCHOR4
 604              		.loc 1 118 0
 605 0048 9F42     		cmp	r7, r3
 606              		.loc 1 120 0
 607 004a C0F20006 		movt	r6, #:upper16:.LANCHOR4
 608              		.loc 1 118 0
 609 004e 3846     		mov	r0, r7
 610 0050 B8BF     		it	lt
 611 0052 F81C     		addlt	r0, r7, #3
 612              		.loc 1 120 0
 613 0054 B6F800A0 		ldrh	sl, [r6, #0]
 614              		.loc 1 118 0
 615 0058 8610     		asrs	r6, r0, #2
 616              		.loc 1 119 0
 617 005a 40F2000E 		movw	lr, #:lower16:.LANCHOR3
 618              		.loc 1 118 0
 619 005e C6F50056 		rsb	r6, r6, #8192
 620              		.loc 1 119 0
 621 0062 C0F2000E 		movt	lr, #:upper16:.LANCHOR3
 622              		.loc 1 120 0
 623 0066 0298     		ldr	r0, [sp, #8]
 624              		.loc 1 119 0
 625 0068 BEF80010 		ldrh	r1, [lr, #0]
 626              		.loc 1 120 0
 627 006c 30F804B0 		ldrh	fp, [r0, r4]
ARM GAS  /tmp/ccWye6mq.s 			page 12


 628              		.loc 1 119 0
 629 0070 B6B2     		uxth	r6, r6
 630 0072 06FB02F2 		mul	r2, r6, r2
 631 0076 89FB02E0 		smull	lr, r0, r9, r2
 632 007a 4FEAE27C 		asr	ip, r2, #31
 633              		.loc 1 121 0
 634 007e 002F     		cmp	r7, #0
 635              		.loc 1 119 0
 636 0080 CCEB204E 		rsb	lr, ip, r0, asr #16
 637              		.loc 1 121 0
 638 0084 B8BF     		it	lt
 639 0086 07F6FF77 		addwlt	r7, r7, #4095
 640              	.LVL51:
 641              		.loc 1 119 0
 642 008a 0EEB5101 		add	r1, lr, r1, lsr #1
 643              		.loc 1 123 0
 644 008e 40F20000 		movw	r0, #:lower16:.LANCHOR5
 645 0092 40F2000C 		movw	ip, #:lower16:.LANCHOR6
 646 0096 40F2000E 		movw	lr, #:lower16:.LANCHOR7
 647              		.loc 1 121 0
 648 009a 3F13     		asrs	r7, r7, #12
 649              		.loc 1 123 0
 650 009c C0F2000C 		movt	ip, #:upper16:.LANCHOR6
 651 00a0 C0F2000E 		movt	lr, #:upper16:.LANCHOR7
 652 00a4 C0F20000 		movt	r0, #:upper16:.LANCHOR5
 653              		.loc 1 121 0
 654 00a8 C7F10302 		rsb	r2, r7, #3
 655              		.loc 1 119 0
 656 00ac 1FFA81F8 		uxth	r8, r1
 657              	.LVL52:
 658              		.loc 1 121 0
 659 00b0 97B2     		uxth	r7, r2
 660              	.LVL53:
 661              		.loc 1 123 0
 662 00b2 005F     		ldrsh	r0, [r0, r4]
 663 00b4 3CF90410 		ldrsh	r1, [ip, r4]
 664              	.LVL54:
 665 00b8 1EF80520 		ldrb	r2, [lr, r5]	@ zero_extendqisi2
 666              	.LVL55:
 667 00bc FFF7FEFF 		bl	gdisp_lld_draw_circle
 668              	.LVL56:
 669              		.loc 1 120 0
 670 00c0 0FFA8BF3 		sxth	r3, fp
 671 00c4 03FB06F6 		mul	r6, r3, r6
 672              	.LVL57:
 673 00c8 F217     		asrs	r2, r6, #31
 674 00ca 89FB0601 		smull	r0, r1, r9, r6
 675 00ce C2EB2146 		rsb	r6, r2, r1, asr #16
 676 00d2 06EB5A0A 		add	sl, r6, sl, lsr #1
 677              		.loc 1 125 0
 678 00d6 B845     		cmp	r8, r7
 679              		.loc 1 120 0
 680 00d8 1FFA8AFA 		uxth	sl, sl
 681              		.loc 1 125 0
 682 00dc A3D9     		bls	.L41
 683              		.loc 1 125 0 is_stmt 0 discriminator 1
 684 00de BA45     		cmp	sl, r7
ARM GAS  /tmp/ccWye6mq.s 			page 13


 685 00e0 A1D9     		bls	.L41
 686              		.loc 1 127 0 is_stmt 1
 687 00e2 40F20000 		movw	r0, #:lower16:.LANCHOR3
 688 00e6 C0F20000 		movt	r0, #:upper16:.LANCHOR3
 689 00ea 0388     		ldrh	r3, [r0, #0]
 690 00ec D91B     		subs	r1, r3, r7
 691              		.loc 1 126 0
 692 00ee 8845     		cmp	r8, r1
 693 00f0 99DA     		bge	.L41
 694              		.loc 1 128 0
 695 00f2 40F20002 		movw	r2, #:lower16:.LANCHOR4
 696 00f6 C0F20002 		movt	r2, #:upper16:.LANCHOR4
 697 00fa 1088     		ldrh	r0, [r2, #0]
 698 00fc C31B     		subs	r3, r0, r7
 699              		.loc 1 127 0
 700 00fe 9A45     		cmp	sl, r3
 701 0100 91DA     		bge	.L41
 702              		.loc 1 130 0
 703 0102 0399     		ldr	r1, [sp, #12]
 704 0104 0FFA88F0 		sxth	r0, r8
 705 0108 0B5B     		ldrh	r3, [r1, r4]
 706 010a 3AB2     		sxth	r2, r7
 707 010c 0FFA8AF1 		sxth	r1, sl
 708 0110 FFF7FEFF 		bl	gdisp_lld_draw_circle
 709              	.LVL58:
 710              		.loc 1 133 0
 711 0114 40F20003 		movw	r3, #:lower16:.LANCHOR7
 712              		.loc 1 131 0
 713 0118 40F20002 		movw	r2, #:lower16:.LANCHOR5
 714              		.loc 1 132 0
 715 011c 40F20000 		movw	r0, #:lower16:.LANCHOR6
 716              		.loc 1 133 0
 717 0120 C0F20003 		movt	r3, #:upper16:.LANCHOR7
 718              		.loc 1 131 0
 719 0124 C0F20002 		movt	r2, #:upper16:.LANCHOR5
 720              		.loc 1 132 0
 721 0128 C0F20000 		movt	r0, #:upper16:.LANCHOR6
 722              		.loc 1 133 0
 723 012c EF54     		strb	r7, [r5, r3]
 724 012e 0135     		adds	r5, r5, #1
 725              		.loc 1 131 0
 726 0130 24F80280 		strh	r8, [r4, r2]	@ movhi
 727              		.loc 1 132 0
 728 0134 24F800A0 		strh	sl, [r4, r0]	@ movhi
 729 0138 0234     		adds	r4, r4, #2
 730              		.loc 1 116 0
 731 013a B5F5806F 		cmp	r5, #1024
 732 013e 7FF478AF 		bne	.L42
 733              	.L44:
 734              		.loc 1 136 0
 735 0142 05B0     		add	sp, sp, #20
 736 0144 BDE8F08F 		pop	{r4, r5, r6, r7, r8, r9, sl, fp, pc}
 737              		.cfi_endproc
 738              	.LFE121:
 739              		.size	draw, .-draw
 740 0148 AFF30080 		.section	.text.startup.main,"ax",%progbits
 740      AFF30080 
ARM GAS  /tmp/ccWye6mq.s 			page 14


 741              		.align	2
 742              		.p2align 4,,15
 743              		.global	main
 744              		.thumb
 745              		.thumb_func
 746              		.type	main, %function
 747              	main:
 748              	.LFB122:
 749              		.loc 1 149 0
 750              		.cfi_startproc
 751              		@ args = 0, pretend = 0, frame = 0
 752              		@ frame_needed = 0, uses_anonymous_args = 0
 753              	.LVL59:
 754 0000 2DE9F84F 		push	{r3, r4, r5, r6, r7, r8, r9, sl, fp, lr}
 755              	.LCFI8:
 756              		.cfi_def_cfa_offset 40
 757              		.cfi_offset 3, -40
 758              		.cfi_offset 4, -36
 759              		.cfi_offset 5, -32
 760              		.cfi_offset 6, -28
 761              		.cfi_offset 7, -24
 762              		.cfi_offset 8, -20
 763              		.cfi_offset 9, -16
 764              		.cfi_offset 10, -12
 765              		.cfi_offset 11, -8
 766              		.cfi_offset 14, -4
 767              		.loc 1 152 0
 768 0004 FFF7FEFF 		bl	gfxInit
 769              	.LVL60:
 770              		.loc 1 154 0
 771 0008 0A20     		movs	r0, #10
 772 000a FFF7FEFF 		bl	chThdSleep
 773              	.LVL61:
 774              		.loc 1 155 0
 775 000e 0020     		movs	r0, #0
 776 0010 FFF7FEFF 		bl	gdisp_lld_clear
 777              	.LVL62:
 778              		.loc 1 156 0
 779 0014 0A20     		movs	r0, #10
 780 0016 FFF7FEFF 		bl	chThdSleep
 781              	.LVL63:
 782              		.loc 1 157 0
 783 001a 0020     		movs	r0, #0
 784 001c FFF7FEFF 		bl	gdisp_lld_clear
 785              	.LVL64:
 786              		.loc 1 158 0
 787 0020 0A20     		movs	r0, #10
 788 0022 FFF7FEFF 		bl	chThdSleep
 789              	.LVL65:
 790              		.loc 1 159 0
 791 0026 0020     		movs	r0, #0
 792 0028 FFF7FEFF 		bl	gdisp_lld_clear
 793              	.LVL66:
 794              		.loc 1 161 0
 795 002c 464B     		ldr	r3, .L60
 796 002e 4748     		ldr	r0, .L60+4
 797 0030 1988     		ldrh	r1, [r3, #0]
ARM GAS  /tmp/ccWye6mq.s 			page 15


 798              		.loc 1 162 0
 799 0032 5A88     		ldrh	r2, [r3, #2]
 800 0034 464C     		ldr	r4, .L60+8
 801              		.loc 1 161 0
 802 0036 0180     		strh	r1, [r0, #0]	@ movhi
 803              		.loc 1 162 0
 804 0038 2280     		strh	r2, [r4, #0]	@ movhi
 805              		.loc 1 164 0
 806 003a FFF7FEFF 		bl	initialize
 807              	.LVL67:
 808 003e DFF828B1 		ldr	fp, .L60+32
 809 0042 DFF82891 		ldr	r9, .L60+36
 810 0046 434F     		ldr	r7, .L60+12
 811 0048 434E     		ldr	r6, .L60+16
 812 004a 444D     		ldr	r5, .L60+20
 813              		.loc 1 150 0
 814 004c 0024     		movs	r4, #0
 815              	.LVL68:
 816              	.L57:
 817              		.loc 1 168 0
 818 004e 4448     		ldr	r0, .L60+24
 819 0050 4449     		ldr	r1, .L60+28
 820 0052 FFF7FEFF 		bl	matrix
 821              	.LVL69:
 822              		.loc 1 169 0
 823 0056 3288     		ldrh	r2, [r6, #0]
 824 0058 2B88     		ldrh	r3, [r5, #0]
 825 005a 4148     		ldr	r0, .L60+24
 826 005c 3988     		ldrh	r1, [r7, #0]
 827 005e FFF7FEFF 		bl	rotate
 828              	.LVL70:
 829              		.loc 1 170 0
 830 0062 3F48     		ldr	r0, .L60+24
 831 0064 3F49     		ldr	r1, .L60+28
 832 0066 FFF7FEFF 		bl	draw
 833              	.LVL71:
 834              		.loc 1 173 0
 835 006a 40F20000 		movw	r0, #:lower16:.LANCHOR14
 836 006e C0F20000 		movt	r0, #:upper16:.LANCHOR14
 837              		.loc 1 172 0
 838 0072 3988     		ldrh	r1, [r7, #0]
 839              		.loc 1 173 0
 840 0074 B0F800E0 		ldrh	lr, [r0, #0]
 841 0078 3288     		ldrh	r2, [r6, #0]
 842              		.loc 1 174 0
 843 007a 2B88     		ldrh	r3, [r5, #0]
 844              		.loc 1 172 0
 845 007c BBF800C0 		ldrh	ip, [fp, #0]
 846              		.loc 1 174 0
 847 0080 B9F80000 		ldrh	r0, [r9, #0]
 848              		.loc 1 172 0
 849 0084 6144     		add	r1, ip, r1
 850              		.loc 1 173 0
 851 0086 7244     		add	r2, lr, r2
 852              		.loc 1 174 0
 853 0088 C318     		adds	r3, r0, r3
 854              		.loc 1 172 0
ARM GAS  /tmp/ccWye6mq.s 			page 16


 855 008a 1FFA81FC 		uxth	ip, r1
 856              		.loc 1 173 0
 857 008e 1FFA82FE 		uxth	lr, r2
 858              		.loc 1 174 0
 859 0092 98B2     		uxth	r0, r3
 860              		.loc 1 172 0
 861 0094 1FFA8CF1 		uxth	r1, ip
 862              		.loc 1 173 0
 863 0098 1FFA8EF2 		uxth	r2, lr
 864              		.loc 1 174 0
 865 009c 83B2     		uxth	r3, r0
 866              		.loc 1 176 0
 867 009e B4F5C87F 		cmp	r4, #400
 868              		.loc 1 172 0
 869 00a2 3980     		strh	r1, [r7, #0]	@ movhi
 870              		.loc 1 173 0
 871 00a4 3280     		strh	r2, [r6, #0]	@ movhi
 872              		.loc 1 174 0
 873 00a6 2B80     		strh	r3, [r5, #0]	@ movhi
 874              		.loc 1 176 0
 875 00a8 19DD     		ble	.L48
 876              		.loc 1 176 0 is_stmt 0 discriminator 1
 877 00aa 40F2000A 		movw	sl, #:lower16:.LANCHOR14
 878 00ae C0F2000A 		movt	sl, #:upper16:.LANCHOR14
 879 00b2 4FF00108 		mov	r8, #1	@ movhi
 880              		.loc 1 177 0 is_stmt 1 discriminator 1
 881 00b6 B4F5487F 		cmp	r4, #800
 882              		.loc 1 176 0 discriminator 1
 883 00ba AAF80080 		strh	r8, [sl, #0]	@ movhi
 884              		.loc 1 177 0 discriminator 1
 885 00be 0EDD     		ble	.L48
 886 00c0 40F2000A 		movw	sl, #:lower16:.LANCHOR13
 887 00c4 C0F2000A 		movt	sl, #:upper16:.LANCHOR13
 888              		.loc 1 178 0 discriminator 1
 889 00c8 B4F5966F 		cmp	r4, #1200
 890              		.loc 1 177 0 discriminator 1
 891 00cc AAF80080 		strh	r8, [sl, #0]	@ movhi
 892              		.loc 1 178 0 discriminator 1
 893 00d0 05DD     		ble	.L48
 894 00d2 40F2000A 		movw	sl, #:lower16:.LANCHOR15
 895 00d6 C0F2000A 		movt	sl, #:upper16:.LANCHOR15
 896 00da AAF80080 		strh	r8, [sl, #0]	@ movhi
 897              	.L48:
 898              		.loc 1 181 0
 899 00de 09B2     		sxth	r1, r1
 900              		.loc 1 179 0
 901 00e0 0134     		adds	r4, r4, #1
 902              	.LVL72:
 903              		.loc 1 181 0
 904 00e2 B1F5005F 		cmp	r1, #8192
 905 00e6 13DB     		blt	.L49
 906              		.loc 1 184 0 discriminator 1
 907 00e8 12B2     		sxth	r2, r2
 908              		.loc 1 181 0 discriminator 1
 909 00ea ACF5005C 		sub	ip, ip, #8192
 910              		.loc 1 184 0 discriminator 1
 911 00ee B2F5005F 		cmp	r2, #8192
ARM GAS  /tmp/ccWye6mq.s 			page 17


 912              		.loc 1 181 0 discriminator 1
 913 00f2 A7F800C0 		strh	ip, [r7, #0]	@ movhi
 914              		.loc 1 184 0 discriminator 1
 915 00f6 16DB     		blt	.L51
 916              	.L58:
 917              		.loc 1 187 0 discriminator 1
 918 00f8 1BB2     		sxth	r3, r3
 919              		.loc 1 184 0 discriminator 1
 920 00fa AEF5005E 		sub	lr, lr, #8192
 921              		.loc 1 187 0 discriminator 1
 922 00fe B3F5005F 		cmp	r3, #8192
 923              		.loc 1 184 0 discriminator 1
 924 0102 A6F800E0 		strh	lr, [r6, #0]	@ movhi
 925              		.loc 1 187 0 discriminator 1
 926 0106 19DB     		blt	.L53
 927              	.L59:
 928 0108 A0F50051 		sub	r1, r0, #8192
 929 010c 2980     		strh	r1, [r5, #0]	@ movhi
 930 010e 9EE7     		b	.L57
 931              	.L49:
 932              		.loc 1 182 0
 933 0110 0029     		cmp	r1, #0
 934 0112 B8BF     		it	lt
 935 0114 0CF5005C 		addlt	ip, ip, #8192
 936              		.loc 1 184 0
 937 0118 12B2     		sxth	r2, r2
 938              		.loc 1 182 0
 939 011a B8BF     		it	lt
 940 011c A7F800C0 		strhlt	ip, [r7, #0]	@ movhi
 941              		.loc 1 184 0
 942 0120 B2F5005F 		cmp	r2, #8192
 943 0124 E8DA     		bge	.L58
 944              	.L51:
 945              		.loc 1 185 0
 946 0126 002A     		cmp	r2, #0
 947 0128 B8BF     		it	lt
 948 012a 0EF5005E 		addlt	lr, lr, #8192
 949              		.loc 1 187 0
 950 012e 1BB2     		sxth	r3, r3
 951              		.loc 1 185 0
 952 0130 B8BF     		it	lt
 953 0132 A6F800E0 		strhlt	lr, [r6, #0]	@ movhi
 954              		.loc 1 187 0
 955 0136 B3F5005F 		cmp	r3, #8192
 956 013a E5DA     		bge	.L59
 957              	.L53:
 958              		.loc 1 188 0
 959 013c 002B     		cmp	r3, #0
 960 013e 86DA     		bge	.L57
 961              		.loc 1 188 0 is_stmt 0 discriminator 1
 962 0140 00F50050 		add	r0, r0, #8192
 963 0144 2880     		strh	r0, [r5, #0]	@ movhi
 964 0146 82E7     		b	.L57
 965              	.L61:
 966              		.align	2
 967              	.L60:
 968 0148 00000000 		.word	GDISP
ARM GAS  /tmp/ccWye6mq.s 			page 18


 969 014c 00000000 		.word	.LANCHOR3
 970 0150 00000000 		.word	.LANCHOR4
 971 0154 00000000 		.word	.LANCHOR10
 972 0158 00000000 		.word	.LANCHOR11
 973 015c 00000000 		.word	.LANCHOR12
 974 0160 00000000 		.word	.LANCHOR8
 975 0164 00000000 		.word	.LANCHOR9
 976 0168 00000000 		.word	.LANCHOR13
 977 016c 00000000 		.word	.LANCHOR15
 978              		.cfi_endproc
 979              	.LFE122:
 980              		.size	main, .-main
 981              		.global	col
 982              		.global	xyz
 983              		.global	speedZ
 984              		.global	speedY
 985              		.global	speedX
 986              		.global	angleZ
 987              		.global	angleY
 988              		.global	angleX
 989              		.global	cosi
 990              		.global	sine
 991              		.global	height
 992              		.global	width
 993              		.section	.bss.width,"aw",%nobits
 994              		.align	1
 995              		.set	.LANCHOR3,. + 0
 996              		.type	width, %object
 997              		.size	width, 2
 998              	width:
 999 0000 0000     		.space	2
 1000              		.section	.bss.speedZ,"aw",%nobits
 1001              		.align	1
 1002              		.set	.LANCHOR15,. + 0
 1003              		.type	speedZ, %object
 1004              		.size	speedZ, 2
 1005              	speedZ:
 1006 0000 0000     		.space	2
 1007              		.section	.bss.oldDotSize.7798,"aw",%nobits
 1008              		.align	2
 1009              		.set	.LANCHOR7,. + 0
 1010              		.type	oldDotSize.7798, %object
 1011              		.size	oldDotSize.7798, 1024
 1012              	oldDotSize.7798:
 1013 0000 00000000 		.space	1024
 1013      00000000 
 1013      00000000 
 1013      00000000 
 1013      00000000 
 1014              		.section	.bss.oldProjY.7797,"aw",%nobits
 1015              		.align	2
 1016              		.set	.LANCHOR6,. + 0
 1017              		.type	oldProjY.7797, %object
 1018              		.size	oldProjY.7797, 2048
 1019              	oldProjY.7797:
 1020 0000 00000000 		.space	2048
 1020      00000000 
ARM GAS  /tmp/ccWye6mq.s 			page 19


 1020      00000000 
 1020      00000000 
 1020      00000000 
 1021              		.section	.bss.speedX,"aw",%nobits
 1022              		.align	1
 1023              		.set	.LANCHOR13,. + 0
 1024              		.type	speedX, %object
 1025              		.size	speedX, 2
 1026              	speedX:
 1027 0000 0000     		.space	2
 1028              		.section	.bss.oldProjX.7796,"aw",%nobits
 1029              		.align	2
 1030              		.set	.LANCHOR5,. + 0
 1031              		.type	oldProjX.7796, %object
 1032              		.size	oldProjX.7796, 2048
 1033              	oldProjX.7796:
 1034 0000 00000000 		.space	2048
 1034      00000000 
 1034      00000000 
 1034      00000000 
 1034      00000000 
 1035              		.section	.bss.angleX,"aw",%nobits
 1036              		.align	1
 1037              		.set	.LANCHOR10,. + 0
 1038              		.type	angleX, %object
 1039              		.size	angleX, 2
 1040              	angleX:
 1041 0000 0000     		.space	2
 1042              		.section	.bss.angleY,"aw",%nobits
 1043              		.align	1
 1044              		.set	.LANCHOR11,. + 0
 1045              		.type	angleY, %object
 1046              		.size	angleY, 2
 1047              	angleY:
 1048 0000 0000     		.space	2
 1049              		.section	.bss.angleZ,"aw",%nobits
 1050              		.align	1
 1051              		.set	.LANCHOR12,. + 0
 1052              		.type	angleZ, %object
 1053              		.size	angleZ, 2
 1054              	angleZ:
 1055 0000 0000     		.space	2
 1056              		.section	.bss.col,"aw",%nobits
 1057              		.align	2
 1058              		.set	.LANCHOR9,. + 0
 1059              		.type	col, %object
 1060              		.size	col, 2048
 1061              	col:
 1062 0000 00000000 		.space	2048
 1062      00000000 
 1062      00000000 
 1062      00000000 
 1062      00000000 
 1063              		.section	.bss.t.7762,"aw",%nobits
 1064              		.align	2
 1065              		.set	.LANCHOR1,. + 0
 1066              		.type	t.7762, %object
ARM GAS  /tmp/ccWye6mq.s 			page 20


 1067              		.size	t.7762, 4
 1068              	t.7762:
 1069 0000 00000000 		.space	4
 1070              		.section	.bss.sine,"aw",%nobits
 1071              		.align	2
 1072              		.set	.LANCHOR0,. + 0
 1073              		.type	sine, %object
 1074              		.size	sine, 20480
 1075              	sine:
 1076 0000 00000000 		.space	20480
 1076      00000000 
 1076      00000000 
 1076      00000000 
 1076      00000000 
 1077              		.section	.bss.speedY,"aw",%nobits
 1078              		.align	1
 1079              		.set	.LANCHOR14,. + 0
 1080              		.type	speedY, %object
 1081              		.size	speedY, 2
 1082              	speedY:
 1083 0000 0000     		.space	2
 1084              		.section	.data.cosi,"aw",%progbits
 1085              		.align	2
 1086              		.set	.LANCHOR2,. + 0
 1087              		.type	cosi, %object
 1088              		.size	cosi, 4
 1089              	cosi:
 1090 0000 00100000 		.word	sine+4096
 1091              		.section	.bss.xyz,"aw",%nobits
 1092              		.align	2
 1093              		.set	.LANCHOR8,. + 0
 1094              		.type	xyz, %object
 1095              		.size	xyz, 6144
 1096              	xyz:
 1097 0000 00000000 		.space	6144
 1097      00000000 
 1097      00000000 
 1097      00000000 
 1097      00000000 
 1098              		.section	.bss.height,"aw",%nobits
 1099              		.align	1
 1100              		.set	.LANCHOR4,. + 0
 1101              		.type	height, %object
 1102              		.size	height, 2
 1103              	height:
 1104 0000 0000     		.space	2
 1105              		.text
 1106              	.Letext0:
 1107              		.file 2 "/usr/bin/../lib/gcc/arm-none-eabi/4.7.4/../../../../arm-none-eabi/include/stdint.h"
 1108              		.file 3 "../../os/ports/GCC/ARMCMx/chtypes.h"
 1109              		.file 4 "../../ext/ugfx/include/gdisp/gdisp.h"
 1110              		.file 5 "../../os/ports/common/ARMCMx/CMSIS/include/core_cm4.h"
 1111              		.file 6 "/usr/bin/../lib/gcc/arm-none-eabi/4.7.4/../../../../arm-none-eabi/include/math.h"
 1112              		.file 7 "../../ext/ugfx/include/gdisp/lld/gdisp_lld.h"
 1113              		.file 8 "../../os/kernel/include/chthreads.h"
 1114              		.file 9 "../../ext/ugfx/include/gfx.h"