ARM GAS  /tmp/ccZP0EQp.s 			page 1


   1              		.syntax unified
   2              		.cpu cortex-m4
   3              		.eabi_attribute 27, 3
   4              		.eabi_attribute 28, 1
   5              		.fpu fpv4-sp-d16
   6              		.eabi_attribute 20, 1
   7              		.eabi_attribute 21, 1
   8              		.eabi_attribute 23, 3
   9              		.eabi_attribute 24, 1
  10              		.eabi_attribute 25, 1
  11              		.eabi_attribute 26, 1
  12              		.eabi_attribute 30, 2
  13              		.eabi_attribute 34, 1
  14              		.eabi_attribute 18, 4
  15              		.thumb
  16              		.file	"test.c"
  17              		.text
  18              	.Ltext0:
  19              		.cfi_sections	.debug_frame
  20              		.section	.text.tmr,"ax",%progbits
  21              		.align	2
  22              		.p2align 4,,15
  23              		.thumb
  24              		.thumb_func
  25              		.type	tmr, %function
  26              	tmr:
  27              	.LFB132:
  28              		.file 1 "../../test/test.c"
  29              		.loc 1 261 0
  30              		.cfi_startproc
  31              		@ args = 0, pretend = 0, frame = 0
  32              		@ frame_needed = 0, uses_anonymous_args = 0
  33              		@ link register save eliminated.
  34              	.LVL0:
  35              		.loc 1 264 0
  36 0000 40F20003 		movw	r3, #:lower16:.LANCHOR0
  37 0004 C0F20003 		movt	r3, #:upper16:.LANCHOR0
  38 0008 0122     		movs	r2, #1
  39 000a 1A70     		strb	r2, [r3, #0]
  40 000c 7047     		bx	lr
  41              		.cfi_endproc
  42              	.LFE132:
  43              		.size	tmr, .-tmr
  44              		.section	.text.print_line,"ax",%progbits
  45              		.align	2
  46              		.p2align 4,,15
  47              		.thumb
  48              		.thumb_func
  49              		.type	print_line, %function
  50              	print_line:
  51              	.LFB135:
  52              		.loc 1 300 0
  53              		.cfi_startproc
  54              		@ args = 0, pretend = 0, frame = 0
  55              		@ frame_needed = 0, uses_anonymous_args = 0
  56              	.LVL1:
  57 0000 38B5     		push	{r3, r4, r5, lr}
ARM GAS  /tmp/ccZP0EQp.s 			page 2


  58              	.LCFI0:
  59              		.cfi_def_cfa_offset 16
  60              		.cfi_offset 3, -16
  61              		.cfi_offset 4, -12
  62              		.cfi_offset 5, -8
  63              		.cfi_offset 14, -4
  64 0002 0B4D     		ldr	r5, .L7
  65              		.loc 1 300 0
  66 0004 4C24     		movs	r4, #76
  67              	.LVL2:
  68              	.L3:
  69              		.loc 1 304 0 discriminator 2
  70 0006 2868     		ldr	r0, [r5, #0]
  71 0008 0368     		ldr	r3, [r0, #0]
  72 000a 2D21     		movs	r1, #45
  73 000c 9A68     		ldr	r2, [r3, #8]
  74 000e 9047     		blx	r2
  75              	.LVL3:
  76 0010 2868     		ldr	r0, [r5, #0]
  77 0012 0168     		ldr	r1, [r0, #0]
  78 0014 013C     		subs	r4, r4, #1
  79 0016 8B68     		ldr	r3, [r1, #8]
  80 0018 2D21     		movs	r1, #45
  81 001a 9847     		blx	r3
  82              	.LVL4:
  83              		.loc 1 303 0 discriminator 2
  84 001c 013C     		subs	r4, r4, #1
  85 001e F2D1     		bne	.L3
  86              		.loc 1 305 0
  87 0020 0348     		ldr	r0, .L7
  88 0022 0449     		ldr	r1, .L7+4
  89 0024 0068     		ldr	r0, [r0, #0]
  90 0026 0268     		ldr	r2, [r0, #0]
  91 0028 1368     		ldr	r3, [r2, #0]
  92 002a 0222     		movs	r2, #2
  93 002c 9847     		blx	r3
  94              	.LVL5:
  95 002e 38BD     		pop	{r3, r4, r5, pc}
  96              	.L8:
  97              		.align	2
  98              	.L7:
  99 0030 00000000 		.word	.LANCHOR1
 100 0034 00000000 		.word	.LC0
 101              		.cfi_endproc
 102              	.LFE135:
 103              		.size	print_line, .-print_line
 104 0038 AFF30080 		.section	.text.test_printn,"ax",%progbits
 104      AFF30080 
 105              		.align	2
 106              		.p2align 4,,15
 107              		.global	test_printn
 108              		.thumb
 109              		.thumb_func
 110              		.type	test_printn, %function
 111              	test_printn:
 112              	.LFB118:
 113              		.loc 1 91 0
ARM GAS  /tmp/ccZP0EQp.s 			page 3


 114              		.cfi_startproc
 115              		@ args = 0, pretend = 0, frame = 16
 116              		@ frame_needed = 0, uses_anonymous_args = 0
 117              	.LVL6:
 118 0000 F0B5     		push	{r4, r5, r6, r7, lr}
 119              	.LCFI1:
 120              		.cfi_def_cfa_offset 20
 121              		.cfi_offset 4, -20
 122              		.cfi_offset 5, -16
 123              		.cfi_offset 6, -12
 124              		.cfi_offset 7, -8
 125              		.cfi_offset 14, -4
 126 0002 85B0     		sub	sp, sp, #20
 127              	.LCFI2:
 128              		.cfi_def_cfa_offset 40
 129              		.loc 1 94 0
 130 0004 0028     		cmp	r0, #0
 131 0006 37D0     		beq	.L23
 132              	.LBB50:
 133              	.LBB51:
 134              		.loc 1 91 0
 135 0008 0DF10105 		add	r5, sp, #1
 136              	.LBE51:
 137              	.LBE50:
 138              		.loc 1 99 0
 139 000c 4CF6CD46 		movw	r6, #52429
 140              	.LBB54:
 141              	.LBB52:
 142              		.loc 1 91 0
 143 0010 2B46     		mov	r3, r5
 144              	.LBE52:
 145              	.LBE54:
 146              		.loc 1 99 0
 147 0012 CCF6CC46 		movt	r6, 52428
 148              	.LVL7:
 149              	.L12:
 150 0016 A6FB0012 		umull	r1, r2, r6, r0
 151 001a D408     		lsrs	r4, r2, #3
 152 001c 04EB8401 		add	r1, r4, r4, lsl #2
 153 0020 A0EB4100 		sub	r0, r0, r1, lsl #1
 154 0024 3030     		adds	r0, r0, #48
 155 0026 C1B2     		uxtb	r1, r0
 156              		.loc 1 98 0
 157 0028 2046     		mov	r0, r4
 158              		.loc 1 99 0
 159 002a 03F8011C 		strb	r1, [r3, #-1]
 160              	.LVL8:
 161              		.loc 1 91 0
 162 002e 1C46     		mov	r4, r3
 163 0030 0133     		adds	r3, r3, #1
 164              	.LVL9:
 165              		.loc 1 98 0
 166 0032 0028     		cmp	r0, #0
 167 0034 EFD1     		bne	.L12
 168              		.loc 1 100 0 discriminator 1
 169 0036 6A46     		mov	r2, sp
 170 0038 9442     		cmp	r4, r2
ARM GAS  /tmp/ccZP0EQp.s 			page 4


 171 003a 1BD9     		bls	.L9
 172 003c 601B     		subs	r0, r4, r5
 173              	.LVL10:
 174 003e C307     		lsls	r3, r0, #31
 175 0040 114F     		ldr	r7, .L25
 176 0042 11D5     		bpl	.L15
 177              		.loc 1 101 0
 178 0044 3868     		ldr	r0, [r7, #0]
 179              	.LVL11:
 180 0046 0368     		ldr	r3, [r0, #0]
 181 0048 9A68     		ldr	r2, [r3, #8]
 182 004a 9047     		blx	r2
 183              	.LVL12:
 184 004c 14F8021C 		ldrb	r1, [r4, #-2]	@ zero_extendqisi2
 185 0050 013C     		subs	r4, r4, #1
 186 0052 09E0     		b	.L15
 187              	.L24:
 188 0054 3868     		ldr	r0, [r7, #0]
 189 0056 14F8021C 		ldrb	r1, [r4, #-2]	@ zero_extendqisi2
 190 005a 0368     		ldr	r3, [r0, #0]
 191 005c 661E     		subs	r6, r4, #1
 192 005e 9A68     		ldr	r2, [r3, #8]
 193 0060 9047     		blx	r2
 194              	.LVL13:
 195 0062 16F8021C 		ldrb	r1, [r6, #-2]	@ zero_extendqisi2
 196 0066 023C     		subs	r4, r4, #2
 197              	.L15:
 198 0068 3868     		ldr	r0, [r7, #0]
 199 006a 0368     		ldr	r3, [r0, #0]
 200 006c 9A68     		ldr	r2, [r3, #8]
 201 006e 9047     		blx	r2
 202              	.LVL14:
 203              		.loc 1 100 0
 204 0070 AC42     		cmp	r4, r5
 205 0072 EFD1     		bne	.L24
 206              	.L9:
 207              		.loc 1 103 0
 208 0074 05B0     		add	sp, sp, #20
 209 0076 F0BD     		pop	{r4, r5, r6, r7, pc}
 210              	.LVL15:
 211              	.L23:
 212              	.LBB55:
 213              	.LBB53:
 214              		.loc 1 95 0
 215 0078 0349     		ldr	r1, .L25
 216 007a 0868     		ldr	r0, [r1, #0]
 217              	.LVL16:
 218 007c 0368     		ldr	r3, [r0, #0]
 219 007e 3021     		movs	r1, #48
 220 0080 9A68     		ldr	r2, [r3, #8]
 221 0082 9047     		blx	r2
 222              	.LVL17:
 223 0084 F6E7     		b	.L9
 224              	.L26:
 225 0086 00BF     		.align	2
 226              	.L25:
 227 0088 00000000 		.word	.LANCHOR1
ARM GAS  /tmp/ccZP0EQp.s 			page 5


 228              	.LBE53:
 229              	.LBE55:
 230              		.cfi_endproc
 231              	.LFE118:
 232              		.size	test_printn, .-test_printn
 233 008c AFF30080 		.section	.text.test_print,"ax",%progbits
 234              		.align	2
 235              		.p2align 4,,15
 236              		.global	test_print
 237              		.thumb
 238              		.thumb_func
 239              		.type	test_print, %function
 240              	test_print:
 241              	.LFB119:
 242              		.loc 1 110 0
 243              		.cfi_startproc
 244              		@ args = 0, pretend = 0, frame = 0
 245              		@ frame_needed = 0, uses_anonymous_args = 0
 246              	.LVL18:
 247 0000 38B5     		push	{r3, r4, r5, lr}
 248              	.LCFI3:
 249              		.cfi_def_cfa_offset 16
 250              		.cfi_offset 3, -16
 251              		.cfi_offset 4, -12
 252              		.cfi_offset 5, -8
 253              		.cfi_offset 14, -4
 254              		.loc 1 112 0
 255 0002 0178     		ldrb	r1, [r0, #0]	@ zero_extendqisi2
 256 0004 49B1     		cbz	r1, .L27
 257 0006 054D     		ldr	r5, .L32
 258 0008 0446     		mov	r4, r0
 259              	.LVL19:
 260              	.L29:
 261              		.loc 1 113 0
 262 000a 2868     		ldr	r0, [r5, #0]
 263 000c 0368     		ldr	r3, [r0, #0]
 264 000e 9A68     		ldr	r2, [r3, #8]
 265 0010 9047     		blx	r2
 266              	.LVL20:
 267              		.loc 1 112 0
 268 0012 14F8011F 		ldrb	r1, [r4, #1]!	@ zero_extendqisi2
 269 0016 0029     		cmp	r1, #0
 270 0018 F7D1     		bne	.L29
 271              	.L27:
 272 001a 38BD     		pop	{r3, r4, r5, pc}
 273              	.L33:
 274              		.align	2
 275              	.L32:
 276 001c 00000000 		.word	.LANCHOR1
 277              		.cfi_endproc
 278              	.LFE119:
 279              		.size	test_print, .-test_print
 280              		.section	.text.test_println,"ax",%progbits
 281              		.align	2
 282              		.p2align 4,,15
 283              		.global	test_println
 284              		.thumb
ARM GAS  /tmp/ccZP0EQp.s 			page 6


 285              		.thumb_func
 286              		.type	test_println, %function
 287              	test_println:
 288              	.LFB120:
 289              		.loc 1 121 0
 290              		.cfi_startproc
 291              		@ args = 0, pretend = 0, frame = 0
 292              		@ frame_needed = 0, uses_anonymous_args = 0
 293              	.LVL21:
 294 0000 38B5     		push	{r3, r4, r5, lr}
 295              	.LCFI4:
 296              		.cfi_def_cfa_offset 16
 297              		.cfi_offset 3, -16
 298              		.cfi_offset 4, -12
 299              		.cfi_offset 5, -8
 300              		.cfi_offset 14, -4
 301              	.LBB56:
 302              	.LBB57:
 303              		.loc 1 112 0
 304 0002 0178     		ldrb	r1, [r0, #0]	@ zero_extendqisi2
 305 0004 084D     		ldr	r5, .L40
 306 0006 41B1     		cbz	r1, .L37
 307 0008 0446     		mov	r4, r0
 308              	.LVL22:
 309              	.L36:
 310              		.loc 1 113 0
 311 000a 2868     		ldr	r0, [r5, #0]
 312 000c 0368     		ldr	r3, [r0, #0]
 313 000e 9A68     		ldr	r2, [r3, #8]
 314 0010 9047     		blx	r2
 315              	.LVL23:
 316              		.loc 1 112 0
 317 0012 14F8011F 		ldrb	r1, [r4, #1]!	@ zero_extendqisi2
 318 0016 0029     		cmp	r1, #0
 319 0018 F7D1     		bne	.L36
 320              	.L37:
 321              	.LBE57:
 322              	.LBE56:
 323              		.loc 1 124 0
 324 001a 2868     		ldr	r0, [r5, #0]
 325 001c 0349     		ldr	r1, .L40+4
 326 001e 0368     		ldr	r3, [r0, #0]
 327 0020 0222     		movs	r2, #2
 328 0022 1B68     		ldr	r3, [r3, #0]
 329 0024 9847     		blx	r3
 330              	.LVL24:
 331 0026 38BD     		pop	{r3, r4, r5, pc}
 332              	.L41:
 333              		.align	2
 334              	.L40:
 335 0028 00000000 		.word	.LANCHOR1
 336 002c 00000000 		.word	.LC0
 337              		.cfi_endproc
 338              	.LFE120:
 339              		.size	test_println, .-test_println
 340              		.section	.text.test_emit_token,"ax",%progbits
 341              		.align	2
ARM GAS  /tmp/ccZP0EQp.s 			page 7


 342              		.p2align 4,,15
 343              		.global	test_emit_token
 344              		.thumb
 345              		.thumb_func
 346              		.type	test_emit_token, %function
 347              	test_emit_token:
 348              	.LFB123:
 349              		.loc 1 147 0
 350              		.cfi_startproc
 351              		@ args = 0, pretend = 0, frame = 0
 352              		@ frame_needed = 0, uses_anonymous_args = 0
 353              		@ link register save eliminated.
 354              	.LVL25:
 355              	.LBB58:
 356              		.loc 1 149 0
 357 0000 2023     		movs	r3, #32
 358              	.LVL26:
 359              	@ 149 "../../test/test.c" 1
 360 0002 83F31188 		msr     BASEPRI, r3
 361              	@ 0 "" 2
 362              	.LVL27:
 363              		.thumb
 364              	.LBE58:
 365              		.loc 1 150 0
 366 0006 40F20002 		movw	r2, #:lower16:.LANCHOR2
 367 000a C0F20002 		movt	r2, #:upper16:.LANCHOR2
 368              	.LBB59:
 369              		.loc 1 151 0
 370 000e 0023     		movs	r3, #0
 371              	.LVL28:
 372              	.LBE59:
 373              		.loc 1 150 0
 374 0010 1168     		ldr	r1, [r2, #0]
 375 0012 01F8010B 		strb	r0, [r1], #1
 376 0016 1160     		str	r1, [r2, #0]
 377              	.LBB60:
 378              		.loc 1 151 0
 379              	@ 151 "../../test/test.c" 1
 380 0018 83F31188 		msr     BASEPRI, r3
 381              	@ 0 "" 2
 382              	.LVL29:
 383              		.thumb
 384 001c 7047     		bx	lr
 385              	.LBE60:
 386              		.cfi_endproc
 387              	.LFE123:
 388              		.size	test_emit_token, .-test_emit_token
 389 001e 00BF     		.section	.text._test_fail,"ax",%progbits
 390              		.align	2
 391              		.p2align 4,,15
 392              		.global	_test_fail
 393              		.thumb
 394              		.thumb_func
 395              		.type	_test_fail, %function
 396              	_test_fail:
 397              	.LFB124:
 398              		.loc 1 157 0
ARM GAS  /tmp/ccZP0EQp.s 			page 8


 399              		.cfi_startproc
 400              		@ args = 0, pretend = 0, frame = 0
 401              		@ frame_needed = 0, uses_anonymous_args = 0
 402              		@ link register save eliminated.
 403              	.LVL30:
 404 0000 10B4     		push	{r4}
 405              	.LCFI5:
 406              		.cfi_def_cfa_offset 4
 407              		.cfi_offset 4, -4
 408              		.loc 1 159 0
 409 0002 40F20001 		movw	r1, #:lower16:.LANCHOR3
 410              		.loc 1 160 0
 411 0006 40F20002 		movw	r2, #:lower16:.LANCHOR4
 412              		.loc 1 161 0
 413 000a 40F20004 		movw	r4, #:lower16:.LANCHOR5
 414              		.loc 1 159 0
 415 000e C0F20001 		movt	r1, #:upper16:.LANCHOR3
 416              		.loc 1 160 0
 417 0012 C0F20002 		movt	r2, #:upper16:.LANCHOR4
 418              		.loc 1 161 0
 419 0016 C0F20004 		movt	r4, #:upper16:.LANCHOR5
 420              		.loc 1 159 0
 421 001a 0123     		movs	r3, #1
 422              		.loc 1 161 0
 423 001c 2060     		str	r0, [r4, #0]
 424              		.loc 1 159 0
 425 001e 0B70     		strb	r3, [r1, #0]
 426              		.loc 1 160 0
 427 0020 1370     		strb	r3, [r2, #0]
 428              		.loc 1 163 0
 429 0022 1846     		mov	r0, r3
 430              	.LVL31:
 431 0024 10BC     		pop	{r4}
 432 0026 7047     		bx	lr
 433              		.cfi_endproc
 434              	.LFE124:
 435              		.size	_test_fail, .-_test_fail
 436 0028 AFF30080 		.section	.text._test_assert,"ax",%progbits
 436      AFF30080 
 437              		.align	2
 438              		.p2align 4,,15
 439              		.global	_test_assert
 440              		.thumb
 441              		.thumb_func
 442              		.type	_test_assert, %function
 443              	_test_assert:
 444              	.LFB125:
 445              		.loc 1 165 0
 446              		.cfi_startproc
 447              		@ args = 0, pretend = 0, frame = 0
 448              		@ frame_needed = 0, uses_anonymous_args = 0
 449              		@ link register save eliminated.
 450              	.LVL32:
 451              		.loc 1 167 0
 452 0000 41B9     		cbnz	r1, .L46
 453              	.LVL33:
 454              	.LBB61:
ARM GAS  /tmp/ccZP0EQp.s 			page 9


 455              	.LBB62:
 456              		.loc 1 159 0
 457 0002 054A     		ldr	r2, .L47
 458              		.loc 1 160 0
 459 0004 0549     		ldr	r1, .L47+4
 460              	.LVL34:
 461              		.loc 1 159 0
 462 0006 0123     		movs	r3, #1
 463 0008 1370     		strb	r3, [r2, #0]
 464              		.loc 1 161 0
 465 000a 054A     		ldr	r2, .L47+8
 466              		.loc 1 160 0
 467 000c 0B70     		strb	r3, [r1, #0]
 468              		.loc 1 161 0
 469 000e 1060     		str	r0, [r2, #0]
 470              	.LBE62:
 471              	.LBE61:
 472              		.loc 1 168 0
 473 0010 1846     		mov	r0, r3
 474              	.LVL35:
 475 0012 7047     		bx	lr
 476              	.LVL36:
 477              	.L46:
 478              		.loc 1 169 0
 479 0014 0020     		movs	r0, #0
 480              	.LVL37:
 481              		.loc 1 170 0
 482 0016 7047     		bx	lr
 483              	.L48:
 484              		.align	2
 485              	.L47:
 486 0018 00000000 		.word	.LANCHOR3
 487 001c 00000000 		.word	.LANCHOR4
 488 0020 00000000 		.word	.LANCHOR5
 489              		.cfi_endproc
 490              	.LFE125:
 491              		.size	_test_assert, .-_test_assert
 492 0024 AFF30080 		.section	.text._test_assert_sequence,"ax",%progbits
 492      AFF30080 
 492      AFF30080 
 493              		.align	2
 494              		.p2align 4,,15
 495              		.global	_test_assert_sequence
 496              		.thumb
 497              		.thumb_func
 498              		.type	_test_assert_sequence, %function
 499              	_test_assert_sequence:
 500              	.LFB126:
 501              		.loc 1 172 0
 502              		.cfi_startproc
 503              		@ args = 0, pretend = 0, frame = 0
 504              		@ frame_needed = 0, uses_anonymous_args = 0
 505              		@ link register save eliminated.
 506              	.LVL38:
 507 0000 DFF874C0 		ldr	ip, .L66+16
 508 0004 F0B4     		push	{r4, r5, r6, r7}
 509              	.LCFI6:
ARM GAS  /tmp/ccZP0EQp.s 			page 10


 510              		.cfi_def_cfa_offset 16
 511              		.cfi_offset 4, -16
 512              		.cfi_offset 5, -12
 513              		.cfi_offset 6, -8
 514              		.cfi_offset 7, -4
 515              		.loc 1 173 0
 516 0006 184F     		ldr	r7, .L66
 517 0008 DCF80060 		ldr	r6, [ip, #0]
 518 000c F21B     		subs	r2, r6, r7
 519 000e D207     		lsls	r2, r2, #31
 520 0010 3B46     		mov	r3, r7
 521 0012 14D5     		bpl	.L50
 522              	.LVL39:
 523              		.loc 1 174 0
 524 0014 BE42     		cmp	r6, r7
 525 0016 17D9     		bls	.L63
 526              		.loc 1 175 0
 527 0018 11F8012B 		ldrb	r2, [r1], #1	@ zero_extendqisi2
 528              	.LVL40:
 529 001c 3C78     		ldrb	r4, [r7, #0]	@ zero_extendqisi2
 530 001e 7B1C     		adds	r3, r7, #1
 531 0020 9442     		cmp	r4, r2
 532 0022 0CD0     		beq	.L50
 533 0024 16E0     		b	.L65
 534              	.LVL41:
 535              	.L52:
 536 0026 1B78     		ldrb	r3, [r3, #0]	@ zero_extendqisi2
 537 0028 12F8015B 		ldrb	r5, [r2], #1	@ zero_extendqisi2
 538              	.LVL42:
 539 002c AB42     		cmp	r3, r5
 540 002e 04F10103 		add	r3, r4, #1
 541 0032 0FD1     		bne	.L65
 542 0034 4D78     		ldrb	r5, [r1, #1]	@ zero_extendqisi2
 543 0036 2478     		ldrb	r4, [r4, #0]	@ zero_extendqisi2
 544 0038 511C     		adds	r1, r2, #1
 545              	.LVL43:
 546 003a AC42     		cmp	r4, r5
 547 003c 0AD1     		bne	.L65
 548              	.L50:
 549              	.LVL44:
 550              		.loc 1 174 0 discriminator 1
 551 003e 9E42     		cmp	r6, r3
 552              		.loc 1 175 0 discriminator 1
 553 0040 0A46     		mov	r2, r1
 554 0042 03F10104 		add	r4, r3, #1
 555              		.loc 1 174 0 discriminator 1
 556 0046 EED8     		bhi	.L52
 557              	.L63:
 558              		.loc 1 178 0
 559 0048 0B78     		ldrb	r3, [r1, #0]	@ zero_extendqisi2
 560 004a 1BB9     		cbnz	r3, .L65
 561              	.LBB63:
 562              	.LBB64:
 563              		.loc 1 132 0
 564 004c CCF80070 		str	r7, [ip, #0]
 565              	.LBE64:
 566              	.LBE63:
ARM GAS  /tmp/ccZP0EQp.s 			page 11


 567              		.loc 1 181 0
 568 0050 1846     		mov	r0, r3
 569              	.LVL45:
 570 0052 07E0     		b	.L51
 571              	.LVL46:
 572              	.L65:
 573              	.LBB65:
 574              	.LBB66:
 575              		.loc 1 159 0
 576 0054 054A     		ldr	r2, .L66+4
 577              		.loc 1 160 0
 578 0056 064B     		ldr	r3, .L66+8
 579              		.loc 1 159 0
 580 0058 0121     		movs	r1, #1
 581 005a 1170     		strb	r1, [r2, #0]
 582              		.loc 1 161 0
 583 005c 054A     		ldr	r2, .L66+12
 584              		.loc 1 160 0
 585 005e 1970     		strb	r1, [r3, #0]
 586              		.loc 1 161 0
 587 0060 1060     		str	r0, [r2, #0]
 588              	.LBE66:
 589              	.LBE65:
 590              		.loc 1 179 0
 591 0062 0846     		mov	r0, r1
 592              	.LVL47:
 593              	.L51:
 594              		.loc 1 182 0
 595 0064 F0BC     		pop	{r4, r5, r6, r7}
 596 0066 7047     		bx	lr
 597              	.L67:
 598              		.align	2
 599              	.L66:
 600 0068 00000000 		.word	.LANCHOR6
 601 006c 00000000 		.word	.LANCHOR3
 602 0070 00000000 		.word	.LANCHOR4
 603 0074 00000000 		.word	.LANCHOR5
 604 0078 00000000 		.word	.LANCHOR2
 605              		.cfi_endproc
 606              	.LFE126:
 607              		.size	_test_assert_sequence, .-_test_assert_sequence
 608 007c AFF30080 		.section	.text._test_assert_time_window,"ax",%progbits
 609              		.align	2
 610              		.p2align 4,,15
 611              		.global	_test_assert_time_window
 612              		.thumb
 613              		.thumb_func
 614              		.type	_test_assert_time_window, %function
 615              	_test_assert_time_window:
 616              	.LFB127:
 617              		.loc 1 184 0
 618              		.cfi_startproc
 619              		@ args = 0, pretend = 0, frame = 0
 620              		@ frame_needed = 0, uses_anonymous_args = 0
 621              	.LVL48:
 622 0000 10B5     		push	{r4, lr}
 623              	.LCFI7:
ARM GAS  /tmp/ccZP0EQp.s 			page 12


 624              		.cfi_def_cfa_offset 8
 625              		.cfi_offset 4, -8
 626              		.cfi_offset 14, -4
 627              		.loc 1 184 0
 628 0002 0446     		mov	r4, r0
 629              		.loc 1 186 0
 630 0004 0846     		mov	r0, r1
 631              	.LVL49:
 632 0006 1146     		mov	r1, r2
 633              	.LVL50:
 634 0008 FFF7FEFF 		bl	chTimeIsWithin
 635              	.LVL51:
 636              	.LBB67:
 637              	.LBB68:
 638              		.loc 1 167 0
 639 000c 40B9     		cbnz	r0, .L70
 640              	.LVL52:
 641              	.LBB69:
 642              	.LBB70:
 643              		.loc 1 159 0
 644 000e 054A     		ldr	r2, .L71
 645              		.loc 1 160 0
 646 0010 0548     		ldr	r0, .L71+4
 647              	.LVL53:
 648              		.loc 1 161 0
 649 0012 0649     		ldr	r1, .L71+8
 650              		.loc 1 159 0
 651 0014 0123     		movs	r3, #1
 652              		.loc 1 160 0
 653 0016 0370     		strb	r3, [r0, #0]
 654              		.loc 1 159 0
 655 0018 1370     		strb	r3, [r2, #0]
 656              		.loc 1 161 0
 657 001a 0C60     		str	r4, [r1, #0]
 658              		.loc 1 168 0
 659 001c 1846     		mov	r0, r3
 660 001e 10BD     		pop	{r4, pc}
 661              	.LVL54:
 662              	.L70:
 663              	.LBE70:
 664              	.LBE69:
 665              		.loc 1 169 0
 666 0020 0020     		movs	r0, #0
 667              	.LVL55:
 668              	.LBE68:
 669              	.LBE67:
 670              		.loc 1 187 0
 671 0022 10BD     		pop	{r4, pc}
 672              	.L72:
 673              		.align	2
 674              	.L71:
 675 0024 00000000 		.word	.LANCHOR3
 676 0028 00000000 		.word	.LANCHOR4
 677 002c 00000000 		.word	.LANCHOR5
 678              		.cfi_endproc
 679              	.LFE127:
 680              		.size	_test_assert_time_window, .-_test_assert_time_window
ARM GAS  /tmp/ccZP0EQp.s 			page 13


 681              		.section	.text.test_terminate_threads,"ax",%progbits
 682              		.align	2
 683              		.p2align 4,,15
 684              		.global	test_terminate_threads
 685              		.thumb
 686              		.thumb_func
 687              		.type	test_terminate_threads, %function
 688              	test_terminate_threads:
 689              	.LFB128:
 690              		.loc 1 196 0
 691              		.cfi_startproc
 692              		@ args = 0, pretend = 0, frame = 0
 693              		@ frame_needed = 0, uses_anonymous_args = 0
 694              	.LVL56:
 695 0000 10B5     		push	{r4, lr}
 696              	.LCFI8:
 697              		.cfi_def_cfa_offset 8
 698              		.cfi_offset 4, -8
 699              		.cfi_offset 14, -4
 700              		.loc 1 200 0
 701 0002 0C4C     		ldr	r4, .L91
 702 0004 2068     		ldr	r0, [r4, #0]
 703 0006 08B1     		cbz	r0, .L74
 704              		.loc 1 201 0
 705 0008 FFF7FEFF 		bl	chThdTerminate
 706              	.LVL57:
 707              	.L74:
 708              		.loc 1 200 0
 709 000c 6068     		ldr	r0, [r4, #4]
 710 000e 08B1     		cbz	r0, .L75
 711              		.loc 1 201 0
 712 0010 FFF7FEFF 		bl	chThdTerminate
 713              	.LVL58:
 714              	.L75:
 715              		.loc 1 200 0
 716 0014 A068     		ldr	r0, [r4, #8]
 717 0016 08B1     		cbz	r0, .L76
 718              		.loc 1 201 0
 719 0018 FFF7FEFF 		bl	chThdTerminate
 720              	.LVL59:
 721              	.L76:
 722              		.loc 1 200 0
 723 001c E068     		ldr	r0, [r4, #12]
 724 001e 08B1     		cbz	r0, .L77
 725              		.loc 1 201 0
 726 0020 FFF7FEFF 		bl	chThdTerminate
 727              	.LVL60:
 728              	.L77:
 729              		.loc 1 200 0
 730 0024 2069     		ldr	r0, [r4, #16]
 731 0026 18B1     		cbz	r0, .L73
 732              		.loc 1 202 0
 733 0028 BDE81040 		pop	{r4, lr}
 734              		.loc 1 201 0
 735 002c FFF7FEBF 		b	chThdTerminate
 736              	.LVL61:
 737              	.L73:
ARM GAS  /tmp/ccZP0EQp.s 			page 14


 738 0030 10BD     		pop	{r4, pc}
 739              	.L92:
 740 0032 00BF     		.align	2
 741              	.L91:
 742 0034 00000000 		.word	.LANCHOR7
 743              		.cfi_endproc
 744              	.LFE128:
 745              		.size	test_terminate_threads, .-test_terminate_threads
 746 0038 AFF30080 		.section	.text.test_wait_threads,"ax",%progbits
 746      AFF30080 
 747              		.align	2
 748              		.p2align 4,,15
 749              		.global	test_wait_threads
 750              		.thumb
 751              		.thumb_func
 752              		.type	test_wait_threads, %function
 753              	test_wait_threads:
 754              	.LFB129:
 755              		.loc 1 207 0
 756              		.cfi_startproc
 757              		@ args = 0, pretend = 0, frame = 0
 758              		@ frame_needed = 0, uses_anonymous_args = 0
 759              	.LVL62:
 760 0000 10B5     		push	{r4, lr}
 761              	.LCFI9:
 762              		.cfi_def_cfa_offset 8
 763              		.cfi_offset 4, -8
 764              		.cfi_offset 14, -4
 765              		.loc 1 211 0
 766 0002 124C     		ldr	r4, .L114
 767 0004 2068     		ldr	r0, [r4, #0]
 768 0006 18B1     		cbz	r0, .L94
 769              		.loc 1 212 0
 770 0008 FFF7FEFF 		bl	chThdWait
 771              	.LVL63:
 772              		.loc 1 213 0
 773 000c 0023     		movs	r3, #0
 774 000e 2360     		str	r3, [r4, #0]
 775              	.L94:
 776              	.LVL64:
 777              		.loc 1 211 0
 778 0010 6068     		ldr	r0, [r4, #4]
 779 0012 20B1     		cbz	r0, .L95
 780              		.loc 1 212 0
 781 0014 FFF7FEFF 		bl	chThdWait
 782              	.LVL65:
 783              		.loc 1 213 0
 784 0018 0C48     		ldr	r0, .L114
 785 001a 0022     		movs	r2, #0
 786 001c 4260     		str	r2, [r0, #4]
 787              	.L95:
 788              	.LVL66:
 789              		.loc 1 211 0
 790 001e A068     		ldr	r0, [r4, #8]
 791 0020 20B1     		cbz	r0, .L96
 792              		.loc 1 212 0
 793 0022 FFF7FEFF 		bl	chThdWait
ARM GAS  /tmp/ccZP0EQp.s 			page 15


 794              	.LVL67:
 795              		.loc 1 213 0
 796 0026 094B     		ldr	r3, .L114
 797 0028 0021     		movs	r1, #0
 798 002a 9960     		str	r1, [r3, #8]
 799              	.L96:
 800              	.LVL68:
 801              		.loc 1 211 0
 802 002c E068     		ldr	r0, [r4, #12]
 803 002e 20B1     		cbz	r0, .L97
 804              		.loc 1 212 0
 805 0030 FFF7FEFF 		bl	chThdWait
 806              	.LVL69:
 807              		.loc 1 213 0
 808 0034 0548     		ldr	r0, .L114
 809 0036 0022     		movs	r2, #0
 810 0038 C260     		str	r2, [r0, #12]
 811              	.L97:
 812              	.LVL70:
 813              		.loc 1 211 0
 814 003a 2069     		ldr	r0, [r4, #16]
 815 003c 20B1     		cbz	r0, .L93
 816              		.loc 1 212 0
 817 003e FFF7FEFF 		bl	chThdWait
 818              	.LVL71:
 819              		.loc 1 213 0
 820 0042 024B     		ldr	r3, .L114
 821 0044 0021     		movs	r1, #0
 822 0046 1961     		str	r1, [r3, #16]
 823              	.LVL72:
 824              	.L93:
 825 0048 10BD     		pop	{r4, pc}
 826              	.L115:
 827 004a 00BF     		.align	2
 828              	.L114:
 829 004c 00000000 		.word	.LANCHOR7
 830              		.cfi_endproc
 831              	.LFE129:
 832              		.size	test_wait_threads, .-test_wait_threads
 833              		.section	.text.test_cpu_pulse,"ax",%progbits
 834              		.align	2
 835              		.p2align 4,,15
 836              		.global	test_cpu_pulse
 837              		.thumb
 838              		.thumb_func
 839              		.type	test_cpu_pulse, %function
 840              	test_cpu_pulse:
 841              	.LFB130:
 842              		.loc 1 224 0
 843              		.cfi_startproc
 844              		@ args = 0, pretend = 0, frame = 0
 845              		@ frame_needed = 0, uses_anonymous_args = 0
 846              		@ link register save eliminated.
 847              	.LVL73:
 848              		.loc 1 227 0
 849 0000 104B     		ldr	r3, .L128
 850              		.loc 1 224 0
ARM GAS  /tmp/ccZP0EQp.s 			page 16


 851 0002 30B4     		push	{r4, r5}
 852              	.LCFI10:
 853              		.cfi_def_cfa_offset 8
 854              		.cfi_offset 4, -8
 855              		.cfi_offset 5, -4
 856              		.loc 1 227 0
 857 0004 9C69     		ldr	r4, [r3, #24]
 858              		.loc 1 228 0
 859 0006 4FF47A71 		mov	r1, #1000
 860 000a 01FB00F0 		mul	r0, r1, r0
 861              	.LVL74:
 862              		.loc 1 227 0
 863 000e 226A     		ldr	r2, [r4, #32]
 864              	.LVL75:
 865              		.loc 1 228 0
 866 0010 44F6D355 		movw	r5, #19923
 867 0014 431E     		subs	r3, r0, #1
 868 0016 C1F26205 		movt	r5, 4194
 869 001a 501C     		adds	r0, r2, #1
 870 001c A5FB0351 		umull	r5, r1, r5, r3
 871 0020 00EB9115 		add	r5, r0, r1, lsr #6
 872              	.LVL76:
 873              	.L126:
 874              		.loc 1 235 0
 875 0024 AA42     		cmp	r2, r5
 876              		.loc 1 230 0
 877 0026 236A     		ldr	r3, [r4, #32]
 878              	.LVL77:
 879              		.loc 1 235 0
 880 0028 03D2     		bcs	.L117
 881              		.loc 1 235 0 is_stmt 0 discriminator 1
 882 002a 9A42     		cmp	r2, r3
 883 002c 03D9     		bls	.L127
 884              	.LVL78:
 885              	.L124:
 886              		.loc 1 237 0 is_stmt 1
 887 002e 30BC     		pop	{r4, r5}
 888 0030 7047     		bx	lr
 889              	.LVL79:
 890              	.L117:
 891              		.loc 1 236 0
 892 0032 9A42     		cmp	r2, r3
 893 0034 F6D9     		bls	.L126
 894              	.L127:
 895              		.loc 1 236 0 is_stmt 0 discriminator 2
 896 0036 9D42     		cmp	r5, r3
 897 0038 94BF     		ite	ls
 898 003a 0023     		movls	r3, #0
 899              	.LVL80:
 900 003c 0123     		movhi	r3, #1
 901 003e 002B     		cmp	r3, #0
 902 0040 F0D1     		bne	.L126
 903 0042 F4E7     		b	.L124
 904              	.L129:
 905              		.align	2
 906              	.L128:
 907 0044 00000000 		.word	rlist
ARM GAS  /tmp/ccZP0EQp.s 			page 17


 908              		.cfi_endproc
 909              	.LFE130:
 910              		.size	test_cpu_pulse, .-test_cpu_pulse
 911 0048 AFF30080 		.section	.text.test_wait_tick,"ax",%progbits
 911      AFF30080 
 912              		.align	2
 913              		.p2align 4,,15
 914              		.global	test_wait_tick
 915              		.thumb
 916              		.thumb_func
 917              		.type	test_wait_tick, %function
 918              	test_wait_tick:
 919              	.LFB131:
 920              		.loc 1 245 0 is_stmt 1
 921              		.cfi_startproc
 922              		@ args = 0, pretend = 0, frame = 0
 923              		@ frame_needed = 0, uses_anonymous_args = 0
 924 0000 08B5     		push	{r3, lr}
 925              	.LCFI11:
 926              		.cfi_def_cfa_offset 8
 927              		.cfi_offset 3, -8
 928              		.cfi_offset 14, -4
 929              		.loc 1 247 0
 930 0002 0120     		movs	r0, #1
 931 0004 FFF7FEFF 		bl	chThdSleep
 932              	.LVL81:
 933              		.loc 1 248 0
 934 0008 40F20003 		movw	r3, #:lower16:vtlist
 935 000c C0F20003 		movt	r3, #:upper16:vtlist
 936 0010 D868     		ldr	r0, [r3, #12]
 937              		.loc 1 249 0
 938 0012 08BD     		pop	{r3, pc}
 939              		.cfi_endproc
 940              	.LFE131:
 941              		.size	test_wait_tick, .-test_wait_tick
 942 0014 AFF30080 		.section	.text.test_start_timer,"ax",%progbits
 942      AFF30080 
 942      AFF30080 
 943              		.align	2
 944              		.p2align 4,,15
 945              		.global	test_start_timer
 946              		.thumb
 947              		.thumb_func
 948              		.type	test_start_timer, %function
 949              	test_start_timer:
 950              	.LFB133:
 951              		.loc 1 272 0
 952              		.cfi_startproc
 953              		@ args = 0, pretend = 0, frame = 0
 954              		@ frame_needed = 0, uses_anonymous_args = 0
 955              	.LVL82:
 956              		.loc 1 275 0
 957 0000 40F20003 		movw	r3, #:lower16:.LANCHOR0
 958 0004 C0F20003 		movt	r3, #:upper16:.LANCHOR0
 959              		.loc 1 272 0
 960 0008 10B5     		push	{r4, lr}
 961              	.LCFI12:
ARM GAS  /tmp/ccZP0EQp.s 			page 18


 962              		.cfi_def_cfa_offset 8
 963              		.cfi_offset 4, -8
 964              		.cfi_offset 14, -4
 965              		.loc 1 275 0
 966 000a 0024     		movs	r4, #0
 967 000c 1C70     		strb	r4, [r3, #0]
 968              	.LVL83:
 969              	.LBB71:
 970              		.loc 1 276 0
 971 000e 2023     		movs	r3, #32
 972              	.LVL84:
 973              	@ 276 "../../test/test.c" 1
 974 0010 83F31188 		msr     BASEPRI, r3
 975              	@ 0 "" 2
 976              	.LVL85:
 977              		.thumb
 978              	.LBE71:
 979              		.loc 1 274 0
 980 0014 4FF47A71 		mov	r1, #1000
 981 0018 01FB00F0 		mul	r0, r1, r0
 982              	.LVL86:
 983 001c 44F6D352 		movw	r2, #19923
 984 0020 0138     		subs	r0, r0, #1
 985 0022 C1F26202 		movt	r2, 4194
 986 0026 A2FB0023 		umull	r2, r3, r2, r0
 987              	.LVL87:
 988 002a 9909     		lsrs	r1, r3, #6
 989              		.loc 1 276 0
 990 002c 40F20000 		movw	r0, #:lower16:.LANCHOR8
 991 0030 40F20002 		movw	r2, #:lower16:tmr
 992 0034 2346     		mov	r3, r4
 993 0036 C0F20000 		movt	r0, #:upper16:.LANCHOR8
 994 003a 0131     		adds	r1, r1, #1
 995 003c C0F20002 		movt	r2, #:upper16:tmr
 996 0040 FFF7FEFF 		bl	chVTSetI
 997              	.LVL88:
 998              	.LBB72:
 999 0044 2346     		mov	r3, r4
 1000              	.LVL89:
 1001              	@ 276 "../../test/test.c" 1
 1002 0046 83F31188 		msr     BASEPRI, r3
 1003              	@ 0 "" 2
 1004              	.LVL90:
 1005              		.thumb
 1006 004a 10BD     		pop	{r4, pc}
 1007              	.LBE72:
 1008              		.cfi_endproc
 1009              	.LFE133:
 1010              		.size	test_start_timer, .-test_start_timer
 1011 004c AFF30080 		.section	.text.TestThread,"ax",%progbits
 1012              		.align	2
 1013              		.p2align 4,,15
 1014              		.global	TestThread
 1015              		.thumb
 1016              		.thumb_func
 1017              		.type	TestThread, %function
 1018              	TestThread:
ARM GAS  /tmp/ccZP0EQp.s 			page 19


 1019              	.LFB136:
 1020              		.loc 1 314 0
 1021              		.cfi_startproc
 1022              		@ args = 0, pretend = 0, frame = 8
 1023              		@ frame_needed = 0, uses_anonymous_args = 0
 1024              	.LVL91:
 1025 0000 2DE9F04F 		push	{r4, r5, r6, r7, r8, r9, sl, fp, lr}
 1026              	.LCFI13:
 1027              		.cfi_def_cfa_offset 36
 1028              		.cfi_offset 4, -36
 1029              		.cfi_offset 5, -32
 1030              		.cfi_offset 6, -28
 1031              		.cfi_offset 7, -24
 1032              		.cfi_offset 8, -20
 1033              		.cfi_offset 9, -16
 1034              		.cfi_offset 10, -12
 1035              		.cfi_offset 11, -8
 1036              		.cfi_offset 14, -4
 1037              		.loc 1 317 0
 1038 0004 9C4C     		ldr	r4, .L205
 1039 0006 9D4D     		ldr	r5, .L205+4
 1040 0008 2060     		str	r0, [r4, #0]
 1041              		.loc 1 314 0
 1042 000a 83B0     		sub	sp, sp, #12
 1043              	.LCFI14:
 1044              		.cfi_def_cfa_offset 48
 1045              		.loc 1 318 0
 1046 000c 9C48     		ldr	r0, .L205+8
 1047              	.LVL92:
 1048 000e FFF7FEFF 		bl	test_println
 1049              	.LVL93:
 1050              		.loc 1 319 0
 1051 0012 9C48     		ldr	r0, .L205+12
 1052 0014 FFF7FEFF 		bl	test_println
 1053              	.LVL94:
 1054              		.loc 1 320 0
 1055 0018 9B48     		ldr	r0, .L205+16
 1056 001a FFF7FEFF 		bl	test_println
 1057              	.LVL95:
 1058              		.loc 1 112 0
 1059 001e 2A21     		movs	r1, #42
 1060              	.LVL96:
 1061              	.L133:
 1062              	.LBB109:
 1063              	.LBB110:
 1064              		.loc 1 113 0
 1065 0020 2068     		ldr	r0, [r4, #0]
 1066 0022 0368     		ldr	r3, [r0, #0]
 1067 0024 9A68     		ldr	r2, [r3, #8]
 1068 0026 9047     		blx	r2
 1069              	.LVL97:
 1070              		.loc 1 112 0
 1071 0028 15F8011F 		ldrb	r1, [r5, #1]!	@ zero_extendqisi2
 1072 002c 0029     		cmp	r1, #0
 1073 002e F7D1     		bne	.L133
 1074              	.LBE110:
 1075              	.LBE109:
ARM GAS  /tmp/ccZP0EQp.s 			page 20


 1076              		.loc 1 322 0
 1077 0030 9648     		ldr	r0, .L205+20
 1078 0032 974E     		ldr	r6, .L205+24
 1079 0034 FFF7FEFF 		bl	test_println
 1080              	.LVL98:
 1081              		.loc 1 112 0
 1082 0038 2A21     		movs	r1, #42
 1083              	.LVL99:
 1084              	.L135:
 1085              	.LBB111:
 1086              	.LBB112:
 1087              		.loc 1 113 0
 1088 003a 2068     		ldr	r0, [r4, #0]
 1089 003c 0768     		ldr	r7, [r0, #0]
 1090 003e BD68     		ldr	r5, [r7, #8]
 1091 0040 A847     		blx	r5
 1092              	.LVL100:
 1093              		.loc 1 112 0
 1094 0042 16F8011F 		ldrb	r1, [r6, #1]!	@ zero_extendqisi2
 1095 0046 0029     		cmp	r1, #0
 1096 0048 F7D1     		bne	.L135
 1097              	.LBE112:
 1098              	.LBE111:
 1099              		.loc 1 324 0
 1100 004a 9248     		ldr	r0, .L205+28
 1101 004c 924E     		ldr	r6, .L205+32
 1102 004e FFF7FEFF 		bl	test_println
 1103              	.LVL101:
 1104              		.loc 1 112 0
 1105 0052 2A21     		movs	r1, #42
 1106              	.LVL102:
 1107              	.L137:
 1108              	.LBB113:
 1109              	.LBB114:
 1110              		.loc 1 113 0
 1111 0054 2068     		ldr	r0, [r4, #0]
 1112 0056 0368     		ldr	r3, [r0, #0]
 1113 0058 9A68     		ldr	r2, [r3, #8]
 1114 005a 9047     		blx	r2
 1115              	.LVL103:
 1116              		.loc 1 112 0
 1117 005c 16F8011F 		ldrb	r1, [r6, #1]!	@ zero_extendqisi2
 1118 0060 0029     		cmp	r1, #0
 1119 0062 F7D1     		bne	.L137
 1120              	.LBE114:
 1121              	.LBE113:
 1122              		.loc 1 327 0
 1123 0064 8D48     		ldr	r0, .L205+36
 1124 0066 8E4F     		ldr	r7, .L205+40
 1125 0068 FFF7FEFF 		bl	test_println
 1126              	.LVL104:
 1127              		.loc 1 112 0
 1128 006c 2A21     		movs	r1, #42
 1129              	.LVL105:
 1130              	.L139:
 1131              	.LBB115:
 1132              	.LBB116:
ARM GAS  /tmp/ccZP0EQp.s 			page 21


 1133              		.loc 1 113 0
 1134 006e 2068     		ldr	r0, [r4, #0]
 1135 0070 0568     		ldr	r5, [r0, #0]
 1136 0072 AE68     		ldr	r6, [r5, #8]
 1137 0074 B047     		blx	r6
 1138              	.LVL106:
 1139              		.loc 1 112 0
 1140 0076 17F8011F 		ldrb	r1, [r7, #1]!	@ zero_extendqisi2
 1141 007a 0029     		cmp	r1, #0
 1142 007c F7D1     		bne	.L139
 1143              	.LBE116:
 1144              	.LBE115:
 1145              		.loc 1 330 0
 1146 007e 8948     		ldr	r0, .L205+44
 1147 0080 894F     		ldr	r7, .L205+48
 1148 0082 FFF7FEFF 		bl	test_println
 1149              	.LVL107:
 1150              		.loc 1 112 0
 1151 0086 2A21     		movs	r1, #42
 1152              	.LVL108:
 1153              	.L141:
 1154              	.LBB117:
 1155              	.LBB118:
 1156              		.loc 1 113 0
 1157 0088 2068     		ldr	r0, [r4, #0]
 1158 008a 0368     		ldr	r3, [r0, #0]
 1159 008c 9A68     		ldr	r2, [r3, #8]
 1160 008e 9047     		blx	r2
 1161              	.LVL109:
 1162              		.loc 1 112 0
 1163 0090 17F8011F 		ldrb	r1, [r7, #1]!	@ zero_extendqisi2
 1164 0094 0029     		cmp	r1, #0
 1165 0096 F7D1     		bne	.L141
 1166              	.LBE118:
 1167              	.LBE117:
 1168              		.loc 1 333 0
 1169 0098 8448     		ldr	r0, .L205+52
 1170 009a 854D     		ldr	r5, .L205+56
 1171 009c FFF7FEFF 		bl	test_println
 1172              	.LVL110:
 1173              		.loc 1 112 0
 1174 00a0 2A21     		movs	r1, #42
 1175              	.LVL111:
 1176              	.L143:
 1177              	.LBB119:
 1178              	.LBB120:
 1179              		.loc 1 113 0
 1180 00a2 2068     		ldr	r0, [r4, #0]
 1181 00a4 0668     		ldr	r6, [r0, #0]
 1182 00a6 B768     		ldr	r7, [r6, #8]
 1183 00a8 B847     		blx	r7
 1184              	.LVL112:
 1185              		.loc 1 112 0
 1186 00aa 15F8011F 		ldrb	r1, [r5, #1]!	@ zero_extendqisi2
 1187 00ae 0029     		cmp	r1, #0
 1188 00b0 F7D1     		bne	.L143
 1189              	.LBE120:
ARM GAS  /tmp/ccZP0EQp.s 			page 22


 1190              	.LBE119:
 1191              		.loc 1 337 0
 1192 00b2 8048     		ldr	r0, .L205+60
 1193 00b4 804D     		ldr	r5, .L205+64
 1194 00b6 FFF7FEFF 		bl	test_println
 1195              	.LVL113:
 1196              		.loc 1 112 0
 1197 00ba 2A21     		movs	r1, #42
 1198              	.LVL114:
 1199              	.L145:
 1200              	.LBB121:
 1201              	.LBB122:
 1202              		.loc 1 113 0
 1203 00bc 2068     		ldr	r0, [r4, #0]
 1204 00be 0368     		ldr	r3, [r0, #0]
 1205 00c0 9A68     		ldr	r2, [r3, #8]
 1206 00c2 9047     		blx	r2
 1207              	.LVL115:
 1208              		.loc 1 112 0
 1209 00c4 15F8011F 		ldrb	r1, [r5, #1]!	@ zero_extendqisi2
 1210 00c8 0029     		cmp	r1, #0
 1211 00ca F7D1     		bne	.L145
 1212              	.LBE122:
 1213              	.LBE121:
 1214              		.loc 1 341 0
 1215 00cc 7B48     		ldr	r0, .L205+68
 1216 00ce 7C4E     		ldr	r6, .L205+72
 1217 00d0 FFF7FEFF 		bl	test_println
 1218              	.LVL116:
 1219              		.loc 1 112 0
 1220 00d4 2A21     		movs	r1, #42
 1221              	.LVL117:
 1222              	.L147:
 1223              	.LBB123:
 1224              	.LBB124:
 1225              		.loc 1 113 0
 1226 00d6 2068     		ldr	r0, [r4, #0]
 1227 00d8 0768     		ldr	r7, [r0, #0]
 1228 00da BD68     		ldr	r5, [r7, #8]
 1229 00dc A847     		blx	r5
 1230              	.LVL118:
 1231              		.loc 1 112 0
 1232 00de 16F8011F 		ldrb	r1, [r6, #1]!	@ zero_extendqisi2
 1233 00e2 0029     		cmp	r1, #0
 1234 00e4 F7D1     		bne	.L147
 1235 00e6 774B     		ldr	r3, .L205+76
 1236              	.LBE124:
 1237              	.LBE123:
 1238              		.loc 1 345 0
 1239 00e8 7748     		ldr	r0, .L205+80
 1240 00ea 0091     		str	r1, [sp, #0]
 1241 00ec 0193     		str	r3, [sp, #4]
 1242 00ee FFF7FEFF 		bl	test_println
 1243              	.LVL119:
 1244              		.loc 1 347 0
 1245 00f2 6348     		ldr	r0, .L205+8
 1246              	.LBB125:
ARM GAS  /tmp/ccZP0EQp.s 			page 23


 1247              	.LBB126:
 1248              	.LBB127:
 1249              	.LBB128:
 1250              		.loc 1 132 0
 1251 00f4 754E     		ldr	r6, .L205+84
 1252 00f6 DFF80C92 		ldr	r9, .L205+140
 1253              	.LBE128:
 1254              	.LBE127:
 1255              	.LBE126:
 1256              	.LBE125:
 1257              		.loc 1 349 0
 1258 00fa 754F     		ldr	r7, .L205+88
 1259              		.loc 1 347 0
 1260 00fc FFF7FEFF 		bl	test_println
 1261              	.LVL120:
 1262              		.loc 1 349 0
 1263 0100 40F20000 		movw	r0, #:lower16:.LANCHOR4
 1264              		.loc 1 350 0
 1265 0104 0099     		ldr	r1, [sp, #0]
 1266              		.loc 1 349 0
 1267 0106 C0F20000 		movt	r0, #:upper16:.LANCHOR4
 1268              		.loc 1 350 0
 1269 010a 8A46     		mov	sl, r1
 1270              		.loc 1 349 0
 1271 010c 0170     		strb	r1, [r0, #0]
 1272              	.LVL121:
 1273              	.L172:
 1274 010e 0AF1010A 		add	sl, sl, #1
 1275              		.loc 1 112 0 discriminator 1
 1276 0112 4FF00008 		mov	r8, #0
 1277              	.L201:
 1278              	.LVL122:
 1279              		.loc 1 353 0 discriminator 1
 1280 0116 57F8042B 		ldr	r2, [r7], #4
 1281 011a 002A     		cmp	r2, #0
 1282 011c 00F08480 		beq	.L203
 1283              	.L166:
 1284 0120 6C4D     		ldr	r5, .L205+92
 1285              		.loc 1 354 0
 1286 0122 FFF7FEFF 		bl	print_line
 1287              	.LVL123:
 1288              		.loc 1 112 0
 1289 0126 2D21     		movs	r1, #45
 1290              	.LVL124:
 1291              	.L149:
 1292              	.LBB134:
 1293              	.LBB135:
 1294              		.loc 1 113 0
 1295 0128 2068     		ldr	r0, [r4, #0]
 1296 012a 0268     		ldr	r2, [r0, #0]
 1297 012c 9368     		ldr	r3, [r2, #8]
 1298 012e 9847     		blx	r3
 1299              	.LVL125:
 1300              		.loc 1 112 0
 1301 0130 15F8011F 		ldrb	r1, [r5, #1]!	@ zero_extendqisi2
 1302 0134 0029     		cmp	r1, #0
 1303 0136 F7D1     		bne	.L149
ARM GAS  /tmp/ccZP0EQp.s 			page 24


 1304              	.LBE135:
 1305              	.LBE134:
 1306              		.loc 1 356 0
 1307 0138 5046     		mov	r0, sl
 1308 013a FFF7FEFF 		bl	test_printn
 1309              	.LVL126:
 1310              	.LBB136:
 1311              	.LBB137:
 1312              		.loc 1 113 0
 1313 013e 4E49     		ldr	r1, .L205
 1314 0140 654D     		ldr	r5, .L205+96
 1315 0142 0868     		ldr	r0, [r1, #0]
 1316              	.LVL127:
 1317 0144 0268     		ldr	r2, [r0, #0]
 1318 0146 2E21     		movs	r1, #46
 1319 0148 9368     		ldr	r3, [r2, #8]
 1320              	.LBE137:
 1321              	.LBE136:
 1322              		.loc 1 358 0
 1323 014a 08F10108 		add	r8, r8, #1
 1324              	.LVL128:
 1325              	.LBB139:
 1326              	.LBB138:
 1327              		.loc 1 113 0
 1328 014e 9847     		blx	r3
 1329              	.LVL129:
 1330              	.LBE138:
 1331              	.LBE139:
 1332              		.loc 1 358 0
 1333 0150 4046     		mov	r0, r8
 1334 0152 FFF7FEFF 		bl	test_printn
 1335              	.LVL130:
 1336              		.loc 1 112 0
 1337 0156 2021     		movs	r1, #32
 1338              	.LVL131:
 1339              	.L151:
 1340              	.LBB140:
 1341              	.LBB141:
 1342              		.loc 1 113 0
 1343 0158 2068     		ldr	r0, [r4, #0]
 1344 015a 0268     		ldr	r2, [r0, #0]
 1345 015c 9368     		ldr	r3, [r2, #8]
 1346 015e 9847     		blx	r3
 1347              	.LVL132:
 1348              		.loc 1 112 0
 1349 0160 15F8011F 		ldrb	r1, [r5, #1]!	@ zero_extendqisi2
 1350 0164 0029     		cmp	r1, #0
 1351 0166 F7D1     		bne	.L151
 1352              	.LBE141:
 1353              	.LBE140:
 1354              		.loc 1 360 0
 1355 0168 57F8040C 		ldr	r0, [r7, #-4]
 1356 016c 0568     		ldr	r5, [r0, #0]
 1357              	.LVL133:
 1358              	.LBB142:
 1359              	.LBB143:
 1360              		.loc 1 112 0
ARM GAS  /tmp/ccZP0EQp.s 			page 25


 1361 016e 2978     		ldrb	r1, [r5, #0]	@ zero_extendqisi2
 1362 0170 39B1     		cbz	r1, .L156
 1363              	.LVL134:
 1364              	.L155:
 1365              		.loc 1 113 0
 1366 0172 2068     		ldr	r0, [r4, #0]
 1367 0174 0268     		ldr	r2, [r0, #0]
 1368 0176 9368     		ldr	r3, [r2, #8]
 1369 0178 9847     		blx	r3
 1370              	.LVL135:
 1371              		.loc 1 112 0
 1372 017a 15F8011F 		ldrb	r1, [r5, #1]!	@ zero_extendqisi2
 1373 017e 0029     		cmp	r1, #0
 1374 0180 F7D1     		bne	.L155
 1375              	.L156:
 1376              	.LBE143:
 1377              	.LBE142:
 1378              		.loc 1 361 0
 1379 0182 5648     		ldr	r0, .L205+100
 1380              	.LBB144:
 1381              	.LBB131:
 1382              		.loc 1 287 0
 1383 0184 564D     		ldr	r5, .L205+104
 1384              	.LBE131:
 1385              	.LBE144:
 1386              		.loc 1 361 0
 1387 0186 FFF7FEFF 		bl	test_println
 1388              	.LVL136:
 1389              		.loc 1 363 0
 1390 018a C820     		movs	r0, #200
 1391 018c FFF7FEFF 		bl	chThdSleep
 1392              	.LVL137:
 1393              	.LBB145:
 1394              	.LBB132:
 1395              		.loc 1 289 0
 1396 0190 5449     		ldr	r1, .L205+108
 1397              	.LBE132:
 1398              	.LBE145:
 1399              		.loc 1 365 0
 1400 0192 57F804BC 		ldr	fp, [r7, #-4]
 1401              	.LVL138:
 1402              	.LBB146:
 1403              	.LBB133:
 1404              	.LBB130:
 1405              	.LBB129:
 1406              		.loc 1 132 0
 1407 0196 C6F80090 		str	r9, [r6, #0]
 1408              	.LBE129:
 1409              	.LBE130:
 1410              		.loc 1 287 0
 1411 019a 0020     		movs	r0, #0
 1412              		.loc 1 289 0
 1413 019c 0860     		str	r0, [r1, #0]
 1414 019e 4860     		str	r0, [r1, #4]
 1415 01a0 8860     		str	r0, [r1, #8]
 1416 01a2 C860     		str	r0, [r1, #12]
 1417 01a4 0861     		str	r0, [r1, #16]
ARM GAS  /tmp/ccZP0EQp.s 			page 26


 1418              		.loc 1 291 0
 1419 01a6 DBF80420 		ldr	r2, [fp, #4]
 1420              		.loc 1 287 0
 1421 01aa 2870     		strb	r0, [r5, #0]
 1422              	.LVL139:
 1423              		.loc 1 291 0
 1424 01ac 02B1     		cbz	r2, .L154
 1425              		.loc 1 292 0
 1426 01ae 9047     		blx	r2
 1427              	.LVL140:
 1428              	.L154:
 1429              		.loc 1 293 0
 1430 01b0 DBF80C30 		ldr	r3, [fp, #12]
 1431 01b4 9847     		blx	r3
 1432              	.LVL141:
 1433              		.loc 1 294 0
 1434 01b6 DBF80810 		ldr	r1, [fp, #8]
 1435 01ba 01B1     		cbz	r1, .L157
 1436              		.loc 1 295 0
 1437 01bc 8847     		blx	r1
 1438              	.LVL142:
 1439              	.L157:
 1440              		.loc 1 297 0
 1441 01be FFF7FEFF 		bl	test_wait_threads
 1442              	.LVL143:
 1443              	.LBE133:
 1444              	.LBE146:
 1445              		.loc 1 366 0
 1446 01c2 2D78     		ldrb	r5, [r5, #0]	@ zero_extendqisi2
 1447 01c4 002D     		cmp	r5, #0
 1448 01c6 00F09F80 		beq	.L158
 1449 01ca 474D     		ldr	r5, .L205+112
 1450              		.loc 1 112 0
 1451 01cc 2D21     		movs	r1, #45
 1452              	.L159:
 1453              	.LBB147:
 1454              	.LBB148:
 1455              		.loc 1 113 0
 1456 01ce 2068     		ldr	r0, [r4, #0]
 1457              	.LVL144:
 1458 01d0 0268     		ldr	r2, [r0, #0]
 1459 01d2 9368     		ldr	r3, [r2, #8]
 1460 01d4 9847     		blx	r3
 1461              	.LVL145:
 1462              		.loc 1 112 0
 1463 01d6 15F8011F 		ldrb	r1, [r5, #1]!	@ zero_extendqisi2
 1464 01da 0029     		cmp	r1, #0
 1465 01dc F7D1     		bne	.L159
 1466              	.LBE148:
 1467              	.LBE147:
 1468              		.loc 1 368 0
 1469 01de 4348     		ldr	r0, .L205+116
 1470 01e0 434D     		ldr	r5, .L205+120
 1471 01e2 0068     		ldr	r0, [r0, #0]
 1472 01e4 FFF7FEFF 		bl	test_printn
 1473              	.LVL146:
 1474              		.loc 1 112 0
ARM GAS  /tmp/ccZP0EQp.s 			page 27


 1475 01e8 2021     		movs	r1, #32
 1476              	.LVL147:
 1477              	.L161:
 1478              	.LBB149:
 1479              	.LBB150:
 1480              		.loc 1 113 0
 1481 01ea 2068     		ldr	r0, [r4, #0]
 1482 01ec 0268     		ldr	r2, [r0, #0]
 1483 01ee 9368     		ldr	r3, [r2, #8]
 1484 01f0 9847     		blx	r3
 1485              	.LVL148:
 1486              		.loc 1 112 0
 1487 01f2 15F8011F 		ldrb	r1, [r5, #1]!	@ zero_extendqisi2
 1488 01f6 0029     		cmp	r1, #0
 1489 01f8 F7D1     		bne	.L161
 1490              	.LVL149:
 1491              	.LBE150:
 1492              	.LBE149:
 1493              	.LBB151:
 1494              	.LBB152:
 1495              		.loc 1 138 0
 1496 01fa 3168     		ldr	r1, [r6, #0]
 1497 01fc 4945     		cmp	r1, r9
 1498 01fe 0BD9     		bls	.L165
 1499              	.LBE152:
 1500              	.LBE151:
 1501              		.loc 1 314 0
 1502 0200 3C4D     		ldr	r5, .L205+124
 1503              	.LVL150:
 1504              	.L164:
 1505              	.LBB154:
 1506              	.LBB153:
 1507              		.loc 1 139 0
 1508 0202 2068     		ldr	r0, [r4, #0]
 1509 0204 15F8011C 		ldrb	r1, [r5, #-1]	@ zero_extendqisi2
 1510 0208 0268     		ldr	r2, [r0, #0]
 1511 020a 9368     		ldr	r3, [r2, #8]
 1512 020c 9847     		blx	r3
 1513              	.LVL151:
 1514              		.loc 1 138 0
 1515 020e 3068     		ldr	r0, [r6, #0]
 1516              		.loc 1 314 0
 1517 0210 2946     		mov	r1, r5
 1518              	.LVL152:
 1519 0212 0135     		adds	r5, r5, #1
 1520              		.loc 1 138 0
 1521 0214 8142     		cmp	r1, r0
 1522 0216 F4D3     		bcc	.L164
 1523              	.LVL153:
 1524              	.L165:
 1525              	.LBE153:
 1526              	.LBE154:
 1527              		.loc 1 371 0
 1528 0218 3748     		ldr	r0, .L205+128
 1529 021a FFF7FEFF 		bl	test_println
 1530              	.LVL154:
 1531              		.loc 1 353 0
ARM GAS  /tmp/ccZP0EQp.s 			page 28


 1532 021e 57F8042B 		ldr	r2, [r7], #4
 1533 0222 002A     		cmp	r2, #0
 1534 0224 7FF47CAF 		bne	.L166
 1535              	.LVL155:
 1536              	.L203:
 1537              		.loc 1 351 0
 1538 0228 019D     		ldr	r5, [sp, #4]
 1539 022a 55F8047F 		ldr	r7, [r5, #4]!
 1540 022e 0195     		str	r5, [sp, #4]
 1541 0230 002F     		cmp	r7, #0
 1542 0232 7FF46CAF 		bne	.L172
 1543              		.loc 1 379 0
 1544 0236 FFF7FEFF 		bl	print_line
 1545              	.LVL156:
 1546 023a 304D     		ldr	r5, .L205+132
 1547              		.loc 1 380 0
 1548 023c 1048     		ldr	r0, .L205+8
 1549 023e FFF7FEFF 		bl	test_println
 1550              	.LVL157:
 1551              		.loc 1 112 0
 1552 0242 4621     		movs	r1, #70
 1553              	.LVL158:
 1554              	.L169:
 1555              	.LBB155:
 1556              	.LBB156:
 1557              		.loc 1 113 0
 1558 0244 2068     		ldr	r0, [r4, #0]
 1559 0246 0368     		ldr	r3, [r0, #0]
 1560 0248 9A68     		ldr	r2, [r3, #8]
 1561 024a 9047     		blx	r2
 1562              	.LVL159:
 1563              		.loc 1 112 0
 1564 024c 15F8011F 		ldrb	r1, [r5, #1]!	@ zero_extendqisi2
 1565 0250 0029     		cmp	r1, #0
 1566 0252 F7D1     		bne	.L169
 1567              	.LBE156:
 1568              	.LBE155:
 1569              		.loc 1 382 0
 1570 0254 40F20001 		movw	r1, #:lower16:.LANCHOR4
 1571 0258 C0F20001 		movt	r1, #:upper16:.LANCHOR4
 1572 025c 0878     		ldrb	r0, [r1, #0]	@ zero_extendqisi2
 1573 025e 0028     		cmp	r0, #0
 1574 0260 56D1     		bne	.L204
 1575              		.loc 1 385 0
 1576 0262 2748     		ldr	r0, .L205+136
 1577 0264 FFF7FEFF 		bl	test_println
 1578              	.LVL160:
 1579              	.L171:
 1580              		.loc 1 387 0
 1581 0268 40F20003 		movw	r3, #:lower16:.LANCHOR4
 1582 026c C0F20003 		movt	r3, #:upper16:.LANCHOR4
 1583 0270 1878     		ldrb	r0, [r3, #0]	@ zero_extendqisi2
 1584              		.loc 1 388 0
 1585 0272 03B0     		add	sp, sp, #12
 1586 0274 BDE8F08F 		pop	{r4, r5, r6, r7, r8, r9, sl, fp, pc}
 1587              	.L206:
 1588              		.align	2
ARM GAS  /tmp/ccZP0EQp.s 			page 29


 1589              	.L205:
 1590 0278 00000000 		.word	.LANCHOR1
 1591 027c 28000000 		.word	.LC4
 1592 0280 04000000 		.word	.LC1
 1593 0284 08000000 		.word	.LC2
 1594 0288 24000000 		.word	.LC3
 1595 028c 90000000 		.word	.LC12
 1596 0290 A0000000 		.word	.LC13
 1597 0294 B4000000 		.word	.LC14
 1598 0298 CC000000 		.word	.LC15
 1599 029c E0000000 		.word	.LC16
 1600 02a0 28010000 		.word	.LC17
 1601 02a4 3C010000 		.word	.LC18
 1602 02a8 48010000 		.word	.LC19
 1603 02ac 5C010000 		.word	.LC20
 1604 02b0 68010000 		.word	.LC21
 1605 02b4 7C010000 		.word	.LC22
 1606 02b8 94010000 		.word	.LC23
 1607 02bc A8010000 		.word	.LC24
 1608 02c0 C4010000 		.word	.LC25
 1609 02c4 00000000 		.word	.LANCHOR9
 1610 02c8 D8010000 		.word	.LC26
 1611 02cc 00000000 		.word	.LANCHOR2
 1612 02d0 00000000 		.word	patternthd
 1613 02d4 3C000000 		.word	.LC5
 1614 02d8 00020000 		.word	.LC27
 1615 02dc 4C000000 		.word	.LC6
 1616 02e0 00000000 		.word	.LANCHOR3
 1617 02e4 00000000 		.word	.LANCHOR7
 1618 02e8 50000000 		.word	.LC7
 1619 02ec 00000000 		.word	.LANCHOR5
 1620 02f0 04020000 		.word	.LC28
 1621 02f4 01000000 		.word	.LANCHOR6+1
 1622 02f8 68000000 		.word	.LC8
 1623 02fc 08020000 		.word	.LC29
 1624 0300 88000000 		.word	.LC11
 1625 0304 00000000 		.word	.LANCHOR6
 1626              	.LVL161:
 1627              	.L158:
 1628              		.loc 1 374 0
 1629 0308 0348     		ldr	r0, .L207
 1630 030a FFF7FEFF 		bl	test_println
 1631              	.LVL162:
 1632 030e 02E7     		b	.L201
 1633              	.LVL163:
 1634              	.L204:
 1635              		.loc 1 383 0
 1636 0310 0248     		ldr	r0, .L207+4
 1637 0312 FFF7FEFF 		bl	test_println
 1638              	.LVL164:
 1639 0316 A7E7     		b	.L171
 1640              	.L208:
 1641              		.align	2
 1642              	.L207:
 1643 0318 6C000000 		.word	.LC9
 1644 031c 80000000 		.word	.LC10
 1645              		.cfi_endproc
ARM GAS  /tmp/ccZP0EQp.s 			page 30


 1646              	.LFE136:
 1647              		.size	TestThread, .-TestThread
 1648              		.global	test_timer_done
 1649              		.global	wa
 1650              		.global	threads
 1651              		.global	test
 1652              		.section	.bss.test,"aw",%nobits
 1653              		.align	3
 1654              		.type	test, %object
 1655              		.size	test, 2200
 1656              	test:
 1657 0000 00000000 		.space	2200
 1657      00000000 
 1657      00000000 
 1657      00000000 
 1657      00000000 
 1658              		.section	.bss.failpoint,"aw",%nobits
 1659              		.align	2
 1660              		.set	.LANCHOR5,. + 0
 1661              		.type	failpoint, %object
 1662              		.size	failpoint, 4
 1663              	failpoint:
 1664 0000 00000000 		.space	4
 1665              		.section	.bss.local_fail,"aw",%nobits
 1666              		.set	.LANCHOR3,. + 0
 1667              		.type	local_fail, %object
 1668              		.size	local_fail, 1
 1669              	local_fail:
 1670 0000 00       		.space	1
 1671              		.section	.bss.test_timer_done,"aw",%nobits
 1672              		.set	.LANCHOR0,. + 0
 1673              		.type	test_timer_done, %object
 1674              		.size	test_timer_done, 1
 1675              	test_timer_done:
 1676 0000 00       		.space	1
 1677              		.section	.rodata.wa,"a",%progbits
 1678              		.align	2
 1679              		.type	wa, %object
 1680              		.size	wa, 20
 1681              	wa:
 1682 0000 00000000 		.word	test
 1683 0004 B8010000 		.word	test+440
 1684 0008 70030000 		.word	test+880
 1685 000c 28050000 		.word	test+1320
 1686 0010 E0060000 		.word	test+1760
 1687              		.section	.bss.tokp,"aw",%nobits
 1688              		.align	2
 1689              		.set	.LANCHOR2,. + 0
 1690              		.type	tokp, %object
 1691              		.size	tokp, 4
 1692              	tokp:
 1693 0000 00000000 		.space	4
 1694              		.section	.bss.global_fail,"aw",%nobits
 1695              		.set	.LANCHOR4,. + 0
 1696              		.type	global_fail, %object
 1697              		.size	global_fail, 1
 1698              	global_fail:
ARM GAS  /tmp/ccZP0EQp.s 			page 31


 1699 0000 00       		.space	1
 1700              		.section	.rodata.str1.4,"aMS",%progbits,1
 1701              		.align	2
 1702              	.LC0:
 1703 0000 0D0A00   		.ascii	"\015\012\000"
 1704 0003 00       		.space	1
 1705              	.LC1:
 1706 0004 00       		.ascii	"\000"
 1707 0005 000000   		.space	3
 1708              	.LC2:
 1709 0008 2A2A2A20 		.ascii	"*** ChibiOS/RT test suite\000"
 1709      43686962 
 1709      694F532F 
 1709      52542074 
 1709      65737420 
 1710 0022 0000     		.space	2
 1711              	.LC3:
 1712 0024 2A2A2A00 		.ascii	"***\000"
 1713              	.LC4:
 1714 0028 2A2A2A20 		.ascii	"*** Kernel:       \000"
 1714      4B65726E 
 1714      656C3A20 
 1714      20202020 
 1714      202000
 1715 003b 00       		.space	1
 1716              	.LC5:
 1717 003c 2D2D2D20 		.ascii	"--- Test Case \000"
 1717      54657374 
 1717      20436173 
 1717      652000
 1718 004b 00       		.space	1
 1719              	.LC6:
 1720 004c 2900     		.ascii	")\000"
 1721 004e 0000     		.space	2
 1722              	.LC7:
 1723 0050 2D2D2D20 		.ascii	"--- Result: FAILURE (#\000"
 1723      52657375 
 1723      6C743A20 
 1723      4641494C 
 1723      55524520 
 1724 0067 00       		.space	1
 1725              	.LC8:
 1726 0068 5D2900   		.ascii	"])\000"
 1727 006b 00       		.space	1
 1728              	.LC9:
 1729 006c 2D2D2D20 		.ascii	"--- Result: SUCCESS\000"
 1729      52657375 
 1729      6C743A20 
 1729      53554343 
 1729      45535300 
 1730              	.LC10:
 1731 0080 4641494C 		.ascii	"FAILURE\000"
 1731      55524500 
 1732              	.LC11:
 1733 0088 53554343 		.ascii	"SUCCESS\000"
 1733      45535300 
 1734              	.LC12:
ARM GAS  /tmp/ccZP0EQp.s 			page 32


 1735 0090 322E372E 		.ascii	"2.7.0unstable\000"
 1735      30756E73 
 1735      7461626C 
 1735      6500
 1736 009e 0000     		.space	2
 1737              	.LC13:
 1738 00a0 2A2A2A20 		.ascii	"*** Compiled:     \000"
 1738      436F6D70 
 1738      696C6564 
 1738      3A202020 
 1738      202000
 1739 00b3 00       		.space	1
 1740              	.LC14:
 1741 00b4 41756720 		.ascii	"Aug  7 2013 - 12:16:24\000"
 1741      20372032 
 1741      30313320 
 1741      2D203132 
 1741      3A31363A 
 1742 00cb 00       		.space	1
 1743              	.LC15:
 1744 00cc 2A2A2A20 		.ascii	"*** Compiler:     \000"
 1744      436F6D70 
 1744      696C6572 
 1744      3A202020 
 1744      202000
 1745 00df 00       		.space	1
 1746              	.LC16:
 1747 00e0 47434320 		.ascii	"GCC 4.7.4 20130613 (release) [ARM/embedded-4_7-bran"
 1747      342E372E 
 1747      34203230 
 1747      31333036 
 1747      31332028 
 1748 0113 63682072 		.ascii	"ch revision 200083]\000"
 1748      65766973 
 1748      696F6E20 
 1748      32303030 
 1748      38335D00 
 1749 0127 00       		.space	1
 1750              	.LC17:
 1751 0128 2A2A2A20 		.ascii	"*** Architecture: \000"
 1751      41726368 
 1751      69746563 
 1751      74757265 
 1751      3A2000
 1752 013b 00       		.space	1
 1753              	.LC18:
 1754 013c 41524D76 		.ascii	"ARMv7-ME\000"
 1754      372D4D45 
 1754      00
 1755 0145 000000   		.space	3
 1756              	.LC19:
 1757 0148 2A2A2A20 		.ascii	"*** Core Variant: \000"
 1757      436F7265 
 1757      20566172 
 1757      69616E74 
 1757      3A2000
 1758 015b 00       		.space	1
ARM GAS  /tmp/ccZP0EQp.s 			page 33


 1759              	.LC20:
 1760 015c 436F7274 		.ascii	"Cortex-M4F\000"
 1760      65782D4D 
 1760      344600
 1761 0167 00       		.space	1
 1762              	.LC21:
 1763 0168 2A2A2A20 		.ascii	"*** Port Info:    \000"
 1763      506F7274 
 1763      20496E66 
 1763      6F3A2020 
 1763      202000
 1764 017b 00       		.space	1
 1765              	.LC22:
 1766 017c 41647661 		.ascii	"Advanced kernel mode\000"
 1766      6E636564 
 1766      206B6572 
 1766      6E656C20 
 1766      6D6F6465 
 1767 0191 000000   		.space	3
 1768              	.LC23:
 1769 0194 2A2A2A20 		.ascii	"*** Platform:     \000"
 1769      506C6174 
 1769      666F726D 
 1769      3A202020 
 1769      202000
 1770 01a7 00       		.space	1
 1771              	.LC24:
 1772 01a8 53544D33 		.ascii	"STM32F4xx High Performance\000"
 1772      32463478 
 1772      78204869 
 1772      67682050 
 1772      6572666F 
 1773 01c3 00       		.space	1
 1774              	.LC25:
 1775 01c4 2A2A2A20 		.ascii	"*** Test Board:   \000"
 1775      54657374 
 1775      20426F61 
 1775      72643A20 
 1775      202000
 1776 01d7 00       		.space	1
 1777              	.LC26:
 1778 01d8 53544D69 		.ascii	"STMicroelectronics STM32F4-Discovery\000"
 1778      63726F65 
 1778      6C656374 
 1778      726F6E69 
 1778      63732053 
 1779 01fd 000000   		.space	3
 1780              	.LC27:
 1781 0200 202800   		.ascii	" (\000"
 1782 0203 00       		.space	1
 1783              	.LC28:
 1784 0204 205B00   		.ascii	" [\000"
 1785 0207 00       		.space	1
 1786              	.LC29:
 1787 0208 46696E61 		.ascii	"Final result: \000"
 1787      6C207265 
 1787      73756C74 
ARM GAS  /tmp/ccZP0EQp.s 			page 34


 1787      3A2000
 1788 0217 00       		.section	.bss.vt,"aw",%nobits
 1789              		.align	2
 1790              		.set	.LANCHOR8,. + 0
 1791              		.type	vt, %object
 1792              		.size	vt, 20
 1793              	vt:
 1794 0000 00000000 		.space	20
 1794      00000000 
 1794      00000000 
 1794      00000000 
 1794      00000000 
 1795              		.section	.bss.threads,"aw",%nobits
 1796              		.align	2
 1797              		.set	.LANCHOR7,. + 0
 1798              		.type	threads, %object
 1799              		.size	threads, 20
 1800              	threads:
 1801 0000 00000000 		.space	20
 1801      00000000 
 1801      00000000 
 1801      00000000 
 1801      00000000 
 1802              		.section	.rodata.patterns,"a",%progbits
 1803              		.align	2
 1804              		.set	.LANCHOR9,. + 0
 1805              		.type	patterns, %object
 1806              		.size	patterns, 48
 1807              	patterns:
 1808 0000 00000000 		.word	patternthd
 1809 0004 00000000 		.word	patternsem
 1810 0008 00000000 		.word	patternmtx
 1811 000c 00000000 		.word	patternmsg
 1812 0010 00000000 		.word	patternmbox
 1813 0014 00000000 		.word	patternevt
 1814 0018 00000000 		.word	patternheap
 1815 001c 00000000 		.word	patternpools
 1816 0020 00000000 		.word	patterndyn
 1817 0024 00000000 		.word	patternqueues
 1818 0028 00000000 		.word	patternbmk
 1819 002c 00000000 		.word	0
 1820              		.section	.bss.chp,"aw",%nobits
 1821              		.align	2
 1822              		.set	.LANCHOR1,. + 0
 1823              		.type	chp, %object
 1824              		.size	chp, 4
 1825              	chp:
 1826 0000 00000000 		.space	4
 1827              		.section	.bss.tokens_buffer,"aw",%nobits
 1828              		.align	2
 1829              		.set	.LANCHOR6,. + 0
 1830              		.type	tokens_buffer, %object
 1831              		.size	tokens_buffer, 16
 1832              	tokens_buffer:
 1833 0000 00000000 		.space	16
 1833      00000000 
 1833      00000000 
ARM GAS  /tmp/ccZP0EQp.s 			page 35


 1833      00000000 
 1834              		.text
 1835              	.Letext0:
 1836              		.file 2 "/usr/bin/../lib/gcc/arm-none-eabi/4.7.4/include/stddef.h"
 1837              		.file 3 "/usr/bin/../lib/gcc/arm-none-eabi/4.7.4/../../../../arm-none-eabi/include/stdint.h"
 1838              		.file 4 "../../os/ports/GCC/ARMCMx/chtypes.h"
 1839              		.file 5 "../../os/kernel/include/chlists.h"
 1840              		.file 6 "../../os/kernel/include/chthreads.h"
 1841              		.file 7 "../../os/ports/GCC/ARMCMx/chcore_v7m.h"
 1842              		.file 8 "../../os/kernel/include/chvt.h"
 1843              		.file 9 "../../os/kernel/include/chschd.h"
 1844              		.file 10 "../../os/kernel/include/chmtx.h"
 1845              		.file 11 "../../os/kernel/include/chstreams.h"
 1846              		.file 12 "../../test/test.h"
 1847              		.file 13 "../../os/ports/common/ARMCMx/CMSIS/include/core_cm4.h"
 1848              		.file 14 "../../test/testthd.h"
 1849              		.file 15 "../../test/testsem.h"
 1850              		.file 16 "../../test/testmtx.h"
 1851              		.file 17 "../../test/testmsg.h"
 1852              		.file 18 "../../test/testmbox.h"
 1853              		.file 19 "../../test/testevt.h"
 1854              		.file 20 "../../test/testheap.h"
 1855              		.file 21 "../../test/testpools.h"
 1856              		.file 22 "../../test/testdyn.h"
 1857              		.file 23 "../../test/testqueues.h"
 1858              		.file 24 "../../test/testbmk.h"