ARM GAS  /tmp/ccZd7Sj2.s 			page 1


   1              		.syntax unified
   2              		.cpu cortex-m4
   3              		.eabi_attribute 27, 3
   4              		.eabi_attribute 28, 1
   5              		.fpu fpv4-sp-d16
   6              		.eabi_attribute 20, 1
   7              		.eabi_attribute 21, 1
   8              		.eabi_attribute 23, 3
   9              		.eabi_attribute 24, 1
  10              		.eabi_attribute 25, 1
  11              		.eabi_attribute 26, 1
  12              		.eabi_attribute 30, 2
  13              		.eabi_attribute 34, 1
  14              		.eabi_attribute 18, 4
  15              		.thumb
  16              		.file	"chibios.c"
  17              		.text
  18              	.Ltext0:
  19              		.cfi_sections	.debug_frame
  20              		.section	.text._gosInit,"ax",%progbits
  21              		.align	2
  22              		.p2align 4,,15
  23              		.global	_gosInit
  24              		.thumb
  25              		.thumb_func
  26              		.type	_gosInit, %function
  27              	_gosInit:
  28              	.LFB118:
  29              		.file 1 "../../ext/ugfx/src/gos/chibios.c"
  30              		.loc 1 26 0
  31              		.cfi_startproc
  32              		@ args = 0, pretend = 0, frame = 0
  33              		@ frame_needed = 0, uses_anonymous_args = 0
  34 0000 08B5     		push	{r3, lr}
  35              	.LCFI0:
  36              		.cfi_def_cfa_offset 8
  37              		.cfi_offset 3, -8
  38              		.cfi_offset 14, -4
  39              		.loc 1 28 0
  40 0002 054B     		ldr	r3, .L5
  41 0004 9869     		ldr	r0, [r3, #24]
  42 0006 00B1     		cbz	r0, .L4
  43 0008 08BD     		pop	{r3, pc}
  44              	.L4:
  45              		.loc 1 29 0
  46 000a FFF7FEFF 		bl	halInit
  47              	.LVL0:
  48              		.loc 1 32 0
  49 000e BDE80840 		pop	{r3, lr}
  50              		.loc 1 30 0
  51 0012 FFF7FEBF 		b	chSysInit
  52              	.LVL1:
  53              	.L6:
  54 0016 00BF     		.align	2
  55              	.L5:
  56 0018 00000000 		.word	rlist
  57              		.cfi_endproc
ARM GAS  /tmp/ccZd7Sj2.s 			page 2


  58              	.LFE118:
  59              		.size	_gosInit, .-_gosInit
  60 001c AFF30080 		.section	.text.gfxRealloc,"ax",%progbits
  61              		.align	2
  62              		.p2align 4,,15
  63              		.global	gfxRealloc
  64              		.thumb
  65              		.thumb_func
  66              		.type	gfxRealloc, %function
  67              	gfxRealloc:
  68              	.LFB119:
  69              		.loc 1 34 0
  70              		.cfi_startproc
  71              		@ args = 0, pretend = 0, frame = 0
  72              		@ frame_needed = 0, uses_anonymous_args = 0
  73              	.LVL2:
  74              		.loc 1 37 0
  75 0000 8A42     		cmp	r2, r1
  76              		.loc 1 34 0
  77 0002 70B5     		push	{r4, r5, r6, lr}
  78              	.LCFI1:
  79              		.cfi_def_cfa_offset 16
  80              		.cfi_offset 4, -16
  81              		.cfi_offset 5, -12
  82              		.cfi_offset 6, -8
  83              		.cfi_offset 14, -4
  84              		.loc 1 34 0
  85 0004 0D46     		mov	r5, r1
  86 0006 0446     		mov	r4, r0
  87              		.loc 1 37 0
  88 0008 01D8     		bhi	.L11
  89              		.loc 1 48 0
  90 000a 2046     		mov	r0, r4
  91 000c 70BD     		pop	{r4, r5, r6, pc}
  92              	.L11:
  93              		.loc 1 40 0
  94 000e 0020     		movs	r0, #0
  95 0010 1146     		mov	r1, r2
  96              	.LVL3:
  97 0012 FFF7FEFF 		bl	chHeapAlloc
  98              	.LVL4:
  99              		.loc 1 41 0
 100 0016 0646     		mov	r6, r0
 101 0018 00B1     		cbz	r0, .L10
 102              		.loc 1 44 0
 103 001a 15B9     		cbnz	r5, .L12
 104              	.L10:
 105 001c 3446     		mov	r4, r6
 106              	.LVL5:
 107              		.loc 1 48 0
 108 001e 2046     		mov	r0, r4
 109              	.LVL6:
 110 0020 70BD     		pop	{r4, r5, r6, pc}
 111              	.LVL7:
 112              	.L12:
 113              		.loc 1 45 0
 114 0022 2146     		mov	r1, r4
ARM GAS  /tmp/ccZd7Sj2.s 			page 3


 115 0024 2A46     		mov	r2, r5
 116 0026 3446     		mov	r4, r6
 117              	.LVL8:
 118 0028 FFF7FEFF 		bl	memcpy
 119              	.LVL9:
 120              		.loc 1 48 0
 121 002c 2046     		mov	r0, r4
 122 002e 70BD     		pop	{r4, r5, r6, pc}
 123              		.cfi_endproc
 124              	.LFE119:
 125              		.size	gfxRealloc, .-gfxRealloc
 126              		.section	.text.gfxSleepMilliseconds,"ax",%progbits
 127              		.align	2
 128              		.p2align 4,,15
 129              		.global	gfxSleepMilliseconds
 130              		.thumb
 131              		.thumb_func
 132              		.type	gfxSleepMilliseconds, %function
 133              	gfxSleepMilliseconds:
 134              	.LFB120:
 135              		.loc 1 50 0
 136              		.cfi_startproc
 137              		@ args = 0, pretend = 0, frame = 0
 138              		@ frame_needed = 0, uses_anonymous_args = 0
 139              		@ link register save eliminated.
 140              	.LVL10:
 141              		.loc 1 51 0
 142 0000 0346     		mov	r3, r0
 143 0002 08B9     		cbnz	r0, .L19
 144              		.loc 1 56 0
 145              		.loc 1 52 0
 146 0004 FFF7FEBF 		b	chThdYield
 147              	.LVL11:
 148              	.L19:
 149              		.loc 1 51 0
 150 0008 421C     		adds	r2, r0, #1
 151 000a 0CD0     		beq	.L18
 152              		.loc 1 54 0
 153 000c 4FF47A72 		mov	r2, #1000
 154 0010 02FB03F3 		mul	r3, r2, r3
 155 0014 44F6D350 		movw	r0, #19923
 156              	.LVL12:
 157 0018 C1F26200 		movt	r0, 4194
 158 001c 591E     		subs	r1, r3, #1
 159 001e A0FB0113 		umull	r1, r3, r0, r1
 160 0022 9A09     		lsrs	r2, r3, #6
 161 0024 501C     		adds	r0, r2, #1
 162              	.L18:
 163              		.loc 1 56 0
 164              		.loc 1 54 0
 165 0026 FFF7FEBF 		b	chThdSleep
 166              	.LVL13:
 167              		.cfi_endproc
 168              	.LFE120:
 169              		.size	gfxSleepMilliseconds, .-gfxSleepMilliseconds
 170 002a 00BFAFF3 		.section	.text.gfxSleepMicroseconds,"ax",%progbits
 170      0080
ARM GAS  /tmp/ccZd7Sj2.s 			page 4


 171              		.align	2
 172              		.p2align 4,,15
 173              		.global	gfxSleepMicroseconds
 174              		.thumb
 175              		.thumb_func
 176              		.type	gfxSleepMicroseconds, %function
 177              	gfxSleepMicroseconds:
 178              	.LFB121:
 179              		.loc 1 58 0
 180              		.cfi_startproc
 181              		@ args = 0, pretend = 0, frame = 0
 182              		@ frame_needed = 0, uses_anonymous_args = 0
 183              		@ link register save eliminated.
 184              	.LVL14:
 185              		.loc 1 59 0
 186 0000 0346     		mov	r3, r0
 187 0002 00B9     		cbnz	r0, .L26
 188 0004 7047     		bx	lr
 189              	.L26:
 190 0006 411C     		adds	r1, r0, #1
 191 0008 0CD0     		beq	.L25
 192              		.loc 1 62 0
 193 000a 4FF47A72 		mov	r2, #1000
 194 000e 02FB03F3 		mul	r3, r2, r3
 195 0012 4DF68360 		movw	r0, #56963
 196              	.LVL15:
 197 0016 C4F21B30 		movt	r0, 17179
 198 001a 591E     		subs	r1, r3, #1
 199              	.LVL16:
 200 001c A0FB0113 		umull	r1, r3, r0, r1
 201 0020 9A0C     		lsrs	r2, r3, #18
 202 0022 501C     		adds	r0, r2, #1
 203              	.L25:
 204              		.loc 1 64 0
 205              		.loc 1 62 0
 206 0024 FFF7FEBF 		b	chThdSleep
 207              	.LVL17:
 208              		.cfi_endproc
 209              	.LFE121:
 210              		.size	gfxSleepMicroseconds, .-gfxSleepMicroseconds
 211 0028 AFF30080 		.section	.text.gfxSemInit,"ax",%progbits
 211      AFF30080 
 212              		.align	2
 213              		.p2align 4,,15
 214              		.global	gfxSemInit
 215              		.thumb
 216              		.thumb_func
 217              		.type	gfxSemInit, %function
 218              	gfxSemInit:
 219              	.LFB122:
 220              		.loc 1 65 0
 221              		.cfi_startproc
 222              		@ args = 0, pretend = 0, frame = 0
 223              		@ frame_needed = 0, uses_anonymous_args = 0
 224              		@ link register save eliminated.
 225              	.LVL18:
 226              		.loc 1 68 0
ARM GAS  /tmp/ccZd7Sj2.s 			page 5


 227 0000 8A42     		cmp	r2, r1
 228 0002 B8BF     		it	lt
 229 0004 1146     		movlt	r1, r2
 230              	.LVL19:
 231              		.loc 1 67 0
 232 0006 C260     		str	r2, [r0, #12]
 233              		.loc 1 69 0
 234              		.loc 1 68 0
 235 0008 FFF7FEBF 		b	chSemInit
 236              	.LVL20:
 237              		.cfi_endproc
 238              	.LFE122:
 239              		.size	gfxSemInit, .-gfxSemInit
 240 000c AFF30080 		.section	.text.gfxSemDestroy,"ax",%progbits
 241              		.align	2
 242              		.p2align 4,,15
 243              		.global	gfxSemDestroy
 244              		.thumb
 245              		.thumb_func
 246              		.type	gfxSemDestroy, %function
 247              	gfxSemDestroy:
 248              	.LFB123:
 249              		.loc 1 70 0
 250              		.cfi_startproc
 251              		@ args = 0, pretend = 0, frame = 0
 252              		@ frame_needed = 0, uses_anonymous_args = 0
 253              		@ link register save eliminated.
 254              	.LVL21:
 255              		.loc 1 71 0
 256 0000 0121     		movs	r1, #1
 257              		.loc 1 72 0
 258              		.loc 1 71 0
 259 0002 FFF7FEBF 		b	chSemReset
 260              	.LVL22:
 261              		.cfi_endproc
 262              	.LFE123:
 263              		.size	gfxSemDestroy, .-gfxSemDestroy
 264 0006 00BFAFF3 		.section	.text.gfxSemWait,"ax",%progbits
 264      0080AFF3 
 264      0080
 265              		.align	2
 266              		.p2align 4,,15
 267              		.global	gfxSemWait
 268              		.thumb
 269              		.thumb_func
 270              		.type	gfxSemWait, %function
 271              	gfxSemWait:
 272              	.LFB124:
 273              		.loc 1 73 0
 274              		.cfi_startproc
 275              		@ args = 0, pretend = 0, frame = 0
 276              		@ frame_needed = 0, uses_anonymous_args = 0
 277              	.LVL23:
 278 0000 08B5     		push	{r3, lr}
 279              	.LCFI2:
 280              		.cfi_def_cfa_offset 8
 281              		.cfi_offset 3, -8
ARM GAS  /tmp/ccZd7Sj2.s 			page 6


 282              		.cfi_offset 14, -4
 283              		.loc 1 74 0
 284 0002 4B1C     		adds	r3, r1, #1
 285 0004 12D0     		beq	.L32
 286              		.loc 1 78 0
 287 0006 4FF47A73 		mov	r3, #1000
 288 000a 03FB01F1 		mul	r1, r3, r1
 289              	.LVL24:
 290 000e 44F6D352 		movw	r2, #19923
 291 0012 0139     		subs	r1, r1, #1
 292 0014 C1F26202 		movt	r2, 4194
 293 0018 A2FB0123 		umull	r2, r3, r2, r1
 294 001c 9A09     		lsrs	r2, r3, #6
 295 001e 511C     		adds	r1, r2, #1
 296 0020 FFF7FEFF 		bl	chSemWaitTimeout
 297              	.LVL25:
 298 0024 0130     		adds	r0, r0, #1
 299 0026 18BF     		it	ne
 300 0028 0120     		movne	r0, #1
 301              		.loc 1 79 0
 302 002a 08BD     		pop	{r3, pc}
 303              	.LVL26:
 304              	.L32:
 305              		.loc 1 75 0
 306 002c FFF7FEFF 		bl	chSemWait
 307              	.LVL27:
 308              		.loc 1 76 0
 309 0030 0120     		movs	r0, #1
 310 0032 08BD     		pop	{r3, pc}
 311              		.cfi_endproc
 312              	.LFE124:
 313              		.size	gfxSemWait, .-gfxSemWait
 314 0034 AFF30080 		.section	.text.gfxSemSignal,"ax",%progbits
 314      AFF30080 
 314      AFF30080 
 315              		.align	2
 316              		.p2align 4,,15
 317              		.global	gfxSemSignal
 318              		.thumb
 319              		.thumb_func
 320              		.type	gfxSemSignal, %function
 321              	gfxSemSignal:
 322              	.LFB125:
 323              		.loc 1 81 0
 324              		.cfi_startproc
 325              		@ args = 0, pretend = 0, frame = 0
 326              		@ frame_needed = 0, uses_anonymous_args = 0
 327              	.LVL28:
 328 0000 08B5     		push	{r3, lr}
 329              	.LCFI3:
 330              		.cfi_def_cfa_offset 8
 331              		.cfi_offset 3, -8
 332              		.cfi_offset 14, -4
 333              	.LBB2:
 334              		.loc 1 82 0
 335 0002 2023     		movs	r3, #32
 336              	.LVL29:
ARM GAS  /tmp/ccZd7Sj2.s 			page 7


 337              	@ 82 "../../ext/ugfx/src/gos/chibios.c" 1
 338 0004 83F31188 		msr     BASEPRI, r3
 339              	@ 0 "" 2
 340              	.LVL30:
 341              		.thumb
 342              	.LBE2:
 343              		.loc 1 83 0
 344 0008 8168     		ldr	r1, [r0, #8]
 345 000a C368     		ldr	r3, [r0, #12]
 346              	.LVL31:
 347 000c 9942     		cmp	r1, r3
 348 000e 01DA     		bge	.L34
 349              		.loc 1 84 0
 350 0010 FFF7FEFF 		bl	chSemSignalI
 351              	.LVL32:
 352              	.L34:
 353              		.loc 1 85 0
 354 0014 FFF7FEFF 		bl	chSchRescheduleS
 355              	.LVL33:
 356              	.LBB3:
 357              		.loc 1 86 0
 358 0018 0023     		movs	r3, #0
 359              	.LVL34:
 360              	@ 86 "../../ext/ugfx/src/gos/chibios.c" 1
 361 001a 83F31188 		msr     BASEPRI, r3
 362              	@ 0 "" 2
 363              	.LVL35:
 364              		.thumb
 365 001e 08BD     		pop	{r3, pc}
 366              	.LBE3:
 367              		.cfi_endproc
 368              	.LFE125:
 369              		.size	gfxSemSignal, .-gfxSemSignal
 370              		.section	.text.gfxSemSignalI,"ax",%progbits
 371              		.align	2
 372              		.p2align 4,,15
 373              		.global	gfxSemSignalI
 374              		.thumb
 375              		.thumb_func
 376              		.type	gfxSemSignalI, %function
 377              	gfxSemSignalI:
 378              	.LFB126:
 379              		.loc 1 89 0
 380              		.cfi_startproc
 381              		@ args = 0, pretend = 0, frame = 0
 382              		@ frame_needed = 0, uses_anonymous_args = 0
 383              		@ link register save eliminated.
 384              	.LVL36:
 385              		.loc 1 90 0
 386 0000 8268     		ldr	r2, [r0, #8]
 387 0002 C168     		ldr	r1, [r0, #12]
 388 0004 8A42     		cmp	r2, r1
 389 0006 00DB     		blt	.L37
 390 0008 7047     		bx	lr
 391              	.L37:
 392              		.loc 1 92 0
 393              		.loc 1 91 0
ARM GAS  /tmp/ccZd7Sj2.s 			page 8


 394 000a FFF7FEBF 		b	chSemSignalI
 395              	.LVL37:
 396              		.cfi_endproc
 397              	.LFE126:
 398              		.size	gfxSemSignalI, .-gfxSemSignalI
 399 000e 00BF     		.section	.text.gfxThreadCreate,"ax",%progbits
 400              		.align	2
 401              		.p2align 4,,15
 402              		.global	gfxThreadCreate
 403              		.thumb
 404              		.thumb_func
 405              		.type	gfxThreadCreate, %function
 406              	gfxThreadCreate:
 407              	.LFB127:
 408              		.loc 1 94 0
 409              		.cfi_startproc
 410              		@ args = 4, pretend = 0, frame = 0
 411              		@ frame_needed = 0, uses_anonymous_args = 0
 412              		@ link register save eliminated.
 413              	.LVL38:
 414 0000 30B4     		push	{r4, r5}
 415              	.LCFI4:
 416              		.cfi_def_cfa_offset 8
 417              		.cfi_offset 4, -8
 418              		.cfi_offset 5, -4
 419              		.loc 1 94 0
 420 0002 029D     		ldr	r5, [sp, #8]
 421 0004 0C46     		mov	r4, r1
 422              		.loc 1 95 0
 423 0006 38B1     		cbz	r0, .L43
 424              		.loc 1 100 0
 425 0008 19B1     		cbz	r1, .L41
 426              		.loc 1 101 0
 427 000a 0295     		str	r5, [sp, #8]
 428              		.loc 1 102 0
 429 000c 30BC     		pop	{r4, r5}
 430              		.loc 1 101 0
 431 000e FFF7FEBF 		b	chThdCreateStatic
 432              	.LVL39:
 433              	.L41:
 434              		.loc 1 102 0
 435 0012 0846     		mov	r0, r1
 436              	.LVL40:
 437 0014 30BC     		pop	{r4, r5}
 438 0016 7047     		bx	lr
 439              	.LVL41:
 440              	.L43:
 441              		.loc 1 97 0
 442 0018 0029     		cmp	r1, #0
 443 001a 08BF     		it	eq
 444 001c 4FF48071 		moveq	r1, #256
 445              	.LVL42:
 446              		.loc 1 102 0
 447 0020 30BC     		pop	{r4, r5}
 448              		.loc 1 97 0
 449 0022 FFF7FEBF 		b	chThdCreateFromHeap
 450              	.LVL43:
ARM GAS  /tmp/ccZd7Sj2.s 			page 9


 451              		.cfi_endproc
 452              	.LFE127:
 453              		.size	gfxThreadCreate, .-gfxThreadCreate
 454 0026 00BFAFF3 		.text
 454      0080AFF3 
 454      0080
 455              	.Letext0:
 456              		.file 2 "/usr/bin/../lib/gcc/arm-none-eabi/4.7.4/include/stddef.h"
 457              		.file 3 "/usr/bin/../lib/gcc/arm-none-eabi/4.7.4/../../../../arm-none-eabi/include/stdint.h"
 458              		.file 4 "../../os/ports/GCC/ARMCMx/chtypes.h"
 459              		.file 5 "../../os/kernel/include/chlists.h"
 460              		.file 6 "../../os/kernel/include/chthreads.h"
 461              		.file 7 "../../os/ports/GCC/ARMCMx/chcore_v7m.h"
 462              		.file 8 "../../os/kernel/include/chschd.h"
 463              		.file 9 "../../os/kernel/include/chsem.h"
 464              		.file 10 "../../os/kernel/include/chmtx.h"
 465              		.file 11 "../../os/kernel/include/chmemcore.h"
 466              		.file 12 "../../os/kernel/include/chheap.h"
 467              		.file 13 "../../ext/ugfx/include/gos/chibios.h"
 468              		.file 14 "../../os/ports/common/ARMCMx/CMSIS/include/core_cm4.h"
 469              		.file 15 "../../os/hal/include/hal.h"
 470              		.file 16 "../../os/kernel/include/chsys.h"
 471              		.file 17 "../../os/kernel/include/chdynamic.h"
 472              		.section	.debug_info,"",%progbits
 473              	.Ldebug_info0:
 474 0000 1D0C0000 		.4byte	0xc1d
 475 0004 0200     		.2byte	0x2
 476 0006 00000000 		.4byte	.Ldebug_abbrev0
 477 000a 04       		.byte	0x4
 478 000b 01       		.uleb128 0x1
 479 000c 25020000 		.4byte	.LASF122
 480 0010 01       		.byte	0x1
 481 0011 CD010000 		.4byte	.LASF123
 482 0015 70030000 		.4byte	.LASF124
 483 0019 00000000 		.4byte	.Ldebug_ranges0+0
 484 001d 00000000 		.4byte	0
 485 0021 00000000 		.4byte	0
 486 0025 00000000 		.4byte	.Ldebug_line0
 487 0029 02       		.uleb128 0x2
 488 002a 04       		.byte	0x4
 489 002b 05       		.byte	0x5
 490 002c 696E7400 		.ascii	"int\000"
 491 0030 03       		.uleb128 0x3
 492 0031 19000000 		.4byte	.LASF2
 493 0035 02       		.byte	0x2
 494 0036 D5       		.byte	0xd5
 495 0037 3B000000 		.4byte	0x3b
 496 003b 04       		.uleb128 0x4
 497 003c 04       		.byte	0x4
 498 003d 07       		.byte	0x7
 499 003e 6C010000 		.4byte	.LASF0
 500 0042 04       		.uleb128 0x4
 501 0043 01       		.byte	0x1
 502 0044 06       		.byte	0x6
 503 0045 A8000000 		.4byte	.LASF1
 504 0049 03       		.uleb128 0x3
 505 004a EF040000 		.4byte	.LASF3
ARM GAS  /tmp/ccZd7Sj2.s 			page 10


 506 004e 03       		.byte	0x3
 507 004f 2A       		.byte	0x2a
 508 0050 54000000 		.4byte	0x54
 509 0054 04       		.uleb128 0x4
 510 0055 01       		.byte	0x1
 511 0056 08       		.byte	0x8
 512 0057 47030000 		.4byte	.LASF4
 513 005b 04       		.uleb128 0x4
 514 005c 02       		.byte	0x2
 515 005d 05       		.byte	0x5
 516 005e BD030000 		.4byte	.LASF5
 517 0062 04       		.uleb128 0x4
 518 0063 02       		.byte	0x2
 519 0064 07       		.byte	0x7
 520 0065 AF010000 		.4byte	.LASF6
 521 0069 03       		.uleb128 0x3
 522 006a 3F030000 		.4byte	.LASF7
 523 006e 03       		.byte	0x3
 524 006f 4F       		.byte	0x4f
 525 0070 74000000 		.4byte	0x74
 526 0074 04       		.uleb128 0x4
 527 0075 04       		.byte	0x4
 528 0076 05       		.byte	0x5
 529 0077 F5000000 		.4byte	.LASF8
 530 007b 03       		.uleb128 0x3
 531 007c 1B040000 		.4byte	.LASF9
 532 0080 03       		.byte	0x3
 533 0081 50       		.byte	0x50
 534 0082 86000000 		.4byte	0x86
 535 0086 04       		.uleb128 0x4
 536 0087 04       		.byte	0x4
 537 0088 07       		.byte	0x7
 538 0089 31040000 		.4byte	.LASF10
 539 008d 04       		.uleb128 0x4
 540 008e 08       		.byte	0x8
 541 008f 05       		.byte	0x5
 542 0090 9A000000 		.4byte	.LASF11
 543 0094 03       		.uleb128 0x3
 544 0095 27000000 		.4byte	.LASF12
 545 0099 03       		.byte	0x3
 546 009a 78       		.byte	0x78
 547 009b 9F000000 		.4byte	0x9f
 548 009f 04       		.uleb128 0x4
 549 00a0 08       		.byte	0x8
 550 00a1 07       		.byte	0x7
 551 00a2 3D000000 		.4byte	.LASF13
 552 00a6 03       		.uleb128 0x3
 553 00a7 CC000000 		.4byte	.LASF14
 554 00ab 04       		.byte	0x4
 555 00ac 24       		.byte	0x24
 556 00ad B1000000 		.4byte	0xb1
 557 00b1 04       		.uleb128 0x4
 558 00b2 01       		.byte	0x1
 559 00b3 02       		.byte	0x2
 560 00b4 39030000 		.4byte	.LASF15
 561 00b8 03       		.uleb128 0x3
 562 00b9 F4010000 		.4byte	.LASF16
ARM GAS  /tmp/ccZd7Sj2.s 			page 11


 563 00bd 04       		.byte	0x4
 564 00be 25       		.byte	0x25
 565 00bf 49000000 		.4byte	0x49
 566 00c3 03       		.uleb128 0x3
 567 00c4 12010000 		.4byte	.LASF17
 568 00c8 04       		.byte	0x4
 569 00c9 26       		.byte	0x26
 570 00ca 49000000 		.4byte	0x49
 571 00ce 03       		.uleb128 0x3
 572 00cf 1C030000 		.4byte	.LASF18
 573 00d3 04       		.byte	0x4
 574 00d4 27       		.byte	0x27
 575 00d5 49000000 		.4byte	0x49
 576 00d9 03       		.uleb128 0x3
 577 00da DB000000 		.4byte	.LASF19
 578 00de 04       		.byte	0x4
 579 00df 28       		.byte	0x28
 580 00e0 49000000 		.4byte	0x49
 581 00e4 03       		.uleb128 0x3
 582 00e5 31030000 		.4byte	.LASF20
 583 00e9 04       		.byte	0x4
 584 00ea 29       		.byte	0x29
 585 00eb 7B000000 		.4byte	0x7b
 586 00ef 03       		.uleb128 0x3
 587 00f0 EE010000 		.4byte	.LASF21
 588 00f4 04       		.byte	0x4
 589 00f5 2A       		.byte	0x2a
 590 00f6 69000000 		.4byte	0x69
 591 00fa 03       		.uleb128 0x3
 592 00fb 08020000 		.4byte	.LASF22
 593 00ff 04       		.byte	0x4
 594 0100 2C       		.byte	0x2c
 595 0101 7B000000 		.4byte	0x7b
 596 0105 03       		.uleb128 0x3
 597 0106 65040000 		.4byte	.LASF23
 598 010a 04       		.byte	0x4
 599 010b 2E       		.byte	0x2e
 600 010c 7B000000 		.4byte	0x7b
 601 0110 03       		.uleb128 0x3
 602 0111 66010000 		.4byte	.LASF24
 603 0115 04       		.byte	0x4
 604 0116 2F       		.byte	0x2f
 605 0117 69000000 		.4byte	0x69
 606 011b 03       		.uleb128 0x3
 607 011c F6030000 		.4byte	.LASF25
 608 0120 05       		.byte	0x5
 609 0121 23       		.byte	0x23
 610 0122 26010000 		.4byte	0x126
 611 0126 05       		.uleb128 0x5
 612 0127 F6030000 		.4byte	.LASF25
 613 012b 48       		.byte	0x48
 614 012c 06       		.byte	0x6
 615 012d 57       		.byte	0x57
 616 012e 4B020000 		.4byte	0x24b
 617 0132 06       		.uleb128 0x6
 618 0133 E7030000 		.4byte	.LASF26
 619 0137 06       		.byte	0x6
ARM GAS  /tmp/ccZd7Sj2.s 			page 12


 620 0138 58       		.byte	0x58
 621 0139 70020000 		.4byte	0x270
 622 013d 02       		.byte	0x2
 623 013e 23       		.byte	0x23
 624 013f 00       		.uleb128 0
 625 0140 06       		.uleb128 0x6
 626 0141 24030000 		.4byte	.LASF27
 627 0145 06       		.byte	0x6
 628 0146 5A       		.byte	0x5a
 629 0147 70020000 		.4byte	0x270
 630 014b 02       		.byte	0x2
 631 014c 23       		.byte	0x23
 632 014d 04       		.uleb128 0x4
 633 014e 06       		.uleb128 0x6
 634 014f 93000000 		.4byte	.LASF28
 635 0153 06       		.byte	0x6
 636 0154 5C       		.byte	0x5c
 637 0155 E4000000 		.4byte	0xe4
 638 0159 02       		.byte	0x2
 639 015a 23       		.byte	0x23
 640 015b 08       		.uleb128 0x8
 641 015c 06       		.uleb128 0x6
 642 015d 3E050000 		.4byte	.LASF29
 643 0161 06       		.byte	0x6
 644 0162 5D       		.byte	0x5d
 645 0163 39040000 		.4byte	0x439
 646 0167 02       		.byte	0x2
 647 0168 23       		.byte	0x23
 648 0169 0C       		.uleb128 0xc
 649 016a 06       		.uleb128 0x6
 650 016b 23010000 		.4byte	.LASF30
 651 016f 06       		.byte	0x6
 652 0170 5F       		.byte	0x5f
 653 0171 70020000 		.4byte	0x270
 654 0175 02       		.byte	0x2
 655 0176 23       		.byte	0x23
 656 0177 10       		.uleb128 0x10
 657 0178 06       		.uleb128 0x6
 658 0179 C0020000 		.4byte	.LASF31
 659 017d 06       		.byte	0x6
 660 017e 60       		.byte	0x60
 661 017f 70020000 		.4byte	0x270
 662 0183 02       		.byte	0x2
 663 0184 23       		.byte	0x23
 664 0185 14       		.uleb128 0x14
 665 0186 06       		.uleb128 0x6
 666 0187 29050000 		.4byte	.LASF32
 667 018b 06       		.byte	0x6
 668 018c 67       		.byte	0x67
 669 018d 53060000 		.4byte	0x653
 670 0191 02       		.byte	0x2
 671 0192 23       		.byte	0x23
 672 0193 18       		.uleb128 0x18
 673 0194 06       		.uleb128 0x6
 674 0195 C7030000 		.4byte	.LASF33
 675 0199 06       		.byte	0x6
 676 019a 72       		.byte	0x72
ARM GAS  /tmp/ccZd7Sj2.s 			page 13


 677 019b C3000000 		.4byte	0xc3
 678 019f 02       		.byte	0x2
 679 01a0 23       		.byte	0x23
 680 01a1 1C       		.uleb128 0x1c
 681 01a2 06       		.uleb128 0x6
 682 01a3 EE030000 		.4byte	.LASF34
 683 01a7 06       		.byte	0x6
 684 01a8 76       		.byte	0x76
 685 01a9 B8000000 		.4byte	0xb8
 686 01ad 02       		.byte	0x2
 687 01ae 23       		.byte	0x23
 688 01af 1D       		.uleb128 0x1d
 689 01b0 06       		.uleb128 0x6
 690 01b1 BE040000 		.4byte	.LASF35
 691 01b5 06       		.byte	0x6
 692 01b6 7B       		.byte	0x7b
 693 01b7 CE000000 		.4byte	0xce
 694 01bb 02       		.byte	0x2
 695 01bc 23       		.byte	0x23
 696 01bd 1E       		.uleb128 0x1e
 697 01be 06       		.uleb128 0x6
 698 01bf CF030000 		.4byte	.LASF36
 699 01c3 06       		.byte	0x6
 700 01c4 81       		.byte	0x81
 701 01c5 D9000000 		.4byte	0xd9
 702 01c9 02       		.byte	0x2
 703 01ca 23       		.byte	0x23
 704 01cb 1F       		.uleb128 0x1f
 705 01cc 06       		.uleb128 0x6
 706 01cd 7F010000 		.4byte	.LASF37
 707 01d1 06       		.byte	0x6
 708 01d2 88       		.byte	0x88
 709 01d3 63040000 		.4byte	0x463
 710 01d7 02       		.byte	0x2
 711 01d8 23       		.byte	0x23
 712 01d9 20       		.uleb128 0x20
 713 01da 07       		.uleb128 0x7
 714 01db 705F7500 		.ascii	"p_u\000"
 715 01df 06       		.byte	0x6
 716 01e0 AD       		.byte	0xad
 717 01e1 1E060000 		.4byte	0x61e
 718 01e5 02       		.byte	0x2
 719 01e6 23       		.byte	0x23
 720 01e7 24       		.uleb128 0x24
 721 01e8 06       		.uleb128 0x6
 722 01e9 44050000 		.4byte	.LASF38
 723 01ed 06       		.byte	0x6
 724 01ee B2       		.byte	0xb2
 725 01ef 98020000 		.4byte	0x298
 726 01f3 02       		.byte	0x2
 727 01f4 23       		.byte	0x23
 728 01f5 28       		.uleb128 0x28
 729 01f6 06       		.uleb128 0x6
 730 01f7 86010000 		.4byte	.LASF39
 731 01fb 06       		.byte	0x6
 732 01fc B8       		.byte	0xb8
 733 01fd 76020000 		.4byte	0x276
ARM GAS  /tmp/ccZd7Sj2.s 			page 14


 734 0201 02       		.byte	0x2
 735 0202 23       		.byte	0x23
 736 0203 2C       		.uleb128 0x2c
 737 0204 06       		.uleb128 0x6
 738 0205 30050000 		.4byte	.LASF40
 739 0209 06       		.byte	0x6
 740 020a BC       		.byte	0xbc
 741 020b EF000000 		.4byte	0xef
 742 020f 02       		.byte	0x2
 743 0210 23       		.byte	0x23
 744 0211 34       		.uleb128 0x34
 745 0212 06       		.uleb128 0x6
 746 0213 10040000 		.4byte	.LASF41
 747 0217 06       		.byte	0x6
 748 0218 C2       		.byte	0xc2
 749 0219 FA000000 		.4byte	0xfa
 750 021d 02       		.byte	0x2
 751 021e 23       		.byte	0x23
 752 021f 38       		.uleb128 0x38
 753 0220 06       		.uleb128 0x6
 754 0221 B3030000 		.4byte	.LASF42
 755 0225 06       		.byte	0x6
 756 0226 C9       		.byte	0xc9
 757 0227 65060000 		.4byte	0x665
 758 022b 02       		.byte	0x2
 759 022c 23       		.byte	0x23
 760 022d 3C       		.uleb128 0x3c
 761 022e 06       		.uleb128 0x6
 762 022f 6F040000 		.4byte	.LASF43
 763 0233 06       		.byte	0x6
 764 0234 CD       		.byte	0xcd
 765 0235 E4000000 		.4byte	0xe4
 766 0239 02       		.byte	0x2
 767 023a 23       		.byte	0x23
 768 023b 40       		.uleb128 0x40
 769 023c 06       		.uleb128 0x6
 770 023d C4000000 		.4byte	.LASF44
 771 0241 06       		.byte	0x6
 772 0242 D3       		.byte	0xd3
 773 0243 AE020000 		.4byte	0x2ae
 774 0247 02       		.byte	0x2
 775 0248 23       		.byte	0x23
 776 0249 44       		.uleb128 0x44
 777 024a 00       		.byte	0
 778 024b 08       		.uleb128 0x8
 779 024c 08       		.byte	0x8
 780 024d 05       		.byte	0x5
 781 024e 5A       		.byte	0x5a
 782 024f 70020000 		.4byte	0x270
 783 0253 06       		.uleb128 0x6
 784 0254 E7030000 		.4byte	.LASF26
 785 0258 05       		.byte	0x5
 786 0259 5B       		.byte	0x5b
 787 025a 70020000 		.4byte	0x270
 788 025e 02       		.byte	0x2
 789 025f 23       		.byte	0x23
 790 0260 00       		.uleb128 0
ARM GAS  /tmp/ccZd7Sj2.s 			page 15


 791 0261 06       		.uleb128 0x6
 792 0262 24030000 		.4byte	.LASF27
 793 0266 05       		.byte	0x5
 794 0267 5D       		.byte	0x5d
 795 0268 70020000 		.4byte	0x270
 796 026c 02       		.byte	0x2
 797 026d 23       		.byte	0x23
 798 026e 04       		.uleb128 0x4
 799 026f 00       		.byte	0
 800 0270 09       		.uleb128 0x9
 801 0271 04       		.byte	0x4
 802 0272 1B010000 		.4byte	0x11b
 803 0276 03       		.uleb128 0x3
 804 0277 D9020000 		.4byte	.LASF45
 805 027b 05       		.byte	0x5
 806 027c 5F       		.byte	0x5f
 807 027d 4B020000 		.4byte	0x24b
 808 0281 08       		.uleb128 0x8
 809 0282 04       		.byte	0x4
 810 0283 05       		.byte	0x5
 811 0284 64       		.byte	0x64
 812 0285 98020000 		.4byte	0x298
 813 0289 06       		.uleb128 0x6
 814 028a E7030000 		.4byte	.LASF26
 815 028e 05       		.byte	0x5
 816 028f 66       		.byte	0x66
 817 0290 70020000 		.4byte	0x270
 818 0294 02       		.byte	0x2
 819 0295 23       		.byte	0x23
 820 0296 00       		.uleb128 0
 821 0297 00       		.byte	0
 822 0298 03       		.uleb128 0x3
 823 0299 FC010000 		.4byte	.LASF46
 824 029d 05       		.byte	0x5
 825 029e 69       		.byte	0x69
 826 029f 81020000 		.4byte	0x281
 827 02a3 03       		.uleb128 0x3
 828 02a4 57010000 		.4byte	.LASF47
 829 02a8 07       		.byte	0x7
 830 02a9 DE       		.byte	0xde
 831 02aa AE020000 		.4byte	0x2ae
 832 02ae 0A       		.uleb128 0xa
 833 02af 04       		.byte	0x4
 834 02b0 03       		.uleb128 0x3
 835 02b1 6E020000 		.4byte	.LASF48
 836 02b5 07       		.byte	0x7
 837 02b6 E4       		.byte	0xe4
 838 02b7 94000000 		.4byte	0x94
 839 02bb 0B       		.uleb128 0xb
 840 02bc 9D040000 		.4byte	.LASF49
 841 02c0 64       		.byte	0x64
 842 02c1 07       		.byte	0x7
 843 02c2 0501     		.2byte	0x105
 844 02c4 39040000 		.4byte	0x439
 845 02c8 0C       		.uleb128 0xc
 846 02c9 73313600 		.ascii	"s16\000"
 847 02cd 07       		.byte	0x7
ARM GAS  /tmp/ccZd7Sj2.s 			page 16


 848 02ce 0701     		.2byte	0x107
 849 02d0 A3020000 		.4byte	0x2a3
 850 02d4 02       		.byte	0x2
 851 02d5 23       		.byte	0x23
 852 02d6 00       		.uleb128 0
 853 02d7 0C       		.uleb128 0xc
 854 02d8 73313700 		.ascii	"s17\000"
 855 02dc 07       		.byte	0x7
 856 02dd 0801     		.2byte	0x108
 857 02df A3020000 		.4byte	0x2a3
 858 02e3 02       		.byte	0x2
 859 02e4 23       		.byte	0x23
 860 02e5 04       		.uleb128 0x4
 861 02e6 0C       		.uleb128 0xc
 862 02e7 73313800 		.ascii	"s18\000"
 863 02eb 07       		.byte	0x7
 864 02ec 0901     		.2byte	0x109
 865 02ee A3020000 		.4byte	0x2a3
 866 02f2 02       		.byte	0x2
 867 02f3 23       		.byte	0x23
 868 02f4 08       		.uleb128 0x8
 869 02f5 0C       		.uleb128 0xc
 870 02f6 73313900 		.ascii	"s19\000"
 871 02fa 07       		.byte	0x7
 872 02fb 0A01     		.2byte	0x10a
 873 02fd A3020000 		.4byte	0x2a3
 874 0301 02       		.byte	0x2
 875 0302 23       		.byte	0x23
 876 0303 0C       		.uleb128 0xc
 877 0304 0C       		.uleb128 0xc
 878 0305 73323000 		.ascii	"s20\000"
 879 0309 07       		.byte	0x7
 880 030a 0B01     		.2byte	0x10b
 881 030c A3020000 		.4byte	0x2a3
 882 0310 02       		.byte	0x2
 883 0311 23       		.byte	0x23
 884 0312 10       		.uleb128 0x10
 885 0313 0C       		.uleb128 0xc
 886 0314 73323100 		.ascii	"s21\000"
 887 0318 07       		.byte	0x7
 888 0319 0C01     		.2byte	0x10c
 889 031b A3020000 		.4byte	0x2a3
 890 031f 02       		.byte	0x2
 891 0320 23       		.byte	0x23
 892 0321 14       		.uleb128 0x14
 893 0322 0C       		.uleb128 0xc
 894 0323 73323200 		.ascii	"s22\000"
 895 0327 07       		.byte	0x7
 896 0328 0D01     		.2byte	0x10d
 897 032a A3020000 		.4byte	0x2a3
 898 032e 02       		.byte	0x2
 899 032f 23       		.byte	0x23
 900 0330 18       		.uleb128 0x18
 901 0331 0C       		.uleb128 0xc
 902 0332 73323300 		.ascii	"s23\000"
 903 0336 07       		.byte	0x7
 904 0337 0E01     		.2byte	0x10e
ARM GAS  /tmp/ccZd7Sj2.s 			page 17


 905 0339 A3020000 		.4byte	0x2a3
 906 033d 02       		.byte	0x2
 907 033e 23       		.byte	0x23
 908 033f 1C       		.uleb128 0x1c
 909 0340 0C       		.uleb128 0xc
 910 0341 73323400 		.ascii	"s24\000"
 911 0345 07       		.byte	0x7
 912 0346 0F01     		.2byte	0x10f
 913 0348 A3020000 		.4byte	0x2a3
 914 034c 02       		.byte	0x2
 915 034d 23       		.byte	0x23
 916 034e 20       		.uleb128 0x20
 917 034f 0C       		.uleb128 0xc
 918 0350 73323500 		.ascii	"s25\000"
 919 0354 07       		.byte	0x7
 920 0355 1001     		.2byte	0x110
 921 0357 A3020000 		.4byte	0x2a3
 922 035b 02       		.byte	0x2
 923 035c 23       		.byte	0x23
 924 035d 24       		.uleb128 0x24
 925 035e 0C       		.uleb128 0xc
 926 035f 73323600 		.ascii	"s26\000"
 927 0363 07       		.byte	0x7
 928 0364 1101     		.2byte	0x111
 929 0366 A3020000 		.4byte	0x2a3
 930 036a 02       		.byte	0x2
 931 036b 23       		.byte	0x23
 932 036c 28       		.uleb128 0x28
 933 036d 0C       		.uleb128 0xc
 934 036e 73323700 		.ascii	"s27\000"
 935 0372 07       		.byte	0x7
 936 0373 1201     		.2byte	0x112
 937 0375 A3020000 		.4byte	0x2a3
 938 0379 02       		.byte	0x2
 939 037a 23       		.byte	0x23
 940 037b 2C       		.uleb128 0x2c
 941 037c 0C       		.uleb128 0xc
 942 037d 73323800 		.ascii	"s28\000"
 943 0381 07       		.byte	0x7
 944 0382 1301     		.2byte	0x113
 945 0384 A3020000 		.4byte	0x2a3
 946 0388 02       		.byte	0x2
 947 0389 23       		.byte	0x23
 948 038a 30       		.uleb128 0x30
 949 038b 0C       		.uleb128 0xc
 950 038c 73323900 		.ascii	"s29\000"
 951 0390 07       		.byte	0x7
 952 0391 1401     		.2byte	0x114
 953 0393 A3020000 		.4byte	0x2a3
 954 0397 02       		.byte	0x2
 955 0398 23       		.byte	0x23
 956 0399 34       		.uleb128 0x34
 957 039a 0C       		.uleb128 0xc
 958 039b 73333000 		.ascii	"s30\000"
 959 039f 07       		.byte	0x7
 960 03a0 1501     		.2byte	0x115
 961 03a2 A3020000 		.4byte	0x2a3
ARM GAS  /tmp/ccZd7Sj2.s 			page 18


 962 03a6 02       		.byte	0x2
 963 03a7 23       		.byte	0x23
 964 03a8 38       		.uleb128 0x38
 965 03a9 0C       		.uleb128 0xc
 966 03aa 73333100 		.ascii	"s31\000"
 967 03ae 07       		.byte	0x7
 968 03af 1601     		.2byte	0x116
 969 03b1 A3020000 		.4byte	0x2a3
 970 03b5 02       		.byte	0x2
 971 03b6 23       		.byte	0x23
 972 03b7 3C       		.uleb128 0x3c
 973 03b8 0C       		.uleb128 0xc
 974 03b9 723400   		.ascii	"r4\000"
 975 03bc 07       		.byte	0x7
 976 03bd 1801     		.2byte	0x118
 977 03bf A3020000 		.4byte	0x2a3
 978 03c3 02       		.byte	0x2
 979 03c4 23       		.byte	0x23
 980 03c5 40       		.uleb128 0x40
 981 03c6 0C       		.uleb128 0xc
 982 03c7 723500   		.ascii	"r5\000"
 983 03ca 07       		.byte	0x7
 984 03cb 1901     		.2byte	0x119
 985 03cd A3020000 		.4byte	0x2a3
 986 03d1 02       		.byte	0x2
 987 03d2 23       		.byte	0x23
 988 03d3 44       		.uleb128 0x44
 989 03d4 0C       		.uleb128 0xc
 990 03d5 723600   		.ascii	"r6\000"
 991 03d8 07       		.byte	0x7
 992 03d9 1A01     		.2byte	0x11a
 993 03db A3020000 		.4byte	0x2a3
 994 03df 02       		.byte	0x2
 995 03e0 23       		.byte	0x23
 996 03e1 48       		.uleb128 0x48
 997 03e2 0C       		.uleb128 0xc
 998 03e3 723700   		.ascii	"r7\000"
 999 03e6 07       		.byte	0x7
 1000 03e7 1B01     		.2byte	0x11b
 1001 03e9 A3020000 		.4byte	0x2a3
 1002 03ed 02       		.byte	0x2
 1003 03ee 23       		.byte	0x23
 1004 03ef 4C       		.uleb128 0x4c
 1005 03f0 0C       		.uleb128 0xc
 1006 03f1 723800   		.ascii	"r8\000"
 1007 03f4 07       		.byte	0x7
 1008 03f5 1C01     		.2byte	0x11c
 1009 03f7 A3020000 		.4byte	0x2a3
 1010 03fb 02       		.byte	0x2
 1011 03fc 23       		.byte	0x23
 1012 03fd 50       		.uleb128 0x50
 1013 03fe 0C       		.uleb128 0xc
 1014 03ff 723900   		.ascii	"r9\000"
 1015 0402 07       		.byte	0x7
 1016 0403 1D01     		.2byte	0x11d
 1017 0405 A3020000 		.4byte	0x2a3
 1018 0409 02       		.byte	0x2
ARM GAS  /tmp/ccZd7Sj2.s 			page 19


 1019 040a 23       		.byte	0x23
 1020 040b 54       		.uleb128 0x54
 1021 040c 0C       		.uleb128 0xc
 1022 040d 72313000 		.ascii	"r10\000"
 1023 0411 07       		.byte	0x7
 1024 0412 1E01     		.2byte	0x11e
 1025 0414 A3020000 		.4byte	0x2a3
 1026 0418 02       		.byte	0x2
 1027 0419 23       		.byte	0x23
 1028 041a 58       		.uleb128 0x58
 1029 041b 0C       		.uleb128 0xc
 1030 041c 72313100 		.ascii	"r11\000"
 1031 0420 07       		.byte	0x7
 1032 0421 1F01     		.2byte	0x11f
 1033 0423 A3020000 		.4byte	0x2a3
 1034 0427 02       		.byte	0x2
 1035 0428 23       		.byte	0x23
 1036 0429 5C       		.uleb128 0x5c
 1037 042a 0C       		.uleb128 0xc
 1038 042b 6C7200   		.ascii	"lr\000"
 1039 042e 07       		.byte	0x7
 1040 042f 2001     		.2byte	0x120
 1041 0431 A3020000 		.4byte	0x2a3
 1042 0435 02       		.byte	0x2
 1043 0436 23       		.byte	0x23
 1044 0437 60       		.uleb128 0x60
 1045 0438 00       		.byte	0
 1046 0439 0B       		.uleb128 0xb
 1047 043a 8B040000 		.4byte	.LASF50
 1048 043e 04       		.byte	0x4
 1049 043f 07       		.byte	0x7
 1050 0440 2A01     		.2byte	0x12a
 1051 0442 56040000 		.4byte	0x456
 1052 0446 0C       		.uleb128 0xc
 1053 0447 72313300 		.ascii	"r13\000"
 1054 044b 07       		.byte	0x7
 1055 044c 2B01     		.2byte	0x12b
 1056 044e 56040000 		.4byte	0x456
 1057 0452 02       		.byte	0x2
 1058 0453 23       		.byte	0x23
 1059 0454 00       		.uleb128 0
 1060 0455 00       		.byte	0
 1061 0456 09       		.uleb128 0x9
 1062 0457 04       		.byte	0x4
 1063 0458 BB020000 		.4byte	0x2bb
 1064 045c 04       		.uleb128 0x4
 1065 045d 04       		.byte	0x4
 1066 045e 07       		.byte	0x7
 1067 045f AB020000 		.4byte	.LASF51
 1068 0463 0D       		.uleb128 0xd
 1069 0464 05010000 		.4byte	0x105
 1070 0468 08       		.uleb128 0x8
 1071 0469 1C       		.byte	0x1c
 1072 046a 08       		.byte	0x8
 1073 046b 57       		.byte	0x57
 1074 046c C5040000 		.4byte	0x4c5
 1075 0470 06       		.uleb128 0x6
ARM GAS  /tmp/ccZd7Sj2.s 			page 20


 1076 0471 24040000 		.4byte	.LASF52
 1077 0475 08       		.byte	0x8
 1078 0476 58       		.byte	0x58
 1079 0477 76020000 		.4byte	0x276
 1080 047b 02       		.byte	0x2
 1081 047c 23       		.byte	0x23
 1082 047d 00       		.uleb128 0
 1083 047e 06       		.uleb128 0x6
 1084 047f D9030000 		.4byte	.LASF53
 1085 0483 08       		.byte	0x8
 1086 0484 59       		.byte	0x59
 1087 0485 E4000000 		.4byte	0xe4
 1088 0489 02       		.byte	0x2
 1089 048a 23       		.byte	0x23
 1090 048b 08       		.uleb128 0x8
 1091 048c 06       		.uleb128 0x6
 1092 048d C8020000 		.4byte	.LASF54
 1093 0491 08       		.byte	0x8
 1094 0492 5B       		.byte	0x5b
 1095 0493 39040000 		.4byte	0x439
 1096 0497 02       		.byte	0x2
 1097 0498 23       		.byte	0x23
 1098 0499 0C       		.uleb128 0xc
 1099 049a 06       		.uleb128 0x6
 1100 049b 4F010000 		.4byte	.LASF55
 1101 049f 08       		.byte	0x8
 1102 04a0 5E       		.byte	0x5e
 1103 04a1 70020000 		.4byte	0x270
 1104 04a5 02       		.byte	0x2
 1105 04a6 23       		.byte	0x23
 1106 04a7 10       		.uleb128 0x10
 1107 04a8 06       		.uleb128 0x6
 1108 04a9 FB020000 		.4byte	.LASF56
 1109 04ad 08       		.byte	0x8
 1110 04ae 5F       		.byte	0x5f
 1111 04af 70020000 		.4byte	0x270
 1112 04b3 02       		.byte	0x2
 1113 04b4 23       		.byte	0x23
 1114 04b5 14       		.uleb128 0x14
 1115 04b6 06       		.uleb128 0x6
 1116 04b7 43040000 		.4byte	.LASF57
 1117 04bb 08       		.byte	0x8
 1118 04bc 62       		.byte	0x62
 1119 04bd 70020000 		.4byte	0x270
 1120 04c1 02       		.byte	0x2
 1121 04c2 23       		.byte	0x23
 1122 04c3 18       		.uleb128 0x18
 1123 04c4 00       		.byte	0
 1124 04c5 03       		.uleb128 0x3
 1125 04c6 DF040000 		.4byte	.LASF58
 1126 04ca 08       		.byte	0x8
 1127 04cb 64       		.byte	0x64
 1128 04cc 68040000 		.4byte	0x468
 1129 04d0 05       		.uleb128 0x5
 1130 04d1 A4040000 		.4byte	.LASF59
 1131 04d5 0C       		.byte	0xc
 1132 04d6 09       		.byte	0x9
ARM GAS  /tmp/ccZd7Sj2.s 			page 21


 1133 04d7 25       		.byte	0x25
 1134 04d8 F9040000 		.4byte	0x4f9
 1135 04dc 06       		.uleb128 0x6
 1136 04dd 2B010000 		.4byte	.LASF60
 1137 04e1 09       		.byte	0x9
 1138 04e2 26       		.byte	0x26
 1139 04e3 76020000 		.4byte	0x276
 1140 04e7 02       		.byte	0x2
 1141 04e8 23       		.byte	0x23
 1142 04e9 00       		.uleb128 0
 1143 04ea 06       		.uleb128 0x6
 1144 04eb A4010000 		.4byte	.LASF61
 1145 04ef 09       		.byte	0x9
 1146 04f0 28       		.byte	0x28
 1147 04f1 10010000 		.4byte	0x110
 1148 04f5 02       		.byte	0x2
 1149 04f6 23       		.byte	0x23
 1150 04f7 08       		.uleb128 0x8
 1151 04f8 00       		.byte	0
 1152 04f9 03       		.uleb128 0x3
 1153 04fa A4040000 		.4byte	.LASF59
 1154 04fe 09       		.byte	0x9
 1155 04ff 29       		.byte	0x29
 1156 0500 D0040000 		.4byte	0x4d0
 1157 0504 05       		.uleb128 0x5
 1158 0505 B4020000 		.4byte	.LASF62
 1159 0509 10       		.byte	0x10
 1160 050a 0A       		.byte	0xa
 1161 050b 25       		.byte	0x25
 1162 050c 3B050000 		.4byte	0x53b
 1163 0510 06       		.uleb128 0x6
 1164 0511 D3000000 		.4byte	.LASF63
 1165 0515 0A       		.byte	0xa
 1166 0516 26       		.byte	0x26
 1167 0517 76020000 		.4byte	0x276
 1168 051b 02       		.byte	0x2
 1169 051c 23       		.byte	0x23
 1170 051d 00       		.uleb128 0
 1171 051e 06       		.uleb128 0x6
 1172 051f 36050000 		.4byte	.LASF64
 1173 0523 0A       		.byte	0xa
 1174 0524 28       		.byte	0x28
 1175 0525 70020000 		.4byte	0x270
 1176 0529 02       		.byte	0x2
 1177 052a 23       		.byte	0x23
 1178 052b 08       		.uleb128 0x8
 1179 052c 06       		.uleb128 0x6
 1180 052d 5E040000 		.4byte	.LASF65
 1181 0531 0A       		.byte	0xa
 1182 0532 2A       		.byte	0x2a
 1183 0533 3B050000 		.4byte	0x53b
 1184 0537 02       		.byte	0x2
 1185 0538 23       		.byte	0x23
 1186 0539 0C       		.uleb128 0xc
 1187 053a 00       		.byte	0
 1188 053b 09       		.uleb128 0x9
 1189 053c 04       		.byte	0x4
ARM GAS  /tmp/ccZd7Sj2.s 			page 22


 1190 053d 04050000 		.4byte	0x504
 1191 0541 03       		.uleb128 0x3
 1192 0542 B4020000 		.4byte	.LASF62
 1193 0546 0A       		.byte	0xa
 1194 0547 2C       		.byte	0x2c
 1195 0548 04050000 		.4byte	0x504
 1196 054c 03       		.uleb128 0x3
 1197 054d 30000000 		.4byte	.LASF66
 1198 0551 0B       		.byte	0xb
 1199 0552 25       		.byte	0x25
 1200 0553 57050000 		.4byte	0x557
 1201 0557 09       		.uleb128 0x9
 1202 0558 04       		.byte	0x4
 1203 0559 5D050000 		.4byte	0x55d
 1204 055d 0E       		.uleb128 0xe
 1205 055e 01       		.byte	0x1
 1206 055f AE020000 		.4byte	0x2ae
 1207 0563 6D050000 		.4byte	0x56d
 1208 0567 0F       		.uleb128 0xf
 1209 0568 30000000 		.4byte	0x30
 1210 056c 00       		.byte	0
 1211 056d 03       		.uleb128 0x3
 1212 056e 03030000 		.4byte	.LASF67
 1213 0572 0C       		.byte	0xc
 1214 0573 2D       		.byte	0x2d
 1215 0574 78050000 		.4byte	0x578
 1216 0578 05       		.uleb128 0x5
 1217 0579 58050000 		.4byte	.LASF68
 1218 057d 20       		.byte	0x20
 1219 057e 0C       		.byte	0xc
 1220 057f 40       		.byte	0x40
 1221 0580 AF050000 		.4byte	0x5af
 1222 0584 06       		.uleb128 0x6
 1223 0585 0C050000 		.4byte	.LASF69
 1224 0589 0C       		.byte	0xc
 1225 058a 41       		.byte	0x41
 1226 058b 4C050000 		.4byte	0x54c
 1227 058f 02       		.byte	0x2
 1228 0590 23       		.byte	0x23
 1229 0591 00       		.uleb128 0
 1230 0592 06       		.uleb128 0x6
 1231 0593 66000000 		.4byte	.LASF70
 1232 0597 0C       		.byte	0xc
 1233 0598 43       		.byte	0x43
 1234 0599 CE050000 		.4byte	0x5ce
 1235 059d 02       		.byte	0x2
 1236 059e 23       		.byte	0x23
 1237 059f 08       		.uleb128 0x8
 1238 05a0 06       		.uleb128 0x6
 1239 05a1 B4000000 		.4byte	.LASF71
 1240 05a5 0C       		.byte	0xc
 1241 05a6 45       		.byte	0x45
 1242 05a7 41050000 		.4byte	0x541
 1243 05ab 02       		.byte	0x2
 1244 05ac 23       		.byte	0x23
 1245 05ad 10       		.uleb128 0x10
 1246 05ae 00       		.byte	0
ARM GAS  /tmp/ccZd7Sj2.s 			page 23


 1247 05af 10       		.uleb128 0x10
 1248 05b0 04       		.byte	0x4
 1249 05b1 0C       		.byte	0xc
 1250 05b2 35       		.byte	0x35
 1251 05b3 CE050000 		.4byte	0x5ce
 1252 05b7 11       		.uleb128 0x11
 1253 05b8 8E000000 		.4byte	.LASF72
 1254 05bc 0C       		.byte	0xc
 1255 05bd 36       		.byte	0x36
 1256 05be EF050000 		.4byte	0x5ef
 1257 05c2 11       		.uleb128 0x11
 1258 05c3 2C040000 		.4byte	.LASF73
 1259 05c7 0C       		.byte	0xc
 1260 05c8 37       		.byte	0x37
 1261 05c9 F5050000 		.4byte	0x5f5
 1262 05cd 00       		.byte	0
 1263 05ce 12       		.uleb128 0x12
 1264 05cf 55030000 		.4byte	.LASF125
 1265 05d3 08       		.byte	0x8
 1266 05d4 0C       		.byte	0xc
 1267 05d5 32       		.byte	0x32
 1268 05d6 EF050000 		.4byte	0x5ef
 1269 05da 11       		.uleb128 0x11
 1270 05db 60010000 		.4byte	.LASF74
 1271 05df 0C       		.byte	0xc
 1272 05e0 33       		.byte	0x33
 1273 05e1 B0020000 		.4byte	0x2b0
 1274 05e5 13       		.uleb128 0x13
 1275 05e6 6800     		.ascii	"h\000"
 1276 05e8 0C       		.byte	0xc
 1277 05e9 3A       		.byte	0x3a
 1278 05ea FB050000 		.4byte	0x5fb
 1279 05ee 00       		.byte	0
 1280 05ef 09       		.uleb128 0x9
 1281 05f0 04       		.byte	0x4
 1282 05f1 CE050000 		.4byte	0x5ce
 1283 05f5 09       		.uleb128 0x9
 1284 05f6 04       		.byte	0x4
 1285 05f7 6D050000 		.4byte	0x56d
 1286 05fb 08       		.uleb128 0x8
 1287 05fc 08       		.byte	0x8
 1288 05fd 0C       		.byte	0xc
 1289 05fe 34       		.byte	0x34
 1290 05ff 1E060000 		.4byte	0x61e
 1291 0603 07       		.uleb128 0x7
 1292 0604 7500     		.ascii	"u\000"
 1293 0606 0C       		.byte	0xc
 1294 0607 38       		.byte	0x38
 1295 0608 AF050000 		.4byte	0x5af
 1296 060c 02       		.byte	0x2
 1297 060d 23       		.byte	0x23
 1298 060e 00       		.uleb128 0
 1299 060f 06       		.uleb128 0x6
 1300 0610 AA010000 		.4byte	.LASF75
 1301 0614 0C       		.byte	0xc
 1302 0615 39       		.byte	0x39
 1303 0616 30000000 		.4byte	0x30
ARM GAS  /tmp/ccZd7Sj2.s 			page 24


 1304 061a 02       		.byte	0x2
 1305 061b 23       		.byte	0x23
 1306 061c 04       		.uleb128 0x4
 1307 061d 00       		.byte	0
 1308 061e 10       		.uleb128 0x10
 1309 061f 04       		.byte	0x4
 1310 0620 06       		.byte	0x6
 1311 0621 8F       		.byte	0x8f
 1312 0622 53060000 		.4byte	0x653
 1313 0626 11       		.uleb128 0x11
 1314 0627 20000000 		.4byte	.LASF76
 1315 062b 06       		.byte	0x6
 1316 062c 96       		.byte	0x96
 1317 062d EF000000 		.4byte	0xef
 1318 0631 11       		.uleb128 0x11
 1319 0632 5D000000 		.4byte	.LASF77
 1320 0636 06       		.byte	0x6
 1321 0637 9D       		.byte	0x9d
 1322 0638 EF000000 		.4byte	0xef
 1323 063c 11       		.uleb128 0x11
 1324 063d 22050000 		.4byte	.LASF78
 1325 0641 06       		.byte	0x6
 1326 0642 A4       		.byte	0xa4
 1327 0643 AE020000 		.4byte	0x2ae
 1328 0647 11       		.uleb128 0x11
 1329 0648 E0030000 		.4byte	.LASF79
 1330 064c 06       		.byte	0x6
 1331 064d AB       		.byte	0xab
 1332 064e FA000000 		.4byte	0xfa
 1333 0652 00       		.byte	0
 1334 0653 09       		.uleb128 0x9
 1335 0654 04       		.byte	0x4
 1336 0655 59060000 		.4byte	0x659
 1337 0659 14       		.uleb128 0x14
 1338 065a 5E060000 		.4byte	0x65e
 1339 065e 04       		.uleb128 0x4
 1340 065f 01       		.byte	0x1
 1341 0660 08       		.byte	0x8
 1342 0661 4D040000 		.4byte	.LASF80
 1343 0665 09       		.uleb128 0x9
 1344 0666 04       		.byte	0x4
 1345 0667 41050000 		.4byte	0x541
 1346 066b 03       		.uleb128 0x3
 1347 066c 00000000 		.4byte	.LASF81
 1348 0670 06       		.byte	0x6
 1349 0671 DE       		.byte	0xde
 1350 0672 76060000 		.4byte	0x676
 1351 0676 09       		.uleb128 0x9
 1352 0677 04       		.byte	0x4
 1353 0678 7C060000 		.4byte	0x67c
 1354 067c 0E       		.uleb128 0xe
 1355 067d 01       		.byte	0x1
 1356 067e EF000000 		.4byte	0xef
 1357 0682 8C060000 		.4byte	0x68c
 1358 0686 0F       		.uleb128 0xf
 1359 0687 AE020000 		.4byte	0x2ae
 1360 068b 00       		.byte	0
ARM GAS  /tmp/ccZd7Sj2.s 			page 25


 1361 068c 0D       		.uleb128 0xd
 1362 068d 69000000 		.4byte	0x69
 1363 0691 03       		.uleb128 0x3
 1364 0692 52040000 		.4byte	.LASF82
 1365 0696 0D       		.byte	0xd
 1366 0697 24       		.byte	0x24
 1367 0698 05010000 		.4byte	0x105
 1368 069c 03       		.uleb128 0x3
 1369 069d CE020000 		.4byte	.LASF83
 1370 06a1 0D       		.byte	0xd
 1371 06a2 26       		.byte	0x26
 1372 06a3 10010000 		.4byte	0x110
 1373 06a7 03       		.uleb128 0x3
 1374 06a8 61030000 		.4byte	.LASF84
 1375 06ac 0D       		.byte	0xd
 1376 06ad 27       		.byte	0x27
 1377 06ae EF000000 		.4byte	0xef
 1378 06b2 03       		.uleb128 0x3
 1379 06b3 08000000 		.4byte	.LASF85
 1380 06b7 0D       		.byte	0xd
 1381 06b8 28       		.byte	0x28
 1382 06b9 E4000000 		.4byte	0xe4
 1383 06bd 08       		.uleb128 0x8
 1384 06be 10       		.byte	0x10
 1385 06bf 0D       		.byte	0xd
 1386 06c0 32       		.byte	0x32
 1387 06c1 E2060000 		.4byte	0x6e2
 1388 06c5 07       		.uleb128 0x7
 1389 06c6 73656D00 		.ascii	"sem\000"
 1390 06ca 0D       		.byte	0xd
 1391 06cb 33       		.byte	0x33
 1392 06cc F9040000 		.4byte	0x4f9
 1393 06d0 02       		.byte	0x2
 1394 06d1 23       		.byte	0x23
 1395 06d2 00       		.uleb128 0
 1396 06d3 06       		.uleb128 0x6
 1397 06d4 6D000000 		.4byte	.LASF86
 1398 06d8 0D       		.byte	0xd
 1399 06d9 34       		.byte	0x34
 1400 06da 9C060000 		.4byte	0x69c
 1401 06de 02       		.byte	0x2
 1402 06df 23       		.byte	0x23
 1403 06e0 0C       		.uleb128 0xc
 1404 06e1 00       		.byte	0
 1405 06e2 03       		.uleb128 0x3
 1406 06e3 09040000 		.4byte	.LASF87
 1407 06e7 0D       		.byte	0xd
 1408 06e8 35       		.byte	0x35
 1409 06e9 BD060000 		.4byte	0x6bd
 1410 06ed 03       		.uleb128 0x3
 1411 06ee E5000000 		.4byte	.LASF88
 1412 06f2 0D       		.byte	0xd
 1413 06f3 38       		.byte	0x38
 1414 06f4 70020000 		.4byte	0x270
 1415 06f8 09       		.uleb128 0x9
 1416 06f9 04       		.byte	0x4
 1417 06fa FE060000 		.4byte	0x6fe
ARM GAS  /tmp/ccZd7Sj2.s 			page 26


 1418 06fe 15       		.uleb128 0x15
 1419 06ff 16       		.uleb128 0x16
 1420 0700 01       		.byte	0x1
 1421 0701 54000000 		.4byte	.LASF91
 1422 0705 01       		.byte	0x1
 1423 0706 1A       		.byte	0x1a
 1424 0707 01       		.byte	0x1
 1425 0708 00000000 		.4byte	.LFB118
 1426 070c 1C000000 		.4byte	.LFE118
 1427 0710 00000000 		.4byte	.LLST0
 1428 0714 01       		.byte	0x1
 1429 0715 2D070000 		.4byte	0x72d
 1430 0719 17       		.uleb128 0x17
 1431 071a 0E000000 		.4byte	.LVL0
 1432 071e CE0A0000 		.4byte	0xace
 1433 0722 18       		.uleb128 0x18
 1434 0723 16000000 		.4byte	.LVL1
 1435 0727 01       		.byte	0x1
 1436 0728 D80A0000 		.4byte	0xad8
 1437 072c 00       		.byte	0
 1438 072d 19       		.uleb128 0x19
 1439 072e 01       		.byte	0x1
 1440 072f 99010000 		.4byte	.LASF97
 1441 0733 01       		.byte	0x1
 1442 0734 22       		.byte	0x22
 1443 0735 01       		.byte	0x1
 1444 0736 AE020000 		.4byte	0x2ae
 1445 073a 00000000 		.4byte	.LFB119
 1446 073e 30000000 		.4byte	.LFE119
 1447 0742 20000000 		.4byte	.LLST1
 1448 0746 01       		.byte	0x1
 1449 0747 B8070000 		.4byte	0x7b8
 1450 074b 1A       		.uleb128 0x1a
 1451 074c 70747200 		.ascii	"ptr\000"
 1452 0750 01       		.byte	0x1
 1453 0751 22       		.byte	0x22
 1454 0752 AE020000 		.4byte	0x2ae
 1455 0756 40000000 		.4byte	.LLST2
 1456 075a 1B       		.uleb128 0x1b
 1457 075b 2B030000 		.4byte	.LASF89
 1458 075f 01       		.byte	0x1
 1459 0760 22       		.byte	0x22
 1460 0761 30000000 		.4byte	0x30
 1461 0765 85000000 		.4byte	.LLST3
 1462 0769 1B       		.uleb128 0x1b
 1463 076a 79010000 		.4byte	.LASF90
 1464 076e 01       		.byte	0x1
 1465 076f 22       		.byte	0x22
 1466 0770 30000000 		.4byte	0x30
 1467 0774 A3000000 		.4byte	.LLST4
 1468 0778 1C       		.uleb128 0x1c
 1469 0779 6E7000   		.ascii	"np\000"
 1470 077c 01       		.byte	0x1
 1471 077d 23       		.byte	0x23
 1472 077e AE020000 		.4byte	0x2ae
 1473 0782 C4000000 		.4byte	.LLST5
 1474 0786 1D       		.uleb128 0x1d
ARM GAS  /tmp/ccZd7Sj2.s 			page 27


 1475 0787 16000000 		.4byte	.LVL4
 1476 078b E20A0000 		.4byte	0xae2
 1477 078f A0070000 		.4byte	0x7a0
 1478 0793 1E       		.uleb128 0x1e
 1479 0794 01       		.byte	0x1
 1480 0795 51       		.byte	0x51
 1481 0796 03       		.byte	0x3
 1482 0797 F3       		.byte	0xf3
 1483 0798 01       		.uleb128 0x1
 1484 0799 52       		.byte	0x52
 1485 079a 1E       		.uleb128 0x1e
 1486 079b 01       		.byte	0x1
 1487 079c 50       		.byte	0x50
 1488 079d 01       		.byte	0x1
 1489 079e 30       		.byte	0x30
 1490 079f 00       		.byte	0
 1491 07a0 1F       		.uleb128 0x1f
 1492 07a1 2C000000 		.4byte	.LVL9
 1493 07a5 FF0A0000 		.4byte	0xaff
 1494 07a9 1E       		.uleb128 0x1e
 1495 07aa 01       		.byte	0x1
 1496 07ab 52       		.byte	0x52
 1497 07ac 02       		.byte	0x2
 1498 07ad 75       		.byte	0x75
 1499 07ae 00       		.sleb128 0
 1500 07af 1E       		.uleb128 0x1e
 1501 07b0 01       		.byte	0x1
 1502 07b1 51       		.byte	0x51
 1503 07b2 03       		.byte	0x3
 1504 07b3 F3       		.byte	0xf3
 1505 07b4 01       		.uleb128 0x1
 1506 07b5 50       		.byte	0x50
 1507 07b6 00       		.byte	0
 1508 07b7 00       		.byte	0
 1509 07b8 20       		.uleb128 0x20
 1510 07b9 01       		.byte	0x1
 1511 07ba F7040000 		.4byte	.LASF92
 1512 07be 01       		.byte	0x1
 1513 07bf 32       		.byte	0x32
 1514 07c0 01       		.byte	0x1
 1515 07c1 00000000 		.4byte	.LFB120
 1516 07c5 2A000000 		.4byte	.LFE120
 1517 07c9 02       		.byte	0x2
 1518 07ca 7D       		.byte	0x7d
 1519 07cb 00       		.sleb128 0
 1520 07cc 01       		.byte	0x1
 1521 07cd F4070000 		.4byte	0x7f4
 1522 07d1 1A       		.uleb128 0x1a
 1523 07d2 6D7300   		.ascii	"ms\000"
 1524 07d5 01       		.byte	0x1
 1525 07d6 32       		.byte	0x32
 1526 07d7 91060000 		.4byte	0x691
 1527 07db F8000000 		.4byte	.LLST6
 1528 07df 18       		.uleb128 0x18
 1529 07e0 08000000 		.4byte	.LVL11
 1530 07e4 01       		.byte	0x1
 1531 07e5 200B0000 		.4byte	0xb20
ARM GAS  /tmp/ccZd7Sj2.s 			page 28


 1532 07e9 18       		.uleb128 0x18
 1533 07ea 2A000000 		.4byte	.LVL13
 1534 07ee 01       		.byte	0x1
 1535 07ef 2B0B0000 		.4byte	0xb2b
 1536 07f3 00       		.byte	0
 1537 07f4 20       		.uleb128 0x20
 1538 07f5 01       		.byte	0x1
 1539 07f6 96020000 		.4byte	.LASF93
 1540 07fa 01       		.byte	0x1
 1541 07fb 3A       		.byte	0x3a
 1542 07fc 01       		.byte	0x1
 1543 07fd 00000000 		.4byte	.LFB121
 1544 0801 28000000 		.4byte	.LFE121
 1545 0805 02       		.byte	0x2
 1546 0806 7D       		.byte	0x7d
 1547 0807 00       		.sleb128 0
 1548 0808 01       		.byte	0x1
 1549 0809 26080000 		.4byte	0x826
 1550 080d 1A       		.uleb128 0x1a
 1551 080e 6D7300   		.ascii	"ms\000"
 1552 0811 01       		.byte	0x1
 1553 0812 3A       		.byte	0x3a
 1554 0813 91060000 		.4byte	0x691
 1555 0817 32010000 		.4byte	.LLST7
 1556 081b 18       		.uleb128 0x18
 1557 081c 28000000 		.4byte	.LVL17
 1558 0820 01       		.byte	0x1
 1559 0821 2B0B0000 		.4byte	0xb2b
 1560 0825 00       		.byte	0
 1561 0826 20       		.uleb128 0x20
 1562 0827 01       		.byte	0x1
 1563 0828 79020000 		.4byte	.LASF94
 1564 082c 01       		.byte	0x1
 1565 082d 41       		.byte	0x41
 1566 082e 01       		.byte	0x1
 1567 082f 00000000 		.4byte	.LFB122
 1568 0833 0C000000 		.4byte	.LFE122
 1569 0837 02       		.byte	0x2
 1570 0838 7D       		.byte	0x7d
 1571 0839 00       		.sleb128 0
 1572 083a 01       		.byte	0x1
 1573 083b 92080000 		.4byte	0x892
 1574 083f 1B       		.uleb128 0x1b
 1575 0840 AE040000 		.4byte	.LASF95
 1576 0844 01       		.byte	0x1
 1577 0845 41       		.byte	0x41
 1578 0846 92080000 		.4byte	0x892
 1579 084a 60010000 		.4byte	.LLST8
 1580 084e 1A       		.uleb128 0x1a
 1581 084f 76616C00 		.ascii	"val\000"
 1582 0853 01       		.byte	0x1
 1583 0854 41       		.byte	0x41
 1584 0855 9C060000 		.4byte	0x69c
 1585 0859 81010000 		.4byte	.LLST9
 1586 085d 1B       		.uleb128 0x1b
 1587 085e 6D000000 		.4byte	.LASF86
 1588 0862 01       		.byte	0x1
ARM GAS  /tmp/ccZd7Sj2.s 			page 29


 1589 0863 41       		.byte	0x41
 1590 0864 9C060000 		.4byte	0x69c
 1591 0868 D1010000 		.4byte	.LLST10
 1592 086c 21       		.uleb128 0x21
 1593 086d 0C000000 		.4byte	.LVL20
 1594 0871 01       		.byte	0x1
 1595 0872 400B0000 		.4byte	0xb40
 1596 0876 1E       		.uleb128 0x1e
 1597 0877 01       		.byte	0x1
 1598 0878 51       		.byte	0x51
 1599 0879 0F       		.byte	0xf
 1600 087a F3       		.byte	0xf3
 1601 087b 01       		.uleb128 0x1
 1602 087c 52       		.byte	0x52
 1603 087d 12       		.byte	0x12
 1604 087e F3       		.byte	0xf3
 1605 087f 01       		.uleb128 0x1
 1606 0880 51       		.byte	0x51
 1607 0881 16       		.byte	0x16
 1608 0882 14       		.byte	0x14
 1609 0883 2D       		.byte	0x2d
 1610 0884 28       		.byte	0x28
 1611 0885 0100     		.2byte	0x1
 1612 0887 16       		.byte	0x16
 1613 0888 13       		.byte	0x13
 1614 0889 1E       		.uleb128 0x1e
 1615 088a 01       		.byte	0x1
 1616 088b 50       		.byte	0x50
 1617 088c 03       		.byte	0x3
 1618 088d F3       		.byte	0xf3
 1619 088e 01       		.uleb128 0x1
 1620 088f 50       		.byte	0x50
 1621 0890 00       		.byte	0
 1622 0891 00       		.byte	0
 1623 0892 09       		.uleb128 0x9
 1624 0893 04       		.byte	0x4
 1625 0894 E2060000 		.4byte	0x6e2
 1626 0898 20       		.uleb128 0x20
 1627 0899 01       		.byte	0x1
 1628 089a 0E030000 		.4byte	.LASF96
 1629 089e 01       		.byte	0x1
 1630 089f 46       		.byte	0x46
 1631 08a0 01       		.byte	0x1
 1632 08a1 00000000 		.4byte	.LFB123
 1633 08a5 06000000 		.4byte	.LFE123
 1634 08a9 02       		.byte	0x2
 1635 08aa 7D       		.byte	0x7d
 1636 08ab 00       		.sleb128 0
 1637 08ac 01       		.byte	0x1
 1638 08ad D8080000 		.4byte	0x8d8
 1639 08b1 1B       		.uleb128 0x1b
 1640 08b2 AE040000 		.4byte	.LASF95
 1641 08b6 01       		.byte	0x1
 1642 08b7 46       		.byte	0x46
 1643 08b8 92080000 		.4byte	0x892
 1644 08bc F2010000 		.4byte	.LLST11
 1645 08c0 21       		.uleb128 0x21
ARM GAS  /tmp/ccZd7Sj2.s 			page 30


 1646 08c1 06000000 		.4byte	.LVL22
 1647 08c5 01       		.byte	0x1
 1648 08c6 5F0B0000 		.4byte	0xb5f
 1649 08ca 1E       		.uleb128 0x1e
 1650 08cb 01       		.byte	0x1
 1651 08cc 51       		.byte	0x51
 1652 08cd 01       		.byte	0x1
 1653 08ce 31       		.byte	0x31
 1654 08cf 1E       		.uleb128 0x1e
 1655 08d0 01       		.byte	0x1
 1656 08d1 50       		.byte	0x50
 1657 08d2 03       		.byte	0x3
 1658 08d3 F3       		.byte	0xf3
 1659 08d4 01       		.uleb128 0x1
 1660 08d5 50       		.byte	0x50
 1661 08d6 00       		.byte	0
 1662 08d7 00       		.byte	0
 1663 08d8 19       		.uleb128 0x19
 1664 08d9 01       		.byte	0x1
 1665 08da 44010000 		.4byte	.LASF98
 1666 08de 01       		.byte	0x1
 1667 08df 49       		.byte	0x49
 1668 08e0 01       		.byte	0x1
 1669 08e1 A6000000 		.4byte	0xa6
 1670 08e5 00000000 		.4byte	.LFB124
 1671 08e9 34000000 		.4byte	.LFE124
 1672 08ed 13020000 		.4byte	.LLST12
 1673 08f1 01       		.byte	0x1
 1674 08f2 32090000 		.4byte	0x932
 1675 08f6 1B       		.uleb128 0x1b
 1676 08f7 AE040000 		.4byte	.LASF95
 1677 08fb 01       		.byte	0x1
 1678 08fc 49       		.byte	0x49
 1679 08fd 92080000 		.4byte	0x892
 1680 0901 33020000 		.4byte	.LLST13
 1681 0905 1A       		.uleb128 0x1a
 1682 0906 6D7300   		.ascii	"ms\000"
 1683 0909 01       		.byte	0x1
 1684 090a 49       		.byte	0x49
 1685 090b 91060000 		.4byte	0x691
 1686 090f 6D020000 		.4byte	.LLST14
 1687 0913 1D       		.uleb128 0x1d
 1688 0914 24000000 		.4byte	.LVL25
 1689 0918 780B0000 		.4byte	0xb78
 1690 091c 28090000 		.4byte	0x928
 1691 0920 1E       		.uleb128 0x1e
 1692 0921 01       		.byte	0x1
 1693 0922 50       		.byte	0x50
 1694 0923 03       		.byte	0x3
 1695 0924 F3       		.byte	0xf3
 1696 0925 01       		.uleb128 0x1
 1697 0926 50       		.byte	0x50
 1698 0927 00       		.byte	0
 1699 0928 17       		.uleb128 0x17
 1700 0929 30000000 		.4byte	.LVL27
 1701 092d 950B0000 		.4byte	0xb95
 1702 0931 00       		.byte	0
ARM GAS  /tmp/ccZd7Sj2.s 			page 31


 1703 0932 16       		.uleb128 0x16
 1704 0933 01       		.byte	0x1
 1705 0934 C5040000 		.4byte	.LASF99
 1706 0938 01       		.byte	0x1
 1707 0939 51       		.byte	0x51
 1708 093a 01       		.byte	0x1
 1709 093b 00000000 		.4byte	.LFB125
 1710 093f 20000000 		.4byte	.LFE125
 1711 0943 A7020000 		.4byte	.LLST15
 1712 0947 01       		.byte	0x1
 1713 0948 B4090000 		.4byte	0x9b4
 1714 094c 1B       		.uleb128 0x1b
 1715 094d AE040000 		.4byte	.LASF95
 1716 0951 01       		.byte	0x1
 1717 0952 51       		.byte	0x51
 1718 0953 92080000 		.4byte	0x892
 1719 0957 C7020000 		.4byte	.LLST16
 1720 095b 22       		.uleb128 0x22
 1721 095c 02000000 		.4byte	.LBB2
 1722 0960 08000000 		.4byte	.LBE2
 1723 0964 78090000 		.4byte	0x978
 1724 0968 1C       		.uleb128 0x1c
 1725 0969 746D7000 		.ascii	"tmp\000"
 1726 096d 01       		.byte	0x1
 1727 096e 52       		.byte	0x52
 1728 096f 7B000000 		.4byte	0x7b
 1729 0973 E8020000 		.4byte	.LLST17
 1730 0977 00       		.byte	0
 1731 0978 22       		.uleb128 0x22
 1732 0979 18000000 		.4byte	.LBB3
 1733 097d 20000000 		.4byte	.LBE3
 1734 0981 95090000 		.4byte	0x995
 1735 0985 1C       		.uleb128 0x1c
 1736 0986 746D7000 		.ascii	"tmp\000"
 1737 098a 01       		.byte	0x1
 1738 098b 56       		.byte	0x56
 1739 098c 7B000000 		.4byte	0x7b
 1740 0990 FB020000 		.4byte	.LLST18
 1741 0994 00       		.byte	0
 1742 0995 1D       		.uleb128 0x1d
 1743 0996 14000000 		.4byte	.LVL32
 1744 099a AD0B0000 		.4byte	0xbad
 1745 099e AA090000 		.4byte	0x9aa
 1746 09a2 1E       		.uleb128 0x1e
 1747 09a3 01       		.byte	0x1
 1748 09a4 50       		.byte	0x50
 1749 09a5 03       		.byte	0x3
 1750 09a6 F3       		.byte	0xf3
 1751 09a7 01       		.uleb128 0x1
 1752 09a8 50       		.byte	0x50
 1753 09a9 00       		.byte	0
 1754 09aa 17       		.uleb128 0x17
 1755 09ab 18000000 		.4byte	.LVL33
 1756 09af C10B0000 		.4byte	0xbc1
 1757 09b3 00       		.byte	0
 1758 09b4 20       		.uleb128 0x20
 1759 09b5 01       		.byte	0x1
ARM GAS  /tmp/ccZd7Sj2.s 			page 32


 1760 09b6 80000000 		.4byte	.LASF100
 1761 09ba 01       		.byte	0x1
 1762 09bb 59       		.byte	0x59
 1763 09bc 01       		.byte	0x1
 1764 09bd 00000000 		.4byte	.LFB126
 1765 09c1 0E000000 		.4byte	.LFE126
 1766 09c5 02       		.byte	0x2
 1767 09c6 7D       		.byte	0x7d
 1768 09c7 00       		.sleb128 0
 1769 09c8 01       		.byte	0x1
 1770 09c9 E7090000 		.4byte	0x9e7
 1771 09cd 1B       		.uleb128 0x1b
 1772 09ce AE040000 		.4byte	.LASF95
 1773 09d2 01       		.byte	0x1
 1774 09d3 59       		.byte	0x59
 1775 09d4 92080000 		.4byte	0x892
 1776 09d8 0E030000 		.4byte	.LLST19
 1777 09dc 18       		.uleb128 0x18
 1778 09dd 0E000000 		.4byte	.LVL37
 1779 09e1 01       		.byte	0x1
 1780 09e2 AD0B0000 		.4byte	0xbad
 1781 09e6 00       		.byte	0
 1782 09e7 19       		.uleb128 0x19
 1783 09e8 01       		.byte	0x1
 1784 09e9 E6020000 		.4byte	.LASF101
 1785 09ed 01       		.byte	0x1
 1786 09ee 5E       		.byte	0x5e
 1787 09ef 01       		.byte	0x1
 1788 09f0 ED060000 		.4byte	0x6ed
 1789 09f4 00000000 		.4byte	.LFB127
 1790 09f8 26000000 		.4byte	.LFE127
 1791 09fc 2F030000 		.4byte	.LLST20
 1792 0a00 01       		.byte	0x1
 1793 0a01 9D0A0000 		.4byte	0xa9d
 1794 0a05 1B       		.uleb128 0x1b
 1795 0a06 93040000 		.4byte	.LASF102
 1796 0a0a 01       		.byte	0x1
 1797 0a0b 5E       		.byte	0x5e
 1798 0a0c AE020000 		.4byte	0x2ae
 1799 0a10 4F030000 		.4byte	.LLST21
 1800 0a14 1B       		.uleb128 0x1b
 1801 0a15 1B010000 		.4byte	.LASF103
 1802 0a19 01       		.byte	0x1
 1803 0a1a 5E       		.byte	0x5e
 1804 0a1b 30000000 		.4byte	0x30
 1805 0a1f A2030000 		.4byte	.LLST22
 1806 0a23 1B       		.uleb128 0x1b
 1807 0a24 F6020000 		.4byte	.LASF104
 1808 0a28 01       		.byte	0x1
 1809 0a29 5E       		.byte	0x5e
 1810 0a2a B2060000 		.4byte	0x6b2
 1811 0a2e D6030000 		.4byte	.LLST23
 1812 0a32 1A       		.uleb128 0x1a
 1813 0a33 666E00   		.ascii	"fn\000"
 1814 0a36 01       		.byte	0x1
 1815 0a37 5E       		.byte	0x5e
 1816 0a38 AD0A0000 		.4byte	0xaad
ARM GAS  /tmp/ccZd7Sj2.s 			page 33


 1817 0a3c 10040000 		.4byte	.LLST24
 1818 0a40 23       		.uleb128 0x23
 1819 0a41 BA020000 		.4byte	.LASF105
 1820 0a45 01       		.byte	0x1
 1821 0a46 5E       		.byte	0x5e
 1822 0a47 AE020000 		.4byte	0x2ae
 1823 0a4b 02       		.byte	0x2
 1824 0a4c 91       		.byte	0x91
 1825 0a4d 00       		.sleb128 0
 1826 0a4e 24       		.uleb128 0x24
 1827 0a4f 12000000 		.4byte	.LVL39
 1828 0a53 01       		.byte	0x1
 1829 0a54 CB0B0000 		.4byte	0xbcb
 1830 0a58 7F0A0000 		.4byte	0xa7f
 1831 0a5c 1E       		.uleb128 0x1e
 1832 0a5d 01       		.byte	0x1
 1833 0a5e 53       		.byte	0x53
 1834 0a5f 03       		.byte	0x3
 1835 0a60 F3       		.byte	0xf3
 1836 0a61 01       		.uleb128 0x1
 1837 0a62 53       		.byte	0x53
 1838 0a63 1E       		.uleb128 0x1e
 1839 0a64 01       		.byte	0x1
 1840 0a65 52       		.byte	0x52
 1841 0a66 03       		.byte	0x3
 1842 0a67 F3       		.byte	0xf3
 1843 0a68 01       		.uleb128 0x1
 1844 0a69 52       		.byte	0x52
 1845 0a6a 1E       		.uleb128 0x1e
 1846 0a6b 01       		.byte	0x1
 1847 0a6c 51       		.byte	0x51
 1848 0a6d 02       		.byte	0x2
 1849 0a6e 74       		.byte	0x74
 1850 0a6f 00       		.sleb128 0
 1851 0a70 1E       		.uleb128 0x1e
 1852 0a71 01       		.byte	0x1
 1853 0a72 50       		.byte	0x50
 1854 0a73 03       		.byte	0x3
 1855 0a74 F3       		.byte	0xf3
 1856 0a75 01       		.uleb128 0x1
 1857 0a76 50       		.byte	0x50
 1858 0a77 1E       		.uleb128 0x1e
 1859 0a78 02       		.byte	0x2
 1860 0a79 91       		.byte	0x91
 1861 0a7a 00       		.sleb128 0
 1862 0a7b 02       		.byte	0x2
 1863 0a7c 75       		.byte	0x75
 1864 0a7d 00       		.sleb128 0
 1865 0a7e 00       		.byte	0
 1866 0a7f 21       		.uleb128 0x21
 1867 0a80 26000000 		.4byte	.LVL43
 1868 0a84 01       		.byte	0x1
 1869 0a85 F80B0000 		.4byte	0xbf8
 1870 0a89 1E       		.uleb128 0x1e
 1871 0a8a 01       		.byte	0x1
 1872 0a8b 51       		.byte	0x51
 1873 0a8c 0E       		.byte	0xe
ARM GAS  /tmp/ccZd7Sj2.s 			page 34


 1874 0a8d 74       		.byte	0x74
 1875 0a8e 00       		.sleb128 0
 1876 0a8f 0A       		.byte	0xa
 1877 0a90 0001     		.2byte	0x100
 1878 0a92 74       		.byte	0x74
 1879 0a93 00       		.sleb128 0
 1880 0a94 30       		.byte	0x30
 1881 0a95 2E       		.byte	0x2e
 1882 0a96 28       		.byte	0x28
 1883 0a97 0100     		.2byte	0x1
 1884 0a99 16       		.byte	0x16
 1885 0a9a 13       		.byte	0x13
 1886 0a9b 00       		.byte	0
 1887 0a9c 00       		.byte	0
 1888 0a9d 0E       		.uleb128 0xe
 1889 0a9e 01       		.byte	0x1
 1890 0a9f A7060000 		.4byte	0x6a7
 1891 0aa3 AD0A0000 		.4byte	0xaad
 1892 0aa7 0F       		.uleb128 0xf
 1893 0aa8 AE020000 		.4byte	0x2ae
 1894 0aac 00       		.byte	0
 1895 0aad 09       		.uleb128 0x9
 1896 0aae 04       		.byte	0x4
 1897 0aaf 9D0A0000 		.4byte	0xa9d
 1898 0ab3 25       		.uleb128 0x25
 1899 0ab4 E9040000 		.4byte	.LASF106
 1900 0ab8 08       		.byte	0x8
 1901 0ab9 68       		.byte	0x68
 1902 0aba C5040000 		.4byte	0x4c5
 1903 0abe 01       		.byte	0x1
 1904 0abf 01       		.byte	0x1
 1905 0ac0 26       		.uleb128 0x26
 1906 0ac1 73000000 		.4byte	.LASF107
 1907 0ac5 0E       		.byte	0xe
 1908 0ac6 9806     		.2byte	0x698
 1909 0ac8 8C060000 		.4byte	0x68c
 1910 0acc 01       		.byte	0x1
 1911 0acd 01       		.byte	0x1
 1912 0ace 27       		.uleb128 0x27
 1913 0acf 01       		.byte	0x1
 1914 0ad0 91010000 		.4byte	.LASF108
 1915 0ad4 0F       		.byte	0xf
 1916 0ad5 CA       		.byte	0xca
 1917 0ad6 01       		.byte	0x1
 1918 0ad7 01       		.byte	0x1
 1919 0ad8 27       		.uleb128 0x27
 1920 0ad9 01       		.byte	0x1
 1921 0ada BA000000 		.4byte	.LASF109
 1922 0ade 10       		.byte	0x10
 1923 0adf EF       		.byte	0xef
 1924 0ae0 01       		.byte	0x1
 1925 0ae1 01       		.byte	0x1
 1926 0ae2 28       		.uleb128 0x28
 1927 0ae3 01       		.byte	0x1
 1928 0ae4 FD030000 		.4byte	.LASF115
 1929 0ae8 0C       		.byte	0xc
 1930 0ae9 52       		.byte	0x52
ARM GAS  /tmp/ccZd7Sj2.s 			page 35


 1931 0aea 01       		.byte	0x1
 1932 0aeb AE020000 		.4byte	0x2ae
 1933 0aef 01       		.byte	0x1
 1934 0af0 FF0A0000 		.4byte	0xaff
 1935 0af4 0F       		.uleb128 0xf
 1936 0af5 F5050000 		.4byte	0x5f5
 1937 0af9 0F       		.uleb128 0xf
 1938 0afa 30000000 		.4byte	0x30
 1939 0afe 00       		.byte	0
 1940 0aff 29       		.uleb128 0x29
 1941 0b00 01       		.byte	0x1
 1942 0b01 84040000 		.4byte	.LASF111
 1943 0b05 01       		.byte	0x1
 1944 0b06 AE020000 		.4byte	0x2ae
 1945 0b0a 01       		.byte	0x1
 1946 0b0b 01       		.byte	0x1
 1947 0b0c 200B0000 		.4byte	0xb20
 1948 0b10 0F       		.uleb128 0xf
 1949 0b11 AE020000 		.4byte	0x2ae
 1950 0b15 0F       		.uleb128 0xf
 1951 0b16 F8060000 		.4byte	0x6f8
 1952 0b1a 0F       		.uleb128 0xf
 1953 0b1b 5C040000 		.4byte	0x45c
 1954 0b1f 00       		.byte	0
 1955 0b20 2A       		.uleb128 0x2a
 1956 0b21 01       		.byte	0x1
 1957 0b22 17050000 		.4byte	.LASF110
 1958 0b26 06       		.byte	0x6
 1959 0b27 7001     		.2byte	0x170
 1960 0b29 01       		.byte	0x1
 1961 0b2a 01       		.byte	0x1
 1962 0b2b 2B       		.uleb128 0x2b
 1963 0b2c 01       		.byte	0x1
 1964 0b2d B3040000 		.4byte	.LASF112
 1965 0b31 06       		.byte	0x6
 1966 0b32 6E01     		.2byte	0x16e
 1967 0b34 01       		.byte	0x1
 1968 0b35 01       		.byte	0x1
 1969 0b36 400B0000 		.4byte	0xb40
 1970 0b3a 0F       		.uleb128 0xf
 1971 0b3b 05010000 		.4byte	0x105
 1972 0b3f 00       		.byte	0
 1973 0b40 2C       		.uleb128 0x2c
 1974 0b41 01       		.byte	0x1
 1975 0b42 4E050000 		.4byte	.LASF113
 1976 0b46 09       		.byte	0x9
 1977 0b47 2E       		.byte	0x2e
 1978 0b48 01       		.byte	0x1
 1979 0b49 01       		.byte	0x1
 1980 0b4a 590B0000 		.4byte	0xb59
 1981 0b4e 0F       		.uleb128 0xf
 1982 0b4f 590B0000 		.4byte	0xb59
 1983 0b53 0F       		.uleb128 0xf
 1984 0b54 10010000 		.4byte	0x110
 1985 0b58 00       		.byte	0
 1986 0b59 09       		.uleb128 0x9
 1987 0b5a 04       		.byte	0x4
ARM GAS  /tmp/ccZd7Sj2.s 			page 36


 1988 0b5b F9040000 		.4byte	0x4f9
 1989 0b5f 2C       		.uleb128 0x2c
 1990 0b60 01       		.byte	0x1
 1991 0b61 C2010000 		.4byte	.LASF114
 1992 0b65 09       		.byte	0x9
 1993 0b66 2F       		.byte	0x2f
 1994 0b67 01       		.byte	0x1
 1995 0b68 01       		.byte	0x1
 1996 0b69 780B0000 		.4byte	0xb78
 1997 0b6d 0F       		.uleb128 0xf
 1998 0b6e 590B0000 		.4byte	0xb59
 1999 0b72 0F       		.uleb128 0xf
 2000 0b73 10010000 		.4byte	0x110
 2001 0b77 00       		.byte	0
 2002 0b78 28       		.uleb128 0x28
 2003 0b79 01       		.byte	0x1
 2004 0b7a 14020000 		.4byte	.LASF116
 2005 0b7e 09       		.byte	0x9
 2006 0b7f 33       		.byte	0x33
 2007 0b80 01       		.byte	0x1
 2008 0b81 EF000000 		.4byte	0xef
 2009 0b85 01       		.byte	0x1
 2010 0b86 950B0000 		.4byte	0xb95
 2011 0b8a 0F       		.uleb128 0xf
 2012 0b8b 590B0000 		.4byte	0xb59
 2013 0b8f 0F       		.uleb128 0xf
 2014 0b90 05010000 		.4byte	0x105
 2015 0b94 00       		.byte	0
 2016 0b95 28       		.uleb128 0x28
 2017 0b96 01       		.byte	0x1
 2018 0b97 7A040000 		.4byte	.LASF117
 2019 0b9b 09       		.byte	0x9
 2020 0b9c 31       		.byte	0x31
 2021 0b9d 01       		.byte	0x1
 2022 0b9e EF000000 		.4byte	0xef
 2023 0ba2 01       		.byte	0x1
 2024 0ba3 AD0B0000 		.4byte	0xbad
 2025 0ba7 0F       		.uleb128 0xf
 2026 0ba8 590B0000 		.4byte	0xb59
 2027 0bac 00       		.byte	0
 2028 0bad 2C       		.uleb128 0x2c
 2029 0bae 01       		.byte	0x1
 2030 0baf D2040000 		.4byte	.LASF118
 2031 0bb3 09       		.byte	0x9
 2032 0bb4 36       		.byte	0x36
 2033 0bb5 01       		.byte	0x1
 2034 0bb6 01       		.byte	0x1
 2035 0bb7 C10B0000 		.4byte	0xbc1
 2036 0bbb 0F       		.uleb128 0xf
 2037 0bbc 590B0000 		.4byte	0xb59
 2038 0bc0 00       		.byte	0
 2039 0bc1 27       		.uleb128 0x27
 2040 0bc2 01       		.byte	0x1
 2041 0bc3 33010000 		.4byte	.LASF119
 2042 0bc7 08       		.byte	0x8
 2043 0bc8 95       		.byte	0x95
 2044 0bc9 01       		.byte	0x1
ARM GAS  /tmp/ccZd7Sj2.s 			page 37


 2045 0bca 01       		.byte	0x1
 2046 0bcb 2D       		.uleb128 0x2d
 2047 0bcc 01       		.byte	0x1
 2048 0bcd 84020000 		.4byte	.LASF120
 2049 0bd1 06       		.byte	0x6
 2050 0bd2 6901     		.2byte	0x169
 2051 0bd4 01       		.byte	0x1
 2052 0bd5 70020000 		.4byte	0x270
 2053 0bd9 01       		.byte	0x1
 2054 0bda F80B0000 		.4byte	0xbf8
 2055 0bde 0F       		.uleb128 0xf
 2056 0bdf AE020000 		.4byte	0x2ae
 2057 0be3 0F       		.uleb128 0xf
 2058 0be4 30000000 		.4byte	0x30
 2059 0be8 0F       		.uleb128 0xf
 2060 0be9 E4000000 		.4byte	0xe4
 2061 0bed 0F       		.uleb128 0xf
 2062 0bee 6B060000 		.4byte	0x66b
 2063 0bf2 0F       		.uleb128 0xf
 2064 0bf3 AE020000 		.4byte	0x2ae
 2065 0bf7 00       		.byte	0
 2066 0bf8 2E       		.uleb128 0x2e
 2067 0bf9 01       		.byte	0x1
 2068 0bfa FE000000 		.4byte	.LASF121
 2069 0bfe 11       		.byte	0x11
 2070 0bff 35       		.byte	0x35
 2071 0c00 01       		.byte	0x1
 2072 0c01 70020000 		.4byte	0x270
 2073 0c05 01       		.byte	0x1
 2074 0c06 0F       		.uleb128 0xf
 2075 0c07 F5050000 		.4byte	0x5f5
 2076 0c0b 0F       		.uleb128 0xf
 2077 0c0c 30000000 		.4byte	0x30
 2078 0c10 0F       		.uleb128 0xf
 2079 0c11 E4000000 		.4byte	0xe4
 2080 0c15 0F       		.uleb128 0xf
 2081 0c16 6B060000 		.4byte	0x66b
 2082 0c1a 0F       		.uleb128 0xf
 2083 0c1b AE020000 		.4byte	0x2ae
 2084 0c1f 00       		.byte	0
 2085 0c20 00       		.byte	0
 2086              		.section	.debug_abbrev,"",%progbits
 2087              	.Ldebug_abbrev0:
 2088 0000 01       		.uleb128 0x1
 2089 0001 11       		.uleb128 0x11
 2090 0002 01       		.byte	0x1
 2091 0003 25       		.uleb128 0x25
 2092 0004 0E       		.uleb128 0xe
 2093 0005 13       		.uleb128 0x13
 2094 0006 0B       		.uleb128 0xb
 2095 0007 03       		.uleb128 0x3
 2096 0008 0E       		.uleb128 0xe
 2097 0009 1B       		.uleb128 0x1b
 2098 000a 0E       		.uleb128 0xe
 2099 000b 55       		.uleb128 0x55
 2100 000c 06       		.uleb128 0x6
 2101 000d 11       		.uleb128 0x11
ARM GAS  /tmp/ccZd7Sj2.s 			page 38


 2102 000e 01       		.uleb128 0x1
 2103 000f 52       		.uleb128 0x52
 2104 0010 01       		.uleb128 0x1
 2105 0011 10       		.uleb128 0x10
 2106 0012 06       		.uleb128 0x6
 2107 0013 00       		.byte	0
 2108 0014 00       		.byte	0
 2109 0015 02       		.uleb128 0x2
 2110 0016 24       		.uleb128 0x24
 2111 0017 00       		.byte	0
 2112 0018 0B       		.uleb128 0xb
 2113 0019 0B       		.uleb128 0xb
 2114 001a 3E       		.uleb128 0x3e
 2115 001b 0B       		.uleb128 0xb
 2116 001c 03       		.uleb128 0x3
 2117 001d 08       		.uleb128 0x8
 2118 001e 00       		.byte	0
 2119 001f 00       		.byte	0
 2120 0020 03       		.uleb128 0x3
 2121 0021 16       		.uleb128 0x16
 2122 0022 00       		.byte	0
 2123 0023 03       		.uleb128 0x3
 2124 0024 0E       		.uleb128 0xe
 2125 0025 3A       		.uleb128 0x3a
 2126 0026 0B       		.uleb128 0xb
 2127 0027 3B       		.uleb128 0x3b
 2128 0028 0B       		.uleb128 0xb
 2129 0029 49       		.uleb128 0x49
 2130 002a 13       		.uleb128 0x13
 2131 002b 00       		.byte	0
 2132 002c 00       		.byte	0
 2133 002d 04       		.uleb128 0x4
 2134 002e 24       		.uleb128 0x24
 2135 002f 00       		.byte	0
 2136 0030 0B       		.uleb128 0xb
 2137 0031 0B       		.uleb128 0xb
 2138 0032 3E       		.uleb128 0x3e
 2139 0033 0B       		.uleb128 0xb
 2140 0034 03       		.uleb128 0x3
 2141 0035 0E       		.uleb128 0xe
 2142 0036 00       		.byte	0
 2143 0037 00       		.byte	0
 2144 0038 05       		.uleb128 0x5
 2145 0039 13       		.uleb128 0x13
 2146 003a 01       		.byte	0x1
 2147 003b 03       		.uleb128 0x3
 2148 003c 0E       		.uleb128 0xe
 2149 003d 0B       		.uleb128 0xb
 2150 003e 0B       		.uleb128 0xb
 2151 003f 3A       		.uleb128 0x3a
 2152 0040 0B       		.uleb128 0xb
 2153 0041 3B       		.uleb128 0x3b
 2154 0042 0B       		.uleb128 0xb
 2155 0043 01       		.uleb128 0x1
 2156 0044 13       		.uleb128 0x13
 2157 0045 00       		.byte	0
 2158 0046 00       		.byte	0
ARM GAS  /tmp/ccZd7Sj2.s 			page 39


 2159 0047 06       		.uleb128 0x6
 2160 0048 0D       		.uleb128 0xd
 2161 0049 00       		.byte	0
 2162 004a 03       		.uleb128 0x3
 2163 004b 0E       		.uleb128 0xe
 2164 004c 3A       		.uleb128 0x3a
 2165 004d 0B       		.uleb128 0xb
 2166 004e 3B       		.uleb128 0x3b
 2167 004f 0B       		.uleb128 0xb
 2168 0050 49       		.uleb128 0x49
 2169 0051 13       		.uleb128 0x13
 2170 0052 38       		.uleb128 0x38
 2171 0053 0A       		.uleb128 0xa
 2172 0054 00       		.byte	0
 2173 0055 00       		.byte	0
 2174 0056 07       		.uleb128 0x7
 2175 0057 0D       		.uleb128 0xd
 2176 0058 00       		.byte	0
 2177 0059 03       		.uleb128 0x3
 2178 005a 08       		.uleb128 0x8
 2179 005b 3A       		.uleb128 0x3a
 2180 005c 0B       		.uleb128 0xb
 2181 005d 3B       		.uleb128 0x3b
 2182 005e 0B       		.uleb128 0xb
 2183 005f 49       		.uleb128 0x49
 2184 0060 13       		.uleb128 0x13
 2185 0061 38       		.uleb128 0x38
 2186 0062 0A       		.uleb128 0xa
 2187 0063 00       		.byte	0
 2188 0064 00       		.byte	0
 2189 0065 08       		.uleb128 0x8
 2190 0066 13       		.uleb128 0x13
 2191 0067 01       		.byte	0x1
 2192 0068 0B       		.uleb128 0xb
 2193 0069 0B       		.uleb128 0xb
 2194 006a 3A       		.uleb128 0x3a
 2195 006b 0B       		.uleb128 0xb
 2196 006c 3B       		.uleb128 0x3b
 2197 006d 0B       		.uleb128 0xb
 2198 006e 01       		.uleb128 0x1
 2199 006f 13       		.uleb128 0x13
 2200 0070 00       		.byte	0
 2201 0071 00       		.byte	0
 2202 0072 09       		.uleb128 0x9
 2203 0073 0F       		.uleb128 0xf
 2204 0074 00       		.byte	0
 2205 0075 0B       		.uleb128 0xb
 2206 0076 0B       		.uleb128 0xb
 2207 0077 49       		.uleb128 0x49
 2208 0078 13       		.uleb128 0x13
 2209 0079 00       		.byte	0
 2210 007a 00       		.byte	0
 2211 007b 0A       		.uleb128 0xa
 2212 007c 0F       		.uleb128 0xf
 2213 007d 00       		.byte	0
 2214 007e 0B       		.uleb128 0xb
 2215 007f 0B       		.uleb128 0xb
ARM GAS  /tmp/ccZd7Sj2.s 			page 40


 2216 0080 00       		.byte	0
 2217 0081 00       		.byte	0
 2218 0082 0B       		.uleb128 0xb
 2219 0083 13       		.uleb128 0x13
 2220 0084 01       		.byte	0x1
 2221 0085 03       		.uleb128 0x3
 2222 0086 0E       		.uleb128 0xe
 2223 0087 0B       		.uleb128 0xb
 2224 0088 0B       		.uleb128 0xb
 2225 0089 3A       		.uleb128 0x3a
 2226 008a 0B       		.uleb128 0xb
 2227 008b 3B       		.uleb128 0x3b
 2228 008c 05       		.uleb128 0x5
 2229 008d 01       		.uleb128 0x1
 2230 008e 13       		.uleb128 0x13
 2231 008f 00       		.byte	0
 2232 0090 00       		.byte	0
 2233 0091 0C       		.uleb128 0xc
 2234 0092 0D       		.uleb128 0xd
 2235 0093 00       		.byte	0
 2236 0094 03       		.uleb128 0x3
 2237 0095 08       		.uleb128 0x8
 2238 0096 3A       		.uleb128 0x3a
 2239 0097 0B       		.uleb128 0xb
 2240 0098 3B       		.uleb128 0x3b
 2241 0099 05       		.uleb128 0x5
 2242 009a 49       		.uleb128 0x49
 2243 009b 13       		.uleb128 0x13
 2244 009c 38       		.uleb128 0x38
 2245 009d 0A       		.uleb128 0xa
 2246 009e 00       		.byte	0
 2247 009f 00       		.byte	0
 2248 00a0 0D       		.uleb128 0xd
 2249 00a1 35       		.uleb128 0x35
 2250 00a2 00       		.byte	0
 2251 00a3 49       		.uleb128 0x49
 2252 00a4 13       		.uleb128 0x13
 2253 00a5 00       		.byte	0
 2254 00a6 00       		.byte	0
 2255 00a7 0E       		.uleb128 0xe
 2256 00a8 15       		.uleb128 0x15
 2257 00a9 01       		.byte	0x1
 2258 00aa 27       		.uleb128 0x27
 2259 00ab 0C       		.uleb128 0xc
 2260 00ac 49       		.uleb128 0x49
 2261 00ad 13       		.uleb128 0x13
 2262 00ae 01       		.uleb128 0x1
 2263 00af 13       		.uleb128 0x13
 2264 00b0 00       		.byte	0
 2265 00b1 00       		.byte	0
 2266 00b2 0F       		.uleb128 0xf
 2267 00b3 05       		.uleb128 0x5
 2268 00b4 00       		.byte	0
 2269 00b5 49       		.uleb128 0x49
 2270 00b6 13       		.uleb128 0x13
 2271 00b7 00       		.byte	0
 2272 00b8 00       		.byte	0
ARM GAS  /tmp/ccZd7Sj2.s 			page 41


 2273 00b9 10       		.uleb128 0x10
 2274 00ba 17       		.uleb128 0x17
 2275 00bb 01       		.byte	0x1
 2276 00bc 0B       		.uleb128 0xb
 2277 00bd 0B       		.uleb128 0xb
 2278 00be 3A       		.uleb128 0x3a
 2279 00bf 0B       		.uleb128 0xb
 2280 00c0 3B       		.uleb128 0x3b
 2281 00c1 0B       		.uleb128 0xb
 2282 00c2 01       		.uleb128 0x1
 2283 00c3 13       		.uleb128 0x13
 2284 00c4 00       		.byte	0
 2285 00c5 00       		.byte	0
 2286 00c6 11       		.uleb128 0x11
 2287 00c7 0D       		.uleb128 0xd
 2288 00c8 00       		.byte	0
 2289 00c9 03       		.uleb128 0x3
 2290 00ca 0E       		.uleb128 0xe
 2291 00cb 3A       		.uleb128 0x3a
 2292 00cc 0B       		.uleb128 0xb
 2293 00cd 3B       		.uleb128 0x3b
 2294 00ce 0B       		.uleb128 0xb
 2295 00cf 49       		.uleb128 0x49
 2296 00d0 13       		.uleb128 0x13
 2297 00d1 00       		.byte	0
 2298 00d2 00       		.byte	0
 2299 00d3 12       		.uleb128 0x12
 2300 00d4 17       		.uleb128 0x17
 2301 00d5 01       		.byte	0x1
 2302 00d6 03       		.uleb128 0x3
 2303 00d7 0E       		.uleb128 0xe
 2304 00d8 0B       		.uleb128 0xb
 2305 00d9 0B       		.uleb128 0xb
 2306 00da 3A       		.uleb128 0x3a
 2307 00db 0B       		.uleb128 0xb
 2308 00dc 3B       		.uleb128 0x3b
 2309 00dd 0B       		.uleb128 0xb
 2310 00de 01       		.uleb128 0x1
 2311 00df 13       		.uleb128 0x13
 2312 00e0 00       		.byte	0
 2313 00e1 00       		.byte	0
 2314 00e2 13       		.uleb128 0x13
 2315 00e3 0D       		.uleb128 0xd
 2316 00e4 00       		.byte	0
 2317 00e5 03       		.uleb128 0x3
 2318 00e6 08       		.uleb128 0x8
 2319 00e7 3A       		.uleb128 0x3a
 2320 00e8 0B       		.uleb128 0xb
 2321 00e9 3B       		.uleb128 0x3b
 2322 00ea 0B       		.uleb128 0xb
 2323 00eb 49       		.uleb128 0x49
 2324 00ec 13       		.uleb128 0x13
 2325 00ed 00       		.byte	0
 2326 00ee 00       		.byte	0
 2327 00ef 14       		.uleb128 0x14
 2328 00f0 26       		.uleb128 0x26
 2329 00f1 00       		.byte	0
ARM GAS  /tmp/ccZd7Sj2.s 			page 42


 2330 00f2 49       		.uleb128 0x49
 2331 00f3 13       		.uleb128 0x13
 2332 00f4 00       		.byte	0
 2333 00f5 00       		.byte	0
 2334 00f6 15       		.uleb128 0x15
 2335 00f7 26       		.uleb128 0x26
 2336 00f8 00       		.byte	0
 2337 00f9 00       		.byte	0
 2338 00fa 00       		.byte	0
 2339 00fb 16       		.uleb128 0x16
 2340 00fc 2E       		.uleb128 0x2e
 2341 00fd 01       		.byte	0x1
 2342 00fe 3F       		.uleb128 0x3f
 2343 00ff 0C       		.uleb128 0xc
 2344 0100 03       		.uleb128 0x3
 2345 0101 0E       		.uleb128 0xe
 2346 0102 3A       		.uleb128 0x3a
 2347 0103 0B       		.uleb128 0xb
 2348 0104 3B       		.uleb128 0x3b
 2349 0105 0B       		.uleb128 0xb
 2350 0106 27       		.uleb128 0x27
 2351 0107 0C       		.uleb128 0xc
 2352 0108 11       		.uleb128 0x11
 2353 0109 01       		.uleb128 0x1
 2354 010a 12       		.uleb128 0x12
 2355 010b 01       		.uleb128 0x1
 2356 010c 40       		.uleb128 0x40
 2357 010d 06       		.uleb128 0x6
 2358 010e 9742     		.uleb128 0x2117
 2359 0110 0C       		.uleb128 0xc
 2360 0111 01       		.uleb128 0x1
 2361 0112 13       		.uleb128 0x13
 2362 0113 00       		.byte	0
 2363 0114 00       		.byte	0
 2364 0115 17       		.uleb128 0x17
 2365 0116 898201   		.uleb128 0x4109
 2366 0119 00       		.byte	0
 2367 011a 11       		.uleb128 0x11
 2368 011b 01       		.uleb128 0x1
 2369 011c 31       		.uleb128 0x31
 2370 011d 13       		.uleb128 0x13
 2371 011e 00       		.byte	0
 2372 011f 00       		.byte	0
 2373 0120 18       		.uleb128 0x18
 2374 0121 898201   		.uleb128 0x4109
 2375 0124 00       		.byte	0
 2376 0125 11       		.uleb128 0x11
 2377 0126 01       		.uleb128 0x1
 2378 0127 9542     		.uleb128 0x2115
 2379 0129 0C       		.uleb128 0xc
 2380 012a 31       		.uleb128 0x31
 2381 012b 13       		.uleb128 0x13
 2382 012c 00       		.byte	0
 2383 012d 00       		.byte	0
 2384 012e 19       		.uleb128 0x19
 2385 012f 2E       		.uleb128 0x2e
 2386 0130 01       		.byte	0x1
ARM GAS  /tmp/ccZd7Sj2.s 			page 43


 2387 0131 3F       		.uleb128 0x3f
 2388 0132 0C       		.uleb128 0xc
 2389 0133 03       		.uleb128 0x3
 2390 0134 0E       		.uleb128 0xe
 2391 0135 3A       		.uleb128 0x3a
 2392 0136 0B       		.uleb128 0xb
 2393 0137 3B       		.uleb128 0x3b
 2394 0138 0B       		.uleb128 0xb
 2395 0139 27       		.uleb128 0x27
 2396 013a 0C       		.uleb128 0xc
 2397 013b 49       		.uleb128 0x49
 2398 013c 13       		.uleb128 0x13
 2399 013d 11       		.uleb128 0x11
 2400 013e 01       		.uleb128 0x1
 2401 013f 12       		.uleb128 0x12
 2402 0140 01       		.uleb128 0x1
 2403 0141 40       		.uleb128 0x40
 2404 0142 06       		.uleb128 0x6
 2405 0143 9742     		.uleb128 0x2117
 2406 0145 0C       		.uleb128 0xc
 2407 0146 01       		.uleb128 0x1
 2408 0147 13       		.uleb128 0x13
 2409 0148 00       		.byte	0
 2410 0149 00       		.byte	0
 2411 014a 1A       		.uleb128 0x1a
 2412 014b 05       		.uleb128 0x5
 2413 014c 00       		.byte	0
 2414 014d 03       		.uleb128 0x3
 2415 014e 08       		.uleb128 0x8
 2416 014f 3A       		.uleb128 0x3a
 2417 0150 0B       		.uleb128 0xb
 2418 0151 3B       		.uleb128 0x3b
 2419 0152 0B       		.uleb128 0xb
 2420 0153 49       		.uleb128 0x49
 2421 0154 13       		.uleb128 0x13
 2422 0155 02       		.uleb128 0x2
 2423 0156 06       		.uleb128 0x6
 2424 0157 00       		.byte	0
 2425 0158 00       		.byte	0
 2426 0159 1B       		.uleb128 0x1b
 2427 015a 05       		.uleb128 0x5
 2428 015b 00       		.byte	0
 2429 015c 03       		.uleb128 0x3
 2430 015d 0E       		.uleb128 0xe
 2431 015e 3A       		.uleb128 0x3a
 2432 015f 0B       		.uleb128 0xb
 2433 0160 3B       		.uleb128 0x3b
 2434 0161 0B       		.uleb128 0xb
 2435 0162 49       		.uleb128 0x49
 2436 0163 13       		.uleb128 0x13
 2437 0164 02       		.uleb128 0x2
 2438 0165 06       		.uleb128 0x6
 2439 0166 00       		.byte	0
 2440 0167 00       		.byte	0
 2441 0168 1C       		.uleb128 0x1c
 2442 0169 34       		.uleb128 0x34
 2443 016a 00       		.byte	0
ARM GAS  /tmp/ccZd7Sj2.s 			page 44


 2444 016b 03       		.uleb128 0x3
 2445 016c 08       		.uleb128 0x8
 2446 016d 3A       		.uleb128 0x3a
 2447 016e 0B       		.uleb128 0xb
 2448 016f 3B       		.uleb128 0x3b
 2449 0170 0B       		.uleb128 0xb
 2450 0171 49       		.uleb128 0x49
 2451 0172 13       		.uleb128 0x13
 2452 0173 02       		.uleb128 0x2
 2453 0174 06       		.uleb128 0x6
 2454 0175 00       		.byte	0
 2455 0176 00       		.byte	0
 2456 0177 1D       		.uleb128 0x1d
 2457 0178 898201   		.uleb128 0x4109
 2458 017b 01       		.byte	0x1
 2459 017c 11       		.uleb128 0x11
 2460 017d 01       		.uleb128 0x1
 2461 017e 31       		.uleb128 0x31
 2462 017f 13       		.uleb128 0x13
 2463 0180 01       		.uleb128 0x1
 2464 0181 13       		.uleb128 0x13
 2465 0182 00       		.byte	0
 2466 0183 00       		.byte	0
 2467 0184 1E       		.uleb128 0x1e
 2468 0185 8A8201   		.uleb128 0x410a
 2469 0188 00       		.byte	0
 2470 0189 02       		.uleb128 0x2
 2471 018a 0A       		.uleb128 0xa
 2472 018b 9142     		.uleb128 0x2111
 2473 018d 0A       		.uleb128 0xa
 2474 018e 00       		.byte	0
 2475 018f 00       		.byte	0
 2476 0190 1F       		.uleb128 0x1f
 2477 0191 898201   		.uleb128 0x4109
 2478 0194 01       		.byte	0x1
 2479 0195 11       		.uleb128 0x11
 2480 0196 01       		.uleb128 0x1
 2481 0197 31       		.uleb128 0x31
 2482 0198 13       		.uleb128 0x13
 2483 0199 00       		.byte	0
 2484 019a 00       		.byte	0
 2485 019b 20       		.uleb128 0x20
 2486 019c 2E       		.uleb128 0x2e
 2487 019d 01       		.byte	0x1
 2488 019e 3F       		.uleb128 0x3f
 2489 019f 0C       		.uleb128 0xc
 2490 01a0 03       		.uleb128 0x3
 2491 01a1 0E       		.uleb128 0xe
 2492 01a2 3A       		.uleb128 0x3a
 2493 01a3 0B       		.uleb128 0xb
 2494 01a4 3B       		.uleb128 0x3b
 2495 01a5 0B       		.uleb128 0xb
 2496 01a6 27       		.uleb128 0x27
 2497 01a7 0C       		.uleb128 0xc
 2498 01a8 11       		.uleb128 0x11
 2499 01a9 01       		.uleb128 0x1
 2500 01aa 12       		.uleb128 0x12
ARM GAS  /tmp/ccZd7Sj2.s 			page 45


 2501 01ab 01       		.uleb128 0x1
 2502 01ac 40       		.uleb128 0x40
 2503 01ad 0A       		.uleb128 0xa
 2504 01ae 9742     		.uleb128 0x2117
 2505 01b0 0C       		.uleb128 0xc
 2506 01b1 01       		.uleb128 0x1
 2507 01b2 13       		.uleb128 0x13
 2508 01b3 00       		.byte	0
 2509 01b4 00       		.byte	0
 2510 01b5 21       		.uleb128 0x21
 2511 01b6 898201   		.uleb128 0x4109
 2512 01b9 01       		.byte	0x1
 2513 01ba 11       		.uleb128 0x11
 2514 01bb 01       		.uleb128 0x1
 2515 01bc 9542     		.uleb128 0x2115
 2516 01be 0C       		.uleb128 0xc
 2517 01bf 31       		.uleb128 0x31
 2518 01c0 13       		.uleb128 0x13
 2519 01c1 00       		.byte	0
 2520 01c2 00       		.byte	0
 2521 01c3 22       		.uleb128 0x22
 2522 01c4 0B       		.uleb128 0xb
 2523 01c5 01       		.byte	0x1
 2524 01c6 11       		.uleb128 0x11
 2525 01c7 01       		.uleb128 0x1
 2526 01c8 12       		.uleb128 0x12
 2527 01c9 01       		.uleb128 0x1
 2528 01ca 01       		.uleb128 0x1
 2529 01cb 13       		.uleb128 0x13
 2530 01cc 00       		.byte	0
 2531 01cd 00       		.byte	0
 2532 01ce 23       		.uleb128 0x23
 2533 01cf 05       		.uleb128 0x5
 2534 01d0 00       		.byte	0
 2535 01d1 03       		.uleb128 0x3
 2536 01d2 0E       		.uleb128 0xe
 2537 01d3 3A       		.uleb128 0x3a
 2538 01d4 0B       		.uleb128 0xb
 2539 01d5 3B       		.uleb128 0x3b
 2540 01d6 0B       		.uleb128 0xb
 2541 01d7 49       		.uleb128 0x49
 2542 01d8 13       		.uleb128 0x13
 2543 01d9 02       		.uleb128 0x2
 2544 01da 0A       		.uleb128 0xa
 2545 01db 00       		.byte	0
 2546 01dc 00       		.byte	0
 2547 01dd 24       		.uleb128 0x24
 2548 01de 898201   		.uleb128 0x4109
 2549 01e1 01       		.byte	0x1
 2550 01e2 11       		.uleb128 0x11
 2551 01e3 01       		.uleb128 0x1
 2552 01e4 9542     		.uleb128 0x2115
 2553 01e6 0C       		.uleb128 0xc
 2554 01e7 31       		.uleb128 0x31
 2555 01e8 13       		.uleb128 0x13
 2556 01e9 01       		.uleb128 0x1
 2557 01ea 13       		.uleb128 0x13
ARM GAS  /tmp/ccZd7Sj2.s 			page 46


 2558 01eb 00       		.byte	0
 2559 01ec 00       		.byte	0
 2560 01ed 25       		.uleb128 0x25
 2561 01ee 34       		.uleb128 0x34
 2562 01ef 00       		.byte	0
 2563 01f0 03       		.uleb128 0x3
 2564 01f1 0E       		.uleb128 0xe
 2565 01f2 3A       		.uleb128 0x3a
 2566 01f3 0B       		.uleb128 0xb
 2567 01f4 3B       		.uleb128 0x3b
 2568 01f5 0B       		.uleb128 0xb
 2569 01f6 49       		.uleb128 0x49
 2570 01f7 13       		.uleb128 0x13
 2571 01f8 3F       		.uleb128 0x3f
 2572 01f9 0C       		.uleb128 0xc
 2573 01fa 3C       		.uleb128 0x3c
 2574 01fb 0C       		.uleb128 0xc
 2575 01fc 00       		.byte	0
 2576 01fd 00       		.byte	0
 2577 01fe 26       		.uleb128 0x26
 2578 01ff 34       		.uleb128 0x34
 2579 0200 00       		.byte	0
 2580 0201 03       		.uleb128 0x3
 2581 0202 0E       		.uleb128 0xe
 2582 0203 3A       		.uleb128 0x3a
 2583 0204 0B       		.uleb128 0xb
 2584 0205 3B       		.uleb128 0x3b
 2585 0206 05       		.uleb128 0x5
 2586 0207 49       		.uleb128 0x49
 2587 0208 13       		.uleb128 0x13
 2588 0209 3F       		.uleb128 0x3f
 2589 020a 0C       		.uleb128 0xc
 2590 020b 3C       		.uleb128 0x3c
 2591 020c 0C       		.uleb128 0xc
 2592 020d 00       		.byte	0
 2593 020e 00       		.byte	0
 2594 020f 27       		.uleb128 0x27
 2595 0210 2E       		.uleb128 0x2e
 2596 0211 00       		.byte	0
 2597 0212 3F       		.uleb128 0x3f
 2598 0213 0C       		.uleb128 0xc
 2599 0214 03       		.uleb128 0x3
 2600 0215 0E       		.uleb128 0xe
 2601 0216 3A       		.uleb128 0x3a
 2602 0217 0B       		.uleb128 0xb
 2603 0218 3B       		.uleb128 0x3b
 2604 0219 0B       		.uleb128 0xb
 2605 021a 27       		.uleb128 0x27
 2606 021b 0C       		.uleb128 0xc
 2607 021c 3C       		.uleb128 0x3c
 2608 021d 0C       		.uleb128 0xc
 2609 021e 00       		.byte	0
 2610 021f 00       		.byte	0
 2611 0220 28       		.uleb128 0x28
 2612 0221 2E       		.uleb128 0x2e
 2613 0222 01       		.byte	0x1
 2614 0223 3F       		.uleb128 0x3f
ARM GAS  /tmp/ccZd7Sj2.s 			page 47


 2615 0224 0C       		.uleb128 0xc
 2616 0225 03       		.uleb128 0x3
 2617 0226 0E       		.uleb128 0xe
 2618 0227 3A       		.uleb128 0x3a
 2619 0228 0B       		.uleb128 0xb
 2620 0229 3B       		.uleb128 0x3b
 2621 022a 0B       		.uleb128 0xb
 2622 022b 27       		.uleb128 0x27
 2623 022c 0C       		.uleb128 0xc
 2624 022d 49       		.uleb128 0x49
 2625 022e 13       		.uleb128 0x13
 2626 022f 3C       		.uleb128 0x3c
 2627 0230 0C       		.uleb128 0xc
 2628 0231 01       		.uleb128 0x1
 2629 0232 13       		.uleb128 0x13
 2630 0233 00       		.byte	0
 2631 0234 00       		.byte	0
 2632 0235 29       		.uleb128 0x29
 2633 0236 2E       		.uleb128 0x2e
 2634 0237 01       		.byte	0x1
 2635 0238 3F       		.uleb128 0x3f
 2636 0239 0C       		.uleb128 0xc
 2637 023a 03       		.uleb128 0x3
 2638 023b 0E       		.uleb128 0xe
 2639 023c 27       		.uleb128 0x27
 2640 023d 0C       		.uleb128 0xc
 2641 023e 49       		.uleb128 0x49
 2642 023f 13       		.uleb128 0x13
 2643 0240 34       		.uleb128 0x34
 2644 0241 0C       		.uleb128 0xc
 2645 0242 3C       		.uleb128 0x3c
 2646 0243 0C       		.uleb128 0xc
 2647 0244 01       		.uleb128 0x1
 2648 0245 13       		.uleb128 0x13
 2649 0246 00       		.byte	0
 2650 0247 00       		.byte	0
 2651 0248 2A       		.uleb128 0x2a
 2652 0249 2E       		.uleb128 0x2e
 2653 024a 00       		.byte	0
 2654 024b 3F       		.uleb128 0x3f
 2655 024c 0C       		.uleb128 0xc
 2656 024d 03       		.uleb128 0x3
 2657 024e 0E       		.uleb128 0xe
 2658 024f 3A       		.uleb128 0x3a
 2659 0250 0B       		.uleb128 0xb
 2660 0251 3B       		.uleb128 0x3b
 2661 0252 05       		.uleb128 0x5
 2662 0253 27       		.uleb128 0x27
 2663 0254 0C       		.uleb128 0xc
 2664 0255 3C       		.uleb128 0x3c
 2665 0256 0C       		.uleb128 0xc
 2666 0257 00       		.byte	0
 2667 0258 00       		.byte	0
 2668 0259 2B       		.uleb128 0x2b
 2669 025a 2E       		.uleb128 0x2e
 2670 025b 01       		.byte	0x1
 2671 025c 3F       		.uleb128 0x3f
ARM GAS  /tmp/ccZd7Sj2.s 			page 48


 2672 025d 0C       		.uleb128 0xc
 2673 025e 03       		.uleb128 0x3
 2674 025f 0E       		.uleb128 0xe
 2675 0260 3A       		.uleb128 0x3a
 2676 0261 0B       		.uleb128 0xb
 2677 0262 3B       		.uleb128 0x3b
 2678 0263 05       		.uleb128 0x5
 2679 0264 27       		.uleb128 0x27
 2680 0265 0C       		.uleb128 0xc
 2681 0266 3C       		.uleb128 0x3c
 2682 0267 0C       		.uleb128 0xc
 2683 0268 01       		.uleb128 0x1
 2684 0269 13       		.uleb128 0x13
 2685 026a 00       		.byte	0
 2686 026b 00       		.byte	0
 2687 026c 2C       		.uleb128 0x2c
 2688 026d 2E       		.uleb128 0x2e
 2689 026e 01       		.byte	0x1
 2690 026f 3F       		.uleb128 0x3f
 2691 0270 0C       		.uleb128 0xc
 2692 0271 03       		.uleb128 0x3
 2693 0272 0E       		.uleb128 0xe
 2694 0273 3A       		.uleb128 0x3a
 2695 0274 0B       		.uleb128 0xb
 2696 0275 3B       		.uleb128 0x3b
 2697 0276 0B       		.uleb128 0xb
 2698 0277 27       		.uleb128 0x27
 2699 0278 0C       		.uleb128 0xc
 2700 0279 3C       		.uleb128 0x3c
 2701 027a 0C       		.uleb128 0xc
 2702 027b 01       		.uleb128 0x1
 2703 027c 13       		.uleb128 0x13
 2704 027d 00       		.byte	0
 2705 027e 00       		.byte	0
 2706 027f 2D       		.uleb128 0x2d
 2707 0280 2E       		.uleb128 0x2e
 2708 0281 01       		.byte	0x1
 2709 0282 3F       		.uleb128 0x3f
 2710 0283 0C       		.uleb128 0xc
 2711 0284 03       		.uleb128 0x3
 2712 0285 0E       		.uleb128 0xe
 2713 0286 3A       		.uleb128 0x3a
 2714 0287 0B       		.uleb128 0xb
 2715 0288 3B       		.uleb128 0x3b
 2716 0289 05       		.uleb128 0x5
 2717 028a 27       		.uleb128 0x27
 2718 028b 0C       		.uleb128 0xc
 2719 028c 49       		.uleb128 0x49
 2720 028d 13       		.uleb128 0x13
 2721 028e 3C       		.uleb128 0x3c
 2722 028f 0C       		.uleb128 0xc
 2723 0290 01       		.uleb128 0x1
 2724 0291 13       		.uleb128 0x13
 2725 0292 00       		.byte	0
 2726 0293 00       		.byte	0
 2727 0294 2E       		.uleb128 0x2e
 2728 0295 2E       		.uleb128 0x2e
ARM GAS  /tmp/ccZd7Sj2.s 			page 49


 2729 0296 01       		.byte	0x1
 2730 0297 3F       		.uleb128 0x3f
 2731 0298 0C       		.uleb128 0xc
 2732 0299 03       		.uleb128 0x3
 2733 029a 0E       		.uleb128 0xe
 2734 029b 3A       		.uleb128 0x3a
 2735 029c 0B       		.uleb128 0xb
 2736 029d 3B       		.uleb128 0x3b
 2737 029e 0B       		.uleb128 0xb
 2738 029f 27       		.uleb128 0x27
 2739 02a0 0C       		.uleb128 0xc
 2740 02a1 49       		.uleb128 0x49
 2741 02a2 13       		.uleb128 0x13
 2742 02a3 3C       		.uleb128 0x3c
 2743 02a4 0C       		.uleb128 0xc
 2744 02a5 00       		.byte	0
 2745 02a6 00       		.byte	0
 2746 02a7 00       		.byte	0
 2747              		.section	.debug_loc,"",%progbits
 2748              	.Ldebug_loc0:
 2749              	.LLST0:
 2750 0000 00000000 		.4byte	.LFB118
 2751 0004 02000000 		.4byte	.LCFI0
 2752 0008 0200     		.2byte	0x2
 2753 000a 7D       		.byte	0x7d
 2754 000b 00       		.sleb128 0
 2755 000c 02000000 		.4byte	.LCFI0
 2756 0010 1C000000 		.4byte	.LFE118
 2757 0014 0200     		.2byte	0x2
 2758 0016 7D       		.byte	0x7d
 2759 0017 08       		.sleb128 8
 2760 0018 00000000 		.4byte	0
 2761 001c 00000000 		.4byte	0
 2762              	.LLST1:
 2763 0020 00000000 		.4byte	.LFB119
 2764 0024 04000000 		.4byte	.LCFI1
 2765 0028 0200     		.2byte	0x2
 2766 002a 7D       		.byte	0x7d
 2767 002b 00       		.sleb128 0
 2768 002c 04000000 		.4byte	.LCFI1
 2769 0030 30000000 		.4byte	.LFE119
 2770 0034 0200     		.2byte	0x2
 2771 0036 7D       		.byte	0x7d
 2772 0037 10       		.sleb128 16
 2773 0038 00000000 		.4byte	0
 2774 003c 00000000 		.4byte	0
 2775              	.LLST2:
 2776 0040 00000000 		.4byte	.LVL2
 2777 0044 1E000000 		.4byte	.LVL5
 2778 0048 0100     		.2byte	0x1
 2779 004a 50       		.byte	0x50
 2780 004b 1E000000 		.4byte	.LVL5
 2781 004f 22000000 		.4byte	.LVL7
 2782 0053 0400     		.2byte	0x4
 2783 0055 F3       		.byte	0xf3
 2784 0056 01       		.uleb128 0x1
 2785 0057 50       		.byte	0x50
ARM GAS  /tmp/ccZd7Sj2.s 			page 50


 2786 0058 9F       		.byte	0x9f
 2787 0059 22000000 		.4byte	.LVL7
 2788 005d 28000000 		.4byte	.LVL8
 2789 0061 0100     		.2byte	0x1
 2790 0063 54       		.byte	0x54
 2791 0064 28000000 		.4byte	.LVL8
 2792 0068 2B000000 		.4byte	.LVL9-1
 2793 006c 0100     		.2byte	0x1
 2794 006e 51       		.byte	0x51
 2795 006f 2B000000 		.4byte	.LVL9-1
 2796 0073 30000000 		.4byte	.LFE119
 2797 0077 0400     		.2byte	0x4
 2798 0079 F3       		.byte	0xf3
 2799 007a 01       		.uleb128 0x1
 2800 007b 50       		.byte	0x50
 2801 007c 9F       		.byte	0x9f
 2802 007d 00000000 		.4byte	0
 2803 0081 00000000 		.4byte	0
 2804              	.LLST3:
 2805 0085 00000000 		.4byte	.LVL2
 2806 0089 12000000 		.4byte	.LVL3
 2807 008d 0100     		.2byte	0x1
 2808 008f 51       		.byte	0x51
 2809 0090 12000000 		.4byte	.LVL3
 2810 0094 30000000 		.4byte	.LFE119
 2811 0098 0100     		.2byte	0x1
 2812 009a 55       		.byte	0x55
 2813 009b 00000000 		.4byte	0
 2814 009f 00000000 		.4byte	0
 2815              	.LLST4:
 2816 00a3 00000000 		.4byte	.LVL2
 2817 00a7 15000000 		.4byte	.LVL4-1
 2818 00ab 0100     		.2byte	0x1
 2819 00ad 52       		.byte	0x52
 2820 00ae 15000000 		.4byte	.LVL4-1
 2821 00b2 30000000 		.4byte	.LFE119
 2822 00b6 0400     		.2byte	0x4
 2823 00b8 F3       		.byte	0xf3
 2824 00b9 01       		.uleb128 0x1
 2825 00ba 52       		.byte	0x52
 2826 00bb 9F       		.byte	0x9f
 2827 00bc 00000000 		.4byte	0
 2828 00c0 00000000 		.4byte	0
 2829              	.LLST5:
 2830 00c4 16000000 		.4byte	.LVL4
 2831 00c8 20000000 		.4byte	.LVL6
 2832 00cc 0100     		.2byte	0x1
 2833 00ce 50       		.byte	0x50
 2834 00cf 20000000 		.4byte	.LVL6
 2835 00d3 22000000 		.4byte	.LVL7
 2836 00d7 0100     		.2byte	0x1
 2837 00d9 56       		.byte	0x56
 2838 00da 22000000 		.4byte	.LVL7
 2839 00de 2B000000 		.4byte	.LVL9-1
 2840 00e2 0100     		.2byte	0x1
 2841 00e4 50       		.byte	0x50
 2842 00e5 2B000000 		.4byte	.LVL9-1
ARM GAS  /tmp/ccZd7Sj2.s 			page 51


 2843 00e9 30000000 		.4byte	.LFE119
 2844 00ed 0100     		.2byte	0x1
 2845 00ef 56       		.byte	0x56
 2846 00f0 00000000 		.4byte	0
 2847 00f4 00000000 		.4byte	0
 2848              	.LLST6:
 2849 00f8 00000000 		.4byte	.LVL10
 2850 00fc 07000000 		.4byte	.LVL11-1
 2851 0100 0100     		.2byte	0x1
 2852 0102 50       		.byte	0x50
 2853 0103 07000000 		.4byte	.LVL11-1
 2854 0107 08000000 		.4byte	.LVL11
 2855 010b 0400     		.2byte	0x4
 2856 010d F3       		.byte	0xf3
 2857 010e 01       		.uleb128 0x1
 2858 010f 50       		.byte	0x50
 2859 0110 9F       		.byte	0x9f
 2860 0111 08000000 		.4byte	.LVL11
 2861 0115 18000000 		.4byte	.LVL12
 2862 0119 0100     		.2byte	0x1
 2863 011b 50       		.byte	0x50
 2864 011c 18000000 		.4byte	.LVL12
 2865 0120 2A000000 		.4byte	.LFE120
 2866 0124 0400     		.2byte	0x4
 2867 0126 F3       		.byte	0xf3
 2868 0127 01       		.uleb128 0x1
 2869 0128 50       		.byte	0x50
 2870 0129 9F       		.byte	0x9f
 2871 012a 00000000 		.4byte	0
 2872 012e 00000000 		.4byte	0
 2873              	.LLST7:
 2874 0132 00000000 		.4byte	.LVL14
 2875 0136 16000000 		.4byte	.LVL15
 2876 013a 0100     		.2byte	0x1
 2877 013c 50       		.byte	0x50
 2878 013d 16000000 		.4byte	.LVL15
 2879 0141 1C000000 		.4byte	.LVL16
 2880 0145 0300     		.2byte	0x3
 2881 0147 71       		.byte	0x71
 2882 0148 7F       		.sleb128 -1
 2883 0149 9F       		.byte	0x9f
 2884 014a 1C000000 		.4byte	.LVL16
 2885 014e 28000000 		.4byte	.LFE121
 2886 0152 0400     		.2byte	0x4
 2887 0154 F3       		.byte	0xf3
 2888 0155 01       		.uleb128 0x1
 2889 0156 50       		.byte	0x50
 2890 0157 9F       		.byte	0x9f
 2891 0158 00000000 		.4byte	0
 2892 015c 00000000 		.4byte	0
 2893              	.LLST8:
 2894 0160 00000000 		.4byte	.LVL18
 2895 0164 0B000000 		.4byte	.LVL20-1
 2896 0168 0100     		.2byte	0x1
 2897 016a 50       		.byte	0x50
 2898 016b 0B000000 		.4byte	.LVL20-1
 2899 016f 0C000000 		.4byte	.LFE122
ARM GAS  /tmp/ccZd7Sj2.s 			page 52


 2900 0173 0400     		.2byte	0x4
 2901 0175 F3       		.byte	0xf3
 2902 0176 01       		.uleb128 0x1
 2903 0177 50       		.byte	0x50
 2904 0178 9F       		.byte	0x9f
 2905 0179 00000000 		.4byte	0
 2906 017d 00000000 		.4byte	0
 2907              	.LLST9:
 2908 0181 00000000 		.4byte	.LVL18
 2909 0185 00000000 		.4byte	.LVL18
 2910 0189 0100     		.2byte	0x1
 2911 018b 51       		.byte	0x51
 2912 018c 00000000 		.4byte	.LVL18
 2913 0190 06000000 		.4byte	.LVL19
 2914 0194 0E00     		.2byte	0xe
 2915 0196 72       		.byte	0x72
 2916 0197 00       		.sleb128 0
 2917 0198 12       		.byte	0x12
 2918 0199 71       		.byte	0x71
 2919 019a 00       		.sleb128 0
 2920 019b 16       		.byte	0x16
 2921 019c 14       		.byte	0x14
 2922 019d 2D       		.byte	0x2d
 2923 019e 28       		.byte	0x28
 2924 019f 0100     		.2byte	0x1
 2925 01a1 16       		.byte	0x16
 2926 01a2 13       		.byte	0x13
 2927 01a3 9F       		.byte	0x9f
 2928 01a4 06000000 		.4byte	.LVL19
 2929 01a8 0B000000 		.4byte	.LVL20-1
 2930 01ac 0100     		.2byte	0x1
 2931 01ae 51       		.byte	0x51
 2932 01af 0B000000 		.4byte	.LVL20-1
 2933 01b3 0C000000 		.4byte	.LFE122
 2934 01b7 1000     		.2byte	0x10
 2935 01b9 F3       		.byte	0xf3
 2936 01ba 01       		.uleb128 0x1
 2937 01bb 52       		.byte	0x52
 2938 01bc 12       		.byte	0x12
 2939 01bd F3       		.byte	0xf3
 2940 01be 01       		.uleb128 0x1
 2941 01bf 51       		.byte	0x51
 2942 01c0 16       		.byte	0x16
 2943 01c1 14       		.byte	0x14
 2944 01c2 2D       		.byte	0x2d
 2945 01c3 28       		.byte	0x28
 2946 01c4 0100     		.2byte	0x1
 2947 01c6 16       		.byte	0x16
 2948 01c7 13       		.byte	0x13
 2949 01c8 9F       		.byte	0x9f
 2950 01c9 00000000 		.4byte	0
 2951 01cd 00000000 		.4byte	0
 2952              	.LLST10:
 2953 01d1 00000000 		.4byte	.LVL18
 2954 01d5 0B000000 		.4byte	.LVL20-1
 2955 01d9 0100     		.2byte	0x1
 2956 01db 52       		.byte	0x52
ARM GAS  /tmp/ccZd7Sj2.s 			page 53


 2957 01dc 0B000000 		.4byte	.LVL20-1
 2958 01e0 0C000000 		.4byte	.LFE122
 2959 01e4 0400     		.2byte	0x4
 2960 01e6 F3       		.byte	0xf3
 2961 01e7 01       		.uleb128 0x1
 2962 01e8 52       		.byte	0x52
 2963 01e9 9F       		.byte	0x9f
 2964 01ea 00000000 		.4byte	0
 2965 01ee 00000000 		.4byte	0
 2966              	.LLST11:
 2967 01f2 00000000 		.4byte	.LVL21
 2968 01f6 05000000 		.4byte	.LVL22-1
 2969 01fa 0100     		.2byte	0x1
 2970 01fc 50       		.byte	0x50
 2971 01fd 05000000 		.4byte	.LVL22-1
 2972 0201 06000000 		.4byte	.LFE123
 2973 0205 0400     		.2byte	0x4
 2974 0207 F3       		.byte	0xf3
 2975 0208 01       		.uleb128 0x1
 2976 0209 50       		.byte	0x50
 2977 020a 9F       		.byte	0x9f
 2978 020b 00000000 		.4byte	0
 2979 020f 00000000 		.4byte	0
 2980              	.LLST12:
 2981 0213 00000000 		.4byte	.LFB124
 2982 0217 02000000 		.4byte	.LCFI2
 2983 021b 0200     		.2byte	0x2
 2984 021d 7D       		.byte	0x7d
 2985 021e 00       		.sleb128 0
 2986 021f 02000000 		.4byte	.LCFI2
 2987 0223 34000000 		.4byte	.LFE124
 2988 0227 0200     		.2byte	0x2
 2989 0229 7D       		.byte	0x7d
 2990 022a 08       		.sleb128 8
 2991 022b 00000000 		.4byte	0
 2992 022f 00000000 		.4byte	0
 2993              	.LLST13:
 2994 0233 00000000 		.4byte	.LVL23
 2995 0237 23000000 		.4byte	.LVL25-1
 2996 023b 0100     		.2byte	0x1
 2997 023d 50       		.byte	0x50
 2998 023e 23000000 		.4byte	.LVL25-1
 2999 0242 2C000000 		.4byte	.LVL26
 3000 0246 0400     		.2byte	0x4
 3001 0248 F3       		.byte	0xf3
 3002 0249 01       		.uleb128 0x1
 3003 024a 50       		.byte	0x50
 3004 024b 9F       		.byte	0x9f
 3005 024c 2C000000 		.4byte	.LVL26
 3006 0250 2F000000 		.4byte	.LVL27-1
 3007 0254 0100     		.2byte	0x1
 3008 0256 50       		.byte	0x50
 3009 0257 2F000000 		.4byte	.LVL27-1
 3010 025b 34000000 		.4byte	.LFE124
 3011 025f 0400     		.2byte	0x4
 3012 0261 F3       		.byte	0xf3
 3013 0262 01       		.uleb128 0x1
ARM GAS  /tmp/ccZd7Sj2.s 			page 54


 3014 0263 50       		.byte	0x50
 3015 0264 9F       		.byte	0x9f
 3016 0265 00000000 		.4byte	0
 3017 0269 00000000 		.4byte	0
 3018              	.LLST14:
 3019 026d 00000000 		.4byte	.LVL23
 3020 0271 0E000000 		.4byte	.LVL24
 3021 0275 0100     		.2byte	0x1
 3022 0277 51       		.byte	0x51
 3023 0278 0E000000 		.4byte	.LVL24
 3024 027c 2C000000 		.4byte	.LVL26
 3025 0280 0400     		.2byte	0x4
 3026 0282 F3       		.byte	0xf3
 3027 0283 01       		.uleb128 0x1
 3028 0284 51       		.byte	0x51
 3029 0285 9F       		.byte	0x9f
 3030 0286 2C000000 		.4byte	.LVL26
 3031 028a 2F000000 		.4byte	.LVL27-1
 3032 028e 0100     		.2byte	0x1
 3033 0290 51       		.byte	0x51
 3034 0291 2F000000 		.4byte	.LVL27-1
 3035 0295 34000000 		.4byte	.LFE124
 3036 0299 0400     		.2byte	0x4
 3037 029b F3       		.byte	0xf3
 3038 029c 01       		.uleb128 0x1
 3039 029d 51       		.byte	0x51
 3040 029e 9F       		.byte	0x9f
 3041 029f 00000000 		.4byte	0
 3042 02a3 00000000 		.4byte	0
 3043              	.LLST15:
 3044 02a7 00000000 		.4byte	.LFB125
 3045 02ab 02000000 		.4byte	.LCFI3
 3046 02af 0200     		.2byte	0x2
 3047 02b1 7D       		.byte	0x7d
 3048 02b2 00       		.sleb128 0
 3049 02b3 02000000 		.4byte	.LCFI3
 3050 02b7 20000000 		.4byte	.LFE125
 3051 02bb 0200     		.2byte	0x2
 3052 02bd 7D       		.byte	0x7d
 3053 02be 08       		.sleb128 8
 3054 02bf 00000000 		.4byte	0
 3055 02c3 00000000 		.4byte	0
 3056              	.LLST16:
 3057 02c7 00000000 		.4byte	.LVL28
 3058 02cb 13000000 		.4byte	.LVL32-1
 3059 02cf 0100     		.2byte	0x1
 3060 02d1 50       		.byte	0x50
 3061 02d2 13000000 		.4byte	.LVL32-1
 3062 02d6 20000000 		.4byte	.LFE125
 3063 02da 0400     		.2byte	0x4
 3064 02dc F3       		.byte	0xf3
 3065 02dd 01       		.uleb128 0x1
 3066 02de 50       		.byte	0x50
 3067 02df 9F       		.byte	0x9f
 3068 02e0 00000000 		.4byte	0
 3069 02e4 00000000 		.4byte	0
 3070              	.LLST17:
ARM GAS  /tmp/ccZd7Sj2.s 			page 55


 3071 02e8 08000000 		.4byte	.LVL30
 3072 02ec 0C000000 		.4byte	.LVL31
 3073 02f0 0100     		.2byte	0x1
 3074 02f2 53       		.byte	0x53
 3075 02f3 00000000 		.4byte	0
 3076 02f7 00000000 		.4byte	0
 3077              	.LLST18:
 3078 02fb 1E000000 		.4byte	.LVL35
 3079 02ff 20000000 		.4byte	.LFE125
 3080 0303 0100     		.2byte	0x1
 3081 0305 53       		.byte	0x53
 3082 0306 00000000 		.4byte	0
 3083 030a 00000000 		.4byte	0
 3084              	.LLST19:
 3085 030e 00000000 		.4byte	.LVL36
 3086 0312 0D000000 		.4byte	.LVL37-1
 3087 0316 0100     		.2byte	0x1
 3088 0318 50       		.byte	0x50
 3089 0319 0D000000 		.4byte	.LVL37-1
 3090 031d 0E000000 		.4byte	.LFE126
 3091 0321 0400     		.2byte	0x4
 3092 0323 F3       		.byte	0xf3
 3093 0324 01       		.uleb128 0x1
 3094 0325 50       		.byte	0x50
 3095 0326 9F       		.byte	0x9f
 3096 0327 00000000 		.4byte	0
 3097 032b 00000000 		.4byte	0
 3098              	.LLST20:
 3099 032f 00000000 		.4byte	.LFB127
 3100 0333 02000000 		.4byte	.LCFI4
 3101 0337 0200     		.2byte	0x2
 3102 0339 7D       		.byte	0x7d
 3103 033a 00       		.sleb128 0
 3104 033b 02000000 		.4byte	.LCFI4
 3105 033f 26000000 		.4byte	.LFE127
 3106 0343 0200     		.2byte	0x2
 3107 0345 7D       		.byte	0x7d
 3108 0346 08       		.sleb128 8
 3109 0347 00000000 		.4byte	0
 3110 034b 00000000 		.4byte	0
 3111              	.LLST21:
 3112 034f 00000000 		.4byte	.LVL38
 3113 0353 11000000 		.4byte	.LVL39-1
 3114 0357 0100     		.2byte	0x1
 3115 0359 50       		.byte	0x50
 3116 035a 11000000 		.4byte	.LVL39-1
 3117 035e 12000000 		.4byte	.LVL39
 3118 0362 0400     		.2byte	0x4
 3119 0364 F3       		.byte	0xf3
 3120 0365 01       		.uleb128 0x1
 3121 0366 50       		.byte	0x50
 3122 0367 9F       		.byte	0x9f
 3123 0368 12000000 		.4byte	.LVL39
 3124 036c 14000000 		.4byte	.LVL40
 3125 0370 0100     		.2byte	0x1
 3126 0372 50       		.byte	0x50
 3127 0373 14000000 		.4byte	.LVL40
ARM GAS  /tmp/ccZd7Sj2.s 			page 56


 3128 0377 18000000 		.4byte	.LVL41
 3129 037b 0400     		.2byte	0x4
 3130 037d F3       		.byte	0xf3
 3131 037e 01       		.uleb128 0x1
 3132 037f 50       		.byte	0x50
 3133 0380 9F       		.byte	0x9f
 3134 0381 18000000 		.4byte	.LVL41
 3135 0385 25000000 		.4byte	.LVL43-1
 3136 0389 0100     		.2byte	0x1
 3137 038b 50       		.byte	0x50
 3138 038c 25000000 		.4byte	.LVL43-1
 3139 0390 26000000 		.4byte	.LFE127
 3140 0394 0400     		.2byte	0x4
 3141 0396 F3       		.byte	0xf3
 3142 0397 01       		.uleb128 0x1
 3143 0398 50       		.byte	0x50
 3144 0399 9F       		.byte	0x9f
 3145 039a 00000000 		.4byte	0
 3146 039e 00000000 		.4byte	0
 3147              	.LLST22:
 3148 03a2 00000000 		.4byte	.LVL38
 3149 03a6 11000000 		.4byte	.LVL39-1
 3150 03aa 0100     		.2byte	0x1
 3151 03ac 51       		.byte	0x51
 3152 03ad 11000000 		.4byte	.LVL39-1
 3153 03b1 12000000 		.4byte	.LVL39
 3154 03b5 0100     		.2byte	0x1
 3155 03b7 54       		.byte	0x54
 3156 03b8 12000000 		.4byte	.LVL39
 3157 03bc 20000000 		.4byte	.LVL42
 3158 03c0 0100     		.2byte	0x1
 3159 03c2 51       		.byte	0x51
 3160 03c3 20000000 		.4byte	.LVL42
 3161 03c7 26000000 		.4byte	.LFE127
 3162 03cb 0100     		.2byte	0x1
 3163 03cd 54       		.byte	0x54
 3164 03ce 00000000 		.4byte	0
 3165 03d2 00000000 		.4byte	0
 3166              	.LLST23:
 3167 03d6 00000000 		.4byte	.LVL38
 3168 03da 11000000 		.4byte	.LVL39-1
 3169 03de 0100     		.2byte	0x1
 3170 03e0 52       		.byte	0x52
 3171 03e1 11000000 		.4byte	.LVL39-1
 3172 03e5 12000000 		.4byte	.LVL39
 3173 03e9 0400     		.2byte	0x4
 3174 03eb F3       		.byte	0xf3
 3175 03ec 01       		.uleb128 0x1
 3176 03ed 52       		.byte	0x52
 3177 03ee 9F       		.byte	0x9f
 3178 03ef 12000000 		.4byte	.LVL39
 3179 03f3 25000000 		.4byte	.LVL43-1
 3180 03f7 0100     		.2byte	0x1
 3181 03f9 52       		.byte	0x52
 3182 03fa 25000000 		.4byte	.LVL43-1
 3183 03fe 26000000 		.4byte	.LFE127
 3184 0402 0400     		.2byte	0x4
ARM GAS  /tmp/ccZd7Sj2.s 			page 57


 3185 0404 F3       		.byte	0xf3
 3186 0405 01       		.uleb128 0x1
 3187 0406 52       		.byte	0x52
 3188 0407 9F       		.byte	0x9f
 3189 0408 00000000 		.4byte	0
 3190 040c 00000000 		.4byte	0
 3191              	.LLST24:
 3192 0410 00000000 		.4byte	.LVL38
 3193 0414 11000000 		.4byte	.LVL39-1
 3194 0418 0100     		.2byte	0x1
 3195 041a 53       		.byte	0x53
 3196 041b 11000000 		.4byte	.LVL39-1
 3197 041f 12000000 		.4byte	.LVL39
 3198 0423 0400     		.2byte	0x4
 3199 0425 F3       		.byte	0xf3
 3200 0426 01       		.uleb128 0x1
 3201 0427 53       		.byte	0x53
 3202 0428 9F       		.byte	0x9f
 3203 0429 12000000 		.4byte	.LVL39
 3204 042d 25000000 		.4byte	.LVL43-1
 3205 0431 0100     		.2byte	0x1
 3206 0433 53       		.byte	0x53
 3207 0434 25000000 		.4byte	.LVL43-1
 3208 0438 26000000 		.4byte	.LFE127
 3209 043c 0400     		.2byte	0x4
 3210 043e F3       		.byte	0xf3
 3211 043f 01       		.uleb128 0x1
 3212 0440 53       		.byte	0x53
 3213 0441 9F       		.byte	0x9f
 3214 0442 00000000 		.4byte	0
 3215 0446 00000000 		.4byte	0
 3216              		.section	.debug_aranges,"",%progbits
 3217 0000 64000000 		.4byte	0x64
 3218 0004 0200     		.2byte	0x2
 3219 0006 00000000 		.4byte	.Ldebug_info0
 3220 000a 04       		.byte	0x4
 3221 000b 00       		.byte	0
 3222 000c 0000     		.2byte	0
 3223 000e 0000     		.2byte	0
 3224 0010 00000000 		.4byte	.LFB118
 3225 0014 1C000000 		.4byte	.LFE118-.LFB118
 3226 0018 00000000 		.4byte	.LFB119
 3227 001c 30000000 		.4byte	.LFE119-.LFB119
 3228 0020 00000000 		.4byte	.LFB120
 3229 0024 2A000000 		.4byte	.LFE120-.LFB120
 3230 0028 00000000 		.4byte	.LFB121
 3231 002c 28000000 		.4byte	.LFE121-.LFB121
 3232 0030 00000000 		.4byte	.LFB122
 3233 0034 0C000000 		.4byte	.LFE122-.LFB122
 3234 0038 00000000 		.4byte	.LFB123
 3235 003c 06000000 		.4byte	.LFE123-.LFB123
 3236 0040 00000000 		.4byte	.LFB124
 3237 0044 34000000 		.4byte	.LFE124-.LFB124
 3238 0048 00000000 		.4byte	.LFB125
 3239 004c 20000000 		.4byte	.LFE125-.LFB125
 3240 0050 00000000 		.4byte	.LFB126
 3241 0054 0E000000 		.4byte	.LFE126-.LFB126
ARM GAS  /tmp/ccZd7Sj2.s 			page 58


 3242 0058 00000000 		.4byte	.LFB127
 3243 005c 26000000 		.4byte	.LFE127-.LFB127
 3244 0060 00000000 		.4byte	0
 3245 0064 00000000 		.4byte	0
 3246              		.section	.debug_ranges,"",%progbits
 3247              	.Ldebug_ranges0:
 3248 0000 00000000 		.4byte	.LFB118
 3249 0004 1C000000 		.4byte	.LFE118
 3250 0008 00000000 		.4byte	.LFB119
 3251 000c 30000000 		.4byte	.LFE119
 3252 0010 00000000 		.4byte	.LFB120
 3253 0014 2A000000 		.4byte	.LFE120
 3254 0018 00000000 		.4byte	.LFB121
 3255 001c 28000000 		.4byte	.LFE121
 3256 0020 00000000 		.4byte	.LFB122
 3257 0024 0C000000 		.4byte	.LFE122
 3258 0028 00000000 		.4byte	.LFB123
 3259 002c 06000000 		.4byte	.LFE123
 3260 0030 00000000 		.4byte	.LFB124
 3261 0034 34000000 		.4byte	.LFE124
 3262 0038 00000000 		.4byte	.LFB125
 3263 003c 20000000 		.4byte	.LFE125
 3264 0040 00000000 		.4byte	.LFB126
 3265 0044 0E000000 		.4byte	.LFE126
 3266 0048 00000000 		.4byte	.LFB127
 3267 004c 26000000 		.4byte	.LFE127
 3268 0050 00000000 		.4byte	0
 3269 0054 00000000 		.4byte	0
 3270              		.section	.debug_line,"",%progbits
 3271              	.Ldebug_line0:
 3272 0000 E9020000 		.section	.debug_str,"MS",%progbits,1
 3272      02000A02 
 3272      00000201 
 3272      FB0E0D00 
 3272      01010101 
 3273              	.LASF81:
 3274 0000 7466756E 		.ascii	"tfunc_t\000"
 3274      635F7400 
 3275              	.LASF85:
 3276 0008 74687265 		.ascii	"threadpriority_t\000"
 3276      61647072 
 3276      696F7269 
 3276      74795F74 
 3276      00
 3277              	.LASF2:
 3278 0019 73697A65 		.ascii	"size_t\000"
 3278      5F7400
 3279              	.LASF76:
 3280 0020 7264796D 		.ascii	"rdymsg\000"
 3280      736700
 3281              	.LASF12:
 3282 0027 75696E74 		.ascii	"uint64_t\000"
 3282      36345F74 
 3282      00
 3283              	.LASF66:
 3284 0030 6D656D67 		.ascii	"memgetfunc_t\000"
 3284      65746675 
ARM GAS  /tmp/ccZd7Sj2.s 			page 59


 3284      6E635F74 
 3284      00
 3285              	.LASF13:
 3286 003d 6C6F6E67 		.ascii	"long long unsigned int\000"
 3286      206C6F6E 
 3286      6720756E 
 3286      7369676E 
 3286      65642069 
 3287              	.LASF91:
 3288 0054 5F676F73 		.ascii	"_gosInit\000"
 3288      496E6974 
 3288      00
 3289              	.LASF77:
 3290 005d 65786974 		.ascii	"exitcode\000"
 3290      636F6465 
 3290      00
 3291              	.LASF70:
 3292 0066 685F6672 		.ascii	"h_free\000"
 3292      656500
 3293              	.LASF86:
 3294 006d 6C696D69 		.ascii	"limit\000"
 3294      7400
 3295              	.LASF107:
 3296 0073 49544D5F 		.ascii	"ITM_RxBuffer\000"
 3296      52784275 
 3296      66666572 
 3296      00
 3297              	.LASF100:
 3298 0080 67667853 		.ascii	"gfxSemSignalI\000"
 3298      656D5369 
 3298      676E616C 
 3298      4900
 3299              	.LASF72:
 3300 008e 6E657874 		.ascii	"next\000"
 3300      00
 3301              	.LASF28:
 3302 0093 705F7072 		.ascii	"p_prio\000"
 3302      696F00
 3303              	.LASF11:
 3304 009a 6C6F6E67 		.ascii	"long long int\000"
 3304      206C6F6E 
 3304      6720696E 
 3304      7400
 3305              	.LASF1:
 3306 00a8 7369676E 		.ascii	"signed char\000"
 3306      65642063 
 3306      68617200 
 3307              	.LASF71:
 3308 00b4 685F6D74 		.ascii	"h_mtx\000"
 3308      7800
 3309              	.LASF109:
 3310 00ba 63685379 		.ascii	"chSysInit\000"
 3310      73496E69 
 3310      7400
 3311              	.LASF44:
 3312 00c4 705F6D70 		.ascii	"p_mpool\000"
 3312      6F6F6C00 
ARM GAS  /tmp/ccZd7Sj2.s 			page 60


 3313              	.LASF14:
 3314 00cc 626F6F6C 		.ascii	"bool_t\000"
 3314      5F7400
 3315              	.LASF63:
 3316 00d3 6D5F7175 		.ascii	"m_queue\000"
 3316      65756500 
 3317              	.LASF19:
 3318 00db 74736C69 		.ascii	"tslices_t\000"
 3318      6365735F 
 3318      7400
 3319              	.LASF88:
 3320 00e5 67667854 		.ascii	"gfxThreadHandle\000"
 3320      68726561 
 3320      6448616E 
 3320      646C6500 
 3321              	.LASF8:
 3322 00f5 6C6F6E67 		.ascii	"long int\000"
 3322      20696E74 
 3322      00
 3323              	.LASF121:
 3324 00fe 63685468 		.ascii	"chThdCreateFromHeap\000"
 3324      64437265 
 3324      61746546 
 3324      726F6D48 
 3324      65617000 
 3325              	.LASF17:
 3326 0112 74737461 		.ascii	"tstate_t\000"
 3326      74655F74 
 3326      00
 3327              	.LASF103:
 3328 011b 73746163 		.ascii	"stacksz\000"
 3328      6B737A00 
 3329              	.LASF30:
 3330 0123 705F6E65 		.ascii	"p_newer\000"
 3330      77657200 
 3331              	.LASF60:
 3332 012b 735F7175 		.ascii	"s_queue\000"
 3332      65756500 
 3333              	.LASF119:
 3334 0133 63685363 		.ascii	"chSchRescheduleS\000"
 3334      68526573 
 3334      63686564 
 3334      756C6553 
 3334      00
 3335              	.LASF98:
 3336 0144 67667853 		.ascii	"gfxSemWait\000"
 3336      656D5761 
 3336      697400
 3337              	.LASF55:
 3338 014f 725F6E65 		.ascii	"r_newer\000"
 3338      77657200 
 3339              	.LASF47:
 3340 0157 72656761 		.ascii	"regarm_t\000"
 3340      726D5F74 
 3340      00
 3341              	.LASF74:
 3342 0160 616C6967 		.ascii	"align\000"
ARM GAS  /tmp/ccZd7Sj2.s 			page 61


 3342      6E00
 3343              	.LASF24:
 3344 0166 636E745F 		.ascii	"cnt_t\000"
 3344      7400
 3345              	.LASF0:
 3346 016c 756E7369 		.ascii	"unsigned int\000"
 3346      676E6564 
 3346      20696E74 
 3346      00
 3347              	.LASF90:
 3348 0179 6E657773 		.ascii	"newsz\000"
 3348      7A00
 3349              	.LASF37:
 3350 017f 705F7469 		.ascii	"p_time\000"
 3350      6D6500
 3351              	.LASF39:
 3352 0186 705F6D73 		.ascii	"p_msgqueue\000"
 3352      67717565 
 3352      756500
 3353              	.LASF108:
 3354 0191 68616C49 		.ascii	"halInit\000"
 3354      6E697400 
 3355              	.LASF97:
 3356 0199 67667852 		.ascii	"gfxRealloc\000"
 3356      65616C6C 
 3356      6F6300
 3357              	.LASF61:
 3358 01a4 735F636E 		.ascii	"s_cnt\000"
 3358      7400
 3359              	.LASF75:
 3360 01aa 73697A65 		.ascii	"size\000"
 3360      00
 3361              	.LASF6:
 3362 01af 73686F72 		.ascii	"short unsigned int\000"
 3362      7420756E 
 3362      7369676E 
 3362      65642069 
 3362      6E7400
 3363              	.LASF114:
 3364 01c2 63685365 		.ascii	"chSemReset\000"
 3364      6D526573 
 3364      657400
 3365              	.LASF123:
 3366 01cd 2E2E2F2E 		.ascii	"../../ext/ugfx/src/gos/chibios.c\000"
 3366      2E2F6578 
 3366      742F7567 
 3366      66782F73 
 3366      72632F67 
 3367              	.LASF21:
 3368 01ee 6D73675F 		.ascii	"msg_t\000"
 3368      7400
 3369              	.LASF16:
 3370 01f4 746D6F64 		.ascii	"tmode_t\000"
 3370      655F7400 
 3371              	.LASF46:
 3372 01fc 54687265 		.ascii	"ThreadsList\000"
 3372      6164734C 
ARM GAS  /tmp/ccZd7Sj2.s 			page 62


 3372      69737400 
 3373              	.LASF22:
 3374 0208 6576656E 		.ascii	"eventmask_t\000"
 3374      746D6173 
 3374      6B5F7400 
 3375              	.LASF116:
 3376 0214 63685365 		.ascii	"chSemWaitTimeout\000"
 3376      6D576169 
 3376      7454696D 
 3376      656F7574 
 3376      00
 3377              	.LASF122:
 3378 0225 474E5520 		.ascii	"GNU C 4.7.4 20130613 (release) [ARM/embedded-4_7-br"
 3378      4320342E 
 3378      372E3420 
 3378      32303133 
 3378      30363133 
 3379 0258 616E6368 		.ascii	"anch revision 200083]\000"
 3379      20726576 
 3379      6973696F 
 3379      6E203230 
 3379      30303833 
 3380              	.LASF48:
 3381 026e 73746B61 		.ascii	"stkalign_t\000"
 3381      6C69676E 
 3381      5F7400
 3382              	.LASF94:
 3383 0279 67667853 		.ascii	"gfxSemInit\000"
 3383      656D496E 
 3383      697400
 3384              	.LASF120:
 3385 0284 63685468 		.ascii	"chThdCreateStatic\000"
 3385      64437265 
 3385      61746553 
 3385      74617469 
 3385      6300
 3386              	.LASF93:
 3387 0296 67667853 		.ascii	"gfxSleepMicroseconds\000"
 3387      6C656570 
 3387      4D696372 
 3387      6F736563 
 3387      6F6E6473 
 3388              	.LASF51:
 3389 02ab 73697A65 		.ascii	"sizetype\000"
 3389      74797065 
 3389      00
 3390              	.LASF62:
 3391 02b4 4D757465 		.ascii	"Mutex\000"
 3391      7800
 3392              	.LASF105:
 3393 02ba 70617261 		.ascii	"param\000"
 3393      6D00
 3394              	.LASF31:
 3395 02c0 705F6F6C 		.ascii	"p_older\000"
 3395      64657200 
 3396              	.LASF54:
 3397 02c8 725F6374 		.ascii	"r_ctx\000"
ARM GAS  /tmp/ccZd7Sj2.s 			page 63


 3397      7800
 3398              	.LASF83:
 3399 02ce 73656D63 		.ascii	"semcount_t\000"
 3399      6F756E74 
 3399      5F7400
 3400              	.LASF45:
 3401 02d9 54687265 		.ascii	"ThreadsQueue\000"
 3401      61647351 
 3401      75657565 
 3401      00
 3402              	.LASF101:
 3403 02e6 67667854 		.ascii	"gfxThreadCreate\000"
 3403      68726561 
 3403      64437265 
 3403      61746500 
 3404              	.LASF104:
 3405 02f6 7072696F 		.ascii	"prio\000"
 3405      00
 3406              	.LASF56:
 3407 02fb 725F6F6C 		.ascii	"r_older\000"
 3407      64657200 
 3408              	.LASF67:
 3409 0303 4D656D6F 		.ascii	"MemoryHeap\000"
 3409      72794865 
 3409      617000
 3410              	.LASF96:
 3411 030e 67667853 		.ascii	"gfxSemDestroy\000"
 3411      656D4465 
 3411      7374726F 
 3411      7900
 3412              	.LASF18:
 3413 031c 74726566 		.ascii	"trefs_t\000"
 3413      735F7400 
 3414              	.LASF27:
 3415 0324 705F7072 		.ascii	"p_prev\000"
 3415      657600
 3416              	.LASF89:
 3417 032b 6F6C6473 		.ascii	"oldsz\000"
 3417      7A00
 3418              	.LASF20:
 3419 0331 74707269 		.ascii	"tprio_t\000"
 3419      6F5F7400 
 3420              	.LASF15:
 3421 0339 5F426F6F 		.ascii	"_Bool\000"
 3421      6C00
 3422              	.LASF7:
 3423 033f 696E7433 		.ascii	"int32_t\000"
 3423      325F7400 
 3424              	.LASF4:
 3425 0347 756E7369 		.ascii	"unsigned char\000"
 3425      676E6564 
 3425      20636861 
 3425      7200
 3426              	.LASF125:
 3427 0355 68656170 		.ascii	"heap_header\000"
 3427      5F686561 
 3427      64657200 
ARM GAS  /tmp/ccZd7Sj2.s 			page 64


 3428              	.LASF84:
 3429 0361 74687265 		.ascii	"threadreturn_t\000"
 3429      61647265 
 3429      7475726E 
 3429      5F7400
 3430              	.LASF124:
 3431 0370 2F686F6D 		.ascii	"/home/witold/Dokumenty/arm/ChibiOS-master/APP/smtm3"
 3431      652F7769 
 3431      746F6C64 
 3431      2F446F6B 
 3431      756D656E 
 3432 03a3 3266345F 		.ascii	"2f4_lcd_ds18b20\000"
 3432      6C63645F 
 3432      64733138 
 3432      62323000 
 3433              	.LASF42:
 3434 03b3 705F6D74 		.ascii	"p_mtxlist\000"
 3434      786C6973 
 3434      7400
 3435              	.LASF5:
 3436 03bd 73686F72 		.ascii	"short int\000"
 3436      7420696E 
 3436      7400
 3437              	.LASF33:
 3438 03c7 705F7374 		.ascii	"p_state\000"
 3438      61746500 
 3439              	.LASF36:
 3440 03cf 705F7072 		.ascii	"p_preempt\000"
 3440      65656D70 
 3440      7400
 3441              	.LASF53:
 3442 03d9 725F7072 		.ascii	"r_prio\000"
 3442      696F00
 3443              	.LASF79:
 3444 03e0 65776D61 		.ascii	"ewmask\000"
 3444      736B00
 3445              	.LASF26:
 3446 03e7 705F6E65 		.ascii	"p_next\000"
 3446      787400
 3447              	.LASF34:
 3448 03ee 705F666C 		.ascii	"p_flags\000"
 3448      61677300 
 3449              	.LASF25:
 3450 03f6 54687265 		.ascii	"Thread\000"
 3450      616400
 3451              	.LASF115:
 3452 03fd 63684865 		.ascii	"chHeapAlloc\000"
 3452      6170416C 
 3452      6C6F6300 
 3453              	.LASF87:
 3454 0409 67667853 		.ascii	"gfxSem\000"
 3454      656D00
 3455              	.LASF41:
 3456 0410 705F6570 		.ascii	"p_epending\000"
 3456      656E6469 
 3456      6E6700
 3457              	.LASF9:
ARM GAS  /tmp/ccZd7Sj2.s 			page 65


 3458 041b 75696E74 		.ascii	"uint32_t\000"
 3458      33325F74 
 3458      00
 3459              	.LASF52:
 3460 0424 725F7175 		.ascii	"r_queue\000"
 3460      65756500 
 3461              	.LASF73:
 3462 042c 68656170 		.ascii	"heap\000"
 3462      00
 3463              	.LASF10:
 3464 0431 6C6F6E67 		.ascii	"long unsigned int\000"
 3464      20756E73 
 3464      69676E65 
 3464      6420696E 
 3464      7400
 3465              	.LASF57:
 3466 0443 725F6375 		.ascii	"r_current\000"
 3466      7272656E 
 3466      7400
 3467              	.LASF80:
 3468 044d 63686172 		.ascii	"char\000"
 3468      00
 3469              	.LASF82:
 3470 0452 64656C61 		.ascii	"delaytime_t\000"
 3470      7974696D 
 3470      655F7400 
 3471              	.LASF65:
 3472 045e 6D5F6E65 		.ascii	"m_next\000"
 3472      787400
 3473              	.LASF23:
 3474 0465 73797374 		.ascii	"systime_t\000"
 3474      696D655F 
 3474      7400
 3475              	.LASF43:
 3476 046f 705F7265 		.ascii	"p_realprio\000"
 3476      616C7072 
 3476      696F00
 3477              	.LASF117:
 3478 047a 63685365 		.ascii	"chSemWait\000"
 3478      6D576169 
 3478      7400
 3479              	.LASF111:
 3480 0484 6D656D63 		.ascii	"memcpy\000"
 3480      707900
 3481              	.LASF50:
 3482 048b 636F6E74 		.ascii	"context\000"
 3482      65787400 
 3483              	.LASF102:
 3484 0493 73746163 		.ascii	"stackarea\000"
 3484      6B617265 
 3484      6100
 3485              	.LASF49:
 3486 049d 696E7463 		.ascii	"intctx\000"
 3486      747800
 3487              	.LASF59:
 3488 04a4 53656D61 		.ascii	"Semaphore\000"
 3488      70686F72 
ARM GAS  /tmp/ccZd7Sj2.s 			page 66


 3488      6500
 3489              	.LASF95:
 3490 04ae 7073656D 		.ascii	"psem\000"
 3490      00
 3491              	.LASF112:
 3492 04b3 63685468 		.ascii	"chThdSleep\000"
 3492      64536C65 
 3492      657000
 3493              	.LASF35:
 3494 04be 705F7265 		.ascii	"p_refs\000"
 3494      667300
 3495              	.LASF99:
 3496 04c5 67667853 		.ascii	"gfxSemSignal\000"
 3496      656D5369 
 3496      676E616C 
 3496      00
 3497              	.LASF118:
 3498 04d2 63685365 		.ascii	"chSemSignalI\000"
 3498      6D536967 
 3498      6E616C49 
 3498      00
 3499              	.LASF58:
 3500 04df 52656164 		.ascii	"ReadyList\000"
 3500      794C6973 
 3500      7400
 3501              	.LASF106:
 3502 04e9 726C6973 		.ascii	"rlist\000"
 3502      7400
 3503              	.LASF3:
 3504 04ef 75696E74 		.ascii	"uint8_t\000"
 3504      385F7400 
 3505              	.LASF92:
 3506 04f7 67667853 		.ascii	"gfxSleepMilliseconds\000"
 3506      6C656570 
 3506      4D696C6C 
 3506      69736563 
 3506      6F6E6473 
 3507              	.LASF69:
 3508 050c 685F7072 		.ascii	"h_provider\000"
 3508      6F766964 
 3508      657200
 3509              	.LASF110:
 3510 0517 63685468 		.ascii	"chThdYield\000"
 3510      64596965 
 3510      6C6400
 3511              	.LASF78:
 3512 0522 77746F62 		.ascii	"wtobjp\000"
 3512      6A7000
 3513              	.LASF32:
 3514 0529 705F6E61 		.ascii	"p_name\000"
 3514      6D6500
 3515              	.LASF40:
 3516 0530 705F6D73 		.ascii	"p_msg\000"
 3516      6700
 3517              	.LASF64:
 3518 0536 6D5F6F77 		.ascii	"m_owner\000"
 3518      6E657200 
ARM GAS  /tmp/ccZd7Sj2.s 			page 67


 3519              	.LASF29:
 3520 053e 705F6374 		.ascii	"p_ctx\000"
 3520      7800
 3521              	.LASF38:
 3522 0544 705F7761 		.ascii	"p_waiting\000"
 3522      6974696E 
 3522      6700
 3523              	.LASF113:
 3524 054e 63685365 		.ascii	"chSemInit\000"
 3524      6D496E69 
 3524      7400
 3525              	.LASF68:
 3526 0558 6D656D6F 		.ascii	"memory_heap\000"
 3526      72795F68 
 3526      65617000 
 3527              		.ident	"GCC: (GNU Tools for ARM Embedded Processors) 4.7.4 20130613 (release) [ARM/embedded-4_7-br
ARM GAS  /tmp/ccZd7Sj2.s 			page 68


DEFINED SYMBOLS
                            *ABS*:00000000 chibios.c
     /tmp/ccZd7Sj2.s:21     .text._gosInit:00000000 $t
     /tmp/ccZd7Sj2.s:27     .text._gosInit:00000000 _gosInit
     /tmp/ccZd7Sj2.s:56     .text._gosInit:00000018 $d
     /tmp/ccZd7Sj2.s:61     .text.gfxRealloc:00000000 $t
     /tmp/ccZd7Sj2.s:67     .text.gfxRealloc:00000000 gfxRealloc
     /tmp/ccZd7Sj2.s:127    .text.gfxSleepMilliseconds:00000000 $t
     /tmp/ccZd7Sj2.s:133    .text.gfxSleepMilliseconds:00000000 gfxSleepMilliseconds
     /tmp/ccZd7Sj2.s:171    .text.gfxSleepMicroseconds:00000000 $t
     /tmp/ccZd7Sj2.s:177    .text.gfxSleepMicroseconds:00000000 gfxSleepMicroseconds
     /tmp/ccZd7Sj2.s:212    .text.gfxSemInit:00000000 $t
     /tmp/ccZd7Sj2.s:218    .text.gfxSemInit:00000000 gfxSemInit
     /tmp/ccZd7Sj2.s:241    .text.gfxSemDestroy:00000000 $t
     /tmp/ccZd7Sj2.s:247    .text.gfxSemDestroy:00000000 gfxSemDestroy
     /tmp/ccZd7Sj2.s:265    .text.gfxSemWait:00000000 $t
     /tmp/ccZd7Sj2.s:271    .text.gfxSemWait:00000000 gfxSemWait
     /tmp/ccZd7Sj2.s:315    .text.gfxSemSignal:00000000 $t
     /tmp/ccZd7Sj2.s:321    .text.gfxSemSignal:00000000 gfxSemSignal
     /tmp/ccZd7Sj2.s:371    .text.gfxSemSignalI:00000000 $t
     /tmp/ccZd7Sj2.s:377    .text.gfxSemSignalI:00000000 gfxSemSignalI
     /tmp/ccZd7Sj2.s:400    .text.gfxThreadCreate:00000000 $t
     /tmp/ccZd7Sj2.s:406    .text.gfxThreadCreate:00000000 gfxThreadCreate
                     .debug_frame:00000010 $d
     /tmp/ccZd7Sj2.s:60     .text._gosInit:0000001c $t

UNDEFINED SYMBOLS
halInit
chSysInit
rlist
chHeapAlloc
memcpy
chThdYield
chThdSleep
chSemInit
chSemReset
chSemWaitTimeout
chSemWait
chSemSignalI
chSchRescheduleS
chThdCreateStatic
chThdCreateFromHeap
