ARM GAS  /tmp/ccZd7Sj2.s 			page 1


   1              		.syntax unified
   2              		.cpu cortex-m4
   3              		.eabi_attribute 27, 3
   4              		.eabi_attribute 28, 1
   5              		.fpu fpv4-sp-d16
   6              		.eabi_attribute 20, 1
   7              		.eabi_attribute 21, 1
   8              		.eabi_attribute 23, 3
   9              		.eabi_attribute 24, 1
  10              		.eabi_attribute 25, 1
  11              		.eabi_attribute 26, 1
  12              		.eabi_attribute 30, 2
  13              		.eabi_attribute 34, 1
  14              		.eabi_attribute 18, 4
  15              		.thumb
  16              		.file	"chibios.c"
  17              		.text
  18              	.Ltext0:
  19              		.cfi_sections	.debug_frame
  20              		.section	.text._gosInit,"ax",%progbits
  21              		.align	2
  22              		.p2align 4,,15
  23              		.global	_gosInit
  24              		.thumb
  25              		.thumb_func
  26              		.type	_gosInit, %function
  27              	_gosInit:
  28              	.LFB118:
  29              		.file 1 "../../ext/ugfx/src/gos/chibios.c"
  30              		.loc 1 26 0
  31              		.cfi_startproc
  32              		@ args = 0, pretend = 0, frame = 0
  33              		@ frame_needed = 0, uses_anonymous_args = 0
  34 0000 08B5     		push	{r3, lr}
  35              	.LCFI0:
  36              		.cfi_def_cfa_offset 8
  37              		.cfi_offset 3, -8
  38              		.cfi_offset 14, -4
  39              		.loc 1 28 0
  40 0002 054B     		ldr	r3, .L5
  41 0004 9869     		ldr	r0, [r3, #24]
  42 0006 00B1     		cbz	r0, .L4
  43 0008 08BD     		pop	{r3, pc}
  44              	.L4:
  45              		.loc 1 29 0
  46 000a FFF7FEFF 		bl	halInit
  47              	.LVL0:
  48              		.loc 1 32 0
  49 000e BDE80840 		pop	{r3, lr}
  50              		.loc 1 30 0
  51 0012 FFF7FEBF 		b	chSysInit
  52              	.LVL1:
  53              	.L6:
  54 0016 00BF     		.align	2
  55              	.L5:
  56 0018 00000000 		.word	rlist
  57              		.cfi_endproc
ARM GAS  /tmp/ccZd7Sj2.s 			page 2


  58              	.LFE118:
  59              		.size	_gosInit, .-_gosInit
  60 001c AFF30080 		.section	.text.gfxRealloc,"ax",%progbits
  61              		.align	2
  62              		.p2align 4,,15
  63              		.global	gfxRealloc
  64              		.thumb
  65              		.thumb_func
  66              		.type	gfxRealloc, %function
  67              	gfxRealloc:
  68              	.LFB119:
  69              		.loc 1 34 0
  70              		.cfi_startproc
  71              		@ args = 0, pretend = 0, frame = 0
  72              		@ frame_needed = 0, uses_anonymous_args = 0
  73              	.LVL2:
  74              		.loc 1 37 0
  75 0000 8A42     		cmp	r2, r1
  76              		.loc 1 34 0
  77 0002 70B5     		push	{r4, r5, r6, lr}
  78              	.LCFI1:
  79              		.cfi_def_cfa_offset 16
  80              		.cfi_offset 4, -16
  81              		.cfi_offset 5, -12
  82              		.cfi_offset 6, -8
  83              		.cfi_offset 14, -4
  84              		.loc 1 34 0
  85 0004 0D46     		mov	r5, r1
  86 0006 0446     		mov	r4, r0
  87              		.loc 1 37 0
  88 0008 01D8     		bhi	.L11
  89              		.loc 1 48 0
  90 000a 2046     		mov	r0, r4
  91 000c 70BD     		pop	{r4, r5, r6, pc}
  92              	.L11:
  93              		.loc 1 40 0
  94 000e 0020     		movs	r0, #0
  95 0010 1146     		mov	r1, r2
  96              	.LVL3:
  97 0012 FFF7FEFF 		bl	chHeapAlloc
  98              	.LVL4:
  99              		.loc 1 41 0
 100 0016 0646     		mov	r6, r0
 101 0018 00B1     		cbz	r0, .L10
 102              		.loc 1 44 0
 103 001a 15B9     		cbnz	r5, .L12
 104              	.L10:
 105 001c 3446     		mov	r4, r6
 106              	.LVL5:
 107              		.loc 1 48 0
 108 001e 2046     		mov	r0, r4
 109              	.LVL6:
 110 0020 70BD     		pop	{r4, r5, r6, pc}
 111              	.LVL7:
 112              	.L12:
 113              		.loc 1 45 0
 114 0022 2146     		mov	r1, r4
ARM GAS  /tmp/ccZd7Sj2.s 			page 3


 115 0024 2A46     		mov	r2, r5
 116 0026 3446     		mov	r4, r6
 117              	.LVL8:
 118 0028 FFF7FEFF 		bl	memcpy
 119              	.LVL9:
 120              		.loc 1 48 0
 121 002c 2046     		mov	r0, r4
 122 002e 70BD     		pop	{r4, r5, r6, pc}
 123              		.cfi_endproc
 124              	.LFE119:
 125              		.size	gfxRealloc, .-gfxRealloc
 126              		.section	.text.gfxSleepMilliseconds,"ax",%progbits
 127              		.align	2
 128              		.p2align 4,,15
 129              		.global	gfxSleepMilliseconds
 130              		.thumb
 131              		.thumb_func
 132              		.type	gfxSleepMilliseconds, %function
 133              	gfxSleepMilliseconds:
 134              	.LFB120:
 135              		.loc 1 50 0
 136              		.cfi_startproc
 137              		@ args = 0, pretend = 0, frame = 0
 138              		@ frame_needed = 0, uses_anonymous_args = 0
 139              		@ link register save eliminated.
 140              	.LVL10:
 141              		.loc 1 51 0
 142 0000 0346     		mov	r3, r0
 143 0002 08B9     		cbnz	r0, .L19
 144              		.loc 1 56 0
 145              		.loc 1 52 0
 146 0004 FFF7FEBF 		b	chThdYield
 147              	.LVL11:
 148              	.L19:
 149              		.loc 1 51 0
 150 0008 421C     		adds	r2, r0, #1
 151 000a 0CD0     		beq	.L18
 152              		.loc 1 54 0
 153 000c 4FF47A72 		mov	r2, #1000
 154 0010 02FB03F3 		mul	r3, r2, r3
 155 0014 44F6D350 		movw	r0, #19923
 156              	.LVL12:
 157 0018 C1F26200 		movt	r0, 4194
 158 001c 591E     		subs	r1, r3, #1
 159 001e A0FB0113 		umull	r1, r3, r0, r1
 160 0022 9A09     		lsrs	r2, r3, #6
 161 0024 501C     		adds	r0, r2, #1
 162              	.L18:
 163              		.loc 1 56 0
 164              		.loc 1 54 0
 165 0026 FFF7FEBF 		b	chThdSleep
 166              	.LVL13:
 167              		.cfi_endproc
 168              	.LFE120:
 169              		.size	gfxSleepMilliseconds, .-gfxSleepMilliseconds
 170 002a 00BFAFF3 		.section	.text.gfxSleepMicroseconds,"ax",%progbits
 170      0080
ARM GAS  /tmp/ccZd7Sj2.s 			page 4


 171              		.align	2
 172              		.p2align 4,,15
 173              		.global	gfxSleepMicroseconds
 174              		.thumb
 175              		.thumb_func
 176              		.type	gfxSleepMicroseconds, %function
 177              	gfxSleepMicroseconds:
 178              	.LFB121:
 179              		.loc 1 58 0
 180              		.cfi_startproc
 181              		@ args = 0, pretend = 0, frame = 0
 182              		@ frame_needed = 0, uses_anonymous_args = 0
 183              		@ link register save eliminated.
 184              	.LVL14:
 185              		.loc 1 59 0
 186 0000 0346     		mov	r3, r0
 187 0002 00B9     		cbnz	r0, .L26
 188 0004 7047     		bx	lr
 189              	.L26:
 190 0006 411C     		adds	r1, r0, #1
 191 0008 0CD0     		beq	.L25
 192              		.loc 1 62 0
 193 000a 4FF47A72 		mov	r2, #1000
 194 000e 02FB03F3 		mul	r3, r2, r3
 195 0012 4DF68360 		movw	r0, #56963
 196              	.LVL15:
 197 0016 C4F21B30 		movt	r0, 17179
 198 001a 591E     		subs	r1, r3, #1
 199              	.LVL16:
 200 001c A0FB0113 		umull	r1, r3, r0, r1
 201 0020 9A0C     		lsrs	r2, r3, #18
 202 0022 501C     		adds	r0, r2, #1
 203              	.L25:
 204              		.loc 1 64 0
 205              		.loc 1 62 0
 206 0024 FFF7FEBF 		b	chThdSleep
 207              	.LVL17:
 208              		.cfi_endproc
 209              	.LFE121:
 210              		.size	gfxSleepMicroseconds, .-gfxSleepMicroseconds
 211 0028 AFF30080 		.section	.text.gfxSemInit,"ax",%progbits
 211      AFF30080 
 212              		.align	2
 213              		.p2align 4,,15
 214              		.global	gfxSemInit
 215              		.thumb
 216              		.thumb_func
 217              		.type	gfxSemInit, %function
 218              	gfxSemInit:
 219              	.LFB122:
 220              		.loc 1 65 0
 221              		.cfi_startproc
 222              		@ args = 0, pretend = 0, frame = 0
 223              		@ frame_needed = 0, uses_anonymous_args = 0
 224              		@ link register save eliminated.
 225              	.LVL18:
 226              		.loc 1 68 0
ARM GAS  /tmp/ccZd7Sj2.s 			page 5


 227 0000 8A42     		cmp	r2, r1
 228 0002 B8BF     		it	lt
 229 0004 1146     		movlt	r1, r2
 230              	.LVL19:
 231              		.loc 1 67 0
 232 0006 C260     		str	r2, [r0, #12]
 233              		.loc 1 69 0
 234              		.loc 1 68 0
 235 0008 FFF7FEBF 		b	chSemInit
 236              	.LVL20:
 237              		.cfi_endproc
 238              	.LFE122:
 239              		.size	gfxSemInit, .-gfxSemInit
 240 000c AFF30080 		.section	.text.gfxSemDestroy,"ax",%progbits
 241              		.align	2
 242              		.p2align 4,,15
 243              		.global	gfxSemDestroy
 244              		.thumb
 245              		.thumb_func
 246              		.type	gfxSemDestroy, %function
 247              	gfxSemDestroy:
 248              	.LFB123:
 249              		.loc 1 70 0
 250              		.cfi_startproc
 251              		@ args = 0, pretend = 0, frame = 0
 252              		@ frame_needed = 0, uses_anonymous_args = 0
 253              		@ link register save eliminated.
 254              	.LVL21:
 255              		.loc 1 71 0
 256 0000 0121     		movs	r1, #1
 257              		.loc 1 72 0
 258              		.loc 1 71 0
 259 0002 FFF7FEBF 		b	chSemReset
 260              	.LVL22:
 261              		.cfi_endproc
 262              	.LFE123:
 263              		.size	gfxSemDestroy, .-gfxSemDestroy
 264 0006 00BFAFF3 		.section	.text.gfxSemWait,"ax",%progbits
 264      0080AFF3 
 264      0080
 265              		.align	2
 266              		.p2align 4,,15
 267              		.global	gfxSemWait
 268              		.thumb
 269              		.thumb_func
 270              		.type	gfxSemWait, %function
 271              	gfxSemWait:
 272              	.LFB124:
 273              		.loc 1 73 0
 274              		.cfi_startproc
 275              		@ args = 0, pretend = 0, frame = 0
 276              		@ frame_needed = 0, uses_anonymous_args = 0
 277              	.LVL23:
 278 0000 08B5     		push	{r3, lr}
 279              	.LCFI2:
 280              		.cfi_def_cfa_offset 8
 281              		.cfi_offset 3, -8
ARM GAS  /tmp/ccZd7Sj2.s 			page 6


 282              		.cfi_offset 14, -4
 283              		.loc 1 74 0
 284 0002 4B1C     		adds	r3, r1, #1
 285 0004 12D0     		beq	.L32
 286              		.loc 1 78 0
 287 0006 4FF47A73 		mov	r3, #1000
 288 000a 03FB01F1 		mul	r1, r3, r1
 289              	.LVL24:
 290 000e 44F6D352 		movw	r2, #19923
 291 0012 0139     		subs	r1, r1, #1
 292 0014 C1F26202 		movt	r2, 4194
 293 0018 A2FB0123 		umull	r2, r3, r2, r1
 294 001c 9A09     		lsrs	r2, r3, #6
 295 001e 511C     		adds	r1, r2, #1
 296 0020 FFF7FEFF 		bl	chSemWaitTimeout
 297              	.LVL25:
 298 0024 0130     		adds	r0, r0, #1
 299 0026 18BF     		it	ne
 300 0028 0120     		movne	r0, #1
 301              		.loc 1 79 0
 302 002a 08BD     		pop	{r3, pc}
 303              	.LVL26:
 304              	.L32:
 305              		.loc 1 75 0
 306 002c FFF7FEFF 		bl	chSemWait
 307              	.LVL27:
 308              		.loc 1 76 0
 309 0030 0120     		movs	r0, #1
 310 0032 08BD     		pop	{r3, pc}
 311              		.cfi_endproc
 312              	.LFE124:
 313              		.size	gfxSemWait, .-gfxSemWait
 314 0034 AFF30080 		.section	.text.gfxSemSignal,"ax",%progbits
 314      AFF30080 
 314      AFF30080 
 315              		.align	2
 316              		.p2align 4,,15
 317              		.global	gfxSemSignal
 318              		.thumb
 319              		.thumb_func
 320              		.type	gfxSemSignal, %function
 321              	gfxSemSignal:
 322              	.LFB125:
 323              		.loc 1 81 0
 324              		.cfi_startproc
 325              		@ args = 0, pretend = 0, frame = 0
 326              		@ frame_needed = 0, uses_anonymous_args = 0
 327              	.LVL28:
 328 0000 08B5     		push	{r3, lr}
 329              	.LCFI3:
 330              		.cfi_def_cfa_offset 8
 331              		.cfi_offset 3, -8
 332              		.cfi_offset 14, -4
 333              	.LBB2:
 334              		.loc 1 82 0
 335 0002 2023     		movs	r3, #32
 336              	.LVL29:
ARM GAS  /tmp/ccZd7Sj2.s 			page 7


 337              	@ 82 "../../ext/ugfx/src/gos/chibios.c" 1
 338 0004 83F31188 		msr     BASEPRI, r3
 339              	@ 0 "" 2
 340              	.LVL30:
 341              		.thumb
 342              	.LBE2:
 343              		.loc 1 83 0
 344 0008 8168     		ldr	r1, [r0, #8]
 345 000a C368     		ldr	r3, [r0, #12]
 346              	.LVL31:
 347 000c 9942     		cmp	r1, r3
 348 000e 01DA     		bge	.L34
 349              		.loc 1 84 0
 350 0010 FFF7FEFF 		bl	chSemSignalI
 351              	.LVL32:
 352              	.L34:
 353              		.loc 1 85 0
 354 0014 FFF7FEFF 		bl	chSchRescheduleS
 355              	.LVL33:
 356              	.LBB3:
 357              		.loc 1 86 0
 358 0018 0023     		movs	r3, #0
 359              	.LVL34:
 360              	@ 86 "../../ext/ugfx/src/gos/chibios.c" 1
 361 001a 83F31188 		msr     BASEPRI, r3
 362              	@ 0 "" 2
 363              	.LVL35:
 364              		.thumb
 365 001e 08BD     		pop	{r3, pc}
 366              	.LBE3:
 367              		.cfi_endproc
 368              	.LFE125:
 369              		.size	gfxSemSignal, .-gfxSemSignal
 370              		.section	.text.gfxSemSignalI,"ax",%progbits
 371              		.align	2
 372              		.p2align 4,,15
 373              		.global	gfxSemSignalI
 374              		.thumb
 375              		.thumb_func
 376              		.type	gfxSemSignalI, %function
 377              	gfxSemSignalI:
 378              	.LFB126:
 379              		.loc 1 89 0
 380              		.cfi_startproc
 381              		@ args = 0, pretend = 0, frame = 0
 382              		@ frame_needed = 0, uses_anonymous_args = 0
 383              		@ link register save eliminated.
 384              	.LVL36:
 385              		.loc 1 90 0
 386 0000 8268     		ldr	r2, [r0, #8]
 387 0002 C168     		ldr	r1, [r0, #12]
 388 0004 8A42     		cmp	r2, r1
 389 0006 00DB     		blt	.L37
 390 0008 7047     		bx	lr
 391              	.L37:
 392              		.loc 1 92 0
 393              		.loc 1 91 0
ARM GAS  /tmp/ccZd7Sj2.s 			page 8


 394 000a FFF7FEBF 		b	chSemSignalI
 395              	.LVL37:
 396              		.cfi_endproc
 397              	.LFE126:
 398              		.size	gfxSemSignalI, .-gfxSemSignalI
 399 000e 00BF     		.section	.text.gfxThreadCreate,"ax",%progbits
 400              		.align	2
 401              		.p2align 4,,15
 402              		.global	gfxThreadCreate
 403              		.thumb
 404              		.thumb_func
 405              		.type	gfxThreadCreate, %function
 406              	gfxThreadCreate:
 407              	.LFB127:
 408              		.loc 1 94 0
 409              		.cfi_startproc
 410              		@ args = 4, pretend = 0, frame = 0
 411              		@ frame_needed = 0, uses_anonymous_args = 0
 412              		@ link register save eliminated.
 413              	.LVL38:
 414 0000 30B4     		push	{r4, r5}
 415              	.LCFI4:
 416              		.cfi_def_cfa_offset 8
 417              		.cfi_offset 4, -8
 418              		.cfi_offset 5, -4
 419              		.loc 1 94 0
 420 0002 029D     		ldr	r5, [sp, #8]
 421 0004 0C46     		mov	r4, r1
 422              		.loc 1 95 0
 423 0006 38B1     		cbz	r0, .L43
 424              		.loc 1 100 0
 425 0008 19B1     		cbz	r1, .L41
 426              		.loc 1 101 0
 427 000a 0295     		str	r5, [sp, #8]
 428              		.loc 1 102 0
 429 000c 30BC     		pop	{r4, r5}
 430              		.loc 1 101 0
 431 000e FFF7FEBF 		b	chThdCreateStatic
 432              	.LVL39:
 433              	.L41:
 434              		.loc 1 102 0
 435 0012 0846     		mov	r0, r1
 436              	.LVL40:
 437 0014 30BC     		pop	{r4, r5}
 438 0016 7047     		bx	lr
 439              	.LVL41:
 440              	.L43:
 441              		.loc 1 97 0
 442 0018 0029     		cmp	r1, #0
 443 001a 08BF     		it	eq
 444 001c 4FF48071 		moveq	r1, #256
 445              	.LVL42:
 446              		.loc 1 102 0
 447 0020 30BC     		pop	{r4, r5}
 448              		.loc 1 97 0
 449 0022 FFF7FEBF 		b	chThdCreateFromHeap
 450              	.LVL43:
ARM GAS  /tmp/ccZd7Sj2.s 			page 9


 451              		.cfi_endproc
 452              	.LFE127:
 453              		.size	gfxThreadCreate, .-gfxThreadCreate
 454 0026 00BFAFF3 		.text
 454      0080AFF3 
 454      0080
 455              	.Letext0:
 456              		.file 2 "/usr/bin/../lib/gcc/arm-none-eabi/4.7.4/include/stddef.h"
 457              		.file 3 "/usr/bin/../lib/gcc/arm-none-eabi/4.7.4/../../../../arm-none-eabi/include/stdint.h"
 458              		.file 4 "../../os/ports/GCC/ARMCMx/chtypes.h"
 459              		.file 5 "../../os/kernel/include/chlists.h"
 460              		.file 6 "../../os/kernel/include/chthreads.h"
 461              		.file 7 "../../os/ports/GCC/ARMCMx/chcore_v7m.h"
 462              		.file 8 "../../os/kernel/include/chschd.h"
 463              		.file 9 "../../os/kernel/include/chsem.h"
 464              		.file 10 "../../os/kernel/include/chmtx.h"
 465              		.file 11 "../../os/kernel/include/chmemcore.h"
 466              		.file 12 "../../os/kernel/include/chheap.h"
 467              		.file 13 "../../ext/ugfx/include/gos/chibios.h"
 468              		.file 14 "../../os/ports/common/ARMCMx/CMSIS/include/core_cm4.h"
 469              		.file 15 "../../os/hal/include/hal.h"
 470              		.file 16 "../../os/kernel/include/chsys.h"
 471              		.file 17 "../../os/kernel/include/chdynamic.h"