ARM GAS  /tmp/cczRgItJ.s 			page 1


   1              		.syntax unified
   2              		.cpu cortex-m4
   3              		.eabi_attribute 27, 3
   4              		.eabi_attribute 28, 1
   5              		.fpu fpv4-sp-d16
   6              		.eabi_attribute 20, 1
   7              		.eabi_attribute 21, 1
   8              		.eabi_attribute 23, 3
   9              		.eabi_attribute 24, 1
  10              		.eabi_attribute 25, 1
  11              		.eabi_attribute 26, 1
  12              		.eabi_attribute 30, 2
  13              		.eabi_attribute 34, 1
  14              		.eabi_attribute 18, 4
  15              		.thumb
  16              		.file	"dht11.c"
  17              		.text
  18              	.Ltext0:
  19              		.cfi_sections	.debug_frame
  20              		.section	.text.listen_edge,"ax",%progbits
  21              		.align	2
  22              		.p2align 4,,15
  23              		.thumb
  24              		.thumb_func
  25              		.type	listen_edge, %function
  26              	listen_edge:
  27              	.LFB119:
  28              		.file 1 "dht11.c"
  29              		.loc 1 42 0
  30              		.cfi_startproc
  31              		@ args = 0, pretend = 0, frame = 0
  32              		@ frame_needed = 0, uses_anonymous_args = 0
  33              	.LVL0:
  34 0000 2DE9F041 		push	{r4, r5, r6, r7, r8, lr}
  35              	.LCFI0:
  36              		.cfi_def_cfa_offset 24
  37              		.cfi_offset 4, -24
  38              		.cfi_offset 5, -20
  39              		.cfi_offset 6, -16
  40              		.cfi_offset 7, -12
  41              		.cfi_offset 8, -8
  42              		.cfi_offset 14, -4
  43              		.loc 1 44 0
  44 0004 1746     		mov	r7, r2
  45              		.loc 1 42 0
  46 0006 8846     		mov	r8, r1
  47              		.loc 1 44 0
  48 0008 8AB3     		cbz	r2, .L6
  49 000a 0026     		movs	r6, #0
  50 000c C4F20206 		movt	r6, 16386
  51 0010 0024     		movs	r4, #0
  52 0012 3569     		ldr	r5, [r6, #16]
  53 0014 C5F3C015 		ubfx	r5, r5, #7, #1
  54 0018 8542     		cmp	r5, r0
  55 001a 0CD1     		bne	.L4
  56 001c D307     		lsls	r3, r2, #31
  57 001e 1ED4     		bmi	.L7
ARM GAS  /tmp/cczRgItJ.s 			page 2


  58              		.loc 1 45 0
  59 0020 0120     		movs	r0, #1
  60              	.LVL1:
  61 0022 FFF7FEFF 		bl	chThdSleep
  62              	.LVL2:
  63              		.loc 1 44 0
  64 0026 3369     		ldr	r3, [r6, #16]
  65 0028 C3F3C010 		ubfx	r0, r3, #7, #1
  66 002c 0124     		movs	r4, #1
  67              	.LVL3:
  68 002e A842     		cmp	r0, r5
  69 0030 15D0     		beq	.L7
  70              	.L19:
  71              		.loc 1 46 0
  72 0032 A742     		cmp	r7, r4
  73 0034 1BD0     		beq	.L6
  74              	.L4:
  75              		.loc 1 47 0 discriminator 1
  76 0036 A045     		cmp	r8, r4
  77 0038 94BF     		ite	ls
  78 003a 2046     		movls	r0, r4
  79 003c 0020     		movhi	r0, #0
  80              		.loc 1 49 0 discriminator 1
  81 003e BDE8F081 		pop	{r4, r5, r6, r7, r8, pc}
  82              	.L21:
  83              		.loc 1 44 0 discriminator 2
  84 0042 3169     		ldr	r1, [r6, #16]
  85 0044 C1F3C012 		ubfx	r2, r1, #7, #1
  86 0048 AA42     		cmp	r2, r5
  87 004a F2D1     		bne	.L19
  88              		.loc 1 45 0
  89 004c FFF7FEFF 		bl	chThdSleep
  90              	.LVL4:
  91              		.loc 1 44 0
  92 0050 3369     		ldr	r3, [r6, #16]
  93 0052 C3F3C011 		ubfx	r1, r3, #7, #1
  94 0056 601C     		adds	r0, r4, #1
  95 0058 A942     		cmp	r1, r5
  96 005a C4B2     		uxtb	r4, r0
  97 005c E9D1     		bne	.L19
  98              	.L7:
  99              		.loc 1 45 0 discriminator 1
 100 005e 0120     		movs	r0, #1
 101 0060 FFF7FEFF 		bl	chThdSleep
 102              	.LVL5:
 103 0064 0120     		movs	r0, #1
 104              		.loc 1 44 0 discriminator 1
 105 0066 2418     		adds	r4, r4, r0
 106 0068 E4B2     		uxtb	r4, r4
 107 006a BC42     		cmp	r4, r7
 108 006c E9D1     		bne	.L21
 109              	.L6:
 110              		.loc 1 47 0
 111 006e 0020     		movs	r0, #0
 112 0070 BDE8F081 		pop	{r4, r5, r6, r7, r8, pc}
 113              		.cfi_endproc
 114              	.LFE119:
ARM GAS  /tmp/cczRgItJ.s 			page 3


 115              		.size	listen_edge, .-listen_edge
 116 0074 AFF30080 		.section	.text.init_dht11,"ax",%progbits
 116      AFF30080 
 116      AFF30080 
 117              		.align	2
 118              		.p2align 4,,15
 119              		.global	init_dht11
 120              		.thumb
 121              		.thumb_func
 122              		.type	init_dht11, %function
 123              	init_dht11:
 124              	.LFB118:
 125              		.loc 1 17 0
 126              		.cfi_startproc
 127              		@ args = 0, pretend = 0, frame = 0
 128              		@ frame_needed = 0, uses_anonymous_args = 0
 129 0000 10B5     		push	{r4, lr}
 130              	.LCFI1:
 131              		.cfi_def_cfa_offset 8
 132              		.cfi_offset 4, -8
 133              		.cfi_offset 14, -4
 134              		.loc 1 24 0
 135 0002 0024     		movs	r4, #0
 136 0004 C4F20204 		movt	r4, 16386
 137 0008 2046     		mov	r0, r4
 138 000a 8021     		movs	r1, #128
 139 000c 0122     		movs	r2, #1
 140 000e FFF7FEFF 		bl	_pal_lld_setgroupmode
 141              	.LVL6:
 142              		.loc 1 25 0
 143 0012 8023     		movs	r3, #128
 144              		.loc 1 26 0
 145 0014 6420     		movs	r0, #100
 146              		.loc 1 25 0
 147 0016 2383     		strh	r3, [r4, #24]	@ movhi
 148              		.loc 1 27 0
 149 0018 BDE81040 		pop	{r4, lr}
 150              		.loc 1 26 0
 151 001c FFF7FEBF 		b	chThdSleep
 152              	.LVL7:
 153              		.cfi_endproc
 154              	.LFE118:
 155              		.size	init_dht11, .-init_dht11
 156              		.section	.text.read_dht11,"ax",%progbits
 157              		.align	2
 158              		.p2align 4,,15
 159              		.global	read_dht11
 160              		.thumb
 161              		.thumb_func
 162              		.type	read_dht11, %function
 163              	read_dht11:
 164              	.LFB120:
 165              		.loc 1 51 0
 166              		.cfi_startproc
 167              		@ args = 0, pretend = 0, frame = 8
 168              		@ frame_needed = 0, uses_anonymous_args = 0
 169              	.LVL8:
ARM GAS  /tmp/cczRgItJ.s 			page 4


 170 0000 70B5     		push	{r4, r5, r6, lr}
 171              	.LCFI2:
 172              		.cfi_def_cfa_offset 16
 173              		.cfi_offset 4, -16
 174              		.cfi_offset 5, -12
 175              		.cfi_offset 6, -8
 176              		.cfi_offset 14, -4
 177              		.loc 1 53 0
 178 0002 0024     		movs	r4, #0
 179 0004 8021     		movs	r1, #128
 180 0006 C4F20204 		movt	r4, 16386
 181              		.loc 1 51 0
 182 000a 82B0     		sub	sp, sp, #8
 183              	.LCFI3:
 184              		.cfi_def_cfa_offset 24
 185              		.loc 1 55 0
 186 000c 0D46     		mov	r5, r1
 187              		.loc 1 53 0
 188 000e 0122     		movs	r2, #1
 189              		.loc 1 51 0
 190 0010 0646     		mov	r6, r0
 191              		.loc 1 53 0
 192 0012 2046     		mov	r0, r4
 193              	.LVL9:
 194 0014 FFF7FEFF 		bl	_pal_lld_setgroupmode
 195              	.LVL10:
 196              		.loc 1 57 0
 197 0018 1220     		movs	r0, #18
 198              		.loc 1 55 0
 199 001a 6583     		strh	r5, [r4, #26]	@ movhi
 200              		.loc 1 57 0
 201 001c FFF7FEFF 		bl	chThdSleep
 202              	.LVL11:
 203              		.loc 1 61 0
 204 0020 0120     		movs	r0, #1
 205              		.loc 1 59 0
 206 0022 2583     		strh	r5, [r4, #24]	@ movhi
 207              		.loc 1 61 0
 208 0024 FFF7FEFF 		bl	chThdSleep
 209              	.LVL12:
 210              		.loc 1 63 0
 211 0028 2946     		mov	r1, r5
 212 002a 0022     		movs	r2, #0
 213 002c 2046     		mov	r0, r4
 214 002e FFF7FEFF 		bl	_pal_lld_setgroupmode
 215              	.LVL13:
 216              		.loc 1 64 0
 217 0032 0120     		movs	r0, #1
 218 0034 FFF7FEFF 		bl	chThdSleep
 219              	.LVL14:
 220              		.loc 1 65 0
 221 0038 0020     		movs	r0, #0
 222 003a 0146     		mov	r1, r0
 223 003c 6422     		movs	r2, #100
 224 003e FFF7FEFF 		bl	listen_edge
 225              	.LVL15:
 226 0042 0028     		cmp	r0, #0
ARM GAS  /tmp/cczRgItJ.s 			page 5


 227 0044 00F0E180 		beq	.L36
 228              		.loc 1 69 0
 229 0048 0120     		movs	r0, #1
 230 004a FFF7FEFF 		bl	chThdSleep
 231              	.LVL16:
 232              		.loc 1 70 0
 233 004e 0120     		movs	r0, #1
 234 0050 0021     		movs	r1, #0
 235 0052 6422     		movs	r2, #100
 236 0054 FFF7FEFF 		bl	listen_edge
 237              	.LVL17:
 238 0058 0028     		cmp	r0, #0
 239 005a 00F0D880 		beq	.L37
 240              		.loc 1 73 0
 241 005e 0024     		movs	r4, #0
 242 0060 0094     		str	r4, [sp, #0]
 243 0062 8DF80440 		strb	r4, [sp, #4]
 244              	.LVL18:
 245              	.L25:
 246              	.LBB2:
 247              	.LBB3:
 248              	.LBB4:
 249              		.loc 1 76 0 discriminator 1
 250 0066 0020     		movs	r0, #0
 251 0068 1421     		movs	r1, #20
 252 006a 5022     		movs	r2, #80
 253 006c FFF7FEFF 		bl	listen_edge
 254              	.LVL19:
 255 0070 0028     		cmp	r0, #0
 256 0072 00F0C680 		beq	.L53
 257              		.loc 1 78 0
 258 0076 0120     		movs	r0, #1
 259 0078 0A21     		movs	r1, #10
 260 007a 5A22     		movs	r2, #90
 261 007c FFF7FEFF 		bl	listen_edge
 262              	.LVL20:
 263              		.loc 1 79 0
 264 0080 0028     		cmp	r0, #0
 265 0082 00F0C080 		beq	.L52
 266              		.loc 1 81 0
 267 0086 1E28     		cmp	r0, #30
 268 0088 05D9     		bls	.L28
 269              		.loc 1 82 0
 270 008a 1DF80430 		ldrb	r3, [sp, r4]	@ zero_extendqisi2
 271 008e 63F07F00 		orn	r0, r3, #127
 272              	.LVL21:
 273 0092 0DF80400 		strb	r0, [sp, r4]
 274              	.L28:
 275              	.LVL22:
 276              		.loc 1 76 0
 277 0096 0020     		movs	r0, #0
 278 0098 1421     		movs	r1, #20
 279 009a 5022     		movs	r2, #80
 280 009c FFF7FEFF 		bl	listen_edge
 281              	.LVL23:
 282 00a0 0028     		cmp	r0, #0
 283 00a2 00F0AE80 		beq	.L53
ARM GAS  /tmp/cczRgItJ.s 			page 6


 284              		.loc 1 78 0
 285 00a6 0120     		movs	r0, #1
 286 00a8 0A21     		movs	r1, #10
 287 00aa 5A22     		movs	r2, #90
 288 00ac FFF7FEFF 		bl	listen_edge
 289              	.LVL24:
 290              		.loc 1 79 0
 291 00b0 0028     		cmp	r0, #0
 292 00b2 00F0A880 		beq	.L52
 293              		.loc 1 81 0
 294 00b6 1E28     		cmp	r0, #30
 295 00b8 05D9     		bls	.L29
 296              		.loc 1 82 0
 297 00ba 1DF80410 		ldrb	r1, [sp, r4]	@ zero_extendqisi2
 298 00be 41F04002 		orr	r2, r1, #64
 299 00c2 0DF80420 		strb	r2, [sp, r4]
 300              	.L29:
 301              	.LVL25:
 302              		.loc 1 76 0
 303 00c6 0020     		movs	r0, #0
 304              	.LVL26:
 305 00c8 1421     		movs	r1, #20
 306 00ca 5022     		movs	r2, #80
 307 00cc FFF7FEFF 		bl	listen_edge
 308              	.LVL27:
 309 00d0 0028     		cmp	r0, #0
 310 00d2 00F09680 		beq	.L53
 311              		.loc 1 78 0
 312 00d6 0120     		movs	r0, #1
 313 00d8 0A21     		movs	r1, #10
 314 00da 5A22     		movs	r2, #90
 315 00dc FFF7FEFF 		bl	listen_edge
 316              	.LVL28:
 317              		.loc 1 79 0
 318 00e0 0028     		cmp	r0, #0
 319 00e2 00F09080 		beq	.L52
 320              		.loc 1 81 0
 321 00e6 1E28     		cmp	r0, #30
 322 00e8 05D9     		bls	.L30
 323              		.loc 1 82 0
 324 00ea 1DF80430 		ldrb	r3, [sp, r4]	@ zero_extendqisi2
 325 00ee 43F02000 		orr	r0, r3, #32
 326              	.LVL29:
 327 00f2 0DF80400 		strb	r0, [sp, r4]
 328              	.L30:
 329              	.LVL30:
 330              		.loc 1 76 0
 331 00f6 0020     		movs	r0, #0
 332 00f8 1421     		movs	r1, #20
 333 00fa 5022     		movs	r2, #80
 334 00fc FFF7FEFF 		bl	listen_edge
 335              	.LVL31:
 336 0100 0028     		cmp	r0, #0
 337 0102 7ED0     		beq	.L53
 338              		.loc 1 78 0
 339 0104 0120     		movs	r0, #1
 340 0106 0A21     		movs	r1, #10
ARM GAS  /tmp/cczRgItJ.s 			page 7


 341 0108 5A22     		movs	r2, #90
 342 010a FFF7FEFF 		bl	listen_edge
 343              	.LVL32:
 344              		.loc 1 79 0
 345 010e 0028     		cmp	r0, #0
 346 0110 79D0     		beq	.L52
 347              		.loc 1 81 0
 348 0112 1E28     		cmp	r0, #30
 349 0114 05D9     		bls	.L31
 350              		.loc 1 82 0
 351 0116 1DF80410 		ldrb	r1, [sp, r4]	@ zero_extendqisi2
 352 011a 41F01002 		orr	r2, r1, #16
 353 011e 0DF80420 		strb	r2, [sp, r4]
 354              	.L31:
 355              	.LVL33:
 356              		.loc 1 76 0
 357 0122 0020     		movs	r0, #0
 358              	.LVL34:
 359 0124 1421     		movs	r1, #20
 360 0126 5022     		movs	r2, #80
 361 0128 FFF7FEFF 		bl	listen_edge
 362              	.LVL35:
 363 012c 0028     		cmp	r0, #0
 364 012e 68D0     		beq	.L53
 365              		.loc 1 78 0
 366 0130 0120     		movs	r0, #1
 367 0132 0A21     		movs	r1, #10
 368 0134 5A22     		movs	r2, #90
 369 0136 FFF7FEFF 		bl	listen_edge
 370              	.LVL36:
 371              		.loc 1 79 0
 372 013a 0028     		cmp	r0, #0
 373 013c 63D0     		beq	.L52
 374              		.loc 1 81 0
 375 013e 1E28     		cmp	r0, #30
 376 0140 05D9     		bls	.L32
 377              		.loc 1 82 0
 378 0142 1DF80430 		ldrb	r3, [sp, r4]	@ zero_extendqisi2
 379 0146 43F00800 		orr	r0, r3, #8
 380              	.LVL37:
 381 014a 0DF80400 		strb	r0, [sp, r4]
 382              	.L32:
 383              	.LVL38:
 384              		.loc 1 76 0
 385 014e 0020     		movs	r0, #0
 386 0150 1421     		movs	r1, #20
 387 0152 5022     		movs	r2, #80
 388 0154 FFF7FEFF 		bl	listen_edge
 389              	.LVL39:
 390 0158 0028     		cmp	r0, #0
 391 015a 52D0     		beq	.L53
 392              		.loc 1 78 0
 393 015c 0120     		movs	r0, #1
 394 015e 0A21     		movs	r1, #10
 395 0160 5A22     		movs	r2, #90
 396 0162 FFF7FEFF 		bl	listen_edge
 397              	.LVL40:
ARM GAS  /tmp/cczRgItJ.s 			page 8


 398              		.loc 1 79 0
 399 0166 0028     		cmp	r0, #0
 400 0168 4DD0     		beq	.L52
 401              		.loc 1 81 0
 402 016a 1E28     		cmp	r0, #30
 403 016c 05D9     		bls	.L33
 404              		.loc 1 82 0
 405 016e 1DF80410 		ldrb	r1, [sp, r4]	@ zero_extendqisi2
 406 0172 41F00402 		orr	r2, r1, #4
 407 0176 0DF80420 		strb	r2, [sp, r4]
 408              	.L33:
 409              	.LVL41:
 410              		.loc 1 76 0
 411 017a 0020     		movs	r0, #0
 412              	.LVL42:
 413 017c 1421     		movs	r1, #20
 414 017e 5022     		movs	r2, #80
 415 0180 FFF7FEFF 		bl	listen_edge
 416              	.LVL43:
 417 0184 0028     		cmp	r0, #0
 418 0186 3CD0     		beq	.L53
 419              		.loc 1 78 0
 420 0188 0120     		movs	r0, #1
 421 018a 0A21     		movs	r1, #10
 422 018c 5A22     		movs	r2, #90
 423 018e FFF7FEFF 		bl	listen_edge
 424              	.LVL44:
 425              		.loc 1 79 0
 426 0192 0028     		cmp	r0, #0
 427 0194 37D0     		beq	.L52
 428              		.loc 1 81 0
 429 0196 1E28     		cmp	r0, #30
 430 0198 05D9     		bls	.L34
 431              		.loc 1 82 0
 432 019a 1DF80430 		ldrb	r3, [sp, r4]	@ zero_extendqisi2
 433 019e 43F00200 		orr	r0, r3, #2
 434              	.LVL45:
 435 01a2 0DF80400 		strb	r0, [sp, r4]
 436              	.L34:
 437              	.LVL46:
 438              		.loc 1 76 0
 439 01a6 0020     		movs	r0, #0
 440 01a8 1421     		movs	r1, #20
 441 01aa 5022     		movs	r2, #80
 442 01ac FFF7FEFF 		bl	listen_edge
 443              	.LVL47:
 444 01b0 38B3     		cbz	r0, .L53
 445              		.loc 1 78 0
 446 01b2 0120     		movs	r0, #1
 447 01b4 0A21     		movs	r1, #10
 448 01b6 5A22     		movs	r2, #90
 449 01b8 FFF7FEFF 		bl	listen_edge
 450              	.LVL48:
 451              		.loc 1 79 0
 452 01bc 18B3     		cbz	r0, .L52
 453              		.loc 1 81 0
 454 01be 1E28     		cmp	r0, #30
ARM GAS  /tmp/cczRgItJ.s 			page 9


 455 01c0 05D9     		bls	.L26
 456              		.loc 1 82 0
 457 01c2 1DF80410 		ldrb	r1, [sp, r4]	@ zero_extendqisi2
 458 01c6 41F00102 		orr	r2, r1, #1
 459 01ca 0DF80420 		strb	r2, [sp, r4]
 460              	.L26:
 461              	.LVL49:
 462 01ce 0134     		adds	r4, r4, #1
 463              	.LBE4:
 464              	.LBE3:
 465              		.loc 1 74 0
 466 01d0 052C     		cmp	r4, #5
 467 01d2 7FF448AF 		bne	.L25
 468              	.LBE2:
 469              		.loc 1 86 0
 470 01d6 9DF80140 		ldrb	r4, [sp, #1]	@ zero_extendqisi2
 471 01da 9DF80030 		ldrb	r3, [sp, #0]	@ zero_extendqisi2
 472 01de 9DF80200 		ldrb	r0, [sp, #2]	@ zero_extendqisi2
 473              	.LVL50:
 474 01e2 9DF80310 		ldrb	r1, [sp, #3]	@ zero_extendqisi2
 475 01e6 9DF80420 		ldrb	r2, [sp, #4]	@ zero_extendqisi2
 476 01ea E318     		adds	r3, r4, r3
 477 01ec 1818     		adds	r0, r3, r0
 478 01ee 4118     		adds	r1, r0, r1
 479 01f0 CBB2     		uxtb	r3, r1
 480 01f2 9A42     		cmp	r2, r3
 481 01f4 0DD1     		bne	.L54
 482              		.loc 1 89 0
 483 01f6 009A     		ldr	r2, [sp, #0]	@ unaligned
 484              		.loc 1 90 0
 485 01f8 0020     		movs	r0, #0
 486              		.loc 1 89 0
 487 01fa 3260     		str	r2, [r6, #0]	@ unaligned
 488              	.LVL51:
 489              	.L24:
 490              		.loc 1 91 0
 491 01fc 40B2     		sxtb	r0, r0
 492 01fe 02B0     		add	sp, sp, #8
 493 0200 70BD     		pop	{r4, r5, r6, pc}
 494              	.L53:
 495              	.LBB7:
 496              	.LBB6:
 497              	.LBB5:
 498              		.loc 1 77 0
 499 0202 FD20     		movs	r0, #253
 500 0204 FAE7     		b	.L24
 501              	.LVL52:
 502              	.L52:
 503              		.loc 1 80 0
 504 0206 FC20     		movs	r0, #252
 505              	.LVL53:
 506 0208 F8E7     		b	.L24
 507              	.L36:
 508              	.LBE5:
 509              	.LBE6:
 510              	.LBE7:
 511              		.loc 1 66 0
ARM GAS  /tmp/cczRgItJ.s 			page 10


 512 020a FF20     		movs	r0, #255
 513 020c F6E7     		b	.L24
 514              	.L37:
 515              		.loc 1 71 0
 516 020e FE20     		movs	r0, #254
 517 0210 F4E7     		b	.L24
 518              	.LVL54:
 519              	.L54:
 520              		.loc 1 87 0
 521 0212 FB20     		movs	r0, #251
 522 0214 F2E7     		b	.L24
 523              		.cfi_endproc
 524              	.LFE120:
 525              		.size	read_dht11, .-read_dht11
 526 0216 00BFAFF3 		.text
 526      0080AFF3 
 526      0080
 527              	.Letext0:
 528              		.file 2 "/usr/bin/../lib/gcc/arm-none-eabi/4.7.4/../../../../arm-none-eabi/include/stdint.h"
 529              		.file 3 "dht11.h"
 530              		.file 4 "../../os/ports/GCC/ARMCMx/chtypes.h"
 531              		.file 5 "../../os/hal/platforms/STM32/GPIOv2/pal_lld.h"
 532              		.file 6 "../../os/ports/common/ARMCMx/CMSIS/include/core_cm4.h"
 533              		.file 7 "../../os/kernel/include/chthreads.h"