ARM GAS  /tmp/cc951f5a.s 			page 1


   1              		.syntax unified
   2              		.cpu cortex-m4
   3              		.eabi_attribute 27, 3
   4              		.eabi_attribute 28, 1
   5              		.fpu fpv4-sp-d16
   6              		.eabi_attribute 20, 1
   7              		.eabi_attribute 21, 1
   8              		.eabi_attribute 23, 3
   9              		.eabi_attribute 24, 1
  10              		.eabi_attribute 25, 1
  11              		.eabi_attribute 26, 1
  12              		.eabi_attribute 30, 2
  13              		.eabi_attribute 34, 1
  14              		.eabi_attribute 18, 4
  15              		.thumb
  16              		.file	"ds1820b.c"
  17              		.text
  18              	.Ltext0:
  19              		.cfi_sections	.debug_frame
  20              		.section	.text.ds1820BInit,"ax",%progbits
  21              		.align	2
  22              		.p2align 4,,15
  23              		.global	ds1820BInit
  24              		.thumb
  25              		.thumb_func
  26              		.type	ds1820BInit, %function
  27              	ds1820BInit:
  28              	.LFB118:
  29              		.file 1 "ds1820b.c"
  30              		.loc 1 10 0
  31              		.cfi_startproc
  32              		@ args = 0, pretend = 0, frame = 8
  33              		@ frame_needed = 0, uses_anonymous_args = 0
  34              	.LVL0:
  35 0000 30B5     		push	{r4, r5, lr}
  36              	.LCFI0:
  37              		.cfi_def_cfa_offset 12
  38              		.cfi_offset 4, -12
  39              		.cfi_offset 5, -8
  40              		.cfi_offset 14, -4
  41              		.loc 1 11 0
  42 0002 1B4B     		ldr	r3, .L10
  43              		.loc 1 10 0
  44 0004 83B0     		sub	sp, sp, #12
  45              	.LCFI1:
  46              		.cfi_def_cfa_offset 24
  47              		.loc 1 10 0
  48 0006 0446     		mov	r4, r0
  49              		.loc 1 11 0
  50 0008 1868     		ldr	r0, [r3, #0]	@ unaligned
  51              	.LVL1:
  52              		.loc 1 13 0
  53 000a 092A     		cmp	r2, #9
  54              		.loc 1 11 0
  55 000c 0190     		str	r0, [sp, #4]	@ unaligned
  56              		.loc 1 10 0
  57 000e 0D46     		mov	r5, r1
ARM GAS  /tmp/cc951f5a.s 			page 2


  58              		.loc 1 13 0
  59 0010 0BD9     		bls	.L2
  60              		.loc 1 15 0
  61 0012 0A2A     		cmp	r2, #10
  62              		.loc 1 16 0
  63 0014 9DF80710 		ldrb	r1, [sp, #7]	@ zero_extendqisi2
  64              	.LVL2:
  65              		.loc 1 15 0
  66 0018 1BD0     		beq	.L8
  67              		.loc 1 17 0
  68 001a 0B2A     		cmp	r2, #11
  69              		.loc 1 18 0
  70 001c 0CBF     		ite	eq
  71 001e 41F04001 		orreq	r1, r1, #64
  72              		.loc 1 20 0
  73 0022 41F06001 		orrne	r1, r1, #96
  74 0026 8DF80710 		strb	r1, [sp, #7]
  75              	.L2:
  76              		.loc 1 23 0
  77 002a 2046     		mov	r0, r4
  78 002c FFF7FEFF 		bl	oneWireReset
  79              	.LVL3:
  80              		.loc 1 25 0
  81 0030 2046     		mov	r0, r4
  82              		.loc 1 24 0
  83 0032 C5B1     		cbz	r5, .L9
  84              	.LVL4:
  85              	.L5:
  86              		.loc 1 27 0
  87 0034 5521     		movs	r1, #85
  88 0036 FFF7FEFF 		bl	oneWireSendByte
  89              	.LVL5:
  90              		.loc 1 28 0
  91 003a 2046     		mov	r0, r4
  92 003c 2946     		mov	r1, r5
  93 003e 0822     		movs	r2, #8
  94 0040 FFF7FEFF 		bl	oneWireSend
  95              	.LVL6:
  96              	.L6:
  97              		.loc 1 31 0
  98 0044 2046     		mov	r0, r4
  99 0046 01A9     		add	r1, sp, #4
 100 0048 0422     		movs	r2, #4
 101 004a FFF7FEFF 		bl	oneWireSend
 102              	.LVL7:
 103              		.loc 1 32 0
 104 004e 03B0     		add	sp, sp, #12
 105 0050 30BD     		pop	{r4, r5, pc}
 106              	.LVL8:
 107              	.L8:
 108              		.loc 1 16 0
 109 0052 41F02002 		orr	r2, r1, #32
 110              	.LVL9:
 111              		.loc 1 23 0
 112 0056 2046     		mov	r0, r4
 113              		.loc 1 16 0
 114 0058 8DF80720 		strb	r2, [sp, #7]
ARM GAS  /tmp/cc951f5a.s 			page 3


 115              		.loc 1 23 0
 116 005c FFF7FEFF 		bl	oneWireReset
 117              	.LVL10:
 118              		.loc 1 25 0
 119 0060 2046     		mov	r0, r4
 120              		.loc 1 24 0
 121 0062 002D     		cmp	r5, #0
 122 0064 E6D1     		bne	.L5
 123              	.LVL11:
 124              	.L9:
 125              		.loc 1 25 0
 126 0066 CC21     		movs	r1, #204
 127 0068 FFF7FEFF 		bl	oneWireSendByte
 128              	.LVL12:
 129 006c EAE7     		b	.L6
 130              	.L11:
 131 006e 00BF     		.align	2
 132              	.L10:
 133 0070 00000000 		.word	.LANCHOR0
 134              		.cfi_endproc
 135              	.LFE118:
 136              		.size	ds1820BInit, .-ds1820BInit
 137 0074 AFF30080 		.section	.text.ds1820BGetTemp,"ax",%progbits
 137      AFF30080 
 137      AFF30080 
 138              		.align	2
 139              		.p2align 4,,15
 140              		.global	ds1820BGetTemp
 141              		.thumb
 142              		.thumb_func
 143              		.type	ds1820BGetTemp, %function
 144              	ds1820BGetTemp:
 145              	.LFB119:
 146              		.loc 1 35 0
 147              		.cfi_startproc
 148              		@ args = 0, pretend = 0, frame = 16
 149              		@ frame_needed = 0, uses_anonymous_args = 0
 150              	.LVL13:
 151 0000 30B5     		push	{r4, r5, lr}
 152              	.LCFI2:
 153              		.cfi_def_cfa_offset 12
 154              		.cfi_offset 4, -12
 155              		.cfi_offset 5, -8
 156              		.cfi_offset 14, -4
 157 0002 0446     		mov	r4, r0
 158 0004 85B0     		sub	sp, sp, #20
 159              	.LCFI3:
 160              		.cfi_def_cfa_offset 32
 161              		.loc 1 35 0
 162 0006 0D46     		mov	r5, r1
 163              		.loc 1 38 0
 164 0008 FFF7FEFF 		bl	oneWireAcquireBus
 165              	.LVL14:
 166              		.loc 1 39 0
 167 000c 2046     		mov	r0, r4
 168 000e FFF7FEFF 		bl	oneWireReset
 169              	.LVL15:
ARM GAS  /tmp/cc951f5a.s 			page 4


 170              		.loc 1 41 0
 171 0012 2046     		mov	r0, r4
 172              		.loc 1 40 0
 173 0014 002D     		cmp	r5, #0
 174 0016 4ED0     		beq	.L21
 175              		.loc 1 43 0
 176 0018 5521     		movs	r1, #85
 177 001a FFF7FEFF 		bl	oneWireSendByte
 178              	.LVL16:
 179              		.loc 1 44 0
 180 001e 2046     		mov	r0, r4
 181 0020 2946     		mov	r1, r5
 182 0022 0822     		movs	r2, #8
 183 0024 FFF7FEFF 		bl	oneWireSend
 184              	.LVL17:
 185              	.L14:
 186              		.loc 1 47 0
 187 0028 2046     		mov	r0, r4
 188 002a 4421     		movs	r1, #68
 189 002c FFF7FEFF 		bl	oneWireSendByte
 190              	.LVL18:
 191              		.loc 1 48 0
 192 0030 6420     		movs	r0, #100
 193 0032 FFF7FEFF 		bl	chThdSleep
 194              	.LVL19:
 195              		.loc 1 49 0
 196 0036 02E0     		b	.L15
 197              	.L16:
 198              		.loc 1 50 0
 199 0038 0A20     		movs	r0, #10
 200 003a FFF7FEFF 		bl	chThdSleep
 201              	.LVL20:
 202              	.L15:
 203              		.loc 1 49 0 discriminator 1
 204 003e 2046     		mov	r0, r4
 205 0040 FFF7FEFF 		bl	oneWireReceiveBit
 206              	.LVL21:
 207 0044 0028     		cmp	r0, #0
 208 0046 F7D0     		beq	.L16
 209              		.loc 1 53 0
 210 0048 2046     		mov	r0, r4
 211 004a FFF7FEFF 		bl	oneWireReset
 212              	.LVL22:
 213              		.loc 1 55 0
 214 004e 2046     		mov	r0, r4
 215              		.loc 1 54 0
 216 0050 002D     		cmp	r5, #0
 217 0052 2CD0     		beq	.L22
 218              	.LVL23:
 219              		.loc 1 57 0
 220 0054 5521     		movs	r1, #85
 221 0056 FFF7FEFF 		bl	oneWireSendByte
 222              	.LVL24:
 223              		.loc 1 58 0
 224 005a 2046     		mov	r0, r4
 225 005c 2946     		mov	r1, r5
 226 005e 0822     		movs	r2, #8
ARM GAS  /tmp/cc951f5a.s 			page 5


 227 0060 FFF7FEFF 		bl	oneWireSend
 228              	.LVL25:
 229              	.L18:
 230              		.loc 1 61 0
 231 0064 BE21     		movs	r1, #190
 232 0066 2046     		mov	r0, r4
 233 0068 FFF7FEFF 		bl	oneWireSendByte
 234              	.LVL26:
 235              		.loc 1 62 0
 236 006c 0922     		movs	r2, #9
 237 006e 01A9     		add	r1, sp, #4
 238 0070 2046     		mov	r0, r4
 239 0072 FFF7FEFF 		bl	oneWireReceive
 240              	.LVL27:
 241              		.loc 1 63 0
 242 0076 0821     		movs	r1, #8
 243 0078 01A8     		add	r0, sp, #4
 244 007a FFF7FEFF 		bl	oneWireCrc8
 245              	.LVL28:
 246              		.loc 1 64 0
 247 007e 9DF80C30 		ldrb	r3, [sp, #12]	@ zero_extendqisi2
 248 0082 8342     		cmp	r3, r0
 249 0084 05D0     		beq	.L19
 250              		.loc 1 65 0
 251 0086 FFF7FEFF 		bl	oneWireRealeaseBus
 252              	.LVL29:
 253              		.loc 1 66 0
 254 008a 9FED0D0A 		flds	s0, .L23
 255              	.LVL30:
 256              	.L20:
 257              		.loc 1 73 0
 258 008e 05B0     		add	sp, sp, #20
 259 0090 30BD     		pop	{r4, r5, pc}
 260              	.LVL31:
 261              	.L19:
 262              		.loc 1 70 0
 263 0092 9DF80540 		ldrb	r4, [sp, #5]	@ zero_extendqisi2
 264              	.LVL32:
 265 0096 9DF80400 		ldrb	r0, [sp, #4]	@ zero_extendqisi2
 266              	.LVL33:
 267 009a 40EA0424 		orr	r4, r0, r4, lsl #8
 268              	.LVL34:
 269              		.loc 1 72 0
 270 009e 24B2     		sxth	r4, r4
 271              	.LVL35:
 272              		.loc 1 71 0
 273 00a0 FFF7FEFF 		bl	oneWireRealeaseBus
 274              	.LVL36:
 275              		.loc 1 72 0
 276 00a4 00EE104A 		fmsr	s0, r4	@ int
 277 00a8 BAEECE0A 		vcvt.f32.s32	s0, s0, #4
 278 00ac EFE7     		b	.L20
 279              	.LVL37:
 280              	.L22:
 281              		.loc 1 55 0
 282 00ae CC21     		movs	r1, #204
 283 00b0 FFF7FEFF 		bl	oneWireSendByte
ARM GAS  /tmp/cc951f5a.s 			page 6


 284              	.LVL38:
 285 00b4 D6E7     		b	.L18
 286              	.LVL39:
 287              	.L21:
 288              		.loc 1 41 0
 289 00b6 CC21     		movs	r1, #204
 290 00b8 FFF7FEFF 		bl	oneWireSendByte
 291              	.LVL40:
 292 00bc B4E7     		b	.L14
 293              	.L24:
 294 00be 00BF     		.align	2
 295              	.L23:
 296 00c0 0000C07F 		.word	2143289344
 297              		.cfi_endproc
 298              	.LFE119:
 299              		.size	ds1820BGetTemp, .-ds1820BGetTemp
 300 00c4 AFF30080 		.section	.text.ds1820BAskTemp,"ax",%progbits
 300      AFF30080 
 300      AFF30080 
 301              		.align	2
 302              		.p2align 4,,15
 303              		.global	ds1820BAskTemp
 304              		.thumb
 305              		.thumb_func
 306              		.type	ds1820BAskTemp, %function
 307              	ds1820BAskTemp:
 308              	.LFB120:
 309              		.loc 1 77 0
 310              		.cfi_startproc
 311              		@ args = 0, pretend = 0, frame = 0
 312              		@ frame_needed = 0, uses_anonymous_args = 0
 313              	.LVL41:
 314 0000 38B5     		push	{r3, r4, r5, lr}
 315              	.LCFI4:
 316              		.cfi_def_cfa_offset 16
 317              		.cfi_offset 3, -16
 318              		.cfi_offset 4, -12
 319              		.cfi_offset 5, -8
 320              		.cfi_offset 14, -4
 321              		.loc 1 77 0
 322 0002 0446     		mov	r4, r0
 323 0004 0D46     		mov	r5, r1
 324              		.loc 1 78 0
 325 0006 FFF7FEFF 		bl	oneWireAcquireBus
 326              	.LVL42:
 327              		.loc 1 79 0
 328 000a 2046     		mov	r0, r4
 329 000c FFF7FEFF 		bl	oneWireReset
 330              	.LVL43:
 331              		.loc 1 81 0
 332 0010 2046     		mov	r0, r4
 333              		.loc 1 80 0
 334 0012 7DB1     		cbz	r5, .L28
 335              		.loc 1 83 0
 336 0014 5521     		movs	r1, #85
 337 0016 FFF7FEFF 		bl	oneWireSendByte
 338              	.LVL44:
ARM GAS  /tmp/cc951f5a.s 			page 7


 339              		.loc 1 84 0
 340 001a 2046     		mov	r0, r4
 341 001c 2946     		mov	r1, r5
 342 001e 0822     		movs	r2, #8
 343 0020 FFF7FEFF 		bl	oneWireSend
 344              	.LVL45:
 345              	.L27:
 346              		.loc 1 86 0
 347 0024 2046     		mov	r0, r4
 348 0026 4421     		movs	r1, #68
 349 0028 FFF7FEFF 		bl	oneWireSendByte
 350              	.LVL46:
 351              		.loc 1 88 0
 352 002c BDE83840 		pop	{r3, r4, r5, lr}
 353              		.loc 1 87 0
 354 0030 FFF7FEBF 		b	oneWireRealeaseBus
 355              	.LVL47:
 356              	.L28:
 357              		.loc 1 81 0
 358 0034 CC21     		movs	r1, #204
 359 0036 FFF7FEFF 		bl	oneWireSendByte
 360              	.LVL48:
 361 003a F3E7     		b	.L27
 362              		.cfi_endproc
 363              	.LFE120:
 364              		.size	ds1820BAskTemp, .-ds1820BAskTemp
 365 003c AFF30080 		.section	.text.ds1820BGGetTempFromRam,"ax",%progbits
 366              		.align	2
 367              		.p2align 4,,15
 368              		.global	ds1820BGGetTempFromRam
 369              		.thumb
 370              		.thumb_func
 371              		.type	ds1820BGGetTempFromRam, %function
 372              	ds1820BGGetTempFromRam:
 373              	.LFB121:
 374              		.loc 1 92 0
 375              		.cfi_startproc
 376              		@ args = 0, pretend = 0, frame = 16
 377              		@ frame_needed = 0, uses_anonymous_args = 0
 378              	.LVL49:
 379 0000 30B5     		push	{r4, r5, lr}
 380              	.LCFI5:
 381              		.cfi_def_cfa_offset 12
 382              		.cfi_offset 4, -12
 383              		.cfi_offset 5, -8
 384              		.cfi_offset 14, -4
 385 0002 0446     		mov	r4, r0
 386 0004 85B0     		sub	sp, sp, #20
 387              	.LCFI6:
 388              		.cfi_def_cfa_offset 32
 389              		.loc 1 92 0
 390 0006 0D46     		mov	r5, r1
 391              		.loc 1 95 0
 392 0008 FFF7FEFF 		bl	oneWireAcquireBus
 393              	.LVL50:
 394              		.loc 1 97 0
 395 000c 2046     		mov	r0, r4
ARM GAS  /tmp/cc951f5a.s 			page 8


 396 000e FFF7FEFF 		bl	oneWireReset
 397              	.LVL51:
 398              		.loc 1 99 0
 399 0012 2046     		mov	r0, r4
 400              		.loc 1 98 0
 401 0014 002D     		cmp	r5, #0
 402 0016 2CD0     		beq	.L34
 403              		.loc 1 101 0
 404 0018 5521     		movs	r1, #85
 405 001a FFF7FEFF 		bl	oneWireSendByte
 406              	.LVL52:
 407              		.loc 1 102 0
 408 001e 2046     		mov	r0, r4
 409 0020 2946     		mov	r1, r5
 410 0022 0822     		movs	r2, #8
 411 0024 FFF7FEFF 		bl	oneWireSend
 412              	.LVL53:
 413              	.L31:
 414              		.loc 1 105 0
 415 0028 BE21     		movs	r1, #190
 416 002a 2046     		mov	r0, r4
 417 002c FFF7FEFF 		bl	oneWireSendByte
 418              	.LVL54:
 419              		.loc 1 106 0
 420 0030 0922     		movs	r2, #9
 421 0032 01A9     		add	r1, sp, #4
 422 0034 2046     		mov	r0, r4
 423 0036 FFF7FEFF 		bl	oneWireReceive
 424              	.LVL55:
 425              		.loc 1 107 0
 426 003a 0821     		movs	r1, #8
 427 003c 01A8     		add	r0, sp, #4
 428 003e FFF7FEFF 		bl	oneWireCrc8
 429              	.LVL56:
 430              		.loc 1 108 0
 431 0042 9DF80C30 		ldrb	r3, [sp, #12]	@ zero_extendqisi2
 432 0046 8342     		cmp	r3, r0
 433 0048 05D0     		beq	.L32
 434              		.loc 1 109 0
 435 004a FFF7FEFF 		bl	oneWireRealeaseBus
 436              	.LVL57:
 437              		.loc 1 110 0
 438 004e 9FED0B0A 		flds	s0, .L35
 439              	.L33:
 440              		.loc 1 116 0
 441 0052 05B0     		add	sp, sp, #20
 442 0054 30BD     		pop	{r4, r5, pc}
 443              	.LVL58:
 444              	.L32:
 445              		.loc 1 113 0
 446 0056 FFF7FEFF 		bl	oneWireRealeaseBus
 447              	.LVL59:
 448              		.loc 1 114 0
 449 005a 9DF80520 		ldrb	r2, [sp, #5]	@ zero_extendqisi2
 450 005e 9DF80400 		ldrb	r0, [sp, #4]	@ zero_extendqisi2
 451 0062 40EA0221 		orr	r1, r0, r2, lsl #8
 452              		.loc 1 115 0
ARM GAS  /tmp/cc951f5a.s 			page 9


 453 0066 0BB2     		sxth	r3, r1
 454 0068 00EE103A 		fmsr	s0, r3	@ int
 455 006c BAEECE0A 		vcvt.f32.s32	s0, s0, #4
 456 0070 EFE7     		b	.L33
 457              	.LVL60:
 458              	.L34:
 459              		.loc 1 99 0
 460 0072 CC21     		movs	r1, #204
 461 0074 FFF7FEFF 		bl	oneWireSendByte
 462              	.LVL61:
 463 0078 D6E7     		b	.L31
 464              	.L36:
 465 007a 00BF     		.align	2
 466              	.L35:
 467 007c 0000C07F 		.word	2143289344
 468              		.cfi_endproc
 469              	.LFE121:
 470              		.size	ds1820BGGetTempFromRam, .-ds1820BGGetTempFromRam
 471              		.section	.rodata
 472              		.align	2
 473              		.set	.LANCHOR0,. + 0
 474              	.LC0:
 475 0000 4E       		.byte	78
 476 0001 00       		.byte	0
 477 0002 FF       		.byte	-1
 478 0003 1F       		.byte	31
 479              		.text
 480              	.Letext0:
 481              		.file 2 "/usr/bin/../lib/gcc/arm-none-eabi/4.7.4/../../../../arm-none-eabi/include/stdint.h"
 482              		.file 3 "../../os/ports/GCC/ARMCMx/chtypes.h"
 483              		.file 4 "../../os/kernel/include/chlists.h"
 484              		.file 5 "../../os/kernel/include/chthreads.h"
 485              		.file 6 "../../os/ports/GCC/ARMCMx/chcore_v7m.h"
 486              		.file 7 "../../os/kernel/include/chsem.h"
 487              		.file 8 "../../os/kernel/include/chbsem.h"
 488              		.file 9 "../../os/kernel/include/chmtx.h"
 489              		.file 10 "../../os/hal/platforms/STM32F4xx/stm32f4xx.h"
 490              		.file 11 "../../os/hal/platforms/STM32F4xx/stm32_dma.h"
 491              		.file 12 "../../os/hal/platforms/STM32/GPIOv2/pal_lld.h"
 492              		.file 13 "../../os/hal/include/uart.h"
 493              		.file 14 "../../os/hal/platforms/STM32/USARTv1/uart_lld.h"
 494              		.file 15 "oneWire.h"
 495              		.file 16 "../../os/ports/common/ARMCMx/CMSIS/include/core_cm4.h"
 496              		.section	.debug_info,"",%progbits
 497              	.Ldebug_info0:
 498 0000 8C110000 		.4byte	0x118c
 499 0004 0200     		.2byte	0x2
 500 0006 00000000 		.4byte	.Ldebug_abbrev0
 501 000a 04       		.byte	0x4
 502 000b 01       		.uleb128 0x1
 503 000c C2020000 		.4byte	.LASF165
 504 0010 01       		.byte	0x1
 505 0011 35020000 		.4byte	.LASF166
 506 0015 9A040000 		.4byte	.LASF167
 507 0019 00000000 		.4byte	.Ldebug_ranges0+0
 508 001d 00000000 		.4byte	0
 509 0021 00000000 		.4byte	0
ARM GAS  /tmp/cc951f5a.s 			page 10


 510 0025 00000000 		.4byte	.Ldebug_line0
 511 0029 02       		.uleb128 0x2
 512 002a 04       		.byte	0x4
 513 002b 05       		.byte	0x5
 514 002c 696E7400 		.ascii	"int\000"
 515 0030 03       		.uleb128 0x3
 516 0031 04       		.byte	0x4
 517 0032 07       		.byte	0x7
 518 0033 E6010000 		.4byte	.LASF0
 519 0037 03       		.uleb128 0x3
 520 0038 01       		.byte	0x1
 521 0039 06       		.byte	0x6
 522 003a C8000000 		.4byte	.LASF1
 523 003e 04       		.uleb128 0x4
 524 003f 82060000 		.4byte	.LASF3
 525 0043 02       		.byte	0x2
 526 0044 2A       		.byte	0x2a
 527 0045 49000000 		.4byte	0x49
 528 0049 03       		.uleb128 0x3
 529 004a 01       		.byte	0x1
 530 004b 08       		.byte	0x8
 531 004c 5C040000 		.4byte	.LASF2
 532 0050 04       		.uleb128 0x4
 533 0051 B2000000 		.4byte	.LASF4
 534 0055 02       		.byte	0x2
 535 0056 35       		.byte	0x35
 536 0057 5B000000 		.4byte	0x5b
 537 005b 03       		.uleb128 0x3
 538 005c 02       		.byte	0x2
 539 005d 05       		.byte	0x5
 540 005e E7040000 		.4byte	.LASF5
 541 0062 04       		.uleb128 0x4
 542 0063 F3010000 		.4byte	.LASF6
 543 0067 02       		.byte	0x2
 544 0068 36       		.byte	0x36
 545 0069 6D000000 		.4byte	0x6d
 546 006d 03       		.uleb128 0x3
 547 006e 02       		.byte	0x2
 548 006f 07       		.byte	0x7
 549 0070 3F020000 		.4byte	.LASF7
 550 0074 04       		.uleb128 0x4
 551 0075 54040000 		.4byte	.LASF8
 552 0079 02       		.byte	0x2
 553 007a 4F       		.byte	0x4f
 554 007b 7F000000 		.4byte	0x7f
 555 007f 03       		.uleb128 0x3
 556 0080 04       		.byte	0x4
 557 0081 05       		.byte	0x5
 558 0082 33010000 		.4byte	.LASF9
 559 0086 04       		.uleb128 0x4
 560 0087 75050000 		.4byte	.LASF10
 561 008b 02       		.byte	0x2
 562 008c 50       		.byte	0x50
 563 008d 91000000 		.4byte	0x91
 564 0091 03       		.uleb128 0x3
 565 0092 04       		.byte	0x4
 566 0093 07       		.byte	0x7
ARM GAS  /tmp/cc951f5a.s 			page 11


 567 0094 88050000 		.4byte	.LASF11
 568 0098 03       		.uleb128 0x3
 569 0099 08       		.byte	0x8
 570 009a 05       		.byte	0x5
 571 009b BA000000 		.4byte	.LASF12
 572 009f 03       		.uleb128 0x3
 573 00a0 08       		.byte	0x8
 574 00a1 07       		.byte	0x7
 575 00a2 66000000 		.4byte	.LASF13
 576 00a6 04       		.uleb128 0x4
 577 00a7 A4000000 		.4byte	.LASF14
 578 00ab 03       		.byte	0x3
 579 00ac 24       		.byte	0x24
 580 00ad B1000000 		.4byte	0xb1
 581 00b1 03       		.uleb128 0x3
 582 00b2 01       		.byte	0x1
 583 00b3 02       		.byte	0x2
 584 00b4 4E040000 		.4byte	.LASF15
 585 00b8 04       		.uleb128 0x4
 586 00b9 8A020000 		.4byte	.LASF16
 587 00bd 03       		.byte	0x3
 588 00be 25       		.byte	0x25
 589 00bf 3E000000 		.4byte	0x3e
 590 00c3 04       		.uleb128 0x4
 591 00c4 3C010000 		.4byte	.LASF17
 592 00c8 03       		.byte	0x3
 593 00c9 26       		.byte	0x26
 594 00ca 3E000000 		.4byte	0x3e
 595 00ce 04       		.uleb128 0x4
 596 00cf D0030000 		.4byte	.LASF18
 597 00d3 03       		.byte	0x3
 598 00d4 27       		.byte	0x27
 599 00d5 3E000000 		.4byte	0x3e
 600 00d9 04       		.uleb128 0x4
 601 00da 1B010000 		.4byte	.LASF19
 602 00de 03       		.byte	0x3
 603 00df 28       		.byte	0x28
 604 00e0 3E000000 		.4byte	0x3e
 605 00e4 04       		.uleb128 0x4
 606 00e5 2F040000 		.4byte	.LASF20
 607 00e9 03       		.byte	0x3
 608 00ea 29       		.byte	0x29
 609 00eb 86000000 		.4byte	0x86
 610 00ef 04       		.uleb128 0x4
 611 00f0 68020000 		.4byte	.LASF21
 612 00f4 03       		.byte	0x3
 613 00f5 2A       		.byte	0x2a
 614 00f6 74000000 		.4byte	0x74
 615 00fa 04       		.uleb128 0x4
 616 00fb AD020000 		.4byte	.LASF22
 617 00ff 03       		.byte	0x3
 618 0100 2C       		.byte	0x2c
 619 0101 86000000 		.4byte	0x86
 620 0105 04       		.uleb128 0x4
 621 0106 D7050000 		.4byte	.LASF23
 622 010a 03       		.byte	0x3
 623 010b 2E       		.byte	0x2e
ARM GAS  /tmp/cc951f5a.s 			page 12


 624 010c 86000000 		.4byte	0x86
 625 0110 04       		.uleb128 0x4
 626 0111 6A030000 		.4byte	.LASF24
 627 0115 03       		.byte	0x3
 628 0116 2F       		.byte	0x2f
 629 0117 74000000 		.4byte	0x74
 630 011b 04       		.uleb128 0x4
 631 011c BF010000 		.4byte	.LASF25
 632 0120 04       		.byte	0x4
 633 0121 23       		.byte	0x23
 634 0122 26010000 		.4byte	0x126
 635 0126 05       		.uleb128 0x5
 636 0127 BF010000 		.4byte	.LASF25
 637 012b 48       		.byte	0x48
 638 012c 05       		.byte	0x5
 639 012d 57       		.byte	0x57
 640 012e 4B020000 		.4byte	0x24b
 641 0132 06       		.uleb128 0x6
 642 0133 15050000 		.4byte	.LASF26
 643 0137 05       		.byte	0x5
 644 0138 58       		.byte	0x58
 645 0139 70020000 		.4byte	0x270
 646 013d 02       		.byte	0x2
 647 013e 23       		.byte	0x23
 648 013f 00       		.uleb128 0
 649 0140 06       		.uleb128 0x6
 650 0141 0A040000 		.4byte	.LASF27
 651 0145 05       		.byte	0x5
 652 0146 5A       		.byte	0x5a
 653 0147 70020000 		.4byte	0x270
 654 014b 02       		.byte	0x2
 655 014c 23       		.byte	0x23
 656 014d 04       		.uleb128 0x4
 657 014e 06       		.uleb128 0x6
 658 014f AB000000 		.4byte	.LASF28
 659 0153 05       		.byte	0x5
 660 0154 5C       		.byte	0x5c
 661 0155 E4000000 		.4byte	0xe4
 662 0159 02       		.byte	0x2
 663 015a 23       		.byte	0x23
 664 015b 08       		.uleb128 0x8
 665 015c 06       		.uleb128 0x6
 666 015d F7060000 		.4byte	.LASF29
 667 0161 05       		.byte	0x5
 668 0162 5D       		.byte	0x5d
 669 0163 2E040000 		.4byte	0x42e
 670 0167 02       		.byte	0x2
 671 0168 23       		.byte	0x23
 672 0169 0C       		.uleb128 0xc
 673 016a 06       		.uleb128 0x6
 674 016b 51010000 		.4byte	.LASF30
 675 016f 05       		.byte	0x5
 676 0170 5F       		.byte	0x5f
 677 0171 70020000 		.4byte	0x270
 678 0175 02       		.byte	0x2
 679 0176 23       		.byte	0x23
 680 0177 10       		.uleb128 0x10
ARM GAS  /tmp/cc951f5a.s 			page 13


 681 0178 06       		.uleb128 0x6
 682 0179 7F030000 		.4byte	.LASF31
 683 017d 05       		.byte	0x5
 684 017e 60       		.byte	0x60
 685 017f 70020000 		.4byte	0x270
 686 0183 02       		.byte	0x2
 687 0184 23       		.byte	0x23
 688 0185 14       		.uleb128 0x14
 689 0186 06       		.uleb128 0x6
 690 0187 74060000 		.4byte	.LASF32
 691 018b 05       		.byte	0x5
 692 018c 67       		.byte	0x67
 693 018d 35050000 		.4byte	0x535
 694 0191 02       		.byte	0x2
 695 0192 23       		.byte	0x23
 696 0193 18       		.uleb128 0x18
 697 0194 06       		.uleb128 0x6
 698 0195 F1040000 		.4byte	.LASF33
 699 0199 05       		.byte	0x5
 700 019a 72       		.byte	0x72
 701 019b C3000000 		.4byte	0xc3
 702 019f 02       		.byte	0x2
 703 01a0 23       		.byte	0x23
 704 01a1 1C       		.uleb128 0x1c
 705 01a2 06       		.uleb128 0x6
 706 01a3 28050000 		.4byte	.LASF34
 707 01a7 05       		.byte	0x5
 708 01a8 76       		.byte	0x76
 709 01a9 B8000000 		.4byte	0xb8
 710 01ad 02       		.byte	0x2
 711 01ae 23       		.byte	0x23
 712 01af 1D       		.uleb128 0x1d
 713 01b0 06       		.uleb128 0x6
 714 01b1 7B060000 		.4byte	.LASF35
 715 01b5 05       		.byte	0x5
 716 01b6 7B       		.byte	0x7b
 717 01b7 CE000000 		.4byte	0xce
 718 01bb 02       		.byte	0x2
 719 01bc 23       		.byte	0x23
 720 01bd 1E       		.uleb128 0x1e
 721 01be 06       		.uleb128 0x6
 722 01bf F9040000 		.4byte	.LASF36
 723 01c3 05       		.byte	0x5
 724 01c4 81       		.byte	0x81
 725 01c5 D9000000 		.4byte	0xd9
 726 01c9 02       		.byte	0x2
 727 01ca 23       		.byte	0x23
 728 01cb 1F       		.uleb128 0x1f
 729 01cc 06       		.uleb128 0x6
 730 01cd 14000000 		.4byte	.LASF37
 731 01d1 05       		.byte	0x5
 732 01d2 88       		.byte	0x88
 733 01d3 5D040000 		.4byte	0x45d
 734 01d7 02       		.byte	0x2
 735 01d8 23       		.byte	0x23
 736 01d9 20       		.uleb128 0x20
 737 01da 07       		.uleb128 0x7
ARM GAS  /tmp/cc951f5a.s 			page 14


 738 01db 705F7500 		.ascii	"p_u\000"
 739 01df 05       		.byte	0x5
 740 01e0 AD       		.byte	0xad
 741 01e1 00050000 		.4byte	0x500
 742 01e5 02       		.byte	0x2
 743 01e6 23       		.byte	0x23
 744 01e7 24       		.uleb128 0x24
 745 01e8 06       		.uleb128 0x6
 746 01e9 FD060000 		.4byte	.LASF38
 747 01ed 05       		.byte	0x5
 748 01ee B2       		.byte	0xb2
 749 01ef 98020000 		.4byte	0x298
 750 01f3 02       		.byte	0x2
 751 01f4 23       		.byte	0x23
 752 01f5 28       		.uleb128 0x28
 753 01f6 06       		.uleb128 0x6
 754 01f7 08020000 		.4byte	.LASF39
 755 01fb 05       		.byte	0x5
 756 01fc B8       		.byte	0xb8
 757 01fd 76020000 		.4byte	0x276
 758 0201 02       		.byte	0x2
 759 0202 23       		.byte	0x23
 760 0203 2C       		.uleb128 0x2c
 761 0204 06       		.uleb128 0x6
 762 0205 D3060000 		.4byte	.LASF40
 763 0209 05       		.byte	0x5
 764 020a BC       		.byte	0xbc
 765 020b EF000000 		.4byte	0xef
 766 020f 02       		.byte	0x2
 767 0210 23       		.byte	0x23
 768 0211 34       		.uleb128 0x34
 769 0212 06       		.uleb128 0x6
 770 0213 49050000 		.4byte	.LASF41
 771 0217 05       		.byte	0x5
 772 0218 C2       		.byte	0xc2
 773 0219 FA000000 		.4byte	0xfa
 774 021d 02       		.byte	0x2
 775 021e 23       		.byte	0x23
 776 021f 38       		.uleb128 0x38
 777 0220 06       		.uleb128 0x6
 778 0221 DD040000 		.4byte	.LASF42
 779 0225 05       		.byte	0x5
 780 0226 C9       		.byte	0xc9
 781 0227 47050000 		.4byte	0x547
 782 022b 02       		.byte	0x2
 783 022c 23       		.byte	0x23
 784 022d 3C       		.uleb128 0x3c
 785 022e 06       		.uleb128 0x6
 786 022f E1050000 		.4byte	.LASF43
 787 0233 05       		.byte	0x5
 788 0234 CD       		.byte	0xcd
 789 0235 E4000000 		.4byte	0xe4
 790 0239 02       		.byte	0x2
 791 023a 23       		.byte	0x23
 792 023b 40       		.uleb128 0x40
 793 023c 06       		.uleb128 0x6
 794 023d E7000000 		.4byte	.LASF44
ARM GAS  /tmp/cc951f5a.s 			page 15


 795 0241 05       		.byte	0x5
 796 0242 D3       		.byte	0xd3
 797 0243 AE020000 		.4byte	0x2ae
 798 0247 02       		.byte	0x2
 799 0248 23       		.byte	0x23
 800 0249 44       		.uleb128 0x44
 801 024a 00       		.byte	0
 802 024b 08       		.uleb128 0x8
 803 024c 08       		.byte	0x8
 804 024d 04       		.byte	0x4
 805 024e 5A       		.byte	0x5a
 806 024f 70020000 		.4byte	0x270
 807 0253 06       		.uleb128 0x6
 808 0254 15050000 		.4byte	.LASF26
 809 0258 04       		.byte	0x4
 810 0259 5B       		.byte	0x5b
 811 025a 70020000 		.4byte	0x270
 812 025e 02       		.byte	0x2
 813 025f 23       		.byte	0x23
 814 0260 00       		.uleb128 0
 815 0261 06       		.uleb128 0x6
 816 0262 0A040000 		.4byte	.LASF27
 817 0266 04       		.byte	0x4
 818 0267 5D       		.byte	0x5d
 819 0268 70020000 		.4byte	0x270
 820 026c 02       		.byte	0x2
 821 026d 23       		.byte	0x23
 822 026e 04       		.uleb128 0x4
 823 026f 00       		.byte	0
 824 0270 09       		.uleb128 0x9
 825 0271 04       		.byte	0x4
 826 0272 1B010000 		.4byte	0x11b
 827 0276 04       		.uleb128 0x4
 828 0277 93030000 		.4byte	.LASF45
 829 027b 04       		.byte	0x4
 830 027c 5F       		.byte	0x5f
 831 027d 4B020000 		.4byte	0x24b
 832 0281 08       		.uleb128 0x8
 833 0282 04       		.byte	0x4
 834 0283 04       		.byte	0x4
 835 0284 64       		.byte	0x64
 836 0285 98020000 		.4byte	0x298
 837 0289 06       		.uleb128 0x6
 838 028a 15050000 		.4byte	.LASF26
 839 028e 04       		.byte	0x4
 840 028f 66       		.byte	0x66
 841 0290 70020000 		.4byte	0x270
 842 0294 02       		.byte	0x2
 843 0295 23       		.byte	0x23
 844 0296 00       		.uleb128 0
 845 0297 00       		.byte	0
 846 0298 04       		.uleb128 0x4
 847 0299 A1020000 		.4byte	.LASF46
 848 029d 04       		.byte	0x4
 849 029e 69       		.byte	0x69
 850 029f 81020000 		.4byte	0x281
 851 02a3 04       		.uleb128 0x4
ARM GAS  /tmp/cc951f5a.s 			page 16


 852 02a4 AC010000 		.4byte	.LASF47
 853 02a8 06       		.byte	0x6
 854 02a9 DE       		.byte	0xde
 855 02aa AE020000 		.4byte	0x2ae
 856 02ae 0A       		.uleb128 0xa
 857 02af 04       		.byte	0x4
 858 02b0 0B       		.uleb128 0xb
 859 02b1 24060000 		.4byte	.LASF48
 860 02b5 64       		.byte	0x64
 861 02b6 06       		.byte	0x6
 862 02b7 0501     		.2byte	0x105
 863 02b9 2E040000 		.4byte	0x42e
 864 02bd 0C       		.uleb128 0xc
 865 02be 73313600 		.ascii	"s16\000"
 866 02c2 06       		.byte	0x6
 867 02c3 0701     		.2byte	0x107
 868 02c5 A3020000 		.4byte	0x2a3
 869 02c9 02       		.byte	0x2
 870 02ca 23       		.byte	0x23
 871 02cb 00       		.uleb128 0
 872 02cc 0C       		.uleb128 0xc
 873 02cd 73313700 		.ascii	"s17\000"
 874 02d1 06       		.byte	0x6
 875 02d2 0801     		.2byte	0x108
 876 02d4 A3020000 		.4byte	0x2a3
 877 02d8 02       		.byte	0x2
 878 02d9 23       		.byte	0x23
 879 02da 04       		.uleb128 0x4
 880 02db 0C       		.uleb128 0xc
 881 02dc 73313800 		.ascii	"s18\000"
 882 02e0 06       		.byte	0x6
 883 02e1 0901     		.2byte	0x109
 884 02e3 A3020000 		.4byte	0x2a3
 885 02e7 02       		.byte	0x2
 886 02e8 23       		.byte	0x23
 887 02e9 08       		.uleb128 0x8
 888 02ea 0C       		.uleb128 0xc
 889 02eb 73313900 		.ascii	"s19\000"
 890 02ef 06       		.byte	0x6
 891 02f0 0A01     		.2byte	0x10a
 892 02f2 A3020000 		.4byte	0x2a3
 893 02f6 02       		.byte	0x2
 894 02f7 23       		.byte	0x23
 895 02f8 0C       		.uleb128 0xc
 896 02f9 0C       		.uleb128 0xc
 897 02fa 73323000 		.ascii	"s20\000"
 898 02fe 06       		.byte	0x6
 899 02ff 0B01     		.2byte	0x10b
 900 0301 A3020000 		.4byte	0x2a3
 901 0305 02       		.byte	0x2
 902 0306 23       		.byte	0x23
 903 0307 10       		.uleb128 0x10
 904 0308 0C       		.uleb128 0xc
 905 0309 73323100 		.ascii	"s21\000"
 906 030d 06       		.byte	0x6
 907 030e 0C01     		.2byte	0x10c
 908 0310 A3020000 		.4byte	0x2a3
ARM GAS  /tmp/cc951f5a.s 			page 17


 909 0314 02       		.byte	0x2
 910 0315 23       		.byte	0x23
 911 0316 14       		.uleb128 0x14
 912 0317 0C       		.uleb128 0xc
 913 0318 73323200 		.ascii	"s22\000"
 914 031c 06       		.byte	0x6
 915 031d 0D01     		.2byte	0x10d
 916 031f A3020000 		.4byte	0x2a3
 917 0323 02       		.byte	0x2
 918 0324 23       		.byte	0x23
 919 0325 18       		.uleb128 0x18
 920 0326 0C       		.uleb128 0xc
 921 0327 73323300 		.ascii	"s23\000"
 922 032b 06       		.byte	0x6
 923 032c 0E01     		.2byte	0x10e
 924 032e A3020000 		.4byte	0x2a3
 925 0332 02       		.byte	0x2
 926 0333 23       		.byte	0x23
 927 0334 1C       		.uleb128 0x1c
 928 0335 0C       		.uleb128 0xc
 929 0336 73323400 		.ascii	"s24\000"
 930 033a 06       		.byte	0x6
 931 033b 0F01     		.2byte	0x10f
 932 033d A3020000 		.4byte	0x2a3
 933 0341 02       		.byte	0x2
 934 0342 23       		.byte	0x23
 935 0343 20       		.uleb128 0x20
 936 0344 0C       		.uleb128 0xc
 937 0345 73323500 		.ascii	"s25\000"
 938 0349 06       		.byte	0x6
 939 034a 1001     		.2byte	0x110
 940 034c A3020000 		.4byte	0x2a3
 941 0350 02       		.byte	0x2
 942 0351 23       		.byte	0x23
 943 0352 24       		.uleb128 0x24
 944 0353 0C       		.uleb128 0xc
 945 0354 73323600 		.ascii	"s26\000"
 946 0358 06       		.byte	0x6
 947 0359 1101     		.2byte	0x111
 948 035b A3020000 		.4byte	0x2a3
 949 035f 02       		.byte	0x2
 950 0360 23       		.byte	0x23
 951 0361 28       		.uleb128 0x28
 952 0362 0C       		.uleb128 0xc
 953 0363 73323700 		.ascii	"s27\000"
 954 0367 06       		.byte	0x6
 955 0368 1201     		.2byte	0x112
 956 036a A3020000 		.4byte	0x2a3
 957 036e 02       		.byte	0x2
 958 036f 23       		.byte	0x23
 959 0370 2C       		.uleb128 0x2c
 960 0371 0C       		.uleb128 0xc
 961 0372 73323800 		.ascii	"s28\000"
 962 0376 06       		.byte	0x6
 963 0377 1301     		.2byte	0x113
 964 0379 A3020000 		.4byte	0x2a3
 965 037d 02       		.byte	0x2
ARM GAS  /tmp/cc951f5a.s 			page 18


 966 037e 23       		.byte	0x23
 967 037f 30       		.uleb128 0x30
 968 0380 0C       		.uleb128 0xc
 969 0381 73323900 		.ascii	"s29\000"
 970 0385 06       		.byte	0x6
 971 0386 1401     		.2byte	0x114
 972 0388 A3020000 		.4byte	0x2a3
 973 038c 02       		.byte	0x2
 974 038d 23       		.byte	0x23
 975 038e 34       		.uleb128 0x34
 976 038f 0C       		.uleb128 0xc
 977 0390 73333000 		.ascii	"s30\000"
 978 0394 06       		.byte	0x6
 979 0395 1501     		.2byte	0x115
 980 0397 A3020000 		.4byte	0x2a3
 981 039b 02       		.byte	0x2
 982 039c 23       		.byte	0x23
 983 039d 38       		.uleb128 0x38
 984 039e 0C       		.uleb128 0xc
 985 039f 73333100 		.ascii	"s31\000"
 986 03a3 06       		.byte	0x6
 987 03a4 1601     		.2byte	0x116
 988 03a6 A3020000 		.4byte	0x2a3
 989 03aa 02       		.byte	0x2
 990 03ab 23       		.byte	0x23
 991 03ac 3C       		.uleb128 0x3c
 992 03ad 0C       		.uleb128 0xc
 993 03ae 723400   		.ascii	"r4\000"
 994 03b1 06       		.byte	0x6
 995 03b2 1801     		.2byte	0x118
 996 03b4 A3020000 		.4byte	0x2a3
 997 03b8 02       		.byte	0x2
 998 03b9 23       		.byte	0x23
 999 03ba 40       		.uleb128 0x40
 1000 03bb 0C       		.uleb128 0xc
 1001 03bc 723500   		.ascii	"r5\000"
 1002 03bf 06       		.byte	0x6
 1003 03c0 1901     		.2byte	0x119
 1004 03c2 A3020000 		.4byte	0x2a3
 1005 03c6 02       		.byte	0x2
 1006 03c7 23       		.byte	0x23
 1007 03c8 44       		.uleb128 0x44
 1008 03c9 0C       		.uleb128 0xc
 1009 03ca 723600   		.ascii	"r6\000"
 1010 03cd 06       		.byte	0x6
 1011 03ce 1A01     		.2byte	0x11a
 1012 03d0 A3020000 		.4byte	0x2a3
 1013 03d4 02       		.byte	0x2
 1014 03d5 23       		.byte	0x23
 1015 03d6 48       		.uleb128 0x48
 1016 03d7 0C       		.uleb128 0xc
 1017 03d8 723700   		.ascii	"r7\000"
 1018 03db 06       		.byte	0x6
 1019 03dc 1B01     		.2byte	0x11b
 1020 03de A3020000 		.4byte	0x2a3
 1021 03e2 02       		.byte	0x2
 1022 03e3 23       		.byte	0x23
ARM GAS  /tmp/cc951f5a.s 			page 19


 1023 03e4 4C       		.uleb128 0x4c
 1024 03e5 0C       		.uleb128 0xc
 1025 03e6 723800   		.ascii	"r8\000"
 1026 03e9 06       		.byte	0x6
 1027 03ea 1C01     		.2byte	0x11c
 1028 03ec A3020000 		.4byte	0x2a3
 1029 03f0 02       		.byte	0x2
 1030 03f1 23       		.byte	0x23
 1031 03f2 50       		.uleb128 0x50
 1032 03f3 0C       		.uleb128 0xc
 1033 03f4 723900   		.ascii	"r9\000"
 1034 03f7 06       		.byte	0x6
 1035 03f8 1D01     		.2byte	0x11d
 1036 03fa A3020000 		.4byte	0x2a3
 1037 03fe 02       		.byte	0x2
 1038 03ff 23       		.byte	0x23
 1039 0400 54       		.uleb128 0x54
 1040 0401 0C       		.uleb128 0xc
 1041 0402 72313000 		.ascii	"r10\000"
 1042 0406 06       		.byte	0x6
 1043 0407 1E01     		.2byte	0x11e
 1044 0409 A3020000 		.4byte	0x2a3
 1045 040d 02       		.byte	0x2
 1046 040e 23       		.byte	0x23
 1047 040f 58       		.uleb128 0x58
 1048 0410 0C       		.uleb128 0xc
 1049 0411 72313100 		.ascii	"r11\000"
 1050 0415 06       		.byte	0x6
 1051 0416 1F01     		.2byte	0x11f
 1052 0418 A3020000 		.4byte	0x2a3
 1053 041c 02       		.byte	0x2
 1054 041d 23       		.byte	0x23
 1055 041e 5C       		.uleb128 0x5c
 1056 041f 0C       		.uleb128 0xc
 1057 0420 6C7200   		.ascii	"lr\000"
 1058 0423 06       		.byte	0x6
 1059 0424 2001     		.2byte	0x120
 1060 0426 A3020000 		.4byte	0x2a3
 1061 042a 02       		.byte	0x2
 1062 042b 23       		.byte	0x23
 1063 042c 60       		.uleb128 0x60
 1064 042d 00       		.byte	0
 1065 042e 0B       		.uleb128 0xb
 1066 042f 1C060000 		.4byte	.LASF49
 1067 0433 04       		.byte	0x4
 1068 0434 06       		.byte	0x6
 1069 0435 2A01     		.2byte	0x12a
 1070 0437 4B040000 		.4byte	0x44b
 1071 043b 0C       		.uleb128 0xc
 1072 043c 72313300 		.ascii	"r13\000"
 1073 0440 06       		.byte	0x6
 1074 0441 2B01     		.2byte	0x12b
 1075 0443 4B040000 		.4byte	0x44b
 1076 0447 02       		.byte	0x2
 1077 0448 23       		.byte	0x23
 1078 0449 00       		.uleb128 0
 1079 044a 00       		.byte	0
ARM GAS  /tmp/cc951f5a.s 			page 20


 1080 044b 09       		.uleb128 0x9
 1081 044c 04       		.byte	0x4
 1082 044d B0020000 		.4byte	0x2b0
 1083 0451 0D       		.uleb128 0xd
 1084 0452 86000000 		.4byte	0x86
 1085 0456 03       		.uleb128 0x3
 1086 0457 04       		.byte	0x4
 1087 0458 07       		.byte	0x7
 1088 0459 3C030000 		.4byte	.LASF50
 1089 045d 0D       		.uleb128 0xd
 1090 045e 05010000 		.4byte	0x105
 1091 0462 05       		.uleb128 0x5
 1092 0463 5F060000 		.4byte	.LASF51
 1093 0467 0C       		.byte	0xc
 1094 0468 07       		.byte	0x7
 1095 0469 25       		.byte	0x25
 1096 046a 8B040000 		.4byte	0x48b
 1097 046e 06       		.uleb128 0x6
 1098 046f 59010000 		.4byte	.LASF52
 1099 0473 07       		.byte	0x7
 1100 0474 26       		.byte	0x26
 1101 0475 76020000 		.4byte	0x276
 1102 0479 02       		.byte	0x2
 1103 047a 23       		.byte	0x23
 1104 047b 00       		.uleb128 0
 1105 047c 06       		.uleb128 0x6
 1106 047d 2F020000 		.4byte	.LASF53
 1107 0481 07       		.byte	0x7
 1108 0482 28       		.byte	0x28
 1109 0483 10010000 		.4byte	0x110
 1110 0487 02       		.byte	0x2
 1111 0488 23       		.byte	0x23
 1112 0489 08       		.uleb128 0x8
 1113 048a 00       		.byte	0
 1114 048b 04       		.uleb128 0x4
 1115 048c 5F060000 		.4byte	.LASF51
 1116 0490 07       		.byte	0x7
 1117 0491 29       		.byte	0x29
 1118 0492 62040000 		.4byte	0x462
 1119 0496 08       		.uleb128 0x8
 1120 0497 0C       		.byte	0xc
 1121 0498 08       		.byte	0x8
 1122 0499 3D       		.byte	0x3d
 1123 049a AD040000 		.4byte	0x4ad
 1124 049e 06       		.uleb128 0x6
 1125 049f CC060000 		.4byte	.LASF54
 1126 04a3 08       		.byte	0x8
 1127 04a4 3E       		.byte	0x3e
 1128 04a5 8B040000 		.4byte	0x48b
 1129 04a9 02       		.byte	0x2
 1130 04aa 23       		.byte	0x23
 1131 04ab 00       		.uleb128 0
 1132 04ac 00       		.byte	0
 1133 04ad 04       		.uleb128 0x4
 1134 04ae 29000000 		.4byte	.LASF55
 1135 04b2 08       		.byte	0x8
 1136 04b3 3F       		.byte	0x3f
ARM GAS  /tmp/cc951f5a.s 			page 21


 1137 04b4 96040000 		.4byte	0x496
 1138 04b8 05       		.uleb128 0x5
 1139 04b9 5C030000 		.4byte	.LASF56
 1140 04bd 10       		.byte	0x10
 1141 04be 09       		.byte	0x9
 1142 04bf 25       		.byte	0x25
 1143 04c0 EF040000 		.4byte	0x4ef
 1144 04c4 06       		.uleb128 0x6
 1145 04c5 F7000000 		.4byte	.LASF57
 1146 04c9 09       		.byte	0x9
 1147 04ca 26       		.byte	0x26
 1148 04cb 76020000 		.4byte	0x276
 1149 04cf 02       		.byte	0x2
 1150 04d0 23       		.byte	0x23
 1151 04d1 00       		.uleb128 0
 1152 04d2 06       		.uleb128 0x6
 1153 04d3 D9060000 		.4byte	.LASF58
 1154 04d7 09       		.byte	0x9
 1155 04d8 28       		.byte	0x28
 1156 04d9 70020000 		.4byte	0x270
 1157 04dd 02       		.byte	0x2
 1158 04de 23       		.byte	0x23
 1159 04df 08       		.uleb128 0x8
 1160 04e0 06       		.uleb128 0x6
 1161 04e1 D0050000 		.4byte	.LASF59
 1162 04e5 09       		.byte	0x9
 1163 04e6 2A       		.byte	0x2a
 1164 04e7 EF040000 		.4byte	0x4ef
 1165 04eb 02       		.byte	0x2
 1166 04ec 23       		.byte	0x23
 1167 04ed 0C       		.uleb128 0xc
 1168 04ee 00       		.byte	0
 1169 04ef 09       		.uleb128 0x9
 1170 04f0 04       		.byte	0x4
 1171 04f1 B8040000 		.4byte	0x4b8
 1172 04f5 04       		.uleb128 0x4
 1173 04f6 5C030000 		.4byte	.LASF56
 1174 04fa 09       		.byte	0x9
 1175 04fb 2C       		.byte	0x2c
 1176 04fc B8040000 		.4byte	0x4b8
 1177 0500 0E       		.uleb128 0xe
 1178 0501 04       		.byte	0x4
 1179 0502 05       		.byte	0x5
 1180 0503 8F       		.byte	0x8f
 1181 0504 35050000 		.4byte	0x535
 1182 0508 0F       		.uleb128 0xf
 1183 0509 22000000 		.4byte	.LASF60
 1184 050d 05       		.byte	0x5
 1185 050e 96       		.byte	0x96
 1186 050f EF000000 		.4byte	0xef
 1187 0513 0F       		.uleb128 0xf
 1188 0514 83000000 		.4byte	.LASF61
 1189 0518 05       		.byte	0x5
 1190 0519 9D       		.byte	0x9d
 1191 051a EF000000 		.4byte	0xef
 1192 051e 0F       		.uleb128 0xf
 1193 051f 9A060000 		.4byte	.LASF62
ARM GAS  /tmp/cc951f5a.s 			page 22


 1194 0523 05       		.byte	0x5
 1195 0524 A4       		.byte	0xa4
 1196 0525 AE020000 		.4byte	0x2ae
 1197 0529 0F       		.uleb128 0xf
 1198 052a 0E050000 		.4byte	.LASF63
 1199 052e 05       		.byte	0x5
 1200 052f AB       		.byte	0xab
 1201 0530 FA000000 		.4byte	0xfa
 1202 0534 00       		.byte	0
 1203 0535 09       		.uleb128 0x9
 1204 0536 04       		.byte	0x4
 1205 0537 3B050000 		.4byte	0x53b
 1206 053b 10       		.uleb128 0x10
 1207 053c 40050000 		.4byte	0x540
 1208 0540 03       		.uleb128 0x3
 1209 0541 01       		.byte	0x1
 1210 0542 08       		.byte	0x8
 1211 0543 9A050000 		.4byte	.LASF64
 1212 0547 09       		.uleb128 0x9
 1213 0548 04       		.byte	0x4
 1214 0549 F5040000 		.4byte	0x4f5
 1215 054d 09       		.uleb128 0x9
 1216 054e 04       		.byte	0x4
 1217 054f 3E000000 		.4byte	0x3e
 1218 0553 09       		.uleb128 0x9
 1219 0554 04       		.byte	0x4
 1220 0555 59050000 		.4byte	0x559
 1221 0559 10       		.uleb128 0x10
 1222 055a 3E000000 		.4byte	0x3e
 1223 055e 0D       		.uleb128 0xd
 1224 055f 62000000 		.4byte	0x62
 1225 0563 10       		.uleb128 0x10
 1226 0564 50000000 		.4byte	0x50
 1227 0568 0D       		.uleb128 0xd
 1228 0569 74000000 		.4byte	0x74
 1229 056d 11       		.uleb128 0x11
 1230 056e 18       		.byte	0x18
 1231 056f 0A       		.byte	0xa
 1232 0570 D301     		.2byte	0x1d3
 1233 0572 D0050000 		.4byte	0x5d0
 1234 0576 0C       		.uleb128 0xc
 1235 0577 435200   		.ascii	"CR\000"
 1236 057a 0A       		.byte	0xa
 1237 057b D501     		.2byte	0x1d5
 1238 057d 51040000 		.4byte	0x451
 1239 0581 02       		.byte	0x2
 1240 0582 23       		.byte	0x23
 1241 0583 00       		.uleb128 0
 1242 0584 12       		.uleb128 0x12
 1243 0585 F9050000 		.4byte	.LASF65
 1244 0589 0A       		.byte	0xa
 1245 058a D601     		.2byte	0x1d6
 1246 058c 51040000 		.4byte	0x451
 1247 0590 02       		.byte	0x2
 1248 0591 23       		.byte	0x23
 1249 0592 04       		.uleb128 0x4
 1250 0593 0C       		.uleb128 0xc
ARM GAS  /tmp/cc951f5a.s 			page 23


 1251 0594 50415200 		.ascii	"PAR\000"
 1252 0598 0A       		.byte	0xa
 1253 0599 D701     		.2byte	0x1d7
 1254 059b 51040000 		.4byte	0x451
 1255 059f 02       		.byte	0x2
 1256 05a0 23       		.byte	0x23
 1257 05a1 08       		.uleb128 0x8
 1258 05a2 12       		.uleb128 0x12
 1259 05a3 0F000000 		.4byte	.LASF66
 1260 05a7 0A       		.byte	0xa
 1261 05a8 D801     		.2byte	0x1d8
 1262 05aa 51040000 		.4byte	0x451
 1263 05ae 02       		.byte	0x2
 1264 05af 23       		.byte	0x23
 1265 05b0 0C       		.uleb128 0xc
 1266 05b1 12       		.uleb128 0x12
 1267 05b2 37060000 		.4byte	.LASF67
 1268 05b6 0A       		.byte	0xa
 1269 05b7 D901     		.2byte	0x1d9
 1270 05b9 51040000 		.4byte	0x451
 1271 05bd 02       		.byte	0x2
 1272 05be 23       		.byte	0x23
 1273 05bf 10       		.uleb128 0x10
 1274 05c0 0C       		.uleb128 0xc
 1275 05c1 46435200 		.ascii	"FCR\000"
 1276 05c5 0A       		.byte	0xa
 1277 05c6 DA01     		.2byte	0x1da
 1278 05c8 51040000 		.4byte	0x451
 1279 05cc 02       		.byte	0x2
 1280 05cd 23       		.byte	0x23
 1281 05ce 14       		.uleb128 0x14
 1282 05cf 00       		.byte	0
 1283 05d0 13       		.uleb128 0x13
 1284 05d1 FE050000 		.4byte	.LASF68
 1285 05d5 0A       		.byte	0xa
 1286 05d6 DB01     		.2byte	0x1db
 1287 05d8 6D050000 		.4byte	0x56d
 1288 05dc 11       		.uleb128 0x11
 1289 05dd 1C       		.byte	0x1c
 1290 05de 0A       		.byte	0xa
 1291 05df 9303     		.2byte	0x393
 1292 05e1 B6060000 		.4byte	0x6b6
 1293 05e5 0C       		.uleb128 0xc
 1294 05e6 535200   		.ascii	"SR\000"
 1295 05e9 0A       		.byte	0xa
 1296 05ea 9503     		.2byte	0x395
 1297 05ec 5E050000 		.4byte	0x55e
 1298 05f0 02       		.byte	0x2
 1299 05f1 23       		.byte	0x23
 1300 05f2 00       		.uleb128 0
 1301 05f3 12       		.uleb128 0x12
 1302 05f4 D8030000 		.4byte	.LASF69
 1303 05f8 0A       		.byte	0xa
 1304 05f9 9603     		.2byte	0x396
 1305 05fb 62000000 		.4byte	0x62
 1306 05ff 02       		.byte	0x2
 1307 0600 23       		.byte	0x23
ARM GAS  /tmp/cc951f5a.s 			page 24


 1308 0601 02       		.uleb128 0x2
 1309 0602 0C       		.uleb128 0xc
 1310 0603 445200   		.ascii	"DR\000"
 1311 0606 0A       		.byte	0xa
 1312 0607 9703     		.2byte	0x397
 1313 0609 5E050000 		.4byte	0x55e
 1314 060d 02       		.byte	0x2
 1315 060e 23       		.byte	0x23
 1316 060f 04       		.uleb128 0x4
 1317 0610 12       		.uleb128 0x12
 1318 0611 E2030000 		.4byte	.LASF70
 1319 0615 0A       		.byte	0xa
 1320 0616 9803     		.2byte	0x398
 1321 0618 62000000 		.4byte	0x62
 1322 061c 02       		.byte	0x2
 1323 061d 23       		.byte	0x23
 1324 061e 06       		.uleb128 0x6
 1325 061f 0C       		.uleb128 0xc
 1326 0620 42525200 		.ascii	"BRR\000"
 1327 0624 0A       		.byte	0xa
 1328 0625 9903     		.2byte	0x399
 1329 0627 5E050000 		.4byte	0x55e
 1330 062b 02       		.byte	0x2
 1331 062c 23       		.byte	0x23
 1332 062d 08       		.uleb128 0x8
 1333 062e 12       		.uleb128 0x12
 1334 062f EC030000 		.4byte	.LASF71
 1335 0633 0A       		.byte	0xa
 1336 0634 9A03     		.2byte	0x39a
 1337 0636 62000000 		.4byte	0x62
 1338 063a 02       		.byte	0x2
 1339 063b 23       		.byte	0x23
 1340 063c 0A       		.uleb128 0xa
 1341 063d 0C       		.uleb128 0xc
 1342 063e 43523100 		.ascii	"CR1\000"
 1343 0642 0A       		.byte	0xa
 1344 0643 9B03     		.2byte	0x39b
 1345 0645 5E050000 		.4byte	0x55e
 1346 0649 02       		.byte	0x2
 1347 064a 23       		.byte	0x23
 1348 064b 0C       		.uleb128 0xc
 1349 064c 12       		.uleb128 0x12
 1350 064d F6030000 		.4byte	.LASF72
 1351 0651 0A       		.byte	0xa
 1352 0652 9C03     		.2byte	0x39c
 1353 0654 62000000 		.4byte	0x62
 1354 0658 02       		.byte	0x2
 1355 0659 23       		.byte	0x23
 1356 065a 0E       		.uleb128 0xe
 1357 065b 0C       		.uleb128 0xc
 1358 065c 43523200 		.ascii	"CR2\000"
 1359 0660 0A       		.byte	0xa
 1360 0661 9D03     		.2byte	0x39d
 1361 0663 5E050000 		.4byte	0x55e
 1362 0667 02       		.byte	0x2
 1363 0668 23       		.byte	0x23
 1364 0669 10       		.uleb128 0x10
ARM GAS  /tmp/cc951f5a.s 			page 25


 1365 066a 12       		.uleb128 0x12
 1366 066b 00040000 		.4byte	.LASF73
 1367 066f 0A       		.byte	0xa
 1368 0670 9E03     		.2byte	0x39e
 1369 0672 62000000 		.4byte	0x62
 1370 0676 02       		.byte	0x2
 1371 0677 23       		.byte	0x23
 1372 0678 12       		.uleb128 0x12
 1373 0679 0C       		.uleb128 0xc
 1374 067a 43523300 		.ascii	"CR3\000"
 1375 067e 0A       		.byte	0xa
 1376 067f 9F03     		.2byte	0x39f
 1377 0681 5E050000 		.4byte	0x55e
 1378 0685 02       		.byte	0x2
 1379 0686 23       		.byte	0x23
 1380 0687 14       		.uleb128 0x14
 1381 0688 12       		.uleb128 0x12
 1382 0689 59050000 		.4byte	.LASF74
 1383 068d 0A       		.byte	0xa
 1384 068e A003     		.2byte	0x3a0
 1385 0690 62000000 		.4byte	0x62
 1386 0694 02       		.byte	0x2
 1387 0695 23       		.byte	0x23
 1388 0696 16       		.uleb128 0x16
 1389 0697 12       		.uleb128 0x12
 1390 0698 E2000000 		.4byte	.LASF75
 1391 069c 0A       		.byte	0xa
 1392 069d A103     		.2byte	0x3a1
 1393 069f 5E050000 		.4byte	0x55e
 1394 06a3 02       		.byte	0x2
 1395 06a4 23       		.byte	0x23
 1396 06a5 18       		.uleb128 0x18
 1397 06a6 12       		.uleb128 0x12
 1398 06a7 11040000 		.4byte	.LASF76
 1399 06ab 0A       		.byte	0xa
 1400 06ac A203     		.2byte	0x3a2
 1401 06ae 62000000 		.4byte	0x62
 1402 06b2 02       		.byte	0x2
 1403 06b3 23       		.byte	0x23
 1404 06b4 1A       		.uleb128 0x1a
 1405 06b5 00       		.byte	0
 1406 06b6 13       		.uleb128 0x13
 1407 06b7 7C020000 		.4byte	.LASF77
 1408 06bb 0A       		.byte	0xa
 1409 06bc A303     		.2byte	0x3a3
 1410 06be DC050000 		.4byte	0x5dc
 1411 06c2 08       		.uleb128 0x8
 1412 06c3 0C       		.byte	0xc
 1413 06c4 0B       		.byte	0xb
 1414 06c5 DA       		.byte	0xda
 1415 06c6 11070000 		.4byte	0x711
 1416 06ca 06       		.uleb128 0x6
 1417 06cb 47000000 		.4byte	.LASF78
 1418 06cf 0B       		.byte	0xb
 1419 06d0 DB       		.byte	0xdb
 1420 06d1 11070000 		.4byte	0x711
 1421 06d5 02       		.byte	0x2
ARM GAS  /tmp/cc951f5a.s 			page 26


 1422 06d6 23       		.byte	0x23
 1423 06d7 00       		.uleb128 0
 1424 06d8 06       		.uleb128 0x6
 1425 06d9 54050000 		.4byte	.LASF79
 1426 06dd 0B       		.byte	0xb
 1427 06de DC       		.byte	0xdc
 1428 06df 17070000 		.4byte	0x717
 1429 06e3 02       		.byte	0x2
 1430 06e4 23       		.byte	0x23
 1431 06e5 04       		.uleb128 0x4
 1432 06e6 06       		.uleb128 0x6
 1433 06e7 28020000 		.4byte	.LASF80
 1434 06eb 0B       		.byte	0xb
 1435 06ec DD       		.byte	0xdd
 1436 06ed 3E000000 		.4byte	0x3e
 1437 06f1 02       		.byte	0x2
 1438 06f2 23       		.byte	0x23
 1439 06f3 08       		.uleb128 0x8
 1440 06f4 06       		.uleb128 0x6
 1441 06f5 B5010000 		.4byte	.LASF81
 1442 06f9 0B       		.byte	0xb
 1443 06fa DF       		.byte	0xdf
 1444 06fb 3E000000 		.4byte	0x3e
 1445 06ff 02       		.byte	0x2
 1446 0700 23       		.byte	0x23
 1447 0701 09       		.uleb128 0x9
 1448 0702 06       		.uleb128 0x6
 1449 0703 39000000 		.4byte	.LASF82
 1450 0707 0B       		.byte	0xb
 1451 0708 E0       		.byte	0xe0
 1452 0709 3E000000 		.4byte	0x3e
 1453 070d 02       		.byte	0x2
 1454 070e 23       		.byte	0x23
 1455 070f 0A       		.uleb128 0xa
 1456 0710 00       		.byte	0
 1457 0711 09       		.uleb128 0x9
 1458 0712 04       		.byte	0x4
 1459 0713 D0050000 		.4byte	0x5d0
 1460 0717 09       		.uleb128 0x9
 1461 0718 04       		.byte	0x4
 1462 0719 51040000 		.4byte	0x451
 1463 071d 04       		.uleb128 0x4
 1464 071e 6A040000 		.4byte	.LASF83
 1465 0722 0B       		.byte	0xb
 1466 0723 E1       		.byte	0xe1
 1467 0724 C2060000 		.4byte	0x6c2
 1468 0728 08       		.uleb128 0x8
 1469 0729 04       		.byte	0x4
 1470 072a 0C       		.byte	0xc
 1471 072b 96       		.byte	0x96
 1472 072c 4D070000 		.4byte	0x74d
 1473 0730 07       		.uleb128 0x7
 1474 0731 73657400 		.ascii	"set\000"
 1475 0735 0C       		.byte	0xc
 1476 0736 97       		.byte	0x97
 1477 0737 62000000 		.4byte	0x62
 1478 073b 02       		.byte	0x2
ARM GAS  /tmp/cc951f5a.s 			page 27


 1479 073c 23       		.byte	0x23
 1480 073d 00       		.uleb128 0
 1481 073e 06       		.uleb128 0x6
 1482 073f 45030000 		.4byte	.LASF84
 1483 0743 0C       		.byte	0xc
 1484 0744 98       		.byte	0x98
 1485 0745 62000000 		.4byte	0x62
 1486 0749 02       		.byte	0x2
 1487 074a 23       		.byte	0x23
 1488 074b 02       		.uleb128 0x2
 1489 074c 00       		.byte	0
 1490 074d 0E       		.uleb128 0xe
 1491 074e 04       		.byte	0x4
 1492 074f 0C       		.byte	0xc
 1493 0750 94       		.byte	0x94
 1494 0751 68070000 		.4byte	0x768
 1495 0755 14       		.uleb128 0x14
 1496 0756 5700     		.ascii	"W\000"
 1497 0758 0C       		.byte	0xc
 1498 0759 95       		.byte	0x95
 1499 075a 86000000 		.4byte	0x86
 1500 075e 14       		.uleb128 0x14
 1501 075f 4800     		.ascii	"H\000"
 1502 0761 0C       		.byte	0xc
 1503 0762 99       		.byte	0x99
 1504 0763 28070000 		.4byte	0x728
 1505 0767 00       		.byte	0
 1506 0768 08       		.uleb128 0x8
 1507 0769 28       		.byte	0x28
 1508 076a 0C       		.byte	0xc
 1509 076b 8C       		.byte	0x8c
 1510 076c FD070000 		.4byte	0x7fd
 1511 0770 06       		.uleb128 0x6
 1512 0771 60000000 		.4byte	.LASF85
 1513 0775 0C       		.byte	0xc
 1514 0776 8E       		.byte	0x8e
 1515 0777 51040000 		.4byte	0x451
 1516 077b 02       		.byte	0x2
 1517 077c 23       		.byte	0x23
 1518 077d 00       		.uleb128 0
 1519 077e 06       		.uleb128 0x6
 1520 077f 40000000 		.4byte	.LASF86
 1521 0783 0C       		.byte	0xc
 1522 0784 8F       		.byte	0x8f
 1523 0785 51040000 		.4byte	0x451
 1524 0789 02       		.byte	0x2
 1525 078a 23       		.byte	0x23
 1526 078b 04       		.uleb128 0x4
 1527 078c 06       		.uleb128 0x6
 1528 078d A4010000 		.4byte	.LASF87
 1529 0791 0C       		.byte	0xc
 1530 0792 90       		.byte	0x90
 1531 0793 51040000 		.4byte	0x451
 1532 0797 02       		.byte	0x2
 1533 0798 23       		.byte	0x23
 1534 0799 08       		.uleb128 0x8
 1535 079a 06       		.uleb128 0x6
ARM GAS  /tmp/cc951f5a.s 			page 28


 1536 079b 7D000000 		.4byte	.LASF88
 1537 079f 0C       		.byte	0xc
 1538 07a0 91       		.byte	0x91
 1539 07a1 51040000 		.4byte	0x451
 1540 07a5 02       		.byte	0x2
 1541 07a6 23       		.byte	0x23
 1542 07a7 0C       		.uleb128 0xc
 1543 07a8 07       		.uleb128 0x7
 1544 07a9 49445200 		.ascii	"IDR\000"
 1545 07ad 0C       		.byte	0xc
 1546 07ae 92       		.byte	0x92
 1547 07af 51040000 		.4byte	0x451
 1548 07b3 02       		.byte	0x2
 1549 07b4 23       		.byte	0x23
 1550 07b5 10       		.uleb128 0x10
 1551 07b6 07       		.uleb128 0x7
 1552 07b7 4F445200 		.ascii	"ODR\000"
 1553 07bb 0C       		.byte	0xc
 1554 07bc 93       		.byte	0x93
 1555 07bd 51040000 		.4byte	0x451
 1556 07c1 02       		.byte	0x2
 1557 07c2 23       		.byte	0x23
 1558 07c3 14       		.uleb128 0x14
 1559 07c4 06       		.uleb128 0x6
 1560 07c5 DD000000 		.4byte	.LASF89
 1561 07c9 0C       		.byte	0xc
 1562 07ca 9A       		.byte	0x9a
 1563 07cb FD070000 		.4byte	0x7fd
 1564 07cf 02       		.byte	0x2
 1565 07d0 23       		.byte	0x23
 1566 07d1 18       		.uleb128 0x18
 1567 07d2 06       		.uleb128 0x6
 1568 07d3 23020000 		.4byte	.LASF90
 1569 07d7 0C       		.byte	0xc
 1570 07d8 9B       		.byte	0x9b
 1571 07d9 51040000 		.4byte	0x451
 1572 07dd 02       		.byte	0x2
 1573 07de 23       		.byte	0x23
 1574 07df 1C       		.uleb128 0x1c
 1575 07e0 06       		.uleb128 0x6
 1576 07e1 CB030000 		.4byte	.LASF91
 1577 07e5 0C       		.byte	0xc
 1578 07e6 9C       		.byte	0x9c
 1579 07e7 51040000 		.4byte	0x451
 1580 07eb 02       		.byte	0x2
 1581 07ec 23       		.byte	0x23
 1582 07ed 20       		.uleb128 0x20
 1583 07ee 06       		.uleb128 0x6
 1584 07ef B7030000 		.4byte	.LASF92
 1585 07f3 0C       		.byte	0xc
 1586 07f4 9D       		.byte	0x9d
 1587 07f5 51040000 		.4byte	0x451
 1588 07f9 02       		.byte	0x2
 1589 07fa 23       		.byte	0x23
 1590 07fb 24       		.uleb128 0x24
 1591 07fc 00       		.byte	0
 1592 07fd 0D       		.uleb128 0xd
ARM GAS  /tmp/cc951f5a.s 			page 29


 1593 07fe 4D070000 		.4byte	0x74d
 1594 0802 04       		.uleb128 0x4
 1595 0803 6C010000 		.4byte	.LASF93
 1596 0807 0C       		.byte	0xc
 1597 0808 9E       		.byte	0x9e
 1598 0809 68070000 		.4byte	0x768
 1599 080d 04       		.uleb128 0x4
 1600 080e 11060000 		.4byte	.LASF94
 1601 0812 0C       		.byte	0xc
 1602 0813 F5       		.byte	0xf5
 1603 0814 18080000 		.4byte	0x818
 1604 0818 09       		.uleb128 0x9
 1605 0819 04       		.byte	0x4
 1606 081a 02080000 		.4byte	0x802
 1607 081e 09       		.uleb128 0x9
 1608 081f 04       		.byte	0x4
 1609 0820 B6060000 		.4byte	0x6b6
 1610 0824 09       		.uleb128 0x9
 1611 0825 04       		.byte	0x4
 1612 0826 2A080000 		.4byte	0x82a
 1613 082a 10       		.uleb128 0x10
 1614 082b 1D070000 		.4byte	0x71d
 1615 082f 15       		.uleb128 0x15
 1616 0830 01       		.byte	0x1
 1617 0831 0D       		.byte	0xd
 1618 0832 41       		.byte	0x41
 1619 0833 4A080000 		.4byte	0x84a
 1620 0837 16       		.uleb128 0x16
 1621 0838 52020000 		.4byte	.LASF95
 1622 083c 00       		.sleb128 0
 1623 083d 16       		.uleb128 0x16
 1624 083e 5E020000 		.4byte	.LASF96
 1625 0842 01       		.sleb128 1
 1626 0843 16       		.uleb128 0x16
 1627 0844 C6010000 		.4byte	.LASF97
 1628 0848 02       		.sleb128 2
 1629 0849 00       		.byte	0
 1630 084a 04       		.uleb128 0x4
 1631 084b 1C050000 		.4byte	.LASF98
 1632 084f 0D       		.byte	0xd
 1633 0850 45       		.byte	0x45
 1634 0851 2F080000 		.4byte	0x82f
 1635 0855 15       		.uleb128 0x15
 1636 0856 01       		.byte	0x1
 1637 0857 0D       		.byte	0xd
 1638 0858 4A       		.byte	0x4a
 1639 0859 70080000 		.4byte	0x870
 1640 085d 16       		.uleb128 0x16
 1641 085e EC050000 		.4byte	.LASF99
 1642 0862 00       		.sleb128 0
 1643 0863 16       		.uleb128 0x16
 1644 0864 D1010000 		.4byte	.LASF100
 1645 0868 01       		.sleb128 1
 1646 0869 16       		.uleb128 0x16
 1647 086a 30050000 		.4byte	.LASF101
 1648 086e 02       		.sleb128 2
 1649 086f 00       		.byte	0
ARM GAS  /tmp/cc951f5a.s 			page 30


 1650 0870 04       		.uleb128 0x4
 1651 0871 A9030000 		.4byte	.LASF102
 1652 0875 0D       		.byte	0xd
 1653 0876 4E       		.byte	0x4e
 1654 0877 55080000 		.4byte	0x855
 1655 087b 15       		.uleb128 0x15
 1656 087c 01       		.byte	0x1
 1657 087d 0D       		.byte	0xd
 1658 087e 53       		.byte	0x53
 1659 087f 96080000 		.4byte	0x896
 1660 0883 16       		.uleb128 0x16
 1661 0884 A6050000 		.4byte	.LASF103
 1662 0888 00       		.sleb128 0
 1663 0889 16       		.uleb128 0x16
 1664 088a E8060000 		.4byte	.LASF104
 1665 088e 01       		.sleb128 1
 1666 088f 16       		.uleb128 0x16
 1667 0890 4B030000 		.4byte	.LASF105
 1668 0894 02       		.sleb128 2
 1669 0895 00       		.byte	0
 1670 0896 04       		.uleb128 0x4
 1671 0897 79010000 		.4byte	.LASF106
 1672 089b 0D       		.byte	0xd
 1673 089c 57       		.byte	0x57
 1674 089d 7B080000 		.4byte	0x87b
 1675 08a1 13       		.uleb128 0x13
 1676 08a2 87030000 		.4byte	.LASF107
 1677 08a6 0E       		.byte	0xe
 1678 08a7 FE01     		.2byte	0x1fe
 1679 08a9 86000000 		.4byte	0x86
 1680 08ad 13       		.uleb128 0x13
 1681 08ae 99010000 		.4byte	.LASF108
 1682 08b2 0E       		.byte	0xe
 1683 08b3 0302     		.2byte	0x203
 1684 08b5 B9080000 		.4byte	0x8b9
 1685 08b9 0B       		.uleb128 0xb
 1686 08ba 99010000 		.4byte	.LASF108
 1687 08be 1C       		.byte	0x1c
 1688 08bf 0E       		.byte	0xe
 1689 08c0 4B02     		.2byte	0x24b
 1690 08c2 4E090000 		.4byte	0x94e
 1691 08c6 12       		.uleb128 0x12
 1692 08c7 25010000 		.4byte	.LASF109
 1693 08cb 0E       		.byte	0xe
 1694 08cc 4F02     		.2byte	0x24f
 1695 08ce 4A080000 		.4byte	0x84a
 1696 08d2 02       		.byte	0x2
 1697 08d3 23       		.byte	0x23
 1698 08d4 00       		.uleb128 0
 1699 08d5 12       		.uleb128 0x12
 1700 08d6 2B010000 		.4byte	.LASF110
 1701 08da 0E       		.byte	0xe
 1702 08db 5302     		.2byte	0x253
 1703 08dd 70080000 		.4byte	0x870
 1704 08e1 02       		.byte	0x2
 1705 08e2 23       		.byte	0x23
 1706 08e3 01       		.uleb128 0x1
ARM GAS  /tmp/cc951f5a.s 			page 31


 1707 08e4 12       		.uleb128 0x12
 1708 08e5 EF000000 		.4byte	.LASF111
 1709 08e9 0E       		.byte	0xe
 1710 08ea 5702     		.2byte	0x257
 1711 08ec 96080000 		.4byte	0x896
 1712 08f0 02       		.byte	0x2
 1713 08f1 23       		.byte	0x23
 1714 08f2 02       		.uleb128 0x2
 1715 08f3 12       		.uleb128 0x12
 1716 08f4 9F050000 		.4byte	.LASF112
 1717 08f8 0E       		.byte	0xe
 1718 08f9 5B02     		.2byte	0x25b
 1719 08fb 550A0000 		.4byte	0xa55
 1720 08ff 02       		.byte	0x2
 1721 0900 23       		.byte	0x23
 1722 0901 04       		.uleb128 0x4
 1723 0902 12       		.uleb128 0x12
 1724 0903 E0010000 		.4byte	.LASF113
 1725 0907 0E       		.byte	0xe
 1726 0908 6302     		.2byte	0x263
 1727 090a 1E080000 		.4byte	0x81e
 1728 090e 02       		.byte	0x2
 1729 090f 23       		.byte	0x23
 1730 0910 08       		.uleb128 0x8
 1731 0911 12       		.uleb128 0x12
 1732 0912 8A060000 		.4byte	.LASF114
 1733 0916 0E       		.byte	0xe
 1734 0917 6702     		.2byte	0x267
 1735 0919 86000000 		.4byte	0x86
 1736 091d 02       		.byte	0x2
 1737 091e 23       		.byte	0x23
 1738 091f 0C       		.uleb128 0xc
 1739 0920 12       		.uleb128 0x12
 1740 0921 00000000 		.4byte	.LASF115
 1741 0925 0E       		.byte	0xe
 1742 0926 6B02     		.2byte	0x26b
 1743 0928 24080000 		.4byte	0x824
 1744 092c 02       		.byte	0x2
 1745 092d 23       		.byte	0x23
 1746 092e 10       		.uleb128 0x10
 1747 092f 12       		.uleb128 0x12
 1748 0930 87010000 		.4byte	.LASF116
 1749 0934 0E       		.byte	0xe
 1750 0935 6F02     		.2byte	0x26f
 1751 0937 24080000 		.4byte	0x824
 1752 093b 02       		.byte	0x2
 1753 093c 23       		.byte	0x23
 1754 093d 14       		.uleb128 0x14
 1755 093e 12       		.uleb128 0x12
 1756 093f 9E000000 		.4byte	.LASF117
 1757 0943 0E       		.byte	0xe
 1758 0944 7302     		.2byte	0x273
 1759 0946 5E050000 		.4byte	0x55e
 1760 094a 02       		.byte	0x2
 1761 094b 23       		.byte	0x23
 1762 094c 18       		.uleb128 0x18
 1763 094d 00       		.byte	0
ARM GAS  /tmp/cc951f5a.s 			page 32


 1764 094e 13       		.uleb128 0x13
 1765 094f D4000000 		.4byte	.LASF118
 1766 0953 0E       		.byte	0xe
 1767 0954 0A02     		.2byte	0x20a
 1768 0956 5A090000 		.4byte	0x95a
 1769 095a 09       		.uleb128 0x9
 1770 095b 04       		.byte	0x4
 1771 095c 60090000 		.4byte	0x960
 1772 0960 17       		.uleb128 0x17
 1773 0961 01       		.byte	0x1
 1774 0962 6C090000 		.4byte	0x96c
 1775 0966 18       		.uleb128 0x18
 1776 0967 6C090000 		.4byte	0x96c
 1777 096b 00       		.byte	0
 1778 096c 09       		.uleb128 0x9
 1779 096d 04       		.byte	0x4
 1780 096e AD080000 		.4byte	0x8ad
 1781 0972 13       		.uleb128 0x13
 1782 0973 7E050000 		.4byte	.LASF119
 1783 0977 0E       		.byte	0xe
 1784 0978 1202     		.2byte	0x212
 1785 097a 7E090000 		.4byte	0x97e
 1786 097e 09       		.uleb128 0x9
 1787 097f 04       		.byte	0x4
 1788 0980 84090000 		.4byte	0x984
 1789 0984 17       		.uleb128 0x17
 1790 0985 01       		.byte	0x1
 1791 0986 95090000 		.4byte	0x995
 1792 098a 18       		.uleb128 0x18
 1793 098b 6C090000 		.4byte	0x96c
 1794 098f 18       		.uleb128 0x18
 1795 0990 62000000 		.4byte	0x62
 1796 0994 00       		.byte	0
 1797 0995 13       		.uleb128 0x13
 1798 0996 19020000 		.4byte	.LASF120
 1799 099a 0E       		.byte	0xe
 1800 099b 1A02     		.2byte	0x21a
 1801 099d A1090000 		.4byte	0x9a1
 1802 09a1 09       		.uleb128 0x9
 1803 09a2 04       		.byte	0x4
 1804 09a3 A7090000 		.4byte	0x9a7
 1805 09a7 17       		.uleb128 0x17
 1806 09a8 01       		.byte	0x1
 1807 09a9 B8090000 		.4byte	0x9b8
 1808 09ad 18       		.uleb128 0x18
 1809 09ae 6C090000 		.4byte	0x96c
 1810 09b2 18       		.uleb128 0x18
 1811 09b3 A1080000 		.4byte	0x8a1
 1812 09b7 00       		.byte	0
 1813 09b8 11       		.uleb128 0x11
 1814 09b9 20       		.byte	0x20
 1815 09ba 0E       		.byte	0xe
 1816 09bb 2002     		.2byte	0x220
 1817 09bd 490A0000 		.4byte	0xa49
 1818 09c1 12       		.uleb128 0x12
 1819 09c2 C6050000 		.4byte	.LASF121
 1820 09c6 0E       		.byte	0xe
ARM GAS  /tmp/cc951f5a.s 			page 33


 1821 09c7 2402     		.2byte	0x224
 1822 09c9 4E090000 		.4byte	0x94e
 1823 09cd 02       		.byte	0x2
 1824 09ce 23       		.byte	0x23
 1825 09cf 00       		.uleb128 0
 1826 09d0 12       		.uleb128 0x12
 1827 09d1 25040000 		.4byte	.LASF122
 1828 09d5 0E       		.byte	0xe
 1829 09d6 2802     		.2byte	0x228
 1830 09d8 4E090000 		.4byte	0x94e
 1831 09dc 02       		.byte	0x2
 1832 09dd 23       		.byte	0x23
 1833 09de 04       		.uleb128 0x4
 1834 09df 12       		.uleb128 0x12
 1835 09e0 A0030000 		.4byte	.LASF123
 1836 09e4 0E       		.byte	0xe
 1837 09e5 2C02     		.2byte	0x22c
 1838 09e7 4E090000 		.4byte	0x94e
 1839 09eb 02       		.byte	0x2
 1840 09ec 23       		.byte	0x23
 1841 09ed 08       		.uleb128 0x8
 1842 09ee 12       		.uleb128 0x12
 1843 09ef 55060000 		.4byte	.LASF124
 1844 09f3 0E       		.byte	0xe
 1845 09f4 3002     		.2byte	0x230
 1846 09f6 72090000 		.4byte	0x972
 1847 09fa 02       		.byte	0x2
 1848 09fb 23       		.byte	0x23
 1849 09fc 0C       		.uleb128 0xc
 1850 09fd 12       		.uleb128 0x12
 1851 09fe B9020000 		.4byte	.LASF125
 1852 0a02 0E       		.byte	0xe
 1853 0a03 3402     		.2byte	0x234
 1854 0a05 95090000 		.4byte	0x995
 1855 0a09 02       		.byte	0x2
 1856 0a0a 23       		.byte	0x23
 1857 0a0b 10       		.uleb128 0x10
 1858 0a0c 12       		.uleb128 0x12
 1859 0a0d A1060000 		.4byte	.LASF126
 1860 0a11 0E       		.byte	0xe
 1861 0a12 3902     		.2byte	0x239
 1862 0a14 86000000 		.4byte	0x86
 1863 0a18 02       		.byte	0x2
 1864 0a19 23       		.byte	0x23
 1865 0a1a 14       		.uleb128 0x14
 1866 0a1b 0C       		.uleb128 0xc
 1867 0a1c 63723100 		.ascii	"cr1\000"
 1868 0a20 0E       		.byte	0xe
 1869 0a21 3D02     		.2byte	0x23d
 1870 0a23 62000000 		.4byte	0x62
 1871 0a27 02       		.byte	0x2
 1872 0a28 23       		.byte	0x23
 1873 0a29 18       		.uleb128 0x18
 1874 0a2a 0C       		.uleb128 0xc
 1875 0a2b 63723200 		.ascii	"cr2\000"
 1876 0a2f 0E       		.byte	0xe
 1877 0a30 4102     		.2byte	0x241
ARM GAS  /tmp/cc951f5a.s 			page 34


 1878 0a32 62000000 		.4byte	0x62
 1879 0a36 02       		.byte	0x2
 1880 0a37 23       		.byte	0x23
 1881 0a38 1A       		.uleb128 0x1a
 1882 0a39 0C       		.uleb128 0xc
 1883 0a3a 63723300 		.ascii	"cr3\000"
 1884 0a3e 0E       		.byte	0xe
 1885 0a3f 4502     		.2byte	0x245
 1886 0a41 62000000 		.4byte	0x62
 1887 0a45 02       		.byte	0x2
 1888 0a46 23       		.byte	0x23
 1889 0a47 1C       		.uleb128 0x1c
 1890 0a48 00       		.byte	0
 1891 0a49 13       		.uleb128 0x13
 1892 0a4a 8C000000 		.4byte	.LASF127
 1893 0a4e 0E       		.byte	0xe
 1894 0a4f 4602     		.2byte	0x246
 1895 0a51 B8090000 		.4byte	0x9b8
 1896 0a55 09       		.uleb128 0x9
 1897 0a56 04       		.byte	0x4
 1898 0a57 5B0A0000 		.4byte	0xa5b
 1899 0a5b 10       		.uleb128 0x10
 1900 0a5c 490A0000 		.4byte	0xa49
 1901 0a60 04       		.uleb128 0x4
 1902 0a61 6E020000 		.4byte	.LASF128
 1903 0a65 0F       		.byte	0xf
 1904 0a66 1A       		.byte	0x1a
 1905 0a67 6B0A0000 		.4byte	0xa6b
 1906 0a6b 05       		.uleb128 0x5
 1907 0a6c 6E020000 		.4byte	.LASF128
 1908 0a70 3C       		.byte	0x3c
 1909 0a71 0F       		.byte	0xf
 1910 0a72 6B       		.byte	0x6b
 1911 0a73 DA0A0000 		.4byte	0xada
 1912 0a77 06       		.uleb128 0x6
 1913 0a78 9F050000 		.4byte	.LASF112
 1914 0a7c 0F       		.byte	0xf
 1915 0a7d 6C       		.byte	0x6c
 1916 0a7e 4D0B0000 		.4byte	0xb4d
 1917 0a82 02       		.byte	0x2
 1918 0a83 23       		.byte	0x23
 1919 0a84 00       		.uleb128 0
 1920 0a85 06       		.uleb128 0x6
 1921 0a86 1B040000 		.4byte	.LASF129
 1922 0a8a 0F       		.byte	0xf
 1923 0a8b 6D       		.byte	0x6d
 1924 0a8c 730B0000 		.4byte	0xb73
 1925 0a90 02       		.byte	0x2
 1926 0a91 23       		.byte	0x23
 1927 0a92 0C       		.uleb128 0xc
 1928 0a93 06       		.uleb128 0x6
 1929 0a94 45010000 		.4byte	.LASF130
 1930 0a98 0F       		.byte	0xf
 1931 0a99 6E       		.byte	0x6e
 1932 0a9a F5040000 		.4byte	0x4f5
 1933 0a9e 02       		.byte	0x2
 1934 0a9f 23       		.byte	0x23
ARM GAS  /tmp/cc951f5a.s 			page 35


 1935 0aa0 10       		.uleb128 0x10
 1936 0aa1 06       		.uleb128 0x6
 1937 0aa2 92060000 		.4byte	.LASF131
 1938 0aa6 0F       		.byte	0xf
 1939 0aa7 6F       		.byte	0x6f
 1940 0aa8 AD040000 		.4byte	0x4ad
 1941 0aac 02       		.byte	0x2
 1942 0aad 23       		.byte	0x23
 1943 0aae 20       		.uleb128 0x20
 1944 0aaf 06       		.uleb128 0x6
 1945 0ab0 31030000 		.4byte	.LASF132
 1946 0ab4 0F       		.byte	0xf
 1947 0ab5 70       		.byte	0x70
 1948 0ab6 AD040000 		.4byte	0x4ad
 1949 0aba 02       		.byte	0x2
 1950 0abb 23       		.byte	0x23
 1951 0abc 2C       		.uleb128 0x2c
 1952 0abd 06       		.uleb128 0x6
 1953 0abe 3C060000 		.4byte	.LASF133
 1954 0ac2 0F       		.byte	0xf
 1955 0ac3 71       		.byte	0x71
 1956 0ac4 3E000000 		.4byte	0x3e
 1957 0ac8 02       		.byte	0x2
 1958 0ac9 23       		.byte	0x23
 1959 0aca 38       		.uleb128 0x38
 1960 0acb 06       		.uleb128 0x6
 1961 0acc C2030000 		.4byte	.LASF134
 1962 0ad0 0F       		.byte	0xf
 1963 0ad1 72       		.byte	0x72
 1964 0ad2 A6000000 		.4byte	0xa6
 1965 0ad6 02       		.byte	0x2
 1966 0ad7 23       		.byte	0x23
 1967 0ad8 39       		.uleb128 0x39
 1968 0ad9 00       		.byte	0
 1969 0ada 08       		.uleb128 0x8
 1970 0adb 08       		.byte	0x8
 1971 0adc 0F       		.byte	0xf
 1972 0add 1C       		.byte	0x1c
 1973 0ade F10A0000 		.4byte	0xaf1
 1974 0ae2 06       		.uleb128 0x6
 1975 0ae3 37040000 		.4byte	.LASF135
 1976 0ae7 0F       		.byte	0xf
 1977 0ae8 1D       		.byte	0x1d
 1978 0ae9 F10A0000 		.4byte	0xaf1
 1979 0aed 02       		.byte	0x2
 1980 0aee 23       		.byte	0x23
 1981 0aef 00       		.uleb128 0
 1982 0af0 00       		.byte	0
 1983 0af1 19       		.uleb128 0x19
 1984 0af2 3E000000 		.4byte	0x3e
 1985 0af6 010B0000 		.4byte	0xb01
 1986 0afa 1A       		.uleb128 0x1a
 1987 0afb 56040000 		.4byte	0x456
 1988 0aff 07       		.byte	0x7
 1989 0b00 00       		.byte	0
 1990 0b01 04       		.uleb128 0x4
 1991 0b02 4E000000 		.4byte	.LASF136
ARM GAS  /tmp/cc951f5a.s 			page 36


 1992 0b06 0F       		.byte	0xf
 1993 0b07 1E       		.byte	0x1e
 1994 0b08 DA0A0000 		.4byte	0xada
 1995 0b0c 08       		.uleb128 0x8
 1996 0b0d 0C       		.byte	0xc
 1997 0b0e 0F       		.byte	0xf
 1998 0b0f 20       		.byte	0x20
 1999 0b10 4D0B0000 		.4byte	0xb4d
 2000 0b14 06       		.uleb128 0x6
 2001 0b15 1B000000 		.4byte	.LASF137
 2002 0b19 0F       		.byte	0xf
 2003 0b1a 21       		.byte	0x21
 2004 0b1b 0D080000 		.4byte	0x80d
 2005 0b1f 02       		.byte	0x2
 2006 0b20 23       		.byte	0x23
 2007 0b21 00       		.uleb128 0
 2008 0b22 06       		.uleb128 0x6
 2009 0b23 13020000 		.4byte	.LASF138
 2010 0b27 0F       		.byte	0xf
 2011 0b28 22       		.byte	0x22
 2012 0b29 3E000000 		.4byte	0x3e
 2013 0b2d 02       		.byte	0x2
 2014 0b2e 23       		.byte	0x23
 2015 0b2f 04       		.uleb128 0x4
 2016 0b30 06       		.uleb128 0x6
 2017 0b31 0F010000 		.4byte	.LASF139
 2018 0b35 0F       		.byte	0xf
 2019 0b36 23       		.byte	0x23
 2020 0b37 3E000000 		.4byte	0x3e
 2021 0b3b 02       		.byte	0x2
 2022 0b3c 23       		.byte	0x23
 2023 0b3d 05       		.uleb128 0x5
 2024 0b3e 06       		.uleb128 0x6
 2025 0b3f 1F030000 		.4byte	.LASF140
 2026 0b43 0F       		.byte	0xf
 2027 0b44 24       		.byte	0x24
 2028 0b45 6C090000 		.4byte	0x96c
 2029 0b49 02       		.byte	0x2
 2030 0b4a 23       		.byte	0x23
 2031 0b4b 08       		.uleb128 0x8
 2032 0b4c 00       		.byte	0
 2033 0b4d 04       		.uleb128 0x4
 2034 0b4e BE060000 		.4byte	.LASF141
 2035 0b52 0F       		.byte	0xf
 2036 0b53 25       		.byte	0x25
 2037 0b54 0C0B0000 		.4byte	0xb0c
 2038 0b58 15       		.uleb128 0x15
 2039 0b59 01       		.byte	0x1
 2040 0b5a 0F       		.byte	0xf
 2041 0b5b 69       		.byte	0x69
 2042 0b5c 730B0000 		.4byte	0xb73
 2043 0b60 16       		.uleb128 0x16
 2044 0b61 03050000 		.4byte	.LASF142
 2045 0b65 00       		.sleb128 0
 2046 0b66 16       		.uleb128 0x16
 2047 0b67 FF000000 		.4byte	.LASF143
 2048 0b6b 01       		.sleb128 1
ARM GAS  /tmp/cc951f5a.s 			page 37


 2049 0b6c 16       		.uleb128 0x16
 2050 0b6d 0B030000 		.4byte	.LASF144
 2051 0b71 02       		.sleb128 2
 2052 0b72 00       		.byte	0
 2053 0b73 04       		.uleb128 0x4
 2054 0b74 61010000 		.4byte	.LASF145
 2055 0b78 0F       		.byte	0xf
 2056 0b79 69       		.byte	0x69
 2057 0b7a 580B0000 		.4byte	0xb58
 2058 0b7e 03       		.uleb128 0x3
 2059 0b7f 08       		.byte	0x8
 2060 0b80 04       		.byte	0x4
 2061 0b81 E1060000 		.4byte	.LASF146
 2062 0b85 03       		.uleb128 0x3
 2063 0b86 04       		.byte	0x4
 2064 0b87 04       		.byte	0x4
 2065 0b88 BC030000 		.4byte	.LASF147
 2066 0b8c 03       		.uleb128 0x3
 2067 0b8d 08       		.byte	0x8
 2068 0b8e 04       		.byte	0x4
 2069 0b8f 8D010000 		.4byte	.LASF148
 2070 0b93 1B       		.uleb128 0x1b
 2071 0b94 01       		.byte	0x1
 2072 0b95 2B060000 		.4byte	.LASF153
 2073 0b99 01       		.byte	0x1
 2074 0b9a 08       		.byte	0x8
 2075 0b9b 01       		.byte	0x1
 2076 0b9c 00000000 		.4byte	.LFB118
 2077 0ba0 74000000 		.4byte	.LFE118
 2078 0ba4 00000000 		.4byte	.LLST0
 2079 0ba8 01       		.byte	0x1
 2080 0ba9 730C0000 		.4byte	0xc73
 2081 0bad 1C       		.uleb128 0x1c
 2082 0bae 64727600 		.ascii	"drv\000"
 2083 0bb2 01       		.byte	0x1
 2084 0bb3 08       		.byte	0x8
 2085 0bb4 730C0000 		.4byte	0xc73
 2086 0bb8 2C000000 		.4byte	.LLST1
 2087 0bbc 1D       		.uleb128 0x1d
 2088 0bbd 62030000 		.4byte	.LASF149
 2089 0bc1 01       		.byte	0x1
 2090 0bc2 08       		.byte	0x8
 2091 0bc3 790C0000 		.4byte	0xc79
 2092 0bc7 76000000 		.4byte	.LLST2
 2093 0bcb 1D       		.uleb128 0x1d
 2094 0bcc 06000000 		.4byte	.LASF150
 2095 0bd0 01       		.byte	0x1
 2096 0bd1 09       		.byte	0x9
 2097 0bd2 59050000 		.4byte	0x559
 2098 0bd6 94000000 		.4byte	.LLST3
 2099 0bda 1E       		.uleb128 0x1e
 2100 0bdb 41050000 		.4byte	.LASF151
 2101 0bdf 01       		.byte	0x1
 2102 0be0 0B       		.byte	0xb
 2103 0be1 840C0000 		.4byte	0xc84
 2104 0be5 02       		.byte	0x2
 2105 0be6 91       		.byte	0x91
ARM GAS  /tmp/cc951f5a.s 			page 38


 2106 0be7 6C       		.sleb128 -20
 2107 0be8 1F       		.uleb128 0x1f
 2108 0be9 30000000 		.4byte	.LVL3
 2109 0bed B2100000 		.4byte	0x10b2
 2110 0bf1 FC0B0000 		.4byte	0xbfc
 2111 0bf5 20       		.uleb128 0x20
 2112 0bf6 01       		.byte	0x1
 2113 0bf7 50       		.byte	0x50
 2114 0bf8 02       		.byte	0x2
 2115 0bf9 74       		.byte	0x74
 2116 0bfa 00       		.sleb128 0
 2117 0bfb 00       		.byte	0
 2118 0bfc 1F       		.uleb128 0x1f
 2119 0bfd 3A000000 		.4byte	.LVL5
 2120 0c01 CA100000 		.4byte	0x10ca
 2121 0c05 100C0000 		.4byte	0xc10
 2122 0c09 20       		.uleb128 0x20
 2123 0c0a 01       		.byte	0x1
 2124 0c0b 51       		.byte	0x51
 2125 0c0c 02       		.byte	0x2
 2126 0c0d 08       		.byte	0x8
 2127 0c0e 55       		.byte	0x55
 2128 0c0f 00       		.byte	0
 2129 0c10 1F       		.uleb128 0x1f
 2130 0c11 44000000 		.4byte	.LVL6
 2131 0c15 E3100000 		.4byte	0x10e3
 2132 0c19 2F0C0000 		.4byte	0xc2f
 2133 0c1d 20       		.uleb128 0x20
 2134 0c1e 01       		.byte	0x1
 2135 0c1f 52       		.byte	0x52
 2136 0c20 01       		.byte	0x1
 2137 0c21 38       		.byte	0x38
 2138 0c22 20       		.uleb128 0x20
 2139 0c23 01       		.byte	0x1
 2140 0c24 51       		.byte	0x51
 2141 0c25 02       		.byte	0x2
 2142 0c26 75       		.byte	0x75
 2143 0c27 00       		.sleb128 0
 2144 0c28 20       		.uleb128 0x20
 2145 0c29 01       		.byte	0x1
 2146 0c2a 50       		.byte	0x50
 2147 0c2b 02       		.byte	0x2
 2148 0c2c 74       		.byte	0x74
 2149 0c2d 00       		.sleb128 0
 2150 0c2e 00       		.byte	0
 2151 0c2f 1F       		.uleb128 0x1f
 2152 0c30 4E000000 		.4byte	.LVL7
 2153 0c34 E3100000 		.4byte	0x10e3
 2154 0c38 4E0C0000 		.4byte	0xc4e
 2155 0c3c 20       		.uleb128 0x20
 2156 0c3d 01       		.byte	0x1
 2157 0c3e 52       		.byte	0x52
 2158 0c3f 01       		.byte	0x1
 2159 0c40 34       		.byte	0x34
 2160 0c41 20       		.uleb128 0x20
 2161 0c42 01       		.byte	0x1
 2162 0c43 51       		.byte	0x51
ARM GAS  /tmp/cc951f5a.s 			page 39


 2163 0c44 02       		.byte	0x2
 2164 0c45 91       		.byte	0x91
 2165 0c46 6C       		.sleb128 -20
 2166 0c47 20       		.uleb128 0x20
 2167 0c48 01       		.byte	0x1
 2168 0c49 50       		.byte	0x50
 2169 0c4a 02       		.byte	0x2
 2170 0c4b 74       		.byte	0x74
 2171 0c4c 00       		.sleb128 0
 2172 0c4d 00       		.byte	0
 2173 0c4e 1F       		.uleb128 0x1f
 2174 0c4f 60000000 		.4byte	.LVL10
 2175 0c53 B2100000 		.4byte	0x10b2
 2176 0c57 620C0000 		.4byte	0xc62
 2177 0c5b 20       		.uleb128 0x20
 2178 0c5c 01       		.byte	0x1
 2179 0c5d 50       		.byte	0x50
 2180 0c5e 02       		.byte	0x2
 2181 0c5f 74       		.byte	0x74
 2182 0c60 00       		.sleb128 0
 2183 0c61 00       		.byte	0
 2184 0c62 21       		.uleb128 0x21
 2185 0c63 6C000000 		.4byte	.LVL12
 2186 0c67 CA100000 		.4byte	0x10ca
 2187 0c6b 20       		.uleb128 0x20
 2188 0c6c 01       		.byte	0x1
 2189 0c6d 51       		.byte	0x51
 2190 0c6e 02       		.byte	0x2
 2191 0c6f 09       		.byte	0x9
 2192 0c70 CC       		.byte	0xcc
 2193 0c71 00       		.byte	0
 2194 0c72 00       		.byte	0
 2195 0c73 09       		.uleb128 0x9
 2196 0c74 04       		.byte	0x4
 2197 0c75 600A0000 		.4byte	0xa60
 2198 0c79 09       		.uleb128 0x9
 2199 0c7a 04       		.byte	0x4
 2200 0c7b 7F0C0000 		.4byte	0xc7f
 2201 0c7f 10       		.uleb128 0x10
 2202 0c80 010B0000 		.4byte	0xb01
 2203 0c84 19       		.uleb128 0x19
 2204 0c85 3E000000 		.4byte	0x3e
 2205 0c89 940C0000 		.4byte	0xc94
 2206 0c8d 1A       		.uleb128 0x1a
 2207 0c8e 56040000 		.4byte	0x456
 2208 0c92 03       		.byte	0x3
 2209 0c93 00       		.byte	0
 2210 0c94 22       		.uleb128 0x22
 2211 0c95 01       		.byte	0x1
 2212 0c96 92020000 		.4byte	.LASF155
 2213 0c9a 01       		.byte	0x1
 2214 0c9b 22       		.byte	0x22
 2215 0c9c 01       		.byte	0x1
 2216 0c9d 850B0000 		.4byte	0xb85
 2217 0ca1 00000000 		.4byte	.LFB119
 2218 0ca5 C4000000 		.4byte	.LFE119
 2219 0ca9 CE000000 		.4byte	.LLST4
ARM GAS  /tmp/cc951f5a.s 			page 40


 2220 0cad 01       		.byte	0x1
 2221 0cae 880E0000 		.4byte	0xe88
 2222 0cb2 1C       		.uleb128 0x1c
 2223 0cb3 64727600 		.ascii	"drv\000"
 2224 0cb7 01       		.byte	0x1
 2225 0cb8 22       		.byte	0x22
 2226 0cb9 730C0000 		.4byte	0xc73
 2227 0cbd FA000000 		.4byte	.LLST5
 2228 0cc1 1D       		.uleb128 0x1d
 2229 0cc2 62030000 		.4byte	.LASF149
 2230 0cc6 01       		.byte	0x1
 2231 0cc7 22       		.byte	0x22
 2232 0cc8 790C0000 		.4byte	0xc79
 2233 0ccc 81010000 		.4byte	.LLST6
 2234 0cd0 23       		.uleb128 0x23
 2235 0cd1 72616D00 		.ascii	"ram\000"
 2236 0cd5 01       		.byte	0x1
 2237 0cd6 24       		.byte	0x24
 2238 0cd7 880E0000 		.4byte	0xe88
 2239 0cdb 02       		.byte	0x2
 2240 0cdc 91       		.byte	0x91
 2241 0cdd 64       		.sleb128 -28
 2242 0cde 24       		.uleb128 0x24
 2243 0cdf 63726300 		.ascii	"crc\000"
 2244 0ce3 01       		.byte	0x1
 2245 0ce4 3F       		.byte	0x3f
 2246 0ce5 3E000000 		.4byte	0x3e
 2247 0ce9 9F010000 		.4byte	.LLST7
 2248 0ced 25       		.uleb128 0x25
 2249 0cee 97000000 		.4byte	.LASF152
 2250 0cf2 01       		.byte	0x1
 2251 0cf3 46       		.byte	0x46
 2252 0cf4 63050000 		.4byte	0x563
 2253 0cf8 BD010000 		.4byte	.LLST8
 2254 0cfc 1F       		.uleb128 0x1f
 2255 0cfd 0C000000 		.4byte	.LVL14
 2256 0d01 05110000 		.4byte	0x1105
 2257 0d05 100D0000 		.4byte	0xd10
 2258 0d09 20       		.uleb128 0x20
 2259 0d0a 01       		.byte	0x1
 2260 0d0b 50       		.byte	0x50
 2261 0d0c 02       		.byte	0x2
 2262 0d0d 74       		.byte	0x74
 2263 0d0e 00       		.sleb128 0
 2264 0d0f 00       		.byte	0
 2265 0d10 1F       		.uleb128 0x1f
 2266 0d11 12000000 		.4byte	.LVL15
 2267 0d15 B2100000 		.4byte	0x10b2
 2268 0d19 240D0000 		.4byte	0xd24
 2269 0d1d 20       		.uleb128 0x20
 2270 0d1e 01       		.byte	0x1
 2271 0d1f 50       		.byte	0x50
 2272 0d20 02       		.byte	0x2
 2273 0d21 74       		.byte	0x74
 2274 0d22 00       		.sleb128 0
 2275 0d23 00       		.byte	0
 2276 0d24 1F       		.uleb128 0x1f
ARM GAS  /tmp/cc951f5a.s 			page 41


 2277 0d25 1E000000 		.4byte	.LVL16
 2278 0d29 CA100000 		.4byte	0x10ca
 2279 0d2d 3E0D0000 		.4byte	0xd3e
 2280 0d31 20       		.uleb128 0x20
 2281 0d32 01       		.byte	0x1
 2282 0d33 51       		.byte	0x51
 2283 0d34 02       		.byte	0x2
 2284 0d35 08       		.byte	0x8
 2285 0d36 55       		.byte	0x55
 2286 0d37 20       		.uleb128 0x20
 2287 0d38 01       		.byte	0x1
 2288 0d39 50       		.byte	0x50
 2289 0d3a 02       		.byte	0x2
 2290 0d3b 74       		.byte	0x74
 2291 0d3c 00       		.sleb128 0
 2292 0d3d 00       		.byte	0
 2293 0d3e 1F       		.uleb128 0x1f
 2294 0d3f 28000000 		.4byte	.LVL17
 2295 0d43 E3100000 		.4byte	0x10e3
 2296 0d47 5D0D0000 		.4byte	0xd5d
 2297 0d4b 20       		.uleb128 0x20
 2298 0d4c 01       		.byte	0x1
 2299 0d4d 52       		.byte	0x52
 2300 0d4e 01       		.byte	0x1
 2301 0d4f 38       		.byte	0x38
 2302 0d50 20       		.uleb128 0x20
 2303 0d51 01       		.byte	0x1
 2304 0d52 51       		.byte	0x51
 2305 0d53 02       		.byte	0x2
 2306 0d54 75       		.byte	0x75
 2307 0d55 00       		.sleb128 0
 2308 0d56 20       		.uleb128 0x20
 2309 0d57 01       		.byte	0x1
 2310 0d58 50       		.byte	0x50
 2311 0d59 02       		.byte	0x2
 2312 0d5a 74       		.byte	0x74
 2313 0d5b 00       		.sleb128 0
 2314 0d5c 00       		.byte	0
 2315 0d5d 1F       		.uleb128 0x1f
 2316 0d5e 30000000 		.4byte	.LVL18
 2317 0d62 CA100000 		.4byte	0x10ca
 2318 0d66 770D0000 		.4byte	0xd77
 2319 0d6a 20       		.uleb128 0x20
 2320 0d6b 01       		.byte	0x1
 2321 0d6c 51       		.byte	0x51
 2322 0d6d 02       		.byte	0x2
 2323 0d6e 08       		.byte	0x8
 2324 0d6f 44       		.byte	0x44
 2325 0d70 20       		.uleb128 0x20
 2326 0d71 01       		.byte	0x1
 2327 0d72 50       		.byte	0x50
 2328 0d73 02       		.byte	0x2
 2329 0d74 74       		.byte	0x74
 2330 0d75 00       		.sleb128 0
 2331 0d76 00       		.byte	0
 2332 0d77 1F       		.uleb128 0x1f
 2333 0d78 36000000 		.4byte	.LVL19
ARM GAS  /tmp/cc951f5a.s 			page 42


 2334 0d7c 19110000 		.4byte	0x1119
 2335 0d80 8B0D0000 		.4byte	0xd8b
 2336 0d84 20       		.uleb128 0x20
 2337 0d85 01       		.byte	0x1
 2338 0d86 50       		.byte	0x50
 2339 0d87 02       		.byte	0x2
 2340 0d88 08       		.byte	0x8
 2341 0d89 64       		.byte	0x64
 2342 0d8a 00       		.byte	0
 2343 0d8b 1F       		.uleb128 0x1f
 2344 0d8c 3E000000 		.4byte	.LVL20
 2345 0d90 19110000 		.4byte	0x1119
 2346 0d94 9E0D0000 		.4byte	0xd9e
 2347 0d98 20       		.uleb128 0x20
 2348 0d99 01       		.byte	0x1
 2349 0d9a 50       		.byte	0x50
 2350 0d9b 01       		.byte	0x1
 2351 0d9c 3A       		.byte	0x3a
 2352 0d9d 00       		.byte	0
 2353 0d9e 1F       		.uleb128 0x1f
 2354 0d9f 44000000 		.4byte	.LVL21
 2355 0da3 2E110000 		.4byte	0x112e
 2356 0da7 B20D0000 		.4byte	0xdb2
 2357 0dab 20       		.uleb128 0x20
 2358 0dac 01       		.byte	0x1
 2359 0dad 50       		.byte	0x50
 2360 0dae 02       		.byte	0x2
 2361 0daf 74       		.byte	0x74
 2362 0db0 00       		.sleb128 0
 2363 0db1 00       		.byte	0
 2364 0db2 1F       		.uleb128 0x1f
 2365 0db3 4E000000 		.4byte	.LVL22
 2366 0db7 B2100000 		.4byte	0x10b2
 2367 0dbb C60D0000 		.4byte	0xdc6
 2368 0dbf 20       		.uleb128 0x20
 2369 0dc0 01       		.byte	0x1
 2370 0dc1 50       		.byte	0x50
 2371 0dc2 02       		.byte	0x2
 2372 0dc3 74       		.byte	0x74
 2373 0dc4 00       		.sleb128 0
 2374 0dc5 00       		.byte	0
 2375 0dc6 1F       		.uleb128 0x1f
 2376 0dc7 5A000000 		.4byte	.LVL24
 2377 0dcb CA100000 		.4byte	0x10ca
 2378 0dcf E00D0000 		.4byte	0xde0
 2379 0dd3 20       		.uleb128 0x20
 2380 0dd4 01       		.byte	0x1
 2381 0dd5 51       		.byte	0x51
 2382 0dd6 02       		.byte	0x2
 2383 0dd7 08       		.byte	0x8
 2384 0dd8 55       		.byte	0x55
 2385 0dd9 20       		.uleb128 0x20
 2386 0dda 01       		.byte	0x1
 2387 0ddb 50       		.byte	0x50
 2388 0ddc 02       		.byte	0x2
 2389 0ddd 74       		.byte	0x74
 2390 0dde 00       		.sleb128 0
ARM GAS  /tmp/cc951f5a.s 			page 43


 2391 0ddf 00       		.byte	0
 2392 0de0 1F       		.uleb128 0x1f
 2393 0de1 64000000 		.4byte	.LVL25
 2394 0de5 E3100000 		.4byte	0x10e3
 2395 0de9 FF0D0000 		.4byte	0xdff
 2396 0ded 20       		.uleb128 0x20
 2397 0dee 01       		.byte	0x1
 2398 0def 52       		.byte	0x52
 2399 0df0 01       		.byte	0x1
 2400 0df1 38       		.byte	0x38
 2401 0df2 20       		.uleb128 0x20
 2402 0df3 01       		.byte	0x1
 2403 0df4 51       		.byte	0x51
 2404 0df5 02       		.byte	0x2
 2405 0df6 75       		.byte	0x75
 2406 0df7 00       		.sleb128 0
 2407 0df8 20       		.uleb128 0x20
 2408 0df9 01       		.byte	0x1
 2409 0dfa 50       		.byte	0x50
 2410 0dfb 02       		.byte	0x2
 2411 0dfc 74       		.byte	0x74
 2412 0dfd 00       		.sleb128 0
 2413 0dfe 00       		.byte	0
 2414 0dff 1F       		.uleb128 0x1f
 2415 0e00 6C000000 		.4byte	.LVL26
 2416 0e04 CA100000 		.4byte	0x10ca
 2417 0e08 190E0000 		.4byte	0xe19
 2418 0e0c 20       		.uleb128 0x20
 2419 0e0d 01       		.byte	0x1
 2420 0e0e 51       		.byte	0x51
 2421 0e0f 02       		.byte	0x2
 2422 0e10 09       		.byte	0x9
 2423 0e11 BE       		.byte	0xbe
 2424 0e12 20       		.uleb128 0x20
 2425 0e13 01       		.byte	0x1
 2426 0e14 50       		.byte	0x50
 2427 0e15 02       		.byte	0x2
 2428 0e16 74       		.byte	0x74
 2429 0e17 00       		.sleb128 0
 2430 0e18 00       		.byte	0
 2431 0e19 1F       		.uleb128 0x1f
 2432 0e1a 76000000 		.4byte	.LVL27
 2433 0e1e 46110000 		.4byte	0x1146
 2434 0e22 380E0000 		.4byte	0xe38
 2435 0e26 20       		.uleb128 0x20
 2436 0e27 01       		.byte	0x1
 2437 0e28 52       		.byte	0x52
 2438 0e29 01       		.byte	0x1
 2439 0e2a 39       		.byte	0x39
 2440 0e2b 20       		.uleb128 0x20
 2441 0e2c 01       		.byte	0x1
 2442 0e2d 51       		.byte	0x51
 2443 0e2e 02       		.byte	0x2
 2444 0e2f 91       		.byte	0x91
 2445 0e30 64       		.sleb128 -28
 2446 0e31 20       		.uleb128 0x20
 2447 0e32 01       		.byte	0x1
ARM GAS  /tmp/cc951f5a.s 			page 44


 2448 0e33 50       		.byte	0x50
 2449 0e34 02       		.byte	0x2
 2450 0e35 74       		.byte	0x74
 2451 0e36 00       		.sleb128 0
 2452 0e37 00       		.byte	0
 2453 0e38 1F       		.uleb128 0x1f
 2454 0e39 7E000000 		.4byte	.LVL28
 2455 0e3d 68110000 		.4byte	0x1168
 2456 0e41 510E0000 		.4byte	0xe51
 2457 0e45 20       		.uleb128 0x20
 2458 0e46 01       		.byte	0x1
 2459 0e47 51       		.byte	0x51
 2460 0e48 01       		.byte	0x1
 2461 0e49 38       		.byte	0x38
 2462 0e4a 20       		.uleb128 0x20
 2463 0e4b 01       		.byte	0x1
 2464 0e4c 50       		.byte	0x50
 2465 0e4d 02       		.byte	0x2
 2466 0e4e 91       		.byte	0x91
 2467 0e4f 64       		.sleb128 -28
 2468 0e50 00       		.byte	0
 2469 0e51 26       		.uleb128 0x26
 2470 0e52 8A000000 		.4byte	.LVL29
 2471 0e56 85110000 		.4byte	0x1185
 2472 0e5a 26       		.uleb128 0x26
 2473 0e5b A4000000 		.4byte	.LVL36
 2474 0e5f 85110000 		.4byte	0x1185
 2475 0e63 1F       		.uleb128 0x1f
 2476 0e64 B4000000 		.4byte	.LVL38
 2477 0e68 CA100000 		.4byte	0x10ca
 2478 0e6c 770E0000 		.4byte	0xe77
 2479 0e70 20       		.uleb128 0x20
 2480 0e71 01       		.byte	0x1
 2481 0e72 51       		.byte	0x51
 2482 0e73 02       		.byte	0x2
 2483 0e74 09       		.byte	0x9
 2484 0e75 CC       		.byte	0xcc
 2485 0e76 00       		.byte	0
 2486 0e77 21       		.uleb128 0x21
 2487 0e78 BC000000 		.4byte	.LVL40
 2488 0e7c CA100000 		.4byte	0x10ca
 2489 0e80 20       		.uleb128 0x20
 2490 0e81 01       		.byte	0x1
 2491 0e82 51       		.byte	0x51
 2492 0e83 02       		.byte	0x2
 2493 0e84 09       		.byte	0x9
 2494 0e85 CC       		.byte	0xcc
 2495 0e86 00       		.byte	0
 2496 0e87 00       		.byte	0
 2497 0e88 19       		.uleb128 0x19
 2498 0e89 3E000000 		.4byte	0x3e
 2499 0e8d 980E0000 		.4byte	0xe98
 2500 0e91 1A       		.uleb128 0x1a
 2501 0e92 56040000 		.4byte	0x456
 2502 0e96 08       		.byte	0x8
 2503 0e97 00       		.byte	0
 2504 0e98 1B       		.uleb128 0x1b
ARM GAS  /tmp/cc951f5a.s 			page 45


 2505 0e99 01       		.byte	0x1
 2506 0e9a 07070000 		.4byte	.LASF154
 2507 0e9e 01       		.byte	0x1
 2508 0e9f 4C       		.byte	0x4c
 2509 0ea0 01       		.byte	0x1
 2510 0ea1 00000000 		.4byte	.LFB120
 2511 0ea5 3C000000 		.4byte	.LFE120
 2512 0ea9 E7010000 		.4byte	.LLST9
 2513 0ead 01       		.byte	0x1
 2514 0eae 660F0000 		.4byte	0xf66
 2515 0eb2 1C       		.uleb128 0x1c
 2516 0eb3 64727600 		.ascii	"drv\000"
 2517 0eb7 01       		.byte	0x1
 2518 0eb8 4C       		.byte	0x4c
 2519 0eb9 730C0000 		.4byte	0xc73
 2520 0ebd 07020000 		.4byte	.LLST10
 2521 0ec1 1D       		.uleb128 0x1d
 2522 0ec2 62030000 		.4byte	.LASF149
 2523 0ec6 01       		.byte	0x1
 2524 0ec7 4C       		.byte	0x4c
 2525 0ec8 790C0000 		.4byte	0xc79
 2526 0ecc 3B020000 		.4byte	.LLST11
 2527 0ed0 1F       		.uleb128 0x1f
 2528 0ed1 0A000000 		.4byte	.LVL42
 2529 0ed5 05110000 		.4byte	0x1105
 2530 0ed9 E40E0000 		.4byte	0xee4
 2531 0edd 20       		.uleb128 0x20
 2532 0ede 01       		.byte	0x1
 2533 0edf 50       		.byte	0x50
 2534 0ee0 02       		.byte	0x2
 2535 0ee1 74       		.byte	0x74
 2536 0ee2 00       		.sleb128 0
 2537 0ee3 00       		.byte	0
 2538 0ee4 1F       		.uleb128 0x1f
 2539 0ee5 10000000 		.4byte	.LVL43
 2540 0ee9 B2100000 		.4byte	0x10b2
 2541 0eed F80E0000 		.4byte	0xef8
 2542 0ef1 20       		.uleb128 0x20
 2543 0ef2 01       		.byte	0x1
 2544 0ef3 50       		.byte	0x50
 2545 0ef4 02       		.byte	0x2
 2546 0ef5 74       		.byte	0x74
 2547 0ef6 00       		.sleb128 0
 2548 0ef7 00       		.byte	0
 2549 0ef8 1F       		.uleb128 0x1f
 2550 0ef9 1A000000 		.4byte	.LVL44
 2551 0efd CA100000 		.4byte	0x10ca
 2552 0f01 120F0000 		.4byte	0xf12
 2553 0f05 20       		.uleb128 0x20
 2554 0f06 01       		.byte	0x1
 2555 0f07 51       		.byte	0x51
 2556 0f08 02       		.byte	0x2
 2557 0f09 08       		.byte	0x8
 2558 0f0a 55       		.byte	0x55
 2559 0f0b 20       		.uleb128 0x20
 2560 0f0c 01       		.byte	0x1
 2561 0f0d 50       		.byte	0x50
ARM GAS  /tmp/cc951f5a.s 			page 46


 2562 0f0e 02       		.byte	0x2
 2563 0f0f 74       		.byte	0x74
 2564 0f10 00       		.sleb128 0
 2565 0f11 00       		.byte	0
 2566 0f12 1F       		.uleb128 0x1f
 2567 0f13 24000000 		.4byte	.LVL45
 2568 0f17 E3100000 		.4byte	0x10e3
 2569 0f1b 310F0000 		.4byte	0xf31
 2570 0f1f 20       		.uleb128 0x20
 2571 0f20 01       		.byte	0x1
 2572 0f21 52       		.byte	0x52
 2573 0f22 01       		.byte	0x1
 2574 0f23 38       		.byte	0x38
 2575 0f24 20       		.uleb128 0x20
 2576 0f25 01       		.byte	0x1
 2577 0f26 51       		.byte	0x51
 2578 0f27 02       		.byte	0x2
 2579 0f28 75       		.byte	0x75
 2580 0f29 00       		.sleb128 0
 2581 0f2a 20       		.uleb128 0x20
 2582 0f2b 01       		.byte	0x1
 2583 0f2c 50       		.byte	0x50
 2584 0f2d 02       		.byte	0x2
 2585 0f2e 74       		.byte	0x74
 2586 0f2f 00       		.sleb128 0
 2587 0f30 00       		.byte	0
 2588 0f31 1F       		.uleb128 0x1f
 2589 0f32 2C000000 		.4byte	.LVL46
 2590 0f36 CA100000 		.4byte	0x10ca
 2591 0f3a 4B0F0000 		.4byte	0xf4b
 2592 0f3e 20       		.uleb128 0x20
 2593 0f3f 01       		.byte	0x1
 2594 0f40 51       		.byte	0x51
 2595 0f41 02       		.byte	0x2
 2596 0f42 08       		.byte	0x8
 2597 0f43 44       		.byte	0x44
 2598 0f44 20       		.uleb128 0x20
 2599 0f45 01       		.byte	0x1
 2600 0f46 50       		.byte	0x50
 2601 0f47 02       		.byte	0x2
 2602 0f48 74       		.byte	0x74
 2603 0f49 00       		.sleb128 0
 2604 0f4a 00       		.byte	0
 2605 0f4b 27       		.uleb128 0x27
 2606 0f4c 34000000 		.4byte	.LVL47
 2607 0f50 01       		.byte	0x1
 2608 0f51 85110000 		.4byte	0x1185
 2609 0f55 21       		.uleb128 0x21
 2610 0f56 3A000000 		.4byte	.LVL48
 2611 0f5a CA100000 		.4byte	0x10ca
 2612 0f5e 20       		.uleb128 0x20
 2613 0f5f 01       		.byte	0x1
 2614 0f60 51       		.byte	0x51
 2615 0f61 02       		.byte	0x2
 2616 0f62 09       		.byte	0x9
 2617 0f63 CC       		.byte	0xcc
 2618 0f64 00       		.byte	0
ARM GAS  /tmp/cc951f5a.s 			page 47


 2619 0f65 00       		.byte	0
 2620 0f66 22       		.uleb128 0x22
 2621 0f67 01       		.byte	0x1
 2622 0f68 A7060000 		.4byte	.LASF156
 2623 0f6c 01       		.byte	0x1
 2624 0f6d 5B       		.byte	0x5b
 2625 0f6e 01       		.byte	0x1
 2626 0f6f 850B0000 		.4byte	0xb85
 2627 0f73 00000000 		.4byte	.LFB121
 2628 0f77 80000000 		.4byte	.LFE121
 2629 0f7b 59020000 		.4byte	.LLST12
 2630 0f7f 01       		.byte	0x1
 2631 0f80 A4100000 		.4byte	0x10a4
 2632 0f84 1C       		.uleb128 0x1c
 2633 0f85 64727600 		.ascii	"drv\000"
 2634 0f89 01       		.byte	0x1
 2635 0f8a 5B       		.byte	0x5b
 2636 0f8b 730C0000 		.4byte	0xc73
 2637 0f8f 85020000 		.4byte	.LLST13
 2638 0f93 1D       		.uleb128 0x1d
 2639 0f94 62030000 		.4byte	.LASF149
 2640 0f98 01       		.byte	0x1
 2641 0f99 5B       		.byte	0x5b
 2642 0f9a 790C0000 		.4byte	0xc79
 2643 0f9e B9020000 		.4byte	.LLST14
 2644 0fa2 23       		.uleb128 0x23
 2645 0fa3 72616D00 		.ascii	"ram\000"
 2646 0fa7 01       		.byte	0x1
 2647 0fa8 5D       		.byte	0x5d
 2648 0fa9 880E0000 		.4byte	0xe88
 2649 0fad 02       		.byte	0x2
 2650 0fae 91       		.byte	0x91
 2651 0faf 64       		.sleb128 -28
 2652 0fb0 24       		.uleb128 0x24
 2653 0fb1 63726300 		.ascii	"crc\000"
 2654 0fb5 01       		.byte	0x1
 2655 0fb6 6B       		.byte	0x6b
 2656 0fb7 3E000000 		.4byte	0x3e
 2657 0fbb D7020000 		.4byte	.LLST15
 2658 0fbf 25       		.uleb128 0x25
 2659 0fc0 97000000 		.4byte	.LASF152
 2660 0fc4 01       		.byte	0x1
 2661 0fc5 72       		.byte	0x72
 2662 0fc6 63050000 		.4byte	0x563
 2663 0fca F5020000 		.4byte	.LLST16
 2664 0fce 1F       		.uleb128 0x1f
 2665 0fcf 0C000000 		.4byte	.LVL50
 2666 0fd3 05110000 		.4byte	0x1105
 2667 0fd7 E20F0000 		.4byte	0xfe2
 2668 0fdb 20       		.uleb128 0x20
 2669 0fdc 01       		.byte	0x1
 2670 0fdd 50       		.byte	0x50
 2671 0fde 02       		.byte	0x2
 2672 0fdf 74       		.byte	0x74
 2673 0fe0 00       		.sleb128 0
 2674 0fe1 00       		.byte	0
 2675 0fe2 1F       		.uleb128 0x1f
ARM GAS  /tmp/cc951f5a.s 			page 48


 2676 0fe3 12000000 		.4byte	.LVL51
 2677 0fe7 B2100000 		.4byte	0x10b2
 2678 0feb F60F0000 		.4byte	0xff6
 2679 0fef 20       		.uleb128 0x20
 2680 0ff0 01       		.byte	0x1
 2681 0ff1 50       		.byte	0x50
 2682 0ff2 02       		.byte	0x2
 2683 0ff3 74       		.byte	0x74
 2684 0ff4 00       		.sleb128 0
 2685 0ff5 00       		.byte	0
 2686 0ff6 1F       		.uleb128 0x1f
 2687 0ff7 1E000000 		.4byte	.LVL52
 2688 0ffb CA100000 		.4byte	0x10ca
 2689 0fff 10100000 		.4byte	0x1010
 2690 1003 20       		.uleb128 0x20
 2691 1004 01       		.byte	0x1
 2692 1005 51       		.byte	0x51
 2693 1006 02       		.byte	0x2
 2694 1007 08       		.byte	0x8
 2695 1008 55       		.byte	0x55
 2696 1009 20       		.uleb128 0x20
 2697 100a 01       		.byte	0x1
 2698 100b 50       		.byte	0x50
 2699 100c 02       		.byte	0x2
 2700 100d 74       		.byte	0x74
 2701 100e 00       		.sleb128 0
 2702 100f 00       		.byte	0
 2703 1010 1F       		.uleb128 0x1f
 2704 1011 28000000 		.4byte	.LVL53
 2705 1015 E3100000 		.4byte	0x10e3
 2706 1019 2F100000 		.4byte	0x102f
 2707 101d 20       		.uleb128 0x20
 2708 101e 01       		.byte	0x1
 2709 101f 52       		.byte	0x52
 2710 1020 01       		.byte	0x1
 2711 1021 38       		.byte	0x38
 2712 1022 20       		.uleb128 0x20
 2713 1023 01       		.byte	0x1
 2714 1024 51       		.byte	0x51
 2715 1025 02       		.byte	0x2
 2716 1026 75       		.byte	0x75
 2717 1027 00       		.sleb128 0
 2718 1028 20       		.uleb128 0x20
 2719 1029 01       		.byte	0x1
 2720 102a 50       		.byte	0x50
 2721 102b 02       		.byte	0x2
 2722 102c 74       		.byte	0x74
 2723 102d 00       		.sleb128 0
 2724 102e 00       		.byte	0
 2725 102f 1F       		.uleb128 0x1f
 2726 1030 30000000 		.4byte	.LVL54
 2727 1034 CA100000 		.4byte	0x10ca
 2728 1038 49100000 		.4byte	0x1049
 2729 103c 20       		.uleb128 0x20
 2730 103d 01       		.byte	0x1
 2731 103e 51       		.byte	0x51
 2732 103f 02       		.byte	0x2
ARM GAS  /tmp/cc951f5a.s 			page 49


 2733 1040 09       		.byte	0x9
 2734 1041 BE       		.byte	0xbe
 2735 1042 20       		.uleb128 0x20
 2736 1043 01       		.byte	0x1
 2737 1044 50       		.byte	0x50
 2738 1045 02       		.byte	0x2
 2739 1046 74       		.byte	0x74
 2740 1047 00       		.sleb128 0
 2741 1048 00       		.byte	0
 2742 1049 1F       		.uleb128 0x1f
 2743 104a 3A000000 		.4byte	.LVL55
 2744 104e 46110000 		.4byte	0x1146
 2745 1052 68100000 		.4byte	0x1068
 2746 1056 20       		.uleb128 0x20
 2747 1057 01       		.byte	0x1
 2748 1058 52       		.byte	0x52
 2749 1059 01       		.byte	0x1
 2750 105a 39       		.byte	0x39
 2751 105b 20       		.uleb128 0x20
 2752 105c 01       		.byte	0x1
 2753 105d 51       		.byte	0x51
 2754 105e 02       		.byte	0x2
 2755 105f 91       		.byte	0x91
 2756 1060 64       		.sleb128 -28
 2757 1061 20       		.uleb128 0x20
 2758 1062 01       		.byte	0x1
 2759 1063 50       		.byte	0x50
 2760 1064 02       		.byte	0x2
 2761 1065 74       		.byte	0x74
 2762 1066 00       		.sleb128 0
 2763 1067 00       		.byte	0
 2764 1068 1F       		.uleb128 0x1f
 2765 1069 42000000 		.4byte	.LVL56
 2766 106d 68110000 		.4byte	0x1168
 2767 1071 81100000 		.4byte	0x1081
 2768 1075 20       		.uleb128 0x20
 2769 1076 01       		.byte	0x1
 2770 1077 51       		.byte	0x51
 2771 1078 01       		.byte	0x1
 2772 1079 38       		.byte	0x38
 2773 107a 20       		.uleb128 0x20
 2774 107b 01       		.byte	0x1
 2775 107c 50       		.byte	0x50
 2776 107d 02       		.byte	0x2
 2777 107e 91       		.byte	0x91
 2778 107f 64       		.sleb128 -28
 2779 1080 00       		.byte	0
 2780 1081 26       		.uleb128 0x26
 2781 1082 4E000000 		.4byte	.LVL57
 2782 1086 85110000 		.4byte	0x1185
 2783 108a 26       		.uleb128 0x26
 2784 108b 5A000000 		.4byte	.LVL59
 2785 108f 85110000 		.4byte	0x1185
 2786 1093 21       		.uleb128 0x21
 2787 1094 78000000 		.4byte	.LVL61
 2788 1098 CA100000 		.4byte	0x10ca
 2789 109c 20       		.uleb128 0x20
ARM GAS  /tmp/cc951f5a.s 			page 50


 2790 109d 01       		.byte	0x1
 2791 109e 51       		.byte	0x51
 2792 109f 02       		.byte	0x2
 2793 10a0 09       		.byte	0x9
 2794 10a1 CC       		.byte	0xcc
 2795 10a2 00       		.byte	0
 2796 10a3 00       		.byte	0
 2797 10a4 28       		.uleb128 0x28
 2798 10a5 7D040000 		.4byte	.LASF168
 2799 10a9 10       		.byte	0x10
 2800 10aa 9806     		.2byte	0x698
 2801 10ac 68050000 		.4byte	0x568
 2802 10b0 01       		.byte	0x1
 2803 10b1 01       		.byte	0x1
 2804 10b2 29       		.uleb128 0x29
 2805 10b3 01       		.byte	0x1
 2806 10b4 48060000 		.4byte	.LASF157
 2807 10b8 0F       		.byte	0xf
 2808 10b9 32       		.byte	0x32
 2809 10ba 01       		.byte	0x1
 2810 10bb A6000000 		.4byte	0xa6
 2811 10bf 01       		.byte	0x1
 2812 10c0 CA100000 		.4byte	0x10ca
 2813 10c4 18       		.uleb128 0x18
 2814 10c5 730C0000 		.4byte	0xc73
 2815 10c9 00       		.byte	0
 2816 10ca 2A       		.uleb128 0x2a
 2817 10cb 01       		.byte	0x1
 2818 10cc 8A040000 		.4byte	.LASF159
 2819 10d0 0F       		.byte	0xf
 2820 10d1 3F       		.byte	0x3f
 2821 10d2 01       		.byte	0x1
 2822 10d3 01       		.byte	0x1
 2823 10d4 E3100000 		.4byte	0x10e3
 2824 10d8 18       		.uleb128 0x18
 2825 10d9 730C0000 		.4byte	0xc73
 2826 10dd 18       		.uleb128 0x18
 2827 10de 3E000000 		.4byte	0x3e
 2828 10e2 00       		.byte	0
 2829 10e3 29       		.uleb128 0x29
 2830 10e4 01       		.byte	0x1
 2831 10e5 25030000 		.4byte	.LASF158
 2832 10e9 0F       		.byte	0xf
 2833 10ea 41       		.byte	0x41
 2834 10eb 01       		.byte	0x1
 2835 10ec A6000000 		.4byte	0xa6
 2836 10f0 01       		.byte	0x1
 2837 10f1 05110000 		.4byte	0x1105
 2838 10f5 18       		.uleb128 0x18
 2839 10f6 730C0000 		.4byte	0xc73
 2840 10fa 18       		.uleb128 0x18
 2841 10fb 53050000 		.4byte	0x553
 2842 10ff 18       		.uleb128 0x18
 2843 1100 3E000000 		.4byte	0x3e
 2844 1104 00       		.byte	0
 2845 1105 2A       		.uleb128 0x2a
 2846 1106 01       		.byte	0x1
ARM GAS  /tmp/cc951f5a.s 			page 51


 2847 1107 3C040000 		.4byte	.LASF160
 2848 110b 0F       		.byte	0xf
 2849 110c 60       		.byte	0x60
 2850 110d 01       		.byte	0x1
 2851 110e 01       		.byte	0x1
 2852 110f 19110000 		.4byte	0x1119
 2853 1113 18       		.uleb128 0x18
 2854 1114 730C0000 		.4byte	0xc73
 2855 1118 00       		.byte	0
 2856 1119 2B       		.uleb128 0x2b
 2857 111a 01       		.byte	0x1
 2858 111b 69060000 		.4byte	.LASF161
 2859 111f 05       		.byte	0x5
 2860 1120 6E01     		.2byte	0x16e
 2861 1122 01       		.byte	0x1
 2862 1123 01       		.byte	0x1
 2863 1124 2E110000 		.4byte	0x112e
 2864 1128 18       		.uleb128 0x18
 2865 1129 05010000 		.4byte	0x105
 2866 112d 00       		.byte	0
 2867 112e 29       		.uleb128 0x29
 2868 112f 01       		.byte	0x1
 2869 1130 63050000 		.4byte	.LASF162
 2870 1134 0F       		.byte	0xf
 2871 1135 3D       		.byte	0x3d
 2872 1136 01       		.byte	0x1
 2873 1137 A6000000 		.4byte	0xa6
 2874 113b 01       		.byte	0x1
 2875 113c 46110000 		.4byte	0x1146
 2876 1140 18       		.uleb128 0x18
 2877 1141 730C0000 		.4byte	0xc73
 2878 1145 00       		.byte	0
 2879 1146 29       		.uleb128 0x29
 2880 1147 01       		.byte	0x1
 2881 1148 70030000 		.4byte	.LASF163
 2882 114c 0F       		.byte	0xf
 2883 114d 42       		.byte	0x42
 2884 114e 01       		.byte	0x1
 2885 114f A6000000 		.4byte	0xa6
 2886 1153 01       		.byte	0x1
 2887 1154 68110000 		.4byte	0x1168
 2888 1158 18       		.uleb128 0x18
 2889 1159 730C0000 		.4byte	0xc73
 2890 115d 18       		.uleb128 0x18
 2891 115e 4D050000 		.4byte	0x54d
 2892 1162 18       		.uleb128 0x18
 2893 1163 3E000000 		.4byte	0x3e
 2894 1167 00       		.byte	0
 2895 1168 29       		.uleb128 0x29
 2896 1169 01       		.byte	0x1
 2897 116a FC010000 		.4byte	.LASF164
 2898 116e 0F       		.byte	0xf
 2899 116f 5A       		.byte	0x5a
 2900 1170 01       		.byte	0x1
 2901 1171 3E000000 		.4byte	0x3e
 2902 1175 01       		.byte	0x1
 2903 1176 85110000 		.4byte	0x1185
ARM GAS  /tmp/cc951f5a.s 			page 52


 2904 117a 18       		.uleb128 0x18
 2905 117b 4D050000 		.4byte	0x54d
 2906 117f 18       		.uleb128 0x18
 2907 1180 3E000000 		.4byte	0x3e
 2908 1184 00       		.byte	0
 2909 1185 2C       		.uleb128 0x2c
 2910 1186 01       		.byte	0x1
 2911 1187 B3050000 		.4byte	.LASF169
 2912 118b 0F       		.byte	0xf
 2913 118c 61       		.byte	0x61
 2914 118d 01       		.byte	0x1
 2915 118e 01       		.byte	0x1
 2916 118f 00       		.byte	0
 2917              		.section	.debug_abbrev,"",%progbits
 2918              	.Ldebug_abbrev0:
 2919 0000 01       		.uleb128 0x1
 2920 0001 11       		.uleb128 0x11
 2921 0002 01       		.byte	0x1
 2922 0003 25       		.uleb128 0x25
 2923 0004 0E       		.uleb128 0xe
 2924 0005 13       		.uleb128 0x13
 2925 0006 0B       		.uleb128 0xb
 2926 0007 03       		.uleb128 0x3
 2927 0008 0E       		.uleb128 0xe
 2928 0009 1B       		.uleb128 0x1b
 2929 000a 0E       		.uleb128 0xe
 2930 000b 55       		.uleb128 0x55
 2931 000c 06       		.uleb128 0x6
 2932 000d 11       		.uleb128 0x11
 2933 000e 01       		.uleb128 0x1
 2934 000f 52       		.uleb128 0x52
 2935 0010 01       		.uleb128 0x1
 2936 0011 10       		.uleb128 0x10
 2937 0012 06       		.uleb128 0x6
 2938 0013 00       		.byte	0
 2939 0014 00       		.byte	0
 2940 0015 02       		.uleb128 0x2
 2941 0016 24       		.uleb128 0x24
 2942 0017 00       		.byte	0
 2943 0018 0B       		.uleb128 0xb
 2944 0019 0B       		.uleb128 0xb
 2945 001a 3E       		.uleb128 0x3e
 2946 001b 0B       		.uleb128 0xb
 2947 001c 03       		.uleb128 0x3
 2948 001d 08       		.uleb128 0x8
 2949 001e 00       		.byte	0
 2950 001f 00       		.byte	0
 2951 0020 03       		.uleb128 0x3
 2952 0021 24       		.uleb128 0x24
 2953 0022 00       		.byte	0
 2954 0023 0B       		.uleb128 0xb
 2955 0024 0B       		.uleb128 0xb
 2956 0025 3E       		.uleb128 0x3e
 2957 0026 0B       		.uleb128 0xb
 2958 0027 03       		.uleb128 0x3
 2959 0028 0E       		.uleb128 0xe
 2960 0029 00       		.byte	0
ARM GAS  /tmp/cc951f5a.s 			page 53


 2961 002a 00       		.byte	0
 2962 002b 04       		.uleb128 0x4
 2963 002c 16       		.uleb128 0x16
 2964 002d 00       		.byte	0
 2965 002e 03       		.uleb128 0x3
 2966 002f 0E       		.uleb128 0xe
 2967 0030 3A       		.uleb128 0x3a
 2968 0031 0B       		.uleb128 0xb
 2969 0032 3B       		.uleb128 0x3b
 2970 0033 0B       		.uleb128 0xb
 2971 0034 49       		.uleb128 0x49
 2972 0035 13       		.uleb128 0x13
 2973 0036 00       		.byte	0
 2974 0037 00       		.byte	0
 2975 0038 05       		.uleb128 0x5
 2976 0039 13       		.uleb128 0x13
 2977 003a 01       		.byte	0x1
 2978 003b 03       		.uleb128 0x3
 2979 003c 0E       		.uleb128 0xe
 2980 003d 0B       		.uleb128 0xb
 2981 003e 0B       		.uleb128 0xb
 2982 003f 3A       		.uleb128 0x3a
 2983 0040 0B       		.uleb128 0xb
 2984 0041 3B       		.uleb128 0x3b
 2985 0042 0B       		.uleb128 0xb
 2986 0043 01       		.uleb128 0x1
 2987 0044 13       		.uleb128 0x13
 2988 0045 00       		.byte	0
 2989 0046 00       		.byte	0
 2990 0047 06       		.uleb128 0x6
 2991 0048 0D       		.uleb128 0xd
 2992 0049 00       		.byte	0
 2993 004a 03       		.uleb128 0x3
 2994 004b 0E       		.uleb128 0xe
 2995 004c 3A       		.uleb128 0x3a
 2996 004d 0B       		.uleb128 0xb
 2997 004e 3B       		.uleb128 0x3b
 2998 004f 0B       		.uleb128 0xb
 2999 0050 49       		.uleb128 0x49
 3000 0051 13       		.uleb128 0x13
 3001 0052 38       		.uleb128 0x38
 3002 0053 0A       		.uleb128 0xa
 3003 0054 00       		.byte	0
 3004 0055 00       		.byte	0
 3005 0056 07       		.uleb128 0x7
 3006 0057 0D       		.uleb128 0xd
 3007 0058 00       		.byte	0
 3008 0059 03       		.uleb128 0x3
 3009 005a 08       		.uleb128 0x8
 3010 005b 3A       		.uleb128 0x3a
 3011 005c 0B       		.uleb128 0xb
 3012 005d 3B       		.uleb128 0x3b
 3013 005e 0B       		.uleb128 0xb
 3014 005f 49       		.uleb128 0x49
 3015 0060 13       		.uleb128 0x13
 3016 0061 38       		.uleb128 0x38
 3017 0062 0A       		.uleb128 0xa
ARM GAS  /tmp/cc951f5a.s 			page 54


 3018 0063 00       		.byte	0
 3019 0064 00       		.byte	0
 3020 0065 08       		.uleb128 0x8
 3021 0066 13       		.uleb128 0x13
 3022 0067 01       		.byte	0x1
 3023 0068 0B       		.uleb128 0xb
 3024 0069 0B       		.uleb128 0xb
 3025 006a 3A       		.uleb128 0x3a
 3026 006b 0B       		.uleb128 0xb
 3027 006c 3B       		.uleb128 0x3b
 3028 006d 0B       		.uleb128 0xb
 3029 006e 01       		.uleb128 0x1
 3030 006f 13       		.uleb128 0x13
 3031 0070 00       		.byte	0
 3032 0071 00       		.byte	0
 3033 0072 09       		.uleb128 0x9
 3034 0073 0F       		.uleb128 0xf
 3035 0074 00       		.byte	0
 3036 0075 0B       		.uleb128 0xb
 3037 0076 0B       		.uleb128 0xb
 3038 0077 49       		.uleb128 0x49
 3039 0078 13       		.uleb128 0x13
 3040 0079 00       		.byte	0
 3041 007a 00       		.byte	0
 3042 007b 0A       		.uleb128 0xa
 3043 007c 0F       		.uleb128 0xf
 3044 007d 00       		.byte	0
 3045 007e 0B       		.uleb128 0xb
 3046 007f 0B       		.uleb128 0xb
 3047 0080 00       		.byte	0
 3048 0081 00       		.byte	0
 3049 0082 0B       		.uleb128 0xb
 3050 0083 13       		.uleb128 0x13
 3051 0084 01       		.byte	0x1
 3052 0085 03       		.uleb128 0x3
 3053 0086 0E       		.uleb128 0xe
 3054 0087 0B       		.uleb128 0xb
 3055 0088 0B       		.uleb128 0xb
 3056 0089 3A       		.uleb128 0x3a
 3057 008a 0B       		.uleb128 0xb
 3058 008b 3B       		.uleb128 0x3b
 3059 008c 05       		.uleb128 0x5
 3060 008d 01       		.uleb128 0x1
 3061 008e 13       		.uleb128 0x13
 3062 008f 00       		.byte	0
 3063 0090 00       		.byte	0
 3064 0091 0C       		.uleb128 0xc
 3065 0092 0D       		.uleb128 0xd
 3066 0093 00       		.byte	0
 3067 0094 03       		.uleb128 0x3
 3068 0095 08       		.uleb128 0x8
 3069 0096 3A       		.uleb128 0x3a
 3070 0097 0B       		.uleb128 0xb
 3071 0098 3B       		.uleb128 0x3b
 3072 0099 05       		.uleb128 0x5
 3073 009a 49       		.uleb128 0x49
 3074 009b 13       		.uleb128 0x13
ARM GAS  /tmp/cc951f5a.s 			page 55


 3075 009c 38       		.uleb128 0x38
 3076 009d 0A       		.uleb128 0xa
 3077 009e 00       		.byte	0
 3078 009f 00       		.byte	0
 3079 00a0 0D       		.uleb128 0xd
 3080 00a1 35       		.uleb128 0x35
 3081 00a2 00       		.byte	0
 3082 00a3 49       		.uleb128 0x49
 3083 00a4 13       		.uleb128 0x13
 3084 00a5 00       		.byte	0
 3085 00a6 00       		.byte	0
 3086 00a7 0E       		.uleb128 0xe
 3087 00a8 17       		.uleb128 0x17
 3088 00a9 01       		.byte	0x1
 3089 00aa 0B       		.uleb128 0xb
 3090 00ab 0B       		.uleb128 0xb
 3091 00ac 3A       		.uleb128 0x3a
 3092 00ad 0B       		.uleb128 0xb
 3093 00ae 3B       		.uleb128 0x3b
 3094 00af 0B       		.uleb128 0xb
 3095 00b0 01       		.uleb128 0x1
 3096 00b1 13       		.uleb128 0x13
 3097 00b2 00       		.byte	0
 3098 00b3 00       		.byte	0
 3099 00b4 0F       		.uleb128 0xf
 3100 00b5 0D       		.uleb128 0xd
 3101 00b6 00       		.byte	0
 3102 00b7 03       		.uleb128 0x3
 3103 00b8 0E       		.uleb128 0xe
 3104 00b9 3A       		.uleb128 0x3a
 3105 00ba 0B       		.uleb128 0xb
 3106 00bb 3B       		.uleb128 0x3b
 3107 00bc 0B       		.uleb128 0xb
 3108 00bd 49       		.uleb128 0x49
 3109 00be 13       		.uleb128 0x13
 3110 00bf 00       		.byte	0
 3111 00c0 00       		.byte	0
 3112 00c1 10       		.uleb128 0x10
 3113 00c2 26       		.uleb128 0x26
 3114 00c3 00       		.byte	0
 3115 00c4 49       		.uleb128 0x49
 3116 00c5 13       		.uleb128 0x13
 3117 00c6 00       		.byte	0
 3118 00c7 00       		.byte	0
 3119 00c8 11       		.uleb128 0x11
 3120 00c9 13       		.uleb128 0x13
 3121 00ca 01       		.byte	0x1
 3122 00cb 0B       		.uleb128 0xb
 3123 00cc 0B       		.uleb128 0xb
 3124 00cd 3A       		.uleb128 0x3a
 3125 00ce 0B       		.uleb128 0xb
 3126 00cf 3B       		.uleb128 0x3b
 3127 00d0 05       		.uleb128 0x5
 3128 00d1 01       		.uleb128 0x1
 3129 00d2 13       		.uleb128 0x13
 3130 00d3 00       		.byte	0
 3131 00d4 00       		.byte	0
ARM GAS  /tmp/cc951f5a.s 			page 56


 3132 00d5 12       		.uleb128 0x12
 3133 00d6 0D       		.uleb128 0xd
 3134 00d7 00       		.byte	0
 3135 00d8 03       		.uleb128 0x3
 3136 00d9 0E       		.uleb128 0xe
 3137 00da 3A       		.uleb128 0x3a
 3138 00db 0B       		.uleb128 0xb
 3139 00dc 3B       		.uleb128 0x3b
 3140 00dd 05       		.uleb128 0x5
 3141 00de 49       		.uleb128 0x49
 3142 00df 13       		.uleb128 0x13
 3143 00e0 38       		.uleb128 0x38
 3144 00e1 0A       		.uleb128 0xa
 3145 00e2 00       		.byte	0
 3146 00e3 00       		.byte	0
 3147 00e4 13       		.uleb128 0x13
 3148 00e5 16       		.uleb128 0x16
 3149 00e6 00       		.byte	0
 3150 00e7 03       		.uleb128 0x3
 3151 00e8 0E       		.uleb128 0xe
 3152 00e9 3A       		.uleb128 0x3a
 3153 00ea 0B       		.uleb128 0xb
 3154 00eb 3B       		.uleb128 0x3b
 3155 00ec 05       		.uleb128 0x5
 3156 00ed 49       		.uleb128 0x49
 3157 00ee 13       		.uleb128 0x13
 3158 00ef 00       		.byte	0
 3159 00f0 00       		.byte	0
 3160 00f1 14       		.uleb128 0x14
 3161 00f2 0D       		.uleb128 0xd
 3162 00f3 00       		.byte	0
 3163 00f4 03       		.uleb128 0x3
 3164 00f5 08       		.uleb128 0x8
 3165 00f6 3A       		.uleb128 0x3a
 3166 00f7 0B       		.uleb128 0xb
 3167 00f8 3B       		.uleb128 0x3b
 3168 00f9 0B       		.uleb128 0xb
 3169 00fa 49       		.uleb128 0x49
 3170 00fb 13       		.uleb128 0x13
 3171 00fc 00       		.byte	0
 3172 00fd 00       		.byte	0
 3173 00fe 15       		.uleb128 0x15
 3174 00ff 04       		.uleb128 0x4
 3175 0100 01       		.byte	0x1
 3176 0101 0B       		.uleb128 0xb
 3177 0102 0B       		.uleb128 0xb
 3178 0103 3A       		.uleb128 0x3a
 3179 0104 0B       		.uleb128 0xb
 3180 0105 3B       		.uleb128 0x3b
 3181 0106 0B       		.uleb128 0xb
 3182 0107 01       		.uleb128 0x1
 3183 0108 13       		.uleb128 0x13
 3184 0109 00       		.byte	0
 3185 010a 00       		.byte	0
 3186 010b 16       		.uleb128 0x16
 3187 010c 28       		.uleb128 0x28
 3188 010d 00       		.byte	0
ARM GAS  /tmp/cc951f5a.s 			page 57


 3189 010e 03       		.uleb128 0x3
 3190 010f 0E       		.uleb128 0xe
 3191 0110 1C       		.uleb128 0x1c
 3192 0111 0D       		.uleb128 0xd
 3193 0112 00       		.byte	0
 3194 0113 00       		.byte	0
 3195 0114 17       		.uleb128 0x17
 3196 0115 15       		.uleb128 0x15
 3197 0116 01       		.byte	0x1
 3198 0117 27       		.uleb128 0x27
 3199 0118 0C       		.uleb128 0xc
 3200 0119 01       		.uleb128 0x1
 3201 011a 13       		.uleb128 0x13
 3202 011b 00       		.byte	0
 3203 011c 00       		.byte	0
 3204 011d 18       		.uleb128 0x18
 3205 011e 05       		.uleb128 0x5
 3206 011f 00       		.byte	0
 3207 0120 49       		.uleb128 0x49
 3208 0121 13       		.uleb128 0x13
 3209 0122 00       		.byte	0
 3210 0123 00       		.byte	0
 3211 0124 19       		.uleb128 0x19
 3212 0125 01       		.uleb128 0x1
 3213 0126 01       		.byte	0x1
 3214 0127 49       		.uleb128 0x49
 3215 0128 13       		.uleb128 0x13
 3216 0129 01       		.uleb128 0x1
 3217 012a 13       		.uleb128 0x13
 3218 012b 00       		.byte	0
 3219 012c 00       		.byte	0
 3220 012d 1A       		.uleb128 0x1a
 3221 012e 21       		.uleb128 0x21
 3222 012f 00       		.byte	0
 3223 0130 49       		.uleb128 0x49
 3224 0131 13       		.uleb128 0x13
 3225 0132 2F       		.uleb128 0x2f
 3226 0133 0B       		.uleb128 0xb
 3227 0134 00       		.byte	0
 3228 0135 00       		.byte	0
 3229 0136 1B       		.uleb128 0x1b
 3230 0137 2E       		.uleb128 0x2e
 3231 0138 01       		.byte	0x1
 3232 0139 3F       		.uleb128 0x3f
 3233 013a 0C       		.uleb128 0xc
 3234 013b 03       		.uleb128 0x3
 3235 013c 0E       		.uleb128 0xe
 3236 013d 3A       		.uleb128 0x3a
 3237 013e 0B       		.uleb128 0xb
 3238 013f 3B       		.uleb128 0x3b
 3239 0140 0B       		.uleb128 0xb
 3240 0141 27       		.uleb128 0x27
 3241 0142 0C       		.uleb128 0xc
 3242 0143 11       		.uleb128 0x11
 3243 0144 01       		.uleb128 0x1
 3244 0145 12       		.uleb128 0x12
 3245 0146 01       		.uleb128 0x1
ARM GAS  /tmp/cc951f5a.s 			page 58


 3246 0147 40       		.uleb128 0x40
 3247 0148 06       		.uleb128 0x6
 3248 0149 9742     		.uleb128 0x2117
 3249 014b 0C       		.uleb128 0xc
 3250 014c 01       		.uleb128 0x1
 3251 014d 13       		.uleb128 0x13
 3252 014e 00       		.byte	0
 3253 014f 00       		.byte	0
 3254 0150 1C       		.uleb128 0x1c
 3255 0151 05       		.uleb128 0x5
 3256 0152 00       		.byte	0
 3257 0153 03       		.uleb128 0x3
 3258 0154 08       		.uleb128 0x8
 3259 0155 3A       		.uleb128 0x3a
 3260 0156 0B       		.uleb128 0xb
 3261 0157 3B       		.uleb128 0x3b
 3262 0158 0B       		.uleb128 0xb
 3263 0159 49       		.uleb128 0x49
 3264 015a 13       		.uleb128 0x13
 3265 015b 02       		.uleb128 0x2
 3266 015c 06       		.uleb128 0x6
 3267 015d 00       		.byte	0
 3268 015e 00       		.byte	0
 3269 015f 1D       		.uleb128 0x1d
 3270 0160 05       		.uleb128 0x5
 3271 0161 00       		.byte	0
 3272 0162 03       		.uleb128 0x3
 3273 0163 0E       		.uleb128 0xe
 3274 0164 3A       		.uleb128 0x3a
 3275 0165 0B       		.uleb128 0xb
 3276 0166 3B       		.uleb128 0x3b
 3277 0167 0B       		.uleb128 0xb
 3278 0168 49       		.uleb128 0x49
 3279 0169 13       		.uleb128 0x13
 3280 016a 02       		.uleb128 0x2
 3281 016b 06       		.uleb128 0x6
 3282 016c 00       		.byte	0
 3283 016d 00       		.byte	0
 3284 016e 1E       		.uleb128 0x1e
 3285 016f 34       		.uleb128 0x34
 3286 0170 00       		.byte	0
 3287 0171 03       		.uleb128 0x3
 3288 0172 0E       		.uleb128 0xe
 3289 0173 3A       		.uleb128 0x3a
 3290 0174 0B       		.uleb128 0xb
 3291 0175 3B       		.uleb128 0x3b
 3292 0176 0B       		.uleb128 0xb
 3293 0177 49       		.uleb128 0x49
 3294 0178 13       		.uleb128 0x13
 3295 0179 02       		.uleb128 0x2
 3296 017a 0A       		.uleb128 0xa
 3297 017b 00       		.byte	0
 3298 017c 00       		.byte	0
 3299 017d 1F       		.uleb128 0x1f
 3300 017e 898201   		.uleb128 0x4109
 3301 0181 01       		.byte	0x1
 3302 0182 11       		.uleb128 0x11
ARM GAS  /tmp/cc951f5a.s 			page 59


 3303 0183 01       		.uleb128 0x1
 3304 0184 31       		.uleb128 0x31
 3305 0185 13       		.uleb128 0x13
 3306 0186 01       		.uleb128 0x1
 3307 0187 13       		.uleb128 0x13
 3308 0188 00       		.byte	0
 3309 0189 00       		.byte	0
 3310 018a 20       		.uleb128 0x20
 3311 018b 8A8201   		.uleb128 0x410a
 3312 018e 00       		.byte	0
 3313 018f 02       		.uleb128 0x2
 3314 0190 0A       		.uleb128 0xa
 3315 0191 9142     		.uleb128 0x2111
 3316 0193 0A       		.uleb128 0xa
 3317 0194 00       		.byte	0
 3318 0195 00       		.byte	0
 3319 0196 21       		.uleb128 0x21
 3320 0197 898201   		.uleb128 0x4109
 3321 019a 01       		.byte	0x1
 3322 019b 11       		.uleb128 0x11
 3323 019c 01       		.uleb128 0x1
 3324 019d 31       		.uleb128 0x31
 3325 019e 13       		.uleb128 0x13
 3326 019f 00       		.byte	0
 3327 01a0 00       		.byte	0
 3328 01a1 22       		.uleb128 0x22
 3329 01a2 2E       		.uleb128 0x2e
 3330 01a3 01       		.byte	0x1
 3331 01a4 3F       		.uleb128 0x3f
 3332 01a5 0C       		.uleb128 0xc
 3333 01a6 03       		.uleb128 0x3
 3334 01a7 0E       		.uleb128 0xe
 3335 01a8 3A       		.uleb128 0x3a
 3336 01a9 0B       		.uleb128 0xb
 3337 01aa 3B       		.uleb128 0x3b
 3338 01ab 0B       		.uleb128 0xb
 3339 01ac 27       		.uleb128 0x27
 3340 01ad 0C       		.uleb128 0xc
 3341 01ae 49       		.uleb128 0x49
 3342 01af 13       		.uleb128 0x13
 3343 01b0 11       		.uleb128 0x11
 3344 01b1 01       		.uleb128 0x1
 3345 01b2 12       		.uleb128 0x12
 3346 01b3 01       		.uleb128 0x1
 3347 01b4 40       		.uleb128 0x40
 3348 01b5 06       		.uleb128 0x6
 3349 01b6 9742     		.uleb128 0x2117
 3350 01b8 0C       		.uleb128 0xc
 3351 01b9 01       		.uleb128 0x1
 3352 01ba 13       		.uleb128 0x13
 3353 01bb 00       		.byte	0
 3354 01bc 00       		.byte	0
 3355 01bd 23       		.uleb128 0x23
 3356 01be 34       		.uleb128 0x34
 3357 01bf 00       		.byte	0
 3358 01c0 03       		.uleb128 0x3
 3359 01c1 08       		.uleb128 0x8
ARM GAS  /tmp/cc951f5a.s 			page 60


 3360 01c2 3A       		.uleb128 0x3a
 3361 01c3 0B       		.uleb128 0xb
 3362 01c4 3B       		.uleb128 0x3b
 3363 01c5 0B       		.uleb128 0xb
 3364 01c6 49       		.uleb128 0x49
 3365 01c7 13       		.uleb128 0x13
 3366 01c8 02       		.uleb128 0x2
 3367 01c9 0A       		.uleb128 0xa
 3368 01ca 00       		.byte	0
 3369 01cb 00       		.byte	0
 3370 01cc 24       		.uleb128 0x24
 3371 01cd 34       		.uleb128 0x34
 3372 01ce 00       		.byte	0
 3373 01cf 03       		.uleb128 0x3
 3374 01d0 08       		.uleb128 0x8
 3375 01d1 3A       		.uleb128 0x3a
 3376 01d2 0B       		.uleb128 0xb
 3377 01d3 3B       		.uleb128 0x3b
 3378 01d4 0B       		.uleb128 0xb
 3379 01d5 49       		.uleb128 0x49
 3380 01d6 13       		.uleb128 0x13
 3381 01d7 02       		.uleb128 0x2
 3382 01d8 06       		.uleb128 0x6
 3383 01d9 00       		.byte	0
 3384 01da 00       		.byte	0
 3385 01db 25       		.uleb128 0x25
 3386 01dc 34       		.uleb128 0x34
 3387 01dd 00       		.byte	0
 3388 01de 03       		.uleb128 0x3
 3389 01df 0E       		.uleb128 0xe
 3390 01e0 3A       		.uleb128 0x3a
 3391 01e1 0B       		.uleb128 0xb
 3392 01e2 3B       		.uleb128 0x3b
 3393 01e3 0B       		.uleb128 0xb
 3394 01e4 49       		.uleb128 0x49
 3395 01e5 13       		.uleb128 0x13
 3396 01e6 02       		.uleb128 0x2
 3397 01e7 06       		.uleb128 0x6
 3398 01e8 00       		.byte	0
 3399 01e9 00       		.byte	0
 3400 01ea 26       		.uleb128 0x26
 3401 01eb 898201   		.uleb128 0x4109
 3402 01ee 00       		.byte	0
 3403 01ef 11       		.uleb128 0x11
 3404 01f0 01       		.uleb128 0x1
 3405 01f1 31       		.uleb128 0x31
 3406 01f2 13       		.uleb128 0x13
 3407 01f3 00       		.byte	0
 3408 01f4 00       		.byte	0
 3409 01f5 27       		.uleb128 0x27
 3410 01f6 898201   		.uleb128 0x4109
 3411 01f9 00       		.byte	0
 3412 01fa 11       		.uleb128 0x11
 3413 01fb 01       		.uleb128 0x1
 3414 01fc 9542     		.uleb128 0x2115
 3415 01fe 0C       		.uleb128 0xc
 3416 01ff 31       		.uleb128 0x31
ARM GAS  /tmp/cc951f5a.s 			page 61


 3417 0200 13       		.uleb128 0x13
 3418 0201 00       		.byte	0
 3419 0202 00       		.byte	0
 3420 0203 28       		.uleb128 0x28
 3421 0204 34       		.uleb128 0x34
 3422 0205 00       		.byte	0
 3423 0206 03       		.uleb128 0x3
 3424 0207 0E       		.uleb128 0xe
 3425 0208 3A       		.uleb128 0x3a
 3426 0209 0B       		.uleb128 0xb
 3427 020a 3B       		.uleb128 0x3b
 3428 020b 05       		.uleb128 0x5
 3429 020c 49       		.uleb128 0x49
 3430 020d 13       		.uleb128 0x13
 3431 020e 3F       		.uleb128 0x3f
 3432 020f 0C       		.uleb128 0xc
 3433 0210 3C       		.uleb128 0x3c
 3434 0211 0C       		.uleb128 0xc
 3435 0212 00       		.byte	0
 3436 0213 00       		.byte	0
 3437 0214 29       		.uleb128 0x29
 3438 0215 2E       		.uleb128 0x2e
 3439 0216 01       		.byte	0x1
 3440 0217 3F       		.uleb128 0x3f
 3441 0218 0C       		.uleb128 0xc
 3442 0219 03       		.uleb128 0x3
 3443 021a 0E       		.uleb128 0xe
 3444 021b 3A       		.uleb128 0x3a
 3445 021c 0B       		.uleb128 0xb
 3446 021d 3B       		.uleb128 0x3b
 3447 021e 0B       		.uleb128 0xb
 3448 021f 27       		.uleb128 0x27
 3449 0220 0C       		.uleb128 0xc
 3450 0221 49       		.uleb128 0x49
 3451 0222 13       		.uleb128 0x13
 3452 0223 3C       		.uleb128 0x3c
 3453 0224 0C       		.uleb128 0xc
 3454 0225 01       		.uleb128 0x1
 3455 0226 13       		.uleb128 0x13
 3456 0227 00       		.byte	0
 3457 0228 00       		.byte	0
 3458 0229 2A       		.uleb128 0x2a
 3459 022a 2E       		.uleb128 0x2e
 3460 022b 01       		.byte	0x1
 3461 022c 3F       		.uleb128 0x3f
 3462 022d 0C       		.uleb128 0xc
 3463 022e 03       		.uleb128 0x3
 3464 022f 0E       		.uleb128 0xe
 3465 0230 3A       		.uleb128 0x3a
 3466 0231 0B       		.uleb128 0xb
 3467 0232 3B       		.uleb128 0x3b
 3468 0233 0B       		.uleb128 0xb
 3469 0234 27       		.uleb128 0x27
 3470 0235 0C       		.uleb128 0xc
 3471 0236 3C       		.uleb128 0x3c
 3472 0237 0C       		.uleb128 0xc
 3473 0238 01       		.uleb128 0x1
ARM GAS  /tmp/cc951f5a.s 			page 62


 3474 0239 13       		.uleb128 0x13
 3475 023a 00       		.byte	0
 3476 023b 00       		.byte	0
 3477 023c 2B       		.uleb128 0x2b
 3478 023d 2E       		.uleb128 0x2e
 3479 023e 01       		.byte	0x1
 3480 023f 3F       		.uleb128 0x3f
 3481 0240 0C       		.uleb128 0xc
 3482 0241 03       		.uleb128 0x3
 3483 0242 0E       		.uleb128 0xe
 3484 0243 3A       		.uleb128 0x3a
 3485 0244 0B       		.uleb128 0xb
 3486 0245 3B       		.uleb128 0x3b
 3487 0246 05       		.uleb128 0x5
 3488 0247 27       		.uleb128 0x27
 3489 0248 0C       		.uleb128 0xc
 3490 0249 3C       		.uleb128 0x3c
 3491 024a 0C       		.uleb128 0xc
 3492 024b 01       		.uleb128 0x1
 3493 024c 13       		.uleb128 0x13
 3494 024d 00       		.byte	0
 3495 024e 00       		.byte	0
 3496 024f 2C       		.uleb128 0x2c
 3497 0250 2E       		.uleb128 0x2e
 3498 0251 00       		.byte	0
 3499 0252 3F       		.uleb128 0x3f
 3500 0253 0C       		.uleb128 0xc
 3501 0254 03       		.uleb128 0x3
 3502 0255 0E       		.uleb128 0xe
 3503 0256 3A       		.uleb128 0x3a
 3504 0257 0B       		.uleb128 0xb
 3505 0258 3B       		.uleb128 0x3b
 3506 0259 0B       		.uleb128 0xb
 3507 025a 27       		.uleb128 0x27
 3508 025b 0C       		.uleb128 0xc
 3509 025c 3C       		.uleb128 0x3c
 3510 025d 0C       		.uleb128 0xc
 3511 025e 00       		.byte	0
 3512 025f 00       		.byte	0
 3513 0260 00       		.byte	0
 3514              		.section	.debug_loc,"",%progbits
 3515              	.Ldebug_loc0:
 3516              	.LLST0:
 3517 0000 00000000 		.4byte	.LFB118
 3518 0004 02000000 		.4byte	.LCFI0
 3519 0008 0200     		.2byte	0x2
 3520 000a 7D       		.byte	0x7d
 3521 000b 00       		.sleb128 0
 3522 000c 02000000 		.4byte	.LCFI0
 3523 0010 06000000 		.4byte	.LCFI1
 3524 0014 0200     		.2byte	0x2
 3525 0016 7D       		.byte	0x7d
 3526 0017 0C       		.sleb128 12
 3527 0018 06000000 		.4byte	.LCFI1
 3528 001c 74000000 		.4byte	.LFE118
 3529 0020 0200     		.2byte	0x2
 3530 0022 7D       		.byte	0x7d
ARM GAS  /tmp/cc951f5a.s 			page 63


 3531 0023 18       		.sleb128 24
 3532 0024 00000000 		.4byte	0
 3533 0028 00000000 		.4byte	0
 3534              	.LLST1:
 3535 002c 00000000 		.4byte	.LVL0
 3536 0030 0A000000 		.4byte	.LVL1
 3537 0034 0100     		.2byte	0x1
 3538 0036 50       		.byte	0x50
 3539 0037 0A000000 		.4byte	.LVL1
 3540 003b 34000000 		.4byte	.LVL4
 3541 003f 0100     		.2byte	0x1
 3542 0041 54       		.byte	0x54
 3543 0042 34000000 		.4byte	.LVL4
 3544 0046 39000000 		.4byte	.LVL5-1
 3545 004a 0100     		.2byte	0x1
 3546 004c 50       		.byte	0x50
 3547 004d 39000000 		.4byte	.LVL5-1
 3548 0051 66000000 		.4byte	.LVL11
 3549 0055 0100     		.2byte	0x1
 3550 0057 54       		.byte	0x54
 3551 0058 66000000 		.4byte	.LVL11
 3552 005c 6B000000 		.4byte	.LVL12-1
 3553 0060 0100     		.2byte	0x1
 3554 0062 50       		.byte	0x50
 3555 0063 6B000000 		.4byte	.LVL12-1
 3556 0067 74000000 		.4byte	.LFE118
 3557 006b 0100     		.2byte	0x1
 3558 006d 54       		.byte	0x54
 3559 006e 00000000 		.4byte	0
 3560 0072 00000000 		.4byte	0
 3561              	.LLST2:
 3562 0076 00000000 		.4byte	.LVL0
 3563 007a 18000000 		.4byte	.LVL2
 3564 007e 0100     		.2byte	0x1
 3565 0080 51       		.byte	0x51
 3566 0081 18000000 		.4byte	.LVL2
 3567 0085 74000000 		.4byte	.LFE118
 3568 0089 0100     		.2byte	0x1
 3569 008b 55       		.byte	0x55
 3570 008c 00000000 		.4byte	0
 3571 0090 00000000 		.4byte	0
 3572              	.LLST3:
 3573 0094 00000000 		.4byte	.LVL0
 3574 0098 2F000000 		.4byte	.LVL3-1
 3575 009c 0100     		.2byte	0x1
 3576 009e 52       		.byte	0x52
 3577 009f 2F000000 		.4byte	.LVL3-1
 3578 00a3 52000000 		.4byte	.LVL8
 3579 00a7 0400     		.2byte	0x4
 3580 00a9 F3       		.byte	0xf3
 3581 00aa 01       		.uleb128 0x1
 3582 00ab 52       		.byte	0x52
 3583 00ac 9F       		.byte	0x9f
 3584 00ad 52000000 		.4byte	.LVL8
 3585 00b1 56000000 		.4byte	.LVL9
 3586 00b5 0100     		.2byte	0x1
 3587 00b7 52       		.byte	0x52
ARM GAS  /tmp/cc951f5a.s 			page 64


 3588 00b8 56000000 		.4byte	.LVL9
 3589 00bc 74000000 		.4byte	.LFE118
 3590 00c0 0400     		.2byte	0x4
 3591 00c2 F3       		.byte	0xf3
 3592 00c3 01       		.uleb128 0x1
 3593 00c4 52       		.byte	0x52
 3594 00c5 9F       		.byte	0x9f
 3595 00c6 00000000 		.4byte	0
 3596 00ca 00000000 		.4byte	0
 3597              	.LLST4:
 3598 00ce 00000000 		.4byte	.LFB119
 3599 00d2 02000000 		.4byte	.LCFI2
 3600 00d6 0200     		.2byte	0x2
 3601 00d8 7D       		.byte	0x7d
 3602 00d9 00       		.sleb128 0
 3603 00da 02000000 		.4byte	.LCFI2
 3604 00de 06000000 		.4byte	.LCFI3
 3605 00e2 0200     		.2byte	0x2
 3606 00e4 7D       		.byte	0x7d
 3607 00e5 0C       		.sleb128 12
 3608 00e6 06000000 		.4byte	.LCFI3
 3609 00ea C4000000 		.4byte	.LFE119
 3610 00ee 0200     		.2byte	0x2
 3611 00f0 7D       		.byte	0x7d
 3612 00f1 20       		.sleb128 32
 3613 00f2 00000000 		.4byte	0
 3614 00f6 00000000 		.4byte	0
 3615              	.LLST5:
 3616 00fa 00000000 		.4byte	.LVL13
 3617 00fe 0B000000 		.4byte	.LVL14-1
 3618 0102 0100     		.2byte	0x1
 3619 0104 50       		.byte	0x50
 3620 0105 0B000000 		.4byte	.LVL14-1
 3621 0109 54000000 		.4byte	.LVL23
 3622 010d 0100     		.2byte	0x1
 3623 010f 54       		.byte	0x54
 3624 0110 54000000 		.4byte	.LVL23
 3625 0114 59000000 		.4byte	.LVL24-1
 3626 0118 0100     		.2byte	0x1
 3627 011a 50       		.byte	0x50
 3628 011b 59000000 		.4byte	.LVL24-1
 3629 011f 8E000000 		.4byte	.LVL30
 3630 0123 0100     		.2byte	0x1
 3631 0125 54       		.byte	0x54
 3632 0126 8E000000 		.4byte	.LVL30
 3633 012a 92000000 		.4byte	.LVL31
 3634 012e 0400     		.2byte	0x4
 3635 0130 F3       		.byte	0xf3
 3636 0131 01       		.uleb128 0x1
 3637 0132 50       		.byte	0x50
 3638 0133 9F       		.byte	0x9f
 3639 0134 92000000 		.4byte	.LVL31
 3640 0138 96000000 		.4byte	.LVL32
 3641 013c 0100     		.2byte	0x1
 3642 013e 54       		.byte	0x54
 3643 013f 96000000 		.4byte	.LVL32
 3644 0143 AE000000 		.4byte	.LVL37
ARM GAS  /tmp/cc951f5a.s 			page 65


 3645 0147 0400     		.2byte	0x4
 3646 0149 F3       		.byte	0xf3
 3647 014a 01       		.uleb128 0x1
 3648 014b 50       		.byte	0x50
 3649 014c 9F       		.byte	0x9f
 3650 014d AE000000 		.4byte	.LVL37
 3651 0151 B3000000 		.4byte	.LVL38-1
 3652 0155 0100     		.2byte	0x1
 3653 0157 50       		.byte	0x50
 3654 0158 B3000000 		.4byte	.LVL38-1
 3655 015c B6000000 		.4byte	.LVL39
 3656 0160 0100     		.2byte	0x1
 3657 0162 54       		.byte	0x54
 3658 0163 B6000000 		.4byte	.LVL39
 3659 0167 BB000000 		.4byte	.LVL40-1
 3660 016b 0100     		.2byte	0x1
 3661 016d 50       		.byte	0x50
 3662 016e BB000000 		.4byte	.LVL40-1
 3663 0172 C4000000 		.4byte	.LFE119
 3664 0176 0100     		.2byte	0x1
 3665 0178 54       		.byte	0x54
 3666 0179 00000000 		.4byte	0
 3667 017d 00000000 		.4byte	0
 3668              	.LLST6:
 3669 0181 00000000 		.4byte	.LVL13
 3670 0185 0B000000 		.4byte	.LVL14-1
 3671 0189 0100     		.2byte	0x1
 3672 018b 51       		.byte	0x51
 3673 018c 0B000000 		.4byte	.LVL14-1
 3674 0190 C4000000 		.4byte	.LFE119
 3675 0194 0100     		.2byte	0x1
 3676 0196 55       		.byte	0x55
 3677 0197 00000000 		.4byte	0
 3678 019b 00000000 		.4byte	0
 3679              	.LLST7:
 3680 019f 7E000000 		.4byte	.LVL28
 3681 01a3 89000000 		.4byte	.LVL29-1
 3682 01a7 0100     		.2byte	0x1
 3683 01a9 50       		.byte	0x50
 3684 01aa 92000000 		.4byte	.LVL31
 3685 01ae 9A000000 		.4byte	.LVL33
 3686 01b2 0100     		.2byte	0x1
 3687 01b4 50       		.byte	0x50
 3688 01b5 00000000 		.4byte	0
 3689 01b9 00000000 		.4byte	0
 3690              	.LLST8:
 3691 01bd 9E000000 		.4byte	.LVL34
 3692 01c1 A0000000 		.4byte	.LVL35
 3693 01c5 0100     		.2byte	0x1
 3694 01c7 54       		.byte	0x54
 3695 01c8 A0000000 		.4byte	.LVL35
 3696 01cc A3000000 		.4byte	.LVL36-1
 3697 01d0 0D00     		.2byte	0xd
 3698 01d2 91       		.byte	0x91
 3699 01d3 65       		.sleb128 -27
 3700 01d4 94       		.byte	0x94
 3701 01d5 01       		.byte	0x1
ARM GAS  /tmp/cc951f5a.s 			page 66


 3702 01d6 08       		.byte	0x8
 3703 01d7 FF       		.byte	0xff
 3704 01d8 1A       		.byte	0x1a
 3705 01d9 38       		.byte	0x38
 3706 01da 24       		.byte	0x24
 3707 01db 70       		.byte	0x70
 3708 01dc 00       		.sleb128 0
 3709 01dd 21       		.byte	0x21
 3710 01de 9F       		.byte	0x9f
 3711 01df 00000000 		.4byte	0
 3712 01e3 00000000 		.4byte	0
 3713              	.LLST9:
 3714 01e7 00000000 		.4byte	.LFB120
 3715 01eb 02000000 		.4byte	.LCFI4
 3716 01ef 0200     		.2byte	0x2
 3717 01f1 7D       		.byte	0x7d
 3718 01f2 00       		.sleb128 0
 3719 01f3 02000000 		.4byte	.LCFI4
 3720 01f7 3C000000 		.4byte	.LFE120
 3721 01fb 0200     		.2byte	0x2
 3722 01fd 7D       		.byte	0x7d
 3723 01fe 10       		.sleb128 16
 3724 01ff 00000000 		.4byte	0
 3725 0203 00000000 		.4byte	0
 3726              	.LLST10:
 3727 0207 00000000 		.4byte	.LVL41
 3728 020b 09000000 		.4byte	.LVL42-1
 3729 020f 0100     		.2byte	0x1
 3730 0211 50       		.byte	0x50
 3731 0212 09000000 		.4byte	.LVL42-1
 3732 0216 34000000 		.4byte	.LVL47
 3733 021a 0100     		.2byte	0x1
 3734 021c 54       		.byte	0x54
 3735 021d 34000000 		.4byte	.LVL47
 3736 0221 39000000 		.4byte	.LVL48-1
 3737 0225 0100     		.2byte	0x1
 3738 0227 50       		.byte	0x50
 3739 0228 39000000 		.4byte	.LVL48-1
 3740 022c 3C000000 		.4byte	.LFE120
 3741 0230 0100     		.2byte	0x1
 3742 0232 54       		.byte	0x54
 3743 0233 00000000 		.4byte	0
 3744 0237 00000000 		.4byte	0
 3745              	.LLST11:
 3746 023b 00000000 		.4byte	.LVL41
 3747 023f 09000000 		.4byte	.LVL42-1
 3748 0243 0100     		.2byte	0x1
 3749 0245 51       		.byte	0x51
 3750 0246 09000000 		.4byte	.LVL42-1
 3751 024a 3C000000 		.4byte	.LFE120
 3752 024e 0100     		.2byte	0x1
 3753 0250 55       		.byte	0x55
 3754 0251 00000000 		.4byte	0
 3755 0255 00000000 		.4byte	0
 3756              	.LLST12:
 3757 0259 00000000 		.4byte	.LFB121
 3758 025d 02000000 		.4byte	.LCFI5
ARM GAS  /tmp/cc951f5a.s 			page 67


 3759 0261 0200     		.2byte	0x2
 3760 0263 7D       		.byte	0x7d
 3761 0264 00       		.sleb128 0
 3762 0265 02000000 		.4byte	.LCFI5
 3763 0269 06000000 		.4byte	.LCFI6
 3764 026d 0200     		.2byte	0x2
 3765 026f 7D       		.byte	0x7d
 3766 0270 0C       		.sleb128 12
 3767 0271 06000000 		.4byte	.LCFI6
 3768 0275 80000000 		.4byte	.LFE121
 3769 0279 0200     		.2byte	0x2
 3770 027b 7D       		.byte	0x7d
 3771 027c 20       		.sleb128 32
 3772 027d 00000000 		.4byte	0
 3773 0281 00000000 		.4byte	0
 3774              	.LLST13:
 3775 0285 00000000 		.4byte	.LVL49
 3776 0289 0B000000 		.4byte	.LVL50-1
 3777 028d 0100     		.2byte	0x1
 3778 028f 50       		.byte	0x50
 3779 0290 0B000000 		.4byte	.LVL50-1
 3780 0294 72000000 		.4byte	.LVL60
 3781 0298 0100     		.2byte	0x1
 3782 029a 54       		.byte	0x54
 3783 029b 72000000 		.4byte	.LVL60
 3784 029f 77000000 		.4byte	.LVL61-1
 3785 02a3 0100     		.2byte	0x1
 3786 02a5 50       		.byte	0x50
 3787 02a6 77000000 		.4byte	.LVL61-1
 3788 02aa 80000000 		.4byte	.LFE121
 3789 02ae 0100     		.2byte	0x1
 3790 02b0 54       		.byte	0x54
 3791 02b1 00000000 		.4byte	0
 3792 02b5 00000000 		.4byte	0
 3793              	.LLST14:
 3794 02b9 00000000 		.4byte	.LVL49
 3795 02bd 0B000000 		.4byte	.LVL50-1
 3796 02c1 0100     		.2byte	0x1
 3797 02c3 51       		.byte	0x51
 3798 02c4 0B000000 		.4byte	.LVL50-1
 3799 02c8 80000000 		.4byte	.LFE121
 3800 02cc 0100     		.2byte	0x1
 3801 02ce 55       		.byte	0x55
 3802 02cf 00000000 		.4byte	0
 3803 02d3 00000000 		.4byte	0
 3804              	.LLST15:
 3805 02d7 42000000 		.4byte	.LVL56
 3806 02db 4D000000 		.4byte	.LVL57-1
 3807 02df 0100     		.2byte	0x1
 3808 02e1 50       		.byte	0x50
 3809 02e2 56000000 		.4byte	.LVL58
 3810 02e6 59000000 		.4byte	.LVL59-1
 3811 02ea 0100     		.2byte	0x1
 3812 02ec 50       		.byte	0x50
 3813 02ed 00000000 		.4byte	0
 3814 02f1 00000000 		.4byte	0
 3815              	.LLST16:
ARM GAS  /tmp/cc951f5a.s 			page 68


 3816 02f5 5A000000 		.4byte	.LVL59
 3817 02f9 72000000 		.4byte	.LVL60
 3818 02fd 1200     		.2byte	0x12
 3819 02ff 91       		.byte	0x91
 3820 0300 65       		.sleb128 -27
 3821 0301 94       		.byte	0x94
 3822 0302 01       		.byte	0x1
 3823 0303 08       		.byte	0x8
 3824 0304 FF       		.byte	0xff
 3825 0305 1A       		.byte	0x1a
 3826 0306 38       		.byte	0x38
 3827 0307 24       		.byte	0x24
 3828 0308 91       		.byte	0x91
 3829 0309 64       		.sleb128 -28
 3830 030a 94       		.byte	0x94
 3831 030b 01       		.byte	0x1
 3832 030c 08       		.byte	0x8
 3833 030d FF       		.byte	0xff
 3834 030e 1A       		.byte	0x1a
 3835 030f 21       		.byte	0x21
 3836 0310 9F       		.byte	0x9f
 3837 0311 00000000 		.4byte	0
 3838 0315 00000000 		.4byte	0
 3839              		.section	.debug_aranges,"",%progbits
 3840 0000 34000000 		.4byte	0x34
 3841 0004 0200     		.2byte	0x2
 3842 0006 00000000 		.4byte	.Ldebug_info0
 3843 000a 04       		.byte	0x4
 3844 000b 00       		.byte	0
 3845 000c 0000     		.2byte	0
 3846 000e 0000     		.2byte	0
 3847 0010 00000000 		.4byte	.LFB118
 3848 0014 74000000 		.4byte	.LFE118-.LFB118
 3849 0018 00000000 		.4byte	.LFB119
 3850 001c C4000000 		.4byte	.LFE119-.LFB119
 3851 0020 00000000 		.4byte	.LFB120
 3852 0024 3C000000 		.4byte	.LFE120-.LFB120
 3853 0028 00000000 		.4byte	.LFB121
 3854 002c 80000000 		.4byte	.LFE121-.LFB121
 3855 0030 00000000 		.4byte	0
 3856 0034 00000000 		.4byte	0
 3857              		.section	.debug_ranges,"",%progbits
 3858              	.Ldebug_ranges0:
 3859 0000 00000000 		.4byte	.LFB118
 3860 0004 74000000 		.4byte	.LFE118
 3861 0008 00000000 		.4byte	.LFB119
 3862 000c C4000000 		.4byte	.LFE119
 3863 0010 00000000 		.4byte	.LFB120
 3864 0014 3C000000 		.4byte	.LFE120
 3865 0018 00000000 		.4byte	.LFB121
 3866 001c 80000000 		.4byte	.LFE121
 3867 0020 00000000 		.4byte	0
 3868 0024 00000000 		.4byte	0
 3869              		.section	.debug_line,"",%progbits
 3870              	.Ldebug_line0:
 3871 0000 B6020000 		.section	.debug_str,"MS",%progbits,1
 3871      02000B02 
ARM GAS  /tmp/cc951f5a.s 			page 69


 3871      00000201 
 3871      FB0E0D00 
 3871      01010101 
 3872              	.LASF115:
 3873 0000 646D6172 		.ascii	"dmarx\000"
 3873      7800
 3874              	.LASF150:
 3875 0006 70726563 		.ascii	"precBits\000"
 3875      42697473 
 3875      00
 3876              	.LASF66:
 3877 000f 4D304152 		.ascii	"M0AR\000"
 3877      00
 3878              	.LASF37:
 3879 0014 705F7469 		.ascii	"p_time\000"
 3879      6D6500
 3880              	.LASF137:
 3881 001b 6471506F 		.ascii	"dqPort\000"
 3881      727400
 3882              	.LASF60:
 3883 0022 7264796D 		.ascii	"rdymsg\000"
 3883      736700
 3884              	.LASF55:
 3885 0029 42696E61 		.ascii	"BinarySemaphore\000"
 3885      72795365 
 3885      6D617068 
 3885      6F726500 
 3886              	.LASF82:
 3887 0039 76656374 		.ascii	"vector\000"
 3887      6F7200
 3888              	.LASF86:
 3889 0040 4F545950 		.ascii	"OTYPER\000"
 3889      455200
 3890              	.LASF78:
 3891 0047 73747265 		.ascii	"stream\000"
 3891      616D00
 3892              	.LASF136:
 3893 004e 4F6E6557 		.ascii	"OneWireRomAddress\000"
 3893      69726552 
 3893      6F6D4164 
 3893      64726573 
 3893      7300
 3894              	.LASF85:
 3895 0060 4D4F4445 		.ascii	"MODER\000"
 3895      5200
 3896              	.LASF13:
 3897 0066 6C6F6E67 		.ascii	"long long unsigned int\000"
 3897      206C6F6E 
 3897      6720756E 
 3897      7369676E 
 3897      65642069 
 3898              	.LASF88:
 3899 007d 50555044 		.ascii	"PUPDR\000"
 3899      5200
 3900              	.LASF61:
 3901 0083 65786974 		.ascii	"exitcode\000"
 3901      636F6465 
ARM GAS  /tmp/cc951f5a.s 			page 70


 3901      00
 3902              	.LASF127:
 3903 008c 55415254 		.ascii	"UARTConfig\000"
 3903      436F6E66 
 3903      696700
 3904              	.LASF152:
 3905 0097 72617754 		.ascii	"rawTmp\000"
 3905      6D7000
 3906              	.LASF117:
 3907 009e 72786275 		.ascii	"rxbuf\000"
 3907      6600
 3908              	.LASF14:
 3909 00a4 626F6F6C 		.ascii	"bool_t\000"
 3909      5F7400
 3910              	.LASF28:
 3911 00ab 705F7072 		.ascii	"p_prio\000"
 3911      696F00
 3912              	.LASF4:
 3913 00b2 696E7431 		.ascii	"int16_t\000"
 3913      365F7400 
 3914              	.LASF12:
 3915 00ba 6C6F6E67 		.ascii	"long long int\000"
 3915      206C6F6E 
 3915      6720696E 
 3915      7400
 3916              	.LASF1:
 3917 00c8 7369676E 		.ascii	"signed char\000"
 3917      65642063 
 3917      68617200 
 3918              	.LASF118:
 3919 00d4 75617274 		.ascii	"uartcb_t\000"
 3919      63625F74 
 3919      00
 3920              	.LASF89:
 3921 00dd 42535252 		.ascii	"BSRR\000"
 3921      00
 3922              	.LASF75:
 3923 00e2 47545052 		.ascii	"GTPR\000"
 3923      00
 3924              	.LASF44:
 3925 00e7 705F6D70 		.ascii	"p_mpool\000"
 3925      6F6F6C00 
 3926              	.LASF111:
 3927 00ef 72787374 		.ascii	"rxstate\000"
 3927      61746500 
 3928              	.LASF57:
 3929 00f7 6D5F7175 		.ascii	"m_queue\000"
 3929      65756500 
 3930              	.LASF143:
 3931 00ff 4D6F6465 		.ascii	"ModeSerialReset\000"
 3931      53657269 
 3931      616C5265 
 3931      73657400 
 3932              	.LASF139:
 3933 010f 6471416C 		.ascii	"dqAlternate\000"
 3933      7465726E 
 3933      61746500 
ARM GAS  /tmp/cc951f5a.s 			page 71


 3934              	.LASF19:
 3935 011b 74736C69 		.ascii	"tslices_t\000"
 3935      6365735F 
 3935      7400
 3936              	.LASF109:
 3937 0125 73746174 		.ascii	"state\000"
 3937      6500
 3938              	.LASF110:
 3939 012b 74787374 		.ascii	"txstate\000"
 3939      61746500 
 3940              	.LASF9:
 3941 0133 6C6F6E67 		.ascii	"long int\000"
 3941      20696E74 
 3941      00
 3942              	.LASF17:
 3943 013c 74737461 		.ascii	"tstate_t\000"
 3943      74655F74 
 3943      00
 3944              	.LASF130:
 3945 0145 61637175 		.ascii	"acquireLock\000"
 3945      6972654C 
 3945      6F636B00 
 3946              	.LASF30:
 3947 0151 705F6E65 		.ascii	"p_newer\000"
 3947      77657200 
 3948              	.LASF52:
 3949 0159 735F7175 		.ascii	"s_queue\000"
 3949      65756500 
 3950              	.LASF145:
 3951 0161 53657269 		.ascii	"SerialMode\000"
 3951      616C4D6F 
 3951      646500
 3952              	.LASF93:
 3953 016c 4750494F 		.ascii	"GPIO_TypeDef\000"
 3953      5F547970 
 3953      65446566 
 3953      00
 3954              	.LASF106:
 3955 0179 75617274 		.ascii	"uartrxstate_t\000"
 3955      72787374 
 3955      6174655F 
 3955      7400
 3956              	.LASF116:
 3957 0187 646D6174 		.ascii	"dmatx\000"
 3957      7800
 3958              	.LASF148:
 3959 018d 6C6F6E67 		.ascii	"long double\000"
 3959      20646F75 
 3959      626C6500 
 3960              	.LASF108:
 3961 0199 55415254 		.ascii	"UARTDriver\000"
 3961      44726976 
 3961      657200
 3962              	.LASF87:
 3963 01a4 4F535045 		.ascii	"OSPEEDR\000"
 3963      45445200 
 3964              	.LASF47:
ARM GAS  /tmp/cc951f5a.s 			page 72


 3965 01ac 72656761 		.ascii	"regarm_t\000"
 3965      726D5F74 
 3965      00
 3966              	.LASF81:
 3967 01b5 73656C66 		.ascii	"selfindex\000"
 3967      696E6465 
 3967      7800
 3968              	.LASF25:
 3969 01bf 54687265 		.ascii	"Thread\000"
 3969      616400
 3970              	.LASF97:
 3971 01c6 55415254 		.ascii	"UART_READY\000"
 3971      5F524541 
 3971      445900
 3972              	.LASF100:
 3973 01d1 55415254 		.ascii	"UART_TX_ACTIVE\000"
 3973      5F54585F 
 3973      41435449 
 3973      564500
 3974              	.LASF113:
 3975 01e0 75736172 		.ascii	"usart\000"
 3975      7400
 3976              	.LASF0:
 3977 01e6 756E7369 		.ascii	"unsigned int\000"
 3977      676E6564 
 3977      20696E74 
 3977      00
 3978              	.LASF6:
 3979 01f3 75696E74 		.ascii	"uint16_t\000"
 3979      31365F74 
 3979      00
 3980              	.LASF164:
 3981 01fc 6F6E6557 		.ascii	"oneWireCrc8\000"
 3981      69726543 
 3981      72633800 
 3982              	.LASF39:
 3983 0208 705F6D73 		.ascii	"p_msgqueue\000"
 3983      67717565 
 3983      756500
 3984              	.LASF138:
 3985 0213 64715061 		.ascii	"dqPad\000"
 3985      6400
 3986              	.LASF120:
 3987 0219 75617274 		.ascii	"uartecb_t\000"
 3987      6563625F 
 3987      7400
 3988              	.LASF90:
 3989 0223 4C434B52 		.ascii	"LCKR\000"
 3989      00
 3990              	.LASF80:
 3991 0228 69736869 		.ascii	"ishift\000"
 3991      667400
 3992              	.LASF53:
 3993 022f 735F636E 		.ascii	"s_cnt\000"
 3993      7400
 3994              	.LASF166:
 3995 0235 64733138 		.ascii	"ds1820b.c\000"
ARM GAS  /tmp/cc951f5a.s 			page 73


 3995      3230622E 
 3995      6300
 3996              	.LASF7:
 3997 023f 73686F72 		.ascii	"short unsigned int\000"
 3997      7420756E 
 3997      7369676E 
 3997      65642069 
 3997      6E7400
 3998              	.LASF95:
 3999 0252 55415254 		.ascii	"UART_UNINIT\000"
 3999      5F554E49 
 3999      4E495400 
 4000              	.LASF96:
 4001 025e 55415254 		.ascii	"UART_STOP\000"
 4001      5F53544F 
 4001      5000
 4002              	.LASF21:
 4003 0268 6D73675F 		.ascii	"msg_t\000"
 4003      7400
 4004              	.LASF128:
 4005 026e 4F6E6557 		.ascii	"OneWireDriver\000"
 4005      69726544 
 4005      72697665 
 4005      7200
 4006              	.LASF77:
 4007 027c 55534152 		.ascii	"USART_TypeDef\000"
 4007      545F5479 
 4007      70654465 
 4007      6600
 4008              	.LASF16:
 4009 028a 746D6F64 		.ascii	"tmode_t\000"
 4009      655F7400 
 4010              	.LASF155:
 4011 0292 64733138 		.ascii	"ds1820BGetTemp\000"
 4011      32304247 
 4011      65745465 
 4011      6D7000
 4012              	.LASF46:
 4013 02a1 54687265 		.ascii	"ThreadsList\000"
 4013      6164734C 
 4013      69737400 
 4014              	.LASF22:
 4015 02ad 6576656E 		.ascii	"eventmask_t\000"
 4015      746D6173 
 4015      6B5F7400 
 4016              	.LASF125:
 4017 02b9 72786572 		.ascii	"rxerr_cb\000"
 4017      725F6362 
 4017      00
 4018              	.LASF165:
 4019 02c2 474E5520 		.ascii	"GNU C 4.7.4 20130613 (release) [ARM/embedded-4_7-br"
 4019      4320342E 
 4019      372E3420 
 4019      32303133 
 4019      30363133 
 4020 02f5 616E6368 		.ascii	"anch revision 200083]\000"
 4020      20726576 
ARM GAS  /tmp/cc951f5a.s 			page 74


 4020      6973696F 
 4020      6E203230 
 4020      30303833 
 4021              	.LASF144:
 4022 030b 4D6F6465 		.ascii	"ModeSerialTransfert\000"
 4022      53657269 
 4022      616C5472 
 4022      616E7366 
 4022      65727400 
 4023              	.LASF140:
 4024 031f 75617274 		.ascii	"uartd\000"
 4024      6400
 4025              	.LASF158:
 4026 0325 6F6E6557 		.ascii	"oneWireSend\000"
 4026      69726553 
 4026      656E6400 
 4027              	.LASF132:
 4028 0331 73656D52 		.ascii	"semReceive\000"
 4028      65636569 
 4028      766500
 4029              	.LASF50:
 4030 033c 73697A65 		.ascii	"sizetype\000"
 4030      74797065 
 4030      00
 4031              	.LASF84:
 4032 0345 636C6561 		.ascii	"clear\000"
 4032      7200
 4033              	.LASF105:
 4034 034b 55415254 		.ascii	"UART_RX_COMPLETE\000"
 4034      5F52585F 
 4034      434F4D50 
 4034      4C455445 
 4034      00
 4035              	.LASF56:
 4036 035c 4D757465 		.ascii	"Mutex\000"
 4036      7800
 4037              	.LASF149:
 4038 0362 61646472 		.ascii	"address\000"
 4038      65737300 
 4039              	.LASF24:
 4040 036a 636E745F 		.ascii	"cnt_t\000"
 4040      7400
 4041              	.LASF163:
 4042 0370 6F6E6557 		.ascii	"oneWireReceive\000"
 4042      69726552 
 4042      65636569 
 4042      766500
 4043              	.LASF31:
 4044 037f 705F6F6C 		.ascii	"p_older\000"
 4044      64657200 
 4045              	.LASF107:
 4046 0387 75617274 		.ascii	"uartflags_t\000"
 4046      666C6167 
 4046      735F7400 
 4047              	.LASF45:
 4048 0393 54687265 		.ascii	"ThreadsQueue\000"
 4048      61647351 
ARM GAS  /tmp/cc951f5a.s 			page 75


 4048      75657565 
 4048      00
 4049              	.LASF123:
 4050 03a0 7278656E 		.ascii	"rxend_cb\000"
 4050      645F6362 
 4050      00
 4051              	.LASF102:
 4052 03a9 75617274 		.ascii	"uarttxstate_t\000"
 4052      74787374 
 4052      6174655F 
 4052      7400
 4053              	.LASF92:
 4054 03b7 41465248 		.ascii	"AFRH\000"
 4054      00
 4055              	.LASF147:
 4056 03bc 666C6F61 		.ascii	"float\000"
 4056      7400
 4057              	.LASF134:
 4058 03c2 646F6E65 		.ascii	"doneFlag\000"
 4058      466C6167 
 4058      00
 4059              	.LASF91:
 4060 03cb 4146524C 		.ascii	"AFRL\000"
 4060      00
 4061              	.LASF18:
 4062 03d0 74726566 		.ascii	"trefs_t\000"
 4062      735F7400 
 4063              	.LASF69:
 4064 03d8 52455345 		.ascii	"RESERVED0\000"
 4064      52564544 
 4064      3000
 4065              	.LASF70:
 4066 03e2 52455345 		.ascii	"RESERVED1\000"
 4066      52564544 
 4066      3100
 4067              	.LASF71:
 4068 03ec 52455345 		.ascii	"RESERVED2\000"
 4068      52564544 
 4068      3200
 4069              	.LASF72:
 4070 03f6 52455345 		.ascii	"RESERVED3\000"
 4070      52564544 
 4070      3300
 4071              	.LASF73:
 4072 0400 52455345 		.ascii	"RESERVED4\000"
 4072      52564544 
 4072      3400
 4073              	.LASF27:
 4074 040a 705F7072 		.ascii	"p_prev\000"
 4074      657600
 4075              	.LASF76:
 4076 0411 52455345 		.ascii	"RESERVED6\000"
 4076      52564544 
 4076      3600
 4077              	.LASF129:
 4078 041b 63757272 		.ascii	"currentSm\000"
 4078      656E7453 
ARM GAS  /tmp/cc951f5a.s 			page 76


 4078      6D00
 4079              	.LASF122:
 4080 0425 7478656E 		.ascii	"txend2_cb\000"
 4080      64325F63 
 4080      6200
 4081              	.LASF20:
 4082 042f 74707269 		.ascii	"tprio_t\000"
 4082      6F5F7400 
 4083              	.LASF135:
 4084 0437 61646472 		.ascii	"addr\000"
 4084      00
 4085              	.LASF160:
 4086 043c 6F6E6557 		.ascii	"oneWireAcquireBus\000"
 4086      69726541 
 4086      63717569 
 4086      72654275 
 4086      7300
 4087              	.LASF15:
 4088 044e 5F426F6F 		.ascii	"_Bool\000"
 4088      6C00
 4089              	.LASF8:
 4090 0454 696E7433 		.ascii	"int32_t\000"
 4090      325F7400 
 4091              	.LASF2:
 4092 045c 756E7369 		.ascii	"unsigned char\000"
 4092      676E6564 
 4092      20636861 
 4092      7200
 4093              	.LASF83:
 4094 046a 73746D33 		.ascii	"stm32_dma_stream_t\000"
 4094      325F646D 
 4094      615F7374 
 4094      7265616D 
 4094      5F7400
 4095              	.LASF168:
 4096 047d 49544D5F 		.ascii	"ITM_RxBuffer\000"
 4096      52784275 
 4096      66666572 
 4096      00
 4097              	.LASF159:
 4098 048a 6F6E6557 		.ascii	"oneWireSendByte\000"
 4098      69726553 
 4098      656E6442 
 4098      79746500 
 4099              	.LASF167:
 4100 049a 2F686F6D 		.ascii	"/home/witold/Dokumenty/arm/ChibiOS-master/APP/smtm3"
 4100      652F7769 
 4100      746F6C64 
 4100      2F446F6B 
 4100      756D656E 
 4101 04cd 3266345F 		.ascii	"2f4_lcd_ds18b20\000"
 4101      6C63645F 
 4101      64733138 
 4101      62323000 
 4102              	.LASF42:
 4103 04dd 705F6D74 		.ascii	"p_mtxlist\000"
 4103      786C6973 
ARM GAS  /tmp/cc951f5a.s 			page 77


 4103      7400
 4104              	.LASF5:
 4105 04e7 73686F72 		.ascii	"short int\000"
 4105      7420696E 
 4105      7400
 4106              	.LASF33:
 4107 04f1 705F7374 		.ascii	"p_state\000"
 4107      61746500 
 4108              	.LASF36:
 4109 04f9 705F7072 		.ascii	"p_preempt\000"
 4109      65656D70 
 4109      7400
 4110              	.LASF142:
 4111 0503 4D6F6465 		.ascii	"ModeGpioIn\000"
 4111      4770696F 
 4111      496E00
 4112              	.LASF63:
 4113 050e 65776D61 		.ascii	"ewmask\000"
 4113      736B00
 4114              	.LASF26:
 4115 0515 705F6E65 		.ascii	"p_next\000"
 4115      787400
 4116              	.LASF98:
 4117 051c 75617274 		.ascii	"uartstate_t\000"
 4117      73746174 
 4117      655F7400 
 4118              	.LASF34:
 4119 0528 705F666C 		.ascii	"p_flags\000"
 4119      61677300 
 4120              	.LASF101:
 4121 0530 55415254 		.ascii	"UART_TX_COMPLETE\000"
 4121      5F54585F 
 4121      434F4D50 
 4121      4C455445 
 4121      00
 4122              	.LASF151:
 4123 0541 696E6974 		.ascii	"initVal\000"
 4123      56616C00 
 4124              	.LASF41:
 4125 0549 705F6570 		.ascii	"p_epending\000"
 4125      656E6469 
 4125      6E6700
 4126              	.LASF79:
 4127 0554 69666372 		.ascii	"ifcr\000"
 4127      00
 4128              	.LASF74:
 4129 0559 52455345 		.ascii	"RESERVED5\000"
 4129      52564544 
 4129      3500
 4130              	.LASF162:
 4131 0563 6F6E6557 		.ascii	"oneWireReceiveBit\000"
 4131      69726552 
 4131      65636569 
 4131      76654269 
 4131      7400
 4132              	.LASF10:
 4133 0575 75696E74 		.ascii	"uint32_t\000"
ARM GAS  /tmp/cc951f5a.s 			page 78


 4133      33325F74 
 4133      00
 4134              	.LASF119:
 4135 057e 75617274 		.ascii	"uartccb_t\000"
 4135      6363625F 
 4135      7400
 4136              	.LASF11:
 4137 0588 6C6F6E67 		.ascii	"long unsigned int\000"
 4137      20756E73 
 4137      69676E65 
 4137      6420696E 
 4137      7400
 4138              	.LASF64:
 4139 059a 63686172 		.ascii	"char\000"
 4139      00
 4140              	.LASF112:
 4141 059f 636F6E66 		.ascii	"config\000"
 4141      696700
 4142              	.LASF103:
 4143 05a6 55415254 		.ascii	"UART_RX_IDLE\000"
 4143      5F52585F 
 4143      49444C45 
 4143      00
 4144              	.LASF169:
 4145 05b3 6F6E6557 		.ascii	"oneWireRealeaseBus\000"
 4145      69726552 
 4145      65616C65 
 4145      61736542 
 4145      757300
 4146              	.LASF121:
 4147 05c6 7478656E 		.ascii	"txend1_cb\000"
 4147      64315F63 
 4147      6200
 4148              	.LASF59:
 4149 05d0 6D5F6E65 		.ascii	"m_next\000"
 4149      787400
 4150              	.LASF23:
 4151 05d7 73797374 		.ascii	"systime_t\000"
 4151      696D655F 
 4151      7400
 4152              	.LASF43:
 4153 05e1 705F7265 		.ascii	"p_realprio\000"
 4153      616C7072 
 4153      696F00
 4154              	.LASF99:
 4155 05ec 55415254 		.ascii	"UART_TX_IDLE\000"
 4155      5F54585F 
 4155      49444C45 
 4155      00
 4156              	.LASF65:
 4157 05f9 4E445452 		.ascii	"NDTR\000"
 4157      00
 4158              	.LASF68:
 4159 05fe 444D415F 		.ascii	"DMA_Stream_TypeDef\000"
 4159      53747265 
 4159      616D5F54 
 4159      79706544 
ARM GAS  /tmp/cc951f5a.s 			page 79


 4159      656600
 4160              	.LASF94:
 4161 0611 696F706F 		.ascii	"ioportid_t\000"
 4161      72746964 
 4161      5F7400
 4162              	.LASF49:
 4163 061c 636F6E74 		.ascii	"context\000"
 4163      65787400 
 4164              	.LASF48:
 4165 0624 696E7463 		.ascii	"intctx\000"
 4165      747800
 4166              	.LASF153:
 4167 062b 64733138 		.ascii	"ds1820BInit\000"
 4167      32304249 
 4167      6E697400 
 4168              	.LASF67:
 4169 0637 4D314152 		.ascii	"M1AR\000"
 4169      00
 4170              	.LASF133:
 4171 063c 6C617374 		.ascii	"lastDiscrep\000"
 4171      44697363 
 4171      72657000 
 4172              	.LASF157:
 4173 0648 6F6E6557 		.ascii	"oneWireReset\000"
 4173      69726552 
 4173      65736574 
 4173      00
 4174              	.LASF124:
 4175 0655 72786368 		.ascii	"rxchar_cb\000"
 4175      61725F63 
 4175      6200
 4176              	.LASF51:
 4177 065f 53656D61 		.ascii	"Semaphore\000"
 4177      70686F72 
 4177      6500
 4178              	.LASF161:
 4179 0669 63685468 		.ascii	"chThdSleep\000"
 4179      64536C65 
 4179      657000
 4180              	.LASF32:
 4181 0674 705F6E61 		.ascii	"p_name\000"
 4181      6D6500
 4182              	.LASF35:
 4183 067b 705F7265 		.ascii	"p_refs\000"
 4183      667300
 4184              	.LASF3:
 4185 0682 75696E74 		.ascii	"uint8_t\000"
 4185      385F7400 
 4186              	.LASF114:
 4187 068a 646D616D 		.ascii	"dmamode\000"
 4187      6F646500 
 4188              	.LASF131:
 4189 0692 73656D53 		.ascii	"semSent\000"
 4189      656E7400 
 4190              	.LASF62:
 4191 069a 77746F62 		.ascii	"wtobjp\000"
 4191      6A7000
ARM GAS  /tmp/cc951f5a.s 			page 80


 4192              	.LASF126:
 4193 06a1 73706565 		.ascii	"speed\000"
 4193      6400
 4194              	.LASF156:
 4195 06a7 64733138 		.ascii	"ds1820BGGetTempFromRam\000"
 4195      32304247 
 4195      47657454 
 4195      656D7046 
 4195      726F6D52 
 4196              	.LASF141:
 4197 06be 4F6E6557 		.ascii	"OneWireConfig\000"
 4197      69726543 
 4197      6F6E6669 
 4197      6700
 4198              	.LASF54:
 4199 06cc 62735F73 		.ascii	"bs_sem\000"
 4199      656D00
 4200              	.LASF40:
 4201 06d3 705F6D73 		.ascii	"p_msg\000"
 4201      6700
 4202              	.LASF58:
 4203 06d9 6D5F6F77 		.ascii	"m_owner\000"
 4203      6E657200 
 4204              	.LASF146:
 4205 06e1 646F7562 		.ascii	"double\000"
 4205      6C6500
 4206              	.LASF104:
 4207 06e8 55415254 		.ascii	"UART_RX_ACTIVE\000"
 4207      5F52585F 
 4207      41435449 
 4207      564500
 4208              	.LASF29:
 4209 06f7 705F6374 		.ascii	"p_ctx\000"
 4209      7800
 4210              	.LASF38:
 4211 06fd 705F7761 		.ascii	"p_waiting\000"
 4211      6974696E 
 4211      6700
 4212              	.LASF154:
 4213 0707 64733138 		.ascii	"ds1820BAskTemp\000"
 4213      32304241 
 4213      736B5465 
 4213      6D7000
 4214              		.ident	"GCC: (GNU Tools for ARM Embedded Processors) 4.7.4 20130613 (release) [ARM/embedded-4_7-br
ARM GAS  /tmp/cc951f5a.s 			page 81


DEFINED SYMBOLS
                            *ABS*:00000000 ds1820b.c
     /tmp/cc951f5a.s:21     .text.ds1820BInit:00000000 $t
     /tmp/cc951f5a.s:27     .text.ds1820BInit:00000000 ds1820BInit
     /tmp/cc951f5a.s:133    .text.ds1820BInit:00000070 $d
     /tmp/cc951f5a.s:138    .text.ds1820BGetTemp:00000000 $t
     /tmp/cc951f5a.s:144    .text.ds1820BGetTemp:00000000 ds1820BGetTemp
     /tmp/cc951f5a.s:296    .text.ds1820BGetTemp:000000c0 $d
     /tmp/cc951f5a.s:301    .text.ds1820BAskTemp:00000000 $t
     /tmp/cc951f5a.s:307    .text.ds1820BAskTemp:00000000 ds1820BAskTemp
     /tmp/cc951f5a.s:366    .text.ds1820BGGetTempFromRam:00000000 $t
     /tmp/cc951f5a.s:372    .text.ds1820BGGetTempFromRam:00000000 ds1820BGGetTempFromRam
     /tmp/cc951f5a.s:467    .text.ds1820BGGetTempFromRam:0000007c $d
     /tmp/cc951f5a.s:472    .rodata:00000000 $d
                     .debug_frame:00000010 $d
     /tmp/cc951f5a.s:137    .text.ds1820BInit:00000074 $t
     /tmp/cc951f5a.s:300    .text.ds1820BGetTemp:000000c4 $t

UNDEFINED SYMBOLS
oneWireReset
oneWireSendByte
oneWireSend
oneWireAcquireBus
chThdSleep
oneWireReceiveBit
oneWireReceive
oneWireCrc8
oneWireRealeaseBus
