ARM GAS  /tmp/cc951f5a.s 			page 1


   1              		.syntax unified
   2              		.cpu cortex-m4
   3              		.eabi_attribute 27, 3
   4              		.eabi_attribute 28, 1
   5              		.fpu fpv4-sp-d16
   6              		.eabi_attribute 20, 1
   7              		.eabi_attribute 21, 1
   8              		.eabi_attribute 23, 3
   9              		.eabi_attribute 24, 1
  10              		.eabi_attribute 25, 1
  11              		.eabi_attribute 26, 1
  12              		.eabi_attribute 30, 2
  13              		.eabi_attribute 34, 1
  14              		.eabi_attribute 18, 4
  15              		.thumb
  16              		.file	"ds1820b.c"
  17              		.text
  18              	.Ltext0:
  19              		.cfi_sections	.debug_frame
  20              		.section	.text.ds1820BInit,"ax",%progbits
  21              		.align	2
  22              		.p2align 4,,15
  23              		.global	ds1820BInit
  24              		.thumb
  25              		.thumb_func
  26              		.type	ds1820BInit, %function
  27              	ds1820BInit:
  28              	.LFB118:
  29              		.file 1 "ds1820b.c"
  30              		.loc 1 10 0
  31              		.cfi_startproc
  32              		@ args = 0, pretend = 0, frame = 8
  33              		@ frame_needed = 0, uses_anonymous_args = 0
  34              	.LVL0:
  35 0000 30B5     		push	{r4, r5, lr}
  36              	.LCFI0:
  37              		.cfi_def_cfa_offset 12
  38              		.cfi_offset 4, -12
  39              		.cfi_offset 5, -8
  40              		.cfi_offset 14, -4
  41              		.loc 1 11 0
  42 0002 1B4B     		ldr	r3, .L10
  43              		.loc 1 10 0
  44 0004 83B0     		sub	sp, sp, #12
  45              	.LCFI1:
  46              		.cfi_def_cfa_offset 24
  47              		.loc 1 10 0
  48 0006 0446     		mov	r4, r0
  49              		.loc 1 11 0
  50 0008 1868     		ldr	r0, [r3, #0]	@ unaligned
  51              	.LVL1:
  52              		.loc 1 13 0
  53 000a 092A     		cmp	r2, #9
  54              		.loc 1 11 0
  55 000c 0190     		str	r0, [sp, #4]	@ unaligned
  56              		.loc 1 10 0
  57 000e 0D46     		mov	r5, r1
ARM GAS  /tmp/cc951f5a.s 			page 2


  58              		.loc 1 13 0
  59 0010 0BD9     		bls	.L2
  60              		.loc 1 15 0
  61 0012 0A2A     		cmp	r2, #10
  62              		.loc 1 16 0
  63 0014 9DF80710 		ldrb	r1, [sp, #7]	@ zero_extendqisi2
  64              	.LVL2:
  65              		.loc 1 15 0
  66 0018 1BD0     		beq	.L8
  67              		.loc 1 17 0
  68 001a 0B2A     		cmp	r2, #11
  69              		.loc 1 18 0
  70 001c 0CBF     		ite	eq
  71 001e 41F04001 		orreq	r1, r1, #64
  72              		.loc 1 20 0
  73 0022 41F06001 		orrne	r1, r1, #96
  74 0026 8DF80710 		strb	r1, [sp, #7]
  75              	.L2:
  76              		.loc 1 23 0
  77 002a 2046     		mov	r0, r4
  78 002c FFF7FEFF 		bl	oneWireReset
  79              	.LVL3:
  80              		.loc 1 25 0
  81 0030 2046     		mov	r0, r4
  82              		.loc 1 24 0
  83 0032 C5B1     		cbz	r5, .L9
  84              	.LVL4:
  85              	.L5:
  86              		.loc 1 27 0
  87 0034 5521     		movs	r1, #85
  88 0036 FFF7FEFF 		bl	oneWireSendByte
  89              	.LVL5:
  90              		.loc 1 28 0
  91 003a 2046     		mov	r0, r4
  92 003c 2946     		mov	r1, r5
  93 003e 0822     		movs	r2, #8
  94 0040 FFF7FEFF 		bl	oneWireSend
  95              	.LVL6:
  96              	.L6:
  97              		.loc 1 31 0
  98 0044 2046     		mov	r0, r4
  99 0046 01A9     		add	r1, sp, #4
 100 0048 0422     		movs	r2, #4
 101 004a FFF7FEFF 		bl	oneWireSend
 102              	.LVL7:
 103              		.loc 1 32 0
 104 004e 03B0     		add	sp, sp, #12
 105 0050 30BD     		pop	{r4, r5, pc}
 106              	.LVL8:
 107              	.L8:
 108              		.loc 1 16 0
 109 0052 41F02002 		orr	r2, r1, #32
 110              	.LVL9:
 111              		.loc 1 23 0
 112 0056 2046     		mov	r0, r4
 113              		.loc 1 16 0
 114 0058 8DF80720 		strb	r2, [sp, #7]
ARM GAS  /tmp/cc951f5a.s 			page 3


 115              		.loc 1 23 0
 116 005c FFF7FEFF 		bl	oneWireReset
 117              	.LVL10:
 118              		.loc 1 25 0
 119 0060 2046     		mov	r0, r4
 120              		.loc 1 24 0
 121 0062 002D     		cmp	r5, #0
 122 0064 E6D1     		bne	.L5
 123              	.LVL11:
 124              	.L9:
 125              		.loc 1 25 0
 126 0066 CC21     		movs	r1, #204
 127 0068 FFF7FEFF 		bl	oneWireSendByte
 128              	.LVL12:
 129 006c EAE7     		b	.L6
 130              	.L11:
 131 006e 00BF     		.align	2
 132              	.L10:
 133 0070 00000000 		.word	.LANCHOR0
 134              		.cfi_endproc
 135              	.LFE118:
 136              		.size	ds1820BInit, .-ds1820BInit
 137 0074 AFF30080 		.section	.text.ds1820BGetTemp,"ax",%progbits
 137      AFF30080 
 137      AFF30080 
 138              		.align	2
 139              		.p2align 4,,15
 140              		.global	ds1820BGetTemp
 141              		.thumb
 142              		.thumb_func
 143              		.type	ds1820BGetTemp, %function
 144              	ds1820BGetTemp:
 145              	.LFB119:
 146              		.loc 1 35 0
 147              		.cfi_startproc
 148              		@ args = 0, pretend = 0, frame = 16
 149              		@ frame_needed = 0, uses_anonymous_args = 0
 150              	.LVL13:
 151 0000 30B5     		push	{r4, r5, lr}
 152              	.LCFI2:
 153              		.cfi_def_cfa_offset 12
 154              		.cfi_offset 4, -12
 155              		.cfi_offset 5, -8
 156              		.cfi_offset 14, -4
 157 0002 0446     		mov	r4, r0
 158 0004 85B0     		sub	sp, sp, #20
 159              	.LCFI3:
 160              		.cfi_def_cfa_offset 32
 161              		.loc 1 35 0
 162 0006 0D46     		mov	r5, r1
 163              		.loc 1 38 0
 164 0008 FFF7FEFF 		bl	oneWireAcquireBus
 165              	.LVL14:
 166              		.loc 1 39 0
 167 000c 2046     		mov	r0, r4
 168 000e FFF7FEFF 		bl	oneWireReset
 169              	.LVL15:
ARM GAS  /tmp/cc951f5a.s 			page 4


 170              		.loc 1 41 0
 171 0012 2046     		mov	r0, r4
 172              		.loc 1 40 0
 173 0014 002D     		cmp	r5, #0
 174 0016 4ED0     		beq	.L21
 175              		.loc 1 43 0
 176 0018 5521     		movs	r1, #85
 177 001a FFF7FEFF 		bl	oneWireSendByte
 178              	.LVL16:
 179              		.loc 1 44 0
 180 001e 2046     		mov	r0, r4
 181 0020 2946     		mov	r1, r5
 182 0022 0822     		movs	r2, #8
 183 0024 FFF7FEFF 		bl	oneWireSend
 184              	.LVL17:
 185              	.L14:
 186              		.loc 1 47 0
 187 0028 2046     		mov	r0, r4
 188 002a 4421     		movs	r1, #68
 189 002c FFF7FEFF 		bl	oneWireSendByte
 190              	.LVL18:
 191              		.loc 1 48 0
 192 0030 6420     		movs	r0, #100
 193 0032 FFF7FEFF 		bl	chThdSleep
 194              	.LVL19:
 195              		.loc 1 49 0
 196 0036 02E0     		b	.L15
 197              	.L16:
 198              		.loc 1 50 0
 199 0038 0A20     		movs	r0, #10
 200 003a FFF7FEFF 		bl	chThdSleep
 201              	.LVL20:
 202              	.L15:
 203              		.loc 1 49 0 discriminator 1
 204 003e 2046     		mov	r0, r4
 205 0040 FFF7FEFF 		bl	oneWireReceiveBit
 206              	.LVL21:
 207 0044 0028     		cmp	r0, #0
 208 0046 F7D0     		beq	.L16
 209              		.loc 1 53 0
 210 0048 2046     		mov	r0, r4
 211 004a FFF7FEFF 		bl	oneWireReset
 212              	.LVL22:
 213              		.loc 1 55 0
 214 004e 2046     		mov	r0, r4
 215              		.loc 1 54 0
 216 0050 002D     		cmp	r5, #0
 217 0052 2CD0     		beq	.L22
 218              	.LVL23:
 219              		.loc 1 57 0
 220 0054 5521     		movs	r1, #85
 221 0056 FFF7FEFF 		bl	oneWireSendByte
 222              	.LVL24:
 223              		.loc 1 58 0
 224 005a 2046     		mov	r0, r4
 225 005c 2946     		mov	r1, r5
 226 005e 0822     		movs	r2, #8
ARM GAS  /tmp/cc951f5a.s 			page 5


 227 0060 FFF7FEFF 		bl	oneWireSend
 228              	.LVL25:
 229              	.L18:
 230              		.loc 1 61 0
 231 0064 BE21     		movs	r1, #190
 232 0066 2046     		mov	r0, r4
 233 0068 FFF7FEFF 		bl	oneWireSendByte
 234              	.LVL26:
 235              		.loc 1 62 0
 236 006c 0922     		movs	r2, #9
 237 006e 01A9     		add	r1, sp, #4
 238 0070 2046     		mov	r0, r4
 239 0072 FFF7FEFF 		bl	oneWireReceive
 240              	.LVL27:
 241              		.loc 1 63 0
 242 0076 0821     		movs	r1, #8
 243 0078 01A8     		add	r0, sp, #4
 244 007a FFF7FEFF 		bl	oneWireCrc8
 245              	.LVL28:
 246              		.loc 1 64 0
 247 007e 9DF80C30 		ldrb	r3, [sp, #12]	@ zero_extendqisi2
 248 0082 8342     		cmp	r3, r0
 249 0084 05D0     		beq	.L19
 250              		.loc 1 65 0
 251 0086 FFF7FEFF 		bl	oneWireRealeaseBus
 252              	.LVL29:
 253              		.loc 1 66 0
 254 008a 9FED0D0A 		flds	s0, .L23
 255              	.LVL30:
 256              	.L20:
 257              		.loc 1 73 0
 258 008e 05B0     		add	sp, sp, #20
 259 0090 30BD     		pop	{r4, r5, pc}
 260              	.LVL31:
 261              	.L19:
 262              		.loc 1 70 0
 263 0092 9DF80540 		ldrb	r4, [sp, #5]	@ zero_extendqisi2
 264              	.LVL32:
 265 0096 9DF80400 		ldrb	r0, [sp, #4]	@ zero_extendqisi2
 266              	.LVL33:
 267 009a 40EA0424 		orr	r4, r0, r4, lsl #8
 268              	.LVL34:
 269              		.loc 1 72 0
 270 009e 24B2     		sxth	r4, r4
 271              	.LVL35:
 272              		.loc 1 71 0
 273 00a0 FFF7FEFF 		bl	oneWireRealeaseBus
 274              	.LVL36:
 275              		.loc 1 72 0
 276 00a4 00EE104A 		fmsr	s0, r4	@ int
 277 00a8 BAEECE0A 		vcvt.f32.s32	s0, s0, #4
 278 00ac EFE7     		b	.L20
 279              	.LVL37:
 280              	.L22:
 281              		.loc 1 55 0
 282 00ae CC21     		movs	r1, #204
 283 00b0 FFF7FEFF 		bl	oneWireSendByte
ARM GAS  /tmp/cc951f5a.s 			page 6


 284              	.LVL38:
 285 00b4 D6E7     		b	.L18
 286              	.LVL39:
 287              	.L21:
 288              		.loc 1 41 0
 289 00b6 CC21     		movs	r1, #204
 290 00b8 FFF7FEFF 		bl	oneWireSendByte
 291              	.LVL40:
 292 00bc B4E7     		b	.L14
 293              	.L24:
 294 00be 00BF     		.align	2
 295              	.L23:
 296 00c0 0000C07F 		.word	2143289344
 297              		.cfi_endproc
 298              	.LFE119:
 299              		.size	ds1820BGetTemp, .-ds1820BGetTemp
 300 00c4 AFF30080 		.section	.text.ds1820BAskTemp,"ax",%progbits
 300      AFF30080 
 300      AFF30080 
 301              		.align	2
 302              		.p2align 4,,15
 303              		.global	ds1820BAskTemp
 304              		.thumb
 305              		.thumb_func
 306              		.type	ds1820BAskTemp, %function
 307              	ds1820BAskTemp:
 308              	.LFB120:
 309              		.loc 1 77 0
 310              		.cfi_startproc
 311              		@ args = 0, pretend = 0, frame = 0
 312              		@ frame_needed = 0, uses_anonymous_args = 0
 313              	.LVL41:
 314 0000 38B5     		push	{r3, r4, r5, lr}
 315              	.LCFI4:
 316              		.cfi_def_cfa_offset 16
 317              		.cfi_offset 3, -16
 318              		.cfi_offset 4, -12
 319              		.cfi_offset 5, -8
 320              		.cfi_offset 14, -4
 321              		.loc 1 77 0
 322 0002 0446     		mov	r4, r0
 323 0004 0D46     		mov	r5, r1
 324              		.loc 1 78 0
 325 0006 FFF7FEFF 		bl	oneWireAcquireBus
 326              	.LVL42:
 327              		.loc 1 79 0
 328 000a 2046     		mov	r0, r4
 329 000c FFF7FEFF 		bl	oneWireReset
 330              	.LVL43:
 331              		.loc 1 81 0
 332 0010 2046     		mov	r0, r4
 333              		.loc 1 80 0
 334 0012 7DB1     		cbz	r5, .L28
 335              		.loc 1 83 0
 336 0014 5521     		movs	r1, #85
 337 0016 FFF7FEFF 		bl	oneWireSendByte
 338              	.LVL44:
ARM GAS  /tmp/cc951f5a.s 			page 7


 339              		.loc 1 84 0
 340 001a 2046     		mov	r0, r4
 341 001c 2946     		mov	r1, r5
 342 001e 0822     		movs	r2, #8
 343 0020 FFF7FEFF 		bl	oneWireSend
 344              	.LVL45:
 345              	.L27:
 346              		.loc 1 86 0
 347 0024 2046     		mov	r0, r4
 348 0026 4421     		movs	r1, #68
 349 0028 FFF7FEFF 		bl	oneWireSendByte
 350              	.LVL46:
 351              		.loc 1 88 0
 352 002c BDE83840 		pop	{r3, r4, r5, lr}
 353              		.loc 1 87 0
 354 0030 FFF7FEBF 		b	oneWireRealeaseBus
 355              	.LVL47:
 356              	.L28:
 357              		.loc 1 81 0
 358 0034 CC21     		movs	r1, #204
 359 0036 FFF7FEFF 		bl	oneWireSendByte
 360              	.LVL48:
 361 003a F3E7     		b	.L27
 362              		.cfi_endproc
 363              	.LFE120:
 364              		.size	ds1820BAskTemp, .-ds1820BAskTemp
 365 003c AFF30080 		.section	.text.ds1820BGGetTempFromRam,"ax",%progbits
 366              		.align	2
 367              		.p2align 4,,15
 368              		.global	ds1820BGGetTempFromRam
 369              		.thumb
 370              		.thumb_func
 371              		.type	ds1820BGGetTempFromRam, %function
 372              	ds1820BGGetTempFromRam:
 373              	.LFB121:
 374              		.loc 1 92 0
 375              		.cfi_startproc
 376              		@ args = 0, pretend = 0, frame = 16
 377              		@ frame_needed = 0, uses_anonymous_args = 0
 378              	.LVL49:
 379 0000 30B5     		push	{r4, r5, lr}
 380              	.LCFI5:
 381              		.cfi_def_cfa_offset 12
 382              		.cfi_offset 4, -12
 383              		.cfi_offset 5, -8
 384              		.cfi_offset 14, -4
 385 0002 0446     		mov	r4, r0
 386 0004 85B0     		sub	sp, sp, #20
 387              	.LCFI6:
 388              		.cfi_def_cfa_offset 32
 389              		.loc 1 92 0
 390 0006 0D46     		mov	r5, r1
 391              		.loc 1 95 0
 392 0008 FFF7FEFF 		bl	oneWireAcquireBus
 393              	.LVL50:
 394              		.loc 1 97 0
 395 000c 2046     		mov	r0, r4
ARM GAS  /tmp/cc951f5a.s 			page 8


 396 000e FFF7FEFF 		bl	oneWireReset
 397              	.LVL51:
 398              		.loc 1 99 0
 399 0012 2046     		mov	r0, r4
 400              		.loc 1 98 0
 401 0014 002D     		cmp	r5, #0
 402 0016 2CD0     		beq	.L34
 403              		.loc 1 101 0
 404 0018 5521     		movs	r1, #85
 405 001a FFF7FEFF 		bl	oneWireSendByte
 406              	.LVL52:
 407              		.loc 1 102 0
 408 001e 2046     		mov	r0, r4
 409 0020 2946     		mov	r1, r5
 410 0022 0822     		movs	r2, #8
 411 0024 FFF7FEFF 		bl	oneWireSend
 412              	.LVL53:
 413              	.L31:
 414              		.loc 1 105 0
 415 0028 BE21     		movs	r1, #190
 416 002a 2046     		mov	r0, r4
 417 002c FFF7FEFF 		bl	oneWireSendByte
 418              	.LVL54:
 419              		.loc 1 106 0
 420 0030 0922     		movs	r2, #9
 421 0032 01A9     		add	r1, sp, #4
 422 0034 2046     		mov	r0, r4
 423 0036 FFF7FEFF 		bl	oneWireReceive
 424              	.LVL55:
 425              		.loc 1 107 0
 426 003a 0821     		movs	r1, #8
 427 003c 01A8     		add	r0, sp, #4
 428 003e FFF7FEFF 		bl	oneWireCrc8
 429              	.LVL56:
 430              		.loc 1 108 0
 431 0042 9DF80C30 		ldrb	r3, [sp, #12]	@ zero_extendqisi2
 432 0046 8342     		cmp	r3, r0
 433 0048 05D0     		beq	.L32
 434              		.loc 1 109 0
 435 004a FFF7FEFF 		bl	oneWireRealeaseBus
 436              	.LVL57:
 437              		.loc 1 110 0
 438 004e 9FED0B0A 		flds	s0, .L35
 439              	.L33:
 440              		.loc 1 116 0
 441 0052 05B0     		add	sp, sp, #20
 442 0054 30BD     		pop	{r4, r5, pc}
 443              	.LVL58:
 444              	.L32:
 445              		.loc 1 113 0
 446 0056 FFF7FEFF 		bl	oneWireRealeaseBus
 447              	.LVL59:
 448              		.loc 1 114 0
 449 005a 9DF80520 		ldrb	r2, [sp, #5]	@ zero_extendqisi2
 450 005e 9DF80400 		ldrb	r0, [sp, #4]	@ zero_extendqisi2
 451 0062 40EA0221 		orr	r1, r0, r2, lsl #8
 452              		.loc 1 115 0
ARM GAS  /tmp/cc951f5a.s 			page 9


 453 0066 0BB2     		sxth	r3, r1
 454 0068 00EE103A 		fmsr	s0, r3	@ int
 455 006c BAEECE0A 		vcvt.f32.s32	s0, s0, #4
 456 0070 EFE7     		b	.L33
 457              	.LVL60:
 458              	.L34:
 459              		.loc 1 99 0
 460 0072 CC21     		movs	r1, #204
 461 0074 FFF7FEFF 		bl	oneWireSendByte
 462              	.LVL61:
 463 0078 D6E7     		b	.L31
 464              	.L36:
 465 007a 00BF     		.align	2
 466              	.L35:
 467 007c 0000C07F 		.word	2143289344
 468              		.cfi_endproc
 469              	.LFE121:
 470              		.size	ds1820BGGetTempFromRam, .-ds1820BGGetTempFromRam
 471              		.section	.rodata
 472              		.align	2
 473              		.set	.LANCHOR0,. + 0
 474              	.LC0:
 475 0000 4E       		.byte	78
 476 0001 00       		.byte	0
 477 0002 FF       		.byte	-1
 478 0003 1F       		.byte	31
 479              		.text
 480              	.Letext0:
 481              		.file 2 "/usr/bin/../lib/gcc/arm-none-eabi/4.7.4/../../../../arm-none-eabi/include/stdint.h"
 482              		.file 3 "../../os/ports/GCC/ARMCMx/chtypes.h"
 483              		.file 4 "../../os/kernel/include/chlists.h"
 484              		.file 5 "../../os/kernel/include/chthreads.h"
 485              		.file 6 "../../os/ports/GCC/ARMCMx/chcore_v7m.h"
 486              		.file 7 "../../os/kernel/include/chsem.h"
 487              		.file 8 "../../os/kernel/include/chbsem.h"
 488              		.file 9 "../../os/kernel/include/chmtx.h"
 489              		.file 10 "../../os/hal/platforms/STM32F4xx/stm32f4xx.h"
 490              		.file 11 "../../os/hal/platforms/STM32F4xx/stm32_dma.h"
 491              		.file 12 "../../os/hal/platforms/STM32/GPIOv2/pal_lld.h"
 492              		.file 13 "../../os/hal/include/uart.h"
 493              		.file 14 "../../os/hal/platforms/STM32/USARTv1/uart_lld.h"
 494              		.file 15 "oneWire.h"
 495              		.file 16 "../../os/ports/common/ARMCMx/CMSIS/include/core_cm4.h"