ARM GAS  /tmp/ccLrOMZj.s 			page 1


   1              		.syntax unified
   2              		.cpu cortex-m4
   3              		.eabi_attribute 27, 3
   4              		.eabi_attribute 28, 1
   5              		.fpu fpv4-sp-d16
   6              		.eabi_attribute 20, 1
   7              		.eabi_attribute 21, 1
   8              		.eabi_attribute 23, 3
   9              		.eabi_attribute 24, 1
  10              		.eabi_attribute 25, 1
  11              		.eabi_attribute 26, 1
  12              		.eabi_attribute 30, 2
  13              		.eabi_attribute 34, 1
  14              		.eabi_attribute 18, 4
  15              		.thumb
  16              		.file	"gdisp_lld.c"
  17              		.text
  18              	.Ltext0:
  19              		.cfi_sections	.debug_frame
  20              		.section	.text.set_viewport,"ax",%progbits
  21              		.align	2
  22              		.p2align 4,,15
  23              		.thumb
  24              		.thumb_func
  25              		.type	set_viewport, %function
  26              	set_viewport:
  27              	.LFB133:
  28              		.file 1 "../../ext/ugfx/drivers/gdisp/SSD1289/gdisp_lld.c"
  29              		.loc 1 75 0
  30              		.cfi_startproc
  31              		@ args = 0, pretend = 0, frame = 0
  32              		@ frame_needed = 0, uses_anonymous_args = 0
  33              		@ link register save eliminated.
  34              	.LVL0:
  35 0000 70B4     		push	{r4, r5, r6}
  36              	.LCFI0:
  37              		.cfi_def_cfa_offset 12
  38              		.cfi_offset 4, -12
  39              		.cfi_offset 5, -8
  40              		.cfi_offset 6, -4
  41              		.loc 1 88 0
  42 0002 6D4C     		ldr	r4, .L19
  43 0004 2479     		ldrb	r4, [r4, #4]	@ zero_extendqisi2
  44 0006 032C     		cmp	r4, #3
  45 0008 00F2B780 		bhi	.L2
  46 000c DFE804F0 		tbb	[pc, r4]
  47              	.L7:
  48 0010 8E       		.byte	(.L3-.L7)/2
  49 0011 5C       		.byte	(.L4-.L7)/2
  50 0012 2A       		.byte	(.L5-.L7)/2
  51 0013 02       		.byte	(.L6-.L7)/2
  52              		.align	1
  53              	.L6:
  54              	.LVL1:
  55              		.loc 1 95 0
  56 0014 8518     		adds	r5, r0, r2
  57              		.loc 1 97 0
ARM GAS  /tmp/ccLrOMZj.s 			page 2


  58 0016 461E     		subs	r6, r0, #1
  59              		.loc 1 95 0
  60 0018 013D     		subs	r5, r5, #1
  61 001a C9B2     		uxtb	r1, r1
  62              	.LVL2:
  63              	.LBB518:
  64              	.LBB519:
  65              		.file 2 "./gdisp_lld_board.h"
  66              		.loc 2 153 0
  67 001c 0023     		movs	r3, #0
  68              	.LVL3:
  69              	.LBE519:
  70              	.LBE518:
  71              	.LBB522:
  72              	.LBB523:
  73              		.loc 2 144 0
  74 001e 4FF0C044 		mov	r4, #1610612736
  75              	.LBE523:
  76              	.LBE522:
  77              	.LBB525:
  78              	.LBB520:
  79              		.loc 2 153 0
  80 0022 C6F20203 		movt	r3, 24578
  81              	.LBE520:
  82              	.LBE525:
  83              		.loc 1 97 0
  84 0026 B218     		adds	r2, r6, r2
  85              	.LVL4:
  86              		.loc 1 95 0
  87 0028 41EA0526 		orr	r6, r1, r5, lsl #8
  88 002c B5B2     		uxth	r5, r6
  89              	.LBB526:
  90              	.LBB524:
  91              		.loc 2 144 0
  92 002e 4426     		movs	r6, #68
  93 0030 2680     		strh	r6, [r4, #0]	@ movhi
  94              	.LVL5:
  95              	.LBE524:
  96              	.LBE526:
  97              		.loc 1 96 0
  98 0032 C005     		lsls	r0, r0, #23
  99              	.LVL6:
 100              	.LBB527:
 101              	.LBB521:
 102              		.loc 2 153 0
 103 0034 1D80     		strh	r5, [r3, #0]	@ movhi
 104              	.LVL7:
 105              	.LBE521:
 106              	.LBE527:
 107              		.loc 1 97 0
 108 0036 D205     		lsls	r2, r2, #23
 109              	.LBB528:
 110              	.LBB529:
 111              		.loc 2 144 0
 112 0038 4525     		movs	r5, #69
 113              	.LVL8:
 114 003a 2580     		strh	r5, [r4, #0]	@ movhi
ARM GAS  /tmp/ccLrOMZj.s 			page 3


 115              	.LBE529:
 116              	.LBE528:
 117              		.loc 1 96 0
 118 003c C00D     		lsrs	r0, r0, #23
 119              	.LVL9:
 120              		.loc 1 97 0
 121 003e D20D     		lsrs	r2, r2, #23
 122              	.LBB530:
 123              	.LBB531:
 124              		.loc 2 144 0
 125 0040 4625     		movs	r5, #70
 126              	.LBE531:
 127              	.LBE530:
 128              	.LBB533:
 129              	.LBB534:
 130              		.loc 2 153 0
 131 0042 1880     		strh	r0, [r3, #0]	@ movhi
 132              	.LVL10:
 133              	.LBE534:
 134              	.LBE533:
 135              	.LBB535:
 136              	.LBB532:
 137              		.loc 2 144 0
 138 0044 2580     		strh	r5, [r4, #0]	@ movhi
 139              	.LVL11:
 140              	.LBE532:
 141              	.LBE535:
 142              	.LBB536:
 143              	.LBB537:
 144              		.loc 2 153 0
 145 0046 1A80     		strh	r2, [r3, #0]	@ movhi
 146              	.LVL12:
 147              	.L9:
 148              	.LBE537:
 149              	.LBE536:
 150              	.LBB538:
 151              	.LBB539:
 152              	.LBB540:
 153              	.LBB541:
 154 0048 0023     		movs	r3, #0
 155              	.LBE541:
 156              	.LBE540:
 157              	.LBB544:
 158              	.LBB545:
 159              		.loc 2 144 0
 160 004a 4FF0C042 		mov	r2, #1610612736
 161              	.LBE545:
 162              	.LBE544:
 163              	.LBB547:
 164              	.LBB542:
 165              		.loc 2 153 0
 166 004e C6F20203 		movt	r3, 24578
 167              	.LBE542:
 168              	.LBE547:
 169              		.loc 1 65 0
 170 0052 89B2     		uxth	r1, r1
 171              	.LVL13:
ARM GAS  /tmp/ccLrOMZj.s 			page 4


 172              	.LBB548:
 173              	.LBB546:
 174              		.loc 2 144 0
 175 0054 4E24     		movs	r4, #78
 176 0056 1480     		strh	r4, [r2, #0]	@ movhi
 177              	.LBE546:
 178              	.LBE548:
 179              	.LBB549:
 180              	.LBB543:
 181              		.loc 2 153 0
 182 0058 1980     		strh	r1, [r3, #0]	@ movhi
 183              	.LVL14:
 184              	.LBE543:
 185              	.LBE549:
 186              	.LBB550:
 187              	.LBB551:
 188              		.loc 2 144 0
 189 005a 4F21     		movs	r1, #79
 190              	.LVL15:
 191 005c 1180     		strh	r1, [r2, #0]	@ movhi
 192              	.LVL16:
 193              	.LBE551:
 194              	.LBE550:
 195              	.LBB552:
 196              	.LBB553:
 197              		.loc 2 153 0
 198 005e 1880     		strh	r0, [r3, #0]	@ movhi
 199              	.LVL17:
 200              	.L1:
 201              	.LBE553:
 202              	.LBE552:
 203              	.LBE539:
 204              	.LBE538:
 205              		.loc 1 112 0
 206 0060 70BC     		pop	{r4, r5, r6}
 207 0062 7047     		bx	lr
 208              	.LVL18:
 209              	.L5:
 210              		.loc 1 100 0
 211 0064 86B2     		uxth	r6, r0
 212 0066 C6F1F004 		rsb	r4, r6, #240
 213              		.loc 1 101 0
 214 006a 89B2     		uxth	r1, r1
 215              		.loc 1 100 0
 216 006c A21A     		subs	r2, r4, r2
 217              	.LVL19:
 218              		.loc 1 101 0
 219 006e C1F5A075 		rsb	r5, r1, #320
 220              		.loc 1 100 0
 221 0072 C0F1EF00 		rsb	r0, r0, #239
 222              	.LVL20:
 223 0076 D2B2     		uxtb	r2, r2
 224              	.LBB601:
 225              	.LBB602:
 226              		.loc 2 153 0
 227 0078 0024     		movs	r4, #0
 228 007a C6F20204 		movt	r4, 24578
ARM GAS  /tmp/ccLrOMZj.s 			page 5


 229              	.LBE602:
 230              	.LBE601:
 231              		.loc 1 101 0
 232 007e EB1A     		subs	r3, r5, r3
 233              	.LVL21:
 234              		.loc 1 100 0
 235 0080 42EA0022 		orr	r2, r2, r0, lsl #8
 236              	.LBB604:
 237              	.LBB605:
 238              		.loc 2 144 0
 239 0084 4FF0C045 		mov	r5, #1610612736
 240              	.LBE605:
 241              	.LBE604:
 242              		.loc 1 102 0
 243 0088 C1F59F71 		rsb	r1, r1, #318
 244              	.LVL22:
 245              		.loc 1 100 0
 246 008c 90B2     		uxth	r0, r2
 247              	.LVL23:
 248              		.loc 1 102 0
 249 008e 0131     		adds	r1, r1, #1
 250              		.loc 1 101 0
 251 0090 DB05     		lsls	r3, r3, #23
 252              	.LBB607:
 253              	.LBB606:
 254              		.loc 2 144 0
 255 0092 4422     		movs	r2, #68
 256              	.LVL24:
 257 0094 2A80     		strh	r2, [r5, #0]	@ movhi
 258              	.LBE606:
 259              	.LBE607:
 260              		.loc 1 101 0
 261 0096 DB0D     		lsrs	r3, r3, #23
 262              	.LBB608:
 263              	.LBB603:
 264              		.loc 2 153 0
 265 0098 2080     		strh	r0, [r4, #0]	@ movhi
 266              	.LVL25:
 267              	.LBE603:
 268              	.LBE608:
 269              		.loc 1 102 0
 270 009a C905     		lsls	r1, r1, #23
 271              	.LBB609:
 272              	.LBB610:
 273              		.loc 2 144 0
 274 009c 4520     		movs	r0, #69
 275              	.LVL26:
 276 009e 2880     		strh	r0, [r5, #0]	@ movhi
 277              	.LVL27:
 278              	.LBE610:
 279              	.LBE609:
 280              		.loc 1 102 0
 281 00a0 C90D     		lsrs	r1, r1, #23
 282              	.LBB611:
 283              	.LBB612:
 284              		.loc 2 153 0
 285 00a2 2380     		strh	r3, [r4, #0]	@ movhi
ARM GAS  /tmp/ccLrOMZj.s 			page 6


 286              	.LVL28:
 287              	.LBE612:
 288              	.LBE611:
 289              	.LBB613:
 290              	.LBB614:
 291              		.loc 2 144 0
 292 00a4 4623     		movs	r3, #70
 293              	.LVL29:
 294 00a6 2B80     		strh	r3, [r5, #0]	@ movhi
 295              	.LBE614:
 296              	.LBE613:
 297              	.LBB615:
 298              	.LBB616:
 299              		.loc 2 153 0
 300 00a8 2180     		strh	r1, [r4, #0]	@ movhi
 301              	.LVL30:
 302              	.L10:
 303              	.LBE616:
 304              	.LBE615:
 305              	.LBB617:
 306              	.LBB598:
 307              	.LBB554:
 308              	.LBB555:
 309              		.loc 2 144 0
 310 00aa 4FF0C042 		mov	r2, #1610612736
 311              	.LBE555:
 312              	.LBE554:
 313              		.loc 1 57 0
 314 00ae C6F1EF00 		rsb	r0, r6, #239
 315              	.LBB557:
 316              	.LBB558:
 317              		.loc 2 153 0
 318 00b2 0023     		movs	r3, #0
 319 00b4 C6F20203 		movt	r3, 24578
 320              	.LBE558:
 321              	.LBE557:
 322              		.loc 1 57 0
 323 00b8 C6B2     		uxtb	r6, r0
 324              	.LVL31:
 325              	.LBB560:
 326              	.LBB556:
 327              		.loc 2 144 0
 328 00ba 4E20     		movs	r0, #78
 329 00bc 1080     		strh	r0, [r2, #0]	@ movhi
 330              	.LBE556:
 331              	.LBE560:
 332              	.LBB561:
 333              	.LBB562:
 334 00be 4F20     		movs	r0, #79
 335              	.LBE562:
 336              	.LBE561:
 337              	.LBB564:
 338              	.LBB559:
 339              		.loc 2 153 0
 340 00c0 1E80     		strh	r6, [r3, #0]	@ movhi
 341              	.LVL32:
 342              	.LBE559:
ARM GAS  /tmp/ccLrOMZj.s 			page 7


 343              	.LBE564:
 344              	.LBB565:
 345              	.LBB563:
 346              		.loc 2 144 0
 347 00c2 1080     		strh	r0, [r2, #0]	@ movhi
 348              	.LVL33:
 349              	.LBE563:
 350              	.LBE565:
 351              	.LBB566:
 352              	.LBB567:
 353              		.loc 2 153 0
 354 00c4 1980     		strh	r1, [r3, #0]	@ movhi
 355 00c6 CBE7     		b	.L1
 356              	.LVL34:
 357              	.L4:
 358              	.LBE567:
 359              	.LBE566:
 360              	.LBE598:
 361              	.LBE617:
 362              		.loc 1 105 0
 363 00c8 8EB2     		uxth	r6, r1
 364 00ca C6F1F004 		rsb	r4, r6, #240
 365              		.loc 1 106 0
 366 00ce 80B2     		uxth	r0, r0
 367              		.loc 1 105 0
 368 00d0 E31A     		subs	r3, r4, r3
 369              	.LVL35:
 370              		.loc 1 106 0
 371 00d2 C0F5A075 		rsb	r5, r0, #320
 372              		.loc 1 105 0
 373 00d6 C1F1EF01 		rsb	r1, r1, #239
 374              	.LVL36:
 375 00da DBB2     		uxtb	r3, r3
 376              	.LBB618:
 377              	.LBB619:
 378              		.loc 2 153 0
 379 00dc 0024     		movs	r4, #0
 380 00de C6F20204 		movt	r4, 24578
 381              	.LBE619:
 382              	.LBE618:
 383              		.loc 1 106 0
 384 00e2 AA1A     		subs	r2, r5, r2
 385              	.LVL37:
 386              		.loc 1 105 0
 387 00e4 43EA0123 		orr	r3, r3, r1, lsl #8
 388              	.LBB621:
 389              	.LBB622:
 390              		.loc 2 144 0
 391 00e8 4FF0C045 		mov	r5, #1610612736
 392              	.LBE622:
 393              	.LBE621:
 394              		.loc 1 107 0
 395 00ec C0F59F70 		rsb	r0, r0, #318
 396              	.LVL38:
 397              		.loc 1 105 0
 398 00f0 99B2     		uxth	r1, r3
 399              	.LVL39:
ARM GAS  /tmp/ccLrOMZj.s 			page 8


 400              		.loc 1 107 0
 401 00f2 0130     		adds	r0, r0, #1
 402              		.loc 1 106 0
 403 00f4 D205     		lsls	r2, r2, #23
 404              	.LBB624:
 405              	.LBB623:
 406              		.loc 2 144 0
 407 00f6 4423     		movs	r3, #68
 408              	.LVL40:
 409 00f8 2B80     		strh	r3, [r5, #0]	@ movhi
 410              	.LBE623:
 411              	.LBE624:
 412              		.loc 1 106 0
 413 00fa D20D     		lsrs	r2, r2, #23
 414              	.LBB625:
 415              	.LBB620:
 416              		.loc 2 153 0
 417 00fc 2180     		strh	r1, [r4, #0]	@ movhi
 418              	.LVL41:
 419              	.LBE620:
 420              	.LBE625:
 421              		.loc 1 107 0
 422 00fe C005     		lsls	r0, r0, #23
 423              	.LBB626:
 424              	.LBB627:
 425              		.loc 2 144 0
 426 0100 4521     		movs	r1, #69
 427              	.LVL42:
 428 0102 2980     		strh	r1, [r5, #0]	@ movhi
 429              	.LVL43:
 430              	.LBE627:
 431              	.LBE626:
 432              		.loc 1 107 0
 433 0104 C00D     		lsrs	r0, r0, #23
 434              	.LBB628:
 435              	.LBB629:
 436              		.loc 2 153 0
 437 0106 2280     		strh	r2, [r4, #0]	@ movhi
 438              	.LVL44:
 439              	.LBE629:
 440              	.LBE628:
 441              	.LBB630:
 442              	.LBB631:
 443              		.loc 2 144 0
 444 0108 4622     		movs	r2, #70
 445              	.LVL45:
 446 010a 2A80     		strh	r2, [r5, #0]	@ movhi
 447              	.LBE631:
 448              	.LBE630:
 449              	.LBB632:
 450              	.LBB633:
 451              		.loc 2 153 0
 452 010c 2080     		strh	r0, [r4, #0]	@ movhi
 453              	.LVL46:
 454              	.L11:
 455              	.LBE633:
 456              	.LBE632:
ARM GAS  /tmp/ccLrOMZj.s 			page 9


 457              	.LBB634:
 458              	.LBB599:
 459              	.LBB568:
 460              	.LBB569:
 461              	.LBB570:
 462              	.LBB571:
 463              		.loc 2 144 0
 464 010e 4FF0C042 		mov	r2, #1610612736
 465              	.LBE571:
 466              	.LBE570:
 467              		.loc 1 69 0
 468 0112 C6F1EF01 		rsb	r1, r6, #239
 469              	.LBB573:
 470              	.LBB574:
 471              		.loc 2 153 0
 472 0116 0023     		movs	r3, #0
 473 0118 C6F20203 		movt	r3, 24578
 474              	.LBE574:
 475              	.LBE573:
 476              		.loc 1 69 0
 477 011c CEB2     		uxtb	r6, r1
 478              	.LVL47:
 479              	.LBB576:
 480              	.LBB572:
 481              		.loc 2 144 0
 482 011e 4E21     		movs	r1, #78
 483 0120 1180     		strh	r1, [r2, #0]	@ movhi
 484              	.LBE572:
 485              	.LBE576:
 486              	.LBB577:
 487              	.LBB578:
 488 0122 4F21     		movs	r1, #79
 489              	.LBE578:
 490              	.LBE577:
 491              	.LBB580:
 492              	.LBB575:
 493              		.loc 2 153 0
 494 0124 1E80     		strh	r6, [r3, #0]	@ movhi
 495              	.LVL48:
 496              	.LBE575:
 497              	.LBE580:
 498              	.LBB581:
 499              	.LBB579:
 500              		.loc 2 144 0
 501 0126 1180     		strh	r1, [r2, #0]	@ movhi
 502              	.LVL49:
 503              	.LBE579:
 504              	.LBE581:
 505              	.LBB582:
 506              	.LBB583:
 507              		.loc 2 153 0
 508 0128 1880     		strh	r0, [r3, #0]	@ movhi
 509 012a 99E7     		b	.L1
 510              	.LVL50:
 511              	.L3:
 512              	.LBE583:
 513              	.LBE582:
ARM GAS  /tmp/ccLrOMZj.s 			page 10


 514              	.LBE569:
 515              	.LBE568:
 516              	.LBE599:
 517              	.LBE634:
 518              		.loc 1 90 0
 519 012c 8618     		adds	r6, r0, r2
 520              		.loc 1 92 0
 521 012e 4D1E     		subs	r5, r1, #1
 522              		.loc 1 90 0
 523 0130 721E     		subs	r2, r6, #1
 524              	.LVL51:
 525 0132 C0B2     		uxtb	r0, r0
 526              	.LVL52:
 527              	.LBB635:
 528              	.LBB636:
 529              		.loc 2 153 0
 530 0134 0024     		movs	r4, #0
 531 0136 C6F20204 		movt	r4, 24578
 532              	.LBE636:
 533              	.LBE635:
 534              		.loc 1 92 0
 535 013a EB18     		adds	r3, r5, r3
 536              	.LVL53:
 537              		.loc 1 90 0
 538 013c 40EA0226 		orr	r6, r0, r2, lsl #8
 539              	.LBB638:
 540              	.LBB639:
 541              		.loc 2 144 0
 542 0140 4FF0C045 		mov	r5, #1610612736
 543              	.LBE639:
 544              	.LBE638:
 545              		.loc 1 90 0
 546 0144 B2B2     		uxth	r2, r6
 547              	.LVL54:
 548              	.LBB641:
 549              	.LBB640:
 550              		.loc 2 144 0
 551 0146 4426     		movs	r6, #68
 552              	.LVL55:
 553 0148 2E80     		strh	r6, [r5, #0]	@ movhi
 554              	.LBE640:
 555              	.LBE641:
 556              		.loc 1 91 0
 557 014a C905     		lsls	r1, r1, #23
 558              	.LVL56:
 559              	.LBB642:
 560              	.LBB637:
 561              		.loc 2 153 0
 562 014c 2280     		strh	r2, [r4, #0]	@ movhi
 563              	.LVL57:
 564              	.LBE637:
 565              	.LBE642:
 566              		.loc 1 92 0
 567 014e DB05     		lsls	r3, r3, #23
 568              	.LBB643:
 569              	.LBB644:
 570              		.loc 2 144 0
ARM GAS  /tmp/ccLrOMZj.s 			page 11


 571 0150 4522     		movs	r2, #69
 572              	.LVL58:
 573 0152 2A80     		strh	r2, [r5, #0]	@ movhi
 574              	.LBE644:
 575              	.LBE643:
 576              		.loc 1 91 0
 577 0154 C90D     		lsrs	r1, r1, #23
 578              	.LVL59:
 579              		.loc 1 92 0
 580 0156 DB0D     		lsrs	r3, r3, #23
 581              	.LBB645:
 582              	.LBB646:
 583              		.loc 2 144 0
 584 0158 4622     		movs	r2, #70
 585              	.LBE646:
 586              	.LBE645:
 587              	.LBB648:
 588              	.LBB649:
 589              		.loc 2 153 0
 590 015a 2180     		strh	r1, [r4, #0]	@ movhi
 591              	.LVL60:
 592              	.LBE649:
 593              	.LBE648:
 594              	.LBB650:
 595              	.LBB647:
 596              		.loc 2 144 0
 597 015c 2A80     		strh	r2, [r5, #0]	@ movhi
 598              	.LVL61:
 599              	.LBE647:
 600              	.LBE650:
 601              	.LBB651:
 602              	.LBB652:
 603              		.loc 2 153 0
 604 015e 2380     		strh	r3, [r4, #0]	@ movhi
 605              	.LVL62:
 606              	.L8:
 607              	.LBE652:
 608              	.LBE651:
 609              	.LBB653:
 610              	.LBB600:
 611              	.LBB584:
 612              	.LBB585:
 613 0160 0023     		movs	r3, #0
 614              	.LBE585:
 615              	.LBE584:
 616              	.LBB588:
 617              	.LBB589:
 618              		.loc 2 144 0
 619 0162 4FF0C042 		mov	r2, #1610612736
 620              	.LBE589:
 621              	.LBE588:
 622              	.LBB591:
 623              	.LBB586:
 624              		.loc 2 153 0
 625 0166 C6F20203 		movt	r3, 24578
 626              	.LBE586:
 627              	.LBE591:
ARM GAS  /tmp/ccLrOMZj.s 			page 12


 628              		.loc 1 61 0
 629 016a 80B2     		uxth	r0, r0
 630              	.LVL63:
 631              	.LBB592:
 632              	.LBB590:
 633              		.loc 2 144 0
 634 016c 4E24     		movs	r4, #78
 635 016e 1480     		strh	r4, [r2, #0]	@ movhi
 636              	.LBE590:
 637              	.LBE592:
 638              	.LBB593:
 639              	.LBB587:
 640              		.loc 2 153 0
 641 0170 1880     		strh	r0, [r3, #0]	@ movhi
 642              	.LVL64:
 643              	.LBE587:
 644              	.LBE593:
 645              	.LBB594:
 646              	.LBB595:
 647              		.loc 2 144 0
 648 0172 4F20     		movs	r0, #79
 649              	.LVL65:
 650 0174 1080     		strh	r0, [r2, #0]	@ movhi
 651              	.LVL66:
 652              	.LBE595:
 653              	.LBE594:
 654              	.LBB596:
 655              	.LBB597:
 656              		.loc 2 153 0
 657 0176 1980     		strh	r1, [r3, #0]	@ movhi
 658 0178 72E7     		b	.L1
 659              	.LVL67:
 660              	.L2:
 661              	.LBE597:
 662              	.LBE596:
 663              		.loc 1 55 0
 664 017a 032C     		cmp	r4, #3
 665 017c 3FF670AF 		bhi	.L1
 666 0180 DFE804F0 		tbb	[pc, r4]
 667              	.LVL68:
 668              	.L17:
 669 0184 06       		.byte	(.L13-.L17)/2
 670 0185 0A       		.byte	(.L14-.L17)/2
 671 0186 12       		.byte	(.L15-.L17)/2
 672 0187 02       		.byte	(.L16-.L17)/2
 673              		.align	1
 674              	.L16:
 675 0188 C005     		lsls	r0, r0, #23
 676              	.LVL69:
 677 018a C9B2     		uxtb	r1, r1
 678              	.LVL70:
 679 018c C00D     		lsrs	r0, r0, #23
 680 018e 5BE7     		b	.L9
 681              	.LVL71:
 682              	.L13:
 683 0190 CC05     		lsls	r4, r1, #23
 684 0192 C0B2     		uxtb	r0, r0
ARM GAS  /tmp/ccLrOMZj.s 			page 13


 685              	.LVL72:
 686 0194 E10D     		lsrs	r1, r4, #23
 687              	.LVL73:
 688 0196 E3E7     		b	.L8
 689              	.LVL74:
 690              	.L14:
 691 0198 85B2     		uxth	r5, r0
 692 019a C5F59F76 		rsb	r6, r5, #318
 693 019e 731C     		adds	r3, r6, #1
 694 01a0 DA05     		lsls	r2, r3, #23
 695              	.LVL75:
 696 01a2 8EB2     		uxth	r6, r1
 697 01a4 D00D     		lsrs	r0, r2, #23
 698              	.LVL76:
 699 01a6 B2E7     		b	.L11
 700              	.LVL77:
 701              	.L15:
 702 01a8 8DB2     		uxth	r5, r1
 703 01aa C5F59F76 		rsb	r6, r5, #318
 704 01ae 731C     		adds	r3, r6, #1
 705 01b0 DA05     		lsls	r2, r3, #23
 706              	.LVL78:
 707 01b2 86B2     		uxth	r6, r0
 708 01b4 D10D     		lsrs	r1, r2, #23
 709              	.LVL79:
 710 01b6 78E7     		b	.L10
 711              	.L20:
 712              		.align	2
 713              	.L19:
 714 01b8 00000000 		.word	.LANCHOR0
 715              	.LBE600:
 716              	.LBE653:
 717              		.cfi_endproc
 718              	.LFE133:
 719              		.size	set_viewport, .-set_viewport
 720 01bc AFF30080 		.section	.text.gdisp_lld_set_clip,"ax",%progbits
 721              		.align	2
 722              		.p2align 4,,15
 723              		.global	gdisp_lld_set_clip
 724              		.thumb
 725              		.thumb_func
 726              		.type	gdisp_lld_set_clip, %function
 727              	gdisp_lld_set_clip:
 728              	.LFB119:
 729              		.file 3 "../../ext/ugfx/include/gdisp/lld/emulation.c"
 730              		.loc 3 153 0
 731              		.cfi_startproc
 732              		@ args = 0, pretend = 0, frame = 0
 733              		@ frame_needed = 0, uses_anonymous_args = 0
 734              		@ link register save eliminated.
 735              	.LVL80:
 736 0000 2DE9F001 		push	{r4, r5, r6, r7, r8}
 737              	.LCFI1:
 738              		.cfi_def_cfa_offset 20
 739              		.cfi_offset 4, -20
 740              		.cfi_offset 5, -16
 741              		.cfi_offset 6, -12
ARM GAS  /tmp/ccLrOMZj.s 			page 14


 742              		.cfi_offset 7, -8
 743              		.cfi_offset 8, -4
 744              		.loc 3 155 0
 745 0004 164C     		ldr	r4, .L27
 746 0006 2688     		ldrh	r6, [r4, #0]
 747 0008 35B2     		sxth	r5, r6
 748 000a 8542     		cmp	r5, r0
 749 000c 24DD     		ble	.L21
 750              		.loc 3 155 0 is_stmt 0 discriminator 1
 751 000e B4F802C0 		ldrh	ip, [r4, #2]
 752 0012 0FFA8CF7 		sxth	r7, ip
 753 0016 8F42     		cmp	r7, r1
 754 0018 1EDD     		ble	.L21
 755 001a 002A     		cmp	r2, #0
 756 001c 1CDB     		blt	.L21
 757 001e 002B     		cmp	r3, #0
 758 0020 1ADB     		blt	.L21
 759 0022 20EAE070 		bic	r0, r0, r0, asr #31
 760              	.LVL81:
 761              		.loc 3 159 0 is_stmt 1
 762 0026 00EB0208 		add	r8, r0, r2
 763 002a A845     		cmp	r8, r5
 764 002c 21EAE171 		bic	r1, r1, r1, asr #31
 765              	.LVL82:
 766 0030 1FFA80F8 		uxth	r8, r0
 767              		.loc 3 160 0
 768 0034 01EB0305 		add	r5, r1, r3
 769              		.loc 3 159 0
 770 0038 C4BF     		itt	gt
 771 003a C8EB0606 		rsbgt	r6, r8, r6
 772 003e 32B2     		sxthgt	r2, r6
 773              	.LVL83:
 774              		.loc 3 160 0
 775 0040 BD42     		cmp	r5, r7
 776 0042 8DB2     		uxth	r5, r1
 777 0044 C4BF     		itt	gt
 778 0046 C5EB0C03 		rsbgt	r3, r5, ip
 779              	.LVL84:
 780 004a 1BB2     		sxthgt	r3, r3
 781              	.LVL85:
 782              		.loc 3 164 0
 783 004c 4244     		add	r2, r8, r2
 784              	.LVL86:
 785              		.loc 3 165 0
 786 004e EB18     		adds	r3, r5, r3
 787              	.LVL87:
 788              		.loc 3 162 0
 789 0050 2081     		strh	r0, [r4, #8]	@ movhi
 790              		.loc 3 163 0
 791 0052 6181     		strh	r1, [r4, #10]	@ movhi
 792              		.loc 3 164 0
 793 0054 A281     		strh	r2, [r4, #12]	@ movhi
 794              		.loc 3 165 0
 795 0056 E381     		strh	r3, [r4, #14]	@ movhi
 796              	.LVL88:
 797              	.L21:
 798              		.loc 3 166 0
ARM GAS  /tmp/ccLrOMZj.s 			page 15


 799 0058 BDE8F001 		pop	{r4, r5, r6, r7, r8}
 800 005c 7047     		bx	lr
 801              	.L28:
 802 005e 00BF     		.align	2
 803              	.L27:
 804 0060 00000000 		.word	.LANCHOR0
 805              		.cfi_endproc
 806              	.LFE119:
 807              		.size	gdisp_lld_set_clip, .-gdisp_lld_set_clip
 808 0064 AFF30080 		.section	.text.gdisp_lld_init,"ax",%progbits
 808      AFF30080 
 808      AFF30080 
 809              		.align	2
 810              		.p2align 4,,15
 811              		.global	gdisp_lld_init
 812              		.thumb
 813              		.thumb_func
 814              		.type	gdisp_lld_init, %function
 815              	gdisp_lld_init:
 816              	.LFB135:
 817              		.loc 1 137 0
 818              		.cfi_startproc
 819              		@ args = 0, pretend = 0, frame = 32
 820              		@ frame_needed = 0, uses_anonymous_args = 0
 821 0000 2DE9F04F 		push	{r4, r5, r6, r7, r8, r9, sl, fp, lr}
 822              	.LCFI2:
 823              		.cfi_def_cfa_offset 36
 824              		.cfi_offset 4, -36
 825              		.cfi_offset 5, -32
 826              		.cfi_offset 6, -28
 827              		.cfi_offset 7, -24
 828              		.cfi_offset 8, -20
 829              		.cfi_offset 9, -16
 830              		.cfi_offset 10, -12
 831              		.cfi_offset 11, -8
 832              		.cfi_offset 14, -4
 833              	.LBB824:
 834              	.LBB825:
 835              		.loc 2 72 0
 836 0004 40F20003 		movw	r3, #:lower16:.LANCHOR1
 837              		.loc 2 60 0
 838 0008 4FF46054 		mov	r4, #14336
 839 000c C4F20204 		movt	r4, 16386
 840              		.loc 2 72 0
 841 0010 C0F20003 		movt	r3, #:upper16:.LANCHOR1
 842 0014 93E80700 		ldmia	r3, {r0, r1, r2}
 843              		.loc 2 60 0
 844 0018 A66B     		ldr	r6, [r4, #56]
 845              	.LBE825:
 846              	.LBE824:
 847              		.loc 1 137 0
 848 001a 89B0     		sub	sp, sp, #36
 849              	.LCFI3:
 850              		.cfi_def_cfa_offset 72
 851              	.LBB829:
 852              	.LBB826:
 853              		.loc 2 75 0
ARM GAS  /tmp/ccLrOMZj.s 			page 16


 854 001c 0C33     		adds	r3, r3, #12
 855              		.loc 2 72 0
 856 001e 02AD     		add	r5, sp, #8
 857              		.loc 2 60 0
 858 0020 46F00107 		orr	r7, r6, #1
 859 0024 A763     		str	r7, [r4, #56]
 860              		.loc 2 72 0
 861 0026 85E80700 		stmia	r5, {r0, r1, r2}
 862              		.loc 2 75 0
 863 002a 93E80700 		ldmia	r3, {r0, r1, r2}
 864 002e 05AC     		add	r4, sp, #20
 865 0030 84E80700 		stmia	r4, {r0, r1, r2}
 866              		.loc 2 78 0
 867 0034 2846     		mov	r0, r5
 868 0036 40F20261 		movw	r1, #1538
 869 003a FFF7FEFF 		bl	palSetBusMode
 870              	.LVL89:
 871              		.loc 2 79 0
 872 003e 2046     		mov	r0, r4
 873 0040 40F20261 		movw	r1, #1538
 874 0044 FFF7FEFF 		bl	palSetBusMode
 875              	.LVL90:
 876              		.loc 2 82 0
 877 0048 40F60A27 		movw	r7, #2570
 878 004c 4FF02043 		mov	r3, #-1610612736
 879              		.loc 2 90 0
 880 0050 0026     		movs	r6, #0
 881              		.loc 2 82 0
 882 0052 C0F20A07 		movt	r7, 10
 883 0056 5F60     		str	r7, [r3, #4]
 884              		.loc 2 90 0
 885 0058 4FF48061 		mov	r1, #1024
 886 005c C4F20206 		movt	r6, 16386
 887              		.loc 2 88 0
 888 0060 41F21107 		movw	r7, #4113
 889 0064 1F60     		str	r7, [r3, #0]
 890              		.loc 2 90 0
 891 0066 1922     		movs	r2, #25
 892              	.LBE826:
 893              	.LBE829:
 894              	.LBB830:
 895              	.LBB831:
 896              		.loc 2 102 0
 897 0068 8846     		mov	r8, r1
 898              	.LBE831:
 899              	.LBE830:
 900              	.LBB833:
 901              	.LBB827:
 902              		.loc 2 90 0
 903 006a 3046     		mov	r0, r6
 904              	.LBE827:
 905              	.LBE833:
 906              	.LBB834:
 907              	.LBB835:
 908              		.loc 2 153 0
 909 006c 0024     		movs	r4, #0
 910              	.LBE835:
ARM GAS  /tmp/ccLrOMZj.s 			page 17


 911              	.LBE834:
 912              	.LBB839:
 913              	.LBB840:
 914              		.loc 2 144 0
 915 006e 4FF0C045 		mov	r5, #1610612736
 916              	.LBE840:
 917              	.LBE839:
 918              	.LBB843:
 919              	.LBB836:
 920              		.loc 2 153 0
 921 0072 C6F20204 		movt	r4, 24578
 922              	.LBE836:
 923              	.LBE843:
 924              	.LBB844:
 925              	.LBB828:
 926              		.loc 2 90 0
 927 0076 FFF7FEFF 		bl	_pal_lld_setgroupmode
 928              	.LVL91:
 929              	.LBE828:
 930              	.LBE844:
 931              		.loc 1 143 0
 932 007a 1420     		movs	r0, #20
 933              	.LBB845:
 934              	.LBB832:
 935              		.loc 2 102 0
 936 007c A6F81A80 		strh	r8, [r6, #26]	@ movhi
 937              	.LBE832:
 938              	.LBE845:
 939              	.LBB846:
 940              	.LBB841:
 941              		.loc 2 144 0
 942 0080 0027     		movs	r7, #0
 943              	.LBE841:
 944              	.LBE846:
 945              		.loc 1 143 0
 946 0082 FFF7FEFF 		bl	gfxSleepMilliseconds
 947              	.LVL92:
 948              	.LBB847:
 949              	.LBB837:
 950              		.loc 2 153 0
 951 0086 4FF00109 		mov	r9, #1
 952              	.LBE837:
 953              	.LBE847:
 954              		.loc 1 145 0
 955 008a 1420     		movs	r0, #20
 956              	.LBB848:
 957              	.LBB849:
 958              		.loc 2 104 0
 959 008c A6F81880 		strh	r8, [r6, #24]	@ movhi
 960              	.LBE849:
 961              	.LBE848:
 962              		.loc 1 145 0
 963 0090 FFF7FEFF 		bl	gfxSleepMilliseconds
 964              	.LVL93:
 965              	.LBB850:
 966              	.LBB842:
 967              		.loc 2 144 0
ARM GAS  /tmp/ccLrOMZj.s 			page 18


 968 0094 2F80     		strh	r7, [r5, #0]	@ movhi
 969              	.LVL94:
 970              	.LBE842:
 971              	.LBE850:
 972              		.loc 1 150 0
 973 0096 0520     		movs	r0, #5
 974              	.LBB851:
 975              	.LBB838:
 976              		.loc 2 153 0
 977 0098 A4F80090 		strh	r9, [r4, #0]	@ movhi
 978              	.LBE838:
 979              	.LBE851:
 980              		.loc 1 150 0
 981 009c FFF7FEFF 		bl	gfxSleepMicroseconds
 982              	.LVL95:
 983              	.LBB852:
 984              	.LBB853:
 985              		.loc 2 144 0
 986 00a0 4FF0030A 		mov	sl, #3
 987              	.LBE853:
 988              	.LBE852:
 989              	.LBB855:
 990              	.LBB856:
 991              		.loc 2 153 0
 992 00a4 4AF6A401 		movw	r1, #43172
 993              	.LBE856:
 994              	.LBE855:
 995              	.LBB858:
 996              	.LBB854:
 997              		.loc 2 144 0
 998 00a8 A5F800A0 		strh	sl, [r5, #0]	@ movhi
 999              	.LVL96:
 1000              	.LBE854:
 1001              	.LBE858:
 1002              		.loc 1 151 0
 1003 00ac 0520     		movs	r0, #5
 1004              	.LBB859:
 1005              	.LBB857:
 1006              		.loc 2 153 0
 1007 00ae 2180     		strh	r1, [r4, #0]	@ movhi
 1008              	.LBE857:
 1009              	.LBE859:
 1010              		.loc 1 151 0
 1011 00b0 FFF7FEFF 		bl	gfxSleepMicroseconds
 1012              	.LVL97:
 1013              	.LBB860:
 1014              	.LBB861:
 1015              		.loc 2 144 0
 1016 00b4 0C20     		movs	r0, #12
 1017 00b6 2880     		strh	r0, [r5, #0]	@ movhi
 1018              	.LVL98:
 1019              	.LBE861:
 1020              	.LBE860:
 1021              		.loc 1 152 0
 1022 00b8 0520     		movs	r0, #5
 1023              	.LBB862:
 1024              	.LBB863:
ARM GAS  /tmp/ccLrOMZj.s 			page 19


 1025              		.loc 2 153 0
 1026 00ba 2780     		strh	r7, [r4, #0]	@ movhi
 1027              	.LBE863:
 1028              	.LBE862:
 1029              		.loc 1 152 0
 1030 00bc FFF7FEFF 		bl	gfxSleepMicroseconds
 1031              	.LVL99:
 1032              	.LBB864:
 1033              	.LBB865:
 1034              		.loc 2 153 0
 1035 00c0 40F60C06 		movw	r6, #2060
 1036              	.LBE865:
 1037              	.LBE864:
 1038              	.LBB867:
 1039              	.LBB868:
 1040              		.loc 2 144 0
 1041 00c4 0D22     		movs	r2, #13
 1042 00c6 2A80     		strh	r2, [r5, #0]	@ movhi
 1043              	.LVL100:
 1044              	.LBE868:
 1045              	.LBE867:
 1046              		.loc 1 153 0
 1047 00c8 0520     		movs	r0, #5
 1048              	.LBB869:
 1049              	.LBB866:
 1050              		.loc 2 153 0
 1051 00ca 2680     		strh	r6, [r4, #0]	@ movhi
 1052              	.LBE866:
 1053              	.LBE869:
 1054              		.loc 1 153 0
 1055 00cc FFF7FEFF 		bl	gfxSleepMicroseconds
 1056              	.LVL101:
 1057              	.LBB870:
 1058              	.LBB871:
 1059              		.loc 2 144 0
 1060 00d0 0E23     		movs	r3, #14
 1061              	.LBE871:
 1062              	.LBE870:
 1063              	.LBB873:
 1064              	.LBB874:
 1065              		.loc 2 153 0
 1066 00d2 4FF42C51 		mov	r1, #11008
 1067              	.LBE874:
 1068              	.LBE873:
 1069              	.LBB876:
 1070              	.LBB872:
 1071              		.loc 2 144 0
 1072 00d6 2B80     		strh	r3, [r5, #0]	@ movhi
 1073              	.LVL102:
 1074              	.LBE872:
 1075              	.LBE876:
 1076              		.loc 1 154 0
 1077 00d8 0520     		movs	r0, #5
 1078              	.LBB877:
 1079              	.LBB875:
 1080              		.loc 2 153 0
 1081 00da 2180     		strh	r1, [r4, #0]	@ movhi
ARM GAS  /tmp/ccLrOMZj.s 			page 20


 1082              	.LBE875:
 1083              	.LBE877:
 1084              		.loc 1 154 0
 1085 00dc FFF7FEFF 		bl	gfxSleepMicroseconds
 1086              	.LVL103:
 1087              	.LBB878:
 1088              	.LBB879:
 1089              		.loc 2 153 0
 1090 00e0 B022     		movs	r2, #176
 1091              	.LBE879:
 1092              	.LBE878:
 1093              	.LBB881:
 1094              	.LBB882:
 1095              		.loc 2 144 0
 1096 00e2 1E20     		movs	r0, #30
 1097 00e4 2880     		strh	r0, [r5, #0]	@ movhi
 1098              	.LVL104:
 1099              	.LBE882:
 1100              	.LBE881:
 1101              	.LBB883:
 1102              	.LBB884:
 1103              		.loc 2 153 0
 1104 00e6 42F63F36 		movw	r6, #11071
 1105              	.LBE884:
 1106              	.LBE883:
 1107              	.LBB886:
 1108              	.LBB880:
 1109 00ea 2280     		strh	r2, [r4, #0]	@ movhi
 1110              	.LBE880:
 1111              	.LBE886:
 1112              		.loc 1 155 0
 1113 00ec 0520     		movs	r0, #5
 1114 00ee FFF7FEFF 		bl	gfxSleepMicroseconds
 1115              	.LVL105:
 1116              	.LBB887:
 1117              	.LBB888:
 1118              		.loc 2 144 0
 1119 00f2 A5F80090 		strh	r9, [r5, #0]	@ movhi
 1120              	.LVL106:
 1121              	.LBE888:
 1122              	.LBE887:
 1123              		.loc 1 156 0
 1124 00f6 0520     		movs	r0, #5
 1125              	.LBB889:
 1126              	.LBB885:
 1127              		.loc 2 153 0
 1128 00f8 2680     		strh	r6, [r4, #0]	@ movhi
 1129              	.LBE885:
 1130              	.LBE889:
 1131              		.loc 1 156 0
 1132 00fa FFF7FEFF 		bl	gfxSleepMicroseconds
 1133              	.LVL107:
 1134              	.LBB890:
 1135              	.LBB891:
 1136              		.loc 2 153 0
 1137 00fe 4FF4C061 		mov	r1, #1536
 1138              	.LBE891:
ARM GAS  /tmp/ccLrOMZj.s 			page 21


 1139              	.LBE890:
 1140              	.LBB893:
 1141              	.LBB894:
 1142              		.loc 2 144 0
 1143 0102 0223     		movs	r3, #2
 1144 0104 2B80     		strh	r3, [r5, #0]	@ movhi
 1145              	.LVL108:
 1146              	.LBE894:
 1147              	.LBE893:
 1148              		.loc 1 157 0
 1149 0106 0520     		movs	r0, #5
 1150              	.LBB895:
 1151              	.LBB892:
 1152              		.loc 2 153 0
 1153 0108 2180     		strh	r1, [r4, #0]	@ movhi
 1154              	.LBE892:
 1155              	.LBE895:
 1156              		.loc 1 157 0
 1157 010a FFF7FEFF 		bl	gfxSleepMicroseconds
 1158              	.LVL109:
 1159              	.LBB896:
 1160              	.LBB897:
 1161              		.loc 2 144 0
 1162 010e 1020     		movs	r0, #16
 1163 0110 2880     		strh	r0, [r5, #0]	@ movhi
 1164              	.LVL110:
 1165              	.LBE897:
 1166              	.LBE896:
 1167              		.loc 1 158 0
 1168 0112 0520     		movs	r0, #5
 1169              	.LBB898:
 1170              	.LBB899:
 1171              		.loc 2 153 0
 1172 0114 2780     		strh	r7, [r4, #0]	@ movhi
 1173              	.LBE899:
 1174              	.LBE898:
 1175              	.LBB900:
 1176              	.LBB901:
 1177              		.loc 2 144 0
 1178 0116 0526     		movs	r6, #5
 1179              	.LBE901:
 1180              	.LBE900:
 1181              		.loc 1 158 0
 1182 0118 FFF7FEFF 		bl	gfxSleepMicroseconds
 1183              	.LVL111:
 1184              	.LBB903:
 1185              	.LBB904:
 1186              		.loc 2 144 0
 1187 011c 1122     		movs	r2, #17
 1188              	.LBE904:
 1189              	.LBE903:
 1190              	.LBB906:
 1191              	.LBB907:
 1192              		.loc 2 153 0
 1193 011e 46F27003 		movw	r3, #24688
 1194              	.LBE907:
 1195              	.LBE906:
ARM GAS  /tmp/ccLrOMZj.s 			page 22


 1196              	.LBB909:
 1197              	.LBB905:
 1198              		.loc 2 144 0
 1199 0122 2A80     		strh	r2, [r5, #0]	@ movhi
 1200              	.LVL112:
 1201              	.LBE905:
 1202              	.LBE909:
 1203              		.loc 1 159 0
 1204 0124 3046     		mov	r0, r6
 1205              	.LBB910:
 1206              	.LBB908:
 1207              		.loc 2 153 0
 1208 0126 2380     		strh	r3, [r4, #0]	@ movhi
 1209              	.LBE908:
 1210              	.LBE910:
 1211              		.loc 1 159 0
 1212 0128 FFF7FEFF 		bl	gfxSleepMicroseconds
 1213              	.LVL113:
 1214              	.LBB911:
 1215              	.LBB902:
 1216              		.loc 2 144 0
 1217 012c 2E80     		strh	r6, [r5, #0]	@ movhi
 1218              	.LVL114:
 1219              	.LBE902:
 1220              	.LBE911:
 1221              		.loc 1 160 0
 1222 012e 3046     		mov	r0, r6
 1223              	.LBB912:
 1224              	.LBB913:
 1225              		.loc 2 153 0
 1226 0130 2780     		strh	r7, [r4, #0]	@ movhi
 1227              	.LBE913:
 1228              	.LBE912:
 1229              		.loc 1 160 0
 1230 0132 FFF7FEFF 		bl	gfxSleepMicroseconds
 1231              	.LVL115:
 1232              	.LBB914:
 1233              	.LBB915:
 1234              		.loc 2 144 0
 1235 0136 0621     		movs	r1, #6
 1236 0138 2980     		strh	r1, [r5, #0]	@ movhi
 1237              	.LVL116:
 1238              	.LBE915:
 1239              	.LBE914:
 1240              		.loc 1 161 0
 1241 013a 3046     		mov	r0, r6
 1242              	.LBB916:
 1243              	.LBB917:
 1244              		.loc 2 153 0
 1245 013c 2780     		strh	r7, [r4, #0]	@ movhi
 1246              	.LBE917:
 1247              	.LBE916:
 1248              		.loc 1 161 0
 1249 013e FFF7FEFF 		bl	gfxSleepMicroseconds
 1250              	.LVL117:
 1251              	.LBB918:
 1252              	.LBB919:
ARM GAS  /tmp/ccLrOMZj.s 			page 23


 1253              		.loc 2 153 0
 1254 0142 4EF61C72 		movw	r2, #61212
 1255              	.LBE919:
 1256              	.LBE918:
 1257              	.LBB921:
 1258              	.LBB922:
 1259              		.loc 2 144 0
 1260 0146 1620     		movs	r0, #22
 1261 0148 2880     		strh	r0, [r5, #0]	@ movhi
 1262              	.LVL118:
 1263              	.LBE922:
 1264              	.LBE921:
 1265              	.LBB923:
 1266              	.LBB920:
 1267              		.loc 2 153 0
 1268 014a 2280     		strh	r2, [r4, #0]	@ movhi
 1269              	.LBE920:
 1270              	.LBE923:
 1271              		.loc 1 162 0
 1272 014c 3046     		mov	r0, r6
 1273 014e FFF7FEFF 		bl	gfxSleepMicroseconds
 1274              	.LVL119:
 1275              	.LBB924:
 1276              	.LBB925:
 1277              		.loc 2 144 0
 1278 0152 1723     		movs	r3, #23
 1279 0154 2B80     		strh	r3, [r5, #0]	@ movhi
 1280              	.LVL120:
 1281              	.LBE925:
 1282              	.LBE924:
 1283              		.loc 1 163 0
 1284 0156 3046     		mov	r0, r6
 1285              	.LBB926:
 1286              	.LBB927:
 1287              		.loc 2 153 0
 1288 0158 A4F800A0 		strh	sl, [r4, #0]	@ movhi
 1289              	.LBE927:
 1290              	.LBE926:
 1291              		.loc 1 163 0
 1292 015c FFF7FEFF 		bl	gfxSleepMicroseconds
 1293              	.LVL121:
 1294              	.LBB928:
 1295              	.LBB929:
 1296              		.loc 2 144 0
 1297 0160 0721     		movs	r1, #7
 1298              	.LBE929:
 1299              	.LBE928:
 1300              	.LBB931:
 1301              	.LBB932:
 1302              		.loc 2 153 0
 1303 0162 01F59672 		add	r2, r1, #300
 1304              	.LBE932:
 1305              	.LBE931:
 1306              	.LBB934:
 1307              	.LBB930:
 1308              		.loc 2 144 0
 1309 0166 2980     		strh	r1, [r5, #0]	@ movhi
ARM GAS  /tmp/ccLrOMZj.s 			page 24


 1310              	.LVL122:
 1311              	.LBE930:
 1312              	.LBE934:
 1313              		.loc 1 164 0
 1314 0168 3046     		mov	r0, r6
 1315              	.LBB935:
 1316              	.LBB933:
 1317              		.loc 2 153 0
 1318 016a 2280     		strh	r2, [r4, #0]	@ movhi
 1319              	.LBE933:
 1320              	.LBE935:
 1321              		.loc 1 164 0
 1322 016c FFF7FEFF 		bl	gfxSleepMicroseconds
 1323              	.LVL123:
 1324              	.LBB936:
 1325              	.LBB937:
 1326              		.loc 2 144 0
 1327 0170 0B20     		movs	r0, #11
 1328 0172 2880     		strh	r0, [r5, #0]	@ movhi
 1329              	.LVL124:
 1330              	.LBE937:
 1331              	.LBE936:
 1332              		.loc 1 165 0
 1333 0174 3046     		mov	r0, r6
 1334              	.LBB938:
 1335              	.LBB939:
 1336              		.loc 2 153 0
 1337 0176 2780     		strh	r7, [r4, #0]	@ movhi
 1338              	.LBE939:
 1339              	.LBE938:
 1340              		.loc 1 165 0
 1341 0178 FFF7FEFF 		bl	gfxSleepMicroseconds
 1342              	.LVL125:
 1343              	.LBB940:
 1344              	.LBB941:
 1345              		.loc 2 144 0
 1346 017c 0F23     		movs	r3, #15
 1347 017e 2B80     		strh	r3, [r5, #0]	@ movhi
 1348              	.LVL126:
 1349              	.LBE941:
 1350              	.LBE940:
 1351              		.loc 1 166 0
 1352 0180 3046     		mov	r0, r6
 1353              	.LBB942:
 1354              	.LBB943:
 1355              		.loc 2 153 0
 1356 0182 2780     		strh	r7, [r4, #0]	@ movhi
 1357              	.LBE943:
 1358              	.LBE942:
 1359              		.loc 1 166 0
 1360 0184 FFF7FEFF 		bl	gfxSleepMicroseconds
 1361              	.LVL127:
 1362              	.LBB944:
 1363              	.LBB945:
 1364              		.loc 2 144 0
 1365 0188 4121     		movs	r1, #65
 1366 018a 2980     		strh	r1, [r5, #0]	@ movhi
ARM GAS  /tmp/ccLrOMZj.s 			page 25


 1367              	.LVL128:
 1368              	.LBE945:
 1369              	.LBE944:
 1370              		.loc 1 167 0
 1371 018c 3046     		mov	r0, r6
 1372              	.LBB946:
 1373              	.LBB947:
 1374              		.loc 2 153 0
 1375 018e 2780     		strh	r7, [r4, #0]	@ movhi
 1376              	.LBE947:
 1377              	.LBE946:
 1378              		.loc 1 167 0
 1379 0190 FFF7FEFF 		bl	gfxSleepMicroseconds
 1380              	.LVL129:
 1381              	.LBB948:
 1382              	.LBB949:
 1383              		.loc 2 144 0
 1384 0194 4222     		movs	r2, #66
 1385 0196 2A80     		strh	r2, [r5, #0]	@ movhi
 1386              	.LVL130:
 1387              	.LBE949:
 1388              	.LBE948:
 1389              		.loc 1 168 0
 1390 0198 3046     		mov	r0, r6
 1391              	.LBB950:
 1392              	.LBB951:
 1393              		.loc 2 153 0
 1394 019a 2780     		strh	r7, [r4, #0]	@ movhi
 1395              	.LBE951:
 1396              	.LBE950:
 1397              		.loc 1 168 0
 1398 019c FFF7FEFF 		bl	gfxSleepMicroseconds
 1399              	.LVL131:
 1400              	.LBB952:
 1401              	.LBB953:
 1402              		.loc 2 144 0
 1403 01a0 4820     		movs	r0, #72
 1404 01a2 2880     		strh	r0, [r5, #0]	@ movhi
 1405              	.LVL132:
 1406              	.LBE953:
 1407              	.LBE952:
 1408              		.loc 1 169 0
 1409 01a4 3046     		mov	r0, r6
 1410              	.LBB954:
 1411              	.LBB955:
 1412              		.loc 2 153 0
 1413 01a6 2780     		strh	r7, [r4, #0]	@ movhi
 1414              	.LBE955:
 1415              	.LBE954:
 1416              		.loc 1 169 0
 1417 01a8 FFF7FEFF 		bl	gfxSleepMicroseconds
 1418              	.LVL133:
 1419              	.LBB956:
 1420              	.LBB957:
 1421              		.loc 2 153 0
 1422 01ac 40F23F1B 		movw	fp, #319
 1423              	.LBE957:
ARM GAS  /tmp/ccLrOMZj.s 			page 26


 1424              	.LBE956:
 1425              	.LBB959:
 1426              	.LBB960:
 1427              		.loc 2 144 0
 1428 01b0 4923     		movs	r3, #73
 1429 01b2 2B80     		strh	r3, [r5, #0]	@ movhi
 1430              	.LVL134:
 1431              	.LBE960:
 1432              	.LBE959:
 1433              		.loc 1 170 0
 1434 01b4 3046     		mov	r0, r6
 1435              	.LBB961:
 1436              	.LBB958:
 1437              		.loc 2 153 0
 1438 01b6 A4F800B0 		strh	fp, [r4, #0]	@ movhi
 1439              	.LBE958:
 1440              	.LBE961:
 1441              		.loc 1 170 0
 1442 01ba FFF7FEFF 		bl	gfxSleepMicroseconds
 1443              	.LVL135:
 1444              	.LBB962:
 1445              	.LBB963:
 1446              		.loc 2 144 0
 1447 01be 4A21     		movs	r1, #74
 1448 01c0 2980     		strh	r1, [r5, #0]	@ movhi
 1449              	.LVL136:
 1450              	.LBE963:
 1451              	.LBE962:
 1452              		.loc 1 171 0
 1453 01c2 3046     		mov	r0, r6
 1454              	.LBB964:
 1455              	.LBB965:
 1456              		.loc 2 153 0
 1457 01c4 2780     		strh	r7, [r4, #0]	@ movhi
 1458              	.LBE965:
 1459              	.LBE964:
 1460              		.loc 1 171 0
 1461 01c6 FFF7FEFF 		bl	gfxSleepMicroseconds
 1462              	.LVL137:
 1463              	.LBB966:
 1464              	.LBB967:
 1465              		.loc 2 144 0
 1466 01ca 4B22     		movs	r2, #75
 1467 01cc 2A80     		strh	r2, [r5, #0]	@ movhi
 1468              	.LVL138:
 1469              	.LBE967:
 1470              	.LBE966:
 1471              		.loc 1 172 0
 1472 01ce 3046     		mov	r0, r6
 1473              	.LBB968:
 1474              	.LBB969:
 1475              		.loc 2 153 0
 1476 01d0 2780     		strh	r7, [r4, #0]	@ movhi
 1477              	.LBE969:
 1478              	.LBE968:
 1479              		.loc 1 172 0
 1480 01d2 FFF7FEFF 		bl	gfxSleepMicroseconds
ARM GAS  /tmp/ccLrOMZj.s 			page 27


 1481              	.LVL139:
 1482              	.LBB970:
 1483              	.LBB971:
 1484              		.loc 2 153 0
 1485 01d6 4FF46F43 		mov	r3, #61184
 1486              	.LBE971:
 1487              	.LBE970:
 1488              	.LBB973:
 1489              	.LBB974:
 1490              		.loc 2 144 0
 1491 01da 4420     		movs	r0, #68
 1492 01dc 2880     		strh	r0, [r5, #0]	@ movhi
 1493              	.LVL140:
 1494              	.LBE974:
 1495              	.LBE973:
 1496              	.LBB975:
 1497              	.LBB972:
 1498              		.loc 2 153 0
 1499 01de 2380     		strh	r3, [r4, #0]	@ movhi
 1500              	.LBE972:
 1501              	.LBE975:
 1502              		.loc 1 173 0
 1503 01e0 3046     		mov	r0, r6
 1504 01e2 FFF7FEFF 		bl	gfxSleepMicroseconds
 1505              	.LVL141:
 1506              	.LBB976:
 1507              	.LBB977:
 1508              		.loc 2 144 0
 1509 01e6 4521     		movs	r1, #69
 1510 01e8 2980     		strh	r1, [r5, #0]	@ movhi
 1511              	.LVL142:
 1512              	.LBE977:
 1513              	.LBE976:
 1514              		.loc 1 174 0
 1515 01ea 3046     		mov	r0, r6
 1516              	.LBB978:
 1517              	.LBB979:
 1518              		.loc 2 153 0
 1519 01ec 2780     		strh	r7, [r4, #0]	@ movhi
 1520              	.LBE979:
 1521              	.LBE978:
 1522              		.loc 1 174 0
 1523 01ee FFF7FEFF 		bl	gfxSleepMicroseconds
 1524              	.LVL143:
 1525              	.LBB980:
 1526              	.LBB981:
 1527              		.loc 2 144 0
 1528 01f2 4622     		movs	r2, #70
 1529 01f4 2A80     		strh	r2, [r5, #0]	@ movhi
 1530              	.LVL144:
 1531              	.LBE981:
 1532              	.LBE980:
 1533              		.loc 1 175 0
 1534 01f6 3046     		mov	r0, r6
 1535              	.LBB982:
 1536              	.LBB983:
 1537              		.loc 2 153 0
ARM GAS  /tmp/ccLrOMZj.s 			page 28


 1538 01f8 A4F800B0 		strh	fp, [r4, #0]	@ movhi
 1539              	.LBE983:
 1540              	.LBE982:
 1541              		.loc 1 175 0
 1542 01fc FFF7FEFF 		bl	gfxSleepMicroseconds
 1543              	.LVL145:
 1544              	.LBB984:
 1545              	.LBB985:
 1546              		.loc 2 153 0
 1547 0200 40F20773 		movw	r3, #1799
 1548              	.LBE985:
 1549              	.LBE984:
 1550              	.LBB987:
 1551              	.LBB988:
 1552              		.loc 2 144 0
 1553 0204 3020     		movs	r0, #48
 1554 0206 2880     		strh	r0, [r5, #0]	@ movhi
 1555              	.LVL146:
 1556              	.LBE988:
 1557              	.LBE987:
 1558              	.LBB989:
 1559              	.LBB986:
 1560              		.loc 2 153 0
 1561 0208 2380     		strh	r3, [r4, #0]	@ movhi
 1562              	.LBE986:
 1563              	.LBE989:
 1564              		.loc 1 176 0
 1565 020a 3046     		mov	r0, r6
 1566 020c FFF7FEFF 		bl	gfxSleepMicroseconds
 1567              	.LVL147:
 1568              	.LBB990:
 1569              	.LBB991:
 1570              		.loc 2 153 0
 1571 0210 4FF40178 		mov	r8, #516
 1572              	.LBE991:
 1573              	.LBE990:
 1574              	.LBB993:
 1575              	.LBB994:
 1576              		.loc 2 144 0
 1577 0214 3121     		movs	r1, #49
 1578 0216 2980     		strh	r1, [r5, #0]	@ movhi
 1579              	.LVL148:
 1580              	.LBE994:
 1581              	.LBE993:
 1582              		.loc 1 177 0
 1583 0218 3046     		mov	r0, r6
 1584              	.LBB995:
 1585              	.LBB992:
 1586              		.loc 2 153 0
 1587 021a A4F80080 		strh	r8, [r4, #0]	@ movhi
 1588              	.LBE992:
 1589              	.LBE995:
 1590              		.loc 1 177 0
 1591 021e FFF7FEFF 		bl	gfxSleepMicroseconds
 1592              	.LVL149:
 1593              	.LBB996:
 1594              	.LBB997:
ARM GAS  /tmp/ccLrOMZj.s 			page 29


 1595              		.loc 2 144 0
 1596 0222 3222     		movs	r2, #50
 1597 0224 2A80     		strh	r2, [r5, #0]	@ movhi
 1598              	.LVL150:
 1599              	.LBE997:
 1600              	.LBE996:
 1601              		.loc 1 178 0
 1602 0226 3046     		mov	r0, r6
 1603              	.LBB998:
 1604              	.LBB999:
 1605              		.loc 2 153 0
 1606 0228 A4F80080 		strh	r8, [r4, #0]	@ movhi
 1607              	.LBE999:
 1608              	.LBE998:
 1609              	.LBB1000:
 1610              	.LBB1001:
 1611 022c 40F2025B 		movw	fp, #1282
 1612              	.LBE1001:
 1613              	.LBE1000:
 1614              		.loc 1 178 0
 1615 0230 0192     		str	r2, [sp, #4]
 1616 0232 FFF7FEFF 		bl	gfxSleepMicroseconds
 1617              	.LVL151:
 1618              	.LBB1003:
 1619              	.LBB1004:
 1620              		.loc 2 144 0
 1621 0236 3320     		movs	r0, #51
 1622 0238 2880     		strh	r0, [r5, #0]	@ movhi
 1623              	.LVL152:
 1624              	.LBE1004:
 1625              	.LBE1003:
 1626              		.loc 1 179 0
 1627 023a 3046     		mov	r0, r6
 1628              	.LBB1005:
 1629              	.LBB1002:
 1630              		.loc 2 153 0
 1631 023c A4F800B0 		strh	fp, [r4, #0]	@ movhi
 1632              	.LBE1002:
 1633              	.LBE1005:
 1634              		.loc 1 179 0
 1635 0240 FFF7FEFF 		bl	gfxSleepMicroseconds
 1636              	.LVL153:
 1637              	.LBB1006:
 1638              	.LBB1007:
 1639              		.loc 2 144 0
 1640 0244 3423     		movs	r3, #52
 1641              	.LBE1007:
 1642              	.LBE1006:
 1643              	.LBB1009:
 1644              	.LBB1010:
 1645              		.loc 2 153 0
 1646 0246 40F20751 		movw	r1, #1287
 1647              	.LBE1010:
 1648              	.LBE1009:
 1649              	.LBB1012:
 1650              	.LBB1008:
 1651              		.loc 2 144 0
ARM GAS  /tmp/ccLrOMZj.s 			page 30


 1652 024a 2B80     		strh	r3, [r5, #0]	@ movhi
 1653              	.LVL154:
 1654              	.LBE1008:
 1655              	.LBE1012:
 1656              		.loc 1 180 0
 1657 024c 3046     		mov	r0, r6
 1658              	.LBB1013:
 1659              	.LBB1011:
 1660              		.loc 2 153 0
 1661 024e 2180     		strh	r1, [r4, #0]	@ movhi
 1662              	.LBE1011:
 1663              	.LBE1013:
 1664              		.loc 1 180 0
 1665 0250 FFF7FEFF 		bl	gfxSleepMicroseconds
 1666              	.LVL155:
 1667              	.LBB1014:
 1668              	.LBB1015:
 1669              		.loc 2 144 0
 1670 0254 3522     		movs	r2, #53
 1671 0256 2A80     		strh	r2, [r5, #0]	@ movhi
 1672              	.LVL156:
 1673              	.LBE1015:
 1674              	.LBE1014:
 1675              		.loc 1 181 0
 1676 0258 3046     		mov	r0, r6
 1677              	.LBB1016:
 1678              	.LBB1017:
 1679              		.loc 2 153 0
 1680 025a A4F80080 		strh	r8, [r4, #0]	@ movhi
 1681              	.LBE1017:
 1682              	.LBE1016:
 1683              		.loc 1 181 0
 1684 025e FFF7FEFF 		bl	gfxSleepMicroseconds
 1685              	.LVL157:
 1686              	.LBB1018:
 1687              	.LBB1019:
 1688              		.loc 2 144 0
 1689 0262 3620     		movs	r0, #54
 1690 0264 2880     		strh	r0, [r5, #0]	@ movhi
 1691              	.LVL158:
 1692              	.LBE1019:
 1693              	.LBE1018:
 1694              		.loc 1 182 0
 1695 0266 3046     		mov	r0, r6
 1696              	.LBB1020:
 1697              	.LBB1021:
 1698              		.loc 2 153 0
 1699 0268 A4F80080 		strh	r8, [r4, #0]	@ movhi
 1700              	.LBE1021:
 1701              	.LBE1020:
 1702              		.loc 1 182 0
 1703 026c FFF7FEFF 		bl	gfxSleepMicroseconds
 1704              	.LVL159:
 1705              	.LBB1022:
 1706              	.LBB1023:
 1707              		.loc 2 144 0
 1708 0270 3723     		movs	r3, #55
ARM GAS  /tmp/ccLrOMZj.s 			page 31


 1709 0272 2B80     		strh	r3, [r5, #0]	@ movhi
 1710              	.LVL160:
 1711              	.LBE1023:
 1712              	.LBE1022:
 1713              		.loc 1 183 0
 1714 0274 3046     		mov	r0, r6
 1715              	.LBB1024:
 1716              	.LBB1025:
 1717              		.loc 2 153 0
 1718 0276 A4F800B0 		strh	fp, [r4, #0]	@ movhi
 1719              	.LBE1025:
 1720              	.LBE1024:
 1721              		.loc 1 183 0
 1722 027a FFF7FEFF 		bl	gfxSleepMicroseconds
 1723              	.LVL161:
 1724              	.LBB1026:
 1725              	.LBB1027:
 1726              		.loc 2 153 0
 1727 027e 08F1FE08 		add	r8, r8, #254
 1728              	.LBE1027:
 1729              	.LBE1026:
 1730              	.LBB1029:
 1731              	.LBB1030:
 1732              		.loc 2 144 0
 1733 0282 3A21     		movs	r1, #58
 1734 0284 2980     		strh	r1, [r5, #0]	@ movhi
 1735              	.LVL162:
 1736              	.LBE1030:
 1737              	.LBE1029:
 1738              		.loc 1 184 0
 1739 0286 3046     		mov	r0, r6
 1740              	.LBB1031:
 1741              	.LBB1028:
 1742              		.loc 2 153 0
 1743 0288 A4F80080 		strh	r8, [r4, #0]	@ movhi
 1744              	.LBE1028:
 1745              	.LBE1031:
 1746              		.loc 1 184 0
 1747 028c FFF7FEFF 		bl	gfxSleepMicroseconds
 1748              	.LVL163:
 1749              	.LBB1032:
 1750              	.LBB1033:
 1751              		.loc 2 144 0
 1752 0290 3B22     		movs	r2, #59
 1753 0292 2A80     		strh	r2, [r5, #0]	@ movhi
 1754              	.LVL164:
 1755              	.LBE1033:
 1756              	.LBE1032:
 1757              		.loc 1 185 0
 1758 0294 3046     		mov	r0, r6
 1759              	.LBB1034:
 1760              	.LBB1035:
 1761              		.loc 2 153 0
 1762 0296 A4F80080 		strh	r8, [r4, #0]	@ movhi
 1763              	.LBE1035:
 1764              	.LBE1034:
 1765              		.loc 1 185 0
ARM GAS  /tmp/ccLrOMZj.s 			page 32


 1766 029a FFF7FEFF 		bl	gfxSleepMicroseconds
 1767              	.LVL165:
 1768              	.LBB1036:
 1769              	.LBB1037:
 1770              		.loc 2 144 0
 1771 029e 2320     		movs	r0, #35
 1772 02a0 2880     		strh	r0, [r5, #0]	@ movhi
 1773              	.LVL166:
 1774              	.LBE1037:
 1775              	.LBE1036:
 1776              		.loc 1 186 0
 1777 02a2 3046     		mov	r0, r6
 1778              	.LBB1038:
 1779              	.LBB1039:
 1780              		.loc 2 153 0
 1781 02a4 2780     		strh	r7, [r4, #0]	@ movhi
 1782              	.LBE1039:
 1783              	.LBE1038:
 1784              		.loc 1 186 0
 1785 02a6 FFF7FEFF 		bl	gfxSleepMicroseconds
 1786              	.LVL167:
 1787              	.LBB1040:
 1788              	.LBB1041:
 1789              		.loc 2 144 0
 1790 02aa 2423     		movs	r3, #36
 1791 02ac 2B80     		strh	r3, [r5, #0]	@ movhi
 1792              	.LVL168:
 1793              	.LBE1041:
 1794              	.LBE1040:
 1795              		.loc 1 187 0
 1796 02ae 3046     		mov	r0, r6
 1797              	.LBB1042:
 1798              	.LBB1043:
 1799              		.loc 2 153 0
 1800 02b0 2780     		strh	r7, [r4, #0]	@ movhi
 1801              	.LBE1043:
 1802              	.LBE1042:
 1803              		.loc 1 187 0
 1804 02b2 FFF7FEFF 		bl	gfxSleepMicroseconds
 1805              	.LVL169:
 1806              	.LBB1044:
 1807              	.LBB1045:
 1808              		.loc 2 144 0
 1809 02b6 2521     		movs	r1, #37
 1810              	.LBE1045:
 1811              	.LBE1044:
 1812              	.LBB1047:
 1813              	.LBB1048:
 1814              		.loc 2 153 0
 1815 02b8 4FF40042 		mov	r2, #32768
 1816              	.LBE1048:
 1817              	.LBE1047:
 1818              	.LBB1050:
 1819              	.LBB1046:
 1820              		.loc 2 144 0
 1821 02bc 2980     		strh	r1, [r5, #0]	@ movhi
 1822              	.LVL170:
ARM GAS  /tmp/ccLrOMZj.s 			page 33


 1823              	.LBE1046:
 1824              	.LBE1050:
 1825              		.loc 1 188 0
 1826 02be 3046     		mov	r0, r6
 1827              	.LBB1051:
 1828              	.LBB1049:
 1829              		.loc 2 153 0
 1830 02c0 2280     		strh	r2, [r4, #0]	@ movhi
 1831              	.LBE1049:
 1832              	.LBE1051:
 1833              		.loc 1 188 0
 1834 02c2 FFF7FEFF 		bl	gfxSleepMicroseconds
 1835              	.LVL171:
 1836              	.LBB1052:
 1837              	.LBB1053:
 1838              		.loc 2 144 0
 1839 02c6 4F20     		movs	r0, #79
 1840 02c8 2880     		strh	r0, [r5, #0]	@ movhi
 1841              	.LVL172:
 1842              	.LBE1053:
 1843              	.LBE1052:
 1844              		.loc 1 189 0
 1845 02ca 3046     		mov	r0, r6
 1846              	.LBB1054:
 1847              	.LBB1055:
 1848              		.loc 2 153 0
 1849 02cc 2780     		strh	r7, [r4, #0]	@ movhi
 1850              	.LBE1055:
 1851              	.LBE1054:
 1852              		.loc 1 189 0
 1853 02ce FFF7FEFF 		bl	gfxSleepMicroseconds
 1854              	.LVL173:
 1855              	.LBB1056:
 1856              	.LBB1057:
 1857              		.loc 2 144 0
 1858 02d2 4E23     		movs	r3, #78
 1859 02d4 2B80     		strh	r3, [r5, #0]	@ movhi
 1860              	.LVL174:
 1861              	.LBE1057:
 1862              	.LBE1056:
 1863              		.loc 1 190 0
 1864 02d6 3046     		mov	r0, r6
 1865              	.LBB1058:
 1866              	.LBB1059:
 1867              		.loc 2 153 0
 1868 02d8 2780     		strh	r7, [r4, #0]	@ movhi
 1869              	.LBE1059:
 1870              	.LBE1058:
 1871              		.loc 1 190 0
 1872 02da FFF7FEFF 		bl	gfxSleepMicroseconds
 1873              	.LVL175:
 1874              		.loc 1 199 0
 1875 02de 40F20003 		movw	r3, #:lower16:.LANCHOR0
 1876 02e2 C0F20003 		movt	r3, #:upper16:.LANCHOR0
 1877              		.loc 1 203 0
 1878 02e6 6424     		movs	r4, #100
 1879 02e8 9C71     		strb	r4, [r3, #6]
ARM GAS  /tmp/ccLrOMZj.s 			page 34


 1880              		.loc 1 204 0
 1881 02ea 0199     		ldr	r1, [sp, #4]
 1882              		.loc 1 201 0
 1883 02ec 1F71     		strb	r7, [r3, #4]
 1884              		.loc 1 199 0
 1885 02ee F020     		movs	r0, #240
 1886              		.loc 1 200 0
 1887 02f0 4FF4A072 		mov	r2, #320
 1888              		.loc 1 199 0
 1889 02f4 1880     		strh	r0, [r3, #0]	@ movhi
 1890              		.loc 1 208 0
 1891 02f6 9881     		strh	r0, [r3, #12]	@ movhi
 1892              		.loc 1 200 0
 1893 02f8 5A80     		strh	r2, [r3, #2]	@ movhi
 1894              		.loc 1 202 0
 1895 02fa 83F805A0 		strb	sl, [r3, #5]
 1896              		.loc 1 204 0
 1897 02fe D971     		strb	r1, [r3, #7]
 1898              		.loc 1 206 0
 1899 0300 1F81     		strh	r7, [r3, #8]	@ movhi
 1900              		.loc 1 207 0
 1901 0302 5F81     		strh	r7, [r3, #10]	@ movhi
 1902              		.loc 1 209 0
 1903 0304 DA81     		strh	r2, [r3, #14]	@ movhi
 1904              		.loc 1 212 0
 1905 0306 4846     		mov	r0, r9
 1906 0308 09B0     		add	sp, sp, #36
 1907 030a BDE8F08F 		pop	{r4, r5, r6, r7, r8, r9, sl, fp, pc}
 1908              		.cfi_endproc
 1909              	.LFE135:
 1910              		.size	gdisp_lld_init, .-gdisp_lld_init
 1911 030e 00BF     		.section	.text.gdisp_lld_draw_pixel,"ax",%progbits
 1912              		.align	2
 1913              		.p2align 4,,15
 1914              		.global	gdisp_lld_draw_pixel
 1915              		.thumb
 1916              		.thumb_func
 1917              		.type	gdisp_lld_draw_pixel, %function
 1918              	gdisp_lld_draw_pixel:
 1919              	.LFB136:
 1920              		.loc 1 223 0
 1921              		.cfi_startproc
 1922              		@ args = 0, pretend = 0, frame = 0
 1923              		@ frame_needed = 0, uses_anonymous_args = 0
 1924              		@ link register save eliminated.
 1925              	.LVL176:
 1926              		.loc 1 225 0
 1927 0000 2B4B     		ldr	r3, .L41
 1928              		.loc 1 223 0
 1929 0002 30B4     		push	{r4, r5}
 1930              	.LCFI4:
 1931              		.cfi_def_cfa_offset 8
 1932              		.cfi_offset 4, -8
 1933              		.cfi_offset 5, -4
 1934              		.loc 1 225 0
 1935 0004 B3F90840 		ldrsh	r4, [r3, #8]
 1936 0008 8442     		cmp	r4, r0
ARM GAS  /tmp/ccLrOMZj.s 			page 35


 1937 000a 0BDC     		bgt	.L30
 1938              		.loc 1 225 0 is_stmt 0 discriminator 2
 1939 000c B3F90A40 		ldrsh	r4, [r3, #10]
 1940 0010 8C42     		cmp	r4, r1
 1941 0012 07DC     		bgt	.L30
 1942              		.loc 1 225 0 discriminator 1
 1943 0014 B3F90C40 		ldrsh	r4, [r3, #12]
 1944 0018 8442     		cmp	r4, r0
 1945 001a 03DD     		ble	.L30
 1946              	.LVL177:
 1947              	.LBB1126:
 1948              	.LBB1127:
 1949              		.loc 1 225 0
 1950 001c B3F90E40 		ldrsh	r4, [r3, #14]
 1951 0020 8C42     		cmp	r4, r1
 1952 0022 01DC     		bgt	.L40
 1953              	.LVL178:
 1954              	.L30:
 1955              	.LBE1127:
 1956              	.LBE1126:
 1957              		.loc 1 232 0 is_stmt 1
 1958 0024 30BC     		pop	{r4, r5}
 1959 0026 7047     		bx	lr
 1960              	.LVL179:
 1961              	.L40:
 1962              	.LBB1181:
 1963              	.LBB1180:
 1964              	.LBB1128:
 1965              	.LBB1129:
 1966              		.loc 1 55 0
 1967 0028 1B79     		ldrb	r3, [r3, #4]	@ zero_extendqisi2
 1968 002a 032B     		cmp	r3, #3
 1969 002c 16D8     		bhi	.L32
 1970 002e DFE803F0 		tbb	[pc, r3]
 1971              	.L37:
 1972 0032 38       		.byte	(.L33-.L37)/2
 1973 0033 2D       		.byte	(.L34-.L37)/2
 1974 0034 02       		.byte	(.L35-.L37)/2
 1975 0035 1E       		.byte	(.L36-.L37)/2
 1976              		.align	1
 1977              	.L35:
 1978              	.LVL180:
 1979              		.loc 1 58 0
 1980 0036 C1F59F71 		rsb	r1, r1, #318
 1981              	.LVL181:
 1982              	.LBB1130:
 1983              	.LBB1131:
 1984              		.loc 2 153 0
 1985 003a 0023     		movs	r3, #0
 1986              	.LBE1131:
 1987              	.LBE1130:
 1988              		.loc 1 58 0
 1989 003c 0131     		adds	r1, r1, #1
 1990              	.LBB1133:
 1991              	.LBB1134:
 1992              		.loc 2 144 0
 1993 003e 4FF0C044 		mov	r4, #1610612736
ARM GAS  /tmp/ccLrOMZj.s 			page 36


 1994              	.LBE1134:
 1995              	.LBE1133:
 1996              	.LBB1135:
 1997              	.LBB1132:
 1998              		.loc 2 153 0
 1999 0042 C6F20203 		movt	r3, 24578
 2000              	.LBE1132:
 2001              	.LBE1135:
 2002              		.loc 1 57 0
 2003 0046 C0F1EF00 		rsb	r0, r0, #239
 2004              	.LVL182:
 2005              	.L38:
 2006              		.loc 1 62 0
 2007 004a CD05     		lsls	r5, r1, #23
 2008              		.loc 1 61 0
 2009 004c C0B2     		uxtb	r0, r0
 2010              	.LVL183:
 2011              		.loc 1 62 0
 2012 004e E90D     		lsrs	r1, r5, #23
 2013              	.LBB1136:
 2014              	.LBB1137:
 2015              		.loc 2 144 0
 2016 0050 4E25     		movs	r5, #78
 2017 0052 2580     		strh	r5, [r4, #0]	@ movhi
 2018              	.LBE1137:
 2019              	.LBE1136:
 2020              	.LBB1139:
 2021              	.LBB1140:
 2022              		.loc 2 153 0
 2023 0054 1880     		strh	r0, [r3, #0]	@ movhi
 2024              	.LVL184:
 2025              	.LBE1140:
 2026              	.LBE1139:
 2027              	.LBB1143:
 2028              	.LBB1144:
 2029              		.loc 2 144 0
 2030 0056 4F20     		movs	r0, #79
 2031              	.LVL185:
 2032 0058 2080     		strh	r0, [r4, #0]	@ movhi
 2033              	.LBE1144:
 2034              	.LBE1143:
 2035              	.LBB1145:
 2036              	.LBB1146:
 2037              		.loc 2 153 0
 2038 005a 1980     		strh	r1, [r3, #0]	@ movhi
 2039              	.LVL186:
 2040              	.L32:
 2041              	.LBE1146:
 2042              	.LBE1145:
 2043              	.LBE1129:
 2044              	.LBE1128:
 2045              	.LBB1173:
 2046              	.LBB1174:
 2047 005c 0023     		movs	r3, #0
 2048 005e C6F20203 		movt	r3, 24578
 2049              	.LBE1174:
 2050              	.LBE1173:
ARM GAS  /tmp/ccLrOMZj.s 			page 37


 2051              	.LBB1176:
 2052              	.LBB1177:
 2053              		.loc 2 144 0
 2054 0062 4FF0C041 		mov	r1, #1610612736
 2055 0066 2220     		movs	r0, #34
 2056 0068 0880     		strh	r0, [r1, #0]	@ movhi
 2057              	.LVL187:
 2058              	.LBE1177:
 2059              	.LBE1176:
 2060              	.LBB1178:
 2061              	.LBB1175:
 2062              		.loc 2 153 0
 2063 006a 1A80     		strh	r2, [r3, #0]	@ movhi
 2064 006c DAE7     		b	.L30
 2065              	.LVL188:
 2066              	.L36:
 2067              	.LBE1175:
 2068              	.LBE1178:
 2069              	.LBB1179:
 2070              	.LBB1172:
 2071              	.LBB1147:
 2072              	.LBB1148:
 2073 006e 0023     		movs	r3, #0
 2074              	.LBE1148:
 2075              	.LBE1147:
 2076              	.LBB1150:
 2077              	.LBB1151:
 2078              		.loc 2 144 0
 2079 0070 4FF0C044 		mov	r4, #1610612736
 2080              	.LBE1151:
 2081              	.LBE1150:
 2082              	.LBB1152:
 2083              	.LBB1149:
 2084              		.loc 2 153 0
 2085 0074 C6F20203 		movt	r3, 24578
 2086              	.LVL189:
 2087              	.L39:
 2088              	.LBE1149:
 2089              	.LBE1152:
 2090              	.LBB1153:
 2091              	.LBB1154:
 2092              		.loc 1 70 0
 2093 0078 C505     		lsls	r5, r0, #23
 2094              		.loc 1 69 0
 2095 007a C9B2     		uxtb	r1, r1
 2096              	.LVL190:
 2097              		.loc 1 70 0
 2098 007c E80D     		lsrs	r0, r5, #23
 2099              	.LBB1155:
 2100              	.LBB1156:
 2101              		.loc 2 144 0
 2102 007e 4E25     		movs	r5, #78
 2103 0080 2580     		strh	r5, [r4, #0]	@ movhi
 2104              	.LBE1156:
 2105              	.LBE1155:
 2106              	.LBB1158:
 2107              	.LBB1159:
ARM GAS  /tmp/ccLrOMZj.s 			page 38


 2108              		.loc 2 153 0
 2109 0082 1980     		strh	r1, [r3, #0]	@ movhi
 2110              	.LVL191:
 2111              	.LBE1159:
 2112              	.LBE1158:
 2113              	.LBB1162:
 2114              	.LBB1163:
 2115              		.loc 2 144 0
 2116 0084 4F21     		movs	r1, #79
 2117              	.LVL192:
 2118 0086 2180     		strh	r1, [r4, #0]	@ movhi
 2119              	.LBE1163:
 2120              	.LBE1162:
 2121              	.LBB1164:
 2122              	.LBB1165:
 2123              		.loc 2 153 0
 2124 0088 1880     		strh	r0, [r3, #0]	@ movhi
 2125 008a E7E7     		b	.L32
 2126              	.LVL193:
 2127              	.L34:
 2128              	.LBE1165:
 2129              	.LBE1164:
 2130              		.loc 1 70 0
 2131 008c C0F59F70 		rsb	r0, r0, #318
 2132              	.LVL194:
 2133              	.LBB1166:
 2134              	.LBB1160:
 2135              		.loc 2 153 0
 2136 0090 0023     		movs	r3, #0
 2137              	.LBE1160:
 2138              	.LBE1166:
 2139              		.loc 1 70 0
 2140 0092 0130     		adds	r0, r0, #1
 2141              	.LBB1167:
 2142              	.LBB1157:
 2143              		.loc 2 144 0
 2144 0094 4FF0C044 		mov	r4, #1610612736
 2145              	.LBE1157:
 2146              	.LBE1167:
 2147              	.LBB1168:
 2148              	.LBB1161:
 2149              		.loc 2 153 0
 2150 0098 C6F20203 		movt	r3, 24578
 2151              	.LBE1161:
 2152              	.LBE1168:
 2153              		.loc 1 69 0
 2154 009c C1F1EF01 		rsb	r1, r1, #239
 2155              	.LVL195:
 2156 00a0 EAE7     		b	.L39
 2157              	.LVL196:
 2158              	.L33:
 2159              	.LBE1154:
 2160              	.LBE1153:
 2161              	.LBB1169:
 2162              	.LBB1141:
 2163              		.loc 2 153 0
 2164 00a2 0023     		movs	r3, #0
ARM GAS  /tmp/ccLrOMZj.s 			page 39


 2165              	.LBE1141:
 2166              	.LBE1169:
 2167              	.LBB1170:
 2168              	.LBB1138:
 2169              		.loc 2 144 0
 2170 00a4 4FF0C044 		mov	r4, #1610612736
 2171              	.LBE1138:
 2172              	.LBE1170:
 2173              	.LBB1171:
 2174              	.LBB1142:
 2175              		.loc 2 153 0
 2176 00a8 C6F20203 		movt	r3, 24578
 2177 00ac CDE7     		b	.L38
 2178              	.L42:
 2179 00ae 00BF     		.align	2
 2180              	.L41:
 2181 00b0 00000000 		.word	.LANCHOR0
 2182              	.LBE1142:
 2183              	.LBE1171:
 2184              	.LBE1172:
 2185              	.LBE1179:
 2186              	.LBE1180:
 2187              	.LBE1181:
 2188              		.cfi_endproc
 2189              	.LFE136:
 2190              		.size	gdisp_lld_draw_pixel, .-gdisp_lld_draw_pixel
 2191 00b4 AFF30080 		.section	.text.gdisp_lld_draw_char,"ax",%progbits
 2191      AFF30080 
 2191      AFF30080 
 2192              		.align	2
 2193              		.p2align 4,,15
 2194              		.global	gdisp_lld_draw_char
 2195              		.thumb
 2196              		.thumb_func
 2197              		.type	gdisp_lld_draw_char, %function
 2198              	gdisp_lld_draw_char:
 2199              	.LFB122:
 2200              		.loc 3 469 0
 2201              		.cfi_startproc
 2202              		@ args = 4, pretend = 0, frame = 48
 2203              		@ frame_needed = 0, uses_anonymous_args = 0
 2204              	.LVL197:
 2205 0000 2DE9F04F 		push	{r4, r5, r6, r7, r8, r9, sl, fp, lr}
 2206              	.LCFI5:
 2207              		.cfi_def_cfa_offset 36
 2208              		.cfi_offset 4, -36
 2209              		.cfi_offset 5, -32
 2210              		.cfi_offset 6, -28
 2211              		.cfi_offset 7, -24
 2212              		.cfi_offset 8, -20
 2213              		.cfi_offset 9, -16
 2214              		.cfi_offset 10, -12
 2215              		.cfi_offset 11, -8
 2216              		.cfi_offset 14, -4
 2217              		.loc 3 476 0
 2218 0004 9C7A     		ldrb	r4, [r3, #10]	@ zero_extendqisi2
 2219              		.loc 3 469 0
ARM GAS  /tmp/ccLrOMZj.s 			page 40


 2220 0006 8DB0     		sub	sp, sp, #52
 2221              	.LCFI6:
 2222              		.cfi_def_cfa_offset 88
 2223              		.loc 3 476 0
 2224 0008 9442     		cmp	r4, r2
 2225              		.loc 3 469 0
 2226 000a BDF85860 		ldrh	r6, [sp, #88]
 2227 000e 0591     		str	r1, [sp, #20]
 2228              		.loc 3 476 0
 2229 0010 00F2A380 		bhi	.L43
 2230              		.loc 3 476 0 is_stmt 0 discriminator 1
 2231 0014 D97A     		ldrb	r1, [r3, #11]	@ zero_extendqisi2
 2232              	.LVL198:
 2233 0016 9142     		cmp	r1, r2
 2234 0018 C0F09F80 		bcc	.L43
 2235 001c 121B     		subs	r2, r2, r4
 2236              	.LVL199:
 2237 001e 1969     		ldr	r1, [r3, #16]
 2238 0020 895C     		ldrb	r1, [r1, r2]	@ zero_extendqisi2
 2239              	.LVL200:
 2240              		.loc 3 477 0 is_stmt 1 discriminator 1
 2241 0022 0029     		cmp	r1, #0
 2242 0024 00F09980 		beq	.L43
 2243              		.loc 3 479 0
 2244 0028 1C7B     		ldrb	r4, [r3, #12]	@ zero_extendqisi2
 2245              		.loc 3 480 0
 2246 002a 5F7B     		ldrb	r7, [r3, #13]	@ zero_extendqisi2
 2247              		.loc 3 484 0
 2248 002c 5D69     		ldr	r5, [r3, #20]
 2249              		.loc 3 479 0
 2250 002e 0494     		str	r4, [sp, #16]
 2251              	.LVL201:
 2252              		.loc 3 480 0
 2253 0030 0097     		str	r7, [sp, #0]
 2254              	.LVL202:
 2255              		.loc 3 484 0
 2256 0032 35F81240 		ldrh	r4, [r5, r2, lsl #1]
 2257              		.loc 3 481 0
 2258 0036 1F79     		ldrb	r7, [r3, #4]	@ zero_extendqisi2
 2259              		.loc 3 484 0
 2260 0038 9A69     		ldr	r2, [r3, #24]
 2261              		.loc 3 482 0
 2262 003a 049B     		ldr	r3, [sp, #16]
 2263              	.LVL203:
 2264 003c 03FB01F1 		mul	r1, r3, r1
 2265              	.LVL204:
 2266              		.loc 3 487 0
 2267 0040 09B2     		sxth	r1, r1
 2268              		.loc 3 481 0
 2269 0042 009B     		ldr	r3, [sp, #0]
 2270              		.loc 3 487 0
 2271 0044 0B91     		str	r1, [sp, #44]
 2272              		.loc 3 484 0
 2273 0046 02EB4402 		add	r2, r2, r4, lsl #1
 2274              		.loc 3 487 0
 2275 004a 0029     		cmp	r1, #0
 2276              		.loc 3 481 0
ARM GAS  /tmp/ccLrOMZj.s 			page 41


 2277 004c 07FB03F3 		mul	r3, r7, r3
 2278              	.LVL205:
 2279              		.loc 3 484 0
 2280 0050 0892     		str	r2, [sp, #32]
 2281              	.LVL206:
 2282              		.loc 3 487 0
 2283 0052 40F38280 		ble	.L43
 2284 0056 049C     		ldr	r4, [sp, #16]
 2285              		.loc 3 469 0
 2286 0058 80B2     		uxth	r0, r0
 2287 005a 2118     		adds	r1, r4, r0
 2288 005c 009C     		ldr	r4, [sp, #0]
 2289 005e 0A90     		str	r0, [sp, #40]
 2290 0060 8AB2     		uxth	r2, r1
 2291              	.LVL207:
 2292 0062 0020     		movs	r0, #0
 2293              	.LVL208:
 2294 0064 1BB2     		sxth	r3, r3
 2295              	.LVL209:
 2296 0066 0992     		str	r2, [sp, #36]
 2297 0068 9146     		mov	r9, r2
 2298 006a 0790     		str	r0, [sp, #28]
 2299 006c 0393     		str	r3, [sp, #12]
 2300 006e 0FFA84FB 		sxth	fp, r4
 2301              	.LVL210:
 2302              	.L52:
 2303              		.loc 3 489 0
 2304 0072 0899     		ldr	r1, [sp, #32]
 2305              		.loc 3 492 0
 2306 0074 0398     		ldr	r0, [sp, #12]
 2307              		.loc 3 489 0
 2308 0076 31F8022B 		ldrh	r2, [r1], #2
 2309              		.loc 3 492 0
 2310 007a 0028     		cmp	r0, #0
 2311              		.loc 3 489 0
 2312 007c 0891     		str	r1, [sp, #32]
 2313 007e 0192     		str	r2, [sp, #4]
 2314              	.LVL211:
 2315              		.loc 3 492 0
 2316 0080 5BDD     		ble	.L46
 2317              		.loc 3 469 0
 2318 0082 0A9B     		ldr	r3, [sp, #40]
 2319 0084 079C     		ldr	r4, [sp, #28]
 2320 0086 1919     		adds	r1, r3, r4
 2321              	.LVL212:
 2322              		.loc 3 492 0
 2323 0088 0022     		movs	r2, #0
 2324              		.loc 3 469 0
 2325 008a 88B2     		uxth	r0, r1
 2326              		.loc 3 492 0
 2327 008c 0292     		str	r2, [sp, #8]
 2328              		.loc 3 469 0
 2329 008e 0690     		str	r0, [sp, #24]
 2330              	.LVL213:
 2331              	.L51:
 2332              		.loc 3 493 0
 2333 0090 019B     		ldr	r3, [sp, #4]
ARM GAS  /tmp/ccLrOMZj.s 			page 42


 2334 0092 DB07     		lsls	r3, r3, #31
 2335 0094 44D5     		bpl	.L47
 2336              	.LVL214:
 2337              		.loc 3 494 0 discriminator 1
 2338 0096 049C     		ldr	r4, [sp, #16]
 2339 0098 002C     		cmp	r4, #0
 2340 009a 41D0     		beq	.L47
 2341              		.loc 3 469 0
 2342 009c 029D     		ldr	r5, [sp, #8]
 2343 009e 059F     		ldr	r7, [sp, #20]
 2344 00a0 E919     		adds	r1, r5, r7
 2345 00a2 069F     		ldr	r7, [sp, #24]
 2346 00a4 8DB2     		uxth	r5, r1
 2347              	.LVL215:
 2348              	.L48:
 2349              		.loc 3 495 0 discriminator 1
 2350 00a6 009A     		ldr	r2, [sp, #0]
 2351 00a8 002A     		cmp	r2, #0
 2352 00aa 35D0     		beq	.L50
 2353 00ac 3CB2     		sxth	r4, r7
 2354              		.loc 3 495 0 is_stmt 0
 2355 00ae 4FF0010A 		mov	sl, #1
 2356              		.loc 3 496 0 is_stmt 1
 2357 00b2 2046     		mov	r0, r4
 2358 00b4 29B2     		sxth	r1, r5
 2359 00b6 3246     		mov	r2, r6
 2360 00b8 0BF1FF38 		add	r8, fp, #-1
 2361 00bc FFF7FEFF 		bl	gdisp_lld_draw_pixel
 2362              	.LVL216:
 2363              		.loc 3 495 0
 2364 00c0 D345     		cmp	fp, sl
 2365 00c2 08EA0A08 		and	r8, r8, sl
 2366 00c6 27DD     		ble	.L50
 2367 00c8 B8F1000F 		cmp	r8, #0
 2368 00cc 0AD0     		beq	.L49
 2369              		.loc 3 469 0
 2370 00ce 05EB0A03 		add	r3, r5, sl
 2371              		.loc 3 496 0
 2372 00d2 2046     		mov	r0, r4
 2373 00d4 19B2     		sxth	r1, r3
 2374 00d6 3246     		mov	r2, r6
 2375              		.loc 3 495 0
 2376 00d8 4FF0020A 		mov	sl, #2
 2377              	.LVL217:
 2378              		.loc 3 496 0
 2379 00dc FFF7FEFF 		bl	gdisp_lld_draw_pixel
 2380              	.LVL218:
 2381              		.loc 3 495 0
 2382 00e0 D345     		cmp	fp, sl
 2383 00e2 19DD     		ble	.L50
 2384              	.LVL219:
 2385              	.L49:
 2386              		.loc 3 469 0 discriminator 2
 2387 00e4 05EB0A01 		add	r1, r5, sl
 2388              		.loc 3 495 0 discriminator 2
 2389 00e8 0AF1010A 		add	sl, sl, #1
 2390 00ec 1FFA8AFA 		uxth	sl, sl
ARM GAS  /tmp/ccLrOMZj.s 			page 43


 2391              		.loc 3 496 0 discriminator 2
 2392 00f0 2046     		mov	r0, r4
 2393 00f2 09B2     		sxth	r1, r1
 2394 00f4 3246     		mov	r2, r6
 2395 00f6 FFF7FEFF 		bl	gdisp_lld_draw_pixel
 2396              	.LVL220:
 2397              		.loc 3 469 0 discriminator 2
 2398 00fa 05EB0A02 		add	r2, r5, sl
 2399              		.loc 3 496 0 discriminator 2
 2400 00fe 2046     		mov	r0, r4
 2401 0100 11B2     		sxth	r1, r2
 2402 0102 3246     		mov	r2, r6
 2403 0104 FFF7FEFF 		bl	gdisp_lld_draw_pixel
 2404              	.LVL221:
 2405              		.loc 3 495 0 discriminator 2
 2406 0108 0AF10100 		add	r0, sl, #1
 2407 010c 1FFA80FA 		uxth	sl, r0
 2408              	.LVL222:
 2409 0110 0FFA8AF3 		sxth	r3, sl
 2410 0114 9B45     		cmp	fp, r3
 2411 0116 E5DC     		bgt	.L49
 2412              	.LVL223:
 2413              	.L50:
 2414 0118 0137     		adds	r7, r7, #1
 2415 011a BFB2     		uxth	r7, r7
 2416              		.loc 3 494 0
 2417 011c 4F45     		cmp	r7, r9
 2418 011e C2D1     		bne	.L48
 2419              	.L47:
 2420              		.loc 3 469 0
 2421 0120 0299     		ldr	r1, [sp, #8]
 2422 0122 009C     		ldr	r4, [sp, #0]
 2423 0124 6218     		adds	r2, r4, r1
 2424 0126 90B2     		uxth	r0, r2
 2425              		.loc 3 492 0
 2426 0128 01B2     		sxth	r1, r0
 2427              		.loc 3 469 0
 2428 012a 83B2     		uxth	r3, r0
 2429              		.loc 3 492 0
 2430 012c 019C     		ldr	r4, [sp, #4]
 2431 012e 0398     		ldr	r0, [sp, #12]
 2432              		.loc 3 469 0
 2433 0130 0293     		str	r3, [sp, #8]
 2434              	.LVL224:
 2435              		.loc 3 492 0
 2436 0132 6208     		lsrs	r2, r4, #1
 2437 0134 8842     		cmp	r0, r1
 2438 0136 0192     		str	r2, [sp, #4]
 2439 0138 AADC     		bgt	.L51
 2440              	.LVL225:
 2441              	.L46:
 2442 013a 0499     		ldr	r1, [sp, #16]
 2443              		.loc 3 469 0
 2444 013c 099B     		ldr	r3, [sp, #36]
 2445 013e 049C     		ldr	r4, [sp, #16]
 2446 0140 079A     		ldr	r2, [sp, #28]
 2447 0142 8944     		add	r9, r9, r1
ARM GAS  /tmp/ccLrOMZj.s 			page 44


 2448 0144 1FFA89F9 		uxth	r9, r9
 2449 0148 C3EB0901 		rsb	r1, r3, r9
 2450 014c A018     		adds	r0, r4, r2
 2451              		.loc 3 487 0
 2452 014e 0B9C     		ldr	r4, [sp, #44]
 2453 0150 0BB2     		sxth	r3, r1
 2454 0152 9C42     		cmp	r4, r3
 2455              		.loc 3 469 0
 2456 0154 81B2     		uxth	r1, r0
 2457 0156 0791     		str	r1, [sp, #28]
 2458              	.LVL226:
 2459              		.loc 3 487 0
 2460 0158 8BDC     		bgt	.L52
 2461              	.LVL227:
 2462              	.L43:
 2463              		.loc 3 500 0
 2464 015a 0DB0     		add	sp, sp, #52
 2465 015c BDE8F08F 		pop	{r4, r5, r6, r7, r8, r9, sl, fp, pc}
 2466              		.cfi_endproc
 2467              	.LFE122:
 2468              		.size	gdisp_lld_draw_char, .-gdisp_lld_draw_char
 2469              		.section	.text.gdisp_lld_draw_circle,"ax",%progbits
 2470              		.align	2
 2471              		.p2align 4,,15
 2472              		.global	gdisp_lld_draw_circle
 2473              		.thumb
 2474              		.thumb_func
 2475              		.type	gdisp_lld_draw_circle, %function
 2476              	gdisp_lld_draw_circle:
 2477              	.LFB120:
 2478              		.loc 3 170 0
 2479              		.cfi_startproc
 2480              		@ args = 0, pretend = 0, frame = 24
 2481              		@ frame_needed = 0, uses_anonymous_args = 0
 2482              	.LVL228:
 2483 0000 2DE9F04F 		push	{r4, r5, r6, r7, r8, r9, sl, fp, lr}
 2484              	.LCFI7:
 2485              		.cfi_def_cfa_offset 36
 2486              		.cfi_offset 4, -36
 2487              		.cfi_offset 5, -32
 2488              		.cfi_offset 6, -28
 2489              		.cfi_offset 7, -24
 2490              		.cfi_offset 8, -20
 2491              		.cfi_offset 9, -16
 2492              		.cfi_offset 10, -12
 2493              		.cfi_offset 11, -8
 2494              		.cfi_offset 14, -4
 2495              		.loc 3 175 0
 2496 0004 C2F10105 		rsb	r5, r2, #1
 2497              		.loc 3 170 0
 2498 0008 87B0     		sub	sp, sp, #28
 2499              	.LCFI8:
 2500              		.cfi_def_cfa_offset 64
 2501              		.loc 3 170 0
 2502 000a 1C46     		mov	r4, r3
 2503 000c 1FFA80F8 		uxth	r8, r0
 2504              		.loc 3 175 0
ARM GAS  /tmp/ccLrOMZj.s 			page 45


 2505 0010 ABB2     		uxth	r3, r5
 2506              	.LVL229:
 2507 0012 8FB2     		uxth	r7, r1
 2508 0014 0020     		movs	r0, #0
 2509              	.LVL230:
 2510 0016 11B2     		sxth	r1, r2
 2511              	.LVL231:
 2512              		.loc 3 174 0
 2513 0018 0392     		str	r2, [sp, #12]
 2514              		.loc 3 175 0
 2515 001a 0493     		str	r3, [sp, #16]
 2516              	.LVL232:
 2517 001c 0290     		str	r0, [sp, #8]
 2518 001e 0591     		str	r1, [sp, #20]
 2519 0020 17E0     		b	.L80
 2520              	.LVL233:
 2521              	.L78:
 2522              		.loc 3 189 0
 2523 0022 059A     		ldr	r2, [sp, #20]
 2524 0024 0398     		ldr	r0, [sp, #12]
 2525 0026 049B     		ldr	r3, [sp, #16]
 2526 0028 0299     		ldr	r1, [sp, #8]
 2527 002a 0533     		adds	r3, r3, #5
 2528 002c 891A     		subs	r1, r1, r2
 2529 002e 421E     		subs	r2, r0, #1
 2530 0030 03EB4101 		add	r1, r3, r1, lsl #1
 2531 0034 93B2     		uxth	r3, r2
 2532              		.loc 3 170 0
 2533 0036 0135     		adds	r5, r5, #1
 2534 0038 1AB2     		sxth	r2, r3
 2535              		.loc 3 189 0
 2536 003a 89B2     		uxth	r1, r1
 2537 003c 0393     		str	r3, [sp, #12]
 2538              		.loc 3 170 0
 2539 003e A8B2     		uxth	r0, r5
 2540 0040 0592     		str	r2, [sp, #20]
 2541              		.loc 3 189 0
 2542 0042 0491     		str	r1, [sp, #16]
 2543              	.LVL234:
 2544              	.L79:
 2545              		.loc 3 190 0
 2546 0044 05B2     		sxth	r5, r0
 2547 0046 0299     		ldr	r1, [sp, #8]
 2548 0048 0598     		ldr	r0, [sp, #20]
 2549              	.LVL235:
 2550 004a 4B1C     		adds	r3, r1, #1
 2551 004c 8542     		cmp	r5, r0
 2552 004e 0293     		str	r3, [sp, #8]
 2553 0050 58DC     		bgt	.L82
 2554              	.LVL236:
 2555              	.L80:
 2556              		.loc 3 170 0
 2557 0052 029A     		ldr	r2, [sp, #8]
 2558              		.loc 3 178 0
 2559 0054 039E     		ldr	r6, [sp, #12]
 2560              		.loc 3 170 0
 2561 0056 95B2     		uxth	r5, r2
ARM GAS  /tmp/ccLrOMZj.s 			page 46


 2562              		.loc 3 178 0
 2563 0058 B6B2     		uxth	r6, r6
 2564 005a 06EB070A 		add	sl, r6, r7
 2565              		.loc 3 170 0
 2566 005e 08EB0503 		add	r3, r8, r5
 2567              		.loc 3 178 0
 2568 0062 1BB2     		sxth	r3, r3
 2569 0064 0FFA8AFA 		sxth	sl, sl
 2570 0068 1846     		mov	r0, r3
 2571 006a 5146     		mov	r1, sl
 2572 006c 2246     		mov	r2, r4
 2573 006e 0093     		str	r3, [sp, #0]
 2574              		.loc 3 170 0
 2575 0070 07EB0509 		add	r9, r7, r5
 2576              		.loc 3 178 0
 2577 0074 FFF7FEFF 		bl	gdisp_lld_draw_pixel
 2578              	.LVL237:
 2579              		.loc 3 179 0
 2580 0078 06EB080C 		add	ip, r6, r8
 2581 007c 0FFA8CFB 		sxth	fp, ip
 2582 0080 0FFA89F9 		sxth	r9, r9
 2583 0084 5846     		mov	r0, fp
 2584 0086 4946     		mov	r1, r9
 2585 0088 2246     		mov	r2, r4
 2586 008a CDF804B0 		str	fp, [sp, #4]
 2587 008e FFF7FEFF 		bl	gdisp_lld_draw_pixel
 2588              	.LVL238:
 2589              		.loc 3 170 0
 2590 0092 C5EB0800 		rsb	r0, r5, r8
 2591              		.loc 3 180 0
 2592 0096 0FFA80FB 		sxth	fp, r0
 2593 009a 5146     		mov	r1, sl
 2594 009c 5846     		mov	r0, fp
 2595 009e 2246     		mov	r2, r4
 2596 00a0 FFF7FEFF 		bl	gdisp_lld_draw_pixel
 2597              	.LVL239:
 2598              		.loc 3 181 0
 2599 00a4 C6EB0801 		rsb	r1, r6, r8
 2600 00a8 0FFA81FA 		sxth	sl, r1
 2601 00ac 5046     		mov	r0, sl
 2602 00ae 4946     		mov	r1, r9
 2603 00b0 2246     		mov	r2, r4
 2604 00b2 FFF7FEFF 		bl	gdisp_lld_draw_pixel
 2605              	.LVL240:
 2606              		.loc 3 182 0
 2607 00b6 DDF804C0 		ldr	ip, [sp, #4]
 2608              		.loc 3 170 0
 2609 00ba 7A1B     		subs	r2, r7, r5
 2610              		.loc 3 182 0
 2611 00bc 0FFA82F9 		sxth	r9, r2
 2612 00c0 6046     		mov	r0, ip
 2613 00c2 4946     		mov	r1, r9
 2614 00c4 2246     		mov	r2, r4
 2615 00c6 FFF7FEFF 		bl	gdisp_lld_draw_pixel
 2616              	.LVL241:
 2617              		.loc 3 183 0
 2618 00ca BE1B     		subs	r6, r7, r6
ARM GAS  /tmp/ccLrOMZj.s 			page 47


 2619 00cc 009B     		ldr	r3, [sp, #0]
 2620 00ce 36B2     		sxth	r6, r6
 2621 00d0 1846     		mov	r0, r3
 2622 00d2 3146     		mov	r1, r6
 2623 00d4 2246     		mov	r2, r4
 2624 00d6 FFF7FEFF 		bl	gdisp_lld_draw_pixel
 2625              	.LVL242:
 2626              		.loc 3 184 0
 2627 00da 5846     		mov	r0, fp
 2628 00dc 3146     		mov	r1, r6
 2629 00de 2246     		mov	r2, r4
 2630 00e0 FFF7FEFF 		bl	gdisp_lld_draw_pixel
 2631              	.LVL243:
 2632              		.loc 3 185 0
 2633 00e4 5046     		mov	r0, sl
 2634 00e6 2246     		mov	r2, r4
 2635 00e8 4946     		mov	r1, r9
 2636 00ea FFF7FEFF 		bl	gdisp_lld_draw_pixel
 2637              	.LVL244:
 2638              		.loc 3 186 0
 2639 00ee 0498     		ldr	r0, [sp, #16]
 2640 00f0 0204     		lsls	r2, r0, #16
 2641 00f2 96D5     		bpl	.L78
 2642              		.loc 3 187 0
 2643 00f4 C31C     		adds	r3, r0, #3
 2644 00f6 03EB4500 		add	r0, r3, r5, lsl #1
 2645 00fa 82B2     		uxth	r2, r0
 2646              		.loc 3 170 0
 2647 00fc 0135     		adds	r5, r5, #1
 2648              		.loc 3 187 0
 2649 00fe 0492     		str	r2, [sp, #16]
 2650              		.loc 3 170 0
 2651 0100 A8B2     		uxth	r0, r5
 2652              	.LVL245:
 2653 0102 9FE7     		b	.L79
 2654              	.LVL246:
 2655              	.L82:
 2656              		.loc 3 191 0
 2657 0104 07B0     		add	sp, sp, #28
 2658 0106 BDE8F08F 		pop	{r4, r5, r6, r7, r8, r9, sl, fp, pc}
 2659              		.cfi_endproc
 2660              	.LFE120:
 2661              		.size	gdisp_lld_draw_circle, .-gdisp_lld_draw_circle
 2662 010a 00BFAFF3 		.section	.text.gdisp_lld_clear,"ax",%progbits
 2662      0080
 2663              		.align	2
 2664              		.p2align 4,,15
 2665              		.global	gdisp_lld_clear
 2666              		.thumb
 2667              		.thumb_func
 2668              		.type	gdisp_lld_clear, %function
 2669              	gdisp_lld_clear:
 2670              	.LFB137:
 2671              		.loc 1 260 0
 2672              		.cfi_startproc
 2673              		@ args = 0, pretend = 0, frame = 0
 2674              		@ frame_needed = 0, uses_anonymous_args = 0
ARM GAS  /tmp/ccLrOMZj.s 			page 48


 2675              	.LVL247:
 2676 0000 38B5     		push	{r3, r4, r5, lr}
 2677              	.LCFI9:
 2678              		.cfi_def_cfa_offset 16
 2679              		.cfi_offset 3, -16
 2680              		.cfi_offset 4, -12
 2681              		.cfi_offset 5, -8
 2682              		.cfi_offset 14, -4
 2683              	.LBB1248:
 2684              	.LBB1249:
 2685              		.loc 1 115 0
 2686 0002 1D4D     		ldr	r5, .L93
 2687              	.LBE1249:
 2688              	.LBE1248:
 2689              		.loc 1 260 0
 2690 0004 0446     		mov	r4, r0
 2691              	.LBB1251:
 2692              	.LBB1250:
 2693              		.loc 1 115 0
 2694 0006 0020     		movs	r0, #0
 2695              	.LVL248:
 2696 0008 B5F90230 		ldrsh	r3, [r5, #2]
 2697 000c B5F90020 		ldrsh	r2, [r5, #0]
 2698 0010 0146     		mov	r1, r0
 2699 0012 FFF7FEFF 		bl	set_viewport
 2700              	.LVL249:
 2701              	.LBE1250:
 2702              	.LBE1251:
 2703              	.LBB1252:
 2704              	.LBB1253:
 2705              		.loc 1 55 0
 2706 0016 2B79     		ldrb	r3, [r5, #4]	@ zero_extendqisi2
 2707 0018 032B     		cmp	r3, #3
 2708 001a 0FD8     		bhi	.L84
 2709 001c DFE803F0 		tbb	[pc, r3]
 2710              	.L89:
 2711 0020 02       		.byte	(.L88-.L89)/2
 2712 0021 1C       		.byte	(.L86-.L89)/2
 2713 0022 1C       		.byte	(.L86-.L89)/2
 2714 0023 02       		.byte	(.L88-.L89)/2
 2715              		.align	1
 2716              	.L88:
 2717              	.LVL250:
 2718              	.LBB1254:
 2719              	.LBB1255:
 2720              		.loc 2 144 0
 2721 0024 4FF0C041 		mov	r1, #1610612736
 2722              	.LBE1255:
 2723              	.LBE1254:
 2724              	.LBB1257:
 2725              	.LBB1258:
 2726              		.loc 2 153 0
 2727 0028 0023     		movs	r3, #0
 2728 002a C6F20203 		movt	r3, 24578
 2729              	.LBE1258:
 2730              	.LBE1257:
 2731              	.LBB1261:
ARM GAS  /tmp/ccLrOMZj.s 			page 49


 2732              	.LBB1256:
 2733              		.loc 2 144 0
 2734 002e 4E20     		movs	r0, #78
 2735 0030 0880     		strh	r0, [r1, #0]	@ movhi
 2736              	.LVL251:
 2737              	.LBE1256:
 2738              	.LBE1261:
 2739              	.LBB1262:
 2740              	.LBB1259:
 2741              		.loc 2 153 0
 2742 0032 0022     		movs	r2, #0
 2743              	.LBE1259:
 2744              	.LBE1262:
 2745              	.LBB1263:
 2746              	.LBB1264:
 2747              		.loc 2 144 0
 2748 0034 4F20     		movs	r0, #79
 2749              	.LBE1264:
 2750              	.LBE1263:
 2751              	.LBB1266:
 2752              	.LBB1260:
 2753              		.loc 2 153 0
 2754 0036 1A80     		strh	r2, [r3, #0]	@ movhi
 2755              	.LVL252:
 2756              	.LBE1260:
 2757              	.LBE1266:
 2758              	.LBB1267:
 2759              	.LBB1265:
 2760              		.loc 2 144 0
 2761 0038 0880     		strh	r0, [r1, #0]	@ movhi
 2762              	.LVL253:
 2763              	.LBE1265:
 2764              	.LBE1267:
 2765              	.LBB1268:
 2766              	.LBB1269:
 2767              		.loc 2 153 0
 2768 003a 1A80     		strh	r2, [r3, #0]	@ movhi
 2769              	.LVL254:
 2770              	.L84:
 2771              	.LBE1269:
 2772              	.LBE1268:
 2773              	.LBE1253:
 2774              	.LBE1252:
 2775              	.LBB1288:
 2776              	.LBB1289:
 2777              		.loc 2 144 0
 2778 003c 4FF0C043 		mov	r3, #1610612736
 2779              	.LBE1289:
 2780              	.LBE1288:
 2781              	.LBB1291:
 2782              	.LBB1292:
 2783              		.loc 2 153 0
 2784 0040 0022     		movs	r2, #0
 2785              	.LBE1292:
 2786              	.LBE1291:
 2787              	.LBB1295:
 2788              	.LBB1290:
ARM GAS  /tmp/ccLrOMZj.s 			page 50


 2789              		.loc 2 144 0
 2790 0042 2221     		movs	r1, #34
 2791 0044 1980     		strh	r1, [r3, #0]	@ movhi
 2792              	.LVL255:
 2793 0046 4FF49630 		mov	r0, #76800
 2794              	.LBE1290:
 2795              	.LBE1295:
 2796              	.LBB1296:
 2797              	.LBB1293:
 2798              		.loc 2 153 0
 2799 004a C6F20202 		movt	r2, 24578
 2800              	.LVL256:
 2801              	.L90:
 2802              	.LBE1293:
 2803              	.LBE1296:
 2804              		.loc 1 285 0
 2805 004e 0238     		subs	r0, r0, #2
 2806              	.LBB1297:
 2807              	.LBB1294:
 2808              		.loc 2 153 0
 2809 0050 1480     		strh	r4, [r2, #0]	@ movhi
 2810 0052 1480     		strh	r4, [r2, #0]	@ movhi
 2811              	.LBE1294:
 2812              	.LBE1297:
 2813              		.loc 1 285 0
 2814 0054 FBD1     		bne	.L90
 2815              		.loc 1 291 0
 2816 0056 38BD     		pop	{r3, r4, r5, pc}
 2817              	.LVL257:
 2818              	.L86:
 2819              	.LBB1298:
 2820              	.LBB1287:
 2821              	.LBB1270:
 2822              	.LBB1271:
 2823              	.LBB1272:
 2824              		.loc 2 144 0
 2825 0058 4FF0C042 		mov	r2, #1610612736
 2826              	.LBE1272:
 2827              	.LBE1271:
 2828              	.LBB1274:
 2829              	.LBB1275:
 2830              		.loc 2 153 0
 2831 005c 0020     		movs	r0, #0
 2832 005e C6F20200 		movt	r0, 24578
 2833              	.LBE1275:
 2834              	.LBE1274:
 2835              	.LBB1278:
 2836              	.LBB1273:
 2837              		.loc 2 144 0
 2838 0062 4E21     		movs	r1, #78
 2839 0064 1180     		strh	r1, [r2, #0]	@ movhi
 2840              	.LVL258:
 2841              	.LBE1273:
 2842              	.LBE1278:
 2843              	.LBB1279:
 2844              	.LBB1276:
 2845              		.loc 2 153 0
ARM GAS  /tmp/ccLrOMZj.s 			page 51


 2846 0066 EF23     		movs	r3, #239
 2847              	.LBE1276:
 2848              	.LBE1279:
 2849              	.LBB1280:
 2850              	.LBB1281:
 2851              		.loc 2 144 0
 2852 0068 4F21     		movs	r1, #79
 2853              	.LBE1281:
 2854              	.LBE1280:
 2855              	.LBB1283:
 2856              	.LBB1277:
 2857              		.loc 2 153 0
 2858 006a 0380     		strh	r3, [r0, #0]	@ movhi
 2859              	.LVL259:
 2860              	.LBE1277:
 2861              	.LBE1283:
 2862              	.LBB1284:
 2863              	.LBB1282:
 2864              		.loc 2 144 0
 2865 006c 1180     		strh	r1, [r2, #0]	@ movhi
 2866              	.LVL260:
 2867              	.LBE1282:
 2868              	.LBE1284:
 2869              	.LBB1285:
 2870              	.LBB1286:
 2871              		.loc 2 153 0
 2872 006e 40F23F12 		movw	r2, #319
 2873 0072 0280     		strh	r2, [r0, #0]	@ movhi
 2874 0074 E2E7     		b	.L84
 2875              	.L94:
 2876 0076 00BF     		.align	2
 2877              	.L93:
 2878 0078 00000000 		.word	.LANCHOR0
 2879              	.LBE1286:
 2880              	.LBE1285:
 2881              	.LBE1270:
 2882              	.LBE1287:
 2883              	.LBE1298:
 2884              		.cfi_endproc
 2885              	.LFE137:
 2886              		.size	gdisp_lld_clear, .-gdisp_lld_clear
 2887 007c AFF30080 		.section	.text.gdisp_lld_fill_area,"ax",%progbits
 2888              		.align	2
 2889              		.p2align 4,,15
 2890              		.global	gdisp_lld_fill_area
 2891              		.thumb
 2892              		.thumb_func
 2893              		.type	gdisp_lld_fill_area, %function
 2894              	gdisp_lld_fill_area:
 2895              	.LFB138:
 2896              		.loc 1 305 0
 2897              		.cfi_startproc
 2898              		@ args = 4, pretend = 0, frame = 0
 2899              		@ frame_needed = 0, uses_anonymous_args = 0
 2900              	.LVL261:
 2901 0000 F8B5     		push	{r3, r4, r5, r6, r7, lr}
 2902              	.LCFI10:
ARM GAS  /tmp/ccLrOMZj.s 			page 52


 2903              		.cfi_def_cfa_offset 24
 2904              		.cfi_offset 3, -24
 2905              		.cfi_offset 4, -20
 2906              		.cfi_offset 5, -16
 2907              		.cfi_offset 6, -12
 2908              		.cfi_offset 7, -8
 2909              		.cfi_offset 14, -4
 2910              		.loc 1 309 0
 2911 0002 2A4E     		ldr	r6, .L115
 2912              		.loc 1 305 0
 2913 0004 BDF81870 		ldrh	r7, [sp, #24]
 2914              		.loc 1 309 0
 2915 0008 B6F908C0 		ldrsh	ip, [r6, #8]
 2916 000c 8445     		cmp	ip, r0
 2917              		.loc 1 305 0
 2918 000e 1446     		mov	r4, r2
 2919 0010 1D46     		mov	r5, r3
 2920              		.loc 1 309 0
 2921 0012 04DD     		ble	.L96
 2922              		.loc 1 309 0 is_stmt 0 discriminator 1
 2923 0014 CCEB0000 		rsb	r0, ip, r0
 2924              	.LVL262:
 2925 0018 8418     		adds	r4, r0, r2
 2926 001a 24B2     		sxth	r4, r4
 2927              	.LVL263:
 2928 001c 6046     		mov	r0, ip
 2929              	.LVL264:
 2930              	.L96:
 2931              		.loc 1 310 0 is_stmt 1
 2932 001e B6F90A30 		ldrsh	r3, [r6, #10]
 2933              	.LVL265:
 2934 0022 8B42     		cmp	r3, r1
 2935 0024 03DD     		ble	.L97
 2936              		.loc 1 310 0 is_stmt 0 discriminator 1
 2937 0026 C91A     		subs	r1, r1, r3
 2938              	.LVL266:
 2939 0028 4D19     		adds	r5, r1, r5
 2940 002a 2DB2     		sxth	r5, r5
 2941              	.LVL267:
 2942 002c 1946     		mov	r1, r3
 2943              	.LVL268:
 2944              	.L97:
 2945              		.loc 1 311 0 is_stmt 1
 2946 002e 002C     		cmp	r4, #0
 2947 0030 38DD     		ble	.L95
 2948              		.loc 1 311 0 is_stmt 0 discriminator 2
 2949 0032 002D     		cmp	r5, #0
 2950 0034 36DD     		ble	.L95
 2951              		.loc 1 311 0 discriminator 1
 2952 0036 B289     		ldrh	r2, [r6, #12]
 2953 0038 13B2     		sxth	r3, r2
 2954 003a 9842     		cmp	r0, r3
 2955 003c 32DA     		bge	.L95
 2956 003e 1B4E     		ldr	r6, .L115
 2957 0040 B6F80EC0 		ldrh	ip, [r6, #14]
 2958 0044 0FFA8CF6 		sxth	r6, ip
 2959 0048 B142     		cmp	r1, r6
ARM GAS  /tmp/ccLrOMZj.s 			page 53


 2960 004a 2BDA     		bge	.L95
 2961              		.loc 1 312 0 is_stmt 1
 2962 004c 00EB040E 		add	lr, r0, r4
 2963 0050 9E45     		cmp	lr, r3
 2964 0052 C4BF     		itt	gt
 2965 0054 C0EB0202 		rsbgt	r2, r0, r2
 2966 0058 14B2     		sxthgt	r4, r2
 2967              	.LVL269:
 2968              		.loc 1 313 0
 2969 005a 4A19     		adds	r2, r1, r5
 2970 005c B242     		cmp	r2, r6
 2971 005e C4BF     		itt	gt
 2972 0060 C1EB0C05 		rsbgt	r5, r1, ip
 2973              	.LVL270:
 2974 0064 2DB2     		sxthgt	r5, r5
 2975              	.LVL271:
 2976              		.loc 1 319 0
 2977 0066 2246     		mov	r2, r4
 2978 0068 2B46     		mov	r3, r5
 2979 006a FFF7FEFF 		bl	set_viewport
 2980              	.LVL272:
 2981              	.LBB1299:
 2982              	.LBB1300:
 2983              		.loc 2 144 0
 2984 006e 4FF0C041 		mov	r1, #1610612736
 2985 0072 2220     		movs	r0, #34
 2986              	.LBE1300:
 2987              	.LBE1299:
 2988              		.loc 1 316 0
 2989 0074 05FB04F4 		mul	r4, r5, r4
 2990              	.LVL273:
 2991              	.LBB1302:
 2992              	.LBB1301:
 2993              		.loc 2 144 0
 2994 0078 0880     		strh	r0, [r1, #0]	@ movhi
 2995              	.LVL274:
 2996              	.LBE1301:
 2997              	.LBE1302:
 2998              		.loc 1 336 0
 2999 007a 9CB1     		cbz	r4, .L95
 3000              	.LBB1303:
 3001              	.LBB1304:
 3002              		.loc 2 153 0
 3003 007c 0023     		movs	r3, #0
 3004 007e C6F20203 		movt	r3, 24578
 3005              	.LBE1304:
 3006              	.LBE1303:
 3007              		.loc 1 336 0
 3008 0082 0121     		movs	r1, #1
 3009 0084 621E     		subs	r2, r4, #1
 3010 0086 8C42     		cmp	r4, r1
 3011              	.LBB1308:
 3012              	.LBB1305:
 3013              		.loc 2 153 0
 3014 0088 1F80     		strh	r7, [r3, #0]	@ movhi
 3015 008a 02F00100 		and	r0, r2, #1
 3016              	.LVL275:
ARM GAS  /tmp/ccLrOMZj.s 			page 54


 3017              	.LBE1305:
 3018              	.LBE1308:
 3019              		.loc 1 336 0
 3020 008e 0BD0     		beq	.L113
 3021 0090 18B1     		cbz	r0, .L102
 3022 0092 0221     		movs	r1, #2
 3023 0094 8C42     		cmp	r4, r1
 3024              	.LBB1309:
 3025              	.LBB1306:
 3026              		.loc 2 153 0
 3027 0096 1F80     		strh	r7, [r3, #0]	@ movhi
 3028              	.LBE1306:
 3029              	.LBE1309:
 3030              		.loc 1 336 0
 3031 0098 05D0     		beq	.L114
 3032              	.LVL276:
 3033              	.L102:
 3034 009a 0231     		adds	r1, r1, #2
 3035 009c 8C42     		cmp	r4, r1
 3036              	.LBB1310:
 3037              	.LBB1307:
 3038              		.loc 2 153 0
 3039 009e 1F80     		strh	r7, [r3, #0]	@ movhi
 3040 00a0 1F80     		strh	r7, [r3, #0]	@ movhi
 3041              	.LBE1307:
 3042              	.LBE1310:
 3043              		.loc 1 336 0
 3044 00a2 FAD1     		bne	.L102
 3045              	.LVL277:
 3046              	.L95:
 3047 00a4 F8BD     		pop	{r3, r4, r5, r6, r7, pc}
 3048              	.LVL278:
 3049              	.L114:
 3050 00a6 F8BD     		pop	{r3, r4, r5, r6, r7, pc}
 3051              	.L113:
 3052 00a8 F8BD     		pop	{r3, r4, r5, r6, r7, pc}
 3053              	.L116:
 3054 00aa 00BF     		.align	2
 3055              	.L115:
 3056 00ac 00000000 		.word	.LANCHOR0
 3057              		.cfi_endproc
 3058              	.LFE138:
 3059              		.size	gdisp_lld_fill_area, .-gdisp_lld_fill_area
 3060              		.section	.text.gdisp_lld_draw_line,"ax",%progbits
 3061              		.align	2
 3062              		.p2align 4,,15
 3063              		.global	gdisp_lld_draw_line
 3064              		.thumb
 3065              		.thumb_func
 3066              		.type	gdisp_lld_draw_line, %function
 3067              	gdisp_lld_draw_line:
 3068              	.LFB118:
 3069              		.loc 3 39 0
 3070              		.cfi_startproc
 3071              		@ args = 4, pretend = 0, frame = 16
 3072              		@ frame_needed = 0, uses_anonymous_args = 0
 3073              	.LVL279:
ARM GAS  /tmp/ccLrOMZj.s 			page 55


 3074 0000 2DE9F04F 		push	{r4, r5, r6, r7, r8, r9, sl, fp, lr}
 3075              	.LCFI11:
 3076              		.cfi_def_cfa_offset 36
 3077              		.cfi_offset 4, -36
 3078              		.cfi_offset 5, -32
 3079              		.cfi_offset 6, -28
 3080              		.cfi_offset 7, -24
 3081              		.cfi_offset 8, -20
 3082              		.cfi_offset 9, -16
 3083              		.cfi_offset 10, -12
 3084              		.cfi_offset 11, -8
 3085              		.cfi_offset 14, -4
 3086 0004 85B0     		sub	sp, sp, #20
 3087              	.LCFI12:
 3088              		.cfi_def_cfa_offset 56
 3089              		.loc 3 46 0
 3090 0006 9042     		cmp	r0, r2
 3091              		.loc 3 39 0
 3092 0008 8146     		mov	r9, r0
 3093 000a 0C46     		mov	r4, r1
 3094 000c BDF83850 		ldrh	r5, [sp, #56]
 3095              		.loc 3 46 0
 3096 0010 00F00A81 		beq	.L168
 3097              		.loc 3 53 0
 3098 0014 9942     		cmp	r1, r3
 3099 0016 00F01481 		beq	.L169
 3100              		.loc 3 62 0
 3101 001a 9042     		cmp	r0, r2
 3102 001c 40F38380 		ble	.L170
 3103              		.loc 3 66 0
 3104 0020 821A     		subs	r2, r0, r2
 3105              	.LVL280:
 3106              		.loc 3 69 0
 3107 0022 A342     		cmp	r3, r4
 3108              		.loc 3 66 0
 3109 0024 90B2     		uxth	r0, r2
 3110              	.LVL281:
 3111              		.loc 3 67 0
 3112 0026 4FF6FF76 		movw	r6, #65535
 3113              	.LVL282:
 3114              		.loc 3 69 0
 3115 002a C0F28280 		blt	.L124
 3116              	.LVL283:
 3117              	.L172:
 3118              		.loc 3 70 0
 3119 002e 1F1B     		subs	r7, r3, r4
 3120 0030 B9B2     		uxth	r1, r7
 3121              	.LVL284:
 3122              		.loc 3 77 0
 3123 0032 0FFA81FB 		sxth	fp, r1
 3124 0036 0FFA80FA 		sxth	sl, r0
 3125              		.loc 3 71 0
 3126 003a 0127     		movs	r7, #1
 3127              	.LVL285:
 3128              		.loc 3 77 0
 3129 003c D345     		cmp	fp, sl
 3130 003e 00F38380 		bgt	.L126
ARM GAS  /tmp/ccLrOMZj.s 			page 56


 3131              	.LVL286:
 3132              	.L173:
 3133              		.loc 3 78 0
 3134 0042 4B00     		lsls	r3, r1, #1
 3135              		.loc 3 79 0
 3136 0044 82B2     		uxth	r2, r0
 3137              		.loc 3 78 0
 3138 0046 98B2     		uxth	r0, r3
 3139              		.loc 3 79 0
 3140 0048 811A     		subs	r1, r0, r2
 3141 004a 8BB2     		uxth	r3, r1
 3142              		.loc 3 80 0
 3143 004c 9A1A     		subs	r2, r3, r2
 3144              		.loc 3 78 0
 3145 004e 0290     		str	r0, [sp, #8]
 3146              	.LVL287:
 3147              		.loc 3 82 0
 3148 0050 BAF1000F 		cmp	sl, #0
 3149              		.loc 3 80 0
 3150 0054 90B2     		uxth	r0, r2
 3151              		.loc 3 79 0
 3152 0056 1FFA83F8 		uxth	r8, r3
 3153              	.LVL288:
 3154              		.loc 3 80 0
 3155 005a 0190     		str	r0, [sp, #4]
 3156              	.LVL289:
 3157              		.loc 3 82 0
 3158 005c C0F2E180 		blt	.L117
 3159 0060 0AF00103 		and	r3, sl, #1
 3160              	.LVL290:
 3161              		.loc 3 83 0
 3162 0064 4846     		mov	r0, r9
 3163 0066 2146     		mov	r1, r4
 3164 0068 2A46     		mov	r2, r5
 3165 006a 0393     		str	r3, [sp, #12]
 3166 006c FFF7FEFF 		bl	gdisp_lld_draw_pixel
 3167              	.LVL291:
 3168              		.loc 3 84 0
 3169 0070 18F4004F 		tst	r8, #32768
 3170 0074 40F02581 		bne	.L171
 3171              		.loc 3 88 0
 3172 0078 0199     		ldr	r1, [sp, #4]
 3173              		.loc 3 89 0
 3174 007a B144     		add	r9, r9, r6
 3175              	.LVL292:
 3176              		.loc 3 88 0
 3177 007c 01EB0802 		add	r2, r1, r8
 3178              		.loc 3 90 0
 3179 0080 E419     		adds	r4, r4, r7
 3180              	.LVL293:
 3181              		.loc 3 88 0
 3182 0082 1FFA82FB 		uxth	fp, r2
 3183              		.loc 3 89 0
 3184 0086 0FFA89F9 		sxth	r9, r9
 3185              		.loc 3 90 0
 3186 008a 24B2     		sxth	r4, r4
 3187              	.LVL294:
ARM GAS  /tmp/ccLrOMZj.s 			page 57


 3188              	.L160:
 3189              		.loc 3 82 0
 3190 008c 4FF00108 		mov	r8, #1
 3191              	.LVL295:
 3192 0090 C245     		cmp	sl, r8
 3193 0092 C0F2C680 		blt	.L117
 3194 0096 039A     		ldr	r2, [sp, #12]
 3195 0098 A2B3     		cbz	r2, .L127
 3196              		.loc 3 83 0
 3197 009a 4846     		mov	r0, r9
 3198 009c 2146     		mov	r1, r4
 3199 009e 2A46     		mov	r2, r5
 3200 00a0 FFF7FEFF 		bl	gdisp_lld_draw_pixel
 3201              	.LVL296:
 3202              		.loc 3 84 0
 3203 00a4 1BF4004F 		tst	fp, #32768
 3204 00a8 18D0     		beq	.L143
 3205 00aa DFE0     		b	.L157
 3206              	.LVL297:
 3207              	.L129:
 3208              		.loc 3 88 0
 3209 00ac 019A     		ldr	r2, [sp, #4]
 3210              		.loc 3 89 0
 3211 00ae 09EB060E 		add	lr, r9, r6
 3212              		.loc 3 88 0
 3213 00b2 02EB0B00 		add	r0, r2, fp
 3214              		.loc 3 90 0
 3215 00b6 E419     		adds	r4, r4, r7
 3216 00b8 24B2     		sxth	r4, r4
 3217              		.loc 3 88 0
 3218 00ba 1FFA80FB 		uxth	fp, r0
 3219              		.loc 3 89 0
 3220 00be 0FFA8EF9 		sxth	r9, lr
 3221              	.LVL298:
 3222              	.L130:
 3223              		.loc 3 82 0
 3224 00c2 08F1010C 		add	ip, r8, #1
 3225              		.loc 3 83 0
 3226 00c6 2146     		mov	r1, r4
 3227 00c8 4846     		mov	r0, r9
 3228 00ca 2A46     		mov	r2, r5
 3229              		.loc 3 82 0
 3230 00cc 1FFA8CF8 		uxth	r8, ip
 3231              		.loc 3 83 0
 3232 00d0 FFF7FEFF 		bl	gdisp_lld_draw_pixel
 3233              	.LVL299:
 3234              		.loc 3 84 0
 3235 00d4 1BF4004F 		tst	fp, #32768
 3236 00d8 40F0C880 		bne	.L157
 3237              	.LVL300:
 3238              	.L143:
 3239              		.loc 3 88 0
 3240 00dc 019A     		ldr	r2, [sp, #4]
 3241              		.loc 3 89 0
 3242 00de 09EB0603 		add	r3, r9, r6
 3243              		.loc 3 88 0
 3244 00e2 02EB0B00 		add	r0, r2, fp
ARM GAS  /tmp/ccLrOMZj.s 			page 58


 3245              		.loc 3 90 0
 3246 00e6 E419     		adds	r4, r4, r7
 3247              		.loc 3 88 0
 3248 00e8 1FFA80FB 		uxth	fp, r0
 3249              		.loc 3 89 0
 3250 00ec 0FFA83F9 		sxth	r9, r3
 3251              		.loc 3 90 0
 3252 00f0 24B2     		sxth	r4, r4
 3253              	.LVL301:
 3254              	.L163:
 3255              		.loc 3 82 0
 3256 00f2 08F10108 		add	r8, r8, #1
 3257 00f6 1FFA88F8 		uxth	r8, r8
 3258 00fa 0FFA88F1 		sxth	r1, r8
 3259 00fe 8A45     		cmp	sl, r1
 3260 0100 C0F28F80 		blt	.L117
 3261              	.LVL302:
 3262              	.L127:
 3263              		.loc 3 83 0
 3264 0104 4846     		mov	r0, r9
 3265 0106 2A46     		mov	r2, r5
 3266 0108 2146     		mov	r1, r4
 3267 010a FFF7FEFF 		bl	gdisp_lld_draw_pixel
 3268              	.LVL303:
 3269              		.loc 3 84 0
 3270 010e 1BF4004F 		tst	fp, #32768
 3271 0112 CBD0     		beq	.L129
 3272              		.loc 3 85 0
 3273 0114 029B     		ldr	r3, [sp, #8]
 3274              		.loc 3 86 0
 3275 0116 B144     		add	r9, r9, r6
 3276              		.loc 3 85 0
 3277 0118 03EB0B01 		add	r1, r3, fp
 3278 011c 1FFA81FB 		uxth	fp, r1
 3279              		.loc 3 86 0
 3280 0120 0FFA89F9 		sxth	r9, r9
 3281 0124 CDE7     		b	.L130
 3282              	.LVL304:
 3283              	.L170:
 3284              		.loc 3 63 0
 3285 0126 111A     		subs	r1, r2, r0
 3286              	.LVL305:
 3287              		.loc 3 64 0
 3288 0128 0126     		movs	r6, #1
 3289              		.loc 3 69 0
 3290 012a A342     		cmp	r3, r4
 3291              		.loc 3 63 0
 3292 012c 88B2     		uxth	r0, r1
 3293              	.LVL306:
 3294              		.loc 3 69 0
 3295 012e BFF67EAF 		bge	.L172
 3296              	.LVL307:
 3297              	.L124:
 3298              		.loc 3 73 0
 3299 0132 E31A     		subs	r3, r4, r3
 3300              	.LVL308:
 3301 0134 99B2     		uxth	r1, r3
ARM GAS  /tmp/ccLrOMZj.s 			page 59


 3302              	.LVL309:
 3303              		.loc 3 77 0
 3304 0136 0FFA81FB 		sxth	fp, r1
 3305 013a 0FFA80FA 		sxth	sl, r0
 3306 013e D345     		cmp	fp, sl
 3307              		.loc 3 74 0
 3308 0140 4FF6FF77 		movw	r7, #65535
 3309              	.LVL310:
 3310              		.loc 3 77 0
 3311 0144 7FF77DAF 		ble	.L173
 3312              	.LVL311:
 3313              	.L126:
 3314              		.loc 3 94 0
 3315 0148 4200     		lsls	r2, r0, #1
 3316 014a 93B2     		uxth	r3, r2
 3317              		.loc 3 95 0
 3318 014c 88B2     		uxth	r0, r1
 3319 014e 191A     		subs	r1, r3, r0
 3320 0150 8AB2     		uxth	r2, r1
 3321              		.loc 3 96 0
 3322 0152 101A     		subs	r0, r2, r0
 3323              		.loc 3 94 0
 3324 0154 0293     		str	r3, [sp, #8]
 3325              	.LVL312:
 3326              		.loc 3 98 0
 3327 0156 BBF1000F 		cmp	fp, #0
 3328              		.loc 3 96 0
 3329 015a 83B2     		uxth	r3, r0
 3330              		.loc 3 95 0
 3331 015c 1FFA82F8 		uxth	r8, r2
 3332              	.LVL313:
 3333              		.loc 3 96 0
 3334 0160 0193     		str	r3, [sp, #4]
 3335              	.LVL314:
 3336              		.loc 3 98 0
 3337 0162 5EDB     		blt	.L117
 3338 0164 0BF00103 		and	r3, fp, #1
 3339              		.loc 3 99 0
 3340 0168 4846     		mov	r0, r9
 3341 016a 2146     		mov	r1, r4
 3342 016c 2A46     		mov	r2, r5
 3343              	.LVL315:
 3344 016e 0393     		str	r3, [sp, #12]
 3345 0170 FFF7FEFF 		bl	gdisp_lld_draw_pixel
 3346              	.LVL316:
 3347              		.loc 3 100 0
 3348 0174 18F4004F 		tst	r8, #32768
 3349 0178 40F09B80 		bne	.L174
 3350              		.loc 3 104 0
 3351 017c 0199     		ldr	r1, [sp, #4]
 3352              		.loc 3 105 0
 3353 017e B144     		add	r9, r9, r6
 3354              	.LVL317:
 3355              		.loc 3 104 0
 3356 0180 01EB0802 		add	r2, r1, r8
 3357              		.loc 3 106 0
 3358 0184 E419     		adds	r4, r4, r7
ARM GAS  /tmp/ccLrOMZj.s 			page 60


 3359              	.LVL318:
 3360              		.loc 3 104 0
 3361 0186 1FFA82FA 		uxth	sl, r2
 3362              		.loc 3 105 0
 3363 018a 0FFA89F9 		sxth	r9, r9
 3364              	.LVL319:
 3365              		.loc 3 106 0
 3366 018e 24B2     		sxth	r4, r4
 3367              	.LVL320:
 3368              	.L164:
 3369              		.loc 3 98 0
 3370 0190 4FF00108 		mov	r8, #1
 3371              	.LVL321:
 3372 0194 C345     		cmp	fp, r8
 3373 0196 44DB     		blt	.L117
 3374 0198 039A     		ldr	r2, [sp, #12]
 3375 019a 92B3     		cbz	r2, .L134
 3376              		.loc 3 99 0
 3377 019c 4846     		mov	r0, r9
 3378 019e 2146     		mov	r1, r4
 3379 01a0 2A46     		mov	r2, r5
 3380 01a2 FFF7FEFF 		bl	gdisp_lld_draw_pixel
 3381              	.LVL322:
 3382              		.loc 3 100 0
 3383 01a6 1AF4004F 		tst	sl, #32768
 3384 01aa 17D0     		beq	.L150
 3385 01ac 56E0     		b	.L159
 3386              	.LVL323:
 3387              	.L132:
 3388              		.loc 3 104 0
 3389 01ae 019A     		ldr	r2, [sp, #4]
 3390              		.loc 3 106 0
 3391 01b0 E319     		adds	r3, r4, r7
 3392              		.loc 3 104 0
 3393 01b2 02EB0A00 		add	r0, r2, sl
 3394              		.loc 3 105 0
 3395 01b6 09EB060A 		add	sl, r9, r6
 3396 01ba 0FFA8AF9 		sxth	r9, sl
 3397              		.loc 3 106 0
 3398 01be 1CB2     		sxth	r4, r3
 3399              		.loc 3 104 0
 3400 01c0 1FFA80FA 		uxth	sl, r0
 3401              	.LVL324:
 3402              	.L133:
 3403              		.loc 3 98 0
 3404 01c4 08F1010C 		add	ip, r8, #1
 3405              		.loc 3 99 0
 3406 01c8 4846     		mov	r0, r9
 3407 01ca 2146     		mov	r1, r4
 3408 01cc 2A46     		mov	r2, r5
 3409              		.loc 3 98 0
 3410 01ce 1FFA8CF8 		uxth	r8, ip
 3411              		.loc 3 99 0
 3412 01d2 FFF7FEFF 		bl	gdisp_lld_draw_pixel
 3413              	.LVL325:
 3414              		.loc 3 100 0
 3415 01d6 1AF4004F 		tst	sl, #32768
ARM GAS  /tmp/ccLrOMZj.s 			page 61


 3416 01da 3FD1     		bne	.L159
 3417              	.LVL326:
 3418              	.L150:
 3419              		.loc 3 104 0
 3420 01dc 0198     		ldr	r0, [sp, #4]
 3421              		.loc 3 105 0
 3422 01de 09EB060E 		add	lr, r9, r6
 3423              		.loc 3 104 0
 3424 01e2 00EB0A03 		add	r3, r0, sl
 3425              		.loc 3 106 0
 3426 01e6 E119     		adds	r1, r4, r7
 3427              		.loc 3 104 0
 3428 01e8 1FFA83FA 		uxth	sl, r3
 3429              		.loc 3 105 0
 3430 01ec 0FFA8EF9 		sxth	r9, lr
 3431              	.LVL327:
 3432              		.loc 3 106 0
 3433 01f0 0CB2     		sxth	r4, r1
 3434              	.LVL328:
 3435              	.L167:
 3436              		.loc 3 98 0
 3437 01f2 08F10108 		add	r8, r8, #1
 3438 01f6 1FFA88F8 		uxth	r8, r8
 3439 01fa 0FFA88F1 		sxth	r1, r8
 3440 01fe 8B45     		cmp	fp, r1
 3441 0200 0FDB     		blt	.L117
 3442              	.LVL329:
 3443              	.L134:
 3444              		.loc 3 99 0
 3445 0202 2146     		mov	r1, r4
 3446 0204 2A46     		mov	r2, r5
 3447 0206 4846     		mov	r0, r9
 3448 0208 FFF7FEFF 		bl	gdisp_lld_draw_pixel
 3449              	.LVL330:
 3450              		.loc 3 100 0
 3451 020c 1AF4004F 		tst	sl, #32768
 3452 0210 CDD0     		beq	.L132
 3453              		.loc 3 101 0
 3454 0212 0299     		ldr	r1, [sp, #8]
 3455              		.loc 3 102 0
 3456 0214 E419     		adds	r4, r4, r7
 3457              		.loc 3 101 0
 3458 0216 01EB0A02 		add	r2, r1, sl
 3459 021a 1FFA82FA 		uxth	sl, r2
 3460              		.loc 3 102 0
 3461 021e 24B2     		sxth	r4, r4
 3462 0220 D0E7     		b	.L133
 3463              	.LVL331:
 3464              	.L117:
 3465              		.loc 3 110 0
 3466 0222 05B0     		add	sp, sp, #20
 3467 0224 BDE8F08F 		pop	{r4, r5, r6, r7, r8, r9, sl, fp, pc}
 3468              	.LVL332:
 3469              	.L168:
 3470              		.loc 3 47 0
 3471 0228 8B42     		cmp	r3, r1
 3472 022a 29DD     		ble	.L119
ARM GAS  /tmp/ccLrOMZj.s 			page 62


 3473              		.loc 3 48 0
 3474 022c C1F10104 		rsb	r4, r1, #1
 3475 0230 E318     		adds	r3, r4, r3
 3476              	.LVL333:
 3477 0232 0122     		movs	r2, #1
 3478              	.LVL334:
 3479 0234 1BB2     		sxth	r3, r3
 3480 0236 0E95     		str	r5, [sp, #56]
 3481              		.loc 3 110 0
 3482 0238 05B0     		add	sp, sp, #20
 3483 023a BDE8F04F 		pop	{r4, r5, r6, r7, r8, r9, sl, fp, lr}
 3484              		.loc 3 48 0
 3485 023e FFF7FEBF 		b	gdisp_lld_fill_area
 3486              	.LVL335:
 3487              	.L169:
 3488              		.loc 3 54 0
 3489 0242 9042     		cmp	r0, r2
 3490 0244 27DA     		bge	.L121
 3491              		.loc 3 55 0
 3492 0246 C0F10109 		rsb	r9, r0, #1
 3493 024a 4A44     		add	r2, r9, r2
 3494              	.LVL336:
 3495 024c 12B2     		sxth	r2, r2
 3496 024e 0123     		movs	r3, #1
 3497              	.LVL337:
 3498 0250 0E95     		str	r5, [sp, #56]
 3499              		.loc 3 110 0
 3500 0252 05B0     		add	sp, sp, #20
 3501 0254 BDE8F04F 		pop	{r4, r5, r6, r7, r8, r9, sl, fp, lr}
 3502              		.loc 3 55 0
 3503 0258 FFF7FEBF 		b	gdisp_lld_fill_area
 3504              	.LVL338:
 3505              	.L159:
 3506              		.loc 3 101 0
 3507 025c 0298     		ldr	r0, [sp, #8]
 3508              		.loc 3 102 0
 3509 025e E419     		adds	r4, r4, r7
 3510              		.loc 3 101 0
 3511 0260 00EB0A03 		add	r3, r0, sl
 3512 0264 1FFA83FA 		uxth	sl, r3
 3513              		.loc 3 102 0
 3514 0268 24B2     		sxth	r4, r4
 3515 026a C2E7     		b	.L167
 3516              	.LVL339:
 3517              	.L157:
 3518              		.loc 3 85 0
 3519 026c 0298     		ldr	r0, [sp, #8]
 3520              		.loc 3 86 0
 3521 026e 09EB060C 		add	ip, r9, r6
 3522              		.loc 3 85 0
 3523 0272 00EB0B03 		add	r3, r0, fp
 3524 0276 1FFA83FB 		uxth	fp, r3
 3525              		.loc 3 86 0
 3526 027a 0FFA8CF9 		sxth	r9, ip
 3527 027e 38E7     		b	.L163
 3528              	.LVL340:
 3529              	.L119:
ARM GAS  /tmp/ccLrOMZj.s 			page 63


 3530              		.loc 3 50 0
 3531 0280 0131     		adds	r1, r1, #1
 3532              	.LVL341:
 3533 0282 CC1A     		subs	r4, r1, r3
 3534 0284 0122     		movs	r2, #1
 3535              	.LVL342:
 3536 0286 1946     		mov	r1, r3
 3537 0288 23B2     		sxth	r3, r4
 3538              	.LVL343:
 3539 028a 0E95     		str	r5, [sp, #56]
 3540              		.loc 3 110 0
 3541 028c 05B0     		add	sp, sp, #20
 3542 028e BDE8F04F 		pop	{r4, r5, r6, r7, r8, r9, sl, fp, lr}
 3543              		.loc 3 50 0
 3544 0292 FFF7FEBF 		b	gdisp_lld_fill_area
 3545              	.LVL344:
 3546              	.L121:
 3547              		.loc 3 57 0
 3548 0296 00F10109 		add	r9, r0, #1
 3549 029a C2EB0909 		rsb	r9, r2, r9
 3550 029e 1046     		mov	r0, r2
 3551              	.LVL345:
 3552 02a0 0123     		movs	r3, #1
 3553              	.LVL346:
 3554 02a2 0FFA89F2 		sxth	r2, r9
 3555              	.LVL347:
 3556 02a6 0E95     		str	r5, [sp, #56]
 3557              		.loc 3 110 0
 3558 02a8 05B0     		add	sp, sp, #20
 3559 02aa BDE8F04F 		pop	{r4, r5, r6, r7, r8, r9, sl, fp, lr}
 3560              		.loc 3 57 0
 3561 02ae FFF7FEBF 		b	gdisp_lld_fill_area
 3562              	.LVL348:
 3563              	.L174:
 3564              		.loc 3 101 0
 3565 02b2 0298     		ldr	r0, [sp, #8]
 3566              		.loc 3 102 0
 3567 02b4 E119     		adds	r1, r4, r7
 3568              		.loc 3 101 0
 3569 02b6 00EB0803 		add	r3, r0, r8
 3570 02ba 1FFA83FA 		uxth	sl, r3
 3571              		.loc 3 102 0
 3572 02be 0CB2     		sxth	r4, r1
 3573              	.LVL349:
 3574 02c0 66E7     		b	.L164
 3575              	.LVL350:
 3576              	.L171:
 3577              		.loc 3 85 0
 3578 02c2 0298     		ldr	r0, [sp, #8]
 3579              		.loc 3 86 0
 3580 02c4 09EB0601 		add	r1, r9, r6
 3581              		.loc 3 85 0
 3582 02c8 00EB0803 		add	r3, r0, r8
 3583 02cc 1FFA83FB 		uxth	fp, r3
 3584              		.loc 3 86 0
 3585 02d0 0FFA81F9 		sxth	r9, r1
 3586              	.LVL351:
ARM GAS  /tmp/ccLrOMZj.s 			page 64


 3587 02d4 DAE6     		b	.L160
 3588              		.cfi_endproc
 3589              	.LFE118:
 3590              		.size	gdisp_lld_draw_line, .-gdisp_lld_draw_line
 3591 02d6 00BFAFF3 		.section	.text.gdisp_lld_fill_circle,"ax",%progbits
 3591      0080AFF3 
 3591      0080
 3592              		.align	2
 3593              		.p2align 4,,15
 3594              		.global	gdisp_lld_fill_circle
 3595              		.thumb
 3596              		.thumb_func
 3597              		.type	gdisp_lld_fill_circle, %function
 3598              	gdisp_lld_fill_circle:
 3599              	.LFB121:
 3600              		.loc 3 195 0
 3601              		.cfi_startproc
 3602              		@ args = 0, pretend = 0, frame = 16
 3603              		@ frame_needed = 0, uses_anonymous_args = 0
 3604              	.LVL352:
 3605 0000 2DE9F04F 		push	{r4, r5, r6, r7, r8, r9, sl, fp, lr}
 3606              	.LCFI13:
 3607              		.cfi_def_cfa_offset 36
 3608              		.cfi_offset 4, -36
 3609              		.cfi_offset 5, -32
 3610              		.cfi_offset 6, -28
 3611              		.cfi_offset 7, -24
 3612              		.cfi_offset 8, -20
 3613              		.cfi_offset 9, -16
 3614              		.cfi_offset 10, -12
 3615              		.cfi_offset 11, -8
 3616              		.cfi_offset 14, -4
 3617              		.loc 3 199 0
 3618 0004 9246     		mov	sl, r2
 3619              		.loc 3 195 0
 3620 0006 87B0     		sub	sp, sp, #28
 3621              	.LCFI14:
 3622              		.cfi_def_cfa_offset 64
 3623              		.loc 3 200 0
 3624 0008 C2F10104 		rsb	r4, r2, #1
 3625 000c A2B2     		uxth	r2, r4
 3626              	.LVL353:
 3627 000e 1FFA80F8 		uxth	r8, r0
 3628 0012 0FFA8AF0 		sxth	r0, sl
 3629              	.LVL354:
 3630              		.loc 3 195 0
 3631 0016 1F46     		mov	r7, r3
 3632              		.loc 3 200 0
 3633 0018 0492     		str	r2, [sp, #16]
 3634              	.LVL355:
 3635 001a 8EB2     		uxth	r6, r1
 3636 001c 4FF00009 		mov	r9, #0
 3637 0020 0590     		str	r0, [sp, #20]
 3638 0022 17E0     		b	.L178
 3639              	.LVL356:
 3640              	.L176:
 3641              		.loc 3 210 0
ARM GAS  /tmp/ccLrOMZj.s 			page 65


 3642 0024 059A     		ldr	r2, [sp, #20]
 3643 0026 0499     		ldr	r1, [sp, #16]
 3644 0028 0AF1FF3A 		add	sl, sl, #-1
 3645              	.LVL357:
 3646 002c 4B1D     		adds	r3, r1, #5
 3647 002e C2EB0900 		rsb	r0, r2, r9
 3648 0032 1FFA8AFA 		uxth	sl, sl
 3649              	.LVL358:
 3650 0036 03EB4000 		add	r0, r3, r0, lsl #1
 3651 003a 0FFA8AF2 		sxth	r2, sl
 3652              		.loc 3 195 0
 3653 003e 0134     		adds	r4, r4, #1
 3654              		.loc 3 210 0
 3655 0040 83B2     		uxth	r3, r0
 3656 0042 0592     		str	r2, [sp, #20]
 3657              		.loc 3 195 0
 3658 0044 A1B2     		uxth	r1, r4
 3659              		.loc 3 210 0
 3660 0046 0493     		str	r3, [sp, #16]
 3661              	.LVL359:
 3662              		.loc 3 211 0
 3663 0048 059B     		ldr	r3, [sp, #20]
 3664 004a 0CB2     		sxth	r4, r1
 3665              	.LVL360:
 3666 004c 9C42     		cmp	r4, r3
 3667 004e 09F10109 		add	r9, r9, #1
 3668 0052 45DC     		bgt	.L180
 3669              	.LVL361:
 3670              	.L178:
 3671              		.loc 3 203 0
 3672 0054 1FFA8AF5 		uxth	r5, sl
 3673              		.loc 3 195 0
 3674 0058 1FFA89F4 		uxth	r4, r9
 3675 005c C4EB080C 		rsb	ip, r4, r8
 3676              		.loc 3 203 0
 3677 0060 A919     		adds	r1, r5, r6
 3678              		.loc 3 195 0
 3679 0062 08EB040B 		add	fp, r8, r4
 3680              		.loc 3 203 0
 3681 0066 0FFA8CFE 		sxth	lr, ip
 3682 006a 09B2     		sxth	r1, r1
 3683 006c 0FFA8BFB 		sxth	fp, fp
 3684 0070 7046     		mov	r0, lr
 3685 0072 5A46     		mov	r2, fp
 3686 0074 0B46     		mov	r3, r1
 3687 0076 0097     		str	r7, [sp, #0]
 3688 0078 CDF80CE0 		str	lr, [sp, #12]
 3689 007c FFF7FEFF 		bl	gdisp_lld_draw_line
 3690              	.LVL362:
 3691              		.loc 3 204 0
 3692 0080 DDF80CC0 		ldr	ip, [sp, #12]
 3693 0084 0097     		str	r7, [sp, #0]
 3694 0086 731B     		subs	r3, r6, r5
 3695 0088 19B2     		sxth	r1, r3
 3696 008a 6046     		mov	r0, ip
 3697 008c 5A46     		mov	r2, fp
 3698 008e 0B46     		mov	r3, r1
ARM GAS  /tmp/ccLrOMZj.s 			page 66


 3699 0090 FFF7FEFF 		bl	gdisp_lld_draw_line
 3700              	.LVL363:
 3701              		.loc 3 205 0
 3702 0094 C5EB0800 		rsb	r0, r5, r8
 3703              		.loc 3 195 0
 3704 0098 3219     		adds	r2, r6, r4
 3705              		.loc 3 205 0
 3706 009a 4544     		add	r5, r5, r8
 3707 009c 11B2     		sxth	r1, r2
 3708 009e 0FFA80FB 		sxth	fp, r0
 3709 00a2 2DB2     		sxth	r5, r5
 3710 00a4 0B46     		mov	r3, r1
 3711 00a6 5846     		mov	r0, fp
 3712 00a8 2A46     		mov	r2, r5
 3713 00aa 0097     		str	r7, [sp, #0]
 3714 00ac FFF7FEFF 		bl	gdisp_lld_draw_line
 3715              	.LVL364:
 3716              		.loc 3 195 0
 3717 00b0 311B     		subs	r1, r6, r4
 3718              		.loc 3 206 0
 3719 00b2 09B2     		sxth	r1, r1
 3720 00b4 0B46     		mov	r3, r1
 3721 00b6 0097     		str	r7, [sp, #0]
 3722 00b8 5846     		mov	r0, fp
 3723 00ba 2A46     		mov	r2, r5
 3724 00bc FFF7FEFF 		bl	gdisp_lld_draw_line
 3725              	.LVL365:
 3726              		.loc 3 207 0
 3727 00c0 049B     		ldr	r3, [sp, #16]
 3728 00c2 1904     		lsls	r1, r3, #16
 3729 00c4 AED5     		bpl	.L176
 3730              		.loc 3 208 0
 3731 00c6 D81C     		adds	r0, r3, #3
 3732 00c8 00EB4401 		add	r1, r0, r4, lsl #1
 3733              		.loc 3 195 0
 3734 00cc 0134     		adds	r4, r4, #1
 3735              		.loc 3 208 0
 3736 00ce 8AB2     		uxth	r2, r1
 3737              		.loc 3 211 0
 3738 00d0 059B     		ldr	r3, [sp, #20]
 3739              		.loc 3 208 0
 3740 00d2 0492     		str	r2, [sp, #16]
 3741              		.loc 3 195 0
 3742 00d4 A1B2     		uxth	r1, r4
 3743              	.LVL366:
 3744              		.loc 3 211 0
 3745 00d6 0CB2     		sxth	r4, r1
 3746              	.LVL367:
 3747 00d8 9C42     		cmp	r4, r3
 3748 00da 09F10109 		add	r9, r9, #1
 3749 00de B9DD     		ble	.L178
 3750              	.LVL368:
 3751              	.L180:
 3752              		.loc 3 212 0
 3753 00e0 07B0     		add	sp, sp, #28
 3754 00e2 BDE8F08F 		pop	{r4, r5, r6, r7, r8, r9, sl, fp, pc}
 3755              		.cfi_endproc
ARM GAS  /tmp/ccLrOMZj.s 			page 67


 3756              	.LFE121:
 3757              		.size	gdisp_lld_fill_circle, .-gdisp_lld_fill_circle
 3758 00e6 00BFAFF3 		.section	.text.gdisp_lld_blit_area_ex,"ax",%progbits
 3758      0080AFF3 
 3758      0080
 3759              		.align	2
 3760              		.p2align 4,,15
 3761              		.global	gdisp_lld_blit_area_ex
 3762              		.thumb
 3763              		.thumb_func
 3764              		.type	gdisp_lld_blit_area_ex, %function
 3765              	gdisp_lld_blit_area_ex:
 3766              	.LFB139:
 3767              		.loc 1 358 0
 3768              		.cfi_startproc
 3769              		@ args = 16, pretend = 0, frame = 0
 3770              		@ frame_needed = 0, uses_anonymous_args = 0
 3771              	.LVL369:
 3772 0000 2DE9F047 		push	{r4, r5, r6, r7, r8, r9, sl, lr}
 3773              	.LCFI15:
 3774              		.cfi_def_cfa_offset 32
 3775              		.cfi_offset 4, -32
 3776              		.cfi_offset 5, -28
 3777              		.cfi_offset 6, -24
 3778              		.cfi_offset 7, -20
 3779              		.cfi_offset 8, -16
 3780              		.cfi_offset 9, -12
 3781              		.cfi_offset 10, -8
 3782              		.cfi_offset 14, -4
 3783              		.loc 1 361 0
 3784 0004 4E4D     		ldr	r5, .L201
 3785              		.loc 1 358 0
 3786 0006 BDF92070 		ldrsh	r7, [sp, #32]
 3787              		.loc 1 361 0
 3788 000a B5F908A0 		ldrsh	sl, [r5, #8]
 3789              		.loc 1 358 0
 3790 000e BDF924C0 		ldrsh	ip, [sp, #36]
 3791 0012 BDF92880 		ldrsh	r8, [sp, #40]
 3792              		.loc 1 361 0
 3793 0016 8245     		cmp	sl, r0
 3794              		.loc 1 358 0
 3795 0018 0E46     		mov	r6, r1
 3796 001a 1446     		mov	r4, r2
 3797 001c 9946     		mov	r9, r3
 3798              		.loc 1 361 0
 3799 001e 09DD     		ble	.L182
 3800              		.loc 1 361 0 is_stmt 0 discriminator 1
 3801 0020 80B2     		uxth	r0, r0
 3802 0022 1FFA8AF3 		uxth	r3, sl
 3803              	.LVL370:
 3804 0026 C21A     		subs	r2, r0, r3
 3805              	.LVL371:
 3806 0028 191A     		subs	r1, r3, r0
 3807              	.LVL372:
 3808 002a 1419     		adds	r4, r2, r4
 3809 002c CF19     		adds	r7, r1, r7
 3810 002e 24B2     		sxth	r4, r4
ARM GAS  /tmp/ccLrOMZj.s 			page 68


 3811              	.LVL373:
 3812 0030 3FB2     		sxth	r7, r7
 3813              	.LVL374:
 3814 0032 5046     		mov	r0, sl
 3815              	.LVL375:
 3816              	.L182:
 3817              		.loc 1 362 0 is_stmt 1
 3818 0034 B5F90A30 		ldrsh	r3, [r5, #10]
 3819 0038 B342     		cmp	r3, r6
 3820 003a 0ADD     		ble	.L183
 3821              		.loc 1 362 0 is_stmt 0 discriminator 1
 3822 003c B6B2     		uxth	r6, r6
 3823 003e 9AB2     		uxth	r2, r3
 3824 0040 B11A     		subs	r1, r6, r2
 3825 0042 961B     		subs	r6, r2, r6
 3826 0044 B444     		add	ip, r6, ip
 3827 0046 8944     		add	r9, r1, r9
 3828 0048 0FFA89F9 		sxth	r9, r9
 3829              	.LVL376:
 3830 004c 0FFA8CFC 		sxth	ip, ip
 3831              	.LVL377:
 3832 0050 1E46     		mov	r6, r3
 3833              	.LVL378:
 3834              	.L183:
 3835              		.loc 1 363 0 is_stmt 1
 3836 0052 3B19     		adds	r3, r7, r4
 3837 0054 4345     		cmp	r3, r8
 3838 0056 C4BF     		itt	gt
 3839 0058 C7EB0804 		rsbgt	r4, r7, r8
 3840              	.LVL379:
 3841 005c 24B2     		sxthgt	r4, r4
 3842              	.LVL380:
 3843              		.loc 1 364 0
 3844 005e 002C     		cmp	r4, #0
 3845 0060 6CDD     		ble	.L181
 3846              		.loc 1 364 0 is_stmt 0 discriminator 2
 3847 0062 B9F1000F 		cmp	r9, #0
 3848 0066 69DD     		ble	.L181
 3849              		.loc 1 364 0 discriminator 1
 3850 0068 AA89     		ldrh	r2, [r5, #12]
 3851 006a 13B2     		sxth	r3, r2
 3852 006c 9842     		cmp	r0, r3
 3853 006e 65DA     		bge	.L181
 3854 0070 334D     		ldr	r5, .L201
 3855 0072 ED89     		ldrh	r5, [r5, #14]
 3856 0074 29B2     		sxth	r1, r5
 3857 0076 8E42     		cmp	r6, r1
 3858 0078 60DA     		bge	.L181
 3859              		.loc 1 365 0 is_stmt 1
 3860 007a 00EB040E 		add	lr, r0, r4
 3861 007e 9E45     		cmp	lr, r3
 3862 0080 C4BF     		itt	gt
 3863 0082 C0EB0202 		rsbgt	r2, r0, r2
 3864 0086 14B2     		sxthgt	r4, r2
 3865              	.LVL381:
 3866              		.loc 1 366 0
 3867 0088 06EB0902 		add	r2, r6, r9
ARM GAS  /tmp/ccLrOMZj.s 			page 69


 3868 008c 8A42     		cmp	r2, r1
 3869 008e 1FFA86FA 		uxth	sl, r6
 3870 0092 C4BF     		itt	gt
 3871 0094 CAEB0505 		rsbgt	r5, sl, r5
 3872 0098 0FFA85F9 		sxthgt	r9, r5
 3873              	.LVL382:
 3874              		.loc 1 369 0
 3875 009c 0B9D     		ldr	r5, [sp, #44]
 3876 009e 08FB0C7C 		mla	ip, r8, ip, r7
 3877              	.LVL383:
 3878              		.loc 1 372 0
 3879 00a2 3146     		mov	r1, r6
 3880 00a4 2246     		mov	r2, r4
 3881 00a6 4B46     		mov	r3, r9
 3882              		.loc 1 369 0
 3883 00a8 05EB4C05 		add	r5, r5, ip, lsl #1
 3884              	.LVL384:
 3885              		.loc 1 372 0
 3886 00ac FFF7FEFF 		bl	set_viewport
 3887              	.LVL385:
 3888              		.loc 1 392 0
 3889 00b0 0AEB0901 		add	r1, sl, r9
 3890              		.loc 1 391 0
 3891 00b4 E019     		adds	r0, r4, r7
 3892              		.loc 1 394 0
 3893 00b6 0FFA81FC 		sxth	ip, r1
 3894              	.LBB1311:
 3895              	.LBB1312:
 3896              		.loc 2 144 0
 3897 00ba 4FF0C042 		mov	r2, #1610612736
 3898              	.LBE1312:
 3899              	.LBE1311:
 3900              		.loc 1 391 0
 3901 00be 83B2     		uxth	r3, r0
 3902              	.LBB1315:
 3903              	.LBB1313:
 3904              		.loc 2 144 0
 3905 00c0 2220     		movs	r0, #34
 3906              	.LBE1313:
 3907              	.LBE1315:
 3908              		.loc 1 394 0
 3909 00c2 6645     		cmp	r6, ip
 3910              	.LBB1316:
 3911              	.LBB1314:
 3912              		.loc 2 144 0
 3913 00c4 1080     		strh	r0, [r2, #0]	@ movhi
 3914              	.LBE1314:
 3915              	.LBE1316:
 3916              		.loc 1 391 0
 3917 00c6 99B2     		uxth	r1, r3
 3918              	.LVL386:
 3919              		.loc 1 393 0
 3920 00c8 C4EB0808 		rsb	r8, r4, r8
 3921              	.LVL387:
 3922              		.loc 1 394 0
 3923 00cc 36DA     		bge	.L181
 3924              		.loc 1 358 0
ARM GAS  /tmp/ccLrOMZj.s 			page 70


 3925 00ce FC43     		mvns	r4, r7
 3926              	.LVL388:
 3927 00d0 1B19     		adds	r3, r3, r4
 3928              	.LVL389:
 3929 00d2 1FFA83F9 		uxth	r9, r3
 3930              	.LVL390:
 3931 00d6 09F10100 		add	r0, r9, #1
 3932              	.LBB1317:
 3933              	.LBB1318:
 3934              		.loc 2 153 0
 3935 00da 0024     		movs	r4, #0
 3936 00dc 4FEA4808 		lsl	r8, r8, #1
 3937              	.LVL391:
 3938              	.LBE1318:
 3939              	.LBE1317:
 3940              		.loc 1 358 0
 3941 00e0 4FEA4009 		lsl	r9, r0, #1
 3942 00e4 09B2     		sxth	r1, r1
 3943              	.LVL392:
 3944              	.LBB1324:
 3945              	.LBB1319:
 3946              		.loc 2 153 0
 3947 00e6 C6F20204 		movt	r4, 24578
 3948              	.LVL393:
 3949              	.L189:
 3950              	.LBE1319:
 3951              	.LBE1324:
 3952              		.loc 1 395 0 discriminator 1
 3953 00ea 8F42     		cmp	r7, r1
 3954 00ec 21DA     		bge	.L191
 3955              		.loc 1 396 0
 3956 00ee 2B46     		mov	r3, r5
 3957              		.loc 1 395 0
 3958 00f0 7A1C     		adds	r2, r7, #1
 3959 00f2 781A     		subs	r0, r7, r1
 3960              		.loc 1 396 0
 3961 00f4 33F802AB 		ldrh	sl, [r3], #2
 3962              	.LVL394:
 3963              		.loc 1 395 0
 3964 00f8 12B2     		sxth	r2, r2
 3965 00fa C043     		mvns	r0, r0
 3966 00fc 9142     		cmp	r1, r2
 3967              	.LBB1325:
 3968              	.LBB1320:
 3969              		.loc 2 153 0
 3970 00fe A4F800A0 		strh	sl, [r4, #0]	@ movhi
 3971 0102 00F00100 		and	r0, r0, #1
 3972              	.LBE1320:
 3973              	.LBE1325:
 3974              		.loc 1 395 0
 3975 0106 13D0     		beq	.L200
 3976 0108 30B1     		cbz	r0, .L190
 3977 010a 0132     		adds	r2, r2, #1
 3978              		.loc 1 396 0
 3979 010c 33F8020B 		ldrh	r0, [r3], #2
 3980              	.LVL395:
 3981              		.loc 1 395 0
ARM GAS  /tmp/ccLrOMZj.s 			page 71


 3982 0110 12B2     		sxth	r2, r2
 3983              	.LVL396:
 3984 0112 9142     		cmp	r1, r2
 3985              	.LBB1326:
 3986              	.LBB1321:
 3987              		.loc 2 153 0
 3988 0114 2080     		strh	r0, [r4, #0]	@ movhi
 3989              	.LBE1321:
 3990              	.LBE1326:
 3991              		.loc 1 395 0
 3992 0116 0BD0     		beq	.L200
 3993              	.L190:
 3994              		.loc 1 396 0 discriminator 2
 3995 0118 1846     		mov	r0, r3
 3996              		.loc 1 395 0 discriminator 2
 3997 011a 0232     		adds	r2, r2, #2
 3998              		.loc 1 396 0 discriminator 2
 3999 011c 30F802AB 		ldrh	sl, [r0], #2
 4000              	.LBB1327:
 4001              	.LBB1322:
 4002              		.loc 2 153 0 discriminator 2
 4003 0120 A4F800A0 		strh	sl, [r4, #0]	@ movhi
 4004              	.LBE1322:
 4005              	.LBE1327:
 4006              		.loc 1 396 0 discriminator 2
 4007 0124 5B88     		ldrh	r3, [r3, #2]
 4008              		.loc 1 395 0 discriminator 2
 4009 0126 12B2     		sxth	r2, r2
 4010              	.LBB1328:
 4011              	.LBB1323:
 4012              		.loc 2 153 0 discriminator 2
 4013 0128 2380     		strh	r3, [r4, #0]	@ movhi
 4014              	.LBE1323:
 4015              	.LBE1328:
 4016              		.loc 1 396 0 discriminator 2
 4017 012a 831C     		adds	r3, r0, #2
 4018              		.loc 1 395 0 discriminator 2
 4019 012c 9142     		cmp	r1, r2
 4020 012e F3D1     		bne	.L190
 4021              	.L200:
 4022 0130 4D44     		add	r5, r5, r9
 4023              	.L191:
 4024              		.loc 1 394 0
 4025 0132 0136     		adds	r6, r6, #1
 4026 0134 36B2     		sxth	r6, r6
 4027              	.LVL397:
 4028 0136 B445     		cmp	ip, r6
 4029 0138 4544     		add	r5, r5, r8
 4030              	.LVL398:
 4031 013a D6D1     		bne	.L189
 4032              	.LVL399:
 4033              	.L181:
 4034 013c BDE8F087 		pop	{r4, r5, r6, r7, r8, r9, sl, pc}
 4035              	.L202:
 4036              		.align	2
 4037              	.L201:
 4038 0140 00000000 		.word	.LANCHOR0
ARM GAS  /tmp/ccLrOMZj.s 			page 72


 4039              		.cfi_endproc
 4040              	.LFE139:
 4041              		.size	gdisp_lld_blit_area_ex, .-gdisp_lld_blit_area_ex
 4042 0144 AFF30080 		.section	.text.gdisp_lld_fill_char,"ax",%progbits
 4042      AFF30080 
 4042      AFF30080 
 4043              		.align	2
 4044              		.p2align 4,,15
 4045              		.global	gdisp_lld_fill_char
 4046              		.thumb
 4047              		.thumb_func
 4048              		.type	gdisp_lld_fill_char, %function
 4049              	gdisp_lld_fill_char:
 4050              	.LFB123:
 4051              		.loc 3 504 0
 4052              		.cfi_startproc
 4053              		@ args = 8, pretend = 0, frame = 40
 4054              		@ frame_needed = 0, uses_anonymous_args = 0
 4055              	.LVL400:
 4056 0000 2DE9F04F 		push	{r4, r5, r6, r7, r8, r9, sl, fp, lr}
 4057              	.LCFI16:
 4058              		.cfi_def_cfa_offset 36
 4059              		.cfi_offset 4, -36
 4060              		.cfi_offset 5, -32
 4061              		.cfi_offset 6, -28
 4062              		.cfi_offset 7, -24
 4063              		.cfi_offset 8, -20
 4064              		.cfi_offset 9, -16
 4065              		.cfi_offset 10, -12
 4066              		.cfi_offset 11, -8
 4067              		.cfi_offset 14, -4
 4068              		.loc 3 509 0
 4069 0004 9C7A     		ldrb	r4, [r3, #10]	@ zero_extendqisi2
 4070              		.loc 3 504 0
 4071 0006 8FB0     		sub	sp, sp, #60
 4072              	.LCFI17:
 4073              		.cfi_def_cfa_offset 96
 4074              		.loc 3 509 0
 4075 0008 9442     		cmp	r4, r2
 4076              		.loc 3 504 0
 4077 000a BDF86050 		ldrh	r5, [sp, #96]
 4078 000e BDF86460 		ldrh	r6, [sp, #100]
 4079 0012 0C90     		str	r0, [sp, #48]
 4080 0014 0D91     		str	r1, [sp, #52]
 4081              		.loc 3 509 0
 4082 0016 00F29280 		bhi	.L203
 4083              		.loc 3 509 0 is_stmt 0 discriminator 1
 4084 001a D97A     		ldrb	r1, [r3, #11]	@ zero_extendqisi2
 4085              	.LVL401:
 4086 001c 9142     		cmp	r1, r2
 4087 001e C0F08E80 		bcc	.L203
 4088 0022 141B     		subs	r4, r2, r4
 4089 0024 1A69     		ldr	r2, [r3, #16]
 4090              	.LVL402:
 4091 0026 115D     		ldrb	r1, [r2, r4]	@ zero_extendqisi2
 4092              	.LVL403:
 4093              		.loc 3 510 0 is_stmt 1 discriminator 1
ARM GAS  /tmp/ccLrOMZj.s 			page 73


 4094 0028 0029     		cmp	r1, #0
 4095 002a 00F08880 		beq	.L203
 4096              		.loc 3 512 0
 4097 002e 187B     		ldrb	r0, [r3, #12]	@ zero_extendqisi2
 4098              	.LVL404:
 4099              		.loc 3 513 0
 4100 0030 5F7B     		ldrb	r7, [r3, #13]	@ zero_extendqisi2
 4101              		.loc 3 514 0
 4102 0032 1A79     		ldrb	r2, [r3, #4]	@ zero_extendqisi2
 4103              		.loc 3 512 0
 4104 0034 0590     		str	r0, [sp, #20]
 4105              	.LVL405:
 4106              		.loc 3 515 0
 4107 0036 00FB01F1 		mul	r1, r0, r1
 4108              	.LVL406:
 4109              		.loc 3 514 0
 4110 003a 02FB07F2 		mul	r2, r2, r7
 4111              	.LVL407:
 4112              		.loc 3 515 0
 4113 003e 0691     		str	r1, [sp, #24]
 4114              	.LBB1329:
 4115              		.loc 3 582 0
 4116 0040 11FB02F1 		smulbb	r1, r1, r2
 4117 0044 B1F5207F 		cmp	r1, #640
 4118 0048 79D8     		bhi	.L203
 4119              		.loc 3 585 0
 4120 004a 5869     		ldr	r0, [r3, #20]
 4121 004c 9B69     		ldr	r3, [r3, #24]
 4122              	.LVL408:
 4123 004e 30F81410 		ldrh	r1, [r0, r4, lsl #1]
 4124              		.loc 3 588 0
 4125 0052 069C     		ldr	r4, [sp, #24]
 4126 0054 24B2     		sxth	r4, r4
 4127              		.loc 3 585 0
 4128 0056 03EB4100 		add	r0, r3, r1, lsl #1
 4129              		.loc 3 588 0
 4130 005a 002C     		cmp	r4, #0
 4131 005c 0994     		str	r4, [sp, #36]
 4132              		.loc 3 585 0
 4133 005e 0B90     		str	r0, [sp, #44]
 4134              	.LVL409:
 4135              		.loc 3 588 0
 4136 0060 40F3A580 		ble	.L252
 4137 0064 5449     		ldr	r1, .L253
 4138              	.LBE1329:
 4139              		.loc 3 504 0
 4140 0066 099C     		ldr	r4, [sp, #36]
 4141 0068 0791     		str	r1, [sp, #28]
 4142 006a 0599     		ldr	r1, [sp, #20]
 4143              		.loc 3 588 0
 4144 006c 0020     		movs	r0, #0
 4145              	.LVL410:
 4146 006e 12B2     		sxth	r2, r2
 4147              	.LVL411:
 4148 0070 0A90     		str	r0, [sp, #40]
 4149              		.loc 3 504 0
 4150 0072 6300     		lsls	r3, r4, #1
ARM GAS  /tmp/ccLrOMZj.s 			page 74


 4151 0074 0492     		str	r2, [sp, #16]
 4152 0076 0FFA81F8 		sxth	r8, r1
 4153 007a 38B2     		sxth	r0, r7
 4154              	.LVL412:
 4155              	.L207:
 4156              	.LBB1330:
 4157              		.loc 3 590 0
 4158 007c 0B9C     		ldr	r4, [sp, #44]
 4159              		.loc 3 593 0
 4160 007e 049A     		ldr	r2, [sp, #16]
 4161              		.loc 3 590 0
 4162 0080 34F802EB 		ldrh	lr, [r4], #2
 4163              		.loc 3 593 0
 4164 0084 002A     		cmp	r2, #0
 4165              		.loc 3 590 0
 4166 0086 0B94     		str	r4, [sp, #44]
 4167              	.LVL413:
 4168              		.loc 3 593 0
 4169 0088 43DD     		ble	.L217
 4170              		.loc 3 504 0
 4171 008a 0A99     		ldr	r1, [sp, #40]
 4172 008c 0CB2     		sxth	r4, r1
 4173              	.LVL414:
 4174              		.loc 3 593 0
 4175 008e 4FF0000C 		mov	ip, #0
 4176              		.loc 3 504 0
 4177 0092 0894     		str	r4, [sp, #32]
 4178              	.LVL415:
 4179              	.L206:
 4180              		.loc 3 594 0
 4181 0094 1EF0010B 		ands	fp, lr, #1
 4182 0098 54D1     		bne	.L209
 4183              	.LVL416:
 4184              		.loc 3 599 0 discriminator 1
 4185 009a 059A     		ldr	r2, [sp, #20]
 4186 009c 72B3     		cbz	r2, .L210
 4187              		.loc 3 504 0
 4188 009e 0699     		ldr	r1, [sp, #24]
 4189 00a0 089C     		ldr	r4, [sp, #32]
 4190 00a2 079A     		ldr	r2, [sp, #28]
 4191 00a4 11FB0C49 		smlabb	r9, r1, ip, r4
 4192 00a8 02EB4909 		add	r9, r2, r9, lsl #1
 4193              	.LVL417:
 4194              	.L211:
 4195              		.loc 3 600 0 discriminator 1
 4196 00ac E7B1     		cbz	r7, .L216
 4197              		.loc 3 600 0 is_stmt 0
 4198 00ae 0122     		movs	r2, #1
 4199              	.LVL418:
 4200 00b0 411E     		subs	r1, r0, #1
 4201 00b2 9042     		cmp	r0, r2
 4202 00b4 01EA0204 		and	r4, r1, r2
 4203              		.loc 3 601 0 is_stmt 1
 4204 00b8 A9F80060 		strh	r6, [r9, #0]	@ movhi
 4205 00bc 1946     		mov	r1, r3
 4206              		.loc 3 600 0
 4207 00be 13DD     		ble	.L216
ARM GAS  /tmp/ccLrOMZj.s 			page 75


 4208 00c0 2CB1     		cbz	r4, .L215
 4209 00c2 0222     		movs	r2, #2
 4210 00c4 5900     		lsls	r1, r3, #1
 4211 00c6 9042     		cmp	r0, r2
 4212              		.loc 3 601 0
 4213 00c8 29F80360 		strh	r6, [r9, r3]	@ movhi
 4214              		.loc 3 600 0
 4215 00cc 0CDD     		ble	.L216
 4216              	.L215:
 4217              		.loc 3 600 0 is_stmt 0 discriminator 2
 4218 00ce 0232     		adds	r2, r2, #2
 4219 00d0 92B2     		uxth	r2, r2
 4220 00d2 CC18     		adds	r4, r1, r3
 4221 00d4 0FFA82FA 		sxth	sl, r2
 4222 00d8 5045     		cmp	r0, sl
 4223              		.loc 3 601 0 is_stmt 1 discriminator 2
 4224 00da 29F80160 		strh	r6, [r9, r1]	@ movhi
 4225 00de 29F80460 		strh	r6, [r9, r4]	@ movhi
 4226 00e2 04EB0301 		add	r1, r4, r3
 4227              		.loc 3 600 0 discriminator 2
 4228 00e6 F2DC     		bgt	.L215
 4229              	.L216:
 4230              		.loc 3 599 0
 4231 00e8 0BF1010B 		add	fp, fp, #1
 4232 00ec 1FFA8BFB 		uxth	fp, fp
 4233              	.LVL419:
 4234 00f0 0FFA8BF1 		sxth	r1, fp
 4235 00f4 8845     		cmp	r8, r1
 4236 00f6 09F10209 		add	r9, r9, #2
 4237 00fa D7DC     		bgt	.L211
 4238              	.LVL420:
 4239              	.L210:
 4240              		.loc 3 504 0
 4241 00fc BC44     		add	ip, r7, ip
 4242 00fe 1FFA8CF4 		uxth	r4, ip
 4243              		.loc 3 593 0
 4244 0102 0499     		ldr	r1, [sp, #16]
 4245 0104 22B2     		sxth	r2, r4
 4246 0106 9142     		cmp	r1, r2
 4247              		.loc 3 504 0
 4248 0108 1FFA84FC 		uxth	ip, r4
 4249              	.LVL421:
 4250              		.loc 3 593 0
 4251 010c 4FEA5E0E 		lsr	lr, lr, #1
 4252              	.LVL422:
 4253 0110 C0DC     		bgt	.L206
 4254              	.LVL423:
 4255              	.L217:
 4256              		.loc 3 504 0
 4257 0112 059A     		ldr	r2, [sp, #20]
 4258 0114 0A9C     		ldr	r4, [sp, #40]
 4259 0116 1119     		adds	r1, r2, r4
 4260 0118 8AB2     		uxth	r2, r1
 4261              		.loc 3 588 0
 4262 011a 11B2     		sxth	r1, r2
 4263              		.loc 3 504 0
 4264 011c 92B2     		uxth	r2, r2
ARM GAS  /tmp/ccLrOMZj.s 			page 76


 4265 011e 0A92     		str	r2, [sp, #40]
 4266              	.LVL424:
 4267              		.loc 3 588 0
 4268 0120 099A     		ldr	r2, [sp, #36]
 4269 0122 8A42     		cmp	r2, r1
 4270 0124 AADC     		bgt	.L207
 4271              	.LVL425:
 4272              	.L208:
 4273              		.loc 3 607 0
 4274 0126 079B     		ldr	r3, [sp, #28]
 4275 0128 099A     		ldr	r2, [sp, #36]
 4276 012a 0393     		str	r3, [sp, #12]
 4277 012c 0020     		movs	r0, #0
 4278 012e 0090     		str	r0, [sp, #0]
 4279 0130 0190     		str	r0, [sp, #4]
 4280 0132 0292     		str	r2, [sp, #8]
 4281 0134 0C98     		ldr	r0, [sp, #48]
 4282 0136 0D99     		ldr	r1, [sp, #52]
 4283 0138 049B     		ldr	r3, [sp, #16]
 4284 013a FFF7FEFF 		bl	gdisp_lld_blit_area_ex
 4285              	.LVL426:
 4286              	.L203:
 4287              	.LBE1330:
 4288              		.loc 3 639 0
 4289 013e 0FB0     		add	sp, sp, #60
 4290 0140 BDE8F08F 		pop	{r4, r5, r6, r7, r8, r9, sl, fp, pc}
 4291              	.LVL427:
 4292              	.L209:
 4293              	.LBB1331:
 4294              		.loc 3 595 0 discriminator 1
 4295 0144 059A     		ldr	r2, [sp, #20]
 4296 0146 002A     		cmp	r2, #0
 4297 0148 D8D0     		beq	.L210
 4298              		.loc 3 504 0
 4299 014a 069C     		ldr	r4, [sp, #24]
 4300 014c 0899     		ldr	r1, [sp, #32]
 4301 014e 079A     		ldr	r2, [sp, #28]
 4302 0150 14FB0C19 		smlabb	r9, r4, ip, r1
 4303 0154 02EB4909 		add	r9, r2, r9, lsl #1
 4304 0158 4FF0000B 		mov	fp, #0
 4305              	.LVL428:
 4306              	.L212:
 4307              		.loc 3 596 0 discriminator 1
 4308 015c E7B1     		cbz	r7, .L214
 4309              		.loc 3 596 0 is_stmt 0
 4310 015e 0122     		movs	r2, #1
 4311              	.LVL429:
 4312 0160 441E     		subs	r4, r0, #1
 4313 0162 9042     		cmp	r0, r2
 4314              		.loc 3 597 0 is_stmt 1
 4315 0164 A9F80050 		strh	r5, [r9, #0]	@ movhi
 4316 0168 04EA0204 		and	r4, r4, r2
 4317 016c 1946     		mov	r1, r3
 4318              		.loc 3 596 0
 4319 016e 13DD     		ble	.L214
 4320 0170 2CB1     		cbz	r4, .L213
 4321 0172 0222     		movs	r2, #2
ARM GAS  /tmp/ccLrOMZj.s 			page 77


 4322 0174 5900     		lsls	r1, r3, #1
 4323 0176 9042     		cmp	r0, r2
 4324              		.loc 3 597 0
 4325 0178 29F80350 		strh	r5, [r9, r3]	@ movhi
 4326              		.loc 3 596 0
 4327 017c 0CDD     		ble	.L214
 4328              	.L213:
 4329              		.loc 3 596 0 is_stmt 0 discriminator 2
 4330 017e 0232     		adds	r2, r2, #2
 4331 0180 92B2     		uxth	r2, r2
 4332 0182 CC18     		adds	r4, r1, r3
 4333 0184 0FFA82FA 		sxth	sl, r2
 4334 0188 5045     		cmp	r0, sl
 4335              		.loc 3 597 0 is_stmt 1 discriminator 2
 4336 018a 29F80150 		strh	r5, [r9, r1]	@ movhi
 4337 018e 29F80450 		strh	r5, [r9, r4]	@ movhi
 4338 0192 04EB0301 		add	r1, r4, r3
 4339              		.loc 3 596 0 discriminator 2
 4340 0196 F2DC     		bgt	.L213
 4341              	.L214:
 4342              		.loc 3 595 0
 4343 0198 0BF1010B 		add	fp, fp, #1
 4344 019c 1FFA8BFB 		uxth	fp, fp
 4345              	.LVL430:
 4346 01a0 0FFA8BF1 		sxth	r1, fp
 4347 01a4 8845     		cmp	r8, r1
 4348 01a6 09F10209 		add	r9, r9, #2
 4349 01aa D7DC     		bgt	.L212
 4350 01ac A6E7     		b	.L210
 4351              	.LVL431:
 4352              	.L252:
 4353 01ae 024B     		ldr	r3, .L253
 4354 01b0 12B2     		sxth	r2, r2
 4355              	.LVL432:
 4356 01b2 0793     		str	r3, [sp, #28]
 4357 01b4 0492     		str	r2, [sp, #16]
 4358 01b6 B6E7     		b	.L208
 4359              	.L254:
 4360              		.align	2
 4361              	.L253:
 4362 01b8 00000000 		.word	.LANCHOR2
 4363              	.LBE1331:
 4364              		.cfi_endproc
 4365              	.LFE123:
 4366              		.size	gdisp_lld_fill_char, .-gdisp_lld_fill_char
 4367 01bc AFF30080 		.section	.text.gdisp_lld_control,"ax",%progbits
 4368              		.align	2
 4369              		.p2align 4,,15
 4370              		.global	gdisp_lld_control
 4371              		.thumb
 4372              		.thumb_func
 4373              		.type	gdisp_lld_control, %function
 4374              	gdisp_lld_control:
 4375              	.LFB140:
 4376              		.loc 1 539 0
 4377              		.cfi_startproc
 4378              		@ args = 0, pretend = 0, frame = 0
ARM GAS  /tmp/ccLrOMZj.s 			page 78


 4379              		@ frame_needed = 0, uses_anonymous_args = 0
 4380              	.LVL433:
 4381              		.loc 1 540 0
 4382 0000 0128     		cmp	r0, #1
 4383              		.loc 1 539 0
 4384 0002 F8B5     		push	{r3, r4, r5, r6, r7, lr}
 4385              	.LCFI18:
 4386              		.cfi_def_cfa_offset 24
 4387              		.cfi_offset 3, -24
 4388              		.cfi_offset 4, -20
 4389              		.cfi_offset 5, -16
 4390              		.cfi_offset 6, -12
 4391              		.cfi_offset 7, -8
 4392              		.cfi_offset 14, -4
 4393              		.loc 1 540 0
 4394 0004 26D0     		beq	.L258
 4395 0006 08D3     		bcc	.L257
 4396 0008 0228     		cmp	r0, #2
 4397 000a 05D1     		bne	.L255
 4398              		.loc 1 622 0
 4399 000c 6429     		cmp	r1, #100
 4400              		.loc 1 625 0
 4401 000e 574B     		ldr	r3, .L275
 4402 0010 94BF     		ite	ls
 4403 0012 C9B2     		uxtbls	r1, r1
 4404              	.LVL434:
 4405              		.loc 1 622 0
 4406 0014 6421     		movhi	r1, #100
 4407              	.LVL435:
 4408              		.loc 1 625 0
 4409 0016 9971     		strb	r1, [r3, #6]
 4410              	.LVL436:
 4411              	.L255:
 4412 0018 F8BD     		pop	{r3, r4, r5, r6, r7, pc}
 4413              	.LVL437:
 4414              	.L257:
 4415              		.loc 1 542 0
 4416 001a 544D     		ldr	r5, .L275
 4417 001c 6B79     		ldrb	r3, [r5, #5]	@ zero_extendqisi2
 4418 001e CCB2     		uxtb	r4, r1
 4419 0020 A342     		cmp	r3, r4
 4420 0022 F9D0     		beq	.L255
 4421              		.loc 1 544 0
 4422 0024 012C     		cmp	r4, #1
 4423 0026 20D0     		beq	.L261
 4424 0028 032C     		cmp	r4, #3
 4425 002a 27D0     		beq	.L262
 4426 002c 002C     		cmp	r4, #0
 4427 002e F3D1     		bne	.L255
 4428              	.LVL438:
 4429              	.LBB1332:
 4430              	.LBB1333:
 4431              		.loc 2 153 0
 4432 0030 0023     		movs	r3, #0
 4433              	.LBE1333:
 4434              	.LBE1332:
 4435              	.LBB1336:
ARM GAS  /tmp/ccLrOMZj.s 			page 79


 4436              	.LBB1337:
 4437              		.loc 2 144 0
 4438 0032 4FF0C042 		mov	r2, #1610612736
 4439              	.LBE1337:
 4440              	.LBE1336:
 4441              	.LBB1340:
 4442              	.LBB1334:
 4443              		.loc 2 153 0
 4444 0036 C6F20203 		movt	r3, 24578
 4445              	.LBE1334:
 4446              	.LBE1340:
 4447              	.LBB1341:
 4448              	.LBB1338:
 4449              		.loc 2 144 0
 4450 003a 1021     		movs	r1, #16
 4451              	.LVL439:
 4452              	.LBE1338:
 4453              	.LBE1341:
 4454              	.LBB1342:
 4455              	.LBB1343:
 4456 003c 0720     		movs	r0, #7
 4457              	.LVL440:
 4458              	.LBE1343:
 4459              	.LBE1342:
 4460              	.LBB1345:
 4461              	.LBB1339:
 4462 003e 1180     		strh	r1, [r2, #0]	@ movhi
 4463              	.LVL441:
 4464              	.LBE1339:
 4465              	.LBE1345:
 4466              	.LBB1346:
 4467              	.LBB1335:
 4468              		.loc 2 153 0
 4469 0040 1C80     		strh	r4, [r3, #0]	@ movhi
 4470              	.LVL442:
 4471              	.LBE1335:
 4472              	.LBE1346:
 4473              	.LBB1347:
 4474              	.LBB1344:
 4475              		.loc 2 144 0
 4476 0042 1080     		strh	r0, [r2, #0]	@ movhi
 4477              	.LVL443:
 4478              	.LBE1344:
 4479              	.LBE1347:
 4480              	.LBB1348:
 4481              	.LBB1349:
 4482              		.loc 2 153 0
 4483 0044 1C80     		strh	r4, [r3, #0]	@ movhi
 4484              	.LVL444:
 4485              	.LBE1349:
 4486              	.LBE1348:
 4487              	.LBB1350:
 4488              	.LBB1351:
 4489              		.loc 2 144 0
 4490 0046 1480     		strh	r4, [r2, #0]	@ movhi
 4491              	.LVL445:
 4492              	.LBE1351:
ARM GAS  /tmp/ccLrOMZj.s 			page 80


 4493              	.LBE1350:
 4494              	.LBB1352:
 4495              	.LBB1353:
 4496              		.loc 2 153 0
 4497 0048 1C80     		strh	r4, [r3, #0]	@ movhi
 4498              	.LVL446:
 4499              	.LBE1353:
 4500              	.LBE1352:
 4501              	.LBB1354:
 4502              	.LBB1355:
 4503              		.loc 2 144 0
 4504 004a 1180     		strh	r1, [r2, #0]	@ movhi
 4505              	.LVL447:
 4506              	.LBE1355:
 4507              	.LBE1354:
 4508              	.LBB1356:
 4509              	.LBB1357:
 4510              		.loc 2 153 0
 4511 004c 0122     		movs	r2, #1
 4512 004e 1A80     		strh	r2, [r3, #0]	@ movhi
 4513              	.LVL448:
 4514              	.L263:
 4515              	.LBE1357:
 4516              	.LBE1356:
 4517              		.loc 1 568 0
 4518 0050 6C71     		strb	r4, [r5, #5]
 4519              		.loc 1 569 0
 4520 0052 F8BD     		pop	{r3, r4, r5, r6, r7, pc}
 4521              	.LVL449:
 4522              	.L258:
 4523              		.loc 1 571 0
 4524 0054 454B     		ldr	r3, .L275
 4525 0056 1879     		ldrb	r0, [r3, #4]	@ zero_extendqisi2
 4526              	.LVL450:
 4527 0058 C9B2     		uxtb	r1, r1
 4528              	.LVL451:
 4529 005a 8842     		cmp	r0, r1
 4530 005c DCD0     		beq	.L255
 4531              		.loc 1 573 0
 4532 005e 0329     		cmp	r1, #3
 4533 0060 DAD8     		bhi	.L255
 4534 0062 DFE801F0 		tbb	[pc, r1]
 4535              	.L268:
 4536 0066 38       		.byte	(.L264-.L268)/2
 4537 0067 51       		.byte	(.L265-.L268)/2
 4538 0068 6A       		.byte	(.L266-.L268)/2
 4539 0069 19       		.byte	(.L267-.L268)/2
 4540              		.align	1
 4541              	.LVL452:
 4542              	.L261:
 4543              	.LBB1358:
 4544              	.LBB1359:
 4545              		.loc 2 153 0
 4546 006a 0023     		movs	r3, #0
 4547 006c C6F20203 		movt	r3, 24578
 4548              	.LBE1359:
 4549              	.LBE1358:
ARM GAS  /tmp/ccLrOMZj.s 			page 81


 4550              	.LBB1361:
 4551              	.LBB1362:
 4552              		.loc 2 144 0
 4553 0070 4FF0C042 		mov	r2, #1610612736
 4554 0074 1021     		movs	r1, #16
 4555              	.LVL453:
 4556 0076 1180     		strh	r1, [r2, #0]	@ movhi
 4557              	.LVL454:
 4558              	.LBE1362:
 4559              	.LBE1361:
 4560              	.LBB1363:
 4561              	.LBB1360:
 4562              		.loc 2 153 0
 4563 0078 1C80     		strh	r4, [r3, #0]	@ movhi
 4564 007a E9E7     		b	.L263
 4565              	.LVL455:
 4566              	.L262:
 4567              	.LBE1360:
 4568              	.LBE1363:
 4569              	.LBB1364:
 4570              	.LBB1365:
 4571 007c 0022     		movs	r2, #0
 4572              	.LBE1365:
 4573              	.LBE1364:
 4574              	.LBB1369:
 4575              	.LBB1370:
 4576              		.loc 2 144 0
 4577 007e 4FF0C041 		mov	r1, #1610612736
 4578              	.LVL456:
 4579 0082 1020     		movs	r0, #16
 4580              	.LVL457:
 4581              	.LBE1370:
 4582              	.LBE1369:
 4583              	.LBB1372:
 4584              	.LBB1366:
 4585              		.loc 2 153 0
 4586 0084 C6F20202 		movt	r2, 24578
 4587              	.LBE1366:
 4588              	.LBE1372:
 4589              	.LBB1373:
 4590              	.LBB1371:
 4591              		.loc 2 144 0
 4592 0088 0880     		strh	r0, [r1, #0]	@ movhi
 4593              	.LVL458:
 4594              	.LBE1371:
 4595              	.LBE1373:
 4596              	.LBB1374:
 4597              	.LBB1367:
 4598              		.loc 2 153 0
 4599 008a 0020     		movs	r0, #0
 4600              	.LBE1367:
 4601              	.LBE1374:
 4602              		.loc 1 557 0
 4603 008c 012B     		cmp	r3, #1
 4604              	.LBB1375:
 4605              	.LBB1368:
 4606              		.loc 2 153 0
ARM GAS  /tmp/ccLrOMZj.s 			page 82


 4607 008e 1080     		strh	r0, [r2, #0]	@ movhi
 4608              	.LBE1368:
 4609              	.LBE1375:
 4610              		.loc 1 557 0
 4611 0090 DED0     		beq	.L263
 4612              		.loc 1 558 0
 4613 0092 FFF7FEFF 		bl	gdisp_lld_init
 4614              	.LVL459:
 4615 0096 DBE7     		b	.L263
 4616              	.LVL460:
 4617              	.L267:
 4618              	.LBB1376:
 4619              	.LBB1377:
 4620              		.loc 2 144 0
 4621 0098 4FF0C047 		mov	r7, #1610612736
 4622              	.LBE1377:
 4623              	.LBE1376:
 4624              	.LBB1379:
 4625              	.LBB1380:
 4626              		.loc 2 153 0
 4627 009c 0022     		movs	r2, #0
 4628 009e C6F20202 		movt	r2, 24578
 4629              	.LBE1380:
 4630              	.LBE1379:
 4631              	.LBB1382:
 4632              	.LBB1378:
 4633              		.loc 2 144 0
 4634 00a2 0124     		movs	r4, #1
 4635 00a4 3C80     		strh	r4, [r7, #0]	@ movhi
 4636              	.LVL461:
 4637              	.LBE1378:
 4638              	.LBE1382:
 4639              	.LBB1383:
 4640              	.LBB1384:
 4641 00a6 4FF0110C 		mov	ip, #17
 4642              	.LBE1384:
 4643              	.LBE1383:
 4644              	.LBB1386:
 4645              	.LBB1381:
 4646              		.loc 2 153 0
 4647 00aa 42F63F14 		movw	r4, #10559
 4648 00ae 1480     		strh	r4, [r2, #0]	@ movhi
 4649              	.LVL462:
 4650              	.LBE1381:
 4651              	.LBE1386:
 4652              		.loc 1 607 0
 4653 00b0 F026     		movs	r6, #240
 4654              	.LBB1387:
 4655              	.LBB1385:
 4656              		.loc 2 144 0
 4657 00b2 A7F800C0 		strh	ip, [r7, #0]	@ movhi
 4658              	.LVL463:
 4659              	.LBE1385:
 4660              	.LBE1387:
 4661              		.loc 1 608 0
 4662 00b6 4FF4A075 		mov	r5, #320
 4663              	.LBB1388:
ARM GAS  /tmp/ccLrOMZj.s 			page 83


 4664              	.LBB1389:
 4665              		.loc 2 153 0
 4666 00ba 46F24807 		movw	r7, #24648
 4667 00be 1780     		strh	r7, [r2, #0]	@ movhi
 4668              	.LBE1389:
 4669              	.LBE1388:
 4670              		.loc 1 609 0
 4671 00c0 3046     		mov	r0, r6
 4672 00c2 2C46     		mov	r4, r5
 4673              		.loc 1 607 0
 4674 00c4 5E80     		strh	r6, [r3, #2]	@ movhi
 4675              		.loc 1 608 0
 4676 00c6 1D80     		strh	r5, [r3, #0]	@ movhi
 4677              	.LVL464:
 4678              	.L269:
 4679              		.loc 1 614 0
 4680 00c8 0022     		movs	r2, #0
 4681 00ca 1A81     		strh	r2, [r3, #8]	@ movhi
 4682              		.loc 1 615 0
 4683 00cc 5A81     		strh	r2, [r3, #10]	@ movhi
 4684              		.loc 1 616 0
 4685 00ce 9C81     		strh	r4, [r3, #12]	@ movhi
 4686              		.loc 1 617 0
 4687 00d0 D881     		strh	r0, [r3, #14]	@ movhi
 4688              		.loc 1 619 0
 4689 00d2 1971     		strb	r1, [r3, #4]
 4690              		.loc 1 620 0
 4691 00d4 F8BD     		pop	{r3, r4, r5, r6, r7, pc}
 4692              	.L264:
 4693              	.LVL465:
 4694              	.LBB1390:
 4695              	.LBB1391:
 4696              		.loc 2 153 0
 4697 00d6 0022     		movs	r2, #0
 4698              	.LBE1391:
 4699              	.LBE1390:
 4700              	.LBB1395:
 4701              	.LBB1396:
 4702              		.loc 2 144 0
 4703 00d8 4FF0C047 		mov	r7, #1610612736
 4704              	.LBE1396:
 4705              	.LBE1395:
 4706              	.LBB1399:
 4707              	.LBB1392:
 4708              		.loc 2 153 0
 4709 00dc C6F20202 		movt	r2, 24578
 4710              	.LBE1392:
 4711              	.LBE1399:
 4712              	.LBB1400:
 4713              	.LBB1397:
 4714              		.loc 2 144 0
 4715 00e0 0120     		movs	r0, #1
 4716              	.LBE1397:
 4717              	.LBE1400:
 4718              	.LBB1401:
 4719              	.LBB1393:
 4720              		.loc 2 153 0
ARM GAS  /tmp/ccLrOMZj.s 			page 84


 4721 00e2 42F63F34 		movw	r4, #11071
 4722              	.LBE1393:
 4723              	.LBE1401:
 4724              	.LBB1402:
 4725              	.LBB1403:
 4726              		.loc 2 144 0
 4727 00e6 4FF0110C 		mov	ip, #17
 4728              	.LBE1403:
 4729              	.LBE1402:
 4730              	.LBB1405:
 4731              	.LBB1398:
 4732 00ea 3880     		strh	r0, [r7, #0]	@ movhi
 4733              	.LVL466:
 4734              	.LBE1398:
 4735              	.LBE1405:
 4736              		.loc 1 580 0
 4737 00ec 4FF4A076 		mov	r6, #320
 4738              	.LBB1406:
 4739              	.LBB1394:
 4740              		.loc 2 153 0
 4741 00f0 1480     		strh	r4, [r2, #0]	@ movhi
 4742              	.LVL467:
 4743              	.LBE1394:
 4744              	.LBE1406:
 4745              		.loc 1 581 0
 4746 00f2 F025     		movs	r5, #240
 4747              	.LBB1407:
 4748              	.LBB1404:
 4749              		.loc 2 144 0
 4750 00f4 A7F800C0 		strh	ip, [r7, #0]	@ movhi
 4751              	.LVL468:
 4752              	.LBE1404:
 4753              	.LBE1407:
 4754              	.LBB1408:
 4755              	.LBB1409:
 4756              		.loc 2 153 0
 4757 00f8 46F27007 		movw	r7, #24688
 4758 00fc 1780     		strh	r7, [r2, #0]	@ movhi
 4759              	.LBE1409:
 4760              	.LBE1408:
 4761              		.loc 1 582 0
 4762 00fe 3046     		mov	r0, r6
 4763 0100 2C46     		mov	r4, r5
 4764              		.loc 1 580 0
 4765 0102 5E80     		strh	r6, [r3, #2]	@ movhi
 4766              		.loc 1 581 0
 4767 0104 1D80     		strh	r5, [r3, #0]	@ movhi
 4768              		.loc 1 582 0
 4769 0106 DFE7     		b	.L269
 4770              	.LVL469:
 4771              	.L265:
 4772              	.LBB1410:
 4773              	.LBB1411:
 4774              		.loc 2 153 0
 4775 0108 0022     		movs	r2, #0
 4776              	.LBE1411:
 4777              	.LBE1410:
ARM GAS  /tmp/ccLrOMZj.s 			page 85


 4778              	.LBB1415:
 4779              	.LBB1416:
 4780              		.loc 2 144 0
 4781 010a 4FF0C047 		mov	r7, #1610612736
 4782              	.LBE1416:
 4783              	.LBE1415:
 4784              	.LBB1419:
 4785              	.LBB1412:
 4786              		.loc 2 153 0
 4787 010e C6F20202 		movt	r2, 24578
 4788              	.LBE1412:
 4789              	.LBE1419:
 4790              	.LBB1420:
 4791              	.LBB1417:
 4792              		.loc 2 144 0
 4793 0112 0120     		movs	r0, #1
 4794              	.LBE1417:
 4795              	.LBE1420:
 4796              	.LBB1421:
 4797              	.LBB1413:
 4798              		.loc 2 153 0
 4799 0114 42F63F14 		movw	r4, #10559
 4800              	.LBE1413:
 4801              	.LBE1421:
 4802              	.LBB1422:
 4803              	.LBB1423:
 4804              		.loc 2 144 0
 4805 0118 4FF0110C 		mov	ip, #17
 4806              	.LBE1423:
 4807              	.LBE1422:
 4808              	.LBB1425:
 4809              	.LBB1418:
 4810 011c 3880     		strh	r0, [r7, #0]	@ movhi
 4811              	.LVL470:
 4812              	.LBE1418:
 4813              	.LBE1425:
 4814              		.loc 1 589 0
 4815 011e F026     		movs	r6, #240
 4816              	.LBB1426:
 4817              	.LBB1414:
 4818              		.loc 2 153 0
 4819 0120 1480     		strh	r4, [r2, #0]	@ movhi
 4820              	.LVL471:
 4821              	.LBE1414:
 4822              	.LBE1426:
 4823              		.loc 1 590 0
 4824 0122 4FF4A075 		mov	r5, #320
 4825              	.LBB1427:
 4826              	.LBB1424:
 4827              		.loc 2 144 0
 4828 0126 A7F800C0 		strh	ip, [r7, #0]	@ movhi
 4829              	.LVL472:
 4830              	.LBE1424:
 4831              	.LBE1427:
 4832              	.LBB1428:
 4833              	.LBB1429:
 4834              		.loc 2 153 0
ARM GAS  /tmp/ccLrOMZj.s 			page 86


 4835 012a 46F27807 		movw	r7, #24696
 4836 012e 1780     		strh	r7, [r2, #0]	@ movhi
 4837              	.LBE1429:
 4838              	.LBE1428:
 4839              		.loc 1 591 0
 4840 0130 3046     		mov	r0, r6
 4841 0132 2C46     		mov	r4, r5
 4842              		.loc 1 589 0
 4843 0134 5E80     		strh	r6, [r3, #2]	@ movhi
 4844              		.loc 1 590 0
 4845 0136 1D80     		strh	r5, [r3, #0]	@ movhi
 4846              		.loc 1 591 0
 4847 0138 C6E7     		b	.L269
 4848              	.LVL473:
 4849              	.L266:
 4850              	.LBB1430:
 4851              	.LBB1431:
 4852              		.loc 2 153 0
 4853 013a 0022     		movs	r2, #0
 4854              	.LBE1431:
 4855              	.LBE1430:
 4856              	.LBB1435:
 4857              	.LBB1436:
 4858              		.loc 2 144 0
 4859 013c 4FF0C047 		mov	r7, #1610612736
 4860              	.LBE1436:
 4861              	.LBE1435:
 4862              	.LBB1439:
 4863              	.LBB1432:
 4864              		.loc 2 153 0
 4865 0140 C6F20202 		movt	r2, 24578
 4866              	.LBE1432:
 4867              	.LBE1439:
 4868              	.LBB1440:
 4869              	.LBB1437:
 4870              		.loc 2 144 0
 4871 0144 0120     		movs	r0, #1
 4872              	.LBE1437:
 4873              	.LBE1440:
 4874              	.LBB1441:
 4875              	.LBB1433:
 4876              		.loc 2 153 0
 4877 0146 42F63F34 		movw	r4, #11071
 4878              	.LBE1433:
 4879              	.LBE1441:
 4880              	.LBB1442:
 4881              	.LBB1443:
 4882              		.loc 2 144 0
 4883 014a 4FF0110C 		mov	ip, #17
 4884              	.LBE1443:
 4885              	.LBE1442:
 4886              	.LBB1445:
 4887              	.LBB1438:
 4888 014e 3880     		strh	r0, [r7, #0]	@ movhi
 4889              	.LVL474:
 4890              	.LBE1438:
 4891              	.LBE1445:
ARM GAS  /tmp/ccLrOMZj.s 			page 87


 4892              		.loc 1 598 0
 4893 0150 4FF4A076 		mov	r6, #320
 4894              	.LBB1446:
 4895              	.LBB1434:
 4896              		.loc 2 153 0
 4897 0154 1480     		strh	r4, [r2, #0]	@ movhi
 4898              	.LVL475:
 4899              	.LBE1434:
 4900              	.LBE1446:
 4901              		.loc 1 599 0
 4902 0156 F025     		movs	r5, #240
 4903              	.LBB1447:
 4904              	.LBB1444:
 4905              		.loc 2 144 0
 4906 0158 A7F800C0 		strh	ip, [r7, #0]	@ movhi
 4907              	.LVL476:
 4908              	.LBE1444:
 4909              	.LBE1447:
 4910              	.LBB1448:
 4911              	.LBB1449:
 4912              		.loc 2 153 0
 4913 015c 46F24007 		movw	r7, #24640
 4914 0160 1780     		strh	r7, [r2, #0]	@ movhi
 4915              	.LBE1449:
 4916              	.LBE1448:
 4917              		.loc 1 600 0
 4918 0162 3046     		mov	r0, r6
 4919 0164 2C46     		mov	r4, r5
 4920              		.loc 1 598 0
 4921 0166 5E80     		strh	r6, [r3, #2]	@ movhi
 4922              		.loc 1 599 0
 4923 0168 1D80     		strh	r5, [r3, #0]	@ movhi
 4924              		.loc 1 600 0
 4925 016a ADE7     		b	.L269
 4926              	.L276:
 4927              		.align	2
 4928              	.L275:
 4929 016c 00000000 		.word	.LANCHOR0
 4930              		.cfi_endproc
 4931              	.LFE140:
 4932              		.size	gdisp_lld_control, .-gdisp_lld_control
 4933              		.global	GDISP
 4934              		.section	.rodata
 4935              		.align	2
 4936              		.set	.LANCHOR1,. + 0
 4937              	.LC0:
 4938 0000 000C0240 		.word	1073875968
 4939 0004 B3CF0000 		.word	53171
 4940 0008 00000000 		.word	0
 4941              	.LC1:
 4942 000c 00100240 		.word	1073876992
 4943 0010 80FF0000 		.word	65408
 4944 0014 00000000 		.word	0
 4945              		.section	.bss.GDISP,"aw",%nobits
 4946              		.align	2
 4947              		.set	.LANCHOR0,. + 0
 4948              		.type	GDISP, %object
ARM GAS  /tmp/ccLrOMZj.s 			page 88


 4949              		.size	GDISP, 16
 4950              	GDISP:
 4951 0000 00000000 		.space	16
 4951      00000000 
 4951      00000000 
 4951      00000000 
 4952              		.section	.bss.buf.7794,"aw",%nobits
 4953              		.align	2
 4954              		.set	.LANCHOR2,. + 0
 4955              		.type	buf.7794, %object
 4956              		.size	buf.7794, 1280
 4957              	buf.7794:
 4958 0000 00000000 		.space	1280
 4958      00000000 
 4958      00000000 
 4958      00000000 
 4958      00000000 
 4959              		.text
 4960              	.Letext0:
 4961              		.file 4 "/usr/bin/../lib/gcc/arm-none-eabi/4.7.4/../../../../arm-none-eabi/include/stdint.h"
 4962              		.file 5 "../../os/ports/GCC/ARMCMx/chtypes.h"
 4963              		.file 6 "../../os/hal/platforms/STM32F4xx/stm32f4xx.h"
 4964              		.file 7 "../../os/hal/platforms/STM32/GPIOv2/pal_lld.h"
 4965              		.file 8 "../../os/hal/include/pal.h"
 4966              		.file 9 "../../ext/ugfx/include/gos/chibios.h"
 4967              		.file 10 "../../ext/ugfx/include/gdisp/gdisp.h"
 4968              		.file 11 "../../ext/ugfx/include/gdisp/fonts.h"
 4969              		.file 12 "../../os/ports/common/ARMCMx/CMSIS/include/core_cm4.h"
 4970              		.section	.debug_info,"",%progbits
 4971              	.Ldebug_info0:
 4972 0000 3D2B0000 		.4byte	0x2b3d
 4973 0004 0200     		.2byte	0x2
 4974 0006 00000000 		.4byte	.Ldebug_abbrev0
 4975 000a 04       		.byte	0x4
 4976 000b 01       		.uleb128 0x1
 4977 000c 31030000 		.4byte	.LASF160
 4978 0010 01       		.byte	0x1
 4979 0011 5B010000 		.4byte	.LASF161
 4980 0015 FA040000 		.4byte	.LASF162
 4981 0019 D0090000 		.4byte	.Ldebug_ranges0+0x9d0
 4982 001d 00000000 		.4byte	0
 4983 0021 00000000 		.4byte	0
 4984 0025 00000000 		.4byte	.Ldebug_line0
 4985 0029 02       		.uleb128 0x2
 4986 002a 04       		.byte	0x4
 4987 002b 05       		.byte	0x5
 4988 002c 696E7400 		.ascii	"int\000"
 4989 0030 03       		.uleb128 0x3
 4990 0031 04       		.byte	0x4
 4991 0032 07       		.byte	0x7
 4992 0033 1B020000 		.4byte	.LASF0
 4993 0037 03       		.uleb128 0x3
 4994 0038 01       		.byte	0x1
 4995 0039 06       		.byte	0x6
 4996 003a F2000000 		.4byte	.LASF1
 4997 003e 04       		.uleb128 0x4
 4998 003f AA060000 		.4byte	.LASF3
ARM GAS  /tmp/ccLrOMZj.s 			page 89


 4999 0043 04       		.byte	0x4
 5000 0044 2A       		.byte	0x2a
 5001 0045 49000000 		.4byte	0x49
 5002 0049 03       		.uleb128 0x3
 5003 004a 01       		.byte	0x1
 5004 004b 08       		.byte	0x8
 5005 004c CC040000 		.4byte	.LASF2
 5006 0050 04       		.uleb128 0x4
 5007 0051 DC000000 		.4byte	.LASF4
 5008 0055 04       		.byte	0x4
 5009 0056 35       		.byte	0x35
 5010 0057 5B000000 		.4byte	0x5b
 5011 005b 03       		.uleb128 0x3
 5012 005c 02       		.byte	0x2
 5013 005d 05       		.byte	0x5
 5014 005e 27030000 		.4byte	.LASF5
 5015 0062 04       		.uleb128 0x4
 5016 0063 45020000 		.4byte	.LASF6
 5017 0067 04       		.byte	0x4
 5018 0068 36       		.byte	0x36
 5019 0069 6D000000 		.4byte	0x6d
 5020 006d 03       		.uleb128 0x3
 5021 006e 02       		.byte	0x2
 5022 006f 07       		.byte	0x7
 5023 0070 C4020000 		.4byte	.LASF7
 5024 0074 04       		.uleb128 0x4
 5025 0075 C4040000 		.4byte	.LASF8
 5026 0079 04       		.byte	0x4
 5027 007a 4F       		.byte	0x4f
 5028 007b 7F000000 		.4byte	0x7f
 5029 007f 03       		.uleb128 0x3
 5030 0080 04       		.byte	0x4
 5031 0081 05       		.byte	0x5
 5032 0082 63000000 		.4byte	.LASF9
 5033 0086 04       		.uleb128 0x4
 5034 0087 9D050000 		.4byte	.LASF10
 5035 008b 04       		.byte	0x4
 5036 008c 50       		.byte	0x50
 5037 008d 91000000 		.4byte	0x91
 5038 0091 03       		.uleb128 0x3
 5039 0092 04       		.byte	0x4
 5040 0093 07       		.byte	0x7
 5041 0094 63020000 		.4byte	.LASF11
 5042 0098 03       		.uleb128 0x3
 5043 0099 08       		.byte	0x8
 5044 009a 05       		.byte	0x5
 5045 009b E4000000 		.4byte	.LASF12
 5046 009f 03       		.uleb128 0x3
 5047 00a0 08       		.byte	0x8
 5048 00a1 07       		.byte	0x7
 5049 00a2 84000000 		.4byte	.LASF13
 5050 00a6 04       		.uleb128 0x4
 5051 00a7 58050000 		.4byte	.LASF14
 5052 00ab 04       		.byte	0x4
 5053 00ac A0       		.byte	0xa0
 5054 00ad 30000000 		.4byte	0x30
 5055 00b1 04       		.uleb128 0x4
ARM GAS  /tmp/ccLrOMZj.s 			page 90


 5056 00b2 14010000 		.4byte	.LASF15
 5057 00b6 05       		.byte	0x5
 5058 00b7 24       		.byte	0x24
 5059 00b8 BC000000 		.4byte	0xbc
 5060 00bc 03       		.uleb128 0x3
 5061 00bd 01       		.byte	0x1
 5062 00be 02       		.byte	0x2
 5063 00bf BE040000 		.4byte	.LASF16
 5064 00c3 04       		.uleb128 0x4
 5065 00c4 00060000 		.4byte	.LASF17
 5066 00c8 05       		.byte	0x5
 5067 00c9 2E       		.byte	0x2e
 5068 00ca 86000000 		.4byte	0x86
 5069 00ce 05       		.uleb128 0x5
 5070 00cf 04       		.byte	0x4
 5071 00d0 06       		.uleb128 0x6
 5072 00d1 86000000 		.4byte	0x86
 5073 00d5 03       		.uleb128 0x3
 5074 00d6 04       		.byte	0x4
 5075 00d7 07       		.byte	0x7
 5076 00d8 B9030000 		.4byte	.LASF18
 5077 00dc 07       		.uleb128 0x7
 5078 00dd 04       		.byte	0x4
 5079 00de E2000000 		.4byte	0xe2
 5080 00e2 08       		.uleb128 0x8
 5081 00e3 E7000000 		.4byte	0xe7
 5082 00e7 03       		.uleb128 0x3
 5083 00e8 01       		.byte	0x1
 5084 00e9 08       		.byte	0x8
 5085 00ea D0050000 		.4byte	.LASF19
 5086 00ee 07       		.uleb128 0x7
 5087 00ef 04       		.byte	0x4
 5088 00f0 F4000000 		.4byte	0xf4
 5089 00f4 08       		.uleb128 0x8
 5090 00f5 3E000000 		.4byte	0x3e
 5091 00f9 09       		.uleb128 0x9
 5092 00fa 86000000 		.4byte	0x86
 5093 00fe 09010000 		.4byte	0x109
 5094 0102 0A       		.uleb128 0xa
 5095 0103 D5000000 		.4byte	0xd5
 5096 0107 07       		.byte	0x7
 5097 0108 00       		.byte	0
 5098 0109 09       		.uleb128 0x9
 5099 010a 86000000 		.4byte	0x86
 5100 010e 19010000 		.4byte	0x119
 5101 0112 0A       		.uleb128 0xa
 5102 0113 D5000000 		.4byte	0xd5
 5103 0117 01       		.byte	0x1
 5104 0118 00       		.byte	0
 5105 0119 06       		.uleb128 0x6
 5106 011a 74000000 		.4byte	0x74
 5107 011e 08       		.uleb128 0x8
 5108 011f 62000000 		.4byte	0x62
 5109 0123 0B       		.uleb128 0xb
 5110 0124 20       		.byte	0x20
 5111 0125 06       		.byte	0x6
 5112 0126 4F02     		.2byte	0x24f
ARM GAS  /tmp/ccLrOMZj.s 			page 91


 5113 0128 3C010000 		.4byte	0x13c
 5114 012c 0C       		.uleb128 0xc
 5115 012d 4C070000 		.4byte	.LASF21
 5116 0131 06       		.byte	0x6
 5117 0132 5102     		.2byte	0x251
 5118 0134 3C010000 		.4byte	0x13c
 5119 0138 02       		.byte	0x2
 5120 0139 23       		.byte	0x23
 5121 013a 00       		.uleb128 0
 5122 013b 00       		.byte	0
 5123 013c 06       		.uleb128 0x6
 5124 013d F9000000 		.4byte	0xf9
 5125 0141 0D       		.uleb128 0xd
 5126 0142 8A050000 		.4byte	.LASF20
 5127 0146 06       		.byte	0x6
 5128 0147 5202     		.2byte	0x252
 5129 0149 23010000 		.4byte	0x123
 5130 014d 0B       		.uleb128 0xb
 5131 014e 88       		.byte	0x88
 5132 014f 06       		.byte	0x6
 5133 0150 DB02     		.2byte	0x2db
 5134 0152 1A030000 		.4byte	0x31a
 5135 0156 0E       		.uleb128 0xe
 5136 0157 435200   		.ascii	"CR\000"
 5137 015a 06       		.byte	0x6
 5138 015b DD02     		.2byte	0x2dd
 5139 015d D0000000 		.4byte	0xd0
 5140 0161 02       		.byte	0x2
 5141 0162 23       		.byte	0x23
 5142 0163 00       		.uleb128 0
 5143 0164 0C       		.uleb128 0xc
 5144 0165 99010000 		.4byte	.LASF22
 5145 0169 06       		.byte	0x6
 5146 016a DE02     		.2byte	0x2de
 5147 016c D0000000 		.4byte	0xd0
 5148 0170 02       		.byte	0x2
 5149 0171 23       		.byte	0x23
 5150 0172 04       		.uleb128 0x4
 5151 0173 0C       		.uleb128 0xc
 5152 0174 0E070000 		.4byte	.LASF23
 5153 0178 06       		.byte	0x6
 5154 0179 DF02     		.2byte	0x2df
 5155 017b D0000000 		.4byte	0xd0
 5156 017f 02       		.byte	0x2
 5157 0180 23       		.byte	0x23
 5158 0181 08       		.uleb128 0x8
 5159 0182 0E       		.uleb128 0xe
 5160 0183 43495200 		.ascii	"CIR\000"
 5161 0187 06       		.byte	0x6
 5162 0188 E002     		.2byte	0x2e0
 5163 018a D0000000 		.4byte	0xd0
 5164 018e 02       		.byte	0x2
 5165 018f 23       		.byte	0x23
 5166 0190 0C       		.uleb128 0xc
 5167 0191 0C       		.uleb128 0xc
 5168 0192 03010000 		.4byte	.LASF24
 5169 0196 06       		.byte	0x6
ARM GAS  /tmp/ccLrOMZj.s 			page 92


 5170 0197 E102     		.2byte	0x2e1
 5171 0199 D0000000 		.4byte	0xd0
 5172 019d 02       		.byte	0x2
 5173 019e 23       		.byte	0x23
 5174 019f 10       		.uleb128 0x10
 5175 01a0 0C       		.uleb128 0xc
 5176 01a1 E7050000 		.4byte	.LASF25
 5177 01a5 06       		.byte	0x6
 5178 01a6 E202     		.2byte	0x2e2
 5179 01a8 D0000000 		.4byte	0xd0
 5180 01ac 02       		.byte	0x2
 5181 01ad 23       		.byte	0x23
 5182 01ae 14       		.uleb128 0x14
 5183 01af 0C       		.uleb128 0xc
 5184 01b0 FE020000 		.4byte	.LASF26
 5185 01b4 06       		.byte	0x6
 5186 01b5 E302     		.2byte	0x2e3
 5187 01b7 D0000000 		.4byte	0xd0
 5188 01bb 02       		.byte	0x2
 5189 01bc 23       		.byte	0x23
 5190 01bd 18       		.uleb128 0x18
 5191 01be 0C       		.uleb128 0xc
 5192 01bf 74050000 		.4byte	.LASF27
 5193 01c3 06       		.byte	0x6
 5194 01c4 E402     		.2byte	0x2e4
 5195 01c6 86000000 		.4byte	0x86
 5196 01ca 02       		.byte	0x2
 5197 01cb 23       		.byte	0x23
 5198 01cc 1C       		.uleb128 0x1c
 5199 01cd 0C       		.uleb128 0xc
 5200 01ce 30040000 		.4byte	.LASF28
 5201 01d2 06       		.byte	0x6
 5202 01d3 E502     		.2byte	0x2e5
 5203 01d5 D0000000 		.4byte	0xd0
 5204 01d9 02       		.byte	0x2
 5205 01da 23       		.byte	0x23
 5206 01db 20       		.uleb128 0x20
 5207 01dc 0C       		.uleb128 0xc
 5208 01dd 3C010000 		.4byte	.LASF29
 5209 01e1 06       		.byte	0x6
 5210 01e2 E602     		.2byte	0x2e6
 5211 01e4 D0000000 		.4byte	0xd0
 5212 01e8 02       		.byte	0x2
 5213 01e9 23       		.byte	0x23
 5214 01ea 24       		.uleb128 0x24
 5215 01eb 0C       		.uleb128 0xc
 5216 01ec 74040000 		.4byte	.LASF30
 5217 01f0 06       		.byte	0x6
 5218 01f1 E702     		.2byte	0x2e7
 5219 01f3 09010000 		.4byte	0x109
 5220 01f7 02       		.byte	0x2
 5221 01f8 23       		.byte	0x23
 5222 01f9 28       		.uleb128 0x28
 5223 01fa 0C       		.uleb128 0xc
 5224 01fb E8060000 		.4byte	.LASF31
 5225 01ff 06       		.byte	0x6
 5226 0200 E802     		.2byte	0x2e8
ARM GAS  /tmp/ccLrOMZj.s 			page 93


 5227 0202 D0000000 		.4byte	0xd0
 5228 0206 02       		.byte	0x2
 5229 0207 23       		.byte	0x23
 5230 0208 30       		.uleb128 0x30
 5231 0209 0C       		.uleb128 0xc
 5232 020a 49060000 		.4byte	.LASF32
 5233 020e 06       		.byte	0x6
 5234 020f E902     		.2byte	0x2e9
 5235 0211 D0000000 		.4byte	0xd0
 5236 0215 02       		.byte	0x2
 5237 0216 23       		.byte	0x23
 5238 0217 34       		.uleb128 0x34
 5239 0218 0C       		.uleb128 0xc
 5240 0219 82020000 		.4byte	.LASF33
 5241 021d 06       		.byte	0x6
 5242 021e EA02     		.2byte	0x2ea
 5243 0220 D0000000 		.4byte	0xd0
 5244 0224 02       		.byte	0x2
 5245 0225 23       		.byte	0x23
 5246 0226 38       		.uleb128 0x38
 5247 0227 0C       		.uleb128 0xc
 5248 0228 7E040000 		.4byte	.LASF34
 5249 022c 06       		.byte	0x6
 5250 022d EB02     		.2byte	0x2eb
 5251 022f 86000000 		.4byte	0x86
 5252 0233 02       		.byte	0x2
 5253 0234 23       		.byte	0x23
 5254 0235 3C       		.uleb128 0x3c
 5255 0236 0C       		.uleb128 0xc
 5256 0237 2F060000 		.4byte	.LASF35
 5257 023b 06       		.byte	0x6
 5258 023c EC02     		.2byte	0x2ec
 5259 023e D0000000 		.4byte	0xd0
 5260 0242 02       		.byte	0x2
 5261 0243 23       		.byte	0x23
 5262 0244 40       		.uleb128 0x40
 5263 0245 0C       		.uleb128 0xc
 5264 0246 6C050000 		.4byte	.LASF36
 5265 024a 06       		.byte	0x6
 5266 024b ED02     		.2byte	0x2ed
 5267 024d D0000000 		.4byte	0xd0
 5268 0251 02       		.byte	0x2
 5269 0252 23       		.byte	0x23
 5270 0253 44       		.uleb128 0x44
 5271 0254 0C       		.uleb128 0xc
 5272 0255 88040000 		.4byte	.LASF37
 5273 0259 06       		.byte	0x6
 5274 025a EE02     		.2byte	0x2ee
 5275 025c 09010000 		.4byte	0x109
 5276 0260 02       		.byte	0x2
 5277 0261 23       		.byte	0x23
 5278 0262 48       		.uleb128 0x48
 5279 0263 0C       		.uleb128 0xc
 5280 0264 D2000000 		.4byte	.LASF38
 5281 0268 06       		.byte	0x6
 5282 0269 EF02     		.2byte	0x2ef
 5283 026b D0000000 		.4byte	0xd0
ARM GAS  /tmp/ccLrOMZj.s 			page 94


 5284 026f 02       		.byte	0x2
 5285 0270 23       		.byte	0x23
 5286 0271 50       		.uleb128 0x50
 5287 0272 0C       		.uleb128 0xc
 5288 0273 F1030000 		.4byte	.LASF39
 5289 0277 06       		.byte	0x6
 5290 0278 F002     		.2byte	0x2f0
 5291 027a D0000000 		.4byte	0xd0
 5292 027e 02       		.byte	0x2
 5293 027f 23       		.byte	0x23
 5294 0280 54       		.uleb128 0x54
 5295 0281 0C       		.uleb128 0xc
 5296 0282 4E050000 		.4byte	.LASF40
 5297 0286 06       		.byte	0x6
 5298 0287 F102     		.2byte	0x2f1
 5299 0289 D0000000 		.4byte	0xd0
 5300 028d 02       		.byte	0x2
 5301 028e 23       		.byte	0x23
 5302 028f 58       		.uleb128 0x58
 5303 0290 0C       		.uleb128 0xc
 5304 0291 92040000 		.4byte	.LASF41
 5305 0295 06       		.byte	0x6
 5306 0296 F202     		.2byte	0x2f2
 5307 0298 86000000 		.4byte	0x86
 5308 029c 02       		.byte	0x2
 5309 029d 23       		.byte	0x23
 5310 029e 5C       		.uleb128 0x5c
 5311 029f 0C       		.uleb128 0xc
 5312 02a0 D7020000 		.4byte	.LASF42
 5313 02a4 06       		.byte	0x6
 5314 02a5 F302     		.2byte	0x2f3
 5315 02a7 D0000000 		.4byte	0xd0
 5316 02ab 02       		.byte	0x2
 5317 02ac 23       		.byte	0x23
 5318 02ad 60       		.uleb128 0x60
 5319 02ae 0C       		.uleb128 0xc
 5320 02af 1D030000 		.4byte	.LASF43
 5321 02b3 06       		.byte	0x6
 5322 02b4 F402     		.2byte	0x2f4
 5323 02b6 D0000000 		.4byte	0xd0
 5324 02ba 02       		.byte	0x2
 5325 02bb 23       		.byte	0x23
 5326 02bc 64       		.uleb128 0x64
 5327 02bd 0C       		.uleb128 0xc
 5328 02be 9C040000 		.4byte	.LASF44
 5329 02c2 06       		.byte	0x6
 5330 02c3 F502     		.2byte	0x2f5
 5331 02c5 09010000 		.4byte	0x109
 5332 02c9 02       		.byte	0x2
 5333 02ca 23       		.byte	0x23
 5334 02cb 68       		.uleb128 0x68
 5335 02cc 0C       		.uleb128 0xc
 5336 02cd BD050000 		.4byte	.LASF45
 5337 02d1 06       		.byte	0x6
 5338 02d2 F602     		.2byte	0x2f6
 5339 02d4 D0000000 		.4byte	0xd0
 5340 02d8 02       		.byte	0x2
ARM GAS  /tmp/ccLrOMZj.s 			page 95


 5341 02d9 23       		.byte	0x23
 5342 02da 70       		.uleb128 0x70
 5343 02db 0E       		.uleb128 0xe
 5344 02dc 43535200 		.ascii	"CSR\000"
 5345 02e0 06       		.byte	0x6
 5346 02e1 F702     		.2byte	0x2f7
 5347 02e3 D0000000 		.4byte	0xd0
 5348 02e7 02       		.byte	0x2
 5349 02e8 23       		.byte	0x23
 5350 02e9 74       		.uleb128 0x74
 5351 02ea 0C       		.uleb128 0xc
 5352 02eb A6040000 		.4byte	.LASF46
 5353 02ef 06       		.byte	0x6
 5354 02f0 F802     		.2byte	0x2f8
 5355 02f2 09010000 		.4byte	0x109
 5356 02f6 02       		.byte	0x2
 5357 02f7 23       		.byte	0x23
 5358 02f8 78       		.uleb128 0x78
 5359 02f9 0C       		.uleb128 0xc
 5360 02fa 83060000 		.4byte	.LASF47
 5361 02fe 06       		.byte	0x6
 5362 02ff F902     		.2byte	0x2f9
 5363 0301 D0000000 		.4byte	0xd0
 5364 0305 03       		.byte	0x3
 5365 0306 23       		.byte	0x23
 5366 0307 8001     		.uleb128 0x80
 5367 0309 0C       		.uleb128 0xc
 5368 030a E1020000 		.4byte	.LASF48
 5369 030e 06       		.byte	0x6
 5370 030f FA02     		.2byte	0x2fa
 5371 0311 D0000000 		.4byte	0xd0
 5372 0315 03       		.byte	0x3
 5373 0316 23       		.byte	0x23
 5374 0317 8401     		.uleb128 0x84
 5375 0319 00       		.byte	0
 5376 031a 0D       		.uleb128 0xd
 5377 031b 8A020000 		.4byte	.LASF49
 5378 031f 06       		.byte	0x6
 5379 0320 FB02     		.2byte	0x2fb
 5380 0322 4D010000 		.4byte	0x14d
 5381 0326 0F       		.uleb128 0xf
 5382 0327 04       		.byte	0x4
 5383 0328 07       		.byte	0x7
 5384 0329 96       		.byte	0x96
 5385 032a 4B030000 		.4byte	0x34b
 5386 032e 10       		.uleb128 0x10
 5387 032f 73657400 		.ascii	"set\000"
 5388 0333 07       		.byte	0x7
 5389 0334 97       		.byte	0x97
 5390 0335 62000000 		.4byte	0x62
 5391 0339 02       		.byte	0x2
 5392 033a 23       		.byte	0x23
 5393 033b 00       		.uleb128 0
 5394 033c 11       		.uleb128 0x11
 5395 033d C2030000 		.4byte	.LASF50
 5396 0341 07       		.byte	0x7
 5397 0342 98       		.byte	0x98
ARM GAS  /tmp/ccLrOMZj.s 			page 96


 5398 0343 62000000 		.4byte	0x62
 5399 0347 02       		.byte	0x2
 5400 0348 23       		.byte	0x23
 5401 0349 02       		.uleb128 0x2
 5402 034a 00       		.byte	0
 5403 034b 12       		.uleb128 0x12
 5404 034c 04       		.byte	0x4
 5405 034d 07       		.byte	0x7
 5406 034e 94       		.byte	0x94
 5407 034f 66030000 		.4byte	0x366
 5408 0353 13       		.uleb128 0x13
 5409 0354 5700     		.ascii	"W\000"
 5410 0356 07       		.byte	0x7
 5411 0357 95       		.byte	0x95
 5412 0358 86000000 		.4byte	0x86
 5413 035c 13       		.uleb128 0x13
 5414 035d 4800     		.ascii	"H\000"
 5415 035f 07       		.byte	0x7
 5416 0360 99       		.byte	0x99
 5417 0361 26030000 		.4byte	0x326
 5418 0365 00       		.byte	0
 5419 0366 0F       		.uleb128 0xf
 5420 0367 28       		.byte	0x28
 5421 0368 07       		.byte	0x7
 5422 0369 8C       		.byte	0x8c
 5423 036a FB030000 		.4byte	0x3fb
 5424 036e 11       		.uleb128 0x11
 5425 036f 75000000 		.4byte	.LASF51
 5426 0373 07       		.byte	0x7
 5427 0374 8E       		.byte	0x8e
 5428 0375 D0000000 		.4byte	0xd0
 5429 0379 02       		.byte	0x2
 5430 037a 23       		.byte	0x23
 5431 037b 00       		.uleb128 0
 5432 037c 11       		.uleb128 0x11
 5433 037d 48000000 		.4byte	.LASF52
 5434 0381 07       		.byte	0x7
 5435 0382 8F       		.byte	0x8f
 5436 0383 D0000000 		.4byte	0xd0
 5437 0387 02       		.byte	0x2
 5438 0388 23       		.byte	0x23
 5439 0389 04       		.uleb128 0x4
 5440 038a 11       		.uleb128 0x11
 5441 038b CA010000 		.4byte	.LASF53
 5442 038f 07       		.byte	0x7
 5443 0390 90       		.byte	0x90
 5444 0391 D0000000 		.4byte	0xd0
 5445 0395 02       		.byte	0x2
 5446 0396 23       		.byte	0x23
 5447 0397 08       		.uleb128 0x8
 5448 0398 11       		.uleb128 0x11
 5449 0399 1E000000 		.4byte	.LASF54
 5450 039d 07       		.byte	0x7
 5451 039e 91       		.byte	0x91
 5452 039f D0000000 		.4byte	0xd0
 5453 03a3 02       		.byte	0x2
 5454 03a4 23       		.byte	0x23
ARM GAS  /tmp/ccLrOMZj.s 			page 97


 5455 03a5 0C       		.uleb128 0xc
 5456 03a6 10       		.uleb128 0x10
 5457 03a7 49445200 		.ascii	"IDR\000"
 5458 03ab 07       		.byte	0x7
 5459 03ac 92       		.byte	0x92
 5460 03ad D0000000 		.4byte	0xd0
 5461 03b1 02       		.byte	0x2
 5462 03b2 23       		.byte	0x23
 5463 03b3 10       		.uleb128 0x10
 5464 03b4 10       		.uleb128 0x10
 5465 03b5 4F445200 		.ascii	"ODR\000"
 5466 03b9 07       		.byte	0x7
 5467 03ba 93       		.byte	0x93
 5468 03bb D0000000 		.4byte	0xd0
 5469 03bf 02       		.byte	0x2
 5470 03c0 23       		.byte	0x23
 5471 03c1 14       		.uleb128 0x14
 5472 03c2 11       		.uleb128 0x11
 5473 03c3 FE000000 		.4byte	.LASF55
 5474 03c7 07       		.byte	0x7
 5475 03c8 9A       		.byte	0x9a
 5476 03c9 FB030000 		.4byte	0x3fb
 5477 03cd 02       		.byte	0x2
 5478 03ce 23       		.byte	0x23
 5479 03cf 18       		.uleb128 0x18
 5480 03d0 11       		.uleb128 0x11
 5481 03d1 24000000 		.4byte	.LASF56
 5482 03d5 07       		.byte	0x7
 5483 03d6 9B       		.byte	0x9b
 5484 03d7 D0000000 		.4byte	0xd0
 5485 03db 02       		.byte	0x2
 5486 03dc 23       		.byte	0x23
 5487 03dd 1C       		.uleb128 0x1c
 5488 03de 11       		.uleb128 0x11
 5489 03df 53040000 		.4byte	.LASF57
 5490 03e3 07       		.byte	0x7
 5491 03e4 9C       		.byte	0x9c
 5492 03e5 D0000000 		.4byte	0xd0
 5493 03e9 02       		.byte	0x2
 5494 03ea 23       		.byte	0x23
 5495 03eb 20       		.uleb128 0x20
 5496 03ec 11       		.uleb128 0x11
 5497 03ed 40040000 		.4byte	.LASF58
 5498 03f1 07       		.byte	0x7
 5499 03f2 9D       		.byte	0x9d
 5500 03f3 D0000000 		.4byte	0xd0
 5501 03f7 02       		.byte	0x2
 5502 03f8 23       		.byte	0x23
 5503 03f9 24       		.uleb128 0x24
 5504 03fa 00       		.byte	0
 5505 03fb 06       		.uleb128 0x6
 5506 03fc 4B030000 		.4byte	0x34b
 5507 0400 04       		.uleb128 0x4
 5508 0401 75020000 		.4byte	.LASF59
 5509 0405 07       		.byte	0x7
 5510 0406 9E       		.byte	0x9e
 5511 0407 66030000 		.4byte	0x366
ARM GAS  /tmp/ccLrOMZj.s 			page 98


 5512 040b 04       		.uleb128 0x4
 5513 040c C8030000 		.4byte	.LASF60
 5514 0410 07       		.byte	0x7
 5515 0411 E8       		.byte	0xe8
 5516 0412 86000000 		.4byte	0x86
 5517 0416 04       		.uleb128 0x4
 5518 0417 31070000 		.4byte	.LASF61
 5519 041b 07       		.byte	0x7
 5520 041c ED       		.byte	0xed
 5521 041d 86000000 		.4byte	0x86
 5522 0421 04       		.uleb128 0x4
 5523 0422 37060000 		.4byte	.LASF62
 5524 0426 07       		.byte	0x7
 5525 0427 F5       		.byte	0xf5
 5526 0428 2C040000 		.4byte	0x42c
 5527 042c 07       		.uleb128 0x7
 5528 042d 04       		.byte	0x4
 5529 042e 00040000 		.4byte	0x400
 5530 0432 0F       		.uleb128 0xf
 5531 0433 0C       		.byte	0xc
 5532 0434 08       		.byte	0x8
 5533 0435 7E       		.byte	0x7e
 5534 0436 65040000 		.4byte	0x465
 5535 043a 11       		.uleb128 0x11
 5536 043b 39040000 		.4byte	.LASF63
 5537 043f 08       		.byte	0x8
 5538 0440 82       		.byte	0x82
 5539 0441 21040000 		.4byte	0x421
 5540 0445 02       		.byte	0x2
 5541 0446 23       		.byte	0x23
 5542 0447 00       		.uleb128 0
 5543 0448 11       		.uleb128 0x11
 5544 0449 D2010000 		.4byte	.LASF64
 5545 044d 08       		.byte	0x8
 5546 044e 88       		.byte	0x88
 5547 044f 0B040000 		.4byte	0x40b
 5548 0453 02       		.byte	0x2
 5549 0454 23       		.byte	0x23
 5550 0455 04       		.uleb128 0x4
 5551 0456 11       		.uleb128 0x11
 5552 0457 28060000 		.4byte	.LASF65
 5553 045b 08       		.byte	0x8
 5554 045c 8C       		.byte	0x8c
 5555 045d A6000000 		.4byte	0xa6
 5556 0461 02       		.byte	0x2
 5557 0462 23       		.byte	0x23
 5558 0463 08       		.uleb128 0x8
 5559 0464 00       		.byte	0
 5560 0465 04       		.uleb128 0x4
 5561 0466 09020000 		.4byte	.LASF66
 5562 046a 08       		.byte	0x8
 5563 046b 8D       		.byte	0x8d
 5564 046c 32040000 		.4byte	0x432
 5565 0470 04       		.uleb128 0x4
 5566 0471 7E050000 		.4byte	.LASF67
 5567 0475 09       		.byte	0x9
 5568 0476 24       		.byte	0x24
ARM GAS  /tmp/ccLrOMZj.s 			page 99


 5569 0477 C3000000 		.4byte	0xc3
 5570 047b 04       		.uleb128 0x4
 5571 047c 07040000 		.4byte	.LASF68
 5572 0480 0A       		.byte	0xa
 5573 0481 23       		.byte	0x23
 5574 0482 50000000 		.4byte	0x50
 5575 0486 04       		.uleb128 0x4
 5576 0487 E1060000 		.4byte	.LASF69
 5577 048b 0A       		.byte	0xa
 5578 048c 42       		.byte	0x42
 5579 048d 91040000 		.4byte	0x491
 5580 0491 07       		.uleb128 0x7
 5581 0492 04       		.byte	0x4
 5582 0493 97040000 		.4byte	0x497
 5583 0497 08       		.uleb128 0x8
 5584 0498 9C040000 		.4byte	0x49c
 5585 049c 14       		.uleb128 0x14
 5586 049d 96060000 		.4byte	.LASF96
 5587 04a1 1C       		.byte	0x1c
 5588 04a2 0B       		.byte	0xb
 5589 04a3 2C       		.byte	0x2c
 5590 04a4 6D050000 		.4byte	0x56d
 5591 04a8 11       		.uleb128 0x11
 5592 04a9 BA020000 		.4byte	.LASF70
 5593 04ad 0B       		.byte	0xb
 5594 04ae 2D       		.byte	0x2d
 5595 04af DC000000 		.4byte	0xdc
 5596 04b3 02       		.byte	0x2
 5597 04b4 23       		.byte	0x23
 5598 04b5 00       		.uleb128 0
 5599 04b6 11       		.uleb128 0x11
 5600 04b7 19070000 		.4byte	.LASF71
 5601 04bb 0B       		.byte	0xb
 5602 04bc 2E       		.byte	0x2e
 5603 04bd 3E000000 		.4byte	0x3e
 5604 04c1 02       		.byte	0x2
 5605 04c2 23       		.byte	0x23
 5606 04c3 04       		.uleb128 0x4
 5607 04c4 11       		.uleb128 0x11
 5608 04c5 29000000 		.4byte	.LASF72
 5609 04c9 0B       		.byte	0xb
 5610 04ca 2F       		.byte	0x2f
 5611 04cb 3E000000 		.4byte	0x3e
 5612 04cf 02       		.byte	0x2
 5613 04d0 23       		.byte	0x23
 5614 04d1 05       		.uleb128 0x5
 5615 04d2 11       		.uleb128 0x11
 5616 04d3 57020000 		.4byte	.LASF73
 5617 04d7 0B       		.byte	0xb
 5618 04d8 30       		.byte	0x30
 5619 04d9 3E000000 		.4byte	0x3e
 5620 04dd 02       		.byte	0x2
 5621 04de 23       		.byte	0x23
 5622 04df 06       		.uleb128 0x6
 5623 04e0 11       		.uleb128 0x11
 5624 04e1 9B000000 		.4byte	.LASF74
 5625 04e5 0B       		.byte	0xb
ARM GAS  /tmp/ccLrOMZj.s 			page 100


 5626 04e6 31       		.byte	0x31
 5627 04e7 3E000000 		.4byte	0x3e
 5628 04eb 02       		.byte	0x2
 5629 04ec 23       		.byte	0x23
 5630 04ed 07       		.uleb128 0x7
 5631 04ee 11       		.uleb128 0x11
 5632 04ef 6C000000 		.4byte	.LASF75
 5633 04f3 0B       		.byte	0xb
 5634 04f4 32       		.byte	0x32
 5635 04f5 3E000000 		.4byte	0x3e
 5636 04f9 02       		.byte	0x2
 5637 04fa 23       		.byte	0x23
 5638 04fb 08       		.uleb128 0x8
 5639 04fc 11       		.uleb128 0x11
 5640 04fd 7B000000 		.4byte	.LASF76
 5641 0501 0B       		.byte	0xb
 5642 0502 33       		.byte	0x33
 5643 0503 3E000000 		.4byte	0x3e
 5644 0507 02       		.byte	0x2
 5645 0508 23       		.byte	0x23
 5646 0509 09       		.uleb128 0x9
 5647 050a 11       		.uleb128 0x11
 5648 050b C2050000 		.4byte	.LASF77
 5649 050f 0B       		.byte	0xb
 5650 0510 34       		.byte	0x34
 5651 0511 E7000000 		.4byte	0xe7
 5652 0515 02       		.byte	0x2
 5653 0516 23       		.byte	0x23
 5654 0517 0A       		.uleb128 0xa
 5655 0518 11       		.uleb128 0x11
 5656 0519 0C010000 		.4byte	.LASF78
 5657 051d 0B       		.byte	0xb
 5658 051e 35       		.byte	0x35
 5659 051f E7000000 		.4byte	0xe7
 5660 0523 02       		.byte	0x2
 5661 0524 23       		.byte	0x23
 5662 0525 0B       		.uleb128 0xb
 5663 0526 11       		.uleb128 0x11
 5664 0527 80030000 		.4byte	.LASF79
 5665 052b 0B       		.byte	0xb
 5666 052c 36       		.byte	0x36
 5667 052d 3E000000 		.4byte	0x3e
 5668 0531 02       		.byte	0x2
 5669 0532 23       		.byte	0x23
 5670 0533 0C       		.uleb128 0xc
 5671 0534 11       		.uleb128 0x11
 5672 0535 58040000 		.4byte	.LASF80
 5673 0539 0B       		.byte	0xb
 5674 053a 37       		.byte	0x37
 5675 053b 3E000000 		.4byte	0x3e
 5676 053f 02       		.byte	0x2
 5677 0540 23       		.byte	0x23
 5678 0541 0D       		.uleb128 0xd
 5679 0542 11       		.uleb128 0x11
 5680 0543 A1010000 		.4byte	.LASF81
 5681 0547 0B       		.byte	0xb
 5682 0548 38       		.byte	0x38
ARM GAS  /tmp/ccLrOMZj.s 			page 101


 5683 0549 EE000000 		.4byte	0xee
 5684 054d 02       		.byte	0x2
 5685 054e 23       		.byte	0x23
 5686 054f 10       		.uleb128 0x10
 5687 0550 11       		.uleb128 0x11
 5688 0551 FB030000 		.4byte	.LASF82
 5689 0555 0B       		.byte	0xb
 5690 0556 39       		.byte	0x39
 5691 0557 93060000 		.4byte	0x693
 5692 055b 02       		.byte	0x2
 5693 055c 23       		.byte	0x23
 5694 055d 14       		.uleb128 0x14
 5695 055e 11       		.uleb128 0x11
 5696 055f F0060000 		.4byte	.LASF83
 5697 0563 0B       		.byte	0xb
 5698 0564 3A       		.byte	0x3a
 5699 0565 99060000 		.4byte	0x699
 5700 0569 02       		.byte	0x2
 5701 056a 23       		.byte	0x23
 5702 056b 18       		.uleb128 0x18
 5703 056c 00       		.byte	0
 5704 056d 15       		.uleb128 0x15
 5705 056e E5030000 		.4byte	.LASF89
 5706 0572 01       		.byte	0x1
 5707 0573 0A       		.byte	0xa
 5708 0574 46       		.byte	0x46
 5709 0575 92050000 		.4byte	0x592
 5710 0579 16       		.uleb128 0x16
 5711 057a 9B060000 		.4byte	.LASF84
 5712 057e 00       		.sleb128 0
 5713 057f 16       		.uleb128 0x16
 5714 0580 00000000 		.4byte	.LASF85
 5715 0584 01       		.sleb128 1
 5716 0585 16       		.uleb128 0x16
 5717 0586 20070000 		.4byte	.LASF86
 5718 058a 02       		.sleb128 2
 5719 058b 16       		.uleb128 0x16
 5720 058c E9040000 		.4byte	.LASF87
 5721 0590 03       		.sleb128 3
 5722 0591 00       		.byte	0
 5723 0592 04       		.uleb128 0x4
 5724 0593 FA060000 		.4byte	.LASF88
 5725 0597 0A       		.byte	0xa
 5726 0598 46       		.byte	0x46
 5727 0599 6D050000 		.4byte	0x56d
 5728 059d 15       		.uleb128 0x15
 5729 059e 0F040000 		.4byte	.LASF90
 5730 05a2 01       		.byte	0x1
 5731 05a3 0A       		.byte	0xa
 5732 05a4 4A       		.byte	0x4a
 5733 05a5 C2050000 		.4byte	0x5c2
 5734 05a9 16       		.uleb128 0x16
 5735 05aa 28020000 		.4byte	.LASF91
 5736 05ae 00       		.sleb128 0
 5737 05af 16       		.uleb128 0x16
 5738 05b0 D6060000 		.4byte	.LASF92
 5739 05b4 01       		.sleb128 1
ARM GAS  /tmp/ccLrOMZj.s 			page 102


 5740 05b5 16       		.uleb128 0x16
 5741 05b6 DA040000 		.4byte	.LASF93
 5742 05ba 02       		.sleb128 2
 5743 05bb 16       		.uleb128 0x16
 5744 05bc 96020000 		.4byte	.LASF94
 5745 05c0 03       		.sleb128 3
 5746 05c1 00       		.byte	0
 5747 05c2 04       		.uleb128 0x4
 5748 05c3 EC020000 		.4byte	.LASF95
 5749 05c7 0A       		.byte	0xa
 5750 05c8 4A       		.byte	0x4a
 5751 05c9 9D050000 		.4byte	0x59d
 5752 05cd 14       		.uleb128 0x14
 5753 05ce 10000000 		.4byte	.LASF97
 5754 05d2 10       		.byte	0x10
 5755 05d3 0A       		.byte	0xa
 5756 05d4 51       		.byte	0x51
 5757 05d5 66060000 		.4byte	0x666
 5758 05d9 11       		.uleb128 0x11
 5759 05da 13070000 		.4byte	.LASF98
 5760 05de 0A       		.byte	0xa
 5761 05df 52       		.byte	0x52
 5762 05e0 7B040000 		.4byte	0x47b
 5763 05e4 02       		.byte	0x2
 5764 05e5 23       		.byte	0x23
 5765 05e6 00       		.uleb128 0
 5766 05e7 11       		.uleb128 0x11
 5767 05e8 35000000 		.4byte	.LASF99
 5768 05ec 0A       		.byte	0xa
 5769 05ed 53       		.byte	0x53
 5770 05ee 7B040000 		.4byte	0x47b
 5771 05f2 02       		.byte	0x2
 5772 05f3 23       		.byte	0x23
 5773 05f4 02       		.uleb128 0x2
 5774 05f5 11       		.uleb128 0x11
 5775 05f6 1B010000 		.4byte	.LASF100
 5776 05fa 0A       		.byte	0xa
 5777 05fb 54       		.byte	0x54
 5778 05fc 92050000 		.4byte	0x592
 5779 0600 02       		.byte	0x2
 5780 0601 23       		.byte	0x23
 5781 0602 04       		.uleb128 0x4
 5782 0603 11       		.uleb128 0x11
 5783 0604 F6050000 		.4byte	.LASF101
 5784 0608 0A       		.byte	0xa
 5785 0609 55       		.byte	0x55
 5786 060a C2050000 		.4byte	0x5c2
 5787 060e 02       		.byte	0x2
 5788 060f 23       		.byte	0x23
 5789 0610 05       		.uleb128 0x5
 5790 0611 11       		.uleb128 0x11
 5791 0612 A6050000 		.4byte	.LASF102
 5792 0616 0A       		.byte	0xa
 5793 0617 56       		.byte	0x56
 5794 0618 3E000000 		.4byte	0x3e
 5795 061c 02       		.byte	0x2
 5796 061d 23       		.byte	0x23
ARM GAS  /tmp/ccLrOMZj.s 			page 103


 5797 061e 06       		.uleb128 0x6
 5798 061f 11       		.uleb128 0x11
 5799 0620 4E020000 		.4byte	.LASF103
 5800 0624 0A       		.byte	0xa
 5801 0625 57       		.byte	0x57
 5802 0626 3E000000 		.4byte	0x3e
 5803 062a 02       		.byte	0x2
 5804 062b 23       		.byte	0x23
 5805 062c 07       		.uleb128 0x7
 5806 062d 11       		.uleb128 0x11
 5807 062e 96030000 		.4byte	.LASF104
 5808 0632 0A       		.byte	0xa
 5809 0633 59       		.byte	0x59
 5810 0634 7B040000 		.4byte	0x47b
 5811 0638 02       		.byte	0x2
 5812 0639 23       		.byte	0x23
 5813 063a 08       		.uleb128 0x8
 5814 063b 11       		.uleb128 0x11
 5815 063c B0040000 		.4byte	.LASF105
 5816 0640 0A       		.byte	0xa
 5817 0641 59       		.byte	0x59
 5818 0642 7B040000 		.4byte	0x47b
 5819 0646 02       		.byte	0x2
 5820 0647 23       		.byte	0x23
 5821 0648 0A       		.uleb128 0xa
 5822 0649 11       		.uleb128 0x11
 5823 064a 9D030000 		.4byte	.LASF106
 5824 064e 0A       		.byte	0xa
 5825 064f 5A       		.byte	0x5a
 5826 0650 7B040000 		.4byte	0x47b
 5827 0654 02       		.byte	0x2
 5828 0655 23       		.byte	0x23
 5829 0656 0C       		.uleb128 0xc
 5830 0657 11       		.uleb128 0x11
 5831 0658 B7040000 		.4byte	.LASF107
 5832 065c 0A       		.byte	0xa
 5833 065d 5A       		.byte	0x5a
 5834 065e 7B040000 		.4byte	0x47b
 5835 0662 02       		.byte	0x2
 5836 0663 23       		.byte	0x23
 5837 0664 0E       		.uleb128 0xe
 5838 0665 00       		.byte	0
 5839 0666 04       		.uleb128 0x4
 5840 0667 0F020000 		.4byte	.LASF108
 5841 066b 0A       		.byte	0xa
 5842 066c 5C       		.byte	0x5c
 5843 066d CD050000 		.4byte	0x5cd
 5844 0671 04       		.uleb128 0x4
 5845 0672 8E030000 		.4byte	.LASF109
 5846 0676 0A       		.byte	0xa
 5847 0677 DB       		.byte	0xdb
 5848 0678 62000000 		.4byte	0x62
 5849 067c 0D       		.uleb128 0xd
 5850 067d 89060000 		.4byte	.LASF110
 5851 0681 0A       		.byte	0xa
 5852 0682 2701     		.2byte	0x127
 5853 0684 71060000 		.4byte	0x671
ARM GAS  /tmp/ccLrOMZj.s 			page 104


 5854 0688 04       		.uleb128 0x4
 5855 0689 B0050000 		.4byte	.LASF111
 5856 068d 0B       		.byte	0xb
 5857 068e 1C       		.byte	0x1c
 5858 068f 62000000 		.4byte	0x62
 5859 0693 07       		.uleb128 0x7
 5860 0694 04       		.byte	0x4
 5861 0695 1E010000 		.4byte	0x11e
 5862 0699 07       		.uleb128 0x7
 5863 069a 04       		.byte	0x4
 5864 069b 9F060000 		.4byte	0x69f
 5865 069f 08       		.uleb128 0x8
 5866 06a0 88060000 		.4byte	0x688
 5867 06a4 17       		.uleb128 0x17
 5868 06a5 07030000 		.4byte	.LASF112
 5869 06a9 02       		.byte	0x2
 5870 06aa 72       		.byte	0x72
 5871 06ab 01       		.byte	0x1
 5872 06ac 03       		.byte	0x3
 5873 06ad BD060000 		.4byte	0x6bd
 5874 06b1 18       		.uleb128 0x18
 5875 06b2 D5050000 		.4byte	.LASF114
 5876 06b6 02       		.byte	0x2
 5877 06b7 72       		.byte	0x72
 5878 06b8 3E000000 		.4byte	0x3e
 5879 06bc 00       		.byte	0
 5880 06bd 17       		.uleb128 0x17
 5881 06be 71060000 		.4byte	.LASF113
 5882 06c2 02       		.byte	0x2
 5883 06c3 90       		.byte	0x90
 5884 06c4 01       		.byte	0x1
 5885 06c5 03       		.byte	0x3
 5886 06c6 D6060000 		.4byte	0x6d6
 5887 06ca 18       		.uleb128 0x18
 5888 06cb F0050000 		.4byte	.LASF115
 5889 06cf 02       		.byte	0x2
 5890 06d0 90       		.byte	0x90
 5891 06d1 62000000 		.4byte	0x62
 5892 06d5 00       		.byte	0
 5893 06d6 17       		.uleb128 0x17
 5894 06d7 C7000000 		.4byte	.LASF116
 5895 06db 02       		.byte	0x2
 5896 06dc 99       		.byte	0x99
 5897 06dd 01       		.byte	0x1
 5898 06de 03       		.byte	0x3
 5899 06df EF060000 		.4byte	0x6ef
 5900 06e3 18       		.uleb128 0x18
 5901 06e4 BF020000 		.4byte	.LASF117
 5902 06e8 02       		.byte	0x2
 5903 06e9 99       		.byte	0x99
 5904 06ea 62000000 		.4byte	0x62
 5905 06ee 00       		.byte	0
 5906 06ef 17       		.uleb128 0x17
 5907 06f0 F8010000 		.4byte	.LASF118
 5908 06f4 01       		.byte	0x1
 5909 06f5 32       		.byte	0x32
 5910 06f6 01       		.byte	0x1
ARM GAS  /tmp/ccLrOMZj.s 			page 105


 5911 06f7 03       		.byte	0x3
 5912 06f8 0F070000 		.4byte	0x70f
 5913 06fc 19       		.uleb128 0x19
 5914 06fd 7800     		.ascii	"x\000"
 5915 06ff 01       		.byte	0x1
 5916 0700 32       		.byte	0x32
 5917 0701 7B040000 		.4byte	0x47b
 5918 0705 19       		.uleb128 0x19
 5919 0706 7900     		.ascii	"y\000"
 5920 0708 01       		.byte	0x1
 5921 0709 32       		.byte	0x32
 5922 070a 7B040000 		.4byte	0x47b
 5923 070e 00       		.byte	0
 5924 070f 17       		.uleb128 0x17
 5925 0710 D7010000 		.4byte	.LASF119
 5926 0714 02       		.byte	0x2
 5927 0715 64       		.byte	0x64
 5928 0716 01       		.byte	0x1
 5929 0717 03       		.byte	0x3
 5930 0718 28070000 		.4byte	0x728
 5931 071c 18       		.uleb128 0x18
 5932 071d 27010000 		.4byte	.LASF120
 5933 0721 02       		.byte	0x2
 5934 0722 64       		.byte	0x64
 5935 0723 B1000000 		.4byte	0xb1
 5936 0727 00       		.byte	0
 5937 0728 1A       		.uleb128 0x1a
 5938 0729 3C000000 		.4byte	.LASF121
 5939 072d 02       		.byte	0x2
 5940 072e 7C       		.byte	0x7c
 5941 072f 01       		.byte	0x1
 5942 0730 03       		.byte	0x3
 5943 0731 1A       		.uleb128 0x1a
 5944 0732 42050000 		.4byte	.LASF122
 5945 0736 02       		.byte	0x2
 5946 0737 85       		.byte	0x85
 5947 0738 01       		.byte	0x1
 5948 0739 03       		.byte	0x3
 5949 073a 1B       		.uleb128 0x1b
 5950 073b 01       		.byte	0x1
 5951 073c 5F040000 		.4byte	.LASF156
 5952 0740 01       		.byte	0x1
 5953 0741 DF       		.byte	0xdf
 5954 0742 01       		.byte	0x1
 5955 0743 01       		.byte	0x1
 5956 0744 66070000 		.4byte	0x766
 5957 0748 19       		.uleb128 0x19
 5958 0749 7800     		.ascii	"x\000"
 5959 074b 01       		.byte	0x1
 5960 074c DF       		.byte	0xdf
 5961 074d 7B040000 		.4byte	0x47b
 5962 0751 19       		.uleb128 0x19
 5963 0752 7900     		.ascii	"y\000"
 5964 0754 01       		.byte	0x1
 5965 0755 DF       		.byte	0xdf
 5966 0756 7B040000 		.4byte	0x47b
 5967 075a 18       		.uleb128 0x18
ARM GAS  /tmp/ccLrOMZj.s 			page 106


 5968 075b CA050000 		.4byte	.LASF123
 5969 075f 01       		.byte	0x1
 5970 0760 DF       		.byte	0xdf
 5971 0761 71060000 		.4byte	0x671
 5972 0765 00       		.byte	0
 5973 0766 1C       		.uleb128 0x1c
 5974 0767 8C010000 		.4byte	.LASF163
 5975 076b 01       		.byte	0x1
 5976 076c 4B       		.byte	0x4b
 5977 076d 01       		.byte	0x1
 5978 076e 00000000 		.4byte	.LFB133
 5979 0772 BC010000 		.4byte	.LFE133
 5980 0776 00000000 		.4byte	.LLST0
 5981 077a 01       		.byte	0x1
 5982 077b 760C0000 		.4byte	0xc76
 5983 077f 1D       		.uleb128 0x1d
 5984 0780 7800     		.ascii	"x\000"
 5985 0782 01       		.byte	0x1
 5986 0783 4B       		.byte	0x4b
 5987 0784 7B040000 		.4byte	0x47b
 5988 0788 20000000 		.4byte	.LLST1
 5989 078c 1D       		.uleb128 0x1d
 5990 078d 7900     		.ascii	"y\000"
 5991 078f 01       		.byte	0x1
 5992 0790 4B       		.byte	0x4b
 5993 0791 7B040000 		.4byte	0x47b
 5994 0795 EA000000 		.4byte	.LLST2
 5995 0799 1D       		.uleb128 0x1d
 5996 079a 637800   		.ascii	"cx\000"
 5997 079d 01       		.byte	0x1
 5998 079e 4B       		.byte	0x4b
 5999 079f 7B040000 		.4byte	0x47b
 6000 07a3 A9010000 		.4byte	.LLST3
 6001 07a7 1D       		.uleb128 0x1d
 6002 07a8 637900   		.ascii	"cy\000"
 6003 07ab 01       		.byte	0x1
 6004 07ac 4B       		.byte	0x4b
 6005 07ad 7B040000 		.4byte	0x47b
 6006 07b1 47020000 		.4byte	.LLST4
 6007 07b5 1E       		.uleb128 0x1e
 6008 07b6 D6060000 		.4byte	0x6d6
 6009 07ba 1C000000 		.4byte	.LBB518
 6010 07be 00000000 		.4byte	.Ldebug_ranges0+0
 6011 07c2 01       		.byte	0x1
 6012 07c3 5F       		.byte	0x5f
 6013 07c4 D2070000 		.4byte	0x7d2
 6014 07c8 1F       		.uleb128 0x1f
 6015 07c9 E3060000 		.4byte	0x6e3
 6016 07cd CC020000 		.4byte	.LLST5
 6017 07d1 00       		.byte	0
 6018 07d2 1E       		.uleb128 0x1e
 6019 07d3 BD060000 		.4byte	0x6bd
 6020 07d7 1E000000 		.4byte	.LBB522
 6021 07db 20000000 		.4byte	.Ldebug_ranges0+0x20
 6022 07df 01       		.byte	0x1
 6023 07e0 5F       		.byte	0x5f
 6024 07e1 EF070000 		.4byte	0x7ef
ARM GAS  /tmp/ccLrOMZj.s 			page 107


 6025 07e5 1F       		.uleb128 0x1f
 6026 07e6 CA060000 		.4byte	0x6ca
 6027 07ea DF020000 		.4byte	.LLST6
 6028 07ee 00       		.byte	0
 6029 07ef 20       		.uleb128 0x20
 6030 07f0 BD060000 		.4byte	0x6bd
 6031 07f4 38000000 		.4byte	.LBB528
 6032 07f8 3C000000 		.4byte	.LBE528
 6033 07fc 01       		.byte	0x1
 6034 07fd 60       		.byte	0x60
 6035 07fe 0C080000 		.4byte	0x80c
 6036 0802 1F       		.uleb128 0x1f
 6037 0803 CA060000 		.4byte	0x6ca
 6038 0807 F4020000 		.4byte	.LLST7
 6039 080b 00       		.byte	0
 6040 080c 1E       		.uleb128 0x1e
 6041 080d BD060000 		.4byte	0x6bd
 6042 0811 40000000 		.4byte	.LBB530
 6043 0815 38000000 		.4byte	.Ldebug_ranges0+0x38
 6044 0819 01       		.byte	0x1
 6045 081a 61       		.byte	0x61
 6046 081b 29080000 		.4byte	0x829
 6047 081f 1F       		.uleb128 0x1f
 6048 0820 CA060000 		.4byte	0x6ca
 6049 0824 09030000 		.4byte	.LLST8
 6050 0828 00       		.byte	0
 6051 0829 20       		.uleb128 0x20
 6052 082a D6060000 		.4byte	0x6d6
 6053 082e 42000000 		.4byte	.LBB533
 6054 0832 44000000 		.4byte	.LBE533
 6055 0836 01       		.byte	0x1
 6056 0837 60       		.byte	0x60
 6057 0838 46080000 		.4byte	0x846
 6058 083c 1F       		.uleb128 0x1f
 6059 083d E3060000 		.4byte	0x6e3
 6060 0841 1E030000 		.4byte	.LLST9
 6061 0845 00       		.byte	0
 6062 0846 20       		.uleb128 0x20
 6063 0847 D6060000 		.4byte	0x6d6
 6064 084b 46000000 		.4byte	.LBB536
 6065 084f 48000000 		.4byte	.LBE536
 6066 0853 01       		.byte	0x1
 6067 0854 61       		.byte	0x61
 6068 0855 63080000 		.4byte	0x863
 6069 0859 1F       		.uleb128 0x1f
 6070 085a E3060000 		.4byte	0x6e3
 6071 085e 31030000 		.4byte	.LLST10
 6072 0862 00       		.byte	0
 6073 0863 1E       		.uleb128 0x1e
 6074 0864 EF060000 		.4byte	0x6ef
 6075 0868 48000000 		.4byte	.LBB538
 6076 086c 50000000 		.4byte	.Ldebug_ranges0+0x50
 6077 0870 01       		.byte	0x1
 6078 0871 6F       		.byte	0x6f
 6079 0872 6F0A0000 		.4byte	0xa6f
 6080 0876 1F       		.uleb128 0x1f
 6081 0877 05070000 		.4byte	0x705
ARM GAS  /tmp/ccLrOMZj.s 			page 108


 6082 087b 44030000 		.4byte	.LLST11
 6083 087f 1F       		.uleb128 0x1f
 6084 0880 FC060000 		.4byte	0x6fc
 6085 0884 6D030000 		.4byte	.LLST12
 6086 0888 1E       		.uleb128 0x1e
 6087 0889 D6060000 		.4byte	0x6d6
 6088 088d 48000000 		.4byte	.LBB540
 6089 0891 78000000 		.4byte	.Ldebug_ranges0+0x78
 6090 0895 01       		.byte	0x1
 6091 0896 41       		.byte	0x41
 6092 0897 A5080000 		.4byte	0x8a5
 6093 089b 1F       		.uleb128 0x1f
 6094 089c E3060000 		.4byte	0x6e3
 6095 08a0 A1030000 		.4byte	.LLST13
 6096 08a4 00       		.byte	0
 6097 08a5 1E       		.uleb128 0x1e
 6098 08a6 BD060000 		.4byte	0x6bd
 6099 08aa 4A000000 		.4byte	.LBB544
 6100 08ae 98000000 		.4byte	.Ldebug_ranges0+0x98
 6101 08b2 01       		.byte	0x1
 6102 08b3 41       		.byte	0x41
 6103 08b4 C2080000 		.4byte	0x8c2
 6104 08b8 1F       		.uleb128 0x1f
 6105 08b9 CA060000 		.4byte	0x6ca
 6106 08bd B4030000 		.4byte	.LLST14
 6107 08c1 00       		.byte	0
 6108 08c2 20       		.uleb128 0x20
 6109 08c3 BD060000 		.4byte	0x6bd
 6110 08c7 5A000000 		.4byte	.LBB550
 6111 08cb 5E000000 		.4byte	.LBE550
 6112 08cf 01       		.byte	0x1
 6113 08d0 42       		.byte	0x42
 6114 08d1 DF080000 		.4byte	0x8df
 6115 08d5 1F       		.uleb128 0x1f
 6116 08d6 CA060000 		.4byte	0x6ca
 6117 08da C9030000 		.4byte	.LLST15
 6118 08de 00       		.byte	0
 6119 08df 20       		.uleb128 0x20
 6120 08e0 D6060000 		.4byte	0x6d6
 6121 08e4 5E000000 		.4byte	.LBB552
 6122 08e8 60000000 		.4byte	.LBE552
 6123 08ec 01       		.byte	0x1
 6124 08ed 42       		.byte	0x42
 6125 08ee FC080000 		.4byte	0x8fc
 6126 08f2 1F       		.uleb128 0x1f
 6127 08f3 E3060000 		.4byte	0x6e3
 6128 08f7 DE030000 		.4byte	.LLST16
 6129 08fb 00       		.byte	0
 6130 08fc 1E       		.uleb128 0x1e
 6131 08fd BD060000 		.4byte	0x6bd
 6132 0901 AA000000 		.4byte	.LBB554
 6133 0905 B0000000 		.4byte	.Ldebug_ranges0+0xb0
 6134 0909 01       		.byte	0x1
 6135 090a 39       		.byte	0x39
 6136 090b 19090000 		.4byte	0x919
 6137 090f 1F       		.uleb128 0x1f
 6138 0910 CA060000 		.4byte	0x6ca
ARM GAS  /tmp/ccLrOMZj.s 			page 109


 6139 0914 F1030000 		.4byte	.LLST17
 6140 0918 00       		.byte	0
 6141 0919 1E       		.uleb128 0x1e
 6142 091a D6060000 		.4byte	0x6d6
 6143 091e B2000000 		.4byte	.LBB557
 6144 0922 C8000000 		.4byte	.Ldebug_ranges0+0xc8
 6145 0926 01       		.byte	0x1
 6146 0927 39       		.byte	0x39
 6147 0928 36090000 		.4byte	0x936
 6148 092c 1F       		.uleb128 0x1f
 6149 092d E3060000 		.4byte	0x6e3
 6150 0931 06040000 		.4byte	.LLST18
 6151 0935 00       		.byte	0
 6152 0936 1E       		.uleb128 0x1e
 6153 0937 BD060000 		.4byte	0x6bd
 6154 093b BE000000 		.4byte	.LBB561
 6155 093f E0000000 		.4byte	.Ldebug_ranges0+0xe0
 6156 0943 01       		.byte	0x1
 6157 0944 3A       		.byte	0x3a
 6158 0945 53090000 		.4byte	0x953
 6159 0949 1F       		.uleb128 0x1f
 6160 094a CA060000 		.4byte	0x6ca
 6161 094e 19040000 		.4byte	.LLST19
 6162 0952 00       		.byte	0
 6163 0953 20       		.uleb128 0x20
 6164 0954 D6060000 		.4byte	0x6d6
 6165 0958 C4000000 		.4byte	.LBB566
 6166 095c C8000000 		.4byte	.LBE566
 6167 0960 01       		.byte	0x1
 6168 0961 3A       		.byte	0x3a
 6169 0962 70090000 		.4byte	0x970
 6170 0966 1F       		.uleb128 0x1f
 6171 0967 E3060000 		.4byte	0x6e3
 6172 096b 2E040000 		.4byte	.LLST20
 6173 096f 00       		.byte	0
 6174 0970 20       		.uleb128 0x20
 6175 0971 EF060000 		.4byte	0x6ef
 6176 0975 0E010000 		.4byte	.LBB568
 6177 0979 2C010000 		.4byte	.LBE568
 6178 097d 01       		.byte	0x1
 6179 097e 4B       		.byte	0x4b
 6180 097f FE090000 		.4byte	0x9fe
 6181 0983 21       		.uleb128 0x21
 6182 0984 05070000 		.4byte	0x705
 6183 0988 21       		.uleb128 0x21
 6184 0989 FC060000 		.4byte	0x6fc
 6185 098d 1E       		.uleb128 0x1e
 6186 098e BD060000 		.4byte	0x6bd
 6187 0992 0E010000 		.4byte	.LBB570
 6188 0996 F8000000 		.4byte	.Ldebug_ranges0+0xf8
 6189 099a 01       		.byte	0x1
 6190 099b 45       		.byte	0x45
 6191 099c AA090000 		.4byte	0x9aa
 6192 09a0 1F       		.uleb128 0x1f
 6193 09a1 CA060000 		.4byte	0x6ca
 6194 09a5 41040000 		.4byte	.LLST21
 6195 09a9 00       		.byte	0
ARM GAS  /tmp/ccLrOMZj.s 			page 110


 6196 09aa 1E       		.uleb128 0x1e
 6197 09ab D6060000 		.4byte	0x6d6
 6198 09af 16010000 		.4byte	.LBB573
 6199 09b3 10010000 		.4byte	.Ldebug_ranges0+0x110
 6200 09b7 01       		.byte	0x1
 6201 09b8 45       		.byte	0x45
 6202 09b9 C7090000 		.4byte	0x9c7
 6203 09bd 1F       		.uleb128 0x1f
 6204 09be E3060000 		.4byte	0x6e3
 6205 09c2 56040000 		.4byte	.LLST22
 6206 09c6 00       		.byte	0
 6207 09c7 1E       		.uleb128 0x1e
 6208 09c8 BD060000 		.4byte	0x6bd
 6209 09cc 22010000 		.4byte	.LBB577
 6210 09d0 28010000 		.4byte	.Ldebug_ranges0+0x128
 6211 09d4 01       		.byte	0x1
 6212 09d5 46       		.byte	0x46
 6213 09d6 E4090000 		.4byte	0x9e4
 6214 09da 1F       		.uleb128 0x1f
 6215 09db CA060000 		.4byte	0x6ca
 6216 09df 69040000 		.4byte	.LLST23
 6217 09e3 00       		.byte	0
 6218 09e4 22       		.uleb128 0x22
 6219 09e5 D6060000 		.4byte	0x6d6
 6220 09e9 28010000 		.4byte	.LBB582
 6221 09ed 2C010000 		.4byte	.LBE582
 6222 09f1 01       		.byte	0x1
 6223 09f2 46       		.byte	0x46
 6224 09f3 1F       		.uleb128 0x1f
 6225 09f4 E3060000 		.4byte	0x6e3
 6226 09f8 7E040000 		.4byte	.LLST24
 6227 09fc 00       		.byte	0
 6228 09fd 00       		.byte	0
 6229 09fe 1E       		.uleb128 0x1e
 6230 09ff D6060000 		.4byte	0x6d6
 6231 0a03 60010000 		.4byte	.LBB584
 6232 0a07 40010000 		.4byte	.Ldebug_ranges0+0x140
 6233 0a0b 01       		.byte	0x1
 6234 0a0c 3D       		.byte	0x3d
 6235 0a0d 1B0A0000 		.4byte	0xa1b
 6236 0a11 1F       		.uleb128 0x1f
 6237 0a12 E3060000 		.4byte	0x6e3
 6238 0a16 91040000 		.4byte	.LLST25
 6239 0a1a 00       		.byte	0
 6240 0a1b 1E       		.uleb128 0x1e
 6241 0a1c BD060000 		.4byte	0x6bd
 6242 0a20 62010000 		.4byte	.LBB588
 6243 0a24 60010000 		.4byte	.Ldebug_ranges0+0x160
 6244 0a28 01       		.byte	0x1
 6245 0a29 3D       		.byte	0x3d
 6246 0a2a 380A0000 		.4byte	0xa38
 6247 0a2e 1F       		.uleb128 0x1f
 6248 0a2f CA060000 		.4byte	0x6ca
 6249 0a33 A4040000 		.4byte	.LLST26
 6250 0a37 00       		.byte	0
 6251 0a38 20       		.uleb128 0x20
 6252 0a39 BD060000 		.4byte	0x6bd
ARM GAS  /tmp/ccLrOMZj.s 			page 111


 6253 0a3d 72010000 		.4byte	.LBB594
 6254 0a41 76010000 		.4byte	.LBE594
 6255 0a45 01       		.byte	0x1
 6256 0a46 3E       		.byte	0x3e
 6257 0a47 550A0000 		.4byte	0xa55
 6258 0a4b 1F       		.uleb128 0x1f
 6259 0a4c CA060000 		.4byte	0x6ca
 6260 0a50 B9040000 		.4byte	.LLST27
 6261 0a54 00       		.byte	0
 6262 0a55 22       		.uleb128 0x22
 6263 0a56 D6060000 		.4byte	0x6d6
 6264 0a5a 76010000 		.4byte	.LBB596
 6265 0a5e 7A010000 		.4byte	.LBE596
 6266 0a62 01       		.byte	0x1
 6267 0a63 3E       		.byte	0x3e
 6268 0a64 1F       		.uleb128 0x1f
 6269 0a65 E3060000 		.4byte	0x6e3
 6270 0a69 CE040000 		.4byte	.LLST28
 6271 0a6d 00       		.byte	0
 6272 0a6e 00       		.byte	0
 6273 0a6f 1E       		.uleb128 0x1e
 6274 0a70 D6060000 		.4byte	0x6d6
 6275 0a74 78000000 		.4byte	.LBB601
 6276 0a78 78010000 		.4byte	.Ldebug_ranges0+0x178
 6277 0a7c 01       		.byte	0x1
 6278 0a7d 64       		.byte	0x64
 6279 0a7e 8C0A0000 		.4byte	0xa8c
 6280 0a82 1F       		.uleb128 0x1f
 6281 0a83 E3060000 		.4byte	0x6e3
 6282 0a87 E1040000 		.4byte	.LLST29
 6283 0a8b 00       		.byte	0
 6284 0a8c 1E       		.uleb128 0x1e
 6285 0a8d BD060000 		.4byte	0x6bd
 6286 0a91 84000000 		.4byte	.LBB604
 6287 0a95 90010000 		.4byte	.Ldebug_ranges0+0x190
 6288 0a99 01       		.byte	0x1
 6289 0a9a 64       		.byte	0x64
 6290 0a9b A90A0000 		.4byte	0xaa9
 6291 0a9f 1F       		.uleb128 0x1f
 6292 0aa0 CA060000 		.4byte	0x6ca
 6293 0aa4 FF040000 		.4byte	.LLST30
 6294 0aa8 00       		.byte	0
 6295 0aa9 20       		.uleb128 0x20
 6296 0aaa BD060000 		.4byte	0x6bd
 6297 0aae 9C000000 		.4byte	.LBB609
 6298 0ab2 A0000000 		.4byte	.LBE609
 6299 0ab6 01       		.byte	0x1
 6300 0ab7 65       		.byte	0x65
 6301 0ab8 C60A0000 		.4byte	0xac6
 6302 0abc 1F       		.uleb128 0x1f
 6303 0abd CA060000 		.4byte	0x6ca
 6304 0ac1 14050000 		.4byte	.LLST31
 6305 0ac5 00       		.byte	0
 6306 0ac6 20       		.uleb128 0x20
 6307 0ac7 D6060000 		.4byte	0x6d6
 6308 0acb A2000000 		.4byte	.LBB611
 6309 0acf A4000000 		.4byte	.LBE611
ARM GAS  /tmp/ccLrOMZj.s 			page 112


 6310 0ad3 01       		.byte	0x1
 6311 0ad4 65       		.byte	0x65
 6312 0ad5 E30A0000 		.4byte	0xae3
 6313 0ad9 1F       		.uleb128 0x1f
 6314 0ada E3060000 		.4byte	0x6e3
 6315 0ade 29050000 		.4byte	.LLST32
 6316 0ae2 00       		.byte	0
 6317 0ae3 20       		.uleb128 0x20
 6318 0ae4 BD060000 		.4byte	0x6bd
 6319 0ae8 A4000000 		.4byte	.LBB613
 6320 0aec A8000000 		.4byte	.LBE613
 6321 0af0 01       		.byte	0x1
 6322 0af1 66       		.byte	0x66
 6323 0af2 000B0000 		.4byte	0xb00
 6324 0af6 1F       		.uleb128 0x1f
 6325 0af7 CA060000 		.4byte	0x6ca
 6326 0afb 3C050000 		.4byte	.LLST33
 6327 0aff 00       		.byte	0
 6328 0b00 20       		.uleb128 0x20
 6329 0b01 D6060000 		.4byte	0x6d6
 6330 0b05 A8000000 		.4byte	.LBB615
 6331 0b09 AA000000 		.4byte	.LBE615
 6332 0b0d 01       		.byte	0x1
 6333 0b0e 66       		.byte	0x66
 6334 0b0f 1D0B0000 		.4byte	0xb1d
 6335 0b13 1F       		.uleb128 0x1f
 6336 0b14 E3060000 		.4byte	0x6e3
 6337 0b18 51050000 		.4byte	.LLST34
 6338 0b1c 00       		.byte	0
 6339 0b1d 1E       		.uleb128 0x1e
 6340 0b1e D6060000 		.4byte	0x6d6
 6341 0b22 DC000000 		.4byte	.LBB618
 6342 0b26 A8010000 		.4byte	.Ldebug_ranges0+0x1a8
 6343 0b2a 01       		.byte	0x1
 6344 0b2b 69       		.byte	0x69
 6345 0b2c 3A0B0000 		.4byte	0xb3a
 6346 0b30 1F       		.uleb128 0x1f
 6347 0b31 E3060000 		.4byte	0x6e3
 6348 0b35 64050000 		.4byte	.LLST35
 6349 0b39 00       		.byte	0
 6350 0b3a 1E       		.uleb128 0x1e
 6351 0b3b BD060000 		.4byte	0x6bd
 6352 0b3f E8000000 		.4byte	.LBB621
 6353 0b43 C0010000 		.4byte	.Ldebug_ranges0+0x1c0
 6354 0b47 01       		.byte	0x1
 6355 0b48 69       		.byte	0x69
 6356 0b49 570B0000 		.4byte	0xb57
 6357 0b4d 1F       		.uleb128 0x1f
 6358 0b4e CA060000 		.4byte	0x6ca
 6359 0b52 82050000 		.4byte	.LLST36
 6360 0b56 00       		.byte	0
 6361 0b57 20       		.uleb128 0x20
 6362 0b58 BD060000 		.4byte	0x6bd
 6363 0b5c 00010000 		.4byte	.LBB626
 6364 0b60 04010000 		.4byte	.LBE626
 6365 0b64 01       		.byte	0x1
 6366 0b65 6A       		.byte	0x6a
ARM GAS  /tmp/ccLrOMZj.s 			page 113


 6367 0b66 740B0000 		.4byte	0xb74
 6368 0b6a 1F       		.uleb128 0x1f
 6369 0b6b CA060000 		.4byte	0x6ca
 6370 0b6f 97050000 		.4byte	.LLST37
 6371 0b73 00       		.byte	0
 6372 0b74 20       		.uleb128 0x20
 6373 0b75 D6060000 		.4byte	0x6d6
 6374 0b79 06010000 		.4byte	.LBB628
 6375 0b7d 08010000 		.4byte	.LBE628
 6376 0b81 01       		.byte	0x1
 6377 0b82 6A       		.byte	0x6a
 6378 0b83 910B0000 		.4byte	0xb91
 6379 0b87 1F       		.uleb128 0x1f
 6380 0b88 E3060000 		.4byte	0x6e3
 6381 0b8c AC050000 		.4byte	.LLST38
 6382 0b90 00       		.byte	0
 6383 0b91 20       		.uleb128 0x20
 6384 0b92 BD060000 		.4byte	0x6bd
 6385 0b96 08010000 		.4byte	.LBB630
 6386 0b9a 0C010000 		.4byte	.LBE630
 6387 0b9e 01       		.byte	0x1
 6388 0b9f 6B       		.byte	0x6b
 6389 0ba0 AE0B0000 		.4byte	0xbae
 6390 0ba4 1F       		.uleb128 0x1f
 6391 0ba5 CA060000 		.4byte	0x6ca
 6392 0ba9 BF050000 		.4byte	.LLST39
 6393 0bad 00       		.byte	0
 6394 0bae 20       		.uleb128 0x20
 6395 0baf D6060000 		.4byte	0x6d6
 6396 0bb3 0C010000 		.4byte	.LBB632
 6397 0bb7 0E010000 		.4byte	.LBE632
 6398 0bbb 01       		.byte	0x1
 6399 0bbc 6B       		.byte	0x6b
 6400 0bbd CB0B0000 		.4byte	0xbcb
 6401 0bc1 1F       		.uleb128 0x1f
 6402 0bc2 E3060000 		.4byte	0x6e3
 6403 0bc6 D4050000 		.4byte	.LLST40
 6404 0bca 00       		.byte	0
 6405 0bcb 1E       		.uleb128 0x1e
 6406 0bcc D6060000 		.4byte	0x6d6
 6407 0bd0 34010000 		.4byte	.LBB635
 6408 0bd4 D8010000 		.4byte	.Ldebug_ranges0+0x1d8
 6409 0bd8 01       		.byte	0x1
 6410 0bd9 5A       		.byte	0x5a
 6411 0bda E80B0000 		.4byte	0xbe8
 6412 0bde 1F       		.uleb128 0x1f
 6413 0bdf E3060000 		.4byte	0x6e3
 6414 0be3 E7050000 		.4byte	.LLST41
 6415 0be7 00       		.byte	0
 6416 0be8 1E       		.uleb128 0x1e
 6417 0be9 BD060000 		.4byte	0x6bd
 6418 0bed 40010000 		.4byte	.LBB638
 6419 0bf1 F0010000 		.4byte	.Ldebug_ranges0+0x1f0
 6420 0bf5 01       		.byte	0x1
 6421 0bf6 5A       		.byte	0x5a
 6422 0bf7 050C0000 		.4byte	0xc05
 6423 0bfb 1F       		.uleb128 0x1f
ARM GAS  /tmp/ccLrOMZj.s 			page 114


 6424 0bfc CA060000 		.4byte	0x6ca
 6425 0c00 05060000 		.4byte	.LLST42
 6426 0c04 00       		.byte	0
 6427 0c05 20       		.uleb128 0x20
 6428 0c06 BD060000 		.4byte	0x6bd
 6429 0c0a 50010000 		.4byte	.LBB643
 6430 0c0e 54010000 		.4byte	.LBE643
 6431 0c12 01       		.byte	0x1
 6432 0c13 5B       		.byte	0x5b
 6433 0c14 220C0000 		.4byte	0xc22
 6434 0c18 1F       		.uleb128 0x1f
 6435 0c19 CA060000 		.4byte	0x6ca
 6436 0c1d 1A060000 		.4byte	.LLST43
 6437 0c21 00       		.byte	0
 6438 0c22 1E       		.uleb128 0x1e
 6439 0c23 BD060000 		.4byte	0x6bd
 6440 0c27 58010000 		.4byte	.LBB645
 6441 0c2b 08020000 		.4byte	.Ldebug_ranges0+0x208
 6442 0c2f 01       		.byte	0x1
 6443 0c30 5C       		.byte	0x5c
 6444 0c31 3F0C0000 		.4byte	0xc3f
 6445 0c35 1F       		.uleb128 0x1f
 6446 0c36 CA060000 		.4byte	0x6ca
 6447 0c3a 2F060000 		.4byte	.LLST44
 6448 0c3e 00       		.byte	0
 6449 0c3f 20       		.uleb128 0x20
 6450 0c40 D6060000 		.4byte	0x6d6
 6451 0c44 5A010000 		.4byte	.LBB648
 6452 0c48 5C010000 		.4byte	.LBE648
 6453 0c4c 01       		.byte	0x1
 6454 0c4d 5B       		.byte	0x5b
 6455 0c4e 5C0C0000 		.4byte	0xc5c
 6456 0c52 1F       		.uleb128 0x1f
 6457 0c53 E3060000 		.4byte	0x6e3
 6458 0c57 44060000 		.4byte	.LLST45
 6459 0c5b 00       		.byte	0
 6460 0c5c 22       		.uleb128 0x22
 6461 0c5d D6060000 		.4byte	0x6d6
 6462 0c61 5E010000 		.4byte	.LBB651
 6463 0c65 60010000 		.4byte	.LBE651
 6464 0c69 01       		.byte	0x1
 6465 0c6a 5C       		.byte	0x5c
 6466 0c6b 1F       		.uleb128 0x1f
 6467 0c6c E3060000 		.4byte	0x6e3
 6468 0c70 57060000 		.4byte	.LLST46
 6469 0c74 00       		.byte	0
 6470 0c75 00       		.byte	0
 6471 0c76 23       		.uleb128 0x23
 6472 0c77 01       		.byte	0x1
 6473 0c78 B7010000 		.4byte	.LASF127
 6474 0c7c 03       		.byte	0x3
 6475 0c7d 99       		.byte	0x99
 6476 0c7e 01       		.byte	0x1
 6477 0c7f 00000000 		.4byte	.LFB119
 6478 0c83 64000000 		.4byte	.LFE119
 6479 0c87 6A060000 		.4byte	.LLST47
 6480 0c8b 01       		.byte	0x1
ARM GAS  /tmp/ccLrOMZj.s 			page 115


 6481 0c8c C70C0000 		.4byte	0xcc7
 6482 0c90 1D       		.uleb128 0x1d
 6483 0c91 7800     		.ascii	"x\000"
 6484 0c93 03       		.byte	0x3
 6485 0c94 99       		.byte	0x99
 6486 0c95 7B040000 		.4byte	0x47b
 6487 0c99 8A060000 		.4byte	.LLST48
 6488 0c9d 1D       		.uleb128 0x1d
 6489 0c9e 7900     		.ascii	"y\000"
 6490 0ca0 03       		.byte	0x3
 6491 0ca1 99       		.byte	0x99
 6492 0ca2 7B040000 		.4byte	0x47b
 6493 0ca6 A8060000 		.4byte	.LLST49
 6494 0caa 1D       		.uleb128 0x1d
 6495 0cab 637800   		.ascii	"cx\000"
 6496 0cae 03       		.byte	0x3
 6497 0caf 99       		.byte	0x99
 6498 0cb0 7B040000 		.4byte	0x47b
 6499 0cb4 C6060000 		.4byte	.LLST50
 6500 0cb8 1D       		.uleb128 0x1d
 6501 0cb9 637900   		.ascii	"cy\000"
 6502 0cbc 03       		.byte	0x3
 6503 0cbd 99       		.byte	0x99
 6504 0cbe 7B040000 		.4byte	0x47b
 6505 0cc2 E4060000 		.4byte	.LLST51
 6506 0cc6 00       		.byte	0
 6507 0cc7 17       		.uleb128 0x17
 6508 0cc8 AC010000 		.4byte	.LASF124
 6509 0ccc 02       		.byte	0x2
 6510 0ccd 30       		.byte	0x30
 6511 0cce 01       		.byte	0x1
 6512 0ccf 03       		.byte	0x3
 6513 0cd0 EB0C0000 		.4byte	0xceb
 6514 0cd4 24       		.uleb128 0x24
 6515 0cd5 0A060000 		.4byte	.LASF125
 6516 0cd9 02       		.byte	0x2
 6517 0cda 48       		.byte	0x48
 6518 0cdb 65040000 		.4byte	0x465
 6519 0cdf 24       		.uleb128 0x24
 6520 0ce0 0F060000 		.4byte	.LASF126
 6521 0ce4 02       		.byte	0x2
 6522 0ce5 4B       		.byte	0x4b
 6523 0ce6 65040000 		.4byte	0x465
 6524 0cea 00       		.byte	0
 6525 0ceb 25       		.uleb128 0x25
 6526 0cec 01       		.byte	0x1
 6527 0ced 2D010000 		.4byte	.LASF164
 6528 0cf1 01       		.byte	0x1
 6529 0cf2 89       		.byte	0x89
 6530 0cf3 01       		.byte	0x1
 6531 0cf4 B1000000 		.4byte	0xb1
 6532 0cf8 00000000 		.4byte	.LFB135
 6533 0cfc 0E030000 		.4byte	.LFE135
 6534 0d00 10070000 		.4byte	.LLST52
 6535 0d04 01       		.byte	0x1
 6536 0d05 73190000 		.4byte	0x1973
 6537 0d09 1E       		.uleb128 0x1e
ARM GAS  /tmp/ccLrOMZj.s 			page 116


 6538 0d0a C70C0000 		.4byte	0xcc7
 6539 0d0e 04000000 		.4byte	.LBB824
 6540 0d12 20020000 		.4byte	.Ldebug_ranges0+0x220
 6541 0d16 01       		.byte	0x1
 6542 0d17 8B       		.byte	0x8b
 6543 0d18 840D0000 		.4byte	0xd84
 6544 0d1c 26       		.uleb128 0x26
 6545 0d1d 48020000 		.4byte	.Ldebug_ranges0+0x248
 6546 0d21 27       		.uleb128 0x27
 6547 0d22 D40C0000 		.4byte	0xcd4
 6548 0d26 02       		.byte	0x2
 6549 0d27 91       		.byte	0x91
 6550 0d28 40       		.sleb128 -64
 6551 0d29 27       		.uleb128 0x27
 6552 0d2a DF0C0000 		.4byte	0xcdf
 6553 0d2e 02       		.byte	0x2
 6554 0d2f 91       		.byte	0x91
 6555 0d30 4C       		.sleb128 -52
 6556 0d31 28       		.uleb128 0x28
 6557 0d32 3E000000 		.4byte	.LVL89
 6558 0d36 DD2A0000 		.4byte	0x2add
 6559 0d3a 4C0D0000 		.4byte	0xd4c
 6560 0d3e 29       		.uleb128 0x29
 6561 0d3f 01       		.byte	0x1
 6562 0d40 51       		.byte	0x51
 6563 0d41 03       		.byte	0x3
 6564 0d42 0A       		.byte	0xa
 6565 0d43 0206     		.2byte	0x602
 6566 0d45 29       		.uleb128 0x29
 6567 0d46 01       		.byte	0x1
 6568 0d47 50       		.byte	0x50
 6569 0d48 02       		.byte	0x2
 6570 0d49 75       		.byte	0x75
 6571 0d4a 00       		.sleb128 0
 6572 0d4b 00       		.byte	0
 6573 0d4c 28       		.uleb128 0x28
 6574 0d4d 48000000 		.4byte	.LVL90
 6575 0d51 DD2A0000 		.4byte	0x2add
 6576 0d55 670D0000 		.4byte	0xd67
 6577 0d59 29       		.uleb128 0x29
 6578 0d5a 01       		.byte	0x1
 6579 0d5b 51       		.byte	0x51
 6580 0d5c 03       		.byte	0x3
 6581 0d5d 0A       		.byte	0xa
 6582 0d5e 0206     		.2byte	0x602
 6583 0d60 29       		.uleb128 0x29
 6584 0d61 01       		.byte	0x1
 6585 0d62 50       		.byte	0x50
 6586 0d63 02       		.byte	0x2
 6587 0d64 74       		.byte	0x74
 6588 0d65 00       		.sleb128 0
 6589 0d66 00       		.byte	0
 6590 0d67 2A       		.uleb128 0x2a
 6591 0d68 7A000000 		.4byte	.LVL91
 6592 0d6c FD2A0000 		.4byte	0x2afd
 6593 0d70 29       		.uleb128 0x29
 6594 0d71 01       		.byte	0x1
ARM GAS  /tmp/ccLrOMZj.s 			page 117


 6595 0d72 52       		.byte	0x52
 6596 0d73 01       		.byte	0x1
 6597 0d74 49       		.byte	0x49
 6598 0d75 29       		.uleb128 0x29
 6599 0d76 01       		.byte	0x1
 6600 0d77 51       		.byte	0x51
 6601 0d78 02       		.byte	0x2
 6602 0d79 78       		.byte	0x78
 6603 0d7a 00       		.sleb128 0
 6604 0d7b 29       		.uleb128 0x29
 6605 0d7c 01       		.byte	0x1
 6606 0d7d 50       		.byte	0x50
 6607 0d7e 02       		.byte	0x2
 6608 0d7f 76       		.byte	0x76
 6609 0d80 00       		.sleb128 0
 6610 0d81 00       		.byte	0
 6611 0d82 00       		.byte	0
 6612 0d83 00       		.byte	0
 6613 0d84 1E       		.uleb128 0x1e
 6614 0d85 0F070000 		.4byte	0x70f
 6615 0d89 68000000 		.4byte	.LBB830
 6616 0d8d 70020000 		.4byte	.Ldebug_ranges0+0x270
 6617 0d91 01       		.byte	0x1
 6618 0d92 8E       		.byte	0x8e
 6619 0d93 9E0D0000 		.4byte	0xd9e
 6620 0d97 2B       		.uleb128 0x2b
 6621 0d98 1C070000 		.4byte	0x71c
 6622 0d9c 01       		.byte	0x1
 6623 0d9d 00       		.byte	0
 6624 0d9e 1E       		.uleb128 0x1e
 6625 0d9f D6060000 		.4byte	0x6d6
 6626 0da3 6C000000 		.4byte	.LBB834
 6627 0da7 88020000 		.4byte	.Ldebug_ranges0+0x288
 6628 0dab 01       		.byte	0x1
 6629 0dac 96       		.byte	0x96
 6630 0dad B80D0000 		.4byte	0xdb8
 6631 0db1 2B       		.uleb128 0x2b
 6632 0db2 E3060000 		.4byte	0x6e3
 6633 0db6 01       		.byte	0x1
 6634 0db7 00       		.byte	0
 6635 0db8 1E       		.uleb128 0x1e
 6636 0db9 BD060000 		.4byte	0x6bd
 6637 0dbd 6E000000 		.4byte	.LBB839
 6638 0dc1 B0020000 		.4byte	.Ldebug_ranges0+0x2b0
 6639 0dc5 01       		.byte	0x1
 6640 0dc6 96       		.byte	0x96
 6641 0dc7 D20D0000 		.4byte	0xdd2
 6642 0dcb 2B       		.uleb128 0x2b
 6643 0dcc CA060000 		.4byte	0x6ca
 6644 0dd0 00       		.byte	0
 6645 0dd1 00       		.byte	0
 6646 0dd2 20       		.uleb128 0x20
 6647 0dd3 0F070000 		.4byte	0x70f
 6648 0dd7 8C000000 		.4byte	.LBB848
 6649 0ddb 90000000 		.4byte	.LBE848
 6650 0ddf 01       		.byte	0x1
 6651 0de0 90       		.byte	0x90
ARM GAS  /tmp/ccLrOMZj.s 			page 118


 6652 0de1 EC0D0000 		.4byte	0xdec
 6653 0de5 2B       		.uleb128 0x2b
 6654 0de6 1C070000 		.4byte	0x71c
 6655 0dea 00       		.byte	0
 6656 0deb 00       		.byte	0
 6657 0dec 1E       		.uleb128 0x1e
 6658 0ded BD060000 		.4byte	0x6bd
 6659 0df1 A0000000 		.4byte	.LBB852
 6660 0df5 D0020000 		.4byte	.Ldebug_ranges0+0x2d0
 6661 0df9 01       		.byte	0x1
 6662 0dfa 97       		.byte	0x97
 6663 0dfb 060E0000 		.4byte	0xe06
 6664 0dff 2B       		.uleb128 0x2b
 6665 0e00 CA060000 		.4byte	0x6ca
 6666 0e04 03       		.byte	0x3
 6667 0e05 00       		.byte	0
 6668 0e06 1E       		.uleb128 0x1e
 6669 0e07 D6060000 		.4byte	0x6d6
 6670 0e0b A4000000 		.4byte	.LBB855
 6671 0e0f E8020000 		.4byte	.Ldebug_ranges0+0x2e8
 6672 0e13 01       		.byte	0x1
 6673 0e14 97       		.byte	0x97
 6674 0e15 220E0000 		.4byte	0xe22
 6675 0e19 2C       		.uleb128 0x2c
 6676 0e1a E3060000 		.4byte	0x6e3
 6677 0e1e A4D17E   		.sleb128 -22364
 6678 0e21 00       		.byte	0
 6679 0e22 20       		.uleb128 0x20
 6680 0e23 BD060000 		.4byte	0x6bd
 6681 0e27 B4000000 		.4byte	.LBB860
 6682 0e2b B8000000 		.4byte	.LBE860
 6683 0e2f 01       		.byte	0x1
 6684 0e30 98       		.byte	0x98
 6685 0e31 3C0E0000 		.4byte	0xe3c
 6686 0e35 2B       		.uleb128 0x2b
 6687 0e36 CA060000 		.4byte	0x6ca
 6688 0e3a 0C       		.byte	0xc
 6689 0e3b 00       		.byte	0
 6690 0e3c 20       		.uleb128 0x20
 6691 0e3d D6060000 		.4byte	0x6d6
 6692 0e41 BA000000 		.4byte	.LBB862
 6693 0e45 BC000000 		.4byte	.LBE862
 6694 0e49 01       		.byte	0x1
 6695 0e4a 98       		.byte	0x98
 6696 0e4b 560E0000 		.4byte	0xe56
 6697 0e4f 2B       		.uleb128 0x2b
 6698 0e50 E3060000 		.4byte	0x6e3
 6699 0e54 00       		.byte	0
 6700 0e55 00       		.byte	0
 6701 0e56 1E       		.uleb128 0x1e
 6702 0e57 D6060000 		.4byte	0x6d6
 6703 0e5b C0000000 		.4byte	.LBB864
 6704 0e5f 00030000 		.4byte	.Ldebug_ranges0+0x300
 6705 0e63 01       		.byte	0x1
 6706 0e64 99       		.byte	0x99
 6707 0e65 710E0000 		.4byte	0xe71
 6708 0e69 2D       		.uleb128 0x2d
ARM GAS  /tmp/ccLrOMZj.s 			page 119


 6709 0e6a E3060000 		.4byte	0x6e3
 6710 0e6e 0C08     		.2byte	0x80c
 6711 0e70 00       		.byte	0
 6712 0e71 20       		.uleb128 0x20
 6713 0e72 BD060000 		.4byte	0x6bd
 6714 0e76 C4000000 		.4byte	.LBB867
 6715 0e7a C8000000 		.4byte	.LBE867
 6716 0e7e 01       		.byte	0x1
 6717 0e7f 99       		.byte	0x99
 6718 0e80 8B0E0000 		.4byte	0xe8b
 6719 0e84 2B       		.uleb128 0x2b
 6720 0e85 CA060000 		.4byte	0x6ca
 6721 0e89 0D       		.byte	0xd
 6722 0e8a 00       		.byte	0
 6723 0e8b 1E       		.uleb128 0x1e
 6724 0e8c BD060000 		.4byte	0x6bd
 6725 0e90 D0000000 		.4byte	.LBB870
 6726 0e94 18030000 		.4byte	.Ldebug_ranges0+0x318
 6727 0e98 01       		.byte	0x1
 6728 0e99 9A       		.byte	0x9a
 6729 0e9a A50E0000 		.4byte	0xea5
 6730 0e9e 2B       		.uleb128 0x2b
 6731 0e9f CA060000 		.4byte	0x6ca
 6732 0ea3 0E       		.byte	0xe
 6733 0ea4 00       		.byte	0
 6734 0ea5 1E       		.uleb128 0x1e
 6735 0ea6 D6060000 		.4byte	0x6d6
 6736 0eaa D2000000 		.4byte	.LBB873
 6737 0eae 30030000 		.4byte	.Ldebug_ranges0+0x330
 6738 0eb2 01       		.byte	0x1
 6739 0eb3 9A       		.byte	0x9a
 6740 0eb4 C00E0000 		.4byte	0xec0
 6741 0eb8 2D       		.uleb128 0x2d
 6742 0eb9 E3060000 		.4byte	0x6e3
 6743 0ebd 002B     		.2byte	0x2b00
 6744 0ebf 00       		.byte	0
 6745 0ec0 1E       		.uleb128 0x1e
 6746 0ec1 D6060000 		.4byte	0x6d6
 6747 0ec5 E0000000 		.4byte	.LBB878
 6748 0ec9 48030000 		.4byte	.Ldebug_ranges0+0x348
 6749 0ecd 01       		.byte	0x1
 6750 0ece 9B       		.byte	0x9b
 6751 0ecf DA0E0000 		.4byte	0xeda
 6752 0ed3 2B       		.uleb128 0x2b
 6753 0ed4 E3060000 		.4byte	0x6e3
 6754 0ed8 B0       		.byte	0xb0
 6755 0ed9 00       		.byte	0
 6756 0eda 20       		.uleb128 0x20
 6757 0edb BD060000 		.4byte	0x6bd
 6758 0edf E2000000 		.4byte	.LBB881
 6759 0ee3 E6000000 		.4byte	.LBE881
 6760 0ee7 01       		.byte	0x1
 6761 0ee8 9B       		.byte	0x9b
 6762 0ee9 F40E0000 		.4byte	0xef4
 6763 0eed 2B       		.uleb128 0x2b
 6764 0eee CA060000 		.4byte	0x6ca
 6765 0ef2 1E       		.byte	0x1e
ARM GAS  /tmp/ccLrOMZj.s 			page 120


 6766 0ef3 00       		.byte	0
 6767 0ef4 1E       		.uleb128 0x1e
 6768 0ef5 D6060000 		.4byte	0x6d6
 6769 0ef9 E6000000 		.4byte	.LBB883
 6770 0efd 60030000 		.4byte	.Ldebug_ranges0+0x360
 6771 0f01 01       		.byte	0x1
 6772 0f02 9C       		.byte	0x9c
 6773 0f03 0F0F0000 		.4byte	0xf0f
 6774 0f07 2D       		.uleb128 0x2d
 6775 0f08 E3060000 		.4byte	0x6e3
 6776 0f0c 3F2B     		.2byte	0x2b3f
 6777 0f0e 00       		.byte	0
 6778 0f0f 20       		.uleb128 0x20
 6779 0f10 BD060000 		.4byte	0x6bd
 6780 0f14 F2000000 		.4byte	.LBB887
 6781 0f18 F6000000 		.4byte	.LBE887
 6782 0f1c 01       		.byte	0x1
 6783 0f1d 9C       		.byte	0x9c
 6784 0f1e 290F0000 		.4byte	0xf29
 6785 0f22 2B       		.uleb128 0x2b
 6786 0f23 CA060000 		.4byte	0x6ca
 6787 0f27 01       		.byte	0x1
 6788 0f28 00       		.byte	0
 6789 0f29 1E       		.uleb128 0x1e
 6790 0f2a D6060000 		.4byte	0x6d6
 6791 0f2e FE000000 		.4byte	.LBB890
 6792 0f32 78030000 		.4byte	.Ldebug_ranges0+0x378
 6793 0f36 01       		.byte	0x1
 6794 0f37 9D       		.byte	0x9d
 6795 0f38 440F0000 		.4byte	0xf44
 6796 0f3c 2D       		.uleb128 0x2d
 6797 0f3d E3060000 		.4byte	0x6e3
 6798 0f41 0006     		.2byte	0x600
 6799 0f43 00       		.byte	0
 6800 0f44 20       		.uleb128 0x20
 6801 0f45 BD060000 		.4byte	0x6bd
 6802 0f49 02010000 		.4byte	.LBB893
 6803 0f4d 06010000 		.4byte	.LBE893
 6804 0f51 01       		.byte	0x1
 6805 0f52 9D       		.byte	0x9d
 6806 0f53 5E0F0000 		.4byte	0xf5e
 6807 0f57 2B       		.uleb128 0x2b
 6808 0f58 CA060000 		.4byte	0x6ca
 6809 0f5c 02       		.byte	0x2
 6810 0f5d 00       		.byte	0
 6811 0f5e 20       		.uleb128 0x20
 6812 0f5f BD060000 		.4byte	0x6bd
 6813 0f63 0E010000 		.4byte	.LBB896
 6814 0f67 12010000 		.4byte	.LBE896
 6815 0f6b 01       		.byte	0x1
 6816 0f6c 9E       		.byte	0x9e
 6817 0f6d 780F0000 		.4byte	0xf78
 6818 0f71 2B       		.uleb128 0x2b
 6819 0f72 CA060000 		.4byte	0x6ca
 6820 0f76 10       		.byte	0x10
 6821 0f77 00       		.byte	0
 6822 0f78 20       		.uleb128 0x20
ARM GAS  /tmp/ccLrOMZj.s 			page 121


 6823 0f79 D6060000 		.4byte	0x6d6
 6824 0f7d 14010000 		.4byte	.LBB898
 6825 0f81 16010000 		.4byte	.LBE898
 6826 0f85 01       		.byte	0x1
 6827 0f86 9E       		.byte	0x9e
 6828 0f87 920F0000 		.4byte	0xf92
 6829 0f8b 2B       		.uleb128 0x2b
 6830 0f8c E3060000 		.4byte	0x6e3
 6831 0f90 00       		.byte	0
 6832 0f91 00       		.byte	0
 6833 0f92 1E       		.uleb128 0x1e
 6834 0f93 BD060000 		.4byte	0x6bd
 6835 0f97 16010000 		.4byte	.LBB900
 6836 0f9b 90030000 		.4byte	.Ldebug_ranges0+0x390
 6837 0f9f 01       		.byte	0x1
 6838 0fa0 A0       		.byte	0xa0
 6839 0fa1 AC0F0000 		.4byte	0xfac
 6840 0fa5 2B       		.uleb128 0x2b
 6841 0fa6 CA060000 		.4byte	0x6ca
 6842 0faa 05       		.byte	0x5
 6843 0fab 00       		.byte	0
 6844 0fac 1E       		.uleb128 0x1e
 6845 0fad BD060000 		.4byte	0x6bd
 6846 0fb1 1C010000 		.4byte	.LBB903
 6847 0fb5 A8030000 		.4byte	.Ldebug_ranges0+0x3a8
 6848 0fb9 01       		.byte	0x1
 6849 0fba 9F       		.byte	0x9f
 6850 0fbb C60F0000 		.4byte	0xfc6
 6851 0fbf 2B       		.uleb128 0x2b
 6852 0fc0 CA060000 		.4byte	0x6ca
 6853 0fc4 11       		.byte	0x11
 6854 0fc5 00       		.byte	0
 6855 0fc6 1E       		.uleb128 0x1e
 6856 0fc7 D6060000 		.4byte	0x6d6
 6857 0fcb 1E010000 		.4byte	.LBB906
 6858 0fcf C0030000 		.4byte	.Ldebug_ranges0+0x3c0
 6859 0fd3 01       		.byte	0x1
 6860 0fd4 9F       		.byte	0x9f
 6861 0fd5 E10F0000 		.4byte	0xfe1
 6862 0fd9 2D       		.uleb128 0x2d
 6863 0fda E3060000 		.4byte	0x6e3
 6864 0fde 7060     		.2byte	0x6070
 6865 0fe0 00       		.byte	0
 6866 0fe1 20       		.uleb128 0x20
 6867 0fe2 D6060000 		.4byte	0x6d6
 6868 0fe6 30010000 		.4byte	.LBB912
 6869 0fea 32010000 		.4byte	.LBE912
 6870 0fee 01       		.byte	0x1
 6871 0fef A0       		.byte	0xa0
 6872 0ff0 FB0F0000 		.4byte	0xffb
 6873 0ff4 2B       		.uleb128 0x2b
 6874 0ff5 E3060000 		.4byte	0x6e3
 6875 0ff9 00       		.byte	0
 6876 0ffa 00       		.byte	0
 6877 0ffb 20       		.uleb128 0x20
 6878 0ffc BD060000 		.4byte	0x6bd
 6879 1000 36010000 		.4byte	.LBB914
ARM GAS  /tmp/ccLrOMZj.s 			page 122


 6880 1004 3A010000 		.4byte	.LBE914
 6881 1008 01       		.byte	0x1
 6882 1009 A1       		.byte	0xa1
 6883 100a 15100000 		.4byte	0x1015
 6884 100e 2B       		.uleb128 0x2b
 6885 100f CA060000 		.4byte	0x6ca
 6886 1013 06       		.byte	0x6
 6887 1014 00       		.byte	0
 6888 1015 20       		.uleb128 0x20
 6889 1016 D6060000 		.4byte	0x6d6
 6890 101a 3C010000 		.4byte	.LBB916
 6891 101e 3E010000 		.4byte	.LBE916
 6892 1022 01       		.byte	0x1
 6893 1023 A1       		.byte	0xa1
 6894 1024 2F100000 		.4byte	0x102f
 6895 1028 2B       		.uleb128 0x2b
 6896 1029 E3060000 		.4byte	0x6e3
 6897 102d 00       		.byte	0
 6898 102e 00       		.byte	0
 6899 102f 1E       		.uleb128 0x1e
 6900 1030 D6060000 		.4byte	0x6d6
 6901 1034 42010000 		.4byte	.LBB918
 6902 1038 D8030000 		.4byte	.Ldebug_ranges0+0x3d8
 6903 103c 01       		.byte	0x1
 6904 103d A2       		.byte	0xa2
 6905 103e 4A100000 		.4byte	0x104a
 6906 1042 2C       		.uleb128 0x2c
 6907 1043 E3060000 		.4byte	0x6e3
 6908 1047 9C5E     		.sleb128 -4324
 6909 1049 00       		.byte	0
 6910 104a 20       		.uleb128 0x20
 6911 104b BD060000 		.4byte	0x6bd
 6912 104f 46010000 		.4byte	.LBB921
 6913 1053 4A010000 		.4byte	.LBE921
 6914 1057 01       		.byte	0x1
 6915 1058 A2       		.byte	0xa2
 6916 1059 64100000 		.4byte	0x1064
 6917 105d 2B       		.uleb128 0x2b
 6918 105e CA060000 		.4byte	0x6ca
 6919 1062 16       		.byte	0x16
 6920 1063 00       		.byte	0
 6921 1064 20       		.uleb128 0x20
 6922 1065 BD060000 		.4byte	0x6bd
 6923 1069 52010000 		.4byte	.LBB924
 6924 106d 56010000 		.4byte	.LBE924
 6925 1071 01       		.byte	0x1
 6926 1072 A3       		.byte	0xa3
 6927 1073 7E100000 		.4byte	0x107e
 6928 1077 2B       		.uleb128 0x2b
 6929 1078 CA060000 		.4byte	0x6ca
 6930 107c 17       		.byte	0x17
 6931 107d 00       		.byte	0
 6932 107e 20       		.uleb128 0x20
 6933 107f D6060000 		.4byte	0x6d6
 6934 1083 58010000 		.4byte	.LBB926
 6935 1087 5C010000 		.4byte	.LBE926
 6936 108b 01       		.byte	0x1
ARM GAS  /tmp/ccLrOMZj.s 			page 123


 6937 108c A3       		.byte	0xa3
 6938 108d 98100000 		.4byte	0x1098
 6939 1091 2B       		.uleb128 0x2b
 6940 1092 E3060000 		.4byte	0x6e3
 6941 1096 03       		.byte	0x3
 6942 1097 00       		.byte	0
 6943 1098 1E       		.uleb128 0x1e
 6944 1099 BD060000 		.4byte	0x6bd
 6945 109d 60010000 		.4byte	.LBB928
 6946 10a1 F0030000 		.4byte	.Ldebug_ranges0+0x3f0
 6947 10a5 01       		.byte	0x1
 6948 10a6 A4       		.byte	0xa4
 6949 10a7 B2100000 		.4byte	0x10b2
 6950 10ab 2B       		.uleb128 0x2b
 6951 10ac CA060000 		.4byte	0x6ca
 6952 10b0 07       		.byte	0x7
 6953 10b1 00       		.byte	0
 6954 10b2 1E       		.uleb128 0x1e
 6955 10b3 D6060000 		.4byte	0x6d6
 6956 10b7 62010000 		.4byte	.LBB931
 6957 10bb 08040000 		.4byte	.Ldebug_ranges0+0x408
 6958 10bf 01       		.byte	0x1
 6959 10c0 A4       		.byte	0xa4
 6960 10c1 CD100000 		.4byte	0x10cd
 6961 10c5 2D       		.uleb128 0x2d
 6962 10c6 E3060000 		.4byte	0x6e3
 6963 10ca 3301     		.2byte	0x133
 6964 10cc 00       		.byte	0
 6965 10cd 20       		.uleb128 0x20
 6966 10ce BD060000 		.4byte	0x6bd
 6967 10d2 70010000 		.4byte	.LBB936
 6968 10d6 74010000 		.4byte	.LBE936
 6969 10da 01       		.byte	0x1
 6970 10db A5       		.byte	0xa5
 6971 10dc E7100000 		.4byte	0x10e7
 6972 10e0 2B       		.uleb128 0x2b
 6973 10e1 CA060000 		.4byte	0x6ca
 6974 10e5 0B       		.byte	0xb
 6975 10e6 00       		.byte	0
 6976 10e7 20       		.uleb128 0x20
 6977 10e8 D6060000 		.4byte	0x6d6
 6978 10ec 76010000 		.4byte	.LBB938
 6979 10f0 78010000 		.4byte	.LBE938
 6980 10f4 01       		.byte	0x1
 6981 10f5 A5       		.byte	0xa5
 6982 10f6 01110000 		.4byte	0x1101
 6983 10fa 2B       		.uleb128 0x2b
 6984 10fb E3060000 		.4byte	0x6e3
 6985 10ff 00       		.byte	0
 6986 1100 00       		.byte	0
 6987 1101 20       		.uleb128 0x20
 6988 1102 BD060000 		.4byte	0x6bd
 6989 1106 7C010000 		.4byte	.LBB940
 6990 110a 80010000 		.4byte	.LBE940
 6991 110e 01       		.byte	0x1
 6992 110f A6       		.byte	0xa6
 6993 1110 1B110000 		.4byte	0x111b
ARM GAS  /tmp/ccLrOMZj.s 			page 124


 6994 1114 2B       		.uleb128 0x2b
 6995 1115 CA060000 		.4byte	0x6ca
 6996 1119 0F       		.byte	0xf
 6997 111a 00       		.byte	0
 6998 111b 20       		.uleb128 0x20
 6999 111c D6060000 		.4byte	0x6d6
 7000 1120 82010000 		.4byte	.LBB942
 7001 1124 84010000 		.4byte	.LBE942
 7002 1128 01       		.byte	0x1
 7003 1129 A6       		.byte	0xa6
 7004 112a 35110000 		.4byte	0x1135
 7005 112e 2B       		.uleb128 0x2b
 7006 112f E3060000 		.4byte	0x6e3
 7007 1133 00       		.byte	0
 7008 1134 00       		.byte	0
 7009 1135 20       		.uleb128 0x20
 7010 1136 BD060000 		.4byte	0x6bd
 7011 113a 88010000 		.4byte	.LBB944
 7012 113e 8C010000 		.4byte	.LBE944
 7013 1142 01       		.byte	0x1
 7014 1143 A7       		.byte	0xa7
 7015 1144 4F110000 		.4byte	0x114f
 7016 1148 2B       		.uleb128 0x2b
 7017 1149 CA060000 		.4byte	0x6ca
 7018 114d 41       		.byte	0x41
 7019 114e 00       		.byte	0
 7020 114f 20       		.uleb128 0x20
 7021 1150 D6060000 		.4byte	0x6d6
 7022 1154 8E010000 		.4byte	.LBB946
 7023 1158 90010000 		.4byte	.LBE946
 7024 115c 01       		.byte	0x1
 7025 115d A7       		.byte	0xa7
 7026 115e 69110000 		.4byte	0x1169
 7027 1162 2B       		.uleb128 0x2b
 7028 1163 E3060000 		.4byte	0x6e3
 7029 1167 00       		.byte	0
 7030 1168 00       		.byte	0
 7031 1169 20       		.uleb128 0x20
 7032 116a BD060000 		.4byte	0x6bd
 7033 116e 94010000 		.4byte	.LBB948
 7034 1172 98010000 		.4byte	.LBE948
 7035 1176 01       		.byte	0x1
 7036 1177 A8       		.byte	0xa8
 7037 1178 83110000 		.4byte	0x1183
 7038 117c 2B       		.uleb128 0x2b
 7039 117d CA060000 		.4byte	0x6ca
 7040 1181 42       		.byte	0x42
 7041 1182 00       		.byte	0
 7042 1183 20       		.uleb128 0x20
 7043 1184 D6060000 		.4byte	0x6d6
 7044 1188 9A010000 		.4byte	.LBB950
 7045 118c 9C010000 		.4byte	.LBE950
 7046 1190 01       		.byte	0x1
 7047 1191 A8       		.byte	0xa8
 7048 1192 9D110000 		.4byte	0x119d
 7049 1196 2B       		.uleb128 0x2b
 7050 1197 E3060000 		.4byte	0x6e3
ARM GAS  /tmp/ccLrOMZj.s 			page 125


 7051 119b 00       		.byte	0
 7052 119c 00       		.byte	0
 7053 119d 20       		.uleb128 0x20
 7054 119e BD060000 		.4byte	0x6bd
 7055 11a2 A0010000 		.4byte	.LBB952
 7056 11a6 A4010000 		.4byte	.LBE952
 7057 11aa 01       		.byte	0x1
 7058 11ab A9       		.byte	0xa9
 7059 11ac B7110000 		.4byte	0x11b7
 7060 11b0 2B       		.uleb128 0x2b
 7061 11b1 CA060000 		.4byte	0x6ca
 7062 11b5 48       		.byte	0x48
 7063 11b6 00       		.byte	0
 7064 11b7 20       		.uleb128 0x20
 7065 11b8 D6060000 		.4byte	0x6d6
 7066 11bc A6010000 		.4byte	.LBB954
 7067 11c0 A8010000 		.4byte	.LBE954
 7068 11c4 01       		.byte	0x1
 7069 11c5 A9       		.byte	0xa9
 7070 11c6 D1110000 		.4byte	0x11d1
 7071 11ca 2B       		.uleb128 0x2b
 7072 11cb E3060000 		.4byte	0x6e3
 7073 11cf 00       		.byte	0
 7074 11d0 00       		.byte	0
 7075 11d1 1E       		.uleb128 0x1e
 7076 11d2 D6060000 		.4byte	0x6d6
 7077 11d6 AC010000 		.4byte	.LBB956
 7078 11da 20040000 		.4byte	.Ldebug_ranges0+0x420
 7079 11de 01       		.byte	0x1
 7080 11df AA       		.byte	0xaa
 7081 11e0 EC110000 		.4byte	0x11ec
 7082 11e4 2D       		.uleb128 0x2d
 7083 11e5 E3060000 		.4byte	0x6e3
 7084 11e9 3F01     		.2byte	0x13f
 7085 11eb 00       		.byte	0
 7086 11ec 20       		.uleb128 0x20
 7087 11ed BD060000 		.4byte	0x6bd
 7088 11f1 B0010000 		.4byte	.LBB959
 7089 11f5 B4010000 		.4byte	.LBE959
 7090 11f9 01       		.byte	0x1
 7091 11fa AA       		.byte	0xaa
 7092 11fb 06120000 		.4byte	0x1206
 7093 11ff 2B       		.uleb128 0x2b
 7094 1200 CA060000 		.4byte	0x6ca
 7095 1204 49       		.byte	0x49
 7096 1205 00       		.byte	0
 7097 1206 20       		.uleb128 0x20
 7098 1207 BD060000 		.4byte	0x6bd
 7099 120b BE010000 		.4byte	.LBB962
 7100 120f C2010000 		.4byte	.LBE962
 7101 1213 01       		.byte	0x1
 7102 1214 AB       		.byte	0xab
 7103 1215 20120000 		.4byte	0x1220
 7104 1219 2B       		.uleb128 0x2b
 7105 121a CA060000 		.4byte	0x6ca
 7106 121e 4A       		.byte	0x4a
 7107 121f 00       		.byte	0
ARM GAS  /tmp/ccLrOMZj.s 			page 126


 7108 1220 20       		.uleb128 0x20
 7109 1221 D6060000 		.4byte	0x6d6
 7110 1225 C4010000 		.4byte	.LBB964
 7111 1229 C6010000 		.4byte	.LBE964
 7112 122d 01       		.byte	0x1
 7113 122e AB       		.byte	0xab
 7114 122f 3A120000 		.4byte	0x123a
 7115 1233 2B       		.uleb128 0x2b
 7116 1234 E3060000 		.4byte	0x6e3
 7117 1238 00       		.byte	0
 7118 1239 00       		.byte	0
 7119 123a 20       		.uleb128 0x20
 7120 123b BD060000 		.4byte	0x6bd
 7121 123f CA010000 		.4byte	.LBB966
 7122 1243 CE010000 		.4byte	.LBE966
 7123 1247 01       		.byte	0x1
 7124 1248 AC       		.byte	0xac
 7125 1249 54120000 		.4byte	0x1254
 7126 124d 2B       		.uleb128 0x2b
 7127 124e CA060000 		.4byte	0x6ca
 7128 1252 4B       		.byte	0x4b
 7129 1253 00       		.byte	0
 7130 1254 20       		.uleb128 0x20
 7131 1255 D6060000 		.4byte	0x6d6
 7132 1259 D0010000 		.4byte	.LBB968
 7133 125d D2010000 		.4byte	.LBE968
 7134 1261 01       		.byte	0x1
 7135 1262 AC       		.byte	0xac
 7136 1263 6E120000 		.4byte	0x126e
 7137 1267 2B       		.uleb128 0x2b
 7138 1268 E3060000 		.4byte	0x6e3
 7139 126c 00       		.byte	0
 7140 126d 00       		.byte	0
 7141 126e 1E       		.uleb128 0x1e
 7142 126f D6060000 		.4byte	0x6d6
 7143 1273 D6010000 		.4byte	.LBB970
 7144 1277 38040000 		.4byte	.Ldebug_ranges0+0x438
 7145 127b 01       		.byte	0x1
 7146 127c AD       		.byte	0xad
 7147 127d 89120000 		.4byte	0x1289
 7148 1281 2C       		.uleb128 0x2c
 7149 1282 E3060000 		.4byte	0x6e3
 7150 1286 805E     		.sleb128 -4352
 7151 1288 00       		.byte	0
 7152 1289 20       		.uleb128 0x20
 7153 128a BD060000 		.4byte	0x6bd
 7154 128e DA010000 		.4byte	.LBB973
 7155 1292 DE010000 		.4byte	.LBE973
 7156 1296 01       		.byte	0x1
 7157 1297 AD       		.byte	0xad
 7158 1298 A3120000 		.4byte	0x12a3
 7159 129c 2B       		.uleb128 0x2b
 7160 129d CA060000 		.4byte	0x6ca
 7161 12a1 44       		.byte	0x44
 7162 12a2 00       		.byte	0
 7163 12a3 20       		.uleb128 0x20
 7164 12a4 BD060000 		.4byte	0x6bd
ARM GAS  /tmp/ccLrOMZj.s 			page 127


 7165 12a8 E6010000 		.4byte	.LBB976
 7166 12ac EA010000 		.4byte	.LBE976
 7167 12b0 01       		.byte	0x1
 7168 12b1 AE       		.byte	0xae
 7169 12b2 BD120000 		.4byte	0x12bd
 7170 12b6 2B       		.uleb128 0x2b
 7171 12b7 CA060000 		.4byte	0x6ca
 7172 12bb 45       		.byte	0x45
 7173 12bc 00       		.byte	0
 7174 12bd 20       		.uleb128 0x20
 7175 12be D6060000 		.4byte	0x6d6
 7176 12c2 EC010000 		.4byte	.LBB978
 7177 12c6 EE010000 		.4byte	.LBE978
 7178 12ca 01       		.byte	0x1
 7179 12cb AE       		.byte	0xae
 7180 12cc D7120000 		.4byte	0x12d7
 7181 12d0 2B       		.uleb128 0x2b
 7182 12d1 E3060000 		.4byte	0x6e3
 7183 12d5 00       		.byte	0
 7184 12d6 00       		.byte	0
 7185 12d7 20       		.uleb128 0x20
 7186 12d8 BD060000 		.4byte	0x6bd
 7187 12dc F2010000 		.4byte	.LBB980
 7188 12e0 F6010000 		.4byte	.LBE980
 7189 12e4 01       		.byte	0x1
 7190 12e5 AF       		.byte	0xaf
 7191 12e6 F1120000 		.4byte	0x12f1
 7192 12ea 2B       		.uleb128 0x2b
 7193 12eb CA060000 		.4byte	0x6ca
 7194 12ef 46       		.byte	0x46
 7195 12f0 00       		.byte	0
 7196 12f1 20       		.uleb128 0x20
 7197 12f2 D6060000 		.4byte	0x6d6
 7198 12f6 F8010000 		.4byte	.LBB982
 7199 12fa FC010000 		.4byte	.LBE982
 7200 12fe 01       		.byte	0x1
 7201 12ff AF       		.byte	0xaf
 7202 1300 0C130000 		.4byte	0x130c
 7203 1304 2D       		.uleb128 0x2d
 7204 1305 E3060000 		.4byte	0x6e3
 7205 1309 3F01     		.2byte	0x13f
 7206 130b 00       		.byte	0
 7207 130c 1E       		.uleb128 0x1e
 7208 130d D6060000 		.4byte	0x6d6
 7209 1311 00020000 		.4byte	.LBB984
 7210 1315 50040000 		.4byte	.Ldebug_ranges0+0x450
 7211 1319 01       		.byte	0x1
 7212 131a B0       		.byte	0xb0
 7213 131b 27130000 		.4byte	0x1327
 7214 131f 2D       		.uleb128 0x2d
 7215 1320 E3060000 		.4byte	0x6e3
 7216 1324 0707     		.2byte	0x707
 7217 1326 00       		.byte	0
 7218 1327 20       		.uleb128 0x20
 7219 1328 BD060000 		.4byte	0x6bd
 7220 132c 04020000 		.4byte	.LBB987
 7221 1330 08020000 		.4byte	.LBE987
ARM GAS  /tmp/ccLrOMZj.s 			page 128


 7222 1334 01       		.byte	0x1
 7223 1335 B0       		.byte	0xb0
 7224 1336 41130000 		.4byte	0x1341
 7225 133a 2B       		.uleb128 0x2b
 7226 133b CA060000 		.4byte	0x6ca
 7227 133f 30       		.byte	0x30
 7228 1340 00       		.byte	0
 7229 1341 1E       		.uleb128 0x1e
 7230 1342 D6060000 		.4byte	0x6d6
 7231 1346 10020000 		.4byte	.LBB990
 7232 134a 68040000 		.4byte	.Ldebug_ranges0+0x468
 7233 134e 01       		.byte	0x1
 7234 134f B1       		.byte	0xb1
 7235 1350 5C130000 		.4byte	0x135c
 7236 1354 2D       		.uleb128 0x2d
 7237 1355 E3060000 		.4byte	0x6e3
 7238 1359 0402     		.2byte	0x204
 7239 135b 00       		.byte	0
 7240 135c 20       		.uleb128 0x20
 7241 135d BD060000 		.4byte	0x6bd
 7242 1361 14020000 		.4byte	.LBB993
 7243 1365 18020000 		.4byte	.LBE993
 7244 1369 01       		.byte	0x1
 7245 136a B1       		.byte	0xb1
 7246 136b 76130000 		.4byte	0x1376
 7247 136f 2B       		.uleb128 0x2b
 7248 1370 CA060000 		.4byte	0x6ca
 7249 1374 31       		.byte	0x31
 7250 1375 00       		.byte	0
 7251 1376 20       		.uleb128 0x20
 7252 1377 BD060000 		.4byte	0x6bd
 7253 137b 22020000 		.4byte	.LBB996
 7254 137f 26020000 		.4byte	.LBE996
 7255 1383 01       		.byte	0x1
 7256 1384 B2       		.byte	0xb2
 7257 1385 90130000 		.4byte	0x1390
 7258 1389 2B       		.uleb128 0x2b
 7259 138a CA060000 		.4byte	0x6ca
 7260 138e 32       		.byte	0x32
 7261 138f 00       		.byte	0
 7262 1390 20       		.uleb128 0x20
 7263 1391 D6060000 		.4byte	0x6d6
 7264 1395 28020000 		.4byte	.LBB998
 7265 1399 2C020000 		.4byte	.LBE998
 7266 139d 01       		.byte	0x1
 7267 139e B2       		.byte	0xb2
 7268 139f AB130000 		.4byte	0x13ab
 7269 13a3 2D       		.uleb128 0x2d
 7270 13a4 E3060000 		.4byte	0x6e3
 7271 13a8 0402     		.2byte	0x204
 7272 13aa 00       		.byte	0
 7273 13ab 1E       		.uleb128 0x1e
 7274 13ac D6060000 		.4byte	0x6d6
 7275 13b0 2C020000 		.4byte	.LBB1000
 7276 13b4 80040000 		.4byte	.Ldebug_ranges0+0x480
 7277 13b8 01       		.byte	0x1
 7278 13b9 B3       		.byte	0xb3
ARM GAS  /tmp/ccLrOMZj.s 			page 129


 7279 13ba C6130000 		.4byte	0x13c6
 7280 13be 2D       		.uleb128 0x2d
 7281 13bf E3060000 		.4byte	0x6e3
 7282 13c3 0205     		.2byte	0x502
 7283 13c5 00       		.byte	0
 7284 13c6 20       		.uleb128 0x20
 7285 13c7 BD060000 		.4byte	0x6bd
 7286 13cb 36020000 		.4byte	.LBB1003
 7287 13cf 3A020000 		.4byte	.LBE1003
 7288 13d3 01       		.byte	0x1
 7289 13d4 B3       		.byte	0xb3
 7290 13d5 E0130000 		.4byte	0x13e0
 7291 13d9 2B       		.uleb128 0x2b
 7292 13da CA060000 		.4byte	0x6ca
 7293 13de 33       		.byte	0x33
 7294 13df 00       		.byte	0
 7295 13e0 1E       		.uleb128 0x1e
 7296 13e1 BD060000 		.4byte	0x6bd
 7297 13e5 44020000 		.4byte	.LBB1006
 7298 13e9 98040000 		.4byte	.Ldebug_ranges0+0x498
 7299 13ed 01       		.byte	0x1
 7300 13ee B4       		.byte	0xb4
 7301 13ef FA130000 		.4byte	0x13fa
 7302 13f3 2B       		.uleb128 0x2b
 7303 13f4 CA060000 		.4byte	0x6ca
 7304 13f8 34       		.byte	0x34
 7305 13f9 00       		.byte	0
 7306 13fa 1E       		.uleb128 0x1e
 7307 13fb D6060000 		.4byte	0x6d6
 7308 13ff 46020000 		.4byte	.LBB1009
 7309 1403 B0040000 		.4byte	.Ldebug_ranges0+0x4b0
 7310 1407 01       		.byte	0x1
 7311 1408 B4       		.byte	0xb4
 7312 1409 15140000 		.4byte	0x1415
 7313 140d 2D       		.uleb128 0x2d
 7314 140e E3060000 		.4byte	0x6e3
 7315 1412 0705     		.2byte	0x507
 7316 1414 00       		.byte	0
 7317 1415 20       		.uleb128 0x20
 7318 1416 BD060000 		.4byte	0x6bd
 7319 141a 54020000 		.4byte	.LBB1014
 7320 141e 58020000 		.4byte	.LBE1014
 7321 1422 01       		.byte	0x1
 7322 1423 B5       		.byte	0xb5
 7323 1424 2F140000 		.4byte	0x142f
 7324 1428 2B       		.uleb128 0x2b
 7325 1429 CA060000 		.4byte	0x6ca
 7326 142d 35       		.byte	0x35
 7327 142e 00       		.byte	0
 7328 142f 20       		.uleb128 0x20
 7329 1430 D6060000 		.4byte	0x6d6
 7330 1434 5A020000 		.4byte	.LBB1016
 7331 1438 5E020000 		.4byte	.LBE1016
 7332 143c 01       		.byte	0x1
 7333 143d B5       		.byte	0xb5
 7334 143e 4A140000 		.4byte	0x144a
 7335 1442 2D       		.uleb128 0x2d
ARM GAS  /tmp/ccLrOMZj.s 			page 130


 7336 1443 E3060000 		.4byte	0x6e3
 7337 1447 0402     		.2byte	0x204
 7338 1449 00       		.byte	0
 7339 144a 20       		.uleb128 0x20
 7340 144b BD060000 		.4byte	0x6bd
 7341 144f 62020000 		.4byte	.LBB1018
 7342 1453 66020000 		.4byte	.LBE1018
 7343 1457 01       		.byte	0x1
 7344 1458 B6       		.byte	0xb6
 7345 1459 64140000 		.4byte	0x1464
 7346 145d 2B       		.uleb128 0x2b
 7347 145e CA060000 		.4byte	0x6ca
 7348 1462 36       		.byte	0x36
 7349 1463 00       		.byte	0
 7350 1464 20       		.uleb128 0x20
 7351 1465 D6060000 		.4byte	0x6d6
 7352 1469 68020000 		.4byte	.LBB1020
 7353 146d 6C020000 		.4byte	.LBE1020
 7354 1471 01       		.byte	0x1
 7355 1472 B6       		.byte	0xb6
 7356 1473 7F140000 		.4byte	0x147f
 7357 1477 2D       		.uleb128 0x2d
 7358 1478 E3060000 		.4byte	0x6e3
 7359 147c 0402     		.2byte	0x204
 7360 147e 00       		.byte	0
 7361 147f 20       		.uleb128 0x20
 7362 1480 BD060000 		.4byte	0x6bd
 7363 1484 70020000 		.4byte	.LBB1022
 7364 1488 74020000 		.4byte	.LBE1022
 7365 148c 01       		.byte	0x1
 7366 148d B7       		.byte	0xb7
 7367 148e 99140000 		.4byte	0x1499
 7368 1492 2B       		.uleb128 0x2b
 7369 1493 CA060000 		.4byte	0x6ca
 7370 1497 37       		.byte	0x37
 7371 1498 00       		.byte	0
 7372 1499 20       		.uleb128 0x20
 7373 149a D6060000 		.4byte	0x6d6
 7374 149e 76020000 		.4byte	.LBB1024
 7375 14a2 7A020000 		.4byte	.LBE1024
 7376 14a6 01       		.byte	0x1
 7377 14a7 B7       		.byte	0xb7
 7378 14a8 B4140000 		.4byte	0x14b4
 7379 14ac 2D       		.uleb128 0x2d
 7380 14ad E3060000 		.4byte	0x6e3
 7381 14b1 0205     		.2byte	0x502
 7382 14b3 00       		.byte	0
 7383 14b4 1E       		.uleb128 0x1e
 7384 14b5 D6060000 		.4byte	0x6d6
 7385 14b9 7E020000 		.4byte	.LBB1026
 7386 14bd C8040000 		.4byte	.Ldebug_ranges0+0x4c8
 7387 14c1 01       		.byte	0x1
 7388 14c2 B8       		.byte	0xb8
 7389 14c3 CF140000 		.4byte	0x14cf
 7390 14c7 2D       		.uleb128 0x2d
 7391 14c8 E3060000 		.4byte	0x6e3
 7392 14cc 0203     		.2byte	0x302
ARM GAS  /tmp/ccLrOMZj.s 			page 131


 7393 14ce 00       		.byte	0
 7394 14cf 20       		.uleb128 0x20
 7395 14d0 BD060000 		.4byte	0x6bd
 7396 14d4 82020000 		.4byte	.LBB1029
 7397 14d8 86020000 		.4byte	.LBE1029
 7398 14dc 01       		.byte	0x1
 7399 14dd B8       		.byte	0xb8
 7400 14de E9140000 		.4byte	0x14e9
 7401 14e2 2B       		.uleb128 0x2b
 7402 14e3 CA060000 		.4byte	0x6ca
 7403 14e7 3A       		.byte	0x3a
 7404 14e8 00       		.byte	0
 7405 14e9 20       		.uleb128 0x20
 7406 14ea BD060000 		.4byte	0x6bd
 7407 14ee 90020000 		.4byte	.LBB1032
 7408 14f2 94020000 		.4byte	.LBE1032
 7409 14f6 01       		.byte	0x1
 7410 14f7 B9       		.byte	0xb9
 7411 14f8 03150000 		.4byte	0x1503
 7412 14fc 2B       		.uleb128 0x2b
 7413 14fd CA060000 		.4byte	0x6ca
 7414 1501 3B       		.byte	0x3b
 7415 1502 00       		.byte	0
 7416 1503 20       		.uleb128 0x20
 7417 1504 D6060000 		.4byte	0x6d6
 7418 1508 96020000 		.4byte	.LBB1034
 7419 150c 9A020000 		.4byte	.LBE1034
 7420 1510 01       		.byte	0x1
 7421 1511 B9       		.byte	0xb9
 7422 1512 1E150000 		.4byte	0x151e
 7423 1516 2D       		.uleb128 0x2d
 7424 1517 E3060000 		.4byte	0x6e3
 7425 151b 0203     		.2byte	0x302
 7426 151d 00       		.byte	0
 7427 151e 20       		.uleb128 0x20
 7428 151f BD060000 		.4byte	0x6bd
 7429 1523 9E020000 		.4byte	.LBB1036
 7430 1527 A2020000 		.4byte	.LBE1036
 7431 152b 01       		.byte	0x1
 7432 152c BA       		.byte	0xba
 7433 152d 38150000 		.4byte	0x1538
 7434 1531 2B       		.uleb128 0x2b
 7435 1532 CA060000 		.4byte	0x6ca
 7436 1536 23       		.byte	0x23
 7437 1537 00       		.byte	0
 7438 1538 20       		.uleb128 0x20
 7439 1539 D6060000 		.4byte	0x6d6
 7440 153d A4020000 		.4byte	.LBB1038
 7441 1541 A6020000 		.4byte	.LBE1038
 7442 1545 01       		.byte	0x1
 7443 1546 BA       		.byte	0xba
 7444 1547 52150000 		.4byte	0x1552
 7445 154b 2B       		.uleb128 0x2b
 7446 154c E3060000 		.4byte	0x6e3
 7447 1550 00       		.byte	0
 7448 1551 00       		.byte	0
 7449 1552 20       		.uleb128 0x20
ARM GAS  /tmp/ccLrOMZj.s 			page 132


 7450 1553 BD060000 		.4byte	0x6bd
 7451 1557 AA020000 		.4byte	.LBB1040
 7452 155b AE020000 		.4byte	.LBE1040
 7453 155f 01       		.byte	0x1
 7454 1560 BB       		.byte	0xbb
 7455 1561 6C150000 		.4byte	0x156c
 7456 1565 2B       		.uleb128 0x2b
 7457 1566 CA060000 		.4byte	0x6ca
 7458 156a 24       		.byte	0x24
 7459 156b 00       		.byte	0
 7460 156c 20       		.uleb128 0x20
 7461 156d D6060000 		.4byte	0x6d6
 7462 1571 B0020000 		.4byte	.LBB1042
 7463 1575 B2020000 		.4byte	.LBE1042
 7464 1579 01       		.byte	0x1
 7465 157a BB       		.byte	0xbb
 7466 157b 86150000 		.4byte	0x1586
 7467 157f 2B       		.uleb128 0x2b
 7468 1580 E3060000 		.4byte	0x6e3
 7469 1584 00       		.byte	0
 7470 1585 00       		.byte	0
 7471 1586 1E       		.uleb128 0x1e
 7472 1587 BD060000 		.4byte	0x6bd
 7473 158b B6020000 		.4byte	.LBB1044
 7474 158f E0040000 		.4byte	.Ldebug_ranges0+0x4e0
 7475 1593 01       		.byte	0x1
 7476 1594 BC       		.byte	0xbc
 7477 1595 A0150000 		.4byte	0x15a0
 7478 1599 2B       		.uleb128 0x2b
 7479 159a CA060000 		.4byte	0x6ca
 7480 159e 25       		.byte	0x25
 7481 159f 00       		.byte	0
 7482 15a0 1E       		.uleb128 0x1e
 7483 15a1 D6060000 		.4byte	0x6d6
 7484 15a5 B8020000 		.4byte	.LBB1047
 7485 15a9 F8040000 		.4byte	.Ldebug_ranges0+0x4f8
 7486 15ad 01       		.byte	0x1
 7487 15ae BC       		.byte	0xbc
 7488 15af BC150000 		.4byte	0x15bc
 7489 15b3 2C       		.uleb128 0x2c
 7490 15b4 E3060000 		.4byte	0x6e3
 7491 15b8 80807E   		.sleb128 -32768
 7492 15bb 00       		.byte	0
 7493 15bc 20       		.uleb128 0x20
 7494 15bd BD060000 		.4byte	0x6bd
 7495 15c1 C6020000 		.4byte	.LBB1052
 7496 15c5 CA020000 		.4byte	.LBE1052
 7497 15c9 01       		.byte	0x1
 7498 15ca BD       		.byte	0xbd
 7499 15cb D6150000 		.4byte	0x15d6
 7500 15cf 2B       		.uleb128 0x2b
 7501 15d0 CA060000 		.4byte	0x6ca
 7502 15d4 4F       		.byte	0x4f
 7503 15d5 00       		.byte	0
 7504 15d6 20       		.uleb128 0x20
 7505 15d7 D6060000 		.4byte	0x6d6
 7506 15db CC020000 		.4byte	.LBB1054
ARM GAS  /tmp/ccLrOMZj.s 			page 133


 7507 15df CE020000 		.4byte	.LBE1054
 7508 15e3 01       		.byte	0x1
 7509 15e4 BD       		.byte	0xbd
 7510 15e5 F0150000 		.4byte	0x15f0
 7511 15e9 2B       		.uleb128 0x2b
 7512 15ea E3060000 		.4byte	0x6e3
 7513 15ee 00       		.byte	0
 7514 15ef 00       		.byte	0
 7515 15f0 20       		.uleb128 0x20
 7516 15f1 BD060000 		.4byte	0x6bd
 7517 15f5 D2020000 		.4byte	.LBB1056
 7518 15f9 D6020000 		.4byte	.LBE1056
 7519 15fd 01       		.byte	0x1
 7520 15fe BE       		.byte	0xbe
 7521 15ff 0A160000 		.4byte	0x160a
 7522 1603 2B       		.uleb128 0x2b
 7523 1604 CA060000 		.4byte	0x6ca
 7524 1608 4E       		.byte	0x4e
 7525 1609 00       		.byte	0
 7526 160a 20       		.uleb128 0x20
 7527 160b D6060000 		.4byte	0x6d6
 7528 160f D8020000 		.4byte	.LBB1058
 7529 1613 DA020000 		.4byte	.LBE1058
 7530 1617 01       		.byte	0x1
 7531 1618 BE       		.byte	0xbe
 7532 1619 24160000 		.4byte	0x1624
 7533 161d 2B       		.uleb128 0x2b
 7534 161e E3060000 		.4byte	0x6e3
 7535 1622 00       		.byte	0
 7536 1623 00       		.byte	0
 7537 1624 28       		.uleb128 0x28
 7538 1625 86000000 		.4byte	.LVL92
 7539 1629 1C2B0000 		.4byte	0x2b1c
 7540 162d 37160000 		.4byte	0x1637
 7541 1631 29       		.uleb128 0x29
 7542 1632 01       		.byte	0x1
 7543 1633 50       		.byte	0x50
 7544 1634 01       		.byte	0x1
 7545 1635 44       		.byte	0x44
 7546 1636 00       		.byte	0
 7547 1637 28       		.uleb128 0x28
 7548 1638 94000000 		.4byte	.LVL93
 7549 163c 1C2B0000 		.4byte	0x2b1c
 7550 1640 4A160000 		.4byte	0x164a
 7551 1644 29       		.uleb128 0x29
 7552 1645 01       		.byte	0x1
 7553 1646 50       		.byte	0x50
 7554 1647 01       		.byte	0x1
 7555 1648 44       		.byte	0x44
 7556 1649 00       		.byte	0
 7557 164a 28       		.uleb128 0x28
 7558 164b A0000000 		.4byte	.LVL95
 7559 164f 302B0000 		.4byte	0x2b30
 7560 1653 5D160000 		.4byte	0x165d
 7561 1657 29       		.uleb128 0x29
 7562 1658 01       		.byte	0x1
 7563 1659 50       		.byte	0x50
ARM GAS  /tmp/ccLrOMZj.s 			page 134


 7564 165a 01       		.byte	0x1
 7565 165b 35       		.byte	0x35
 7566 165c 00       		.byte	0
 7567 165d 28       		.uleb128 0x28
 7568 165e B4000000 		.4byte	.LVL97
 7569 1662 302B0000 		.4byte	0x2b30
 7570 1666 70160000 		.4byte	0x1670
 7571 166a 29       		.uleb128 0x29
 7572 166b 01       		.byte	0x1
 7573 166c 50       		.byte	0x50
 7574 166d 01       		.byte	0x1
 7575 166e 35       		.byte	0x35
 7576 166f 00       		.byte	0
 7577 1670 28       		.uleb128 0x28
 7578 1671 C0000000 		.4byte	.LVL99
 7579 1675 302B0000 		.4byte	0x2b30
 7580 1679 83160000 		.4byte	0x1683
 7581 167d 29       		.uleb128 0x29
 7582 167e 01       		.byte	0x1
 7583 167f 50       		.byte	0x50
 7584 1680 01       		.byte	0x1
 7585 1681 35       		.byte	0x35
 7586 1682 00       		.byte	0
 7587 1683 28       		.uleb128 0x28
 7588 1684 D0000000 		.4byte	.LVL101
 7589 1688 302B0000 		.4byte	0x2b30
 7590 168c 96160000 		.4byte	0x1696
 7591 1690 29       		.uleb128 0x29
 7592 1691 01       		.byte	0x1
 7593 1692 50       		.byte	0x50
 7594 1693 01       		.byte	0x1
 7595 1694 35       		.byte	0x35
 7596 1695 00       		.byte	0
 7597 1696 28       		.uleb128 0x28
 7598 1697 E0000000 		.4byte	.LVL103
 7599 169b 302B0000 		.4byte	0x2b30
 7600 169f A9160000 		.4byte	0x16a9
 7601 16a3 29       		.uleb128 0x29
 7602 16a4 01       		.byte	0x1
 7603 16a5 50       		.byte	0x50
 7604 16a6 01       		.byte	0x1
 7605 16a7 35       		.byte	0x35
 7606 16a8 00       		.byte	0
 7607 16a9 28       		.uleb128 0x28
 7608 16aa F2000000 		.4byte	.LVL105
 7609 16ae 302B0000 		.4byte	0x2b30
 7610 16b2 BC160000 		.4byte	0x16bc
 7611 16b6 29       		.uleb128 0x29
 7612 16b7 01       		.byte	0x1
 7613 16b8 50       		.byte	0x50
 7614 16b9 01       		.byte	0x1
 7615 16ba 35       		.byte	0x35
 7616 16bb 00       		.byte	0
 7617 16bc 28       		.uleb128 0x28
 7618 16bd FE000000 		.4byte	.LVL107
 7619 16c1 302B0000 		.4byte	0x2b30
 7620 16c5 CF160000 		.4byte	0x16cf
ARM GAS  /tmp/ccLrOMZj.s 			page 135


 7621 16c9 29       		.uleb128 0x29
 7622 16ca 01       		.byte	0x1
 7623 16cb 50       		.byte	0x50
 7624 16cc 01       		.byte	0x1
 7625 16cd 35       		.byte	0x35
 7626 16ce 00       		.byte	0
 7627 16cf 28       		.uleb128 0x28
 7628 16d0 0E010000 		.4byte	.LVL109
 7629 16d4 302B0000 		.4byte	0x2b30
 7630 16d8 E2160000 		.4byte	0x16e2
 7631 16dc 29       		.uleb128 0x29
 7632 16dd 01       		.byte	0x1
 7633 16de 50       		.byte	0x50
 7634 16df 01       		.byte	0x1
 7635 16e0 35       		.byte	0x35
 7636 16e1 00       		.byte	0
 7637 16e2 28       		.uleb128 0x28
 7638 16e3 1C010000 		.4byte	.LVL111
 7639 16e7 302B0000 		.4byte	0x2b30
 7640 16eb F6160000 		.4byte	0x16f6
 7641 16ef 29       		.uleb128 0x29
 7642 16f0 01       		.byte	0x1
 7643 16f1 50       		.byte	0x50
 7644 16f2 02       		.byte	0x2
 7645 16f3 76       		.byte	0x76
 7646 16f4 00       		.sleb128 0
 7647 16f5 00       		.byte	0
 7648 16f6 28       		.uleb128 0x28
 7649 16f7 2C010000 		.4byte	.LVL113
 7650 16fb 302B0000 		.4byte	0x2b30
 7651 16ff 0A170000 		.4byte	0x170a
 7652 1703 29       		.uleb128 0x29
 7653 1704 01       		.byte	0x1
 7654 1705 50       		.byte	0x50
 7655 1706 02       		.byte	0x2
 7656 1707 76       		.byte	0x76
 7657 1708 00       		.sleb128 0
 7658 1709 00       		.byte	0
 7659 170a 28       		.uleb128 0x28
 7660 170b 36010000 		.4byte	.LVL115
 7661 170f 302B0000 		.4byte	0x2b30
 7662 1713 1E170000 		.4byte	0x171e
 7663 1717 29       		.uleb128 0x29
 7664 1718 01       		.byte	0x1
 7665 1719 50       		.byte	0x50
 7666 171a 02       		.byte	0x2
 7667 171b 76       		.byte	0x76
 7668 171c 00       		.sleb128 0
 7669 171d 00       		.byte	0
 7670 171e 28       		.uleb128 0x28
 7671 171f 42010000 		.4byte	.LVL117
 7672 1723 302B0000 		.4byte	0x2b30
 7673 1727 32170000 		.4byte	0x1732
 7674 172b 29       		.uleb128 0x29
 7675 172c 01       		.byte	0x1
 7676 172d 50       		.byte	0x50
 7677 172e 02       		.byte	0x2
ARM GAS  /tmp/ccLrOMZj.s 			page 136


 7678 172f 76       		.byte	0x76
 7679 1730 00       		.sleb128 0
 7680 1731 00       		.byte	0
 7681 1732 28       		.uleb128 0x28
 7682 1733 52010000 		.4byte	.LVL119
 7683 1737 302B0000 		.4byte	0x2b30
 7684 173b 46170000 		.4byte	0x1746
 7685 173f 29       		.uleb128 0x29
 7686 1740 01       		.byte	0x1
 7687 1741 50       		.byte	0x50
 7688 1742 02       		.byte	0x2
 7689 1743 76       		.byte	0x76
 7690 1744 00       		.sleb128 0
 7691 1745 00       		.byte	0
 7692 1746 28       		.uleb128 0x28
 7693 1747 60010000 		.4byte	.LVL121
 7694 174b 302B0000 		.4byte	0x2b30
 7695 174f 5A170000 		.4byte	0x175a
 7696 1753 29       		.uleb128 0x29
 7697 1754 01       		.byte	0x1
 7698 1755 50       		.byte	0x50
 7699 1756 02       		.byte	0x2
 7700 1757 76       		.byte	0x76
 7701 1758 00       		.sleb128 0
 7702 1759 00       		.byte	0
 7703 175a 28       		.uleb128 0x28
 7704 175b 70010000 		.4byte	.LVL123
 7705 175f 302B0000 		.4byte	0x2b30
 7706 1763 6E170000 		.4byte	0x176e
 7707 1767 29       		.uleb128 0x29
 7708 1768 01       		.byte	0x1
 7709 1769 50       		.byte	0x50
 7710 176a 02       		.byte	0x2
 7711 176b 76       		.byte	0x76
 7712 176c 00       		.sleb128 0
 7713 176d 00       		.byte	0
 7714 176e 28       		.uleb128 0x28
 7715 176f 7C010000 		.4byte	.LVL125
 7716 1773 302B0000 		.4byte	0x2b30
 7717 1777 82170000 		.4byte	0x1782
 7718 177b 29       		.uleb128 0x29
 7719 177c 01       		.byte	0x1
 7720 177d 50       		.byte	0x50
 7721 177e 02       		.byte	0x2
 7722 177f 76       		.byte	0x76
 7723 1780 00       		.sleb128 0
 7724 1781 00       		.byte	0
 7725 1782 28       		.uleb128 0x28
 7726 1783 88010000 		.4byte	.LVL127
 7727 1787 302B0000 		.4byte	0x2b30
 7728 178b 96170000 		.4byte	0x1796
 7729 178f 29       		.uleb128 0x29
 7730 1790 01       		.byte	0x1
 7731 1791 50       		.byte	0x50
 7732 1792 02       		.byte	0x2
 7733 1793 76       		.byte	0x76
 7734 1794 00       		.sleb128 0
ARM GAS  /tmp/ccLrOMZj.s 			page 137


 7735 1795 00       		.byte	0
 7736 1796 28       		.uleb128 0x28
 7737 1797 94010000 		.4byte	.LVL129
 7738 179b 302B0000 		.4byte	0x2b30
 7739 179f AA170000 		.4byte	0x17aa
 7740 17a3 29       		.uleb128 0x29
 7741 17a4 01       		.byte	0x1
 7742 17a5 50       		.byte	0x50
 7743 17a6 02       		.byte	0x2
 7744 17a7 76       		.byte	0x76
 7745 17a8 00       		.sleb128 0
 7746 17a9 00       		.byte	0
 7747 17aa 28       		.uleb128 0x28
 7748 17ab A0010000 		.4byte	.LVL131
 7749 17af 302B0000 		.4byte	0x2b30
 7750 17b3 BE170000 		.4byte	0x17be
 7751 17b7 29       		.uleb128 0x29
 7752 17b8 01       		.byte	0x1
 7753 17b9 50       		.byte	0x50
 7754 17ba 02       		.byte	0x2
 7755 17bb 76       		.byte	0x76
 7756 17bc 00       		.sleb128 0
 7757 17bd 00       		.byte	0
 7758 17be 28       		.uleb128 0x28
 7759 17bf AC010000 		.4byte	.LVL133
 7760 17c3 302B0000 		.4byte	0x2b30
 7761 17c7 D2170000 		.4byte	0x17d2
 7762 17cb 29       		.uleb128 0x29
 7763 17cc 01       		.byte	0x1
 7764 17cd 50       		.byte	0x50
 7765 17ce 02       		.byte	0x2
 7766 17cf 76       		.byte	0x76
 7767 17d0 00       		.sleb128 0
 7768 17d1 00       		.byte	0
 7769 17d2 28       		.uleb128 0x28
 7770 17d3 BE010000 		.4byte	.LVL135
 7771 17d7 302B0000 		.4byte	0x2b30
 7772 17db E6170000 		.4byte	0x17e6
 7773 17df 29       		.uleb128 0x29
 7774 17e0 01       		.byte	0x1
 7775 17e1 50       		.byte	0x50
 7776 17e2 02       		.byte	0x2
 7777 17e3 76       		.byte	0x76
 7778 17e4 00       		.sleb128 0
 7779 17e5 00       		.byte	0
 7780 17e6 28       		.uleb128 0x28
 7781 17e7 CA010000 		.4byte	.LVL137
 7782 17eb 302B0000 		.4byte	0x2b30
 7783 17ef FA170000 		.4byte	0x17fa
 7784 17f3 29       		.uleb128 0x29
 7785 17f4 01       		.byte	0x1
 7786 17f5 50       		.byte	0x50
 7787 17f6 02       		.byte	0x2
 7788 17f7 76       		.byte	0x76
 7789 17f8 00       		.sleb128 0
 7790 17f9 00       		.byte	0
 7791 17fa 28       		.uleb128 0x28
ARM GAS  /tmp/ccLrOMZj.s 			page 138


 7792 17fb D6010000 		.4byte	.LVL139
 7793 17ff 302B0000 		.4byte	0x2b30
 7794 1803 0E180000 		.4byte	0x180e
 7795 1807 29       		.uleb128 0x29
 7796 1808 01       		.byte	0x1
 7797 1809 50       		.byte	0x50
 7798 180a 02       		.byte	0x2
 7799 180b 76       		.byte	0x76
 7800 180c 00       		.sleb128 0
 7801 180d 00       		.byte	0
 7802 180e 28       		.uleb128 0x28
 7803 180f E6010000 		.4byte	.LVL141
 7804 1813 302B0000 		.4byte	0x2b30
 7805 1817 22180000 		.4byte	0x1822
 7806 181b 29       		.uleb128 0x29
 7807 181c 01       		.byte	0x1
 7808 181d 50       		.byte	0x50
 7809 181e 02       		.byte	0x2
 7810 181f 76       		.byte	0x76
 7811 1820 00       		.sleb128 0
 7812 1821 00       		.byte	0
 7813 1822 28       		.uleb128 0x28
 7814 1823 F2010000 		.4byte	.LVL143
 7815 1827 302B0000 		.4byte	0x2b30
 7816 182b 36180000 		.4byte	0x1836
 7817 182f 29       		.uleb128 0x29
 7818 1830 01       		.byte	0x1
 7819 1831 50       		.byte	0x50
 7820 1832 02       		.byte	0x2
 7821 1833 76       		.byte	0x76
 7822 1834 00       		.sleb128 0
 7823 1835 00       		.byte	0
 7824 1836 28       		.uleb128 0x28
 7825 1837 00020000 		.4byte	.LVL145
 7826 183b 302B0000 		.4byte	0x2b30
 7827 183f 4A180000 		.4byte	0x184a
 7828 1843 29       		.uleb128 0x29
 7829 1844 01       		.byte	0x1
 7830 1845 50       		.byte	0x50
 7831 1846 02       		.byte	0x2
 7832 1847 76       		.byte	0x76
 7833 1848 00       		.sleb128 0
 7834 1849 00       		.byte	0
 7835 184a 28       		.uleb128 0x28
 7836 184b 10020000 		.4byte	.LVL147
 7837 184f 302B0000 		.4byte	0x2b30
 7838 1853 5E180000 		.4byte	0x185e
 7839 1857 29       		.uleb128 0x29
 7840 1858 01       		.byte	0x1
 7841 1859 50       		.byte	0x50
 7842 185a 02       		.byte	0x2
 7843 185b 76       		.byte	0x76
 7844 185c 00       		.sleb128 0
 7845 185d 00       		.byte	0
 7846 185e 28       		.uleb128 0x28
 7847 185f 22020000 		.4byte	.LVL149
 7848 1863 302B0000 		.4byte	0x2b30
ARM GAS  /tmp/ccLrOMZj.s 			page 139


 7849 1867 72180000 		.4byte	0x1872
 7850 186b 29       		.uleb128 0x29
 7851 186c 01       		.byte	0x1
 7852 186d 50       		.byte	0x50
 7853 186e 02       		.byte	0x2
 7854 186f 76       		.byte	0x76
 7855 1870 00       		.sleb128 0
 7856 1871 00       		.byte	0
 7857 1872 28       		.uleb128 0x28
 7858 1873 36020000 		.4byte	.LVL151
 7859 1877 302B0000 		.4byte	0x2b30
 7860 187b 86180000 		.4byte	0x1886
 7861 187f 29       		.uleb128 0x29
 7862 1880 01       		.byte	0x1
 7863 1881 50       		.byte	0x50
 7864 1882 02       		.byte	0x2
 7865 1883 76       		.byte	0x76
 7866 1884 00       		.sleb128 0
 7867 1885 00       		.byte	0
 7868 1886 28       		.uleb128 0x28
 7869 1887 44020000 		.4byte	.LVL153
 7870 188b 302B0000 		.4byte	0x2b30
 7871 188f 9A180000 		.4byte	0x189a
 7872 1893 29       		.uleb128 0x29
 7873 1894 01       		.byte	0x1
 7874 1895 50       		.byte	0x50
 7875 1896 02       		.byte	0x2
 7876 1897 76       		.byte	0x76
 7877 1898 00       		.sleb128 0
 7878 1899 00       		.byte	0
 7879 189a 28       		.uleb128 0x28
 7880 189b 54020000 		.4byte	.LVL155
 7881 189f 302B0000 		.4byte	0x2b30
 7882 18a3 AE180000 		.4byte	0x18ae
 7883 18a7 29       		.uleb128 0x29
 7884 18a8 01       		.byte	0x1
 7885 18a9 50       		.byte	0x50
 7886 18aa 02       		.byte	0x2
 7887 18ab 76       		.byte	0x76
 7888 18ac 00       		.sleb128 0
 7889 18ad 00       		.byte	0
 7890 18ae 28       		.uleb128 0x28
 7891 18af 62020000 		.4byte	.LVL157
 7892 18b3 302B0000 		.4byte	0x2b30
 7893 18b7 C2180000 		.4byte	0x18c2
 7894 18bb 29       		.uleb128 0x29
 7895 18bc 01       		.byte	0x1
 7896 18bd 50       		.byte	0x50
 7897 18be 02       		.byte	0x2
 7898 18bf 76       		.byte	0x76
 7899 18c0 00       		.sleb128 0
 7900 18c1 00       		.byte	0
 7901 18c2 28       		.uleb128 0x28
 7902 18c3 70020000 		.4byte	.LVL159
 7903 18c7 302B0000 		.4byte	0x2b30
 7904 18cb D6180000 		.4byte	0x18d6
 7905 18cf 29       		.uleb128 0x29
ARM GAS  /tmp/ccLrOMZj.s 			page 140


 7906 18d0 01       		.byte	0x1
 7907 18d1 50       		.byte	0x50
 7908 18d2 02       		.byte	0x2
 7909 18d3 76       		.byte	0x76
 7910 18d4 00       		.sleb128 0
 7911 18d5 00       		.byte	0
 7912 18d6 28       		.uleb128 0x28
 7913 18d7 7E020000 		.4byte	.LVL161
 7914 18db 302B0000 		.4byte	0x2b30
 7915 18df EA180000 		.4byte	0x18ea
 7916 18e3 29       		.uleb128 0x29
 7917 18e4 01       		.byte	0x1
 7918 18e5 50       		.byte	0x50
 7919 18e6 02       		.byte	0x2
 7920 18e7 76       		.byte	0x76
 7921 18e8 00       		.sleb128 0
 7922 18e9 00       		.byte	0
 7923 18ea 28       		.uleb128 0x28
 7924 18eb 90020000 		.4byte	.LVL163
 7925 18ef 302B0000 		.4byte	0x2b30
 7926 18f3 FE180000 		.4byte	0x18fe
 7927 18f7 29       		.uleb128 0x29
 7928 18f8 01       		.byte	0x1
 7929 18f9 50       		.byte	0x50
 7930 18fa 02       		.byte	0x2
 7931 18fb 76       		.byte	0x76
 7932 18fc 00       		.sleb128 0
 7933 18fd 00       		.byte	0
 7934 18fe 28       		.uleb128 0x28
 7935 18ff 9E020000 		.4byte	.LVL165
 7936 1903 302B0000 		.4byte	0x2b30
 7937 1907 12190000 		.4byte	0x1912
 7938 190b 29       		.uleb128 0x29
 7939 190c 01       		.byte	0x1
 7940 190d 50       		.byte	0x50
 7941 190e 02       		.byte	0x2
 7942 190f 76       		.byte	0x76
 7943 1910 00       		.sleb128 0
 7944 1911 00       		.byte	0
 7945 1912 28       		.uleb128 0x28
 7946 1913 AA020000 		.4byte	.LVL167
 7947 1917 302B0000 		.4byte	0x2b30
 7948 191b 26190000 		.4byte	0x1926
 7949 191f 29       		.uleb128 0x29
 7950 1920 01       		.byte	0x1
 7951 1921 50       		.byte	0x50
 7952 1922 02       		.byte	0x2
 7953 1923 76       		.byte	0x76
 7954 1924 00       		.sleb128 0
 7955 1925 00       		.byte	0
 7956 1926 28       		.uleb128 0x28
 7957 1927 B6020000 		.4byte	.LVL169
 7958 192b 302B0000 		.4byte	0x2b30
 7959 192f 3A190000 		.4byte	0x193a
 7960 1933 29       		.uleb128 0x29
 7961 1934 01       		.byte	0x1
 7962 1935 50       		.byte	0x50
ARM GAS  /tmp/ccLrOMZj.s 			page 141


 7963 1936 02       		.byte	0x2
 7964 1937 76       		.byte	0x76
 7965 1938 00       		.sleb128 0
 7966 1939 00       		.byte	0
 7967 193a 28       		.uleb128 0x28
 7968 193b C6020000 		.4byte	.LVL171
 7969 193f 302B0000 		.4byte	0x2b30
 7970 1943 4E190000 		.4byte	0x194e
 7971 1947 29       		.uleb128 0x29
 7972 1948 01       		.byte	0x1
 7973 1949 50       		.byte	0x50
 7974 194a 02       		.byte	0x2
 7975 194b 76       		.byte	0x76
 7976 194c 00       		.sleb128 0
 7977 194d 00       		.byte	0
 7978 194e 28       		.uleb128 0x28
 7979 194f D2020000 		.4byte	.LVL173
 7980 1953 302B0000 		.4byte	0x2b30
 7981 1957 62190000 		.4byte	0x1962
 7982 195b 29       		.uleb128 0x29
 7983 195c 01       		.byte	0x1
 7984 195d 50       		.byte	0x50
 7985 195e 02       		.byte	0x2
 7986 195f 76       		.byte	0x76
 7987 1960 00       		.sleb128 0
 7988 1961 00       		.byte	0
 7989 1962 2A       		.uleb128 0x2a
 7990 1963 DE020000 		.4byte	.LVL175
 7991 1967 302B0000 		.4byte	0x2b30
 7992 196b 29       		.uleb128 0x29
 7993 196c 01       		.byte	0x1
 7994 196d 50       		.byte	0x50
 7995 196e 02       		.byte	0x2
 7996 196f 76       		.byte	0x76
 7997 1970 00       		.sleb128 0
 7998 1971 00       		.byte	0
 7999 1972 00       		.byte	0
 8000 1973 2E       		.uleb128 0x2e
 8001 1974 3A070000 		.4byte	0x73a
 8002 1978 00000000 		.4byte	.LFB136
 8003 197c B4000000 		.4byte	.LFE136
 8004 1980 3D070000 		.4byte	.LLST53
 8005 1984 01       		.byte	0x1
 8006 1985 991B0000 		.4byte	0x1b99
 8007 1989 1F       		.uleb128 0x1f
 8008 198a 48070000 		.4byte	0x748
 8009 198e 5D070000 		.4byte	.LLST54
 8010 1992 1F       		.uleb128 0x1f
 8011 1993 51070000 		.4byte	0x751
 8012 1997 D4070000 		.4byte	.LLST55
 8013 199b 2F       		.uleb128 0x2f
 8014 199c 5A070000 		.4byte	0x75a
 8015 19a0 01       		.byte	0x1
 8016 19a1 52       		.byte	0x52
 8017 19a2 30       		.uleb128 0x30
 8018 19a3 3A070000 		.4byte	0x73a
 8019 19a7 1C000000 		.4byte	.LBB1126
ARM GAS  /tmp/ccLrOMZj.s 			page 142


 8020 19ab 10050000 		.4byte	.Ldebug_ranges0+0x510
 8021 19af 01       		.byte	0x1
 8022 19b0 DF       		.byte	0xdf
 8023 19b1 1F       		.uleb128 0x1f
 8024 19b2 5A070000 		.4byte	0x75a
 8025 19b6 4B080000 		.4byte	.LLST56
 8026 19ba 1F       		.uleb128 0x1f
 8027 19bb 51070000 		.4byte	0x751
 8028 19bf 69080000 		.4byte	.LLST57
 8029 19c3 1F       		.uleb128 0x1f
 8030 19c4 48070000 		.4byte	0x748
 8031 19c8 A8080000 		.4byte	.LLST58
 8032 19cc 1E       		.uleb128 0x1e
 8033 19cd EF060000 		.4byte	0x6ef
 8034 19d1 28000000 		.4byte	.LBB1128
 8035 19d5 28050000 		.4byte	.Ldebug_ranges0+0x528
 8036 19d9 01       		.byte	0x1
 8037 19da E5       		.byte	0xe5
 8038 19db 611B0000 		.4byte	0x1b61
 8039 19df 1F       		.uleb128 0x1f
 8040 19e0 05070000 		.4byte	0x705
 8041 19e4 E7080000 		.4byte	.LLST59
 8042 19e8 1F       		.uleb128 0x1f
 8043 19e9 FC060000 		.4byte	0x6fc
 8044 19ed 1B090000 		.4byte	.LLST60
 8045 19f1 1E       		.uleb128 0x1e
 8046 19f2 D6060000 		.4byte	0x6d6
 8047 19f6 3A000000 		.4byte	.LBB1130
 8048 19fa 40050000 		.4byte	.Ldebug_ranges0+0x540
 8049 19fe 01       		.byte	0x1
 8050 19ff 39       		.byte	0x39
 8051 1a00 0A1A0000 		.4byte	0x1a0a
 8052 1a04 21       		.uleb128 0x21
 8053 1a05 E3060000 		.4byte	0x6e3
 8054 1a09 00       		.byte	0
 8055 1a0a 20       		.uleb128 0x20
 8056 1a0b BD060000 		.4byte	0x6bd
 8057 1a0f 3E000000 		.4byte	.LBB1133
 8058 1a13 42000000 		.4byte	.LBE1133
 8059 1a17 01       		.byte	0x1
 8060 1a18 39       		.byte	0x39
 8061 1a19 271A0000 		.4byte	0x1a27
 8062 1a1d 1F       		.uleb128 0x1f
 8063 1a1e CA060000 		.4byte	0x6ca
 8064 1a22 4F090000 		.4byte	.LLST61
 8065 1a26 00       		.byte	0
 8066 1a27 1E       		.uleb128 0x1e
 8067 1a28 BD060000 		.4byte	0x6bd
 8068 1a2c 50000000 		.4byte	.LBB1136
 8069 1a30 58050000 		.4byte	.Ldebug_ranges0+0x558
 8070 1a34 01       		.byte	0x1
 8071 1a35 3D       		.byte	0x3d
 8072 1a36 411A0000 		.4byte	0x1a41
 8073 1a3a 2B       		.uleb128 0x2b
 8074 1a3b CA060000 		.4byte	0x6ca
 8075 1a3f 4E       		.byte	0x4e
 8076 1a40 00       		.byte	0
ARM GAS  /tmp/ccLrOMZj.s 			page 143


 8077 1a41 1E       		.uleb128 0x1e
 8078 1a42 D6060000 		.4byte	0x6d6
 8079 1a46 54000000 		.4byte	.LBB1139
 8080 1a4a 70050000 		.4byte	.Ldebug_ranges0+0x570
 8081 1a4e 01       		.byte	0x1
 8082 1a4f 3D       		.byte	0x3d
 8083 1a50 5E1A0000 		.4byte	0x1a5e
 8084 1a54 1F       		.uleb128 0x1f
 8085 1a55 E3060000 		.4byte	0x6e3
 8086 1a59 64090000 		.4byte	.LLST62
 8087 1a5d 00       		.byte	0
 8088 1a5e 20       		.uleb128 0x20
 8089 1a5f BD060000 		.4byte	0x6bd
 8090 1a63 56000000 		.4byte	.LBB1143
 8091 1a67 5A000000 		.4byte	.LBE1143
 8092 1a6b 01       		.byte	0x1
 8093 1a6c 3E       		.byte	0x3e
 8094 1a6d 7B1A0000 		.4byte	0x1a7b
 8095 1a71 1F       		.uleb128 0x1f
 8096 1a72 CA060000 		.4byte	0x6ca
 8097 1a76 77090000 		.4byte	.LLST63
 8098 1a7a 00       		.byte	0
 8099 1a7b 20       		.uleb128 0x20
 8100 1a7c D6060000 		.4byte	0x6d6
 8101 1a80 5A000000 		.4byte	.LBB1145
 8102 1a84 5C000000 		.4byte	.LBE1145
 8103 1a88 01       		.byte	0x1
 8104 1a89 3E       		.byte	0x3e
 8105 1a8a 981A0000 		.4byte	0x1a98
 8106 1a8e 1F       		.uleb128 0x1f
 8107 1a8f E3060000 		.4byte	0x6e3
 8108 1a93 8C090000 		.4byte	.LLST64
 8109 1a97 00       		.byte	0
 8110 1a98 1E       		.uleb128 0x1e
 8111 1a99 D6060000 		.4byte	0x6d6
 8112 1a9d 6E000000 		.4byte	.LBB1147
 8113 1aa1 90050000 		.4byte	.Ldebug_ranges0+0x590
 8114 1aa5 01       		.byte	0x1
 8115 1aa6 41       		.byte	0x41
 8116 1aa7 B11A0000 		.4byte	0x1ab1
 8117 1aab 21       		.uleb128 0x21
 8118 1aac E3060000 		.4byte	0x6e3
 8119 1ab0 00       		.byte	0
 8120 1ab1 20       		.uleb128 0x20
 8121 1ab2 BD060000 		.4byte	0x6bd
 8122 1ab6 70000000 		.4byte	.LBB1150
 8123 1aba 74000000 		.4byte	.LBE1150
 8124 1abe 01       		.byte	0x1
 8125 1abf 41       		.byte	0x41
 8126 1ac0 CE1A0000 		.4byte	0x1ace
 8127 1ac4 1F       		.uleb128 0x1f
 8128 1ac5 CA060000 		.4byte	0x6ca
 8129 1ac9 9F090000 		.4byte	.LLST65
 8130 1acd 00       		.byte	0
 8131 1ace 22       		.uleb128 0x22
 8132 1acf EF060000 		.4byte	0x6ef
 8133 1ad3 78000000 		.4byte	.LBB1153
ARM GAS  /tmp/ccLrOMZj.s 			page 144


 8134 1ad7 A2000000 		.4byte	.LBE1153
 8135 1adb 01       		.byte	0x1
 8136 1adc DF       		.byte	0xdf
 8137 1add 1F       		.uleb128 0x1f
 8138 1ade 05070000 		.4byte	0x705
 8139 1ae2 B4090000 		.4byte	.LLST66
 8140 1ae6 1F       		.uleb128 0x1f
 8141 1ae7 FC060000 		.4byte	0x6fc
 8142 1aeb C7090000 		.4byte	.LLST67
 8143 1aef 1E       		.uleb128 0x1e
 8144 1af0 BD060000 		.4byte	0x6bd
 8145 1af4 7E000000 		.4byte	.LBB1155
 8146 1af8 A8050000 		.4byte	.Ldebug_ranges0+0x5a8
 8147 1afc 01       		.byte	0x1
 8148 1afd 45       		.byte	0x45
 8149 1afe 0C1B0000 		.4byte	0x1b0c
 8150 1b02 1F       		.uleb128 0x1f
 8151 1b03 CA060000 		.4byte	0x6ca
 8152 1b07 DA090000 		.4byte	.LLST68
 8153 1b0b 00       		.byte	0
 8154 1b0c 1E       		.uleb128 0x1e
 8155 1b0d D6060000 		.4byte	0x6d6
 8156 1b11 82000000 		.4byte	.LBB1158
 8157 1b15 C0050000 		.4byte	.Ldebug_ranges0+0x5c0
 8158 1b19 01       		.byte	0x1
 8159 1b1a 45       		.byte	0x45
 8160 1b1b 291B0000 		.4byte	0x1b29
 8161 1b1f 1F       		.uleb128 0x1f
 8162 1b20 E3060000 		.4byte	0x6e3
 8163 1b24 EF090000 		.4byte	.LLST69
 8164 1b28 00       		.byte	0
 8165 1b29 20       		.uleb128 0x20
 8166 1b2a BD060000 		.4byte	0x6bd
 8167 1b2e 84000000 		.4byte	.LBB1162
 8168 1b32 88000000 		.4byte	.LBE1162
 8169 1b36 01       		.byte	0x1
 8170 1b37 46       		.byte	0x46
 8171 1b38 461B0000 		.4byte	0x1b46
 8172 1b3c 1F       		.uleb128 0x1f
 8173 1b3d CA060000 		.4byte	0x6ca
 8174 1b41 020A0000 		.4byte	.LLST70
 8175 1b45 00       		.byte	0
 8176 1b46 22       		.uleb128 0x22
 8177 1b47 D6060000 		.4byte	0x6d6
 8178 1b4b 88000000 		.4byte	.LBB1164
 8179 1b4f 8C000000 		.4byte	.LBE1164
 8180 1b53 01       		.byte	0x1
 8181 1b54 46       		.byte	0x46
 8182 1b55 1F       		.uleb128 0x1f
 8183 1b56 E3060000 		.4byte	0x6e3
 8184 1b5a 170A0000 		.4byte	.LLST71
 8185 1b5e 00       		.byte	0
 8186 1b5f 00       		.byte	0
 8187 1b60 00       		.byte	0
 8188 1b61 1E       		.uleb128 0x1e
 8189 1b62 D6060000 		.4byte	0x6d6
 8190 1b66 5C000000 		.4byte	.LBB1173
ARM GAS  /tmp/ccLrOMZj.s 			page 145


 8191 1b6a E0050000 		.4byte	.Ldebug_ranges0+0x5e0
 8192 1b6e 01       		.byte	0x1
 8193 1b6f E6       		.byte	0xe6
 8194 1b70 7E1B0000 		.4byte	0x1b7e
 8195 1b74 1F       		.uleb128 0x1f
 8196 1b75 E3060000 		.4byte	0x6e3
 8197 1b79 2A0A0000 		.4byte	.LLST72
 8198 1b7d 00       		.byte	0
 8199 1b7e 22       		.uleb128 0x22
 8200 1b7f BD060000 		.4byte	0x6bd
 8201 1b83 62000000 		.4byte	.LBB1176
 8202 1b87 6A000000 		.4byte	.LBE1176
 8203 1b8b 01       		.byte	0x1
 8204 1b8c E6       		.byte	0xe6
 8205 1b8d 1F       		.uleb128 0x1f
 8206 1b8e CA060000 		.4byte	0x6ca
 8207 1b92 3D0A0000 		.4byte	.LLST73
 8208 1b96 00       		.byte	0
 8209 1b97 00       		.byte	0
 8210 1b98 00       		.byte	0
 8211 1b99 31       		.uleb128 0x31
 8212 1b9a 01       		.byte	0x1
 8213 1b9b E4010000 		.4byte	.LASF128
 8214 1b9f 03       		.byte	0x3
 8215 1ba0 D501     		.2byte	0x1d5
 8216 1ba2 01       		.byte	0x1
 8217 1ba3 00000000 		.4byte	.LFB122
 8218 1ba7 60010000 		.4byte	.LFE122
 8219 1bab 520A0000 		.4byte	.LLST74
 8220 1baf 01       		.byte	0x1
 8221 1bb0 111D0000 		.4byte	0x1d11
 8222 1bb4 32       		.uleb128 0x32
 8223 1bb5 7800     		.ascii	"x\000"
 8224 1bb7 03       		.byte	0x3
 8225 1bb8 D501     		.2byte	0x1d5
 8226 1bba 7B040000 		.4byte	0x47b
 8227 1bbe 7F0A0000 		.4byte	.LLST75
 8228 1bc2 32       		.uleb128 0x32
 8229 1bc3 7900     		.ascii	"y\000"
 8230 1bc5 03       		.byte	0x3
 8231 1bc6 D501     		.2byte	0x1d5
 8232 1bc8 7B040000 		.4byte	0x47b
 8233 1bcc AC0A0000 		.4byte	.LLST76
 8234 1bd0 32       		.uleb128 0x32
 8235 1bd1 6300     		.ascii	"c\000"
 8236 1bd3 03       		.byte	0x3
 8237 1bd4 D501     		.2byte	0x1d5
 8238 1bd6 E7000000 		.4byte	0xe7
 8239 1bda CD0A0000 		.4byte	.LLST77
 8240 1bde 33       		.uleb128 0x33
 8241 1bdf 96060000 		.4byte	.LASF96
 8242 1be3 03       		.byte	0x3
 8243 1be4 D501     		.2byte	0x1d5
 8244 1be6 86040000 		.4byte	0x486
 8245 1bea EE0A0000 		.4byte	.LLST78
 8246 1bee 34       		.uleb128 0x34
 8247 1bef CA050000 		.4byte	.LASF123
ARM GAS  /tmp/ccLrOMZj.s 			page 146


 8248 1bf3 03       		.byte	0x3
 8249 1bf4 D501     		.2byte	0x1d5
 8250 1bf6 71060000 		.4byte	0x671
 8251 1bfa 02       		.byte	0x2
 8252 1bfb 91       		.byte	0x91
 8253 1bfc 00       		.sleb128 0
 8254 1bfd 35       		.uleb128 0x35
 8255 1bfe 70747200 		.ascii	"ptr\000"
 8256 1c02 03       		.byte	0x3
 8257 1c03 D601     		.2byte	0x1d6
 8258 1c05 99060000 		.4byte	0x699
 8259 1c09 0F0B0000 		.4byte	.LLST79
 8260 1c0d 36       		.uleb128 0x36
 8261 1c0e 42060000 		.4byte	.LASF129
 8262 1c12 03       		.byte	0x3
 8263 1c13 D701     		.2byte	0x1d7
 8264 1c15 88060000 		.4byte	0x688
 8265 1c19 450B0000 		.4byte	.LLST80
 8266 1c1d 36       		.uleb128 0x36
 8267 1c1e B4020000 		.4byte	.LASF130
 8268 1c22 03       		.byte	0x3
 8269 1c23 D801     		.2byte	0x1d8
 8270 1c25 7B040000 		.4byte	0x47b
 8271 1c29 5A0B0000 		.4byte	.LLST81
 8272 1c2d 36       		.uleb128 0x36
 8273 1c2e 19070000 		.4byte	.LASF71
 8274 1c32 03       		.byte	0x3
 8275 1c33 D801     		.2byte	0x1d8
 8276 1c35 7B040000 		.4byte	0x47b
 8277 1c39 720B0000 		.4byte	.LLST82
 8278 1c3d 36       		.uleb128 0x36
 8279 1c3e 80030000 		.4byte	.LASF79
 8280 1c42 03       		.byte	0x3
 8281 1c43 D801     		.2byte	0x1d8
 8282 1c45 7B040000 		.4byte	0x47b
 8283 1c49 950B0000 		.4byte	.LLST83
 8284 1c4d 36       		.uleb128 0x36
 8285 1c4e 58040000 		.4byte	.LASF80
 8286 1c52 03       		.byte	0x3
 8287 1c53 D801     		.2byte	0x1d8
 8288 1c55 7B040000 		.4byte	0x47b
 8289 1c59 B00B0000 		.4byte	.LLST84
 8290 1c5d 35       		.uleb128 0x35
 8291 1c5e 6900     		.ascii	"i\000"
 8292 1c60 03       		.byte	0x3
 8293 1c61 D901     		.2byte	0x1d9
 8294 1c63 7B040000 		.4byte	0x47b
 8295 1c67 C40B0000 		.4byte	.LLST85
 8296 1c6b 35       		.uleb128 0x35
 8297 1c6c 6A00     		.ascii	"j\000"
 8298 1c6e 03       		.byte	0x3
 8299 1c6f D901     		.2byte	0x1d9
 8300 1c71 7B040000 		.4byte	0x47b
 8301 1c75 E40B0000 		.4byte	.LLST86
 8302 1c79 35       		.uleb128 0x35
 8303 1c7a 787300   		.ascii	"xs\000"
 8304 1c7d 03       		.byte	0x3
ARM GAS  /tmp/ccLrOMZj.s 			page 147


 8305 1c7e D901     		.2byte	0x1d9
 8306 1c80 7B040000 		.4byte	0x47b
 8307 1c84 050C0000 		.4byte	.LLST87
 8308 1c88 35       		.uleb128 0x35
 8309 1c89 797300   		.ascii	"ys\000"
 8310 1c8c 03       		.byte	0x3
 8311 1c8d D901     		.2byte	0x1d9
 8312 1c8f 7B040000 		.4byte	0x47b
 8313 1c93 190C0000 		.4byte	.LLST88
 8314 1c97 28       		.uleb128 0x28
 8315 1c98 C0000000 		.4byte	.LVL216
 8316 1c9c 3A070000 		.4byte	0x73a
 8317 1ca0 B71C0000 		.4byte	0x1cb7
 8318 1ca4 29       		.uleb128 0x29
 8319 1ca5 01       		.byte	0x1
 8320 1ca6 52       		.byte	0x52
 8321 1ca7 02       		.byte	0x2
 8322 1ca8 76       		.byte	0x76
 8323 1ca9 00       		.sleb128 0
 8324 1caa 29       		.uleb128 0x29
 8325 1cab 01       		.byte	0x1
 8326 1cac 51       		.byte	0x51
 8327 1cad 02       		.byte	0x2
 8328 1cae 75       		.byte	0x75
 8329 1caf 00       		.sleb128 0
 8330 1cb0 29       		.uleb128 0x29
 8331 1cb1 01       		.byte	0x1
 8332 1cb2 50       		.byte	0x50
 8333 1cb3 02       		.byte	0x2
 8334 1cb4 74       		.byte	0x74
 8335 1cb5 00       		.sleb128 0
 8336 1cb6 00       		.byte	0
 8337 1cb7 28       		.uleb128 0x28
 8338 1cb8 E0000000 		.4byte	.LVL218
 8339 1cbc 3A070000 		.4byte	0x73a
 8340 1cc0 D71C0000 		.4byte	0x1cd7
 8341 1cc4 29       		.uleb128 0x29
 8342 1cc5 01       		.byte	0x1
 8343 1cc6 52       		.byte	0x52
 8344 1cc7 02       		.byte	0x2
 8345 1cc8 76       		.byte	0x76
 8346 1cc9 00       		.sleb128 0
 8347 1cca 29       		.uleb128 0x29
 8348 1ccb 01       		.byte	0x1
 8349 1ccc 51       		.byte	0x51
 8350 1ccd 02       		.byte	0x2
 8351 1cce 75       		.byte	0x75
 8352 1ccf 01       		.sleb128 1
 8353 1cd0 29       		.uleb128 0x29
 8354 1cd1 01       		.byte	0x1
 8355 1cd2 50       		.byte	0x50
 8356 1cd3 02       		.byte	0x2
 8357 1cd4 74       		.byte	0x74
 8358 1cd5 00       		.sleb128 0
 8359 1cd6 00       		.byte	0
 8360 1cd7 28       		.uleb128 0x28
 8361 1cd8 FA000000 		.4byte	.LVL220
ARM GAS  /tmp/ccLrOMZj.s 			page 148


 8362 1cdc 3A070000 		.4byte	0x73a
 8363 1ce0 F11C0000 		.4byte	0x1cf1
 8364 1ce4 29       		.uleb128 0x29
 8365 1ce5 01       		.byte	0x1
 8366 1ce6 52       		.byte	0x52
 8367 1ce7 02       		.byte	0x2
 8368 1ce8 76       		.byte	0x76
 8369 1ce9 00       		.sleb128 0
 8370 1cea 29       		.uleb128 0x29
 8371 1ceb 01       		.byte	0x1
 8372 1cec 50       		.byte	0x50
 8373 1ced 02       		.byte	0x2
 8374 1cee 74       		.byte	0x74
 8375 1cef 00       		.sleb128 0
 8376 1cf0 00       		.byte	0
 8377 1cf1 2A       		.uleb128 0x2a
 8378 1cf2 08010000 		.4byte	.LVL221
 8379 1cf6 3A070000 		.4byte	0x73a
 8380 1cfa 29       		.uleb128 0x29
 8381 1cfb 01       		.byte	0x1
 8382 1cfc 52       		.byte	0x52
 8383 1cfd 02       		.byte	0x2
 8384 1cfe 76       		.byte	0x76
 8385 1cff 00       		.sleb128 0
 8386 1d00 29       		.uleb128 0x29
 8387 1d01 01       		.byte	0x1
 8388 1d02 51       		.byte	0x51
 8389 1d03 05       		.byte	0x5
 8390 1d04 75       		.byte	0x75
 8391 1d05 00       		.sleb128 0
 8392 1d06 7A       		.byte	0x7a
 8393 1d07 00       		.sleb128 0
 8394 1d08 22       		.byte	0x22
 8395 1d09 29       		.uleb128 0x29
 8396 1d0a 01       		.byte	0x1
 8397 1d0b 50       		.byte	0x50
 8398 1d0c 02       		.byte	0x2
 8399 1d0d 74       		.byte	0x74
 8400 1d0e 00       		.sleb128 0
 8401 1d0f 00       		.byte	0
 8402 1d10 00       		.byte	0
 8403 1d11 23       		.uleb128 0x23
 8404 1d12 01       		.byte	0x1
 8405 1d13 9E020000 		.4byte	.LASF131
 8406 1d17 03       		.byte	0x3
 8407 1d18 AA       		.byte	0xaa
 8408 1d19 01       		.byte	0x1
 8409 1d1a 00000000 		.4byte	.LFB120
 8410 1d1e 0A010000 		.4byte	.LFE120
 8411 1d22 5A0C0000 		.4byte	.LLST89
 8412 1d26 01       		.byte	0x1
 8413 1d27 7D1E0000 		.4byte	0x1e7d
 8414 1d2b 1D       		.uleb128 0x1d
 8415 1d2c 7800     		.ascii	"x\000"
 8416 1d2e 03       		.byte	0x3
 8417 1d2f AA       		.byte	0xaa
 8418 1d30 7B040000 		.4byte	0x47b
ARM GAS  /tmp/ccLrOMZj.s 			page 149


 8419 1d34 870C0000 		.4byte	.LLST90
 8420 1d38 1D       		.uleb128 0x1d
 8421 1d39 7900     		.ascii	"y\000"
 8422 1d3b 03       		.byte	0x3
 8423 1d3c AA       		.byte	0xaa
 8424 1d3d 7B040000 		.4byte	0x47b
 8425 1d41 A50C0000 		.4byte	.LLST91
 8426 1d45 37       		.uleb128 0x37
 8427 1d46 87030000 		.4byte	.LASF132
 8428 1d4a 03       		.byte	0x3
 8429 1d4b AA       		.byte	0xaa
 8430 1d4c 7B040000 		.4byte	0x47b
 8431 1d50 C30C0000 		.4byte	.LLST92
 8432 1d54 37       		.uleb128 0x37
 8433 1d55 CA050000 		.4byte	.LASF123
 8434 1d59 03       		.byte	0x3
 8435 1d5a AA       		.byte	0xaa
 8436 1d5b 71060000 		.4byte	0x671
 8437 1d5f E20C0000 		.4byte	.LLST93
 8438 1d63 38       		.uleb128 0x38
 8439 1d64 6100     		.ascii	"a\000"
 8440 1d66 03       		.byte	0x3
 8441 1d67 AB       		.byte	0xab
 8442 1d68 7B040000 		.4byte	0x47b
 8443 1d6c 030D0000 		.4byte	.LLST94
 8444 1d70 38       		.uleb128 0x38
 8445 1d71 6200     		.ascii	"b\000"
 8446 1d73 03       		.byte	0x3
 8447 1d74 AB       		.byte	0xab
 8448 1d75 7B040000 		.4byte	0x47b
 8449 1d79 2D0D0000 		.4byte	.LLST95
 8450 1d7d 39       		.uleb128 0x39
 8451 1d7e 5000     		.ascii	"P\000"
 8452 1d80 03       		.byte	0x3
 8453 1d81 AB       		.byte	0xab
 8454 1d82 7B040000 		.4byte	0x47b
 8455 1d86 02       		.byte	0x2
 8456 1d87 91       		.byte	0x91
 8457 1d88 50       		.sleb128 -48
 8458 1d89 28       		.uleb128 0x28
 8459 1d8a 78000000 		.4byte	.LVL237
 8460 1d8e 3A070000 		.4byte	0x73a
 8461 1d92 AC1D0000 		.4byte	0x1dac
 8462 1d96 29       		.uleb128 0x29
 8463 1d97 01       		.byte	0x1
 8464 1d98 52       		.byte	0x52
 8465 1d99 02       		.byte	0x2
 8466 1d9a 74       		.byte	0x74
 8467 1d9b 00       		.sleb128 0
 8468 1d9c 29       		.uleb128 0x29
 8469 1d9d 01       		.byte	0x1
 8470 1d9e 51       		.byte	0x51
 8471 1d9f 02       		.byte	0x2
 8472 1da0 7A       		.byte	0x7a
 8473 1da1 00       		.sleb128 0
 8474 1da2 29       		.uleb128 0x29
 8475 1da3 01       		.byte	0x1
ARM GAS  /tmp/ccLrOMZj.s 			page 150


 8476 1da4 50       		.byte	0x50
 8477 1da5 05       		.byte	0x5
 8478 1da6 78       		.byte	0x78
 8479 1da7 00       		.sleb128 0
 8480 1da8 75       		.byte	0x75
 8481 1da9 00       		.sleb128 0
 8482 1daa 22       		.byte	0x22
 8483 1dab 00       		.byte	0
 8484 1dac 28       		.uleb128 0x28
 8485 1dad 92000000 		.4byte	.LVL238
 8486 1db1 3A070000 		.4byte	0x73a
 8487 1db5 CC1D0000 		.4byte	0x1dcc
 8488 1db9 29       		.uleb128 0x29
 8489 1dba 01       		.byte	0x1
 8490 1dbb 52       		.byte	0x52
 8491 1dbc 02       		.byte	0x2
 8492 1dbd 74       		.byte	0x74
 8493 1dbe 00       		.sleb128 0
 8494 1dbf 29       		.uleb128 0x29
 8495 1dc0 01       		.byte	0x1
 8496 1dc1 51       		.byte	0x51
 8497 1dc2 02       		.byte	0x2
 8498 1dc3 79       		.byte	0x79
 8499 1dc4 00       		.sleb128 0
 8500 1dc5 29       		.uleb128 0x29
 8501 1dc6 01       		.byte	0x1
 8502 1dc7 50       		.byte	0x50
 8503 1dc8 02       		.byte	0x2
 8504 1dc9 7B       		.byte	0x7b
 8505 1dca 00       		.sleb128 0
 8506 1dcb 00       		.byte	0
 8507 1dcc 28       		.uleb128 0x28
 8508 1dcd A4000000 		.4byte	.LVL239
 8509 1dd1 3A070000 		.4byte	0x73a
 8510 1dd5 EC1D0000 		.4byte	0x1dec
 8511 1dd9 29       		.uleb128 0x29
 8512 1dda 01       		.byte	0x1
 8513 1ddb 52       		.byte	0x52
 8514 1ddc 02       		.byte	0x2
 8515 1ddd 74       		.byte	0x74
 8516 1dde 00       		.sleb128 0
 8517 1ddf 29       		.uleb128 0x29
 8518 1de0 01       		.byte	0x1
 8519 1de1 51       		.byte	0x51
 8520 1de2 02       		.byte	0x2
 8521 1de3 7A       		.byte	0x7a
 8522 1de4 00       		.sleb128 0
 8523 1de5 29       		.uleb128 0x29
 8524 1de6 01       		.byte	0x1
 8525 1de7 50       		.byte	0x50
 8526 1de8 02       		.byte	0x2
 8527 1de9 7B       		.byte	0x7b
 8528 1dea 00       		.sleb128 0
 8529 1deb 00       		.byte	0
 8530 1dec 28       		.uleb128 0x28
 8531 1ded B6000000 		.4byte	.LVL240
 8532 1df1 3A070000 		.4byte	0x73a
ARM GAS  /tmp/ccLrOMZj.s 			page 151


 8533 1df5 0C1E0000 		.4byte	0x1e0c
 8534 1df9 29       		.uleb128 0x29
 8535 1dfa 01       		.byte	0x1
 8536 1dfb 52       		.byte	0x52
 8537 1dfc 02       		.byte	0x2
 8538 1dfd 74       		.byte	0x74
 8539 1dfe 00       		.sleb128 0
 8540 1dff 29       		.uleb128 0x29
 8541 1e00 01       		.byte	0x1
 8542 1e01 51       		.byte	0x51
 8543 1e02 02       		.byte	0x2
 8544 1e03 79       		.byte	0x79
 8545 1e04 00       		.sleb128 0
 8546 1e05 29       		.uleb128 0x29
 8547 1e06 01       		.byte	0x1
 8548 1e07 50       		.byte	0x50
 8549 1e08 02       		.byte	0x2
 8550 1e09 7A       		.byte	0x7a
 8551 1e0a 00       		.sleb128 0
 8552 1e0b 00       		.byte	0
 8553 1e0c 28       		.uleb128 0x28
 8554 1e0d CA000000 		.4byte	.LVL241
 8555 1e11 3A070000 		.4byte	0x73a
 8556 1e15 261E0000 		.4byte	0x1e26
 8557 1e19 29       		.uleb128 0x29
 8558 1e1a 01       		.byte	0x1
 8559 1e1b 52       		.byte	0x52
 8560 1e1c 02       		.byte	0x2
 8561 1e1d 74       		.byte	0x74
 8562 1e1e 00       		.sleb128 0
 8563 1e1f 29       		.uleb128 0x29
 8564 1e20 01       		.byte	0x1
 8565 1e21 51       		.byte	0x51
 8566 1e22 02       		.byte	0x2
 8567 1e23 79       		.byte	0x79
 8568 1e24 00       		.sleb128 0
 8569 1e25 00       		.byte	0
 8570 1e26 28       		.uleb128 0x28
 8571 1e27 DA000000 		.4byte	.LVL242
 8572 1e2b 3A070000 		.4byte	0x73a
 8573 1e2f 401E0000 		.4byte	0x1e40
 8574 1e33 29       		.uleb128 0x29
 8575 1e34 01       		.byte	0x1
 8576 1e35 52       		.byte	0x52
 8577 1e36 02       		.byte	0x2
 8578 1e37 74       		.byte	0x74
 8579 1e38 00       		.sleb128 0
 8580 1e39 29       		.uleb128 0x29
 8581 1e3a 01       		.byte	0x1
 8582 1e3b 51       		.byte	0x51
 8583 1e3c 02       		.byte	0x2
 8584 1e3d 76       		.byte	0x76
 8585 1e3e 00       		.sleb128 0
 8586 1e3f 00       		.byte	0
 8587 1e40 28       		.uleb128 0x28
 8588 1e41 E4000000 		.4byte	.LVL243
 8589 1e45 3A070000 		.4byte	0x73a
ARM GAS  /tmp/ccLrOMZj.s 			page 152


 8590 1e49 601E0000 		.4byte	0x1e60
 8591 1e4d 29       		.uleb128 0x29
 8592 1e4e 01       		.byte	0x1
 8593 1e4f 52       		.byte	0x52
 8594 1e50 02       		.byte	0x2
 8595 1e51 74       		.byte	0x74
 8596 1e52 00       		.sleb128 0
 8597 1e53 29       		.uleb128 0x29
 8598 1e54 01       		.byte	0x1
 8599 1e55 51       		.byte	0x51
 8600 1e56 02       		.byte	0x2
 8601 1e57 76       		.byte	0x76
 8602 1e58 00       		.sleb128 0
 8603 1e59 29       		.uleb128 0x29
 8604 1e5a 01       		.byte	0x1
 8605 1e5b 50       		.byte	0x50
 8606 1e5c 02       		.byte	0x2
 8607 1e5d 7B       		.byte	0x7b
 8608 1e5e 00       		.sleb128 0
 8609 1e5f 00       		.byte	0
 8610 1e60 2A       		.uleb128 0x2a
 8611 1e61 EE000000 		.4byte	.LVL244
 8612 1e65 3A070000 		.4byte	0x73a
 8613 1e69 29       		.uleb128 0x29
 8614 1e6a 01       		.byte	0x1
 8615 1e6b 52       		.byte	0x52
 8616 1e6c 02       		.byte	0x2
 8617 1e6d 74       		.byte	0x74
 8618 1e6e 00       		.sleb128 0
 8619 1e6f 29       		.uleb128 0x29
 8620 1e70 01       		.byte	0x1
 8621 1e71 51       		.byte	0x51
 8622 1e72 02       		.byte	0x2
 8623 1e73 79       		.byte	0x79
 8624 1e74 00       		.sleb128 0
 8625 1e75 29       		.uleb128 0x29
 8626 1e76 01       		.byte	0x1
 8627 1e77 50       		.byte	0x50
 8628 1e78 02       		.byte	0x2
 8629 1e79 7A       		.byte	0x7a
 8630 1e7a 00       		.sleb128 0
 8631 1e7b 00       		.byte	0
 8632 1e7c 00       		.byte	0
 8633 1e7d 1A       		.uleb128 0x1a
 8634 1e7e C7060000 		.4byte	.LASF133
 8635 1e82 01       		.byte	0x1
 8636 1e83 72       		.byte	0x72
 8637 1e84 01       		.byte	0x1
 8638 1e85 03       		.byte	0x3
 8639 1e86 31       		.uleb128 0x31
 8640 1e87 01       		.byte	0x1
 8641 1e88 D5030000 		.4byte	.LASF134
 8642 1e8c 01       		.byte	0x1
 8643 1e8d 0401     		.2byte	0x104
 8644 1e8f 01       		.byte	0x1
 8645 1e90 00000000 		.4byte	.LFB137
 8646 1e94 7C000000 		.4byte	.LFE137
ARM GAS  /tmp/ccLrOMZj.s 			page 153


 8647 1e98 4C0D0000 		.4byte	.LLST96
 8648 1e9c 01       		.byte	0x1
 8649 1e9d 4A200000 		.4byte	0x204a
 8650 1ea1 33       		.uleb128 0x33
 8651 1ea2 CA050000 		.4byte	.LASF123
 8652 1ea6 01       		.byte	0x1
 8653 1ea7 0401     		.2byte	0x104
 8654 1ea9 71060000 		.4byte	0x671
 8655 1ead 6C0D0000 		.4byte	.LLST97
 8656 1eb1 3A       		.uleb128 0x3a
 8657 1eb2 3D050000 		.4byte	.LASF135
 8658 1eb6 01       		.byte	0x1
 8659 1eb7 0501     		.2byte	0x105
 8660 1eb9 30000000 		.4byte	0x30
 8661 1ebd 002C0100 		.4byte	0x12c00
 8662 1ec1 36       		.uleb128 0x36
 8663 1ec2 F0050000 		.4byte	.LASF115
 8664 1ec6 01       		.byte	0x1
 8665 1ec7 1C01     		.2byte	0x11c
 8666 1ec9 86000000 		.4byte	0x86
 8667 1ecd 8D0D0000 		.4byte	.LLST98
 8668 1ed1 3B       		.uleb128 0x3b
 8669 1ed2 7D1E0000 		.4byte	0x1e7d
 8670 1ed6 02000000 		.4byte	.LBB1248
 8671 1eda F8050000 		.4byte	.Ldebug_ranges0+0x5f8
 8672 1ede 01       		.byte	0x1
 8673 1edf 0A01     		.2byte	0x10a
 8674 1ee1 FA1E0000 		.4byte	0x1efa
 8675 1ee5 2A       		.uleb128 0x2a
 8676 1ee6 16000000 		.4byte	.LVL249
 8677 1eea 66070000 		.4byte	0x766
 8678 1eee 29       		.uleb128 0x29
 8679 1eef 01       		.byte	0x1
 8680 1ef0 51       		.byte	0x51
 8681 1ef1 01       		.byte	0x1
 8682 1ef2 30       		.byte	0x30
 8683 1ef3 29       		.uleb128 0x29
 8684 1ef4 01       		.byte	0x1
 8685 1ef5 50       		.byte	0x50
 8686 1ef6 01       		.byte	0x1
 8687 1ef7 30       		.byte	0x30
 8688 1ef8 00       		.byte	0
 8689 1ef9 00       		.byte	0
 8690 1efa 3B       		.uleb128 0x3b
 8691 1efb EF060000 		.4byte	0x6ef
 8692 1eff 16000000 		.4byte	.LBB1252
 8693 1f03 10060000 		.4byte	.Ldebug_ranges0+0x610
 8694 1f07 01       		.byte	0x1
 8695 1f08 0B01     		.2byte	0x10b
 8696 1f0a 11200000 		.4byte	0x2011
 8697 1f0e 2B       		.uleb128 0x2b
 8698 1f0f 05070000 		.4byte	0x705
 8699 1f13 00       		.byte	0
 8700 1f14 2B       		.uleb128 0x2b
 8701 1f15 FC060000 		.4byte	0x6fc
 8702 1f19 00       		.byte	0
 8703 1f1a 1E       		.uleb128 0x1e
ARM GAS  /tmp/ccLrOMZj.s 			page 154


 8704 1f1b BD060000 		.4byte	0x6bd
 8705 1f1f 24000000 		.4byte	.LBB1254
 8706 1f23 28060000 		.4byte	.Ldebug_ranges0+0x628
 8707 1f27 01       		.byte	0x1
 8708 1f28 41       		.byte	0x41
 8709 1f29 371F0000 		.4byte	0x1f37
 8710 1f2d 1F       		.uleb128 0x1f
 8711 1f2e CA060000 		.4byte	0x6ca
 8712 1f32 A10D0000 		.4byte	.LLST99
 8713 1f36 00       		.byte	0
 8714 1f37 1E       		.uleb128 0x1e
 8715 1f38 D6060000 		.4byte	0x6d6
 8716 1f3c 28000000 		.4byte	.LBB1257
 8717 1f40 40060000 		.4byte	.Ldebug_ranges0+0x640
 8718 1f44 01       		.byte	0x1
 8719 1f45 41       		.byte	0x41
 8720 1f46 541F0000 		.4byte	0x1f54
 8721 1f4a 1F       		.uleb128 0x1f
 8722 1f4b E3060000 		.4byte	0x6e3
 8723 1f4f B60D0000 		.4byte	.LLST100
 8724 1f53 00       		.byte	0
 8725 1f54 1E       		.uleb128 0x1e
 8726 1f55 BD060000 		.4byte	0x6bd
 8727 1f59 34000000 		.4byte	.LBB1263
 8728 1f5d 60060000 		.4byte	.Ldebug_ranges0+0x660
 8729 1f61 01       		.byte	0x1
 8730 1f62 42       		.byte	0x42
 8731 1f63 711F0000 		.4byte	0x1f71
 8732 1f67 1F       		.uleb128 0x1f
 8733 1f68 CA060000 		.4byte	0x6ca
 8734 1f6c CA0D0000 		.4byte	.LLST101
 8735 1f70 00       		.byte	0
 8736 1f71 20       		.uleb128 0x20
 8737 1f72 D6060000 		.4byte	0x6d6
 8738 1f76 3A000000 		.4byte	.LBB1268
 8739 1f7a 3C000000 		.4byte	.LBE1268
 8740 1f7e 01       		.byte	0x1
 8741 1f7f 42       		.byte	0x42
 8742 1f80 8E1F0000 		.4byte	0x1f8e
 8743 1f84 1F       		.uleb128 0x1f
 8744 1f85 E3060000 		.4byte	0x6e3
 8745 1f89 DF0D0000 		.4byte	.LLST102
 8746 1f8d 00       		.byte	0
 8747 1f8e 3C       		.uleb128 0x3c
 8748 1f8f EF060000 		.4byte	0x6ef
 8749 1f93 58000000 		.4byte	.LBB1270
 8750 1f97 7C000000 		.4byte	.LBE1270
 8751 1f9b 01       		.byte	0x1
 8752 1f9c 0401     		.2byte	0x104
 8753 1f9e 2B       		.uleb128 0x2b
 8754 1f9f 05070000 		.4byte	0x705
 8755 1fa3 00       		.byte	0
 8756 1fa4 2B       		.uleb128 0x2b
 8757 1fa5 FC060000 		.4byte	0x6fc
 8758 1fa9 00       		.byte	0
 8759 1faa 1E       		.uleb128 0x1e
 8760 1fab BD060000 		.4byte	0x6bd
ARM GAS  /tmp/ccLrOMZj.s 			page 155


 8761 1faf 58000000 		.4byte	.LBB1271
 8762 1fb3 78060000 		.4byte	.Ldebug_ranges0+0x678
 8763 1fb7 01       		.byte	0x1
 8764 1fb8 45       		.byte	0x45
 8765 1fb9 C41F0000 		.4byte	0x1fc4
 8766 1fbd 2B       		.uleb128 0x2b
 8767 1fbe CA060000 		.4byte	0x6ca
 8768 1fc2 4E       		.byte	0x4e
 8769 1fc3 00       		.byte	0
 8770 1fc4 1E       		.uleb128 0x1e
 8771 1fc5 D6060000 		.4byte	0x6d6
 8772 1fc9 5C000000 		.4byte	.LBB1274
 8773 1fcd 90060000 		.4byte	.Ldebug_ranges0+0x690
 8774 1fd1 01       		.byte	0x1
 8775 1fd2 45       		.byte	0x45
 8776 1fd3 DE1F0000 		.4byte	0x1fde
 8777 1fd7 2B       		.uleb128 0x2b
 8778 1fd8 E3060000 		.4byte	0x6e3
 8779 1fdc EF       		.byte	0xef
 8780 1fdd 00       		.byte	0
 8781 1fde 1E       		.uleb128 0x1e
 8782 1fdf BD060000 		.4byte	0x6bd
 8783 1fe3 68000000 		.4byte	.LBB1280
 8784 1fe7 B0060000 		.4byte	.Ldebug_ranges0+0x6b0
 8785 1feb 01       		.byte	0x1
 8786 1fec 46       		.byte	0x46
 8787 1fed F81F0000 		.4byte	0x1ff8
 8788 1ff1 2B       		.uleb128 0x2b
 8789 1ff2 CA060000 		.4byte	0x6ca
 8790 1ff6 4F       		.byte	0x4f
 8791 1ff7 00       		.byte	0
 8792 1ff8 22       		.uleb128 0x22
 8793 1ff9 D6060000 		.4byte	0x6d6
 8794 1ffd 6E000000 		.4byte	.LBB1285
 8795 2001 7C000000 		.4byte	.LBE1285
 8796 2005 01       		.byte	0x1
 8797 2006 46       		.byte	0x46
 8798 2007 2D       		.uleb128 0x2d
 8799 2008 E3060000 		.4byte	0x6e3
 8800 200c 3F01     		.2byte	0x13f
 8801 200e 00       		.byte	0
 8802 200f 00       		.byte	0
 8803 2010 00       		.byte	0
 8804 2011 3B       		.uleb128 0x3b
 8805 2012 BD060000 		.4byte	0x6bd
 8806 2016 3C000000 		.4byte	.LBB1288
 8807 201a C8060000 		.4byte	.Ldebug_ranges0+0x6c8
 8808 201e 01       		.byte	0x1
 8809 201f 0D01     		.2byte	0x10d
 8810 2021 2F200000 		.4byte	0x202f
 8811 2025 1F       		.uleb128 0x1f
 8812 2026 CA060000 		.4byte	0x6ca
 8813 202a F30D0000 		.4byte	.LLST103
 8814 202e 00       		.byte	0
 8815 202f 3D       		.uleb128 0x3d
 8816 2030 D6060000 		.4byte	0x6d6
 8817 2034 40000000 		.4byte	.LBB1291
ARM GAS  /tmp/ccLrOMZj.s 			page 156


 8818 2038 E0060000 		.4byte	.Ldebug_ranges0+0x6e0
 8819 203c 01       		.byte	0x1
 8820 203d 1E01     		.2byte	0x11e
 8821 203f 1F       		.uleb128 0x1f
 8822 2040 E3060000 		.4byte	0x6e3
 8823 2044 080E0000 		.4byte	.LLST104
 8824 2048 00       		.byte	0
 8825 2049 00       		.byte	0
 8826 204a 31       		.uleb128 0x31
 8827 204b 01       		.byte	0x1
 8828 204c 31020000 		.4byte	.LASF136
 8829 2050 01       		.byte	0x1
 8830 2051 3101     		.2byte	0x131
 8831 2053 01       		.byte	0x1
 8832 2054 00000000 		.4byte	.LFB138
 8833 2058 B0000000 		.4byte	.LFE138
 8834 205c 1B0E0000 		.4byte	.LLST105
 8835 2060 01       		.byte	0x1
 8836 2061 21210000 		.4byte	0x2121
 8837 2065 32       		.uleb128 0x32
 8838 2066 7800     		.ascii	"x\000"
 8839 2068 01       		.byte	0x1
 8840 2069 3101     		.2byte	0x131
 8841 206b 7B040000 		.4byte	0x47b
 8842 206f 3B0E0000 		.4byte	.LLST106
 8843 2073 32       		.uleb128 0x32
 8844 2074 7900     		.ascii	"y\000"
 8845 2076 01       		.byte	0x1
 8846 2077 3101     		.2byte	0x131
 8847 2079 7B040000 		.4byte	0x47b
 8848 207d 760E0000 		.4byte	.LLST107
 8849 2081 32       		.uleb128 0x32
 8850 2082 637800   		.ascii	"cx\000"
 8851 2085 01       		.byte	0x1
 8852 2086 3101     		.2byte	0x131
 8853 2088 7B040000 		.4byte	0x47b
 8854 208c B10E0000 		.4byte	.LLST108
 8855 2090 32       		.uleb128 0x32
 8856 2091 637900   		.ascii	"cy\000"
 8857 2094 01       		.byte	0x1
 8858 2095 3101     		.2byte	0x131
 8859 2097 7B040000 		.4byte	0x47b
 8860 209b CF0E0000 		.4byte	.LLST109
 8861 209f 34       		.uleb128 0x34
 8862 20a0 CA050000 		.4byte	.LASF123
 8863 20a4 01       		.byte	0x1
 8864 20a5 3101     		.2byte	0x131
 8865 20a7 71060000 		.4byte	0x671
 8866 20ab 02       		.byte	0x2
 8867 20ac 91       		.byte	0x91
 8868 20ad 00       		.sleb128 0
 8869 20ae 36       		.uleb128 0x36
 8870 20af 3D050000 		.4byte	.LASF135
 8871 20b3 01       		.byte	0x1
 8872 20b4 3201     		.2byte	0x132
 8873 20b6 30000000 		.4byte	0x30
 8874 20ba 110F0000 		.4byte	.LLST110
ARM GAS  /tmp/ccLrOMZj.s 			page 157


 8875 20be 36       		.uleb128 0x36
 8876 20bf F0050000 		.4byte	.LASF115
 8877 20c3 01       		.byte	0x1
 8878 20c4 4F01     		.2byte	0x14f
 8879 20c6 86000000 		.4byte	0x86
 8880 20ca 2F0F0000 		.4byte	.LLST111
 8881 20ce 3B       		.uleb128 0x3b
 8882 20cf BD060000 		.4byte	0x6bd
 8883 20d3 6E000000 		.4byte	.LBB1299
 8884 20d7 00070000 		.4byte	.Ldebug_ranges0+0x700
 8885 20db 01       		.byte	0x1
 8886 20dc 4001     		.2byte	0x140
 8887 20de EC200000 		.4byte	0x20ec
 8888 20e2 1F       		.uleb128 0x1f
 8889 20e3 CA060000 		.4byte	0x6ca
 8890 20e7 430F0000 		.4byte	.LLST112
 8891 20eb 00       		.byte	0
 8892 20ec 3B       		.uleb128 0x3b
 8893 20ed D6060000 		.4byte	0x6d6
 8894 20f1 7C000000 		.4byte	.LBB1303
 8895 20f5 18070000 		.4byte	.Ldebug_ranges0+0x718
 8896 20f9 01       		.byte	0x1
 8897 20fa 5101     		.2byte	0x151
 8898 20fc 0A210000 		.4byte	0x210a
 8899 2100 1F       		.uleb128 0x1f
 8900 2101 E3060000 		.4byte	0x6e3
 8901 2105 650F0000 		.4byte	.LLST113
 8902 2109 00       		.byte	0
 8903 210a 2A       		.uleb128 0x2a
 8904 210b 6E000000 		.4byte	.LVL272
 8905 210f 66070000 		.4byte	0x766
 8906 2113 29       		.uleb128 0x29
 8907 2114 01       		.byte	0x1
 8908 2115 53       		.byte	0x53
 8909 2116 02       		.byte	0x2
 8910 2117 75       		.byte	0x75
 8911 2118 00       		.sleb128 0
 8912 2119 29       		.uleb128 0x29
 8913 211a 01       		.byte	0x1
 8914 211b 52       		.byte	0x52
 8915 211c 02       		.byte	0x2
 8916 211d 74       		.byte	0x74
 8917 211e 00       		.sleb128 0
 8918 211f 00       		.byte	0
 8919 2120 00       		.byte	0
 8920 2121 23       		.uleb128 0x23
 8921 2122 01       		.byte	0x1
 8922 2123 14060000 		.4byte	.LASF137
 8923 2127 03       		.byte	0x3
 8924 2128 27       		.byte	0x27
 8925 2129 01       		.byte	0x1
 8926 212a 00000000 		.4byte	.LFB118
 8927 212e D6020000 		.4byte	.LFE118
 8928 2132 830F0000 		.4byte	.LLST114
 8929 2136 01       		.byte	0x1
 8930 2137 59230000 		.4byte	0x2359
 8931 213b 1D       		.uleb128 0x1d
ARM GAS  /tmp/ccLrOMZj.s 			page 158


 8932 213c 783000   		.ascii	"x0\000"
 8933 213f 03       		.byte	0x3
 8934 2140 27       		.byte	0x27
 8935 2141 7B040000 		.4byte	0x47b
 8936 2145 AF0F0000 		.4byte	.LLST115
 8937 2149 1D       		.uleb128 0x1d
 8938 214a 793000   		.ascii	"y0\000"
 8939 214d 03       		.byte	0x3
 8940 214e 27       		.byte	0x27
 8941 214f 7B040000 		.4byte	0x47b
 8942 2153 9A100000 		.4byte	.LLST116
 8943 2157 1D       		.uleb128 0x1d
 8944 2158 783100   		.ascii	"x1\000"
 8945 215b 03       		.byte	0x3
 8946 215c 27       		.byte	0x27
 8947 215d 7B040000 		.4byte	0x47b
 8948 2161 85110000 		.4byte	.LLST117
 8949 2165 1D       		.uleb128 0x1d
 8950 2166 793100   		.ascii	"y1\000"
 8951 2169 03       		.byte	0x3
 8952 216a 27       		.byte	0x27
 8953 216b 7B040000 		.4byte	0x47b
 8954 216f 23120000 		.4byte	.LLST118
 8955 2173 3E       		.uleb128 0x3e
 8956 2174 CA050000 		.4byte	.LASF123
 8957 2178 03       		.byte	0x3
 8958 2179 27       		.byte	0x27
 8959 217a 71060000 		.4byte	0x671
 8960 217e 02       		.byte	0x2
 8961 217f 91       		.byte	0x91
 8962 2180 00       		.sleb128 0
 8963 2181 38       		.uleb128 0x38
 8964 2182 647900   		.ascii	"dy\000"
 8965 2185 03       		.byte	0x3
 8966 2186 28       		.byte	0x28
 8967 2187 50000000 		.4byte	0x50
 8968 218b C1120000 		.4byte	.LLST119
 8969 218f 38       		.uleb128 0x38
 8970 2190 647800   		.ascii	"dx\000"
 8971 2193 03       		.byte	0x3
 8972 2194 28       		.byte	0x28
 8973 2195 50000000 		.4byte	0x50
 8974 2199 0E130000 		.4byte	.LLST120
 8975 219d 3F       		.uleb128 0x3f
 8976 219e B0000000 		.4byte	.LASF138
 8977 21a2 03       		.byte	0x3
 8978 21a3 29       		.byte	0x29
 8979 21a4 50000000 		.4byte	0x50
 8980 21a8 50130000 		.4byte	.LLST121
 8981 21ac 3F       		.uleb128 0x3f
 8982 21ad B5000000 		.4byte	.LASF139
 8983 21b1 03       		.byte	0x3
 8984 21b2 29       		.byte	0x29
 8985 21b3 50000000 		.4byte	0x50
 8986 21b7 7B130000 		.4byte	.LLST122
 8987 21bb 38       		.uleb128 0x38
 8988 21bc 5000     		.ascii	"P\000"
ARM GAS  /tmp/ccLrOMZj.s 			page 159


 8989 21be 03       		.byte	0x3
 8990 21bf 2A       		.byte	0x2a
 8991 21c0 50000000 		.4byte	0x50
 8992 21c4 B2130000 		.4byte	.LLST123
 8993 21c8 3F       		.uleb128 0x3f
 8994 21c9 AB000000 		.4byte	.LASF140
 8995 21cd 03       		.byte	0x3
 8996 21ce 2A       		.byte	0x2a
 8997 21cf 50000000 		.4byte	0x50
 8998 21d3 F1130000 		.4byte	.LLST124
 8999 21d7 38       		.uleb128 0x38
 9000 21d8 6900     		.ascii	"i\000"
 9001 21da 03       		.byte	0x3
 9002 21db 2A       		.byte	0x2a
 9003 21dc 50000000 		.4byte	0x50
 9004 21e0 29140000 		.4byte	.LLST125
 9005 21e4 28       		.uleb128 0x28
 9006 21e5 70000000 		.4byte	.LVL291
 9007 21e9 3A070000 		.4byte	0x73a
 9008 21ed 04220000 		.4byte	0x2204
 9009 21f1 29       		.uleb128 0x29
 9010 21f2 01       		.byte	0x1
 9011 21f3 52       		.byte	0x52
 9012 21f4 02       		.byte	0x2
 9013 21f5 75       		.byte	0x75
 9014 21f6 00       		.sleb128 0
 9015 21f7 29       		.uleb128 0x29
 9016 21f8 01       		.byte	0x1
 9017 21f9 51       		.byte	0x51
 9018 21fa 02       		.byte	0x2
 9019 21fb 74       		.byte	0x74
 9020 21fc 00       		.sleb128 0
 9021 21fd 29       		.uleb128 0x29
 9022 21fe 01       		.byte	0x1
 9023 21ff 50       		.byte	0x50
 9024 2200 02       		.byte	0x2
 9025 2201 79       		.byte	0x79
 9026 2202 00       		.sleb128 0
 9027 2203 00       		.byte	0
 9028 2204 28       		.uleb128 0x28
 9029 2205 A4000000 		.4byte	.LVL296
 9030 2209 3A070000 		.4byte	0x73a
 9031 220d 24220000 		.4byte	0x2224
 9032 2211 29       		.uleb128 0x29
 9033 2212 01       		.byte	0x1
 9034 2213 52       		.byte	0x52
 9035 2214 02       		.byte	0x2
 9036 2215 75       		.byte	0x75
 9037 2216 00       		.sleb128 0
 9038 2217 29       		.uleb128 0x29
 9039 2218 01       		.byte	0x1
 9040 2219 51       		.byte	0x51
 9041 221a 02       		.byte	0x2
 9042 221b 74       		.byte	0x74
 9043 221c 00       		.sleb128 0
 9044 221d 29       		.uleb128 0x29
 9045 221e 01       		.byte	0x1
ARM GAS  /tmp/ccLrOMZj.s 			page 160


 9046 221f 50       		.byte	0x50
 9047 2220 02       		.byte	0x2
 9048 2221 79       		.byte	0x79
 9049 2222 00       		.sleb128 0
 9050 2223 00       		.byte	0
 9051 2224 28       		.uleb128 0x28
 9052 2225 D4000000 		.4byte	.LVL299
 9053 2229 3A070000 		.4byte	0x73a
 9054 222d 44220000 		.4byte	0x2244
 9055 2231 29       		.uleb128 0x29
 9056 2232 01       		.byte	0x1
 9057 2233 52       		.byte	0x52
 9058 2234 02       		.byte	0x2
 9059 2235 75       		.byte	0x75
 9060 2236 00       		.sleb128 0
 9061 2237 29       		.uleb128 0x29
 9062 2238 01       		.byte	0x1
 9063 2239 51       		.byte	0x51
 9064 223a 02       		.byte	0x2
 9065 223b 74       		.byte	0x74
 9066 223c 00       		.sleb128 0
 9067 223d 29       		.uleb128 0x29
 9068 223e 01       		.byte	0x1
 9069 223f 50       		.byte	0x50
 9070 2240 02       		.byte	0x2
 9071 2241 79       		.byte	0x79
 9072 2242 00       		.sleb128 0
 9073 2243 00       		.byte	0
 9074 2244 28       		.uleb128 0x28
 9075 2245 0E010000 		.4byte	.LVL303
 9076 2249 3A070000 		.4byte	0x73a
 9077 224d 64220000 		.4byte	0x2264
 9078 2251 29       		.uleb128 0x29
 9079 2252 01       		.byte	0x1
 9080 2253 52       		.byte	0x52
 9081 2254 02       		.byte	0x2
 9082 2255 75       		.byte	0x75
 9083 2256 00       		.sleb128 0
 9084 2257 29       		.uleb128 0x29
 9085 2258 01       		.byte	0x1
 9086 2259 51       		.byte	0x51
 9087 225a 02       		.byte	0x2
 9088 225b 74       		.byte	0x74
 9089 225c 00       		.sleb128 0
 9090 225d 29       		.uleb128 0x29
 9091 225e 01       		.byte	0x1
 9092 225f 50       		.byte	0x50
 9093 2260 02       		.byte	0x2
 9094 2261 79       		.byte	0x79
 9095 2262 00       		.sleb128 0
 9096 2263 00       		.byte	0
 9097 2264 28       		.uleb128 0x28
 9098 2265 74010000 		.4byte	.LVL316
 9099 2269 3A070000 		.4byte	0x73a
 9100 226d 84220000 		.4byte	0x2284
 9101 2271 29       		.uleb128 0x29
 9102 2272 01       		.byte	0x1
ARM GAS  /tmp/ccLrOMZj.s 			page 161


 9103 2273 52       		.byte	0x52
 9104 2274 02       		.byte	0x2
 9105 2275 75       		.byte	0x75
 9106 2276 00       		.sleb128 0
 9107 2277 29       		.uleb128 0x29
 9108 2278 01       		.byte	0x1
 9109 2279 51       		.byte	0x51
 9110 227a 02       		.byte	0x2
 9111 227b 74       		.byte	0x74
 9112 227c 00       		.sleb128 0
 9113 227d 29       		.uleb128 0x29
 9114 227e 01       		.byte	0x1
 9115 227f 50       		.byte	0x50
 9116 2280 02       		.byte	0x2
 9117 2281 79       		.byte	0x79
 9118 2282 00       		.sleb128 0
 9119 2283 00       		.byte	0
 9120 2284 28       		.uleb128 0x28
 9121 2285 A6010000 		.4byte	.LVL322
 9122 2289 3A070000 		.4byte	0x73a
 9123 228d A4220000 		.4byte	0x22a4
 9124 2291 29       		.uleb128 0x29
 9125 2292 01       		.byte	0x1
 9126 2293 52       		.byte	0x52
 9127 2294 02       		.byte	0x2
 9128 2295 75       		.byte	0x75
 9129 2296 00       		.sleb128 0
 9130 2297 29       		.uleb128 0x29
 9131 2298 01       		.byte	0x1
 9132 2299 51       		.byte	0x51
 9133 229a 02       		.byte	0x2
 9134 229b 74       		.byte	0x74
 9135 229c 00       		.sleb128 0
 9136 229d 29       		.uleb128 0x29
 9137 229e 01       		.byte	0x1
 9138 229f 50       		.byte	0x50
 9139 22a0 02       		.byte	0x2
 9140 22a1 79       		.byte	0x79
 9141 22a2 00       		.sleb128 0
 9142 22a3 00       		.byte	0
 9143 22a4 28       		.uleb128 0x28
 9144 22a5 D6010000 		.4byte	.LVL325
 9145 22a9 3A070000 		.4byte	0x73a
 9146 22ad C4220000 		.4byte	0x22c4
 9147 22b1 29       		.uleb128 0x29
 9148 22b2 01       		.byte	0x1
 9149 22b3 52       		.byte	0x52
 9150 22b4 02       		.byte	0x2
 9151 22b5 75       		.byte	0x75
 9152 22b6 00       		.sleb128 0
 9153 22b7 29       		.uleb128 0x29
 9154 22b8 01       		.byte	0x1
 9155 22b9 51       		.byte	0x51
 9156 22ba 02       		.byte	0x2
 9157 22bb 74       		.byte	0x74
 9158 22bc 00       		.sleb128 0
 9159 22bd 29       		.uleb128 0x29
ARM GAS  /tmp/ccLrOMZj.s 			page 162


 9160 22be 01       		.byte	0x1
 9161 22bf 50       		.byte	0x50
 9162 22c0 02       		.byte	0x2
 9163 22c1 79       		.byte	0x79
 9164 22c2 00       		.sleb128 0
 9165 22c3 00       		.byte	0
 9166 22c4 28       		.uleb128 0x28
 9167 22c5 0C020000 		.4byte	.LVL330
 9168 22c9 3A070000 		.4byte	0x73a
 9169 22cd E4220000 		.4byte	0x22e4
 9170 22d1 29       		.uleb128 0x29
 9171 22d2 01       		.byte	0x1
 9172 22d3 52       		.byte	0x52
 9173 22d4 02       		.byte	0x2
 9174 22d5 75       		.byte	0x75
 9175 22d6 00       		.sleb128 0
 9176 22d7 29       		.uleb128 0x29
 9177 22d8 01       		.byte	0x1
 9178 22d9 51       		.byte	0x51
 9179 22da 02       		.byte	0x2
 9180 22db 74       		.byte	0x74
 9181 22dc 00       		.sleb128 0
 9182 22dd 29       		.uleb128 0x29
 9183 22de 01       		.byte	0x1
 9184 22df 50       		.byte	0x50
 9185 22e0 02       		.byte	0x2
 9186 22e1 79       		.byte	0x79
 9187 22e2 00       		.sleb128 0
 9188 22e3 00       		.byte	0
 9189 22e4 40       		.uleb128 0x40
 9190 22e5 42020000 		.4byte	.LVL335
 9191 22e9 01       		.byte	0x1
 9192 22ea 4A200000 		.4byte	0x204a
 9193 22ee FF220000 		.4byte	0x22ff
 9194 22f2 29       		.uleb128 0x29
 9195 22f3 01       		.byte	0x1
 9196 22f4 52       		.byte	0x52
 9197 22f5 01       		.byte	0x1
 9198 22f6 31       		.byte	0x31
 9199 22f7 29       		.uleb128 0x29
 9200 22f8 02       		.byte	0x2
 9201 22f9 91       		.byte	0x91
 9202 22fa 00       		.sleb128 0
 9203 22fb 02       		.byte	0x2
 9204 22fc 75       		.byte	0x75
 9205 22fd 00       		.sleb128 0
 9206 22fe 00       		.byte	0
 9207 22ff 40       		.uleb128 0x40
 9208 2300 5C020000 		.4byte	.LVL338
 9209 2304 01       		.byte	0x1
 9210 2305 4A200000 		.4byte	0x204a
 9211 2309 1A230000 		.4byte	0x231a
 9212 230d 29       		.uleb128 0x29
 9213 230e 01       		.byte	0x1
 9214 230f 53       		.byte	0x53
 9215 2310 01       		.byte	0x1
 9216 2311 31       		.byte	0x31
ARM GAS  /tmp/ccLrOMZj.s 			page 163


 9217 2312 29       		.uleb128 0x29
 9218 2313 02       		.byte	0x2
 9219 2314 91       		.byte	0x91
 9220 2315 00       		.sleb128 0
 9221 2316 02       		.byte	0x2
 9222 2317 75       		.byte	0x75
 9223 2318 00       		.sleb128 0
 9224 2319 00       		.byte	0
 9225 231a 40       		.uleb128 0x40
 9226 231b 96020000 		.4byte	.LVL344
 9227 231f 01       		.byte	0x1
 9228 2320 4A200000 		.4byte	0x204a
 9229 2324 3B230000 		.4byte	0x233b
 9230 2328 29       		.uleb128 0x29
 9231 2329 01       		.byte	0x1
 9232 232a 53       		.byte	0x53
 9233 232b 02       		.byte	0x2
 9234 232c 74       		.byte	0x74
 9235 232d 00       		.sleb128 0
 9236 232e 29       		.uleb128 0x29
 9237 232f 01       		.byte	0x1
 9238 2330 52       		.byte	0x52
 9239 2331 01       		.byte	0x1
 9240 2332 31       		.byte	0x31
 9241 2333 29       		.uleb128 0x29
 9242 2334 02       		.byte	0x2
 9243 2335 91       		.byte	0x91
 9244 2336 00       		.sleb128 0
 9245 2337 02       		.byte	0x2
 9246 2338 75       		.byte	0x75
 9247 2339 00       		.sleb128 0
 9248 233a 00       		.byte	0
 9249 233b 41       		.uleb128 0x41
 9250 233c B2020000 		.4byte	.LVL348
 9251 2340 01       		.byte	0x1
 9252 2341 4A200000 		.4byte	0x204a
 9253 2345 29       		.uleb128 0x29
 9254 2346 01       		.byte	0x1
 9255 2347 53       		.byte	0x53
 9256 2348 01       		.byte	0x1
 9257 2349 31       		.byte	0x31
 9258 234a 29       		.uleb128 0x29
 9259 234b 01       		.byte	0x1
 9260 234c 52       		.byte	0x52
 9261 234d 02       		.byte	0x2
 9262 234e 79       		.byte	0x79
 9263 234f 00       		.sleb128 0
 9264 2350 29       		.uleb128 0x29
 9265 2351 02       		.byte	0x2
 9266 2352 91       		.byte	0x91
 9267 2353 00       		.sleb128 0
 9268 2354 02       		.byte	0x2
 9269 2355 75       		.byte	0x75
 9270 2356 00       		.sleb128 0
 9271 2357 00       		.byte	0
 9272 2358 00       		.byte	0
 9273 2359 23       		.uleb128 0x23
ARM GAS  /tmp/ccLrOMZj.s 			page 164


 9274 235a 01       		.byte	0x1
 9275 235b 45010000 		.4byte	.LASF141
 9276 235f 03       		.byte	0x3
 9277 2360 C3       		.byte	0xc3
 9278 2361 01       		.byte	0x1
 9279 2362 00000000 		.4byte	.LFB121
 9280 2366 E6000000 		.4byte	.LFE121
 9281 236a 55140000 		.4byte	.LLST126
 9282 236e 01       		.byte	0x1
 9283 236f 97240000 		.4byte	0x2497
 9284 2373 1D       		.uleb128 0x1d
 9285 2374 7800     		.ascii	"x\000"
 9286 2376 03       		.byte	0x3
 9287 2377 C3       		.byte	0xc3
 9288 2378 7B040000 		.4byte	0x47b
 9289 237c 82140000 		.4byte	.LLST127
 9290 2380 1D       		.uleb128 0x1d
 9291 2381 7900     		.ascii	"y\000"
 9292 2383 03       		.byte	0x3
 9293 2384 C3       		.byte	0xc3
 9294 2385 7B040000 		.4byte	0x47b
 9295 2389 A0140000 		.4byte	.LLST128
 9296 238d 37       		.uleb128 0x37
 9297 238e 87030000 		.4byte	.LASF132
 9298 2392 03       		.byte	0x3
 9299 2393 C3       		.byte	0xc3
 9300 2394 7B040000 		.4byte	0x47b
 9301 2398 BE140000 		.4byte	.LLST129
 9302 239c 37       		.uleb128 0x37
 9303 239d CA050000 		.4byte	.LASF123
 9304 23a1 03       		.byte	0x3
 9305 23a2 C3       		.byte	0xc3
 9306 23a3 71060000 		.4byte	0x671
 9307 23a7 DF140000 		.4byte	.LLST130
 9308 23ab 38       		.uleb128 0x38
 9309 23ac 6100     		.ascii	"a\000"
 9310 23ae 03       		.byte	0x3
 9311 23af C4       		.byte	0xc4
 9312 23b0 7B040000 		.4byte	0x47b
 9313 23b4 00150000 		.4byte	.LLST131
 9314 23b8 38       		.uleb128 0x38
 9315 23b9 6200     		.ascii	"b\000"
 9316 23bb 03       		.byte	0x3
 9317 23bc C4       		.byte	0xc4
 9318 23bd 7B040000 		.4byte	0x47b
 9319 23c1 40150000 		.4byte	.LLST132
 9320 23c5 39       		.uleb128 0x39
 9321 23c6 5000     		.ascii	"P\000"
 9322 23c8 03       		.byte	0x3
 9323 23c9 C4       		.byte	0xc4
 9324 23ca 7B040000 		.4byte	0x47b
 9325 23ce 02       		.byte	0x2
 9326 23cf 91       		.byte	0x91
 9327 23d0 50       		.sleb128 -48
 9328 23d1 28       		.uleb128 0x28
 9329 23d2 80000000 		.4byte	.LVL362
 9330 23d6 21210000 		.4byte	0x2121
ARM GAS  /tmp/ccLrOMZj.s 			page 165


 9331 23da 07240000 		.4byte	0x2407
 9332 23de 29       		.uleb128 0x29
 9333 23df 01       		.byte	0x1
 9334 23e0 53       		.byte	0x53
 9335 23e1 05       		.byte	0x5
 9336 23e2 75       		.byte	0x75
 9337 23e3 00       		.sleb128 0
 9338 23e4 76       		.byte	0x76
 9339 23e5 00       		.sleb128 0
 9340 23e6 22       		.byte	0x22
 9341 23e7 29       		.uleb128 0x29
 9342 23e8 01       		.byte	0x1
 9343 23e9 52       		.byte	0x52
 9344 23ea 02       		.byte	0x2
 9345 23eb 7B       		.byte	0x7b
 9346 23ec 00       		.sleb128 0
 9347 23ed 29       		.uleb128 0x29
 9348 23ee 01       		.byte	0x1
 9349 23ef 51       		.byte	0x51
 9350 23f0 05       		.byte	0x5
 9351 23f1 75       		.byte	0x75
 9352 23f2 00       		.sleb128 0
 9353 23f3 76       		.byte	0x76
 9354 23f4 00       		.sleb128 0
 9355 23f5 22       		.byte	0x22
 9356 23f6 29       		.uleb128 0x29
 9357 23f7 01       		.byte	0x1
 9358 23f8 50       		.byte	0x50
 9359 23f9 05       		.byte	0x5
 9360 23fa 78       		.byte	0x78
 9361 23fb 00       		.sleb128 0
 9362 23fc 74       		.byte	0x74
 9363 23fd 00       		.sleb128 0
 9364 23fe 1C       		.byte	0x1c
 9365 23ff 29       		.uleb128 0x29
 9366 2400 02       		.byte	0x2
 9367 2401 7D       		.byte	0x7d
 9368 2402 00       		.sleb128 0
 9369 2403 02       		.byte	0x2
 9370 2404 77       		.byte	0x77
 9371 2405 00       		.sleb128 0
 9372 2406 00       		.byte	0
 9373 2407 28       		.uleb128 0x28
 9374 2408 94000000 		.4byte	.LVL363
 9375 240c 21210000 		.4byte	0x2121
 9376 2410 34240000 		.4byte	0x2434
 9377 2414 29       		.uleb128 0x29
 9378 2415 01       		.byte	0x1
 9379 2416 53       		.byte	0x53
 9380 2417 05       		.byte	0x5
 9381 2418 76       		.byte	0x76
 9382 2419 00       		.sleb128 0
 9383 241a 75       		.byte	0x75
 9384 241b 00       		.sleb128 0
 9385 241c 1C       		.byte	0x1c
 9386 241d 29       		.uleb128 0x29
 9387 241e 01       		.byte	0x1
ARM GAS  /tmp/ccLrOMZj.s 			page 166


 9388 241f 52       		.byte	0x52
 9389 2420 02       		.byte	0x2
 9390 2421 7B       		.byte	0x7b
 9391 2422 00       		.sleb128 0
 9392 2423 29       		.uleb128 0x29
 9393 2424 01       		.byte	0x1
 9394 2425 51       		.byte	0x51
 9395 2426 05       		.byte	0x5
 9396 2427 76       		.byte	0x76
 9397 2428 00       		.sleb128 0
 9398 2429 75       		.byte	0x75
 9399 242a 00       		.sleb128 0
 9400 242b 1C       		.byte	0x1c
 9401 242c 29       		.uleb128 0x29
 9402 242d 02       		.byte	0x2
 9403 242e 7D       		.byte	0x7d
 9404 242f 00       		.sleb128 0
 9405 2430 02       		.byte	0x2
 9406 2431 77       		.byte	0x77
 9407 2432 00       		.sleb128 0
 9408 2433 00       		.byte	0
 9409 2434 28       		.uleb128 0x28
 9410 2435 B0000000 		.4byte	.LVL364
 9411 2439 21210000 		.4byte	0x2121
 9412 243d 67240000 		.4byte	0x2467
 9413 2441 29       		.uleb128 0x29
 9414 2442 01       		.byte	0x1
 9415 2443 53       		.byte	0x53
 9416 2444 05       		.byte	0x5
 9417 2445 76       		.byte	0x76
 9418 2446 00       		.sleb128 0
 9419 2447 74       		.byte	0x74
 9420 2448 00       		.sleb128 0
 9421 2449 22       		.byte	0x22
 9422 244a 29       		.uleb128 0x29
 9423 244b 01       		.byte	0x1
 9424 244c 52       		.byte	0x52
 9425 244d 02       		.byte	0x2
 9426 244e 75       		.byte	0x75
 9427 244f 00       		.sleb128 0
 9428 2450 29       		.uleb128 0x29
 9429 2451 01       		.byte	0x1
 9430 2452 51       		.byte	0x51
 9431 2453 05       		.byte	0x5
 9432 2454 76       		.byte	0x76
 9433 2455 00       		.sleb128 0
 9434 2456 74       		.byte	0x74
 9435 2457 00       		.sleb128 0
 9436 2458 22       		.byte	0x22
 9437 2459 29       		.uleb128 0x29
 9438 245a 01       		.byte	0x1
 9439 245b 50       		.byte	0x50
 9440 245c 02       		.byte	0x2
 9441 245d 7B       		.byte	0x7b
 9442 245e 00       		.sleb128 0
 9443 245f 29       		.uleb128 0x29
 9444 2460 02       		.byte	0x2
ARM GAS  /tmp/ccLrOMZj.s 			page 167


 9445 2461 7D       		.byte	0x7d
 9446 2462 00       		.sleb128 0
 9447 2463 02       		.byte	0x2
 9448 2464 77       		.byte	0x77
 9449 2465 00       		.sleb128 0
 9450 2466 00       		.byte	0
 9451 2467 2A       		.uleb128 0x2a
 9452 2468 C0000000 		.4byte	.LVL365
 9453 246c 21210000 		.4byte	0x2121
 9454 2470 29       		.uleb128 0x29
 9455 2471 01       		.byte	0x1
 9456 2472 53       		.byte	0x53
 9457 2473 05       		.byte	0x5
 9458 2474 76       		.byte	0x76
 9459 2475 00       		.sleb128 0
 9460 2476 74       		.byte	0x74
 9461 2477 00       		.sleb128 0
 9462 2478 1C       		.byte	0x1c
 9463 2479 29       		.uleb128 0x29
 9464 247a 01       		.byte	0x1
 9465 247b 52       		.byte	0x52
 9466 247c 02       		.byte	0x2
 9467 247d 75       		.byte	0x75
 9468 247e 00       		.sleb128 0
 9469 247f 29       		.uleb128 0x29
 9470 2480 01       		.byte	0x1
 9471 2481 51       		.byte	0x51
 9472 2482 05       		.byte	0x5
 9473 2483 76       		.byte	0x76
 9474 2484 00       		.sleb128 0
 9475 2485 74       		.byte	0x74
 9476 2486 00       		.sleb128 0
 9477 2487 1C       		.byte	0x1c
 9478 2488 29       		.uleb128 0x29
 9479 2489 01       		.byte	0x1
 9480 248a 50       		.byte	0x50
 9481 248b 02       		.byte	0x2
 9482 248c 7B       		.byte	0x7b
 9483 248d 00       		.sleb128 0
 9484 248e 29       		.uleb128 0x29
 9485 248f 02       		.byte	0x2
 9486 2490 7D       		.byte	0x7d
 9487 2491 00       		.sleb128 0
 9488 2492 02       		.byte	0x2
 9489 2493 77       		.byte	0x77
 9490 2494 00       		.sleb128 0
 9491 2495 00       		.byte	0
 9492 2496 00       		.byte	0
 9493 2497 31       		.uleb128 0x31
 9494 2498 01       		.byte	0x1
 9495 2499 19040000 		.4byte	.LASF142
 9496 249d 01       		.byte	0x1
 9497 249e 6601     		.2byte	0x166
 9498 24a0 01       		.byte	0x1
 9499 24a1 00000000 		.4byte	.LFB139
 9500 24a5 44010000 		.4byte	.LFE139
 9501 24a9 76150000 		.4byte	.LLST133
ARM GAS  /tmp/ccLrOMZj.s 			page 168


 9502 24ad 01       		.byte	0x1
 9503 24ae B3250000 		.4byte	0x25b3
 9504 24b2 32       		.uleb128 0x32
 9505 24b3 7800     		.ascii	"x\000"
 9506 24b5 01       		.byte	0x1
 9507 24b6 6601     		.2byte	0x166
 9508 24b8 7B040000 		.4byte	0x47b
 9509 24bc 96150000 		.4byte	.LLST134
 9510 24c0 32       		.uleb128 0x32
 9511 24c1 7900     		.ascii	"y\000"
 9512 24c3 01       		.byte	0x1
 9513 24c4 6601     		.2byte	0x166
 9514 24c6 7B040000 		.4byte	0x47b
 9515 24ca CE150000 		.4byte	.LLST135
 9516 24ce 32       		.uleb128 0x32
 9517 24cf 637800   		.ascii	"cx\000"
 9518 24d2 01       		.byte	0x1
 9519 24d3 6601     		.2byte	0x166
 9520 24d5 7B040000 		.4byte	0x47b
 9521 24d9 14160000 		.4byte	.LLST136
 9522 24dd 32       		.uleb128 0x32
 9523 24de 637900   		.ascii	"cy\000"
 9524 24e1 01       		.byte	0x1
 9525 24e2 6601     		.2byte	0x166
 9526 24e4 7B040000 		.4byte	0x47b
 9527 24e8 4B160000 		.4byte	.LLST137
 9528 24ec 33       		.uleb128 0x33
 9529 24ed DD050000 		.4byte	.LASF143
 9530 24f1 01       		.byte	0x1
 9531 24f2 6601     		.2byte	0x166
 9532 24f4 7B040000 		.4byte	0x47b
 9533 24f8 77160000 		.4byte	.LLST138
 9534 24fc 33       		.uleb128 0x33
 9535 24fd E2050000 		.4byte	.LASF144
 9536 2501 01       		.byte	0x1
 9537 2502 6601     		.2byte	0x166
 9538 2504 7B040000 		.4byte	0x47b
 9539 2508 96160000 		.4byte	.LLST139
 9540 250c 34       		.uleb128 0x34
 9541 250d 7D060000 		.4byte	.LASF145
 9542 2511 01       		.byte	0x1
 9543 2512 6601     		.2byte	0x166
 9544 2514 7B040000 		.4byte	0x47b
 9545 2518 02       		.byte	0x2
 9546 2519 91       		.byte	0x91
 9547 251a 08       		.sleb128 8
 9548 251b 33       		.uleb128 0x33
 9549 251c 65050000 		.4byte	.LASF146
 9550 2520 01       		.byte	0x1
 9551 2521 6601     		.2byte	0x166
 9552 2523 B3250000 		.4byte	0x25b3
 9553 2527 B5160000 		.4byte	.LLST140
 9554 252b 36       		.uleb128 0x36
 9555 252c 67060000 		.4byte	.LASF147
 9556 2530 01       		.byte	0x1
 9557 2531 8501     		.2byte	0x185
 9558 2533 7B040000 		.4byte	0x47b
ARM GAS  /tmp/ccLrOMZj.s 			page 169


 9559 2537 DF160000 		.4byte	.LLST141
 9560 253b 36       		.uleb128 0x36
 9561 253c 6C060000 		.4byte	.LASF148
 9562 2540 01       		.byte	0x1
 9563 2541 8501     		.2byte	0x185
 9564 2543 7B040000 		.4byte	0x47b
 9565 2547 FD160000 		.4byte	.LLST142
 9566 254b 35       		.uleb128 0x35
 9567 254c 6C6700   		.ascii	"lg\000"
 9568 254f 01       		.byte	0x1
 9569 2550 8601     		.2byte	0x186
 9570 2552 86000000 		.4byte	0x86
 9571 2556 15170000 		.4byte	.LLST143
 9572 255a 3B       		.uleb128 0x3b
 9573 255b BD060000 		.4byte	0x6bd
 9574 255f BA000000 		.4byte	.LBB1311
 9575 2563 40070000 		.4byte	.Ldebug_ranges0+0x740
 9576 2567 01       		.byte	0x1
 9577 2568 7501     		.2byte	0x175
 9578 256a 78250000 		.4byte	0x2578
 9579 256e 1F       		.uleb128 0x1f
 9580 256f CA060000 		.4byte	0x6ca
 9581 2573 28170000 		.4byte	.LLST144
 9582 2577 00       		.byte	0
 9583 2578 3B       		.uleb128 0x3b
 9584 2579 D6060000 		.4byte	0x6d6
 9585 257d DA000000 		.4byte	.LBB1317
 9586 2581 60070000 		.4byte	.Ldebug_ranges0+0x760
 9587 2585 01       		.byte	0x1
 9588 2586 8C01     		.2byte	0x18c
 9589 2588 96250000 		.4byte	0x2596
 9590 258c 1F       		.uleb128 0x1f
 9591 258d E3060000 		.4byte	0x6e3
 9592 2591 3D170000 		.4byte	.LLST145
 9593 2595 00       		.byte	0
 9594 2596 2A       		.uleb128 0x2a
 9595 2597 B0000000 		.4byte	.LVL385
 9596 259b 66070000 		.4byte	0x766
 9597 259f 29       		.uleb128 0x29
 9598 25a0 01       		.byte	0x1
 9599 25a1 53       		.byte	0x53
 9600 25a2 02       		.byte	0x2
 9601 25a3 79       		.byte	0x79
 9602 25a4 00       		.sleb128 0
 9603 25a5 29       		.uleb128 0x29
 9604 25a6 01       		.byte	0x1
 9605 25a7 52       		.byte	0x52
 9606 25a8 02       		.byte	0x2
 9607 25a9 74       		.byte	0x74
 9608 25aa 00       		.sleb128 0
 9609 25ab 29       		.uleb128 0x29
 9610 25ac 01       		.byte	0x1
 9611 25ad 51       		.byte	0x51
 9612 25ae 02       		.byte	0x2
 9613 25af 76       		.byte	0x76
 9614 25b0 00       		.sleb128 0
 9615 25b1 00       		.byte	0
ARM GAS  /tmp/ccLrOMZj.s 			page 170


 9616 25b2 00       		.byte	0
 9617 25b3 07       		.uleb128 0x7
 9618 25b4 04       		.byte	0x4
 9619 25b5 B9250000 		.4byte	0x25b9
 9620 25b9 08       		.uleb128 0x8
 9621 25ba 7C060000 		.4byte	0x67c
 9622 25be 31       		.uleb128 0x31
 9623 25bf 01       		.byte	0x1
 9624 25c0 4F000000 		.4byte	.LASF149
 9625 25c4 03       		.byte	0x3
 9626 25c5 F801     		.2byte	0x1f8
 9627 25c7 01       		.byte	0x1
 9628 25c8 00000000 		.4byte	.LFB123
 9629 25cc BC010000 		.4byte	.LFE123
 9630 25d0 51170000 		.4byte	.LLST146
 9631 25d4 01       		.byte	0x1
 9632 25d5 29270000 		.4byte	0x2729
 9633 25d9 32       		.uleb128 0x32
 9634 25da 7800     		.ascii	"x\000"
 9635 25dc 03       		.byte	0x3
 9636 25dd F801     		.2byte	0x1f8
 9637 25df 7B040000 		.4byte	0x47b
 9638 25e3 7E170000 		.4byte	.LLST147
 9639 25e7 32       		.uleb128 0x32
 9640 25e8 7900     		.ascii	"y\000"
 9641 25ea 03       		.byte	0x3
 9642 25eb F801     		.2byte	0x1f8
 9643 25ed 7B040000 		.4byte	0x47b
 9644 25f1 9F170000 		.4byte	.LLST148
 9645 25f5 32       		.uleb128 0x32
 9646 25f6 6300     		.ascii	"c\000"
 9647 25f8 03       		.byte	0x3
 9648 25f9 F801     		.2byte	0x1f8
 9649 25fb E7000000 		.4byte	0xe7
 9650 25ff C0170000 		.4byte	.LLST149
 9651 2603 33       		.uleb128 0x33
 9652 2604 96060000 		.4byte	.LASF96
 9653 2608 03       		.byte	0x3
 9654 2609 F801     		.2byte	0x1f8
 9655 260b 86040000 		.4byte	0x486
 9656 260f E1170000 		.4byte	.LLST150
 9657 2613 34       		.uleb128 0x34
 9658 2614 CA050000 		.4byte	.LASF123
 9659 2618 03       		.byte	0x3
 9660 2619 F801     		.2byte	0x1f8
 9661 261b 71060000 		.4byte	0x671
 9662 261f 02       		.byte	0x2
 9663 2620 91       		.byte	0x91
 9664 2621 00       		.sleb128 0
 9665 2622 34       		.uleb128 0x34
 9666 2623 15030000 		.4byte	.LASF150
 9667 2627 03       		.byte	0x3
 9668 2628 F801     		.2byte	0x1f8
 9669 262a 71060000 		.4byte	0x671
 9670 262e 02       		.byte	0x2
 9671 262f 91       		.byte	0x91
 9672 2630 04       		.sleb128 4
ARM GAS  /tmp/ccLrOMZj.s 			page 171


 9673 2631 36       		.uleb128 0x36
 9674 2632 B4020000 		.4byte	.LASF130
 9675 2636 03       		.byte	0x3
 9676 2637 F901     		.2byte	0x1f9
 9677 2639 7B040000 		.4byte	0x47b
 9678 263d 02180000 		.4byte	.LLST151
 9679 2641 36       		.uleb128 0x36
 9680 2642 19070000 		.4byte	.LASF71
 9681 2646 03       		.byte	0x3
 9682 2647 F901     		.2byte	0x1f9
 9683 2649 7B040000 		.4byte	0x47b
 9684 264d 4A180000 		.4byte	.LLST152
 9685 2651 36       		.uleb128 0x36
 9686 2652 80030000 		.4byte	.LASF79
 9687 2656 03       		.byte	0x3
 9688 2657 FA01     		.2byte	0x1fa
 9689 2659 7B040000 		.4byte	0x47b
 9690 265d B0180000 		.4byte	.LLST153
 9691 2661 42       		.uleb128 0x42
 9692 2662 58040000 		.4byte	.LASF80
 9693 2666 03       		.byte	0x3
 9694 2667 FA01     		.2byte	0x1fa
 9695 2669 7B040000 		.4byte	0x47b
 9696 266d 26       		.uleb128 0x26
 9697 266e 98070000 		.4byte	.Ldebug_ranges0+0x798
 9698 2672 35       		.uleb128 0x35
 9699 2673 70747200 		.ascii	"ptr\000"
 9700 2677 03       		.byte	0x3
 9701 2678 3A02     		.2byte	0x23a
 9702 267a 99060000 		.4byte	0x699
 9703 267e DE180000 		.4byte	.LLST154
 9704 2682 36       		.uleb128 0x36
 9705 2683 42060000 		.4byte	.LASF129
 9706 2687 03       		.byte	0x3
 9707 2688 3B02     		.2byte	0x23b
 9708 268a 88060000 		.4byte	0x688
 9709 268e 2B190000 		.4byte	.LLST155
 9710 2692 35       		.uleb128 0x35
 9711 2693 6900     		.ascii	"i\000"
 9712 2695 03       		.byte	0x3
 9713 2696 3C02     		.2byte	0x23c
 9714 2698 7B040000 		.4byte	0x47b
 9715 269c 4B190000 		.4byte	.LLST156
 9716 26a0 35       		.uleb128 0x35
 9717 26a1 6A00     		.ascii	"j\000"
 9718 26a3 03       		.byte	0x3
 9719 26a4 3C02     		.2byte	0x23c
 9720 26a6 7B040000 		.4byte	0x47b
 9721 26aa 77190000 		.4byte	.LLST157
 9722 26ae 35       		.uleb128 0x35
 9723 26af 787300   		.ascii	"xs\000"
 9724 26b2 03       		.byte	0x3
 9725 26b3 3C02     		.2byte	0x23c
 9726 26b5 7B040000 		.4byte	0x47b
 9727 26b9 96190000 		.4byte	.LLST158
 9728 26bd 35       		.uleb128 0x35
 9729 26be 797300   		.ascii	"ys\000"
ARM GAS  /tmp/ccLrOMZj.s 			page 172


 9730 26c1 03       		.byte	0x3
 9731 26c2 3C02     		.2byte	0x23c
 9732 26c4 7B040000 		.4byte	0x47b
 9733 26c8 CC190000 		.4byte	.LLST159
 9734 26cc 43       		.uleb128 0x43
 9735 26cd 62756600 		.ascii	"buf\000"
 9736 26d1 03       		.byte	0x3
 9737 26d2 4202     		.2byte	0x242
 9738 26d4 29270000 		.4byte	0x2729
 9739 26d8 05       		.byte	0x5
 9740 26d9 03       		.byte	0x3
 9741 26da 00000000 		.4byte	buf.7794
 9742 26de 2A       		.uleb128 0x2a
 9743 26df 3E010000 		.4byte	.LVL426
 9744 26e3 97240000 		.4byte	0x2497
 9745 26e7 29       		.uleb128 0x29
 9746 26e8 01       		.byte	0x1
 9747 26e9 53       		.byte	0x53
 9748 26ea 05       		.byte	0x5
 9749 26eb 91       		.byte	0x91
 9750 26ec B07F     		.sleb128 -80
 9751 26ee 94       		.byte	0x94
 9752 26ef 02       		.byte	0x2
 9753 26f0 29       		.uleb128 0x29
 9754 26f1 01       		.byte	0x1
 9755 26f2 52       		.byte	0x52
 9756 26f3 04       		.byte	0x4
 9757 26f4 91       		.byte	0x91
 9758 26f5 44       		.sleb128 -60
 9759 26f6 94       		.byte	0x94
 9760 26f7 02       		.byte	0x2
 9761 26f8 29       		.uleb128 0x29
 9762 26f9 01       		.byte	0x1
 9763 26fa 51       		.byte	0x51
 9764 26fb 04       		.byte	0x4
 9765 26fc 91       		.byte	0x91
 9766 26fd 54       		.sleb128 -44
 9767 26fe 94       		.byte	0x94
 9768 26ff 02       		.byte	0x2
 9769 2700 29       		.uleb128 0x29
 9770 2701 01       		.byte	0x1
 9771 2702 50       		.byte	0x50
 9772 2703 04       		.byte	0x4
 9773 2704 91       		.byte	0x91
 9774 2705 50       		.sleb128 -48
 9775 2706 94       		.byte	0x94
 9776 2707 02       		.byte	0x2
 9777 2708 29       		.uleb128 0x29
 9778 2709 02       		.byte	0x2
 9779 270a 7D       		.byte	0x7d
 9780 270b 0C       		.sleb128 12
 9781 270c 04       		.byte	0x4
 9782 270d 91       		.byte	0x91
 9783 270e BC7F     		.sleb128 -68
 9784 2710 06       		.byte	0x6
 9785 2711 29       		.uleb128 0x29
 9786 2712 02       		.byte	0x2
ARM GAS  /tmp/ccLrOMZj.s 			page 173


 9787 2713 7D       		.byte	0x7d
 9788 2714 08       		.sleb128 8
 9789 2715 04       		.byte	0x4
 9790 2716 91       		.byte	0x91
 9791 2717 44       		.sleb128 -60
 9792 2718 94       		.byte	0x94
 9793 2719 02       		.byte	0x2
 9794 271a 29       		.uleb128 0x29
 9795 271b 02       		.byte	0x2
 9796 271c 7D       		.byte	0x7d
 9797 271d 04       		.sleb128 4
 9798 271e 01       		.byte	0x1
 9799 271f 30       		.byte	0x30
 9800 2720 29       		.uleb128 0x29
 9801 2721 02       		.byte	0x2
 9802 2722 7D       		.byte	0x7d
 9803 2723 00       		.sleb128 0
 9804 2724 01       		.byte	0x1
 9805 2725 30       		.byte	0x30
 9806 2726 00       		.byte	0
 9807 2727 00       		.byte	0
 9808 2728 00       		.byte	0
 9809 2729 09       		.uleb128 0x9
 9810 272a 7C060000 		.4byte	0x67c
 9811 272e 3A270000 		.4byte	0x273a
 9812 2732 44       		.uleb128 0x44
 9813 2733 D5000000 		.4byte	0xd5
 9814 2737 7F02     		.2byte	0x27f
 9815 2739 00       		.byte	0
 9816 273a 31       		.uleb128 0x31
 9817 273b 01       		.byte	0x1
 9818 273c 3A070000 		.4byte	.LASF151
 9819 2740 01       		.byte	0x1
 9820 2741 1B02     		.2byte	0x21b
 9821 2743 01       		.byte	0x1
 9822 2744 00000000 		.4byte	.LFB140
 9823 2748 70010000 		.4byte	.LFE140
 9824 274c EC190000 		.4byte	.LLST160
 9825 2750 01       		.byte	0x1
 9826 2751 BD2A0000 		.4byte	0x2abd
 9827 2755 33       		.uleb128 0x33
 9828 2756 91060000 		.4byte	.LASF152
 9829 275a 01       		.byte	0x1
 9830 275b 1B02     		.2byte	0x21b
 9831 275d 30000000 		.4byte	0x30
 9832 2761 0C1A0000 		.4byte	.LLST161
 9833 2765 33       		.uleb128 0x33
 9834 2766 03020000 		.4byte	.LASF153
 9835 276a 01       		.byte	0x1
 9836 276b 1B02     		.2byte	0x21b
 9837 276d CE000000 		.4byte	0xce
 9838 2771 781A0000 		.4byte	.LLST162
 9839 2775 3B       		.uleb128 0x3b
 9840 2776 D6060000 		.4byte	0x6d6
 9841 277a 30000000 		.4byte	.LBB1332
 9842 277e B8070000 		.4byte	.Ldebug_ranges0+0x7b8
 9843 2782 01       		.byte	0x1
ARM GAS  /tmp/ccLrOMZj.s 			page 174


 9844 2783 2302     		.2byte	0x223
 9845 2785 93270000 		.4byte	0x2793
 9846 2789 1F       		.uleb128 0x1f
 9847 278a E3060000 		.4byte	0x6e3
 9848 278e FD1A0000 		.4byte	.LLST163
 9849 2792 00       		.byte	0
 9850 2793 3B       		.uleb128 0x3b
 9851 2794 BD060000 		.4byte	0x6bd
 9852 2798 32000000 		.4byte	.LBB1336
 9853 279c D8070000 		.4byte	.Ldebug_ranges0+0x7d8
 9854 27a0 01       		.byte	0x1
 9855 27a1 2302     		.2byte	0x223
 9856 27a3 B1270000 		.4byte	0x27b1
 9857 27a7 1F       		.uleb128 0x1f
 9858 27a8 CA060000 		.4byte	0x6ca
 9859 27ac 111B0000 		.4byte	.LLST164
 9860 27b0 00       		.byte	0
 9861 27b1 3B       		.uleb128 0x3b
 9862 27b2 BD060000 		.4byte	0x6bd
 9863 27b6 3C000000 		.4byte	.LBB1342
 9864 27ba F8070000 		.4byte	.Ldebug_ranges0+0x7f8
 9865 27be 01       		.byte	0x1
 9866 27bf 2402     		.2byte	0x224
 9867 27c1 CF270000 		.4byte	0x27cf
 9868 27c5 1F       		.uleb128 0x1f
 9869 27c6 CA060000 		.4byte	0x6ca
 9870 27ca 251B0000 		.4byte	.LLST165
 9871 27ce 00       		.byte	0
 9872 27cf 45       		.uleb128 0x45
 9873 27d0 D6060000 		.4byte	0x6d6
 9874 27d4 44000000 		.4byte	.LBB1348
 9875 27d8 46000000 		.4byte	.LBE1348
 9876 27dc 01       		.byte	0x1
 9877 27dd 2402     		.2byte	0x224
 9878 27df ED270000 		.4byte	0x27ed
 9879 27e3 1F       		.uleb128 0x1f
 9880 27e4 E3060000 		.4byte	0x6e3
 9881 27e8 391B0000 		.4byte	.LLST166
 9882 27ec 00       		.byte	0
 9883 27ed 45       		.uleb128 0x45
 9884 27ee BD060000 		.4byte	0x6bd
 9885 27f2 46000000 		.4byte	.LBB1350
 9886 27f6 48000000 		.4byte	.LBE1350
 9887 27fa 01       		.byte	0x1
 9888 27fb 2502     		.2byte	0x225
 9889 27fd 0B280000 		.4byte	0x280b
 9890 2801 1F       		.uleb128 0x1f
 9891 2802 CA060000 		.4byte	0x6ca
 9892 2806 4D1B0000 		.4byte	.LLST167
 9893 280a 00       		.byte	0
 9894 280b 45       		.uleb128 0x45
 9895 280c D6060000 		.4byte	0x6d6
 9896 2810 48000000 		.4byte	.LBB1352
 9897 2814 4A000000 		.4byte	.LBE1352
 9898 2818 01       		.byte	0x1
 9899 2819 2502     		.2byte	0x225
 9900 281b 29280000 		.4byte	0x2829
ARM GAS  /tmp/ccLrOMZj.s 			page 175


 9901 281f 1F       		.uleb128 0x1f
 9902 2820 E3060000 		.4byte	0x6e3
 9903 2824 611B0000 		.4byte	.LLST168
 9904 2828 00       		.byte	0
 9905 2829 45       		.uleb128 0x45
 9906 282a BD060000 		.4byte	0x6bd
 9907 282e 4A000000 		.4byte	.LBB1354
 9908 2832 4C000000 		.4byte	.LBE1354
 9909 2836 01       		.byte	0x1
 9910 2837 2602     		.2byte	0x226
 9911 2839 47280000 		.4byte	0x2847
 9912 283d 1F       		.uleb128 0x1f
 9913 283e CA060000 		.4byte	0x6ca
 9914 2842 751B0000 		.4byte	.LLST169
 9915 2846 00       		.byte	0
 9916 2847 45       		.uleb128 0x45
 9917 2848 D6060000 		.4byte	0x6d6
 9918 284c 4C000000 		.4byte	.LBB1356
 9919 2850 50000000 		.4byte	.LBE1356
 9920 2854 01       		.byte	0x1
 9921 2855 2602     		.2byte	0x226
 9922 2857 65280000 		.4byte	0x2865
 9923 285b 1F       		.uleb128 0x1f
 9924 285c E3060000 		.4byte	0x6e3
 9925 2860 891B0000 		.4byte	.LLST170
 9926 2864 00       		.byte	0
 9927 2865 3B       		.uleb128 0x3b
 9928 2866 D6060000 		.4byte	0x6d6
 9929 286a 6A000000 		.4byte	.LBB1358
 9930 286e 10080000 		.4byte	.Ldebug_ranges0+0x810
 9931 2872 01       		.byte	0x1
 9932 2873 3202     		.2byte	0x232
 9933 2875 83280000 		.4byte	0x2883
 9934 2879 1F       		.uleb128 0x1f
 9935 287a E3060000 		.4byte	0x6e3
 9936 287e 9D1B0000 		.4byte	.LLST171
 9937 2882 00       		.byte	0
 9938 2883 45       		.uleb128 0x45
 9939 2884 BD060000 		.4byte	0x6bd
 9940 2888 70000000 		.4byte	.LBB1361
 9941 288c 78000000 		.4byte	.LBE1361
 9942 2890 01       		.byte	0x1
 9943 2891 3202     		.2byte	0x232
 9944 2893 A1280000 		.4byte	0x28a1
 9945 2897 1F       		.uleb128 0x1f
 9946 2898 CA060000 		.4byte	0x6ca
 9947 289c B11B0000 		.4byte	.LLST172
 9948 28a0 00       		.byte	0
 9949 28a1 3B       		.uleb128 0x3b
 9950 28a2 D6060000 		.4byte	0x6d6
 9951 28a6 7C000000 		.4byte	.LBB1364
 9952 28aa 28080000 		.4byte	.Ldebug_ranges0+0x828
 9953 28ae 01       		.byte	0x1
 9954 28af 2B02     		.2byte	0x22b
 9955 28b1 BF280000 		.4byte	0x28bf
 9956 28b5 1F       		.uleb128 0x1f
 9957 28b6 E3060000 		.4byte	0x6e3
ARM GAS  /tmp/ccLrOMZj.s 			page 176


 9958 28ba C51B0000 		.4byte	.LLST173
 9959 28be 00       		.byte	0
 9960 28bf 3B       		.uleb128 0x3b
 9961 28c0 BD060000 		.4byte	0x6bd
 9962 28c4 7E000000 		.4byte	.LBB1369
 9963 28c8 50080000 		.4byte	.Ldebug_ranges0+0x850
 9964 28cc 01       		.byte	0x1
 9965 28cd 2B02     		.2byte	0x22b
 9966 28cf DD280000 		.4byte	0x28dd
 9967 28d3 1F       		.uleb128 0x1f
 9968 28d4 CA060000 		.4byte	0x6ca
 9969 28d8 D91B0000 		.4byte	.LLST174
 9970 28dc 00       		.byte	0
 9971 28dd 3B       		.uleb128 0x3b
 9972 28de BD060000 		.4byte	0x6bd
 9973 28e2 98000000 		.4byte	.LBB1376
 9974 28e6 68080000 		.4byte	.Ldebug_ranges0+0x868
 9975 28ea 01       		.byte	0x1
 9976 28eb 5B02     		.2byte	0x25b
 9977 28ed FB280000 		.4byte	0x28fb
 9978 28f1 1F       		.uleb128 0x1f
 9979 28f2 CA060000 		.4byte	0x6ca
 9980 28f6 ED1B0000 		.4byte	.LLST175
 9981 28fa 00       		.byte	0
 9982 28fb 3B       		.uleb128 0x3b
 9983 28fc D6060000 		.4byte	0x6d6
 9984 2900 9C000000 		.4byte	.LBB1379
 9985 2904 80080000 		.4byte	.Ldebug_ranges0+0x880
 9986 2908 01       		.byte	0x1
 9987 2909 5B02     		.2byte	0x25b
 9988 290b 19290000 		.4byte	0x2919
 9989 290f 1F       		.uleb128 0x1f
 9990 2910 E3060000 		.4byte	0x6e3
 9991 2914 011C0000 		.4byte	.LLST176
 9992 2918 00       		.byte	0
 9993 2919 3B       		.uleb128 0x3b
 9994 291a BD060000 		.4byte	0x6bd
 9995 291e A6000000 		.4byte	.LBB1383
 9996 2922 98080000 		.4byte	.Ldebug_ranges0+0x898
 9997 2926 01       		.byte	0x1
 9998 2927 5D02     		.2byte	0x25d
 9999 2929 37290000 		.4byte	0x2937
 10000 292d 1F       		.uleb128 0x1f
 10001 292e CA060000 		.4byte	0x6ca
 10002 2932 171C0000 		.4byte	.LLST177
 10003 2936 00       		.byte	0
 10004 2937 45       		.uleb128 0x45
 10005 2938 D6060000 		.4byte	0x6d6
 10006 293c BA000000 		.4byte	.LBB1388
 10007 2940 C0000000 		.4byte	.LBE1388
 10008 2944 01       		.byte	0x1
 10009 2945 5D02     		.2byte	0x25d
 10010 2947 55290000 		.4byte	0x2955
 10011 294b 1F       		.uleb128 0x1f
 10012 294c E3060000 		.4byte	0x6e3
 10013 2950 2B1C0000 		.4byte	.LLST178
 10014 2954 00       		.byte	0
ARM GAS  /tmp/ccLrOMZj.s 			page 177


 10015 2955 3B       		.uleb128 0x3b
 10016 2956 D6060000 		.4byte	0x6d6
 10017 295a D6000000 		.4byte	.LBB1390
 10018 295e B0080000 		.4byte	.Ldebug_ranges0+0x8b0
 10019 2962 01       		.byte	0x1
 10020 2963 4002     		.2byte	0x240
 10021 2965 73290000 		.4byte	0x2973
 10022 2969 1F       		.uleb128 0x1f
 10023 296a E3060000 		.4byte	0x6e3
 10024 296e 411C0000 		.4byte	.LLST179
 10025 2972 00       		.byte	0
 10026 2973 3B       		.uleb128 0x3b
 10027 2974 BD060000 		.4byte	0x6bd
 10028 2978 D8000000 		.4byte	.LBB1395
 10029 297c D8080000 		.4byte	.Ldebug_ranges0+0x8d8
 10030 2980 01       		.byte	0x1
 10031 2981 4002     		.2byte	0x240
 10032 2983 91290000 		.4byte	0x2991
 10033 2987 1F       		.uleb128 0x1f
 10034 2988 CA060000 		.4byte	0x6ca
 10035 298c 571C0000 		.4byte	.LLST180
 10036 2990 00       		.byte	0
 10037 2991 3B       		.uleb128 0x3b
 10038 2992 BD060000 		.4byte	0x6bd
 10039 2996 E6000000 		.4byte	.LBB1402
 10040 299a F8080000 		.4byte	.Ldebug_ranges0+0x8f8
 10041 299e 01       		.byte	0x1
 10042 299f 4202     		.2byte	0x242
 10043 29a1 AF290000 		.4byte	0x29af
 10044 29a5 1F       		.uleb128 0x1f
 10045 29a6 CA060000 		.4byte	0x6ca
 10046 29aa 6B1C0000 		.4byte	.LLST181
 10047 29ae 00       		.byte	0
 10048 29af 45       		.uleb128 0x45
 10049 29b0 D6060000 		.4byte	0x6d6
 10050 29b4 F8000000 		.4byte	.LBB1408
 10051 29b8 FE000000 		.4byte	.LBE1408
 10052 29bc 01       		.byte	0x1
 10053 29bd 4202     		.2byte	0x242
 10054 29bf CD290000 		.4byte	0x29cd
 10055 29c3 1F       		.uleb128 0x1f
 10056 29c4 E3060000 		.4byte	0x6e3
 10057 29c8 7F1C0000 		.4byte	.LLST182
 10058 29cc 00       		.byte	0
 10059 29cd 3B       		.uleb128 0x3b
 10060 29ce D6060000 		.4byte	0x6d6
 10061 29d2 08010000 		.4byte	.LBB1410
 10062 29d6 10090000 		.4byte	.Ldebug_ranges0+0x910
 10063 29da 01       		.byte	0x1
 10064 29db 4902     		.2byte	0x249
 10065 29dd EB290000 		.4byte	0x29eb
 10066 29e1 1F       		.uleb128 0x1f
 10067 29e2 E3060000 		.4byte	0x6e3
 10068 29e6 951C0000 		.4byte	.LLST183
 10069 29ea 00       		.byte	0
 10070 29eb 3B       		.uleb128 0x3b
 10071 29ec BD060000 		.4byte	0x6bd
ARM GAS  /tmp/ccLrOMZj.s 			page 178


 10072 29f0 0A010000 		.4byte	.LBB1415
 10073 29f4 38090000 		.4byte	.Ldebug_ranges0+0x938
 10074 29f8 01       		.byte	0x1
 10075 29f9 4902     		.2byte	0x249
 10076 29fb 092A0000 		.4byte	0x2a09
 10077 29ff 1F       		.uleb128 0x1f
 10078 2a00 CA060000 		.4byte	0x6ca
 10079 2a04 AB1C0000 		.4byte	.LLST184
 10080 2a08 00       		.byte	0
 10081 2a09 3B       		.uleb128 0x3b
 10082 2a0a BD060000 		.4byte	0x6bd
 10083 2a0e 18010000 		.4byte	.LBB1422
 10084 2a12 58090000 		.4byte	.Ldebug_ranges0+0x958
 10085 2a16 01       		.byte	0x1
 10086 2a17 4B02     		.2byte	0x24b
 10087 2a19 272A0000 		.4byte	0x2a27
 10088 2a1d 1F       		.uleb128 0x1f
 10089 2a1e CA060000 		.4byte	0x6ca
 10090 2a22 BF1C0000 		.4byte	.LLST185
 10091 2a26 00       		.byte	0
 10092 2a27 45       		.uleb128 0x45
 10093 2a28 D6060000 		.4byte	0x6d6
 10094 2a2c 2A010000 		.4byte	.LBB1428
 10095 2a30 30010000 		.4byte	.LBE1428
 10096 2a34 01       		.byte	0x1
 10097 2a35 4B02     		.2byte	0x24b
 10098 2a37 452A0000 		.4byte	0x2a45
 10099 2a3b 1F       		.uleb128 0x1f
 10100 2a3c E3060000 		.4byte	0x6e3
 10101 2a40 D31C0000 		.4byte	.LLST186
 10102 2a44 00       		.byte	0
 10103 2a45 3B       		.uleb128 0x3b
 10104 2a46 D6060000 		.4byte	0x6d6
 10105 2a4a 3A010000 		.4byte	.LBB1430
 10106 2a4e 70090000 		.4byte	.Ldebug_ranges0+0x970
 10107 2a52 01       		.byte	0x1
 10108 2a53 5202     		.2byte	0x252
 10109 2a55 612A0000 		.4byte	0x2a61
 10110 2a59 2D       		.uleb128 0x2d
 10111 2a5a E3060000 		.4byte	0x6e3
 10112 2a5e 3F2B     		.2byte	0x2b3f
 10113 2a60 00       		.byte	0
 10114 2a61 3B       		.uleb128 0x3b
 10115 2a62 BD060000 		.4byte	0x6bd
 10116 2a66 3C010000 		.4byte	.LBB1435
 10117 2a6a 98090000 		.4byte	.Ldebug_ranges0+0x998
 10118 2a6e 01       		.byte	0x1
 10119 2a6f 5202     		.2byte	0x252
 10120 2a71 7C2A0000 		.4byte	0x2a7c
 10121 2a75 2B       		.uleb128 0x2b
 10122 2a76 CA060000 		.4byte	0x6ca
 10123 2a7a 01       		.byte	0x1
 10124 2a7b 00       		.byte	0
 10125 2a7c 3B       		.uleb128 0x3b
 10126 2a7d BD060000 		.4byte	0x6bd
 10127 2a81 4A010000 		.4byte	.LBB1442
 10128 2a85 B8090000 		.4byte	.Ldebug_ranges0+0x9b8
ARM GAS  /tmp/ccLrOMZj.s 			page 179


 10129 2a89 01       		.byte	0x1
 10130 2a8a 5402     		.2byte	0x254
 10131 2a8c 972A0000 		.4byte	0x2a97
 10132 2a90 2B       		.uleb128 0x2b
 10133 2a91 CA060000 		.4byte	0x6ca
 10134 2a95 11       		.byte	0x11
 10135 2a96 00       		.byte	0
 10136 2a97 45       		.uleb128 0x45
 10137 2a98 D6060000 		.4byte	0x6d6
 10138 2a9c 5C010000 		.4byte	.LBB1448
 10139 2aa0 62010000 		.4byte	.LBE1448
 10140 2aa4 01       		.byte	0x1
 10141 2aa5 5402     		.2byte	0x254
 10142 2aa7 B32A0000 		.4byte	0x2ab3
 10143 2aab 2D       		.uleb128 0x2d
 10144 2aac E3060000 		.4byte	0x6e3
 10145 2ab0 4060     		.2byte	0x6040
 10146 2ab2 00       		.byte	0
 10147 2ab3 46       		.uleb128 0x46
 10148 2ab4 96000000 		.4byte	.LVL459
 10149 2ab8 EB0C0000 		.4byte	0xceb
 10150 2abc 00       		.byte	0
 10151 2abd 47       		.uleb128 0x47
 10152 2abe BA000000 		.4byte	.LASF154
 10153 2ac2 0C       		.byte	0xc
 10154 2ac3 9806     		.2byte	0x698
 10155 2ac5 19010000 		.4byte	0x119
 10156 2ac9 01       		.byte	0x1
 10157 2aca 01       		.byte	0x1
 10158 2acb 48       		.uleb128 0x48
 10159 2acc 7A030000 		.4byte	.LASF155
 10160 2ad0 03       		.byte	0x3
 10161 2ad1 1E       		.byte	0x1e
 10162 2ad2 66060000 		.4byte	0x666
 10163 2ad6 01       		.byte	0x1
 10164 2ad7 05       		.byte	0x5
 10165 2ad8 03       		.byte	0x3
 10166 2ad9 00000000 		.4byte	GDISP
 10167 2add 49       		.uleb128 0x49
 10168 2ade 01       		.byte	0x1
 10169 2adf 45040000 		.4byte	.LASF157
 10170 2ae3 08       		.byte	0x8
 10171 2ae4 1302     		.2byte	0x213
 10172 2ae6 01       		.byte	0x1
 10173 2ae7 01       		.byte	0x1
 10174 2ae8 F72A0000 		.4byte	0x2af7
 10175 2aec 4A       		.uleb128 0x4a
 10176 2aed F72A0000 		.4byte	0x2af7
 10177 2af1 4A       		.uleb128 0x4a
 10178 2af2 16040000 		.4byte	0x416
 10179 2af6 00       		.byte	0
 10180 2af7 07       		.uleb128 0x7
 10181 2af8 04       		.byte	0x4
 10182 2af9 65040000 		.4byte	0x465
 10183 2afd 49       		.uleb128 0x49
 10184 2afe 01       		.byte	0x1
 10185 2aff 51060000 		.4byte	.LASF158
ARM GAS  /tmp/ccLrOMZj.s 			page 180


 10186 2b03 07       		.byte	0x7
 10187 2b04 BA01     		.2byte	0x1ba
 10188 2b06 01       		.byte	0x1
 10189 2b07 01       		.byte	0x1
 10190 2b08 1C2B0000 		.4byte	0x2b1c
 10191 2b0c 4A       		.uleb128 0x4a
 10192 2b0d 21040000 		.4byte	0x421
 10193 2b11 4A       		.uleb128 0x4a
 10194 2b12 0B040000 		.4byte	0x40b
 10195 2b16 4A       		.uleb128 0x4a
 10196 2b17 16040000 		.4byte	0x416
 10197 2b1b 00       		.byte	0
 10198 2b1c 4B       		.uleb128 0x4b
 10199 2b1d 01       		.byte	0x1
 10200 2b1e B2060000 		.4byte	.LASF159
 10201 2b22 09       		.byte	0x9
 10202 2b23 50       		.byte	0x50
 10203 2b24 01       		.byte	0x1
 10204 2b25 01       		.byte	0x1
 10205 2b26 302B0000 		.4byte	0x2b30
 10206 2b2a 4A       		.uleb128 0x4a
 10207 2b2b 70040000 		.4byte	0x470
 10208 2b2f 00       		.byte	0
 10209 2b30 4C       		.uleb128 0x4c
 10210 2b31 01       		.byte	0x1
 10211 2b32 A4030000 		.4byte	.LASF165
 10212 2b36 09       		.byte	0x9
 10213 2b37 51       		.byte	0x51
 10214 2b38 01       		.byte	0x1
 10215 2b39 01       		.byte	0x1
 10216 2b3a 4A       		.uleb128 0x4a
 10217 2b3b 70040000 		.4byte	0x470
 10218 2b3f 00       		.byte	0
 10219 2b40 00       		.byte	0
 10220              		.section	.debug_abbrev,"",%progbits
 10221              	.Ldebug_abbrev0:
 10222 0000 01       		.uleb128 0x1
 10223 0001 11       		.uleb128 0x11
 10224 0002 01       		.byte	0x1
 10225 0003 25       		.uleb128 0x25
 10226 0004 0E       		.uleb128 0xe
 10227 0005 13       		.uleb128 0x13
 10228 0006 0B       		.uleb128 0xb
 10229 0007 03       		.uleb128 0x3
 10230 0008 0E       		.uleb128 0xe
 10231 0009 1B       		.uleb128 0x1b
 10232 000a 0E       		.uleb128 0xe
 10233 000b 55       		.uleb128 0x55
 10234 000c 06       		.uleb128 0x6
 10235 000d 11       		.uleb128 0x11
 10236 000e 01       		.uleb128 0x1
 10237 000f 52       		.uleb128 0x52
 10238 0010 01       		.uleb128 0x1
 10239 0011 10       		.uleb128 0x10
 10240 0012 06       		.uleb128 0x6
 10241 0013 00       		.byte	0
 10242 0014 00       		.byte	0
ARM GAS  /tmp/ccLrOMZj.s 			page 181


 10243 0015 02       		.uleb128 0x2
 10244 0016 24       		.uleb128 0x24
 10245 0017 00       		.byte	0
 10246 0018 0B       		.uleb128 0xb
 10247 0019 0B       		.uleb128 0xb
 10248 001a 3E       		.uleb128 0x3e
 10249 001b 0B       		.uleb128 0xb
 10250 001c 03       		.uleb128 0x3
 10251 001d 08       		.uleb128 0x8
 10252 001e 00       		.byte	0
 10253 001f 00       		.byte	0
 10254 0020 03       		.uleb128 0x3
 10255 0021 24       		.uleb128 0x24
 10256 0022 00       		.byte	0
 10257 0023 0B       		.uleb128 0xb
 10258 0024 0B       		.uleb128 0xb
 10259 0025 3E       		.uleb128 0x3e
 10260 0026 0B       		.uleb128 0xb
 10261 0027 03       		.uleb128 0x3
 10262 0028 0E       		.uleb128 0xe
 10263 0029 00       		.byte	0
 10264 002a 00       		.byte	0
 10265 002b 04       		.uleb128 0x4
 10266 002c 16       		.uleb128 0x16
 10267 002d 00       		.byte	0
 10268 002e 03       		.uleb128 0x3
 10269 002f 0E       		.uleb128 0xe
 10270 0030 3A       		.uleb128 0x3a
 10271 0031 0B       		.uleb128 0xb
 10272 0032 3B       		.uleb128 0x3b
 10273 0033 0B       		.uleb128 0xb
 10274 0034 49       		.uleb128 0x49
 10275 0035 13       		.uleb128 0x13
 10276 0036 00       		.byte	0
 10277 0037 00       		.byte	0
 10278 0038 05       		.uleb128 0x5
 10279 0039 0F       		.uleb128 0xf
 10280 003a 00       		.byte	0
 10281 003b 0B       		.uleb128 0xb
 10282 003c 0B       		.uleb128 0xb
 10283 003d 00       		.byte	0
 10284 003e 00       		.byte	0
 10285 003f 06       		.uleb128 0x6
 10286 0040 35       		.uleb128 0x35
 10287 0041 00       		.byte	0
 10288 0042 49       		.uleb128 0x49
 10289 0043 13       		.uleb128 0x13
 10290 0044 00       		.byte	0
 10291 0045 00       		.byte	0
 10292 0046 07       		.uleb128 0x7
 10293 0047 0F       		.uleb128 0xf
 10294 0048 00       		.byte	0
 10295 0049 0B       		.uleb128 0xb
 10296 004a 0B       		.uleb128 0xb
 10297 004b 49       		.uleb128 0x49
 10298 004c 13       		.uleb128 0x13
 10299 004d 00       		.byte	0
ARM GAS  /tmp/ccLrOMZj.s 			page 182


 10300 004e 00       		.byte	0
 10301 004f 08       		.uleb128 0x8
 10302 0050 26       		.uleb128 0x26
 10303 0051 00       		.byte	0
 10304 0052 49       		.uleb128 0x49
 10305 0053 13       		.uleb128 0x13
 10306 0054 00       		.byte	0
 10307 0055 00       		.byte	0
 10308 0056 09       		.uleb128 0x9
 10309 0057 01       		.uleb128 0x1
 10310 0058 01       		.byte	0x1
 10311 0059 49       		.uleb128 0x49
 10312 005a 13       		.uleb128 0x13
 10313 005b 01       		.uleb128 0x1
 10314 005c 13       		.uleb128 0x13
 10315 005d 00       		.byte	0
 10316 005e 00       		.byte	0
 10317 005f 0A       		.uleb128 0xa
 10318 0060 21       		.uleb128 0x21
 10319 0061 00       		.byte	0
 10320 0062 49       		.uleb128 0x49
 10321 0063 13       		.uleb128 0x13
 10322 0064 2F       		.uleb128 0x2f
 10323 0065 0B       		.uleb128 0xb
 10324 0066 00       		.byte	0
 10325 0067 00       		.byte	0
 10326 0068 0B       		.uleb128 0xb
 10327 0069 13       		.uleb128 0x13
 10328 006a 01       		.byte	0x1
 10329 006b 0B       		.uleb128 0xb
 10330 006c 0B       		.uleb128 0xb
 10331 006d 3A       		.uleb128 0x3a
 10332 006e 0B       		.uleb128 0xb
 10333 006f 3B       		.uleb128 0x3b
 10334 0070 05       		.uleb128 0x5
 10335 0071 01       		.uleb128 0x1
 10336 0072 13       		.uleb128 0x13
 10337 0073 00       		.byte	0
 10338 0074 00       		.byte	0
 10339 0075 0C       		.uleb128 0xc
 10340 0076 0D       		.uleb128 0xd
 10341 0077 00       		.byte	0
 10342 0078 03       		.uleb128 0x3
 10343 0079 0E       		.uleb128 0xe
 10344 007a 3A       		.uleb128 0x3a
 10345 007b 0B       		.uleb128 0xb
 10346 007c 3B       		.uleb128 0x3b
 10347 007d 05       		.uleb128 0x5
 10348 007e 49       		.uleb128 0x49
 10349 007f 13       		.uleb128 0x13
 10350 0080 38       		.uleb128 0x38
 10351 0081 0A       		.uleb128 0xa
 10352 0082 00       		.byte	0
 10353 0083 00       		.byte	0
 10354 0084 0D       		.uleb128 0xd
 10355 0085 16       		.uleb128 0x16
 10356 0086 00       		.byte	0
ARM GAS  /tmp/ccLrOMZj.s 			page 183


 10357 0087 03       		.uleb128 0x3
 10358 0088 0E       		.uleb128 0xe
 10359 0089 3A       		.uleb128 0x3a
 10360 008a 0B       		.uleb128 0xb
 10361 008b 3B       		.uleb128 0x3b
 10362 008c 05       		.uleb128 0x5
 10363 008d 49       		.uleb128 0x49
 10364 008e 13       		.uleb128 0x13
 10365 008f 00       		.byte	0
 10366 0090 00       		.byte	0
 10367 0091 0E       		.uleb128 0xe
 10368 0092 0D       		.uleb128 0xd
 10369 0093 00       		.byte	0
 10370 0094 03       		.uleb128 0x3
 10371 0095 08       		.uleb128 0x8
 10372 0096 3A       		.uleb128 0x3a
 10373 0097 0B       		.uleb128 0xb
 10374 0098 3B       		.uleb128 0x3b
 10375 0099 05       		.uleb128 0x5
 10376 009a 49       		.uleb128 0x49
 10377 009b 13       		.uleb128 0x13
 10378 009c 38       		.uleb128 0x38
 10379 009d 0A       		.uleb128 0xa
 10380 009e 00       		.byte	0
 10381 009f 00       		.byte	0
 10382 00a0 0F       		.uleb128 0xf
 10383 00a1 13       		.uleb128 0x13
 10384 00a2 01       		.byte	0x1
 10385 00a3 0B       		.uleb128 0xb
 10386 00a4 0B       		.uleb128 0xb
 10387 00a5 3A       		.uleb128 0x3a
 10388 00a6 0B       		.uleb128 0xb
 10389 00a7 3B       		.uleb128 0x3b
 10390 00a8 0B       		.uleb128 0xb
 10391 00a9 01       		.uleb128 0x1
 10392 00aa 13       		.uleb128 0x13
 10393 00ab 00       		.byte	0
 10394 00ac 00       		.byte	0
 10395 00ad 10       		.uleb128 0x10
 10396 00ae 0D       		.uleb128 0xd
 10397 00af 00       		.byte	0
 10398 00b0 03       		.uleb128 0x3
 10399 00b1 08       		.uleb128 0x8
 10400 00b2 3A       		.uleb128 0x3a
 10401 00b3 0B       		.uleb128 0xb
 10402 00b4 3B       		.uleb128 0x3b
 10403 00b5 0B       		.uleb128 0xb
 10404 00b6 49       		.uleb128 0x49
 10405 00b7 13       		.uleb128 0x13
 10406 00b8 38       		.uleb128 0x38
 10407 00b9 0A       		.uleb128 0xa
 10408 00ba 00       		.byte	0
 10409 00bb 00       		.byte	0
 10410 00bc 11       		.uleb128 0x11
 10411 00bd 0D       		.uleb128 0xd
 10412 00be 00       		.byte	0
 10413 00bf 03       		.uleb128 0x3
ARM GAS  /tmp/ccLrOMZj.s 			page 184


 10414 00c0 0E       		.uleb128 0xe
 10415 00c1 3A       		.uleb128 0x3a
 10416 00c2 0B       		.uleb128 0xb
 10417 00c3 3B       		.uleb128 0x3b
 10418 00c4 0B       		.uleb128 0xb
 10419 00c5 49       		.uleb128 0x49
 10420 00c6 13       		.uleb128 0x13
 10421 00c7 38       		.uleb128 0x38
 10422 00c8 0A       		.uleb128 0xa
 10423 00c9 00       		.byte	0
 10424 00ca 00       		.byte	0
 10425 00cb 12       		.uleb128 0x12
 10426 00cc 17       		.uleb128 0x17
 10427 00cd 01       		.byte	0x1
 10428 00ce 0B       		.uleb128 0xb
 10429 00cf 0B       		.uleb128 0xb
 10430 00d0 3A       		.uleb128 0x3a
 10431 00d1 0B       		.uleb128 0xb
 10432 00d2 3B       		.uleb128 0x3b
 10433 00d3 0B       		.uleb128 0xb
 10434 00d4 01       		.uleb128 0x1
 10435 00d5 13       		.uleb128 0x13
 10436 00d6 00       		.byte	0
 10437 00d7 00       		.byte	0
 10438 00d8 13       		.uleb128 0x13
 10439 00d9 0D       		.uleb128 0xd
 10440 00da 00       		.byte	0
 10441 00db 03       		.uleb128 0x3
 10442 00dc 08       		.uleb128 0x8
 10443 00dd 3A       		.uleb128 0x3a
 10444 00de 0B       		.uleb128 0xb
 10445 00df 3B       		.uleb128 0x3b
 10446 00e0 0B       		.uleb128 0xb
 10447 00e1 49       		.uleb128 0x49
 10448 00e2 13       		.uleb128 0x13
 10449 00e3 00       		.byte	0
 10450 00e4 00       		.byte	0
 10451 00e5 14       		.uleb128 0x14
 10452 00e6 13       		.uleb128 0x13
 10453 00e7 01       		.byte	0x1
 10454 00e8 03       		.uleb128 0x3
 10455 00e9 0E       		.uleb128 0xe
 10456 00ea 0B       		.uleb128 0xb
 10457 00eb 0B       		.uleb128 0xb
 10458 00ec 3A       		.uleb128 0x3a
 10459 00ed 0B       		.uleb128 0xb
 10460 00ee 3B       		.uleb128 0x3b
 10461 00ef 0B       		.uleb128 0xb
 10462 00f0 01       		.uleb128 0x1
 10463 00f1 13       		.uleb128 0x13
 10464 00f2 00       		.byte	0
 10465 00f3 00       		.byte	0
 10466 00f4 15       		.uleb128 0x15
 10467 00f5 04       		.uleb128 0x4
 10468 00f6 01       		.byte	0x1
 10469 00f7 03       		.uleb128 0x3
 10470 00f8 0E       		.uleb128 0xe
ARM GAS  /tmp/ccLrOMZj.s 			page 185


 10471 00f9 0B       		.uleb128 0xb
 10472 00fa 0B       		.uleb128 0xb
 10473 00fb 3A       		.uleb128 0x3a
 10474 00fc 0B       		.uleb128 0xb
 10475 00fd 3B       		.uleb128 0x3b
 10476 00fe 0B       		.uleb128 0xb
 10477 00ff 01       		.uleb128 0x1
 10478 0100 13       		.uleb128 0x13
 10479 0101 00       		.byte	0
 10480 0102 00       		.byte	0
 10481 0103 16       		.uleb128 0x16
 10482 0104 28       		.uleb128 0x28
 10483 0105 00       		.byte	0
 10484 0106 03       		.uleb128 0x3
 10485 0107 0E       		.uleb128 0xe
 10486 0108 1C       		.uleb128 0x1c
 10487 0109 0D       		.uleb128 0xd
 10488 010a 00       		.byte	0
 10489 010b 00       		.byte	0
 10490 010c 17       		.uleb128 0x17
 10491 010d 2E       		.uleb128 0x2e
 10492 010e 01       		.byte	0x1
 10493 010f 03       		.uleb128 0x3
 10494 0110 0E       		.uleb128 0xe
 10495 0111 3A       		.uleb128 0x3a
 10496 0112 0B       		.uleb128 0xb
 10497 0113 3B       		.uleb128 0x3b
 10498 0114 0B       		.uleb128 0xb
 10499 0115 27       		.uleb128 0x27
 10500 0116 0C       		.uleb128 0xc
 10501 0117 20       		.uleb128 0x20
 10502 0118 0B       		.uleb128 0xb
 10503 0119 01       		.uleb128 0x1
 10504 011a 13       		.uleb128 0x13
 10505 011b 00       		.byte	0
 10506 011c 00       		.byte	0
 10507 011d 18       		.uleb128 0x18
 10508 011e 05       		.uleb128 0x5
 10509 011f 00       		.byte	0
 10510 0120 03       		.uleb128 0x3
 10511 0121 0E       		.uleb128 0xe
 10512 0122 3A       		.uleb128 0x3a
 10513 0123 0B       		.uleb128 0xb
 10514 0124 3B       		.uleb128 0x3b
 10515 0125 0B       		.uleb128 0xb
 10516 0126 49       		.uleb128 0x49
 10517 0127 13       		.uleb128 0x13
 10518 0128 00       		.byte	0
 10519 0129 00       		.byte	0
 10520 012a 19       		.uleb128 0x19
 10521 012b 05       		.uleb128 0x5
 10522 012c 00       		.byte	0
 10523 012d 03       		.uleb128 0x3
 10524 012e 08       		.uleb128 0x8
 10525 012f 3A       		.uleb128 0x3a
 10526 0130 0B       		.uleb128 0xb
 10527 0131 3B       		.uleb128 0x3b
ARM GAS  /tmp/ccLrOMZj.s 			page 186


 10528 0132 0B       		.uleb128 0xb
 10529 0133 49       		.uleb128 0x49
 10530 0134 13       		.uleb128 0x13
 10531 0135 00       		.byte	0
 10532 0136 00       		.byte	0
 10533 0137 1A       		.uleb128 0x1a
 10534 0138 2E       		.uleb128 0x2e
 10535 0139 00       		.byte	0
 10536 013a 03       		.uleb128 0x3
 10537 013b 0E       		.uleb128 0xe
 10538 013c 3A       		.uleb128 0x3a
 10539 013d 0B       		.uleb128 0xb
 10540 013e 3B       		.uleb128 0x3b
 10541 013f 0B       		.uleb128 0xb
 10542 0140 27       		.uleb128 0x27
 10543 0141 0C       		.uleb128 0xc
 10544 0142 20       		.uleb128 0x20
 10545 0143 0B       		.uleb128 0xb
 10546 0144 00       		.byte	0
 10547 0145 00       		.byte	0
 10548 0146 1B       		.uleb128 0x1b
 10549 0147 2E       		.uleb128 0x2e
 10550 0148 01       		.byte	0x1
 10551 0149 3F       		.uleb128 0x3f
 10552 014a 0C       		.uleb128 0xc
 10553 014b 03       		.uleb128 0x3
 10554 014c 0E       		.uleb128 0xe
 10555 014d 3A       		.uleb128 0x3a
 10556 014e 0B       		.uleb128 0xb
 10557 014f 3B       		.uleb128 0x3b
 10558 0150 0B       		.uleb128 0xb
 10559 0151 27       		.uleb128 0x27
 10560 0152 0C       		.uleb128 0xc
 10561 0153 20       		.uleb128 0x20
 10562 0154 0B       		.uleb128 0xb
 10563 0155 01       		.uleb128 0x1
 10564 0156 13       		.uleb128 0x13
 10565 0157 00       		.byte	0
 10566 0158 00       		.byte	0
 10567 0159 1C       		.uleb128 0x1c
 10568 015a 2E       		.uleb128 0x2e
 10569 015b 01       		.byte	0x1
 10570 015c 03       		.uleb128 0x3
 10571 015d 0E       		.uleb128 0xe
 10572 015e 3A       		.uleb128 0x3a
 10573 015f 0B       		.uleb128 0xb
 10574 0160 3B       		.uleb128 0x3b
 10575 0161 0B       		.uleb128 0xb
 10576 0162 27       		.uleb128 0x27
 10577 0163 0C       		.uleb128 0xc
 10578 0164 11       		.uleb128 0x11
 10579 0165 01       		.uleb128 0x1
 10580 0166 12       		.uleb128 0x12
 10581 0167 01       		.uleb128 0x1
 10582 0168 40       		.uleb128 0x40
 10583 0169 06       		.uleb128 0x6
 10584 016a 9742     		.uleb128 0x2117
ARM GAS  /tmp/ccLrOMZj.s 			page 187


 10585 016c 0C       		.uleb128 0xc
 10586 016d 01       		.uleb128 0x1
 10587 016e 13       		.uleb128 0x13
 10588 016f 00       		.byte	0
 10589 0170 00       		.byte	0
 10590 0171 1D       		.uleb128 0x1d
 10591 0172 05       		.uleb128 0x5
 10592 0173 00       		.byte	0
 10593 0174 03       		.uleb128 0x3
 10594 0175 08       		.uleb128 0x8
 10595 0176 3A       		.uleb128 0x3a
 10596 0177 0B       		.uleb128 0xb
 10597 0178 3B       		.uleb128 0x3b
 10598 0179 0B       		.uleb128 0xb
 10599 017a 49       		.uleb128 0x49
 10600 017b 13       		.uleb128 0x13
 10601 017c 02       		.uleb128 0x2
 10602 017d 06       		.uleb128 0x6
 10603 017e 00       		.byte	0
 10604 017f 00       		.byte	0
 10605 0180 1E       		.uleb128 0x1e
 10606 0181 1D       		.uleb128 0x1d
 10607 0182 01       		.byte	0x1
 10608 0183 31       		.uleb128 0x31
 10609 0184 13       		.uleb128 0x13
 10610 0185 52       		.uleb128 0x52
 10611 0186 01       		.uleb128 0x1
 10612 0187 55       		.uleb128 0x55
 10613 0188 06       		.uleb128 0x6
 10614 0189 58       		.uleb128 0x58
 10615 018a 0B       		.uleb128 0xb
 10616 018b 59       		.uleb128 0x59
 10617 018c 0B       		.uleb128 0xb
 10618 018d 01       		.uleb128 0x1
 10619 018e 13       		.uleb128 0x13
 10620 018f 00       		.byte	0
 10621 0190 00       		.byte	0
 10622 0191 1F       		.uleb128 0x1f
 10623 0192 05       		.uleb128 0x5
 10624 0193 00       		.byte	0
 10625 0194 31       		.uleb128 0x31
 10626 0195 13       		.uleb128 0x13
 10627 0196 02       		.uleb128 0x2
 10628 0197 06       		.uleb128 0x6
 10629 0198 00       		.byte	0
 10630 0199 00       		.byte	0
 10631 019a 20       		.uleb128 0x20
 10632 019b 1D       		.uleb128 0x1d
 10633 019c 01       		.byte	0x1
 10634 019d 31       		.uleb128 0x31
 10635 019e 13       		.uleb128 0x13
 10636 019f 11       		.uleb128 0x11
 10637 01a0 01       		.uleb128 0x1
 10638 01a1 12       		.uleb128 0x12
 10639 01a2 01       		.uleb128 0x1
 10640 01a3 58       		.uleb128 0x58
 10641 01a4 0B       		.uleb128 0xb
ARM GAS  /tmp/ccLrOMZj.s 			page 188


 10642 01a5 59       		.uleb128 0x59
 10643 01a6 0B       		.uleb128 0xb
 10644 01a7 01       		.uleb128 0x1
 10645 01a8 13       		.uleb128 0x13
 10646 01a9 00       		.byte	0
 10647 01aa 00       		.byte	0
 10648 01ab 21       		.uleb128 0x21
 10649 01ac 05       		.uleb128 0x5
 10650 01ad 00       		.byte	0
 10651 01ae 31       		.uleb128 0x31
 10652 01af 13       		.uleb128 0x13
 10653 01b0 00       		.byte	0
 10654 01b1 00       		.byte	0
 10655 01b2 22       		.uleb128 0x22
 10656 01b3 1D       		.uleb128 0x1d
 10657 01b4 01       		.byte	0x1
 10658 01b5 31       		.uleb128 0x31
 10659 01b6 13       		.uleb128 0x13
 10660 01b7 11       		.uleb128 0x11
 10661 01b8 01       		.uleb128 0x1
 10662 01b9 12       		.uleb128 0x12
 10663 01ba 01       		.uleb128 0x1
 10664 01bb 58       		.uleb128 0x58
 10665 01bc 0B       		.uleb128 0xb
 10666 01bd 59       		.uleb128 0x59
 10667 01be 0B       		.uleb128 0xb
 10668 01bf 00       		.byte	0
 10669 01c0 00       		.byte	0
 10670 01c1 23       		.uleb128 0x23
 10671 01c2 2E       		.uleb128 0x2e
 10672 01c3 01       		.byte	0x1
 10673 01c4 3F       		.uleb128 0x3f
 10674 01c5 0C       		.uleb128 0xc
 10675 01c6 03       		.uleb128 0x3
 10676 01c7 0E       		.uleb128 0xe
 10677 01c8 3A       		.uleb128 0x3a
 10678 01c9 0B       		.uleb128 0xb
 10679 01ca 3B       		.uleb128 0x3b
 10680 01cb 0B       		.uleb128 0xb
 10681 01cc 27       		.uleb128 0x27
 10682 01cd 0C       		.uleb128 0xc
 10683 01ce 11       		.uleb128 0x11
 10684 01cf 01       		.uleb128 0x1
 10685 01d0 12       		.uleb128 0x12
 10686 01d1 01       		.uleb128 0x1
 10687 01d2 40       		.uleb128 0x40
 10688 01d3 06       		.uleb128 0x6
 10689 01d4 9742     		.uleb128 0x2117
 10690 01d6 0C       		.uleb128 0xc
 10691 01d7 01       		.uleb128 0x1
 10692 01d8 13       		.uleb128 0x13
 10693 01d9 00       		.byte	0
 10694 01da 00       		.byte	0
 10695 01db 24       		.uleb128 0x24
 10696 01dc 34       		.uleb128 0x34
 10697 01dd 00       		.byte	0
 10698 01de 03       		.uleb128 0x3
ARM GAS  /tmp/ccLrOMZj.s 			page 189


 10699 01df 0E       		.uleb128 0xe
 10700 01e0 3A       		.uleb128 0x3a
 10701 01e1 0B       		.uleb128 0xb
 10702 01e2 3B       		.uleb128 0x3b
 10703 01e3 0B       		.uleb128 0xb
 10704 01e4 49       		.uleb128 0x49
 10705 01e5 13       		.uleb128 0x13
 10706 01e6 00       		.byte	0
 10707 01e7 00       		.byte	0
 10708 01e8 25       		.uleb128 0x25
 10709 01e9 2E       		.uleb128 0x2e
 10710 01ea 01       		.byte	0x1
 10711 01eb 3F       		.uleb128 0x3f
 10712 01ec 0C       		.uleb128 0xc
 10713 01ed 03       		.uleb128 0x3
 10714 01ee 0E       		.uleb128 0xe
 10715 01ef 3A       		.uleb128 0x3a
 10716 01f0 0B       		.uleb128 0xb
 10717 01f1 3B       		.uleb128 0x3b
 10718 01f2 0B       		.uleb128 0xb
 10719 01f3 27       		.uleb128 0x27
 10720 01f4 0C       		.uleb128 0xc
 10721 01f5 49       		.uleb128 0x49
 10722 01f6 13       		.uleb128 0x13
 10723 01f7 11       		.uleb128 0x11
 10724 01f8 01       		.uleb128 0x1
 10725 01f9 12       		.uleb128 0x12
 10726 01fa 01       		.uleb128 0x1
 10727 01fb 40       		.uleb128 0x40
 10728 01fc 06       		.uleb128 0x6
 10729 01fd 9742     		.uleb128 0x2117
 10730 01ff 0C       		.uleb128 0xc
 10731 0200 01       		.uleb128 0x1
 10732 0201 13       		.uleb128 0x13
 10733 0202 00       		.byte	0
 10734 0203 00       		.byte	0
 10735 0204 26       		.uleb128 0x26
 10736 0205 0B       		.uleb128 0xb
 10737 0206 01       		.byte	0x1
 10738 0207 55       		.uleb128 0x55
 10739 0208 06       		.uleb128 0x6
 10740 0209 00       		.byte	0
 10741 020a 00       		.byte	0
 10742 020b 27       		.uleb128 0x27
 10743 020c 34       		.uleb128 0x34
 10744 020d 00       		.byte	0
 10745 020e 31       		.uleb128 0x31
 10746 020f 13       		.uleb128 0x13
 10747 0210 02       		.uleb128 0x2
 10748 0211 0A       		.uleb128 0xa
 10749 0212 00       		.byte	0
 10750 0213 00       		.byte	0
 10751 0214 28       		.uleb128 0x28
 10752 0215 898201   		.uleb128 0x4109
 10753 0218 01       		.byte	0x1
 10754 0219 11       		.uleb128 0x11
 10755 021a 01       		.uleb128 0x1
ARM GAS  /tmp/ccLrOMZj.s 			page 190


 10756 021b 31       		.uleb128 0x31
 10757 021c 13       		.uleb128 0x13
 10758 021d 01       		.uleb128 0x1
 10759 021e 13       		.uleb128 0x13
 10760 021f 00       		.byte	0
 10761 0220 00       		.byte	0
 10762 0221 29       		.uleb128 0x29
 10763 0222 8A8201   		.uleb128 0x410a
 10764 0225 00       		.byte	0
 10765 0226 02       		.uleb128 0x2
 10766 0227 0A       		.uleb128 0xa
 10767 0228 9142     		.uleb128 0x2111
 10768 022a 0A       		.uleb128 0xa
 10769 022b 00       		.byte	0
 10770 022c 00       		.byte	0
 10771 022d 2A       		.uleb128 0x2a
 10772 022e 898201   		.uleb128 0x4109
 10773 0231 01       		.byte	0x1
 10774 0232 11       		.uleb128 0x11
 10775 0233 01       		.uleb128 0x1
 10776 0234 31       		.uleb128 0x31
 10777 0235 13       		.uleb128 0x13
 10778 0236 00       		.byte	0
 10779 0237 00       		.byte	0
 10780 0238 2B       		.uleb128 0x2b
 10781 0239 05       		.uleb128 0x5
 10782 023a 00       		.byte	0
 10783 023b 31       		.uleb128 0x31
 10784 023c 13       		.uleb128 0x13
 10785 023d 1C       		.uleb128 0x1c
 10786 023e 0B       		.uleb128 0xb
 10787 023f 00       		.byte	0
 10788 0240 00       		.byte	0
 10789 0241 2C       		.uleb128 0x2c
 10790 0242 05       		.uleb128 0x5
 10791 0243 00       		.byte	0
 10792 0244 31       		.uleb128 0x31
 10793 0245 13       		.uleb128 0x13
 10794 0246 1C       		.uleb128 0x1c
 10795 0247 0D       		.uleb128 0xd
 10796 0248 00       		.byte	0
 10797 0249 00       		.byte	0
 10798 024a 2D       		.uleb128 0x2d
 10799 024b 05       		.uleb128 0x5
 10800 024c 00       		.byte	0
 10801 024d 31       		.uleb128 0x31
 10802 024e 13       		.uleb128 0x13
 10803 024f 1C       		.uleb128 0x1c
 10804 0250 05       		.uleb128 0x5
 10805 0251 00       		.byte	0
 10806 0252 00       		.byte	0
 10807 0253 2E       		.uleb128 0x2e
 10808 0254 2E       		.uleb128 0x2e
 10809 0255 01       		.byte	0x1
 10810 0256 31       		.uleb128 0x31
 10811 0257 13       		.uleb128 0x13
 10812 0258 11       		.uleb128 0x11
ARM GAS  /tmp/ccLrOMZj.s 			page 191


 10813 0259 01       		.uleb128 0x1
 10814 025a 12       		.uleb128 0x12
 10815 025b 01       		.uleb128 0x1
 10816 025c 40       		.uleb128 0x40
 10817 025d 06       		.uleb128 0x6
 10818 025e 9742     		.uleb128 0x2117
 10819 0260 0C       		.uleb128 0xc
 10820 0261 01       		.uleb128 0x1
 10821 0262 13       		.uleb128 0x13
 10822 0263 00       		.byte	0
 10823 0264 00       		.byte	0
 10824 0265 2F       		.uleb128 0x2f
 10825 0266 05       		.uleb128 0x5
 10826 0267 00       		.byte	0
 10827 0268 31       		.uleb128 0x31
 10828 0269 13       		.uleb128 0x13
 10829 026a 02       		.uleb128 0x2
 10830 026b 0A       		.uleb128 0xa
 10831 026c 00       		.byte	0
 10832 026d 00       		.byte	0
 10833 026e 30       		.uleb128 0x30
 10834 026f 1D       		.uleb128 0x1d
 10835 0270 01       		.byte	0x1
 10836 0271 31       		.uleb128 0x31
 10837 0272 13       		.uleb128 0x13
 10838 0273 52       		.uleb128 0x52
 10839 0274 01       		.uleb128 0x1
 10840 0275 55       		.uleb128 0x55
 10841 0276 06       		.uleb128 0x6
 10842 0277 58       		.uleb128 0x58
 10843 0278 0B       		.uleb128 0xb
 10844 0279 59       		.uleb128 0x59
 10845 027a 0B       		.uleb128 0xb
 10846 027b 00       		.byte	0
 10847 027c 00       		.byte	0
 10848 027d 31       		.uleb128 0x31
 10849 027e 2E       		.uleb128 0x2e
 10850 027f 01       		.byte	0x1
 10851 0280 3F       		.uleb128 0x3f
 10852 0281 0C       		.uleb128 0xc
 10853 0282 03       		.uleb128 0x3
 10854 0283 0E       		.uleb128 0xe
 10855 0284 3A       		.uleb128 0x3a
 10856 0285 0B       		.uleb128 0xb
 10857 0286 3B       		.uleb128 0x3b
 10858 0287 05       		.uleb128 0x5
 10859 0288 27       		.uleb128 0x27
 10860 0289 0C       		.uleb128 0xc
 10861 028a 11       		.uleb128 0x11
 10862 028b 01       		.uleb128 0x1
 10863 028c 12       		.uleb128 0x12
 10864 028d 01       		.uleb128 0x1
 10865 028e 40       		.uleb128 0x40
 10866 028f 06       		.uleb128 0x6
 10867 0290 9742     		.uleb128 0x2117
 10868 0292 0C       		.uleb128 0xc
 10869 0293 01       		.uleb128 0x1
ARM GAS  /tmp/ccLrOMZj.s 			page 192


 10870 0294 13       		.uleb128 0x13
 10871 0295 00       		.byte	0
 10872 0296 00       		.byte	0
 10873 0297 32       		.uleb128 0x32
 10874 0298 05       		.uleb128 0x5
 10875 0299 00       		.byte	0
 10876 029a 03       		.uleb128 0x3
 10877 029b 08       		.uleb128 0x8
 10878 029c 3A       		.uleb128 0x3a
 10879 029d 0B       		.uleb128 0xb
 10880 029e 3B       		.uleb128 0x3b
 10881 029f 05       		.uleb128 0x5
 10882 02a0 49       		.uleb128 0x49
 10883 02a1 13       		.uleb128 0x13
 10884 02a2 02       		.uleb128 0x2
 10885 02a3 06       		.uleb128 0x6
 10886 02a4 00       		.byte	0
 10887 02a5 00       		.byte	0
 10888 02a6 33       		.uleb128 0x33
 10889 02a7 05       		.uleb128 0x5
 10890 02a8 00       		.byte	0
 10891 02a9 03       		.uleb128 0x3
 10892 02aa 0E       		.uleb128 0xe
 10893 02ab 3A       		.uleb128 0x3a
 10894 02ac 0B       		.uleb128 0xb
 10895 02ad 3B       		.uleb128 0x3b
 10896 02ae 05       		.uleb128 0x5
 10897 02af 49       		.uleb128 0x49
 10898 02b0 13       		.uleb128 0x13
 10899 02b1 02       		.uleb128 0x2
 10900 02b2 06       		.uleb128 0x6
 10901 02b3 00       		.byte	0
 10902 02b4 00       		.byte	0
 10903 02b5 34       		.uleb128 0x34
 10904 02b6 05       		.uleb128 0x5
 10905 02b7 00       		.byte	0
 10906 02b8 03       		.uleb128 0x3
 10907 02b9 0E       		.uleb128 0xe
 10908 02ba 3A       		.uleb128 0x3a
 10909 02bb 0B       		.uleb128 0xb
 10910 02bc 3B       		.uleb128 0x3b
 10911 02bd 05       		.uleb128 0x5
 10912 02be 49       		.uleb128 0x49
 10913 02bf 13       		.uleb128 0x13
 10914 02c0 02       		.uleb128 0x2
 10915 02c1 0A       		.uleb128 0xa
 10916 02c2 00       		.byte	0
 10917 02c3 00       		.byte	0
 10918 02c4 35       		.uleb128 0x35
 10919 02c5 34       		.uleb128 0x34
 10920 02c6 00       		.byte	0
 10921 02c7 03       		.uleb128 0x3
 10922 02c8 08       		.uleb128 0x8
 10923 02c9 3A       		.uleb128 0x3a
 10924 02ca 0B       		.uleb128 0xb
 10925 02cb 3B       		.uleb128 0x3b
 10926 02cc 05       		.uleb128 0x5
ARM GAS  /tmp/ccLrOMZj.s 			page 193


 10927 02cd 49       		.uleb128 0x49
 10928 02ce 13       		.uleb128 0x13
 10929 02cf 02       		.uleb128 0x2
 10930 02d0 06       		.uleb128 0x6
 10931 02d1 00       		.byte	0
 10932 02d2 00       		.byte	0
 10933 02d3 36       		.uleb128 0x36
 10934 02d4 34       		.uleb128 0x34
 10935 02d5 00       		.byte	0
 10936 02d6 03       		.uleb128 0x3
 10937 02d7 0E       		.uleb128 0xe
 10938 02d8 3A       		.uleb128 0x3a
 10939 02d9 0B       		.uleb128 0xb
 10940 02da 3B       		.uleb128 0x3b
 10941 02db 05       		.uleb128 0x5
 10942 02dc 49       		.uleb128 0x49
 10943 02dd 13       		.uleb128 0x13
 10944 02de 02       		.uleb128 0x2
 10945 02df 06       		.uleb128 0x6
 10946 02e0 00       		.byte	0
 10947 02e1 00       		.byte	0
 10948 02e2 37       		.uleb128 0x37
 10949 02e3 05       		.uleb128 0x5
 10950 02e4 00       		.byte	0
 10951 02e5 03       		.uleb128 0x3
 10952 02e6 0E       		.uleb128 0xe
 10953 02e7 3A       		.uleb128 0x3a
 10954 02e8 0B       		.uleb128 0xb
 10955 02e9 3B       		.uleb128 0x3b
 10956 02ea 0B       		.uleb128 0xb
 10957 02eb 49       		.uleb128 0x49
 10958 02ec 13       		.uleb128 0x13
 10959 02ed 02       		.uleb128 0x2
 10960 02ee 06       		.uleb128 0x6
 10961 02ef 00       		.byte	0
 10962 02f0 00       		.byte	0
 10963 02f1 38       		.uleb128 0x38
 10964 02f2 34       		.uleb128 0x34
 10965 02f3 00       		.byte	0
 10966 02f4 03       		.uleb128 0x3
 10967 02f5 08       		.uleb128 0x8
 10968 02f6 3A       		.uleb128 0x3a
 10969 02f7 0B       		.uleb128 0xb
 10970 02f8 3B       		.uleb128 0x3b
 10971 02f9 0B       		.uleb128 0xb
 10972 02fa 49       		.uleb128 0x49
 10973 02fb 13       		.uleb128 0x13
 10974 02fc 02       		.uleb128 0x2
 10975 02fd 06       		.uleb128 0x6
 10976 02fe 00       		.byte	0
 10977 02ff 00       		.byte	0
 10978 0300 39       		.uleb128 0x39
 10979 0301 34       		.uleb128 0x34
 10980 0302 00       		.byte	0
 10981 0303 03       		.uleb128 0x3
 10982 0304 08       		.uleb128 0x8
 10983 0305 3A       		.uleb128 0x3a
ARM GAS  /tmp/ccLrOMZj.s 			page 194


 10984 0306 0B       		.uleb128 0xb
 10985 0307 3B       		.uleb128 0x3b
 10986 0308 0B       		.uleb128 0xb
 10987 0309 49       		.uleb128 0x49
 10988 030a 13       		.uleb128 0x13
 10989 030b 02       		.uleb128 0x2
 10990 030c 0A       		.uleb128 0xa
 10991 030d 00       		.byte	0
 10992 030e 00       		.byte	0
 10993 030f 3A       		.uleb128 0x3a
 10994 0310 34       		.uleb128 0x34
 10995 0311 00       		.byte	0
 10996 0312 03       		.uleb128 0x3
 10997 0313 0E       		.uleb128 0xe
 10998 0314 3A       		.uleb128 0x3a
 10999 0315 0B       		.uleb128 0xb
 11000 0316 3B       		.uleb128 0x3b
 11001 0317 05       		.uleb128 0x5
 11002 0318 49       		.uleb128 0x49
 11003 0319 13       		.uleb128 0x13
 11004 031a 1C       		.uleb128 0x1c
 11005 031b 06       		.uleb128 0x6
 11006 031c 00       		.byte	0
 11007 031d 00       		.byte	0
 11008 031e 3B       		.uleb128 0x3b
 11009 031f 1D       		.uleb128 0x1d
 11010 0320 01       		.byte	0x1
 11011 0321 31       		.uleb128 0x31
 11012 0322 13       		.uleb128 0x13
 11013 0323 52       		.uleb128 0x52
 11014 0324 01       		.uleb128 0x1
 11015 0325 55       		.uleb128 0x55
 11016 0326 06       		.uleb128 0x6
 11017 0327 58       		.uleb128 0x58
 11018 0328 0B       		.uleb128 0xb
 11019 0329 59       		.uleb128 0x59
 11020 032a 05       		.uleb128 0x5
 11021 032b 01       		.uleb128 0x1
 11022 032c 13       		.uleb128 0x13
 11023 032d 00       		.byte	0
 11024 032e 00       		.byte	0
 11025 032f 3C       		.uleb128 0x3c
 11026 0330 1D       		.uleb128 0x1d
 11027 0331 01       		.byte	0x1
 11028 0332 31       		.uleb128 0x31
 11029 0333 13       		.uleb128 0x13
 11030 0334 11       		.uleb128 0x11
 11031 0335 01       		.uleb128 0x1
 11032 0336 12       		.uleb128 0x12
 11033 0337 01       		.uleb128 0x1
 11034 0338 58       		.uleb128 0x58
 11035 0339 0B       		.uleb128 0xb
 11036 033a 59       		.uleb128 0x59
 11037 033b 05       		.uleb128 0x5
 11038 033c 00       		.byte	0
 11039 033d 00       		.byte	0
 11040 033e 3D       		.uleb128 0x3d
ARM GAS  /tmp/ccLrOMZj.s 			page 195


 11041 033f 1D       		.uleb128 0x1d
 11042 0340 01       		.byte	0x1
 11043 0341 31       		.uleb128 0x31
 11044 0342 13       		.uleb128 0x13
 11045 0343 52       		.uleb128 0x52
 11046 0344 01       		.uleb128 0x1
 11047 0345 55       		.uleb128 0x55
 11048 0346 06       		.uleb128 0x6
 11049 0347 58       		.uleb128 0x58
 11050 0348 0B       		.uleb128 0xb
 11051 0349 59       		.uleb128 0x59
 11052 034a 05       		.uleb128 0x5
 11053 034b 00       		.byte	0
 11054 034c 00       		.byte	0
 11055 034d 3E       		.uleb128 0x3e
 11056 034e 05       		.uleb128 0x5
 11057 034f 00       		.byte	0
 11058 0350 03       		.uleb128 0x3
 11059 0351 0E       		.uleb128 0xe
 11060 0352 3A       		.uleb128 0x3a
 11061 0353 0B       		.uleb128 0xb
 11062 0354 3B       		.uleb128 0x3b
 11063 0355 0B       		.uleb128 0xb
 11064 0356 49       		.uleb128 0x49
 11065 0357 13       		.uleb128 0x13
 11066 0358 02       		.uleb128 0x2
 11067 0359 0A       		.uleb128 0xa
 11068 035a 00       		.byte	0
 11069 035b 00       		.byte	0
 11070 035c 3F       		.uleb128 0x3f
 11071 035d 34       		.uleb128 0x34
 11072 035e 00       		.byte	0
 11073 035f 03       		.uleb128 0x3
 11074 0360 0E       		.uleb128 0xe
 11075 0361 3A       		.uleb128 0x3a
 11076 0362 0B       		.uleb128 0xb
 11077 0363 3B       		.uleb128 0x3b
 11078 0364 0B       		.uleb128 0xb
 11079 0365 49       		.uleb128 0x49
 11080 0366 13       		.uleb128 0x13
 11081 0367 02       		.uleb128 0x2
 11082 0368 06       		.uleb128 0x6
 11083 0369 00       		.byte	0
 11084 036a 00       		.byte	0
 11085 036b 40       		.uleb128 0x40
 11086 036c 898201   		.uleb128 0x4109
 11087 036f 01       		.byte	0x1
 11088 0370 11       		.uleb128 0x11
 11089 0371 01       		.uleb128 0x1
 11090 0372 9542     		.uleb128 0x2115
 11091 0374 0C       		.uleb128 0xc
 11092 0375 31       		.uleb128 0x31
 11093 0376 13       		.uleb128 0x13
 11094 0377 01       		.uleb128 0x1
 11095 0378 13       		.uleb128 0x13
 11096 0379 00       		.byte	0
 11097 037a 00       		.byte	0
ARM GAS  /tmp/ccLrOMZj.s 			page 196


 11098 037b 41       		.uleb128 0x41
 11099 037c 898201   		.uleb128 0x4109
 11100 037f 01       		.byte	0x1
 11101 0380 11       		.uleb128 0x11
 11102 0381 01       		.uleb128 0x1
 11103 0382 9542     		.uleb128 0x2115
 11104 0384 0C       		.uleb128 0xc
 11105 0385 31       		.uleb128 0x31
 11106 0386 13       		.uleb128 0x13
 11107 0387 00       		.byte	0
 11108 0388 00       		.byte	0
 11109 0389 42       		.uleb128 0x42
 11110 038a 34       		.uleb128 0x34
 11111 038b 00       		.byte	0
 11112 038c 03       		.uleb128 0x3
 11113 038d 0E       		.uleb128 0xe
 11114 038e 3A       		.uleb128 0x3a
 11115 038f 0B       		.uleb128 0xb
 11116 0390 3B       		.uleb128 0x3b
 11117 0391 05       		.uleb128 0x5
 11118 0392 49       		.uleb128 0x49
 11119 0393 13       		.uleb128 0x13
 11120 0394 00       		.byte	0
 11121 0395 00       		.byte	0
 11122 0396 43       		.uleb128 0x43
 11123 0397 34       		.uleb128 0x34
 11124 0398 00       		.byte	0
 11125 0399 03       		.uleb128 0x3
 11126 039a 08       		.uleb128 0x8
 11127 039b 3A       		.uleb128 0x3a
 11128 039c 0B       		.uleb128 0xb
 11129 039d 3B       		.uleb128 0x3b
 11130 039e 05       		.uleb128 0x5
 11131 039f 49       		.uleb128 0x49
 11132 03a0 13       		.uleb128 0x13
 11133 03a1 02       		.uleb128 0x2
 11134 03a2 0A       		.uleb128 0xa
 11135 03a3 00       		.byte	0
 11136 03a4 00       		.byte	0
 11137 03a5 44       		.uleb128 0x44
 11138 03a6 21       		.uleb128 0x21
 11139 03a7 00       		.byte	0
 11140 03a8 49       		.uleb128 0x49
 11141 03a9 13       		.uleb128 0x13
 11142 03aa 2F       		.uleb128 0x2f
 11143 03ab 05       		.uleb128 0x5
 11144 03ac 00       		.byte	0
 11145 03ad 00       		.byte	0
 11146 03ae 45       		.uleb128 0x45
 11147 03af 1D       		.uleb128 0x1d
 11148 03b0 01       		.byte	0x1
 11149 03b1 31       		.uleb128 0x31
 11150 03b2 13       		.uleb128 0x13
 11151 03b3 11       		.uleb128 0x11
 11152 03b4 01       		.uleb128 0x1
 11153 03b5 12       		.uleb128 0x12
 11154 03b6 01       		.uleb128 0x1
ARM GAS  /tmp/ccLrOMZj.s 			page 197


 11155 03b7 58       		.uleb128 0x58
 11156 03b8 0B       		.uleb128 0xb
 11157 03b9 59       		.uleb128 0x59
 11158 03ba 05       		.uleb128 0x5
 11159 03bb 01       		.uleb128 0x1
 11160 03bc 13       		.uleb128 0x13
 11161 03bd 00       		.byte	0
 11162 03be 00       		.byte	0
 11163 03bf 46       		.uleb128 0x46
 11164 03c0 898201   		.uleb128 0x4109
 11165 03c3 00       		.byte	0
 11166 03c4 11       		.uleb128 0x11
 11167 03c5 01       		.uleb128 0x1
 11168 03c6 31       		.uleb128 0x31
 11169 03c7 13       		.uleb128 0x13
 11170 03c8 00       		.byte	0
 11171 03c9 00       		.byte	0
 11172 03ca 47       		.uleb128 0x47
 11173 03cb 34       		.uleb128 0x34
 11174 03cc 00       		.byte	0
 11175 03cd 03       		.uleb128 0x3
 11176 03ce 0E       		.uleb128 0xe
 11177 03cf 3A       		.uleb128 0x3a
 11178 03d0 0B       		.uleb128 0xb
 11179 03d1 3B       		.uleb128 0x3b
 11180 03d2 05       		.uleb128 0x5
 11181 03d3 49       		.uleb128 0x49
 11182 03d4 13       		.uleb128 0x13
 11183 03d5 3F       		.uleb128 0x3f
 11184 03d6 0C       		.uleb128 0xc
 11185 03d7 3C       		.uleb128 0x3c
 11186 03d8 0C       		.uleb128 0xc
 11187 03d9 00       		.byte	0
 11188 03da 00       		.byte	0
 11189 03db 48       		.uleb128 0x48
 11190 03dc 34       		.uleb128 0x34
 11191 03dd 00       		.byte	0
 11192 03de 03       		.uleb128 0x3
 11193 03df 0E       		.uleb128 0xe
 11194 03e0 3A       		.uleb128 0x3a
 11195 03e1 0B       		.uleb128 0xb
 11196 03e2 3B       		.uleb128 0x3b
 11197 03e3 0B       		.uleb128 0xb
 11198 03e4 49       		.uleb128 0x49
 11199 03e5 13       		.uleb128 0x13
 11200 03e6 3F       		.uleb128 0x3f
 11201 03e7 0C       		.uleb128 0xc
 11202 03e8 02       		.uleb128 0x2
 11203 03e9 0A       		.uleb128 0xa
 11204 03ea 00       		.byte	0
 11205 03eb 00       		.byte	0
 11206 03ec 49       		.uleb128 0x49
 11207 03ed 2E       		.uleb128 0x2e
 11208 03ee 01       		.byte	0x1
 11209 03ef 3F       		.uleb128 0x3f
 11210 03f0 0C       		.uleb128 0xc
 11211 03f1 03       		.uleb128 0x3
ARM GAS  /tmp/ccLrOMZj.s 			page 198


 11212 03f2 0E       		.uleb128 0xe
 11213 03f3 3A       		.uleb128 0x3a
 11214 03f4 0B       		.uleb128 0xb
 11215 03f5 3B       		.uleb128 0x3b
 11216 03f6 05       		.uleb128 0x5
 11217 03f7 27       		.uleb128 0x27
 11218 03f8 0C       		.uleb128 0xc
 11219 03f9 3C       		.uleb128 0x3c
 11220 03fa 0C       		.uleb128 0xc
 11221 03fb 01       		.uleb128 0x1
 11222 03fc 13       		.uleb128 0x13
 11223 03fd 00       		.byte	0
 11224 03fe 00       		.byte	0
 11225 03ff 4A       		.uleb128 0x4a
 11226 0400 05       		.uleb128 0x5
 11227 0401 00       		.byte	0
 11228 0402 49       		.uleb128 0x49
 11229 0403 13       		.uleb128 0x13
 11230 0404 00       		.byte	0
 11231 0405 00       		.byte	0
 11232 0406 4B       		.uleb128 0x4b
 11233 0407 2E       		.uleb128 0x2e
 11234 0408 01       		.byte	0x1
 11235 0409 3F       		.uleb128 0x3f
 11236 040a 0C       		.uleb128 0xc
 11237 040b 03       		.uleb128 0x3
 11238 040c 0E       		.uleb128 0xe
 11239 040d 3A       		.uleb128 0x3a
 11240 040e 0B       		.uleb128 0xb
 11241 040f 3B       		.uleb128 0x3b
 11242 0410 0B       		.uleb128 0xb
 11243 0411 27       		.uleb128 0x27
 11244 0412 0C       		.uleb128 0xc
 11245 0413 3C       		.uleb128 0x3c
 11246 0414 0C       		.uleb128 0xc
 11247 0415 01       		.uleb128 0x1
 11248 0416 13       		.uleb128 0x13
 11249 0417 00       		.byte	0
 11250 0418 00       		.byte	0
 11251 0419 4C       		.uleb128 0x4c
 11252 041a 2E       		.uleb128 0x2e
 11253 041b 01       		.byte	0x1
 11254 041c 3F       		.uleb128 0x3f
 11255 041d 0C       		.uleb128 0xc
 11256 041e 03       		.uleb128 0x3
 11257 041f 0E       		.uleb128 0xe
 11258 0420 3A       		.uleb128 0x3a
 11259 0421 0B       		.uleb128 0xb
 11260 0422 3B       		.uleb128 0x3b
 11261 0423 0B       		.uleb128 0xb
 11262 0424 27       		.uleb128 0x27
 11263 0425 0C       		.uleb128 0xc
 11264 0426 3C       		.uleb128 0x3c
 11265 0427 0C       		.uleb128 0xc
 11266 0428 00       		.byte	0
 11267 0429 00       		.byte	0
 11268 042a 00       		.byte	0
ARM GAS  /tmp/ccLrOMZj.s 			page 199


 11269              		.section	.debug_loc,"",%progbits
 11270              	.Ldebug_loc0:
 11271              	.LLST0:
 11272 0000 00000000 		.4byte	.LFB133
 11273 0004 02000000 		.4byte	.LCFI0
 11274 0008 0200     		.2byte	0x2
 11275 000a 7D       		.byte	0x7d
 11276 000b 00       		.sleb128 0
 11277 000c 02000000 		.4byte	.LCFI0
 11278 0010 BC010000 		.4byte	.LFE133
 11279 0014 0200     		.2byte	0x2
 11280 0016 7D       		.byte	0x7d
 11281 0017 0C       		.sleb128 12
 11282 0018 00000000 		.4byte	0
 11283 001c 00000000 		.4byte	0
 11284              	.LLST1:
 11285 0020 00000000 		.4byte	.LVL0
 11286 0024 34000000 		.4byte	.LVL6
 11287 0028 0100     		.2byte	0x1
 11288 002a 50       		.byte	0x50
 11289 002b 34000000 		.4byte	.LVL6
 11290 002f 64000000 		.4byte	.LVL18
 11291 0033 0400     		.2byte	0x4
 11292 0035 F3       		.byte	0xf3
 11293 0036 01       		.uleb128 0x1
 11294 0037 50       		.byte	0x50
 11295 0038 9F       		.byte	0x9f
 11296 0039 64000000 		.4byte	.LVL18
 11297 003d 76000000 		.4byte	.LVL20
 11298 0041 0100     		.2byte	0x1
 11299 0043 50       		.byte	0x50
 11300 0044 76000000 		.4byte	.LVL20
 11301 0048 AA000000 		.4byte	.LVL30
 11302 004c 0100     		.2byte	0x1
 11303 004e 56       		.byte	0x56
 11304 004f AA000000 		.4byte	.LVL30
 11305 0053 C8000000 		.4byte	.LVL34
 11306 0057 0400     		.2byte	0x4
 11307 0059 F3       		.byte	0xf3
 11308 005a 01       		.uleb128 0x1
 11309 005b 50       		.byte	0x50
 11310 005c 9F       		.byte	0x9f
 11311 005d C8000000 		.4byte	.LVL34
 11312 0061 F0000000 		.4byte	.LVL38
 11313 0065 0100     		.2byte	0x1
 11314 0067 50       		.byte	0x50
 11315 0068 F0000000 		.4byte	.LVL38
 11316 006c 2C010000 		.4byte	.LVL50
 11317 0070 0400     		.2byte	0x4
 11318 0072 F3       		.byte	0xf3
 11319 0073 01       		.uleb128 0x1
 11320 0074 50       		.byte	0x50
 11321 0075 9F       		.byte	0x9f
 11322 0076 2C010000 		.4byte	.LVL50
 11323 007a 34010000 		.4byte	.LVL52
 11324 007e 0100     		.2byte	0x1
 11325 0080 50       		.byte	0x50
ARM GAS  /tmp/ccLrOMZj.s 			page 200


 11326 0081 34010000 		.4byte	.LVL52
 11327 0085 7A010000 		.4byte	.LVL67
 11328 0089 0400     		.2byte	0x4
 11329 008b F3       		.byte	0xf3
 11330 008c 01       		.uleb128 0x1
 11331 008d 50       		.byte	0x50
 11332 008e 9F       		.byte	0x9f
 11333 008f 7A010000 		.4byte	.LVL67
 11334 0093 8A010000 		.4byte	.LVL69
 11335 0097 0100     		.2byte	0x1
 11336 0099 50       		.byte	0x50
 11337 009a 8A010000 		.4byte	.LVL69
 11338 009e 90010000 		.4byte	.LVL71
 11339 00a2 0400     		.2byte	0x4
 11340 00a4 F3       		.byte	0xf3
 11341 00a5 01       		.uleb128 0x1
 11342 00a6 50       		.byte	0x50
 11343 00a7 9F       		.byte	0x9f
 11344 00a8 90010000 		.4byte	.LVL71
 11345 00ac 94010000 		.4byte	.LVL72
 11346 00b0 0100     		.2byte	0x1
 11347 00b2 50       		.byte	0x50
 11348 00b3 94010000 		.4byte	.LVL72
 11349 00b7 98010000 		.4byte	.LVL74
 11350 00bb 0400     		.2byte	0x4
 11351 00bd F3       		.byte	0xf3
 11352 00be 01       		.uleb128 0x1
 11353 00bf 50       		.byte	0x50
 11354 00c0 9F       		.byte	0x9f
 11355 00c1 98010000 		.4byte	.LVL74
 11356 00c5 A6010000 		.4byte	.LVL76
 11357 00c9 0100     		.2byte	0x1
 11358 00cb 50       		.byte	0x50
 11359 00cc A6010000 		.4byte	.LVL76
 11360 00d0 A8010000 		.4byte	.LVL77
 11361 00d4 0100     		.2byte	0x1
 11362 00d6 55       		.byte	0x55
 11363 00d7 A8010000 		.4byte	.LVL77
 11364 00db BC010000 		.4byte	.LFE133
 11365 00df 0100     		.2byte	0x1
 11366 00e1 50       		.byte	0x50
 11367 00e2 00000000 		.4byte	0
 11368 00e6 00000000 		.4byte	0
 11369              	.LLST2:
 11370 00ea 00000000 		.4byte	.LVL0
 11371 00ee 1C000000 		.4byte	.LVL2
 11372 00f2 0100     		.2byte	0x1
 11373 00f4 51       		.byte	0x51
 11374 00f5 1C000000 		.4byte	.LVL2
 11375 00f9 64000000 		.4byte	.LVL18
 11376 00fd 0400     		.2byte	0x4
 11377 00ff F3       		.byte	0xf3
 11378 0100 01       		.uleb128 0x1
 11379 0101 51       		.byte	0x51
 11380 0102 9F       		.byte	0x9f
 11381 0103 64000000 		.4byte	.LVL18
 11382 0107 8C000000 		.4byte	.LVL22
ARM GAS  /tmp/ccLrOMZj.s 			page 201


 11383 010b 0100     		.2byte	0x1
 11384 010d 51       		.byte	0x51
 11385 010e 8C000000 		.4byte	.LVL22
 11386 0112 C8000000 		.4byte	.LVL34
 11387 0116 0400     		.2byte	0x4
 11388 0118 F3       		.byte	0xf3
 11389 0119 01       		.uleb128 0x1
 11390 011a 51       		.byte	0x51
 11391 011b 9F       		.byte	0x9f
 11392 011c C8000000 		.4byte	.LVL34
 11393 0120 DA000000 		.4byte	.LVL36
 11394 0124 0100     		.2byte	0x1
 11395 0126 51       		.byte	0x51
 11396 0127 DA000000 		.4byte	.LVL36
 11397 012b 0E010000 		.4byte	.LVL46
 11398 012f 0100     		.2byte	0x1
 11399 0131 56       		.byte	0x56
 11400 0132 0E010000 		.4byte	.LVL46
 11401 0136 2C010000 		.4byte	.LVL50
 11402 013a 0400     		.2byte	0x4
 11403 013c F3       		.byte	0xf3
 11404 013d 01       		.uleb128 0x1
 11405 013e 51       		.byte	0x51
 11406 013f 9F       		.byte	0x9f
 11407 0140 2C010000 		.4byte	.LVL50
 11408 0144 4C010000 		.4byte	.LVL56
 11409 0148 0100     		.2byte	0x1
 11410 014a 51       		.byte	0x51
 11411 014b 4C010000 		.4byte	.LVL56
 11412 014f 7A010000 		.4byte	.LVL67
 11413 0153 0400     		.2byte	0x4
 11414 0155 F3       		.byte	0xf3
 11415 0156 01       		.uleb128 0x1
 11416 0157 51       		.byte	0x51
 11417 0158 9F       		.byte	0x9f
 11418 0159 7A010000 		.4byte	.LVL67
 11419 015d 8C010000 		.4byte	.LVL70
 11420 0161 0100     		.2byte	0x1
 11421 0163 51       		.byte	0x51
 11422 0164 8C010000 		.4byte	.LVL70
 11423 0168 90010000 		.4byte	.LVL71
 11424 016c 0400     		.2byte	0x4
 11425 016e F3       		.byte	0xf3
 11426 016f 01       		.uleb128 0x1
 11427 0170 51       		.byte	0x51
 11428 0171 9F       		.byte	0x9f
 11429 0172 90010000 		.4byte	.LVL71
 11430 0176 96010000 		.4byte	.LVL73
 11431 017a 0100     		.2byte	0x1
 11432 017c 51       		.byte	0x51
 11433 017d 96010000 		.4byte	.LVL73
 11434 0181 98010000 		.4byte	.LVL74
 11435 0185 0400     		.2byte	0x4
 11436 0187 F3       		.byte	0xf3
 11437 0188 01       		.uleb128 0x1
 11438 0189 51       		.byte	0x51
 11439 018a 9F       		.byte	0x9f
ARM GAS  /tmp/ccLrOMZj.s 			page 202


 11440 018b 98010000 		.4byte	.LVL74
 11441 018f B6010000 		.4byte	.LVL79
 11442 0193 0100     		.2byte	0x1
 11443 0195 51       		.byte	0x51
 11444 0196 B6010000 		.4byte	.LVL79
 11445 019a BC010000 		.4byte	.LFE133
 11446 019e 0100     		.2byte	0x1
 11447 01a0 55       		.byte	0x55
 11448 01a1 00000000 		.4byte	0
 11449 01a5 00000000 		.4byte	0
 11450              	.LLST3:
 11451 01a9 00000000 		.4byte	.LVL0
 11452 01ad 28000000 		.4byte	.LVL4
 11453 01b1 0100     		.2byte	0x1
 11454 01b3 52       		.byte	0x52
 11455 01b4 28000000 		.4byte	.LVL4
 11456 01b8 64000000 		.4byte	.LVL18
 11457 01bc 0400     		.2byte	0x4
 11458 01be F3       		.byte	0xf3
 11459 01bf 01       		.uleb128 0x1
 11460 01c0 52       		.byte	0x52
 11461 01c1 9F       		.byte	0x9f
 11462 01c2 64000000 		.4byte	.LVL18
 11463 01c6 6E000000 		.4byte	.LVL19
 11464 01ca 0100     		.2byte	0x1
 11465 01cc 52       		.byte	0x52
 11466 01cd 6E000000 		.4byte	.LVL19
 11467 01d1 C8000000 		.4byte	.LVL34
 11468 01d5 0400     		.2byte	0x4
 11469 01d7 F3       		.byte	0xf3
 11470 01d8 01       		.uleb128 0x1
 11471 01d9 52       		.byte	0x52
 11472 01da 9F       		.byte	0x9f
 11473 01db C8000000 		.4byte	.LVL34
 11474 01df E4000000 		.4byte	.LVL37
 11475 01e3 0100     		.2byte	0x1
 11476 01e5 52       		.byte	0x52
 11477 01e6 E4000000 		.4byte	.LVL37
 11478 01ea 2C010000 		.4byte	.LVL50
 11479 01ee 0400     		.2byte	0x4
 11480 01f0 F3       		.byte	0xf3
 11481 01f1 01       		.uleb128 0x1
 11482 01f2 52       		.byte	0x52
 11483 01f3 9F       		.byte	0x9f
 11484 01f4 2C010000 		.4byte	.LVL50
 11485 01f8 32010000 		.4byte	.LVL51
 11486 01fc 0100     		.2byte	0x1
 11487 01fe 52       		.byte	0x52
 11488 01ff 32010000 		.4byte	.LVL51
 11489 0203 7A010000 		.4byte	.LVL67
 11490 0207 0400     		.2byte	0x4
 11491 0209 F3       		.byte	0xf3
 11492 020a 01       		.uleb128 0x1
 11493 020b 52       		.byte	0x52
 11494 020c 9F       		.byte	0x9f
 11495 020d 7A010000 		.4byte	.LVL67
 11496 0211 A2010000 		.4byte	.LVL75
ARM GAS  /tmp/ccLrOMZj.s 			page 203


 11497 0215 0100     		.2byte	0x1
 11498 0217 52       		.byte	0x52
 11499 0218 A2010000 		.4byte	.LVL75
 11500 021c A8010000 		.4byte	.LVL77
 11501 0220 0400     		.2byte	0x4
 11502 0222 F3       		.byte	0xf3
 11503 0223 01       		.uleb128 0x1
 11504 0224 52       		.byte	0x52
 11505 0225 9F       		.byte	0x9f
 11506 0226 A8010000 		.4byte	.LVL77
 11507 022a B2010000 		.4byte	.LVL78
 11508 022e 0100     		.2byte	0x1
 11509 0230 52       		.byte	0x52
 11510 0231 B2010000 		.4byte	.LVL78
 11511 0235 BC010000 		.4byte	.LFE133
 11512 0239 0400     		.2byte	0x4
 11513 023b F3       		.byte	0xf3
 11514 023c 01       		.uleb128 0x1
 11515 023d 52       		.byte	0x52
 11516 023e 9F       		.byte	0x9f
 11517 023f 00000000 		.4byte	0
 11518 0243 00000000 		.4byte	0
 11519              	.LLST4:
 11520 0247 00000000 		.4byte	.LVL0
 11521 024b 1E000000 		.4byte	.LVL3
 11522 024f 0100     		.2byte	0x1
 11523 0251 53       		.byte	0x53
 11524 0252 1E000000 		.4byte	.LVL3
 11525 0256 64000000 		.4byte	.LVL18
 11526 025a 0400     		.2byte	0x4
 11527 025c F3       		.byte	0xf3
 11528 025d 01       		.uleb128 0x1
 11529 025e 53       		.byte	0x53
 11530 025f 9F       		.byte	0x9f
 11531 0260 64000000 		.4byte	.LVL18
 11532 0264 80000000 		.4byte	.LVL21
 11533 0268 0100     		.2byte	0x1
 11534 026a 53       		.byte	0x53
 11535 026b 80000000 		.4byte	.LVL21
 11536 026f C8000000 		.4byte	.LVL34
 11537 0273 0400     		.2byte	0x4
 11538 0275 F3       		.byte	0xf3
 11539 0276 01       		.uleb128 0x1
 11540 0277 53       		.byte	0x53
 11541 0278 9F       		.byte	0x9f
 11542 0279 C8000000 		.4byte	.LVL34
 11543 027d D2000000 		.4byte	.LVL35
 11544 0281 0100     		.2byte	0x1
 11545 0283 53       		.byte	0x53
 11546 0284 D2000000 		.4byte	.LVL35
 11547 0288 2C010000 		.4byte	.LVL50
 11548 028c 0400     		.2byte	0x4
 11549 028e F3       		.byte	0xf3
 11550 028f 01       		.uleb128 0x1
 11551 0290 53       		.byte	0x53
 11552 0291 9F       		.byte	0x9f
 11553 0292 2C010000 		.4byte	.LVL50
ARM GAS  /tmp/ccLrOMZj.s 			page 204


 11554 0296 3C010000 		.4byte	.LVL53
 11555 029a 0100     		.2byte	0x1
 11556 029c 53       		.byte	0x53
 11557 029d 3C010000 		.4byte	.LVL53
 11558 02a1 7A010000 		.4byte	.LVL67
 11559 02a5 0400     		.2byte	0x4
 11560 02a7 F3       		.byte	0xf3
 11561 02a8 01       		.uleb128 0x1
 11562 02a9 53       		.byte	0x53
 11563 02aa 9F       		.byte	0x9f
 11564 02ab 7A010000 		.4byte	.LVL67
 11565 02af 84010000 		.4byte	.LVL68
 11566 02b3 0100     		.2byte	0x1
 11567 02b5 53       		.byte	0x53
 11568 02b6 84010000 		.4byte	.LVL68
 11569 02ba BC010000 		.4byte	.LFE133
 11570 02be 0400     		.2byte	0x4
 11571 02c0 F3       		.byte	0xf3
 11572 02c1 01       		.uleb128 0x1
 11573 02c2 53       		.byte	0x53
 11574 02c3 9F       		.byte	0x9f
 11575 02c4 00000000 		.4byte	0
 11576 02c8 00000000 		.4byte	0
 11577              	.LLST5:
 11578 02cc 32000000 		.4byte	.LVL5
 11579 02d0 3A000000 		.4byte	.LVL8
 11580 02d4 0100     		.2byte	0x1
 11581 02d6 55       		.byte	0x55
 11582 02d7 00000000 		.4byte	0
 11583 02db 00000000 		.4byte	0
 11584              	.LLST6:
 11585 02df 14000000 		.4byte	.LVL1
 11586 02e3 48000000 		.4byte	.LVL12
 11587 02e7 0300     		.2byte	0x3
 11588 02e9 08       		.byte	0x8
 11589 02ea 44       		.byte	0x44
 11590 02eb 9F       		.byte	0x9f
 11591 02ec 00000000 		.4byte	0
 11592 02f0 00000000 		.4byte	0
 11593              	.LLST7:
 11594 02f4 36000000 		.4byte	.LVL7
 11595 02f8 48000000 		.4byte	.LVL12
 11596 02fc 0300     		.2byte	0x3
 11597 02fe 08       		.byte	0x8
 11598 02ff 45       		.byte	0x45
 11599 0300 9F       		.byte	0x9f
 11600 0301 00000000 		.4byte	0
 11601 0305 00000000 		.4byte	0
 11602              	.LLST8:
 11603 0309 44000000 		.4byte	.LVL10
 11604 030d 48000000 		.4byte	.LVL12
 11605 0311 0300     		.2byte	0x3
 11606 0313 08       		.byte	0x8
 11607 0314 46       		.byte	0x46
 11608 0315 9F       		.byte	0x9f
 11609 0316 00000000 		.4byte	0
 11610 031a 00000000 		.4byte	0
ARM GAS  /tmp/ccLrOMZj.s 			page 205


 11611              	.LLST9:
 11612 031e 3E000000 		.4byte	.LVL9
 11613 0322 48000000 		.4byte	.LVL12
 11614 0326 0100     		.2byte	0x1
 11615 0328 50       		.byte	0x50
 11616 0329 00000000 		.4byte	0
 11617 032d 00000000 		.4byte	0
 11618              	.LLST10:
 11619 0331 46000000 		.4byte	.LVL11
 11620 0335 48000000 		.4byte	.LVL12
 11621 0339 0100     		.2byte	0x1
 11622 033b 52       		.byte	0x52
 11623 033c 00000000 		.4byte	0
 11624 0340 00000000 		.4byte	0
 11625              	.LLST11:
 11626 0344 7A010000 		.4byte	.LVL67
 11627 0348 8C010000 		.4byte	.LVL70
 11628 034c 0100     		.2byte	0x1
 11629 034e 51       		.byte	0x51
 11630 034f 90010000 		.4byte	.LVL71
 11631 0353 96010000 		.4byte	.LVL73
 11632 0357 0100     		.2byte	0x1
 11633 0359 51       		.byte	0x51
 11634 035a 98010000 		.4byte	.LVL74
 11635 035e B6010000 		.4byte	.LVL79
 11636 0362 0100     		.2byte	0x1
 11637 0364 51       		.byte	0x51
 11638 0365 00000000 		.4byte	0
 11639 0369 00000000 		.4byte	0
 11640              	.LLST12:
 11641 036d 7A010000 		.4byte	.LVL67
 11642 0371 8A010000 		.4byte	.LVL69
 11643 0375 0100     		.2byte	0x1
 11644 0377 50       		.byte	0x50
 11645 0378 90010000 		.4byte	.LVL71
 11646 037c 94010000 		.4byte	.LVL72
 11647 0380 0100     		.2byte	0x1
 11648 0382 50       		.byte	0x50
 11649 0383 98010000 		.4byte	.LVL74
 11650 0387 A6010000 		.4byte	.LVL76
 11651 038b 0100     		.2byte	0x1
 11652 038d 50       		.byte	0x50
 11653 038e A8010000 		.4byte	.LVL77
 11654 0392 BC010000 		.4byte	.LFE133
 11655 0396 0100     		.2byte	0x1
 11656 0398 50       		.byte	0x50
 11657 0399 00000000 		.4byte	0
 11658 039d 00000000 		.4byte	0
 11659              	.LLST13:
 11660 03a1 54000000 		.4byte	.LVL13
 11661 03a5 5C000000 		.4byte	.LVL15
 11662 03a9 0100     		.2byte	0x1
 11663 03ab 51       		.byte	0x51
 11664 03ac 00000000 		.4byte	0
 11665 03b0 00000000 		.4byte	0
 11666              	.LLST14:
 11667 03b4 48000000 		.4byte	.LVL12
ARM GAS  /tmp/ccLrOMZj.s 			page 206


 11668 03b8 60000000 		.4byte	.LVL17
 11669 03bc 0300     		.2byte	0x3
 11670 03be 08       		.byte	0x8
 11671 03bf 4E       		.byte	0x4e
 11672 03c0 9F       		.byte	0x9f
 11673 03c1 00000000 		.4byte	0
 11674 03c5 00000000 		.4byte	0
 11675              	.LLST15:
 11676 03c9 5A000000 		.4byte	.LVL14
 11677 03cd 60000000 		.4byte	.LVL17
 11678 03d1 0300     		.2byte	0x3
 11679 03d3 08       		.byte	0x8
 11680 03d4 4F       		.byte	0x4f
 11681 03d5 9F       		.byte	0x9f
 11682 03d6 00000000 		.4byte	0
 11683 03da 00000000 		.4byte	0
 11684              	.LLST16:
 11685 03de 5E000000 		.4byte	.LVL16
 11686 03e2 60000000 		.4byte	.LVL17
 11687 03e6 0100     		.2byte	0x1
 11688 03e8 50       		.byte	0x50
 11689 03e9 00000000 		.4byte	0
 11690 03ed 00000000 		.4byte	0
 11691              	.LLST17:
 11692 03f1 AA000000 		.4byte	.LVL30
 11693 03f5 C8000000 		.4byte	.LVL34
 11694 03f9 0300     		.2byte	0x3
 11695 03fb 08       		.byte	0x8
 11696 03fc 4E       		.byte	0x4e
 11697 03fd 9F       		.byte	0x9f
 11698 03fe 00000000 		.4byte	0
 11699 0402 00000000 		.4byte	0
 11700              	.LLST18:
 11701 0406 BA000000 		.4byte	.LVL31
 11702 040a C8000000 		.4byte	.LVL34
 11703 040e 0100     		.2byte	0x1
 11704 0410 56       		.byte	0x56
 11705 0411 00000000 		.4byte	0
 11706 0415 00000000 		.4byte	0
 11707              	.LLST19:
 11708 0419 C2000000 		.4byte	.LVL32
 11709 041d C8000000 		.4byte	.LVL34
 11710 0421 0300     		.2byte	0x3
 11711 0423 08       		.byte	0x8
 11712 0424 4F       		.byte	0x4f
 11713 0425 9F       		.byte	0x9f
 11714 0426 00000000 		.4byte	0
 11715 042a 00000000 		.4byte	0
 11716              	.LLST20:
 11717 042e C4000000 		.4byte	.LVL33
 11718 0432 C8000000 		.4byte	.LVL34
 11719 0436 0100     		.2byte	0x1
 11720 0438 51       		.byte	0x51
 11721 0439 00000000 		.4byte	0
 11722 043d 00000000 		.4byte	0
 11723              	.LLST21:
 11724 0441 0E010000 		.4byte	.LVL46
ARM GAS  /tmp/ccLrOMZj.s 			page 207


 11725 0445 2C010000 		.4byte	.LVL50
 11726 0449 0300     		.2byte	0x3
 11727 044b 08       		.byte	0x8
 11728 044c 4E       		.byte	0x4e
 11729 044d 9F       		.byte	0x9f
 11730 044e 00000000 		.4byte	0
 11731 0452 00000000 		.4byte	0
 11732              	.LLST22:
 11733 0456 1E010000 		.4byte	.LVL47
 11734 045a 2C010000 		.4byte	.LVL50
 11735 045e 0100     		.2byte	0x1
 11736 0460 56       		.byte	0x56
 11737 0461 00000000 		.4byte	0
 11738 0465 00000000 		.4byte	0
 11739              	.LLST23:
 11740 0469 26010000 		.4byte	.LVL48
 11741 046d 2C010000 		.4byte	.LVL50
 11742 0471 0300     		.2byte	0x3
 11743 0473 08       		.byte	0x8
 11744 0474 4F       		.byte	0x4f
 11745 0475 9F       		.byte	0x9f
 11746 0476 00000000 		.4byte	0
 11747 047a 00000000 		.4byte	0
 11748              	.LLST24:
 11749 047e 28010000 		.4byte	.LVL49
 11750 0482 2C010000 		.4byte	.LVL50
 11751 0486 0100     		.2byte	0x1
 11752 0488 50       		.byte	0x50
 11753 0489 00000000 		.4byte	0
 11754 048d 00000000 		.4byte	0
 11755              	.LLST25:
 11756 0491 6C010000 		.4byte	.LVL63
 11757 0495 74010000 		.4byte	.LVL65
 11758 0499 0100     		.2byte	0x1
 11759 049b 50       		.byte	0x50
 11760 049c 00000000 		.4byte	0
 11761 04a0 00000000 		.4byte	0
 11762              	.LLST26:
 11763 04a4 60010000 		.4byte	.LVL62
 11764 04a8 7A010000 		.4byte	.LVL67
 11765 04ac 0300     		.2byte	0x3
 11766 04ae 08       		.byte	0x8
 11767 04af 4E       		.byte	0x4e
 11768 04b0 9F       		.byte	0x9f
 11769 04b1 00000000 		.4byte	0
 11770 04b5 00000000 		.4byte	0
 11771              	.LLST27:
 11772 04b9 72010000 		.4byte	.LVL64
 11773 04bd 7A010000 		.4byte	.LVL67
 11774 04c1 0300     		.2byte	0x3
 11775 04c3 08       		.byte	0x8
 11776 04c4 4F       		.byte	0x4f
 11777 04c5 9F       		.byte	0x9f
 11778 04c6 00000000 		.4byte	0
 11779 04ca 00000000 		.4byte	0
 11780              	.LLST28:
 11781 04ce 76010000 		.4byte	.LVL66
ARM GAS  /tmp/ccLrOMZj.s 			page 208


 11782 04d2 7A010000 		.4byte	.LVL67
 11783 04d6 0100     		.2byte	0x1
 11784 04d8 51       		.byte	0x51
 11785 04d9 00000000 		.4byte	0
 11786 04dd 00000000 		.4byte	0
 11787              	.LLST29:
 11788 04e1 8E000000 		.4byte	.LVL23
 11789 04e5 94000000 		.4byte	.LVL24
 11790 04e9 0100     		.2byte	0x1
 11791 04eb 52       		.byte	0x52
 11792 04ec 94000000 		.4byte	.LVL24
 11793 04f0 9E000000 		.4byte	.LVL26
 11794 04f4 0100     		.2byte	0x1
 11795 04f6 50       		.byte	0x50
 11796 04f7 00000000 		.4byte	0
 11797 04fb 00000000 		.4byte	0
 11798              	.LLST30:
 11799 04ff 64000000 		.4byte	.LVL18
 11800 0503 AA000000 		.4byte	.LVL30
 11801 0507 0300     		.2byte	0x3
 11802 0509 08       		.byte	0x8
 11803 050a 44       		.byte	0x44
 11804 050b 9F       		.byte	0x9f
 11805 050c 00000000 		.4byte	0
 11806 0510 00000000 		.4byte	0
 11807              	.LLST31:
 11808 0514 9A000000 		.4byte	.LVL25
 11809 0518 AA000000 		.4byte	.LVL30
 11810 051c 0300     		.2byte	0x3
 11811 051e 08       		.byte	0x8
 11812 051f 45       		.byte	0x45
 11813 0520 9F       		.byte	0x9f
 11814 0521 00000000 		.4byte	0
 11815 0525 00000000 		.4byte	0
 11816              	.LLST32:
 11817 0529 A0000000 		.4byte	.LVL27
 11818 052d A6000000 		.4byte	.LVL29
 11819 0531 0100     		.2byte	0x1
 11820 0533 53       		.byte	0x53
 11821 0534 00000000 		.4byte	0
 11822 0538 00000000 		.4byte	0
 11823              	.LLST33:
 11824 053c A4000000 		.4byte	.LVL28
 11825 0540 AA000000 		.4byte	.LVL30
 11826 0544 0300     		.2byte	0x3
 11827 0546 08       		.byte	0x8
 11828 0547 46       		.byte	0x46
 11829 0548 9F       		.byte	0x9f
 11830 0549 00000000 		.4byte	0
 11831 054d 00000000 		.4byte	0
 11832              	.LLST34:
 11833 0551 A4000000 		.4byte	.LVL28
 11834 0555 AA000000 		.4byte	.LVL30
 11835 0559 0100     		.2byte	0x1
 11836 055b 51       		.byte	0x51
 11837 055c 00000000 		.4byte	0
 11838 0560 00000000 		.4byte	0
ARM GAS  /tmp/ccLrOMZj.s 			page 209


 11839              	.LLST35:
 11840 0564 F2000000 		.4byte	.LVL39
 11841 0568 F8000000 		.4byte	.LVL40
 11842 056c 0100     		.2byte	0x1
 11843 056e 53       		.byte	0x53
 11844 056f F8000000 		.4byte	.LVL40
 11845 0573 02010000 		.4byte	.LVL42
 11846 0577 0100     		.2byte	0x1
 11847 0579 51       		.byte	0x51
 11848 057a 00000000 		.4byte	0
 11849 057e 00000000 		.4byte	0
 11850              	.LLST36:
 11851 0582 C8000000 		.4byte	.LVL34
 11852 0586 0E010000 		.4byte	.LVL46
 11853 058a 0300     		.2byte	0x3
 11854 058c 08       		.byte	0x8
 11855 058d 44       		.byte	0x44
 11856 058e 9F       		.byte	0x9f
 11857 058f 00000000 		.4byte	0
 11858 0593 00000000 		.4byte	0
 11859              	.LLST37:
 11860 0597 FE000000 		.4byte	.LVL41
 11861 059b 0E010000 		.4byte	.LVL46
 11862 059f 0300     		.2byte	0x3
 11863 05a1 08       		.byte	0x8
 11864 05a2 45       		.byte	0x45
 11865 05a3 9F       		.byte	0x9f
 11866 05a4 00000000 		.4byte	0
 11867 05a8 00000000 		.4byte	0
 11868              	.LLST38:
 11869 05ac 04010000 		.4byte	.LVL43
 11870 05b0 0A010000 		.4byte	.LVL45
 11871 05b4 0100     		.2byte	0x1
 11872 05b6 52       		.byte	0x52
 11873 05b7 00000000 		.4byte	0
 11874 05bb 00000000 		.4byte	0
 11875              	.LLST39:
 11876 05bf 08010000 		.4byte	.LVL44
 11877 05c3 0E010000 		.4byte	.LVL46
 11878 05c7 0300     		.2byte	0x3
 11879 05c9 08       		.byte	0x8
 11880 05ca 46       		.byte	0x46
 11881 05cb 9F       		.byte	0x9f
 11882 05cc 00000000 		.4byte	0
 11883 05d0 00000000 		.4byte	0
 11884              	.LLST40:
 11885 05d4 08010000 		.4byte	.LVL44
 11886 05d8 0E010000 		.4byte	.LVL46
 11887 05dc 0100     		.2byte	0x1
 11888 05de 50       		.byte	0x50
 11889 05df 00000000 		.4byte	0
 11890 05e3 00000000 		.4byte	0
 11891              	.LLST41:
 11892 05e7 46010000 		.4byte	.LVL54
 11893 05eb 48010000 		.4byte	.LVL55
 11894 05ef 0100     		.2byte	0x1
 11895 05f1 56       		.byte	0x56
ARM GAS  /tmp/ccLrOMZj.s 			page 210


 11896 05f2 48010000 		.4byte	.LVL55
 11897 05f6 52010000 		.4byte	.LVL58
 11898 05fa 0100     		.2byte	0x1
 11899 05fc 52       		.byte	0x52
 11900 05fd 00000000 		.4byte	0
 11901 0601 00000000 		.4byte	0
 11902              	.LLST42:
 11903 0605 2C010000 		.4byte	.LVL50
 11904 0609 60010000 		.4byte	.LVL62
 11905 060d 0300     		.2byte	0x3
 11906 060f 08       		.byte	0x8
 11907 0610 44       		.byte	0x44
 11908 0611 9F       		.byte	0x9f
 11909 0612 00000000 		.4byte	0
 11910 0616 00000000 		.4byte	0
 11911              	.LLST43:
 11912 061a 4E010000 		.4byte	.LVL57
 11913 061e 60010000 		.4byte	.LVL62
 11914 0622 0300     		.2byte	0x3
 11915 0624 08       		.byte	0x8
 11916 0625 45       		.byte	0x45
 11917 0626 9F       		.byte	0x9f
 11918 0627 00000000 		.4byte	0
 11919 062b 00000000 		.4byte	0
 11920              	.LLST44:
 11921 062f 5C010000 		.4byte	.LVL60
 11922 0633 60010000 		.4byte	.LVL62
 11923 0637 0300     		.2byte	0x3
 11924 0639 08       		.byte	0x8
 11925 063a 46       		.byte	0x46
 11926 063b 9F       		.byte	0x9f
 11927 063c 00000000 		.4byte	0
 11928 0640 00000000 		.4byte	0
 11929              	.LLST45:
 11930 0644 56010000 		.4byte	.LVL59
 11931 0648 60010000 		.4byte	.LVL62
 11932 064c 0100     		.2byte	0x1
 11933 064e 51       		.byte	0x51
 11934 064f 00000000 		.4byte	0
 11935 0653 00000000 		.4byte	0
 11936              	.LLST46:
 11937 0657 5E010000 		.4byte	.LVL61
 11938 065b 60010000 		.4byte	.LVL62
 11939 065f 0100     		.2byte	0x1
 11940 0661 53       		.byte	0x53
 11941 0662 00000000 		.4byte	0
 11942 0666 00000000 		.4byte	0
 11943              	.LLST47:
 11944 066a 00000000 		.4byte	.LFB119
 11945 066e 04000000 		.4byte	.LCFI1
 11946 0672 0200     		.2byte	0x2
 11947 0674 7D       		.byte	0x7d
 11948 0675 00       		.sleb128 0
 11949 0676 04000000 		.4byte	.LCFI1
 11950 067a 64000000 		.4byte	.LFE119
 11951 067e 0200     		.2byte	0x2
 11952 0680 7D       		.byte	0x7d
ARM GAS  /tmp/ccLrOMZj.s 			page 211


 11953 0681 14       		.sleb128 20
 11954 0682 00000000 		.4byte	0
 11955 0686 00000000 		.4byte	0
 11956              	.LLST48:
 11957 068a 00000000 		.4byte	.LVL80
 11958 068e 26000000 		.4byte	.LVL81
 11959 0692 0100     		.2byte	0x1
 11960 0694 50       		.byte	0x50
 11961 0695 26000000 		.4byte	.LVL81
 11962 0699 58000000 		.4byte	.LVL88
 11963 069d 0100     		.2byte	0x1
 11964 069f 50       		.byte	0x50
 11965 06a0 00000000 		.4byte	0
 11966 06a4 00000000 		.4byte	0
 11967              	.LLST49:
 11968 06a8 00000000 		.4byte	.LVL80
 11969 06ac 30000000 		.4byte	.LVL82
 11970 06b0 0100     		.2byte	0x1
 11971 06b2 51       		.byte	0x51
 11972 06b3 30000000 		.4byte	.LVL82
 11973 06b7 58000000 		.4byte	.LVL88
 11974 06bb 0100     		.2byte	0x1
 11975 06bd 51       		.byte	0x51
 11976 06be 00000000 		.4byte	0
 11977 06c2 00000000 		.4byte	0
 11978              	.LLST50:
 11979 06c6 00000000 		.4byte	.LVL80
 11980 06ca 40000000 		.4byte	.LVL83
 11981 06ce 0100     		.2byte	0x1
 11982 06d0 52       		.byte	0x52
 11983 06d1 40000000 		.4byte	.LVL83
 11984 06d5 4E000000 		.4byte	.LVL86
 11985 06d9 0100     		.2byte	0x1
 11986 06db 52       		.byte	0x52
 11987 06dc 00000000 		.4byte	0
 11988 06e0 00000000 		.4byte	0
 11989              	.LLST51:
 11990 06e4 00000000 		.4byte	.LVL80
 11991 06e8 4A000000 		.4byte	.LVL84
 11992 06ec 0100     		.2byte	0x1
 11993 06ee 53       		.byte	0x53
 11994 06ef 4A000000 		.4byte	.LVL84
 11995 06f3 4C000000 		.4byte	.LVL85
 11996 06f7 0400     		.2byte	0x4
 11997 06f9 F3       		.byte	0xf3
 11998 06fa 01       		.uleb128 0x1
 11999 06fb 53       		.byte	0x53
 12000 06fc 9F       		.byte	0x9f
 12001 06fd 4C000000 		.4byte	.LVL85
 12002 0701 50000000 		.4byte	.LVL87
 12003 0705 0100     		.2byte	0x1
 12004 0707 53       		.byte	0x53
 12005 0708 00000000 		.4byte	0
 12006 070c 00000000 		.4byte	0
 12007              	.LLST52:
 12008 0710 00000000 		.4byte	.LFB135
 12009 0714 04000000 		.4byte	.LCFI2
ARM GAS  /tmp/ccLrOMZj.s 			page 212


 12010 0718 0200     		.2byte	0x2
 12011 071a 7D       		.byte	0x7d
 12012 071b 00       		.sleb128 0
 12013 071c 04000000 		.4byte	.LCFI2
 12014 0720 1C000000 		.4byte	.LCFI3
 12015 0724 0200     		.2byte	0x2
 12016 0726 7D       		.byte	0x7d
 12017 0727 24       		.sleb128 36
 12018 0728 1C000000 		.4byte	.LCFI3
 12019 072c 0E030000 		.4byte	.LFE135
 12020 0730 0300     		.2byte	0x3
 12021 0732 7D       		.byte	0x7d
 12022 0733 C800     		.sleb128 72
 12023 0735 00000000 		.4byte	0
 12024 0739 00000000 		.4byte	0
 12025              	.LLST53:
 12026 073d 00000000 		.4byte	.LFB136
 12027 0741 04000000 		.4byte	.LCFI4
 12028 0745 0200     		.2byte	0x2
 12029 0747 7D       		.byte	0x7d
 12030 0748 00       		.sleb128 0
 12031 0749 04000000 		.4byte	.LCFI4
 12032 074d B4000000 		.4byte	.LFE136
 12033 0751 0200     		.2byte	0x2
 12034 0753 7D       		.byte	0x7d
 12035 0754 08       		.sleb128 8
 12036 0755 00000000 		.4byte	0
 12037 0759 00000000 		.4byte	0
 12038              	.LLST54:
 12039 075d 00000000 		.4byte	.LVL176
 12040 0761 24000000 		.4byte	.LVL178
 12041 0765 0100     		.2byte	0x1
 12042 0767 50       		.byte	0x50
 12043 0768 24000000 		.4byte	.LVL178
 12044 076c 28000000 		.4byte	.LVL179
 12045 0770 0400     		.2byte	0x4
 12046 0772 F3       		.byte	0xf3
 12047 0773 01       		.uleb128 0x1
 12048 0774 50       		.byte	0x50
 12049 0775 9F       		.byte	0x9f
 12050 0776 28000000 		.4byte	.LVL179
 12051 077a 4A000000 		.4byte	.LVL182
 12052 077e 0100     		.2byte	0x1
 12053 0780 50       		.byte	0x50
 12054 0781 4A000000 		.4byte	.LVL182
 12055 0785 6E000000 		.4byte	.LVL188
 12056 0789 0400     		.2byte	0x4
 12057 078b F3       		.byte	0xf3
 12058 078c 01       		.uleb128 0x1
 12059 078d 50       		.byte	0x50
 12060 078e 9F       		.byte	0x9f
 12061 078f 6E000000 		.4byte	.LVL188
 12062 0793 78000000 		.4byte	.LVL189
 12063 0797 0100     		.2byte	0x1
 12064 0799 50       		.byte	0x50
 12065 079a 78000000 		.4byte	.LVL189
 12066 079e 8C000000 		.4byte	.LVL193
ARM GAS  /tmp/ccLrOMZj.s 			page 213


 12067 07a2 0400     		.2byte	0x4
 12068 07a4 F3       		.byte	0xf3
 12069 07a5 01       		.uleb128 0x1
 12070 07a6 50       		.byte	0x50
 12071 07a7 9F       		.byte	0x9f
 12072 07a8 8C000000 		.4byte	.LVL193
 12073 07ac 90000000 		.4byte	.LVL194
 12074 07b0 0100     		.2byte	0x1
 12075 07b2 50       		.byte	0x50
 12076 07b3 90000000 		.4byte	.LVL194
 12077 07b7 A2000000 		.4byte	.LVL196
 12078 07bb 0400     		.2byte	0x4
 12079 07bd F3       		.byte	0xf3
 12080 07be 01       		.uleb128 0x1
 12081 07bf 50       		.byte	0x50
 12082 07c0 9F       		.byte	0x9f
 12083 07c1 A2000000 		.4byte	.LVL196
 12084 07c5 B4000000 		.4byte	.LFE136
 12085 07c9 0100     		.2byte	0x1
 12086 07cb 50       		.byte	0x50
 12087 07cc 00000000 		.4byte	0
 12088 07d0 00000000 		.4byte	0
 12089              	.LLST55:
 12090 07d4 00000000 		.4byte	.LVL176
 12091 07d8 24000000 		.4byte	.LVL178
 12092 07dc 0100     		.2byte	0x1
 12093 07de 51       		.byte	0x51
 12094 07df 24000000 		.4byte	.LVL178
 12095 07e3 28000000 		.4byte	.LVL179
 12096 07e7 0400     		.2byte	0x4
 12097 07e9 F3       		.byte	0xf3
 12098 07ea 01       		.uleb128 0x1
 12099 07eb 51       		.byte	0x51
 12100 07ec 9F       		.byte	0x9f
 12101 07ed 28000000 		.4byte	.LVL179
 12102 07f1 3A000000 		.4byte	.LVL181
 12103 07f5 0100     		.2byte	0x1
 12104 07f7 51       		.byte	0x51
 12105 07f8 3A000000 		.4byte	.LVL181
 12106 07fc 6E000000 		.4byte	.LVL188
 12107 0800 0400     		.2byte	0x4
 12108 0802 F3       		.byte	0xf3
 12109 0803 01       		.uleb128 0x1
 12110 0804 51       		.byte	0x51
 12111 0805 9F       		.byte	0x9f
 12112 0806 6E000000 		.4byte	.LVL188
 12113 080a 78000000 		.4byte	.LVL189
 12114 080e 0100     		.2byte	0x1
 12115 0810 51       		.byte	0x51
 12116 0811 78000000 		.4byte	.LVL189
 12117 0815 8C000000 		.4byte	.LVL193
 12118 0819 0400     		.2byte	0x4
 12119 081b F3       		.byte	0xf3
 12120 081c 01       		.uleb128 0x1
 12121 081d 51       		.byte	0x51
 12122 081e 9F       		.byte	0x9f
 12123 081f 8C000000 		.4byte	.LVL193
ARM GAS  /tmp/ccLrOMZj.s 			page 214


 12124 0823 A0000000 		.4byte	.LVL195
 12125 0827 0100     		.2byte	0x1
 12126 0829 51       		.byte	0x51
 12127 082a A0000000 		.4byte	.LVL195
 12128 082e A2000000 		.4byte	.LVL196
 12129 0832 0400     		.2byte	0x4
 12130 0834 F3       		.byte	0xf3
 12131 0835 01       		.uleb128 0x1
 12132 0836 51       		.byte	0x51
 12133 0837 9F       		.byte	0x9f
 12134 0838 A2000000 		.4byte	.LVL196
 12135 083c B4000000 		.4byte	.LFE136
 12136 0840 0100     		.2byte	0x1
 12137 0842 51       		.byte	0x51
 12138 0843 00000000 		.4byte	0
 12139 0847 00000000 		.4byte	0
 12140              	.LLST56:
 12141 084b 1C000000 		.4byte	.LVL177
 12142 084f 24000000 		.4byte	.LVL178
 12143 0853 0100     		.2byte	0x1
 12144 0855 52       		.byte	0x52
 12145 0856 28000000 		.4byte	.LVL179
 12146 085a B4000000 		.4byte	.LFE136
 12147 085e 0100     		.2byte	0x1
 12148 0860 52       		.byte	0x52
 12149 0861 00000000 		.4byte	0
 12150 0865 00000000 		.4byte	0
 12151              	.LLST57:
 12152 0869 1C000000 		.4byte	.LVL177
 12153 086d 24000000 		.4byte	.LVL178
 12154 0871 0100     		.2byte	0x1
 12155 0873 51       		.byte	0x51
 12156 0874 28000000 		.4byte	.LVL179
 12157 0878 3A000000 		.4byte	.LVL181
 12158 087c 0100     		.2byte	0x1
 12159 087e 51       		.byte	0x51
 12160 087f 6E000000 		.4byte	.LVL188
 12161 0883 78000000 		.4byte	.LVL189
 12162 0887 0100     		.2byte	0x1
 12163 0889 51       		.byte	0x51
 12164 088a 8C000000 		.4byte	.LVL193
 12165 088e A0000000 		.4byte	.LVL195
 12166 0892 0100     		.2byte	0x1
 12167 0894 51       		.byte	0x51
 12168 0895 A2000000 		.4byte	.LVL196
 12169 0899 B4000000 		.4byte	.LFE136
 12170 089d 0100     		.2byte	0x1
 12171 089f 51       		.byte	0x51
 12172 08a0 00000000 		.4byte	0
 12173 08a4 00000000 		.4byte	0
 12174              	.LLST58:
 12175 08a8 1C000000 		.4byte	.LVL177
 12176 08ac 24000000 		.4byte	.LVL178
 12177 08b0 0100     		.2byte	0x1
 12178 08b2 50       		.byte	0x50
 12179 08b3 28000000 		.4byte	.LVL179
 12180 08b7 4A000000 		.4byte	.LVL182
ARM GAS  /tmp/ccLrOMZj.s 			page 215


 12181 08bb 0100     		.2byte	0x1
 12182 08bd 50       		.byte	0x50
 12183 08be 6E000000 		.4byte	.LVL188
 12184 08c2 78000000 		.4byte	.LVL189
 12185 08c6 0100     		.2byte	0x1
 12186 08c8 50       		.byte	0x50
 12187 08c9 8C000000 		.4byte	.LVL193
 12188 08cd 90000000 		.4byte	.LVL194
 12189 08d1 0100     		.2byte	0x1
 12190 08d3 50       		.byte	0x50
 12191 08d4 A2000000 		.4byte	.LVL196
 12192 08d8 B4000000 		.4byte	.LFE136
 12193 08dc 0100     		.2byte	0x1
 12194 08de 50       		.byte	0x50
 12195 08df 00000000 		.4byte	0
 12196 08e3 00000000 		.4byte	0
 12197              	.LLST59:
 12198 08e7 28000000 		.4byte	.LVL179
 12199 08eb 3A000000 		.4byte	.LVL181
 12200 08ef 0100     		.2byte	0x1
 12201 08f1 51       		.byte	0x51
 12202 08f2 6E000000 		.4byte	.LVL188
 12203 08f6 78000000 		.4byte	.LVL189
 12204 08fa 0100     		.2byte	0x1
 12205 08fc 51       		.byte	0x51
 12206 08fd 8C000000 		.4byte	.LVL193
 12207 0901 A0000000 		.4byte	.LVL195
 12208 0905 0100     		.2byte	0x1
 12209 0907 51       		.byte	0x51
 12210 0908 A2000000 		.4byte	.LVL196
 12211 090c B4000000 		.4byte	.LFE136
 12212 0910 0100     		.2byte	0x1
 12213 0912 51       		.byte	0x51
 12214 0913 00000000 		.4byte	0
 12215 0917 00000000 		.4byte	0
 12216              	.LLST60:
 12217 091b 28000000 		.4byte	.LVL179
 12218 091f 4A000000 		.4byte	.LVL182
 12219 0923 0100     		.2byte	0x1
 12220 0925 50       		.byte	0x50
 12221 0926 6E000000 		.4byte	.LVL188
 12222 092a 78000000 		.4byte	.LVL189
 12223 092e 0100     		.2byte	0x1
 12224 0930 50       		.byte	0x50
 12225 0931 8C000000 		.4byte	.LVL193
 12226 0935 90000000 		.4byte	.LVL194
 12227 0939 0100     		.2byte	0x1
 12228 093b 50       		.byte	0x50
 12229 093c A2000000 		.4byte	.LVL196
 12230 0940 B4000000 		.4byte	.LFE136
 12231 0944 0100     		.2byte	0x1
 12232 0946 50       		.byte	0x50
 12233 0947 00000000 		.4byte	0
 12234 094b 00000000 		.4byte	0
 12235              	.LLST61:
 12236 094f 36000000 		.4byte	.LVL180
 12237 0953 4A000000 		.4byte	.LVL182
ARM GAS  /tmp/ccLrOMZj.s 			page 216


 12238 0957 0300     		.2byte	0x3
 12239 0959 08       		.byte	0x8
 12240 095a 4E       		.byte	0x4e
 12241 095b 9F       		.byte	0x9f
 12242 095c 00000000 		.4byte	0
 12243 0960 00000000 		.4byte	0
 12244              	.LLST62:
 12245 0964 4E000000 		.4byte	.LVL183
 12246 0968 58000000 		.4byte	.LVL185
 12247 096c 0100     		.2byte	0x1
 12248 096e 50       		.byte	0x50
 12249 096f 00000000 		.4byte	0
 12250 0973 00000000 		.4byte	0
 12251              	.LLST63:
 12252 0977 56000000 		.4byte	.LVL184
 12253 097b 5C000000 		.4byte	.LVL186
 12254 097f 0300     		.2byte	0x3
 12255 0981 08       		.byte	0x8
 12256 0982 4F       		.byte	0x4f
 12257 0983 9F       		.byte	0x9f
 12258 0984 00000000 		.4byte	0
 12259 0988 00000000 		.4byte	0
 12260              	.LLST64:
 12261 098c 56000000 		.4byte	.LVL184
 12262 0990 5C000000 		.4byte	.LVL186
 12263 0994 0100     		.2byte	0x1
 12264 0996 51       		.byte	0x51
 12265 0997 00000000 		.4byte	0
 12266 099b 00000000 		.4byte	0
 12267              	.LLST65:
 12268 099f 6E000000 		.4byte	.LVL188
 12269 09a3 78000000 		.4byte	.LVL189
 12270 09a7 0300     		.2byte	0x3
 12271 09a9 08       		.byte	0x8
 12272 09aa 4E       		.byte	0x4e
 12273 09ab 9F       		.byte	0x9f
 12274 09ac 00000000 		.4byte	0
 12275 09b0 00000000 		.4byte	0
 12276              	.LLST66:
 12277 09b4 8C000000 		.4byte	.LVL193
 12278 09b8 A0000000 		.4byte	.LVL195
 12279 09bc 0100     		.2byte	0x1
 12280 09be 51       		.byte	0x51
 12281 09bf 00000000 		.4byte	0
 12282 09c3 00000000 		.4byte	0
 12283              	.LLST67:
 12284 09c7 8C000000 		.4byte	.LVL193
 12285 09cb 90000000 		.4byte	.LVL194
 12286 09cf 0100     		.2byte	0x1
 12287 09d1 50       		.byte	0x50
 12288 09d2 00000000 		.4byte	0
 12289 09d6 00000000 		.4byte	0
 12290              	.LLST68:
 12291 09da 8C000000 		.4byte	.LVL193
 12292 09de A2000000 		.4byte	.LVL196
 12293 09e2 0300     		.2byte	0x3
 12294 09e4 08       		.byte	0x8
ARM GAS  /tmp/ccLrOMZj.s 			page 217


 12295 09e5 4E       		.byte	0x4e
 12296 09e6 9F       		.byte	0x9f
 12297 09e7 00000000 		.4byte	0
 12298 09eb 00000000 		.4byte	0
 12299              	.LLST69:
 12300 09ef 7C000000 		.4byte	.LVL190
 12301 09f3 86000000 		.4byte	.LVL192
 12302 09f7 0100     		.2byte	0x1
 12303 09f9 51       		.byte	0x51
 12304 09fa 00000000 		.4byte	0
 12305 09fe 00000000 		.4byte	0
 12306              	.LLST70:
 12307 0a02 84000000 		.4byte	.LVL191
 12308 0a06 8C000000 		.4byte	.LVL193
 12309 0a0a 0300     		.2byte	0x3
 12310 0a0c 08       		.byte	0x8
 12311 0a0d 4F       		.byte	0x4f
 12312 0a0e 9F       		.byte	0x9f
 12313 0a0f 00000000 		.4byte	0
 12314 0a13 00000000 		.4byte	0
 12315              	.LLST71:
 12316 0a17 84000000 		.4byte	.LVL191
 12317 0a1b 8C000000 		.4byte	.LVL193
 12318 0a1f 0100     		.2byte	0x1
 12319 0a21 50       		.byte	0x50
 12320 0a22 00000000 		.4byte	0
 12321 0a26 00000000 		.4byte	0
 12322              	.LLST72:
 12323 0a2a 6A000000 		.4byte	.LVL187
 12324 0a2e 6E000000 		.4byte	.LVL188
 12325 0a32 0100     		.2byte	0x1
 12326 0a34 52       		.byte	0x52
 12327 0a35 00000000 		.4byte	0
 12328 0a39 00000000 		.4byte	0
 12329              	.LLST73:
 12330 0a3d 5C000000 		.4byte	.LVL186
 12331 0a41 6E000000 		.4byte	.LVL188
 12332 0a45 0300     		.2byte	0x3
 12333 0a47 08       		.byte	0x8
 12334 0a48 22       		.byte	0x22
 12335 0a49 9F       		.byte	0x9f
 12336 0a4a 00000000 		.4byte	0
 12337 0a4e 00000000 		.4byte	0
 12338              	.LLST74:
 12339 0a52 00000000 		.4byte	.LFB122
 12340 0a56 04000000 		.4byte	.LCFI5
 12341 0a5a 0200     		.2byte	0x2
 12342 0a5c 7D       		.byte	0x7d
 12343 0a5d 00       		.sleb128 0
 12344 0a5e 04000000 		.4byte	.LCFI5
 12345 0a62 08000000 		.4byte	.LCFI6
 12346 0a66 0200     		.2byte	0x2
 12347 0a68 7D       		.byte	0x7d
 12348 0a69 24       		.sleb128 36
 12349 0a6a 08000000 		.4byte	.LCFI6
 12350 0a6e 60010000 		.4byte	.LFE122
 12351 0a72 0300     		.2byte	0x3
ARM GAS  /tmp/ccLrOMZj.s 			page 218


 12352 0a74 7D       		.byte	0x7d
 12353 0a75 D800     		.sleb128 88
 12354 0a77 00000000 		.4byte	0
 12355 0a7b 00000000 		.4byte	0
 12356              	.LLST75:
 12357 0a7f 00000000 		.4byte	.LVL197
 12358 0a83 64000000 		.4byte	.LVL208
 12359 0a87 0100     		.2byte	0x1
 12360 0a89 50       		.byte	0x50
 12361 0a8a 64000000 		.4byte	.LVL208
 12362 0a8e 5A010000 		.4byte	.LVL227
 12363 0a92 0200     		.2byte	0x2
 12364 0a94 91       		.byte	0x91
 12365 0a95 50       		.sleb128 -48
 12366 0a96 5A010000 		.4byte	.LVL227
 12367 0a9a 60010000 		.4byte	.LFE122
 12368 0a9e 0400     		.2byte	0x4
 12369 0aa0 F3       		.byte	0xf3
 12370 0aa1 01       		.uleb128 0x1
 12371 0aa2 50       		.byte	0x50
 12372 0aa3 9F       		.byte	0x9f
 12373 0aa4 00000000 		.4byte	0
 12374 0aa8 00000000 		.4byte	0
 12375              	.LLST76:
 12376 0aac 00000000 		.4byte	.LVL197
 12377 0ab0 16000000 		.4byte	.LVL198
 12378 0ab4 0100     		.2byte	0x1
 12379 0ab6 51       		.byte	0x51
 12380 0ab7 16000000 		.4byte	.LVL198
 12381 0abb 60010000 		.4byte	.LFE122
 12382 0abf 0400     		.2byte	0x4
 12383 0ac1 F3       		.byte	0xf3
 12384 0ac2 01       		.uleb128 0x1
 12385 0ac3 51       		.byte	0x51
 12386 0ac4 9F       		.byte	0x9f
 12387 0ac5 00000000 		.4byte	0
 12388 0ac9 00000000 		.4byte	0
 12389              	.LLST77:
 12390 0acd 00000000 		.4byte	.LVL197
 12391 0ad1 1E000000 		.4byte	.LVL199
 12392 0ad5 0100     		.2byte	0x1
 12393 0ad7 52       		.byte	0x52
 12394 0ad8 1E000000 		.4byte	.LVL199
 12395 0adc 60010000 		.4byte	.LFE122
 12396 0ae0 0400     		.2byte	0x4
 12397 0ae2 F3       		.byte	0xf3
 12398 0ae3 01       		.uleb128 0x1
 12399 0ae4 52       		.byte	0x52
 12400 0ae5 9F       		.byte	0x9f
 12401 0ae6 00000000 		.4byte	0
 12402 0aea 00000000 		.4byte	0
 12403              	.LLST78:
 12404 0aee 00000000 		.4byte	.LVL197
 12405 0af2 3C000000 		.4byte	.LVL203
 12406 0af6 0100     		.2byte	0x1
 12407 0af8 53       		.byte	0x53
 12408 0af9 3C000000 		.4byte	.LVL203
ARM GAS  /tmp/ccLrOMZj.s 			page 219


 12409 0afd 60010000 		.4byte	.LFE122
 12410 0b01 0400     		.2byte	0x4
 12411 0b03 F3       		.byte	0xf3
 12412 0b04 01       		.uleb128 0x1
 12413 0b05 53       		.byte	0x53
 12414 0b06 9F       		.byte	0x9f
 12415 0b07 00000000 		.4byte	0
 12416 0b0b 00000000 		.4byte	0
 12417              	.LLST79:
 12418 0b0f 52000000 		.4byte	.LVL206
 12419 0b13 62000000 		.4byte	.LVL207
 12420 0b17 0100     		.2byte	0x1
 12421 0b19 52       		.byte	0x52
 12422 0b1a 62000000 		.4byte	.LVL207
 12423 0b1e 80000000 		.4byte	.LVL211
 12424 0b22 0200     		.2byte	0x2
 12425 0b24 91       		.byte	0x91
 12426 0b25 48       		.sleb128 -56
 12427 0b26 80000000 		.4byte	.LVL211
 12428 0b2a 88000000 		.4byte	.LVL212
 12429 0b2e 0100     		.2byte	0x1
 12430 0b30 51       		.byte	0x51
 12431 0b31 88000000 		.4byte	.LVL212
 12432 0b35 5A010000 		.4byte	.LVL227
 12433 0b39 0200     		.2byte	0x2
 12434 0b3b 91       		.byte	0x91
 12435 0b3c 48       		.sleb128 -56
 12436 0b3d 00000000 		.4byte	0
 12437 0b41 00000000 		.4byte	0
 12438              	.LLST80:
 12439 0b45 80000000 		.4byte	.LVL211
 12440 0b49 5A010000 		.4byte	.LVL227
 12441 0b4d 0300     		.2byte	0x3
 12442 0b4f 91       		.byte	0x91
 12443 0b50 AC7F     		.sleb128 -84
 12444 0b52 00000000 		.4byte	0
 12445 0b56 00000000 		.4byte	0
 12446              	.LLST81:
 12447 0b5a 22000000 		.4byte	.LVL200
 12448 0b5e 40000000 		.4byte	.LVL204
 12449 0b62 0600     		.2byte	0x6
 12450 0b64 71       		.byte	0x71
 12451 0b65 00       		.sleb128 0
 12452 0b66 08       		.byte	0x8
 12453 0b67 FF       		.byte	0xff
 12454 0b68 1A       		.byte	0x1a
 12455 0b69 9F       		.byte	0x9f
 12456 0b6a 00000000 		.4byte	0
 12457 0b6e 00000000 		.4byte	0
 12458              	.LLST82:
 12459 0b72 50000000 		.4byte	.LVL205
 12460 0b76 66000000 		.4byte	.LVL209
 12461 0b7a 0100     		.2byte	0x1
 12462 0b7c 53       		.byte	0x53
 12463 0b7d 66000000 		.4byte	.LVL209
 12464 0b81 72000000 		.4byte	.LVL210
 12465 0b85 0600     		.2byte	0x6
ARM GAS  /tmp/ccLrOMZj.s 			page 220


 12466 0b87 77       		.byte	0x77
 12467 0b88 00       		.sleb128 0
 12468 0b89 74       		.byte	0x74
 12469 0b8a 00       		.sleb128 0
 12470 0b8b 1E       		.byte	0x1e
 12471 0b8c 9F       		.byte	0x9f
 12472 0b8d 00000000 		.4byte	0
 12473 0b91 00000000 		.4byte	0
 12474              	.LLST83:
 12475 0b95 30000000 		.4byte	.LVL201
 12476 0b99 5A010000 		.4byte	.LVL227
 12477 0b9d 0900     		.2byte	0x9
 12478 0b9f 91       		.byte	0x91
 12479 0ba0 B87F     		.sleb128 -72
 12480 0ba2 94       		.byte	0x94
 12481 0ba3 01       		.byte	0x1
 12482 0ba4 08       		.byte	0x8
 12483 0ba5 FF       		.byte	0xff
 12484 0ba6 1A       		.byte	0x1a
 12485 0ba7 9F       		.byte	0x9f
 12486 0ba8 00000000 		.4byte	0
 12487 0bac 00000000 		.4byte	0
 12488              	.LLST84:
 12489 0bb0 32000000 		.4byte	.LVL202
 12490 0bb4 5A010000 		.4byte	.LVL227
 12491 0bb8 0200     		.2byte	0x2
 12492 0bba 7D       		.byte	0x7d
 12493 0bbb 00       		.sleb128 0
 12494 0bbc 00000000 		.4byte	0
 12495 0bc0 00000000 		.4byte	0
 12496              	.LLST85:
 12497 0bc4 52000000 		.4byte	.LVL206
 12498 0bc8 72000000 		.4byte	.LVL210
 12499 0bcc 0200     		.2byte	0x2
 12500 0bce 30       		.byte	0x30
 12501 0bcf 9F       		.byte	0x9f
 12502 0bd0 58010000 		.4byte	.LVL226
 12503 0bd4 5A010000 		.4byte	.LVL227
 12504 0bd8 0200     		.2byte	0x2
 12505 0bda 91       		.byte	0x91
 12506 0bdb 44       		.sleb128 -60
 12507 0bdc 00000000 		.4byte	0
 12508 0be0 00000000 		.4byte	0
 12509              	.LLST86:
 12510 0be4 80000000 		.4byte	.LVL211
 12511 0be8 90000000 		.4byte	.LVL213
 12512 0bec 0200     		.2byte	0x2
 12513 0bee 30       		.byte	0x30
 12514 0bef 9F       		.byte	0x9f
 12515 0bf0 32010000 		.4byte	.LVL224
 12516 0bf4 3A010000 		.4byte	.LVL225
 12517 0bf8 0300     		.2byte	0x3
 12518 0bfa 91       		.byte	0x91
 12519 0bfb B07F     		.sleb128 -80
 12520 0bfd 00000000 		.4byte	0
 12521 0c01 00000000 		.4byte	0
 12522              	.LLST87:
ARM GAS  /tmp/ccLrOMZj.s 			page 221


 12523 0c05 96000000 		.4byte	.LVL214
 12524 0c09 A6000000 		.4byte	.LVL215
 12525 0c0d 0200     		.2byte	0x2
 12526 0c0f 30       		.byte	0x30
 12527 0c10 9F       		.byte	0x9f
 12528 0c11 00000000 		.4byte	0
 12529 0c15 00000000 		.4byte	0
 12530              	.LLST88:
 12531 0c19 A6000000 		.4byte	.LVL215
 12532 0c1d C0000000 		.4byte	.LVL216
 12533 0c21 0200     		.2byte	0x2
 12534 0c23 30       		.byte	0x30
 12535 0c24 9F       		.byte	0x9f
 12536 0c25 C0000000 		.4byte	.LVL216
 12537 0c29 DC000000 		.4byte	.LVL217
 12538 0c2d 0100     		.2byte	0x1
 12539 0c2f 5A       		.byte	0x5a
 12540 0c30 DC000000 		.4byte	.LVL217
 12541 0c34 E0000000 		.4byte	.LVL218
 12542 0c38 0200     		.2byte	0x2
 12543 0c3a 31       		.byte	0x31
 12544 0c3b 9F       		.byte	0x9f
 12545 0c3c E0000000 		.4byte	.LVL218
 12546 0c40 E4000000 		.4byte	.LVL219
 12547 0c44 0100     		.2byte	0x1
 12548 0c46 5A       		.byte	0x5a
 12549 0c47 10010000 		.4byte	.LVL222
 12550 0c4b 18010000 		.4byte	.LVL223
 12551 0c4f 0100     		.2byte	0x1
 12552 0c51 50       		.byte	0x50
 12553 0c52 00000000 		.4byte	0
 12554 0c56 00000000 		.4byte	0
 12555              	.LLST89:
 12556 0c5a 00000000 		.4byte	.LFB120
 12557 0c5e 04000000 		.4byte	.LCFI7
 12558 0c62 0200     		.2byte	0x2
 12559 0c64 7D       		.byte	0x7d
 12560 0c65 00       		.sleb128 0
 12561 0c66 04000000 		.4byte	.LCFI7
 12562 0c6a 0A000000 		.4byte	.LCFI8
 12563 0c6e 0200     		.2byte	0x2
 12564 0c70 7D       		.byte	0x7d
 12565 0c71 24       		.sleb128 36
 12566 0c72 0A000000 		.4byte	.LCFI8
 12567 0c76 0A010000 		.4byte	.LFE120
 12568 0c7a 0300     		.2byte	0x3
 12569 0c7c 7D       		.byte	0x7d
 12570 0c7d C000     		.sleb128 64
 12571 0c7f 00000000 		.4byte	0
 12572 0c83 00000000 		.4byte	0
 12573              	.LLST90:
 12574 0c87 00000000 		.4byte	.LVL228
 12575 0c8b 16000000 		.4byte	.LVL230
 12576 0c8f 0100     		.2byte	0x1
 12577 0c91 50       		.byte	0x50
 12578 0c92 16000000 		.4byte	.LVL230
 12579 0c96 0A010000 		.4byte	.LFE120
ARM GAS  /tmp/ccLrOMZj.s 			page 222


 12580 0c9a 0100     		.2byte	0x1
 12581 0c9c 58       		.byte	0x58
 12582 0c9d 00000000 		.4byte	0
 12583 0ca1 00000000 		.4byte	0
 12584              	.LLST91:
 12585 0ca5 00000000 		.4byte	.LVL228
 12586 0ca9 18000000 		.4byte	.LVL231
 12587 0cad 0100     		.2byte	0x1
 12588 0caf 51       		.byte	0x51
 12589 0cb0 18000000 		.4byte	.LVL231
 12590 0cb4 0A010000 		.4byte	.LFE120
 12591 0cb8 0100     		.2byte	0x1
 12592 0cba 57       		.byte	0x57
 12593 0cbb 00000000 		.4byte	0
 12594 0cbf 00000000 		.4byte	0
 12595              	.LLST92:
 12596 0cc3 00000000 		.4byte	.LVL228
 12597 0cc7 22000000 		.4byte	.LVL233
 12598 0ccb 0100     		.2byte	0x1
 12599 0ccd 52       		.byte	0x52
 12600 0cce 22000000 		.4byte	.LVL233
 12601 0cd2 0A010000 		.4byte	.LFE120
 12602 0cd6 0200     		.2byte	0x2
 12603 0cd8 91       		.byte	0x91
 12604 0cd9 54       		.sleb128 -44
 12605 0cda 00000000 		.4byte	0
 12606 0cde 00000000 		.4byte	0
 12607              	.LLST93:
 12608 0ce2 00000000 		.4byte	.LVL228
 12609 0ce6 12000000 		.4byte	.LVL229
 12610 0cea 0100     		.2byte	0x1
 12611 0cec 53       		.byte	0x53
 12612 0ced 12000000 		.4byte	.LVL229
 12613 0cf1 0A010000 		.4byte	.LFE120
 12614 0cf5 0400     		.2byte	0x4
 12615 0cf7 F3       		.byte	0xf3
 12616 0cf8 01       		.uleb128 0x1
 12617 0cf9 53       		.byte	0x53
 12618 0cfa 9F       		.byte	0x9f
 12619 0cfb 00000000 		.4byte	0
 12620 0cff 00000000 		.4byte	0
 12621              	.LLST94:
 12622 0d03 00000000 		.4byte	.LVL228
 12623 0d07 22000000 		.4byte	.LVL233
 12624 0d0b 0200     		.2byte	0x2
 12625 0d0d 30       		.byte	0x30
 12626 0d0e 9F       		.byte	0x9f
 12627 0d0f 44000000 		.4byte	.LVL234
 12628 0d13 4A000000 		.4byte	.LVL235
 12629 0d17 0100     		.2byte	0x1
 12630 0d19 50       		.byte	0x50
 12631 0d1a 02010000 		.4byte	.LVL245
 12632 0d1e 04010000 		.4byte	.LVL246
 12633 0d22 0100     		.2byte	0x1
 12634 0d24 55       		.byte	0x55
 12635 0d25 00000000 		.4byte	0
 12636 0d29 00000000 		.4byte	0
ARM GAS  /tmp/ccLrOMZj.s 			page 223


 12637              	.LLST95:
 12638 0d2d 00000000 		.4byte	.LVL228
 12639 0d31 22000000 		.4byte	.LVL233
 12640 0d35 0100     		.2byte	0x1
 12641 0d37 52       		.byte	0x52
 12642 0d38 22000000 		.4byte	.LVL233
 12643 0d3c 0A010000 		.4byte	.LFE120
 12644 0d40 0200     		.2byte	0x2
 12645 0d42 91       		.byte	0x91
 12646 0d43 4C       		.sleb128 -52
 12647 0d44 00000000 		.4byte	0
 12648 0d48 00000000 		.4byte	0
 12649              	.LLST96:
 12650 0d4c 00000000 		.4byte	.LFB137
 12651 0d50 02000000 		.4byte	.LCFI9
 12652 0d54 0200     		.2byte	0x2
 12653 0d56 7D       		.byte	0x7d
 12654 0d57 00       		.sleb128 0
 12655 0d58 02000000 		.4byte	.LCFI9
 12656 0d5c 7C000000 		.4byte	.LFE137
 12657 0d60 0200     		.2byte	0x2
 12658 0d62 7D       		.byte	0x7d
 12659 0d63 10       		.sleb128 16
 12660 0d64 00000000 		.4byte	0
 12661 0d68 00000000 		.4byte	0
 12662              	.LLST97:
 12663 0d6c 00000000 		.4byte	.LVL247
 12664 0d70 08000000 		.4byte	.LVL248
 12665 0d74 0100     		.2byte	0x1
 12666 0d76 50       		.byte	0x50
 12667 0d77 08000000 		.4byte	.LVL248
 12668 0d7b 7C000000 		.4byte	.LFE137
 12669 0d7f 0400     		.2byte	0x4
 12670 0d81 F3       		.byte	0xf3
 12671 0d82 01       		.uleb128 0x1
 12672 0d83 50       		.byte	0x50
 12673 0d84 9F       		.byte	0x9f
 12674 0d85 00000000 		.4byte	0
 12675 0d89 00000000 		.4byte	0
 12676              	.LLST98:
 12677 0d8d 46000000 		.4byte	.LVL255
 12678 0d91 4E000000 		.4byte	.LVL256
 12679 0d95 0200     		.2byte	0x2
 12680 0d97 30       		.byte	0x30
 12681 0d98 9F       		.byte	0x9f
 12682 0d99 00000000 		.4byte	0
 12683 0d9d 00000000 		.4byte	0
 12684              	.LLST99:
 12685 0da1 24000000 		.4byte	.LVL250
 12686 0da5 3C000000 		.4byte	.LVL254
 12687 0da9 0300     		.2byte	0x3
 12688 0dab 08       		.byte	0x8
 12689 0dac 4E       		.byte	0x4e
 12690 0dad 9F       		.byte	0x9f
 12691 0dae 00000000 		.4byte	0
 12692 0db2 00000000 		.4byte	0
 12693              	.LLST100:
ARM GAS  /tmp/ccLrOMZj.s 			page 224


 12694 0db6 32000000 		.4byte	.LVL251
 12695 0dba 3C000000 		.4byte	.LVL254
 12696 0dbe 0200     		.2byte	0x2
 12697 0dc0 30       		.byte	0x30
 12698 0dc1 9F       		.byte	0x9f
 12699 0dc2 00000000 		.4byte	0
 12700 0dc6 00000000 		.4byte	0
 12701              	.LLST101:
 12702 0dca 38000000 		.4byte	.LVL252
 12703 0dce 3C000000 		.4byte	.LVL254
 12704 0dd2 0300     		.2byte	0x3
 12705 0dd4 08       		.byte	0x8
 12706 0dd5 4F       		.byte	0x4f
 12707 0dd6 9F       		.byte	0x9f
 12708 0dd7 00000000 		.4byte	0
 12709 0ddb 00000000 		.4byte	0
 12710              	.LLST102:
 12711 0ddf 3A000000 		.4byte	.LVL253
 12712 0de3 3C000000 		.4byte	.LVL254
 12713 0de7 0200     		.2byte	0x2
 12714 0de9 30       		.byte	0x30
 12715 0dea 9F       		.byte	0x9f
 12716 0deb 00000000 		.4byte	0
 12717 0def 00000000 		.4byte	0
 12718              	.LLST103:
 12719 0df3 3C000000 		.4byte	.LVL254
 12720 0df7 58000000 		.4byte	.LVL257
 12721 0dfb 0300     		.2byte	0x3
 12722 0dfd 08       		.byte	0x8
 12723 0dfe 22       		.byte	0x22
 12724 0dff 9F       		.byte	0x9f
 12725 0e00 00000000 		.4byte	0
 12726 0e04 00000000 		.4byte	0
 12727              	.LLST104:
 12728 0e08 4E000000 		.4byte	.LVL256
 12729 0e0c 58000000 		.4byte	.LVL257
 12730 0e10 0100     		.2byte	0x1
 12731 0e12 54       		.byte	0x54
 12732 0e13 00000000 		.4byte	0
 12733 0e17 00000000 		.4byte	0
 12734              	.LLST105:
 12735 0e1b 00000000 		.4byte	.LFB138
 12736 0e1f 02000000 		.4byte	.LCFI10
 12737 0e23 0200     		.2byte	0x2
 12738 0e25 7D       		.byte	0x7d
 12739 0e26 00       		.sleb128 0
 12740 0e27 02000000 		.4byte	.LCFI10
 12741 0e2b B0000000 		.4byte	.LFE138
 12742 0e2f 0200     		.2byte	0x2
 12743 0e31 7D       		.byte	0x7d
 12744 0e32 18       		.sleb128 24
 12745 0e33 00000000 		.4byte	0
 12746 0e37 00000000 		.4byte	0
 12747              	.LLST106:
 12748 0e3b 00000000 		.4byte	.LVL261
 12749 0e3f 18000000 		.4byte	.LVL262
 12750 0e43 0100     		.2byte	0x1
ARM GAS  /tmp/ccLrOMZj.s 			page 225


 12751 0e45 50       		.byte	0x50
 12752 0e46 18000000 		.4byte	.LVL262
 12753 0e4a 1C000000 		.4byte	.LVL263
 12754 0e4e 0400     		.2byte	0x4
 12755 0e50 F3       		.byte	0xf3
 12756 0e51 01       		.uleb128 0x1
 12757 0e52 50       		.byte	0x50
 12758 0e53 9F       		.byte	0x9f
 12759 0e54 1C000000 		.4byte	.LVL263
 12760 0e58 1E000000 		.4byte	.LVL264
 12761 0e5c 0500     		.2byte	0x5
 12762 0e5e 03       		.byte	0x3
 12763 0e5f 08000000 		.4byte	GDISP+8
 12764 0e63 1E000000 		.4byte	.LVL264
 12765 0e67 6D000000 		.4byte	.LVL272-1
 12766 0e6b 0100     		.2byte	0x1
 12767 0e6d 50       		.byte	0x50
 12768 0e6e 00000000 		.4byte	0
 12769 0e72 00000000 		.4byte	0
 12770              	.LLST107:
 12771 0e76 00000000 		.4byte	.LVL261
 12772 0e7a 28000000 		.4byte	.LVL266
 12773 0e7e 0100     		.2byte	0x1
 12774 0e80 51       		.byte	0x51
 12775 0e81 28000000 		.4byte	.LVL266
 12776 0e85 2C000000 		.4byte	.LVL267
 12777 0e89 0400     		.2byte	0x4
 12778 0e8b F3       		.byte	0xf3
 12779 0e8c 01       		.uleb128 0x1
 12780 0e8d 51       		.byte	0x51
 12781 0e8e 9F       		.byte	0x9f
 12782 0e8f 2C000000 		.4byte	.LVL267
 12783 0e93 2E000000 		.4byte	.LVL268
 12784 0e97 0500     		.2byte	0x5
 12785 0e99 03       		.byte	0x3
 12786 0e9a 0A000000 		.4byte	GDISP+10
 12787 0e9e 2E000000 		.4byte	.LVL268
 12788 0ea2 6D000000 		.4byte	.LVL272-1
 12789 0ea6 0100     		.2byte	0x1
 12790 0ea8 51       		.byte	0x51
 12791 0ea9 00000000 		.4byte	0
 12792 0ead 00000000 		.4byte	0
 12793              	.LLST108:
 12794 0eb1 00000000 		.4byte	.LVL261
 12795 0eb5 1C000000 		.4byte	.LVL263
 12796 0eb9 0100     		.2byte	0x1
 12797 0ebb 52       		.byte	0x52
 12798 0ebc 1C000000 		.4byte	.LVL263
 12799 0ec0 78000000 		.4byte	.LVL273
 12800 0ec4 0100     		.2byte	0x1
 12801 0ec6 54       		.byte	0x54
 12802 0ec7 00000000 		.4byte	0
 12803 0ecb 00000000 		.4byte	0
 12804              	.LLST109:
 12805 0ecf 00000000 		.4byte	.LVL261
 12806 0ed3 22000000 		.4byte	.LVL265
 12807 0ed7 0100     		.2byte	0x1
ARM GAS  /tmp/ccLrOMZj.s 			page 226


 12808 0ed9 53       		.byte	0x53
 12809 0eda 22000000 		.4byte	.LVL265
 12810 0ede 2C000000 		.4byte	.LVL267
 12811 0ee2 0400     		.2byte	0x4
 12812 0ee4 F3       		.byte	0xf3
 12813 0ee5 01       		.uleb128 0x1
 12814 0ee6 53       		.byte	0x53
 12815 0ee7 9F       		.byte	0x9f
 12816 0ee8 2C000000 		.4byte	.LVL267
 12817 0eec 64000000 		.4byte	.LVL270
 12818 0ef0 0100     		.2byte	0x1
 12819 0ef2 55       		.byte	0x55
 12820 0ef3 66000000 		.4byte	.LVL271
 12821 0ef7 A4000000 		.4byte	.LVL277
 12822 0efb 0100     		.2byte	0x1
 12823 0efd 55       		.byte	0x55
 12824 0efe A6000000 		.4byte	.LVL278
 12825 0f02 B0000000 		.4byte	.LFE138
 12826 0f06 0100     		.2byte	0x1
 12827 0f08 55       		.byte	0x55
 12828 0f09 00000000 		.4byte	0
 12829 0f0d 00000000 		.4byte	0
 12830              	.LLST110:
 12831 0f11 78000000 		.4byte	.LVL273
 12832 0f15 A4000000 		.4byte	.LVL277
 12833 0f19 0100     		.2byte	0x1
 12834 0f1b 54       		.byte	0x54
 12835 0f1c A6000000 		.4byte	.LVL278
 12836 0f20 B0000000 		.4byte	.LFE138
 12837 0f24 0100     		.2byte	0x1
 12838 0f26 54       		.byte	0x54
 12839 0f27 00000000 		.4byte	0
 12840 0f2b 00000000 		.4byte	0
 12841              	.LLST111:
 12842 0f2f 7A000000 		.4byte	.LVL274
 12843 0f33 8E000000 		.4byte	.LVL275
 12844 0f37 0200     		.2byte	0x2
 12845 0f39 30       		.byte	0x30
 12846 0f3a 9F       		.byte	0x9f
 12847 0f3b 00000000 		.4byte	0
 12848 0f3f 00000000 		.4byte	0
 12849              	.LLST112:
 12850 0f43 78000000 		.4byte	.LVL273
 12851 0f47 A4000000 		.4byte	.LVL277
 12852 0f4b 0300     		.2byte	0x3
 12853 0f4d 08       		.byte	0x8
 12854 0f4e 22       		.byte	0x22
 12855 0f4f 9F       		.byte	0x9f
 12856 0f50 A6000000 		.4byte	.LVL278
 12857 0f54 B0000000 		.4byte	.LFE138
 12858 0f58 0300     		.2byte	0x3
 12859 0f5a 08       		.byte	0x8
 12860 0f5b 22       		.byte	0x22
 12861 0f5c 9F       		.byte	0x9f
 12862 0f5d 00000000 		.4byte	0
 12863 0f61 00000000 		.4byte	0
 12864              	.LLST113:
ARM GAS  /tmp/ccLrOMZj.s 			page 227


 12865 0f65 8E000000 		.4byte	.LVL275
 12866 0f69 A4000000 		.4byte	.LVL277
 12867 0f6d 0100     		.2byte	0x1
 12868 0f6f 57       		.byte	0x57
 12869 0f70 A6000000 		.4byte	.LVL278
 12870 0f74 B0000000 		.4byte	.LFE138
 12871 0f78 0100     		.2byte	0x1
 12872 0f7a 57       		.byte	0x57
 12873 0f7b 00000000 		.4byte	0
 12874 0f7f 00000000 		.4byte	0
 12875              	.LLST114:
 12876 0f83 00000000 		.4byte	.LFB118
 12877 0f87 04000000 		.4byte	.LCFI11
 12878 0f8b 0200     		.2byte	0x2
 12879 0f8d 7D       		.byte	0x7d
 12880 0f8e 00       		.sleb128 0
 12881 0f8f 04000000 		.4byte	.LCFI11
 12882 0f93 06000000 		.4byte	.LCFI12
 12883 0f97 0200     		.2byte	0x2
 12884 0f99 7D       		.byte	0x7d
 12885 0f9a 24       		.sleb128 36
 12886 0f9b 06000000 		.4byte	.LCFI12
 12887 0f9f D6020000 		.4byte	.LFE118
 12888 0fa3 0200     		.2byte	0x2
 12889 0fa5 7D       		.byte	0x7d
 12890 0fa6 38       		.sleb128 56
 12891 0fa7 00000000 		.4byte	0
 12892 0fab 00000000 		.4byte	0
 12893              	.LLST115:
 12894 0faf 00000000 		.4byte	.LVL279
 12895 0fb3 26000000 		.4byte	.LVL281
 12896 0fb7 0100     		.2byte	0x1
 12897 0fb9 50       		.byte	0x50
 12898 0fba 26000000 		.4byte	.LVL281
 12899 0fbe 5C000000 		.4byte	.LVL289
 12900 0fc2 0400     		.2byte	0x4
 12901 0fc4 F3       		.byte	0xf3
 12902 0fc5 01       		.uleb128 0x1
 12903 0fc6 50       		.byte	0x50
 12904 0fc7 9F       		.byte	0x9f
 12905 0fc8 5C000000 		.4byte	.LVL289
 12906 0fcc 7C000000 		.4byte	.LVL292
 12907 0fd0 0100     		.2byte	0x1
 12908 0fd2 59       		.byte	0x59
 12909 0fd3 26010000 		.4byte	.LVL304
 12910 0fd7 2E010000 		.4byte	.LVL306
 12911 0fdb 0100     		.2byte	0x1
 12912 0fdd 50       		.byte	0x50
 12913 0fde 2E010000 		.4byte	.LVL306
 12914 0fe2 62010000 		.4byte	.LVL314
 12915 0fe6 0400     		.2byte	0x4
 12916 0fe8 F3       		.byte	0xf3
 12917 0fe9 01       		.uleb128 0x1
 12918 0fea 50       		.byte	0x50
 12919 0feb 9F       		.byte	0x9f
 12920 0fec 62010000 		.4byte	.LVL314
 12921 0ff0 80010000 		.4byte	.LVL317
ARM GAS  /tmp/ccLrOMZj.s 			page 228


 12922 0ff4 0100     		.2byte	0x1
 12923 0ff6 59       		.byte	0x59
 12924 0ff7 8E010000 		.4byte	.LVL319
 12925 0ffb AE010000 		.4byte	.LVL323
 12926 0fff 0100     		.2byte	0x1
 12927 1001 59       		.byte	0x59
 12928 1002 C4010000 		.4byte	.LVL324
 12929 1006 DC010000 		.4byte	.LVL326
 12930 100a 0100     		.2byte	0x1
 12931 100c 59       		.byte	0x59
 12932 100d F0010000 		.4byte	.LVL327
 12933 1011 F2010000 		.4byte	.LVL328
 12934 1015 0100     		.2byte	0x1
 12935 1017 5E       		.byte	0x5e
 12936 1018 F2010000 		.4byte	.LVL328
 12937 101c 02020000 		.4byte	.LVL329
 12938 1020 0100     		.2byte	0x1
 12939 1022 59       		.byte	0x59
 12940 1023 28020000 		.4byte	.LVL332
 12941 1027 41020000 		.4byte	.LVL335-1
 12942 102b 0100     		.2byte	0x1
 12943 102d 50       		.byte	0x50
 12944 102e 41020000 		.4byte	.LVL335-1
 12945 1032 42020000 		.4byte	.LVL335
 12946 1036 0400     		.2byte	0x4
 12947 1038 F3       		.byte	0xf3
 12948 1039 01       		.uleb128 0x1
 12949 103a 50       		.byte	0x50
 12950 103b 9F       		.byte	0x9f
 12951 103c 42020000 		.4byte	.LVL335
 12952 1040 5B020000 		.4byte	.LVL338-1
 12953 1044 0100     		.2byte	0x1
 12954 1046 50       		.byte	0x50
 12955 1047 5B020000 		.4byte	.LVL338-1
 12956 104b 5C020000 		.4byte	.LVL338
 12957 104f 0400     		.2byte	0x4
 12958 1051 F3       		.byte	0xf3
 12959 1052 01       		.uleb128 0x1
 12960 1053 50       		.byte	0x50
 12961 1054 9F       		.byte	0x9f
 12962 1055 80020000 		.4byte	.LVL340
 12963 1059 95020000 		.4byte	.LVL344-1
 12964 105d 0100     		.2byte	0x1
 12965 105f 50       		.byte	0x50
 12966 1060 95020000 		.4byte	.LVL344-1
 12967 1064 96020000 		.4byte	.LVL344
 12968 1068 0400     		.2byte	0x4
 12969 106a F3       		.byte	0xf3
 12970 106b 01       		.uleb128 0x1
 12971 106c 50       		.byte	0x50
 12972 106d 9F       		.byte	0x9f
 12973 106e 96020000 		.4byte	.LVL344
 12974 1072 A0020000 		.4byte	.LVL345
 12975 1076 0100     		.2byte	0x1
 12976 1078 50       		.byte	0x50
 12977 1079 A0020000 		.4byte	.LVL345
 12978 107d B2020000 		.4byte	.LVL348
ARM GAS  /tmp/ccLrOMZj.s 			page 229


 12979 1081 0400     		.2byte	0x4
 12980 1083 F3       		.byte	0xf3
 12981 1084 01       		.uleb128 0x1
 12982 1085 50       		.byte	0x50
 12983 1086 9F       		.byte	0x9f
 12984 1087 B2020000 		.4byte	.LVL348
 12985 108b D4020000 		.4byte	.LVL351
 12986 108f 0100     		.2byte	0x1
 12987 1091 59       		.byte	0x59
 12988 1092 00000000 		.4byte	0
 12989 1096 00000000 		.4byte	0
 12990              	.LLST116:
 12991 109a 00000000 		.4byte	.LVL279
 12992 109e 2E000000 		.4byte	.LVL283
 12993 10a2 0100     		.2byte	0x1
 12994 10a4 51       		.byte	0x51
 12995 10a5 2E000000 		.4byte	.LVL283
 12996 10a9 5C000000 		.4byte	.LVL289
 12997 10ad 0400     		.2byte	0x4
 12998 10af F3       		.byte	0xf3
 12999 10b0 01       		.uleb128 0x1
 13000 10b1 51       		.byte	0x51
 13001 10b2 9F       		.byte	0x9f
 13002 10b3 5C000000 		.4byte	.LVL289
 13003 10b7 82000000 		.4byte	.LVL293
 13004 10bb 0100     		.2byte	0x1
 13005 10bd 54       		.byte	0x54
 13006 10be 8C000000 		.4byte	.LVL294
 13007 10c2 AC000000 		.4byte	.LVL297
 13008 10c6 0100     		.2byte	0x1
 13009 10c8 54       		.byte	0x54
 13010 10c9 C2000000 		.4byte	.LVL298
 13011 10cd DC000000 		.4byte	.LVL300
 13012 10d1 0100     		.2byte	0x1
 13013 10d3 54       		.byte	0x54
 13014 10d4 F2000000 		.4byte	.LVL301
 13015 10d8 04010000 		.4byte	.LVL302
 13016 10dc 0100     		.2byte	0x1
 13017 10de 54       		.byte	0x54
 13018 10df 26010000 		.4byte	.LVL304
 13019 10e3 28010000 		.4byte	.LVL305
 13020 10e7 0100     		.2byte	0x1
 13021 10e9 51       		.byte	0x51
 13022 10ea 28010000 		.4byte	.LVL305
 13023 10ee 62010000 		.4byte	.LVL314
 13024 10f2 0400     		.2byte	0x4
 13025 10f4 F3       		.byte	0xf3
 13026 10f5 01       		.uleb128 0x1
 13027 10f6 51       		.byte	0x51
 13028 10f7 9F       		.byte	0x9f
 13029 10f8 62010000 		.4byte	.LVL314
 13030 10fc 86010000 		.4byte	.LVL318
 13031 1100 0100     		.2byte	0x1
 13032 1102 54       		.byte	0x54
 13033 1103 28020000 		.4byte	.LVL332
 13034 1107 41020000 		.4byte	.LVL335-1
 13035 110b 0100     		.2byte	0x1
ARM GAS  /tmp/ccLrOMZj.s 			page 230


 13036 110d 51       		.byte	0x51
 13037 110e 41020000 		.4byte	.LVL335-1
 13038 1112 42020000 		.4byte	.LVL335
 13039 1116 0400     		.2byte	0x4
 13040 1118 F3       		.byte	0xf3
 13041 1119 01       		.uleb128 0x1
 13042 111a 51       		.byte	0x51
 13043 111b 9F       		.byte	0x9f
 13044 111c 42020000 		.4byte	.LVL335
 13045 1120 5B020000 		.4byte	.LVL338-1
 13046 1124 0100     		.2byte	0x1
 13047 1126 51       		.byte	0x51
 13048 1127 5B020000 		.4byte	.LVL338-1
 13049 112b 5C020000 		.4byte	.LVL338
 13050 112f 0400     		.2byte	0x4
 13051 1131 F3       		.byte	0xf3
 13052 1132 01       		.uleb128 0x1
 13053 1133 51       		.byte	0x51
 13054 1134 9F       		.byte	0x9f
 13055 1135 80020000 		.4byte	.LVL340
 13056 1139 82020000 		.4byte	.LVL341
 13057 113d 0100     		.2byte	0x1
 13058 113f 51       		.byte	0x51
 13059 1140 82020000 		.4byte	.LVL341
 13060 1144 96020000 		.4byte	.LVL344
 13061 1148 0400     		.2byte	0x4
 13062 114a F3       		.byte	0xf3
 13063 114b 01       		.uleb128 0x1
 13064 114c 51       		.byte	0x51
 13065 114d 9F       		.byte	0x9f
 13066 114e 96020000 		.4byte	.LVL344
 13067 1152 B1020000 		.4byte	.LVL348-1
 13068 1156 0100     		.2byte	0x1
 13069 1158 51       		.byte	0x51
 13070 1159 B1020000 		.4byte	.LVL348-1
 13071 115d B2020000 		.4byte	.LVL348
 13072 1161 0400     		.2byte	0x4
 13073 1163 F3       		.byte	0xf3
 13074 1164 01       		.uleb128 0x1
 13075 1165 51       		.byte	0x51
 13076 1166 9F       		.byte	0x9f
 13077 1167 B2020000 		.4byte	.LVL348
 13078 116b C0020000 		.4byte	.LVL349
 13079 116f 0100     		.2byte	0x1
 13080 1171 54       		.byte	0x54
 13081 1172 C2020000 		.4byte	.LVL350
 13082 1176 D6020000 		.4byte	.LFE118
 13083 117a 0100     		.2byte	0x1
 13084 117c 54       		.byte	0x54
 13085 117d 00000000 		.4byte	0
 13086 1181 00000000 		.4byte	0
 13087              	.LLST117:
 13088 1185 00000000 		.4byte	.LVL279
 13089 1189 22000000 		.4byte	.LVL280
 13090 118d 0100     		.2byte	0x1
 13091 118f 52       		.byte	0x52
 13092 1190 22000000 		.4byte	.LVL280
ARM GAS  /tmp/ccLrOMZj.s 			page 231


 13093 1194 26010000 		.4byte	.LVL304
 13094 1198 0400     		.2byte	0x4
 13095 119a F3       		.byte	0xf3
 13096 119b 01       		.uleb128 0x1
 13097 119c 52       		.byte	0x52
 13098 119d 9F       		.byte	0x9f
 13099 119e 26010000 		.4byte	.LVL304
 13100 11a2 32010000 		.4byte	.LVL307
 13101 11a6 0100     		.2byte	0x1
 13102 11a8 52       		.byte	0x52
 13103 11a9 32010000 		.4byte	.LVL307
 13104 11ad 28020000 		.4byte	.LVL332
 13105 11b1 0400     		.2byte	0x4
 13106 11b3 F3       		.byte	0xf3
 13107 11b4 01       		.uleb128 0x1
 13108 11b5 52       		.byte	0x52
 13109 11b6 9F       		.byte	0x9f
 13110 11b7 28020000 		.4byte	.LVL332
 13111 11bb 34020000 		.4byte	.LVL334
 13112 11bf 0100     		.2byte	0x1
 13113 11c1 52       		.byte	0x52
 13114 11c2 34020000 		.4byte	.LVL334
 13115 11c6 42020000 		.4byte	.LVL335
 13116 11ca 0400     		.2byte	0x4
 13117 11cc F3       		.byte	0xf3
 13118 11cd 01       		.uleb128 0x1
 13119 11ce 52       		.byte	0x52
 13120 11cf 9F       		.byte	0x9f
 13121 11d0 42020000 		.4byte	.LVL335
 13122 11d4 4C020000 		.4byte	.LVL336
 13123 11d8 0100     		.2byte	0x1
 13124 11da 52       		.byte	0x52
 13125 11db 4C020000 		.4byte	.LVL336
 13126 11df 80020000 		.4byte	.LVL340
 13127 11e3 0400     		.2byte	0x4
 13128 11e5 F3       		.byte	0xf3
 13129 11e6 01       		.uleb128 0x1
 13130 11e7 52       		.byte	0x52
 13131 11e8 9F       		.byte	0x9f
 13132 11e9 80020000 		.4byte	.LVL340
 13133 11ed 86020000 		.4byte	.LVL342
 13134 11f1 0100     		.2byte	0x1
 13135 11f3 52       		.byte	0x52
 13136 11f4 86020000 		.4byte	.LVL342
 13137 11f8 96020000 		.4byte	.LVL344
 13138 11fc 0400     		.2byte	0x4
 13139 11fe F3       		.byte	0xf3
 13140 11ff 01       		.uleb128 0x1
 13141 1200 52       		.byte	0x52
 13142 1201 9F       		.byte	0x9f
 13143 1202 96020000 		.4byte	.LVL344
 13144 1206 A6020000 		.4byte	.LVL347
 13145 120a 0100     		.2byte	0x1
 13146 120c 52       		.byte	0x52
 13147 120d A6020000 		.4byte	.LVL347
 13148 1211 D6020000 		.4byte	.LFE118
 13149 1215 0400     		.2byte	0x4
ARM GAS  /tmp/ccLrOMZj.s 			page 232


 13150 1217 F3       		.byte	0xf3
 13151 1218 01       		.uleb128 0x1
 13152 1219 52       		.byte	0x52
 13153 121a 9F       		.byte	0x9f
 13154 121b 00000000 		.4byte	0
 13155 121f 00000000 		.4byte	0
 13156              	.LLST118:
 13157 1223 00000000 		.4byte	.LVL279
 13158 1227 42000000 		.4byte	.LVL286
 13159 122b 0100     		.2byte	0x1
 13160 122d 53       		.byte	0x53
 13161 122e 42000000 		.4byte	.LVL286
 13162 1232 26010000 		.4byte	.LVL304
 13163 1236 0400     		.2byte	0x4
 13164 1238 F3       		.byte	0xf3
 13165 1239 01       		.uleb128 0x1
 13166 123a 53       		.byte	0x53
 13167 123b 9F       		.byte	0x9f
 13168 123c 26010000 		.4byte	.LVL304
 13169 1240 34010000 		.4byte	.LVL308
 13170 1244 0100     		.2byte	0x1
 13171 1246 53       		.byte	0x53
 13172 1247 34010000 		.4byte	.LVL308
 13173 124b 28020000 		.4byte	.LVL332
 13174 124f 0400     		.2byte	0x4
 13175 1251 F3       		.byte	0xf3
 13176 1252 01       		.uleb128 0x1
 13177 1253 53       		.byte	0x53
 13178 1254 9F       		.byte	0x9f
 13179 1255 28020000 		.4byte	.LVL332
 13180 1259 32020000 		.4byte	.LVL333
 13181 125d 0100     		.2byte	0x1
 13182 125f 53       		.byte	0x53
 13183 1260 32020000 		.4byte	.LVL333
 13184 1264 42020000 		.4byte	.LVL335
 13185 1268 0400     		.2byte	0x4
 13186 126a F3       		.byte	0xf3
 13187 126b 01       		.uleb128 0x1
 13188 126c 53       		.byte	0x53
 13189 126d 9F       		.byte	0x9f
 13190 126e 42020000 		.4byte	.LVL335
 13191 1272 50020000 		.4byte	.LVL337
 13192 1276 0100     		.2byte	0x1
 13193 1278 53       		.byte	0x53
 13194 1279 50020000 		.4byte	.LVL337
 13195 127d 80020000 		.4byte	.LVL340
 13196 1281 0400     		.2byte	0x4
 13197 1283 F3       		.byte	0xf3
 13198 1284 01       		.uleb128 0x1
 13199 1285 53       		.byte	0x53
 13200 1286 9F       		.byte	0x9f
 13201 1287 80020000 		.4byte	.LVL340
 13202 128b 8A020000 		.4byte	.LVL343
 13203 128f 0100     		.2byte	0x1
 13204 1291 53       		.byte	0x53
 13205 1292 8A020000 		.4byte	.LVL343
 13206 1296 96020000 		.4byte	.LVL344
ARM GAS  /tmp/ccLrOMZj.s 			page 233


 13207 129a 0400     		.2byte	0x4
 13208 129c F3       		.byte	0xf3
 13209 129d 01       		.uleb128 0x1
 13210 129e 53       		.byte	0x53
 13211 129f 9F       		.byte	0x9f
 13212 12a0 96020000 		.4byte	.LVL344
 13213 12a4 A2020000 		.4byte	.LVL346
 13214 12a8 0100     		.2byte	0x1
 13215 12aa 53       		.byte	0x53
 13216 12ab A2020000 		.4byte	.LVL346
 13217 12af D6020000 		.4byte	.LFE118
 13218 12b3 0400     		.2byte	0x4
 13219 12b5 F3       		.byte	0xf3
 13220 12b6 01       		.uleb128 0x1
 13221 12b7 53       		.byte	0x53
 13222 12b8 9F       		.byte	0x9f
 13223 12b9 00000000 		.4byte	0
 13224 12bd 00000000 		.4byte	0
 13225              	.LLST119:
 13226 12c1 32000000 		.4byte	.LVL284
 13227 12c5 3C000000 		.4byte	.LVL285
 13228 12c9 0100     		.2byte	0x1
 13229 12cb 57       		.byte	0x57
 13230 12cc 3C000000 		.4byte	.LVL285
 13231 12d0 42000000 		.4byte	.LVL286
 13232 12d4 0100     		.2byte	0x1
 13233 12d6 51       		.byte	0x51
 13234 12d7 50000000 		.4byte	.LVL287
 13235 12db 26010000 		.4byte	.LVL304
 13236 12df 0200     		.2byte	0x2
 13237 12e1 91       		.byte	0x91
 13238 12e2 50       		.sleb128 -48
 13239 12e3 36010000 		.4byte	.LVL309
 13240 12e7 48010000 		.4byte	.LVL311
 13241 12eb 0100     		.2byte	0x1
 13242 12ed 53       		.byte	0x53
 13243 12ee 6C020000 		.4byte	.LVL339
 13244 12f2 80020000 		.4byte	.LVL340
 13245 12f6 0200     		.2byte	0x2
 13246 12f8 91       		.byte	0x91
 13247 12f9 50       		.sleb128 -48
 13248 12fa C2020000 		.4byte	.LVL350
 13249 12fe D6020000 		.4byte	.LFE118
 13250 1302 0200     		.2byte	0x2
 13251 1304 91       		.byte	0x91
 13252 1305 50       		.sleb128 -48
 13253 1306 00000000 		.4byte	0
 13254 130a 00000000 		.4byte	0
 13255              	.LLST120:
 13256 130e 26000000 		.4byte	.LVL281
 13257 1312 2E000000 		.4byte	.LVL283
 13258 1316 0100     		.2byte	0x1
 13259 1318 52       		.byte	0x52
 13260 1319 2E010000 		.4byte	.LVL306
 13261 131d 32010000 		.4byte	.LVL307
 13262 1321 0100     		.2byte	0x1
 13263 1323 51       		.byte	0x51
ARM GAS  /tmp/ccLrOMZj.s 			page 234


 13264 1324 56010000 		.4byte	.LVL312
 13265 1328 22020000 		.4byte	.LVL331
 13266 132c 0200     		.2byte	0x2
 13267 132e 91       		.byte	0x91
 13268 132f 50       		.sleb128 -48
 13269 1330 5C020000 		.4byte	.LVL338
 13270 1334 6C020000 		.4byte	.LVL339
 13271 1338 0200     		.2byte	0x2
 13272 133a 91       		.byte	0x91
 13273 133b 50       		.sleb128 -48
 13274 133c B2020000 		.4byte	.LVL348
 13275 1340 C2020000 		.4byte	.LVL350
 13276 1344 0200     		.2byte	0x2
 13277 1346 91       		.byte	0x91
 13278 1347 50       		.sleb128 -48
 13279 1348 00000000 		.4byte	0
 13280 134c 00000000 		.4byte	0
 13281              	.LLST121:
 13282 1350 26000000 		.4byte	.LVL281
 13283 1354 2A000000 		.4byte	.LVL282
 13284 1358 0300     		.2byte	0x3
 13285 135a 09       		.byte	0x9
 13286 135b FF       		.byte	0xff
 13287 135c 9F       		.byte	0x9f
 13288 135d 2A000000 		.4byte	.LVL282
 13289 1361 2E000000 		.4byte	.LVL283
 13290 1365 0100     		.2byte	0x1
 13291 1367 56       		.byte	0x56
 13292 1368 2E010000 		.4byte	.LVL306
 13293 136c 32010000 		.4byte	.LVL307
 13294 1370 0100     		.2byte	0x1
 13295 1372 56       		.byte	0x56
 13296 1373 00000000 		.4byte	0
 13297 1377 00000000 		.4byte	0
 13298              	.LLST122:
 13299 137b 32000000 		.4byte	.LVL284
 13300 137f 3C000000 		.4byte	.LVL285
 13301 1383 0200     		.2byte	0x2
 13302 1385 31       		.byte	0x31
 13303 1386 9F       		.byte	0x9f
 13304 1387 3C000000 		.4byte	.LVL285
 13305 138b 42000000 		.4byte	.LVL286
 13306 138f 0100     		.2byte	0x1
 13307 1391 57       		.byte	0x57
 13308 1392 36010000 		.4byte	.LVL309
 13309 1396 44010000 		.4byte	.LVL310
 13310 139a 0300     		.2byte	0x3
 13311 139c 09       		.byte	0x9
 13312 139d FF       		.byte	0xff
 13313 139e 9F       		.byte	0x9f
 13314 139f 44010000 		.4byte	.LVL310
 13315 13a3 48010000 		.4byte	.LVL311
 13316 13a7 0100     		.2byte	0x1
 13317 13a9 57       		.byte	0x57
 13318 13aa 00000000 		.4byte	0
 13319 13ae 00000000 		.4byte	0
 13320              	.LLST123:
ARM GAS  /tmp/ccLrOMZj.s 			page 235


 13321 13b2 5A000000 		.4byte	.LVL288
 13322 13b6 64000000 		.4byte	.LVL290
 13323 13ba 0100     		.2byte	0x1
 13324 13bc 53       		.byte	0x53
 13325 13bd 64000000 		.4byte	.LVL290
 13326 13c1 8C000000 		.4byte	.LVL294
 13327 13c5 0100     		.2byte	0x1
 13328 13c7 58       		.byte	0x58
 13329 13c8 60010000 		.4byte	.LVL313
 13330 13cc 6E010000 		.4byte	.LVL315
 13331 13d0 0100     		.2byte	0x1
 13332 13d2 52       		.byte	0x52
 13333 13d3 6E010000 		.4byte	.LVL315
 13334 13d7 90010000 		.4byte	.LVL320
 13335 13db 0100     		.2byte	0x1
 13336 13dd 58       		.byte	0x58
 13337 13de B2020000 		.4byte	.LVL348
 13338 13e2 D6020000 		.4byte	.LFE118
 13339 13e6 0100     		.2byte	0x1
 13340 13e8 58       		.byte	0x58
 13341 13e9 00000000 		.4byte	0
 13342 13ed 00000000 		.4byte	0
 13343              	.LLST124:
 13344 13f1 5C000000 		.4byte	.LVL289
 13345 13f5 26010000 		.4byte	.LVL304
 13346 13f9 0200     		.2byte	0x2
 13347 13fb 91       		.byte	0x91
 13348 13fc 4C       		.sleb128 -52
 13349 13fd 62010000 		.4byte	.LVL314
 13350 1401 28020000 		.4byte	.LVL332
 13351 1405 0200     		.2byte	0x2
 13352 1407 91       		.byte	0x91
 13353 1408 4C       		.sleb128 -52
 13354 1409 5C020000 		.4byte	.LVL338
 13355 140d 80020000 		.4byte	.LVL340
 13356 1411 0200     		.2byte	0x2
 13357 1413 91       		.byte	0x91
 13358 1414 4C       		.sleb128 -52
 13359 1415 B2020000 		.4byte	.LVL348
 13360 1419 D6020000 		.4byte	.LFE118
 13361 141d 0200     		.2byte	0x2
 13362 141f 91       		.byte	0x91
 13363 1420 4C       		.sleb128 -52
 13364 1421 00000000 		.4byte	0
 13365 1425 00000000 		.4byte	0
 13366              	.LLST125:
 13367 1429 5C000000 		.4byte	.LVL289
 13368 142d 90000000 		.4byte	.LVL295
 13369 1431 0200     		.2byte	0x2
 13370 1433 30       		.byte	0x30
 13371 1434 9F       		.byte	0x9f
 13372 1435 62010000 		.4byte	.LVL314
 13373 1439 94010000 		.4byte	.LVL321
 13374 143d 0200     		.2byte	0x2
 13375 143f 30       		.byte	0x30
 13376 1440 9F       		.byte	0x9f
 13377 1441 B2020000 		.4byte	.LVL348
ARM GAS  /tmp/ccLrOMZj.s 			page 236


 13378 1445 D6020000 		.4byte	.LFE118
 13379 1449 0200     		.2byte	0x2
 13380 144b 30       		.byte	0x30
 13381 144c 9F       		.byte	0x9f
 13382 144d 00000000 		.4byte	0
 13383 1451 00000000 		.4byte	0
 13384              	.LLST126:
 13385 1455 00000000 		.4byte	.LFB121
 13386 1459 04000000 		.4byte	.LCFI13
 13387 145d 0200     		.2byte	0x2
 13388 145f 7D       		.byte	0x7d
 13389 1460 00       		.sleb128 0
 13390 1461 04000000 		.4byte	.LCFI13
 13391 1465 08000000 		.4byte	.LCFI14
 13392 1469 0200     		.2byte	0x2
 13393 146b 7D       		.byte	0x7d
 13394 146c 24       		.sleb128 36
 13395 146d 08000000 		.4byte	.LCFI14
 13396 1471 E6000000 		.4byte	.LFE121
 13397 1475 0300     		.2byte	0x3
 13398 1477 7D       		.byte	0x7d
 13399 1478 C000     		.sleb128 64
 13400 147a 00000000 		.4byte	0
 13401 147e 00000000 		.4byte	0
 13402              	.LLST127:
 13403 1482 00000000 		.4byte	.LVL352
 13404 1486 16000000 		.4byte	.LVL354
 13405 148a 0100     		.2byte	0x1
 13406 148c 50       		.byte	0x50
 13407 148d 16000000 		.4byte	.LVL354
 13408 1491 E6000000 		.4byte	.LFE121
 13409 1495 0100     		.2byte	0x1
 13410 1497 58       		.byte	0x58
 13411 1498 00000000 		.4byte	0
 13412 149c 00000000 		.4byte	0
 13413              	.LLST128:
 13414 14a0 00000000 		.4byte	.LVL352
 13415 14a4 24000000 		.4byte	.LVL356
 13416 14a8 0100     		.2byte	0x1
 13417 14aa 51       		.byte	0x51
 13418 14ab 24000000 		.4byte	.LVL356
 13419 14af E6000000 		.4byte	.LFE121
 13420 14b3 0100     		.2byte	0x1
 13421 14b5 56       		.byte	0x56
 13422 14b6 00000000 		.4byte	0
 13423 14ba 00000000 		.4byte	0
 13424              	.LLST129:
 13425 14be 00000000 		.4byte	.LVL352
 13426 14c2 0E000000 		.4byte	.LVL353
 13427 14c6 0100     		.2byte	0x1
 13428 14c8 52       		.byte	0x52
 13429 14c9 0E000000 		.4byte	.LVL353
 13430 14cd E6000000 		.4byte	.LFE121
 13431 14d1 0400     		.2byte	0x4
 13432 14d3 F3       		.byte	0xf3
 13433 14d4 01       		.uleb128 0x1
 13434 14d5 52       		.byte	0x52
ARM GAS  /tmp/ccLrOMZj.s 			page 237


 13435 14d6 9F       		.byte	0x9f
 13436 14d7 00000000 		.4byte	0
 13437 14db 00000000 		.4byte	0
 13438              	.LLST130:
 13439 14df 00000000 		.4byte	.LVL352
 13440 14e3 24000000 		.4byte	.LVL356
 13441 14e7 0100     		.2byte	0x1
 13442 14e9 53       		.byte	0x53
 13443 14ea 24000000 		.4byte	.LVL356
 13444 14ee E6000000 		.4byte	.LFE121
 13445 14f2 0400     		.2byte	0x4
 13446 14f4 F3       		.byte	0xf3
 13447 14f5 01       		.uleb128 0x1
 13448 14f6 53       		.byte	0x53
 13449 14f7 9F       		.byte	0x9f
 13450 14f8 00000000 		.4byte	0
 13451 14fc 00000000 		.4byte	0
 13452              	.LLST131:
 13453 1500 00000000 		.4byte	.LVL352
 13454 1504 24000000 		.4byte	.LVL356
 13455 1508 0200     		.2byte	0x2
 13456 150a 30       		.byte	0x30
 13457 150b 9F       		.byte	0x9f
 13458 150c 48000000 		.4byte	.LVL359
 13459 1510 4C000000 		.4byte	.LVL360
 13460 1514 0100     		.2byte	0x1
 13461 1516 54       		.byte	0x54
 13462 1517 4C000000 		.4byte	.LVL360
 13463 151b 54000000 		.4byte	.LVL361
 13464 151f 0100     		.2byte	0x1
 13465 1521 51       		.byte	0x51
 13466 1522 D6000000 		.4byte	.LVL366
 13467 1526 D8000000 		.4byte	.LVL367
 13468 152a 0100     		.2byte	0x1
 13469 152c 54       		.byte	0x54
 13470 152d D8000000 		.4byte	.LVL367
 13471 1531 E0000000 		.4byte	.LVL368
 13472 1535 0100     		.2byte	0x1
 13473 1537 51       		.byte	0x51
 13474 1538 00000000 		.4byte	0
 13475 153c 00000000 		.4byte	0
 13476              	.LLST132:
 13477 1540 00000000 		.4byte	.LVL352
 13478 1544 0E000000 		.4byte	.LVL353
 13479 1548 0100     		.2byte	0x1
 13480 154a 52       		.byte	0x52
 13481 154b 0E000000 		.4byte	.LVL353
 13482 154f 2C000000 		.4byte	.LVL357
 13483 1553 0100     		.2byte	0x1
 13484 1555 5A       		.byte	0x5a
 13485 1556 2C000000 		.4byte	.LVL357
 13486 155a 36000000 		.4byte	.LVL358
 13487 155e 0300     		.2byte	0x3
 13488 1560 7A       		.byte	0x7a
 13489 1561 01       		.sleb128 1
 13490 1562 9F       		.byte	0x9f
 13491 1563 48000000 		.4byte	.LVL359
ARM GAS  /tmp/ccLrOMZj.s 			page 238


 13492 1567 E0000000 		.4byte	.LVL368
 13493 156b 0100     		.2byte	0x1
 13494 156d 5A       		.byte	0x5a
 13495 156e 00000000 		.4byte	0
 13496 1572 00000000 		.4byte	0
 13497              	.LLST133:
 13498 1576 00000000 		.4byte	.LFB139
 13499 157a 04000000 		.4byte	.LCFI15
 13500 157e 0200     		.2byte	0x2
 13501 1580 7D       		.byte	0x7d
 13502 1581 00       		.sleb128 0
 13503 1582 04000000 		.4byte	.LCFI15
 13504 1586 44010000 		.4byte	.LFE139
 13505 158a 0200     		.2byte	0x2
 13506 158c 7D       		.byte	0x7d
 13507 158d 20       		.sleb128 32
 13508 158e 00000000 		.4byte	0
 13509 1592 00000000 		.4byte	0
 13510              	.LLST134:
 13511 1596 00000000 		.4byte	.LVL369
 13512 159a 32000000 		.4byte	.LVL374
 13513 159e 0100     		.2byte	0x1
 13514 15a0 50       		.byte	0x50
 13515 15a1 32000000 		.4byte	.LVL374
 13516 15a5 34000000 		.4byte	.LVL375
 13517 15a9 0500     		.2byte	0x5
 13518 15ab 03       		.byte	0x3
 13519 15ac 08000000 		.4byte	GDISP+8
 13520 15b0 34000000 		.4byte	.LVL375
 13521 15b4 AF000000 		.4byte	.LVL385-1
 13522 15b8 0100     		.2byte	0x1
 13523 15ba 50       		.byte	0x50
 13524 15bb EA000000 		.4byte	.LVL393
 13525 15bf 12010000 		.4byte	.LVL396
 13526 15c3 0100     		.2byte	0x1
 13527 15c5 57       		.byte	0x57
 13528 15c6 00000000 		.4byte	0
 13529 15ca 00000000 		.4byte	0
 13530              	.LLST135:
 13531 15ce 00000000 		.4byte	.LVL369
 13532 15d2 2A000000 		.4byte	.LVL372
 13533 15d6 0100     		.2byte	0x1
 13534 15d8 51       		.byte	0x51
 13535 15d9 2A000000 		.4byte	.LVL372
 13536 15dd 50000000 		.4byte	.LVL377
 13537 15e1 0400     		.2byte	0x4
 13538 15e3 F3       		.byte	0xf3
 13539 15e4 01       		.uleb128 0x1
 13540 15e5 51       		.byte	0x51
 13541 15e6 9F       		.byte	0x9f
 13542 15e7 50000000 		.4byte	.LVL377
 13543 15eb 52000000 		.4byte	.LVL378
 13544 15ef 0500     		.2byte	0x5
 13545 15f1 03       		.byte	0x3
 13546 15f2 0A000000 		.4byte	GDISP+10
 13547 15f6 52000000 		.4byte	.LVL378
 13548 15fa EA000000 		.4byte	.LVL393
ARM GAS  /tmp/ccLrOMZj.s 			page 239


 13549 15fe 0100     		.2byte	0x1
 13550 1600 56       		.byte	0x56
 13551 1601 36010000 		.4byte	.LVL397
 13552 1605 3C010000 		.4byte	.LVL399
 13553 1609 0100     		.2byte	0x1
 13554 160b 56       		.byte	0x56
 13555 160c 00000000 		.4byte	0
 13556 1610 00000000 		.4byte	0
 13557              	.LLST136:
 13558 1614 00000000 		.4byte	.LVL369
 13559 1618 28000000 		.4byte	.LVL371
 13560 161c 0100     		.2byte	0x1
 13561 161e 52       		.byte	0x52
 13562 161f 28000000 		.4byte	.LVL371
 13563 1623 30000000 		.4byte	.LVL373
 13564 1627 0400     		.2byte	0x4
 13565 1629 F3       		.byte	0xf3
 13566 162a 01       		.uleb128 0x1
 13567 162b 52       		.byte	0x52
 13568 162c 9F       		.byte	0x9f
 13569 162d 30000000 		.4byte	.LVL373
 13570 1631 5C000000 		.4byte	.LVL379
 13571 1635 0100     		.2byte	0x1
 13572 1637 54       		.byte	0x54
 13573 1638 5E000000 		.4byte	.LVL380
 13574 163c D0000000 		.4byte	.LVL388
 13575 1640 0100     		.2byte	0x1
 13576 1642 54       		.byte	0x54
 13577 1643 00000000 		.4byte	0
 13578 1647 00000000 		.4byte	0
 13579              	.LLST137:
 13580 164b 00000000 		.4byte	.LVL369
 13581 164f 26000000 		.4byte	.LVL370
 13582 1653 0100     		.2byte	0x1
 13583 1655 53       		.byte	0x53
 13584 1656 26000000 		.4byte	.LVL370
 13585 165a 4C000000 		.4byte	.LVL376
 13586 165e 0400     		.2byte	0x4
 13587 1660 F3       		.byte	0xf3
 13588 1661 01       		.uleb128 0x1
 13589 1662 53       		.byte	0x53
 13590 1663 9F       		.byte	0x9f
 13591 1664 4C000000 		.4byte	.LVL376
 13592 1668 D6000000 		.4byte	.LVL390
 13593 166c 0100     		.2byte	0x1
 13594 166e 59       		.byte	0x59
 13595 166f 00000000 		.4byte	0
 13596 1673 00000000 		.4byte	0
 13597              	.LLST138:
 13598 1677 00000000 		.4byte	.LVL369
 13599 167b 32000000 		.4byte	.LVL374
 13600 167f 0200     		.2byte	0x2
 13601 1681 91       		.byte	0x91
 13602 1682 00       		.sleb128 0
 13603 1683 32000000 		.4byte	.LVL374
 13604 1687 44010000 		.4byte	.LFE139
 13605 168b 0100     		.2byte	0x1
ARM GAS  /tmp/ccLrOMZj.s 			page 240


 13606 168d 57       		.byte	0x57
 13607 168e 00000000 		.4byte	0
 13608 1692 00000000 		.4byte	0
 13609              	.LLST139:
 13610 1696 00000000 		.4byte	.LVL369
 13611 169a 50000000 		.4byte	.LVL377
 13612 169e 0200     		.2byte	0x2
 13613 16a0 91       		.byte	0x91
 13614 16a1 04       		.sleb128 4
 13615 16a2 50000000 		.4byte	.LVL377
 13616 16a6 A2000000 		.4byte	.LVL383
 13617 16aa 0100     		.2byte	0x1
 13618 16ac 5C       		.byte	0x5c
 13619 16ad 00000000 		.4byte	0
 13620 16b1 00000000 		.4byte	0
 13621              	.LLST140:
 13622 16b5 00000000 		.4byte	.LVL369
 13623 16b9 AC000000 		.4byte	.LVL384
 13624 16bd 0200     		.2byte	0x2
 13625 16bf 91       		.byte	0x91
 13626 16c0 0C       		.sleb128 12
 13627 16c1 AC000000 		.4byte	.LVL384
 13628 16c5 10010000 		.4byte	.LVL395
 13629 16c9 0100     		.2byte	0x1
 13630 16cb 55       		.byte	0x55
 13631 16cc 3A010000 		.4byte	.LVL398
 13632 16d0 3C010000 		.4byte	.LVL399
 13633 16d4 0100     		.2byte	0x1
 13634 16d6 55       		.byte	0x55
 13635 16d7 00000000 		.4byte	0
 13636 16db 00000000 		.4byte	0
 13637              	.LLST141:
 13638 16df C8000000 		.4byte	.LVL386
 13639 16e3 D2000000 		.4byte	.LVL389
 13640 16e7 0100     		.2byte	0x1
 13641 16e9 53       		.byte	0x53
 13642 16ea D2000000 		.4byte	.LVL389
 13643 16ee E6000000 		.4byte	.LVL392
 13644 16f2 0100     		.2byte	0x1
 13645 16f4 51       		.byte	0x51
 13646 16f5 00000000 		.4byte	0
 13647 16f9 00000000 		.4byte	0
 13648              	.LLST142:
 13649 16fd C8000000 		.4byte	.LVL386
 13650 1701 D6000000 		.4byte	.LVL390
 13651 1705 0600     		.2byte	0x6
 13652 1707 7A       		.byte	0x7a
 13653 1708 00       		.sleb128 0
 13654 1709 79       		.byte	0x79
 13655 170a 00       		.sleb128 0
 13656 170b 22       		.byte	0x22
 13657 170c 9F       		.byte	0x9f
 13658 170d 00000000 		.4byte	0
 13659 1711 00000000 		.4byte	0
 13660              	.LLST143:
 13661 1715 CC000000 		.4byte	.LVL387
 13662 1719 E0000000 		.4byte	.LVL391
ARM GAS  /tmp/ccLrOMZj.s 			page 241


 13663 171d 0100     		.2byte	0x1
 13664 171f 58       		.byte	0x58
 13665 1720 00000000 		.4byte	0
 13666 1724 00000000 		.4byte	0
 13667              	.LLST144:
 13668 1728 B0000000 		.4byte	.LVL385
 13669 172c 3C010000 		.4byte	.LVL399
 13670 1730 0300     		.2byte	0x3
 13671 1732 08       		.byte	0x8
 13672 1733 22       		.byte	0x22
 13673 1734 9F       		.byte	0x9f
 13674 1735 00000000 		.4byte	0
 13675 1739 00000000 		.4byte	0
 13676              	.LLST145:
 13677 173d F8000000 		.4byte	.LVL394
 13678 1741 10010000 		.4byte	.LVL395
 13679 1745 0200     		.2byte	0x2
 13680 1747 75       		.byte	0x75
 13681 1748 00       		.sleb128 0
 13682 1749 00000000 		.4byte	0
 13683 174d 00000000 		.4byte	0
 13684              	.LLST146:
 13685 1751 00000000 		.4byte	.LFB123
 13686 1755 04000000 		.4byte	.LCFI16
 13687 1759 0200     		.2byte	0x2
 13688 175b 7D       		.byte	0x7d
 13689 175c 00       		.sleb128 0
 13690 175d 04000000 		.4byte	.LCFI16
 13691 1761 08000000 		.4byte	.LCFI17
 13692 1765 0200     		.2byte	0x2
 13693 1767 7D       		.byte	0x7d
 13694 1768 24       		.sleb128 36
 13695 1769 08000000 		.4byte	.LCFI17
 13696 176d BC010000 		.4byte	.LFE123
 13697 1771 0300     		.2byte	0x3
 13698 1773 7D       		.byte	0x7d
 13699 1774 E000     		.sleb128 96
 13700 1776 00000000 		.4byte	0
 13701 177a 00000000 		.4byte	0
 13702              	.LLST147:
 13703 177e 00000000 		.4byte	.LVL400
 13704 1782 30000000 		.4byte	.LVL404
 13705 1786 0100     		.2byte	0x1
 13706 1788 50       		.byte	0x50
 13707 1789 30000000 		.4byte	.LVL404
 13708 178d BC010000 		.4byte	.LFE123
 13709 1791 0400     		.2byte	0x4
 13710 1793 F3       		.byte	0xf3
 13711 1794 01       		.uleb128 0x1
 13712 1795 50       		.byte	0x50
 13713 1796 9F       		.byte	0x9f
 13714 1797 00000000 		.4byte	0
 13715 179b 00000000 		.4byte	0
 13716              	.LLST148:
 13717 179f 00000000 		.4byte	.LVL400
 13718 17a3 1C000000 		.4byte	.LVL401
 13719 17a7 0100     		.2byte	0x1
ARM GAS  /tmp/ccLrOMZj.s 			page 242


 13720 17a9 51       		.byte	0x51
 13721 17aa 1C000000 		.4byte	.LVL401
 13722 17ae BC010000 		.4byte	.LFE123
 13723 17b2 0400     		.2byte	0x4
 13724 17b4 F3       		.byte	0xf3
 13725 17b5 01       		.uleb128 0x1
 13726 17b6 51       		.byte	0x51
 13727 17b7 9F       		.byte	0x9f
 13728 17b8 00000000 		.4byte	0
 13729 17bc 00000000 		.4byte	0
 13730              	.LLST149:
 13731 17c0 00000000 		.4byte	.LVL400
 13732 17c4 26000000 		.4byte	.LVL402
 13733 17c8 0100     		.2byte	0x1
 13734 17ca 52       		.byte	0x52
 13735 17cb 26000000 		.4byte	.LVL402
 13736 17cf BC010000 		.4byte	.LFE123
 13737 17d3 0400     		.2byte	0x4
 13738 17d5 F3       		.byte	0xf3
 13739 17d6 01       		.uleb128 0x1
 13740 17d7 52       		.byte	0x52
 13741 17d8 9F       		.byte	0x9f
 13742 17d9 00000000 		.4byte	0
 13743 17dd 00000000 		.4byte	0
 13744              	.LLST150:
 13745 17e1 00000000 		.4byte	.LVL400
 13746 17e5 4E000000 		.4byte	.LVL408
 13747 17e9 0100     		.2byte	0x1
 13748 17eb 53       		.byte	0x53
 13749 17ec 4E000000 		.4byte	.LVL408
 13750 17f0 BC010000 		.4byte	.LFE123
 13751 17f4 0400     		.2byte	0x4
 13752 17f6 F3       		.byte	0xf3
 13753 17f7 01       		.uleb128 0x1
 13754 17f8 53       		.byte	0x53
 13755 17f9 9F       		.byte	0x9f
 13756 17fa 00000000 		.4byte	0
 13757 17fe 00000000 		.4byte	0
 13758              	.LLST151:
 13759 1802 28000000 		.4byte	.LVL403
 13760 1806 3A000000 		.4byte	.LVL406
 13761 180a 0600     		.2byte	0x6
 13762 180c 71       		.byte	0x71
 13763 180d 00       		.sleb128 0
 13764 180e 08       		.byte	0x8
 13765 180f FF       		.byte	0xff
 13766 1810 1A       		.byte	0x1a
 13767 1811 9F       		.byte	0x9f
 13768 1812 3A000000 		.4byte	.LVL406
 13769 1816 3E000000 		.4byte	.LVL407
 13770 181a 0C00     		.2byte	0xc
 13771 181c 73       		.byte	0x73
 13772 181d 10       		.sleb128 16
 13773 181e 06       		.byte	0x6
 13774 181f 74       		.byte	0x74
 13775 1820 00       		.sleb128 0
 13776 1821 22       		.byte	0x22
ARM GAS  /tmp/ccLrOMZj.s 			page 243


 13777 1822 94       		.byte	0x94
 13778 1823 01       		.byte	0x1
 13779 1824 08       		.byte	0x8
 13780 1825 FF       		.byte	0xff
 13781 1826 1A       		.byte	0x1a
 13782 1827 9F       		.byte	0x9f
 13783 1828 3E000000 		.4byte	.LVL407
 13784 182c 3E010000 		.4byte	.LVL426
 13785 1830 0300     		.2byte	0x3
 13786 1832 91       		.byte	0x91
 13787 1833 B87F     		.sleb128 -72
 13788 1835 44010000 		.4byte	.LVL427
 13789 1839 BC010000 		.4byte	.LFE123
 13790 183d 0300     		.2byte	0x3
 13791 183f 91       		.byte	0x91
 13792 1840 B87F     		.sleb128 -72
 13793 1842 00000000 		.4byte	0
 13794 1846 00000000 		.4byte	0
 13795              	.LLST152:
 13796 184a 3E000000 		.4byte	.LVL407
 13797 184e 70000000 		.4byte	.LVL411
 13798 1852 0100     		.2byte	0x1
 13799 1854 52       		.byte	0x52
 13800 1855 70000000 		.4byte	.LVL411
 13801 1859 3D010000 		.4byte	.LVL426-1
 13802 185d 0E00     		.2byte	0xe
 13803 185f F3       		.byte	0xf3
 13804 1860 01       		.uleb128 0x1
 13805 1861 53       		.byte	0x53
 13806 1862 23       		.byte	0x23
 13807 1863 04       		.uleb128 0x4
 13808 1864 94       		.byte	0x94
 13809 1865 01       		.byte	0x1
 13810 1866 08       		.byte	0x8
 13811 1867 FF       		.byte	0xff
 13812 1868 1A       		.byte	0x1a
 13813 1869 77       		.byte	0x77
 13814 186a 00       		.sleb128 0
 13815 186b 1E       		.byte	0x1e
 13816 186c 9F       		.byte	0x9f
 13817 186d 44010000 		.4byte	.LVL427
 13818 1871 AE010000 		.4byte	.LVL431
 13819 1875 0E00     		.2byte	0xe
 13820 1877 F3       		.byte	0xf3
 13821 1878 01       		.uleb128 0x1
 13822 1879 53       		.byte	0x53
 13823 187a 23       		.byte	0x23
 13824 187b 04       		.uleb128 0x4
 13825 187c 94       		.byte	0x94
 13826 187d 01       		.byte	0x1
 13827 187e 08       		.byte	0x8
 13828 187f FF       		.byte	0xff
 13829 1880 1A       		.byte	0x1a
 13830 1881 77       		.byte	0x77
 13831 1882 00       		.sleb128 0
 13832 1883 1E       		.byte	0x1e
 13833 1884 9F       		.byte	0x9f
ARM GAS  /tmp/ccLrOMZj.s 			page 244


 13834 1885 AE010000 		.4byte	.LVL431
 13835 1889 B2010000 		.4byte	.LVL432
 13836 188d 0100     		.2byte	0x1
 13837 188f 52       		.byte	0x52
 13838 1890 B2010000 		.4byte	.LVL432
 13839 1894 BC010000 		.4byte	.LFE123
 13840 1898 0E00     		.2byte	0xe
 13841 189a F3       		.byte	0xf3
 13842 189b 01       		.uleb128 0x1
 13843 189c 53       		.byte	0x53
 13844 189d 23       		.byte	0x23
 13845 189e 04       		.uleb128 0x4
 13846 189f 94       		.byte	0x94
 13847 18a0 01       		.byte	0x1
 13848 18a1 08       		.byte	0x8
 13849 18a2 FF       		.byte	0xff
 13850 18a3 1A       		.byte	0x1a
 13851 18a4 77       		.byte	0x77
 13852 18a5 00       		.sleb128 0
 13853 18a6 1E       		.byte	0x1e
 13854 18a7 9F       		.byte	0x9f
 13855 18a8 00000000 		.4byte	0
 13856 18ac 00000000 		.4byte	0
 13857              	.LLST153:
 13858 18b0 36000000 		.4byte	.LVL405
 13859 18b4 3E010000 		.4byte	.LVL426
 13860 18b8 0900     		.2byte	0x9
 13861 18ba 91       		.byte	0x91
 13862 18bb B47F     		.sleb128 -76
 13863 18bd 94       		.byte	0x94
 13864 18be 01       		.byte	0x1
 13865 18bf 08       		.byte	0x8
 13866 18c0 FF       		.byte	0xff
 13867 18c1 1A       		.byte	0x1a
 13868 18c2 9F       		.byte	0x9f
 13869 18c3 44010000 		.4byte	.LVL427
 13870 18c7 BC010000 		.4byte	.LFE123
 13871 18cb 0900     		.2byte	0x9
 13872 18cd 91       		.byte	0x91
 13873 18ce B47F     		.sleb128 -76
 13874 18d0 94       		.byte	0x94
 13875 18d1 01       		.byte	0x1
 13876 18d2 08       		.byte	0x8
 13877 18d3 FF       		.byte	0xff
 13878 18d4 1A       		.byte	0x1a
 13879 18d5 9F       		.byte	0x9f
 13880 18d6 00000000 		.4byte	0
 13881 18da 00000000 		.4byte	0
 13882              	.LLST154:
 13883 18de 60000000 		.4byte	.LVL409
 13884 18e2 6E000000 		.4byte	.LVL410
 13885 18e6 0100     		.2byte	0x1
 13886 18e8 50       		.byte	0x50
 13887 18e9 6E000000 		.4byte	.LVL410
 13888 18ed 88000000 		.4byte	.LVL413
 13889 18f1 0200     		.2byte	0x2
 13890 18f3 91       		.byte	0x91
ARM GAS  /tmp/ccLrOMZj.s 			page 245


 13891 18f4 4C       		.sleb128 -52
 13892 18f5 88000000 		.4byte	.LVL413
 13893 18f9 8E000000 		.4byte	.LVL414
 13894 18fd 0100     		.2byte	0x1
 13895 18ff 54       		.byte	0x54
 13896 1900 8E000000 		.4byte	.LVL414
 13897 1904 3E010000 		.4byte	.LVL426
 13898 1908 0200     		.2byte	0x2
 13899 190a 91       		.byte	0x91
 13900 190b 4C       		.sleb128 -52
 13901 190c 44010000 		.4byte	.LVL427
 13902 1910 AE010000 		.4byte	.LVL431
 13903 1914 0200     		.2byte	0x2
 13904 1916 91       		.byte	0x91
 13905 1917 4C       		.sleb128 -52
 13906 1918 AE010000 		.4byte	.LVL431
 13907 191c BC010000 		.4byte	.LFE123
 13908 1920 0100     		.2byte	0x1
 13909 1922 50       		.byte	0x50
 13910 1923 00000000 		.4byte	0
 13911 1927 00000000 		.4byte	0
 13912              	.LLST155:
 13913 192b 88000000 		.4byte	.LVL413
 13914 192f 94000000 		.4byte	.LVL415
 13915 1933 0300     		.2byte	0x3
 13916 1935 91       		.byte	0x91
 13917 1936 4C       		.sleb128 -52
 13918 1937 06       		.byte	0x6
 13919 1938 10010000 		.4byte	.LVL422
 13920 193c 12010000 		.4byte	.LVL423
 13921 1940 0100     		.2byte	0x1
 13922 1942 5E       		.byte	0x5e
 13923 1943 00000000 		.4byte	0
 13924 1947 00000000 		.4byte	0
 13925              	.LLST156:
 13926 194b 60000000 		.4byte	.LVL409
 13927 194f 7C000000 		.4byte	.LVL412
 13928 1953 0200     		.2byte	0x2
 13929 1955 30       		.byte	0x30
 13930 1956 9F       		.byte	0x9f
 13931 1957 20010000 		.4byte	.LVL424
 13932 195b 26010000 		.4byte	.LVL425
 13933 195f 0200     		.2byte	0x2
 13934 1961 91       		.byte	0x91
 13935 1962 48       		.sleb128 -56
 13936 1963 AE010000 		.4byte	.LVL431
 13937 1967 BC010000 		.4byte	.LFE123
 13938 196b 0200     		.2byte	0x2
 13939 196d 30       		.byte	0x30
 13940 196e 9F       		.byte	0x9f
 13941 196f 00000000 		.4byte	0
 13942 1973 00000000 		.4byte	0
 13943              	.LLST157:
 13944 1977 88000000 		.4byte	.LVL413
 13945 197b 94000000 		.4byte	.LVL415
 13946 197f 0200     		.2byte	0x2
 13947 1981 30       		.byte	0x30
ARM GAS  /tmp/ccLrOMZj.s 			page 246


 13948 1982 9F       		.byte	0x9f
 13949 1983 0C010000 		.4byte	.LVL421
 13950 1987 12010000 		.4byte	.LVL423
 13951 198b 0100     		.2byte	0x1
 13952 198d 54       		.byte	0x54
 13953 198e 00000000 		.4byte	0
 13954 1992 00000000 		.4byte	0
 13955              	.LLST158:
 13956 1996 9A000000 		.4byte	.LVL416
 13957 199a AC000000 		.4byte	.LVL417
 13958 199e 0200     		.2byte	0x2
 13959 19a0 30       		.byte	0x30
 13960 19a1 9F       		.byte	0x9f
 13961 19a2 F0000000 		.4byte	.LVL419
 13962 19a6 FC000000 		.4byte	.LVL420
 13963 19aa 0100     		.2byte	0x1
 13964 19ac 5B       		.byte	0x5b
 13965 19ad 44010000 		.4byte	.LVL427
 13966 19b1 5C010000 		.4byte	.LVL428
 13967 19b5 0200     		.2byte	0x2
 13968 19b7 30       		.byte	0x30
 13969 19b8 9F       		.byte	0x9f
 13970 19b9 A0010000 		.4byte	.LVL430
 13971 19bd AE010000 		.4byte	.LVL431
 13972 19c1 0100     		.2byte	0x1
 13973 19c3 5B       		.byte	0x5b
 13974 19c4 00000000 		.4byte	0
 13975 19c8 00000000 		.4byte	0
 13976              	.LLST159:
 13977 19cc AC000000 		.4byte	.LVL417
 13978 19d0 B0000000 		.4byte	.LVL418
 13979 19d4 0200     		.2byte	0x2
 13980 19d6 30       		.byte	0x30
 13981 19d7 9F       		.byte	0x9f
 13982 19d8 5C010000 		.4byte	.LVL428
 13983 19dc 60010000 		.4byte	.LVL429
 13984 19e0 0200     		.2byte	0x2
 13985 19e2 30       		.byte	0x30
 13986 19e3 9F       		.byte	0x9f
 13987 19e4 00000000 		.4byte	0
 13988 19e8 00000000 		.4byte	0
 13989              	.LLST160:
 13990 19ec 00000000 		.4byte	.LFB140
 13991 19f0 04000000 		.4byte	.LCFI18
 13992 19f4 0200     		.2byte	0x2
 13993 19f6 7D       		.byte	0x7d
 13994 19f7 00       		.sleb128 0
 13995 19f8 04000000 		.4byte	.LCFI18
 13996 19fc 70010000 		.4byte	.LFE140
 13997 1a00 0200     		.2byte	0x2
 13998 1a02 7D       		.byte	0x7d
 13999 1a03 18       		.sleb128 24
 14000 1a04 00000000 		.4byte	0
 14001 1a08 00000000 		.4byte	0
 14002              	.LLST161:
 14003 1a0c 00000000 		.4byte	.LVL433
 14004 1a10 18000000 		.4byte	.LVL436
ARM GAS  /tmp/ccLrOMZj.s 			page 247


 14005 1a14 0100     		.2byte	0x1
 14006 1a16 50       		.byte	0x50
 14007 1a17 18000000 		.4byte	.LVL436
 14008 1a1b 1A000000 		.4byte	.LVL437
 14009 1a1f 0400     		.2byte	0x4
 14010 1a21 F3       		.byte	0xf3
 14011 1a22 01       		.uleb128 0x1
 14012 1a23 50       		.byte	0x50
 14013 1a24 9F       		.byte	0x9f
 14014 1a25 1A000000 		.4byte	.LVL437
 14015 1a29 3E000000 		.4byte	.LVL440
 14016 1a2d 0100     		.2byte	0x1
 14017 1a2f 50       		.byte	0x50
 14018 1a30 3E000000 		.4byte	.LVL440
 14019 1a34 54000000 		.4byte	.LVL449
 14020 1a38 0400     		.2byte	0x4
 14021 1a3a F3       		.byte	0xf3
 14022 1a3b 01       		.uleb128 0x1
 14023 1a3c 50       		.byte	0x50
 14024 1a3d 9F       		.byte	0x9f
 14025 1a3e 54000000 		.4byte	.LVL449
 14026 1a42 58000000 		.4byte	.LVL450
 14027 1a46 0100     		.2byte	0x1
 14028 1a48 50       		.byte	0x50
 14029 1a49 58000000 		.4byte	.LVL450
 14030 1a4d 6A000000 		.4byte	.LVL452
 14031 1a51 0400     		.2byte	0x4
 14032 1a53 F3       		.byte	0xf3
 14033 1a54 01       		.uleb128 0x1
 14034 1a55 50       		.byte	0x50
 14035 1a56 9F       		.byte	0x9f
 14036 1a57 6A000000 		.4byte	.LVL452
 14037 1a5b 84000000 		.4byte	.LVL457
 14038 1a5f 0100     		.2byte	0x1
 14039 1a61 50       		.byte	0x50
 14040 1a62 84000000 		.4byte	.LVL457
 14041 1a66 70010000 		.4byte	.LFE140
 14042 1a6a 0400     		.2byte	0x4
 14043 1a6c F3       		.byte	0xf3
 14044 1a6d 01       		.uleb128 0x1
 14045 1a6e 50       		.byte	0x50
 14046 1a6f 9F       		.byte	0x9f
 14047 1a70 00000000 		.4byte	0
 14048 1a74 00000000 		.4byte	0
 14049              	.LLST162:
 14050 1a78 00000000 		.4byte	.LVL433
 14051 1a7c 14000000 		.4byte	.LVL434
 14052 1a80 0100     		.2byte	0x1
 14053 1a82 51       		.byte	0x51
 14054 1a83 14000000 		.4byte	.LVL434
 14055 1a87 16000000 		.4byte	.LVL435
 14056 1a8b 0400     		.2byte	0x4
 14057 1a8d F3       		.byte	0xf3
 14058 1a8e 01       		.uleb128 0x1
 14059 1a8f 51       		.byte	0x51
 14060 1a90 9F       		.byte	0x9f
 14061 1a91 1A000000 		.4byte	.LVL437
ARM GAS  /tmp/ccLrOMZj.s 			page 248


 14062 1a95 3C000000 		.4byte	.LVL439
 14063 1a99 0100     		.2byte	0x1
 14064 1a9b 51       		.byte	0x51
 14065 1a9c 3C000000 		.4byte	.LVL439
 14066 1aa0 54000000 		.4byte	.LVL449
 14067 1aa4 0400     		.2byte	0x4
 14068 1aa6 F3       		.byte	0xf3
 14069 1aa7 01       		.uleb128 0x1
 14070 1aa8 51       		.byte	0x51
 14071 1aa9 9F       		.byte	0x9f
 14072 1aaa 54000000 		.4byte	.LVL449
 14073 1aae 5A000000 		.4byte	.LVL451
 14074 1ab2 0100     		.2byte	0x1
 14075 1ab4 51       		.byte	0x51
 14076 1ab5 5A000000 		.4byte	.LVL451
 14077 1ab9 6A000000 		.4byte	.LVL452
 14078 1abd 0400     		.2byte	0x4
 14079 1abf F3       		.byte	0xf3
 14080 1ac0 01       		.uleb128 0x1
 14081 1ac1 51       		.byte	0x51
 14082 1ac2 9F       		.byte	0x9f
 14083 1ac3 6A000000 		.4byte	.LVL452
 14084 1ac7 76000000 		.4byte	.LVL453
 14085 1acb 0100     		.2byte	0x1
 14086 1acd 51       		.byte	0x51
 14087 1ace 76000000 		.4byte	.LVL453
 14088 1ad2 7C000000 		.4byte	.LVL455
 14089 1ad6 0400     		.2byte	0x4
 14090 1ad8 F3       		.byte	0xf3
 14091 1ad9 01       		.uleb128 0x1
 14092 1ada 51       		.byte	0x51
 14093 1adb 9F       		.byte	0x9f
 14094 1adc 7C000000 		.4byte	.LVL455
 14095 1ae0 82000000 		.4byte	.LVL456
 14096 1ae4 0100     		.2byte	0x1
 14097 1ae6 51       		.byte	0x51
 14098 1ae7 82000000 		.4byte	.LVL456
 14099 1aeb 70010000 		.4byte	.LFE140
 14100 1aef 0400     		.2byte	0x4
 14101 1af1 F3       		.byte	0xf3
 14102 1af2 01       		.uleb128 0x1
 14103 1af3 51       		.byte	0x51
 14104 1af4 9F       		.byte	0x9f
 14105 1af5 00000000 		.4byte	0
 14106 1af9 00000000 		.4byte	0
 14107              	.LLST163:
 14108 1afd 40000000 		.4byte	.LVL441
 14109 1b01 50000000 		.4byte	.LVL448
 14110 1b05 0200     		.2byte	0x2
 14111 1b07 30       		.byte	0x30
 14112 1b08 9F       		.byte	0x9f
 14113 1b09 00000000 		.4byte	0
 14114 1b0d 00000000 		.4byte	0
 14115              	.LLST164:
 14116 1b11 30000000 		.4byte	.LVL438
 14117 1b15 50000000 		.4byte	.LVL448
 14118 1b19 0200     		.2byte	0x2
ARM GAS  /tmp/ccLrOMZj.s 			page 249


 14119 1b1b 40       		.byte	0x40
 14120 1b1c 9F       		.byte	0x9f
 14121 1b1d 00000000 		.4byte	0
 14122 1b21 00000000 		.4byte	0
 14123              	.LLST165:
 14124 1b25 42000000 		.4byte	.LVL442
 14125 1b29 50000000 		.4byte	.LVL448
 14126 1b2d 0200     		.2byte	0x2
 14127 1b2f 37       		.byte	0x37
 14128 1b30 9F       		.byte	0x9f
 14129 1b31 00000000 		.4byte	0
 14130 1b35 00000000 		.4byte	0
 14131              	.LLST166:
 14132 1b39 44000000 		.4byte	.LVL443
 14133 1b3d 50000000 		.4byte	.LVL448
 14134 1b41 0200     		.2byte	0x2
 14135 1b43 30       		.byte	0x30
 14136 1b44 9F       		.byte	0x9f
 14137 1b45 00000000 		.4byte	0
 14138 1b49 00000000 		.4byte	0
 14139              	.LLST167:
 14140 1b4d 46000000 		.4byte	.LVL444
 14141 1b51 50000000 		.4byte	.LVL448
 14142 1b55 0200     		.2byte	0x2
 14143 1b57 30       		.byte	0x30
 14144 1b58 9F       		.byte	0x9f
 14145 1b59 00000000 		.4byte	0
 14146 1b5d 00000000 		.4byte	0
 14147              	.LLST168:
 14148 1b61 48000000 		.4byte	.LVL445
 14149 1b65 50000000 		.4byte	.LVL448
 14150 1b69 0200     		.2byte	0x2
 14151 1b6b 30       		.byte	0x30
 14152 1b6c 9F       		.byte	0x9f
 14153 1b6d 00000000 		.4byte	0
 14154 1b71 00000000 		.4byte	0
 14155              	.LLST169:
 14156 1b75 4A000000 		.4byte	.LVL446
 14157 1b79 50000000 		.4byte	.LVL448
 14158 1b7d 0200     		.2byte	0x2
 14159 1b7f 40       		.byte	0x40
 14160 1b80 9F       		.byte	0x9f
 14161 1b81 00000000 		.4byte	0
 14162 1b85 00000000 		.4byte	0
 14163              	.LLST170:
 14164 1b89 4C000000 		.4byte	.LVL447
 14165 1b8d 50000000 		.4byte	.LVL448
 14166 1b91 0200     		.2byte	0x2
 14167 1b93 31       		.byte	0x31
 14168 1b94 9F       		.byte	0x9f
 14169 1b95 00000000 		.4byte	0
 14170 1b99 00000000 		.4byte	0
 14171              	.LLST171:
 14172 1b9d 78000000 		.4byte	.LVL454
 14173 1ba1 7C000000 		.4byte	.LVL455
 14174 1ba5 0200     		.2byte	0x2
 14175 1ba7 31       		.byte	0x31
ARM GAS  /tmp/ccLrOMZj.s 			page 250


 14176 1ba8 9F       		.byte	0x9f
 14177 1ba9 00000000 		.4byte	0
 14178 1bad 00000000 		.4byte	0
 14179              	.LLST172:
 14180 1bb1 6A000000 		.4byte	.LVL452
 14181 1bb5 7C000000 		.4byte	.LVL455
 14182 1bb9 0200     		.2byte	0x2
 14183 1bbb 40       		.byte	0x40
 14184 1bbc 9F       		.byte	0x9f
 14185 1bbd 00000000 		.4byte	0
 14186 1bc1 00000000 		.4byte	0
 14187              	.LLST173:
 14188 1bc5 8A000000 		.4byte	.LVL458
 14189 1bc9 98000000 		.4byte	.LVL460
 14190 1bcd 0200     		.2byte	0x2
 14191 1bcf 30       		.byte	0x30
 14192 1bd0 9F       		.byte	0x9f
 14193 1bd1 00000000 		.4byte	0
 14194 1bd5 00000000 		.4byte	0
 14195              	.LLST174:
 14196 1bd9 7C000000 		.4byte	.LVL455
 14197 1bdd 98000000 		.4byte	.LVL460
 14198 1be1 0200     		.2byte	0x2
 14199 1be3 40       		.byte	0x40
 14200 1be4 9F       		.byte	0x9f
 14201 1be5 00000000 		.4byte	0
 14202 1be9 00000000 		.4byte	0
 14203              	.LLST175:
 14204 1bed 98000000 		.4byte	.LVL460
 14205 1bf1 C8000000 		.4byte	.LVL464
 14206 1bf5 0200     		.2byte	0x2
 14207 1bf7 31       		.byte	0x31
 14208 1bf8 9F       		.byte	0x9f
 14209 1bf9 00000000 		.4byte	0
 14210 1bfd 00000000 		.4byte	0
 14211              	.LLST176:
 14212 1c01 A6000000 		.4byte	.LVL461
 14213 1c05 C8000000 		.4byte	.LVL464
 14214 1c09 0400     		.2byte	0x4
 14215 1c0b 0A       		.byte	0xa
 14216 1c0c 3F29     		.2byte	0x293f
 14217 1c0e 9F       		.byte	0x9f
 14218 1c0f 00000000 		.4byte	0
 14219 1c13 00000000 		.4byte	0
 14220              	.LLST177:
 14221 1c17 B0000000 		.4byte	.LVL462
 14222 1c1b C8000000 		.4byte	.LVL464
 14223 1c1f 0200     		.2byte	0x2
 14224 1c21 41       		.byte	0x41
 14225 1c22 9F       		.byte	0x9f
 14226 1c23 00000000 		.4byte	0
 14227 1c27 00000000 		.4byte	0
 14228              	.LLST178:
 14229 1c2b B6000000 		.4byte	.LVL463
 14230 1c2f C8000000 		.4byte	.LVL464
 14231 1c33 0400     		.2byte	0x4
 14232 1c35 0A       		.byte	0xa
ARM GAS  /tmp/ccLrOMZj.s 			page 251


 14233 1c36 4860     		.2byte	0x6048
 14234 1c38 9F       		.byte	0x9f
 14235 1c39 00000000 		.4byte	0
 14236 1c3d 00000000 		.4byte	0
 14237              	.LLST179:
 14238 1c41 EC000000 		.4byte	.LVL466
 14239 1c45 08010000 		.4byte	.LVL469
 14240 1c49 0400     		.2byte	0x4
 14241 1c4b 0A       		.byte	0xa
 14242 1c4c 3F2B     		.2byte	0x2b3f
 14243 1c4e 9F       		.byte	0x9f
 14244 1c4f 00000000 		.4byte	0
 14245 1c53 00000000 		.4byte	0
 14246              	.LLST180:
 14247 1c57 D6000000 		.4byte	.LVL465
 14248 1c5b 08010000 		.4byte	.LVL469
 14249 1c5f 0200     		.2byte	0x2
 14250 1c61 31       		.byte	0x31
 14251 1c62 9F       		.byte	0x9f
 14252 1c63 00000000 		.4byte	0
 14253 1c67 00000000 		.4byte	0
 14254              	.LLST181:
 14255 1c6b F2000000 		.4byte	.LVL467
 14256 1c6f 08010000 		.4byte	.LVL469
 14257 1c73 0200     		.2byte	0x2
 14258 1c75 41       		.byte	0x41
 14259 1c76 9F       		.byte	0x9f
 14260 1c77 00000000 		.4byte	0
 14261 1c7b 00000000 		.4byte	0
 14262              	.LLST182:
 14263 1c7f F8000000 		.4byte	.LVL468
 14264 1c83 08010000 		.4byte	.LVL469
 14265 1c87 0400     		.2byte	0x4
 14266 1c89 0A       		.byte	0xa
 14267 1c8a 7060     		.2byte	0x6070
 14268 1c8c 9F       		.byte	0x9f
 14269 1c8d 00000000 		.4byte	0
 14270 1c91 00000000 		.4byte	0
 14271              	.LLST183:
 14272 1c95 1E010000 		.4byte	.LVL470
 14273 1c99 3A010000 		.4byte	.LVL473
 14274 1c9d 0400     		.2byte	0x4
 14275 1c9f 0A       		.byte	0xa
 14276 1ca0 3F29     		.2byte	0x293f
 14277 1ca2 9F       		.byte	0x9f
 14278 1ca3 00000000 		.4byte	0
 14279 1ca7 00000000 		.4byte	0
 14280              	.LLST184:
 14281 1cab 08010000 		.4byte	.LVL469
 14282 1caf 3A010000 		.4byte	.LVL473
 14283 1cb3 0200     		.2byte	0x2
 14284 1cb5 31       		.byte	0x31
 14285 1cb6 9F       		.byte	0x9f
 14286 1cb7 00000000 		.4byte	0
 14287 1cbb 00000000 		.4byte	0
 14288              	.LLST185:
 14289 1cbf 22010000 		.4byte	.LVL471
ARM GAS  /tmp/ccLrOMZj.s 			page 252


 14290 1cc3 3A010000 		.4byte	.LVL473
 14291 1cc7 0200     		.2byte	0x2
 14292 1cc9 41       		.byte	0x41
 14293 1cca 9F       		.byte	0x9f
 14294 1ccb 00000000 		.4byte	0
 14295 1ccf 00000000 		.4byte	0
 14296              	.LLST186:
 14297 1cd3 2A010000 		.4byte	.LVL472
 14298 1cd7 3A010000 		.4byte	.LVL473
 14299 1cdb 0400     		.2byte	0x4
 14300 1cdd 0A       		.byte	0xa
 14301 1cde 7860     		.2byte	0x6078
 14302 1ce0 9F       		.byte	0x9f
 14303 1ce1 00000000 		.4byte	0
 14304 1ce5 00000000 		.4byte	0
 14305              		.section	.debug_aranges,"",%progbits
 14306 0000 7C000000 		.4byte	0x7c
 14307 0004 0200     		.2byte	0x2
 14308 0006 00000000 		.4byte	.Ldebug_info0
 14309 000a 04       		.byte	0x4
 14310 000b 00       		.byte	0
 14311 000c 0000     		.2byte	0
 14312 000e 0000     		.2byte	0
 14313 0010 00000000 		.4byte	.LFB133
 14314 0014 BC010000 		.4byte	.LFE133-.LFB133
 14315 0018 00000000 		.4byte	.LFB119
 14316 001c 64000000 		.4byte	.LFE119-.LFB119
 14317 0020 00000000 		.4byte	.LFB135
 14318 0024 0E030000 		.4byte	.LFE135-.LFB135
 14319 0028 00000000 		.4byte	.LFB136
 14320 002c B4000000 		.4byte	.LFE136-.LFB136
 14321 0030 00000000 		.4byte	.LFB122
 14322 0034 60010000 		.4byte	.LFE122-.LFB122
 14323 0038 00000000 		.4byte	.LFB120
 14324 003c 0A010000 		.4byte	.LFE120-.LFB120
 14325 0040 00000000 		.4byte	.LFB137
 14326 0044 7C000000 		.4byte	.LFE137-.LFB137
 14327 0048 00000000 		.4byte	.LFB138
 14328 004c B0000000 		.4byte	.LFE138-.LFB138
 14329 0050 00000000 		.4byte	.LFB118
 14330 0054 D6020000 		.4byte	.LFE118-.LFB118
 14331 0058 00000000 		.4byte	.LFB121
 14332 005c E6000000 		.4byte	.LFE121-.LFB121
 14333 0060 00000000 		.4byte	.LFB139
 14334 0064 44010000 		.4byte	.LFE139-.LFB139
 14335 0068 00000000 		.4byte	.LFB123
 14336 006c BC010000 		.4byte	.LFE123-.LFB123
 14337 0070 00000000 		.4byte	.LFB140
 14338 0074 70010000 		.4byte	.LFE140-.LFB140
 14339 0078 00000000 		.4byte	0
 14340 007c 00000000 		.4byte	0
 14341              		.section	.debug_ranges,"",%progbits
 14342              	.Ldebug_ranges0:
 14343 0000 1C000000 		.4byte	.LBB518
 14344 0004 1E000000 		.4byte	.LBE518
 14345 0008 22000000 		.4byte	.LBB525
 14346 000c 26000000 		.4byte	.LBE525
ARM GAS  /tmp/ccLrOMZj.s 			page 253


 14347 0010 34000000 		.4byte	.LBB527
 14348 0014 36000000 		.4byte	.LBE527
 14349 0018 00000000 		.4byte	0
 14350 001c 00000000 		.4byte	0
 14351 0020 1E000000 		.4byte	.LBB522
 14352 0024 22000000 		.4byte	.LBE522
 14353 0028 2E000000 		.4byte	.LBB526
 14354 002c 32000000 		.4byte	.LBE526
 14355 0030 00000000 		.4byte	0
 14356 0034 00000000 		.4byte	0
 14357 0038 40000000 		.4byte	.LBB530
 14358 003c 42000000 		.4byte	.LBE530
 14359 0040 44000000 		.4byte	.LBB535
 14360 0044 46000000 		.4byte	.LBE535
 14361 0048 00000000 		.4byte	0
 14362 004c 00000000 		.4byte	0
 14363 0050 48000000 		.4byte	.LBB538
 14364 0054 60000000 		.4byte	.LBE538
 14365 0058 AA000000 		.4byte	.LBB617
 14366 005c C8000000 		.4byte	.LBE617
 14367 0060 0E010000 		.4byte	.LBB634
 14368 0064 2C010000 		.4byte	.LBE634
 14369 0068 60010000 		.4byte	.LBB653
 14370 006c BC010000 		.4byte	.LBE653
 14371 0070 00000000 		.4byte	0
 14372 0074 00000000 		.4byte	0
 14373 0078 48000000 		.4byte	.LBB540
 14374 007c 4A000000 		.4byte	.LBE540
 14375 0080 4E000000 		.4byte	.LBB547
 14376 0084 52000000 		.4byte	.LBE547
 14377 0088 58000000 		.4byte	.LBB549
 14378 008c 5A000000 		.4byte	.LBE549
 14379 0090 00000000 		.4byte	0
 14380 0094 00000000 		.4byte	0
 14381 0098 4A000000 		.4byte	.LBB544
 14382 009c 4E000000 		.4byte	.LBE544
 14383 00a0 54000000 		.4byte	.LBB548
 14384 00a4 58000000 		.4byte	.LBE548
 14385 00a8 00000000 		.4byte	0
 14386 00ac 00000000 		.4byte	0
 14387 00b0 AA000000 		.4byte	.LBB554
 14388 00b4 AE000000 		.4byte	.LBE554
 14389 00b8 BA000000 		.4byte	.LBB560
 14390 00bc BE000000 		.4byte	.LBE560
 14391 00c0 00000000 		.4byte	0
 14392 00c4 00000000 		.4byte	0
 14393 00c8 B2000000 		.4byte	.LBB557
 14394 00cc B8000000 		.4byte	.LBE557
 14395 00d0 C0000000 		.4byte	.LBB564
 14396 00d4 C2000000 		.4byte	.LBE564
 14397 00d8 00000000 		.4byte	0
 14398 00dc 00000000 		.4byte	0
 14399 00e0 BE000000 		.4byte	.LBB561
 14400 00e4 C0000000 		.4byte	.LBE561
 14401 00e8 C2000000 		.4byte	.LBB565
 14402 00ec C4000000 		.4byte	.LBE565
 14403 00f0 00000000 		.4byte	0
ARM GAS  /tmp/ccLrOMZj.s 			page 254


 14404 00f4 00000000 		.4byte	0
 14405 00f8 0E010000 		.4byte	.LBB570
 14406 00fc 12010000 		.4byte	.LBE570
 14407 0100 1E010000 		.4byte	.LBB576
 14408 0104 22010000 		.4byte	.LBE576
 14409 0108 00000000 		.4byte	0
 14410 010c 00000000 		.4byte	0
 14411 0110 16010000 		.4byte	.LBB573
 14412 0114 1C010000 		.4byte	.LBE573
 14413 0118 24010000 		.4byte	.LBB580
 14414 011c 26010000 		.4byte	.LBE580
 14415 0120 00000000 		.4byte	0
 14416 0124 00000000 		.4byte	0
 14417 0128 22010000 		.4byte	.LBB577
 14418 012c 24010000 		.4byte	.LBE577
 14419 0130 26010000 		.4byte	.LBB581
 14420 0134 28010000 		.4byte	.LBE581
 14421 0138 00000000 		.4byte	0
 14422 013c 00000000 		.4byte	0
 14423 0140 60010000 		.4byte	.LBB584
 14424 0144 62010000 		.4byte	.LBE584
 14425 0148 66010000 		.4byte	.LBB591
 14426 014c 6A010000 		.4byte	.LBE591
 14427 0150 70010000 		.4byte	.LBB593
 14428 0154 72010000 		.4byte	.LBE593
 14429 0158 00000000 		.4byte	0
 14430 015c 00000000 		.4byte	0
 14431 0160 62010000 		.4byte	.LBB588
 14432 0164 66010000 		.4byte	.LBE588
 14433 0168 6C010000 		.4byte	.LBB592
 14434 016c 70010000 		.4byte	.LBE592
 14435 0170 00000000 		.4byte	0
 14436 0174 00000000 		.4byte	0
 14437 0178 78000000 		.4byte	.LBB601
 14438 017c 7E000000 		.4byte	.LBE601
 14439 0180 98000000 		.4byte	.LBB608
 14440 0184 9A000000 		.4byte	.LBE608
 14441 0188 00000000 		.4byte	0
 14442 018c 00000000 		.4byte	0
 14443 0190 84000000 		.4byte	.LBB604
 14444 0194 88000000 		.4byte	.LBE604
 14445 0198 92000000 		.4byte	.LBB607
 14446 019c 96000000 		.4byte	.LBE607
 14447 01a0 00000000 		.4byte	0
 14448 01a4 00000000 		.4byte	0
 14449 01a8 DC000000 		.4byte	.LBB618
 14450 01ac E2000000 		.4byte	.LBE618
 14451 01b0 FC000000 		.4byte	.LBB625
 14452 01b4 FE000000 		.4byte	.LBE625
 14453 01b8 00000000 		.4byte	0
 14454 01bc 00000000 		.4byte	0
 14455 01c0 E8000000 		.4byte	.LBB621
 14456 01c4 EC000000 		.4byte	.LBE621
 14457 01c8 F6000000 		.4byte	.LBB624
 14458 01cc FA000000 		.4byte	.LBE624
 14459 01d0 00000000 		.4byte	0
 14460 01d4 00000000 		.4byte	0
ARM GAS  /tmp/ccLrOMZj.s 			page 255


 14461 01d8 34010000 		.4byte	.LBB635
 14462 01dc 3A010000 		.4byte	.LBE635
 14463 01e0 4C010000 		.4byte	.LBB642
 14464 01e4 4E010000 		.4byte	.LBE642
 14465 01e8 00000000 		.4byte	0
 14466 01ec 00000000 		.4byte	0
 14467 01f0 40010000 		.4byte	.LBB638
 14468 01f4 44010000 		.4byte	.LBE638
 14469 01f8 46010000 		.4byte	.LBB641
 14470 01fc 4A010000 		.4byte	.LBE641
 14471 0200 00000000 		.4byte	0
 14472 0204 00000000 		.4byte	0
 14473 0208 58010000 		.4byte	.LBB645
 14474 020c 5A010000 		.4byte	.LBE645
 14475 0210 5C010000 		.4byte	.LBB650
 14476 0214 5E010000 		.4byte	.LBE650
 14477 0218 00000000 		.4byte	0
 14478 021c 00000000 		.4byte	0
 14479 0220 04000000 		.4byte	.LBB824
 14480 0224 1A000000 		.4byte	.LBE824
 14481 0228 1C000000 		.4byte	.LBB829
 14482 022c 68000000 		.4byte	.LBE829
 14483 0230 6A000000 		.4byte	.LBB833
 14484 0234 6C000000 		.4byte	.LBE833
 14485 0238 76000000 		.4byte	.LBB844
 14486 023c 7A000000 		.4byte	.LBE844
 14487 0240 00000000 		.4byte	0
 14488 0244 00000000 		.4byte	0
 14489 0248 04000000 		.4byte	.LBB825
 14490 024c 1A000000 		.4byte	.LBE825
 14491 0250 1C000000 		.4byte	.LBB826
 14492 0254 68000000 		.4byte	.LBE826
 14493 0258 6A000000 		.4byte	.LBB827
 14494 025c 6C000000 		.4byte	.LBE827
 14495 0260 76000000 		.4byte	.LBB828
 14496 0264 7A000000 		.4byte	.LBE828
 14497 0268 00000000 		.4byte	0
 14498 026c 00000000 		.4byte	0
 14499 0270 68000000 		.4byte	.LBB830
 14500 0274 6A000000 		.4byte	.LBE830
 14501 0278 7C000000 		.4byte	.LBB845
 14502 027c 80000000 		.4byte	.LBE845
 14503 0280 00000000 		.4byte	0
 14504 0284 00000000 		.4byte	0
 14505 0288 6C000000 		.4byte	.LBB834
 14506 028c 6E000000 		.4byte	.LBE834
 14507 0290 72000000 		.4byte	.LBB843
 14508 0294 76000000 		.4byte	.LBE843
 14509 0298 86000000 		.4byte	.LBB847
 14510 029c 8A000000 		.4byte	.LBE847
 14511 02a0 98000000 		.4byte	.LBB851
 14512 02a4 9C000000 		.4byte	.LBE851
 14513 02a8 00000000 		.4byte	0
 14514 02ac 00000000 		.4byte	0
 14515 02b0 6E000000 		.4byte	.LBB839
 14516 02b4 72000000 		.4byte	.LBE839
 14517 02b8 80000000 		.4byte	.LBB846
ARM GAS  /tmp/ccLrOMZj.s 			page 256


 14518 02bc 82000000 		.4byte	.LBE846
 14519 02c0 94000000 		.4byte	.LBB850
 14520 02c4 96000000 		.4byte	.LBE850
 14521 02c8 00000000 		.4byte	0
 14522 02cc 00000000 		.4byte	0
 14523 02d0 A0000000 		.4byte	.LBB852
 14524 02d4 A4000000 		.4byte	.LBE852
 14525 02d8 A8000000 		.4byte	.LBB858
 14526 02dc AC000000 		.4byte	.LBE858
 14527 02e0 00000000 		.4byte	0
 14528 02e4 00000000 		.4byte	0
 14529 02e8 A4000000 		.4byte	.LBB855
 14530 02ec A8000000 		.4byte	.LBE855
 14531 02f0 AE000000 		.4byte	.LBB859
 14532 02f4 B0000000 		.4byte	.LBE859
 14533 02f8 00000000 		.4byte	0
 14534 02fc 00000000 		.4byte	0
 14535 0300 C0000000 		.4byte	.LBB864
 14536 0304 C4000000 		.4byte	.LBE864
 14537 0308 CA000000 		.4byte	.LBB869
 14538 030c CC000000 		.4byte	.LBE869
 14539 0310 00000000 		.4byte	0
 14540 0314 00000000 		.4byte	0
 14541 0318 D0000000 		.4byte	.LBB870
 14542 031c D2000000 		.4byte	.LBE870
 14543 0320 D6000000 		.4byte	.LBB876
 14544 0324 D8000000 		.4byte	.LBE876
 14545 0328 00000000 		.4byte	0
 14546 032c 00000000 		.4byte	0
 14547 0330 D2000000 		.4byte	.LBB873
 14548 0334 D6000000 		.4byte	.LBE873
 14549 0338 DA000000 		.4byte	.LBB877
 14550 033c DC000000 		.4byte	.LBE877
 14551 0340 00000000 		.4byte	0
 14552 0344 00000000 		.4byte	0
 14553 0348 E0000000 		.4byte	.LBB878
 14554 034c E2000000 		.4byte	.LBE878
 14555 0350 EA000000 		.4byte	.LBB886
 14556 0354 EC000000 		.4byte	.LBE886
 14557 0358 00000000 		.4byte	0
 14558 035c 00000000 		.4byte	0
 14559 0360 E6000000 		.4byte	.LBB883
 14560 0364 EA000000 		.4byte	.LBE883
 14561 0368 F8000000 		.4byte	.LBB889
 14562 036c FA000000 		.4byte	.LBE889
 14563 0370 00000000 		.4byte	0
 14564 0374 00000000 		.4byte	0
 14565 0378 FE000000 		.4byte	.LBB890
 14566 037c 02010000 		.4byte	.LBE890
 14567 0380 08010000 		.4byte	.LBB895
 14568 0384 0A010000 		.4byte	.LBE895
 14569 0388 00000000 		.4byte	0
 14570 038c 00000000 		.4byte	0
 14571 0390 16010000 		.4byte	.LBB900
 14572 0394 18010000 		.4byte	.LBE900
 14573 0398 2C010000 		.4byte	.LBB911
 14574 039c 2E010000 		.4byte	.LBE911
ARM GAS  /tmp/ccLrOMZj.s 			page 257


 14575 03a0 00000000 		.4byte	0
 14576 03a4 00000000 		.4byte	0
 14577 03a8 1C010000 		.4byte	.LBB903
 14578 03ac 1E010000 		.4byte	.LBE903
 14579 03b0 22010000 		.4byte	.LBB909
 14580 03b4 24010000 		.4byte	.LBE909
 14581 03b8 00000000 		.4byte	0
 14582 03bc 00000000 		.4byte	0
 14583 03c0 1E010000 		.4byte	.LBB906
 14584 03c4 22010000 		.4byte	.LBE906
 14585 03c8 26010000 		.4byte	.LBB910
 14586 03cc 28010000 		.4byte	.LBE910
 14587 03d0 00000000 		.4byte	0
 14588 03d4 00000000 		.4byte	0
 14589 03d8 42010000 		.4byte	.LBB918
 14590 03dc 46010000 		.4byte	.LBE918
 14591 03e0 4A010000 		.4byte	.LBB923
 14592 03e4 4C010000 		.4byte	.LBE923
 14593 03e8 00000000 		.4byte	0
 14594 03ec 00000000 		.4byte	0
 14595 03f0 60010000 		.4byte	.LBB928
 14596 03f4 62010000 		.4byte	.LBE928
 14597 03f8 66010000 		.4byte	.LBB934
 14598 03fc 68010000 		.4byte	.LBE934
 14599 0400 00000000 		.4byte	0
 14600 0404 00000000 		.4byte	0
 14601 0408 62010000 		.4byte	.LBB931
 14602 040c 66010000 		.4byte	.LBE931
 14603 0410 6A010000 		.4byte	.LBB935
 14604 0414 6C010000 		.4byte	.LBE935
 14605 0418 00000000 		.4byte	0
 14606 041c 00000000 		.4byte	0
 14607 0420 AC010000 		.4byte	.LBB956
 14608 0424 B0010000 		.4byte	.LBE956
 14609 0428 B6010000 		.4byte	.LBB961
 14610 042c BA010000 		.4byte	.LBE961
 14611 0430 00000000 		.4byte	0
 14612 0434 00000000 		.4byte	0
 14613 0438 D6010000 		.4byte	.LBB970
 14614 043c DA010000 		.4byte	.LBE970
 14615 0440 DE010000 		.4byte	.LBB975
 14616 0444 E0010000 		.4byte	.LBE975
 14617 0448 00000000 		.4byte	0
 14618 044c 00000000 		.4byte	0
 14619 0450 00020000 		.4byte	.LBB984
 14620 0454 04020000 		.4byte	.LBE984
 14621 0458 08020000 		.4byte	.LBB989
 14622 045c 0A020000 		.4byte	.LBE989
 14623 0460 00000000 		.4byte	0
 14624 0464 00000000 		.4byte	0
 14625 0468 10020000 		.4byte	.LBB990
 14626 046c 14020000 		.4byte	.LBE990
 14627 0470 1A020000 		.4byte	.LBB995
 14628 0474 1E020000 		.4byte	.LBE995
 14629 0478 00000000 		.4byte	0
 14630 047c 00000000 		.4byte	0
 14631 0480 2C020000 		.4byte	.LBB1000
ARM GAS  /tmp/ccLrOMZj.s 			page 258


 14632 0484 30020000 		.4byte	.LBE1000
 14633 0488 3C020000 		.4byte	.LBB1005
 14634 048c 40020000 		.4byte	.LBE1005
 14635 0490 00000000 		.4byte	0
 14636 0494 00000000 		.4byte	0
 14637 0498 44020000 		.4byte	.LBB1006
 14638 049c 46020000 		.4byte	.LBE1006
 14639 04a0 4A020000 		.4byte	.LBB1012
 14640 04a4 4C020000 		.4byte	.LBE1012
 14641 04a8 00000000 		.4byte	0
 14642 04ac 00000000 		.4byte	0
 14643 04b0 46020000 		.4byte	.LBB1009
 14644 04b4 4A020000 		.4byte	.LBE1009
 14645 04b8 4E020000 		.4byte	.LBB1013
 14646 04bc 50020000 		.4byte	.LBE1013
 14647 04c0 00000000 		.4byte	0
 14648 04c4 00000000 		.4byte	0
 14649 04c8 7E020000 		.4byte	.LBB1026
 14650 04cc 82020000 		.4byte	.LBE1026
 14651 04d0 88020000 		.4byte	.LBB1031
 14652 04d4 8C020000 		.4byte	.LBE1031
 14653 04d8 00000000 		.4byte	0
 14654 04dc 00000000 		.4byte	0
 14655 04e0 B6020000 		.4byte	.LBB1044
 14656 04e4 B8020000 		.4byte	.LBE1044
 14657 04e8 BC020000 		.4byte	.LBB1050
 14658 04ec BE020000 		.4byte	.LBE1050
 14659 04f0 00000000 		.4byte	0
 14660 04f4 00000000 		.4byte	0
 14661 04f8 B8020000 		.4byte	.LBB1047
 14662 04fc BC020000 		.4byte	.LBE1047
 14663 0500 C0020000 		.4byte	.LBB1051
 14664 0504 C2020000 		.4byte	.LBE1051
 14665 0508 00000000 		.4byte	0
 14666 050c 00000000 		.4byte	0
 14667 0510 1C000000 		.4byte	.LBB1126
 14668 0514 24000000 		.4byte	.LBE1126
 14669 0518 28000000 		.4byte	.LBB1181
 14670 051c B4000000 		.4byte	.LBE1181
 14671 0520 00000000 		.4byte	0
 14672 0524 00000000 		.4byte	0
 14673 0528 28000000 		.4byte	.LBB1128
 14674 052c 5C000000 		.4byte	.LBE1128
 14675 0530 6E000000 		.4byte	.LBB1179
 14676 0534 B4000000 		.4byte	.LBE1179
 14677 0538 00000000 		.4byte	0
 14678 053c 00000000 		.4byte	0
 14679 0540 3A000000 		.4byte	.LBB1130
 14680 0544 3C000000 		.4byte	.LBE1130
 14681 0548 42000000 		.4byte	.LBB1135
 14682 054c 46000000 		.4byte	.LBE1135
 14683 0550 00000000 		.4byte	0
 14684 0554 00000000 		.4byte	0
 14685 0558 50000000 		.4byte	.LBB1136
 14686 055c 54000000 		.4byte	.LBE1136
 14687 0560 A4000000 		.4byte	.LBB1170
 14688 0564 A8000000 		.4byte	.LBE1170
ARM GAS  /tmp/ccLrOMZj.s 			page 259


 14689 0568 00000000 		.4byte	0
 14690 056c 00000000 		.4byte	0
 14691 0570 54000000 		.4byte	.LBB1139
 14692 0574 56000000 		.4byte	.LBE1139
 14693 0578 A2000000 		.4byte	.LBB1169
 14694 057c A4000000 		.4byte	.LBE1169
 14695 0580 A8000000 		.4byte	.LBB1171
 14696 0584 B4000000 		.4byte	.LBE1171
 14697 0588 00000000 		.4byte	0
 14698 058c 00000000 		.4byte	0
 14699 0590 6E000000 		.4byte	.LBB1147
 14700 0594 70000000 		.4byte	.LBE1147
 14701 0598 74000000 		.4byte	.LBB1152
 14702 059c 78000000 		.4byte	.LBE1152
 14703 05a0 00000000 		.4byte	0
 14704 05a4 00000000 		.4byte	0
 14705 05a8 7E000000 		.4byte	.LBB1155
 14706 05ac 82000000 		.4byte	.LBE1155
 14707 05b0 94000000 		.4byte	.LBB1167
 14708 05b4 98000000 		.4byte	.LBE1167
 14709 05b8 00000000 		.4byte	0
 14710 05bc 00000000 		.4byte	0
 14711 05c0 82000000 		.4byte	.LBB1158
 14712 05c4 84000000 		.4byte	.LBE1158
 14713 05c8 90000000 		.4byte	.LBB1166
 14714 05cc 92000000 		.4byte	.LBE1166
 14715 05d0 98000000 		.4byte	.LBB1168
 14716 05d4 9C000000 		.4byte	.LBE1168
 14717 05d8 00000000 		.4byte	0
 14718 05dc 00000000 		.4byte	0
 14719 05e0 5C000000 		.4byte	.LBB1173
 14720 05e4 62000000 		.4byte	.LBE1173
 14721 05e8 6A000000 		.4byte	.LBB1178
 14722 05ec 6E000000 		.4byte	.LBE1178
 14723 05f0 00000000 		.4byte	0
 14724 05f4 00000000 		.4byte	0
 14725 05f8 02000000 		.4byte	.LBB1248
 14726 05fc 04000000 		.4byte	.LBE1248
 14727 0600 06000000 		.4byte	.LBB1251
 14728 0604 16000000 		.4byte	.LBE1251
 14729 0608 00000000 		.4byte	0
 14730 060c 00000000 		.4byte	0
 14731 0610 16000000 		.4byte	.LBB1252
 14732 0614 3C000000 		.4byte	.LBE1252
 14733 0618 58000000 		.4byte	.LBB1298
 14734 061c 7C000000 		.4byte	.LBE1298
 14735 0620 00000000 		.4byte	0
 14736 0624 00000000 		.4byte	0
 14737 0628 24000000 		.4byte	.LBB1254
 14738 062c 28000000 		.4byte	.LBE1254
 14739 0630 2E000000 		.4byte	.LBB1261
 14740 0634 32000000 		.4byte	.LBE1261
 14741 0638 00000000 		.4byte	0
 14742 063c 00000000 		.4byte	0
 14743 0640 28000000 		.4byte	.LBB1257
 14744 0644 2E000000 		.4byte	.LBE1257
 14745 0648 32000000 		.4byte	.LBB1262
ARM GAS  /tmp/ccLrOMZj.s 			page 260


 14746 064c 34000000 		.4byte	.LBE1262
 14747 0650 36000000 		.4byte	.LBB1266
 14748 0654 38000000 		.4byte	.LBE1266
 14749 0658 00000000 		.4byte	0
 14750 065c 00000000 		.4byte	0
 14751 0660 34000000 		.4byte	.LBB1263
 14752 0664 36000000 		.4byte	.LBE1263
 14753 0668 38000000 		.4byte	.LBB1267
 14754 066c 3A000000 		.4byte	.LBE1267
 14755 0670 00000000 		.4byte	0
 14756 0674 00000000 		.4byte	0
 14757 0678 58000000 		.4byte	.LBB1271
 14758 067c 5C000000 		.4byte	.LBE1271
 14759 0680 62000000 		.4byte	.LBB1278
 14760 0684 66000000 		.4byte	.LBE1278
 14761 0688 00000000 		.4byte	0
 14762 068c 00000000 		.4byte	0
 14763 0690 5C000000 		.4byte	.LBB1274
 14764 0694 62000000 		.4byte	.LBE1274
 14765 0698 66000000 		.4byte	.LBB1279
 14766 069c 68000000 		.4byte	.LBE1279
 14767 06a0 6A000000 		.4byte	.LBB1283
 14768 06a4 6C000000 		.4byte	.LBE1283
 14769 06a8 00000000 		.4byte	0
 14770 06ac 00000000 		.4byte	0
 14771 06b0 68000000 		.4byte	.LBB1280
 14772 06b4 6A000000 		.4byte	.LBE1280
 14773 06b8 6C000000 		.4byte	.LBB1284
 14774 06bc 6E000000 		.4byte	.LBE1284
 14775 06c0 00000000 		.4byte	0
 14776 06c4 00000000 		.4byte	0
 14777 06c8 3C000000 		.4byte	.LBB1288
 14778 06cc 40000000 		.4byte	.LBE1288
 14779 06d0 42000000 		.4byte	.LBB1295
 14780 06d4 4A000000 		.4byte	.LBE1295
 14781 06d8 00000000 		.4byte	0
 14782 06dc 00000000 		.4byte	0
 14783 06e0 40000000 		.4byte	.LBB1291
 14784 06e4 42000000 		.4byte	.LBE1291
 14785 06e8 4A000000 		.4byte	.LBB1296
 14786 06ec 4E000000 		.4byte	.LBE1296
 14787 06f0 50000000 		.4byte	.LBB1297
 14788 06f4 54000000 		.4byte	.LBE1297
 14789 06f8 00000000 		.4byte	0
 14790 06fc 00000000 		.4byte	0
 14791 0700 6E000000 		.4byte	.LBB1299
 14792 0704 74000000 		.4byte	.LBE1299
 14793 0708 78000000 		.4byte	.LBB1302
 14794 070c 7A000000 		.4byte	.LBE1302
 14795 0710 00000000 		.4byte	0
 14796 0714 00000000 		.4byte	0
 14797 0718 7C000000 		.4byte	.LBB1303
 14798 071c 82000000 		.4byte	.LBE1303
 14799 0720 88000000 		.4byte	.LBB1308
 14800 0724 8E000000 		.4byte	.LBE1308
 14801 0728 96000000 		.4byte	.LBB1309
 14802 072c 98000000 		.4byte	.LBE1309
ARM GAS  /tmp/ccLrOMZj.s 			page 261


 14803 0730 9E000000 		.4byte	.LBB1310
 14804 0734 A2000000 		.4byte	.LBE1310
 14805 0738 00000000 		.4byte	0
 14806 073c 00000000 		.4byte	0
 14807 0740 BA000000 		.4byte	.LBB1311
 14808 0744 BE000000 		.4byte	.LBE1311
 14809 0748 C0000000 		.4byte	.LBB1315
 14810 074c C2000000 		.4byte	.LBE1315
 14811 0750 C4000000 		.4byte	.LBB1316
 14812 0754 C6000000 		.4byte	.LBE1316
 14813 0758 00000000 		.4byte	0
 14814 075c 00000000 		.4byte	0
 14815 0760 DA000000 		.4byte	.LBB1317
 14816 0764 E0000000 		.4byte	.LBE1317
 14817 0768 E6000000 		.4byte	.LBB1324
 14818 076c EA000000 		.4byte	.LBE1324
 14819 0770 FE000000 		.4byte	.LBB1325
 14820 0774 06010000 		.4byte	.LBE1325
 14821 0778 14010000 		.4byte	.LBB1326
 14822 077c 16010000 		.4byte	.LBE1326
 14823 0780 20010000 		.4byte	.LBB1327
 14824 0784 24010000 		.4byte	.LBE1327
 14825 0788 28010000 		.4byte	.LBB1328
 14826 078c 2A010000 		.4byte	.LBE1328
 14827 0790 00000000 		.4byte	0
 14828 0794 00000000 		.4byte	0
 14829 0798 40000000 		.4byte	.LBB1329
 14830 079c 66000000 		.4byte	.LBE1329
 14831 07a0 7C000000 		.4byte	.LBB1330
 14832 07a4 3E010000 		.4byte	.LBE1330
 14833 07a8 44010000 		.4byte	.LBB1331
 14834 07ac BC010000 		.4byte	.LBE1331
 14835 07b0 00000000 		.4byte	0
 14836 07b4 00000000 		.4byte	0
 14837 07b8 30000000 		.4byte	.LBB1332
 14838 07bc 32000000 		.4byte	.LBE1332
 14839 07c0 36000000 		.4byte	.LBB1340
 14840 07c4 3A000000 		.4byte	.LBE1340
 14841 07c8 40000000 		.4byte	.LBB1346
 14842 07cc 42000000 		.4byte	.LBE1346
 14843 07d0 00000000 		.4byte	0
 14844 07d4 00000000 		.4byte	0
 14845 07d8 32000000 		.4byte	.LBB1336
 14846 07dc 36000000 		.4byte	.LBE1336
 14847 07e0 3A000000 		.4byte	.LBB1341
 14848 07e4 3C000000 		.4byte	.LBE1341
 14849 07e8 3E000000 		.4byte	.LBB1345
 14850 07ec 40000000 		.4byte	.LBE1345
 14851 07f0 00000000 		.4byte	0
 14852 07f4 00000000 		.4byte	0
 14853 07f8 3C000000 		.4byte	.LBB1342
 14854 07fc 3E000000 		.4byte	.LBE1342
 14855 0800 42000000 		.4byte	.LBB1347
 14856 0804 44000000 		.4byte	.LBE1347
 14857 0808 00000000 		.4byte	0
 14858 080c 00000000 		.4byte	0
 14859 0810 6A000000 		.4byte	.LBB1358
ARM GAS  /tmp/ccLrOMZj.s 			page 262


 14860 0814 70000000 		.4byte	.LBE1358
 14861 0818 78000000 		.4byte	.LBB1363
 14862 081c 7C000000 		.4byte	.LBE1363
 14863 0820 00000000 		.4byte	0
 14864 0824 00000000 		.4byte	0
 14865 0828 7C000000 		.4byte	.LBB1364
 14866 082c 7E000000 		.4byte	.LBE1364
 14867 0830 84000000 		.4byte	.LBB1372
 14868 0834 88000000 		.4byte	.LBE1372
 14869 0838 8A000000 		.4byte	.LBB1374
 14870 083c 8C000000 		.4byte	.LBE1374
 14871 0840 8E000000 		.4byte	.LBB1375
 14872 0844 90000000 		.4byte	.LBE1375
 14873 0848 00000000 		.4byte	0
 14874 084c 00000000 		.4byte	0
 14875 0850 7E000000 		.4byte	.LBB1369
 14876 0854 84000000 		.4byte	.LBE1369
 14877 0858 88000000 		.4byte	.LBB1373
 14878 085c 8A000000 		.4byte	.LBE1373
 14879 0860 00000000 		.4byte	0
 14880 0864 00000000 		.4byte	0
 14881 0868 98000000 		.4byte	.LBB1376
 14882 086c 9C000000 		.4byte	.LBE1376
 14883 0870 A2000000 		.4byte	.LBB1382
 14884 0874 A6000000 		.4byte	.LBE1382
 14885 0878 00000000 		.4byte	0
 14886 087c 00000000 		.4byte	0
 14887 0880 9C000000 		.4byte	.LBB1379
 14888 0884 A2000000 		.4byte	.LBE1379
 14889 0888 AA000000 		.4byte	.LBB1386
 14890 088c B0000000 		.4byte	.LBE1386
 14891 0890 00000000 		.4byte	0
 14892 0894 00000000 		.4byte	0
 14893 0898 A6000000 		.4byte	.LBB1383
 14894 089c AA000000 		.4byte	.LBE1383
 14895 08a0 B2000000 		.4byte	.LBB1387
 14896 08a4 B6000000 		.4byte	.LBE1387
 14897 08a8 00000000 		.4byte	0
 14898 08ac 00000000 		.4byte	0
 14899 08b0 D6000000 		.4byte	.LBB1390
 14900 08b4 D8000000 		.4byte	.LBE1390
 14901 08b8 DC000000 		.4byte	.LBB1399
 14902 08bc E0000000 		.4byte	.LBE1399
 14903 08c0 E2000000 		.4byte	.LBB1401
 14904 08c4 E6000000 		.4byte	.LBE1401
 14905 08c8 F0000000 		.4byte	.LBB1406
 14906 08cc F2000000 		.4byte	.LBE1406
 14907 08d0 00000000 		.4byte	0
 14908 08d4 00000000 		.4byte	0
 14909 08d8 D8000000 		.4byte	.LBB1395
 14910 08dc DC000000 		.4byte	.LBE1395
 14911 08e0 E0000000 		.4byte	.LBB1400
 14912 08e4 E2000000 		.4byte	.LBE1400
 14913 08e8 EA000000 		.4byte	.LBB1405
 14914 08ec EC000000 		.4byte	.LBE1405
 14915 08f0 00000000 		.4byte	0
 14916 08f4 00000000 		.4byte	0
ARM GAS  /tmp/ccLrOMZj.s 			page 263


 14917 08f8 E6000000 		.4byte	.LBB1402
 14918 08fc EA000000 		.4byte	.LBE1402
 14919 0900 F4000000 		.4byte	.LBB1407
 14920 0904 F8000000 		.4byte	.LBE1407
 14921 0908 00000000 		.4byte	0
 14922 090c 00000000 		.4byte	0
 14923 0910 08010000 		.4byte	.LBB1410
 14924 0914 0A010000 		.4byte	.LBE1410
 14925 0918 0E010000 		.4byte	.LBB1419
 14926 091c 12010000 		.4byte	.LBE1419
 14927 0920 14010000 		.4byte	.LBB1421
 14928 0924 18010000 		.4byte	.LBE1421
 14929 0928 20010000 		.4byte	.LBB1426
 14930 092c 22010000 		.4byte	.LBE1426
 14931 0930 00000000 		.4byte	0
 14932 0934 00000000 		.4byte	0
 14933 0938 0A010000 		.4byte	.LBB1415
 14934 093c 0E010000 		.4byte	.LBE1415
 14935 0940 12010000 		.4byte	.LBB1420
 14936 0944 14010000 		.4byte	.LBE1420
 14937 0948 1C010000 		.4byte	.LBB1425
 14938 094c 1E010000 		.4byte	.LBE1425
 14939 0950 00000000 		.4byte	0
 14940 0954 00000000 		.4byte	0
 14941 0958 18010000 		.4byte	.LBB1422
 14942 095c 1C010000 		.4byte	.LBE1422
 14943 0960 26010000 		.4byte	.LBB1427
 14944 0964 2A010000 		.4byte	.LBE1427
 14945 0968 00000000 		.4byte	0
 14946 096c 00000000 		.4byte	0
 14947 0970 3A010000 		.4byte	.LBB1430
 14948 0974 3C010000 		.4byte	.LBE1430
 14949 0978 40010000 		.4byte	.LBB1439
 14950 097c 44010000 		.4byte	.LBE1439
 14951 0980 46010000 		.4byte	.LBB1441
 14952 0984 4A010000 		.4byte	.LBE1441
 14953 0988 54010000 		.4byte	.LBB1446
 14954 098c 56010000 		.4byte	.LBE1446
 14955 0990 00000000 		.4byte	0
 14956 0994 00000000 		.4byte	0
 14957 0998 3C010000 		.4byte	.LBB1435
 14958 099c 40010000 		.4byte	.LBE1435
 14959 09a0 44010000 		.4byte	.LBB1440
 14960 09a4 46010000 		.4byte	.LBE1440
 14961 09a8 4E010000 		.4byte	.LBB1445
 14962 09ac 50010000 		.4byte	.LBE1445
 14963 09b0 00000000 		.4byte	0
 14964 09b4 00000000 		.4byte	0
 14965 09b8 4A010000 		.4byte	.LBB1442
 14966 09bc 4E010000 		.4byte	.LBE1442
 14967 09c0 58010000 		.4byte	.LBB1447
 14968 09c4 5C010000 		.4byte	.LBE1447
 14969 09c8 00000000 		.4byte	0
 14970 09cc 00000000 		.4byte	0
 14971 09d0 00000000 		.4byte	.LFB133
 14972 09d4 BC010000 		.4byte	.LFE133
 14973 09d8 00000000 		.4byte	.LFB119
ARM GAS  /tmp/ccLrOMZj.s 			page 264


 14974 09dc 64000000 		.4byte	.LFE119
 14975 09e0 00000000 		.4byte	.LFB135
 14976 09e4 0E030000 		.4byte	.LFE135
 14977 09e8 00000000 		.4byte	.LFB136
 14978 09ec B4000000 		.4byte	.LFE136
 14979 09f0 00000000 		.4byte	.LFB122
 14980 09f4 60010000 		.4byte	.LFE122
 14981 09f8 00000000 		.4byte	.LFB120
 14982 09fc 0A010000 		.4byte	.LFE120
 14983 0a00 00000000 		.4byte	.LFB137
 14984 0a04 7C000000 		.4byte	.LFE137
 14985 0a08 00000000 		.4byte	.LFB138
 14986 0a0c B0000000 		.4byte	.LFE138
 14987 0a10 00000000 		.4byte	.LFB118
 14988 0a14 D6020000 		.4byte	.LFE118
 14989 0a18 00000000 		.4byte	.LFB121
 14990 0a1c E6000000 		.4byte	.LFE121
 14991 0a20 00000000 		.4byte	.LFB139
 14992 0a24 44010000 		.4byte	.LFE139
 14993 0a28 00000000 		.4byte	.LFB123
 14994 0a2c BC010000 		.4byte	.LFE123
 14995 0a30 00000000 		.4byte	.LFB140
 14996 0a34 70010000 		.4byte	.LFE140
 14997 0a38 00000000 		.4byte	0
 14998 0a3c 00000000 		.4byte	0
 14999              		.section	.debug_line,"",%progbits
 15000              	.Ldebug_line0:
 15001 0000 910E0000 		.section	.debug_str,"MS",%progbits,1
 15001      02001E02 
 15001      00000201 
 15001      FB0E0D00 
 15001      01010101 
 15002              	.LASF85:
 15003 0000 47444953 		.ascii	"GDISP_ROTATE_90\000"
 15003      505F524F 
 15003      54415445 
 15003      5F393000 
 15004              	.LASF97:
 15005 0010 47444953 		.ascii	"GDISPDriver_t\000"
 15005      50447269 
 15005      7665725F 
 15005      7400
 15006              	.LASF54:
 15007 001e 50555044 		.ascii	"PUPDR\000"
 15007      5200
 15008              	.LASF56:
 15009 0024 4C434B52 		.ascii	"LCKR\000"
 15009      00
 15010              	.LASF72:
 15011 0029 63686172 		.ascii	"charPadding\000"
 15011      50616464 
 15011      696E6700 
 15012              	.LASF99:
 15013 0035 48656967 		.ascii	"Height\000"
 15013      687400
 15014              	.LASF121:
 15015 003c 61637175 		.ascii	"acquire_bus\000"
ARM GAS  /tmp/ccLrOMZj.s 			page 265


 15015      6972655F 
 15015      62757300 
 15016              	.LASF52:
 15017 0048 4F545950 		.ascii	"OTYPER\000"
 15017      455200
 15018              	.LASF149:
 15019 004f 67646973 		.ascii	"gdisp_lld_fill_char\000"
 15019      705F6C6C 
 15019      645F6669 
 15019      6C6C5F63 
 15019      68617200 
 15020              	.LASF9:
 15021 0063 6C6F6E67 		.ascii	"long int\000"
 15021      20696E74 
 15021      00
 15022              	.LASF75:
 15023 006c 6D696E57 		.ascii	"minWidth\000"
 15023      69647468 
 15023      00
 15024              	.LASF51:
 15025 0075 4D4F4445 		.ascii	"MODER\000"
 15025      5200
 15026              	.LASF76:
 15027 007b 6D617857 		.ascii	"maxWidth\000"
 15027      69647468 
 15027      00
 15028              	.LASF13:
 15029 0084 6C6F6E67 		.ascii	"long long unsigned int\000"
 15029      206C6F6E 
 15029      6720756E 
 15029      7369676E 
 15029      65642069 
 15030              	.LASF74:
 15031 009b 64657363 		.ascii	"descenderHeight\000"
 15031      656E6465 
 15031      72486569 
 15031      67687400 
 15032              	.LASF140:
 15033 00ab 64696666 		.ascii	"diff\000"
 15033      00
 15034              	.LASF138:
 15035 00b0 61646478 		.ascii	"addx\000"
 15035      00
 15036              	.LASF139:
 15037 00b5 61646479 		.ascii	"addy\000"
 15037      00
 15038              	.LASF154:
 15039 00ba 49544D5F 		.ascii	"ITM_RxBuffer\000"
 15039      52784275 
 15039      66666572 
 15039      00
 15040              	.LASF116:
 15041 00c7 77726974 		.ascii	"write_data\000"
 15041      655F6461 
 15041      746100
 15042              	.LASF38:
 15043 00d2 41484231 		.ascii	"AHB1LPENR\000"
ARM GAS  /tmp/ccLrOMZj.s 			page 266


 15043      4C50454E 
 15043      5200
 15044              	.LASF4:
 15045 00dc 696E7431 		.ascii	"int16_t\000"
 15045      365F7400 
 15046              	.LASF12:
 15047 00e4 6C6F6E67 		.ascii	"long long int\000"
 15047      206C6F6E 
 15047      6720696E 
 15047      7400
 15048              	.LASF1:
 15049 00f2 7369676E 		.ascii	"signed char\000"
 15049      65642063 
 15049      68617200 
 15050              	.LASF55:
 15051 00fe 42535252 		.ascii	"BSRR\000"
 15051      00
 15052              	.LASF24:
 15053 0103 41484231 		.ascii	"AHB1RSTR\000"
 15053      52535452 
 15053      00
 15054              	.LASF78:
 15055 010c 6D617843 		.ascii	"maxChar\000"
 15055      68617200 
 15056              	.LASF15:
 15057 0114 626F6F6C 		.ascii	"bool_t\000"
 15057      5F7400
 15058              	.LASF100:
 15059 011b 4F726965 		.ascii	"Orientation\000"
 15059      6E746174 
 15059      696F6E00 
 15060              	.LASF120:
 15061 0127 73746174 		.ascii	"state\000"
 15061      6500
 15062              	.LASF164:
 15063 012d 67646973 		.ascii	"gdisp_lld_init\000"
 15063      705F6C6C 
 15063      645F696E 
 15063      697400
 15064              	.LASF29:
 15065 013c 41504232 		.ascii	"APB2RSTR\000"
 15065      52535452 
 15065      00
 15066              	.LASF141:
 15067 0145 67646973 		.ascii	"gdisp_lld_fill_circle\000"
 15067      705F6C6C 
 15067      645F6669 
 15067      6C6C5F63 
 15067      6972636C 
 15068              	.LASF161:
 15069 015b 2E2E2F2E 		.ascii	"../../ext/ugfx/drivers/gdisp/SSD1289/gdisp_lld.c\000"
 15069      2E2F6578 
 15069      742F7567 
 15069      66782F64 
 15069      72697665 
 15070              	.LASF163:
 15071 018c 7365745F 		.ascii	"set_viewport\000"
ARM GAS  /tmp/ccLrOMZj.s 			page 267


 15071      76696577 
 15071      706F7274 
 15071      00
 15072              	.LASF22:
 15073 0199 504C4C43 		.ascii	"PLLCFGR\000"
 15073      46475200 
 15074              	.LASF81:
 15075 01a1 77696474 		.ascii	"widthTable\000"
 15075      68546162 
 15075      6C6500
 15076              	.LASF124:
 15077 01ac 696E6974 		.ascii	"init_board\000"
 15077      5F626F61 
 15077      726400
 15078              	.LASF127:
 15079 01b7 67646973 		.ascii	"gdisp_lld_set_clip\000"
 15079      705F6C6C 
 15079      645F7365 
 15079      745F636C 
 15079      697000
 15080              	.LASF53:
 15081 01ca 4F535045 		.ascii	"OSPEEDR\000"
 15081      45445200 
 15082              	.LASF64:
 15083 01d2 6D61736B 		.ascii	"mask\000"
 15083      00
 15084              	.LASF119:
 15085 01d7 73657470 		.ascii	"setpin_reset\000"
 15085      696E5F72 
 15085      65736574 
 15085      00
 15086              	.LASF128:
 15087 01e4 67646973 		.ascii	"gdisp_lld_draw_char\000"
 15087      705F6C6C 
 15087      645F6472 
 15087      61775F63 
 15087      68617200 
 15088              	.LASF118:
 15089 01f8 7365745F 		.ascii	"set_cursor\000"
 15089      63757273 
 15089      6F7200
 15090              	.LASF153:
 15091 0203 76616C75 		.ascii	"value\000"
 15091      6500
 15092              	.LASF66:
 15093 0209 494F4275 		.ascii	"IOBus\000"
 15093      7300
 15094              	.LASF108:
 15095 020f 47444953 		.ascii	"GDISPDriver\000"
 15095      50447269 
 15095      76657200 
 15096              	.LASF0:
 15097 021b 756E7369 		.ascii	"unsigned int\000"
 15097      676E6564 
 15097      20696E74 
 15097      00
 15098              	.LASF91:
ARM GAS  /tmp/ccLrOMZj.s 			page 268


 15099 0228 706F7765 		.ascii	"powerOff\000"
 15099      724F6666 
 15099      00
 15100              	.LASF136:
 15101 0231 67646973 		.ascii	"gdisp_lld_fill_area\000"
 15101      705F6C6C 
 15101      645F6669 
 15101      6C6C5F61 
 15101      72656100 
 15102              	.LASF6:
 15103 0245 75696E74 		.ascii	"uint16_t\000"
 15103      31365F74 
 15103      00
 15104              	.LASF103:
 15105 024e 436F6E74 		.ascii	"Contrast\000"
 15105      72617374 
 15105      00
 15106              	.LASF73:
 15107 0257 6C696E65 		.ascii	"lineSpacing\000"
 15107      53706163 
 15107      696E6700 
 15108              	.LASF11:
 15109 0263 6C6F6E67 		.ascii	"long unsigned int\000"
 15109      20756E73 
 15109      69676E65 
 15109      6420696E 
 15109      7400
 15110              	.LASF59:
 15111 0275 4750494F 		.ascii	"GPIO_TypeDef\000"
 15111      5F547970 
 15111      65446566 
 15111      00
 15112              	.LASF33:
 15113 0282 41484233 		.ascii	"AHB3ENR\000"
 15113      454E5200 
 15114              	.LASF49:
 15115 028a 5243435F 		.ascii	"RCC_TypeDef\000"
 15115      54797065 
 15115      44656600 
 15116              	.LASF94:
 15117 0296 706F7765 		.ascii	"powerOn\000"
 15117      724F6E00 
 15118              	.LASF131:
 15119 029e 67646973 		.ascii	"gdisp_lld_draw_circle\000"
 15119      705F6C6C 
 15119      645F6472 
 15119      61775F63 
 15119      6972636C 
 15120              	.LASF130:
 15121 02b4 77696474 		.ascii	"width\000"
 15121      6800
 15122              	.LASF70:
 15123 02ba 6E616D65 		.ascii	"name\000"
 15123      00
 15124              	.LASF117:
 15125 02bf 64617461 		.ascii	"data\000"
 15125      00
ARM GAS  /tmp/ccLrOMZj.s 			page 269


 15126              	.LASF7:
 15127 02c4 73686F72 		.ascii	"short unsigned int\000"
 15127      7420756E 
 15127      7369676E 
 15127      65642069 
 15127      6E7400
 15128              	.LASF42:
 15129 02d7 41504231 		.ascii	"APB1LPENR\000"
 15129      4C50454E 
 15129      5200
 15130              	.LASF48:
 15131 02e1 504C4C49 		.ascii	"PLLI2SCFGR\000"
 15131      32534346 
 15131      475200
 15132              	.LASF95:
 15133 02ec 67646973 		.ascii	"gdisp_powermode_t\000"
 15133      705F706F 
 15133      7765726D 
 15133      6F64655F 
 15133      7400
 15134              	.LASF26:
 15135 02fe 41484233 		.ascii	"AHB3RSTR\000"
 15135      52535452 
 15135      00
 15136              	.LASF112:
 15137 0307 7365745F 		.ascii	"set_backlight\000"
 15137      6261636B 
 15137      6C696768 
 15137      7400
 15138              	.LASF150:
 15139 0315 6267636F 		.ascii	"bgcolor\000"
 15139      6C6F7200 
 15140              	.LASF43:
 15141 031d 41504232 		.ascii	"APB2LPENR\000"
 15141      4C50454E 
 15141      5200
 15142              	.LASF5:
 15143 0327 73686F72 		.ascii	"short int\000"
 15143      7420696E 
 15143      7400
 15144              	.LASF160:
 15145 0331 474E5520 		.ascii	"GNU C 4.7.4 20130613 (release) [ARM/embedded-4_7-br"
 15145      4320342E 
 15145      372E3420 
 15145      32303133 
 15145      30363133 
 15146 0364 616E6368 		.ascii	"anch revision 200083]\000"
 15146      20726576 
 15146      6973696F 
 15146      6E203230 
 15146      30303833 
 15147              	.LASF155:
 15148 037a 47444953 		.ascii	"GDISP\000"
 15148      5000
 15149              	.LASF79:
 15150 0380 78736361 		.ascii	"xscale\000"
 15150      6C6500
ARM GAS  /tmp/ccLrOMZj.s 			page 270


 15151              	.LASF132:
 15152 0387 72616469 		.ascii	"radius\000"
 15152      757300
 15153              	.LASF109:
 15154 038e 636F6C6F 		.ascii	"color_t\000"
 15154      725F7400 
 15155              	.LASF104:
 15156 0396 636C6970 		.ascii	"clipx0\000"
 15156      783000
 15157              	.LASF106:
 15158 039d 636C6970 		.ascii	"clipx1\000"
 15158      783100
 15159              	.LASF165:
 15160 03a4 67667853 		.ascii	"gfxSleepMicroseconds\000"
 15160      6C656570 
 15160      4D696372 
 15160      6F736563 
 15160      6F6E6473 
 15161              	.LASF18:
 15162 03b9 73697A65 		.ascii	"sizetype\000"
 15162      74797065 
 15162      00
 15163              	.LASF50:
 15164 03c2 636C6561 		.ascii	"clear\000"
 15164      7200
 15165              	.LASF60:
 15166 03c8 696F706F 		.ascii	"ioportmask_t\000"
 15166      72746D61 
 15166      736B5F74 
 15166      00
 15167              	.LASF134:
 15168 03d5 67646973 		.ascii	"gdisp_lld_clear\000"
 15168      705F6C6C 
 15168      645F636C 
 15168      65617200 
 15169              	.LASF89:
 15170 03e5 6F726965 		.ascii	"orientation\000"
 15170      6E746174 
 15170      696F6E00 
 15171              	.LASF39:
 15172 03f1 41484232 		.ascii	"AHB2LPENR\000"
 15172      4C50454E 
 15172      5200
 15173              	.LASF82:
 15174 03fb 6F666673 		.ascii	"offsetTable\000"
 15174      65745461 
 15174      626C6500 
 15175              	.LASF68:
 15176 0407 636F6F72 		.ascii	"coord_t\000"
 15176      645F7400 
 15177              	.LASF90:
 15178 040f 706F7765 		.ascii	"powermode\000"
 15178      726D6F64 
 15178      6500
 15179              	.LASF142:
 15180 0419 67646973 		.ascii	"gdisp_lld_blit_area_ex\000"
 15180      705F6C6C 
ARM GAS  /tmp/ccLrOMZj.s 			page 271


 15180      645F626C 
 15180      69745F61 
 15180      7265615F 
 15181              	.LASF28:
 15182 0430 41504231 		.ascii	"APB1RSTR\000"
 15182      52535452 
 15182      00
 15183              	.LASF63:
 15184 0439 706F7274 		.ascii	"portid\000"
 15184      696400
 15185              	.LASF58:
 15186 0440 41465248 		.ascii	"AFRH\000"
 15186      00
 15187              	.LASF157:
 15188 0445 70616C53 		.ascii	"palSetBusMode\000"
 15188      65744275 
 15188      734D6F64 
 15188      6500
 15189              	.LASF57:
 15190 0453 4146524C 		.ascii	"AFRL\000"
 15190      00
 15191              	.LASF80:
 15192 0458 79736361 		.ascii	"yscale\000"
 15192      6C6500
 15193              	.LASF156:
 15194 045f 67646973 		.ascii	"gdisp_lld_draw_pixel\000"
 15194      705F6C6C 
 15194      645F6472 
 15194      61775F70 
 15194      6978656C 
 15195              	.LASF30:
 15196 0474 52455345 		.ascii	"RESERVED1\000"
 15196      52564544 
 15196      3100
 15197              	.LASF34:
 15198 047e 52455345 		.ascii	"RESERVED2\000"
 15198      52564544 
 15198      3200
 15199              	.LASF37:
 15200 0488 52455345 		.ascii	"RESERVED3\000"
 15200      52564544 
 15200      3300
 15201              	.LASF41:
 15202 0492 52455345 		.ascii	"RESERVED4\000"
 15202      52564544 
 15202      3400
 15203              	.LASF44:
 15204 049c 52455345 		.ascii	"RESERVED5\000"
 15204      52564544 
 15204      3500
 15205              	.LASF46:
 15206 04a6 52455345 		.ascii	"RESERVED6\000"
 15206      52564544 
 15206      3600
 15207              	.LASF105:
 15208 04b0 636C6970 		.ascii	"clipy0\000"
 15208      793000
ARM GAS  /tmp/ccLrOMZj.s 			page 272


 15209              	.LASF107:
 15210 04b7 636C6970 		.ascii	"clipy1\000"
 15210      793100
 15211              	.LASF16:
 15212 04be 5F426F6F 		.ascii	"_Bool\000"
 15212      6C00
 15213              	.LASF8:
 15214 04c4 696E7433 		.ascii	"int32_t\000"
 15214      325F7400 
 15215              	.LASF2:
 15216 04cc 756E7369 		.ascii	"unsigned char\000"
 15216      676E6564 
 15216      20636861 
 15216      7200
 15217              	.LASF93:
 15218 04da 706F7765 		.ascii	"powerDeepSleep\000"
 15218      72446565 
 15218      70536C65 
 15218      657000
 15219              	.LASF87:
 15220 04e9 47444953 		.ascii	"GDISP_ROTATE_270\000"
 15220      505F524F 
 15220      54415445 
 15220      5F323730 
 15220      00
 15221              	.LASF162:
 15222 04fa 2F686F6D 		.ascii	"/home/witold/Dokumenty/arm/ChibiOS-master/APP/smtm3"
 15222      652F7769 
 15222      746F6C64 
 15222      2F446F6B 
 15222      756D656E 
 15223 052d 3266345F 		.ascii	"2f4_lcd_ds18b20\000"
 15223      6C63645F 
 15223      64733138 
 15223      62323000 
 15224              	.LASF135:
 15225 053d 61726561 		.ascii	"area\000"
 15225      00
 15226              	.LASF122:
 15227 0542 72656C65 		.ascii	"release_bus\000"
 15227      6173655F 
 15227      62757300 
 15228              	.LASF40:
 15229 054e 41484233 		.ascii	"AHB3LPENR\000"
 15229      4C50454E 
 15229      5200
 15230              	.LASF14:
 15231 0558 75696E74 		.ascii	"uint_fast8_t\000"
 15231      5F666173 
 15231      74385F74 
 15231      00
 15232              	.LASF146:
 15233 0565 62756666 		.ascii	"buffer\000"
 15233      657200
 15234              	.LASF36:
 15235 056c 41504232 		.ascii	"APB2ENR\000"
 15235      454E5200 
ARM GAS  /tmp/ccLrOMZj.s 			page 273


 15236              	.LASF27:
 15237 0574 52455345 		.ascii	"RESERVED0\000"
 15237      52564544 
 15237      3000
 15238              	.LASF67:
 15239 057e 64656C61 		.ascii	"delaytime_t\000"
 15239      7974696D 
 15239      655F7400 
 15240              	.LASF20:
 15241 058a 46534D43 		.ascii	"FSMC_Bank1_TypeDef\000"
 15241      5F42616E 
 15241      6B315F54 
 15241      79706544 
 15241      656600
 15242              	.LASF10:
 15243 059d 75696E74 		.ascii	"uint32_t\000"
 15243      33325F74 
 15243      00
 15244              	.LASF102:
 15245 05a6 4261636B 		.ascii	"Backlight\000"
 15245      6C696768 
 15245      7400
 15246              	.LASF111:
 15247 05b0 666F6E74 		.ascii	"fontcolumn_t\000"
 15247      636F6C75 
 15247      6D6E5F74 
 15247      00
 15248              	.LASF45:
 15249 05bd 42444352 		.ascii	"BDCR\000"
 15249      00
 15250              	.LASF77:
 15251 05c2 6D696E43 		.ascii	"minChar\000"
 15251      68617200 
 15252              	.LASF123:
 15253 05ca 636F6C6F 		.ascii	"color\000"
 15253      7200
 15254              	.LASF19:
 15255 05d0 63686172 		.ascii	"char\000"
 15255      00
 15256              	.LASF114:
 15257 05d5 70657263 		.ascii	"percent\000"
 15257      656E7400 
 15258              	.LASF143:
 15259 05dd 73726378 		.ascii	"srcx\000"
 15259      00
 15260              	.LASF144:
 15261 05e2 73726379 		.ascii	"srcy\000"
 15261      00
 15262              	.LASF25:
 15263 05e7 41484232 		.ascii	"AHB2RSTR\000"
 15263      52535452 
 15263      00
 15264              	.LASF115:
 15265 05f0 696E6465 		.ascii	"index\000"
 15265      7800
 15266              	.LASF101:
 15267 05f6 506F7765 		.ascii	"Powermode\000"
ARM GAS  /tmp/ccLrOMZj.s 			page 274


 15267      726D6F64 
 15267      6500
 15268              	.LASF17:
 15269 0600 73797374 		.ascii	"systime_t\000"
 15269      696D655F 
 15269      7400
 15270              	.LASF125:
 15271 060a 62757344 		.ascii	"busD\000"
 15271      00
 15272              	.LASF126:
 15273 060f 62757345 		.ascii	"busE\000"
 15273      00
 15274              	.LASF137:
 15275 0614 67646973 		.ascii	"gdisp_lld_draw_line\000"
 15275      705F6C6C 
 15275      645F6472 
 15275      61775F6C 
 15275      696E6500 
 15276              	.LASF65:
 15277 0628 6F666673 		.ascii	"offset\000"
 15277      657400
 15278              	.LASF35:
 15279 062f 41504231 		.ascii	"APB1ENR\000"
 15279      454E5200 
 15280              	.LASF62:
 15281 0637 696F706F 		.ascii	"ioportid_t\000"
 15281      72746964 
 15281      5F7400
 15282              	.LASF129:
 15283 0642 636F6C75 		.ascii	"column\000"
 15283      6D6E00
 15284              	.LASF32:
 15285 0649 41484232 		.ascii	"AHB2ENR\000"
 15285      454E5200 
 15286              	.LASF158:
 15287 0651 5F70616C 		.ascii	"_pal_lld_setgroupmode\000"
 15287      5F6C6C64 
 15287      5F736574 
 15287      67726F75 
 15287      706D6F64 
 15288              	.LASF147:
 15289 0667 656E6478 		.ascii	"endx\000"
 15289      00
 15290              	.LASF148:
 15291 066c 656E6479 		.ascii	"endy\000"
 15291      00
 15292              	.LASF113:
 15293 0671 77726974 		.ascii	"write_index\000"
 15293      655F696E 
 15293      64657800 
 15294              	.LASF145:
 15295 067d 73726363 		.ascii	"srccx\000"
 15295      7800
 15296              	.LASF47:
 15297 0683 53534347 		.ascii	"SSCGR\000"
 15297      5200
 15298              	.LASF110:
ARM GAS  /tmp/ccLrOMZj.s 			page 275


 15299 0689 70697865 		.ascii	"pixel_t\000"
 15299      6C5F7400 
 15300              	.LASF152:
 15301 0691 77686174 		.ascii	"what\000"
 15301      00
 15302              	.LASF96:
 15303 0696 666F6E74 		.ascii	"font\000"
 15303      00
 15304              	.LASF84:
 15305 069b 47444953 		.ascii	"GDISP_ROTATE_0\000"
 15305      505F524F 
 15305      54415445 
 15305      5F3000
 15306              	.LASF3:
 15307 06aa 75696E74 		.ascii	"uint8_t\000"
 15307      385F7400 
 15308              	.LASF159:
 15309 06b2 67667853 		.ascii	"gfxSleepMilliseconds\000"
 15309      6C656570 
 15309      4D696C6C 
 15309      69736563 
 15309      6F6E6473 
 15310              	.LASF133:
 15311 06c7 72657365 		.ascii	"reset_viewport\000"
 15311      745F7669 
 15311      6577706F 
 15311      727400
 15312              	.LASF92:
 15313 06d6 706F7765 		.ascii	"powerSleep\000"
 15313      72536C65 
 15313      657000
 15314              	.LASF69:
 15315 06e1 666F6E74 		.ascii	"font_t\000"
 15315      5F7400
 15316              	.LASF31:
 15317 06e8 41484231 		.ascii	"AHB1ENR\000"
 15317      454E5200 
 15318              	.LASF83:
 15319 06f0 64617461 		.ascii	"dataTable\000"
 15319      5461626C 
 15319      6500
 15320              	.LASF88:
 15321 06fa 67646973 		.ascii	"gdisp_orientation_t\000"
 15321      705F6F72 
 15321      69656E74 
 15321      6174696F 
 15321      6E5F7400 
 15322              	.LASF23:
 15323 070e 43464752 		.ascii	"CFGR\000"
 15323      00
 15324              	.LASF98:
 15325 0713 57696474 		.ascii	"Width\000"
 15325      6800
 15326              	.LASF71:
 15327 0719 68656967 		.ascii	"height\000"
 15327      687400
 15328              	.LASF86:
ARM GAS  /tmp/ccLrOMZj.s 			page 276


 15329 0720 47444953 		.ascii	"GDISP_ROTATE_180\000"
 15329      505F524F 
 15329      54415445 
 15329      5F313830 
 15329      00
 15330              	.LASF61:
 15331 0731 696F6D6F 		.ascii	"iomode_t\000"
 15331      64655F74 
 15331      00
 15332              	.LASF151:
 15333 073a 67646973 		.ascii	"gdisp_lld_control\000"
 15333      705F6C6C 
 15333      645F636F 
 15333      6E74726F 
 15333      6C00
 15334              	.LASF21:
 15335 074c 42544352 		.ascii	"BTCR\000"
 15335      00
 15336              		.ident	"GCC: (GNU Tools for ARM Embedded Processors) 4.7.4 20130613 (release) [ARM/embedded-4_7-br
ARM GAS  /tmp/ccLrOMZj.s 			page 277


DEFINED SYMBOLS
                            *ABS*:00000000 gdisp_lld.c
     /tmp/ccLrOMZj.s:21     .text.set_viewport:00000000 $t
     /tmp/ccLrOMZj.s:26     .text.set_viewport:00000000 set_viewport
     /tmp/ccLrOMZj.s:48     .text.set_viewport:00000010 $d
     /tmp/ccLrOMZj.s:52     .text.set_viewport:00000014 $t
     /tmp/ccLrOMZj.s:669    .text.set_viewport:00000184 $d
     /tmp/ccLrOMZj.s:673    .text.set_viewport:00000188 $t
     /tmp/ccLrOMZj.s:714    .text.set_viewport:000001b8 $d
     /tmp/ccLrOMZj.s:721    .text.gdisp_lld_set_clip:00000000 $t
     /tmp/ccLrOMZj.s:727    .text.gdisp_lld_set_clip:00000000 gdisp_lld_set_clip
     /tmp/ccLrOMZj.s:804    .text.gdisp_lld_set_clip:00000060 $d
     /tmp/ccLrOMZj.s:809    .text.gdisp_lld_init:00000000 $t
     /tmp/ccLrOMZj.s:815    .text.gdisp_lld_init:00000000 gdisp_lld_init
     /tmp/ccLrOMZj.s:4936   .rodata:00000000 .LANCHOR1
     /tmp/ccLrOMZj.s:4947   .bss.GDISP:00000000 .LANCHOR0
     /tmp/ccLrOMZj.s:1912   .text.gdisp_lld_draw_pixel:00000000 $t
     /tmp/ccLrOMZj.s:1918   .text.gdisp_lld_draw_pixel:00000000 gdisp_lld_draw_pixel
     /tmp/ccLrOMZj.s:1972   .text.gdisp_lld_draw_pixel:00000032 $d
     /tmp/ccLrOMZj.s:1976   .text.gdisp_lld_draw_pixel:00000036 $t
     /tmp/ccLrOMZj.s:2181   .text.gdisp_lld_draw_pixel:000000b0 $d
     /tmp/ccLrOMZj.s:2192   .text.gdisp_lld_draw_char:00000000 $t
     /tmp/ccLrOMZj.s:2198   .text.gdisp_lld_draw_char:00000000 gdisp_lld_draw_char
     /tmp/ccLrOMZj.s:2470   .text.gdisp_lld_draw_circle:00000000 $t
     /tmp/ccLrOMZj.s:2476   .text.gdisp_lld_draw_circle:00000000 gdisp_lld_draw_circle
     /tmp/ccLrOMZj.s:2663   .text.gdisp_lld_clear:00000000 $t
     /tmp/ccLrOMZj.s:2669   .text.gdisp_lld_clear:00000000 gdisp_lld_clear
     /tmp/ccLrOMZj.s:2711   .text.gdisp_lld_clear:00000020 $d
     /tmp/ccLrOMZj.s:2715   .text.gdisp_lld_clear:00000024 $t
     /tmp/ccLrOMZj.s:2878   .text.gdisp_lld_clear:00000078 $d
     /tmp/ccLrOMZj.s:2888   .text.gdisp_lld_fill_area:00000000 $t
     /tmp/ccLrOMZj.s:2894   .text.gdisp_lld_fill_area:00000000 gdisp_lld_fill_area
     /tmp/ccLrOMZj.s:3056   .text.gdisp_lld_fill_area:000000ac $d
     /tmp/ccLrOMZj.s:3061   .text.gdisp_lld_draw_line:00000000 $t
     /tmp/ccLrOMZj.s:3067   .text.gdisp_lld_draw_line:00000000 gdisp_lld_draw_line
     /tmp/ccLrOMZj.s:3592   .text.gdisp_lld_fill_circle:00000000 $t
     /tmp/ccLrOMZj.s:3598   .text.gdisp_lld_fill_circle:00000000 gdisp_lld_fill_circle
     /tmp/ccLrOMZj.s:3759   .text.gdisp_lld_blit_area_ex:00000000 $t
     /tmp/ccLrOMZj.s:3765   .text.gdisp_lld_blit_area_ex:00000000 gdisp_lld_blit_area_ex
     /tmp/ccLrOMZj.s:4038   .text.gdisp_lld_blit_area_ex:00000140 $d
     /tmp/ccLrOMZj.s:4043   .text.gdisp_lld_fill_char:00000000 $t
     /tmp/ccLrOMZj.s:4049   .text.gdisp_lld_fill_char:00000000 gdisp_lld_fill_char
     /tmp/ccLrOMZj.s:4362   .text.gdisp_lld_fill_char:000001b8 $d
     /tmp/ccLrOMZj.s:4368   .text.gdisp_lld_control:00000000 $t
     /tmp/ccLrOMZj.s:4374   .text.gdisp_lld_control:00000000 gdisp_lld_control
     /tmp/ccLrOMZj.s:4536   .text.gdisp_lld_control:00000066 $d
     /tmp/ccLrOMZj.s:4540   .text.gdisp_lld_control:0000006a $t
     /tmp/ccLrOMZj.s:4929   .text.gdisp_lld_control:0000016c $d
     /tmp/ccLrOMZj.s:4950   .bss.GDISP:00000000 GDISP
     /tmp/ccLrOMZj.s:4935   .rodata:00000000 $d
     /tmp/ccLrOMZj.s:4946   .bss.GDISP:00000000 $d
     /tmp/ccLrOMZj.s:4953   .bss.buf.7794:00000000 $d
     /tmp/ccLrOMZj.s:4957   .bss.buf.7794:00000000 buf.7794
                     .debug_frame:00000010 $d
     /tmp/ccLrOMZj.s:720    .text.set_viewport:000001bc $t
     /tmp/ccLrOMZj.s:808    .text.gdisp_lld_set_clip:00000064 $t
     /tmp/ccLrOMZj.s:2191   .text.gdisp_lld_draw_pixel:000000b4 $t
ARM GAS  /tmp/ccLrOMZj.s 			page 278


     /tmp/ccLrOMZj.s:2887   .text.gdisp_lld_clear:0000007c $t
     /tmp/ccLrOMZj.s:4042   .text.gdisp_lld_blit_area_ex:00000144 $t
     /tmp/ccLrOMZj.s:4367   .text.gdisp_lld_fill_char:000001bc $t

UNDEFINED SYMBOLS
palSetBusMode
_pal_lld_setgroupmode
gfxSleepMilliseconds
gfxSleepMicroseconds
