ARM GAS  /tmp/ccLrOMZj.s 			page 1


   1              		.syntax unified
   2              		.cpu cortex-m4
   3              		.eabi_attribute 27, 3
   4              		.eabi_attribute 28, 1
   5              		.fpu fpv4-sp-d16
   6              		.eabi_attribute 20, 1
   7              		.eabi_attribute 21, 1
   8              		.eabi_attribute 23, 3
   9              		.eabi_attribute 24, 1
  10              		.eabi_attribute 25, 1
  11              		.eabi_attribute 26, 1
  12              		.eabi_attribute 30, 2
  13              		.eabi_attribute 34, 1
  14              		.eabi_attribute 18, 4
  15              		.thumb
  16              		.file	"gdisp_lld.c"
  17              		.text
  18              	.Ltext0:
  19              		.cfi_sections	.debug_frame
  20              		.section	.text.set_viewport,"ax",%progbits
  21              		.align	2
  22              		.p2align 4,,15
  23              		.thumb
  24              		.thumb_func
  25              		.type	set_viewport, %function
  26              	set_viewport:
  27              	.LFB133:
  28              		.file 1 "../../ext/ugfx/drivers/gdisp/SSD1289/gdisp_lld.c"
  29              		.loc 1 75 0
  30              		.cfi_startproc
  31              		@ args = 0, pretend = 0, frame = 0
  32              		@ frame_needed = 0, uses_anonymous_args = 0
  33              		@ link register save eliminated.
  34              	.LVL0:
  35 0000 70B4     		push	{r4, r5, r6}
  36              	.LCFI0:
  37              		.cfi_def_cfa_offset 12
  38              		.cfi_offset 4, -12
  39              		.cfi_offset 5, -8
  40              		.cfi_offset 6, -4
  41              		.loc 1 88 0
  42 0002 6D4C     		ldr	r4, .L19
  43 0004 2479     		ldrb	r4, [r4, #4]	@ zero_extendqisi2
  44 0006 032C     		cmp	r4, #3
  45 0008 00F2B780 		bhi	.L2
  46 000c DFE804F0 		tbb	[pc, r4]
  47              	.L7:
  48 0010 8E       		.byte	(.L3-.L7)/2
  49 0011 5C       		.byte	(.L4-.L7)/2
  50 0012 2A       		.byte	(.L5-.L7)/2
  51 0013 02       		.byte	(.L6-.L7)/2
  52              		.align	1
  53              	.L6:
  54              	.LVL1:
  55              		.loc 1 95 0
  56 0014 8518     		adds	r5, r0, r2
  57              		.loc 1 97 0
ARM GAS  /tmp/ccLrOMZj.s 			page 2


  58 0016 461E     		subs	r6, r0, #1
  59              		.loc 1 95 0
  60 0018 013D     		subs	r5, r5, #1
  61 001a C9B2     		uxtb	r1, r1
  62              	.LVL2:
  63              	.LBB518:
  64              	.LBB519:
  65              		.file 2 "./gdisp_lld_board.h"
  66              		.loc 2 153 0
  67 001c 0023     		movs	r3, #0
  68              	.LVL3:
  69              	.LBE519:
  70              	.LBE518:
  71              	.LBB522:
  72              	.LBB523:
  73              		.loc 2 144 0
  74 001e 4FF0C044 		mov	r4, #1610612736
  75              	.LBE523:
  76              	.LBE522:
  77              	.LBB525:
  78              	.LBB520:
  79              		.loc 2 153 0
  80 0022 C6F20203 		movt	r3, 24578
  81              	.LBE520:
  82              	.LBE525:
  83              		.loc 1 97 0
  84 0026 B218     		adds	r2, r6, r2
  85              	.LVL4:
  86              		.loc 1 95 0
  87 0028 41EA0526 		orr	r6, r1, r5, lsl #8
  88 002c B5B2     		uxth	r5, r6
  89              	.LBB526:
  90              	.LBB524:
  91              		.loc 2 144 0
  92 002e 4426     		movs	r6, #68
  93 0030 2680     		strh	r6, [r4, #0]	@ movhi
  94              	.LVL5:
  95              	.LBE524:
  96              	.LBE526:
  97              		.loc 1 96 0
  98 0032 C005     		lsls	r0, r0, #23
  99              	.LVL6:
 100              	.LBB527:
 101              	.LBB521:
 102              		.loc 2 153 0
 103 0034 1D80     		strh	r5, [r3, #0]	@ movhi
 104              	.LVL7:
 105              	.LBE521:
 106              	.LBE527:
 107              		.loc 1 97 0
 108 0036 D205     		lsls	r2, r2, #23
 109              	.LBB528:
 110              	.LBB529:
 111              		.loc 2 144 0
 112 0038 4525     		movs	r5, #69
 113              	.LVL8:
 114 003a 2580     		strh	r5, [r4, #0]	@ movhi
ARM GAS  /tmp/ccLrOMZj.s 			page 3


 115              	.LBE529:
 116              	.LBE528:
 117              		.loc 1 96 0
 118 003c C00D     		lsrs	r0, r0, #23
 119              	.LVL9:
 120              		.loc 1 97 0
 121 003e D20D     		lsrs	r2, r2, #23
 122              	.LBB530:
 123              	.LBB531:
 124              		.loc 2 144 0
 125 0040 4625     		movs	r5, #70
 126              	.LBE531:
 127              	.LBE530:
 128              	.LBB533:
 129              	.LBB534:
 130              		.loc 2 153 0
 131 0042 1880     		strh	r0, [r3, #0]	@ movhi
 132              	.LVL10:
 133              	.LBE534:
 134              	.LBE533:
 135              	.LBB535:
 136              	.LBB532:
 137              		.loc 2 144 0
 138 0044 2580     		strh	r5, [r4, #0]	@ movhi
 139              	.LVL11:
 140              	.LBE532:
 141              	.LBE535:
 142              	.LBB536:
 143              	.LBB537:
 144              		.loc 2 153 0
 145 0046 1A80     		strh	r2, [r3, #0]	@ movhi
 146              	.LVL12:
 147              	.L9:
 148              	.LBE537:
 149              	.LBE536:
 150              	.LBB538:
 151              	.LBB539:
 152              	.LBB540:
 153              	.LBB541:
 154 0048 0023     		movs	r3, #0
 155              	.LBE541:
 156              	.LBE540:
 157              	.LBB544:
 158              	.LBB545:
 159              		.loc 2 144 0
 160 004a 4FF0C042 		mov	r2, #1610612736
 161              	.LBE545:
 162              	.LBE544:
 163              	.LBB547:
 164              	.LBB542:
 165              		.loc 2 153 0
 166 004e C6F20203 		movt	r3, 24578
 167              	.LBE542:
 168              	.LBE547:
 169              		.loc 1 65 0
 170 0052 89B2     		uxth	r1, r1
 171              	.LVL13:
ARM GAS  /tmp/ccLrOMZj.s 			page 4


 172              	.LBB548:
 173              	.LBB546:
 174              		.loc 2 144 0
 175 0054 4E24     		movs	r4, #78
 176 0056 1480     		strh	r4, [r2, #0]	@ movhi
 177              	.LBE546:
 178              	.LBE548:
 179              	.LBB549:
 180              	.LBB543:
 181              		.loc 2 153 0
 182 0058 1980     		strh	r1, [r3, #0]	@ movhi
 183              	.LVL14:
 184              	.LBE543:
 185              	.LBE549:
 186              	.LBB550:
 187              	.LBB551:
 188              		.loc 2 144 0
 189 005a 4F21     		movs	r1, #79
 190              	.LVL15:
 191 005c 1180     		strh	r1, [r2, #0]	@ movhi
 192              	.LVL16:
 193              	.LBE551:
 194              	.LBE550:
 195              	.LBB552:
 196              	.LBB553:
 197              		.loc 2 153 0
 198 005e 1880     		strh	r0, [r3, #0]	@ movhi
 199              	.LVL17:
 200              	.L1:
 201              	.LBE553:
 202              	.LBE552:
 203              	.LBE539:
 204              	.LBE538:
 205              		.loc 1 112 0
 206 0060 70BC     		pop	{r4, r5, r6}
 207 0062 7047     		bx	lr
 208              	.LVL18:
 209              	.L5:
 210              		.loc 1 100 0
 211 0064 86B2     		uxth	r6, r0
 212 0066 C6F1F004 		rsb	r4, r6, #240
 213              		.loc 1 101 0
 214 006a 89B2     		uxth	r1, r1
 215              		.loc 1 100 0
 216 006c A21A     		subs	r2, r4, r2
 217              	.LVL19:
 218              		.loc 1 101 0
 219 006e C1F5A075 		rsb	r5, r1, #320
 220              		.loc 1 100 0
 221 0072 C0F1EF00 		rsb	r0, r0, #239
 222              	.LVL20:
 223 0076 D2B2     		uxtb	r2, r2
 224              	.LBB601:
 225              	.LBB602:
 226              		.loc 2 153 0
 227 0078 0024     		movs	r4, #0
 228 007a C6F20204 		movt	r4, 24578
ARM GAS  /tmp/ccLrOMZj.s 			page 5


 229              	.LBE602:
 230              	.LBE601:
 231              		.loc 1 101 0
 232 007e EB1A     		subs	r3, r5, r3
 233              	.LVL21:
 234              		.loc 1 100 0
 235 0080 42EA0022 		orr	r2, r2, r0, lsl #8
 236              	.LBB604:
 237              	.LBB605:
 238              		.loc 2 144 0
 239 0084 4FF0C045 		mov	r5, #1610612736
 240              	.LBE605:
 241              	.LBE604:
 242              		.loc 1 102 0
 243 0088 C1F59F71 		rsb	r1, r1, #318
 244              	.LVL22:
 245              		.loc 1 100 0
 246 008c 90B2     		uxth	r0, r2
 247              	.LVL23:
 248              		.loc 1 102 0
 249 008e 0131     		adds	r1, r1, #1
 250              		.loc 1 101 0
 251 0090 DB05     		lsls	r3, r3, #23
 252              	.LBB607:
 253              	.LBB606:
 254              		.loc 2 144 0
 255 0092 4422     		movs	r2, #68
 256              	.LVL24:
 257 0094 2A80     		strh	r2, [r5, #0]	@ movhi
 258              	.LBE606:
 259              	.LBE607:
 260              		.loc 1 101 0
 261 0096 DB0D     		lsrs	r3, r3, #23
 262              	.LBB608:
 263              	.LBB603:
 264              		.loc 2 153 0
 265 0098 2080     		strh	r0, [r4, #0]	@ movhi
 266              	.LVL25:
 267              	.LBE603:
 268              	.LBE608:
 269              		.loc 1 102 0
 270 009a C905     		lsls	r1, r1, #23
 271              	.LBB609:
 272              	.LBB610:
 273              		.loc 2 144 0
 274 009c 4520     		movs	r0, #69
 275              	.LVL26:
 276 009e 2880     		strh	r0, [r5, #0]	@ movhi
 277              	.LVL27:
 278              	.LBE610:
 279              	.LBE609:
 280              		.loc 1 102 0
 281 00a0 C90D     		lsrs	r1, r1, #23
 282              	.LBB611:
 283              	.LBB612:
 284              		.loc 2 153 0
 285 00a2 2380     		strh	r3, [r4, #0]	@ movhi
ARM GAS  /tmp/ccLrOMZj.s 			page 6


 286              	.LVL28:
 287              	.LBE612:
 288              	.LBE611:
 289              	.LBB613:
 290              	.LBB614:
 291              		.loc 2 144 0
 292 00a4 4623     		movs	r3, #70
 293              	.LVL29:
 294 00a6 2B80     		strh	r3, [r5, #0]	@ movhi
 295              	.LBE614:
 296              	.LBE613:
 297              	.LBB615:
 298              	.LBB616:
 299              		.loc 2 153 0
 300 00a8 2180     		strh	r1, [r4, #0]	@ movhi
 301              	.LVL30:
 302              	.L10:
 303              	.LBE616:
 304              	.LBE615:
 305              	.LBB617:
 306              	.LBB598:
 307              	.LBB554:
 308              	.LBB555:
 309              		.loc 2 144 0
 310 00aa 4FF0C042 		mov	r2, #1610612736
 311              	.LBE555:
 312              	.LBE554:
 313              		.loc 1 57 0
 314 00ae C6F1EF00 		rsb	r0, r6, #239
 315              	.LBB557:
 316              	.LBB558:
 317              		.loc 2 153 0
 318 00b2 0023     		movs	r3, #0
 319 00b4 C6F20203 		movt	r3, 24578
 320              	.LBE558:
 321              	.LBE557:
 322              		.loc 1 57 0
 323 00b8 C6B2     		uxtb	r6, r0
 324              	.LVL31:
 325              	.LBB560:
 326              	.LBB556:
 327              		.loc 2 144 0
 328 00ba 4E20     		movs	r0, #78
 329 00bc 1080     		strh	r0, [r2, #0]	@ movhi
 330              	.LBE556:
 331              	.LBE560:
 332              	.LBB561:
 333              	.LBB562:
 334 00be 4F20     		movs	r0, #79
 335              	.LBE562:
 336              	.LBE561:
 337              	.LBB564:
 338              	.LBB559:
 339              		.loc 2 153 0
 340 00c0 1E80     		strh	r6, [r3, #0]	@ movhi
 341              	.LVL32:
 342              	.LBE559:
ARM GAS  /tmp/ccLrOMZj.s 			page 7


 343              	.LBE564:
 344              	.LBB565:
 345              	.LBB563:
 346              		.loc 2 144 0
 347 00c2 1080     		strh	r0, [r2, #0]	@ movhi
 348              	.LVL33:
 349              	.LBE563:
 350              	.LBE565:
 351              	.LBB566:
 352              	.LBB567:
 353              		.loc 2 153 0
 354 00c4 1980     		strh	r1, [r3, #0]	@ movhi
 355 00c6 CBE7     		b	.L1
 356              	.LVL34:
 357              	.L4:
 358              	.LBE567:
 359              	.LBE566:
 360              	.LBE598:
 361              	.LBE617:
 362              		.loc 1 105 0
 363 00c8 8EB2     		uxth	r6, r1
 364 00ca C6F1F004 		rsb	r4, r6, #240
 365              		.loc 1 106 0
 366 00ce 80B2     		uxth	r0, r0
 367              		.loc 1 105 0
 368 00d0 E31A     		subs	r3, r4, r3
 369              	.LVL35:
 370              		.loc 1 106 0
 371 00d2 C0F5A075 		rsb	r5, r0, #320
 372              		.loc 1 105 0
 373 00d6 C1F1EF01 		rsb	r1, r1, #239
 374              	.LVL36:
 375 00da DBB2     		uxtb	r3, r3
 376              	.LBB618:
 377              	.LBB619:
 378              		.loc 2 153 0
 379 00dc 0024     		movs	r4, #0
 380 00de C6F20204 		movt	r4, 24578
 381              	.LBE619:
 382              	.LBE618:
 383              		.loc 1 106 0
 384 00e2 AA1A     		subs	r2, r5, r2
 385              	.LVL37:
 386              		.loc 1 105 0
 387 00e4 43EA0123 		orr	r3, r3, r1, lsl #8
 388              	.LBB621:
 389              	.LBB622:
 390              		.loc 2 144 0
 391 00e8 4FF0C045 		mov	r5, #1610612736
 392              	.LBE622:
 393              	.LBE621:
 394              		.loc 1 107 0
 395 00ec C0F59F70 		rsb	r0, r0, #318
 396              	.LVL38:
 397              		.loc 1 105 0
 398 00f0 99B2     		uxth	r1, r3
 399              	.LVL39:
ARM GAS  /tmp/ccLrOMZj.s 			page 8


 400              		.loc 1 107 0
 401 00f2 0130     		adds	r0, r0, #1
 402              		.loc 1 106 0
 403 00f4 D205     		lsls	r2, r2, #23
 404              	.LBB624:
 405              	.LBB623:
 406              		.loc 2 144 0
 407 00f6 4423     		movs	r3, #68
 408              	.LVL40:
 409 00f8 2B80     		strh	r3, [r5, #0]	@ movhi
 410              	.LBE623:
 411              	.LBE624:
 412              		.loc 1 106 0
 413 00fa D20D     		lsrs	r2, r2, #23
 414              	.LBB625:
 415              	.LBB620:
 416              		.loc 2 153 0
 417 00fc 2180     		strh	r1, [r4, #0]	@ movhi
 418              	.LVL41:
 419              	.LBE620:
 420              	.LBE625:
 421              		.loc 1 107 0
 422 00fe C005     		lsls	r0, r0, #23
 423              	.LBB626:
 424              	.LBB627:
 425              		.loc 2 144 0
 426 0100 4521     		movs	r1, #69
 427              	.LVL42:
 428 0102 2980     		strh	r1, [r5, #0]	@ movhi
 429              	.LVL43:
 430              	.LBE627:
 431              	.LBE626:
 432              		.loc 1 107 0
 433 0104 C00D     		lsrs	r0, r0, #23
 434              	.LBB628:
 435              	.LBB629:
 436              		.loc 2 153 0
 437 0106 2280     		strh	r2, [r4, #0]	@ movhi
 438              	.LVL44:
 439              	.LBE629:
 440              	.LBE628:
 441              	.LBB630:
 442              	.LBB631:
 443              		.loc 2 144 0
 444 0108 4622     		movs	r2, #70
 445              	.LVL45:
 446 010a 2A80     		strh	r2, [r5, #0]	@ movhi
 447              	.LBE631:
 448              	.LBE630:
 449              	.LBB632:
 450              	.LBB633:
 451              		.loc 2 153 0
 452 010c 2080     		strh	r0, [r4, #0]	@ movhi
 453              	.LVL46:
 454              	.L11:
 455              	.LBE633:
 456              	.LBE632:
ARM GAS  /tmp/ccLrOMZj.s 			page 9


 457              	.LBB634:
 458              	.LBB599:
 459              	.LBB568:
 460              	.LBB569:
 461              	.LBB570:
 462              	.LBB571:
 463              		.loc 2 144 0
 464 010e 4FF0C042 		mov	r2, #1610612736
 465              	.LBE571:
 466              	.LBE570:
 467              		.loc 1 69 0
 468 0112 C6F1EF01 		rsb	r1, r6, #239
 469              	.LBB573:
 470              	.LBB574:
 471              		.loc 2 153 0
 472 0116 0023     		movs	r3, #0
 473 0118 C6F20203 		movt	r3, 24578
 474              	.LBE574:
 475              	.LBE573:
 476              		.loc 1 69 0
 477 011c CEB2     		uxtb	r6, r1
 478              	.LVL47:
 479              	.LBB576:
 480              	.LBB572:
 481              		.loc 2 144 0
 482 011e 4E21     		movs	r1, #78
 483 0120 1180     		strh	r1, [r2, #0]	@ movhi
 484              	.LBE572:
 485              	.LBE576:
 486              	.LBB577:
 487              	.LBB578:
 488 0122 4F21     		movs	r1, #79
 489              	.LBE578:
 490              	.LBE577:
 491              	.LBB580:
 492              	.LBB575:
 493              		.loc 2 153 0
 494 0124 1E80     		strh	r6, [r3, #0]	@ movhi
 495              	.LVL48:
 496              	.LBE575:
 497              	.LBE580:
 498              	.LBB581:
 499              	.LBB579:
 500              		.loc 2 144 0
 501 0126 1180     		strh	r1, [r2, #0]	@ movhi
 502              	.LVL49:
 503              	.LBE579:
 504              	.LBE581:
 505              	.LBB582:
 506              	.LBB583:
 507              		.loc 2 153 0
 508 0128 1880     		strh	r0, [r3, #0]	@ movhi
 509 012a 99E7     		b	.L1
 510              	.LVL50:
 511              	.L3:
 512              	.LBE583:
 513              	.LBE582:
ARM GAS  /tmp/ccLrOMZj.s 			page 10


 514              	.LBE569:
 515              	.LBE568:
 516              	.LBE599:
 517              	.LBE634:
 518              		.loc 1 90 0
 519 012c 8618     		adds	r6, r0, r2
 520              		.loc 1 92 0
 521 012e 4D1E     		subs	r5, r1, #1
 522              		.loc 1 90 0
 523 0130 721E     		subs	r2, r6, #1
 524              	.LVL51:
 525 0132 C0B2     		uxtb	r0, r0
 526              	.LVL52:
 527              	.LBB635:
 528              	.LBB636:
 529              		.loc 2 153 0
 530 0134 0024     		movs	r4, #0
 531 0136 C6F20204 		movt	r4, 24578
 532              	.LBE636:
 533              	.LBE635:
 534              		.loc 1 92 0
 535 013a EB18     		adds	r3, r5, r3
 536              	.LVL53:
 537              		.loc 1 90 0
 538 013c 40EA0226 		orr	r6, r0, r2, lsl #8
 539              	.LBB638:
 540              	.LBB639:
 541              		.loc 2 144 0
 542 0140 4FF0C045 		mov	r5, #1610612736
 543              	.LBE639:
 544              	.LBE638:
 545              		.loc 1 90 0
 546 0144 B2B2     		uxth	r2, r6
 547              	.LVL54:
 548              	.LBB641:
 549              	.LBB640:
 550              		.loc 2 144 0
 551 0146 4426     		movs	r6, #68
 552              	.LVL55:
 553 0148 2E80     		strh	r6, [r5, #0]	@ movhi
 554              	.LBE640:
 555              	.LBE641:
 556              		.loc 1 91 0
 557 014a C905     		lsls	r1, r1, #23
 558              	.LVL56:
 559              	.LBB642:
 560              	.LBB637:
 561              		.loc 2 153 0
 562 014c 2280     		strh	r2, [r4, #0]	@ movhi
 563              	.LVL57:
 564              	.LBE637:
 565              	.LBE642:
 566              		.loc 1 92 0
 567 014e DB05     		lsls	r3, r3, #23
 568              	.LBB643:
 569              	.LBB644:
 570              		.loc 2 144 0
ARM GAS  /tmp/ccLrOMZj.s 			page 11


 571 0150 4522     		movs	r2, #69
 572              	.LVL58:
 573 0152 2A80     		strh	r2, [r5, #0]	@ movhi
 574              	.LBE644:
 575              	.LBE643:
 576              		.loc 1 91 0
 577 0154 C90D     		lsrs	r1, r1, #23
 578              	.LVL59:
 579              		.loc 1 92 0
 580 0156 DB0D     		lsrs	r3, r3, #23
 581              	.LBB645:
 582              	.LBB646:
 583              		.loc 2 144 0
 584 0158 4622     		movs	r2, #70
 585              	.LBE646:
 586              	.LBE645:
 587              	.LBB648:
 588              	.LBB649:
 589              		.loc 2 153 0
 590 015a 2180     		strh	r1, [r4, #0]	@ movhi
 591              	.LVL60:
 592              	.LBE649:
 593              	.LBE648:
 594              	.LBB650:
 595              	.LBB647:
 596              		.loc 2 144 0
 597 015c 2A80     		strh	r2, [r5, #0]	@ movhi
 598              	.LVL61:
 599              	.LBE647:
 600              	.LBE650:
 601              	.LBB651:
 602              	.LBB652:
 603              		.loc 2 153 0
 604 015e 2380     		strh	r3, [r4, #0]	@ movhi
 605              	.LVL62:
 606              	.L8:
 607              	.LBE652:
 608              	.LBE651:
 609              	.LBB653:
 610              	.LBB600:
 611              	.LBB584:
 612              	.LBB585:
 613 0160 0023     		movs	r3, #0
 614              	.LBE585:
 615              	.LBE584:
 616              	.LBB588:
 617              	.LBB589:
 618              		.loc 2 144 0
 619 0162 4FF0C042 		mov	r2, #1610612736
 620              	.LBE589:
 621              	.LBE588:
 622              	.LBB591:
 623              	.LBB586:
 624              		.loc 2 153 0
 625 0166 C6F20203 		movt	r3, 24578
 626              	.LBE586:
 627              	.LBE591:
ARM GAS  /tmp/ccLrOMZj.s 			page 12


 628              		.loc 1 61 0
 629 016a 80B2     		uxth	r0, r0
 630              	.LVL63:
 631              	.LBB592:
 632              	.LBB590:
 633              		.loc 2 144 0
 634 016c 4E24     		movs	r4, #78
 635 016e 1480     		strh	r4, [r2, #0]	@ movhi
 636              	.LBE590:
 637              	.LBE592:
 638              	.LBB593:
 639              	.LBB587:
 640              		.loc 2 153 0
 641 0170 1880     		strh	r0, [r3, #0]	@ movhi
 642              	.LVL64:
 643              	.LBE587:
 644              	.LBE593:
 645              	.LBB594:
 646              	.LBB595:
 647              		.loc 2 144 0
 648 0172 4F20     		movs	r0, #79
 649              	.LVL65:
 650 0174 1080     		strh	r0, [r2, #0]	@ movhi
 651              	.LVL66:
 652              	.LBE595:
 653              	.LBE594:
 654              	.LBB596:
 655              	.LBB597:
 656              		.loc 2 153 0
 657 0176 1980     		strh	r1, [r3, #0]	@ movhi
 658 0178 72E7     		b	.L1
 659              	.LVL67:
 660              	.L2:
 661              	.LBE597:
 662              	.LBE596:
 663              		.loc 1 55 0
 664 017a 032C     		cmp	r4, #3
 665 017c 3FF670AF 		bhi	.L1
 666 0180 DFE804F0 		tbb	[pc, r4]
 667              	.LVL68:
 668              	.L17:
 669 0184 06       		.byte	(.L13-.L17)/2
 670 0185 0A       		.byte	(.L14-.L17)/2
 671 0186 12       		.byte	(.L15-.L17)/2
 672 0187 02       		.byte	(.L16-.L17)/2
 673              		.align	1
 674              	.L16:
 675 0188 C005     		lsls	r0, r0, #23
 676              	.LVL69:
 677 018a C9B2     		uxtb	r1, r1
 678              	.LVL70:
 679 018c C00D     		lsrs	r0, r0, #23
 680 018e 5BE7     		b	.L9
 681              	.LVL71:
 682              	.L13:
 683 0190 CC05     		lsls	r4, r1, #23
 684 0192 C0B2     		uxtb	r0, r0
ARM GAS  /tmp/ccLrOMZj.s 			page 13


 685              	.LVL72:
 686 0194 E10D     		lsrs	r1, r4, #23
 687              	.LVL73:
 688 0196 E3E7     		b	.L8
 689              	.LVL74:
 690              	.L14:
 691 0198 85B2     		uxth	r5, r0
 692 019a C5F59F76 		rsb	r6, r5, #318
 693 019e 731C     		adds	r3, r6, #1
 694 01a0 DA05     		lsls	r2, r3, #23
 695              	.LVL75:
 696 01a2 8EB2     		uxth	r6, r1
 697 01a4 D00D     		lsrs	r0, r2, #23
 698              	.LVL76:
 699 01a6 B2E7     		b	.L11
 700              	.LVL77:
 701              	.L15:
 702 01a8 8DB2     		uxth	r5, r1
 703 01aa C5F59F76 		rsb	r6, r5, #318
 704 01ae 731C     		adds	r3, r6, #1
 705 01b0 DA05     		lsls	r2, r3, #23
 706              	.LVL78:
 707 01b2 86B2     		uxth	r6, r0
 708 01b4 D10D     		lsrs	r1, r2, #23
 709              	.LVL79:
 710 01b6 78E7     		b	.L10
 711              	.L20:
 712              		.align	2
 713              	.L19:
 714 01b8 00000000 		.word	.LANCHOR0
 715              	.LBE600:
 716              	.LBE653:
 717              		.cfi_endproc
 718              	.LFE133:
 719              		.size	set_viewport, .-set_viewport
 720 01bc AFF30080 		.section	.text.gdisp_lld_set_clip,"ax",%progbits
 721              		.align	2
 722              		.p2align 4,,15
 723              		.global	gdisp_lld_set_clip
 724              		.thumb
 725              		.thumb_func
 726              		.type	gdisp_lld_set_clip, %function
 727              	gdisp_lld_set_clip:
 728              	.LFB119:
 729              		.file 3 "../../ext/ugfx/include/gdisp/lld/emulation.c"
 730              		.loc 3 153 0
 731              		.cfi_startproc
 732              		@ args = 0, pretend = 0, frame = 0
 733              		@ frame_needed = 0, uses_anonymous_args = 0
 734              		@ link register save eliminated.
 735              	.LVL80:
 736 0000 2DE9F001 		push	{r4, r5, r6, r7, r8}
 737              	.LCFI1:
 738              		.cfi_def_cfa_offset 20
 739              		.cfi_offset 4, -20
 740              		.cfi_offset 5, -16
 741              		.cfi_offset 6, -12
ARM GAS  /tmp/ccLrOMZj.s 			page 14


 742              		.cfi_offset 7, -8
 743              		.cfi_offset 8, -4
 744              		.loc 3 155 0
 745 0004 164C     		ldr	r4, .L27
 746 0006 2688     		ldrh	r6, [r4, #0]
 747 0008 35B2     		sxth	r5, r6
 748 000a 8542     		cmp	r5, r0
 749 000c 24DD     		ble	.L21
 750              		.loc 3 155 0 is_stmt 0 discriminator 1
 751 000e B4F802C0 		ldrh	ip, [r4, #2]
 752 0012 0FFA8CF7 		sxth	r7, ip
 753 0016 8F42     		cmp	r7, r1
 754 0018 1EDD     		ble	.L21
 755 001a 002A     		cmp	r2, #0
 756 001c 1CDB     		blt	.L21
 757 001e 002B     		cmp	r3, #0
 758 0020 1ADB     		blt	.L21
 759 0022 20EAE070 		bic	r0, r0, r0, asr #31
 760              	.LVL81:
 761              		.loc 3 159 0 is_stmt 1
 762 0026 00EB0208 		add	r8, r0, r2
 763 002a A845     		cmp	r8, r5
 764 002c 21EAE171 		bic	r1, r1, r1, asr #31
 765              	.LVL82:
 766 0030 1FFA80F8 		uxth	r8, r0
 767              		.loc 3 160 0
 768 0034 01EB0305 		add	r5, r1, r3
 769              		.loc 3 159 0
 770 0038 C4BF     		itt	gt
 771 003a C8EB0606 		rsbgt	r6, r8, r6
 772 003e 32B2     		sxthgt	r2, r6
 773              	.LVL83:
 774              		.loc 3 160 0
 775 0040 BD42     		cmp	r5, r7
 776 0042 8DB2     		uxth	r5, r1
 777 0044 C4BF     		itt	gt
 778 0046 C5EB0C03 		rsbgt	r3, r5, ip
 779              	.LVL84:
 780 004a 1BB2     		sxthgt	r3, r3
 781              	.LVL85:
 782              		.loc 3 164 0
 783 004c 4244     		add	r2, r8, r2
 784              	.LVL86:
 785              		.loc 3 165 0
 786 004e EB18     		adds	r3, r5, r3
 787              	.LVL87:
 788              		.loc 3 162 0
 789 0050 2081     		strh	r0, [r4, #8]	@ movhi
 790              		.loc 3 163 0
 791 0052 6181     		strh	r1, [r4, #10]	@ movhi
 792              		.loc 3 164 0
 793 0054 A281     		strh	r2, [r4, #12]	@ movhi
 794              		.loc 3 165 0
 795 0056 E381     		strh	r3, [r4, #14]	@ movhi
 796              	.LVL88:
 797              	.L21:
 798              		.loc 3 166 0
ARM GAS  /tmp/ccLrOMZj.s 			page 15


 799 0058 BDE8F001 		pop	{r4, r5, r6, r7, r8}
 800 005c 7047     		bx	lr
 801              	.L28:
 802 005e 00BF     		.align	2
 803              	.L27:
 804 0060 00000000 		.word	.LANCHOR0
 805              		.cfi_endproc
 806              	.LFE119:
 807              		.size	gdisp_lld_set_clip, .-gdisp_lld_set_clip
 808 0064 AFF30080 		.section	.text.gdisp_lld_init,"ax",%progbits
 808      AFF30080 
 808      AFF30080 
 809              		.align	2
 810              		.p2align 4,,15
 811              		.global	gdisp_lld_init
 812              		.thumb
 813              		.thumb_func
 814              		.type	gdisp_lld_init, %function
 815              	gdisp_lld_init:
 816              	.LFB135:
 817              		.loc 1 137 0
 818              		.cfi_startproc
 819              		@ args = 0, pretend = 0, frame = 32
 820              		@ frame_needed = 0, uses_anonymous_args = 0
 821 0000 2DE9F04F 		push	{r4, r5, r6, r7, r8, r9, sl, fp, lr}
 822              	.LCFI2:
 823              		.cfi_def_cfa_offset 36
 824              		.cfi_offset 4, -36
 825              		.cfi_offset 5, -32
 826              		.cfi_offset 6, -28
 827              		.cfi_offset 7, -24
 828              		.cfi_offset 8, -20
 829              		.cfi_offset 9, -16
 830              		.cfi_offset 10, -12
 831              		.cfi_offset 11, -8
 832              		.cfi_offset 14, -4
 833              	.LBB824:
 834              	.LBB825:
 835              		.loc 2 72 0
 836 0004 40F20003 		movw	r3, #:lower16:.LANCHOR1
 837              		.loc 2 60 0
 838 0008 4FF46054 		mov	r4, #14336
 839 000c C4F20204 		movt	r4, 16386
 840              		.loc 2 72 0
 841 0010 C0F20003 		movt	r3, #:upper16:.LANCHOR1
 842 0014 93E80700 		ldmia	r3, {r0, r1, r2}
 843              		.loc 2 60 0
 844 0018 A66B     		ldr	r6, [r4, #56]
 845              	.LBE825:
 846              	.LBE824:
 847              		.loc 1 137 0
 848 001a 89B0     		sub	sp, sp, #36
 849              	.LCFI3:
 850              		.cfi_def_cfa_offset 72
 851              	.LBB829:
 852              	.LBB826:
 853              		.loc 2 75 0
ARM GAS  /tmp/ccLrOMZj.s 			page 16


 854 001c 0C33     		adds	r3, r3, #12
 855              		.loc 2 72 0
 856 001e 02AD     		add	r5, sp, #8
 857              		.loc 2 60 0
 858 0020 46F00107 		orr	r7, r6, #1
 859 0024 A763     		str	r7, [r4, #56]
 860              		.loc 2 72 0
 861 0026 85E80700 		stmia	r5, {r0, r1, r2}
 862              		.loc 2 75 0
 863 002a 93E80700 		ldmia	r3, {r0, r1, r2}
 864 002e 05AC     		add	r4, sp, #20
 865 0030 84E80700 		stmia	r4, {r0, r1, r2}
 866              		.loc 2 78 0
 867 0034 2846     		mov	r0, r5
 868 0036 40F20261 		movw	r1, #1538
 869 003a FFF7FEFF 		bl	palSetBusMode
 870              	.LVL89:
 871              		.loc 2 79 0
 872 003e 2046     		mov	r0, r4
 873 0040 40F20261 		movw	r1, #1538
 874 0044 FFF7FEFF 		bl	palSetBusMode
 875              	.LVL90:
 876              		.loc 2 82 0
 877 0048 40F60A27 		movw	r7, #2570
 878 004c 4FF02043 		mov	r3, #-1610612736
 879              		.loc 2 90 0
 880 0050 0026     		movs	r6, #0
 881              		.loc 2 82 0
 882 0052 C0F20A07 		movt	r7, 10
 883 0056 5F60     		str	r7, [r3, #4]
 884              		.loc 2 90 0
 885 0058 4FF48061 		mov	r1, #1024
 886 005c C4F20206 		movt	r6, 16386
 887              		.loc 2 88 0
 888 0060 41F21107 		movw	r7, #4113
 889 0064 1F60     		str	r7, [r3, #0]
 890              		.loc 2 90 0
 891 0066 1922     		movs	r2, #25
 892              	.LBE826:
 893              	.LBE829:
 894              	.LBB830:
 895              	.LBB831:
 896              		.loc 2 102 0
 897 0068 8846     		mov	r8, r1
 898              	.LBE831:
 899              	.LBE830:
 900              	.LBB833:
 901              	.LBB827:
 902              		.loc 2 90 0
 903 006a 3046     		mov	r0, r6
 904              	.LBE827:
 905              	.LBE833:
 906              	.LBB834:
 907              	.LBB835:
 908              		.loc 2 153 0
 909 006c 0024     		movs	r4, #0
 910              	.LBE835:
ARM GAS  /tmp/ccLrOMZj.s 			page 17


 911              	.LBE834:
 912              	.LBB839:
 913              	.LBB840:
 914              		.loc 2 144 0
 915 006e 4FF0C045 		mov	r5, #1610612736
 916              	.LBE840:
 917              	.LBE839:
 918              	.LBB843:
 919              	.LBB836:
 920              		.loc 2 153 0
 921 0072 C6F20204 		movt	r4, 24578
 922              	.LBE836:
 923              	.LBE843:
 924              	.LBB844:
 925              	.LBB828:
 926              		.loc 2 90 0
 927 0076 FFF7FEFF 		bl	_pal_lld_setgroupmode
 928              	.LVL91:
 929              	.LBE828:
 930              	.LBE844:
 931              		.loc 1 143 0
 932 007a 1420     		movs	r0, #20
 933              	.LBB845:
 934              	.LBB832:
 935              		.loc 2 102 0
 936 007c A6F81A80 		strh	r8, [r6, #26]	@ movhi
 937              	.LBE832:
 938              	.LBE845:
 939              	.LBB846:
 940              	.LBB841:
 941              		.loc 2 144 0
 942 0080 0027     		movs	r7, #0
 943              	.LBE841:
 944              	.LBE846:
 945              		.loc 1 143 0
 946 0082 FFF7FEFF 		bl	gfxSleepMilliseconds
 947              	.LVL92:
 948              	.LBB847:
 949              	.LBB837:
 950              		.loc 2 153 0
 951 0086 4FF00109 		mov	r9, #1
 952              	.LBE837:
 953              	.LBE847:
 954              		.loc 1 145 0
 955 008a 1420     		movs	r0, #20
 956              	.LBB848:
 957              	.LBB849:
 958              		.loc 2 104 0
 959 008c A6F81880 		strh	r8, [r6, #24]	@ movhi
 960              	.LBE849:
 961              	.LBE848:
 962              		.loc 1 145 0
 963 0090 FFF7FEFF 		bl	gfxSleepMilliseconds
 964              	.LVL93:
 965              	.LBB850:
 966              	.LBB842:
 967              		.loc 2 144 0
ARM GAS  /tmp/ccLrOMZj.s 			page 18


 968 0094 2F80     		strh	r7, [r5, #0]	@ movhi
 969              	.LVL94:
 970              	.LBE842:
 971              	.LBE850:
 972              		.loc 1 150 0
 973 0096 0520     		movs	r0, #5
 974              	.LBB851:
 975              	.LBB838:
 976              		.loc 2 153 0
 977 0098 A4F80090 		strh	r9, [r4, #0]	@ movhi
 978              	.LBE838:
 979              	.LBE851:
 980              		.loc 1 150 0
 981 009c FFF7FEFF 		bl	gfxSleepMicroseconds
 982              	.LVL95:
 983              	.LBB852:
 984              	.LBB853:
 985              		.loc 2 144 0
 986 00a0 4FF0030A 		mov	sl, #3
 987              	.LBE853:
 988              	.LBE852:
 989              	.LBB855:
 990              	.LBB856:
 991              		.loc 2 153 0
 992 00a4 4AF6A401 		movw	r1, #43172
 993              	.LBE856:
 994              	.LBE855:
 995              	.LBB858:
 996              	.LBB854:
 997              		.loc 2 144 0
 998 00a8 A5F800A0 		strh	sl, [r5, #0]	@ movhi
 999              	.LVL96:
 1000              	.LBE854:
 1001              	.LBE858:
 1002              		.loc 1 151 0
 1003 00ac 0520     		movs	r0, #5
 1004              	.LBB859:
 1005              	.LBB857:
 1006              		.loc 2 153 0
 1007 00ae 2180     		strh	r1, [r4, #0]	@ movhi
 1008              	.LBE857:
 1009              	.LBE859:
 1010              		.loc 1 151 0
 1011 00b0 FFF7FEFF 		bl	gfxSleepMicroseconds
 1012              	.LVL97:
 1013              	.LBB860:
 1014              	.LBB861:
 1015              		.loc 2 144 0
 1016 00b4 0C20     		movs	r0, #12
 1017 00b6 2880     		strh	r0, [r5, #0]	@ movhi
 1018              	.LVL98:
 1019              	.LBE861:
 1020              	.LBE860:
 1021              		.loc 1 152 0
 1022 00b8 0520     		movs	r0, #5
 1023              	.LBB862:
 1024              	.LBB863:
ARM GAS  /tmp/ccLrOMZj.s 			page 19


 1025              		.loc 2 153 0
 1026 00ba 2780     		strh	r7, [r4, #0]	@ movhi
 1027              	.LBE863:
 1028              	.LBE862:
 1029              		.loc 1 152 0
 1030 00bc FFF7FEFF 		bl	gfxSleepMicroseconds
 1031              	.LVL99:
 1032              	.LBB864:
 1033              	.LBB865:
 1034              		.loc 2 153 0
 1035 00c0 40F60C06 		movw	r6, #2060
 1036              	.LBE865:
 1037              	.LBE864:
 1038              	.LBB867:
 1039              	.LBB868:
 1040              		.loc 2 144 0
 1041 00c4 0D22     		movs	r2, #13
 1042 00c6 2A80     		strh	r2, [r5, #0]	@ movhi
 1043              	.LVL100:
 1044              	.LBE868:
 1045              	.LBE867:
 1046              		.loc 1 153 0
 1047 00c8 0520     		movs	r0, #5
 1048              	.LBB869:
 1049              	.LBB866:
 1050              		.loc 2 153 0
 1051 00ca 2680     		strh	r6, [r4, #0]	@ movhi
 1052              	.LBE866:
 1053              	.LBE869:
 1054              		.loc 1 153 0
 1055 00cc FFF7FEFF 		bl	gfxSleepMicroseconds
 1056              	.LVL101:
 1057              	.LBB870:
 1058              	.LBB871:
 1059              		.loc 2 144 0
 1060 00d0 0E23     		movs	r3, #14
 1061              	.LBE871:
 1062              	.LBE870:
 1063              	.LBB873:
 1064              	.LBB874:
 1065              		.loc 2 153 0
 1066 00d2 4FF42C51 		mov	r1, #11008
 1067              	.LBE874:
 1068              	.LBE873:
 1069              	.LBB876:
 1070              	.LBB872:
 1071              		.loc 2 144 0
 1072 00d6 2B80     		strh	r3, [r5, #0]	@ movhi
 1073              	.LVL102:
 1074              	.LBE872:
 1075              	.LBE876:
 1076              		.loc 1 154 0
 1077 00d8 0520     		movs	r0, #5
 1078              	.LBB877:
 1079              	.LBB875:
 1080              		.loc 2 153 0
 1081 00da 2180     		strh	r1, [r4, #0]	@ movhi
ARM GAS  /tmp/ccLrOMZj.s 			page 20


 1082              	.LBE875:
 1083              	.LBE877:
 1084              		.loc 1 154 0
 1085 00dc FFF7FEFF 		bl	gfxSleepMicroseconds
 1086              	.LVL103:
 1087              	.LBB878:
 1088              	.LBB879:
 1089              		.loc 2 153 0
 1090 00e0 B022     		movs	r2, #176
 1091              	.LBE879:
 1092              	.LBE878:
 1093              	.LBB881:
 1094              	.LBB882:
 1095              		.loc 2 144 0
 1096 00e2 1E20     		movs	r0, #30
 1097 00e4 2880     		strh	r0, [r5, #0]	@ movhi
 1098              	.LVL104:
 1099              	.LBE882:
 1100              	.LBE881:
 1101              	.LBB883:
 1102              	.LBB884:
 1103              		.loc 2 153 0
 1104 00e6 42F63F36 		movw	r6, #11071
 1105              	.LBE884:
 1106              	.LBE883:
 1107              	.LBB886:
 1108              	.LBB880:
 1109 00ea 2280     		strh	r2, [r4, #0]	@ movhi
 1110              	.LBE880:
 1111              	.LBE886:
 1112              		.loc 1 155 0
 1113 00ec 0520     		movs	r0, #5
 1114 00ee FFF7FEFF 		bl	gfxSleepMicroseconds
 1115              	.LVL105:
 1116              	.LBB887:
 1117              	.LBB888:
 1118              		.loc 2 144 0
 1119 00f2 A5F80090 		strh	r9, [r5, #0]	@ movhi
 1120              	.LVL106:
 1121              	.LBE888:
 1122              	.LBE887:
 1123              		.loc 1 156 0
 1124 00f6 0520     		movs	r0, #5
 1125              	.LBB889:
 1126              	.LBB885:
 1127              		.loc 2 153 0
 1128 00f8 2680     		strh	r6, [r4, #0]	@ movhi
 1129              	.LBE885:
 1130              	.LBE889:
 1131              		.loc 1 156 0
 1132 00fa FFF7FEFF 		bl	gfxSleepMicroseconds
 1133              	.LVL107:
 1134              	.LBB890:
 1135              	.LBB891:
 1136              		.loc 2 153 0
 1137 00fe 4FF4C061 		mov	r1, #1536
 1138              	.LBE891:
ARM GAS  /tmp/ccLrOMZj.s 			page 21


 1139              	.LBE890:
 1140              	.LBB893:
 1141              	.LBB894:
 1142              		.loc 2 144 0
 1143 0102 0223     		movs	r3, #2
 1144 0104 2B80     		strh	r3, [r5, #0]	@ movhi
 1145              	.LVL108:
 1146              	.LBE894:
 1147              	.LBE893:
 1148              		.loc 1 157 0
 1149 0106 0520     		movs	r0, #5
 1150              	.LBB895:
 1151              	.LBB892:
 1152              		.loc 2 153 0
 1153 0108 2180     		strh	r1, [r4, #0]	@ movhi
 1154              	.LBE892:
 1155              	.LBE895:
 1156              		.loc 1 157 0
 1157 010a FFF7FEFF 		bl	gfxSleepMicroseconds
 1158              	.LVL109:
 1159              	.LBB896:
 1160              	.LBB897:
 1161              		.loc 2 144 0
 1162 010e 1020     		movs	r0, #16
 1163 0110 2880     		strh	r0, [r5, #0]	@ movhi
 1164              	.LVL110:
 1165              	.LBE897:
 1166              	.LBE896:
 1167              		.loc 1 158 0
 1168 0112 0520     		movs	r0, #5
 1169              	.LBB898:
 1170              	.LBB899:
 1171              		.loc 2 153 0
 1172 0114 2780     		strh	r7, [r4, #0]	@ movhi
 1173              	.LBE899:
 1174              	.LBE898:
 1175              	.LBB900:
 1176              	.LBB901:
 1177              		.loc 2 144 0
 1178 0116 0526     		movs	r6, #5
 1179              	.LBE901:
 1180              	.LBE900:
 1181              		.loc 1 158 0
 1182 0118 FFF7FEFF 		bl	gfxSleepMicroseconds
 1183              	.LVL111:
 1184              	.LBB903:
 1185              	.LBB904:
 1186              		.loc 2 144 0
 1187 011c 1122     		movs	r2, #17
 1188              	.LBE904:
 1189              	.LBE903:
 1190              	.LBB906:
 1191              	.LBB907:
 1192              		.loc 2 153 0
 1193 011e 46F27003 		movw	r3, #24688
 1194              	.LBE907:
 1195              	.LBE906:
ARM GAS  /tmp/ccLrOMZj.s 			page 22


 1196              	.LBB909:
 1197              	.LBB905:
 1198              		.loc 2 144 0
 1199 0122 2A80     		strh	r2, [r5, #0]	@ movhi
 1200              	.LVL112:
 1201              	.LBE905:
 1202              	.LBE909:
 1203              		.loc 1 159 0
 1204 0124 3046     		mov	r0, r6
 1205              	.LBB910:
 1206              	.LBB908:
 1207              		.loc 2 153 0
 1208 0126 2380     		strh	r3, [r4, #0]	@ movhi
 1209              	.LBE908:
 1210              	.LBE910:
 1211              		.loc 1 159 0
 1212 0128 FFF7FEFF 		bl	gfxSleepMicroseconds
 1213              	.LVL113:
 1214              	.LBB911:
 1215              	.LBB902:
 1216              		.loc 2 144 0
 1217 012c 2E80     		strh	r6, [r5, #0]	@ movhi
 1218              	.LVL114:
 1219              	.LBE902:
 1220              	.LBE911:
 1221              		.loc 1 160 0
 1222 012e 3046     		mov	r0, r6
 1223              	.LBB912:
 1224              	.LBB913:
 1225              		.loc 2 153 0
 1226 0130 2780     		strh	r7, [r4, #0]	@ movhi
 1227              	.LBE913:
 1228              	.LBE912:
 1229              		.loc 1 160 0
 1230 0132 FFF7FEFF 		bl	gfxSleepMicroseconds
 1231              	.LVL115:
 1232              	.LBB914:
 1233              	.LBB915:
 1234              		.loc 2 144 0
 1235 0136 0621     		movs	r1, #6
 1236 0138 2980     		strh	r1, [r5, #0]	@ movhi
 1237              	.LVL116:
 1238              	.LBE915:
 1239              	.LBE914:
 1240              		.loc 1 161 0
 1241 013a 3046     		mov	r0, r6
 1242              	.LBB916:
 1243              	.LBB917:
 1244              		.loc 2 153 0
 1245 013c 2780     		strh	r7, [r4, #0]	@ movhi
 1246              	.LBE917:
 1247              	.LBE916:
 1248              		.loc 1 161 0
 1249 013e FFF7FEFF 		bl	gfxSleepMicroseconds
 1250              	.LVL117:
 1251              	.LBB918:
 1252              	.LBB919:
ARM GAS  /tmp/ccLrOMZj.s 			page 23


 1253              		.loc 2 153 0
 1254 0142 4EF61C72 		movw	r2, #61212
 1255              	.LBE919:
 1256              	.LBE918:
 1257              	.LBB921:
 1258              	.LBB922:
 1259              		.loc 2 144 0
 1260 0146 1620     		movs	r0, #22
 1261 0148 2880     		strh	r0, [r5, #0]	@ movhi
 1262              	.LVL118:
 1263              	.LBE922:
 1264              	.LBE921:
 1265              	.LBB923:
 1266              	.LBB920:
 1267              		.loc 2 153 0
 1268 014a 2280     		strh	r2, [r4, #0]	@ movhi
 1269              	.LBE920:
 1270              	.LBE923:
 1271              		.loc 1 162 0
 1272 014c 3046     		mov	r0, r6
 1273 014e FFF7FEFF 		bl	gfxSleepMicroseconds
 1274              	.LVL119:
 1275              	.LBB924:
 1276              	.LBB925:
 1277              		.loc 2 144 0
 1278 0152 1723     		movs	r3, #23
 1279 0154 2B80     		strh	r3, [r5, #0]	@ movhi
 1280              	.LVL120:
 1281              	.LBE925:
 1282              	.LBE924:
 1283              		.loc 1 163 0
 1284 0156 3046     		mov	r0, r6
 1285              	.LBB926:
 1286              	.LBB927:
 1287              		.loc 2 153 0
 1288 0158 A4F800A0 		strh	sl, [r4, #0]	@ movhi
 1289              	.LBE927:
 1290              	.LBE926:
 1291              		.loc 1 163 0
 1292 015c FFF7FEFF 		bl	gfxSleepMicroseconds
 1293              	.LVL121:
 1294              	.LBB928:
 1295              	.LBB929:
 1296              		.loc 2 144 0
 1297 0160 0721     		movs	r1, #7
 1298              	.LBE929:
 1299              	.LBE928:
 1300              	.LBB931:
 1301              	.LBB932:
 1302              		.loc 2 153 0
 1303 0162 01F59672 		add	r2, r1, #300
 1304              	.LBE932:
 1305              	.LBE931:
 1306              	.LBB934:
 1307              	.LBB930:
 1308              		.loc 2 144 0
 1309 0166 2980     		strh	r1, [r5, #0]	@ movhi
ARM GAS  /tmp/ccLrOMZj.s 			page 24


 1310              	.LVL122:
 1311              	.LBE930:
 1312              	.LBE934:
 1313              		.loc 1 164 0
 1314 0168 3046     		mov	r0, r6
 1315              	.LBB935:
 1316              	.LBB933:
 1317              		.loc 2 153 0
 1318 016a 2280     		strh	r2, [r4, #0]	@ movhi
 1319              	.LBE933:
 1320              	.LBE935:
 1321              		.loc 1 164 0
 1322 016c FFF7FEFF 		bl	gfxSleepMicroseconds
 1323              	.LVL123:
 1324              	.LBB936:
 1325              	.LBB937:
 1326              		.loc 2 144 0
 1327 0170 0B20     		movs	r0, #11
 1328 0172 2880     		strh	r0, [r5, #0]	@ movhi
 1329              	.LVL124:
 1330              	.LBE937:
 1331              	.LBE936:
 1332              		.loc 1 165 0
 1333 0174 3046     		mov	r0, r6
 1334              	.LBB938:
 1335              	.LBB939:
 1336              		.loc 2 153 0
 1337 0176 2780     		strh	r7, [r4, #0]	@ movhi
 1338              	.LBE939:
 1339              	.LBE938:
 1340              		.loc 1 165 0
 1341 0178 FFF7FEFF 		bl	gfxSleepMicroseconds
 1342              	.LVL125:
 1343              	.LBB940:
 1344              	.LBB941:
 1345              		.loc 2 144 0
 1346 017c 0F23     		movs	r3, #15
 1347 017e 2B80     		strh	r3, [r5, #0]	@ movhi
 1348              	.LVL126:
 1349              	.LBE941:
 1350              	.LBE940:
 1351              		.loc 1 166 0
 1352 0180 3046     		mov	r0, r6
 1353              	.LBB942:
 1354              	.LBB943:
 1355              		.loc 2 153 0
 1356 0182 2780     		strh	r7, [r4, #0]	@ movhi
 1357              	.LBE943:
 1358              	.LBE942:
 1359              		.loc 1 166 0
 1360 0184 FFF7FEFF 		bl	gfxSleepMicroseconds
 1361              	.LVL127:
 1362              	.LBB944:
 1363              	.LBB945:
 1364              		.loc 2 144 0
 1365 0188 4121     		movs	r1, #65
 1366 018a 2980     		strh	r1, [r5, #0]	@ movhi
ARM GAS  /tmp/ccLrOMZj.s 			page 25


 1367              	.LVL128:
 1368              	.LBE945:
 1369              	.LBE944:
 1370              		.loc 1 167 0
 1371 018c 3046     		mov	r0, r6
 1372              	.LBB946:
 1373              	.LBB947:
 1374              		.loc 2 153 0
 1375 018e 2780     		strh	r7, [r4, #0]	@ movhi
 1376              	.LBE947:
 1377              	.LBE946:
 1378              		.loc 1 167 0
 1379 0190 FFF7FEFF 		bl	gfxSleepMicroseconds
 1380              	.LVL129:
 1381              	.LBB948:
 1382              	.LBB949:
 1383              		.loc 2 144 0
 1384 0194 4222     		movs	r2, #66
 1385 0196 2A80     		strh	r2, [r5, #0]	@ movhi
 1386              	.LVL130:
 1387              	.LBE949:
 1388              	.LBE948:
 1389              		.loc 1 168 0
 1390 0198 3046     		mov	r0, r6
 1391              	.LBB950:
 1392              	.LBB951:
 1393              		.loc 2 153 0
 1394 019a 2780     		strh	r7, [r4, #0]	@ movhi
 1395              	.LBE951:
 1396              	.LBE950:
 1397              		.loc 1 168 0
 1398 019c FFF7FEFF 		bl	gfxSleepMicroseconds
 1399              	.LVL131:
 1400              	.LBB952:
 1401              	.LBB953:
 1402              		.loc 2 144 0
 1403 01a0 4820     		movs	r0, #72
 1404 01a2 2880     		strh	r0, [r5, #0]	@ movhi
 1405              	.LVL132:
 1406              	.LBE953:
 1407              	.LBE952:
 1408              		.loc 1 169 0
 1409 01a4 3046     		mov	r0, r6
 1410              	.LBB954:
 1411              	.LBB955:
 1412              		.loc 2 153 0
 1413 01a6 2780     		strh	r7, [r4, #0]	@ movhi
 1414              	.LBE955:
 1415              	.LBE954:
 1416              		.loc 1 169 0
 1417 01a8 FFF7FEFF 		bl	gfxSleepMicroseconds
 1418              	.LVL133:
 1419              	.LBB956:
 1420              	.LBB957:
 1421              		.loc 2 153 0
 1422 01ac 40F23F1B 		movw	fp, #319
 1423              	.LBE957:
ARM GAS  /tmp/ccLrOMZj.s 			page 26


 1424              	.LBE956:
 1425              	.LBB959:
 1426              	.LBB960:
 1427              		.loc 2 144 0
 1428 01b0 4923     		movs	r3, #73
 1429 01b2 2B80     		strh	r3, [r5, #0]	@ movhi
 1430              	.LVL134:
 1431              	.LBE960:
 1432              	.LBE959:
 1433              		.loc 1 170 0
 1434 01b4 3046     		mov	r0, r6
 1435              	.LBB961:
 1436              	.LBB958:
 1437              		.loc 2 153 0
 1438 01b6 A4F800B0 		strh	fp, [r4, #0]	@ movhi
 1439              	.LBE958:
 1440              	.LBE961:
 1441              		.loc 1 170 0
 1442 01ba FFF7FEFF 		bl	gfxSleepMicroseconds
 1443              	.LVL135:
 1444              	.LBB962:
 1445              	.LBB963:
 1446              		.loc 2 144 0
 1447 01be 4A21     		movs	r1, #74
 1448 01c0 2980     		strh	r1, [r5, #0]	@ movhi
 1449              	.LVL136:
 1450              	.LBE963:
 1451              	.LBE962:
 1452              		.loc 1 171 0
 1453 01c2 3046     		mov	r0, r6
 1454              	.LBB964:
 1455              	.LBB965:
 1456              		.loc 2 153 0
 1457 01c4 2780     		strh	r7, [r4, #0]	@ movhi
 1458              	.LBE965:
 1459              	.LBE964:
 1460              		.loc 1 171 0
 1461 01c6 FFF7FEFF 		bl	gfxSleepMicroseconds
 1462              	.LVL137:
 1463              	.LBB966:
 1464              	.LBB967:
 1465              		.loc 2 144 0
 1466 01ca 4B22     		movs	r2, #75
 1467 01cc 2A80     		strh	r2, [r5, #0]	@ movhi
 1468              	.LVL138:
 1469              	.LBE967:
 1470              	.LBE966:
 1471              		.loc 1 172 0
 1472 01ce 3046     		mov	r0, r6
 1473              	.LBB968:
 1474              	.LBB969:
 1475              		.loc 2 153 0
 1476 01d0 2780     		strh	r7, [r4, #0]	@ movhi
 1477              	.LBE969:
 1478              	.LBE968:
 1479              		.loc 1 172 0
 1480 01d2 FFF7FEFF 		bl	gfxSleepMicroseconds
ARM GAS  /tmp/ccLrOMZj.s 			page 27


 1481              	.LVL139:
 1482              	.LBB970:
 1483              	.LBB971:
 1484              		.loc 2 153 0
 1485 01d6 4FF46F43 		mov	r3, #61184
 1486              	.LBE971:
 1487              	.LBE970:
 1488              	.LBB973:
 1489              	.LBB974:
 1490              		.loc 2 144 0
 1491 01da 4420     		movs	r0, #68
 1492 01dc 2880     		strh	r0, [r5, #0]	@ movhi
 1493              	.LVL140:
 1494              	.LBE974:
 1495              	.LBE973:
 1496              	.LBB975:
 1497              	.LBB972:
 1498              		.loc 2 153 0
 1499 01de 2380     		strh	r3, [r4, #0]	@ movhi
 1500              	.LBE972:
 1501              	.LBE975:
 1502              		.loc 1 173 0
 1503 01e0 3046     		mov	r0, r6
 1504 01e2 FFF7FEFF 		bl	gfxSleepMicroseconds
 1505              	.LVL141:
 1506              	.LBB976:
 1507              	.LBB977:
 1508              		.loc 2 144 0
 1509 01e6 4521     		movs	r1, #69
 1510 01e8 2980     		strh	r1, [r5, #0]	@ movhi
 1511              	.LVL142:
 1512              	.LBE977:
 1513              	.LBE976:
 1514              		.loc 1 174 0
 1515 01ea 3046     		mov	r0, r6
 1516              	.LBB978:
 1517              	.LBB979:
 1518              		.loc 2 153 0
 1519 01ec 2780     		strh	r7, [r4, #0]	@ movhi
 1520              	.LBE979:
 1521              	.LBE978:
 1522              		.loc 1 174 0
 1523 01ee FFF7FEFF 		bl	gfxSleepMicroseconds
 1524              	.LVL143:
 1525              	.LBB980:
 1526              	.LBB981:
 1527              		.loc 2 144 0
 1528 01f2 4622     		movs	r2, #70
 1529 01f4 2A80     		strh	r2, [r5, #0]	@ movhi
 1530              	.LVL144:
 1531              	.LBE981:
 1532              	.LBE980:
 1533              		.loc 1 175 0
 1534 01f6 3046     		mov	r0, r6
 1535              	.LBB982:
 1536              	.LBB983:
 1537              		.loc 2 153 0
ARM GAS  /tmp/ccLrOMZj.s 			page 28


 1538 01f8 A4F800B0 		strh	fp, [r4, #0]	@ movhi
 1539              	.LBE983:
 1540              	.LBE982:
 1541              		.loc 1 175 0
 1542 01fc FFF7FEFF 		bl	gfxSleepMicroseconds
 1543              	.LVL145:
 1544              	.LBB984:
 1545              	.LBB985:
 1546              		.loc 2 153 0
 1547 0200 40F20773 		movw	r3, #1799
 1548              	.LBE985:
 1549              	.LBE984:
 1550              	.LBB987:
 1551              	.LBB988:
 1552              		.loc 2 144 0
 1553 0204 3020     		movs	r0, #48
 1554 0206 2880     		strh	r0, [r5, #0]	@ movhi
 1555              	.LVL146:
 1556              	.LBE988:
 1557              	.LBE987:
 1558              	.LBB989:
 1559              	.LBB986:
 1560              		.loc 2 153 0
 1561 0208 2380     		strh	r3, [r4, #0]	@ movhi
 1562              	.LBE986:
 1563              	.LBE989:
 1564              		.loc 1 176 0
 1565 020a 3046     		mov	r0, r6
 1566 020c FFF7FEFF 		bl	gfxSleepMicroseconds
 1567              	.LVL147:
 1568              	.LBB990:
 1569              	.LBB991:
 1570              		.loc 2 153 0
 1571 0210 4FF40178 		mov	r8, #516
 1572              	.LBE991:
 1573              	.LBE990:
 1574              	.LBB993:
 1575              	.LBB994:
 1576              		.loc 2 144 0
 1577 0214 3121     		movs	r1, #49
 1578 0216 2980     		strh	r1, [r5, #0]	@ movhi
 1579              	.LVL148:
 1580              	.LBE994:
 1581              	.LBE993:
 1582              		.loc 1 177 0
 1583 0218 3046     		mov	r0, r6
 1584              	.LBB995:
 1585              	.LBB992:
 1586              		.loc 2 153 0
 1587 021a A4F80080 		strh	r8, [r4, #0]	@ movhi
 1588              	.LBE992:
 1589              	.LBE995:
 1590              		.loc 1 177 0
 1591 021e FFF7FEFF 		bl	gfxSleepMicroseconds
 1592              	.LVL149:
 1593              	.LBB996:
 1594              	.LBB997:
ARM GAS  /tmp/ccLrOMZj.s 			page 29


 1595              		.loc 2 144 0
 1596 0222 3222     		movs	r2, #50
 1597 0224 2A80     		strh	r2, [r5, #0]	@ movhi
 1598              	.LVL150:
 1599              	.LBE997:
 1600              	.LBE996:
 1601              		.loc 1 178 0
 1602 0226 3046     		mov	r0, r6
 1603              	.LBB998:
 1604              	.LBB999:
 1605              		.loc 2 153 0
 1606 0228 A4F80080 		strh	r8, [r4, #0]	@ movhi
 1607              	.LBE999:
 1608              	.LBE998:
 1609              	.LBB1000:
 1610              	.LBB1001:
 1611 022c 40F2025B 		movw	fp, #1282
 1612              	.LBE1001:
 1613              	.LBE1000:
 1614              		.loc 1 178 0
 1615 0230 0192     		str	r2, [sp, #4]
 1616 0232 FFF7FEFF 		bl	gfxSleepMicroseconds
 1617              	.LVL151:
 1618              	.LBB1003:
 1619              	.LBB1004:
 1620              		.loc 2 144 0
 1621 0236 3320     		movs	r0, #51
 1622 0238 2880     		strh	r0, [r5, #0]	@ movhi
 1623              	.LVL152:
 1624              	.LBE1004:
 1625              	.LBE1003:
 1626              		.loc 1 179 0
 1627 023a 3046     		mov	r0, r6
 1628              	.LBB1005:
 1629              	.LBB1002:
 1630              		.loc 2 153 0
 1631 023c A4F800B0 		strh	fp, [r4, #0]	@ movhi
 1632              	.LBE1002:
 1633              	.LBE1005:
 1634              		.loc 1 179 0
 1635 0240 FFF7FEFF 		bl	gfxSleepMicroseconds
 1636              	.LVL153:
 1637              	.LBB1006:
 1638              	.LBB1007:
 1639              		.loc 2 144 0
 1640 0244 3423     		movs	r3, #52
 1641              	.LBE1007:
 1642              	.LBE1006:
 1643              	.LBB1009:
 1644              	.LBB1010:
 1645              		.loc 2 153 0
 1646 0246 40F20751 		movw	r1, #1287
 1647              	.LBE1010:
 1648              	.LBE1009:
 1649              	.LBB1012:
 1650              	.LBB1008:
 1651              		.loc 2 144 0
ARM GAS  /tmp/ccLrOMZj.s 			page 30


 1652 024a 2B80     		strh	r3, [r5, #0]	@ movhi
 1653              	.LVL154:
 1654              	.LBE1008:
 1655              	.LBE1012:
 1656              		.loc 1 180 0
 1657 024c 3046     		mov	r0, r6
 1658              	.LBB1013:
 1659              	.LBB1011:
 1660              		.loc 2 153 0
 1661 024e 2180     		strh	r1, [r4, #0]	@ movhi
 1662              	.LBE1011:
 1663              	.LBE1013:
 1664              		.loc 1 180 0
 1665 0250 FFF7FEFF 		bl	gfxSleepMicroseconds
 1666              	.LVL155:
 1667              	.LBB1014:
 1668              	.LBB1015:
 1669              		.loc 2 144 0
 1670 0254 3522     		movs	r2, #53
 1671 0256 2A80     		strh	r2, [r5, #0]	@ movhi
 1672              	.LVL156:
 1673              	.LBE1015:
 1674              	.LBE1014:
 1675              		.loc 1 181 0
 1676 0258 3046     		mov	r0, r6
 1677              	.LBB1016:
 1678              	.LBB1017:
 1679              		.loc 2 153 0
 1680 025a A4F80080 		strh	r8, [r4, #0]	@ movhi
 1681              	.LBE1017:
 1682              	.LBE1016:
 1683              		.loc 1 181 0
 1684 025e FFF7FEFF 		bl	gfxSleepMicroseconds
 1685              	.LVL157:
 1686              	.LBB1018:
 1687              	.LBB1019:
 1688              		.loc 2 144 0
 1689 0262 3620     		movs	r0, #54
 1690 0264 2880     		strh	r0, [r5, #0]	@ movhi
 1691              	.LVL158:
 1692              	.LBE1019:
 1693              	.LBE1018:
 1694              		.loc 1 182 0
 1695 0266 3046     		mov	r0, r6
 1696              	.LBB1020:
 1697              	.LBB1021:
 1698              		.loc 2 153 0
 1699 0268 A4F80080 		strh	r8, [r4, #0]	@ movhi
 1700              	.LBE1021:
 1701              	.LBE1020:
 1702              		.loc 1 182 0
 1703 026c FFF7FEFF 		bl	gfxSleepMicroseconds
 1704              	.LVL159:
 1705              	.LBB1022:
 1706              	.LBB1023:
 1707              		.loc 2 144 0
 1708 0270 3723     		movs	r3, #55
ARM GAS  /tmp/ccLrOMZj.s 			page 31


 1709 0272 2B80     		strh	r3, [r5, #0]	@ movhi
 1710              	.LVL160:
 1711              	.LBE1023:
 1712              	.LBE1022:
 1713              		.loc 1 183 0
 1714 0274 3046     		mov	r0, r6
 1715              	.LBB1024:
 1716              	.LBB1025:
 1717              		.loc 2 153 0
 1718 0276 A4F800B0 		strh	fp, [r4, #0]	@ movhi
 1719              	.LBE1025:
 1720              	.LBE1024:
 1721              		.loc 1 183 0
 1722 027a FFF7FEFF 		bl	gfxSleepMicroseconds
 1723              	.LVL161:
 1724              	.LBB1026:
 1725              	.LBB1027:
 1726              		.loc 2 153 0
 1727 027e 08F1FE08 		add	r8, r8, #254
 1728              	.LBE1027:
 1729              	.LBE1026:
 1730              	.LBB1029:
 1731              	.LBB1030:
 1732              		.loc 2 144 0
 1733 0282 3A21     		movs	r1, #58
 1734 0284 2980     		strh	r1, [r5, #0]	@ movhi
 1735              	.LVL162:
 1736              	.LBE1030:
 1737              	.LBE1029:
 1738              		.loc 1 184 0
 1739 0286 3046     		mov	r0, r6
 1740              	.LBB1031:
 1741              	.LBB1028:
 1742              		.loc 2 153 0
 1743 0288 A4F80080 		strh	r8, [r4, #0]	@ movhi
 1744              	.LBE1028:
 1745              	.LBE1031:
 1746              		.loc 1 184 0
 1747 028c FFF7FEFF 		bl	gfxSleepMicroseconds
 1748              	.LVL163:
 1749              	.LBB1032:
 1750              	.LBB1033:
 1751              		.loc 2 144 0
 1752 0290 3B22     		movs	r2, #59
 1753 0292 2A80     		strh	r2, [r5, #0]	@ movhi
 1754              	.LVL164:
 1755              	.LBE1033:
 1756              	.LBE1032:
 1757              		.loc 1 185 0
 1758 0294 3046     		mov	r0, r6
 1759              	.LBB1034:
 1760              	.LBB1035:
 1761              		.loc 2 153 0
 1762 0296 A4F80080 		strh	r8, [r4, #0]	@ movhi
 1763              	.LBE1035:
 1764              	.LBE1034:
 1765              		.loc 1 185 0
ARM GAS  /tmp/ccLrOMZj.s 			page 32


 1766 029a FFF7FEFF 		bl	gfxSleepMicroseconds
 1767              	.LVL165:
 1768              	.LBB1036:
 1769              	.LBB1037:
 1770              		.loc 2 144 0
 1771 029e 2320     		movs	r0, #35
 1772 02a0 2880     		strh	r0, [r5, #0]	@ movhi
 1773              	.LVL166:
 1774              	.LBE1037:
 1775              	.LBE1036:
 1776              		.loc 1 186 0
 1777 02a2 3046     		mov	r0, r6
 1778              	.LBB1038:
 1779              	.LBB1039:
 1780              		.loc 2 153 0
 1781 02a4 2780     		strh	r7, [r4, #0]	@ movhi
 1782              	.LBE1039:
 1783              	.LBE1038:
 1784              		.loc 1 186 0
 1785 02a6 FFF7FEFF 		bl	gfxSleepMicroseconds
 1786              	.LVL167:
 1787              	.LBB1040:
 1788              	.LBB1041:
 1789              		.loc 2 144 0
 1790 02aa 2423     		movs	r3, #36
 1791 02ac 2B80     		strh	r3, [r5, #0]	@ movhi
 1792              	.LVL168:
 1793              	.LBE1041:
 1794              	.LBE1040:
 1795              		.loc 1 187 0
 1796 02ae 3046     		mov	r0, r6
 1797              	.LBB1042:
 1798              	.LBB1043:
 1799              		.loc 2 153 0
 1800 02b0 2780     		strh	r7, [r4, #0]	@ movhi
 1801              	.LBE1043:
 1802              	.LBE1042:
 1803              		.loc 1 187 0
 1804 02b2 FFF7FEFF 		bl	gfxSleepMicroseconds
 1805              	.LVL169:
 1806              	.LBB1044:
 1807              	.LBB1045:
 1808              		.loc 2 144 0
 1809 02b6 2521     		movs	r1, #37
 1810              	.LBE1045:
 1811              	.LBE1044:
 1812              	.LBB1047:
 1813              	.LBB1048:
 1814              		.loc 2 153 0
 1815 02b8 4FF40042 		mov	r2, #32768
 1816              	.LBE1048:
 1817              	.LBE1047:
 1818              	.LBB1050:
 1819              	.LBB1046:
 1820              		.loc 2 144 0
 1821 02bc 2980     		strh	r1, [r5, #0]	@ movhi
 1822              	.LVL170:
ARM GAS  /tmp/ccLrOMZj.s 			page 33


 1823              	.LBE1046:
 1824              	.LBE1050:
 1825              		.loc 1 188 0
 1826 02be 3046     		mov	r0, r6
 1827              	.LBB1051:
 1828              	.LBB1049:
 1829              		.loc 2 153 0
 1830 02c0 2280     		strh	r2, [r4, #0]	@ movhi
 1831              	.LBE1049:
 1832              	.LBE1051:
 1833              		.loc 1 188 0
 1834 02c2 FFF7FEFF 		bl	gfxSleepMicroseconds
 1835              	.LVL171:
 1836              	.LBB1052:
 1837              	.LBB1053:
 1838              		.loc 2 144 0
 1839 02c6 4F20     		movs	r0, #79
 1840 02c8 2880     		strh	r0, [r5, #0]	@ movhi
 1841              	.LVL172:
 1842              	.LBE1053:
 1843              	.LBE1052:
 1844              		.loc 1 189 0
 1845 02ca 3046     		mov	r0, r6
 1846              	.LBB1054:
 1847              	.LBB1055:
 1848              		.loc 2 153 0
 1849 02cc 2780     		strh	r7, [r4, #0]	@ movhi
 1850              	.LBE1055:
 1851              	.LBE1054:
 1852              		.loc 1 189 0
 1853 02ce FFF7FEFF 		bl	gfxSleepMicroseconds
 1854              	.LVL173:
 1855              	.LBB1056:
 1856              	.LBB1057:
 1857              		.loc 2 144 0
 1858 02d2 4E23     		movs	r3, #78
 1859 02d4 2B80     		strh	r3, [r5, #0]	@ movhi
 1860              	.LVL174:
 1861              	.LBE1057:
 1862              	.LBE1056:
 1863              		.loc 1 190 0
 1864 02d6 3046     		mov	r0, r6
 1865              	.LBB1058:
 1866              	.LBB1059:
 1867              		.loc 2 153 0
 1868 02d8 2780     		strh	r7, [r4, #0]	@ movhi
 1869              	.LBE1059:
 1870              	.LBE1058:
 1871              		.loc 1 190 0
 1872 02da FFF7FEFF 		bl	gfxSleepMicroseconds
 1873              	.LVL175:
 1874              		.loc 1 199 0
 1875 02de 40F20003 		movw	r3, #:lower16:.LANCHOR0
 1876 02e2 C0F20003 		movt	r3, #:upper16:.LANCHOR0
 1877              		.loc 1 203 0
 1878 02e6 6424     		movs	r4, #100
 1879 02e8 9C71     		strb	r4, [r3, #6]
ARM GAS  /tmp/ccLrOMZj.s 			page 34


 1880              		.loc 1 204 0
 1881 02ea 0199     		ldr	r1, [sp, #4]
 1882              		.loc 1 201 0
 1883 02ec 1F71     		strb	r7, [r3, #4]
 1884              		.loc 1 199 0
 1885 02ee F020     		movs	r0, #240
 1886              		.loc 1 200 0
 1887 02f0 4FF4A072 		mov	r2, #320
 1888              		.loc 1 199 0
 1889 02f4 1880     		strh	r0, [r3, #0]	@ movhi
 1890              		.loc 1 208 0
 1891 02f6 9881     		strh	r0, [r3, #12]	@ movhi
 1892              		.loc 1 200 0
 1893 02f8 5A80     		strh	r2, [r3, #2]	@ movhi
 1894              		.loc 1 202 0
 1895 02fa 83F805A0 		strb	sl, [r3, #5]
 1896              		.loc 1 204 0
 1897 02fe D971     		strb	r1, [r3, #7]
 1898              		.loc 1 206 0
 1899 0300 1F81     		strh	r7, [r3, #8]	@ movhi
 1900              		.loc 1 207 0
 1901 0302 5F81     		strh	r7, [r3, #10]	@ movhi
 1902              		.loc 1 209 0
 1903 0304 DA81     		strh	r2, [r3, #14]	@ movhi
 1904              		.loc 1 212 0
 1905 0306 4846     		mov	r0, r9
 1906 0308 09B0     		add	sp, sp, #36
 1907 030a BDE8F08F 		pop	{r4, r5, r6, r7, r8, r9, sl, fp, pc}
 1908              		.cfi_endproc
 1909              	.LFE135:
 1910              		.size	gdisp_lld_init, .-gdisp_lld_init
 1911 030e 00BF     		.section	.text.gdisp_lld_draw_pixel,"ax",%progbits
 1912              		.align	2
 1913              		.p2align 4,,15
 1914              		.global	gdisp_lld_draw_pixel
 1915              		.thumb
 1916              		.thumb_func
 1917              		.type	gdisp_lld_draw_pixel, %function
 1918              	gdisp_lld_draw_pixel:
 1919              	.LFB136:
 1920              		.loc 1 223 0
 1921              		.cfi_startproc
 1922              		@ args = 0, pretend = 0, frame = 0
 1923              		@ frame_needed = 0, uses_anonymous_args = 0
 1924              		@ link register save eliminated.
 1925              	.LVL176:
 1926              		.loc 1 225 0
 1927 0000 2B4B     		ldr	r3, .L41
 1928              		.loc 1 223 0
 1929 0002 30B4     		push	{r4, r5}
 1930              	.LCFI4:
 1931              		.cfi_def_cfa_offset 8
 1932              		.cfi_offset 4, -8
 1933              		.cfi_offset 5, -4
 1934              		.loc 1 225 0
 1935 0004 B3F90840 		ldrsh	r4, [r3, #8]
 1936 0008 8442     		cmp	r4, r0
ARM GAS  /tmp/ccLrOMZj.s 			page 35


 1937 000a 0BDC     		bgt	.L30
 1938              		.loc 1 225 0 is_stmt 0 discriminator 2
 1939 000c B3F90A40 		ldrsh	r4, [r3, #10]
 1940 0010 8C42     		cmp	r4, r1
 1941 0012 07DC     		bgt	.L30
 1942              		.loc 1 225 0 discriminator 1
 1943 0014 B3F90C40 		ldrsh	r4, [r3, #12]
 1944 0018 8442     		cmp	r4, r0
 1945 001a 03DD     		ble	.L30
 1946              	.LVL177:
 1947              	.LBB1126:
 1948              	.LBB1127:
 1949              		.loc 1 225 0
 1950 001c B3F90E40 		ldrsh	r4, [r3, #14]
 1951 0020 8C42     		cmp	r4, r1
 1952 0022 01DC     		bgt	.L40
 1953              	.LVL178:
 1954              	.L30:
 1955              	.LBE1127:
 1956              	.LBE1126:
 1957              		.loc 1 232 0 is_stmt 1
 1958 0024 30BC     		pop	{r4, r5}
 1959 0026 7047     		bx	lr
 1960              	.LVL179:
 1961              	.L40:
 1962              	.LBB1181:
 1963              	.LBB1180:
 1964              	.LBB1128:
 1965              	.LBB1129:
 1966              		.loc 1 55 0
 1967 0028 1B79     		ldrb	r3, [r3, #4]	@ zero_extendqisi2
 1968 002a 032B     		cmp	r3, #3
 1969 002c 16D8     		bhi	.L32
 1970 002e DFE803F0 		tbb	[pc, r3]
 1971              	.L37:
 1972 0032 38       		.byte	(.L33-.L37)/2
 1973 0033 2D       		.byte	(.L34-.L37)/2
 1974 0034 02       		.byte	(.L35-.L37)/2
 1975 0035 1E       		.byte	(.L36-.L37)/2
 1976              		.align	1
 1977              	.L35:
 1978              	.LVL180:
 1979              		.loc 1 58 0
 1980 0036 C1F59F71 		rsb	r1, r1, #318
 1981              	.LVL181:
 1982              	.LBB1130:
 1983              	.LBB1131:
 1984              		.loc 2 153 0
 1985 003a 0023     		movs	r3, #0
 1986              	.LBE1131:
 1987              	.LBE1130:
 1988              		.loc 1 58 0
 1989 003c 0131     		adds	r1, r1, #1
 1990              	.LBB1133:
 1991              	.LBB1134:
 1992              		.loc 2 144 0
 1993 003e 4FF0C044 		mov	r4, #1610612736
ARM GAS  /tmp/ccLrOMZj.s 			page 36


 1994              	.LBE1134:
 1995              	.LBE1133:
 1996              	.LBB1135:
 1997              	.LBB1132:
 1998              		.loc 2 153 0
 1999 0042 C6F20203 		movt	r3, 24578
 2000              	.LBE1132:
 2001              	.LBE1135:
 2002              		.loc 1 57 0
 2003 0046 C0F1EF00 		rsb	r0, r0, #239
 2004              	.LVL182:
 2005              	.L38:
 2006              		.loc 1 62 0
 2007 004a CD05     		lsls	r5, r1, #23
 2008              		.loc 1 61 0
 2009 004c C0B2     		uxtb	r0, r0
 2010              	.LVL183:
 2011              		.loc 1 62 0
 2012 004e E90D     		lsrs	r1, r5, #23
 2013              	.LBB1136:
 2014              	.LBB1137:
 2015              		.loc 2 144 0
 2016 0050 4E25     		movs	r5, #78
 2017 0052 2580     		strh	r5, [r4, #0]	@ movhi
 2018              	.LBE1137:
 2019              	.LBE1136:
 2020              	.LBB1139:
 2021              	.LBB1140:
 2022              		.loc 2 153 0
 2023 0054 1880     		strh	r0, [r3, #0]	@ movhi
 2024              	.LVL184:
 2025              	.LBE1140:
 2026              	.LBE1139:
 2027              	.LBB1143:
 2028              	.LBB1144:
 2029              		.loc 2 144 0
 2030 0056 4F20     		movs	r0, #79
 2031              	.LVL185:
 2032 0058 2080     		strh	r0, [r4, #0]	@ movhi
 2033              	.LBE1144:
 2034              	.LBE1143:
 2035              	.LBB1145:
 2036              	.LBB1146:
 2037              		.loc 2 153 0
 2038 005a 1980     		strh	r1, [r3, #0]	@ movhi
 2039              	.LVL186:
 2040              	.L32:
 2041              	.LBE1146:
 2042              	.LBE1145:
 2043              	.LBE1129:
 2044              	.LBE1128:
 2045              	.LBB1173:
 2046              	.LBB1174:
 2047 005c 0023     		movs	r3, #0
 2048 005e C6F20203 		movt	r3, 24578
 2049              	.LBE1174:
 2050              	.LBE1173:
ARM GAS  /tmp/ccLrOMZj.s 			page 37


 2051              	.LBB1176:
 2052              	.LBB1177:
 2053              		.loc 2 144 0
 2054 0062 4FF0C041 		mov	r1, #1610612736
 2055 0066 2220     		movs	r0, #34
 2056 0068 0880     		strh	r0, [r1, #0]	@ movhi
 2057              	.LVL187:
 2058              	.LBE1177:
 2059              	.LBE1176:
 2060              	.LBB1178:
 2061              	.LBB1175:
 2062              		.loc 2 153 0
 2063 006a 1A80     		strh	r2, [r3, #0]	@ movhi
 2064 006c DAE7     		b	.L30
 2065              	.LVL188:
 2066              	.L36:
 2067              	.LBE1175:
 2068              	.LBE1178:
 2069              	.LBB1179:
 2070              	.LBB1172:
 2071              	.LBB1147:
 2072              	.LBB1148:
 2073 006e 0023     		movs	r3, #0
 2074              	.LBE1148:
 2075              	.LBE1147:
 2076              	.LBB1150:
 2077              	.LBB1151:
 2078              		.loc 2 144 0
 2079 0070 4FF0C044 		mov	r4, #1610612736
 2080              	.LBE1151:
 2081              	.LBE1150:
 2082              	.LBB1152:
 2083              	.LBB1149:
 2084              		.loc 2 153 0
 2085 0074 C6F20203 		movt	r3, 24578
 2086              	.LVL189:
 2087              	.L39:
 2088              	.LBE1149:
 2089              	.LBE1152:
 2090              	.LBB1153:
 2091              	.LBB1154:
 2092              		.loc 1 70 0
 2093 0078 C505     		lsls	r5, r0, #23
 2094              		.loc 1 69 0
 2095 007a C9B2     		uxtb	r1, r1
 2096              	.LVL190:
 2097              		.loc 1 70 0
 2098 007c E80D     		lsrs	r0, r5, #23
 2099              	.LBB1155:
 2100              	.LBB1156:
 2101              		.loc 2 144 0
 2102 007e 4E25     		movs	r5, #78
 2103 0080 2580     		strh	r5, [r4, #0]	@ movhi
 2104              	.LBE1156:
 2105              	.LBE1155:
 2106              	.LBB1158:
 2107              	.LBB1159:
ARM GAS  /tmp/ccLrOMZj.s 			page 38


 2108              		.loc 2 153 0
 2109 0082 1980     		strh	r1, [r3, #0]	@ movhi
 2110              	.LVL191:
 2111              	.LBE1159:
 2112              	.LBE1158:
 2113              	.LBB1162:
 2114              	.LBB1163:
 2115              		.loc 2 144 0
 2116 0084 4F21     		movs	r1, #79
 2117              	.LVL192:
 2118 0086 2180     		strh	r1, [r4, #0]	@ movhi
 2119              	.LBE1163:
 2120              	.LBE1162:
 2121              	.LBB1164:
 2122              	.LBB1165:
 2123              		.loc 2 153 0
 2124 0088 1880     		strh	r0, [r3, #0]	@ movhi
 2125 008a E7E7     		b	.L32
 2126              	.LVL193:
 2127              	.L34:
 2128              	.LBE1165:
 2129              	.LBE1164:
 2130              		.loc 1 70 0
 2131 008c C0F59F70 		rsb	r0, r0, #318
 2132              	.LVL194:
 2133              	.LBB1166:
 2134              	.LBB1160:
 2135              		.loc 2 153 0
 2136 0090 0023     		movs	r3, #0
 2137              	.LBE1160:
 2138              	.LBE1166:
 2139              		.loc 1 70 0
 2140 0092 0130     		adds	r0, r0, #1
 2141              	.LBB1167:
 2142              	.LBB1157:
 2143              		.loc 2 144 0
 2144 0094 4FF0C044 		mov	r4, #1610612736
 2145              	.LBE1157:
 2146              	.LBE1167:
 2147              	.LBB1168:
 2148              	.LBB1161:
 2149              		.loc 2 153 0
 2150 0098 C6F20203 		movt	r3, 24578
 2151              	.LBE1161:
 2152              	.LBE1168:
 2153              		.loc 1 69 0
 2154 009c C1F1EF01 		rsb	r1, r1, #239
 2155              	.LVL195:
 2156 00a0 EAE7     		b	.L39
 2157              	.LVL196:
 2158              	.L33:
 2159              	.LBE1154:
 2160              	.LBE1153:
 2161              	.LBB1169:
 2162              	.LBB1141:
 2163              		.loc 2 153 0
 2164 00a2 0023     		movs	r3, #0
ARM GAS  /tmp/ccLrOMZj.s 			page 39


 2165              	.LBE1141:
 2166              	.LBE1169:
 2167              	.LBB1170:
 2168              	.LBB1138:
 2169              		.loc 2 144 0
 2170 00a4 4FF0C044 		mov	r4, #1610612736
 2171              	.LBE1138:
 2172              	.LBE1170:
 2173              	.LBB1171:
 2174              	.LBB1142:
 2175              		.loc 2 153 0
 2176 00a8 C6F20203 		movt	r3, 24578
 2177 00ac CDE7     		b	.L38
 2178              	.L42:
 2179 00ae 00BF     		.align	2
 2180              	.L41:
 2181 00b0 00000000 		.word	.LANCHOR0
 2182              	.LBE1142:
 2183              	.LBE1171:
 2184              	.LBE1172:
 2185              	.LBE1179:
 2186              	.LBE1180:
 2187              	.LBE1181:
 2188              		.cfi_endproc
 2189              	.LFE136:
 2190              		.size	gdisp_lld_draw_pixel, .-gdisp_lld_draw_pixel
 2191 00b4 AFF30080 		.section	.text.gdisp_lld_draw_char,"ax",%progbits
 2191      AFF30080 
 2191      AFF30080 
 2192              		.align	2
 2193              		.p2align 4,,15
 2194              		.global	gdisp_lld_draw_char
 2195              		.thumb
 2196              		.thumb_func
 2197              		.type	gdisp_lld_draw_char, %function
 2198              	gdisp_lld_draw_char:
 2199              	.LFB122:
 2200              		.loc 3 469 0
 2201              		.cfi_startproc
 2202              		@ args = 4, pretend = 0, frame = 48
 2203              		@ frame_needed = 0, uses_anonymous_args = 0
 2204              	.LVL197:
 2205 0000 2DE9F04F 		push	{r4, r5, r6, r7, r8, r9, sl, fp, lr}
 2206              	.LCFI5:
 2207              		.cfi_def_cfa_offset 36
 2208              		.cfi_offset 4, -36
 2209              		.cfi_offset 5, -32
 2210              		.cfi_offset 6, -28
 2211              		.cfi_offset 7, -24
 2212              		.cfi_offset 8, -20
 2213              		.cfi_offset 9, -16
 2214              		.cfi_offset 10, -12
 2215              		.cfi_offset 11, -8
 2216              		.cfi_offset 14, -4
 2217              		.loc 3 476 0
 2218 0004 9C7A     		ldrb	r4, [r3, #10]	@ zero_extendqisi2
 2219              		.loc 3 469 0
ARM GAS  /tmp/ccLrOMZj.s 			page 40


 2220 0006 8DB0     		sub	sp, sp, #52
 2221              	.LCFI6:
 2222              		.cfi_def_cfa_offset 88
 2223              		.loc 3 476 0
 2224 0008 9442     		cmp	r4, r2
 2225              		.loc 3 469 0
 2226 000a BDF85860 		ldrh	r6, [sp, #88]
 2227 000e 0591     		str	r1, [sp, #20]
 2228              		.loc 3 476 0
 2229 0010 00F2A380 		bhi	.L43
 2230              		.loc 3 476 0 is_stmt 0 discriminator 1
 2231 0014 D97A     		ldrb	r1, [r3, #11]	@ zero_extendqisi2
 2232              	.LVL198:
 2233 0016 9142     		cmp	r1, r2
 2234 0018 C0F09F80 		bcc	.L43
 2235 001c 121B     		subs	r2, r2, r4
 2236              	.LVL199:
 2237 001e 1969     		ldr	r1, [r3, #16]
 2238 0020 895C     		ldrb	r1, [r1, r2]	@ zero_extendqisi2
 2239              	.LVL200:
 2240              		.loc 3 477 0 is_stmt 1 discriminator 1
 2241 0022 0029     		cmp	r1, #0
 2242 0024 00F09980 		beq	.L43
 2243              		.loc 3 479 0
 2244 0028 1C7B     		ldrb	r4, [r3, #12]	@ zero_extendqisi2
 2245              		.loc 3 480 0
 2246 002a 5F7B     		ldrb	r7, [r3, #13]	@ zero_extendqisi2
 2247              		.loc 3 484 0
 2248 002c 5D69     		ldr	r5, [r3, #20]
 2249              		.loc 3 479 0
 2250 002e 0494     		str	r4, [sp, #16]
 2251              	.LVL201:
 2252              		.loc 3 480 0
 2253 0030 0097     		str	r7, [sp, #0]
 2254              	.LVL202:
 2255              		.loc 3 484 0
 2256 0032 35F81240 		ldrh	r4, [r5, r2, lsl #1]
 2257              		.loc 3 481 0
 2258 0036 1F79     		ldrb	r7, [r3, #4]	@ zero_extendqisi2
 2259              		.loc 3 484 0
 2260 0038 9A69     		ldr	r2, [r3, #24]
 2261              		.loc 3 482 0
 2262 003a 049B     		ldr	r3, [sp, #16]
 2263              	.LVL203:
 2264 003c 03FB01F1 		mul	r1, r3, r1
 2265              	.LVL204:
 2266              		.loc 3 487 0
 2267 0040 09B2     		sxth	r1, r1
 2268              		.loc 3 481 0
 2269 0042 009B     		ldr	r3, [sp, #0]
 2270              		.loc 3 487 0
 2271 0044 0B91     		str	r1, [sp, #44]
 2272              		.loc 3 484 0
 2273 0046 02EB4402 		add	r2, r2, r4, lsl #1
 2274              		.loc 3 487 0
 2275 004a 0029     		cmp	r1, #0
 2276              		.loc 3 481 0
ARM GAS  /tmp/ccLrOMZj.s 			page 41


 2277 004c 07FB03F3 		mul	r3, r7, r3
 2278              	.LVL205:
 2279              		.loc 3 484 0
 2280 0050 0892     		str	r2, [sp, #32]
 2281              	.LVL206:
 2282              		.loc 3 487 0
 2283 0052 40F38280 		ble	.L43
 2284 0056 049C     		ldr	r4, [sp, #16]
 2285              		.loc 3 469 0
 2286 0058 80B2     		uxth	r0, r0
 2287 005a 2118     		adds	r1, r4, r0
 2288 005c 009C     		ldr	r4, [sp, #0]
 2289 005e 0A90     		str	r0, [sp, #40]
 2290 0060 8AB2     		uxth	r2, r1
 2291              	.LVL207:
 2292 0062 0020     		movs	r0, #0
 2293              	.LVL208:
 2294 0064 1BB2     		sxth	r3, r3
 2295              	.LVL209:
 2296 0066 0992     		str	r2, [sp, #36]
 2297 0068 9146     		mov	r9, r2
 2298 006a 0790     		str	r0, [sp, #28]
 2299 006c 0393     		str	r3, [sp, #12]
 2300 006e 0FFA84FB 		sxth	fp, r4
 2301              	.LVL210:
 2302              	.L52:
 2303              		.loc 3 489 0
 2304 0072 0899     		ldr	r1, [sp, #32]
 2305              		.loc 3 492 0
 2306 0074 0398     		ldr	r0, [sp, #12]
 2307              		.loc 3 489 0
 2308 0076 31F8022B 		ldrh	r2, [r1], #2
 2309              		.loc 3 492 0
 2310 007a 0028     		cmp	r0, #0
 2311              		.loc 3 489 0
 2312 007c 0891     		str	r1, [sp, #32]
 2313 007e 0192     		str	r2, [sp, #4]
 2314              	.LVL211:
 2315              		.loc 3 492 0
 2316 0080 5BDD     		ble	.L46
 2317              		.loc 3 469 0
 2318 0082 0A9B     		ldr	r3, [sp, #40]
 2319 0084 079C     		ldr	r4, [sp, #28]
 2320 0086 1919     		adds	r1, r3, r4
 2321              	.LVL212:
 2322              		.loc 3 492 0
 2323 0088 0022     		movs	r2, #0
 2324              		.loc 3 469 0
 2325 008a 88B2     		uxth	r0, r1
 2326              		.loc 3 492 0
 2327 008c 0292     		str	r2, [sp, #8]
 2328              		.loc 3 469 0
 2329 008e 0690     		str	r0, [sp, #24]
 2330              	.LVL213:
 2331              	.L51:
 2332              		.loc 3 493 0
 2333 0090 019B     		ldr	r3, [sp, #4]
ARM GAS  /tmp/ccLrOMZj.s 			page 42


 2334 0092 DB07     		lsls	r3, r3, #31
 2335 0094 44D5     		bpl	.L47
 2336              	.LVL214:
 2337              		.loc 3 494 0 discriminator 1
 2338 0096 049C     		ldr	r4, [sp, #16]
 2339 0098 002C     		cmp	r4, #0
 2340 009a 41D0     		beq	.L47
 2341              		.loc 3 469 0
 2342 009c 029D     		ldr	r5, [sp, #8]
 2343 009e 059F     		ldr	r7, [sp, #20]
 2344 00a0 E919     		adds	r1, r5, r7
 2345 00a2 069F     		ldr	r7, [sp, #24]
 2346 00a4 8DB2     		uxth	r5, r1
 2347              	.LVL215:
 2348              	.L48:
 2349              		.loc 3 495 0 discriminator 1
 2350 00a6 009A     		ldr	r2, [sp, #0]
 2351 00a8 002A     		cmp	r2, #0
 2352 00aa 35D0     		beq	.L50
 2353 00ac 3CB2     		sxth	r4, r7
 2354              		.loc 3 495 0 is_stmt 0
 2355 00ae 4FF0010A 		mov	sl, #1
 2356              		.loc 3 496 0 is_stmt 1
 2357 00b2 2046     		mov	r0, r4
 2358 00b4 29B2     		sxth	r1, r5
 2359 00b6 3246     		mov	r2, r6
 2360 00b8 0BF1FF38 		add	r8, fp, #-1
 2361 00bc FFF7FEFF 		bl	gdisp_lld_draw_pixel
 2362              	.LVL216:
 2363              		.loc 3 495 0
 2364 00c0 D345     		cmp	fp, sl
 2365 00c2 08EA0A08 		and	r8, r8, sl
 2366 00c6 27DD     		ble	.L50
 2367 00c8 B8F1000F 		cmp	r8, #0
 2368 00cc 0AD0     		beq	.L49
 2369              		.loc 3 469 0
 2370 00ce 05EB0A03 		add	r3, r5, sl
 2371              		.loc 3 496 0
 2372 00d2 2046     		mov	r0, r4
 2373 00d4 19B2     		sxth	r1, r3
 2374 00d6 3246     		mov	r2, r6
 2375              		.loc 3 495 0
 2376 00d8 4FF0020A 		mov	sl, #2
 2377              	.LVL217:
 2378              		.loc 3 496 0
 2379 00dc FFF7FEFF 		bl	gdisp_lld_draw_pixel
 2380              	.LVL218:
 2381              		.loc 3 495 0
 2382 00e0 D345     		cmp	fp, sl
 2383 00e2 19DD     		ble	.L50
 2384              	.LVL219:
 2385              	.L49:
 2386              		.loc 3 469 0 discriminator 2
 2387 00e4 05EB0A01 		add	r1, r5, sl
 2388              		.loc 3 495 0 discriminator 2
 2389 00e8 0AF1010A 		add	sl, sl, #1
 2390 00ec 1FFA8AFA 		uxth	sl, sl
ARM GAS  /tmp/ccLrOMZj.s 			page 43


 2391              		.loc 3 496 0 discriminator 2
 2392 00f0 2046     		mov	r0, r4
 2393 00f2 09B2     		sxth	r1, r1
 2394 00f4 3246     		mov	r2, r6
 2395 00f6 FFF7FEFF 		bl	gdisp_lld_draw_pixel
 2396              	.LVL220:
 2397              		.loc 3 469 0 discriminator 2
 2398 00fa 05EB0A02 		add	r2, r5, sl
 2399              		.loc 3 496 0 discriminator 2
 2400 00fe 2046     		mov	r0, r4
 2401 0100 11B2     		sxth	r1, r2
 2402 0102 3246     		mov	r2, r6
 2403 0104 FFF7FEFF 		bl	gdisp_lld_draw_pixel
 2404              	.LVL221:
 2405              		.loc 3 495 0 discriminator 2
 2406 0108 0AF10100 		add	r0, sl, #1
 2407 010c 1FFA80FA 		uxth	sl, r0
 2408              	.LVL222:
 2409 0110 0FFA8AF3 		sxth	r3, sl
 2410 0114 9B45     		cmp	fp, r3
 2411 0116 E5DC     		bgt	.L49
 2412              	.LVL223:
 2413              	.L50:
 2414 0118 0137     		adds	r7, r7, #1
 2415 011a BFB2     		uxth	r7, r7
 2416              		.loc 3 494 0
 2417 011c 4F45     		cmp	r7, r9
 2418 011e C2D1     		bne	.L48
 2419              	.L47:
 2420              		.loc 3 469 0
 2421 0120 0299     		ldr	r1, [sp, #8]
 2422 0122 009C     		ldr	r4, [sp, #0]
 2423 0124 6218     		adds	r2, r4, r1
 2424 0126 90B2     		uxth	r0, r2
 2425              		.loc 3 492 0
 2426 0128 01B2     		sxth	r1, r0
 2427              		.loc 3 469 0
 2428 012a 83B2     		uxth	r3, r0
 2429              		.loc 3 492 0
 2430 012c 019C     		ldr	r4, [sp, #4]
 2431 012e 0398     		ldr	r0, [sp, #12]
 2432              		.loc 3 469 0
 2433 0130 0293     		str	r3, [sp, #8]
 2434              	.LVL224:
 2435              		.loc 3 492 0
 2436 0132 6208     		lsrs	r2, r4, #1
 2437 0134 8842     		cmp	r0, r1
 2438 0136 0192     		str	r2, [sp, #4]
 2439 0138 AADC     		bgt	.L51
 2440              	.LVL225:
 2441              	.L46:
 2442 013a 0499     		ldr	r1, [sp, #16]
 2443              		.loc 3 469 0
 2444 013c 099B     		ldr	r3, [sp, #36]
 2445 013e 049C     		ldr	r4, [sp, #16]
 2446 0140 079A     		ldr	r2, [sp, #28]
 2447 0142 8944     		add	r9, r9, r1
ARM GAS  /tmp/ccLrOMZj.s 			page 44


 2448 0144 1FFA89F9 		uxth	r9, r9
 2449 0148 C3EB0901 		rsb	r1, r3, r9
 2450 014c A018     		adds	r0, r4, r2
 2451              		.loc 3 487 0
 2452 014e 0B9C     		ldr	r4, [sp, #44]
 2453 0150 0BB2     		sxth	r3, r1
 2454 0152 9C42     		cmp	r4, r3
 2455              		.loc 3 469 0
 2456 0154 81B2     		uxth	r1, r0
 2457 0156 0791     		str	r1, [sp, #28]
 2458              	.LVL226:
 2459              		.loc 3 487 0
 2460 0158 8BDC     		bgt	.L52
 2461              	.LVL227:
 2462              	.L43:
 2463              		.loc 3 500 0
 2464 015a 0DB0     		add	sp, sp, #52
 2465 015c BDE8F08F 		pop	{r4, r5, r6, r7, r8, r9, sl, fp, pc}
 2466              		.cfi_endproc
 2467              	.LFE122:
 2468              		.size	gdisp_lld_draw_char, .-gdisp_lld_draw_char
 2469              		.section	.text.gdisp_lld_draw_circle,"ax",%progbits
 2470              		.align	2
 2471              		.p2align 4,,15
 2472              		.global	gdisp_lld_draw_circle
 2473              		.thumb
 2474              		.thumb_func
 2475              		.type	gdisp_lld_draw_circle, %function
 2476              	gdisp_lld_draw_circle:
 2477              	.LFB120:
 2478              		.loc 3 170 0
 2479              		.cfi_startproc
 2480              		@ args = 0, pretend = 0, frame = 24
 2481              		@ frame_needed = 0, uses_anonymous_args = 0
 2482              	.LVL228:
 2483 0000 2DE9F04F 		push	{r4, r5, r6, r7, r8, r9, sl, fp, lr}
 2484              	.LCFI7:
 2485              		.cfi_def_cfa_offset 36
 2486              		.cfi_offset 4, -36
 2487              		.cfi_offset 5, -32
 2488              		.cfi_offset 6, -28
 2489              		.cfi_offset 7, -24
 2490              		.cfi_offset 8, -20
 2491              		.cfi_offset 9, -16
 2492              		.cfi_offset 10, -12
 2493              		.cfi_offset 11, -8
 2494              		.cfi_offset 14, -4
 2495              		.loc 3 175 0
 2496 0004 C2F10105 		rsb	r5, r2, #1
 2497              		.loc 3 170 0
 2498 0008 87B0     		sub	sp, sp, #28
 2499              	.LCFI8:
 2500              		.cfi_def_cfa_offset 64
 2501              		.loc 3 170 0
 2502 000a 1C46     		mov	r4, r3
 2503 000c 1FFA80F8 		uxth	r8, r0
 2504              		.loc 3 175 0
ARM GAS  /tmp/ccLrOMZj.s 			page 45


 2505 0010 ABB2     		uxth	r3, r5
 2506              	.LVL229:
 2507 0012 8FB2     		uxth	r7, r1
 2508 0014 0020     		movs	r0, #0
 2509              	.LVL230:
 2510 0016 11B2     		sxth	r1, r2
 2511              	.LVL231:
 2512              		.loc 3 174 0
 2513 0018 0392     		str	r2, [sp, #12]
 2514              		.loc 3 175 0
 2515 001a 0493     		str	r3, [sp, #16]
 2516              	.LVL232:
 2517 001c 0290     		str	r0, [sp, #8]
 2518 001e 0591     		str	r1, [sp, #20]
 2519 0020 17E0     		b	.L80
 2520              	.LVL233:
 2521              	.L78:
 2522              		.loc 3 189 0
 2523 0022 059A     		ldr	r2, [sp, #20]
 2524 0024 0398     		ldr	r0, [sp, #12]
 2525 0026 049B     		ldr	r3, [sp, #16]
 2526 0028 0299     		ldr	r1, [sp, #8]
 2527 002a 0533     		adds	r3, r3, #5
 2528 002c 891A     		subs	r1, r1, r2
 2529 002e 421E     		subs	r2, r0, #1
 2530 0030 03EB4101 		add	r1, r3, r1, lsl #1
 2531 0034 93B2     		uxth	r3, r2
 2532              		.loc 3 170 0
 2533 0036 0135     		adds	r5, r5, #1
 2534 0038 1AB2     		sxth	r2, r3
 2535              		.loc 3 189 0
 2536 003a 89B2     		uxth	r1, r1
 2537 003c 0393     		str	r3, [sp, #12]
 2538              		.loc 3 170 0
 2539 003e A8B2     		uxth	r0, r5
 2540 0040 0592     		str	r2, [sp, #20]
 2541              		.loc 3 189 0
 2542 0042 0491     		str	r1, [sp, #16]
 2543              	.LVL234:
 2544              	.L79:
 2545              		.loc 3 190 0
 2546 0044 05B2     		sxth	r5, r0
 2547 0046 0299     		ldr	r1, [sp, #8]
 2548 0048 0598     		ldr	r0, [sp, #20]
 2549              	.LVL235:
 2550 004a 4B1C     		adds	r3, r1, #1
 2551 004c 8542     		cmp	r5, r0
 2552 004e 0293     		str	r3, [sp, #8]
 2553 0050 58DC     		bgt	.L82
 2554              	.LVL236:
 2555              	.L80:
 2556              		.loc 3 170 0
 2557 0052 029A     		ldr	r2, [sp, #8]
 2558              		.loc 3 178 0
 2559 0054 039E     		ldr	r6, [sp, #12]
 2560              		.loc 3 170 0
 2561 0056 95B2     		uxth	r5, r2
ARM GAS  /tmp/ccLrOMZj.s 			page 46


 2562              		.loc 3 178 0
 2563 0058 B6B2     		uxth	r6, r6
 2564 005a 06EB070A 		add	sl, r6, r7
 2565              		.loc 3 170 0
 2566 005e 08EB0503 		add	r3, r8, r5
 2567              		.loc 3 178 0
 2568 0062 1BB2     		sxth	r3, r3
 2569 0064 0FFA8AFA 		sxth	sl, sl
 2570 0068 1846     		mov	r0, r3
 2571 006a 5146     		mov	r1, sl
 2572 006c 2246     		mov	r2, r4
 2573 006e 0093     		str	r3, [sp, #0]
 2574              		.loc 3 170 0
 2575 0070 07EB0509 		add	r9, r7, r5
 2576              		.loc 3 178 0
 2577 0074 FFF7FEFF 		bl	gdisp_lld_draw_pixel
 2578              	.LVL237:
 2579              		.loc 3 179 0
 2580 0078 06EB080C 		add	ip, r6, r8
 2581 007c 0FFA8CFB 		sxth	fp, ip
 2582 0080 0FFA89F9 		sxth	r9, r9
 2583 0084 5846     		mov	r0, fp
 2584 0086 4946     		mov	r1, r9
 2585 0088 2246     		mov	r2, r4
 2586 008a CDF804B0 		str	fp, [sp, #4]
 2587 008e FFF7FEFF 		bl	gdisp_lld_draw_pixel
 2588              	.LVL238:
 2589              		.loc 3 170 0
 2590 0092 C5EB0800 		rsb	r0, r5, r8
 2591              		.loc 3 180 0
 2592 0096 0FFA80FB 		sxth	fp, r0
 2593 009a 5146     		mov	r1, sl
 2594 009c 5846     		mov	r0, fp
 2595 009e 2246     		mov	r2, r4
 2596 00a0 FFF7FEFF 		bl	gdisp_lld_draw_pixel
 2597              	.LVL239:
 2598              		.loc 3 181 0
 2599 00a4 C6EB0801 		rsb	r1, r6, r8
 2600 00a8 0FFA81FA 		sxth	sl, r1
 2601 00ac 5046     		mov	r0, sl
 2602 00ae 4946     		mov	r1, r9
 2603 00b0 2246     		mov	r2, r4
 2604 00b2 FFF7FEFF 		bl	gdisp_lld_draw_pixel
 2605              	.LVL240:
 2606              		.loc 3 182 0
 2607 00b6 DDF804C0 		ldr	ip, [sp, #4]
 2608              		.loc 3 170 0
 2609 00ba 7A1B     		subs	r2, r7, r5
 2610              		.loc 3 182 0
 2611 00bc 0FFA82F9 		sxth	r9, r2
 2612 00c0 6046     		mov	r0, ip
 2613 00c2 4946     		mov	r1, r9
 2614 00c4 2246     		mov	r2, r4
 2615 00c6 FFF7FEFF 		bl	gdisp_lld_draw_pixel
 2616              	.LVL241:
 2617              		.loc 3 183 0
 2618 00ca BE1B     		subs	r6, r7, r6
ARM GAS  /tmp/ccLrOMZj.s 			page 47


 2619 00cc 009B     		ldr	r3, [sp, #0]
 2620 00ce 36B2     		sxth	r6, r6
 2621 00d0 1846     		mov	r0, r3
 2622 00d2 3146     		mov	r1, r6
 2623 00d4 2246     		mov	r2, r4
 2624 00d6 FFF7FEFF 		bl	gdisp_lld_draw_pixel
 2625              	.LVL242:
 2626              		.loc 3 184 0
 2627 00da 5846     		mov	r0, fp
 2628 00dc 3146     		mov	r1, r6
 2629 00de 2246     		mov	r2, r4
 2630 00e0 FFF7FEFF 		bl	gdisp_lld_draw_pixel
 2631              	.LVL243:
 2632              		.loc 3 185 0
 2633 00e4 5046     		mov	r0, sl
 2634 00e6 2246     		mov	r2, r4
 2635 00e8 4946     		mov	r1, r9
 2636 00ea FFF7FEFF 		bl	gdisp_lld_draw_pixel
 2637              	.LVL244:
 2638              		.loc 3 186 0
 2639 00ee 0498     		ldr	r0, [sp, #16]
 2640 00f0 0204     		lsls	r2, r0, #16
 2641 00f2 96D5     		bpl	.L78
 2642              		.loc 3 187 0
 2643 00f4 C31C     		adds	r3, r0, #3
 2644 00f6 03EB4500 		add	r0, r3, r5, lsl #1
 2645 00fa 82B2     		uxth	r2, r0
 2646              		.loc 3 170 0
 2647 00fc 0135     		adds	r5, r5, #1
 2648              		.loc 3 187 0
 2649 00fe 0492     		str	r2, [sp, #16]
 2650              		.loc 3 170 0
 2651 0100 A8B2     		uxth	r0, r5
 2652              	.LVL245:
 2653 0102 9FE7     		b	.L79
 2654              	.LVL246:
 2655              	.L82:
 2656              		.loc 3 191 0
 2657 0104 07B0     		add	sp, sp, #28
 2658 0106 BDE8F08F 		pop	{r4, r5, r6, r7, r8, r9, sl, fp, pc}
 2659              		.cfi_endproc
 2660              	.LFE120:
 2661              		.size	gdisp_lld_draw_circle, .-gdisp_lld_draw_circle
 2662 010a 00BFAFF3 		.section	.text.gdisp_lld_clear,"ax",%progbits
 2662      0080
 2663              		.align	2
 2664              		.p2align 4,,15
 2665              		.global	gdisp_lld_clear
 2666              		.thumb
 2667              		.thumb_func
 2668              		.type	gdisp_lld_clear, %function
 2669              	gdisp_lld_clear:
 2670              	.LFB137:
 2671              		.loc 1 260 0
 2672              		.cfi_startproc
 2673              		@ args = 0, pretend = 0, frame = 0
 2674              		@ frame_needed = 0, uses_anonymous_args = 0
ARM GAS  /tmp/ccLrOMZj.s 			page 48


 2675              	.LVL247:
 2676 0000 38B5     		push	{r3, r4, r5, lr}
 2677              	.LCFI9:
 2678              		.cfi_def_cfa_offset 16
 2679              		.cfi_offset 3, -16
 2680              		.cfi_offset 4, -12
 2681              		.cfi_offset 5, -8
 2682              		.cfi_offset 14, -4
 2683              	.LBB1248:
 2684              	.LBB1249:
 2685              		.loc 1 115 0
 2686 0002 1D4D     		ldr	r5, .L93
 2687              	.LBE1249:
 2688              	.LBE1248:
 2689              		.loc 1 260 0
 2690 0004 0446     		mov	r4, r0
 2691              	.LBB1251:
 2692              	.LBB1250:
 2693              		.loc 1 115 0
 2694 0006 0020     		movs	r0, #0
 2695              	.LVL248:
 2696 0008 B5F90230 		ldrsh	r3, [r5, #2]
 2697 000c B5F90020 		ldrsh	r2, [r5, #0]
 2698 0010 0146     		mov	r1, r0
 2699 0012 FFF7FEFF 		bl	set_viewport
 2700              	.LVL249:
 2701              	.LBE1250:
 2702              	.LBE1251:
 2703              	.LBB1252:
 2704              	.LBB1253:
 2705              		.loc 1 55 0
 2706 0016 2B79     		ldrb	r3, [r5, #4]	@ zero_extendqisi2
 2707 0018 032B     		cmp	r3, #3
 2708 001a 0FD8     		bhi	.L84
 2709 001c DFE803F0 		tbb	[pc, r3]
 2710              	.L89:
 2711 0020 02       		.byte	(.L88-.L89)/2
 2712 0021 1C       		.byte	(.L86-.L89)/2
 2713 0022 1C       		.byte	(.L86-.L89)/2
 2714 0023 02       		.byte	(.L88-.L89)/2
 2715              		.align	1
 2716              	.L88:
 2717              	.LVL250:
 2718              	.LBB1254:
 2719              	.LBB1255:
 2720              		.loc 2 144 0
 2721 0024 4FF0C041 		mov	r1, #1610612736
 2722              	.LBE1255:
 2723              	.LBE1254:
 2724              	.LBB1257:
 2725              	.LBB1258:
 2726              		.loc 2 153 0
 2727 0028 0023     		movs	r3, #0
 2728 002a C6F20203 		movt	r3, 24578
 2729              	.LBE1258:
 2730              	.LBE1257:
 2731              	.LBB1261:
ARM GAS  /tmp/ccLrOMZj.s 			page 49


 2732              	.LBB1256:
 2733              		.loc 2 144 0
 2734 002e 4E20     		movs	r0, #78
 2735 0030 0880     		strh	r0, [r1, #0]	@ movhi
 2736              	.LVL251:
 2737              	.LBE1256:
 2738              	.LBE1261:
 2739              	.LBB1262:
 2740              	.LBB1259:
 2741              		.loc 2 153 0
 2742 0032 0022     		movs	r2, #0
 2743              	.LBE1259:
 2744              	.LBE1262:
 2745              	.LBB1263:
 2746              	.LBB1264:
 2747              		.loc 2 144 0
 2748 0034 4F20     		movs	r0, #79
 2749              	.LBE1264:
 2750              	.LBE1263:
 2751              	.LBB1266:
 2752              	.LBB1260:
 2753              		.loc 2 153 0
 2754 0036 1A80     		strh	r2, [r3, #0]	@ movhi
 2755              	.LVL252:
 2756              	.LBE1260:
 2757              	.LBE1266:
 2758              	.LBB1267:
 2759              	.LBB1265:
 2760              		.loc 2 144 0
 2761 0038 0880     		strh	r0, [r1, #0]	@ movhi
 2762              	.LVL253:
 2763              	.LBE1265:
 2764              	.LBE1267:
 2765              	.LBB1268:
 2766              	.LBB1269:
 2767              		.loc 2 153 0
 2768 003a 1A80     		strh	r2, [r3, #0]	@ movhi
 2769              	.LVL254:
 2770              	.L84:
 2771              	.LBE1269:
 2772              	.LBE1268:
 2773              	.LBE1253:
 2774              	.LBE1252:
 2775              	.LBB1288:
 2776              	.LBB1289:
 2777              		.loc 2 144 0
 2778 003c 4FF0C043 		mov	r3, #1610612736
 2779              	.LBE1289:
 2780              	.LBE1288:
 2781              	.LBB1291:
 2782              	.LBB1292:
 2783              		.loc 2 153 0
 2784 0040 0022     		movs	r2, #0
 2785              	.LBE1292:
 2786              	.LBE1291:
 2787              	.LBB1295:
 2788              	.LBB1290:
ARM GAS  /tmp/ccLrOMZj.s 			page 50


 2789              		.loc 2 144 0
 2790 0042 2221     		movs	r1, #34
 2791 0044 1980     		strh	r1, [r3, #0]	@ movhi
 2792              	.LVL255:
 2793 0046 4FF49630 		mov	r0, #76800
 2794              	.LBE1290:
 2795              	.LBE1295:
 2796              	.LBB1296:
 2797              	.LBB1293:
 2798              		.loc 2 153 0
 2799 004a C6F20202 		movt	r2, 24578
 2800              	.LVL256:
 2801              	.L90:
 2802              	.LBE1293:
 2803              	.LBE1296:
 2804              		.loc 1 285 0
 2805 004e 0238     		subs	r0, r0, #2
 2806              	.LBB1297:
 2807              	.LBB1294:
 2808              		.loc 2 153 0
 2809 0050 1480     		strh	r4, [r2, #0]	@ movhi
 2810 0052 1480     		strh	r4, [r2, #0]	@ movhi
 2811              	.LBE1294:
 2812              	.LBE1297:
 2813              		.loc 1 285 0
 2814 0054 FBD1     		bne	.L90
 2815              		.loc 1 291 0
 2816 0056 38BD     		pop	{r3, r4, r5, pc}
 2817              	.LVL257:
 2818              	.L86:
 2819              	.LBB1298:
 2820              	.LBB1287:
 2821              	.LBB1270:
 2822              	.LBB1271:
 2823              	.LBB1272:
 2824              		.loc 2 144 0
 2825 0058 4FF0C042 		mov	r2, #1610612736
 2826              	.LBE1272:
 2827              	.LBE1271:
 2828              	.LBB1274:
 2829              	.LBB1275:
 2830              		.loc 2 153 0
 2831 005c 0020     		movs	r0, #0
 2832 005e C6F20200 		movt	r0, 24578
 2833              	.LBE1275:
 2834              	.LBE1274:
 2835              	.LBB1278:
 2836              	.LBB1273:
 2837              		.loc 2 144 0
 2838 0062 4E21     		movs	r1, #78
 2839 0064 1180     		strh	r1, [r2, #0]	@ movhi
 2840              	.LVL258:
 2841              	.LBE1273:
 2842              	.LBE1278:
 2843              	.LBB1279:
 2844              	.LBB1276:
 2845              		.loc 2 153 0
ARM GAS  /tmp/ccLrOMZj.s 			page 51


 2846 0066 EF23     		movs	r3, #239
 2847              	.LBE1276:
 2848              	.LBE1279:
 2849              	.LBB1280:
 2850              	.LBB1281:
 2851              		.loc 2 144 0
 2852 0068 4F21     		movs	r1, #79
 2853              	.LBE1281:
 2854              	.LBE1280:
 2855              	.LBB1283:
 2856              	.LBB1277:
 2857              		.loc 2 153 0
 2858 006a 0380     		strh	r3, [r0, #0]	@ movhi
 2859              	.LVL259:
 2860              	.LBE1277:
 2861              	.LBE1283:
 2862              	.LBB1284:
 2863              	.LBB1282:
 2864              		.loc 2 144 0
 2865 006c 1180     		strh	r1, [r2, #0]	@ movhi
 2866              	.LVL260:
 2867              	.LBE1282:
 2868              	.LBE1284:
 2869              	.LBB1285:
 2870              	.LBB1286:
 2871              		.loc 2 153 0
 2872 006e 40F23F12 		movw	r2, #319
 2873 0072 0280     		strh	r2, [r0, #0]	@ movhi
 2874 0074 E2E7     		b	.L84
 2875              	.L94:
 2876 0076 00BF     		.align	2
 2877              	.L93:
 2878 0078 00000000 		.word	.LANCHOR0
 2879              	.LBE1286:
 2880              	.LBE1285:
 2881              	.LBE1270:
 2882              	.LBE1287:
 2883              	.LBE1298:
 2884              		.cfi_endproc
 2885              	.LFE137:
 2886              		.size	gdisp_lld_clear, .-gdisp_lld_clear
 2887 007c AFF30080 		.section	.text.gdisp_lld_fill_area,"ax",%progbits
 2888              		.align	2
 2889              		.p2align 4,,15
 2890              		.global	gdisp_lld_fill_area
 2891              		.thumb
 2892              		.thumb_func
 2893              		.type	gdisp_lld_fill_area, %function
 2894              	gdisp_lld_fill_area:
 2895              	.LFB138:
 2896              		.loc 1 305 0
 2897              		.cfi_startproc
 2898              		@ args = 4, pretend = 0, frame = 0
 2899              		@ frame_needed = 0, uses_anonymous_args = 0
 2900              	.LVL261:
 2901 0000 F8B5     		push	{r3, r4, r5, r6, r7, lr}
 2902              	.LCFI10:
ARM GAS  /tmp/ccLrOMZj.s 			page 52


 2903              		.cfi_def_cfa_offset 24
 2904              		.cfi_offset 3, -24
 2905              		.cfi_offset 4, -20
 2906              		.cfi_offset 5, -16
 2907              		.cfi_offset 6, -12
 2908              		.cfi_offset 7, -8
 2909              		.cfi_offset 14, -4
 2910              		.loc 1 309 0
 2911 0002 2A4E     		ldr	r6, .L115
 2912              		.loc 1 305 0
 2913 0004 BDF81870 		ldrh	r7, [sp, #24]
 2914              		.loc 1 309 0
 2915 0008 B6F908C0 		ldrsh	ip, [r6, #8]
 2916 000c 8445     		cmp	ip, r0
 2917              		.loc 1 305 0
 2918 000e 1446     		mov	r4, r2
 2919 0010 1D46     		mov	r5, r3
 2920              		.loc 1 309 0
 2921 0012 04DD     		ble	.L96
 2922              		.loc 1 309 0 is_stmt 0 discriminator 1
 2923 0014 CCEB0000 		rsb	r0, ip, r0
 2924              	.LVL262:
 2925 0018 8418     		adds	r4, r0, r2
 2926 001a 24B2     		sxth	r4, r4
 2927              	.LVL263:
 2928 001c 6046     		mov	r0, ip
 2929              	.LVL264:
 2930              	.L96:
 2931              		.loc 1 310 0 is_stmt 1
 2932 001e B6F90A30 		ldrsh	r3, [r6, #10]
 2933              	.LVL265:
 2934 0022 8B42     		cmp	r3, r1
 2935 0024 03DD     		ble	.L97
 2936              		.loc 1 310 0 is_stmt 0 discriminator 1
 2937 0026 C91A     		subs	r1, r1, r3
 2938              	.LVL266:
 2939 0028 4D19     		adds	r5, r1, r5
 2940 002a 2DB2     		sxth	r5, r5
 2941              	.LVL267:
 2942 002c 1946     		mov	r1, r3
 2943              	.LVL268:
 2944              	.L97:
 2945              		.loc 1 311 0 is_stmt 1
 2946 002e 002C     		cmp	r4, #0
 2947 0030 38DD     		ble	.L95
 2948              		.loc 1 311 0 is_stmt 0 discriminator 2
 2949 0032 002D     		cmp	r5, #0
 2950 0034 36DD     		ble	.L95
 2951              		.loc 1 311 0 discriminator 1
 2952 0036 B289     		ldrh	r2, [r6, #12]
 2953 0038 13B2     		sxth	r3, r2
 2954 003a 9842     		cmp	r0, r3
 2955 003c 32DA     		bge	.L95
 2956 003e 1B4E     		ldr	r6, .L115
 2957 0040 B6F80EC0 		ldrh	ip, [r6, #14]
 2958 0044 0FFA8CF6 		sxth	r6, ip
 2959 0048 B142     		cmp	r1, r6
ARM GAS  /tmp/ccLrOMZj.s 			page 53


 2960 004a 2BDA     		bge	.L95
 2961              		.loc 1 312 0 is_stmt 1
 2962 004c 00EB040E 		add	lr, r0, r4
 2963 0050 9E45     		cmp	lr, r3
 2964 0052 C4BF     		itt	gt
 2965 0054 C0EB0202 		rsbgt	r2, r0, r2
 2966 0058 14B2     		sxthgt	r4, r2
 2967              	.LVL269:
 2968              		.loc 1 313 0
 2969 005a 4A19     		adds	r2, r1, r5
 2970 005c B242     		cmp	r2, r6
 2971 005e C4BF     		itt	gt
 2972 0060 C1EB0C05 		rsbgt	r5, r1, ip
 2973              	.LVL270:
 2974 0064 2DB2     		sxthgt	r5, r5
 2975              	.LVL271:
 2976              		.loc 1 319 0
 2977 0066 2246     		mov	r2, r4
 2978 0068 2B46     		mov	r3, r5
 2979 006a FFF7FEFF 		bl	set_viewport
 2980              	.LVL272:
 2981              	.LBB1299:
 2982              	.LBB1300:
 2983              		.loc 2 144 0
 2984 006e 4FF0C041 		mov	r1, #1610612736
 2985 0072 2220     		movs	r0, #34
 2986              	.LBE1300:
 2987              	.LBE1299:
 2988              		.loc 1 316 0
 2989 0074 05FB04F4 		mul	r4, r5, r4
 2990              	.LVL273:
 2991              	.LBB1302:
 2992              	.LBB1301:
 2993              		.loc 2 144 0
 2994 0078 0880     		strh	r0, [r1, #0]	@ movhi
 2995              	.LVL274:
 2996              	.LBE1301:
 2997              	.LBE1302:
 2998              		.loc 1 336 0
 2999 007a 9CB1     		cbz	r4, .L95
 3000              	.LBB1303:
 3001              	.LBB1304:
 3002              		.loc 2 153 0
 3003 007c 0023     		movs	r3, #0
 3004 007e C6F20203 		movt	r3, 24578
 3005              	.LBE1304:
 3006              	.LBE1303:
 3007              		.loc 1 336 0
 3008 0082 0121     		movs	r1, #1
 3009 0084 621E     		subs	r2, r4, #1
 3010 0086 8C42     		cmp	r4, r1
 3011              	.LBB1308:
 3012              	.LBB1305:
 3013              		.loc 2 153 0
 3014 0088 1F80     		strh	r7, [r3, #0]	@ movhi
 3015 008a 02F00100 		and	r0, r2, #1
 3016              	.LVL275:
ARM GAS  /tmp/ccLrOMZj.s 			page 54


 3017              	.LBE1305:
 3018              	.LBE1308:
 3019              		.loc 1 336 0
 3020 008e 0BD0     		beq	.L113
 3021 0090 18B1     		cbz	r0, .L102
 3022 0092 0221     		movs	r1, #2
 3023 0094 8C42     		cmp	r4, r1
 3024              	.LBB1309:
 3025              	.LBB1306:
 3026              		.loc 2 153 0
 3027 0096 1F80     		strh	r7, [r3, #0]	@ movhi
 3028              	.LBE1306:
 3029              	.LBE1309:
 3030              		.loc 1 336 0
 3031 0098 05D0     		beq	.L114
 3032              	.LVL276:
 3033              	.L102:
 3034 009a 0231     		adds	r1, r1, #2
 3035 009c 8C42     		cmp	r4, r1
 3036              	.LBB1310:
 3037              	.LBB1307:
 3038              		.loc 2 153 0
 3039 009e 1F80     		strh	r7, [r3, #0]	@ movhi
 3040 00a0 1F80     		strh	r7, [r3, #0]	@ movhi
 3041              	.LBE1307:
 3042              	.LBE1310:
 3043              		.loc 1 336 0
 3044 00a2 FAD1     		bne	.L102
 3045              	.LVL277:
 3046              	.L95:
 3047 00a4 F8BD     		pop	{r3, r4, r5, r6, r7, pc}
 3048              	.LVL278:
 3049              	.L114:
 3050 00a6 F8BD     		pop	{r3, r4, r5, r6, r7, pc}
 3051              	.L113:
 3052 00a8 F8BD     		pop	{r3, r4, r5, r6, r7, pc}
 3053              	.L116:
 3054 00aa 00BF     		.align	2
 3055              	.L115:
 3056 00ac 00000000 		.word	.LANCHOR0
 3057              		.cfi_endproc
 3058              	.LFE138:
 3059              		.size	gdisp_lld_fill_area, .-gdisp_lld_fill_area
 3060              		.section	.text.gdisp_lld_draw_line,"ax",%progbits
 3061              		.align	2
 3062              		.p2align 4,,15
 3063              		.global	gdisp_lld_draw_line
 3064              		.thumb
 3065              		.thumb_func
 3066              		.type	gdisp_lld_draw_line, %function
 3067              	gdisp_lld_draw_line:
 3068              	.LFB118:
 3069              		.loc 3 39 0
 3070              		.cfi_startproc
 3071              		@ args = 4, pretend = 0, frame = 16
 3072              		@ frame_needed = 0, uses_anonymous_args = 0
 3073              	.LVL279:
ARM GAS  /tmp/ccLrOMZj.s 			page 55


 3074 0000 2DE9F04F 		push	{r4, r5, r6, r7, r8, r9, sl, fp, lr}
 3075              	.LCFI11:
 3076              		.cfi_def_cfa_offset 36
 3077              		.cfi_offset 4, -36
 3078              		.cfi_offset 5, -32
 3079              		.cfi_offset 6, -28
 3080              		.cfi_offset 7, -24
 3081              		.cfi_offset 8, -20
 3082              		.cfi_offset 9, -16
 3083              		.cfi_offset 10, -12
 3084              		.cfi_offset 11, -8
 3085              		.cfi_offset 14, -4
 3086 0004 85B0     		sub	sp, sp, #20
 3087              	.LCFI12:
 3088              		.cfi_def_cfa_offset 56
 3089              		.loc 3 46 0
 3090 0006 9042     		cmp	r0, r2
 3091              		.loc 3 39 0
 3092 0008 8146     		mov	r9, r0
 3093 000a 0C46     		mov	r4, r1
 3094 000c BDF83850 		ldrh	r5, [sp, #56]
 3095              		.loc 3 46 0
 3096 0010 00F00A81 		beq	.L168
 3097              		.loc 3 53 0
 3098 0014 9942     		cmp	r1, r3
 3099 0016 00F01481 		beq	.L169
 3100              		.loc 3 62 0
 3101 001a 9042     		cmp	r0, r2
 3102 001c 40F38380 		ble	.L170
 3103              		.loc 3 66 0
 3104 0020 821A     		subs	r2, r0, r2
 3105              	.LVL280:
 3106              		.loc 3 69 0
 3107 0022 A342     		cmp	r3, r4
 3108              		.loc 3 66 0
 3109 0024 90B2     		uxth	r0, r2
 3110              	.LVL281:
 3111              		.loc 3 67 0
 3112 0026 4FF6FF76 		movw	r6, #65535
 3113              	.LVL282:
 3114              		.loc 3 69 0
 3115 002a C0F28280 		blt	.L124
 3116              	.LVL283:
 3117              	.L172:
 3118              		.loc 3 70 0
 3119 002e 1F1B     		subs	r7, r3, r4
 3120 0030 B9B2     		uxth	r1, r7
 3121              	.LVL284:
 3122              		.loc 3 77 0
 3123 0032 0FFA81FB 		sxth	fp, r1
 3124 0036 0FFA80FA 		sxth	sl, r0
 3125              		.loc 3 71 0
 3126 003a 0127     		movs	r7, #1
 3127              	.LVL285:
 3128              		.loc 3 77 0
 3129 003c D345     		cmp	fp, sl
 3130 003e 00F38380 		bgt	.L126
ARM GAS  /tmp/ccLrOMZj.s 			page 56


 3131              	.LVL286:
 3132              	.L173:
 3133              		.loc 3 78 0
 3134 0042 4B00     		lsls	r3, r1, #1
 3135              		.loc 3 79 0
 3136 0044 82B2     		uxth	r2, r0
 3137              		.loc 3 78 0
 3138 0046 98B2     		uxth	r0, r3
 3139              		.loc 3 79 0
 3140 0048 811A     		subs	r1, r0, r2
 3141 004a 8BB2     		uxth	r3, r1
 3142              		.loc 3 80 0
 3143 004c 9A1A     		subs	r2, r3, r2
 3144              		.loc 3 78 0
 3145 004e 0290     		str	r0, [sp, #8]
 3146              	.LVL287:
 3147              		.loc 3 82 0
 3148 0050 BAF1000F 		cmp	sl, #0
 3149              		.loc 3 80 0
 3150 0054 90B2     		uxth	r0, r2
 3151              		.loc 3 79 0
 3152 0056 1FFA83F8 		uxth	r8, r3
 3153              	.LVL288:
 3154              		.loc 3 80 0
 3155 005a 0190     		str	r0, [sp, #4]
 3156              	.LVL289:
 3157              		.loc 3 82 0
 3158 005c C0F2E180 		blt	.L117
 3159 0060 0AF00103 		and	r3, sl, #1
 3160              	.LVL290:
 3161              		.loc 3 83 0
 3162 0064 4846     		mov	r0, r9
 3163 0066 2146     		mov	r1, r4
 3164 0068 2A46     		mov	r2, r5
 3165 006a 0393     		str	r3, [sp, #12]
 3166 006c FFF7FEFF 		bl	gdisp_lld_draw_pixel
 3167              	.LVL291:
 3168              		.loc 3 84 0
 3169 0070 18F4004F 		tst	r8, #32768
 3170 0074 40F02581 		bne	.L171
 3171              		.loc 3 88 0
 3172 0078 0199     		ldr	r1, [sp, #4]
 3173              		.loc 3 89 0
 3174 007a B144     		add	r9, r9, r6
 3175              	.LVL292:
 3176              		.loc 3 88 0
 3177 007c 01EB0802 		add	r2, r1, r8
 3178              		.loc 3 90 0
 3179 0080 E419     		adds	r4, r4, r7
 3180              	.LVL293:
 3181              		.loc 3 88 0
 3182 0082 1FFA82FB 		uxth	fp, r2
 3183              		.loc 3 89 0
 3184 0086 0FFA89F9 		sxth	r9, r9
 3185              		.loc 3 90 0
 3186 008a 24B2     		sxth	r4, r4
 3187              	.LVL294:
ARM GAS  /tmp/ccLrOMZj.s 			page 57


 3188              	.L160:
 3189              		.loc 3 82 0
 3190 008c 4FF00108 		mov	r8, #1
 3191              	.LVL295:
 3192 0090 C245     		cmp	sl, r8
 3193 0092 C0F2C680 		blt	.L117
 3194 0096 039A     		ldr	r2, [sp, #12]
 3195 0098 A2B3     		cbz	r2, .L127
 3196              		.loc 3 83 0
 3197 009a 4846     		mov	r0, r9
 3198 009c 2146     		mov	r1, r4
 3199 009e 2A46     		mov	r2, r5
 3200 00a0 FFF7FEFF 		bl	gdisp_lld_draw_pixel
 3201              	.LVL296:
 3202              		.loc 3 84 0
 3203 00a4 1BF4004F 		tst	fp, #32768
 3204 00a8 18D0     		beq	.L143
 3205 00aa DFE0     		b	.L157
 3206              	.LVL297:
 3207              	.L129:
 3208              		.loc 3 88 0
 3209 00ac 019A     		ldr	r2, [sp, #4]
 3210              		.loc 3 89 0
 3211 00ae 09EB060E 		add	lr, r9, r6
 3212              		.loc 3 88 0
 3213 00b2 02EB0B00 		add	r0, r2, fp
 3214              		.loc 3 90 0
 3215 00b6 E419     		adds	r4, r4, r7
 3216 00b8 24B2     		sxth	r4, r4
 3217              		.loc 3 88 0
 3218 00ba 1FFA80FB 		uxth	fp, r0
 3219              		.loc 3 89 0
 3220 00be 0FFA8EF9 		sxth	r9, lr
 3221              	.LVL298:
 3222              	.L130:
 3223              		.loc 3 82 0
 3224 00c2 08F1010C 		add	ip, r8, #1
 3225              		.loc 3 83 0
 3226 00c6 2146     		mov	r1, r4
 3227 00c8 4846     		mov	r0, r9
 3228 00ca 2A46     		mov	r2, r5
 3229              		.loc 3 82 0
 3230 00cc 1FFA8CF8 		uxth	r8, ip
 3231              		.loc 3 83 0
 3232 00d0 FFF7FEFF 		bl	gdisp_lld_draw_pixel
 3233              	.LVL299:
 3234              		.loc 3 84 0
 3235 00d4 1BF4004F 		tst	fp, #32768
 3236 00d8 40F0C880 		bne	.L157
 3237              	.LVL300:
 3238              	.L143:
 3239              		.loc 3 88 0
 3240 00dc 019A     		ldr	r2, [sp, #4]
 3241              		.loc 3 89 0
 3242 00de 09EB0603 		add	r3, r9, r6
 3243              		.loc 3 88 0
 3244 00e2 02EB0B00 		add	r0, r2, fp
ARM GAS  /tmp/ccLrOMZj.s 			page 58


 3245              		.loc 3 90 0
 3246 00e6 E419     		adds	r4, r4, r7
 3247              		.loc 3 88 0
 3248 00e8 1FFA80FB 		uxth	fp, r0
 3249              		.loc 3 89 0
 3250 00ec 0FFA83F9 		sxth	r9, r3
 3251              		.loc 3 90 0
 3252 00f0 24B2     		sxth	r4, r4
 3253              	.LVL301:
 3254              	.L163:
 3255              		.loc 3 82 0
 3256 00f2 08F10108 		add	r8, r8, #1
 3257 00f6 1FFA88F8 		uxth	r8, r8
 3258 00fa 0FFA88F1 		sxth	r1, r8
 3259 00fe 8A45     		cmp	sl, r1
 3260 0100 C0F28F80 		blt	.L117
 3261              	.LVL302:
 3262              	.L127:
 3263              		.loc 3 83 0
 3264 0104 4846     		mov	r0, r9
 3265 0106 2A46     		mov	r2, r5
 3266 0108 2146     		mov	r1, r4
 3267 010a FFF7FEFF 		bl	gdisp_lld_draw_pixel
 3268              	.LVL303:
 3269              		.loc 3 84 0
 3270 010e 1BF4004F 		tst	fp, #32768
 3271 0112 CBD0     		beq	.L129
 3272              		.loc 3 85 0
 3273 0114 029B     		ldr	r3, [sp, #8]
 3274              		.loc 3 86 0
 3275 0116 B144     		add	r9, r9, r6
 3276              		.loc 3 85 0
 3277 0118 03EB0B01 		add	r1, r3, fp
 3278 011c 1FFA81FB 		uxth	fp, r1
 3279              		.loc 3 86 0
 3280 0120 0FFA89F9 		sxth	r9, r9
 3281 0124 CDE7     		b	.L130
 3282              	.LVL304:
 3283              	.L170:
 3284              		.loc 3 63 0
 3285 0126 111A     		subs	r1, r2, r0
 3286              	.LVL305:
 3287              		.loc 3 64 0
 3288 0128 0126     		movs	r6, #1
 3289              		.loc 3 69 0
 3290 012a A342     		cmp	r3, r4
 3291              		.loc 3 63 0
 3292 012c 88B2     		uxth	r0, r1
 3293              	.LVL306:
 3294              		.loc 3 69 0
 3295 012e BFF67EAF 		bge	.L172
 3296              	.LVL307:
 3297              	.L124:
 3298              		.loc 3 73 0
 3299 0132 E31A     		subs	r3, r4, r3
 3300              	.LVL308:
 3301 0134 99B2     		uxth	r1, r3
ARM GAS  /tmp/ccLrOMZj.s 			page 59


 3302              	.LVL309:
 3303              		.loc 3 77 0
 3304 0136 0FFA81FB 		sxth	fp, r1
 3305 013a 0FFA80FA 		sxth	sl, r0
 3306 013e D345     		cmp	fp, sl
 3307              		.loc 3 74 0
 3308 0140 4FF6FF77 		movw	r7, #65535
 3309              	.LVL310:
 3310              		.loc 3 77 0
 3311 0144 7FF77DAF 		ble	.L173
 3312              	.LVL311:
 3313              	.L126:
 3314              		.loc 3 94 0
 3315 0148 4200     		lsls	r2, r0, #1
 3316 014a 93B2     		uxth	r3, r2
 3317              		.loc 3 95 0
 3318 014c 88B2     		uxth	r0, r1
 3319 014e 191A     		subs	r1, r3, r0
 3320 0150 8AB2     		uxth	r2, r1
 3321              		.loc 3 96 0
 3322 0152 101A     		subs	r0, r2, r0
 3323              		.loc 3 94 0
 3324 0154 0293     		str	r3, [sp, #8]
 3325              	.LVL312:
 3326              		.loc 3 98 0
 3327 0156 BBF1000F 		cmp	fp, #0
 3328              		.loc 3 96 0
 3329 015a 83B2     		uxth	r3, r0
 3330              		.loc 3 95 0
 3331 015c 1FFA82F8 		uxth	r8, r2
 3332              	.LVL313:
 3333              		.loc 3 96 0
 3334 0160 0193     		str	r3, [sp, #4]
 3335              	.LVL314:
 3336              		.loc 3 98 0
 3337 0162 5EDB     		blt	.L117
 3338 0164 0BF00103 		and	r3, fp, #1
 3339              		.loc 3 99 0
 3340 0168 4846     		mov	r0, r9
 3341 016a 2146     		mov	r1, r4
 3342 016c 2A46     		mov	r2, r5
 3343              	.LVL315:
 3344 016e 0393     		str	r3, [sp, #12]
 3345 0170 FFF7FEFF 		bl	gdisp_lld_draw_pixel
 3346              	.LVL316:
 3347              		.loc 3 100 0
 3348 0174 18F4004F 		tst	r8, #32768
 3349 0178 40F09B80 		bne	.L174
 3350              		.loc 3 104 0
 3351 017c 0199     		ldr	r1, [sp, #4]
 3352              		.loc 3 105 0
 3353 017e B144     		add	r9, r9, r6
 3354              	.LVL317:
 3355              		.loc 3 104 0
 3356 0180 01EB0802 		add	r2, r1, r8
 3357              		.loc 3 106 0
 3358 0184 E419     		adds	r4, r4, r7
ARM GAS  /tmp/ccLrOMZj.s 			page 60


 3359              	.LVL318:
 3360              		.loc 3 104 0
 3361 0186 1FFA82FA 		uxth	sl, r2
 3362              		.loc 3 105 0
 3363 018a 0FFA89F9 		sxth	r9, r9
 3364              	.LVL319:
 3365              		.loc 3 106 0
 3366 018e 24B2     		sxth	r4, r4
 3367              	.LVL320:
 3368              	.L164:
 3369              		.loc 3 98 0
 3370 0190 4FF00108 		mov	r8, #1
 3371              	.LVL321:
 3372 0194 C345     		cmp	fp, r8
 3373 0196 44DB     		blt	.L117
 3374 0198 039A     		ldr	r2, [sp, #12]
 3375 019a 92B3     		cbz	r2, .L134
 3376              		.loc 3 99 0
 3377 019c 4846     		mov	r0, r9
 3378 019e 2146     		mov	r1, r4
 3379 01a0 2A46     		mov	r2, r5
 3380 01a2 FFF7FEFF 		bl	gdisp_lld_draw_pixel
 3381              	.LVL322:
 3382              		.loc 3 100 0
 3383 01a6 1AF4004F 		tst	sl, #32768
 3384 01aa 17D0     		beq	.L150
 3385 01ac 56E0     		b	.L159
 3386              	.LVL323:
 3387              	.L132:
 3388              		.loc 3 104 0
 3389 01ae 019A     		ldr	r2, [sp, #4]
 3390              		.loc 3 106 0
 3391 01b0 E319     		adds	r3, r4, r7
 3392              		.loc 3 104 0
 3393 01b2 02EB0A00 		add	r0, r2, sl
 3394              		.loc 3 105 0
 3395 01b6 09EB060A 		add	sl, r9, r6
 3396 01ba 0FFA8AF9 		sxth	r9, sl
 3397              		.loc 3 106 0
 3398 01be 1CB2     		sxth	r4, r3
 3399              		.loc 3 104 0
 3400 01c0 1FFA80FA 		uxth	sl, r0
 3401              	.LVL324:
 3402              	.L133:
 3403              		.loc 3 98 0
 3404 01c4 08F1010C 		add	ip, r8, #1
 3405              		.loc 3 99 0
 3406 01c8 4846     		mov	r0, r9
 3407 01ca 2146     		mov	r1, r4
 3408 01cc 2A46     		mov	r2, r5
 3409              		.loc 3 98 0
 3410 01ce 1FFA8CF8 		uxth	r8, ip
 3411              		.loc 3 99 0
 3412 01d2 FFF7FEFF 		bl	gdisp_lld_draw_pixel
 3413              	.LVL325:
 3414              		.loc 3 100 0
 3415 01d6 1AF4004F 		tst	sl, #32768
ARM GAS  /tmp/ccLrOMZj.s 			page 61


 3416 01da 3FD1     		bne	.L159
 3417              	.LVL326:
 3418              	.L150:
 3419              		.loc 3 104 0
 3420 01dc 0198     		ldr	r0, [sp, #4]
 3421              		.loc 3 105 0
 3422 01de 09EB060E 		add	lr, r9, r6
 3423              		.loc 3 104 0
 3424 01e2 00EB0A03 		add	r3, r0, sl
 3425              		.loc 3 106 0
 3426 01e6 E119     		adds	r1, r4, r7
 3427              		.loc 3 104 0
 3428 01e8 1FFA83FA 		uxth	sl, r3
 3429              		.loc 3 105 0
 3430 01ec 0FFA8EF9 		sxth	r9, lr
 3431              	.LVL327:
 3432              		.loc 3 106 0
 3433 01f0 0CB2     		sxth	r4, r1
 3434              	.LVL328:
 3435              	.L167:
 3436              		.loc 3 98 0
 3437 01f2 08F10108 		add	r8, r8, #1
 3438 01f6 1FFA88F8 		uxth	r8, r8
 3439 01fa 0FFA88F1 		sxth	r1, r8
 3440 01fe 8B45     		cmp	fp, r1
 3441 0200 0FDB     		blt	.L117
 3442              	.LVL329:
 3443              	.L134:
 3444              		.loc 3 99 0
 3445 0202 2146     		mov	r1, r4
 3446 0204 2A46     		mov	r2, r5
 3447 0206 4846     		mov	r0, r9
 3448 0208 FFF7FEFF 		bl	gdisp_lld_draw_pixel
 3449              	.LVL330:
 3450              		.loc 3 100 0
 3451 020c 1AF4004F 		tst	sl, #32768
 3452 0210 CDD0     		beq	.L132
 3453              		.loc 3 101 0
 3454 0212 0299     		ldr	r1, [sp, #8]
 3455              		.loc 3 102 0
 3456 0214 E419     		adds	r4, r4, r7
 3457              		.loc 3 101 0
 3458 0216 01EB0A02 		add	r2, r1, sl
 3459 021a 1FFA82FA 		uxth	sl, r2
 3460              		.loc 3 102 0
 3461 021e 24B2     		sxth	r4, r4
 3462 0220 D0E7     		b	.L133
 3463              	.LVL331:
 3464              	.L117:
 3465              		.loc 3 110 0
 3466 0222 05B0     		add	sp, sp, #20
 3467 0224 BDE8F08F 		pop	{r4, r5, r6, r7, r8, r9, sl, fp, pc}
 3468              	.LVL332:
 3469              	.L168:
 3470              		.loc 3 47 0
 3471 0228 8B42     		cmp	r3, r1
 3472 022a 29DD     		ble	.L119
ARM GAS  /tmp/ccLrOMZj.s 			page 62


 3473              		.loc 3 48 0
 3474 022c C1F10104 		rsb	r4, r1, #1
 3475 0230 E318     		adds	r3, r4, r3
 3476              	.LVL333:
 3477 0232 0122     		movs	r2, #1
 3478              	.LVL334:
 3479 0234 1BB2     		sxth	r3, r3
 3480 0236 0E95     		str	r5, [sp, #56]
 3481              		.loc 3 110 0
 3482 0238 05B0     		add	sp, sp, #20
 3483 023a BDE8F04F 		pop	{r4, r5, r6, r7, r8, r9, sl, fp, lr}
 3484              		.loc 3 48 0
 3485 023e FFF7FEBF 		b	gdisp_lld_fill_area
 3486              	.LVL335:
 3487              	.L169:
 3488              		.loc 3 54 0
 3489 0242 9042     		cmp	r0, r2
 3490 0244 27DA     		bge	.L121
 3491              		.loc 3 55 0
 3492 0246 C0F10109 		rsb	r9, r0, #1
 3493 024a 4A44     		add	r2, r9, r2
 3494              	.LVL336:
 3495 024c 12B2     		sxth	r2, r2
 3496 024e 0123     		movs	r3, #1
 3497              	.LVL337:
 3498 0250 0E95     		str	r5, [sp, #56]
 3499              		.loc 3 110 0
 3500 0252 05B0     		add	sp, sp, #20
 3501 0254 BDE8F04F 		pop	{r4, r5, r6, r7, r8, r9, sl, fp, lr}
 3502              		.loc 3 55 0
 3503 0258 FFF7FEBF 		b	gdisp_lld_fill_area
 3504              	.LVL338:
 3505              	.L159:
 3506              		.loc 3 101 0
 3507 025c 0298     		ldr	r0, [sp, #8]
 3508              		.loc 3 102 0
 3509 025e E419     		adds	r4, r4, r7
 3510              		.loc 3 101 0
 3511 0260 00EB0A03 		add	r3, r0, sl
 3512 0264 1FFA83FA 		uxth	sl, r3
 3513              		.loc 3 102 0
 3514 0268 24B2     		sxth	r4, r4
 3515 026a C2E7     		b	.L167
 3516              	.LVL339:
 3517              	.L157:
 3518              		.loc 3 85 0
 3519 026c 0298     		ldr	r0, [sp, #8]
 3520              		.loc 3 86 0
 3521 026e 09EB060C 		add	ip, r9, r6
 3522              		.loc 3 85 0
 3523 0272 00EB0B03 		add	r3, r0, fp
 3524 0276 1FFA83FB 		uxth	fp, r3
 3525              		.loc 3 86 0
 3526 027a 0FFA8CF9 		sxth	r9, ip
 3527 027e 38E7     		b	.L163
 3528              	.LVL340:
 3529              	.L119:
ARM GAS  /tmp/ccLrOMZj.s 			page 63


 3530              		.loc 3 50 0
 3531 0280 0131     		adds	r1, r1, #1
 3532              	.LVL341:
 3533 0282 CC1A     		subs	r4, r1, r3
 3534 0284 0122     		movs	r2, #1
 3535              	.LVL342:
 3536 0286 1946     		mov	r1, r3
 3537 0288 23B2     		sxth	r3, r4
 3538              	.LVL343:
 3539 028a 0E95     		str	r5, [sp, #56]
 3540              		.loc 3 110 0
 3541 028c 05B0     		add	sp, sp, #20
 3542 028e BDE8F04F 		pop	{r4, r5, r6, r7, r8, r9, sl, fp, lr}
 3543              		.loc 3 50 0
 3544 0292 FFF7FEBF 		b	gdisp_lld_fill_area
 3545              	.LVL344:
 3546              	.L121:
 3547              		.loc 3 57 0
 3548 0296 00F10109 		add	r9, r0, #1
 3549 029a C2EB0909 		rsb	r9, r2, r9
 3550 029e 1046     		mov	r0, r2
 3551              	.LVL345:
 3552 02a0 0123     		movs	r3, #1
 3553              	.LVL346:
 3554 02a2 0FFA89F2 		sxth	r2, r9
 3555              	.LVL347:
 3556 02a6 0E95     		str	r5, [sp, #56]
 3557              		.loc 3 110 0
 3558 02a8 05B0     		add	sp, sp, #20
 3559 02aa BDE8F04F 		pop	{r4, r5, r6, r7, r8, r9, sl, fp, lr}
 3560              		.loc 3 57 0
 3561 02ae FFF7FEBF 		b	gdisp_lld_fill_area
 3562              	.LVL348:
 3563              	.L174:
 3564              		.loc 3 101 0
 3565 02b2 0298     		ldr	r0, [sp, #8]
 3566              		.loc 3 102 0
 3567 02b4 E119     		adds	r1, r4, r7
 3568              		.loc 3 101 0
 3569 02b6 00EB0803 		add	r3, r0, r8
 3570 02ba 1FFA83FA 		uxth	sl, r3
 3571              		.loc 3 102 0
 3572 02be 0CB2     		sxth	r4, r1
 3573              	.LVL349:
 3574 02c0 66E7     		b	.L164
 3575              	.LVL350:
 3576              	.L171:
 3577              		.loc 3 85 0
 3578 02c2 0298     		ldr	r0, [sp, #8]
 3579              		.loc 3 86 0
 3580 02c4 09EB0601 		add	r1, r9, r6
 3581              		.loc 3 85 0
 3582 02c8 00EB0803 		add	r3, r0, r8
 3583 02cc 1FFA83FB 		uxth	fp, r3
 3584              		.loc 3 86 0
 3585 02d0 0FFA81F9 		sxth	r9, r1
 3586              	.LVL351:
ARM GAS  /tmp/ccLrOMZj.s 			page 64


 3587 02d4 DAE6     		b	.L160
 3588              		.cfi_endproc
 3589              	.LFE118:
 3590              		.size	gdisp_lld_draw_line, .-gdisp_lld_draw_line
 3591 02d6 00BFAFF3 		.section	.text.gdisp_lld_fill_circle,"ax",%progbits
 3591      0080AFF3 
 3591      0080
 3592              		.align	2
 3593              		.p2align 4,,15
 3594              		.global	gdisp_lld_fill_circle
 3595              		.thumb
 3596              		.thumb_func
 3597              		.type	gdisp_lld_fill_circle, %function
 3598              	gdisp_lld_fill_circle:
 3599              	.LFB121:
 3600              		.loc 3 195 0
 3601              		.cfi_startproc
 3602              		@ args = 0, pretend = 0, frame = 16
 3603              		@ frame_needed = 0, uses_anonymous_args = 0
 3604              	.LVL352:
 3605 0000 2DE9F04F 		push	{r4, r5, r6, r7, r8, r9, sl, fp, lr}
 3606              	.LCFI13:
 3607              		.cfi_def_cfa_offset 36
 3608              		.cfi_offset 4, -36
 3609              		.cfi_offset 5, -32
 3610              		.cfi_offset 6, -28
 3611              		.cfi_offset 7, -24
 3612              		.cfi_offset 8, -20
 3613              		.cfi_offset 9, -16
 3614              		.cfi_offset 10, -12
 3615              		.cfi_offset 11, -8
 3616              		.cfi_offset 14, -4
 3617              		.loc 3 199 0
 3618 0004 9246     		mov	sl, r2
 3619              		.loc 3 195 0
 3620 0006 87B0     		sub	sp, sp, #28
 3621              	.LCFI14:
 3622              		.cfi_def_cfa_offset 64
 3623              		.loc 3 200 0
 3624 0008 C2F10104 		rsb	r4, r2, #1
 3625 000c A2B2     		uxth	r2, r4
 3626              	.LVL353:
 3627 000e 1FFA80F8 		uxth	r8, r0
 3628 0012 0FFA8AF0 		sxth	r0, sl
 3629              	.LVL354:
 3630              		.loc 3 195 0
 3631 0016 1F46     		mov	r7, r3
 3632              		.loc 3 200 0
 3633 0018 0492     		str	r2, [sp, #16]
 3634              	.LVL355:
 3635 001a 8EB2     		uxth	r6, r1
 3636 001c 4FF00009 		mov	r9, #0
 3637 0020 0590     		str	r0, [sp, #20]
 3638 0022 17E0     		b	.L178
 3639              	.LVL356:
 3640              	.L176:
 3641              		.loc 3 210 0
ARM GAS  /tmp/ccLrOMZj.s 			page 65


 3642 0024 059A     		ldr	r2, [sp, #20]
 3643 0026 0499     		ldr	r1, [sp, #16]
 3644 0028 0AF1FF3A 		add	sl, sl, #-1
 3645              	.LVL357:
 3646 002c 4B1D     		adds	r3, r1, #5
 3647 002e C2EB0900 		rsb	r0, r2, r9
 3648 0032 1FFA8AFA 		uxth	sl, sl
 3649              	.LVL358:
 3650 0036 03EB4000 		add	r0, r3, r0, lsl #1
 3651 003a 0FFA8AF2 		sxth	r2, sl
 3652              		.loc 3 195 0
 3653 003e 0134     		adds	r4, r4, #1
 3654              		.loc 3 210 0
 3655 0040 83B2     		uxth	r3, r0
 3656 0042 0592     		str	r2, [sp, #20]
 3657              		.loc 3 195 0
 3658 0044 A1B2     		uxth	r1, r4
 3659              		.loc 3 210 0
 3660 0046 0493     		str	r3, [sp, #16]
 3661              	.LVL359:
 3662              		.loc 3 211 0
 3663 0048 059B     		ldr	r3, [sp, #20]
 3664 004a 0CB2     		sxth	r4, r1
 3665              	.LVL360:
 3666 004c 9C42     		cmp	r4, r3
 3667 004e 09F10109 		add	r9, r9, #1
 3668 0052 45DC     		bgt	.L180
 3669              	.LVL361:
 3670              	.L178:
 3671              		.loc 3 203 0
 3672 0054 1FFA8AF5 		uxth	r5, sl
 3673              		.loc 3 195 0
 3674 0058 1FFA89F4 		uxth	r4, r9
 3675 005c C4EB080C 		rsb	ip, r4, r8
 3676              		.loc 3 203 0
 3677 0060 A919     		adds	r1, r5, r6
 3678              		.loc 3 195 0
 3679 0062 08EB040B 		add	fp, r8, r4
 3680              		.loc 3 203 0
 3681 0066 0FFA8CFE 		sxth	lr, ip
 3682 006a 09B2     		sxth	r1, r1
 3683 006c 0FFA8BFB 		sxth	fp, fp
 3684 0070 7046     		mov	r0, lr
 3685 0072 5A46     		mov	r2, fp
 3686 0074 0B46     		mov	r3, r1
 3687 0076 0097     		str	r7, [sp, #0]
 3688 0078 CDF80CE0 		str	lr, [sp, #12]
 3689 007c FFF7FEFF 		bl	gdisp_lld_draw_line
 3690              	.LVL362:
 3691              		.loc 3 204 0
 3692 0080 DDF80CC0 		ldr	ip, [sp, #12]
 3693 0084 0097     		str	r7, [sp, #0]
 3694 0086 731B     		subs	r3, r6, r5
 3695 0088 19B2     		sxth	r1, r3
 3696 008a 6046     		mov	r0, ip
 3697 008c 5A46     		mov	r2, fp
 3698 008e 0B46     		mov	r3, r1
ARM GAS  /tmp/ccLrOMZj.s 			page 66


 3699 0090 FFF7FEFF 		bl	gdisp_lld_draw_line
 3700              	.LVL363:
 3701              		.loc 3 205 0
 3702 0094 C5EB0800 		rsb	r0, r5, r8
 3703              		.loc 3 195 0
 3704 0098 3219     		adds	r2, r6, r4
 3705              		.loc 3 205 0
 3706 009a 4544     		add	r5, r5, r8
 3707 009c 11B2     		sxth	r1, r2
 3708 009e 0FFA80FB 		sxth	fp, r0
 3709 00a2 2DB2     		sxth	r5, r5
 3710 00a4 0B46     		mov	r3, r1
 3711 00a6 5846     		mov	r0, fp
 3712 00a8 2A46     		mov	r2, r5
 3713 00aa 0097     		str	r7, [sp, #0]
 3714 00ac FFF7FEFF 		bl	gdisp_lld_draw_line
 3715              	.LVL364:
 3716              		.loc 3 195 0
 3717 00b0 311B     		subs	r1, r6, r4
 3718              		.loc 3 206 0
 3719 00b2 09B2     		sxth	r1, r1
 3720 00b4 0B46     		mov	r3, r1
 3721 00b6 0097     		str	r7, [sp, #0]
 3722 00b8 5846     		mov	r0, fp
 3723 00ba 2A46     		mov	r2, r5
 3724 00bc FFF7FEFF 		bl	gdisp_lld_draw_line
 3725              	.LVL365:
 3726              		.loc 3 207 0
 3727 00c0 049B     		ldr	r3, [sp, #16]
 3728 00c2 1904     		lsls	r1, r3, #16
 3729 00c4 AED5     		bpl	.L176
 3730              		.loc 3 208 0
 3731 00c6 D81C     		adds	r0, r3, #3
 3732 00c8 00EB4401 		add	r1, r0, r4, lsl #1
 3733              		.loc 3 195 0
 3734 00cc 0134     		adds	r4, r4, #1
 3735              		.loc 3 208 0
 3736 00ce 8AB2     		uxth	r2, r1
 3737              		.loc 3 211 0
 3738 00d0 059B     		ldr	r3, [sp, #20]
 3739              		.loc 3 208 0
 3740 00d2 0492     		str	r2, [sp, #16]
 3741              		.loc 3 195 0
 3742 00d4 A1B2     		uxth	r1, r4
 3743              	.LVL366:
 3744              		.loc 3 211 0
 3745 00d6 0CB2     		sxth	r4, r1
 3746              	.LVL367:
 3747 00d8 9C42     		cmp	r4, r3
 3748 00da 09F10109 		add	r9, r9, #1
 3749 00de B9DD     		ble	.L178
 3750              	.LVL368:
 3751              	.L180:
 3752              		.loc 3 212 0
 3753 00e0 07B0     		add	sp, sp, #28
 3754 00e2 BDE8F08F 		pop	{r4, r5, r6, r7, r8, r9, sl, fp, pc}
 3755              		.cfi_endproc
ARM GAS  /tmp/ccLrOMZj.s 			page 67


 3756              	.LFE121:
 3757              		.size	gdisp_lld_fill_circle, .-gdisp_lld_fill_circle
 3758 00e6 00BFAFF3 		.section	.text.gdisp_lld_blit_area_ex,"ax",%progbits
 3758      0080AFF3 
 3758      0080
 3759              		.align	2
 3760              		.p2align 4,,15
 3761              		.global	gdisp_lld_blit_area_ex
 3762              		.thumb
 3763              		.thumb_func
 3764              		.type	gdisp_lld_blit_area_ex, %function
 3765              	gdisp_lld_blit_area_ex:
 3766              	.LFB139:
 3767              		.loc 1 358 0
 3768              		.cfi_startproc
 3769              		@ args = 16, pretend = 0, frame = 0
 3770              		@ frame_needed = 0, uses_anonymous_args = 0
 3771              	.LVL369:
 3772 0000 2DE9F047 		push	{r4, r5, r6, r7, r8, r9, sl, lr}
 3773              	.LCFI15:
 3774              		.cfi_def_cfa_offset 32
 3775              		.cfi_offset 4, -32
 3776              		.cfi_offset 5, -28
 3777              		.cfi_offset 6, -24
 3778              		.cfi_offset 7, -20
 3779              		.cfi_offset 8, -16
 3780              		.cfi_offset 9, -12
 3781              		.cfi_offset 10, -8
 3782              		.cfi_offset 14, -4
 3783              		.loc 1 361 0
 3784 0004 4E4D     		ldr	r5, .L201
 3785              		.loc 1 358 0
 3786 0006 BDF92070 		ldrsh	r7, [sp, #32]
 3787              		.loc 1 361 0
 3788 000a B5F908A0 		ldrsh	sl, [r5, #8]
 3789              		.loc 1 358 0
 3790 000e BDF924C0 		ldrsh	ip, [sp, #36]
 3791 0012 BDF92880 		ldrsh	r8, [sp, #40]
 3792              		.loc 1 361 0
 3793 0016 8245     		cmp	sl, r0
 3794              		.loc 1 358 0
 3795 0018 0E46     		mov	r6, r1
 3796 001a 1446     		mov	r4, r2
 3797 001c 9946     		mov	r9, r3
 3798              		.loc 1 361 0
 3799 001e 09DD     		ble	.L182
 3800              		.loc 1 361 0 is_stmt 0 discriminator 1
 3801 0020 80B2     		uxth	r0, r0
 3802 0022 1FFA8AF3 		uxth	r3, sl
 3803              	.LVL370:
 3804 0026 C21A     		subs	r2, r0, r3
 3805              	.LVL371:
 3806 0028 191A     		subs	r1, r3, r0
 3807              	.LVL372:
 3808 002a 1419     		adds	r4, r2, r4
 3809 002c CF19     		adds	r7, r1, r7
 3810 002e 24B2     		sxth	r4, r4
ARM GAS  /tmp/ccLrOMZj.s 			page 68


 3811              	.LVL373:
 3812 0030 3FB2     		sxth	r7, r7
 3813              	.LVL374:
 3814 0032 5046     		mov	r0, sl
 3815              	.LVL375:
 3816              	.L182:
 3817              		.loc 1 362 0 is_stmt 1
 3818 0034 B5F90A30 		ldrsh	r3, [r5, #10]
 3819 0038 B342     		cmp	r3, r6
 3820 003a 0ADD     		ble	.L183
 3821              		.loc 1 362 0 is_stmt 0 discriminator 1
 3822 003c B6B2     		uxth	r6, r6
 3823 003e 9AB2     		uxth	r2, r3
 3824 0040 B11A     		subs	r1, r6, r2
 3825 0042 961B     		subs	r6, r2, r6
 3826 0044 B444     		add	ip, r6, ip
 3827 0046 8944     		add	r9, r1, r9
 3828 0048 0FFA89F9 		sxth	r9, r9
 3829              	.LVL376:
 3830 004c 0FFA8CFC 		sxth	ip, ip
 3831              	.LVL377:
 3832 0050 1E46     		mov	r6, r3
 3833              	.LVL378:
 3834              	.L183:
 3835              		.loc 1 363 0 is_stmt 1
 3836 0052 3B19     		adds	r3, r7, r4
 3837 0054 4345     		cmp	r3, r8
 3838 0056 C4BF     		itt	gt
 3839 0058 C7EB0804 		rsbgt	r4, r7, r8
 3840              	.LVL379:
 3841 005c 24B2     		sxthgt	r4, r4
 3842              	.LVL380:
 3843              		.loc 1 364 0
 3844 005e 002C     		cmp	r4, #0
 3845 0060 6CDD     		ble	.L181
 3846              		.loc 1 364 0 is_stmt 0 discriminator 2
 3847 0062 B9F1000F 		cmp	r9, #0
 3848 0066 69DD     		ble	.L181
 3849              		.loc 1 364 0 discriminator 1
 3850 0068 AA89     		ldrh	r2, [r5, #12]
 3851 006a 13B2     		sxth	r3, r2
 3852 006c 9842     		cmp	r0, r3
 3853 006e 65DA     		bge	.L181
 3854 0070 334D     		ldr	r5, .L201
 3855 0072 ED89     		ldrh	r5, [r5, #14]
 3856 0074 29B2     		sxth	r1, r5
 3857 0076 8E42     		cmp	r6, r1
 3858 0078 60DA     		bge	.L181
 3859              		.loc 1 365 0 is_stmt 1
 3860 007a 00EB040E 		add	lr, r0, r4
 3861 007e 9E45     		cmp	lr, r3
 3862 0080 C4BF     		itt	gt
 3863 0082 C0EB0202 		rsbgt	r2, r0, r2
 3864 0086 14B2     		sxthgt	r4, r2
 3865              	.LVL381:
 3866              		.loc 1 366 0
 3867 0088 06EB0902 		add	r2, r6, r9
ARM GAS  /tmp/ccLrOMZj.s 			page 69


 3868 008c 8A42     		cmp	r2, r1
 3869 008e 1FFA86FA 		uxth	sl, r6
 3870 0092 C4BF     		itt	gt
 3871 0094 CAEB0505 		rsbgt	r5, sl, r5
 3872 0098 0FFA85F9 		sxthgt	r9, r5
 3873              	.LVL382:
 3874              		.loc 1 369 0
 3875 009c 0B9D     		ldr	r5, [sp, #44]
 3876 009e 08FB0C7C 		mla	ip, r8, ip, r7
 3877              	.LVL383:
 3878              		.loc 1 372 0
 3879 00a2 3146     		mov	r1, r6
 3880 00a4 2246     		mov	r2, r4
 3881 00a6 4B46     		mov	r3, r9
 3882              		.loc 1 369 0
 3883 00a8 05EB4C05 		add	r5, r5, ip, lsl #1
 3884              	.LVL384:
 3885              		.loc 1 372 0
 3886 00ac FFF7FEFF 		bl	set_viewport
 3887              	.LVL385:
 3888              		.loc 1 392 0
 3889 00b0 0AEB0901 		add	r1, sl, r9
 3890              		.loc 1 391 0
 3891 00b4 E019     		adds	r0, r4, r7
 3892              		.loc 1 394 0
 3893 00b6 0FFA81FC 		sxth	ip, r1
 3894              	.LBB1311:
 3895              	.LBB1312:
 3896              		.loc 2 144 0
 3897 00ba 4FF0C042 		mov	r2, #1610612736
 3898              	.LBE1312:
 3899              	.LBE1311:
 3900              		.loc 1 391 0
 3901 00be 83B2     		uxth	r3, r0
 3902              	.LBB1315:
 3903              	.LBB1313:
 3904              		.loc 2 144 0
 3905 00c0 2220     		movs	r0, #34
 3906              	.LBE1313:
 3907              	.LBE1315:
 3908              		.loc 1 394 0
 3909 00c2 6645     		cmp	r6, ip
 3910              	.LBB1316:
 3911              	.LBB1314:
 3912              		.loc 2 144 0
 3913 00c4 1080     		strh	r0, [r2, #0]	@ movhi
 3914              	.LBE1314:
 3915              	.LBE1316:
 3916              		.loc 1 391 0
 3917 00c6 99B2     		uxth	r1, r3
 3918              	.LVL386:
 3919              		.loc 1 393 0
 3920 00c8 C4EB0808 		rsb	r8, r4, r8
 3921              	.LVL387:
 3922              		.loc 1 394 0
 3923 00cc 36DA     		bge	.L181
 3924              		.loc 1 358 0
ARM GAS  /tmp/ccLrOMZj.s 			page 70


 3925 00ce FC43     		mvns	r4, r7
 3926              	.LVL388:
 3927 00d0 1B19     		adds	r3, r3, r4
 3928              	.LVL389:
 3929 00d2 1FFA83F9 		uxth	r9, r3
 3930              	.LVL390:
 3931 00d6 09F10100 		add	r0, r9, #1
 3932              	.LBB1317:
 3933              	.LBB1318:
 3934              		.loc 2 153 0
 3935 00da 0024     		movs	r4, #0
 3936 00dc 4FEA4808 		lsl	r8, r8, #1
 3937              	.LVL391:
 3938              	.LBE1318:
 3939              	.LBE1317:
 3940              		.loc 1 358 0
 3941 00e0 4FEA4009 		lsl	r9, r0, #1
 3942 00e4 09B2     		sxth	r1, r1
 3943              	.LVL392:
 3944              	.LBB1324:
 3945              	.LBB1319:
 3946              		.loc 2 153 0
 3947 00e6 C6F20204 		movt	r4, 24578
 3948              	.LVL393:
 3949              	.L189:
 3950              	.LBE1319:
 3951              	.LBE1324:
 3952              		.loc 1 395 0 discriminator 1
 3953 00ea 8F42     		cmp	r7, r1
 3954 00ec 21DA     		bge	.L191
 3955              		.loc 1 396 0
 3956 00ee 2B46     		mov	r3, r5
 3957              		.loc 1 395 0
 3958 00f0 7A1C     		adds	r2, r7, #1
 3959 00f2 781A     		subs	r0, r7, r1
 3960              		.loc 1 396 0
 3961 00f4 33F802AB 		ldrh	sl, [r3], #2
 3962              	.LVL394:
 3963              		.loc 1 395 0
 3964 00f8 12B2     		sxth	r2, r2
 3965 00fa C043     		mvns	r0, r0
 3966 00fc 9142     		cmp	r1, r2
 3967              	.LBB1325:
 3968              	.LBB1320:
 3969              		.loc 2 153 0
 3970 00fe A4F800A0 		strh	sl, [r4, #0]	@ movhi
 3971 0102 00F00100 		and	r0, r0, #1
 3972              	.LBE1320:
 3973              	.LBE1325:
 3974              		.loc 1 395 0
 3975 0106 13D0     		beq	.L200
 3976 0108 30B1     		cbz	r0, .L190
 3977 010a 0132     		adds	r2, r2, #1
 3978              		.loc 1 396 0
 3979 010c 33F8020B 		ldrh	r0, [r3], #2
 3980              	.LVL395:
 3981              		.loc 1 395 0
ARM GAS  /tmp/ccLrOMZj.s 			page 71


 3982 0110 12B2     		sxth	r2, r2
 3983              	.LVL396:
 3984 0112 9142     		cmp	r1, r2
 3985              	.LBB1326:
 3986              	.LBB1321:
 3987              		.loc 2 153 0
 3988 0114 2080     		strh	r0, [r4, #0]	@ movhi
 3989              	.LBE1321:
 3990              	.LBE1326:
 3991              		.loc 1 395 0
 3992 0116 0BD0     		beq	.L200
 3993              	.L190:
 3994              		.loc 1 396 0 discriminator 2
 3995 0118 1846     		mov	r0, r3
 3996              		.loc 1 395 0 discriminator 2
 3997 011a 0232     		adds	r2, r2, #2
 3998              		.loc 1 396 0 discriminator 2
 3999 011c 30F802AB 		ldrh	sl, [r0], #2
 4000              	.LBB1327:
 4001              	.LBB1322:
 4002              		.loc 2 153 0 discriminator 2
 4003 0120 A4F800A0 		strh	sl, [r4, #0]	@ movhi
 4004              	.LBE1322:
 4005              	.LBE1327:
 4006              		.loc 1 396 0 discriminator 2
 4007 0124 5B88     		ldrh	r3, [r3, #2]
 4008              		.loc 1 395 0 discriminator 2
 4009 0126 12B2     		sxth	r2, r2
 4010              	.LBB1328:
 4011              	.LBB1323:
 4012              		.loc 2 153 0 discriminator 2
 4013 0128 2380     		strh	r3, [r4, #0]	@ movhi
 4014              	.LBE1323:
 4015              	.LBE1328:
 4016              		.loc 1 396 0 discriminator 2
 4017 012a 831C     		adds	r3, r0, #2
 4018              		.loc 1 395 0 discriminator 2
 4019 012c 9142     		cmp	r1, r2
 4020 012e F3D1     		bne	.L190
 4021              	.L200:
 4022 0130 4D44     		add	r5, r5, r9
 4023              	.L191:
 4024              		.loc 1 394 0
 4025 0132 0136     		adds	r6, r6, #1
 4026 0134 36B2     		sxth	r6, r6
 4027              	.LVL397:
 4028 0136 B445     		cmp	ip, r6
 4029 0138 4544     		add	r5, r5, r8
 4030              	.LVL398:
 4031 013a D6D1     		bne	.L189
 4032              	.LVL399:
 4033              	.L181:
 4034 013c BDE8F087 		pop	{r4, r5, r6, r7, r8, r9, sl, pc}
 4035              	.L202:
 4036              		.align	2
 4037              	.L201:
 4038 0140 00000000 		.word	.LANCHOR0
ARM GAS  /tmp/ccLrOMZj.s 			page 72


 4039              		.cfi_endproc
 4040              	.LFE139:
 4041              		.size	gdisp_lld_blit_area_ex, .-gdisp_lld_blit_area_ex
 4042 0144 AFF30080 		.section	.text.gdisp_lld_fill_char,"ax",%progbits
 4042      AFF30080 
 4042      AFF30080 
 4043              		.align	2
 4044              		.p2align 4,,15
 4045              		.global	gdisp_lld_fill_char
 4046              		.thumb
 4047              		.thumb_func
 4048              		.type	gdisp_lld_fill_char, %function
 4049              	gdisp_lld_fill_char:
 4050              	.LFB123:
 4051              		.loc 3 504 0
 4052              		.cfi_startproc
 4053              		@ args = 8, pretend = 0, frame = 40
 4054              		@ frame_needed = 0, uses_anonymous_args = 0
 4055              	.LVL400:
 4056 0000 2DE9F04F 		push	{r4, r5, r6, r7, r8, r9, sl, fp, lr}
 4057              	.LCFI16:
 4058              		.cfi_def_cfa_offset 36
 4059              		.cfi_offset 4, -36
 4060              		.cfi_offset 5, -32
 4061              		.cfi_offset 6, -28
 4062              		.cfi_offset 7, -24
 4063              		.cfi_offset 8, -20
 4064              		.cfi_offset 9, -16
 4065              		.cfi_offset 10, -12
 4066              		.cfi_offset 11, -8
 4067              		.cfi_offset 14, -4
 4068              		.loc 3 509 0
 4069 0004 9C7A     		ldrb	r4, [r3, #10]	@ zero_extendqisi2
 4070              		.loc 3 504 0
 4071 0006 8FB0     		sub	sp, sp, #60
 4072              	.LCFI17:
 4073              		.cfi_def_cfa_offset 96
 4074              		.loc 3 509 0
 4075 0008 9442     		cmp	r4, r2
 4076              		.loc 3 504 0
 4077 000a BDF86050 		ldrh	r5, [sp, #96]
 4078 000e BDF86460 		ldrh	r6, [sp, #100]
 4079 0012 0C90     		str	r0, [sp, #48]
 4080 0014 0D91     		str	r1, [sp, #52]
 4081              		.loc 3 509 0
 4082 0016 00F29280 		bhi	.L203
 4083              		.loc 3 509 0 is_stmt 0 discriminator 1
 4084 001a D97A     		ldrb	r1, [r3, #11]	@ zero_extendqisi2
 4085              	.LVL401:
 4086 001c 9142     		cmp	r1, r2
 4087 001e C0F08E80 		bcc	.L203
 4088 0022 141B     		subs	r4, r2, r4
 4089 0024 1A69     		ldr	r2, [r3, #16]
 4090              	.LVL402:
 4091 0026 115D     		ldrb	r1, [r2, r4]	@ zero_extendqisi2
 4092              	.LVL403:
 4093              		.loc 3 510 0 is_stmt 1 discriminator 1
ARM GAS  /tmp/ccLrOMZj.s 			page 73


 4094 0028 0029     		cmp	r1, #0
 4095 002a 00F08880 		beq	.L203
 4096              		.loc 3 512 0
 4097 002e 187B     		ldrb	r0, [r3, #12]	@ zero_extendqisi2
 4098              	.LVL404:
 4099              		.loc 3 513 0
 4100 0030 5F7B     		ldrb	r7, [r3, #13]	@ zero_extendqisi2
 4101              		.loc 3 514 0
 4102 0032 1A79     		ldrb	r2, [r3, #4]	@ zero_extendqisi2
 4103              		.loc 3 512 0
 4104 0034 0590     		str	r0, [sp, #20]
 4105              	.LVL405:
 4106              		.loc 3 515 0
 4107 0036 00FB01F1 		mul	r1, r0, r1
 4108              	.LVL406:
 4109              		.loc 3 514 0
 4110 003a 02FB07F2 		mul	r2, r2, r7
 4111              	.LVL407:
 4112              		.loc 3 515 0
 4113 003e 0691     		str	r1, [sp, #24]
 4114              	.LBB1329:
 4115              		.loc 3 582 0
 4116 0040 11FB02F1 		smulbb	r1, r1, r2
 4117 0044 B1F5207F 		cmp	r1, #640
 4118 0048 79D8     		bhi	.L203
 4119              		.loc 3 585 0
 4120 004a 5869     		ldr	r0, [r3, #20]
 4121 004c 9B69     		ldr	r3, [r3, #24]
 4122              	.LVL408:
 4123 004e 30F81410 		ldrh	r1, [r0, r4, lsl #1]
 4124              		.loc 3 588 0
 4125 0052 069C     		ldr	r4, [sp, #24]
 4126 0054 24B2     		sxth	r4, r4
 4127              		.loc 3 585 0
 4128 0056 03EB4100 		add	r0, r3, r1, lsl #1
 4129              		.loc 3 588 0
 4130 005a 002C     		cmp	r4, #0
 4131 005c 0994     		str	r4, [sp, #36]
 4132              		.loc 3 585 0
 4133 005e 0B90     		str	r0, [sp, #44]
 4134              	.LVL409:
 4135              		.loc 3 588 0
 4136 0060 40F3A580 		ble	.L252
 4137 0064 5449     		ldr	r1, .L253
 4138              	.LBE1329:
 4139              		.loc 3 504 0
 4140 0066 099C     		ldr	r4, [sp, #36]
 4141 0068 0791     		str	r1, [sp, #28]
 4142 006a 0599     		ldr	r1, [sp, #20]
 4143              		.loc 3 588 0
 4144 006c 0020     		movs	r0, #0
 4145              	.LVL410:
 4146 006e 12B2     		sxth	r2, r2
 4147              	.LVL411:
 4148 0070 0A90     		str	r0, [sp, #40]
 4149              		.loc 3 504 0
 4150 0072 6300     		lsls	r3, r4, #1
ARM GAS  /tmp/ccLrOMZj.s 			page 74


 4151 0074 0492     		str	r2, [sp, #16]
 4152 0076 0FFA81F8 		sxth	r8, r1
 4153 007a 38B2     		sxth	r0, r7
 4154              	.LVL412:
 4155              	.L207:
 4156              	.LBB1330:
 4157              		.loc 3 590 0
 4158 007c 0B9C     		ldr	r4, [sp, #44]
 4159              		.loc 3 593 0
 4160 007e 049A     		ldr	r2, [sp, #16]
 4161              		.loc 3 590 0
 4162 0080 34F802EB 		ldrh	lr, [r4], #2
 4163              		.loc 3 593 0
 4164 0084 002A     		cmp	r2, #0
 4165              		.loc 3 590 0
 4166 0086 0B94     		str	r4, [sp, #44]
 4167              	.LVL413:
 4168              		.loc 3 593 0
 4169 0088 43DD     		ble	.L217
 4170              		.loc 3 504 0
 4171 008a 0A99     		ldr	r1, [sp, #40]
 4172 008c 0CB2     		sxth	r4, r1
 4173              	.LVL414:
 4174              		.loc 3 593 0
 4175 008e 4FF0000C 		mov	ip, #0
 4176              		.loc 3 504 0
 4177 0092 0894     		str	r4, [sp, #32]
 4178              	.LVL415:
 4179              	.L206:
 4180              		.loc 3 594 0
 4181 0094 1EF0010B 		ands	fp, lr, #1
 4182 0098 54D1     		bne	.L209
 4183              	.LVL416:
 4184              		.loc 3 599 0 discriminator 1
 4185 009a 059A     		ldr	r2, [sp, #20]
 4186 009c 72B3     		cbz	r2, .L210
 4187              		.loc 3 504 0
 4188 009e 0699     		ldr	r1, [sp, #24]
 4189 00a0 089C     		ldr	r4, [sp, #32]
 4190 00a2 079A     		ldr	r2, [sp, #28]
 4191 00a4 11FB0C49 		smlabb	r9, r1, ip, r4
 4192 00a8 02EB4909 		add	r9, r2, r9, lsl #1
 4193              	.LVL417:
 4194              	.L211:
 4195              		.loc 3 600 0 discriminator 1
 4196 00ac E7B1     		cbz	r7, .L216
 4197              		.loc 3 600 0 is_stmt 0
 4198 00ae 0122     		movs	r2, #1
 4199              	.LVL418:
 4200 00b0 411E     		subs	r1, r0, #1
 4201 00b2 9042     		cmp	r0, r2
 4202 00b4 01EA0204 		and	r4, r1, r2
 4203              		.loc 3 601 0 is_stmt 1
 4204 00b8 A9F80060 		strh	r6, [r9, #0]	@ movhi
 4205 00bc 1946     		mov	r1, r3
 4206              		.loc 3 600 0
 4207 00be 13DD     		ble	.L216
ARM GAS  /tmp/ccLrOMZj.s 			page 75


 4208 00c0 2CB1     		cbz	r4, .L215
 4209 00c2 0222     		movs	r2, #2
 4210 00c4 5900     		lsls	r1, r3, #1
 4211 00c6 9042     		cmp	r0, r2
 4212              		.loc 3 601 0
 4213 00c8 29F80360 		strh	r6, [r9, r3]	@ movhi
 4214              		.loc 3 600 0
 4215 00cc 0CDD     		ble	.L216
 4216              	.L215:
 4217              		.loc 3 600 0 is_stmt 0 discriminator 2
 4218 00ce 0232     		adds	r2, r2, #2
 4219 00d0 92B2     		uxth	r2, r2
 4220 00d2 CC18     		adds	r4, r1, r3
 4221 00d4 0FFA82FA 		sxth	sl, r2
 4222 00d8 5045     		cmp	r0, sl
 4223              		.loc 3 601 0 is_stmt 1 discriminator 2
 4224 00da 29F80160 		strh	r6, [r9, r1]	@ movhi
 4225 00de 29F80460 		strh	r6, [r9, r4]	@ movhi
 4226 00e2 04EB0301 		add	r1, r4, r3
 4227              		.loc 3 600 0 discriminator 2
 4228 00e6 F2DC     		bgt	.L215
 4229              	.L216:
 4230              		.loc 3 599 0
 4231 00e8 0BF1010B 		add	fp, fp, #1
 4232 00ec 1FFA8BFB 		uxth	fp, fp
 4233              	.LVL419:
 4234 00f0 0FFA8BF1 		sxth	r1, fp
 4235 00f4 8845     		cmp	r8, r1
 4236 00f6 09F10209 		add	r9, r9, #2
 4237 00fa D7DC     		bgt	.L211
 4238              	.LVL420:
 4239              	.L210:
 4240              		.loc 3 504 0
 4241 00fc BC44     		add	ip, r7, ip
 4242 00fe 1FFA8CF4 		uxth	r4, ip
 4243              		.loc 3 593 0
 4244 0102 0499     		ldr	r1, [sp, #16]
 4245 0104 22B2     		sxth	r2, r4
 4246 0106 9142     		cmp	r1, r2
 4247              		.loc 3 504 0
 4248 0108 1FFA84FC 		uxth	ip, r4
 4249              	.LVL421:
 4250              		.loc 3 593 0
 4251 010c 4FEA5E0E 		lsr	lr, lr, #1
 4252              	.LVL422:
 4253 0110 C0DC     		bgt	.L206
 4254              	.LVL423:
 4255              	.L217:
 4256              		.loc 3 504 0
 4257 0112 059A     		ldr	r2, [sp, #20]
 4258 0114 0A9C     		ldr	r4, [sp, #40]
 4259 0116 1119     		adds	r1, r2, r4
 4260 0118 8AB2     		uxth	r2, r1
 4261              		.loc 3 588 0
 4262 011a 11B2     		sxth	r1, r2
 4263              		.loc 3 504 0
 4264 011c 92B2     		uxth	r2, r2
ARM GAS  /tmp/ccLrOMZj.s 			page 76


 4265 011e 0A92     		str	r2, [sp, #40]
 4266              	.LVL424:
 4267              		.loc 3 588 0
 4268 0120 099A     		ldr	r2, [sp, #36]
 4269 0122 8A42     		cmp	r2, r1
 4270 0124 AADC     		bgt	.L207
 4271              	.LVL425:
 4272              	.L208:
 4273              		.loc 3 607 0
 4274 0126 079B     		ldr	r3, [sp, #28]
 4275 0128 099A     		ldr	r2, [sp, #36]
 4276 012a 0393     		str	r3, [sp, #12]
 4277 012c 0020     		movs	r0, #0
 4278 012e 0090     		str	r0, [sp, #0]
 4279 0130 0190     		str	r0, [sp, #4]
 4280 0132 0292     		str	r2, [sp, #8]
 4281 0134 0C98     		ldr	r0, [sp, #48]
 4282 0136 0D99     		ldr	r1, [sp, #52]
 4283 0138 049B     		ldr	r3, [sp, #16]
 4284 013a FFF7FEFF 		bl	gdisp_lld_blit_area_ex
 4285              	.LVL426:
 4286              	.L203:
 4287              	.LBE1330:
 4288              		.loc 3 639 0
 4289 013e 0FB0     		add	sp, sp, #60
 4290 0140 BDE8F08F 		pop	{r4, r5, r6, r7, r8, r9, sl, fp, pc}
 4291              	.LVL427:
 4292              	.L209:
 4293              	.LBB1331:
 4294              		.loc 3 595 0 discriminator 1
 4295 0144 059A     		ldr	r2, [sp, #20]
 4296 0146 002A     		cmp	r2, #0
 4297 0148 D8D0     		beq	.L210
 4298              		.loc 3 504 0
 4299 014a 069C     		ldr	r4, [sp, #24]
 4300 014c 0899     		ldr	r1, [sp, #32]
 4301 014e 079A     		ldr	r2, [sp, #28]
 4302 0150 14FB0C19 		smlabb	r9, r4, ip, r1
 4303 0154 02EB4909 		add	r9, r2, r9, lsl #1
 4304 0158 4FF0000B 		mov	fp, #0
 4305              	.LVL428:
 4306              	.L212:
 4307              		.loc 3 596 0 discriminator 1
 4308 015c E7B1     		cbz	r7, .L214
 4309              		.loc 3 596 0 is_stmt 0
 4310 015e 0122     		movs	r2, #1
 4311              	.LVL429:
 4312 0160 441E     		subs	r4, r0, #1
 4313 0162 9042     		cmp	r0, r2
 4314              		.loc 3 597 0 is_stmt 1
 4315 0164 A9F80050 		strh	r5, [r9, #0]	@ movhi
 4316 0168 04EA0204 		and	r4, r4, r2
 4317 016c 1946     		mov	r1, r3
 4318              		.loc 3 596 0
 4319 016e 13DD     		ble	.L214
 4320 0170 2CB1     		cbz	r4, .L213
 4321 0172 0222     		movs	r2, #2
ARM GAS  /tmp/ccLrOMZj.s 			page 77


 4322 0174 5900     		lsls	r1, r3, #1
 4323 0176 9042     		cmp	r0, r2
 4324              		.loc 3 597 0
 4325 0178 29F80350 		strh	r5, [r9, r3]	@ movhi
 4326              		.loc 3 596 0
 4327 017c 0CDD     		ble	.L214
 4328              	.L213:
 4329              		.loc 3 596 0 is_stmt 0 discriminator 2
 4330 017e 0232     		adds	r2, r2, #2
 4331 0180 92B2     		uxth	r2, r2
 4332 0182 CC18     		adds	r4, r1, r3
 4333 0184 0FFA82FA 		sxth	sl, r2
 4334 0188 5045     		cmp	r0, sl
 4335              		.loc 3 597 0 is_stmt 1 discriminator 2
 4336 018a 29F80150 		strh	r5, [r9, r1]	@ movhi
 4337 018e 29F80450 		strh	r5, [r9, r4]	@ movhi
 4338 0192 04EB0301 		add	r1, r4, r3
 4339              		.loc 3 596 0 discriminator 2
 4340 0196 F2DC     		bgt	.L213
 4341              	.L214:
 4342              		.loc 3 595 0
 4343 0198 0BF1010B 		add	fp, fp, #1
 4344 019c 1FFA8BFB 		uxth	fp, fp
 4345              	.LVL430:
 4346 01a0 0FFA8BF1 		sxth	r1, fp
 4347 01a4 8845     		cmp	r8, r1
 4348 01a6 09F10209 		add	r9, r9, #2
 4349 01aa D7DC     		bgt	.L212
 4350 01ac A6E7     		b	.L210
 4351              	.LVL431:
 4352              	.L252:
 4353 01ae 024B     		ldr	r3, .L253
 4354 01b0 12B2     		sxth	r2, r2
 4355              	.LVL432:
 4356 01b2 0793     		str	r3, [sp, #28]
 4357 01b4 0492     		str	r2, [sp, #16]
 4358 01b6 B6E7     		b	.L208
 4359              	.L254:
 4360              		.align	2
 4361              	.L253:
 4362 01b8 00000000 		.word	.LANCHOR2
 4363              	.LBE1331:
 4364              		.cfi_endproc
 4365              	.LFE123:
 4366              		.size	gdisp_lld_fill_char, .-gdisp_lld_fill_char
 4367 01bc AFF30080 		.section	.text.gdisp_lld_control,"ax",%progbits
 4368              		.align	2
 4369              		.p2align 4,,15
 4370              		.global	gdisp_lld_control
 4371              		.thumb
 4372              		.thumb_func
 4373              		.type	gdisp_lld_control, %function
 4374              	gdisp_lld_control:
 4375              	.LFB140:
 4376              		.loc 1 539 0
 4377              		.cfi_startproc
 4378              		@ args = 0, pretend = 0, frame = 0
ARM GAS  /tmp/ccLrOMZj.s 			page 78


 4379              		@ frame_needed = 0, uses_anonymous_args = 0
 4380              	.LVL433:
 4381              		.loc 1 540 0
 4382 0000 0128     		cmp	r0, #1
 4383              		.loc 1 539 0
 4384 0002 F8B5     		push	{r3, r4, r5, r6, r7, lr}
 4385              	.LCFI18:
 4386              		.cfi_def_cfa_offset 24
 4387              		.cfi_offset 3, -24
 4388              		.cfi_offset 4, -20
 4389              		.cfi_offset 5, -16
 4390              		.cfi_offset 6, -12
 4391              		.cfi_offset 7, -8
 4392              		.cfi_offset 14, -4
 4393              		.loc 1 540 0
 4394 0004 26D0     		beq	.L258
 4395 0006 08D3     		bcc	.L257
 4396 0008 0228     		cmp	r0, #2
 4397 000a 05D1     		bne	.L255
 4398              		.loc 1 622 0
 4399 000c 6429     		cmp	r1, #100
 4400              		.loc 1 625 0
 4401 000e 574B     		ldr	r3, .L275
 4402 0010 94BF     		ite	ls
 4403 0012 C9B2     		uxtbls	r1, r1
 4404              	.LVL434:
 4405              		.loc 1 622 0
 4406 0014 6421     		movhi	r1, #100
 4407              	.LVL435:
 4408              		.loc 1 625 0
 4409 0016 9971     		strb	r1, [r3, #6]
 4410              	.LVL436:
 4411              	.L255:
 4412 0018 F8BD     		pop	{r3, r4, r5, r6, r7, pc}
 4413              	.LVL437:
 4414              	.L257:
 4415              		.loc 1 542 0
 4416 001a 544D     		ldr	r5, .L275
 4417 001c 6B79     		ldrb	r3, [r5, #5]	@ zero_extendqisi2
 4418 001e CCB2     		uxtb	r4, r1
 4419 0020 A342     		cmp	r3, r4
 4420 0022 F9D0     		beq	.L255
 4421              		.loc 1 544 0
 4422 0024 012C     		cmp	r4, #1
 4423 0026 20D0     		beq	.L261
 4424 0028 032C     		cmp	r4, #3
 4425 002a 27D0     		beq	.L262
 4426 002c 002C     		cmp	r4, #0
 4427 002e F3D1     		bne	.L255
 4428              	.LVL438:
 4429              	.LBB1332:
 4430              	.LBB1333:
 4431              		.loc 2 153 0
 4432 0030 0023     		movs	r3, #0
 4433              	.LBE1333:
 4434              	.LBE1332:
 4435              	.LBB1336:
ARM GAS  /tmp/ccLrOMZj.s 			page 79


 4436              	.LBB1337:
 4437              		.loc 2 144 0
 4438 0032 4FF0C042 		mov	r2, #1610612736
 4439              	.LBE1337:
 4440              	.LBE1336:
 4441              	.LBB1340:
 4442              	.LBB1334:
 4443              		.loc 2 153 0
 4444 0036 C6F20203 		movt	r3, 24578
 4445              	.LBE1334:
 4446              	.LBE1340:
 4447              	.LBB1341:
 4448              	.LBB1338:
 4449              		.loc 2 144 0
 4450 003a 1021     		movs	r1, #16
 4451              	.LVL439:
 4452              	.LBE1338:
 4453              	.LBE1341:
 4454              	.LBB1342:
 4455              	.LBB1343:
 4456 003c 0720     		movs	r0, #7
 4457              	.LVL440:
 4458              	.LBE1343:
 4459              	.LBE1342:
 4460              	.LBB1345:
 4461              	.LBB1339:
 4462 003e 1180     		strh	r1, [r2, #0]	@ movhi
 4463              	.LVL441:
 4464              	.LBE1339:
 4465              	.LBE1345:
 4466              	.LBB1346:
 4467              	.LBB1335:
 4468              		.loc 2 153 0
 4469 0040 1C80     		strh	r4, [r3, #0]	@ movhi
 4470              	.LVL442:
 4471              	.LBE1335:
 4472              	.LBE1346:
 4473              	.LBB1347:
 4474              	.LBB1344:
 4475              		.loc 2 144 0
 4476 0042 1080     		strh	r0, [r2, #0]	@ movhi
 4477              	.LVL443:
 4478              	.LBE1344:
 4479              	.LBE1347:
 4480              	.LBB1348:
 4481              	.LBB1349:
 4482              		.loc 2 153 0
 4483 0044 1C80     		strh	r4, [r3, #0]	@ movhi
 4484              	.LVL444:
 4485              	.LBE1349:
 4486              	.LBE1348:
 4487              	.LBB1350:
 4488              	.LBB1351:
 4489              		.loc 2 144 0
 4490 0046 1480     		strh	r4, [r2, #0]	@ movhi
 4491              	.LVL445:
 4492              	.LBE1351:
ARM GAS  /tmp/ccLrOMZj.s 			page 80


 4493              	.LBE1350:
 4494              	.LBB1352:
 4495              	.LBB1353:
 4496              		.loc 2 153 0
 4497 0048 1C80     		strh	r4, [r3, #0]	@ movhi
 4498              	.LVL446:
 4499              	.LBE1353:
 4500              	.LBE1352:
 4501              	.LBB1354:
 4502              	.LBB1355:
 4503              		.loc 2 144 0
 4504 004a 1180     		strh	r1, [r2, #0]	@ movhi
 4505              	.LVL447:
 4506              	.LBE1355:
 4507              	.LBE1354:
 4508              	.LBB1356:
 4509              	.LBB1357:
 4510              		.loc 2 153 0
 4511 004c 0122     		movs	r2, #1
 4512 004e 1A80     		strh	r2, [r3, #0]	@ movhi
 4513              	.LVL448:
 4514              	.L263:
 4515              	.LBE1357:
 4516              	.LBE1356:
 4517              		.loc 1 568 0
 4518 0050 6C71     		strb	r4, [r5, #5]
 4519              		.loc 1 569 0
 4520 0052 F8BD     		pop	{r3, r4, r5, r6, r7, pc}
 4521              	.LVL449:
 4522              	.L258:
 4523              		.loc 1 571 0
 4524 0054 454B     		ldr	r3, .L275
 4525 0056 1879     		ldrb	r0, [r3, #4]	@ zero_extendqisi2
 4526              	.LVL450:
 4527 0058 C9B2     		uxtb	r1, r1
 4528              	.LVL451:
 4529 005a 8842     		cmp	r0, r1
 4530 005c DCD0     		beq	.L255
 4531              		.loc 1 573 0
 4532 005e 0329     		cmp	r1, #3
 4533 0060 DAD8     		bhi	.L255
 4534 0062 DFE801F0 		tbb	[pc, r1]
 4535              	.L268:
 4536 0066 38       		.byte	(.L264-.L268)/2
 4537 0067 51       		.byte	(.L265-.L268)/2
 4538 0068 6A       		.byte	(.L266-.L268)/2
 4539 0069 19       		.byte	(.L267-.L268)/2
 4540              		.align	1
 4541              	.LVL452:
 4542              	.L261:
 4543              	.LBB1358:
 4544              	.LBB1359:
 4545              		.loc 2 153 0
 4546 006a 0023     		movs	r3, #0
 4547 006c C6F20203 		movt	r3, 24578
 4548              	.LBE1359:
 4549              	.LBE1358:
ARM GAS  /tmp/ccLrOMZj.s 			page 81


 4550              	.LBB1361:
 4551              	.LBB1362:
 4552              		.loc 2 144 0
 4553 0070 4FF0C042 		mov	r2, #1610612736
 4554 0074 1021     		movs	r1, #16
 4555              	.LVL453:
 4556 0076 1180     		strh	r1, [r2, #0]	@ movhi
 4557              	.LVL454:
 4558              	.LBE1362:
 4559              	.LBE1361:
 4560              	.LBB1363:
 4561              	.LBB1360:
 4562              		.loc 2 153 0
 4563 0078 1C80     		strh	r4, [r3, #0]	@ movhi
 4564 007a E9E7     		b	.L263
 4565              	.LVL455:
 4566              	.L262:
 4567              	.LBE1360:
 4568              	.LBE1363:
 4569              	.LBB1364:
 4570              	.LBB1365:
 4571 007c 0022     		movs	r2, #0
 4572              	.LBE1365:
 4573              	.LBE1364:
 4574              	.LBB1369:
 4575              	.LBB1370:
 4576              		.loc 2 144 0
 4577 007e 4FF0C041 		mov	r1, #1610612736
 4578              	.LVL456:
 4579 0082 1020     		movs	r0, #16
 4580              	.LVL457:
 4581              	.LBE1370:
 4582              	.LBE1369:
 4583              	.LBB1372:
 4584              	.LBB1366:
 4585              		.loc 2 153 0
 4586 0084 C6F20202 		movt	r2, 24578
 4587              	.LBE1366:
 4588              	.LBE1372:
 4589              	.LBB1373:
 4590              	.LBB1371:
 4591              		.loc 2 144 0
 4592 0088 0880     		strh	r0, [r1, #0]	@ movhi
 4593              	.LVL458:
 4594              	.LBE1371:
 4595              	.LBE1373:
 4596              	.LBB1374:
 4597              	.LBB1367:
 4598              		.loc 2 153 0
 4599 008a 0020     		movs	r0, #0
 4600              	.LBE1367:
 4601              	.LBE1374:
 4602              		.loc 1 557 0
 4603 008c 012B     		cmp	r3, #1
 4604              	.LBB1375:
 4605              	.LBB1368:
 4606              		.loc 2 153 0
ARM GAS  /tmp/ccLrOMZj.s 			page 82


 4607 008e 1080     		strh	r0, [r2, #0]	@ movhi
 4608              	.LBE1368:
 4609              	.LBE1375:
 4610              		.loc 1 557 0
 4611 0090 DED0     		beq	.L263
 4612              		.loc 1 558 0
 4613 0092 FFF7FEFF 		bl	gdisp_lld_init
 4614              	.LVL459:
 4615 0096 DBE7     		b	.L263
 4616              	.LVL460:
 4617              	.L267:
 4618              	.LBB1376:
 4619              	.LBB1377:
 4620              		.loc 2 144 0
 4621 0098 4FF0C047 		mov	r7, #1610612736
 4622              	.LBE1377:
 4623              	.LBE1376:
 4624              	.LBB1379:
 4625              	.LBB1380:
 4626              		.loc 2 153 0
 4627 009c 0022     		movs	r2, #0
 4628 009e C6F20202 		movt	r2, 24578
 4629              	.LBE1380:
 4630              	.LBE1379:
 4631              	.LBB1382:
 4632              	.LBB1378:
 4633              		.loc 2 144 0
 4634 00a2 0124     		movs	r4, #1
 4635 00a4 3C80     		strh	r4, [r7, #0]	@ movhi
 4636              	.LVL461:
 4637              	.LBE1378:
 4638              	.LBE1382:
 4639              	.LBB1383:
 4640              	.LBB1384:
 4641 00a6 4FF0110C 		mov	ip, #17
 4642              	.LBE1384:
 4643              	.LBE1383:
 4644              	.LBB1386:
 4645              	.LBB1381:
 4646              		.loc 2 153 0
 4647 00aa 42F63F14 		movw	r4, #10559
 4648 00ae 1480     		strh	r4, [r2, #0]	@ movhi
 4649              	.LVL462:
 4650              	.LBE1381:
 4651              	.LBE1386:
 4652              		.loc 1 607 0
 4653 00b0 F026     		movs	r6, #240
 4654              	.LBB1387:
 4655              	.LBB1385:
 4656              		.loc 2 144 0
 4657 00b2 A7F800C0 		strh	ip, [r7, #0]	@ movhi
 4658              	.LVL463:
 4659              	.LBE1385:
 4660              	.LBE1387:
 4661              		.loc 1 608 0
 4662 00b6 4FF4A075 		mov	r5, #320
 4663              	.LBB1388:
ARM GAS  /tmp/ccLrOMZj.s 			page 83


 4664              	.LBB1389:
 4665              		.loc 2 153 0
 4666 00ba 46F24807 		movw	r7, #24648
 4667 00be 1780     		strh	r7, [r2, #0]	@ movhi
 4668              	.LBE1389:
 4669              	.LBE1388:
 4670              		.loc 1 609 0
 4671 00c0 3046     		mov	r0, r6
 4672 00c2 2C46     		mov	r4, r5
 4673              		.loc 1 607 0
 4674 00c4 5E80     		strh	r6, [r3, #2]	@ movhi
 4675              		.loc 1 608 0
 4676 00c6 1D80     		strh	r5, [r3, #0]	@ movhi
 4677              	.LVL464:
 4678              	.L269:
 4679              		.loc 1 614 0
 4680 00c8 0022     		movs	r2, #0
 4681 00ca 1A81     		strh	r2, [r3, #8]	@ movhi
 4682              		.loc 1 615 0
 4683 00cc 5A81     		strh	r2, [r3, #10]	@ movhi
 4684              		.loc 1 616 0
 4685 00ce 9C81     		strh	r4, [r3, #12]	@ movhi
 4686              		.loc 1 617 0
 4687 00d0 D881     		strh	r0, [r3, #14]	@ movhi
 4688              		.loc 1 619 0
 4689 00d2 1971     		strb	r1, [r3, #4]
 4690              		.loc 1 620 0
 4691 00d4 F8BD     		pop	{r3, r4, r5, r6, r7, pc}
 4692              	.L264:
 4693              	.LVL465:
 4694              	.LBB1390:
 4695              	.LBB1391:
 4696              		.loc 2 153 0
 4697 00d6 0022     		movs	r2, #0
 4698              	.LBE1391:
 4699              	.LBE1390:
 4700              	.LBB1395:
 4701              	.LBB1396:
 4702              		.loc 2 144 0
 4703 00d8 4FF0C047 		mov	r7, #1610612736
 4704              	.LBE1396:
 4705              	.LBE1395:
 4706              	.LBB1399:
 4707              	.LBB1392:
 4708              		.loc 2 153 0
 4709 00dc C6F20202 		movt	r2, 24578
 4710              	.LBE1392:
 4711              	.LBE1399:
 4712              	.LBB1400:
 4713              	.LBB1397:
 4714              		.loc 2 144 0
 4715 00e0 0120     		movs	r0, #1
 4716              	.LBE1397:
 4717              	.LBE1400:
 4718              	.LBB1401:
 4719              	.LBB1393:
 4720              		.loc 2 153 0
ARM GAS  /tmp/ccLrOMZj.s 			page 84


 4721 00e2 42F63F34 		movw	r4, #11071
 4722              	.LBE1393:
 4723              	.LBE1401:
 4724              	.LBB1402:
 4725              	.LBB1403:
 4726              		.loc 2 144 0
 4727 00e6 4FF0110C 		mov	ip, #17
 4728              	.LBE1403:
 4729              	.LBE1402:
 4730              	.LBB1405:
 4731              	.LBB1398:
 4732 00ea 3880     		strh	r0, [r7, #0]	@ movhi
 4733              	.LVL466:
 4734              	.LBE1398:
 4735              	.LBE1405:
 4736              		.loc 1 580 0
 4737 00ec 4FF4A076 		mov	r6, #320
 4738              	.LBB1406:
 4739              	.LBB1394:
 4740              		.loc 2 153 0
 4741 00f0 1480     		strh	r4, [r2, #0]	@ movhi
 4742              	.LVL467:
 4743              	.LBE1394:
 4744              	.LBE1406:
 4745              		.loc 1 581 0
 4746 00f2 F025     		movs	r5, #240
 4747              	.LBB1407:
 4748              	.LBB1404:
 4749              		.loc 2 144 0
 4750 00f4 A7F800C0 		strh	ip, [r7, #0]	@ movhi
 4751              	.LVL468:
 4752              	.LBE1404:
 4753              	.LBE1407:
 4754              	.LBB1408:
 4755              	.LBB1409:
 4756              		.loc 2 153 0
 4757 00f8 46F27007 		movw	r7, #24688
 4758 00fc 1780     		strh	r7, [r2, #0]	@ movhi
 4759              	.LBE1409:
 4760              	.LBE1408:
 4761              		.loc 1 582 0
 4762 00fe 3046     		mov	r0, r6
 4763 0100 2C46     		mov	r4, r5
 4764              		.loc 1 580 0
 4765 0102 5E80     		strh	r6, [r3, #2]	@ movhi
 4766              		.loc 1 581 0
 4767 0104 1D80     		strh	r5, [r3, #0]	@ movhi
 4768              		.loc 1 582 0
 4769 0106 DFE7     		b	.L269
 4770              	.LVL469:
 4771              	.L265:
 4772              	.LBB1410:
 4773              	.LBB1411:
 4774              		.loc 2 153 0
 4775 0108 0022     		movs	r2, #0
 4776              	.LBE1411:
 4777              	.LBE1410:
ARM GAS  /tmp/ccLrOMZj.s 			page 85


 4778              	.LBB1415:
 4779              	.LBB1416:
 4780              		.loc 2 144 0
 4781 010a 4FF0C047 		mov	r7, #1610612736
 4782              	.LBE1416:
 4783              	.LBE1415:
 4784              	.LBB1419:
 4785              	.LBB1412:
 4786              		.loc 2 153 0
 4787 010e C6F20202 		movt	r2, 24578
 4788              	.LBE1412:
 4789              	.LBE1419:
 4790              	.LBB1420:
 4791              	.LBB1417:
 4792              		.loc 2 144 0
 4793 0112 0120     		movs	r0, #1
 4794              	.LBE1417:
 4795              	.LBE1420:
 4796              	.LBB1421:
 4797              	.LBB1413:
 4798              		.loc 2 153 0
 4799 0114 42F63F14 		movw	r4, #10559
 4800              	.LBE1413:
 4801              	.LBE1421:
 4802              	.LBB1422:
 4803              	.LBB1423:
 4804              		.loc 2 144 0
 4805 0118 4FF0110C 		mov	ip, #17
 4806              	.LBE1423:
 4807              	.LBE1422:
 4808              	.LBB1425:
 4809              	.LBB1418:
 4810 011c 3880     		strh	r0, [r7, #0]	@ movhi
 4811              	.LVL470:
 4812              	.LBE1418:
 4813              	.LBE1425:
 4814              		.loc 1 589 0
 4815 011e F026     		movs	r6, #240
 4816              	.LBB1426:
 4817              	.LBB1414:
 4818              		.loc 2 153 0
 4819 0120 1480     		strh	r4, [r2, #0]	@ movhi
 4820              	.LVL471:
 4821              	.LBE1414:
 4822              	.LBE1426:
 4823              		.loc 1 590 0
 4824 0122 4FF4A075 		mov	r5, #320
 4825              	.LBB1427:
 4826              	.LBB1424:
 4827              		.loc 2 144 0
 4828 0126 A7F800C0 		strh	ip, [r7, #0]	@ movhi
 4829              	.LVL472:
 4830              	.LBE1424:
 4831              	.LBE1427:
 4832              	.LBB1428:
 4833              	.LBB1429:
 4834              		.loc 2 153 0
ARM GAS  /tmp/ccLrOMZj.s 			page 86


 4835 012a 46F27807 		movw	r7, #24696
 4836 012e 1780     		strh	r7, [r2, #0]	@ movhi
 4837              	.LBE1429:
 4838              	.LBE1428:
 4839              		.loc 1 591 0
 4840 0130 3046     		mov	r0, r6
 4841 0132 2C46     		mov	r4, r5
 4842              		.loc 1 589 0
 4843 0134 5E80     		strh	r6, [r3, #2]	@ movhi
 4844              		.loc 1 590 0
 4845 0136 1D80     		strh	r5, [r3, #0]	@ movhi
 4846              		.loc 1 591 0
 4847 0138 C6E7     		b	.L269
 4848              	.LVL473:
 4849              	.L266:
 4850              	.LBB1430:
 4851              	.LBB1431:
 4852              		.loc 2 153 0
 4853 013a 0022     		movs	r2, #0
 4854              	.LBE1431:
 4855              	.LBE1430:
 4856              	.LBB1435:
 4857              	.LBB1436:
 4858              		.loc 2 144 0
 4859 013c 4FF0C047 		mov	r7, #1610612736
 4860              	.LBE1436:
 4861              	.LBE1435:
 4862              	.LBB1439:
 4863              	.LBB1432:
 4864              		.loc 2 153 0
 4865 0140 C6F20202 		movt	r2, 24578
 4866              	.LBE1432:
 4867              	.LBE1439:
 4868              	.LBB1440:
 4869              	.LBB1437:
 4870              		.loc 2 144 0
 4871 0144 0120     		movs	r0, #1
 4872              	.LBE1437:
 4873              	.LBE1440:
 4874              	.LBB1441:
 4875              	.LBB1433:
 4876              		.loc 2 153 0
 4877 0146 42F63F34 		movw	r4, #11071
 4878              	.LBE1433:
 4879              	.LBE1441:
 4880              	.LBB1442:
 4881              	.LBB1443:
 4882              		.loc 2 144 0
 4883 014a 4FF0110C 		mov	ip, #17
 4884              	.LBE1443:
 4885              	.LBE1442:
 4886              	.LBB1445:
 4887              	.LBB1438:
 4888 014e 3880     		strh	r0, [r7, #0]	@ movhi
 4889              	.LVL474:
 4890              	.LBE1438:
 4891              	.LBE1445:
ARM GAS  /tmp/ccLrOMZj.s 			page 87


 4892              		.loc 1 598 0
 4893 0150 4FF4A076 		mov	r6, #320
 4894              	.LBB1446:
 4895              	.LBB1434:
 4896              		.loc 2 153 0
 4897 0154 1480     		strh	r4, [r2, #0]	@ movhi
 4898              	.LVL475:
 4899              	.LBE1434:
 4900              	.LBE1446:
 4901              		.loc 1 599 0
 4902 0156 F025     		movs	r5, #240
 4903              	.LBB1447:
 4904              	.LBB1444:
 4905              		.loc 2 144 0
 4906 0158 A7F800C0 		strh	ip, [r7, #0]	@ movhi
 4907              	.LVL476:
 4908              	.LBE1444:
 4909              	.LBE1447:
 4910              	.LBB1448:
 4911              	.LBB1449:
 4912              		.loc 2 153 0
 4913 015c 46F24007 		movw	r7, #24640
 4914 0160 1780     		strh	r7, [r2, #0]	@ movhi
 4915              	.LBE1449:
 4916              	.LBE1448:
 4917              		.loc 1 600 0
 4918 0162 3046     		mov	r0, r6
 4919 0164 2C46     		mov	r4, r5
 4920              		.loc 1 598 0
 4921 0166 5E80     		strh	r6, [r3, #2]	@ movhi
 4922              		.loc 1 599 0
 4923 0168 1D80     		strh	r5, [r3, #0]	@ movhi
 4924              		.loc 1 600 0
 4925 016a ADE7     		b	.L269
 4926              	.L276:
 4927              		.align	2
 4928              	.L275:
 4929 016c 00000000 		.word	.LANCHOR0
 4930              		.cfi_endproc
 4931              	.LFE140:
 4932              		.size	gdisp_lld_control, .-gdisp_lld_control
 4933              		.global	GDISP
 4934              		.section	.rodata
 4935              		.align	2
 4936              		.set	.LANCHOR1,. + 0
 4937              	.LC0:
 4938 0000 000C0240 		.word	1073875968
 4939 0004 B3CF0000 		.word	53171
 4940 0008 00000000 		.word	0
 4941              	.LC1:
 4942 000c 00100240 		.word	1073876992
 4943 0010 80FF0000 		.word	65408
 4944 0014 00000000 		.word	0
 4945              		.section	.bss.GDISP,"aw",%nobits
 4946              		.align	2
 4947              		.set	.LANCHOR0,. + 0
 4948              		.type	GDISP, %object
ARM GAS  /tmp/ccLrOMZj.s 			page 88


 4949              		.size	GDISP, 16
 4950              	GDISP:
 4951 0000 00000000 		.space	16
 4951      00000000 
 4951      00000000 
 4951      00000000 
 4952              		.section	.bss.buf.7794,"aw",%nobits
 4953              		.align	2
 4954              		.set	.LANCHOR2,. + 0
 4955              		.type	buf.7794, %object
 4956              		.size	buf.7794, 1280
 4957              	buf.7794:
 4958 0000 00000000 		.space	1280
 4958      00000000 
 4958      00000000 
 4958      00000000 
 4958      00000000 
 4959              		.text
 4960              	.Letext0:
 4961              		.file 4 "/usr/bin/../lib/gcc/arm-none-eabi/4.7.4/../../../../arm-none-eabi/include/stdint.h"
 4962              		.file 5 "../../os/ports/GCC/ARMCMx/chtypes.h"
 4963              		.file 6 "../../os/hal/platforms/STM32F4xx/stm32f4xx.h"
 4964              		.file 7 "../../os/hal/platforms/STM32/GPIOv2/pal_lld.h"
 4965              		.file 8 "../../os/hal/include/pal.h"
 4966              		.file 9 "../../ext/ugfx/include/gos/chibios.h"
 4967              		.file 10 "../../ext/ugfx/include/gdisp/gdisp.h"
 4968              		.file 11 "../../ext/ugfx/include/gdisp/fonts.h"
 4969              		.file 12 "../../os/ports/common/ARMCMx/CMSIS/include/core_cm4.h"