ARM GAS  /tmp/ccGArZlq.s 			page 1


   1              		.syntax unified
   2              		.cpu cortex-m4
   3              		.eabi_attribute 27, 3
   4              		.eabi_attribute 28, 1
   5              		.fpu fpv4-sp-d16
   6              		.eabi_attribute 20, 1
   7              		.eabi_attribute 21, 1
   8              		.eabi_attribute 23, 3
   9              		.eabi_attribute 24, 1
  10              		.eabi_attribute 25, 1
  11              		.eabi_attribute 26, 1
  12              		.eabi_attribute 30, 2
  13              		.eabi_attribute 34, 1
  14              		.eabi_attribute 18, 4
  15              		.thumb
  16              		.file	"gimage.c"
  17              		.text
  18              	.Ltext0:
  19              		.cfi_sections	.debug_frame
  20              		.section	.text._destroy,"ax",%progbits
  21              		.align	2
  22              		.p2align 4,,15
  23              		.thumb
  24              		.thumb_func
  25              		.type	_destroy, %function
  26              	_destroy:
  27              	.LFB118:
  28              		.file 1 "../../ext/ugfx/src/gwin/gimage.c"
  29              		.loc 1 21 0
  30              		.cfi_startproc
  31              		@ args = 0, pretend = 0, frame = 0
  32              		@ frame_needed = 0, uses_anonymous_args = 0
  33              	.LVL0:
  34 0000 10B5     		push	{r4, lr}
  35              	.LCFI0:
  36              		.cfi_def_cfa_offset 8
  37              		.cfi_offset 4, -8
  38              		.cfi_offset 14, -4
  39              		.loc 1 22 0
  40 0002 00F11C04 		add	r4, r0, #28
  41 0006 2046     		mov	r0, r4
  42              	.LVL1:
  43 0008 FFF7FEFF 		bl	gdispImageIsOpen
  44              	.LVL2:
  45 000c 00B9     		cbnz	r0, .L4
  46 000e 10BD     		pop	{r4, pc}
  47              	.L4:
  48              		.loc 1 23 0
  49 0010 2046     		mov	r0, r4
  50              		.loc 1 24 0
  51 0012 BDE81040 		pop	{r4, lr}
  52              		.loc 1 23 0
  53 0016 FFF7FEBF 		b	gdispImageClose
  54              	.LVL3:
  55              		.cfi_endproc
  56              	.LFE118:
  57              		.size	_destroy, .-_destroy
ARM GAS  /tmp/ccGArZlq.s 			page 2


  58 001a 00BFAFF3 		.section	.text._redraw,"ax",%progbits
  58      0080
  59              		.align	2
  60              		.p2align 4,,15
  61              		.thumb
  62              		.thumb_func
  63              		.type	_redraw, %function
  64              	_redraw:
  65              	.LFB120:
  66              		.loc 1 36 0
  67              		.cfi_startproc
  68              		@ args = 0, pretend = 0, frame = 16
  69              		@ frame_needed = 0, uses_anonymous_args = 0
  70              	.LVL4:
  71 0000 2DE9F04F 		push	{r4, r5, r6, r7, r8, r9, sl, fp, lr}
  72              	.LCFI1:
  73              		.cfi_def_cfa_offset 36
  74              		.cfi_offset 4, -36
  75              		.cfi_offset 5, -32
  76              		.cfi_offset 6, -28
  77              		.cfi_offset 7, -24
  78              		.cfi_offset 8, -20
  79              		.cfi_offset 9, -16
  80              		.cfi_offset 10, -12
  81              		.cfi_offset 11, -8
  82              		.cfi_offset 14, -4
  83 0004 89B0     		sub	sp, sp, #36
  84              	.LCFI2:
  85              		.cfi_def_cfa_offset 72
  86              		.loc 1 51 0
  87 0006 00F11C05 		add	r5, r0, #28
  88              		.loc 1 36 0
  89 000a 0446     		mov	r4, r0
  90              		.loc 1 44 0
  91 000c B0F808A0 		ldrh	sl, [r0, #8]
  92              	.LVL5:
  93              		.loc 1 45 0
  94 0010 B0F80A80 		ldrh	r8, [r0, #10]
  95              	.LVL6:
  96              		.loc 1 46 0
  97 0014 8789     		ldrh	r7, [r0, #12]
  98              	.LVL7:
  99              		.loc 1 47 0
 100 0016 C689     		ldrh	r6, [r0, #14]
 101              	.LVL8:
 102              		.loc 1 48 0
 103 0018 FFF7FEFF 		bl	gwinGetDefaultBgColor
 104              	.LVL9:
 105 001c 8146     		mov	r9, r0
 106              	.LVL10:
 107              		.loc 1 51 0
 108 001e 2846     		mov	r0, r5
 109              	.LVL11:
 110 0020 FFF7FEFF 		bl	gdispImageIsOpen
 111              	.LVL12:
 112 0024 0028     		cmp	r0, #0
 113 0026 00F09680 		beq	.L31
ARM GAS  /tmp/ccGArZlq.s 			page 3


 114              		.loc 1 57 0
 115 002a B4F822B0 		ldrh	fp, [r4, #34]
 116 002e 3FB2     		sxth	r7, r7
 117              	.LVL13:
 118 0030 0FFA8BF3 		sxth	r3, fp
 119 0034 9F42     		cmp	r7, r3
 120 0036 56DC     		bgt	.L32
 121              		.loc 1 69 0
 122 0038 B8BF     		it	lt
 123 003a C7EB0303 		rsblt	r3, r7, r3
 124              		.loc 1 73 0
 125 003e B4F824B0 		ldrh	fp, [r4, #36]
 126              		.loc 1 69 0
 127 0042 BCBF     		itt	lt
 128 0044 03EBD373 		addlt	r3, r3, r3, lsr #31
 129 0048 C3F34F03 		ubfxlt	r3, r3, #1, #16
 130 004c 36B2     		sxth	r6, r6
 131              	.LVL14:
 132              		.loc 1 73 0
 133 004e 0FFA8BF0 		sxth	r0, fp
 134              		.loc 1 69 0
 135 0052 B8BF     		it	lt
 136 0054 0693     		strlt	r3, [sp, #24]
 137              	.LVL15:
 138              		.loc 1 73 0
 139 0056 8642     		cmp	r6, r0
 140 0058 6FDD     		ble	.L11
 141              	.LVL16:
 142              	.L34:
 143              		.loc 1 75 0
 144 005a E289     		ldrh	r2, [r4, #14]
 145 005c 16B2     		sxth	r6, r2
 146 005e 331A     		subs	r3, r6, r0
 147 0060 03EBD371 		add	r1, r3, r3, lsr #31
 148 0064 C1F34F06 		ubfx	r6, r1, #1, #16
 149              		.loc 1 76 0
 150 0068 B044     		add	r8, r6, r8
 151              	.LVL17:
 152 006a 1FFA88FC 		uxth	ip, r8
 153 006e 1FFA8CF8 		uxth	r8, ip
 154              	.LVL18:
 155              		.loc 1 77 0
 156 0072 002E     		cmp	r6, #0
 157 0074 7AD1     		bne	.L27
 158 0076 0FFA8AFA 		sxth	sl, sl
 159              	.LVL19:
 160              	.L12:
 161              		.loc 1 79 0
 162 007a 1FFA8BF0 		uxth	r0, fp
 163 007e 931B     		subs	r3, r2, r6
 164 0080 0CEB0001 		add	r1, ip, r0
 165 0084 1E1A     		subs	r6, r3, r0
 166 0086 3A46     		mov	r2, r7
 167 0088 33B2     		sxth	r3, r6
 168 008a CDF80090 		str	r9, [sp, #0]
 169 008e 5046     		mov	r0, sl
 170 0090 09B2     		sxth	r1, r1
ARM GAS  /tmp/ccGArZlq.s 			page 4


 171 0092 FFF7FEFF 		bl	gdispFillArea
 172              	.LVL20:
 173              		.loc 1 80 0
 174 0096 0022     		movs	r2, #0
 175 0098 0792     		str	r2, [sp, #28]
 176 009a 0FFA8BF6 		sxth	r6, fp
 177              	.LVL21:
 178              	.L13:
 179              		.loc 1 89 0
 180 009e 2846     		mov	r0, r5
 181 00a0 4946     		mov	r1, r9
 182 00a2 FFF7FEFF 		bl	gdispImageSetBgColor
 183              	.LVL22:
 184              		.loc 1 92 0
 185 00a6 0698     		ldr	r0, [sp, #24]
 186 00a8 079B     		ldr	r3, [sp, #28]
 187 00aa 0FFA80FE 		sxth	lr, r0
 188 00ae 18B2     		sxth	r0, r3
 189 00b0 0290     		str	r0, [sp, #8]
 190 00b2 5146     		mov	r1, sl
 191 00b4 0FFA88F2 		sxth	r2, r8
 192 00b8 3B46     		mov	r3, r7
 193 00ba 8DE84040 		stmia	sp, {r6, lr}
 194 00be 2846     		mov	r0, r5
 195 00c0 FFF7FEFF 		bl	gdispImageDraw
 196              	.LVL23:
 197              		.loc 1 96 0
 198 00c4 2846     		mov	r0, r5
 199 00c6 FFF7FEFF 		bl	gdispImageNext
 200              	.LVL24:
 201              		.loc 1 99 0
 202 00ca 0028     		cmp	r0, #0
 203 00cc 40D1     		bne	.L33
 204              		.loc 1 105 0
 205 00ce 0120     		movs	r0, #1
 206              	.LVL25:
 207              	.L14:
 208              		.loc 1 109 0
 209 00d0 0090     		str	r0, [sp, #0]
 210 00d2 3849     		ldr	r1, .L35
 211 00d4 04F13C00 		add	r0, r4, #60
 212              	.LVL26:
 213 00d8 2246     		mov	r2, r4
 214 00da 0023     		movs	r3, #0
 215 00dc FFF7FEFF 		bl	gtimerStart
 216              	.LVL27:
 217              	.L5:
 218              		.loc 1 113 0
 219 00e0 09B0     		add	sp, sp, #36
 220 00e2 BDE8F08F 		pop	{r4, r5, r6, r7, r8, r9, sl, fp, pc}
 221              	.LVL28:
 222              	.L32:
 223              		.loc 1 59 0
 224 00e6 A189     		ldrh	r1, [r4, #12]
 225 00e8 0FB2     		sxth	r7, r1
 226 00ea F81A     		subs	r0, r7, r3
 227 00ec 00EBD072 		add	r2, r0, r0, lsr #31
ARM GAS  /tmp/ccGArZlq.s 			page 5


 228 00f0 C2F34F07 		ubfx	r7, r2, #1, #16
 229              		.loc 1 60 0
 230 00f4 BA44     		add	sl, r7, sl
 231              	.LVL29:
 232 00f6 1FFA8AFC 		uxth	ip, sl
 233 00fa 1FFA8CFA 		uxth	sl, ip
 234              	.LVL30:
 235              		.loc 1 61 0
 236 00fe 002F     		cmp	r7, #0
 237 0100 45D1     		bne	.L25
 238 0102 0FFA88F3 		sxth	r3, r8
 239 0106 0693     		str	r3, [sp, #24]
 240 0108 36B2     		sxth	r6, r6
 241              	.LVL31:
 242              	.L9:
 243              		.loc 1 63 0
 244 010a 1FFA8BF2 		uxth	r2, fp
 245 010e CF1B     		subs	r7, r1, r7
 246 0110 0CEB0200 		add	r0, ip, r2
 247 0114 BB1A     		subs	r3, r7, r2
 248 0116 00B2     		sxth	r0, r0
 249 0118 0699     		ldr	r1, [sp, #24]
 250 011a CDF80090 		str	r9, [sp, #0]
 251 011e 1AB2     		sxth	r2, r3
 252 0120 3346     		mov	r3, r6
 253 0122 FFF7FEFF 		bl	gdispFillArea
 254              	.LVL32:
 255 0126 0FFA8BF7 		sxth	r7, fp
 256              	.LVL33:
 257              		.loc 1 73 0
 258 012a B4F824B0 		ldrh	fp, [r4, #36]
 259 012e 0FFA8BF0 		sxth	r0, fp
 260              		.loc 1 64 0
 261 0132 0021     		movs	r1, #0
 262              		.loc 1 73 0
 263 0134 8642     		cmp	r6, r0
 264              		.loc 1 64 0
 265 0136 0691     		str	r1, [sp, #24]
 266              		.loc 1 73 0
 267 0138 8FDC     		bgt	.L34
 268              	.LVL34:
 269              	.L11:
 270              		.loc 1 85 0
 271 013a BFBF     		itttt	lt
 272 013c C6EB0000 		rsblt	r0, r6, r0
 273 0140 00EBD070 		addlt	r0, r0, r0, lsr #31
 274 0144 C0F34F00 		ubfxlt	r0, r0, #1, #16
 275 0148 0790     		strlt	r0, [sp, #28]
 276              	.LVL35:
 277 014a 0FFA8AFA 		sxth	sl, sl
 278 014e A6E7     		b	.L13
 279              	.LVL36:
 280              	.L33:
 281              		.loc 1 99 0
 282 0150 431C     		adds	r3, r0, #1
 283 0152 BDD1     		bne	.L14
 284 0154 C4E7     		b	.L5
ARM GAS  /tmp/ccGArZlq.s 			page 6


 285              	.LVL37:
 286              	.L31:
 287              		.loc 1 52 0
 288 0156 CDF80090 		str	r9, [sp, #0]
 289 015a 0FFA8AF0 		sxth	r0, sl
 290 015e 0FFA88F1 		sxth	r1, r8
 291 0162 3AB2     		sxth	r2, r7
 292 0164 33B2     		sxth	r3, r6
 293 0166 FFF7FEFF 		bl	gdispFillArea
 294              	.LVL38:
 295              		.loc 1 53 0
 296 016a B9E7     		b	.L5
 297              	.LVL39:
 298              	.L27:
 299              		.loc 1 78 0
 300 016c 0FFA8AFA 		sxth	sl, sl
 301 0170 B4F90A10 		ldrsh	r1, [r4, #10]
 302 0174 CDF80090 		str	r9, [sp, #0]
 303 0178 3A46     		mov	r2, r7
 304 017a 5046     		mov	r0, sl
 305 017c 33B2     		sxth	r3, r6
 306 017e CDF814C0 		str	ip, [sp, #20]
 307 0182 FFF7FEFF 		bl	gdispFillArea
 308              	.LVL40:
 309 0186 E289     		ldrh	r2, [r4, #14]
 310 0188 DDF814C0 		ldr	ip, [sp, #20]
 311 018c 75E7     		b	.L12
 312              	.LVL41:
 313              	.L25:
 314              		.loc 1 62 0
 315 018e 36B2     		sxth	r6, r6
 316              	.LVL42:
 317 0190 B4F90800 		ldrsh	r0, [r4, #8]
 318 0194 CDF80090 		str	r9, [sp, #0]
 319 0198 0FFA88F1 		sxth	r1, r8
 320 019c 3AB2     		sxth	r2, r7
 321 019e 3346     		mov	r3, r6
 322 01a0 0691     		str	r1, [sp, #24]
 323 01a2 CDF814C0 		str	ip, [sp, #20]
 324 01a6 FFF7FEFF 		bl	gdispFillArea
 325              	.LVL43:
 326 01aa A189     		ldrh	r1, [r4, #12]
 327 01ac DDF814C0 		ldr	ip, [sp, #20]
 328 01b0 ABE7     		b	.L9
 329              	.L36:
 330 01b2 00BF     		.align	2
 331              	.L35:
 332 01b4 00000000 		.word	_timer
 333              		.cfi_endproc
 334              	.LFE120:
 335              		.size	_redraw, .-_redraw
 336 01b8 AFF30080 		.section	.text._timer,"ax",%progbits
 336      AFF30080 
 337              		.align	2
 338              		.p2align 4,,15
 339              		.thumb
 340              		.thumb_func
ARM GAS  /tmp/ccGArZlq.s 			page 7


 341              		.type	_timer, %function
 342              	_timer:
 343              	.LFB119:
 344              		.loc 1 29 0
 345              		.cfi_startproc
 346              		@ args = 0, pretend = 0, frame = 0
 347              		@ frame_needed = 0, uses_anonymous_args = 0
 348              		@ link register save eliminated.
 349              	.LVL44:
 350              		.loc 1 31 0
 351 0000 838A     		ldrh	r3, [r0, #20]
 352 0002 03F00201 		and	r1, r3, #2
 353 0006 8AB2     		uxth	r2, r1
 354 0008 02B9     		cbnz	r2, .L39
 355 000a 7047     		bx	lr
 356              	.L39:
 357              		.loc 1 33 0
 358              		.loc 1 32 0
 359 000c FFF7FEBF 		b	_redraw
 360              	.LVL45:
 361              		.cfi_endproc
 362              	.LFE119:
 363              		.size	_timer, .-_timer
 364              		.section	.text.gwinImageCreate,"ax",%progbits
 365              		.align	2
 366              		.p2align 4,,15
 367              		.global	gwinImageCreate
 368              		.thumb
 369              		.thumb_func
 370              		.type	gwinImageCreate, %function
 371              	gwinImageCreate:
 372              	.LFB121:
 373              		.loc 1 123 0
 374              		.cfi_startproc
 375              		@ args = 0, pretend = 0, frame = 0
 376              		@ frame_needed = 0, uses_anonymous_args = 0
 377              	.LVL46:
 378 0000 38B5     		push	{r3, r4, r5, lr}
 379              	.LCFI3:
 380              		.cfi_def_cfa_offset 16
 381              		.cfi_offset 3, -16
 382              		.cfi_offset 4, -12
 383              		.cfi_offset 5, -8
 384              		.cfi_offset 14, -4
 385              		.loc 1 124 0
 386 0002 094A     		ldr	r2, .L45
 387 0004 0023     		movs	r3, #0
 388              		.loc 1 123 0
 389 0006 0D46     		mov	r5, r1
 390              		.loc 1 124 0
 391 0008 FFF7FEFF 		bl	_gwindowCreate
 392              	.LVL47:
 393 000c 0446     		mov	r4, r0
 394 000e 48B1     		cbz	r0, .L41
 395              		.loc 1 128 0
 396 0010 0023     		movs	r3, #0
 397 0012 8383     		strh	r3, [r0, #28]	@ movhi
ARM GAS  /tmp/ccGArZlq.s 			page 8


 398              		.loc 1 132 0
 399 0014 00F13C00 		add	r0, r0, #60
 400              	.LVL48:
 401 0018 FFF7FEFF 		bl	gtimerInit
 402              	.LVL49:
 403              		.loc 1 135 0
 404 001c 2046     		mov	r0, r4
 405 001e 297A     		ldrb	r1, [r5, #8]	@ zero_extendqisi2
 406 0020 FFF7FEFF 		bl	gwinSetVisible
 407              	.LVL50:
 408              	.L41:
 409              		.loc 1 138 0
 410 0024 2046     		mov	r0, r4
 411 0026 38BD     		pop	{r3, r4, r5, pc}
 412              	.L46:
 413              		.align	2
 414              	.L45:
 415 0028 00000000 		.word	.LANCHOR0
 416              		.cfi_endproc
 417              	.LFE121:
 418              		.size	gwinImageCreate, .-gwinImageCreate
 419 002c AFF30080 		.section	.text.gwinImageOpenMemory,"ax",%progbits
 420              		.align	2
 421              		.p2align 4,,15
 422              		.global	gwinImageOpenMemory
 423              		.thumb
 424              		.thumb_func
 425              		.type	gwinImageOpenMemory, %function
 426              	gwinImageOpenMemory:
 427              	.LFB122:
 428              		.loc 1 140 0
 429              		.cfi_startproc
 430              		@ args = 0, pretend = 0, frame = 0
 431              		@ frame_needed = 0, uses_anonymous_args = 0
 432              	.LVL51:
 433 0000 70B5     		push	{r4, r5, r6, lr}
 434              	.LCFI4:
 435              		.cfi_def_cfa_offset 16
 436              		.cfi_offset 4, -16
 437              		.cfi_offset 5, -12
 438              		.cfi_offset 6, -8
 439              		.cfi_offset 14, -4
 440              		.loc 1 141 0
 441 0002 00F11C04 		add	r4, r0, #28
 442              		.loc 1 140 0
 443 0006 0546     		mov	r5, r0
 444              		.loc 1 141 0
 445 0008 2046     		mov	r0, r4
 446              	.LVL52:
 447              		.loc 1 140 0
 448 000a 0E46     		mov	r6, r1
 449              		.loc 1 141 0
 450 000c FFF7FEFF 		bl	gdispImageIsOpen
 451              	.LVL53:
 452 0010 90B9     		cbnz	r0, .L56
 453              	.L48:
 454              		.loc 1 144 0
ARM GAS  /tmp/ccGArZlq.s 			page 9


 455 0012 2046     		mov	r0, r4
 456 0014 3146     		mov	r1, r6
 457 0016 FFF7FEFF 		bl	gdispImageSetMemoryReader
 458              	.LVL54:
 459 001a 08B9     		cbnz	r0, .L49
 460              	.L51:
 461              		.loc 1 145 0
 462 001c 0020     		movs	r0, #0
 463 001e 70BD     		pop	{r4, r5, r6, pc}
 464              	.L49:
 465              		.loc 1 147 0
 466 0020 2046     		mov	r0, r4
 467 0022 FFF7FEFF 		bl	gdispImageOpen
 468              	.LVL55:
 469 0026 0028     		cmp	r0, #0
 470 0028 F8D1     		bne	.L51
 471              		.loc 1 150 0
 472 002a AB8A     		ldrh	r3, [r5, #20]
 473 002c 03F00200 		and	r0, r3, #2
 474 0030 81B2     		uxth	r1, r0
 475 0032 29B9     		cbnz	r1, .L57
 476              		.loc 1 159 0
 477 0034 0120     		movs	r0, #1
 478              		.loc 1 160 0
 479 0036 70BD     		pop	{r4, r5, r6, pc}
 480              	.L56:
 481              		.loc 1 142 0
 482 0038 2046     		mov	r0, r4
 483 003a FFF7FEFF 		bl	gdispImageClose
 484              	.LVL56:
 485 003e E8E7     		b	.L48
 486              	.L57:
 487              		.loc 1 154 0
 488 0040 B5F90A10 		ldrsh	r1, [r5, #10]
 489 0044 B5F90C20 		ldrsh	r2, [r5, #12]
 490 0048 B5F90E30 		ldrsh	r3, [r5, #14]
 491 004c B5F90800 		ldrsh	r0, [r5, #8]
 492 0050 FFF7FEFF 		bl	gdispSetClip
 493              	.LVL57:
 494              		.loc 1 156 0
 495 0054 2846     		mov	r0, r5
 496 0056 FFF7FEFF 		bl	_redraw
 497              	.LVL58:
 498              		.loc 1 159 0
 499 005a 0120     		movs	r0, #1
 500 005c 70BD     		pop	{r4, r5, r6, pc}
 501              		.cfi_endproc
 502              	.LFE122:
 503              		.size	gwinImageOpenMemory, .-gwinImageOpenMemory
 504 005e 00BF     		.section	.text.gwinImageOpenStream,"ax",%progbits
 505              		.align	2
 506              		.p2align 4,,15
 507              		.global	gwinImageOpenStream
 508              		.thumb
 509              		.thumb_func
 510              		.type	gwinImageOpenStream, %function
 511              	gwinImageOpenStream:
ARM GAS  /tmp/ccGArZlq.s 			page 10


 512              	.LFB123:
 513              		.loc 1 187 0
 514              		.cfi_startproc
 515              		@ args = 0, pretend = 0, frame = 0
 516              		@ frame_needed = 0, uses_anonymous_args = 0
 517              	.LVL59:
 518 0000 70B5     		push	{r4, r5, r6, lr}
 519              	.LCFI5:
 520              		.cfi_def_cfa_offset 16
 521              		.cfi_offset 4, -16
 522              		.cfi_offset 5, -12
 523              		.cfi_offset 6, -8
 524              		.cfi_offset 14, -4
 525              		.loc 1 188 0
 526 0002 00F11C04 		add	r4, r0, #28
 527              		.loc 1 187 0
 528 0006 0546     		mov	r5, r0
 529              		.loc 1 188 0
 530 0008 2046     		mov	r0, r4
 531              	.LVL60:
 532              		.loc 1 187 0
 533 000a 0E46     		mov	r6, r1
 534              		.loc 1 188 0
 535 000c FFF7FEFF 		bl	gdispImageIsOpen
 536              	.LVL61:
 537 0010 90B9     		cbnz	r0, .L67
 538              	.L59:
 539              		.loc 1 191 0
 540 0012 2046     		mov	r0, r4
 541 0014 3146     		mov	r1, r6
 542 0016 FFF7FEFF 		bl	gdispImageSetBaseFileStreamReader
 543              	.LVL62:
 544 001a 08B9     		cbnz	r0, .L60
 545              	.L62:
 546              		.loc 1 192 0
 547 001c 0020     		movs	r0, #0
 548 001e 70BD     		pop	{r4, r5, r6, pc}
 549              	.L60:
 550              		.loc 1 194 0
 551 0020 2046     		mov	r0, r4
 552 0022 FFF7FEFF 		bl	gdispImageOpen
 553              	.LVL63:
 554 0026 0028     		cmp	r0, #0
 555 0028 F8D1     		bne	.L62
 556              		.loc 1 197 0
 557 002a AB8A     		ldrh	r3, [r5, #20]
 558 002c 03F00200 		and	r0, r3, #2
 559 0030 81B2     		uxth	r1, r0
 560 0032 29B9     		cbnz	r1, .L68
 561              		.loc 1 206 0
 562 0034 0120     		movs	r0, #1
 563              		.loc 1 207 0
 564 0036 70BD     		pop	{r4, r5, r6, pc}
 565              	.L67:
 566              		.loc 1 189 0
 567 0038 2046     		mov	r0, r4
 568 003a FFF7FEFF 		bl	gdispImageClose
ARM GAS  /tmp/ccGArZlq.s 			page 11


 569              	.LVL64:
 570 003e E8E7     		b	.L59
 571              	.L68:
 572              		.loc 1 201 0
 573 0040 B5F90A10 		ldrsh	r1, [r5, #10]
 574 0044 B5F90C20 		ldrsh	r2, [r5, #12]
 575 0048 B5F90E30 		ldrsh	r3, [r5, #14]
 576 004c B5F90800 		ldrsh	r0, [r5, #8]
 577 0050 FFF7FEFF 		bl	gdispSetClip
 578              	.LVL65:
 579              		.loc 1 203 0
 580 0054 2846     		mov	r0, r5
 581 0056 FFF7FEFF 		bl	_redraw
 582              	.LVL66:
 583              		.loc 1 206 0
 584 005a 0120     		movs	r0, #1
 585 005c 70BD     		pop	{r4, r5, r6, pc}
 586              		.cfi_endproc
 587              	.LFE123:
 588              		.size	gwinImageOpenStream, .-gwinImageOpenStream
 589 005e 00BF     		.section	.text.gwinImageCache,"ax",%progbits
 590              		.align	2
 591              		.p2align 4,,15
 592              		.global	gwinImageCache
 593              		.thumb
 594              		.thumb_func
 595              		.type	gwinImageCache, %function
 596              	gwinImageCache:
 597              	.LFB124:
 598              		.loc 1 210 0
 599              		.cfi_startproc
 600              		@ args = 0, pretend = 0, frame = 0
 601              		@ frame_needed = 0, uses_anonymous_args = 0
 602              		@ link register save eliminated.
 603              	.LVL67:
 604              		.loc 1 211 0
 605 0000 1C30     		adds	r0, r0, #28
 606              	.LVL68:
 607              		.loc 1 212 0
 608              		.loc 1 211 0
 609 0002 FFF7FEBF 		b	gdispImageCache
 610              	.LVL69:
 611              		.cfi_endproc
 612              	.LFE124:
 613              		.size	gwinImageCache, .-gwinImageCache
 614 0006 00BFAFF3 		.section	.rodata.imageVMT,"a",%progbits
 614      0080AFF3 
 614      0080
 615              		.align	2
 616              		.set	.LANCHOR0,. + 0
 617              		.type	imageVMT, %object
 618              		.size	imageVMT, 20
 619              	imageVMT:
 620 0000 00000000 		.word	.LC0
 621 0004 58000000 		.word	88
 622 0008 00000000 		.word	_destroy
 623 000c 00000000 		.word	_redraw
ARM GAS  /tmp/ccGArZlq.s 			page 12


 624 0010 00000000 		.word	0
 625              		.section	.rodata.str1.4,"aMS",%progbits,1
 626              		.align	2
 627              	.LC0:
 628 0000 496D6167 		.ascii	"Image\000"
 628      6500
 629 0006 0000     		.text
 630              	.Letext0:
 631              		.file 2 "/usr/bin/../lib/gcc/arm-none-eabi/4.7.4/include/stddef.h"
 632              		.file 3 "/usr/bin/../lib/gcc/arm-none-eabi/4.7.4/../../../../arm-none-eabi/include/stdint.h"
 633              		.file 4 "../../os/ports/GCC/ARMCMx/chtypes.h"
 634              		.file 5 "../../ext/ugfx/include/gos/chibios.h"
 635              		.file 6 "../../ext/ugfx/include/gqueue/gqueue.h"
 636              		.file 7 "../../ext/ugfx/include/gtimer/gtimer.h"
 637              		.file 8 "../../ext/ugfx/include/gdisp/gdisp.h"
 638              		.file 9 "../../ext/ugfx/include/gdisp/image.h"
 639              		.file 10 "../../ext/ugfx/include/gwin/gwin.h"
 640              		.file 11 "../../ext/ugfx/include/gwin/class_gwin.h"
 641              		.file 12 "../../ext/ugfx/include/gwin/image.h"
 642              		.file 13 "../../os/ports/common/ARMCMx/CMSIS/include/core_cm4.h"