ARM GAS  /tmp/ccLZ93mi.s 			page 1


   1              		.syntax unified
   2              		.cpu cortex-m4
   3              		.eabi_attribute 27, 3
   4              		.eabi_attribute 28, 1
   5              		.fpu fpv4-sp-d16
   6              		.eabi_attribute 20, 1
   7              		.eabi_attribute 21, 1
   8              		.eabi_attribute 23, 3
   9              		.eabi_attribute 24, 1
  10              		.eabi_attribute 25, 1
  11              		.eabi_attribute 26, 1
  12              		.eabi_attribute 30, 2
  13              		.eabi_attribute 34, 1
  14              		.eabi_attribute 18, 4
  15              		.thumb
  16              		.file	"gqueue.c"
  17              		.text
  18              	.Ltext0:
  19              		.cfi_sections	.debug_frame
  20              		.section	.text.gfxQueueASyncInit,"ax",%progbits
  21              		.align	2
  22              		.p2align 4,,15
  23              		.global	gfxQueueASyncInit
  24              		.thumb
  25              		.thumb_func
  26              		.type	gfxQueueASyncInit, %function
  27              	gfxQueueASyncInit:
  28              	.LFB118:
  29              		.file 1 "../../ext/ugfx/src/gqueue/gqueue.c"
  30              		.loc 1 18 0
  31              		.cfi_startproc
  32              		@ args = 0, pretend = 0, frame = 0
  33              		@ frame_needed = 0, uses_anonymous_args = 0
  34              		@ link register save eliminated.
  35              	.LVL0:
  36              		.loc 1 19 0
  37 0000 0023     		movs	r3, #0
  38 0002 4360     		str	r3, [r0, #4]
  39 0004 0360     		str	r3, [r0, #0]
  40 0006 7047     		bx	lr
  41              		.cfi_endproc
  42              	.LFE118:
  43              		.size	gfxQueueASyncInit, .-gfxQueueASyncInit
  44 0008 AFF30080 		.section	.text.gfxQueueASyncGet,"ax",%progbits
  44      AFF30080 
  45              		.align	2
  46              		.p2align 4,,15
  47              		.global	gfxQueueASyncGet
  48              		.thumb
  49              		.thumb_func
  50              		.type	gfxQueueASyncGet, %function
  51              	gfxQueueASyncGet:
  52              	.LFB119:
  53              		.loc 1 21 0
  54              		.cfi_startproc
  55              		@ args = 0, pretend = 0, frame = 0
  56              		@ frame_needed = 0, uses_anonymous_args = 0
ARM GAS  /tmp/ccLZ93mi.s 			page 2


  57              		@ link register save eliminated.
  58              	.LVL1:
  59              		.loc 1 24 0
  60 0000 0268     		ldr	r2, [r0, #0]
  61 0002 52B1     		cbz	r2, .L3
  62              	.LBB2:
  63              		.loc 1 25 0
  64 0004 2023     		movs	r3, #32
  65              	.LVL2:
  66              	@ 25 "../../ext/ugfx/src/gqueue/gqueue.c" 1
  67 0006 83F31188 		msr     BASEPRI, r3
  68              	@ 0 "" 2
  69              	.LVL3:
  70              		.thumb
  71              	.LBE2:
  72              		.loc 1 26 0
  73 000a 0268     		ldr	r2, [r0, #0]
  74              	.LVL4:
  75 000c 0AB1     		cbz	r2, .L4
  76              		.loc 1 27 0
  77 000e 1368     		ldr	r3, [r2, #0]
  78              	.LVL5:
  79 0010 0360     		str	r3, [r0, #0]
  80              	.LVL6:
  81              	.L4:
  82              		.loc 1 28 0
  83 0012 0023     		movs	r3, #0
  84              	.LVL7:
  85 0014 1360     		str	r3, [r2, #0]
  86              	.LBB3:
  87              		.loc 1 29 0
  88              	@ 29 "../../ext/ugfx/src/gqueue/gqueue.c" 1
  89 0016 83F31188 		msr     BASEPRI, r3
  90              	@ 0 "" 2
  91              	.LVL8:
  92              		.thumb
  93              	.L3:
  94              	.LBE3:
  95              		.loc 1 31 0
  96 001a 1046     		mov	r0, r2
  97              	.LVL9:
  98 001c 7047     		bx	lr
  99              		.cfi_endproc
 100              	.LFE119:
 101              		.size	gfxQueueASyncGet, .-gfxQueueASyncGet
 102 001e 00BF     		.section	.text.gfxQueueASyncPut,"ax",%progbits
 103              		.align	2
 104              		.p2align 4,,15
 105              		.global	gfxQueueASyncPut
 106              		.thumb
 107              		.thumb_func
 108              		.type	gfxQueueASyncPut, %function
 109              	gfxQueueASyncPut:
 110              	.LFB120:
 111              		.loc 1 32 0
 112              		.cfi_startproc
 113              		@ args = 0, pretend = 0, frame = 0
ARM GAS  /tmp/ccLZ93mi.s 			page 3


 114              		@ frame_needed = 0, uses_anonymous_args = 0
 115              		@ link register save eliminated.
 116              	.LVL10:
 117              		.loc 1 33 0
 118 0000 0023     		movs	r3, #0
 119 0002 0B60     		str	r3, [r1, #0]
 120              	.LBB4:
 121              		.loc 1 35 0
 122 0004 2023     		movs	r3, #32
 123              	.LVL11:
 124              	@ 35 "../../ext/ugfx/src/gqueue/gqueue.c" 1
 125 0006 83F31188 		msr     BASEPRI, r3
 126              	@ 0 "" 2
 127              	.LVL12:
 128              		.thumb
 129              	.LBE4:
 130              		.loc 1 36 0
 131 000a 0268     		ldr	r2, [r0, #0]
 132 000c 32B1     		cbz	r2, .L13
 133              		.loc 1 39 0
 134 000e 4368     		ldr	r3, [r0, #4]
 135              	.LVL13:
 136 0010 1960     		str	r1, [r3, #0]
 137              		.loc 1 40 0
 138 0012 4160     		str	r1, [r0, #4]
 139              	.LVL14:
 140              	.L12:
 141              	.LBB5:
 142              		.loc 1 42 0
 143 0014 0023     		movs	r3, #0
 144              	.LVL15:
 145              	@ 42 "../../ext/ugfx/src/gqueue/gqueue.c" 1
 146 0016 83F31188 		msr     BASEPRI, r3
 147              	@ 0 "" 2
 148              	.LVL16:
 149              		.thumb
 150 001a 7047     		bx	lr
 151              	.LVL17:
 152              	.L13:
 153              	.LBE5:
 154              		.loc 1 37 0
 155 001c 4160     		str	r1, [r0, #4]
 156 001e 0160     		str	r1, [r0, #0]
 157 0020 F8E7     		b	.L12
 158              		.cfi_endproc
 159              	.LFE120:
 160              		.size	gfxQueueASyncPut, .-gfxQueueASyncPut
 161 0022 00BFAFF3 		.section	.text.gfxQueueASyncPush,"ax",%progbits
 161      0080AFF3 
 161      0080AFF3 
 161      0080
 162              		.align	2
 163              		.p2align 4,,15
 164              		.global	gfxQueueASyncPush
 165              		.thumb
 166              		.thumb_func
 167              		.type	gfxQueueASyncPush, %function
ARM GAS  /tmp/ccLZ93mi.s 			page 4


 168              	gfxQueueASyncPush:
 169              	.LFB121:
 170              		.loc 1 44 0
 171              		.cfi_startproc
 172              		@ args = 0, pretend = 0, frame = 0
 173              		@ frame_needed = 0, uses_anonymous_args = 0
 174              		@ link register save eliminated.
 175              	.LVL18:
 176              	.LBB6:
 177              		.loc 1 45 0
 178 0000 2023     		movs	r3, #32
 179              	.LVL19:
 180              	@ 45 "../../ext/ugfx/src/gqueue/gqueue.c" 1
 181 0002 83F31188 		msr     BASEPRI, r3
 182              	@ 0 "" 2
 183              	.LVL20:
 184              		.thumb
 185              	.LBE6:
 186              		.loc 1 46 0
 187 0006 0368     		ldr	r3, [r0, #0]
 188              	.LVL21:
 189 0008 0B60     		str	r3, [r1, #0]
 190              		.loc 1 47 0
 191 000a 0160     		str	r1, [r0, #0]
 192              		.loc 1 48 0
 193 000c 1BB1     		cbz	r3, .L16
 194              	.L15:
 195              	.LBB7:
 196              		.loc 1 50 0
 197 000e 0023     		movs	r3, #0
 198              	.LVL22:
 199              	@ 50 "../../ext/ugfx/src/gqueue/gqueue.c" 1
 200 0010 83F31188 		msr     BASEPRI, r3
 201              	@ 0 "" 2
 202              	.LVL23:
 203              		.thumb
 204 0014 7047     		bx	lr
 205              	.LVL24:
 206              	.L16:
 207              	.LBE7:
 208              		.loc 1 49 0
 209 0016 4160     		str	r1, [r0, #4]
 210 0018 F9E7     		b	.L15
 211              		.cfi_endproc
 212              	.LFE121:
 213              		.size	gfxQueueASyncPush, .-gfxQueueASyncPush
 214 001a 00BFAFF3 		.section	.text.gfxQueueASyncRemove,"ax",%progbits
 214      0080
 215              		.align	2
 216              		.p2align 4,,15
 217              		.global	gfxQueueASyncRemove
 218              		.thumb
 219              		.thumb_func
 220              		.type	gfxQueueASyncRemove, %function
 221              	gfxQueueASyncRemove:
 222              	.LFB122:
 223              		.loc 1 52 0
ARM GAS  /tmp/ccLZ93mi.s 			page 5


 224              		.cfi_startproc
 225              		@ args = 0, pretend = 0, frame = 0
 226              		@ frame_needed = 0, uses_anonymous_args = 0
 227              		@ link register save eliminated.
 228              	.LVL25:
 229 0000 10B4     		push	{r4}
 230              	.LCFI0:
 231              		.cfi_def_cfa_offset 4
 232              		.cfi_offset 4, -4
 233              		.loc 1 55 0
 234 0002 B9B1     		cbz	r1, .L17
 235              	.LBB8:
 236              		.loc 1 56 0
 237 0004 2023     		movs	r3, #32
 238              	.LVL26:
 239              	@ 56 "../../ext/ugfx/src/gqueue/gqueue.c" 1
 240 0006 83F31188 		msr     BASEPRI, r3
 241              	@ 0 "" 2
 242              	.LVL27:
 243              		.thumb
 244              	.LBE8:
 245              		.loc 1 57 0
 246 000a 0268     		ldr	r2, [r0, #0]
 247 000c 7AB1     		cbz	r2, .L19
 248              		.loc 1 58 0
 249 000e 9142     		cmp	r1, r2
 250 0010 01D1     		bne	.L29
 251 0012 11E0     		b	.L33
 252              	.LVL28:
 253              	.L24:
 254              		.loc 1 63 0
 255 0014 1A46     		mov	r2, r3
 256              	.LVL29:
 257              	.L29:
 258              		.loc 1 62 0 discriminator 1
 259 0016 1368     		ldr	r3, [r2, #0]
 260              	.LVL30:
 261 0018 4BB1     		cbz	r3, .L19
 262              		.loc 1 63 0
 263 001a 9942     		cmp	r1, r3
 264 001c FAD1     		bne	.L24
 265              		.loc 1 65 0
 266 001e 4368     		ldr	r3, [r0, #4]
 267              		.loc 1 64 0
 268 0020 0C68     		ldr	r4, [r1, #0]
 269              		.loc 1 65 0
 270 0022 8B42     		cmp	r3, r1
 271              		.loc 1 64 0
 272 0024 1460     		str	r4, [r2, #0]
 273              		.loc 1 66 0
 274 0026 08BF     		it	eq
 275 0028 4260     		streq	r2, [r0, #4]
 276              		.loc 1 67 0
 277 002a 0020     		movs	r0, #0
 278              	.LVL31:
 279 002c 0860     		str	r0, [r1, #0]
 280              	.LVL32:
ARM GAS  /tmp/ccLZ93mi.s 			page 6


 281              	.L19:
 282              	.LBB9:
 283              		.loc 1 73 0
 284 002e 0023     		movs	r3, #0
 285              	.LVL33:
 286              	@ 73 "../../ext/ugfx/src/gqueue/gqueue.c" 1
 287 0030 83F31188 		msr     BASEPRI, r3
 288              	@ 0 "" 2
 289              	.LVL34:
 290              		.thumb
 291              	.L17:
 292              	.LBE9:
 293              		.loc 1 74 0
 294 0034 10BC     		pop	{r4}
 295 0036 7047     		bx	lr
 296              	.LVL35:
 297              	.L33:
 298              		.loc 1 59 0
 299 0038 0A68     		ldr	r2, [r1, #0]
 300              		.loc 1 60 0
 301 003a 0023     		movs	r3, #0
 302              	.LVL36:
 303              		.loc 1 59 0
 304 003c 0260     		str	r2, [r0, #0]
 305              		.loc 1 60 0
 306 003e 0B60     		str	r3, [r1, #0]
 307              	.LBB10:
 308              		.loc 1 73 0
 309 0040 0023     		movs	r3, #0
 310              	@ 73 "../../ext/ugfx/src/gqueue/gqueue.c" 1
 311 0042 83F31188 		msr     BASEPRI, r3
 312              	@ 0 "" 2
 313              	.LVL37:
 314              		.thumb
 315 0046 F5E7     		b	.L17
 316              	.LBE10:
 317              		.cfi_endproc
 318              	.LFE122:
 319              		.size	gfxQueueASyncRemove, .-gfxQueueASyncRemove
 320 0048 AFF30080 		.section	.text.gfxQueueASyncIsEmpty,"ax",%progbits
 320      AFF30080 
 321              		.align	2
 322              		.p2align 4,,15
 323              		.global	gfxQueueASyncIsEmpty
 324              		.thumb
 325              		.thumb_func
 326              		.type	gfxQueueASyncIsEmpty, %function
 327              	gfxQueueASyncIsEmpty:
 328              	.LFB123:
 329              		.loc 1 75 0
 330              		.cfi_startproc
 331              		@ args = 0, pretend = 0, frame = 0
 332              		@ frame_needed = 0, uses_anonymous_args = 0
 333              		@ link register save eliminated.
 334              	.LVL38:
 335              		.loc 1 76 0
 336 0000 0068     		ldr	r0, [r0, #0]
ARM GAS  /tmp/ccLZ93mi.s 			page 7


 337              	.LVL39:
 338              		.loc 1 77 0
 339 0002 D0F10100 		rsbs	r0, r0, #1
 340 0006 38BF     		it	cc
 341 0008 0020     		movcc	r0, #0
 342 000a 7047     		bx	lr
 343              		.cfi_endproc
 344              	.LFE123:
 345              		.size	gfxQueueASyncIsEmpty, .-gfxQueueASyncIsEmpty
 346 000c AFF30080 		.section	.text.gfxQueueASyncIsIn,"ax",%progbits
 347              		.align	2
 348              		.p2align 4,,15
 349              		.global	gfxQueueASyncIsIn
 350              		.thumb
 351              		.thumb_func
 352              		.type	gfxQueueASyncIsIn, %function
 353              	gfxQueueASyncIsIn:
 354              	.LFB124:
 355              		.loc 1 78 0
 356              		.cfi_startproc
 357              		@ args = 0, pretend = 0, frame = 0
 358              		@ frame_needed = 0, uses_anonymous_args = 0
 359              		@ link register save eliminated.
 360              	.LVL40:
 361              	.LBB11:
 362              		.loc 1 81 0
 363 0000 2023     		movs	r3, #32
 364              	.LVL41:
 365              	@ 81 "../../ext/ugfx/src/gqueue/gqueue.c" 1
 366 0002 83F31188 		msr     BASEPRI, r3
 367              	@ 0 "" 2
 368              	.LVL42:
 369              		.thumb
 370              	.LBE11:
 371              		.loc 1 82 0
 372 0006 0368     		ldr	r3, [r0, #0]
 373              	.LVL43:
 374 0008 3BB1     		cbz	r3, .L36
 375              		.loc 1 83 0
 376 000a 8B42     		cmp	r3, r1
 377 000c 02D1     		bne	.L44
 378 000e 09E0     		b	.L37
 379              	.L41:
 380 0010 9942     		cmp	r1, r3
 381 0012 07D0     		beq	.L37
 382              	.L44:
 383              		.loc 1 82 0
 384 0014 1B68     		ldr	r3, [r3, #0]
 385              	.LVL44:
 386 0016 002B     		cmp	r3, #0
 387 0018 FAD1     		bne	.L41
 388              	.L36:
 389              	.LBB12:
 390              		.loc 1 88 0
 391 001a 0023     		movs	r3, #0
 392              	.LVL45:
 393              	@ 88 "../../ext/ugfx/src/gqueue/gqueue.c" 1
ARM GAS  /tmp/ccLZ93mi.s 			page 8


 394 001c 83F31188 		msr     BASEPRI, r3
 395              	@ 0 "" 2
 396              	.LVL46:
 397              		.thumb
 398              	.LBE12:
 399              		.loc 1 89 0
 400 0020 1846     		mov	r0, r3
 401              	.LVL47:
 402              		.loc 1 90 0
 403 0022 7047     		bx	lr
 404              	.LVL48:
 405              	.L37:
 406              	.LBB13:
 407              		.loc 1 84 0
 408 0024 0023     		movs	r3, #0
 409              	.LVL49:
 410              	@ 84 "../../ext/ugfx/src/gqueue/gqueue.c" 1
 411 0026 83F31188 		msr     BASEPRI, r3
 412              	@ 0 "" 2
 413              	.LVL50:
 414              		.thumb
 415              	.LBE13:
 416              		.loc 1 85 0
 417 002a 0120     		movs	r0, #1
 418              	.LVL51:
 419 002c 7047     		bx	lr
 420              		.cfi_endproc
 421              	.LFE124:
 422              		.size	gfxQueueASyncIsIn, .-gfxQueueASyncIsIn
 423 002e 00BF     		.text
 424              	.Letext0:
 425              		.file 2 "/usr/bin/../lib/gcc/arm-none-eabi/4.7.4/../../../../arm-none-eabi/include/stdint.h"
 426              		.file 3 "../../os/ports/GCC/ARMCMx/chtypes.h"
 427              		.file 4 "../../ext/ugfx/include/gqueue/gqueue.h"
 428              		.file 5 "../../os/ports/common/ARMCMx/CMSIS/include/core_cm4.h"