ARM GAS  /tmp/ccUxzGuV.s 			page 1


   1              		.syntax unified
   2              		.cpu cortex-m4
   3              		.eabi_attribute 27, 3
   4              		.eabi_attribute 28, 1
   5              		.fpu fpv4-sp-d16
   6              		.eabi_attribute 20, 1
   7              		.eabi_attribute 21, 1
   8              		.eabi_attribute 23, 3
   9              		.eabi_attribute 24, 1
  10              		.eabi_attribute 25, 1
  11              		.eabi_attribute 26, 1
  12              		.eabi_attribute 30, 2
  13              		.eabi_attribute 34, 1
  14              		.eabi_attribute 18, 4
  15              		.thumb
  16              		.file	"gtimer.c"
  17              		.text
  18              	.Ltext0:
  19              		.cfi_sections	.debug_frame
  20              		.section	.text.GTimerThreadHandler,"ax",%progbits
  21              		.align	2
  22              		.p2align 4,,15
  23              		.thumb
  24              		.thumb_func
  25              		.type	GTimerThreadHandler, %function
  26              	GTimerThreadHandler:
  27              	.LFB118:
  28              		.file 1 "../../ext/ugfx/src/gtimer/gtimer.c"
  29              		.loc 1 38 0
  30              		.cfi_startproc
  31              		@ args = 0, pretend = 0, frame = 0
  32              		@ frame_needed = 0, uses_anonymous_args = 0
  33              	.LVL0:
  34 0000 2DE9F047 		push	{r4, r5, r6, r7, r8, r9, sl, lr}
  35              	.LCFI0:
  36              		.cfi_def_cfa_offset 32
  37              		.cfi_offset 4, -32
  38              		.cfi_offset 5, -28
  39              		.cfi_offset 6, -24
  40              		.cfi_offset 7, -20
  41              		.cfi_offset 8, -16
  42              		.cfi_offset 9, -12
  43              		.cfi_offset 10, -8
  44              		.cfi_offset 14, -4
  45              		.loc 1 48 0
  46 0004 4FF00009 		mov	r9, #0
  47 0008 314E     		ldr	r6, .L27
  48 000a 324D     		ldr	r5, .L27+4
  49              		.loc 1 47 0
  50 000c 4FF0FF3A 		mov	sl, #-1
  51              		.loc 1 93 0
  52 0010 C846     		mov	r8, r9
  53              	.LVL1:
  54              	.L16:
  55              		.loc 1 51 0
  56 0012 FFF7FEFF 		bl	chThdYield
  57              	.LVL2:
ARM GAS  /tmp/ccUxzGuV.s 			page 2


  58              		.loc 1 52 0
  59 0016 3048     		ldr	r0, .L27+8
  60 0018 5146     		mov	r1, sl
  61 001a FFF7FEFF 		bl	gfxSemWait
  62              	.LVL3:
  63              	.L2:
  64              		.loc 1 61 0
  65 001e 2F48     		ldr	r0, .L27+12
  66              		.loc 1 57 0
  67 0020 F768     		ldr	r7, [r6, #12]
  68              	.LVL4:
  69              		.loc 1 61 0
  70 0022 FFF7FEFF 		bl	chMtxLock
  71              	.LVL5:
  72              		.loc 1 63 0
  73 0026 D5F800E0 		ldr	lr, [r5, #0]
  74 002a BEF1000F 		cmp	lr, #0
  75 002e 37D0     		beq	.L17
  76 0030 7346     		mov	r3, lr
  77 0032 4FF0FF3A 		mov	sl, #-1
  78 0036 0AE0     		b	.L15
  79              	.LVL6:
  80              	.L25:
  81              		.loc 1 67 0 discriminator 1
  82 0038 A145     		cmp	r9, r4
  83 003a 01D8     		bhi	.L9
  84              	.L23:
  85              		.loc 1 67 0 is_stmt 0 discriminator 3
  86 003c A742     		cmp	r7, r4
  87 003e 15D2     		bcs	.L10
  88              	.L9:
  89              		.loc 1 108 0 is_stmt 1 discriminator 1
  90 0040 E21B     		subs	r2, r4, r7
  91 0042 9245     		cmp	sl, r2
  92 0044 28BF     		it	cs
  93 0046 9246     		movcs	sl, r2
  94              	.LVL7:
  95              	.L7:
  96              		.loc 1 110 0
  97 0048 5B69     		ldr	r3, [r3, #20]
  98              	.LVL8:
  99              		.loc 1 111 0
 100 004a 9E45     		cmp	lr, r3
 101 004c 2AD0     		beq	.L3
 102              	.LVL9:
 103              	.L15:
 104              		.loc 1 67 0
 105 004e 1A8A     		ldrh	r2, [r3, #16]
 106 0050 02F00400 		and	r0, r2, #4
 107 0054 02F00204 		and	r4, r2, #2
 108 0058 81B2     		uxth	r1, r0
 109 005a A0B2     		uxth	r0, r4
 110 005c 31B9     		cbnz	r1, .L10
 111              		.loc 1 67 0 is_stmt 0 discriminator 1
 112 005e 0028     		cmp	r0, #0
 113 0060 F2D1     		bne	.L7
 114 0062 B945     		cmp	r9, r7
ARM GAS  /tmp/ccUxzGuV.s 			page 3


 115 0064 9C68     		ldr	r4, [r3, #8]
 116 0066 E7D9     		bls	.L25
 117              		.loc 1 67 0 discriminator 2
 118 0068 A145     		cmp	r9, r4
 119 006a E7D8     		bhi	.L23
 120              	.L10:
 121              		.loc 1 70 0 is_stmt 1
 122 006c D107     		lsls	r1, r2, #31
 123 006e 1DD5     		bpl	.L6
 124              		.loc 1 70 0 is_stmt 0 discriminator 1
 125 0070 D968     		ldr	r1, [r3, #12]
 126 0072 D9B1     		cbz	r1, .L6
 127              		.loc 1 72 0 is_stmt 1
 128 0074 02F00200 		and	r0, r2, #2
 129 0078 84B2     		uxth	r4, r0
 130 007a 3CB9     		cbnz	r4, .L11
 131              		.loc 1 77 0
 132 007c 9868     		ldr	r0, [r3, #8]
 133 007e CF19     		adds	r7, r1, r7
 134              	.LVL10:
 135 0080 3C1A     		subs	r4, r7, r0
 136 0082 B4FBF1F7 		udiv	r7, r4, r1
 137 0086 01FB0701 		mla	r1, r1, r7, r0
 138 008a 9960     		str	r1, [r3, #8]
 139              	.L11:
 140              		.loc 1 81 0
 141 008c 22F00402 		bic	r2, r2, #4
 142 0090 1A82     		strh	r2, [r3, #16]	@ movhi
 143              	.L12:
 144              		.loc 1 97 0
 145 0092 93E89000 		ldmia	r3, {r4, r7}
 146              	.LVL11:
 147              		.loc 1 99 0
 148 0096 FFF7FEFF 		bl	chMtxUnlock
 149              	.LVL12:
 150              		.loc 1 100 0
 151 009a 3846     		mov	r0, r7
 152 009c A047     		blx	r4
 153              	.LVL13:
 154              		.loc 1 104 0
 155 009e BEE7     		b	.L2
 156              	.LVL14:
 157              	.L17:
 158              		.loc 1 58 0
 159 00a0 4FF0FF3A 		mov	sl, #-1
 160              	.LVL15:
 161              	.L3:
 162              		.loc 1 116 0
 163 00a4 FFF7FEFF 		bl	chMtxUnlock
 164              	.LVL16:
 165 00a8 B946     		mov	r9, r7
 166              		.loc 1 117 0
 167 00aa B2E7     		b	.L16
 168              	.LVL17:
 169              	.L6:
 170              		.loc 1 85 0
 171 00ac 5F69     		ldr	r7, [r3, #20]
ARM GAS  /tmp/ccUxzGuV.s 			page 4


 172              	.LVL18:
 173 00ae 9869     		ldr	r0, [r3, #24]
 174 00b0 8742     		cmp	r7, r0
 175 00b2 09D0     		beq	.L26
 176              		.loc 1 88 0
 177 00b4 B861     		str	r0, [r7, #24]
 178              		.loc 1 89 0
 179 00b6 9C69     		ldr	r4, [r3, #24]
 180              		.loc 1 90 0
 181 00b8 7345     		cmp	r3, lr
 182              		.loc 1 89 0
 183 00ba 6761     		str	r7, [r4, #20]
 184              		.loc 1 91 0
 185 00bc 04BF     		itt	eq
 186 00be 5F69     		ldreq	r7, [r3, #20]
 187 00c0 2F60     		streq	r7, [r5, #0]
 188              	.L14:
 189              		.loc 1 93 0
 190 00c2 A3F81080 		strh	r8, [r3, #16]	@ movhi
 191 00c6 E4E7     		b	.L12
 192              	.L26:
 193              		.loc 1 86 0
 194 00c8 C5F80080 		str	r8, [r5, #0]
 195 00cc F9E7     		b	.L14
 196              	.L28:
 197 00ce 00BF     		.align	2
 198              	.L27:
 199 00d0 00000000 		.word	vtlist
 200 00d4 00000000 		.word	.LANCHOR2
 201 00d8 00000000 		.word	.LANCHOR0
 202 00dc 00000000 		.word	.LANCHOR1
 203              		.cfi_endproc
 204              	.LFE118:
 205              		.size	GTimerThreadHandler, .-GTimerThreadHandler
 206              		.section	.text._gtimerInit,"ax",%progbits
 207              		.align	2
 208              		.p2align 4,,15
 209              		.global	_gtimerInit
 210              		.thumb
 211              		.thumb_func
 212              		.type	_gtimerInit, %function
 213              	_gtimerInit:
 214              	.LFB119:
 215              		.loc 1 121 0
 216              		.cfi_startproc
 217              		@ args = 0, pretend = 0, frame = 0
 218              		@ frame_needed = 0, uses_anonymous_args = 0
 219 0000 08B5     		push	{r3, lr}
 220              	.LCFI1:
 221              		.cfi_def_cfa_offset 8
 222              		.cfi_offset 3, -8
 223              		.cfi_offset 14, -4
 224              		.loc 1 122 0
 225 0002 40F20000 		movw	r0, #:lower16:.LANCHOR0
 226 0006 C0F20000 		movt	r0, #:upper16:.LANCHOR0
 227 000a 0021     		movs	r1, #0
 228 000c 0122     		movs	r2, #1
ARM GAS  /tmp/ccUxzGuV.s 			page 5


 229 000e FFF7FEFF 		bl	gfxSemInit
 230              	.LVL19:
 231              		.loc 1 123 0
 232 0012 40F20000 		movw	r0, #:lower16:.LANCHOR1
 233 0016 C0F20000 		movt	r0, #:upper16:.LANCHOR1
 234              		.loc 1 124 0
 235 001a BDE80840 		pop	{r3, lr}
 236              		.loc 1 123 0
 237 001e FFF7FEBF 		b	chMtxInit
 238              	.LVL20:
 239              		.cfi_endproc
 240              	.LFE119:
 241              		.size	_gtimerInit, .-_gtimerInit
 242 0022 00BFAFF3 		.section	.text.gtimerInit,"ax",%progbits
 242      0080AFF3 
 242      0080AFF3 
 242      0080
 243              		.align	2
 244              		.p2align 4,,15
 245              		.global	gtimerInit
 246              		.thumb
 247              		.thumb_func
 248              		.type	gtimerInit, %function
 249              	gtimerInit:
 250              	.LFB120:
 251              		.loc 1 126 0
 252              		.cfi_startproc
 253              		@ args = 0, pretend = 0, frame = 0
 254              		@ frame_needed = 0, uses_anonymous_args = 0
 255              		@ link register save eliminated.
 256              	.LVL21:
 257              		.loc 1 127 0
 258 0000 0023     		movs	r3, #0
 259 0002 0382     		strh	r3, [r0, #16]	@ movhi
 260 0004 7047     		bx	lr
 261              		.cfi_endproc
 262              	.LFE120:
 263              		.size	gtimerInit, .-gtimerInit
 264 0006 00BFAFF3 		.section	.text.gtimerStart,"ax",%progbits
 264      0080AFF3 
 264      0080
 265              		.align	2
 266              		.p2align 4,,15
 267              		.global	gtimerStart
 268              		.thumb
 269              		.thumb_func
 270              		.type	gtimerStart, %function
 271              	gtimerStart:
 272              	.LFB121:
 273              		.loc 1 130 0
 274              		.cfi_startproc
 275              		@ args = 4, pretend = 0, frame = 0
 276              		@ frame_needed = 0, uses_anonymous_args = 0
 277              	.LVL22:
 278 0000 2DE9F043 		push	{r4, r5, r6, r7, r8, r9, lr}
 279              	.LCFI2:
 280              		.cfi_def_cfa_offset 28
ARM GAS  /tmp/ccUxzGuV.s 			page 6


 281              		.cfi_offset 4, -28
 282              		.cfi_offset 5, -24
 283              		.cfi_offset 6, -20
 284              		.cfi_offset 7, -16
 285              		.cfi_offset 8, -12
 286              		.cfi_offset 9, -8
 287              		.cfi_offset 14, -4
 288              		.loc 1 134 0
 289 0004 3C4E     		ldr	r6, .L49
 290              		.loc 1 130 0
 291 0006 83B0     		sub	sp, sp, #12
 292              	.LCFI3:
 293              		.cfi_def_cfa_offset 40
 294              		.loc 1 130 0
 295 0008 0446     		mov	r4, r0
 296              		.loc 1 131 0
 297 000a 3C48     		ldr	r0, .L49+4
 298              	.LVL23:
 299              		.loc 1 130 0
 300 000c 0A9D     		ldr	r5, [sp, #40]
 301 000e 8946     		mov	r9, r1
 302 0010 9046     		mov	r8, r2
 303 0012 1F46     		mov	r7, r3
 304              		.loc 1 131 0
 305 0014 FFF7FEFF 		bl	chMtxLock
 306              	.LVL24:
 307              		.loc 1 134 0
 308 0018 3068     		ldr	r0, [r6, #0]
 309 001a 0028     		cmp	r0, #0
 310 001c 61D0     		beq	.L44
 311              	.L32:
 312              		.loc 1 140 0
 313 001e 238A     		ldrh	r3, [r4, #16]
 314 0020 03F00801 		and	r1, r3, #8
 315 0024 8AB2     		uxth	r2, r1
 316 0026 002A     		cmp	r2, #0
 317 0028 32D1     		bne	.L33
 318 002a 3548     		ldr	r0, .L49+8
 319              	.L34:
 320              		.loc 1 153 0
 321 002c C4F80090 		str	r9, [r4, #0]
 322              		.loc 1 154 0
 323 0030 C4F80480 		str	r8, [r4, #4]
 324              		.loc 1 156 0
 325 0034 002F     		cmp	r7, #0
 326 0036 3FD1     		bne	.L37
 327              	.L47:
 328              		.loc 1 155 0
 329 0038 0821     		movs	r1, #8
 330              		.loc 1 158 0
 331 003a 6B1C     		adds	r3, r5, #1
 332              		.loc 1 155 0
 333 003c 2182     		strh	r1, [r4, #16]	@ movhi
 334              		.loc 1 158 0
 335 003e 3FD0     		beq	.L45
 336              	.L39:
 337              		.loc 1 162 0
ARM GAS  /tmp/ccUxzGuV.s 			page 7


 338 0040 4FF47A76 		mov	r6, #1000
 339 0044 06FB05F5 		mul	r5, r6, r5
 340 0048 44F6D352 		movw	r2, #19923
 341 004c 6B1E     		subs	r3, r5, #1
 342 004e C1F26202 		movt	r2, 4194
 343              		.loc 1 163 0
 344 0052 2C4E     		ldr	r6, .L49+12
 345              		.loc 1 167 0
 346 0054 0068     		ldr	r0, [r0, #0]
 347              		.loc 1 163 0
 348 0056 F668     		ldr	r6, [r6, #12]
 349 0058 218A     		ldrh	r1, [r4, #16]
 350              		.loc 1 162 0
 351 005a A2FB0352 		umull	r5, r2, r2, r3
 352 005e 9309     		lsrs	r3, r2, #6
 353 0060 0133     		adds	r3, r3, #1
 354              		.loc 1 163 0
 355 0062 9A19     		adds	r2, r3, r6
 356              		.loc 1 162 0
 357 0064 E360     		str	r3, [r4, #12]
 358              		.loc 1 163 0
 359 0066 A260     		str	r2, [r4, #8]
 360              		.loc 1 167 0
 361 0068 0028     		cmp	r0, #0
 362 006a 32D0     		beq	.L41
 363              	.L48:
 364              		.loc 1 169 0
 365 006c 8269     		ldr	r2, [r0, #24]
 366              		.loc 1 168 0
 367 006e 6061     		str	r0, [r4, #20]
 368              		.loc 1 170 0
 369 0070 5461     		str	r4, [r2, #20]
 370              		.loc 1 171 0
 371 0072 6369     		ldr	r3, [r4, #20]
 372              		.loc 1 169 0
 373 0074 A261     		str	r2, [r4, #24]
 374              		.loc 1 171 0
 375 0076 9C61     		str	r4, [r3, #24]
 376              	.L42:
 377              		.loc 1 176 0
 378 0078 01F00201 		and	r1, r1, #2
 379 007c 88B2     		uxth	r0, r1
 380 007e 10B9     		cbnz	r0, .L43
 381              		.loc 1 177 0
 382 0080 2148     		ldr	r0, .L49+16
 383 0082 FFF7FEFF 		bl	gfxSemSignal
 384              	.LVL25:
 385              	.L43:
 386              		.loc 1 179 0
 387 0086 03B0     		add	sp, sp, #12
 388 0088 BDE8F043 		pop	{r4, r5, r6, r7, r8, r9, lr}
 389              		.loc 1 178 0
 390 008c FFF7FEBF 		b	chMtxUnlock
 391              	.LVL26:
 392              	.L33:
 393              		.loc 1 142 0
 394 0090 6369     		ldr	r3, [r4, #20]
ARM GAS  /tmp/ccUxzGuV.s 			page 8


 395 0092 A169     		ldr	r1, [r4, #24]
 396              		.loc 1 143 0
 397 0094 1A48     		ldr	r0, .L49+8
 398              		.loc 1 142 0
 399 0096 8B42     		cmp	r3, r1
 400 0098 20D0     		beq	.L46
 401              		.loc 1 145 0
 402 009a 9961     		str	r1, [r3, #24]
 403              		.loc 1 147 0
 404 009c 0268     		ldr	r2, [r0, #0]
 405              		.loc 1 146 0
 406 009e A169     		ldr	r1, [r4, #24]
 407              		.loc 1 153 0
 408 00a0 C4F80090 		str	r9, [r4, #0]
 409              		.loc 1 147 0
 410 00a4 A242     		cmp	r2, r4
 411              		.loc 1 146 0
 412 00a6 4B61     		str	r3, [r1, #20]
 413              		.loc 1 148 0
 414 00a8 08BF     		it	eq
 415 00aa 6369     		ldreq	r3, [r4, #20]
 416              		.loc 1 154 0
 417 00ac C4F80480 		str	r8, [r4, #4]
 418              		.loc 1 148 0
 419 00b0 08BF     		it	eq
 420 00b2 0360     		streq	r3, [r0, #0]
 421              		.loc 1 156 0
 422 00b4 002F     		cmp	r7, #0
 423 00b6 BFD0     		beq	.L47
 424              	.L37:
 425              		.loc 1 157 0
 426 00b8 0922     		movs	r2, #9
 427              		.loc 1 158 0
 428 00ba 6B1C     		adds	r3, r5, #1
 429              		.loc 1 157 0
 430 00bc 2282     		strh	r2, [r4, #16]	@ movhi
 431              		.loc 1 158 0
 432 00be BFD1     		bne	.L39
 433              	.L45:
 434              		.loc 1 159 0
 435 00c0 218A     		ldrh	r1, [r4, #16]
 436              		.loc 1 167 0
 437 00c2 0068     		ldr	r0, [r0, #0]
 438              		.loc 1 160 0
 439 00c4 E560     		str	r5, [r4, #12]
 440              		.loc 1 159 0
 441 00c6 41F00203 		orr	r3, r1, #2
 442 00ca 1946     		mov	r1, r3	@ movhi
 443 00cc 2382     		strh	r3, [r4, #16]	@ movhi
 444              		.loc 1 167 0
 445 00ce 0028     		cmp	r0, #0
 446 00d0 CCD1     		bne	.L48
 447              	.L41:
 448              		.loc 1 173 0
 449 00d2 0B4A     		ldr	r2, .L49+8
 450 00d4 A461     		str	r4, [r4, #24]
 451 00d6 1460     		str	r4, [r2, #0]
ARM GAS  /tmp/ccUxzGuV.s 			page 9


 452 00d8 6461     		str	r4, [r4, #20]
 453 00da CDE7     		b	.L42
 454              	.L46:
 455              		.loc 1 143 0
 456 00dc 0023     		movs	r3, #0
 457 00de 0360     		str	r3, [r0, #0]
 458 00e0 A4E7     		b	.L34
 459              	.L44:
 460              		.loc 1 135 0
 461 00e2 0090     		str	r0, [sp, #0]
 462 00e4 094B     		ldr	r3, .L49+20
 463 00e6 0A48     		ldr	r0, .L49+24
 464 00e8 4FF44E71 		mov	r1, #824
 465 00ec 7F22     		movs	r2, #127
 466 00ee FFF7FEFF 		bl	gfxThreadCreate
 467              	.LVL27:
 468 00f2 3060     		str	r0, [r6, #0]
 469 00f4 93E7     		b	.L32
 470              	.L50:
 471 00f6 00BF     		.align	2
 472              	.L49:
 473 00f8 00000000 		.word	.LANCHOR3
 474 00fc 00000000 		.word	.LANCHOR1
 475 0100 00000000 		.word	.LANCHOR2
 476 0104 00000000 		.word	vtlist
 477 0108 00000000 		.word	.LANCHOR0
 478 010c 00000000 		.word	GTimerThreadHandler
 479 0110 00000000 		.word	.LANCHOR4
 480              		.cfi_endproc
 481              	.LFE121:
 482              		.size	gtimerStart, .-gtimerStart
 483 0114 AFF30080 		.section	.text.gtimerStop,"ax",%progbits
 483      AFF30080 
 483      AFF30080 
 484              		.align	2
 485              		.p2align 4,,15
 486              		.global	gtimerStop
 487              		.thumb
 488              		.thumb_func
 489              		.type	gtimerStop, %function
 490              	gtimerStop:
 491              	.LFB122:
 492              		.loc 1 181 0
 493              		.cfi_startproc
 494              		@ args = 0, pretend = 0, frame = 0
 495              		@ frame_needed = 0, uses_anonymous_args = 0
 496              	.LVL28:
 497 0000 10B5     		push	{r4, lr}
 498              	.LCFI4:
 499              		.cfi_def_cfa_offset 8
 500              		.cfi_offset 4, -8
 501              		.cfi_offset 14, -4
 502              		.loc 1 181 0
 503 0002 0446     		mov	r4, r0
 504              		.loc 1 182 0
 505 0004 0F48     		ldr	r0, .L59
 506              	.LVL29:
ARM GAS  /tmp/ccUxzGuV.s 			page 10


 507 0006 FFF7FEFF 		bl	chMtxLock
 508              	.LVL30:
 509              		.loc 1 183 0
 510 000a 238A     		ldrh	r3, [r4, #16]
 511 000c 03F00800 		and	r0, r3, #8
 512 0010 81B2     		uxth	r1, r0
 513 0012 71B1     		cbz	r1, .L52
 514              		.loc 1 185 0
 515 0014 6369     		ldr	r3, [r4, #20]
 516 0016 A269     		ldr	r2, [r4, #24]
 517 0018 9342     		cmp	r3, r2
 518 001a 0ED0     		beq	.L58
 519              		.loc 1 190 0
 520 001c 0A49     		ldr	r1, .L59+4
 521              		.loc 1 188 0
 522 001e 9A61     		str	r2, [r3, #24]
 523              		.loc 1 189 0
 524 0020 A069     		ldr	r0, [r4, #24]
 525              		.loc 1 190 0
 526 0022 0A68     		ldr	r2, [r1, #0]
 527              		.loc 1 189 0
 528 0024 4361     		str	r3, [r0, #20]
 529              		.loc 1 190 0
 530 0026 A242     		cmp	r2, r4
 531              		.loc 1 191 0
 532 0028 04BF     		itt	eq
 533 002a 6369     		ldreq	r3, [r4, #20]
 534 002c 0B60     		streq	r3, [r1, #0]
 535              	.L54:
 536              		.loc 1 194 0
 537 002e 0020     		movs	r0, #0
 538 0030 2082     		strh	r0, [r4, #16]	@ movhi
 539              	.L52:
 540              		.loc 1 197 0
 541 0032 BDE81040 		pop	{r4, lr}
 542              		.loc 1 196 0
 543 0036 FFF7FEBF 		b	chMtxUnlock
 544              	.LVL31:
 545              	.L58:
 546              		.loc 1 186 0
 547 003a 034B     		ldr	r3, .L59+4
 548 003c 0021     		movs	r1, #0
 549 003e 1960     		str	r1, [r3, #0]
 550 0040 F5E7     		b	.L54
 551              	.L60:
 552 0042 00BF     		.align	2
 553              	.L59:
 554 0044 00000000 		.word	.LANCHOR1
 555 0048 00000000 		.word	.LANCHOR2
 556              		.cfi_endproc
 557              	.LFE122:
 558              		.size	gtimerStop, .-gtimerStop
 559 004c AFF30080 		.section	.text.gtimerIsActive,"ax",%progbits
 560              		.align	2
 561              		.p2align 4,,15
 562              		.global	gtimerIsActive
 563              		.thumb
ARM GAS  /tmp/ccUxzGuV.s 			page 11


 564              		.thumb_func
 565              		.type	gtimerIsActive, %function
 566              	gtimerIsActive:
 567              	.LFB123:
 568              		.loc 1 199 0
 569              		.cfi_startproc
 570              		@ args = 0, pretend = 0, frame = 0
 571              		@ frame_needed = 0, uses_anonymous_args = 0
 572              		@ link register save eliminated.
 573              	.LVL32:
 574              		.loc 1 200 0
 575 0000 008A     		ldrh	r0, [r0, #16]
 576              	.LVL33:
 577              		.loc 1 201 0
 578 0002 C0F3C000 		ubfx	r0, r0, #3, #1
 579 0006 7047     		bx	lr
 580              		.cfi_endproc
 581              	.LFE123:
 582              		.size	gtimerIsActive, .-gtimerIsActive
 583 0008 AFF30080 		.section	.text.gtimerJab,"ax",%progbits
 583      AFF30080 
 584              		.align	2
 585              		.p2align 4,,15
 586              		.global	gtimerJab
 587              		.thumb
 588              		.thumb_func
 589              		.type	gtimerJab, %function
 590              	gtimerJab:
 591              	.LFB124:
 592              		.loc 1 203 0
 593              		.cfi_startproc
 594              		@ args = 0, pretend = 0, frame = 0
 595              		@ frame_needed = 0, uses_anonymous_args = 0
 596              	.LVL34:
 597 0000 10B5     		push	{r4, lr}
 598              	.LCFI5:
 599              		.cfi_def_cfa_offset 8
 600              		.cfi_offset 4, -8
 601              		.cfi_offset 14, -4
 602              		.loc 1 203 0
 603 0002 0446     		mov	r4, r0
 604              		.loc 1 204 0
 605 0004 40F20000 		movw	r0, #:lower16:.LANCHOR1
 606              	.LVL35:
 607 0008 C0F20000 		movt	r0, #:upper16:.LANCHOR1
 608 000c FFF7FEFF 		bl	chMtxLock
 609              	.LVL36:
 610              		.loc 1 207 0
 611 0010 238A     		ldrh	r3, [r4, #16]
 612 0012 43F00400 		orr	r0, r3, #4
 613 0016 2082     		strh	r0, [r4, #16]	@ movhi
 614              		.loc 1 210 0
 615 0018 40F20000 		movw	r0, #:lower16:.LANCHOR0
 616 001c C0F20000 		movt	r0, #:upper16:.LANCHOR0
 617 0020 FFF7FEFF 		bl	gfxSemSignal
 618              	.LVL37:
 619              		.loc 1 212 0
ARM GAS  /tmp/ccUxzGuV.s 			page 12


 620 0024 BDE81040 		pop	{r4, lr}
 621              		.loc 1 211 0
 622 0028 FFF7FEBF 		b	chMtxUnlock
 623              	.LVL38:
 624              		.cfi_endproc
 625              	.LFE124:
 626              		.size	gtimerJab, .-gtimerJab
 627 002c AFF30080 		.section	.text.gtimerJabI,"ax",%progbits
 628              		.align	2
 629              		.p2align 4,,15
 630              		.global	gtimerJabI
 631              		.thumb
 632              		.thumb_func
 633              		.type	gtimerJabI, %function
 634              	gtimerJabI:
 635              	.LFB125:
 636              		.loc 1 214 0
 637              		.cfi_startproc
 638              		@ args = 0, pretend = 0, frame = 0
 639              		@ frame_needed = 0, uses_anonymous_args = 0
 640              		@ link register save eliminated.
 641              	.LVL39:
 642              		.loc 1 216 0
 643 0000 038A     		ldrh	r3, [r0, #16]
 644 0002 43F00401 		orr	r1, r3, #4
 645 0006 0182     		strh	r1, [r0, #16]	@ movhi
 646              		.loc 1 219 0
 647 0008 40F20000 		movw	r0, #:lower16:.LANCHOR0
 648              	.LVL40:
 649 000c C0F20000 		movt	r0, #:upper16:.LANCHOR0
 650              		.loc 1 220 0
 651              		.loc 1 219 0
 652 0010 FFF7FEBF 		b	gfxSemSignalI
 653              	.LVL41:
 654              		.cfi_endproc
 655              	.LFE125:
 656              		.size	gtimerJabI, .-gtimerJabI
 657 0014 AFF30080 		.section	.bss.mutex,"aw",%nobits
 657      AFF30080 
 657      AFF30080 
 658              		.align	2
 659              		.set	.LANCHOR1,. + 0
 660              		.type	mutex, %object
 661              		.size	mutex, 16
 662              	mutex:
 663 0000 00000000 		.space	16
 663      00000000 
 663      00000000 
 663      00000000 
 664              		.section	.bss.hThread,"aw",%nobits
 665              		.align	2
 666              		.set	.LANCHOR3,. + 0
 667              		.type	hThread, %object
 668              		.size	hThread, 4
 669              	hThread:
 670 0000 00000000 		.space	4
 671              		.section	.bss.waTimerThread,"aw",%nobits
ARM GAS  /tmp/ccUxzGuV.s 			page 13


 672              		.align	3
 673              		.set	.LANCHOR4,. + 0
 674              		.type	waTimerThread, %object
 675              		.size	waTimerThread, 824
 676              	waTimerThread:
 677 0000 00000000 		.space	824
 677      00000000 
 677      00000000 
 677      00000000 
 677      00000000 
 678              		.section	.bss.pTimerHead,"aw",%nobits
 679              		.align	2
 680              		.set	.LANCHOR2,. + 0
 681              		.type	pTimerHead, %object
 682              		.size	pTimerHead, 4
 683              	pTimerHead:
 684 0000 00000000 		.space	4
 685              		.section	.bss.waitsem,"aw",%nobits
 686              		.align	2
 687              		.set	.LANCHOR0,. + 0
 688              		.type	waitsem, %object
 689              		.size	waitsem, 16
 690              	waitsem:
 691 0000 00000000 		.space	16
 691      00000000 
 691      00000000 
 691      00000000 
 692              		.text
 693              	.Letext0:
 694              		.file 2 "/usr/bin/../lib/gcc/arm-none-eabi/4.7.4/include/stddef.h"
 695              		.file 3 "/usr/bin/../lib/gcc/arm-none-eabi/4.7.4/../../../../arm-none-eabi/include/stdint.h"
 696              		.file 4 "../../os/ports/GCC/ARMCMx/chtypes.h"
 697              		.file 5 "../../os/kernel/include/chlists.h"
 698              		.file 6 "../../os/kernel/include/chthreads.h"
 699              		.file 7 "../../os/ports/GCC/ARMCMx/chcore_v7m.h"
 700              		.file 8 "../../os/kernel/include/chvt.h"
 701              		.file 9 "../../os/kernel/include/chsem.h"
 702              		.file 10 "../../os/kernel/include/chmtx.h"
 703              		.file 11 "../../ext/ugfx/include/gos/chibios.h"
 704              		.file 12 "../../ext/ugfx/include/gtimer/gtimer.h"
 705              		.file 13 "../../os/ports/common/ARMCMx/CMSIS/include/core_cm4.h"