ARM GAS  /tmp/ccVDlRpa.s 			page 1


   1              		.syntax unified
   2              		.cpu cortex-m4
   3              		.eabi_attribute 27, 3
   4              		.eabi_attribute 28, 1
   5              		.fpu fpv4-sp-d16
   6              		.eabi_attribute 20, 1
   7              		.eabi_attribute 21, 1
   8              		.eabi_attribute 23, 3
   9              		.eabi_attribute 24, 1
  10              		.eabi_attribute 25, 1
  11              		.eabi_attribute 26, 1
  12              		.eabi_attribute 30, 2
  13              		.eabi_attribute 34, 1
  14              		.eabi_attribute 18, 4
  15              		.thumb
  16              		.file	"hal.c"
  17              		.text
  18              	.Ltext0:
  19              		.cfi_sections	.debug_frame
  20              		.section	.text.halInit,"ax",%progbits
  21              		.align	2
  22              		.p2align 4,,15
  23              		.global	halInit
  24              		.thumb
  25              		.thumb_func
  26              		.type	halInit, %function
  27              	halInit:
  28              	.LFB118:
  29              		.file 1 "../../os/hal/src/hal.c"
  30              		.loc 1 61 0
  31              		.cfi_startproc
  32              		@ args = 0, pretend = 0, frame = 0
  33              		@ frame_needed = 0, uses_anonymous_args = 0
  34 0000 08B5     		push	{r3, lr}
  35              	.LCFI0:
  36              		.cfi_def_cfa_offset 8
  37              		.cfi_offset 3, -8
  38              		.cfi_offset 14, -4
  39              		.loc 1 63 0
  40 0002 FFF7FEFF 		bl	hal_lld_init
  41              	.LVL0:
  42              		.loc 1 69 0
  43 0006 40F20000 		movw	r0, #:lower16:pal_default_config
  44 000a C0F20000 		movt	r0, #:upper16:pal_default_config
  45 000e FFF7FEFF 		bl	_pal_lld_init
  46              	.LVL1:
  47              		.loc 1 96 0
  48 0012 FFF7FEFF 		bl	sdInit
  49              	.LVL2:
  50              		.loc 1 102 0
  51 0016 FFF7FEFF 		bl	spiInit
  52              	.LVL3:
  53              		.loc 1 105 0
  54 001a FFF7FEFF 		bl	uartInit
  55              	.LVL4:
  56              		.loc 1 121 0
  57 001e BDE80840 		pop	{r3, lr}
ARM GAS  /tmp/ccVDlRpa.s 			page 2


  58              		.loc 1 120 0
  59 0022 FFF7FEBF 		b	boardInit
  60              	.LVL5:
  61              		.cfi_endproc
  62              	.LFE118:
  63              		.size	halInit, .-halInit
  64 0026 00BFAFF3 		.section	.text.halIsCounterWithin,"ax",%progbits
  64      0080AFF3 
  64      0080
  65              		.align	2
  66              		.p2align 4,,15
  67              		.global	halIsCounterWithin
  68              		.thumb
  69              		.thumb_func
  70              		.type	halIsCounterWithin, %function
  71              	halIsCounterWithin:
  72              	.LFB119:
  73              		.loc 1 167 0
  74              		.cfi_startproc
  75              		@ args = 0, pretend = 0, frame = 0
  76              		@ frame_needed = 0, uses_anonymous_args = 0
  77              		@ link register save eliminated.
  78              	.LVL6:
  79              		.loc 1 168 0
  80 0000 4FF48053 		mov	r3, #4096
  81 0004 CEF20003 		movt	r3, 57344
  82              		.loc 1 170 0
  83 0008 8142     		cmp	r1, r0
  84              		.loc 1 168 0
  85 000a 5A68     		ldr	r2, [r3, #4]
  86              	.LVL7:
  87              		.loc 1 170 0
  88 000c 06D9     		bls	.L3
  89              		.loc 1 170 0 is_stmt 0 discriminator 1
  90 000e 8242     		cmp	r2, r0
  91 0010 08D3     		bcc	.L7
  92              	.L9:
  93              		.loc 1 171 0 is_stmt 1 discriminator 2
  94 0012 8A42     		cmp	r2, r1
  95 0014 2CBF     		ite	cs
  96 0016 0020     		movcs	r0, #0
  97              	.LVL8:
  98 0018 0120     		movcc	r0, #1
  99 001a 7047     		bx	lr
 100              	.LVL9:
 101              	.L3:
 102              		.loc 1 171 0 is_stmt 0
 103 001c 8242     		cmp	r2, r0
 104 001e F8D3     		bcc	.L9
 105 0020 0120     		movs	r0, #1
 106              	.LVL10:
 107              		.loc 1 172 0 is_stmt 1
 108 0022 7047     		bx	lr
 109              	.LVL11:
 110              	.L7:
 111              		.loc 1 170 0
 112 0024 0020     		movs	r0, #0
ARM GAS  /tmp/ccVDlRpa.s 			page 3


 113              	.LVL12:
 114 0026 7047     		bx	lr
 115              		.cfi_endproc
 116              	.LFE119:
 117              		.size	halIsCounterWithin, .-halIsCounterWithin
 118 0028 AFF30080 		.section	.text.halPolledDelay,"ax",%progbits
 118      AFF30080 
 119              		.align	2
 120              		.p2align 4,,15
 121              		.global	halPolledDelay
 122              		.thumb
 123              		.thumb_func
 124              		.type	halPolledDelay, %function
 125              	halPolledDelay:
 126              	.LFB120:
 127              		.loc 1 186 0
 128              		.cfi_startproc
 129              		@ args = 0, pretend = 0, frame = 0
 130              		@ frame_needed = 0, uses_anonymous_args = 0
 131              		@ link register save eliminated.
 132              	.LVL13:
 133              		.loc 1 187 0
 134 0000 4FF48053 		mov	r3, #4096
 135 0004 CEF20003 		movt	r3, 57344
 136              	.LBB4:
 137              	.LBB5:
 138              		.loc 1 168 0
 139 0008 1946     		mov	r1, r3
 140              	.LBE5:
 141              	.LBE4:
 142              		.loc 1 187 0
 143 000a 5A68     		ldr	r2, [r3, #4]
 144              	.LVL14:
 145              		.loc 1 188 0
 146 000c 8018     		adds	r0, r0, r2
 147              	.LVL15:
 148              	.L21:
 149              	.LBB7:
 150              	.LBB6:
 151              		.loc 1 170 0 discriminator 1
 152 000e 8242     		cmp	r2, r0
 153              		.loc 1 168 0 discriminator 1
 154 0010 4B68     		ldr	r3, [r1, #4]
 155              	.LVL16:
 156              		.loc 1 170 0 discriminator 1
 157 0012 02D2     		bcs	.L12
 158              		.loc 1 170 0 is_stmt 0
 159 0014 9A42     		cmp	r2, r3
 160 0016 02D9     		bls	.L22
 161 0018 7047     		bx	lr
 162              	.L12:
 163              		.loc 1 171 0 is_stmt 1
 164 001a 9A42     		cmp	r2, r3
 165 001c F7D9     		bls	.L21
 166              	.L22:
 167 001e 9842     		cmp	r0, r3
 168 0020 94BF     		ite	ls
ARM GAS  /tmp/ccVDlRpa.s 			page 4


 169 0022 0023     		movls	r3, #0
 170              	.LVL17:
 171 0024 0123     		movhi	r3, #1
 172              	.LBE6:
 173              	.LBE7:
 174              		.loc 1 189 0
 175 0026 002B     		cmp	r3, #0
 176 0028 F1D1     		bne	.L21
 177 002a 7047     		bx	lr
 178              		.cfi_endproc
 179              	.LFE120:
 180              		.size	halPolledDelay, .-halPolledDelay
 181 002c AFF30080 		.text
 182              	.Letext0:
 183              		.file 2 "/usr/bin/../lib/gcc/arm-none-eabi/4.7.4/../../../../arm-none-eabi/include/stdint.h"
 184              		.file 3 "../../os/ports/GCC/ARMCMx/chtypes.h"
 185              		.file 4 "../../os/ports/common/ARMCMx/nvic.h"
 186              		.file 5 "../../os/hal/platforms/STM32F4xx/hal_lld.h"
 187              		.file 6 "../../os/hal/platforms/STM32/GPIOv2/pal_lld.h"
 188              		.file 7 "../../os/ports/common/ARMCMx/CMSIS/include/core_cm4.h"
 189              		.file 8 "../../os/hal/include/serial.h"
 190              		.file 9 "../../os/hal/include/spi.h"
 191              		.file 10 "../../os/hal/include/uart.h"
 192              		.file 11 "../../boards/ST_STM32F4_DISCOVERY/board.h"