ARM GAS  /tmp/ccBvmg99.s 			page 1


   1              		.syntax unified
   2              		.cpu cortex-m4
   3              		.eabi_attribute 27, 3
   4              		.eabi_attribute 28, 1
   5              		.fpu fpv4-sp-d16
   6              		.eabi_attribute 20, 1
   7              		.eabi_attribute 21, 1
   8              		.eabi_attribute 23, 3
   9              		.eabi_attribute 24, 1
  10              		.eabi_attribute 25, 1
  11              		.eabi_attribute 26, 1
  12              		.eabi_attribute 30, 2
  13              		.eabi_attribute 34, 1
  14              		.eabi_attribute 18, 4
  15              		.thumb
  16              		.file	"image.c"
  17              		.text
  18              	.Ltext0:
  19              		.cfi_sections	.debug_frame
  20              		.section	.text.ImageMemorySeek,"ax",%progbits
  21              		.align	2
  22              		.p2align 4,,15
  23              		.thumb
  24              		.thumb_func
  25              		.type	ImageMemorySeek, %function
  26              	ImageMemorySeek:
  27              	.LFB119:
  28              		.file 1 "../../ext/ugfx/src/gdisp/image.c"
  29              		.loc 1 66 0
  30              		.cfi_startproc
  31              		@ args = 0, pretend = 0, frame = 0
  32              		@ frame_needed = 0, uses_anonymous_args = 0
  33              		@ link register save eliminated.
  34              	.LVL0:
  35              		.loc 1 67 0
  36 0000 0368     		ldr	r3, [r0, #0]
  37 0002 0133     		adds	r3, r3, #1
  38              		.loc 1 68 0
  39 0004 18BF     		it	ne
  40 0006 4160     		strne	r1, [r0, #4]
  41 0008 7047     		bx	lr
  42              		.cfi_endproc
  43              	.LFE119:
  44              		.size	ImageMemorySeek, .-ImageMemorySeek
  45 000a 00BFAFF3 		.section	.text.ImageMemoryClose,"ax",%progbits
  45      0080
  46              		.align	2
  47              		.p2align 4,,15
  48              		.thumb
  49              		.thumb_func
  50              		.type	ImageMemoryClose, %function
  51              	ImageMemoryClose:
  52              	.LFB120:
  53              		.loc 1 71 0
  54              		.cfi_startproc
  55              		@ args = 0, pretend = 0, frame = 0
  56              		@ frame_needed = 0, uses_anonymous_args = 0
ARM GAS  /tmp/ccBvmg99.s 			page 2


  57              		@ link register save eliminated.
  58              	.LVL1:
  59              		.loc 1 73 0
  60 0000 4FF0FF32 		mov	r2, #-1
  61 0004 0023     		movs	r3, #0
  62 0006 80E80C00 		stmia	r0, {r2, r3}
  63 000a 7047     		bx	lr
  64              		.cfi_endproc
  65              	.LFE120:
  66              		.size	ImageMemoryClose, .-ImageMemoryClose
  67 000c AFF30080 		.section	.text.ImageBaseFileStreamRead,"ax",%progbits
  68              		.align	2
  69              		.p2align 4,,15
  70              		.thumb
  71              		.thumb_func
  72              		.type	ImageBaseFileStreamRead, %function
  73              	ImageBaseFileStreamRead:
  74              	.LFB122:
  75              		.loc 1 87 0
  76              		.cfi_startproc
  77              		@ args = 0, pretend = 0, frame = 0
  78              		@ frame_needed = 0, uses_anonymous_args = 0
  79              	.LVL2:
  80 0000 10B5     		push	{r4, lr}
  81              	.LCFI0:
  82              		.cfi_def_cfa_offset 8
  83              		.cfi_offset 4, -8
  84              		.cfi_offset 14, -4
  85              		.loc 1 87 0
  86 0002 0446     		mov	r4, r0
  87              		.loc 1 88 0
  88 0004 0068     		ldr	r0, [r0, #0]
  89              	.LVL3:
  90 0006 431C     		adds	r3, r0, #1
  91 0008 06D0     		beq	.L9
  92              		.loc 1 89 0
  93 000a 0368     		ldr	r3, [r0, #0]
  94 000c 5B68     		ldr	r3, [r3, #4]
  95 000e 9847     		blx	r3
  96              	.LVL4:
  97              		.loc 1 90 0
  98 0010 6168     		ldr	r1, [r4, #4]
  99 0012 0A18     		adds	r2, r1, r0
 100 0014 6260     		str	r2, [r4, #4]
 101              		.loc 1 91 0
 102 0016 10BD     		pop	{r4, pc}
 103              	.LVL5:
 104              	.L9:
 105              		.loc 1 88 0
 106 0018 0020     		movs	r0, #0
 107              		.loc 1 92 0
 108 001a 10BD     		pop	{r4, pc}
 109              		.cfi_endproc
 110              	.LFE122:
 111              		.size	ImageBaseFileStreamRead, .-ImageBaseFileStreamRead
 112 001c AFF30080 		.section	.text.ImageBaseFileStreamSeek,"ax",%progbits
 113              		.align	2
ARM GAS  /tmp/ccBvmg99.s 			page 3


 114              		.p2align 4,,15
 115              		.thumb
 116              		.thumb_func
 117              		.type	ImageBaseFileStreamSeek, %function
 118              	ImageBaseFileStreamSeek:
 119              	.LFB123:
 120              		.loc 1 94 0
 121              		.cfi_startproc
 122              		@ args = 0, pretend = 0, frame = 0
 123              		@ frame_needed = 0, uses_anonymous_args = 0
 124              	.LVL6:
 125 0000 38B5     		push	{r3, r4, r5, lr}
 126              	.LCFI1:
 127              		.cfi_def_cfa_offset 16
 128              		.cfi_offset 3, -16
 129              		.cfi_offset 4, -12
 130              		.cfi_offset 5, -8
 131              		.cfi_offset 14, -4
 132              		.loc 1 94 0
 133 0002 0446     		mov	r4, r0
 134              		.loc 1 95 0
 135 0004 0068     		ldr	r0, [r0, #0]
 136              	.LVL7:
 137 0006 421C     		adds	r2, r0, #1
 138              		.loc 1 94 0
 139 0008 0D46     		mov	r5, r1
 140              		.loc 1 95 0
 141 000a 06D0     		beq	.L11
 142              		.loc 1 96 0
 143 000c 6368     		ldr	r3, [r4, #4]
 144 000e 8B42     		cmp	r3, r1
 145 0010 03D0     		beq	.L11
 146              		.loc 1 97 0
 147 0012 0268     		ldr	r2, [r0, #0]
 148 0014 136A     		ldr	r3, [r2, #32]
 149 0016 9847     		blx	r3
 150              	.LVL8:
 151              		.loc 1 98 0
 152 0018 6560     		str	r5, [r4, #4]
 153              	.L11:
 154 001a 38BD     		pop	{r3, r4, r5, pc}
 155              		.cfi_endproc
 156              	.LFE123:
 157              		.size	ImageBaseFileStreamSeek, .-ImageBaseFileStreamSeek
 158 001c AFF30080 		.section	.text.ImageBaseFileStreamClose,"ax",%progbits
 159              		.align	2
 160              		.p2align 4,,15
 161              		.thumb
 162              		.thumb_func
 163              		.type	ImageBaseFileStreamClose, %function
 164              	ImageBaseFileStreamClose:
 165              	.LFB124:
 166              		.loc 1 102 0
 167              		.cfi_startproc
 168              		@ args = 0, pretend = 0, frame = 0
 169              		@ frame_needed = 0, uses_anonymous_args = 0
 170              	.LVL9:
ARM GAS  /tmp/ccBvmg99.s 			page 4


 171 0000 10B5     		push	{r4, lr}
 172              	.LCFI2:
 173              		.cfi_def_cfa_offset 8
 174              		.cfi_offset 4, -8
 175              		.cfi_offset 14, -4
 176              		.loc 1 102 0
 177 0002 0446     		mov	r4, r0
 178              		.loc 1 103 0
 179 0004 0068     		ldr	r0, [r0, #0]
 180              	.LVL10:
 181 0006 431C     		adds	r3, r0, #1
 182 0008 07D0     		beq	.L16
 183              		.loc 1 104 0
 184 000a 0368     		ldr	r3, [r0, #0]
 185 000c 1969     		ldr	r1, [r3, #16]
 186 000e 8847     		blx	r1
 187              	.LVL11:
 188              		.loc 1 106 0
 189 0010 4FF0FF31 		mov	r1, #-1
 190 0014 0023     		movs	r3, #0
 191 0016 84E80A00 		stmia	r4, {r1, r3}
 192              	.L16:
 193 001a 10BD     		pop	{r4, pc}
 194              		.cfi_endproc
 195              	.LFE124:
 196              		.size	ImageBaseFileStreamClose, .-ImageBaseFileStreamClose
 197 001c AFF30080 		.section	.text.ImageMemoryRead,"ax",%progbits
 198              		.align	2
 199              		.p2align 4,,15
 200              		.thumb
 201              		.thumb_func
 202              		.type	ImageMemoryRead, %function
 203              	ImageMemoryRead:
 204              	.LFB118:
 205              		.loc 1 59 0
 206              		.cfi_startproc
 207              		@ args = 0, pretend = 0, frame = 0
 208              		@ frame_needed = 0, uses_anonymous_args = 0
 209              	.LVL12:
 210              		.loc 1 60 0
 211 0000 0368     		ldr	r3, [r0, #0]
 212              		.loc 1 59 0
 213 0002 70B5     		push	{r4, r5, r6, lr}
 214              	.LCFI3:
 215              		.cfi_def_cfa_offset 16
 216              		.cfi_offset 4, -16
 217              		.cfi_offset 5, -12
 218              		.cfi_offset 6, -8
 219              		.cfi_offset 14, -4
 220              		.loc 1 59 0
 221 0004 0446     		mov	r4, r0
 222              		.loc 1 60 0
 223 0006 581C     		adds	r0, r3, #1
 224              	.LVL13:
 225              		.loc 1 59 0
 226 0008 1546     		mov	r5, r2
 227              		.loc 1 60 0
ARM GAS  /tmp/ccBvmg99.s 			page 5


 228 000a 09D0     		beq	.L23
 229              		.loc 1 61 0
 230 000c 6668     		ldr	r6, [r4, #4]
 231 000e 0846     		mov	r0, r1
 232 0010 9919     		adds	r1, r3, r6
 233              	.LVL14:
 234 0012 FFF7FEFF 		bl	memcpy
 235              	.LVL15:
 236              		.loc 1 62 0
 237 0016 6068     		ldr	r0, [r4, #4]
 238 0018 4119     		adds	r1, r0, r5
 239 001a 6160     		str	r1, [r4, #4]
 240              		.loc 1 64 0
 241 001c 2846     		mov	r0, r5
 242 001e 70BD     		pop	{r4, r5, r6, pc}
 243              	.LVL16:
 244              	.L23:
 245              		.loc 1 60 0
 246 0020 0025     		movs	r5, #0
 247              		.loc 1 64 0
 248 0022 2846     		mov	r0, r5
 249 0024 70BD     		pop	{r4, r5, r6, pc}
 250              		.cfi_endproc
 251              	.LFE118:
 252              		.size	ImageMemoryRead, .-ImageMemoryRead
 253 0026 00BFAFF3 		.section	.text.gdispImageSetMemoryReader,"ax",%progbits
 253      0080AFF3 
 253      0080
 254              		.align	2
 255              		.p2align 4,,15
 256              		.global	gdispImageSetMemoryReader
 257              		.thumb
 258              		.thumb_func
 259              		.type	gdispImageSetMemoryReader, %function
 260              	gdispImageSetMemoryReader:
 261              	.LFB121:
 262              		.loc 1 79 0
 263              		.cfi_startproc
 264              		@ args = 0, pretend = 0, frame = 0
 265              		@ frame_needed = 0, uses_anonymous_args = 0
 266              		@ link register save eliminated.
 267              	.LVL17:
 268              		.loc 1 80 0
 269 0000 40F20003 		movw	r3, #:lower16:.LANCHOR0
 270 0004 C0F20003 		movt	r3, #:upper16:.LANCHOR0
 271              		.loc 1 81 0
 272 0008 0022     		movs	r2, #0
 273              		.loc 1 80 0
 274 000a 4361     		str	r3, [r0, #20]
 275              		.loc 1 81 0
 276 000c 0261     		str	r2, [r0, #16]
 277              		.loc 1 82 0
 278 000e C160     		str	r1, [r0, #12]
 279              		.loc 1 84 0
 280 0010 0120     		movs	r0, #1
 281              	.LVL18:
 282 0012 7047     		bx	lr
ARM GAS  /tmp/ccBvmg99.s 			page 6


 283              		.cfi_endproc
 284              	.LFE121:
 285              		.size	gdispImageSetMemoryReader, .-gdispImageSetMemoryReader
 286 0014 AFF30080 		.section	.text.gdispImageSetBaseFileStreamReader,"ax",%progbits
 286      AFF30080 
 286      AFF30080 
 287              		.align	2
 288              		.p2align 4,,15
 289              		.global	gdispImageSetBaseFileStreamReader
 290              		.thumb
 291              		.thumb_func
 292              		.type	gdispImageSetBaseFileStreamReader, %function
 293              	gdispImageSetBaseFileStreamReader:
 294              	.LFB125:
 295              		.loc 1 112 0
 296              		.cfi_startproc
 297              		@ args = 0, pretend = 0, frame = 0
 298              		@ frame_needed = 0, uses_anonymous_args = 0
 299              		@ link register save eliminated.
 300              	.LVL19:
 301              		.loc 1 113 0
 302 0000 40F20003 		movw	r3, #:lower16:.LANCHOR1
 303 0004 C0F20003 		movt	r3, #:upper16:.LANCHOR1
 304              		.loc 1 114 0
 305 0008 0022     		movs	r2, #0
 306              		.loc 1 113 0
 307 000a 4361     		str	r3, [r0, #20]
 308              		.loc 1 114 0
 309 000c 0261     		str	r2, [r0, #16]
 310              		.loc 1 115 0
 311 000e C160     		str	r1, [r0, #12]
 312              		.loc 1 117 0
 313 0010 0120     		movs	r0, #1
 314              	.LVL20:
 315 0012 7047     		bx	lr
 316              		.cfi_endproc
 317              	.LFE125:
 318              		.size	gdispImageSetBaseFileStreamReader, .-gdispImageSetBaseFileStreamReader
 319 0014 AFF30080 		.section	.text.gdispImageOpen,"ax",%progbits
 319      AFF30080 
 319      AFF30080 
 320              		.align	2
 321              		.p2align 4,,15
 322              		.global	gdispImageOpen
 323              		.thumb
 324              		.thumb_func
 325              		.type	gdispImageOpen, %function
 326              	gdispImageOpen:
 327              	.LFB126:
 328              		.loc 1 162 0
 329              		.cfi_startproc
 330              		@ args = 0, pretend = 0, frame = 0
 331              		@ frame_needed = 0, uses_anonymous_args = 0
 332              		@ link register save eliminated.
 333              	.LVL21:
 334              		.loc 1 175 0
 335 0000 0023     		movs	r3, #0
ARM GAS  /tmp/ccBvmg99.s 			page 7


 336              		.loc 1 165 0
 337 0002 4FF6FF72 		movw	r2, #65535
 338 0006 8280     		strh	r2, [r0, #4]	@ movhi
 339              		.loc 1 175 0
 340 0008 0380     		strh	r3, [r0, #0]	@ movhi
 341              		.loc 1 176 0
 342 000a 4380     		strh	r3, [r0, #2]	@ movhi
 343              		.loc 1 177 0
 344 000c 8361     		str	r3, [r0, #24]
 345              		.loc 1 178 0
 346 000e C361     		str	r3, [r0, #28]
 347              		.loc 1 180 0
 348 0010 48F20100 		movw	r0, #32769
 349              	.LVL22:
 350 0014 7047     		bx	lr
 351              		.cfi_endproc
 352              	.LFE126:
 353              		.size	gdispImageOpen, .-gdispImageOpen
 354 0016 00BFAFF3 		.section	.text.gdispImageClose,"ax",%progbits
 354      0080AFF3 
 354      0080
 355              		.align	2
 356              		.p2align 4,,15
 357              		.global	gdispImageClose
 358              		.thumb
 359              		.thumb_func
 360              		.type	gdispImageClose, %function
 361              	gdispImageClose:
 362              	.LFB127:
 363              		.loc 1 182 0
 364              		.cfi_startproc
 365              		@ args = 0, pretend = 0, frame = 0
 366              		@ frame_needed = 0, uses_anonymous_args = 0
 367              	.LVL23:
 368              		.loc 1 183 0
 369 0000 8369     		ldr	r3, [r0, #24]
 370              		.loc 1 182 0
 371 0002 10B5     		push	{r4, lr}
 372              	.LCFI4:
 373              		.cfi_def_cfa_offset 8
 374              		.cfi_offset 4, -8
 375              		.cfi_offset 14, -4
 376              		.loc 1 182 0
 377 0004 0446     		mov	r4, r0
 378              		.loc 1 183 0
 379 0006 3BB1     		cbz	r3, .L28
 380              		.loc 1 184 0
 381 0008 5B68     		ldr	r3, [r3, #4]
 382 000a 9847     		blx	r3
 383              	.LVL24:
 384              	.L29:
 385              		.loc 1 187 0
 386 000c 0020     		movs	r0, #0
 387 000e 2080     		strh	r0, [r4, #0]	@ movhi
 388              		.loc 1 188 0
 389 0010 6080     		strh	r0, [r4, #2]	@ movhi
 390              		.loc 1 189 0
ARM GAS  /tmp/ccBvmg99.s 			page 8


 391 0012 A061     		str	r0, [r4, #24]
 392              		.loc 1 190 0
 393 0014 E061     		str	r0, [r4, #28]
 394 0016 10BD     		pop	{r4, pc}
 395              	.LVL25:
 396              	.L28:
 397              		.loc 1 186 0
 398 0018 4169     		ldr	r1, [r0, #20]
 399 001a 00F10C00 		add	r0, r0, #12
 400              	.LVL26:
 401 001e 8A68     		ldr	r2, [r1, #8]
 402 0020 9047     		blx	r2
 403              	.LVL27:
 404 0022 F3E7     		b	.L29
 405              		.cfi_endproc
 406              	.LFE127:
 407              		.size	gdispImageClose, .-gdispImageClose
 408 0024 AFF30080 		.section	.text.gdispImageIsOpen,"ax",%progbits
 408      AFF30080 
 408      AFF30080 
 409              		.align	2
 410              		.p2align 4,,15
 411              		.global	gdispImageIsOpen
 412              		.thumb
 413              		.thumb_func
 414              		.type	gdispImageIsOpen, %function
 415              	gdispImageIsOpen:
 416              	.LFB128:
 417              		.loc 1 193 0
 418              		.cfi_startproc
 419              		@ args = 0, pretend = 0, frame = 0
 420              		@ frame_needed = 0, uses_anonymous_args = 0
 421              		@ link register save eliminated.
 422              	.LVL28:
 423              		.loc 1 194 0
 424 0000 0388     		ldrh	r3, [r0, #0]
 425 0002 23B1     		cbz	r3, .L32
 426              		.loc 1 194 0 is_stmt 0 discriminator 1
 427 0004 8069     		ldr	r0, [r0, #24]
 428              	.LVL29:
 429 0006 0030     		adds	r0, r0, #0
 430 0008 18BF     		it	ne
 431 000a 0120     		movne	r0, #1
 432 000c 7047     		bx	lr
 433              	.LVL30:
 434              	.L32:
 435              		.loc 1 194 0
 436 000e 1846     		mov	r0, r3
 437              	.LVL31:
 438              		.loc 1 195 0 is_stmt 1
 439 0010 7047     		bx	lr
 440              		.cfi_endproc
 441              	.LFE128:
 442              		.size	gdispImageIsOpen, .-gdispImageIsOpen
 443 0012 00BFAFF3 		.section	.text.gdispImageSetBgColor,"ax",%progbits
 443      0080AFF3 
 443      0080AFF3 
ARM GAS  /tmp/ccBvmg99.s 			page 9


 443      0080
 444              		.align	2
 445              		.p2align 4,,15
 446              		.global	gdispImageSetBgColor
 447              		.thumb
 448              		.thumb_func
 449              		.type	gdispImageSetBgColor, %function
 450              	gdispImageSetBgColor:
 451              	.LFB129:
 452              		.loc 1 197 0
 453              		.cfi_startproc
 454              		@ args = 0, pretend = 0, frame = 0
 455              		@ frame_needed = 0, uses_anonymous_args = 0
 456              		@ link register save eliminated.
 457              	.LVL32:
 458              		.loc 1 198 0
 459 0000 8180     		strh	r1, [r0, #4]	@ movhi
 460 0002 7047     		bx	lr
 461              		.cfi_endproc
 462              	.LFE129:
 463              		.size	gdispImageSetBgColor, .-gdispImageSetBgColor
 464 0004 AFF30080 		.section	.text.gdispImageCache,"ax",%progbits
 464      AFF30080 
 464      AFF30080 
 465              		.align	2
 466              		.p2align 4,,15
 467              		.global	gdispImageCache
 468              		.thumb
 469              		.thumb_func
 470              		.type	gdispImageCache, %function
 471              	gdispImageCache:
 472              	.LFB130:
 473              		.loc 1 201 0
 474              		.cfi_startproc
 475              		@ args = 0, pretend = 0, frame = 0
 476              		@ frame_needed = 0, uses_anonymous_args = 0
 477              	.LVL33:
 478 0000 08B5     		push	{r3, lr}
 479              	.LCFI5:
 480              		.cfi_def_cfa_offset 8
 481              		.cfi_offset 3, -8
 482              		.cfi_offset 14, -4
 483              		.loc 1 202 0
 484 0002 8369     		ldr	r3, [r0, #24]
 485 0004 13B1     		cbz	r3, .L36
 486              		.loc 1 203 0
 487 0006 9968     		ldr	r1, [r3, #8]
 488 0008 8847     		blx	r1
 489              	.LVL34:
 490 000a 08BD     		pop	{r3, pc}
 491              	.LVL35:
 492              	.L36:
 493              		.loc 1 202 0
 494 000c 48F20100 		movw	r0, #32769
 495              	.LVL36:
 496              		.loc 1 204 0
 497 0010 08BD     		pop	{r3, pc}
ARM GAS  /tmp/ccBvmg99.s 			page 10


 498              		.cfi_endproc
 499              	.LFE130:
 500              		.size	gdispImageCache, .-gdispImageCache
 501 0012 00BFAFF3 		.section	.text.gdispImageDraw,"ax",%progbits
 501      0080AFF3 
 501      0080AFF3 
 501      0080
 502              		.align	2
 503              		.p2align 4,,15
 504              		.global	gdispImageDraw
 505              		.thumb
 506              		.thumb_func
 507              		.type	gdispImageDraw, %function
 508              	gdispImageDraw:
 509              	.LFB131:
 510              		.loc 1 206 0
 511              		.cfi_startproc
 512              		@ args = 12, pretend = 0, frame = 0
 513              		@ frame_needed = 0, uses_anonymous_args = 0
 514              	.LVL37:
 515 0000 30B5     		push	{r4, r5, lr}
 516              	.LCFI6:
 517              		.cfi_def_cfa_offset 12
 518              		.cfi_offset 4, -12
 519              		.cfi_offset 5, -8
 520              		.cfi_offset 14, -4
 521              		.loc 1 207 0
 522 0002 8469     		ldr	r4, [r0, #24]
 523              		.loc 1 206 0
 524 0004 85B0     		sub	sp, sp, #20
 525              	.LCFI7:
 526              		.cfi_def_cfa_offset 32
 527              		.loc 1 207 0
 528 0006 64B1     		cbz	r4, .L39
 529              		.loc 1 208 0
 530 0008 BDF92050 		ldrsh	r5, [sp, #32]
 531 000c 0095     		str	r5, [sp, #0]
 532 000e BDF92450 		ldrsh	r5, [sp, #36]
 533 0012 0195     		str	r5, [sp, #4]
 534 0014 BDF92850 		ldrsh	r5, [sp, #40]
 535 0018 0295     		str	r5, [sp, #8]
 536 001a E468     		ldr	r4, [r4, #12]
 537 001c A047     		blx	r4
 538              	.LVL38:
 539              	.L38:
 540              		.loc 1 209 0
 541 001e 05B0     		add	sp, sp, #20
 542 0020 30BD     		pop	{r4, r5, pc}
 543              	.LVL39:
 544              	.L39:
 545              		.loc 1 207 0
 546 0022 48F20100 		movw	r0, #32769
 547              	.LVL40:
 548 0026 FAE7     		b	.L38
 549              		.cfi_endproc
 550              	.LFE131:
 551              		.size	gdispImageDraw, .-gdispImageDraw
ARM GAS  /tmp/ccBvmg99.s 			page 11


 552 0028 AFF30080 		.section	.text.gdispImageNext,"ax",%progbits
 552      AFF30080 
 553              		.align	2
 554              		.p2align 4,,15
 555              		.global	gdispImageNext
 556              		.thumb
 557              		.thumb_func
 558              		.type	gdispImageNext, %function
 559              	gdispImageNext:
 560              	.LFB132:
 561              		.loc 1 211 0
 562              		.cfi_startproc
 563              		@ args = 0, pretend = 0, frame = 0
 564              		@ frame_needed = 0, uses_anonymous_args = 0
 565              	.LVL41:
 566 0000 08B5     		push	{r3, lr}
 567              	.LCFI8:
 568              		.cfi_def_cfa_offset 8
 569              		.cfi_offset 3, -8
 570              		.cfi_offset 14, -4
 571              		.loc 1 212 0
 572 0002 8369     		ldr	r3, [r0, #24]
 573 0004 13B1     		cbz	r3, .L42
 574              		.loc 1 213 0
 575 0006 1969     		ldr	r1, [r3, #16]
 576 0008 8847     		blx	r1
 577              	.LVL42:
 578 000a 08BD     		pop	{r3, pc}
 579              	.LVL43:
 580              	.L42:
 581              		.loc 1 212 0
 582 000c 48F20100 		movw	r0, #32769
 583              	.LVL44:
 584              		.loc 1 214 0
 585 0010 08BD     		pop	{r3, pc}
 586              		.cfi_endproc
 587              	.LFE132:
 588              		.size	gdispImageNext, .-gdispImageNext
 589 0012 00BFAFF3 		.section	.text.gdispImageAlloc,"ax",%progbits
 589      0080AFF3 
 589      0080AFF3 
 589      0080
 590              		.align	2
 591              		.p2align 4,,15
 592              		.global	gdispImageAlloc
 593              		.thumb
 594              		.thumb_func
 595              		.type	gdispImageAlloc, %function
 596              	gdispImageAlloc:
 597              	.LFB133:
 598              		.loc 1 217 0
 599              		.cfi_startproc
 600              		@ args = 0, pretend = 0, frame = 0
 601              		@ frame_needed = 0, uses_anonymous_args = 0
 602              		@ link register save eliminated.
 603              	.LVL45:
 604              		.loc 1 230 0
ARM GAS  /tmp/ccBvmg99.s 			page 12


 605 0000 0020     		movs	r0, #0
 606              	.LVL46:
 607              		.loc 1 232 0
 608              		.loc 1 230 0
 609 0002 FFF7FEBF 		b	chHeapAlloc
 610              	.LVL47:
 611              		.cfi_endproc
 612              	.LFE133:
 613              		.size	gdispImageAlloc, .-gdispImageAlloc
 614 0006 00BFAFF3 		.section	.text.gdispImageFree,"ax",%progbits
 614      0080AFF3 
 614      0080
 615              		.align	2
 616              		.p2align 4,,15
 617              		.global	gdispImageFree
 618              		.thumb
 619              		.thumb_func
 620              		.type	gdispImageFree, %function
 621              	gdispImageFree:
 622              	.LFB134:
 623              		.loc 1 234 0
 624              		.cfi_startproc
 625              		@ args = 0, pretend = 0, frame = 0
 626              		@ frame_needed = 0, uses_anonymous_args = 0
 627              		@ link register save eliminated.
 628              	.LVL48:
 629              		.loc 1 241 0
 630 0000 0846     		mov	r0, r1
 631              	.LVL49:
 632              		.loc 1 243 0
 633              		.loc 1 241 0
 634 0002 FFF7FEBF 		b	chHeapFree
 635              	.LVL50:
 636              		.cfi_endproc
 637              	.LFE134:
 638              		.size	gdispImageFree, .-gdispImageFree
 639 0006 00BFAFF3 		.section	.rodata.ImageMemoryFunctions,"a",%progbits
 639      0080AFF3 
 639      0080
 640              		.align	2
 641              		.set	.LANCHOR0,. + 0
 642              		.type	ImageMemoryFunctions, %object
 643              		.size	ImageMemoryFunctions, 12
 644              	ImageMemoryFunctions:
 645 0000 00000000 		.word	ImageMemoryRead
 646 0004 00000000 		.word	ImageMemorySeek
 647 0008 00000000 		.word	ImageMemoryClose
 648              		.section	.rodata.ImageBaseFileStreamFunctions,"a",%progbits
 649              		.align	2
 650              		.set	.LANCHOR1,. + 0
 651              		.type	ImageBaseFileStreamFunctions, %object
 652              		.size	ImageBaseFileStreamFunctions, 12
 653              	ImageBaseFileStreamFunctions:
 654 0000 00000000 		.word	ImageBaseFileStreamRead
 655 0004 00000000 		.word	ImageBaseFileStreamSeek
 656 0008 00000000 		.word	ImageBaseFileStreamClose
 657              		.text
ARM GAS  /tmp/ccBvmg99.s 			page 13


 658              	.Letext0:
 659              		.file 2 "/usr/bin/../lib/gcc/arm-none-eabi/4.7.4/include/stddef.h"
 660              		.file 3 "/usr/bin/../lib/gcc/arm-none-eabi/4.7.4/../../../../arm-none-eabi/include/stdint.h"
 661              		.file 4 "../../os/ports/GCC/ARMCMx/chtypes.h"
 662              		.file 5 "../../os/kernel/include/chlists.h"
 663              		.file 6 "../../os/kernel/include/chthreads.h"
 664              		.file 7 "../../os/ports/GCC/ARMCMx/chcore_v7m.h"
 665              		.file 8 "../../os/kernel/include/chmtx.h"
 666              		.file 9 "../../os/kernel/include/chmemcore.h"
 667              		.file 10 "../../os/kernel/include/chheap.h"
 668              		.file 11 "../../os/kernel/include/chfiles.h"
 669              		.file 12 "../../ext/ugfx/include/gos/chibios.h"
 670              		.file 13 "../../ext/ugfx/include/gdisp/gdisp.h"
 671              		.file 14 "../../ext/ugfx/include/gdisp/image.h"
 672              		.file 15 "<built-in>"
 673              		.file 16 "../../os/ports/common/ARMCMx/CMSIS/include/core_cm4.h"