ARM GAS  /tmp/cc5W1m75.s 			page 1


   1              		.syntax unified
   2              		.cpu cortex-m4
   3              		.eabi_attribute 27, 3
   4              		.eabi_attribute 28, 1
   5              		.fpu fpv4-sp-d16
   6              		.eabi_attribute 20, 1
   7              		.eabi_attribute 21, 1
   8              		.eabi_attribute 23, 3
   9              		.eabi_attribute 24, 1
  10              		.eabi_attribute 25, 1
  11              		.eabi_attribute 26, 1
  12              		.eabi_attribute 30, 2
  13              		.eabi_attribute 34, 1
  14              		.eabi_attribute 18, 4
  15              		.thumb
  16              		.file	"list.c"
  17              		.text
  18              	.Ltext0:
  19              		.cfi_sections	.debug_frame
  20              		.section	.text.MouseDown,"ax",%progbits
  21              		.align	2
  22              		.p2align 4,,15
  23              		.thumb
  24              		.thumb_func
  25              		.type	MouseDown, %function
  26              	MouseDown:
  27              	.LFB120:
  28              		.file 1 "../../ext/ugfx/src/gwin/list.c"
  29              		.loc 1 155 0
  30              		.cfi_startproc
  31              		@ args = 0, pretend = 0, frame = 0
  32              		@ frame_needed = 0, uses_anonymous_args = 0
  33              	.LVL0:
  34 0000 2DE9F041 		push	{r4, r5, r6, r7, r8, lr}
  35              	.LCFI0:
  36              		.cfi_def_cfa_offset 24
  37              		.cfi_offset 4, -24
  38              		.cfi_offset 5, -20
  39              		.cfi_offset 6, -16
  40              		.cfi_offset 7, -12
  41              		.cfi_offset 8, -8
  42              		.cfi_offset 14, -4
  43              		.loc 1 155 0
  44 0004 0546     		mov	r5, r0
  45 0006 8846     		mov	r8, r1
  46              		.loc 1 161 0
  47 0008 8069     		ldr	r0, [r0, #24]
  48              	.LVL1:
  49 000a 0021     		movs	r1, #0
  50              	.LVL2:
  51              		.loc 1 155 0
  52 000c 1646     		mov	r6, r2
  53              		.loc 1 161 0
  54 000e FFF7FEFF 		bl	gdispGetFontMetric
  55              	.LVL3:
  56              		.loc 1 162 0
  57 0012 B5F90E70 		ldrsh	r7, [r5, #14]
ARM GAS  /tmp/cc5W1m75.s 			page 2


  58              		.loc 1 166 0
  59 0016 EC6A     		ldr	r4, [r5, #44]
  60              		.loc 1 161 0
  61 0018 0130     		adds	r0, r0, #1
  62              	.LVL4:
  63              		.loc 1 162 0
  64 001a BA1E     		subs	r2, r7, #2
  65 001c 03B2     		sxth	r3, r0
  66 001e 92FBF3F0 		sdiv	r0, r2, r3
  67              	.LVL5:
  68              		.loc 1 163 0
  69 0022 0128     		cmp	r0, #1
  70 0024 B8BF     		it	lt
  71 0026 0120     		movlt	r0, #1
  72              	.LVL6:
  73              		.loc 1 166 0
  74 0028 A042     		cmp	r0, r4
  75 002a 04DA     		bge	.L3
  76              		.loc 1 166 0 is_stmt 0 discriminator 1
  77 002c B5F90C10 		ldrsh	r1, [r5, #12]
  78 0030 1239     		subs	r1, r1, #18
  79 0032 8845     		cmp	r8, r1
  80 0034 2CDA     		bge	.L32
  81              	.L3:
  82              		.loc 1 198 0 is_stmt 1
  83 0036 2A6B     		ldr	r2, [r5, #48]
  84              	.LVL7:
  85 0038 96FBF3F6 		sdiv	r6, r6, r3
  86              	.LVL8:
  87              		.loc 1 200 0
  88 003c B618     		adds	r6, r6, r2
  89              	.LVL9:
  90 003e 31D4     		bmi	.L1
  91              		.loc 1 200 0 is_stmt 0 discriminator 1
  92 0040 B442     		cmp	r4, r6
  93 0042 2FDD     		ble	.L1
  94              		.loc 1 203 0 is_stmt 1
  95 0044 6B6B     		ldr	r3, [r5, #52]
  96              	.LVL10:
  97 0046 5BB1     		cbz	r3, .L14
  98 0048 AC8A     		ldrh	r4, [r5, #20]
  99 004a 04F48057 		and	r7, r4, #4096
 100 004e BAB2     		uxth	r2, r7
 101 0050 0021     		movs	r1, #0
 102              	.LVL11:
 103              	.L18:
 104              		.loc 1 204 0
 105 0052 4AB3     		cbz	r2, .L15
 106              		.loc 1 205 0
 107 0054 8E42     		cmp	r6, r1
 108 0056 3AD0     		beq	.L33
 109              	.L16:
 110              		.loc 1 203 0
 111 0058 1B68     		ldr	r3, [r3, #0]
 112              	.LVL12:
 113 005a 0131     		adds	r1, r1, #1
 114              	.LVL13:
ARM GAS  /tmp/cc5W1m75.s 			page 3


 115 005c 002B     		cmp	r3, #0
 116 005e F8D1     		bne	.L18
 117              	.LVL14:
 118              	.L14:
 119              		.loc 1 217 0
 120 0060 2846     		mov	r0, r5
 121 0062 FFF7FEFF 		bl	_gwidgetRedraw
 122              	.LVL15:
 123              		.loc 1 60 0
 124 0066 0024     		movs	r4, #0
 125              	.LBB4:
 126              	.LBB5:
 127              		.loc 1 66 0
 128 0068 4FF40177 		mov	r7, #516
 129              	.LVL16:
 130              	.L30:
 131              		.loc 1 62 0
 132 006c 2146     		mov	r1, r4
 133 006e 2D48     		ldr	r0, .L37
 134 0070 FFF7FEFF 		bl	geventGetSourceListener
 135              	.LVL17:
 136 0074 0446     		mov	r4, r0
 137 0076 A8B1     		cbz	r0, .L1
 138              		.loc 1 63 0
 139 0078 FFF7FEFF 		bl	geventGetEventBuffer
 140              	.LVL18:
 141 007c 0246     		mov	r2, r0
 142              		.loc 1 70 0
 143 007e 2046     		mov	r0, r4
 144              	.LVL19:
 145              		.loc 1 63 0
 146 0080 002A     		cmp	r2, #0
 147 0082 F3D0     		beq	.L30
 148              		.loc 1 66 0
 149 0084 1780     		strh	r7, [r2, #0]	@ movhi
 150              		.loc 1 67 0
 151 0086 5560     		str	r5, [r2, #4]
 152              		.loc 1 68 0
 153 0088 9660     		str	r6, [r2, #8]
 154              		.loc 1 70 0
 155 008a FFF7FEFF 		bl	geventSendEvent
 156              	.LVL20:
 157 008e EDE7     		b	.L30
 158              	.LVL21:
 159              	.L32:
 160              	.LBE5:
 161              	.LBE4:
 162              		.loc 1 167 0
 163 0090 132E     		cmp	r6, #19
 164 0092 12DD     		ble	.L34
 165              		.loc 1 172 0
 166 0094 A7F11403 		sub	r3, r7, #20
 167              	.LVL22:
 168 0098 9E42     		cmp	r6, r3
 169 009a 1DDB     		blt	.L7
 170              		.loc 1 173 0
 171 009c 2B6B     		ldr	r3, [r5, #48]
ARM GAS  /tmp/cc5W1m75.s 			page 4


 172 009e 201A     		subs	r0, r4, r0
 173 00a0 8342     		cmp	r3, r0
 174 00a2 37DB     		blt	.L35
 175              	.L1:
 176 00a4 BDE8F081 		pop	{r4, r5, r6, r7, r8, pc}
 177              	.LVL23:
 178              	.L15:
 179              		.loc 1 211 0
 180 00a8 9888     		ldrh	r0, [r3, #4]
 181              		.loc 1 210 0
 182 00aa 8E42     		cmp	r6, r1
 183              		.loc 1 211 0
 184 00ac 0CBF     		ite	eq
 185 00ae 40F00100 		orreq	r0, r0, #1
 186              		.loc 1 213 0
 187 00b2 20F00100 		bicne	r0, r0, #1
 188 00b6 9880     		strh	r0, [r3, #4]	@ movhi
 189 00b8 CEE7     		b	.L16
 190              	.LVL24:
 191              	.L34:
 192              		.loc 1 168 0
 193 00ba 296B     		ldr	r1, [r5, #48]
 194 00bc 0029     		cmp	r1, #0
 195 00be F1DD     		ble	.L1
 196              		.loc 1 169 0
 197 00c0 4B1E     		subs	r3, r1, #1
 198              	.LVL25:
 199              		.loc 1 170 0
 200 00c2 2846     		mov	r0, r5
 201              		.loc 1 169 0
 202 00c4 2B63     		str	r3, [r5, #48]
 203              		.loc 1 219 0
 204 00c6 BDE8F041 		pop	{r4, r5, r6, r7, r8, lr}
 205              		.loc 1 170 0
 206 00ca FFF7FEBF 		b	_gwidgetRedraw
 207              	.LVL26:
 208              	.L33:
 209              		.loc 1 206 0
 210 00ce 9C88     		ldrh	r4, [r3, #4]
 211 00d0 84F00107 		eor	r7, r4, #1
 212 00d4 9F80     		strh	r7, [r3, #4]	@ movhi
 213              		.loc 1 207 0
 214 00d6 C3E7     		b	.L14
 215              	.LVL27:
 216              	.L7:
 217              		.loc 1 177 0
 218 00d8 07EBD777 		add	r7, r7, r7, lsr #31
 219 00dc B6EB670F 		cmp	r6, r7, asr #1
 220              		.loc 1 178 0
 221 00e0 2A6B     		ldr	r2, [r5, #48]
 222              		.loc 1 177 0
 223 00e2 0EDB     		blt	.L36
 224              		.loc 1 186 0
 225 00e4 211A     		subs	r1, r4, r0
 226 00e6 8A42     		cmp	r2, r1
 227 00e8 DCDA     		bge	.L1
 228              		.loc 1 187 0
ARM GAS  /tmp/cc5W1m75.s 			page 5


 229 00ea A4EB4004 		sub	r4, r4, r0, lsl #1
 230 00ee A242     		cmp	r2, r4
 231              		.loc 1 188 0
 232 00f0 BABF     		itte	lt
 233 00f2 8218     		addlt	r2, r0, r2
 234 00f4 2A63     		strlt	r2, [r5, #48]
 235              		.loc 1 190 0
 236 00f6 2963     		strge	r1, [r5, #48]
 237              	.L11:
 238              		.loc 1 183 0
 239 00f8 2846     		mov	r0, r5
 240              		.loc 1 219 0
 241 00fa BDE8F041 		pop	{r4, r5, r6, r7, r8, lr}
 242              		.loc 1 183 0
 243 00fe FFF7FEBF 		b	_gwidgetRedraw
 244              	.LVL28:
 245              	.L36:
 246              		.loc 1 178 0
 247 0102 002A     		cmp	r2, #0
 248 0104 CEDD     		ble	.L1
 249              		.loc 1 179 0
 250 0106 9042     		cmp	r0, r2
 251              		.loc 1 180 0
 252 0108 B4BF     		ite	lt
 253 010a C0EB0202 		rsblt	r2, r0, r2
 254              		.loc 1 182 0
 255 010e 0022     		movge	r2, #0
 256 0110 2A63     		str	r2, [r5, #48]
 257 0112 F1E7     		b	.L11
 258              	.L35:
 259              		.loc 1 174 0
 260 0114 5A1C     		adds	r2, r3, #1
 261              		.loc 1 175 0
 262 0116 2846     		mov	r0, r5
 263              		.loc 1 174 0
 264 0118 2A63     		str	r2, [r5, #48]
 265              		.loc 1 219 0
 266 011a BDE8F041 		pop	{r4, r5, r6, r7, r8, lr}
 267              		.loc 1 175 0
 268 011e FFF7FEBF 		b	_gwidgetRedraw
 269              	.LVL29:
 270              	.L38:
 271 0122 00BF     		.align	2
 272              	.L37:
 273 0124 00000000 		.word	_gwidgetCreate
 274              		.cfi_endproc
 275              	.LFE120:
 276              		.size	MouseDown, .-MouseDown
 277 0128 AFF30080 		.section	.text.gwinListDefaultDraw,"ax",%progbits
 277      AFF30080 
 278              		.align	2
 279              		.p2align 4,,15
 280              		.thumb
 281              		.thumb_func
 282              		.type	gwinListDefaultDraw, %function
 283              	gwinListDefaultDraw:
 284              	.LFB119:
ARM GAS  /tmp/cc5W1m75.s 			page 6


 285              		.loc 1 74 0
 286              		.cfi_startproc
 287              		@ args = 0, pretend = 0, frame = 32
 288              		@ frame_needed = 0, uses_anonymous_args = 0
 289              	.LVL30:
 290 0000 2DE9F04F 		push	{r4, r5, r6, r7, r8, r9, sl, fp, lr}
 291              	.LCFI1:
 292              		.cfi_def_cfa_offset 36
 293              		.cfi_offset 4, -36
 294              		.cfi_offset 5, -32
 295              		.cfi_offset 6, -28
 296              		.cfi_offset 7, -24
 297              		.cfi_offset 8, -20
 298              		.cfi_offset 9, -16
 299              		.cfi_offset 10, -12
 300              		.cfi_offset 11, -8
 301              		.cfi_offset 14, -4
 302              		.loc 1 91 0
 303 0004 838A     		ldrh	r3, [r0, #20]
 304              		.loc 1 74 0
 305 0006 0546     		mov	r5, r0
 306              		.loc 1 91 0
 307 0008 03F01000 		and	r0, r3, #16
 308              	.LVL31:
 309 000c 81B2     		uxth	r1, r0
 310              	.LVL32:
 311              		.loc 1 74 0
 312 000e 8FB0     		sub	sp, sp, #60
 313              	.LCFI2:
 314              		.cfi_def_cfa_offset 96
 315              		.loc 1 91 0
 316 0010 0029     		cmp	r1, #0
 317 0012 00F00481 		beq	.L40
 318              		.loc 1 91 0 is_stmt 0 discriminator 1
 319 0016 AC6A     		ldr	r4, [r5, #40]
 320 0018 04F10209 		add	r9, r4, #2
 321              	.L41:
 322              	.LVL33:
 323              		.loc 1 92 0 is_stmt 1 discriminator 3
 324 001c 0021     		movs	r1, #0
 325 001e A869     		ldr	r0, [r5, #24]
 326 0020 FFF7FEFF 		bl	gdispGetFontMetric
 327              	.LVL34:
 328              		.loc 1 96 0 discriminator 3
 329 0024 B5F80E80 		ldrh	r8, [r5, #14]
 330              		.loc 1 92 0 discriminator 3
 331 0028 0A90     		str	r0, [sp, #40]
 332 002a 1FFA80FA 		uxth	sl, r0
 333 002e 0AF1010B 		add	fp, sl, #1
 334 0032 1FFA8BFB 		uxth	fp, fp
 335              	.LVL35:
 336              		.loc 1 96 0 discriminator 3
 337 0036 0FFA88F3 		sxth	r3, r8
 338 003a 981E     		subs	r0, r3, #2
 339 003c EE6A     		ldr	r6, [r5, #44]
 340 003e 0FFA8BF7 		sxth	r7, fp
 341 0042 90FBF7F1 		sdiv	r1, r0, r7
ARM GAS  /tmp/cc5W1m75.s 			page 7


 342 0046 8E42     		cmp	r6, r1
 343 0048 00F3ED80 		bgt	.L91
 344              		.loc 1 109 0
 345 004c AA89     		ldrh	r2, [r5, #12]
 346 004e 941E     		subs	r4, r2, #2
 347 0050 A6B2     		uxth	r6, r4
 348 0052 0C96     		str	r6, [sp, #48]
 349              	.LVL36:
 350              	.L43:
 351              		.loc 1 112 0
 352 0054 AA8A     		ldrh	r2, [r5, #20]
 353 0056 12F40052 		ands	r2, r2, #8192
 354 005a 00F0DE80 		beq	.L61
 355              		.loc 1 114 0
 356 005e 0C99     		ldr	r1, [sp, #48]
 357              		.loc 1 113 0
 358 0060 0AF10206 		add	r6, sl, #2
 359              		.loc 1 114 0
 360 0064 CBEB0104 		rsb	r4, fp, r1
 361              		.loc 1 113 0
 362 0068 B0B2     		uxth	r0, r6
 363              	.LVL37:
 364              		.loc 1 114 0
 365 006a A6B2     		uxth	r6, r4
 366              	.LVL38:
 367 006c 0C96     		str	r6, [sp, #48]
 368              	.LVL39:
 369              	.L44:
 370              		.loc 1 120 0
 371 006e 2E6B     		ldr	r6, [r5, #48]
 372 0070 6C6B     		ldr	r4, [r5, #52]
 373              	.LVL40:
 374 0072 002E     		cmp	r6, #0
 375 0074 3ADD     		ble	.L45
 376 0076 3CB1     		cbz	r4, .L46
 377 0078 0021     		movs	r1, #0
 378 007a 16F0010F 		tst	r6, #1
 379 007e 31D1     		bne	.L50
 380 0080 2468     		ldr	r4, [r4, #0]
 381              	.LVL41:
 382 0082 0121     		movs	r1, #1
 383              	.LVL42:
 384 0084 002C     		cmp	r4, #0
 385 0086 2DD1     		bne	.L50
 386              	.LVL43:
 387              	.L46:
 388              		.loc 1 123 0
 389 0088 0122     		movs	r2, #1
 390 008a 013B     		subs	r3, r3, #1
 391 008c 1646     		mov	r6, r2
 392              	.LVL44:
 393              	.L48:
 394              		.loc 1 146 0
 395 008e 9A42     		cmp	r2, r3
 396 0090 12DA     		bge	.L60
 397              		.loc 1 147 0
 398 0092 AC6A     		ldr	r4, [r5, #40]
ARM GAS  /tmp/cc5W1m75.s 			page 8


 399 0094 2889     		ldrh	r0, [r5, #8]
 400 0096 2288     		ldrh	r2, [r4, #0]
 401 0098 6989     		ldrh	r1, [r5, #10]
 402 009a 0092     		str	r2, [sp, #0]
 403 009c B6B2     		uxth	r6, r6
 404 009e 08F1FF38 		add	r8, r8, #-1
 405 00a2 0C9A     		ldr	r2, [sp, #48]
 406 00a4 431C     		adds	r3, r0, #1
 407 00a6 7418     		adds	r4, r6, r1
 408 00a8 C6EB0806 		rsb	r6, r6, r8
 409 00ac 18B2     		sxth	r0, r3
 410 00ae 21B2     		sxth	r1, r4
 411 00b0 12B2     		sxth	r2, r2
 412 00b2 33B2     		sxth	r3, r6
 413 00b4 FFF7FEFF 		bl	gdispFillArea
 414              	.LVL45:
 415              	.L60:
 416              		.loc 1 150 0
 417 00b8 B9F80240 		ldrh	r4, [r9, #2]
 418 00bc B5F90800 		ldrsh	r0, [r5, #8]
 419 00c0 B5F90A10 		ldrsh	r1, [r5, #10]
 420 00c4 B5F90C20 		ldrsh	r2, [r5, #12]
 421 00c8 B5F90E30 		ldrsh	r3, [r5, #14]
 422 00cc 0094     		str	r4, [sp, #0]
 423 00ce FFF7FEFF 		bl	gdispDrawBox
 424              	.LVL46:
 425              		.loc 1 151 0
 426 00d2 0FB0     		add	sp, sp, #60
 427 00d4 BDE8F08F 		pop	{r4, r5, r6, r7, r8, r9, sl, fp, pc}
 428              	.LVL47:
 429              	.L47:
 430              		.loc 1 120 0 discriminator 2
 431 00d8 002C     		cmp	r4, #0
 432 00da D5D0     		beq	.L46
 433              		.loc 1 120 0 is_stmt 0
 434 00dc 2468     		ldr	r4, [r4, #0]
 435              	.LVL48:
 436 00de 0131     		adds	r1, r1, #1
 437              	.LVL49:
 438 00e0 002C     		cmp	r4, #0
 439 00e2 D1D0     		beq	.L46
 440              	.LVL50:
 441              	.L50:
 442              		.loc 1 120 0 discriminator 1
 443 00e4 0131     		adds	r1, r1, #1
 444 00e6 B142     		cmp	r1, r6
 445 00e8 2468     		ldr	r4, [r4, #0]
 446              	.LVL51:
 447 00ea F5D1     		bne	.L47
 448              	.LVL52:
 449              	.L45:
 450              		.loc 1 123 0 is_stmt 1 discriminator 1
 451 00ec 013B     		subs	r3, r3, #1
 452 00ee 7E1C     		adds	r6, r7, #1
 453 00f0 B342     		cmp	r3, r6
 454 00f2 40F3F080 		ble	.L62
 455              		.loc 1 123 0 is_stmt 0
ARM GAS  /tmp/cc5W1m75.s 			page 9


 456 00f6 002C     		cmp	r4, #0
 457 00f8 00F0ED80 		beq	.L62
 458 00fc 83B2     		uxth	r3, r0
 459              		.loc 1 133 0 is_stmt 1
 460 00fe 781E     		subs	r0, r7, #1
 461              	.LVL53:
 462 0100 4100     		lsls	r1, r0, #1
 463 0102 0C98     		ldr	r0, [sp, #48]
 464 0104 0793     		str	r3, [sp, #28]
 465              		.loc 1 128 0
 466 0106 013B     		subs	r3, r3, #1
 467              		.loc 1 133 0
 468 0108 8EB2     		uxth	r6, r1
 469              		.loc 1 128 0
 470 010a 1BB2     		sxth	r3, r3
 471 010c 01B2     		sxth	r1, r0
 472              		.loc 1 133 0
 473 010e 0D96     		str	r6, [sp, #52]
 474 0110 0891     		str	r1, [sp, #32]
 475 0112 0126     		movs	r6, #1
 476              		.loc 1 128 0
 477 0114 0B93     		str	r3, [sp, #44]
 478              		.loc 1 138 0
 479 0116 CDF824B0 		str	fp, [sp, #36]
 480 011a 2AE0     		b	.L59
 481              	.LVL54:
 482              	.L92:
 483 011c 1FFA86F8 		uxth	r8, r6
 484              	.L54:
 485              		.loc 1 142 0
 486 0120 A368     		ldr	r3, [r4, #8]
 487 0122 A969     		ldr	r1, [r5, #24]
 488 0124 6A89     		ldrh	r2, [r5, #10]
 489 0126 2889     		ldrh	r0, [r5, #8]
 490 0128 0191     		str	r1, [sp, #4]
 491 012a 0093     		str	r3, [sp, #0]
 492 012c 0799     		ldr	r1, [sp, #28]
 493 012e B9F80030 		ldrh	r3, [r9, #0]
 494 0132 CDF80CB0 		str	fp, [sp, #12]
 495 0136 0818     		adds	r0, r1, r0
 496 0138 08EB0201 		add	r1, r8, r2
 497 013c 0022     		movs	r2, #0
 498 013e 0293     		str	r3, [sp, #8]
 499 0140 0492     		str	r2, [sp, #16]
 500 0142 00B2     		sxth	r0, r0
 501 0144 09B2     		sxth	r1, r1
 502 0146 089A     		ldr	r2, [sp, #32]
 503 0148 3B46     		mov	r3, r7
 504 014a FFF7FEFF 		bl	gdispFillStringBox
 505              	.LVL55:
 506              		.loc 1 74 0
 507 014e 099B     		ldr	r3, [sp, #36]
 508              		.loc 1 123 0
 509 0150 B5F80E80 		ldrh	r8, [r5, #14]
 510 0154 2468     		ldr	r4, [r4, #0]
 511              	.LVL56:
 512              		.loc 1 74 0
ARM GAS  /tmp/cc5W1m75.s 			page 10


 513 0156 9E19     		adds	r6, r3, r6
 514 0158 B6B2     		uxth	r6, r6
 515              	.LVL57:
 516              		.loc 1 123 0
 517 015a 32B2     		sxth	r2, r6
 518 015c 0FFA88F0 		sxth	r0, r8
 519 0160 431E     		subs	r3, r0, #1
 520 0162 B918     		adds	r1, r7, r2
 521 0164 9942     		cmp	r1, r3
 522 0166 92DA     		bge	.L48
 523              		.loc 1 123 0 is_stmt 0 discriminator 2
 524 0168 002C     		cmp	r4, #0
 525 016a 90D0     		beq	.L48
 526 016c AA8A     		ldrh	r2, [r5, #20]
 527 016e 02F40052 		and	r2, r2, #8192
 528              	.LVL58:
 529              	.L59:
 530              		.loc 1 124 0 is_stmt 1
 531 0172 A088     		ldrh	r0, [r4, #4]
 532 0174 C107     		lsls	r1, r0, #31
 533 0176 56BF     		itet	pl
 534 0178 A96A     		ldrpl	r1, [r5, #40]
 535 017a B9F804B0 		ldrhmi	fp, [r9, #4]
 536 017e B1F800B0 		ldrhpl	fp, [r1, #0]
 537              	.LVL59:
 538              		.loc 1 126 0
 539 0182 002A     		cmp	r2, #0
 540 0184 CAD0     		beq	.L92
 541              		.loc 1 128 0
 542 0186 2A89     		ldrh	r2, [r5, #8]
 543 0188 6B89     		ldrh	r3, [r5, #10]
 544 018a CDF800B0 		str	fp, [sp, #0]
 545 018e 1FFA86F8 		uxth	r8, r6
 546 0192 501C     		adds	r0, r2, #1
 547 0194 08EB0301 		add	r1, r8, r3
 548 0198 00B2     		sxth	r0, r0
 549 019a 09B2     		sxth	r1, r1
 550 019c 0B9A     		ldr	r2, [sp, #44]
 551 019e 3B46     		mov	r3, r7
 552 01a0 FFF7FEFF 		bl	gdispFillArea
 553              	.LVL60:
 554              		.loc 1 129 0
 555 01a4 E068     		ldr	r0, [r4, #12]
 556 01a6 0028     		cmp	r0, #0
 557 01a8 BAD0     		beq	.L54
 558              		.loc 1 129 0 is_stmt 0 discriminator 1
 559 01aa FFF7FEFF 		bl	gdispImageIsOpen
 560              	.LVL61:
 561 01ae 0028     		cmp	r0, #0
 562 01b0 B6D0     		beq	.L54
 563              		.loc 1 131 0 is_stmt 1
 564 01b2 A388     		ldrh	r3, [r4, #4]
 565              		.loc 1 132 0
 566 01b4 AA8A     		ldrh	r2, [r5, #20]
 567              		.loc 1 131 0
 568 01b6 13F0010F 		tst	r3, #1
 569              		.loc 1 132 0
ARM GAS  /tmp/cc5W1m75.s 			page 11


 570 01ba 02F01000 		and	r0, r2, #16
 571              		.loc 1 131 0
 572 01be 0A9B     		ldr	r3, [sp, #40]
 573              		.loc 1 132 0
 574 01c0 81B2     		uxth	r1, r0
 575              		.loc 1 131 0
 576 01c2 18BF     		it	ne
 577 01c4 0023     		movne	r3, #0
 578              	.LVL62:
 579              		.loc 1 132 0
 580 01c6 11B9     		cbnz	r1, .L56
 581              		.loc 1 133 0
 582 01c8 0D9A     		ldr	r2, [sp, #52]
 583 01ca D318     		adds	r3, r2, r3
 584              	.LVL63:
 585 01cc 9BB2     		uxth	r3, r3
 586              	.LVL64:
 587              	.L56:
 588              		.loc 1 134 0 discriminator 1
 589 01ce E068     		ldr	r0, [r4, #12]
 590 01d0 B0F90810 		ldrsh	r1, [r0, #8]
 591 01d4 1AB2     		sxth	r2, r3
 592 01d6 8A42     		cmp	r2, r1
 593 01d8 07DD     		ble	.L57
 594              	.LVL65:
 595              	.L72:
 596              		.loc 1 74 0
 597 01da CAEB0302 		rsb	r2, sl, r3
 598 01de 93B2     		uxth	r3, r2
 599              		.loc 1 134 0
 600 01e0 1AB2     		sxth	r2, r3
 601 01e2 8A42     		cmp	r2, r1
 602              		.loc 1 74 0
 603 01e4 9BB2     		uxth	r3, r3
 604              	.LVL66:
 605              		.loc 1 134 0
 606 01e6 F8DC     		bgt	.L72
 607 01e8 1AB2     		sxth	r2, r3
 608              	.LVL67:
 609              	.L57:
 610              		.loc 1 137 0
 611 01ea 5946     		mov	r1, fp
 612 01ec 0692     		str	r2, [sp, #24]
 613 01ee FFF7FEFF 		bl	gdispImageSetBgColor
 614              	.LVL68:
 615              		.loc 1 138 0
 616 01f2 0A9B     		ldr	r3, [sp, #40]
 617 01f4 2989     		ldrh	r1, [r5, #8]
 618 01f6 B5F80AE0 		ldrh	lr, [r5, #10]
 619 01fa E068     		ldr	r0, [r4, #12]
 620 01fc 0093     		str	r3, [sp, #0]
 621 01fe 069B     		ldr	r3, [sp, #24]
 622 0200 0022     		movs	r2, #0
 623 0202 0131     		adds	r1, r1, #1
 624 0204 08EB0E0C 		add	ip, r8, lr
 625 0208 0192     		str	r2, [sp, #4]
 626 020a 0293     		str	r3, [sp, #8]
ARM GAS  /tmp/cc5W1m75.s 			page 12


 627 020c 09B2     		sxth	r1, r1
 628 020e 0FFA8CF2 		sxth	r2, ip
 629 0212 0A9B     		ldr	r3, [sp, #40]
 630 0214 FFF7FEFF 		bl	gdispImageDraw
 631              	.LVL69:
 632 0218 82E7     		b	.L54
 633              	.LVL70:
 634              	.L61:
 635              		.loc 1 93 0
 636 021a 0120     		movs	r0, #1
 637 021c 27E7     		b	.L44
 638              	.LVL71:
 639              	.L40:
 640              		.loc 1 91 0 discriminator 2
 641 021e AA6A     		ldr	r2, [r5, #40]
 642 0220 02F10A09 		add	r9, r2, #10
 643 0224 FAE6     		b	.L41
 644              	.LVL72:
 645              	.L91:
 646              		.loc 1 97 0
 647 0226 AA89     		ldrh	r2, [r5, #12]
 648              		.loc 1 98 0
 649 0228 2E89     		ldrh	r6, [r5, #8]
 650 022a B5F80AC0 		ldrh	ip, [r5, #10]
 651 022e AB6A     		ldr	r3, [r5, #40]
 652 0230 B9F80400 		ldrh	r0, [r9, #4]
 653 0234 1988     		ldrh	r1, [r3, #0]
 654              		.loc 1 97 0
 655 0236 133A     		subs	r2, r2, #19
 656 0238 94B2     		uxth	r4, r2
 657              		.loc 1 98 0
 658 023a 0CF1010E 		add	lr, ip, #1
 659 023e B21C     		adds	r2, r6, #2
 660 0240 1FFA8EFC 		uxth	ip, lr
 661 0244 A618     		adds	r6, r4, r2
 662 0246 8022     		movs	r2, #128
 663 0248 CDF818C0 		str	ip, [sp, #24]
 664 024c FFF7FEFF 		bl	gdispBlendColor
 665              	.LVL73:
 666 0250 A8F10203 		sub	r3, r8, #2
 667 0254 DDF81880 		ldr	r8, [sp, #24]
 668 0258 0090     		str	r0, [sp, #0]
 669 025a B6B2     		uxth	r6, r6
 670 025c 0FFA88F1 		sxth	r1, r8
 671 0260 30B2     		sxth	r0, r6
 672 0262 1022     		movs	r2, #16
 673 0264 1BB2     		sxth	r3, r3
 674 0266 FFF7FEFF 		bl	gdispFillArea
 675              	.LVL74:
 676              		.loc 1 99 0
 677 026a 2889     		ldrh	r0, [r5, #8]
 678 026c 6989     		ldrh	r1, [r5, #10]
 679 026e EA89     		ldrh	r2, [r5, #14]
 680 0270 B9F80260 		ldrh	r6, [r9, #2]
 681 0274 431C     		adds	r3, r0, #1
 682 0276 E018     		adds	r0, r4, r3
 683 0278 8A18     		adds	r2, r1, r2
ARM GAS  /tmp/cc5W1m75.s 			page 13


 684 027a 00B2     		sxth	r0, r0
 685 027c 931E     		subs	r3, r2, #2
 686 027e 0131     		adds	r1, r1, #1
 687 0280 0246     		mov	r2, r0
 688 0282 09B2     		sxth	r1, r1
 689 0284 1BB2     		sxth	r3, r3
 690 0286 0096     		str	r6, [sp, #0]
 691 0288 FFF7FEFF 		bl	gdispDrawLine
 692              	.LVL75:
 693              		.loc 1 101 0
 694 028c 2E89     		ldrh	r6, [r5, #8]
 695 028e 6989     		ldrh	r1, [r5, #10]
 696 0290 B9F80400 		ldrh	r0, [r9, #4]
 697 0294 114A     		ldr	r2, .L93
 698 0296 0090     		str	r0, [sp, #0]
 699 0298 731D     		adds	r3, r6, #5
 700 029a E618     		adds	r6, r4, r3
 701 029c 0631     		adds	r1, r1, #6
 702 029e 30B2     		sxth	r0, r6
 703 02a0 09B2     		sxth	r1, r1
 704 02a2 0323     		movs	r3, #3
 705 02a4 FFF7FEFF 		bl	gdispFillConvexPoly
 706              	.LVL76:
 707              		.loc 1 102 0
 708 02a8 EB89     		ldrh	r3, [r5, #14]
 709 02aa 2889     		ldrh	r0, [r5, #8]
 710 02ac 6989     		ldrh	r1, [r5, #10]
 711 02ae B9F80460 		ldrh	r6, [r9, #4]
 712 02b2 0B4A     		ldr	r2, .L93+4
 713 02b4 0096     		str	r6, [sp, #0]
 714 02b6 0530     		adds	r0, r0, #5
 715 02b8 C918     		adds	r1, r1, r3
 716 02ba 1039     		subs	r1, r1, #16
 717 02bc 2318     		adds	r3, r4, r0
 718 02be 18B2     		sxth	r0, r3
 719 02c0 09B2     		sxth	r1, r1
 720 02c2 0323     		movs	r3, #3
 721 02c4 FFF7FEFF 		bl	gdispFillConvexPoly
 722              	.LVL77:
 723 02c8 B5F80E80 		ldrh	r8, [r5, #14]
 724              		.loc 1 97 0
 725 02cc A4B2     		uxth	r4, r4
 726 02ce 0C94     		str	r4, [sp, #48]
 727              	.LVL78:
 728 02d0 0FFA88F3 		sxth	r3, r8
 729 02d4 BEE6     		b	.L43
 730              	.LVL79:
 731              	.L62:
 732              		.loc 1 123 0
 733 02d6 0122     		movs	r2, #1
 734 02d8 1646     		mov	r6, r2
 735 02da D8E6     		b	.L48
 736              	.L94:
 737              		.align	2
 738              	.L93:
 739 02dc 00000000 		.word	.LANCHOR0
 740 02e0 00000000 		.word	.LANCHOR1
ARM GAS  /tmp/cc5W1m75.s 			page 14


 741              		.cfi_endproc
 742              	.LFE119:
 743              		.size	gwinListDefaultDraw, .-gwinListDefaultDraw
 744 02e4 AFF30080 		.section	.text._destroy,"ax",%progbits
 744      AFF30080 
 744      AFF30080 
 745              		.align	2
 746              		.p2align 4,,15
 747              		.thumb
 748              		.thumb_func
 749              		.type	_destroy, %function
 750              	_destroy:
 751              	.LFB121:
 752              		.loc 1 276 0
 753              		.cfi_startproc
 754              		@ args = 0, pretend = 0, frame = 0
 755              		@ frame_needed = 0, uses_anonymous_args = 0
 756              	.LVL80:
 757 0000 38B5     		push	{r3, r4, r5, lr}
 758              	.LCFI3:
 759              		.cfi_def_cfa_offset 16
 760              		.cfi_offset 3, -16
 761              		.cfi_offset 4, -12
 762              		.cfi_offset 5, -8
 763              		.cfi_offset 14, -4
 764              		.loc 1 276 0
 765 0002 0546     		mov	r5, r0
 766 0004 00F13404 		add	r4, r0, #52
 767              		.loc 1 279 0
 768 0008 01E0     		b	.L96
 769              	.LVL81:
 770              	.L97:
 771              		.loc 1 280 0
 772 000a FFF7FEFF 		bl	chHeapFree
 773              	.LVL82:
 774              	.L96:
 775              		.loc 1 279 0 discriminator 1
 776 000e 2046     		mov	r0, r4
 777 0010 FFF7FEFF 		bl	gfxQueueASyncGet
 778              	.LVL83:
 779 0014 0028     		cmp	r0, #0
 780 0016 F8D1     		bne	.L97
 781              		.loc 1 282 0
 782 0018 2846     		mov	r0, r5
 783              	.LVL84:
 784              		.loc 1 283 0
 785 001a BDE83840 		pop	{r3, r4, r5, lr}
 786              		.loc 1 282 0
 787 001e FFF7FEBF 		b	_gwidgetDestroy
 788              	.LVL85:
 789              		.cfi_endproc
 790              	.LFE121:
 791              		.size	_destroy, .-_destroy
 792 0022 00BFAFF3 		.section	.text.gwinListCreate,"ax",%progbits
 792      0080AFF3 
 792      0080AFF3 
 792      0080
ARM GAS  /tmp/cc5W1m75.s 			page 15


 793              		.align	2
 794              		.p2align 4,,15
 795              		.global	gwinListCreate
 796              		.thumb
 797              		.thumb_func
 798              		.type	gwinListCreate, %function
 799              	gwinListCreate:
 800              	.LFB122:
 801              		.loc 1 320 0
 802              		.cfi_startproc
 803              		@ args = 0, pretend = 0, frame = 0
 804              		@ frame_needed = 0, uses_anonymous_args = 0
 805              	.LVL86:
 806 0000 70B5     		push	{r4, r5, r6, lr}
 807              	.LCFI4:
 808              		.cfi_def_cfa_offset 16
 809              		.cfi_offset 4, -16
 810              		.cfi_offset 5, -12
 811              		.cfi_offset 6, -8
 812              		.cfi_offset 14, -4
 813              		.loc 1 320 0
 814 0002 1646     		mov	r6, r2
 815              		.loc 1 321 0
 816 0004 0C4A     		ldr	r2, .L108
 817              	.LVL87:
 818              		.loc 1 320 0
 819 0006 0D46     		mov	r5, r1
 820              		.loc 1 321 0
 821 0008 FFF7FEFF 		bl	_gwidgetCreate
 822              	.LVL88:
 823 000c 0446     		mov	r4, r0
 824 000e 58B1     		cbz	r0, .L99
 825              		.loc 1 325 0
 826 0010 00F13400 		add	r0, r0, #52
 827              	.LVL89:
 828 0014 FFF7FEFF 		bl	gfxQueueASyncInit
 829              	.LVL90:
 830              		.loc 1 326 0
 831 0018 0023     		movs	r3, #0
 832 001a E362     		str	r3, [r4, #44]
 833              		.loc 1 327 0
 834 001c 2363     		str	r3, [r4, #48]
 835              		.loc 1 328 0
 836 001e 2EB9     		cbnz	r6, .L107
 837              	.L100:
 838              		.loc 1 331 0
 839 0020 2046     		mov	r0, r4
 840 0022 297A     		ldrb	r1, [r5, #8]	@ zero_extendqisi2
 841 0024 FFF7FEFF 		bl	gwinSetVisible
 842              	.LVL91:
 843              	.L99:
 844              		.loc 1 334 0
 845 0028 2046     		mov	r0, r4
 846 002a 70BD     		pop	{r4, r5, r6, pc}
 847              	.L107:
 848              		.loc 1 329 0
 849 002c A08A     		ldrh	r0, [r4, #20]
ARM GAS  /tmp/cc5W1m75.s 			page 16


 850 002e 40F48051 		orr	r1, r0, #4096
 851 0032 A182     		strh	r1, [r4, #20]	@ movhi
 852 0034 F4E7     		b	.L100
 853              	.L109:
 854 0036 00BF     		.align	2
 855              	.L108:
 856 0038 00000000 		.word	.LANCHOR2
 857              		.cfi_endproc
 858              	.LFE122:
 859              		.size	gwinListCreate, .-gwinListCreate
 860 003c AFF30080 		.section	.text.gwinListAddItem,"ax",%progbits
 861              		.align	2
 862              		.p2align 4,,15
 863              		.global	gwinListAddItem
 864              		.thumb
 865              		.thumb_func
 866              		.type	gwinListAddItem, %function
 867              	gwinListAddItem:
 868              	.LFB123:
 869              		.loc 1 336 0
 870              		.cfi_startproc
 871              		@ args = 0, pretend = 0, frame = 0
 872              		@ frame_needed = 0, uses_anonymous_args = 0
 873              	.LVL92:
 874 0000 F8B5     		push	{r3, r4, r5, r6, r7, lr}
 875              	.LCFI5:
 876              		.cfi_def_cfa_offset 24
 877              		.cfi_offset 3, -24
 878              		.cfi_offset 4, -20
 879              		.cfi_offset 5, -16
 880              		.cfi_offset 6, -12
 881              		.cfi_offset 7, -8
 882              		.cfi_offset 14, -4
 883              		.loc 1 336 0
 884 0002 0546     		mov	r5, r0
 885 0004 0E46     		mov	r6, r1
 886              		.loc 1 339 0
 887 0006 002A     		cmp	r2, #0
 888 0008 2DD0     		beq	.L111
 889              		.loc 1 340 0
 890 000a 0846     		mov	r0, r1
 891              	.LVL93:
 892 000c FFF7FEFF 		bl	strlen
 893              	.LVL94:
 894 0010 00F11101 		add	r1, r0, #17
 895 0014 0020     		movs	r0, #0
 896 0016 FFF7FEFF 		bl	chHeapAlloc
 897              	.LVL95:
 898 001a 0446     		mov	r4, r0
 899 001c 0028     		cmp	r0, #0
 900 001e 29D0     		beq	.L115
 901              		.loc 1 343 0
 902 0020 00F11007 		add	r7, r0, #16
 903 0024 3146     		mov	r1, r6
 904 0026 3846     		mov	r0, r7
 905              	.LVL96:
 906 0028 FFF7FEFF 		bl	strcpy
ARM GAS  /tmp/cc5W1m75.s 			page 17


 907              	.LVL97:
 908              		.loc 1 344 0
 909 002c 3E46     		mov	r6, r7
 910              	.LVL98:
 911              	.L114:
 912              		.loc 1 359 0
 913 002e EA6A     		ldr	r2, [r5, #44]
 914              		.loc 1 353 0
 915 0030 A660     		str	r6, [r4, #8]
 916              		.loc 1 351 0
 917 0032 0023     		movs	r3, #0
 918 0034 A380     		strh	r3, [r4, #4]	@ movhi
 919              		.loc 1 352 0
 920 0036 E380     		strh	r3, [r4, #6]	@ movhi
 921              		.loc 1 355 0
 922 0038 E360     		str	r3, [r4, #12]
 923              		.loc 1 359 0
 924 003a 32B9     		cbnz	r2, .L116
 925              		.loc 1 359 0 is_stmt 0 discriminator 1
 926 003c A88A     		ldrh	r0, [r5, #20]
 927 003e 00F48051 		and	r1, r0, #4096
 928 0042 8AB2     		uxth	r2, r1
 929 0044 0AB9     		cbnz	r2, .L116
 930              		.loc 1 360 0 is_stmt 1
 931 0046 0123     		movs	r3, #1
 932 0048 A380     		strh	r3, [r4, #4]	@ movhi
 933              	.L116:
 934              		.loc 1 363 0
 935 004a 05F13400 		add	r0, r5, #52
 936 004e 2146     		mov	r1, r4
 937 0050 FFF7FEFF 		bl	gfxQueueASyncPut
 938              	.LVL99:
 939              		.loc 1 366 0
 940 0054 E86A     		ldr	r0, [r5, #44]
 941 0056 411C     		adds	r1, r0, #1
 942 0058 E962     		str	r1, [r5, #44]
 943              		.loc 1 368 0
 944 005a 2846     		mov	r0, r5
 945 005c FFF7FEFF 		bl	_gwidgetRedraw
 946              	.LVL100:
 947              		.loc 1 371 0
 948 0060 EA6A     		ldr	r2, [r5, #44]
 949 0062 501E     		subs	r0, r2, #1
 950              		.loc 1 372 0
 951 0064 F8BD     		pop	{r3, r4, r5, r6, r7, pc}
 952              	.LVL101:
 953              	.L111:
 954              		.loc 1 346 0
 955 0066 1046     		mov	r0, r2
 956              	.LVL102:
 957 0068 1021     		movs	r1, #16
 958              	.LVL103:
 959 006a FFF7FEFF 		bl	chHeapAlloc
 960              	.LVL104:
 961 006e 0446     		mov	r4, r0
 962 0070 0028     		cmp	r0, #0
 963 0072 DCD1     		bne	.L114
ARM GAS  /tmp/cc5W1m75.s 			page 18


 964              	.L115:
 965              		.loc 1 341 0
 966 0074 4FF0FF30 		mov	r0, #-1
 967              	.LVL105:
 968 0078 F8BD     		pop	{r3, r4, r5, r6, r7, pc}
 969              		.cfi_endproc
 970              	.LFE123:
 971              		.size	gwinListAddItem, .-gwinListAddItem
 972              		.section	.text.gwinListItemGetText,"ax",%progbits
 973              		.align	2
 974              		.p2align 4,,15
 975              		.global	gwinListItemGetText
 976              		.thumb
 977              		.thumb_func
 978              		.type	gwinListItemGetText, %function
 979              	gwinListItemGetText:
 980              	.LFB124:
 981              		.loc 1 374 0
 982              		.cfi_startproc
 983              		@ args = 0, pretend = 0, frame = 0
 984              		@ frame_needed = 0, uses_anonymous_args = 0
 985              		@ link register save eliminated.
 986              	.LVL106:
 987              		.loc 1 379 0
 988 0000 4368     		ldr	r3, [r0, #4]
 989 0002 124A     		ldr	r2, .L145
 990 0004 9342     		cmp	r3, r2
 991 0006 1ED1     		bne	.L128
 992              		.loc 1 383 0
 993 0008 0029     		cmp	r1, #0
 994 000a 1CDB     		blt	.L128
 995              		.loc 1 383 0 is_stmt 0 discriminator 1
 996 000c C36A     		ldr	r3, [r0, #44]
 997 000e 9942     		cmp	r1, r3
 998 0010 19DA     		bge	.L128
 999              		.loc 1 386 0 is_stmt 1
 1000 0012 406B     		ldr	r0, [r0, #52]
 1001              	.LVL107:
 1002 0014 C0B1     		cbz	r0, .L121
 1003              		.loc 1 387 0
 1004 0016 A1B1     		cbz	r1, .L122
 1005              		.loc 1 386 0
 1006 0018 0068     		ldr	r0, [r0, #0]
 1007              	.LVL108:
 1008 001a 4A1E     		subs	r2, r1, #1
 1009 001c 02F00102 		and	r2, r2, #1
 1010 0020 0123     		movs	r3, #1
 1011              	.LVL109:
 1012 0022 80B1     		cbz	r0, .L128
 1013              		.loc 1 387 0
 1014 0024 0129     		cmp	r1, #1
 1015 0026 0CD0     		beq	.L122
 1016 0028 1AB1     		cbz	r2, .L124
 1017              		.loc 1 386 0
 1018 002a 0068     		ldr	r0, [r0, #0]
 1019              	.LVL110:
 1020 002c 0223     		movs	r3, #2
ARM GAS  /tmp/cc5W1m75.s 			page 19


 1021 002e 30B9     		cbnz	r0, .L138
 1022 0030 09E0     		b	.L128
 1023              	.L124:
 1024 0032 0068     		ldr	r0, [r0, #0]
 1025              	.LVL111:
 1026 0034 5A1C     		adds	r2, r3, #1
 1027 0036 30B1     		cbz	r0, .L128
 1028 0038 0068     		ldr	r0, [r0, #0]
 1029              	.LVL112:
 1030 003a 531C     		adds	r3, r2, #1
 1031 003c 18B1     		cbz	r0, .L128
 1032              	.L138:
 1033              		.loc 1 387 0
 1034 003e 9942     		cmp	r1, r3
 1035 0040 F7D1     		bne	.L124
 1036              	.L122:
 1037              		.loc 1 388 0
 1038 0042 8068     		ldr	r0, [r0, #8]
 1039              	.LVL113:
 1040 0044 7047     		bx	lr
 1041              	.L128:
 1042              		.loc 1 380 0
 1043 0046 0020     		movs	r0, #0
 1044              	.L121:
 1045              		.loc 1 391 0
 1046 0048 7047     		bx	lr
 1047              	.L146:
 1048 004a 00BF     		.align	2
 1049              	.L145:
 1050 004c 00000000 		.word	.LANCHOR2
 1051              		.cfi_endproc
 1052              	.LFE124:
 1053              		.size	gwinListItemGetText, .-gwinListItemGetText
 1054              		.section	.text.gwinListFindText,"ax",%progbits
 1055              		.align	2
 1056              		.p2align 4,,15
 1057              		.global	gwinListFindText
 1058              		.thumb
 1059              		.thumb_func
 1060              		.type	gwinListFindText, %function
 1061              	gwinListFindText:
 1062              	.LFB125:
 1063              		.loc 1 393 0
 1064              		.cfi_startproc
 1065              		@ args = 0, pretend = 0, frame = 0
 1066              		@ frame_needed = 0, uses_anonymous_args = 0
 1067              	.LVL114:
 1068              		.loc 1 398 0
 1069 0000 4368     		ldr	r3, [r0, #4]
 1070 0002 0C4A     		ldr	r2, .L158
 1071 0004 9342     		cmp	r3, r2
 1072              		.loc 1 393 0
 1073 0006 70B5     		push	{r4, r5, r6, lr}
 1074              	.LCFI6:
 1075              		.cfi_def_cfa_offset 16
 1076              		.cfi_offset 4, -16
 1077              		.cfi_offset 5, -12
ARM GAS  /tmp/cc5W1m75.s 			page 20


 1078              		.cfi_offset 6, -8
 1079              		.cfi_offset 14, -4
 1080              		.loc 1 393 0
 1081 0008 0E46     		mov	r6, r1
 1082              		.loc 1 398 0
 1083 000a 0FD1     		bne	.L152
 1084              		.loc 1 402 0
 1085 000c 71B1     		cbz	r1, .L152
 1086              		.loc 1 405 0
 1087 000e 446B     		ldr	r4, [r0, #52]
 1088              	.LVL115:
 1089 0010 64B1     		cbz	r4, .L152
 1090 0012 0025     		movs	r5, #0
 1091 0014 02E0     		b	.L149
 1092              	.LVL116:
 1093              	.L157:
 1094 0016 2468     		ldr	r4, [r4, #0]
 1095              	.LVL117:
 1096 0018 0135     		adds	r5, r5, #1
 1097              	.LVL118:
 1098 001a 3CB1     		cbz	r4, .L152
 1099              	.LVL119:
 1100              	.L149:
 1101              		.loc 1 406 0
 1102 001c A068     		ldr	r0, [r4, #8]
 1103 001e 3146     		mov	r1, r6
 1104 0020 FFF7FEFF 		bl	strcmp
 1105              	.LVL120:
 1106 0024 0028     		cmp	r0, #0
 1107 0026 F6D1     		bne	.L157
 1108              		.loc 1 411 0
 1109 0028 2846     		mov	r0, r5
 1110 002a 70BD     		pop	{r4, r5, r6, pc}
 1111              	.LVL121:
 1112              	.L152:
 1113              		.loc 1 399 0
 1114 002c 4FF0FF35 		mov	r5, #-1
 1115              		.loc 1 411 0
 1116 0030 2846     		mov	r0, r5
 1117 0032 70BD     		pop	{r4, r5, r6, pc}
 1118              	.L159:
 1119              		.align	2
 1120              	.L158:
 1121 0034 00000000 		.word	.LANCHOR2
 1122              		.cfi_endproc
 1123              	.LFE125:
 1124              		.size	gwinListFindText, .-gwinListFindText
 1125 0038 AFF30080 		.section	.text.gwinListGetSelected,"ax",%progbits
 1125      AFF30080 
 1126              		.align	2
 1127              		.p2align 4,,15
 1128              		.global	gwinListGetSelected
 1129              		.thumb
 1130              		.thumb_func
 1131              		.type	gwinListGetSelected, %function
 1132              	gwinListGetSelected:
 1133              	.LFB126:
ARM GAS  /tmp/cc5W1m75.s 			page 21


 1134              		.loc 1 413 0
 1135              		.cfi_startproc
 1136              		@ args = 0, pretend = 0, frame = 0
 1137              		@ frame_needed = 0, uses_anonymous_args = 0
 1138              		@ link register save eliminated.
 1139              	.LVL122:
 1140              		.loc 1 418 0
 1141 0000 4368     		ldr	r3, [r0, #4]
 1142 0002 0D4A     		ldr	r2, .L170
 1143 0004 9342     		cmp	r3, r2
 1144 0006 12D1     		bne	.L167
 1145              		.loc 1 422 0
 1146 0008 818A     		ldrh	r1, [r0, #20]
 1147 000a 01F48053 		and	r3, r1, #4096
 1148 000e 99B2     		uxth	r1, r3
 1149 0010 69B9     		cbnz	r1, .L167
 1150              		.loc 1 425 0
 1151 0012 436B     		ldr	r3, [r0, #52]
 1152              	.LVL123:
 1153 0014 5BB1     		cbz	r3, .L167
 1154              		.loc 1 426 0
 1155 0016 9888     		ldrh	r0, [r3, #4]
 1156              	.LVL124:
 1157 0018 10F00100 		ands	r0, r0, #1
 1158 001c 03D0     		beq	.L163
 1159 001e 09E0     		b	.L169
 1160              	.LVL125:
 1161              	.L164:
 1162 0020 9A88     		ldrh	r2, [r3, #4]
 1163 0022 D207     		lsls	r2, r2, #31
 1164 0024 07D4     		bmi	.L161
 1165              	.LVL126:
 1166              	.L163:
 1167              		.loc 1 425 0
 1168 0026 1B68     		ldr	r3, [r3, #0]
 1169              	.LVL127:
 1170 0028 0130     		adds	r0, r0, #1
 1171              	.LVL128:
 1172 002a 002B     		cmp	r3, #0
 1173 002c F8D1     		bne	.L164
 1174              	.LVL129:
 1175              	.L167:
 1176              		.loc 1 419 0
 1177 002e 4FF0FF30 		mov	r0, #-1
 1178 0032 7047     		bx	lr
 1179              	.LVL130:
 1180              	.L169:
 1181              		.loc 1 425 0
 1182 0034 0846     		mov	r0, r1
 1183              	.LVL131:
 1184              	.L161:
 1185              		.loc 1 431 0
 1186 0036 7047     		bx	lr
 1187              	.L171:
 1188              		.align	2
 1189              	.L170:
 1190 0038 00000000 		.word	.LANCHOR2
ARM GAS  /tmp/cc5W1m75.s 			page 22


 1191              		.cfi_endproc
 1192              	.LFE126:
 1193              		.size	gwinListGetSelected, .-gwinListGetSelected
 1194 003c AFF30080 		.section	.text.gwinListItemSetParam,"ax",%progbits
 1195              		.align	2
 1196              		.p2align 4,,15
 1197              		.global	gwinListItemSetParam
 1198              		.thumb
 1199              		.thumb_func
 1200              		.type	gwinListItemSetParam, %function
 1201              	gwinListItemSetParam:
 1202              	.LFB127:
 1203              		.loc 1 433 0
 1204              		.cfi_startproc
 1205              		@ args = 0, pretend = 0, frame = 0
 1206              		@ frame_needed = 0, uses_anonymous_args = 0
 1207              		@ link register save eliminated.
 1208              	.LVL132:
 1209 0000 10B4     		push	{r4}
 1210              	.LCFI7:
 1211              		.cfi_def_cfa_offset 4
 1212              		.cfi_offset 4, -4
 1213              		.loc 1 438 0
 1214 0002 4368     		ldr	r3, [r0, #4]
 1215 0004 134C     		ldr	r4, .L195
 1216 0006 A342     		cmp	r3, r4
 1217 0008 01D0     		beq	.L194
 1218              	.LVL133:
 1219              	.L172:
 1220              		.loc 1 451 0
 1221 000a 10BC     		pop	{r4}
 1222 000c 7047     		bx	lr
 1223              	.LVL134:
 1224              	.L194:
 1225              		.loc 1 442 0
 1226 000e 0029     		cmp	r1, #0
 1227 0010 FBDB     		blt	.L172
 1228              		.loc 1 442 0 is_stmt 0 discriminator 1
 1229 0012 C36A     		ldr	r3, [r0, #44]
 1230 0014 9942     		cmp	r1, r3
 1231 0016 F8DA     		bge	.L172
 1232              		.loc 1 445 0 is_stmt 1
 1233 0018 436B     		ldr	r3, [r0, #52]
 1234              	.LVL135:
 1235 001a 002B     		cmp	r3, #0
 1236 001c F5D0     		beq	.L172
 1237              		.loc 1 446 0
 1238 001e B9B1     		cbz	r1, .L174
 1239              		.loc 1 445 0
 1240 0020 1B68     		ldr	r3, [r3, #0]
 1241              	.LVL136:
 1242 0022 481E     		subs	r0, r1, #1
 1243              	.LVL137:
 1244 0024 00F00104 		and	r4, r0, #1
 1245 0028 0120     		movs	r0, #1
 1246              	.LVL138:
 1247 002a 002B     		cmp	r3, #0
ARM GAS  /tmp/cc5W1m75.s 			page 23


 1248 002c EDD0     		beq	.L172
 1249              		.loc 1 446 0
 1250 002e 0129     		cmp	r1, #1
 1251 0030 0ED0     		beq	.L174
 1252 0032 1CB1     		cbz	r4, .L175
 1253              		.loc 1 445 0
 1254 0034 1B68     		ldr	r3, [r3, #0]
 1255              	.LVL139:
 1256 0036 0220     		movs	r0, #2
 1257 0038 43B9     		cbnz	r3, .L187
 1258 003a E6E7     		b	.L172
 1259              	.L175:
 1260 003c 1B68     		ldr	r3, [r3, #0]
 1261              	.LVL140:
 1262 003e 0130     		adds	r0, r0, #1
 1263 0040 002B     		cmp	r3, #0
 1264 0042 E2D0     		beq	.L172
 1265 0044 1B68     		ldr	r3, [r3, #0]
 1266              	.LVL141:
 1267 0046 0130     		adds	r0, r0, #1
 1268 0048 002B     		cmp	r3, #0
 1269 004a DED0     		beq	.L172
 1270              	.L187:
 1271              		.loc 1 446 0
 1272 004c 8142     		cmp	r1, r0
 1273 004e F5D1     		bne	.L175
 1274              	.L174:
 1275              		.loc 1 447 0
 1276 0050 DA80     		strh	r2, [r3, #6]	@ movhi
 1277              		.loc 1 448 0
 1278 0052 DAE7     		b	.L172
 1279              	.L196:
 1280              		.align	2
 1281              	.L195:
 1282 0054 00000000 		.word	.LANCHOR2
 1283              		.cfi_endproc
 1284              	.LFE127:
 1285              		.size	gwinListItemSetParam, .-gwinListItemSetParam
 1286 0058 AFF30080 		.section	.text.gwinListDeleteAll,"ax",%progbits
 1286      AFF30080 
 1287              		.align	2
 1288              		.p2align 4,,15
 1289              		.global	gwinListDeleteAll
 1290              		.thumb
 1291              		.thumb_func
 1292              		.type	gwinListDeleteAll, %function
 1293              	gwinListDeleteAll:
 1294              	.LFB128:
 1295              		.loc 1 453 0
 1296              		.cfi_startproc
 1297              		@ args = 0, pretend = 0, frame = 0
 1298              		@ frame_needed = 0, uses_anonymous_args = 0
 1299              	.LVL142:
 1300 0000 38B5     		push	{r3, r4, r5, lr}
 1301              	.LCFI8:
 1302              		.cfi_def_cfa_offset 16
 1303              		.cfi_offset 3, -16
ARM GAS  /tmp/cc5W1m75.s 			page 24


 1304              		.cfi_offset 4, -12
 1305              		.cfi_offset 5, -8
 1306              		.cfi_offset 14, -4
 1307              		.loc 1 457 0
 1308 0002 0E4A     		ldr	r2, .L202
 1309 0004 4368     		ldr	r3, [r0, #4]
 1310 0006 9342     		cmp	r3, r2
 1311              		.loc 1 453 0
 1312 0008 0446     		mov	r4, r0
 1313              		.loc 1 457 0
 1314 000a 00D0     		beq	.L201
 1315 000c 38BD     		pop	{r3, r4, r5, pc}
 1316              	.L201:
 1317 000e 00F13405 		add	r5, r0, #52
 1318 0012 01E0     		b	.L199
 1319              	.LVL143:
 1320              	.L200:
 1321              		.loc 1 461 0
 1322 0014 FFF7FEFF 		bl	chHeapFree
 1323              	.LVL144:
 1324              	.L199:
 1325              		.loc 1 460 0 discriminator 1
 1326 0018 2846     		mov	r0, r5
 1327 001a FFF7FEFF 		bl	gfxQueueASyncGet
 1328              	.LVL145:
 1329 001e 0146     		mov	r1, r0
 1330 0020 0028     		cmp	r0, #0
 1331 0022 F7D1     		bne	.L200
 1332              		.loc 1 463 0
 1333 0024 A08A     		ldrh	r0, [r4, #20]
 1334              	.LVL146:
 1335              		.loc 1 464 0
 1336 0026 E162     		str	r1, [r4, #44]
 1337              		.loc 1 463 0
 1338 0028 20F40053 		bic	r3, r0, #8192
 1339              		.loc 1 466 0
 1340 002c 2046     		mov	r0, r4
 1341              		.loc 1 463 0
 1342 002e A382     		strh	r3, [r4, #20]	@ movhi
 1343              		.loc 1 465 0
 1344 0030 2163     		str	r1, [r4, #48]
 1345              		.loc 1 467 0
 1346 0032 BDE83840 		pop	{r3, r4, r5, lr}
 1347              		.loc 1 466 0
 1348 0036 FFF7FEBF 		b	_gwidgetRedraw
 1349              	.LVL147:
 1350              	.L203:
 1351 003a 00BF     		.align	2
 1352              	.L202:
 1353 003c 00000000 		.word	.LANCHOR2
 1354              		.cfi_endproc
 1355              	.LFE128:
 1356              		.size	gwinListDeleteAll, .-gwinListDeleteAll
 1357              		.section	.text.gwinListItemDelete,"ax",%progbits
 1358              		.align	2
 1359              		.p2align 4,,15
 1360              		.global	gwinListItemDelete
ARM GAS  /tmp/cc5W1m75.s 			page 25


 1361              		.thumb
 1362              		.thumb_func
 1363              		.type	gwinListItemDelete, %function
 1364              	gwinListItemDelete:
 1365              	.LFB129:
 1366              		.loc 1 469 0
 1367              		.cfi_startproc
 1368              		@ args = 0, pretend = 0, frame = 0
 1369              		@ frame_needed = 0, uses_anonymous_args = 0
 1370              	.LVL148:
 1371              		.loc 1 474 0
 1372 0000 4368     		ldr	r3, [r0, #4]
 1373 0002 1E4A     		ldr	r2, .L233
 1374 0004 9342     		cmp	r3, r2
 1375              		.loc 1 469 0
 1376 0006 70B5     		push	{r4, r5, r6, lr}
 1377              	.LCFI9:
 1378              		.cfi_def_cfa_offset 16
 1379              		.cfi_offset 4, -16
 1380              		.cfi_offset 5, -12
 1381              		.cfi_offset 6, -8
 1382              		.cfi_offset 14, -4
 1383              		.loc 1 469 0
 1384 0008 0446     		mov	r4, r0
 1385 000a 0D46     		mov	r5, r1
 1386              		.loc 1 474 0
 1387 000c 00D0     		beq	.L230
 1388              	.LVL149:
 1389              	.L204:
 1390 000e 70BD     		pop	{r4, r5, r6, pc}
 1391              	.LVL150:
 1392              	.L230:
 1393              		.loc 1 478 0
 1394 0010 0029     		cmp	r1, #0
 1395 0012 FCDB     		blt	.L204
 1396              		.loc 1 478 0 is_stmt 0 discriminator 1
 1397 0014 C06A     		ldr	r0, [r0, #44]
 1398              	.LVL151:
 1399 0016 8142     		cmp	r1, r0
 1400 0018 F9DA     		bge	.L204
 1401              		.loc 1 481 0 is_stmt 1
 1402 001a 666B     		ldr	r6, [r4, #52]
 1403              	.LVL152:
 1404 001c 002E     		cmp	r6, #0
 1405 001e F6D0     		beq	.L204
 1406              		.loc 1 482 0
 1407 0020 B1B1     		cbz	r1, .L206
 1408              		.loc 1 481 0
 1409 0022 3668     		ldr	r6, [r6, #0]
 1410              	.LVL153:
 1411 0024 0139     		subs	r1, r1, #1
 1412              	.LVL154:
 1413 0026 01F00102 		and	r2, r1, #1
 1414 002a 0123     		movs	r3, #1
 1415              	.LVL155:
 1416 002c 002E     		cmp	r6, #0
 1417 002e 23D0     		beq	.L231
ARM GAS  /tmp/cc5W1m75.s 			page 26


 1418              		.loc 1 482 0
 1419 0030 012D     		cmp	r5, #1
 1420 0032 0DD0     		beq	.L206
 1421 0034 1AB1     		cbz	r2, .L207
 1422              		.loc 1 481 0
 1423 0036 3668     		ldr	r6, [r6, #0]
 1424              	.LVL156:
 1425 0038 0223     		movs	r3, #2
 1426 003a 3EB9     		cbnz	r6, .L222
 1427 003c E7E7     		b	.L204
 1428              	.L207:
 1429 003e 3068     		ldr	r0, [r6, #0]
 1430 0040 591C     		adds	r1, r3, #1
 1431 0042 0028     		cmp	r0, #0
 1432 0044 E3D0     		beq	.L204
 1433 0046 0668     		ldr	r6, [r0, #0]
 1434              	.LVL157:
 1435 0048 4B1C     		adds	r3, r1, #1
 1436 004a A6B1     		cbz	r6, .L232
 1437              	.L222:
 1438              		.loc 1 482 0
 1439 004c 9D42     		cmp	r5, r3
 1440 004e F6D1     		bne	.L207
 1441              	.L206:
 1442              		.loc 1 483 0
 1443 0050 3146     		mov	r1, r6
 1444 0052 04F13400 		add	r0, r4, #52
 1445 0056 FFF7FEFF 		bl	gfxQueueASyncRemove
 1446              	.LVL158:
 1447              		.loc 1 484 0
 1448 005a 3046     		mov	r0, r6
 1449 005c FFF7FEFF 		bl	chHeapFree
 1450              	.LVL159:
 1451              		.loc 1 485 0
 1452 0060 226B     		ldr	r2, [r4, #48]
 1453 0062 9542     		cmp	r5, r2
 1454 0064 02DC     		bgt	.L208
 1455              		.loc 1 485 0 is_stmt 0 discriminator 1
 1456 0066 0AB1     		cbz	r2, .L208
 1457              		.loc 1 486 0 is_stmt 1
 1458 0068 531E     		subs	r3, r2, #1
 1459 006a 2363     		str	r3, [r4, #48]
 1460              	.L208:
 1461              		.loc 1 487 0
 1462 006c 2046     		mov	r0, r4
 1463              		.loc 1 491 0
 1464 006e BDE87040 		pop	{r4, r5, r6, lr}
 1465              		.loc 1 487 0
 1466 0072 FFF7FEBF 		b	_gwidgetRedraw
 1467              	.LVL160:
 1468              	.L232:
 1469 0076 70BD     		pop	{r4, r5, r6, pc}
 1470              	.L231:
 1471 0078 70BD     		pop	{r4, r5, r6, pc}
 1472              	.L234:
 1473 007a 00BF     		.align	2
 1474              	.L233:
ARM GAS  /tmp/cc5W1m75.s 			page 27


 1475 007c 00000000 		.word	.LANCHOR2
 1476              		.cfi_endproc
 1477              	.LFE129:
 1478              		.size	gwinListItemDelete, .-gwinListItemDelete
 1479              		.section	.text.gwinListItemGetParam,"ax",%progbits
 1480              		.align	2
 1481              		.p2align 4,,15
 1482              		.global	gwinListItemGetParam
 1483              		.thumb
 1484              		.thumb_func
 1485              		.type	gwinListItemGetParam, %function
 1486              	gwinListItemGetParam:
 1487              	.LFB130:
 1488              		.loc 1 493 0
 1489              		.cfi_startproc
 1490              		@ args = 0, pretend = 0, frame = 0
 1491              		@ frame_needed = 0, uses_anonymous_args = 0
 1492              		@ link register save eliminated.
 1493              	.LVL161:
 1494              		.loc 1 498 0
 1495 0000 4368     		ldr	r3, [r0, #4]
 1496 0002 144A     		ldr	r2, .L261
 1497 0004 9342     		cmp	r3, r2
 1498 0006 01D0     		beq	.L260
 1499              	.LVL162:
 1500              	.L243:
 1501              		.loc 1 499 0
 1502 0008 0020     		movs	r0, #0
 1503              	.L236:
 1504              		.loc 1 510 0
 1505 000a 7047     		bx	lr
 1506              	.LVL163:
 1507              	.L260:
 1508              		.loc 1 502 0
 1509 000c 0029     		cmp	r1, #0
 1510 000e FBDB     		blt	.L243
 1511              		.loc 1 502 0 is_stmt 0 discriminator 1
 1512 0010 C36A     		ldr	r3, [r0, #44]
 1513 0012 9942     		cmp	r1, r3
 1514 0014 F8DA     		bge	.L243
 1515              		.loc 1 505 0 is_stmt 1
 1516 0016 406B     		ldr	r0, [r0, #52]
 1517              	.LVL164:
 1518 0018 0028     		cmp	r0, #0
 1519 001a F6D0     		beq	.L236
 1520              		.loc 1 506 0
 1521 001c B9B1     		cbz	r1, .L237
 1522              		.loc 1 505 0
 1523 001e 0068     		ldr	r0, [r0, #0]
 1524              	.LVL165:
 1525 0020 4A1E     		subs	r2, r1, #1
 1526 0022 02F00102 		and	r2, r2, #1
 1527 0026 0123     		movs	r3, #1
 1528              	.LVL166:
 1529 0028 0028     		cmp	r0, #0
 1530 002a EDD0     		beq	.L243
 1531              		.loc 1 506 0
ARM GAS  /tmp/cc5W1m75.s 			page 28


 1532 002c 0129     		cmp	r1, #1
 1533 002e 0ED0     		beq	.L237
 1534 0030 1AB1     		cbz	r2, .L239
 1535              		.loc 1 505 0
 1536 0032 0068     		ldr	r0, [r0, #0]
 1537              	.LVL167:
 1538 0034 0223     		movs	r3, #2
 1539 0036 40B9     		cbnz	r0, .L253
 1540 0038 E6E7     		b	.L243
 1541              	.L239:
 1542 003a 0068     		ldr	r0, [r0, #0]
 1543              	.LVL168:
 1544 003c 5A1C     		adds	r2, r3, #1
 1545 003e 0028     		cmp	r0, #0
 1546 0040 E2D0     		beq	.L243
 1547 0042 0068     		ldr	r0, [r0, #0]
 1548              	.LVL169:
 1549 0044 531C     		adds	r3, r2, #1
 1550 0046 0028     		cmp	r0, #0
 1551 0048 DED0     		beq	.L243
 1552              	.L253:
 1553              		.loc 1 506 0
 1554 004a 9942     		cmp	r1, r3
 1555 004c F5D1     		bne	.L239
 1556              	.L237:
 1557              		.loc 1 507 0
 1558 004e C088     		ldrh	r0, [r0, #6]
 1559              	.LVL170:
 1560 0050 7047     		bx	lr
 1561              	.L262:
 1562 0052 00BF     		.align	2
 1563              	.L261:
 1564 0054 00000000 		.word	.LANCHOR2
 1565              		.cfi_endproc
 1566              	.LFE130:
 1567              		.size	gwinListItemGetParam, .-gwinListItemGetParam
 1568 0058 AFF30080 		.section	.text.gwinListItemIsSelected,"ax",%progbits
 1568      AFF30080 
 1569              		.align	2
 1570              		.p2align 4,,15
 1571              		.global	gwinListItemIsSelected
 1572              		.thumb
 1573              		.thumb_func
 1574              		.type	gwinListItemIsSelected, %function
 1575              	gwinListItemIsSelected:
 1576              	.LFB131:
 1577              		.loc 1 512 0
 1578              		.cfi_startproc
 1579              		@ args = 0, pretend = 0, frame = 0
 1580              		@ frame_needed = 0, uses_anonymous_args = 0
 1581              		@ link register save eliminated.
 1582              	.LVL171:
 1583              		.loc 1 517 0
 1584 0000 4368     		ldr	r3, [r0, #4]
 1585 0002 154A     		ldr	r2, .L289
 1586 0004 9342     		cmp	r3, r2
 1587 0006 01D0     		beq	.L288
ARM GAS  /tmp/cc5W1m75.s 			page 29


 1588              	.LVL172:
 1589              	.L271:
 1590              		.loc 1 518 0
 1591 0008 0020     		movs	r0, #0
 1592              	.L264:
 1593              		.loc 1 529 0
 1594 000a 7047     		bx	lr
 1595              	.LVL173:
 1596              	.L288:
 1597              		.loc 1 521 0
 1598 000c 0029     		cmp	r1, #0
 1599 000e FBDB     		blt	.L271
 1600              		.loc 1 521 0 is_stmt 0 discriminator 1
 1601 0010 C36A     		ldr	r3, [r0, #44]
 1602 0012 9942     		cmp	r1, r3
 1603 0014 F8DA     		bge	.L271
 1604              		.loc 1 524 0 is_stmt 1
 1605 0016 406B     		ldr	r0, [r0, #52]
 1606              	.LVL174:
 1607 0018 0028     		cmp	r0, #0
 1608 001a F6D0     		beq	.L264
 1609              		.loc 1 525 0
 1610 001c B9B1     		cbz	r1, .L265
 1611              		.loc 1 524 0
 1612 001e 0068     		ldr	r0, [r0, #0]
 1613              	.LVL175:
 1614 0020 4A1E     		subs	r2, r1, #1
 1615 0022 02F00102 		and	r2, r2, #1
 1616 0026 0123     		movs	r3, #1
 1617              	.LVL176:
 1618 0028 0028     		cmp	r0, #0
 1619 002a EDD0     		beq	.L271
 1620              		.loc 1 525 0
 1621 002c 0129     		cmp	r1, #1
 1622 002e 0ED0     		beq	.L265
 1623 0030 1AB1     		cbz	r2, .L267
 1624              		.loc 1 524 0
 1625 0032 0068     		ldr	r0, [r0, #0]
 1626              	.LVL177:
 1627 0034 0223     		movs	r3, #2
 1628 0036 40B9     		cbnz	r0, .L281
 1629 0038 E6E7     		b	.L271
 1630              	.L267:
 1631 003a 0068     		ldr	r0, [r0, #0]
 1632              	.LVL178:
 1633 003c 5A1C     		adds	r2, r3, #1
 1634 003e 0028     		cmp	r0, #0
 1635 0040 E2D0     		beq	.L271
 1636 0042 0068     		ldr	r0, [r0, #0]
 1637              	.LVL179:
 1638 0044 531C     		adds	r3, r2, #1
 1639 0046 0028     		cmp	r0, #0
 1640 0048 DED0     		beq	.L271
 1641              	.L281:
 1642              		.loc 1 525 0
 1643 004a 9942     		cmp	r1, r3
 1644 004c F5D1     		bne	.L267
ARM GAS  /tmp/cc5W1m75.s 			page 30


 1645              	.L265:
 1646              		.loc 1 526 0
 1647 004e 8188     		ldrh	r1, [r0, #4]
 1648              	.LVL180:
 1649 0050 01F00100 		and	r0, r1, #1
 1650              	.LVL181:
 1651 0054 7047     		bx	lr
 1652              	.L290:
 1653 0056 00BF     		.align	2
 1654              	.L289:
 1655 0058 00000000 		.word	.LANCHOR2
 1656              		.cfi_endproc
 1657              	.LFE131:
 1658              		.size	gwinListItemIsSelected, .-gwinListItemIsSelected
 1659 005c AFF30080 		.section	.text.gwinListItemCount,"ax",%progbits
 1660              		.align	2
 1661              		.p2align 4,,15
 1662              		.global	gwinListItemCount
 1663              		.thumb
 1664              		.thumb_func
 1665              		.type	gwinListItemCount, %function
 1666              	gwinListItemCount:
 1667              	.LFB132:
 1668              		.loc 1 531 0
 1669              		.cfi_startproc
 1670              		@ args = 0, pretend = 0, frame = 0
 1671              		@ frame_needed = 0, uses_anonymous_args = 0
 1672              		@ link register save eliminated.
 1673              	.LVL182:
 1674              		.loc 1 533 0
 1675 0000 4368     		ldr	r3, [r0, #4]
 1676 0002 034A     		ldr	r2, .L294
 1677 0004 9342     		cmp	r3, r2
 1678              		.loc 1 536 0
 1679 0006 0CBF     		ite	eq
 1680 0008 C06A     		ldreq	r0, [r0, #44]
 1681              	.LVL183:
 1682              		.loc 1 534 0
 1683 000a 0020     		movne	r0, #0
 1684              		.loc 1 537 0
 1685 000c 7047     		bx	lr
 1686              	.L295:
 1687 000e 00BF     		.align	2
 1688              	.L294:
 1689 0010 00000000 		.word	.LANCHOR2
 1690              		.cfi_endproc
 1691              	.LFE132:
 1692              		.size	gwinListItemCount, .-gwinListItemCount
 1693 0014 AFF30080 		.section	.text.gwinListItemSetImage,"ax",%progbits
 1693      AFF30080 
 1693      AFF30080 
 1694              		.align	2
 1695              		.p2align 4,,15
 1696              		.global	gwinListItemSetImage
 1697              		.thumb
 1698              		.thumb_func
 1699              		.type	gwinListItemSetImage, %function
ARM GAS  /tmp/cc5W1m75.s 			page 31


 1700              	gwinListItemSetImage:
 1701              	.LFB133:
 1702              		.loc 1 540 0
 1703              		.cfi_startproc
 1704              		@ args = 0, pretend = 0, frame = 0
 1705              		@ frame_needed = 0, uses_anonymous_args = 0
 1706              		@ link register save eliminated.
 1707              	.LVL184:
 1708 0000 30B4     		push	{r4, r5}
 1709              	.LCFI10:
 1710              		.cfi_def_cfa_offset 8
 1711              		.cfi_offset 4, -8
 1712              		.cfi_offset 5, -4
 1713              		.loc 1 545 0
 1714 0002 4368     		ldr	r3, [r0, #4]
 1715 0004 164C     		ldr	r4, .L324
 1716 0006 A342     		cmp	r3, r4
 1717 0008 01D0     		beq	.L323
 1718              	.LVL185:
 1719              	.L296:
 1720              		.loc 1 560 0
 1721 000a 30BC     		pop	{r4, r5}
 1722 000c 7047     		bx	lr
 1723              	.LVL186:
 1724              	.L323:
 1725              		.loc 1 549 0
 1726 000e 0029     		cmp	r1, #0
 1727 0010 FBDB     		blt	.L296
 1728              		.loc 1 549 0 is_stmt 0 discriminator 1
 1729 0012 C36A     		ldr	r3, [r0, #44]
 1730 0014 9942     		cmp	r1, r3
 1731 0016 F8DA     		bge	.L296
 1732              		.loc 1 552 0 is_stmt 1
 1733 0018 436B     		ldr	r3, [r0, #52]
 1734              	.LVL187:
 1735 001a 002B     		cmp	r3, #0
 1736 001c F5D0     		beq	.L296
 1737              		.loc 1 553 0
 1738 001e B9B1     		cbz	r1, .L300
 1739              		.loc 1 552 0
 1740 0020 1B68     		ldr	r3, [r3, #0]
 1741              	.LVL188:
 1742 0022 4C1E     		subs	r4, r1, #1
 1743 0024 04F00105 		and	r5, r4, #1
 1744 0028 0124     		movs	r4, #1
 1745              	.LVL189:
 1746 002a 002B     		cmp	r3, #0
 1747 002c EDD0     		beq	.L296
 1748              		.loc 1 553 0
 1749 002e 0129     		cmp	r1, #1
 1750 0030 0ED0     		beq	.L300
 1751 0032 1DB1     		cbz	r5, .L301
 1752              		.loc 1 552 0
 1753 0034 1B68     		ldr	r3, [r3, #0]
 1754              	.LVL190:
 1755 0036 0224     		movs	r4, #2
 1756 0038 43B9     		cbnz	r3, .L315
ARM GAS  /tmp/cc5W1m75.s 			page 32


 1757 003a E6E7     		b	.L296
 1758              	.L301:
 1759 003c 1B68     		ldr	r3, [r3, #0]
 1760              	.LVL191:
 1761 003e 0134     		adds	r4, r4, #1
 1762 0040 002B     		cmp	r3, #0
 1763 0042 E2D0     		beq	.L296
 1764 0044 1B68     		ldr	r3, [r3, #0]
 1765              	.LVL192:
 1766 0046 0134     		adds	r4, r4, #1
 1767 0048 002B     		cmp	r3, #0
 1768 004a DED0     		beq	.L296
 1769              	.L315:
 1770              		.loc 1 553 0
 1771 004c A142     		cmp	r1, r4
 1772 004e F5D1     		bne	.L301
 1773              	.L300:
 1774              		.loc 1 554 0
 1775 0050 DA60     		str	r2, [r3, #12]
 1776              		.loc 1 555 0
 1777 0052 002A     		cmp	r2, #0
 1778 0054 D9D0     		beq	.L296
 1779              		.loc 1 556 0
 1780 0056 818A     		ldrh	r1, [r0, #20]
 1781              	.LVL193:
 1782 0058 41F40052 		orr	r2, r1, #8192
 1783              	.LVL194:
 1784 005c 8282     		strh	r2, [r0, #20]	@ movhi
 1785 005e D4E7     		b	.L296
 1786              	.L325:
 1787              		.align	2
 1788              	.L324:
 1789 0060 00000000 		.word	.LANCHOR2
 1790              		.cfi_endproc
 1791              	.LFE133:
 1792              		.size	gwinListItemSetImage, .-gwinListItemSetImage
 1793 0064 AFF30080 		.section	.rodata.upArrow.8040,"a",%progbits
 1793      AFF30080 
 1793      AFF30080 
 1794              		.align	2
 1795              		.set	.LANCHOR0,. + 0
 1796              		.type	upArrow.8040, %object
 1797              		.size	upArrow.8040, 12
 1798              	upArrow.8040:
 1799 0000 0000     		.short	0
 1800 0002 0A00     		.short	10
 1801 0004 0A00     		.short	10
 1802 0006 0A00     		.short	10
 1803 0008 0500     		.short	5
 1804 000a 0000     		.short	0
 1805              		.section	.rodata.downArrow.8041,"a",%progbits
 1806              		.align	2
 1807              		.set	.LANCHOR1,. + 0
 1808              		.type	downArrow.8041, %object
 1809              		.size	downArrow.8041, 12
 1810              	downArrow.8041:
 1811 0000 0000     		.short	0
ARM GAS  /tmp/cc5W1m75.s 			page 33


 1812 0002 0000     		.short	0
 1813 0004 0A00     		.short	10
 1814 0006 0000     		.short	0
 1815 0008 0500     		.short	5
 1816 000a 0A00     		.short	10
 1817              		.section	.rodata.str1.4,"aMS",%progbits,1
 1818              		.align	2
 1819              	.LC0:
 1820 0000 4C697374 		.ascii	"List\000"
 1820      00
 1821 0005 000000   		.section	.rodata.listVMT,"a",%progbits
 1822              		.align	2
 1823              		.set	.LANCHOR2,. + 0
 1824              		.type	listVMT, %object
 1825              		.size	listVMT, 36
 1826              	listVMT:
 1827 0000 00000000 		.word	.LC0
 1828 0004 3C000000 		.word	60
 1829 0008 00000000 		.word	_destroy
 1830 000c 00000000 		.word	_gwidgetRedraw
 1831 0010 00000000 		.word	0
 1832 0014 00000000 		.word	gwinListDefaultDraw
 1833 0018 00000000 		.word	MouseDown
 1834 001c 00000000 		.word	0
 1835 0020 00000000 		.word	0
 1836              		.text
 1837              	.Letext0:
 1838              		.file 2 "/usr/bin/../lib/gcc/arm-none-eabi/4.7.4/include/stddef.h"
 1839              		.file 3 "/usr/bin/../lib/gcc/arm-none-eabi/4.7.4/../../../../arm-none-eabi/include/stdint.h"
 1840              		.file 4 "../../os/ports/GCC/ARMCMx/chtypes.h"
 1841              		.file 5 "../../os/kernel/include/chlists.h"
 1842              		.file 6 "../../os/kernel/include/chthreads.h"
 1843              		.file 7 "../../os/ports/GCC/ARMCMx/chcore_v7m.h"
 1844              		.file 8 "../../os/kernel/include/chsem.h"
 1845              		.file 9 "../../os/kernel/include/chmtx.h"
 1846              		.file 10 "../../os/kernel/include/chmemcore.h"
 1847              		.file 11 "../../os/kernel/include/chheap.h"
 1848              		.file 12 "../../ext/ugfx/include/gos/chibios.h"
 1849              		.file 13 "../../ext/ugfx/include/gqueue/gqueue.h"
 1850              		.file 14 "../../ext/ugfx/include/gevent/gevent.h"
 1851              		.file 15 "../../ext/ugfx/include/gdisp/gdisp.h"
 1852              		.file 16 "../../ext/ugfx/include/gdisp/image.h"
 1853              		.file 17 "../../ext/ugfx/include/gwin/gwin.h"
 1854              		.file 18 "../../ext/ugfx/include/gwin/class_gwin.h"
 1855              		.file 19 "../../ext/ugfx/include/gwin/gwidget.h"
 1856              		.file 20 "../../ext/ugfx/include/gwin/list.h"
 1857              		.file 21 "/usr/bin/../lib/gcc/arm-none-eabi/4.7.4/../../../../arm-none-eabi/include/string.h"
 1858              		.file 22 "../../os/ports/common/ARMCMx/CMSIS/include/core_cm4.h"