ARM GAS  /tmp/ccb96DMq.s 			page 1


   1              		.syntax unified
   2              		.cpu cortex-m4
   3              		.eabi_attribute 27, 3
   4              		.eabi_attribute 28, 1
   5              		.fpu fpv4-sp-d16
   6              		.eabi_attribute 20, 1
   7              		.eabi_attribute 21, 1
   8              		.eabi_attribute 23, 3
   9              		.eabi_attribute 24, 1
  10              		.eabi_attribute 25, 1
  11              		.eabi_attribute 26, 1
  12              		.eabi_attribute 30, 2
  13              		.eabi_attribute 34, 1
  14              		.eabi_attribute 18, 4
  15              		.thumb
  16              		.file	"mouse.c"
  17              		.text
  18              	.Ltext0:
  19              		.cfi_sections	.debug_frame
  20              		.section	.text.get_raw_reading.constprop.1,"ax",%progbits
  21              		.align	2
  22              		.p2align 4,,15
  23              		.thumb
  24              		.thumb_func
  25              		.type	get_raw_reading.constprop.1, %function
  26              	get_raw_reading.constprop.1:
  27              	.LFB134:
  28              		.file 1 "../../ext/ugfx/src/ginput/mouse.c"
  29              		.loc 1 143 0
  30              		.cfi_startproc
  31              		@ args = 0, pretend = 0, frame = 0
  32              		@ frame_needed = 0, uses_anonymous_args = 0
  33              	.LVL0:
  34 0000 F8B5     		push	{r3, r4, r5, r6, r7, lr}
  35              	.LCFI0:
  36              		.cfi_def_cfa_offset 24
  37              		.cfi_offset 3, -24
  38              		.cfi_offset 4, -20
  39              		.cfi_offset 5, -16
  40              		.cfi_offset 6, -12
  41              		.cfi_offset 7, -8
  42              		.cfi_offset 14, -4
  43              		.loc 1 449 0
  44 0002 1F4C     		ldr	r4, .L5
  45              		.loc 1 149 0
  46 0004 2046     		mov	r0, r4
  47 0006 FFF7FEFF 		bl	ginput_lld_mouse_get_reading
  48              	.LVL1:
  49 000a 2046     		mov	r0, r4
  50              		.loc 1 150 0
  51 000c B4F90050 		ldrsh	r5, [r4, #0]
  52              	.LVL2:
  53              		.loc 1 151 0
  54 0010 B4F90270 		ldrsh	r7, [r4, #2]
  55              	.LVL3:
  56              		.loc 1 152 0
  57 0014 B4F90460 		ldrsh	r6, [r4, #4]
ARM GAS  /tmp/ccb96DMq.s 			page 2


  58              	.LVL4:
  59              		.loc 1 149 0
  60 0018 FFF7FEFF 		bl	ginput_lld_mouse_get_reading
  61              	.LVL5:
  62              		.loc 1 150 0
  63 001c B4F90010 		ldrsh	r1, [r4, #0]
  64              		.loc 1 151 0
  65 0020 B4F90220 		ldrsh	r2, [r4, #2]
  66              		.loc 1 152 0
  67 0024 B4F90430 		ldrsh	r3, [r4, #4]
  68              		.loc 1 149 0
  69 0028 2046     		mov	r0, r4
  70              		.loc 1 150 0
  71 002a 6D18     		adds	r5, r5, r1
  72              	.LVL6:
  73              		.loc 1 151 0
  74 002c BF18     		adds	r7, r7, r2
  75              	.LVL7:
  76              		.loc 1 152 0
  77 002e F618     		adds	r6, r6, r3
  78              	.LVL8:
  79              		.loc 1 149 0
  80 0030 FFF7FEFF 		bl	ginput_lld_mouse_get_reading
  81              	.LVL9:
  82              		.loc 1 150 0
  83 0034 B4F90010 		ldrsh	r1, [r4, #0]
  84              		.loc 1 151 0
  85 0038 B4F90220 		ldrsh	r2, [r4, #2]
  86              		.loc 1 152 0
  87 003c B4F90430 		ldrsh	r3, [r4, #4]
  88              		.loc 1 149 0
  89 0040 2046     		mov	r0, r4
  90              		.loc 1 151 0
  91 0042 BF18     		adds	r7, r7, r2
  92              	.LVL10:
  93              		.loc 1 152 0
  94 0044 F618     		adds	r6, r6, r3
  95              	.LVL11:
  96              		.loc 1 150 0
  97 0046 6D18     		adds	r5, r5, r1
  98              	.LVL12:
  99              		.loc 1 149 0
 100 0048 FFF7FEFF 		bl	ginput_lld_mouse_get_reading
 101              	.LVL13:
 102              		.loc 1 150 0
 103 004c B4F90000 		ldrsh	r0, [r4, #0]
 104              		.loc 1 151 0
 105 0050 B4F90220 		ldrsh	r2, [r4, #2]
 106              		.loc 1 152 0
 107 0054 B4F90430 		ldrsh	r3, [r4, #4]
 108              		.loc 1 157 0
 109 0058 0949     		ldr	r1, .L5
 110              		.loc 1 156 0
 111 005a 4519     		adds	r5, r0, r5
 112              	.LVL14:
 113 005c 48BF     		it	mi
 114 005e 0335     		addmi	r5, r5, #3
ARM GAS  /tmp/ccb96DMq.s 			page 3


 115              	.LVL15:
 116              		.loc 1 151 0
 117 0060 D219     		adds	r2, r2, r7
 118              	.LVL16:
 119              		.loc 1 156 0
 120 0062 AD10     		asrs	r5, r5, #2
 121              		.loc 1 157 0
 122 0064 002A     		cmp	r2, #0
 123 0066 B8BF     		it	lt
 124 0068 0332     		addlt	r2, r2, #3
 125              	.LVL17:
 126              		.loc 1 152 0
 127 006a 9B19     		adds	r3, r3, r6
 128              	.LVL18:
 129              		.loc 1 157 0
 130 006c 9010     		asrs	r0, r2, #2
 131              		.loc 1 158 0
 132 006e 002B     		cmp	r3, #0
 133 0070 B8BF     		it	lt
 134 0072 0333     		addlt	r3, r3, #3
 135              	.LVL19:
 136 0074 024A     		ldr	r2, .L5
 137              		.loc 1 156 0
 138 0076 2580     		strh	r5, [r4, #0]	@ movhi
 139              		.loc 1 158 0
 140 0078 9B10     		asrs	r3, r3, #2
 141              		.loc 1 157 0
 142 007a 4880     		strh	r0, [r1, #2]	@ movhi
 143              		.loc 1 158 0
 144 007c 9380     		strh	r3, [r2, #4]	@ movhi
 145 007e F8BD     		pop	{r3, r4, r5, r6, r7, pc}
 146              	.L6:
 147              		.align	2
 148              	.L5:
 149 0080 00000000 		.word	.LANCHOR0
 150              		.cfi_endproc
 151              	.LFE134:
 152              		.size	get_raw_reading.constprop.1, .-get_raw_reading.constprop.1
 153 0084 AFF30080 		.section	.text.get_calibrated_reading.constprop.0,"ax",%progbits
 153      AFF30080 
 153      AFF30080 
 154              		.align	2
 155              		.p2align 4,,15
 156              		.thumb
 157              		.thumb_func
 158              		.type	get_calibrated_reading.constprop.0, %function
 159              	get_calibrated_reading.constprop.0:
 160              	.LFB135:
 161              		.loc 1 164 0
 162              		.cfi_startproc
 163              		@ args = 0, pretend = 0, frame = 0
 164              		@ frame_needed = 0, uses_anonymous_args = 0
 165              	.LVL20:
 166 0000 2DE9F041 		push	{r4, r5, r6, r7, r8, lr}
 167              	.LCFI1:
 168              		.cfi_def_cfa_offset 24
 169              		.cfi_offset 4, -24
ARM GAS  /tmp/ccb96DMq.s 			page 4


 170              		.cfi_offset 5, -20
 171              		.cfi_offset 6, -16
 172              		.cfi_offset 7, -12
 173              		.cfi_offset 8, -8
 174              		.cfi_offset 14, -4
 175              		.loc 1 169 0
 176 0004 FFF7FEFF 		bl	get_raw_reading.constprop.1
 177              	.LVL21:
 178              	.LBB8:
 179              	.LBB9:
 180              		.loc 1 100 0
 181 0008 404B     		ldr	r3, .L20
 182              	.LBE9:
 183              	.LBE8:
 184              		.loc 1 172 0
 185 000a 414A     		ldr	r2, .L20+4
 186              	.LBB13:
 187              	.LBB10:
 188              		.loc 1 100 0
 189 000c B3F90210 		ldrsh	r1, [r3, #2]
 190 0010 B3F90000 		ldrsh	r0, [r3, #0]
 191              	.LBE10:
 192              	.LBE13:
 193              		.loc 1 181 0
 194 0014 1679     		ldrb	r6, [r2, #4]	@ zero_extendqisi2
 195              		.loc 1 172 0
 196 0016 B2F800C0 		ldrh	ip, [r2, #0]
 197              	.LVL22:
 198              		.loc 1 173 0
 199 001a 5788     		ldrh	r7, [r2, #2]
 200              	.LVL23:
 201              	.LBB14:
 202              	.LBB11:
 203              		.loc 1 100 0
 204 001c 07EE901A 		fmsr	s15, r1	@ int
 205 0020 06EE100A 		fmsr	s12, r0	@ int
 206 0024 B8EEE70A 		fsitos	s0, s15
 207 0028 93ED097A 		flds	s14, [r3, #36]
 208 002c F8EEC60A 		fsitos	s1, s12
 209 0030 D3ED086A 		flds	s13, [r3, #32]
 210 0034 20EE071A 		fmuls	s2, s0, s14
 211 0038 00EEA61A 		fmacs	s2, s1, s13
 212 003c D3ED0A1A 		flds	s3, [r3, #40]
 213 0040 31EE212A 		fadds	s4, s2, s3
 214              		.loc 1 101 0
 215 0044 D3ED0C2A 		flds	s5, [r3, #48]
 216              		.loc 1 100 0
 217 0048 BDEEC23A 		ftosizs	s6, s4
 218              		.loc 1 101 0
 219 004c D3ED0B3A 		flds	s7, [r3, #44]
 220              		.loc 1 100 0
 221 0050 13EE102A 		fmrs	r2, s6	@ int
 222              	.LVL24:
 223              		.loc 1 101 0
 224 0054 14B2     		sxth	r4, r2
 225 0056 04EE104A 		fmsr	s8, r4	@ int
 226 005a F8EEC44A 		fsitos	s9, s8
ARM GAS  /tmp/ccb96DMq.s 			page 5


 227 005e 20EE225A 		fmuls	s10, s0, s5
 228 0062 04EEA35A 		fmacs	s10, s9, s7
 229 0066 D3ED0D5A 		flds	s11, [r3, #52]
 230 006a 75EE257A 		fadds	s15, s10, s11
 231              	.LBE11:
 232              	.LBE14:
 233              		.loc 1 181 0
 234 006e 022E     		cmp	r6, #2
 235              	.LBB15:
 236              	.LBB12:
 237              		.loc 1 101 0
 238 0070 BDEEE76A 		ftosizs	s12, s15
 239              		.loc 1 100 0
 240 0074 1546     		mov	r5, r2	@ movhi
 241              		.loc 1 101 0
 242 0076 16EE101A 		fmrs	r1, s12	@ int
 243              		.loc 1 100 0
 244 007a 1A80     		strh	r2, [r3, #0]	@ movhi
 245 007c 94B2     		uxth	r4, r2
 246              		.loc 1 101 0
 247 007e 8846     		mov	r8, r1	@ movhi
 248 0080 5980     		strh	r1, [r3, #2]	@ movhi
 249 0082 88B2     		uxth	r0, r1
 250              	.LBE12:
 251              	.LBE15:
 252              		.loc 1 181 0
 253 0084 38D0     		beq	.L10
 254 0086 032E     		cmp	r6, #3
 255 0088 2AD0     		beq	.L11
 256 008a 012E     		cmp	r6, #1
 257 008c 15D0     		beq	.L17
 258              	.L8:
 259              		.loc 1 206 0
 260 008e 24B2     		sxth	r4, r4
 261 0090 002C     		cmp	r4, #0
 262 0092 1CDB     		blt	.L18
 263              	.L12:
 264              		.loc 1 207 0
 265 0094 0FFA8CF2 		sxth	r2, ip
 266 0098 A242     		cmp	r2, r4
 267 009a D8BF     		it	le
 268 009c 0CF1FF3C 		addle	ip, ip, #-1
 269              		.loc 1 208 0
 270 00a0 00B2     		sxth	r0, r0
 271              		.loc 1 207 0
 272 00a2 D8BF     		it	le
 273 00a4 A3F800C0 		strhle	ip, [r3, #0]	@ movhi
 274              		.loc 1 208 0
 275 00a8 0028     		cmp	r0, #0
 276 00aa 15DB     		blt	.L19
 277              	.L14:
 278              		.loc 1 209 0
 279 00ac 3AB2     		sxth	r2, r7
 280 00ae 8242     		cmp	r2, r0
 281 00b0 01DC     		bgt	.L7
 282 00b2 013F     		subs	r7, r7, #1
 283 00b4 5F80     		strh	r7, [r3, #2]	@ movhi
ARM GAS  /tmp/ccb96DMq.s 			page 6


 284              	.L7:
 285 00b6 BDE8F081 		pop	{r4, r5, r6, r7, r8, pc}
 286              	.L17:
 287              	.LBB16:
 288              		.loc 1 187 0
 289 00ba 7A1E     		subs	r2, r7, #1
 290              		.loc 1 188 0
 291 00bc 0446     		mov	r4, r0
 292              		.loc 1 187 0
 293 00be 551B     		subs	r5, r2, r5
 294              	.LBE16:
 295              		.loc 1 206 0
 296 00c0 24B2     		sxth	r4, r4
 297              	.LBB17:
 298              		.loc 1 187 0
 299 00c2 ADB2     		uxth	r5, r5
 300              	.LBE17:
 301              		.loc 1 206 0
 302 00c4 002C     		cmp	r4, #0
 303              	.LBB18:
 304              		.loc 1 187 0
 305 00c6 5D80     		strh	r5, [r3, #2]	@ movhi
 306              		.loc 1 188 0
 307 00c8 1980     		strh	r1, [r3, #0]	@ movhi
 308 00ca 2846     		mov	r0, r5
 309              	.LBE18:
 310              		.loc 1 206 0
 311 00cc E2DA     		bge	.L12
 312              	.L18:
 313              		.loc 1 208 0
 314 00ce 00B2     		sxth	r0, r0
 315              		.loc 1 206 0
 316 00d0 0021     		movs	r1, #0
 317              		.loc 1 208 0
 318 00d2 0028     		cmp	r0, #0
 319              		.loc 1 206 0
 320 00d4 1980     		strh	r1, [r3, #0]	@ movhi
 321              		.loc 1 208 0
 322 00d6 E9DA     		bge	.L14
 323              	.L19:
 324 00d8 0021     		movs	r1, #0
 325 00da 5980     		strh	r1, [r3, #2]	@ movhi
 326 00dc BDE8F081 		pop	{r4, r5, r6, r7, r8, pc}
 327              	.L11:
 328              	.LBB19:
 329              		.loc 1 198 0
 330 00e0 0CF1FF30 		add	r0, ip, #-1
 331 00e4 C8EB0008 		rsb	r8, r8, r0
 332 00e8 1FFA88F8 		uxth	r8, r8
 333              		.loc 1 199 0
 334 00ec 2046     		mov	r0, r4
 335              		.loc 1 198 0
 336 00ee A3F80080 		strh	r8, [r3, #0]	@ movhi
 337              		.loc 1 199 0
 338 00f2 5A80     		strh	r2, [r3, #2]	@ movhi
 339 00f4 4446     		mov	r4, r8
 340 00f6 CAE7     		b	.L8
ARM GAS  /tmp/ccb96DMq.s 			page 7


 341              	.L10:
 342              	.LBE19:
 343              		.loc 1 192 0
 344 00f8 0CF1FF34 		add	r4, ip, #-1
 345              		.loc 1 193 0
 346 00fc 781E     		subs	r0, r7, #1
 347              		.loc 1 192 0
 348 00fe A21A     		subs	r2, r4, r2
 349              		.loc 1 193 0
 350 0100 411A     		subs	r1, r0, r1
 351              		.loc 1 192 0
 352 0102 94B2     		uxth	r4, r2
 353              		.loc 1 193 0
 354 0104 88B2     		uxth	r0, r1
 355              		.loc 1 192 0
 356 0106 1C80     		strh	r4, [r3, #0]	@ movhi
 357              		.loc 1 193 0
 358 0108 5880     		strh	r0, [r3, #2]	@ movhi
 359 010a C0E7     		b	.L8
 360              	.L21:
 361              		.align	2
 362              	.L20:
 363 010c 00000000 		.word	.LANCHOR0
 364 0110 00000000 		.word	GDISP
 365              		.cfi_endproc
 366              	.LFE135:
 367              		.size	get_calibrated_reading.constprop.0, .-get_calibrated_reading.constprop.0
 368 0114 AFF30080 		.section	.text.MousePoll,"ax",%progbits
 368      AFF30080 
 368      AFF30080 
 369              		.align	2
 370              		.p2align 4,,15
 371              		.thumb
 372              		.thumb_func
 373              		.type	MousePoll, %function
 374              	MousePoll:
 375              	.LFB124:
 376              		.loc 1 213 0
 377              		.cfi_startproc
 378              		@ args = 0, pretend = 0, frame = 0
 379              		@ frame_needed = 0, uses_anonymous_args = 0
 380              	.LVL25:
 381 0000 2DE9F84F 		push	{r3, r4, r5, r6, r7, r8, r9, sl, fp, lr}
 382              	.LCFI2:
 383              		.cfi_def_cfa_offset 40
 384              		.cfi_offset 3, -40
 385              		.cfi_offset 4, -36
 386              		.cfi_offset 5, -32
 387              		.cfi_offset 6, -28
 388              		.cfi_offset 7, -24
 389              		.cfi_offset 8, -20
 390              		.cfi_offset 9, -16
 391              		.cfi_offset 10, -12
 392              		.cfi_offset 11, -8
 393              		.cfi_offset 14, -4
 394              		.loc 1 223 0
 395 0004 5B4D     		ldr	r5, .L80
ARM GAS  /tmp/ccb96DMq.s 			page 8


 396 0006 EB88     		ldrh	r3, [r5, #6]
 397 0008 AB82     		strh	r3, [r5, #20]	@ movhi
 398              		.loc 1 226 0
 399 000a FFF7FEFF 		bl	get_calibrated_reading.constprop.0
 400              	.LVL26:
 401              		.loc 1 233 0
 402 000e 6888     		ldrh	r0, [r5, #2]
 403 0010 B5F90A40 		ldrsh	r4, [r5, #10]
 404              		.loc 1 232 0
 405 0014 B5F800E0 		ldrh	lr, [r5, #0]
 406 0018 B5F90870 		ldrsh	r7, [r5, #8]
 407              		.loc 1 233 0
 408 001c 01B2     		sxth	r1, r0
 409 001e 0E1B     		subs	r6, r1, r4
 410              		.loc 1 232 0
 411 0020 0FFA8EF2 		sxth	r2, lr
 412 0024 D31B     		subs	r3, r2, r7
 413              		.loc 1 233 0
 414 0026 06FB06F6 		mul	r6, r6, r6
 415              		.loc 1 232 0
 416 002a 03FB0367 		mla	r7, r3, r3, r6
 417              	.LVL27:
 418              		.loc 1 240 0
 419 002e EC8A     		ldrh	r4, [r5, #22]
 420 0030 504B     		ldr	r3, .L80
 421              		.loc 1 234 0
 422 0032 042F     		cmp	r7, #4
 423              		.loc 1 235 0
 424 0034 84BF     		itt	hi
 425 0036 A5F808E0 		strhhi	lr, [r5, #8]	@ movhi
 426              		.loc 1 236 0
 427 003a 6881     		strhhi	r0, [r5, #10]	@ movhi
 428              		.loc 1 240 0
 429 003c E607     		lsls	r6, r4, #31
 430 003e 0FD5     		bpl	.L24
 431              		.loc 1 242 0
 432 0040 B3F90EC0 		ldrsh	ip, [r3, #14]
 433              		.loc 1 241 0
 434 0044 B3F90C60 		ldrsh	r6, [r3, #12]
 435              		.loc 1 242 0
 436 0048 CCEB0101 		rsb	r1, ip, r1
 437              		.loc 1 241 0
 438 004c 921B     		subs	r2, r2, r6
 439              	.LVL28:
 440              		.loc 1 242 0
 441 004e 01FB01F1 		mul	r1, r1, r1
 442              	.LVL29:
 443              		.loc 1 241 0
 444 0052 02FB0216 		mla	r6, r2, r2, r1
 445              	.LVL30:
 446              		.loc 1 243 0
 447 0056 642E     		cmp	r6, #100
 448              		.loc 1 244 0
 449 0058 84BF     		itt	hi
 450 005a 24F00104 		bichi	r4, r4, #1
 451 005e DC82     		strhhi	r4, [r3, #22]	@ movhi
 452              	.LVL31:
ARM GAS  /tmp/ccb96DMq.s 			page 9


 453              	.L24:
 454              		.loc 1 248 0
 455 0060 E988     		ldrh	r1, [r5, #6]
 456 0062 AB8A     		ldrh	r3, [r5, #20]
 457 0064 434A     		ldr	r2, .L80
 458 0066 21EA0304 		bic	r4, r1, r3
 459              	.LVL32:
 460              		.loc 1 249 0
 461 006a 04F00109 		and	r9, r4, #1
 462              		.loc 1 251 0
 463 006e A407     		lsls	r4, r4, #30
 464              	.LVL33:
 465              		.loc 1 229 0
 466 0070 0FFA89F6 		sxth	r6, r9
 467              	.LVL34:
 468              		.loc 1 251 0
 469 0074 0BD0     		beq	.L25
 470              		.loc 1 254 0
 471 0076 404C     		ldr	r4, .L80+4
 472              		.loc 1 255 0
 473 0078 B2F81680 		ldrh	r8, [r2, #22]
 474              		.loc 1 254 0
 475 007c E468     		ldr	r4, [r4, #12]
 476              		.loc 1 252 0
 477 007e A2F80CE0 		strh	lr, [r2, #12]	@ movhi
 478              		.loc 1 255 0
 479 0082 48F0010A 		orr	sl, r8, #1
 480              		.loc 1 253 0
 481 0086 D081     		strh	r0, [r2, #14]	@ movhi
 482              		.loc 1 254 0
 483 0088 1461     		str	r4, [r2, #16]
 484              		.loc 1 255 0
 485 008a A2F816A0 		strh	sl, [r2, #22]	@ movhi
 486              	.L25:
 487              		.loc 1 259 0
 488 008e 23EA0103 		bic	r3, r3, r1
 489              	.LVL35:
 490              		.loc 1 260 0
 491 0092 13F00102 		ands	r2, r3, #1
 492              		.loc 1 261 0
 493 0096 1CBF     		itt	ne
 494 0098 49F00206 		orrne	r6, r9, #2
 495              	.LVL36:
 496 009c 36B2     		sxthne	r6, r6
 497              	.LVL37:
 498              		.loc 1 262 0
 499 009e 9807     		lsls	r0, r3, #30
 500 00a0 02D0     		beq	.L27
 501              		.loc 1 263 0
 502 00a2 E88A     		ldrh	r0, [r5, #22]
 503 00a4 C107     		lsls	r1, r0, #31
 504 00a6 52D4     		bmi	.L76
 505              	.LVL38:
 506              	.L27:
 507              		.loc 1 277 0
 508 00a8 0024     		movs	r4, #0
 509              		.loc 1 293 0
ARM GAS  /tmp/ccb96DMq.s 			page 10


 510 00aa 40F2011A 		movw	sl, #257
 511              		.loc 1 294 0
 512 00ae A146     		mov	r9, r4
 513              		.loc 1 300 0
 514 00b0 5FFA86F8 		uxtb	r8, r6
 515              	.LVL39:
 516              	.L74:
 517              		.loc 1 278 0 discriminator 1
 518 00b4 2146     		mov	r1, r4
 519 00b6 2F48     		ldr	r0, .L80
 520 00b8 FFF7FEFF 		bl	geventGetSourceListener
 521              	.LVL40:
 522 00bc 0446     		mov	r4, r0
 523 00be 0028     		cmp	r0, #0
 524 00c0 43D0     		beq	.L77
 525              		.loc 1 279 0
 526 00c2 FFF7FEFF 		bl	geventGetEventBuffer
 527              	.LVL41:
 528 00c6 0028     		cmp	r0, #0
 529 00c8 3BD0     		beq	.L78
 530              		.loc 1 286 0
 531 00ca 042F     		cmp	r7, #4
 532 00cc 37D8     		bhi	.L75
 533              		.loc 1 286 0 is_stmt 0 discriminator 1
 534 00ce E368     		ldr	r3, [r4, #12]
 535 00d0 002B     		cmp	r3, #0
 536 00d2 34D1     		bne	.L75
 537 00d4 A268     		ldr	r2, [r4, #8]
 538 00d6 0EB9     		cbnz	r6, .L34
 539 00d8 1307     		lsls	r3, r2, #28
 540 00da EBD5     		bpl	.L74
 541              	.L34:
 542              		.loc 1 290 0 is_stmt 1
 543 00dc EB88     		ldrh	r3, [r5, #6]
 544 00de D907     		lsls	r1, r3, #31
 545 00e0 26D4     		bmi	.L79
 546              		.loc 1 291 0 discriminator 1
 547 00e2 5107     		lsls	r1, r2, #29
 548 00e4 26D5     		bpl	.L39
 549              	.L38:
 550              		.loc 1 299 0
 551 00e6 A98A     		ldrh	r1, [r5, #20]
 552              		.loc 1 301 0
 553 00e8 E268     		ldr	r2, [r4, #12]
 554              		.loc 1 297 0
 555 00ea B5F804E0 		ldrh	lr, [r5, #4]
 556              		.loc 1 296 0
 557 00ee B5F802C0 		ldrh	ip, [r5, #2]
 558              		.loc 1 295 0
 559 00f2 B5F800B0 		ldrh	fp, [r5, #0]
 560              		.loc 1 294 0
 561 00f6 A0F80290 		strh	r9, [r0, #2]	@ movhi
 562              		.loc 1 293 0
 563 00fa A0F800A0 		strh	sl, [r0, #0]	@ movhi
 564              		.loc 1 295 0
 565 00fe A0F804B0 		strh	fp, [r0, #4]	@ movhi
 566              		.loc 1 296 0
ARM GAS  /tmp/ccb96DMq.s 			page 11


 567 0102 A0F806C0 		strh	ip, [r0, #6]	@ movhi
 568              		.loc 1 297 0
 569 0106 A0F808E0 		strh	lr, [r0, #8]	@ movhi
 570              		.loc 1 298 0
 571 010a 4381     		strh	r3, [r0, #10]	@ movhi
 572              		.loc 1 299 0
 573 010c 8181     		strh	r1, [r0, #12]	@ movhi
 574              		.loc 1 300 0
 575 010e 80F80E80 		strb	r8, [r0, #14]
 576              		.loc 1 301 0
 577 0112 4AB1     		cbz	r2, .L40
 578              		.loc 1 302 0
 579 0114 6FEA4343 		mvn	r3, r3, lsl #17
 580 0118 6FEA5341 		mvn	r1, r3, lsr #17
 581              		.loc 1 303 0
 582 011c 48EA0202 		orr	r2, r8, r2
 583              		.loc 1 302 0
 584 0120 4181     		strh	r1, [r0, #10]	@ movhi
 585              		.loc 1 303 0
 586 0122 8273     		strb	r2, [r0, #14]
 587              		.loc 1 304 0
 588 0124 C4F80C90 		str	r9, [r4, #12]
 589              	.L40:
 590              		.loc 1 306 0
 591 0128 2046     		mov	r0, r4
 592              	.LVL42:
 593 012a FFF7FEFF 		bl	geventSendEvent
 594              	.LVL43:
 595 012e C1E7     		b	.L74
 596              	.LVL44:
 597              	.L79:
 598              		.loc 1 290 0 discriminator 1
 599 0130 9107     		lsls	r1, r2, #30
 600 0132 D8D4     		bmi	.L38
 601              	.L39:
 602              		.loc 1 292 0
 603 0134 002E     		cmp	r6, #0
 604 0136 BDD0     		beq	.L74
 605              		.loc 1 292 0 is_stmt 0 discriminator 1
 606 0138 D207     		lsls	r2, r2, #31
 607 013a BBD5     		bpl	.L74
 608 013c D3E7     		b	.L38
 609              	.L75:
 610 013e A268     		ldr	r2, [r4, #8]
 611 0140 CCE7     		b	.L34
 612              	.L78:
 613              		.loc 1 281 0 is_stmt 1
 614 0142 E068     		ldr	r0, [r4, #12]
 615              	.LVL45:
 616 0144 3043     		orrs	r0, r0, r6
 617 0146 E060     		str	r0, [r4, #12]
 618              		.loc 1 282 0
 619 0148 B4E7     		b	.L74
 620              	.LVL46:
 621              	.L77:
 622              		.loc 1 309 0
 623 014a BDE8F88F 		pop	{r3, r4, r5, r6, r7, r8, r9, sl, fp, pc}
ARM GAS  /tmp/ccb96DMq.s 			page 12


 624              	.LVL47:
 625              	.L76:
 626              		.loc 1 264 0
 627 014e 52B1     		cbz	r2, .L28
 628              		.loc 1 266 0
 629 0150 0849     		ldr	r1, .L80
 630 0152 094C     		ldr	r4, .L80+4
 631 0154 0B69     		ldr	r3, [r1, #16]
 632              	.LVL48:
 633 0156 E268     		ldr	r2, [r4, #12]
 634 0158 D11A     		subs	r1, r2, r3
 635 015a B1F5FA7F 		cmp	r1, #500
 636 015e 02D2     		bcs	.L28
 637              		.loc 1 269 0
 638 0160 46F00406 		orr	r6, r6, #4
 639              	.LVL49:
 640 0164 01E0     		b	.L29
 641              	.L28:
 642              		.loc 1 271 0
 643 0166 46F00806 		orr	r6, r6, #8
 644              	.LVL50:
 645              	.L29:
 646              		.loc 1 272 0
 647 016a 20F00100 		bic	r0, r0, #1
 648 016e E882     		strh	r0, [r5, #22]	@ movhi
 649 0170 9AE7     		b	.L27
 650              	.L81:
 651 0172 00BF     		.align	2
 652              	.L80:
 653 0174 00000000 		.word	.LANCHOR0
 654 0178 00000000 		.word	vtlist
 655              		.cfi_endproc
 656              	.LFE124:
 657              		.size	MousePoll, .-MousePoll
 658 017c AFF30080 		.section	.text.ginputGetMouseStatus,"ax",%progbits
 659              		.align	2
 660              		.p2align 4,,15
 661              		.global	ginputGetMouseStatus
 662              		.thumb
 663              		.thumb_func
 664              		.type	ginputGetMouseStatus, %function
 665              	ginputGetMouseStatus:
 666              	.LFB126:
 667              		.loc 1 365 0
 668              		.cfi_startproc
 669              		@ args = 0, pretend = 0, frame = 0
 670              		@ frame_needed = 0, uses_anonymous_args = 0
 671              	.LVL51:
 672 0000 F8B5     		push	{r3, r4, r5, r6, r7, lr}
 673              	.LCFI3:
 674              		.cfi_def_cfa_offset 24
 675              		.cfi_offset 3, -24
 676              		.cfi_offset 4, -20
 677              		.cfi_offset 5, -16
 678              		.cfi_offset 6, -12
 679              		.cfi_offset 7, -8
 680              		.cfi_offset 14, -4
ARM GAS  /tmp/ccb96DMq.s 			page 13


 681              		.loc 1 365 0
 682 0002 0446     		mov	r4, r0
 683              		.loc 1 368 0
 684 0004 0120     		movs	r0, #1
 685              	.LVL52:
 686              		.loc 1 365 0
 687 0006 0D46     		mov	r5, r1
 688              		.loc 1 368 0
 689 0008 FFF7FEFF 		bl	gfxSleepMilliseconds
 690              	.LVL53:
 691              		.loc 1 370 0
 692 000c 3CB9     		cbnz	r4, .L86
 693              		.loc 1 370 0 is_stmt 0 discriminator 1
 694 000e 164A     		ldr	r2, .L91
 695 0010 D18A     		ldrh	r1, [r2, #22]
 696 0012 48F21003 		movw	r3, #32784
 697 0016 0B40     		ands	r3, r3, r1
 698 0018 B3F5004F 		cmp	r3, #32768
 699 001c 01D0     		beq	.L88
 700              	.L86:
 701              		.loc 1 371 0 is_stmt 1
 702 001e 0020     		movs	r0, #0
 703 0020 F8BD     		pop	{r3, r4, r5, r6, r7, pc}
 704              	.L88:
 705              		.loc 1 378 0
 706 0022 D388     		ldrh	r3, [r2, #6]
 707              		.loc 1 377 0
 708 0024 9088     		ldrh	r0, [r2, #4]
 709              		.loc 1 376 0
 710 0026 5688     		ldrh	r6, [r2, #2]
 711              		.loc 1 375 0
 712 0028 1788     		ldrh	r7, [r2, #0]
 713              		.loc 1 379 0
 714 002a 928A     		ldrh	r2, [r2, #20]
 715              		.loc 1 374 0
 716 002c 6C80     		strh	r4, [r5, #2]	@ movhi
 717              		.loc 1 380 0
 718 002e 03F00101 		and	r1, r3, #1
 719              		.loc 1 373 0
 720 0032 40F2011C 		movw	ip, #257
 721              		.loc 1 380 0
 722 0036 9143     		bics	r1, r1, r2
 723              		.loc 1 373 0
 724 0038 A5F800C0 		strh	ip, [r5, #0]	@ movhi
 725              		.loc 1 375 0
 726 003c AF80     		strh	r7, [r5, #4]	@ movhi
 727              		.loc 1 376 0
 728 003e EE80     		strh	r6, [r5, #6]	@ movhi
 729              		.loc 1 377 0
 730 0040 2881     		strh	r0, [r5, #8]	@ movhi
 731              		.loc 1 378 0
 732 0042 6B81     		strh	r3, [r5, #10]	@ movhi
 733              		.loc 1 379 0
 734 0044 AA81     		strh	r2, [r5, #12]	@ movhi
 735              		.loc 1 380 0
 736 0046 07D1     		bne	.L89
 737              		.loc 1 382 0
ARM GAS  /tmp/ccb96DMq.s 			page 14


 738 0048 02F00100 		and	r0, r2, #1
 739 004c 30EA0302 		bics	r2, r0, r3
 740 0050 05D1     		bne	.L90
 741              		.loc 1 385 0
 742 0052 AC73     		strb	r4, [r5, #14]
 743              		.loc 1 386 0
 744 0054 0120     		movs	r0, #1
 745 0056 F8BD     		pop	{r3, r4, r5, r6, r7, pc}
 746              	.L89:
 747              		.loc 1 381 0
 748 0058 0120     		movs	r0, #1
 749 005a A873     		strb	r0, [r5, #14]
 750 005c F8BD     		pop	{r3, r4, r5, r6, r7, pc}
 751              	.L90:
 752              		.loc 1 383 0
 753 005e 0223     		movs	r3, #2
 754 0060 AB73     		strb	r3, [r5, #14]
 755              		.loc 1 386 0
 756 0062 0120     		movs	r0, #1
 757 0064 F8BD     		pop	{r3, r4, r5, r6, r7, pc}
 758              	.L92:
 759 0066 00BF     		.align	2
 760              	.L91:
 761 0068 00000000 		.word	.LANCHOR0
 762              		.cfi_endproc
 763              	.LFE126:
 764              		.size	ginputGetMouseStatus, .-ginputGetMouseStatus
 765 006c AFF30080 		.section	.text.ginputCalibrateMouse,"ax",%progbits
 766              		.align	2
 767              		.p2align 4,,15
 768              		.global	ginputCalibrateMouse
 769              		.thumb
 770              		.thumb_func
 771              		.type	ginputCalibrateMouse, %function
 772              	ginputCalibrateMouse:
 773              	.LFB127:
 774              		.loc 1 389 0
 775              		.cfi_startproc
 776              		@ args = 0, pretend = 0, frame = 88
 777              		@ frame_needed = 0, uses_anonymous_args = 0
 778              	.LVL54:
 779 0000 2DE9F04F 		push	{r4, r5, r6, r7, r8, r9, sl, fp, lr}
 780              	.LCFI4:
 781              		.cfi_def_cfa_offset 36
 782              		.cfi_offset 4, -36
 783              		.cfi_offset 5, -32
 784              		.cfi_offset 6, -28
 785              		.cfi_offset 7, -24
 786              		.cfi_offset 8, -20
 787              		.cfi_offset 9, -16
 788              		.cfi_offset 10, -12
 789              		.cfi_offset 11, -8
 790              		.cfi_offset 14, -4
 791              		.loc 1 396 0
 792 0004 9F4B     		ldr	r3, .L128
 793              		.loc 1 389 0
 794 0006 2DED048B 		fstmfdd	sp!, {d8, d9}
ARM GAS  /tmp/ccb96DMq.s 			page 15


 795              	.LCFI5:
 796              		.cfi_def_cfa_offset 52
 797              		.cfi_offset 80, -52
 798              		.cfi_offset 82, -44
 799              		.loc 1 397 0
 800 000a 1A88     		ldrh	r2, [r3, #0]
 801              		.loc 1 396 0
 802 000c 5B88     		ldrh	r3, [r3, #2]
 803              	.LVL55:
 804              		.loc 1 389 0
 805 000e 9DB0     		sub	sp, sp, #116
 806              	.LCFI6:
 807              		.cfi_def_cfa_offset 168
 808              		.loc 1 398 0
 809 0010 14B2     		sxth	r4, r2
 810 0012 002C     		cmp	r4, #0
 811 0014 2146     		mov	r1, r4
 812 0016 0C94     		str	r4, [sp, #48]
 813 0018 B8BF     		it	lt
 814 001a E11C     		addlt	r1, r4, #3
 815 001c 1DB2     		sxth	r5, r3
 816              		.loc 1 389 0
 817 001e 0646     		mov	r6, r0
 818              		.loc 1 398 0
 819 0020 C1F38F00 		ubfx	r0, r1, #2, #16
 820              	.LVL56:
 821 0024 0C99     		ldr	r1, [sp, #48]
 822 0026 0E90     		str	r0, [sp, #56]
 823 0028 002D     		cmp	r5, #0
 824 002a 2F46     		mov	r7, r5
 825 002c B8BF     		it	lt
 826 002e EF1C     		addlt	r7, r5, #3
 827 0030 0029     		cmp	r1, #0
 828 0032 B8BF     		it	lt
 829 0034 0331     		addlt	r1, r1, #3
 830 0036 002D     		cmp	r5, #0
 831 0038 C7F38F04 		ubfx	r4, r7, #2, #16
 832 003c 2F46     		mov	r7, r5
 833 003e B8BF     		it	lt
 834 0040 EF1C     		addlt	r7, r5, #3
 835 0042 0D94     		str	r4, [sp, #52]
 836 0044 A3EBA703 		sub	r3, r3, r7, asr #2
 837 0048 0C9F     		ldr	r7, [sp, #48]
 838 004a ADF85000 		strh	r0, [sp, #80]	@ movhi
 839 004e A2EBA102 		sub	r2, r2, r1, asr #2
 840 0052 0D98     		ldr	r0, [sp, #52]
 841 0054 ADF85240 		strh	r4, [sp, #82]	@ movhi
 842 0058 05EBD571 		add	r1, r5, r5, lsr #31
 843 005c 94B2     		uxth	r4, r2
 844 005e 07EBD772 		add	r2, r7, r7, lsr #31
 845 0062 9BB2     		uxth	r3, r3
 846 0064 ADF85600 		strh	r0, [sp, #86]	@ movhi
 847 0068 C2F34F00 		ubfx	r0, r2, #1, #16
 848 006c C1F34F02 		ubfx	r2, r1, #1, #16
 849 0070 ADF85440 		strh	r4, [sp, #84]	@ movhi
 850 0074 ADF85840 		strh	r4, [sp, #88]	@ movhi
 851 0078 0F93     		str	r3, [sp, #60]
ARM GAS  /tmp/ccb96DMq.s 			page 16


 852 007a 1090     		str	r0, [sp, #64]
 853 007c 1192     		str	r2, [sp, #68]
 854 007e ADF85A30 		strh	r3, [sp, #90]	@ movhi
 855 0082 ADF85C00 		strh	r0, [sp, #92]	@ movhi
 856 0086 ADF85E20 		strh	r2, [sp, #94]	@ movhi
 857              		.loc 1 412 0
 858 008a 3EB9     		cbnz	r6, .L113
 859              		.loc 1 412 0 is_stmt 0 discriminator 1
 860 008c DFF808B2 		ldr	fp, .L128+20
 861 0090 BBF81610 		ldrh	r1, [fp, #22]
 862 0094 01F01003 		and	r3, r1, #16
 863 0098 98B2     		uxth	r0, r3
 864 009a 28B1     		cbz	r0, .L125
 865              	.L113:
 866              		.loc 1 413 0 is_stmt 1
 867 009c 0020     		movs	r0, #0
 868              	.LVL57:
 869              	.L124:
 870              		.loc 1 522 0
 871 009e 1DB0     		add	sp, sp, #116
 872 00a0 BDEC048B 		fldmfdd	sp!, {d8, d9}
 873 00a4 BDE8F08F 		pop	{r4, r5, r6, r7, r8, r9, sl, fp, pc}
 874              	.LVL58:
 875              	.L125:
 876              		.loc 1 415 0
 877 00a8 7748     		ldr	r0, .L128+4
 878 00aa FFF7FEFF 		bl	gdispOpenFont
 879              	.LVL59:
 880 00ae 1290     		str	r0, [sp, #72]
 881              	.LVL60:
 882              		.loc 1 416 0
 883 00b0 7648     		ldr	r0, .L128+8
 884              	.LVL61:
 885 00b2 FFF7FEFF 		bl	gdispOpenFont
 886              	.LVL62:
 887              		.loc 1 418 0
 888 00b6 BBF81670 		ldrh	r7, [fp, #22]
 889              		.loc 1 416 0
 890 00ba 1390     		str	r0, [sp, #76]
 891              	.LVL63:
 892              		.loc 1 418 0
 893 00bc 47F01002 		orr	r2, r7, #16
 894              		.loc 1 419 0
 895 00c0 7348     		ldr	r0, .L128+12
 896              	.LVL64:
 897              		.loc 1 418 0
 898 00c2 ABF81620 		strh	r2, [fp, #22]	@ movhi
 899              		.loc 1 419 0
 900 00c6 FFF7FEFF 		bl	gtimerStop
 901              	.LVL65:
 902              		.loc 1 420 0
 903 00ca BBF81610 		ldrh	r1, [fp, #22]
 904              		.loc 1 423 0
 905 00ce 0120     		movs	r0, #1
 906              		.loc 1 420 0
 907 00d0 21F06003 		bic	r3, r1, #96
 908              		.loc 1 423 0
ARM GAS  /tmp/ccb96DMq.s 			page 17


 909 00d4 3146     		mov	r1, r6
 910              		.loc 1 420 0
 911 00d6 ABF81630 		strh	r3, [fp, #22]	@ movhi
 912              		.loc 1 423 0
 913 00da FFF7FEFF 		bl	gdispControl
 914              	.LVL66:
 915              		.loc 1 427 0
 916 00de 3046     		mov	r0, r6
 917 00e0 3146     		mov	r1, r6
 918 00e2 2B46     		mov	r3, r5
 919 00e4 0C9A     		ldr	r2, [sp, #48]
 920 00e6 FFF7FEFF 		bl	gdispSetClip
 921              	.LVL67:
 922              	.LBB28:
 923              	.LBB29:
 924              		.loc 1 111 0
 925 00ea 0E9E     		ldr	r6, [sp, #56]
 926 00ec 25B2     		sxth	r5, r4
 927 00ee 34B2     		sxth	r4, r6
 928 00f0 671B     		subs	r7, r4, r5
 929 00f2 08EE905A 		fmsr	s17, r5	@ int
 930 00f6 09EE104A 		fmsr	s18, r4	@ int
 931              		.loc 1 112 0
 932 00fa 9FED668A 		flds	s16, .L128+16
 933              		.loc 1 111 0
 934 00fe 09EE907A 		fmsr	s19, r7	@ int
 935              	.LBE29:
 936              	.LBE28:
 937              		.loc 1 450 0
 938 0102 DA46     		mov	sl, fp
 939              	.L110:
 940              		.loc 1 433 0
 941 0104 1F20     		movs	r0, #31
 942 0106 FFF7FEFF 		bl	gdispClear
 943              	.LVL68:
 944              		.loc 1 435 0
 945 010a 129B     		ldr	r3, [sp, #72]
 946 010c 40F20001 		movw	r1, #:lower16:.LC2
 947 0110 4FF6FF72 		movw	r2, #65535
 948 0114 0125     		movs	r5, #1
 949 0116 C0F20001 		movt	r1, #:upper16:.LC2
 950 011a 1F26     		movs	r6, #31
 951 011c 0091     		str	r1, [sp, #0]
 952 011e 0193     		str	r3, [sp, #4]
 953 0120 0292     		str	r2, [sp, #8]
 954 0122 0020     		movs	r0, #0
 955 0124 0396     		str	r6, [sp, #12]
 956 0126 0495     		str	r5, [sp, #16]
 957 0128 0521     		movs	r1, #5
 958 012a 0C9A     		ldr	r2, [sp, #48]
 959 012c 1E23     		movs	r3, #30
 960 012e FFF7FEFF 		bl	gdispFillStringBox
 961              	.LVL69:
 962              		.loc 1 437 0
 963 0132 18AC     		add	r4, sp, #96
 964 0134 14A8     		add	r0, sp, #80
 965              		.loc 1 435 0
ARM GAS  /tmp/ccb96DMq.s 			page 18


 966 0136 0D9F     		ldr	r7, [sp, #52]
 967 0138 DDF83890 		ldr	r9, [sp, #56]
 968 013c 0B95     		str	r5, [sp, #44]
 969              		.loc 1 437 0
 970 013e 0A94     		str	r4, [sp, #40]
 971 0140 0990     		str	r0, [sp, #36]
 972              	.LVL70:
 973              	.L99:
 974              	.LBB44:
 975              	.LBB45:
 976              		.loc 1 77 0
 977 0142 1FFA89F8 		uxth	r8, r9
 978 0146 A8F10F02 		sub	r2, r8, #15
 979 014a 15B2     		sxth	r5, r2
 980 014c 39B2     		sxth	r1, r7
 981 014e 4FF6FF76 		movw	r6, #65535
 982 0152 A8F10203 		sub	r3, r8, #2
 983 0156 1AB2     		sxth	r2, r3
 984 0158 2846     		mov	r0, r5
 985 015a 0B46     		mov	r3, r1
 986 015c 0096     		str	r6, [sp, #0]
 987 015e FFF7FEFF 		bl	gdispDrawLine
 988              	.LVL71:
 989              		.loc 1 78 0
 990 0162 0999     		ldr	r1, [sp, #36]
 991 0164 0C88     		ldrh	r4, [r1, #0]
 992 0166 B1F90210 		ldrsh	r1, [r1, #2]
 993 016a 0096     		str	r6, [sp, #0]
 994 016c A01C     		adds	r0, r4, #2
 995 016e 04F10F02 		add	r2, r4, #15
 996              		.loc 1 79 0
 997 0172 BFB2     		uxth	r7, r7
 998              		.loc 1 78 0
 999 0174 0B46     		mov	r3, r1
 1000 0176 00B2     		sxth	r0, r0
 1001 0178 12B2     		sxth	r2, r2
 1002              		.loc 1 79 0
 1003 017a 0797     		str	r7, [sp, #28]
 1004              		.loc 1 78 0
 1005 017c FFF7FEFF 		bl	gdispDrawLine
 1006              	.LVL72:
 1007              		.loc 1 79 0
 1008 0180 3B46     		mov	r3, r7
 1009 0182 0F3B     		subs	r3, r3, #15
 1010 0184 1CB2     		sxth	r4, r3
 1011 0186 0FFA89F9 		sxth	r9, r9
 1012 018a BB1E     		subs	r3, r7, #2
 1013 018c 0096     		str	r6, [sp, #0]
 1014              		.loc 1 80 0
 1015 018e 3E46     		mov	r6, r7
 1016              		.loc 1 79 0
 1017 0190 4846     		mov	r0, r9
 1018 0192 4A46     		mov	r2, r9
 1019 0194 2146     		mov	r1, r4
 1020 0196 1BB2     		sxth	r3, r3
 1021              		.loc 1 80 0
 1022 0198 0237     		adds	r7, r7, #2
ARM GAS  /tmp/ccb96DMq.s 			page 19


 1023 019a 0F36     		adds	r6, r6, #15
 1024              		.loc 1 79 0
 1025 019c FFF7FEFF 		bl	gdispDrawLine
 1026              	.LVL73:
 1027              		.loc 1 80 0
 1028 01a0 36B2     		sxth	r6, r6
 1029 01a2 39B2     		sxth	r1, r7
 1030 01a4 4FF6FF77 		movw	r7, #65535
 1031 01a8 4846     		mov	r0, r9
 1032 01aa 4A46     		mov	r2, r9
 1033 01ac 3346     		mov	r3, r6
 1034 01ae 0097     		str	r7, [sp, #0]
 1035 01b0 FFF7FEFF 		bl	gdispDrawLine
 1036              	.LVL74:
 1037              		.loc 1 82 0
 1038 01b4 A8F1070C 		sub	ip, r8, #7
 1039 01b8 0FFA8CF9 		sxth	r9, ip
 1040 01bc 4BF6F047 		movw	r7, #48368
 1041 01c0 4A46     		mov	r2, r9
 1042 01c2 2846     		mov	r0, r5
 1043 01c4 3146     		mov	r1, r6
 1044 01c6 3346     		mov	r3, r6
 1045 01c8 0097     		str	r7, [sp, #0]
 1046 01ca CDF82090 		str	r9, [sp, #32]
 1047 01ce FFF7FEFF 		bl	gdispDrawLine
 1048              	.LVL75:
 1049              		.loc 1 83 0
 1050 01d2 0798     		ldr	r0, [sp, #28]
 1051 01d4 00F10701 		add	r1, r0, #7
 1052 01d8 0FFA81F9 		sxth	r9, r1
 1053 01dc 4BF6F047 		movw	r7, #48368
 1054 01e0 4946     		mov	r1, r9
 1055 01e2 2846     		mov	r0, r5
 1056 01e4 2A46     		mov	r2, r5
 1057 01e6 3346     		mov	r3, r6
 1058 01e8 0097     		str	r7, [sp, #0]
 1059 01ea FFF7FEFF 		bl	gdispDrawLine
 1060              	.LVL76:
 1061              		.loc 1 85 0
 1062 01ee DDF820C0 		ldr	ip, [sp, #32]
 1063 01f2 0097     		str	r7, [sp, #0]
 1064 01f4 6246     		mov	r2, ip
 1065 01f6 2846     		mov	r0, r5
 1066 01f8 2146     		mov	r1, r4
 1067 01fa 2346     		mov	r3, r4
 1068 01fc FFF7FEFF 		bl	gdispDrawLine
 1069              	.LVL77:
 1070              		.loc 1 86 0
 1071 0200 079B     		ldr	r3, [sp, #28]
 1072 0202 DA1F     		subs	r2, r3, #7
 1073 0204 0FFA82FC 		sxth	ip, r2
 1074 0208 4BF6F047 		movw	r7, #48368
 1075 020c 6146     		mov	r1, ip
 1076 020e 2846     		mov	r0, r5
 1077 0210 2A46     		mov	r2, r5
 1078 0212 2346     		mov	r3, r4
 1079 0214 0097     		str	r7, [sp, #0]
ARM GAS  /tmp/ccb96DMq.s 			page 20


 1080 0216 CDF820C0 		str	ip, [sp, #32]
 1081 021a FFF7FEFF 		bl	gdispDrawLine
 1082              	.LVL78:
 1083              		.loc 1 88 0
 1084 021e 08F10F01 		add	r1, r8, #15
 1085 0222 08F10700 		add	r0, r8, #7
 1086 0226 0BB2     		sxth	r3, r1
 1087 0228 4BF6F047 		movw	r7, #48368
 1088 022c 0FFA80F8 		sxth	r8, r0
 1089 0230 1A46     		mov	r2, r3
 1090 0232 0793     		str	r3, [sp, #28]
 1091 0234 4046     		mov	r0, r8
 1092 0236 3146     		mov	r1, r6
 1093 0238 3346     		mov	r3, r6
 1094 023a 0097     		str	r7, [sp, #0]
 1095 023c FFF7FEFF 		bl	gdispDrawLine
 1096              	.LVL79:
 1097              		.loc 1 89 0
 1098 0240 0798     		ldr	r0, [sp, #28]
 1099 0242 0097     		str	r7, [sp, #0]
 1100 0244 4946     		mov	r1, r9
 1101 0246 0246     		mov	r2, r0
 1102 0248 3346     		mov	r3, r6
 1103 024a FFF7FEFF 		bl	gdispDrawLine
 1104              	.LVL80:
 1105              		.loc 1 91 0
 1106 024e 4046     		mov	r0, r8
 1107 0250 2146     		mov	r1, r4
 1108 0252 079A     		ldr	r2, [sp, #28]
 1109 0254 0097     		str	r7, [sp, #0]
 1110 0256 2346     		mov	r3, r4
 1111 0258 FFF7FEFF 		bl	gdispDrawLine
 1112              	.LVL81:
 1113              		.loc 1 92 0
 1114 025c 0798     		ldr	r0, [sp, #28]
 1115 025e DDF82090 		ldr	r9, [sp, #32]
 1116 0262 0097     		str	r7, [sp, #0]
 1117 0264 2146     		mov	r1, r4
 1118 0266 0246     		mov	r2, r0
 1119 0268 4B46     		mov	r3, r9
 1120 026a FFF7FEFF 		bl	gdispDrawLine
 1121              	.LVL82:
 1122              	.L123:
 1123              	.LBE45:
 1124              	.LBE44:
 1125              		.loc 1 443 0 discriminator 1
 1126 026e FFF7FEFF 		bl	get_raw_reading.constprop.1
 1127              	.LVL83:
 1128 0272 BBF80660 		ldrh	r6, [fp, #6]
 1129 0276 F207     		lsls	r2, r6, #31
 1130 0278 52D5     		bpl	.L101
 1131              		.loc 1 443 0 is_stmt 0
 1132 027a 0026     		movs	r6, #0
 1133 027c B046     		mov	r8, r6
 1134 027e 3746     		mov	r7, r6
 1135 0280 13E0     		b	.L102
 1136              	.L129:
ARM GAS  /tmp/ccb96DMq.s 			page 21


 1137 0282 00BF     		.align	2
 1138              	.L128:
 1139 0284 00000000 		.word	GDISP
 1140 0288 00000000 		.word	.LC0
 1141 028c 0C000000 		.word	.LC1
 1142 0290 00000000 		.word	.LANCHOR1
 1143 0294 00000000 		.word	0
 1144 0298 00000000 		.word	.LANCHOR0
 1145              	.LVL84:
 1146              	.L103:
 1147              		.loc 1 452 0 is_stmt 1
 1148 029c BAF90000 		ldrsh	r0, [sl, #0]
 1149              		.loc 1 453 0
 1150 02a0 BAF90230 		ldrsh	r3, [sl, #2]
 1151              		.loc 1 452 0
 1152 02a4 3F18     		adds	r7, r7, r0
 1153              	.LVL85:
 1154              		.loc 1 453 0
 1155 02a6 9844     		add	r8, r8, r3
 1156              	.LVL86:
 1157              		.loc 1 451 0
 1158 02a8 0136     		adds	r6, r6, #1
 1159              	.LVL87:
 1160              	.L102:
 1161              		.loc 1 448 0 discriminator 1
 1162 02aa 1420     		movs	r0, #20
 1163 02ac FFF7FEFF 		bl	gfxSleepMilliseconds
 1164              	.LVL88:
 1165              		.loc 1 449 0 discriminator 1
 1166 02b0 FFF7FEFF 		bl	get_raw_reading.constprop.1
 1167              	.LVL89:
 1168              		.loc 1 450 0 discriminator 1
 1169 02b4 BBF80620 		ldrh	r2, [fp, #6]
 1170              		.loc 1 447 0 discriminator 1
 1171 02b8 12F00100 		ands	r0, r2, #1
 1172 02bc EED1     		bne	.L103
 1173              		.loc 1 456 0
 1174 02be 002E     		cmp	r6, #0
 1175 02c0 D5D0     		beq	.L123
 1176 02c2 4346     		mov	r3, r8
 1177              		.loc 1 459 0
 1178 02c4 B3FBF6FC 		udiv	ip, r3, r6
 1179              		.loc 1 458 0
 1180 02c8 B7FBF6F7 		udiv	r7, r7, r6
 1181              	.LVL90:
 1182 02cc 8046     		mov	r8, r0
 1183              	.LVL91:
 1184              	.LBB46:
 1185              	.LBB47:
 1186              		.loc 1 96 0
 1187 02ce 2846     		mov	r0, r5
 1188              	.LBE47:
 1189              	.LBE46:
 1190              		.loc 1 458 0
 1191 02d0 0A9D     		ldr	r5, [sp, #40]
 1192              	.LBB51:
 1193              	.LBB48:
ARM GAS  /tmp/ccb96DMq.s 			page 22


 1194              		.loc 1 96 0
 1195 02d2 2A22     		movs	r2, #42
 1196 02d4 1F26     		movs	r6, #31
 1197              	.LVL92:
 1198              	.LBE48:
 1199              	.LBE51:
 1200              		.loc 1 459 0
 1201 02d6 1FFA8CF9 		uxth	r9, ip
 1202              		.loc 1 458 0
 1203 02da BFB2     		uxth	r7, r7
 1204              	.LBB52:
 1205              	.LBB49:
 1206              		.loc 1 96 0
 1207 02dc 0096     		str	r6, [sp, #0]
 1208 02de 2146     		mov	r1, r4
 1209 02e0 1346     		mov	r3, r2
 1210              	.LVL93:
 1211              	.LBE49:
 1212              	.LBE52:
 1213              		.loc 1 458 0
 1214 02e2 2F80     		strh	r7, [r5, #0]	@ movhi
 1215              		.loc 1 459 0
 1216 02e4 A5F80290 		strh	r9, [r5, #2]	@ movhi
 1217              	.LVL94:
 1218              	.LBB53:
 1219              	.LBB50:
 1220              		.loc 1 96 0
 1221 02e8 FFF7FEFF 		bl	gdispFillArea
 1222              	.LVL95:
 1223              	.LBE50:
 1224              	.LBE53:
 1225              		.loc 1 463 0
 1226 02ec 0B9C     		ldr	r4, [sp, #44]
 1227 02ee 012C     		cmp	r4, #1
 1228 02f0 1AD0     		beq	.L105
 1229              		.loc 1 463 0 is_stmt 0 discriminator 1
 1230 02f2 0A9D     		ldr	r5, [sp, #40]
 1231 02f4 35F8044C 		ldrh	r4, [r5, #-4]
 1232 02f8 A742     		cmp	r7, r4
 1233 02fa 00F0FD80 		beq	.L126
 1234              	.L106:
 1235              	.LVL96:
 1236              		.loc 1 437 0 is_stmt 1
 1237 02fe 0B9E     		ldr	r6, [sp, #44]
 1238 0300 042E     		cmp	r6, #4
 1239 0302 17D0     		beq	.L107
 1240 0304 0A9D     		ldr	r5, [sp, #40]
 1241 0306 099F     		ldr	r7, [sp, #36]
 1242 0308 2E1D     		adds	r6, r5, #4
 1243              	.LVL97:
 1244 030a 0A96     		str	r6, [sp, #40]
 1245 030c 3B1D     		adds	r3, r7, #4
 1246              	.LVL98:
 1247              	.L108:
 1248 030e 0B99     		ldr	r1, [sp, #44]
 1249 0310 099C     		ldr	r4, [sp, #36]
 1250              		.loc 1 494 0
ARM GAS  /tmp/ccb96DMq.s 			page 23


 1251 0312 0993     		str	r3, [sp, #36]
 1252 0314 4A1C     		adds	r2, r1, #1
 1253 0316 B4F80490 		ldrh	r9, [r4, #4]
 1254 031a E788     		ldrh	r7, [r4, #6]
 1255 031c 0B92     		str	r2, [sp, #44]
 1256 031e 10E7     		b	.L99
 1257              	.LVL99:
 1258              	.L101:
 1259              		.loc 1 444 0
 1260 0320 1420     		movs	r0, #20
 1261 0322 FFF7FEFF 		bl	gfxSleepMilliseconds
 1262              	.LVL100:
 1263 0326 A2E7     		b	.L123
 1264              	.LVL101:
 1265              	.L105:
 1266              		.loc 1 437 0
 1267 0328 0A9A     		ldr	r2, [sp, #40]
 1268 032a 0999     		ldr	r1, [sp, #36]
 1269 032c 101D     		adds	r0, r2, #4
 1270 032e 0A90     		str	r0, [sp, #40]
 1271              	.LVL102:
 1272 0330 0B1D     		adds	r3, r1, #4
 1273              	.LVL103:
 1274 0332 ECE7     		b	.L108
 1275              	.LVL104:
 1276              	.L107:
 1277              	.LBB54:
 1278              	.LBB30:
 1279              		.loc 1 108 0
 1280 0334 BDF96820 		ldrsh	r2, [sp, #104]
 1281              		.loc 1 109 0
 1282 0338 BDF96270 		ldrsh	r7, [sp, #98]
 1283              		.loc 1 108 0
 1284 033c BDF96A30 		ldrsh	r3, [sp, #106]
 1285 0340 BDF96060 		ldrsh	r6, [sp, #96]
 1286              	.LVL105:
 1287 0344 BDF96600 		ldrsh	r0, [sp, #102]
 1288              		.loc 1 109 0
 1289 0348 BDF964E0 		ldrsh	lr, [sp, #100]
 1290              	.LBE30:
 1291              	.LBE54:
 1292              	.LBB55:
 1293              	.LBB56:
 1294              		.loc 1 100 0
 1295 034c BDF96E40 		ldrsh	r4, [sp, #110]
 1296 0350 BDF96C10 		ldrsh	r1, [sp, #108]
 1297              	.LBE56:
 1298              	.LBE55:
 1299              	.LBB68:
 1300              	.LBB31:
 1301              		.loc 1 132 0
 1302 0354 944D     		ldr	r5, .L130
 1303              		.loc 1 117 0
 1304 0356 01EE102A 		fmsr	s2, r2	@ int
 1305              		.loc 1 118 0
 1306 035a 05EE107A 		fmsr	s10, r7	@ int
 1307              		.loc 1 117 0
ARM GAS  /tmp/ccb96DMq.s 			page 24


 1308 035e 06EE103A 		fmsr	s12, r3	@ int
 1309 0362 07EE100A 		fmsr	s14, r0	@ int
 1310              		.loc 1 118 0
 1311 0366 00EE106A 		fmsr	s0, r6	@ int
 1312 036a F8EEC52A 		fsitos	s5, s10
 1313              		.loc 1 117 0
 1314 036e F8EEC15A 		fsitos	s11, s2
 1315              		.loc 1 109 0
 1316 0372 FF1A     		subs	r7, r7, r3
 1317              		.loc 1 117 0
 1318 0374 00EE90EA 		fmsr	s1, lr	@ int
 1319              		.loc 1 109 0
 1320 0378 C2EB0E0C 		rsb	ip, r2, lr
 1321              		.loc 1 117 0
 1322 037c F8EEC67A 		fsitos	s15, s12
 1323 0380 F8EEC71A 		fsitos	s3, s14
 1324              		.loc 1 118 0
 1325 0384 B8EEC02A 		fsitos	s4, s0
 1326              		.loc 1 108 0
 1327 0388 B21A     		subs	r2, r6, r2
 1328 038a C31A     		subs	r3, r0, r3
 1329              		.loc 1 109 0
 1330 038c 04EE907A 		fmsr	s9, r7	@ int
 1331 0390 04EE10CA 		fmsr	s8, ip	@ int
 1332              		.loc 1 117 0
 1333 0394 B8EEE00A 		fsitos	s0, s1
 1334              		.loc 1 118 0
 1335 0398 25EEA27A 		fmuls	s14, s11, s5
 1336              		.loc 1 108 0
 1337 039c 03EE102A 		fmsr	s6, r2	@ int
 1338 03a0 03EE903A 		fmsr	s7, r3	@ int
 1339              		.loc 1 118 0
 1340 03a4 17EE827A 		fmscs	s14, s15, s4
 1341              		.loc 1 109 0
 1342 03a8 B8EEC44A 		fsitos	s8, s8
 1343 03ac F8EEE44A 		fsitos	s9, s9
 1344              		.loc 1 111 0
 1345 03b0 F8EEE96A 		fsitos	s13, s19
 1346              		.loc 1 117 0
 1347 03b4 65EEA15A 		fmuls	s11, s11, s3
 1348 03b8 50EE275A 		fmscs	s11, s0, s15
 1349              		.loc 1 108 0
 1350 03bc B8EEC33A 		fsitos	s6, s6
 1351 03c0 F8EEE33A 		fsitos	s7, s7
 1352              		.loc 1 118 0
 1353 03c4 B8EEE81A 		fsitos	s2, s17
 1354              		.loc 1 109 0
 1355 03c8 64EE247A 		fmuls	s15, s8, s9
 1356              		.loc 1 115 0
 1357 03cc 24EE265A 		fmuls	s10, s8, s13
 1358              		.loc 1 108 0
 1359 03d0 53EE237A 		fmscs	s15, s6, s7
 1360              	.LVL106:
 1361              		.loc 1 119 0
 1362 03d4 20EE226A 		fmuls	s12, s0, s5
 1363              		.loc 1 114 0
 1364 03d8 13EE085A 		fmscs	s10, s6, s16
ARM GAS  /tmp/ccb96DMq.s 			page 25


 1365              		.loc 1 112 0
 1366 03dc 64EE882A 		fmuls	s5, s9, s16
 1367              		.loc 1 117 0
 1368 03e0 F8EEC90A 		fsitos	s1, s18
 1369              		.loc 1 119 0
 1370 03e4 11EE826A 		fmscs	s12, s3, s4
 1371              	.LVL107:
 1372              		.loc 1 111 0
 1373 03e8 53EEA62A 		fmscs	s5, s7, s13
 1374              		.loc 1 118 0
 1375 03ec 61EE071A 		fmuls	s3, s2, s14
 1376              		.loc 1 117 0
 1377 03f0 50EEA51A 		fmscs	s3, s1, s11
 1378              		.loc 1 121 0
 1379 03f4 0F9E     		ldr	r6, [sp, #60]
 1380 03f6 0D98     		ldr	r0, [sp, #52]
 1381              	.LBE31:
 1382              	.LBE68:
 1383              		.loc 1 487 0
 1384 03f8 119B     		ldr	r3, [sp, #68]
 1385              	.LBB69:
 1386              	.LBB32:
 1387              		.loc 1 133 0
 1388 03fa 85EE272A 		fdivs	s4, s10, s15
 1389              		.loc 1 121 0
 1390 03fe 32B2     		sxth	r2, r6
 1391 0400 06B2     		sxth	r6, r0
 1392 0402 B71A     		subs	r7, r6, r2
 1393              	.LBE32:
 1394              	.LBE69:
 1395              		.loc 1 487 0
 1396 0404 18B2     		sxth	r0, r3
 1397              	.LBB70:
 1398              	.LBB33:
 1399              		.loc 1 132 0
 1400 0406 C2EEA72A 		fdivs	s5, s5, s15
 1401              		.loc 1 117 0
 1402 040a 41EE061A 		fmacs	s3, s2, s12
 1403              		.loc 1 127 0
 1404 040e 01EE106A 		fmsr	s2, r6	@ int
 1405              		.loc 1 121 0
 1406 0412 00EE107A 		fmsr	s0, r7	@ int
 1407              		.loc 1 127 0
 1408 0416 F8EEC10A 		fsitos	s1, s2
 1409              		.loc 1 134 0
 1410 041a C1EEA76A 		fdivs	s13, s3, s15
 1411              	.LBE33:
 1412              	.LBE70:
 1413              		.loc 1 486 0
 1414 041e 109F     		ldr	r7, [sp, #64]
 1415 0420 3FB2     		sxth	r7, r7
 1416              	.LBB71:
 1417              	.LBB34:
 1418              		.loc 1 121 0
 1419 0422 B8EEC05A 		fsitos	s10, s0
 1420              	.LVL108:
 1421              		.loc 1 128 0
ARM GAS  /tmp/ccb96DMq.s 			page 26


 1422 0426 27EE207A 		fmuls	s14, s14, s1
 1423              	.LVL109:
 1424              		.loc 1 127 0
 1425 042a 15EEA07A 		fmscs	s14, s11, s1
 1426              		.loc 1 129 0
 1427 042e 05EE902A 		fmsr	s11, r2	@ int
 1428              	.LVL110:
 1429              		.loc 1 125 0
 1430 0432 24EE054A 		fmuls	s8, s8, s10
 1431              	.LVL111:
 1432              		.loc 1 124 0
 1433 0436 13EE054A 		fmscs	s8, s6, s10
 1434              	.LVL112:
 1435              		.loc 1 129 0
 1436 043a B8EEE53A 		fsitos	s6, s11
 1437              		.loc 1 122 0
 1438 043e 64EE854A 		fmuls	s9, s9, s10
 1439              	.LVL113:
 1440              		.loc 1 127 0
 1441 0442 06EE037A 		fmacs	s14, s12, s6
 1442              	.LBE34:
 1443              	.LBE71:
 1444              	.LBB72:
 1445              	.LBB57:
 1446              		.loc 1 100 0
 1447 0446 06EE104A 		fmsr	s12, r4	@ int
 1448              	.LVL114:
 1449              	.LBE57:
 1450              	.LBE72:
 1451              	.LBB73:
 1452              	.LBB35:
 1453              		.loc 1 121 0
 1454 044a 53EE854A 		fmscs	s9, s7, s10
 1455              	.LVL115:
 1456              	.LBE35:
 1457              	.LBE73:
 1458              	.LBB74:
 1459              	.LBB58:
 1460              		.loc 1 100 0
 1461 044e 05EE101A 		fmsr	s10, r1	@ int
 1462 0452 B8EEC60A 		fsitos	s0, s12
 1463 0456 B8EEC51A 		fsitos	s2, s10
 1464              	.LBE58:
 1465              	.LBE74:
 1466              	.LBB75:
 1467              	.LBB36:
 1468              		.loc 1 137 0
 1469 045a C4EE273A 		fdivs	s7, s8, s15
 1470              	.LBE36:
 1471              	.LBE75:
 1472              	.LBB76:
 1473              	.LBB59:
 1474              		.loc 1 100 0
 1475 045e 62EE000A 		fmuls	s1, s4, s0
 1476              	.LBE59:
 1477              	.LBE76:
 1478              	.LBB77:
ARM GAS  /tmp/ccb96DMq.s 			page 27


 1479              	.LBB37:
 1480              		.loc 1 136 0
 1481 0462 C4EEA71A 		fdivs	s3, s9, s15
 1482              	.LBE37:
 1483              	.LBE77:
 1484              	.LBB78:
 1485              	.LBB60:
 1486              		.loc 1 100 0
 1487 0466 42EE810A 		fmacs	s1, s5, s2
 1488              	.LBE60:
 1489              	.LBE78:
 1490              	.LBB79:
 1491              	.LBB38:
 1492              		.loc 1 138 0
 1493 046a C7EE277A 		fdivs	s15, s14, s15
 1494              	.LVL116:
 1495              	.LBE38:
 1496              	.LBE79:
 1497              	.LBB80:
 1498              	.LBB61:
 1499              		.loc 1 100 0
 1500 046e 76EEA04A 		fadds	s9, s13, s1
 1501              	.LVL117:
 1502              	.LBE61:
 1503              	.LBE80:
 1504              	.LBB81:
 1505              	.LBB39:
 1506              		.loc 1 132 0
 1507 0472 CBED082A 		fsts	s5, [fp, #32]
 1508              	.LBE39:
 1509              	.LBE81:
 1510              	.LBB82:
 1511              	.LBB62:
 1512              		.loc 1 100 0
 1513 0476 FDEEE42A 		ftosizs	s5, s9
 1514              	.LBE62:
 1515              	.LBE82:
 1516              	.LBB83:
 1517              	.LBB40:
 1518              		.loc 1 133 0
 1519 047a 8BED092A 		fsts	s4, [fp, #36]
 1520              	.LBE40:
 1521              	.LBE83:
 1522              	.LBB84:
 1523              	.LBB63:
 1524              		.loc 1 100 0
 1525 047e 12EE903A 		fmrs	r3, s5	@ int
 1526              		.loc 1 101 0
 1527 0482 1CB2     		sxth	r4, r3
 1528 0484 02EE104A 		fmsr	s4, r4	@ int
 1529 0488 B8EEC27A 		fsitos	s14, s4
 1530 048c 23EE804A 		fmuls	s8, s7, s0
 1531              	.LVL118:
 1532 0490 01EE874A 		fmacs	s8, s3, s14
 1533              	.LBE63:
 1534              	.LBE84:
 1535              	.LBB85:
ARM GAS  /tmp/ccb96DMq.s 			page 28


 1536              	.LBB41:
 1537              		.loc 1 134 0
 1538 0494 CBED0A6A 		fsts	s13, [fp, #40]
 1539              	.LBE41:
 1540              	.LBE85:
 1541              	.LBB86:
 1542              	.LBB64:
 1543              		.loc 1 101 0
 1544 0498 77EE846A 		fadds	s13, s15, s8
 1545              	.LBE64:
 1546              	.LBE86:
 1547              		.loc 1 486 0
 1548 049c E11B     		subs	r1, r4, r7
 1549              	.LBB87:
 1550              	.LBB65:
 1551              		.loc 1 101 0
 1552 049e FDEEE65A 		ftosizs	s11, s13
 1553              	.LBE65:
 1554              	.LBE87:
 1555              	.LBB88:
 1556              	.LBB42:
 1557              		.loc 1 136 0
 1558 04a2 CBED0B1A 		fsts	s3, [fp, #44]
 1559              	.LBE42:
 1560              	.LBE88:
 1561              	.LBB89:
 1562              	.LBB66:
 1563              		.loc 1 101 0
 1564 04a6 15EE902A 		fmrs	r2, s11	@ int
 1565              	.LVL119:
 1566              	.LBE66:
 1567              	.LBE89:
 1568              		.loc 1 487 0
 1569 04aa 14B2     		sxth	r4, r2
 1570 04ac 201A     		subs	r0, r4, r0
 1571 04ae 00FB00F0 		mul	r0, r0, r0
 1572              		.loc 1 486 0
 1573 04b2 01FB0101 		mla	r1, r1, r1, r0
 1574              		.loc 1 489 0
 1575 04b6 1929     		cmp	r1, #25
 1576              	.LBB90:
 1577              	.LBB43:
 1578              		.loc 1 137 0
 1579 04b8 CBED0C3A 		fsts	s7, [fp, #48]
 1580              		.loc 1 138 0
 1581 04bc CBED0D7A 		fsts	s15, [fp, #52]
 1582              	.LVL120:
 1583              	.LBE43:
 1584              	.LBE90:
 1585              	.LBB91:
 1586              	.LBB67:
 1587              		.loc 1 100 0
 1588 04c0 ABF80030 		strh	r3, [fp, #0]	@ movhi
 1589              		.loc 1 101 0
 1590 04c4 ABF80220 		strh	r2, [fp, #2]	@ movhi
 1591              	.LBE67:
 1592              	.LBE91:
ARM GAS  /tmp/ccb96DMq.s 			page 29


 1593              		.loc 1 489 0
 1594 04c8 3CD9     		bls	.L109
 1595              		.loc 1 492 0
 1596 04ca 139D     		ldr	r5, [sp, #76]
 1597 04cc 374E     		ldr	r6, .L130+4
 1598              	.LVL121:
 1599 04ce 0195     		str	r5, [sp, #4]
 1600 04d0 4FF47847 		mov	r7, #63488
 1601              	.LVL122:
 1602 04d4 07F5FC63 		add	r3, r7, #2016
 1603 04d8 0122     		movs	r2, #1
 1604 04da 0393     		str	r3, [sp, #12]
 1605 04dc 0492     		str	r2, [sp, #16]
 1606 04de 0020     		movs	r0, #0
 1607 04e0 0096     		str	r6, [sp, #0]
 1608 04e2 0297     		str	r7, [sp, #8]
 1609 04e4 2321     		movs	r1, #35
 1610 04e6 0C9A     		ldr	r2, [sp, #48]
 1611 04e8 2823     		movs	r3, #40
 1612 04ea FFF7FEFF 		bl	gdispFillStringBox
 1613              	.LVL123:
 1614              		.loc 1 493 0
 1615 04ee 41F28830 		movw	r0, #5000
 1616 04f2 FFF7FEFF 		bl	gfxSleepMilliseconds
 1617              	.LVL124:
 1618              		.loc 1 494 0
 1619 04f6 05E6     		b	.L110
 1620              	.LVL125:
 1621              	.L126:
 1622              		.loc 1 463 0 discriminator 1
 1623 04f8 35F8027C 		ldrh	r7, [r5, #-2]
 1624 04fc B945     		cmp	r9, r7
 1625 04fe 7FF4FEAE 		bne	.L106
 1626              		.loc 1 464 0
 1627 0502 139C     		ldr	r4, [sp, #76]
 1628 0504 0C9A     		ldr	r2, [sp, #48]
 1629 0506 0194     		str	r4, [sp, #4]
 1630 0508 40F20005 		movw	r5, #:lower16:.LC3
 1631 050c 4FF47847 		mov	r7, #63488
 1632 0510 C0F20005 		movt	r5, #:upper16:.LC3
 1633 0514 0095     		str	r5, [sp, #0]
 1634 0516 0124     		movs	r4, #1
 1635 0518 07F5FC65 		add	r5, r7, #2016
 1636 051c 2321     		movs	r1, #35
 1637 051e 2823     		movs	r3, #40
 1638 0520 4046     		mov	r0, r8
 1639 0522 0297     		str	r7, [sp, #8]
 1640 0524 0395     		str	r5, [sp, #12]
 1641 0526 0494     		str	r4, [sp, #16]
 1642 0528 FFF7FEFF 		bl	gdispFillStringBox
 1643              	.LVL126:
 1644              		.loc 1 465 0
 1645 052c 41F28830 		movw	r0, #5000
 1646 0530 FFF7FEFF 		bl	gfxSleepMilliseconds
 1647              	.LVL127:
 1648              		.loc 1 466 0
 1649 0534 0096     		str	r6, [sp, #0]
ARM GAS  /tmp/ccb96DMq.s 			page 30


 1650 0536 4046     		mov	r0, r8
 1651 0538 2321     		movs	r1, #35
 1652 053a 0C9A     		ldr	r2, [sp, #48]
 1653 053c 2823     		movs	r3, #40
 1654 053e FFF7FEFF 		bl	gdispFillArea
 1655              	.LVL128:
 1656 0542 DCE6     		b	.L106
 1657              	.LVL129:
 1658              	.L109:
 1659              		.loc 1 498 0
 1660 0544 1298     		ldr	r0, [sp, #72]
 1661 0546 FFF7FEFF 		bl	gdispCloseFont
 1662              	.LVL130:
 1663              		.loc 1 499 0
 1664 054a 1398     		ldr	r0, [sp, #76]
 1665 054c FFF7FEFF 		bl	gdispCloseFont
 1666              	.LVL131:
 1667              		.loc 1 500 0
 1668 0550 E88A     		ldrh	r0, [r5, #22]
 1669              		.loc 1 501 0
 1670 0552 0024     		movs	r4, #0
 1671              		.loc 1 500 0
 1672 0554 40F02001 		orr	r1, r0, #32
 1673 0558 E982     		strh	r1, [r5, #22]	@ movhi
 1674              		.loc 1 501 0
 1675 055a AC82     		strh	r4, [r5, #20]	@ movhi
 1676              		.loc 1 502 0
 1677 055c FFF7FEFF 		bl	get_calibrated_reading.constprop.0
 1678              	.LVL132:
 1679              		.loc 1 503 0
 1680 0560 EB8A     		ldrh	r3, [r5, #22]
 1681 0562 23F01002 		bic	r2, r3, #16
 1682 0566 1004     		lsls	r0, r2, #16
 1683 0568 010C     		lsrs	r1, r0, #16
 1684              		.loc 1 504 0
 1685 056a 0B04     		lsls	r3, r1, #16
 1686              		.loc 1 503 0
 1687 056c E982     		strh	r1, [r5, #22]	@ movhi
 1688              		.loc 1 504 0
 1689 056e 12D4     		bmi	.L127
 1690              	.L111:
 1691              		.loc 1 508 0
 1692 0570 DBF81830 		ldr	r3, [fp, #24]
 1693 0574 0C4C     		ldr	r4, .L130
 1694 0576 43B1     		cbz	r3, .L112
 1695              		.loc 1 509 0
 1696 0578 0020     		movs	r0, #0
 1697 057a 1822     		movs	r2, #24
 1698 057c 04F12001 		add	r1, r4, #32
 1699 0580 9847     		blx	r3
 1700              	.LVL133:
 1701              		.loc 1 510 0
 1702 0582 E28A     		ldrh	r2, [r4, #22]
 1703 0584 42F04000 		orr	r0, r2, #64
 1704 0588 E082     		strh	r0, [r4, #22]	@ movhi
 1705              	.L112:
 1706              		.loc 1 515 0
ARM GAS  /tmp/ccb96DMq.s 			page 31


 1707 058a FFF7FEFF 		bl	gwinGetDefaultBgColor
 1708              	.LVL134:
 1709 058e FFF7FEFF 		bl	gdispClear
 1710              	.LVL135:
 1711              		.loc 1 520 0
 1712 0592 0120     		movs	r0, #1
 1713 0594 83E5     		b	.L124
 1714              	.L127:
 1715              		.loc 1 505 0
 1716 0596 1923     		movs	r3, #25
 1717 0598 0093     		str	r3, [sp, #0]
 1718 059a 0548     		ldr	r0, .L130+8
 1719 059c 0549     		ldr	r1, .L130+12
 1720 059e 2246     		mov	r2, r4
 1721 05a0 0123     		movs	r3, #1
 1722 05a2 FFF7FEFF 		bl	gtimerStart
 1723              	.LVL136:
 1724 05a6 E3E7     		b	.L111
 1725              	.L131:
 1726              		.align	2
 1727              	.L130:
 1728 05a8 00000000 		.word	.LANCHOR0
 1729 05ac 48000000 		.word	.LC4
 1730 05b0 00000000 		.word	.LANCHOR1
 1731 05b4 00000000 		.word	MousePoll
 1732              		.cfi_endproc
 1733              	.LFE127:
 1734              		.size	ginputCalibrateMouse, .-ginputCalibrateMouse
 1735 05b8 AFF30080 		.section	.text.ginputGetMouse,"ax",%progbits
 1735      AFF30080 
 1736              		.align	2
 1737              		.p2align 4,,15
 1738              		.global	ginputGetMouse
 1739              		.thumb
 1740              		.thumb_func
 1741              		.type	ginputGetMouse, %function
 1742              	ginputGetMouse:
 1743              	.LFB125:
 1744              		.loc 1 311 0
 1745              		.cfi_startproc
 1746              		@ args = 0, pretend = 0, frame = 0
 1747              		@ frame_needed = 0, uses_anonymous_args = 0
 1748              	.LVL137:
 1749 0000 F0B5     		push	{r4, r5, r6, r7, lr}
 1750              	.LCFI7:
 1751              		.cfi_def_cfa_offset 20
 1752              		.cfi_offset 4, -20
 1753              		.cfi_offset 5, -16
 1754              		.cfi_offset 6, -12
 1755              		.cfi_offset 7, -8
 1756              		.cfi_offset 14, -4
 1757              		.loc 1 319 0
 1758 0002 0546     		mov	r5, r0
 1759              		.loc 1 311 0
 1760 0004 83B0     		sub	sp, sp, #12
 1761              	.LCFI8:
 1762              		.cfi_def_cfa_offset 32
ARM GAS  /tmp/ccb96DMq.s 			page 32


 1763              		.loc 1 319 0
 1764 0006 18B1     		cbz	r0, .L133
 1765              		.loc 1 319 0 is_stmt 0 discriminator 1
 1766 0008 42F20F73 		movw	r3, #9999
 1767 000c 9842     		cmp	r0, r3
 1768 000e 4DD1     		bne	.L138
 1769              	.L133:
 1770              		.loc 1 323 0 is_stmt 1
 1771 0010 294C     		ldr	r4, .L154
 1772 0012 B4F91600 		ldrsh	r0, [r4, #22]
 1773              	.LVL138:
 1774 0016 0028     		cmp	r0, #0
 1775 0018 38DB     		blt	.L139
 1776              		.loc 1 324 0
 1777 001a FFF7FEFF 		bl	ginput_lld_mouse_init
 1778              	.LVL139:
 1779              		.loc 1 335 0
 1780 001e E169     		ldr	r1, [r4, #28]
 1781 0020 0029     		cmp	r1, #0
 1782 0022 2BD0     		beq	.L135
 1783              		.loc 1 335 0 is_stmt 0 discriminator 1
 1784 0024 2846     		mov	r0, r5
 1785 0026 8847     		blx	r1
 1786              	.LVL140:
 1787 0028 0746     		mov	r7, r0
 1788 002a 0028     		cmp	r0, #0
 1789 002c 26D0     		beq	.L135
 1790              		.loc 1 336 0 is_stmt 1
 1791 002e 0646     		mov	r6, r0
 1792 0030 0FCE     		ldmia	r6!, {r0, r1, r2, r3}
 1793              	.LVL141:
 1794 0032 04F12005 		add	r5, r4, #32
 1795 0036 0FC5     		stmia	r5!, {r0, r1, r2, r3}
 1796              		.loc 1 337 0
 1797 0038 E38A     		ldrh	r3, [r4, #22]
 1798              		.loc 1 336 0
 1799 003a 96E80300 		ldmia	r6, {r0, r1}
 1800              		.loc 1 338 0
 1801 003e 03F08002 		and	r2, r3, #128
 1802              		.loc 1 337 0
 1803 0042 43F06006 		orr	r6, r3, #96
 1804              		.loc 1 338 0
 1805 0046 93B2     		uxth	r3, r2
 1806              		.loc 1 336 0
 1807 0048 85E80300 		stmia	r5, {r0, r1}
 1808              		.loc 1 337 0
 1809 004c E682     		strh	r6, [r4, #22]	@ movhi
 1810              		.loc 1 338 0
 1811 004e 002B     		cmp	r3, #0
 1812 0050 2ED1     		bne	.L152
 1813              	.LVL142:
 1814              	.L136:
 1815              		.loc 1 353 0
 1816 0052 0025     		movs	r5, #0
 1817 0054 A582     		strh	r5, [r4, #20]	@ movhi
 1818              		.loc 1 354 0
 1819 0056 FFF7FEFF 		bl	get_calibrated_reading.constprop.0
ARM GAS  /tmp/ccb96DMq.s 			page 33


 1820              	.LVL143:
 1821              		.loc 1 357 0
 1822 005a E28A     		ldrh	r2, [r4, #22]
 1823              		.loc 1 358 0
 1824 005c 1748     		ldr	r0, .L154+4
 1825 005e 1849     		ldr	r1, .L154+8
 1826              		.loc 1 357 0
 1827 0060 6FEA4246 		mvn	r6, r2, lsl #17
 1828              		.loc 1 358 0
 1829 0064 1923     		movs	r3, #25
 1830 0066 0093     		str	r3, [sp, #0]
 1831              		.loc 1 357 0
 1832 0068 6FEA5646 		mvn	r6, r6, lsr #17
 1833              		.loc 1 358 0
 1834 006c 2A46     		mov	r2, r5
 1835 006e 0123     		movs	r3, #1
 1836              		.loc 1 357 0
 1837 0070 E682     		strh	r6, [r4, #22]	@ movhi
 1838              		.loc 1 358 0
 1839 0072 FFF7FEFF 		bl	gtimerStart
 1840              	.LVL144:
 1841              		.loc 1 362 0
 1842 0076 1048     		ldr	r0, .L154
 1843              	.L134:
 1844              		.loc 1 363 0
 1845 0078 03B0     		add	sp, sp, #12
 1846 007a F0BD     		pop	{r4, r5, r6, r7, pc}
 1847              	.L135:
 1848              		.loc 1 340 0
 1849 007c 42F20F72 		movw	r2, #9999
 1850 0080 9542     		cmp	r5, r2
 1851 0082 05D0     		beq	.L153
 1852              		.loc 1 349 0
 1853 0084 2846     		mov	r0, r5
 1854 0086 FFF7FEFF 		bl	ginputCalibrateMouse
 1855              	.LVL145:
 1856 008a E2E7     		b	.L136
 1857              	.L139:
 1858              		.loc 1 362 0
 1859 008c 2046     		mov	r0, r4
 1860 008e F3E7     		b	.L134
 1861              	.L153:
 1862              		.loc 1 347 0
 1863 0090 E58A     		ldrh	r5, [r4, #22]
 1864              		.loc 1 342 0
 1865 0092 0026     		movs	r6, #0
 1866              		.loc 1 341 0
 1867 0094 4FF07E53 		mov	r3, #1065353216
 1868              		.loc 1 347 0
 1869 0098 45F06000 		orr	r0, r5, #96
 1870              		.loc 1 341 0
 1871 009c 2362     		str	r3, [r4, #32]	@ float
 1872              		.loc 1 342 0
 1873 009e 6662     		str	r6, [r4, #36]	@ float
 1874              		.loc 1 343 0
 1875 00a0 A662     		str	r6, [r4, #40]	@ float
 1876              		.loc 1 344 0
ARM GAS  /tmp/ccb96DMq.s 			page 34


 1877 00a2 E662     		str	r6, [r4, #44]	@ float
 1878              		.loc 1 345 0
 1879 00a4 2363     		str	r3, [r4, #48]	@ float
 1880              		.loc 1 346 0
 1881 00a6 6663     		str	r6, [r4, #52]	@ float
 1882              		.loc 1 347 0
 1883 00a8 E082     		strh	r0, [r4, #22]	@ movhi
 1884 00aa D2E7     		b	.L136
 1885              	.LVL146:
 1886              	.L138:
 1887              		.loc 1 320 0
 1888 00ac 0020     		movs	r0, #0
 1889              	.LVL147:
 1890 00ae E3E7     		b	.L134
 1891              	.LVL148:
 1892              	.L152:
 1893              		.loc 1 339 0
 1894 00b0 3846     		mov	r0, r7
 1895 00b2 FFF7FEFF 		bl	chHeapFree
 1896              	.LVL149:
 1897 00b6 CCE7     		b	.L136
 1898              	.L155:
 1899              		.align	2
 1900              	.L154:
 1901 00b8 00000000 		.word	.LANCHOR0
 1902 00bc 00000000 		.word	.LANCHOR1
 1903 00c0 00000000 		.word	MousePoll
 1904              		.cfi_endproc
 1905              	.LFE125:
 1906              		.size	ginputGetMouse, .-ginputGetMouse
 1907 00c4 AFF30080 		.section	.text.ginputSetMouseCalibrationRoutines,"ax",%progbits
 1907      AFF30080 
 1907      AFF30080 
 1908              		.align	2
 1909              		.p2align 4,,15
 1910              		.global	ginputSetMouseCalibrationRoutines
 1911              		.thumb
 1912              		.thumb_func
 1913              		.type	ginputSetMouseCalibrationRoutines, %function
 1914              	ginputSetMouseCalibrationRoutines:
 1915              	.LFB128:
 1916              		.loc 1 530 0
 1917              		.cfi_startproc
 1918              		@ args = 0, pretend = 0, frame = 0
 1919              		@ frame_needed = 0, uses_anonymous_args = 0
 1920              	.LVL150:
 1921 0000 38B5     		push	{r3, r4, r5, lr}
 1922              	.LCFI9:
 1923              		.cfi_def_cfa_offset 16
 1924              		.cfi_offset 3, -16
 1925              		.cfi_offset 4, -12
 1926              		.cfi_offset 5, -8
 1927              		.cfi_offset 14, -4
 1928              		.loc 1 530 0
 1929 0002 0C46     		mov	r4, r1
 1930              		.loc 1 532 0
 1931 0004 70B9     		cbnz	r0, .L156
ARM GAS  /tmp/ccb96DMq.s 			page 35


 1932              		.loc 1 535 0
 1933 0006 0F48     		ldr	r0, .L166
 1934              	.LVL151:
 1935 0008 C261     		str	r2, [r0, #28]
 1936              		.loc 1 536 0
 1937 000a 8161     		str	r1, [r0, #24]
 1938              		.loc 1 537 0
 1939 000c 5BB1     		cbz	r3, .L159
 1940              		.loc 1 538 0
 1941 000e C28A     		ldrh	r2, [r0, #22]
 1942              	.LVL152:
 1943 0010 42F08003 		orr	r3, r2, #128
 1944              	.LVL153:
 1945 0014 C382     		strh	r3, [r0, #22]	@ movhi
 1946              	.LVL154:
 1947              	.L160:
 1948              		.loc 1 549 0
 1949 0016 2CB1     		cbz	r4, .L156
 1950              		.loc 1 549 0 is_stmt 0 discriminator 1
 1951 0018 C08A     		ldrh	r0, [r0, #22]
 1952 001a 0A4D     		ldr	r5, .L166
 1953 001c 00F06001 		and	r1, r0, #96
 1954 0020 2029     		cmp	r1, #32
 1955 0022 05D0     		beq	.L165
 1956              	.LVL155:
 1957              	.L156:
 1958 0024 38BD     		pop	{r3, r4, r5, pc}
 1959              	.LVL156:
 1960              	.L159:
 1961              		.loc 1 540 0 is_stmt 1
 1962 0026 C38A     		ldrh	r3, [r0, #22]
 1963              	.LVL157:
 1964 0028 23F08001 		bic	r1, r3, #128
 1965              	.LVL158:
 1966 002c C182     		strh	r1, [r0, #22]	@ movhi
 1967 002e F2E7     		b	.L160
 1968              	.LVL159:
 1969              	.L165:
 1970              		.loc 1 550 0
 1971 0030 1822     		movs	r2, #24
 1972 0032 0020     		movs	r0, #0
 1973 0034 05F12001 		add	r1, r5, #32
 1974 0038 A047     		blx	r4
 1975              	.LVL160:
 1976              		.loc 1 551 0
 1977 003a EA8A     		ldrh	r2, [r5, #22]
 1978 003c 42F04003 		orr	r3, r2, #64
 1979 0040 EB82     		strh	r3, [r5, #22]	@ movhi
 1980 0042 38BD     		pop	{r3, r4, r5, pc}
 1981              	.L167:
 1982              		.align	2
 1983              	.L166:
 1984 0044 00000000 		.word	.LANCHOR0
 1985              		.cfi_endproc
 1986              	.LFE128:
 1987              		.size	ginputSetMouseCalibrationRoutines, .-ginputSetMouseCalibrationRoutines
 1988 0048 AFF30080 		.section	.text.ginputRequireMouseCalibrationStorage,"ax",%progbits
ARM GAS  /tmp/ccb96DMq.s 			page 36


 1988      AFF30080 
 1989              		.align	2
 1990              		.p2align 4,,15
 1991              		.global	ginputRequireMouseCalibrationStorage
 1992              		.thumb
 1993              		.thumb_func
 1994              		.type	ginputRequireMouseCalibrationStorage, %function
 1995              	ginputRequireMouseCalibrationStorage:
 1996              	.LFB129:
 1997              		.loc 1 559 0
 1998              		.cfi_startproc
 1999              		@ args = 0, pretend = 0, frame = 0
 2000              		@ frame_needed = 0, uses_anonymous_args = 0
 2001              		@ link register save eliminated.
 2002              	.LVL161:
 2003              		.loc 1 568 0
 2004 0000 D0F10100 		rsbs	r0, r0, #1
 2005              	.LVL162:
 2006 0004 38BF     		it	cc
 2007 0006 0020     		movcc	r0, #0
 2008 0008 7047     		bx	lr
 2009              		.cfi_endproc
 2010              	.LFE129:
 2011              		.size	ginputRequireMouseCalibrationStorage, .-ginputRequireMouseCalibrationStorage
 2012 000a 00BFAFF3 		.section	.text.ginputMouseWakeup,"ax",%progbits
 2012      0080
 2013              		.align	2
 2014              		.p2align 4,,15
 2015              		.global	ginputMouseWakeup
 2016              		.thumb
 2017              		.thumb_func
 2018              		.type	ginputMouseWakeup, %function
 2019              	ginputMouseWakeup:
 2020              	.LFB130:
 2021              		.loc 1 571 0
 2022              		.cfi_startproc
 2023              		@ args = 0, pretend = 0, frame = 0
 2024              		@ frame_needed = 0, uses_anonymous_args = 0
 2025              		@ link register save eliminated.
 2026              		.loc 1 572 0
 2027 0000 40F20000 		movw	r0, #:lower16:.LANCHOR1
 2028 0004 C0F20000 		movt	r0, #:upper16:.LANCHOR1
 2029              		.loc 1 573 0
 2030              		.loc 1 572 0
 2031 0008 FFF7FEBF 		b	gtimerJab
 2032              	.LVL163:
 2033              		.cfi_endproc
 2034              	.LFE130:
 2035              		.size	ginputMouseWakeup, .-ginputMouseWakeup
 2036 000c AFF30080 		.section	.text.ginputMouseWakeupI,"ax",%progbits
 2037              		.align	2
 2038              		.p2align 4,,15
 2039              		.global	ginputMouseWakeupI
 2040              		.thumb
 2041              		.thumb_func
 2042              		.type	ginputMouseWakeupI, %function
 2043              	ginputMouseWakeupI:
ARM GAS  /tmp/ccb96DMq.s 			page 37


 2044              	.LFB131:
 2045              		.loc 1 576 0
 2046              		.cfi_startproc
 2047              		@ args = 0, pretend = 0, frame = 0
 2048              		@ frame_needed = 0, uses_anonymous_args = 0
 2049              		@ link register save eliminated.
 2050              		.loc 1 577 0
 2051 0000 40F20000 		movw	r0, #:lower16:.LANCHOR1
 2052 0004 C0F20000 		movt	r0, #:upper16:.LANCHOR1
 2053              		.loc 1 578 0
 2054              		.loc 1 577 0
 2055 0008 FFF7FEBF 		b	gtimerJabI
 2056              	.LVL164:
 2057              		.cfi_endproc
 2058              	.LFE131:
 2059              		.size	ginputMouseWakeupI, .-ginputMouseWakeupI
 2060 000c AFF30080 		.section	.bss.MouseTimer,"aw",%nobits
 2061              		.align	2
 2062              		.set	.LANCHOR1,. + 0
 2063              		.type	MouseTimer, %object
 2064              		.size	MouseTimer, 28
 2065              	MouseTimer:
 2066 0000 00000000 		.space	28
 2066      00000000 
 2066      00000000 
 2066      00000000 
 2066      00000000 
 2067              		.section	.bss.MouseConfig,"aw",%nobits
 2068              		.align	2
 2069              		.set	.LANCHOR0,. + 0
 2070              		.type	MouseConfig, %object
 2071              		.size	MouseConfig, 56
 2072              	MouseConfig:
 2073 0000 00000000 		.space	56
 2073      00000000 
 2073      00000000 
 2073      00000000 
 2073      00000000 
 2074              		.section	.rodata.str1.4,"aMS",%progbits,1
 2075              		.align	2
 2076              	.LC0:
 2077 0000 2A20446F 		.ascii	"* Double\000"
 2077      75626C65 
 2077      00
 2078 0009 000000   		.space	3
 2079              	.LC1:
 2080 000c 2A204E61 		.ascii	"* Narrow\000"
 2080      72726F77 
 2080      00
 2081 0015 000000   		.space	3
 2082              	.LC2:
 2083 0018 43616C69 		.ascii	"Calibration\000"
 2083      62726174 
 2083      696F6E00 
 2084              	.LC3:
 2085 0024 4572726F 		.ascii	"Error: Same Reading - Check Driver!\000"
 2085      723A2053 
ARM GAS  /tmp/ccb96DMq.s 			page 38


 2085      616D6520 
 2085      52656164 
 2085      696E6720 
 2086              	.LC4:
 2087 0048 4661696C 		.ascii	"Failed - Please try again!\000"
 2087      6564202D 
 2087      20506C65 
 2087      61736520 
 2087      74727920 
 2088 0063 00       		.text
 2089              	.Letext0:
 2090              		.file 2 "/usr/bin/../lib/gcc/arm-none-eabi/4.7.4/include/stddef.h"
 2091              		.file 3 "/usr/bin/../lib/gcc/arm-none-eabi/4.7.4/../../../../arm-none-eabi/include/stdint.h"
 2092              		.file 4 "../../os/ports/GCC/ARMCMx/chtypes.h"
 2093              		.file 5 "../../os/kernel/include/chlists.h"
 2094              		.file 6 "../../os/kernel/include/chthreads.h"
 2095              		.file 7 "../../os/ports/GCC/ARMCMx/chcore_v7m.h"
 2096              		.file 8 "../../os/kernel/include/chvt.h"
 2097              		.file 9 "../../os/kernel/include/chsem.h"
 2098              		.file 10 "../../os/kernel/include/chmtx.h"
 2099              		.file 11 "../../ext/ugfx/include/gos/chibios.h"
 2100              		.file 12 "../../ext/ugfx/include/gevent/gevent.h"
 2101              		.file 13 "../../ext/ugfx/include/gtimer/gtimer.h"
 2102              		.file 14 "../../ext/ugfx/include/gdisp/gdisp.h"
 2103              		.file 15 "../../ext/ugfx/include/ginput/mouse.h"
 2104              		.file 16 "../../ext/ugfx/include/ginput/lld/mouse.h"
 2105              		.file 17 "../../os/ports/common/ARMCMx/CMSIS/include/core_cm4.h"
 2106              		.file 18 "../../os/kernel/include/chheap.h"
 2107              		.file 19 "../../ext/ugfx/include/gwin/gwin.h"