ARM GAS  /tmp/cc4tHRwq.s 			page 1


   1              		.syntax unified
   2              		.cpu cortex-m4
   3              		.eabi_attribute 27, 3
   4              		.eabi_attribute 28, 1
   5              		.fpu fpv4-sp-d16
   6              		.eabi_attribute 20, 1
   7              		.eabi_attribute 21, 1
   8              		.eabi_attribute 23, 3
   9              		.eabi_attribute 24, 1
  10              		.eabi_attribute 25, 1
  11              		.eabi_attribute 26, 1
  12              		.eabi_attribute 30, 2
  13              		.eabi_attribute 34, 1
  14              		.eabi_attribute 18, 4
  15              		.thumb
  16              		.file	"oneWire.c"
  17              		.text
  18              	.Ltext0:
  19              		.cfi_sections	.debug_frame
  20              		.section	.text.rxErr,"ax",%progbits
  21              		.align	2
  22              		.p2align 4,,15
  23              		.thumb
  24              		.thumb_func
  25              		.type	rxErr, %function
  26              	rxErr:
  27              	.LFB135:
  28              		.file 1 "oneWire.c"
  29              		.loc 1 391 0
  30              		.cfi_startproc
  31              		@ args = 0, pretend = 0, frame = 0
  32              		@ frame_needed = 0, uses_anonymous_args = 0
  33              		@ link register save eliminated.
  34              	.LVL0:
  35 0000 7047     		bx	lr
  36              		.cfi_endproc
  37              	.LFE135:
  38              		.size	rxErr, .-rxErr
  39 0002 00BFAFF3 		.section	.text.rxEnd,"ax",%progbits
  39      0080AFF3 
  39      0080AFF3 
  39      0080
  40              		.align	2
  41              		.p2align 4,,15
  42              		.thumb
  43              		.thumb_func
  44              		.type	rxEnd, %function
  45              	rxEnd:
  46              	.LFB136:
  47              		.loc 1 398 0
  48              		.cfi_startproc
  49              		@ args = 0, pretend = 0, frame = 0
  50              		@ frame_needed = 0, uses_anonymous_args = 0
  51              	.LVL1:
  52              		.loc 1 398 0
  53 0000 08B5     		push	{r3, lr}
  54              	.LCFI0:
ARM GAS  /tmp/cc4tHRwq.s 			page 2


  55              		.cfi_def_cfa_offset 8
  56              		.cfi_offset 3, -8
  57              		.cfi_offset 14, -4
  58              	.LBB23:
  59              	.LBB24:
  60              		.loc 1 534 0
  61 0002 184B     		ldr	r3, .L15
  62 0004 9A69     		ldr	r2, [r3, #24]
  63              	.LVL2:
  64 0006 9042     		cmp	r0, r2
  65 0008 0FD0     		beq	.L7
  66              	.LVL3:
  67 000a D969     		ldr	r1, [r3, #28]
  68 000c 8842     		cmp	r0, r1
  69 000e 1FD0     		beq	.L8
  70              	.LVL4:
  71 0010 1A6A     		ldr	r2, [r3, #32]
  72 0012 9042     		cmp	r0, r2
  73 0014 1ED0     		beq	.L9
  74              	.LVL5:
  75 0016 596A     		ldr	r1, [r3, #36]
  76 0018 8842     		cmp	r0, r1
  77 001a 1DD0     		beq	.L10
  78              	.LVL6:
  79 001c 9A6A     		ldr	r2, [r3, #40]
  80 001e 9042     		cmp	r0, r2
  81 0020 1CD0     		beq	.L11
  82              	.LVL7:
  83 0022 D96A     		ldr	r1, [r3, #44]
  84 0024 8842     		cmp	r0, r1
  85 0026 1BD0     		beq	.L13
  86              	.LVL8:
  87              	.L2:
  88 0028 08BD     		pop	{r3, pc}
  89              	.LVL9:
  90              	.L7:
  91 002a 0020     		movs	r0, #0
  92              	.LVL10:
  93              	.L3:
  94              		.loc 1 538 0
  95 002c 53F82000 		ldr	r0, [r3, r0, lsl #2]
  96              	.LBE24:
  97              	.LBE23:
  98              		.loc 1 401 0
  99 0030 0028     		cmp	r0, #0
 100 0032 F9D0     		beq	.L2
 101              	.LBB26:
 102              		.loc 1 402 0
 103 0034 2023     		movs	r3, #32
 104              	.LVL11:
 105              	@ 402 "oneWire.c" 1
 106 0036 83F31188 		msr     BASEPRI, r3
 107              	@ 0 "" 2
 108              	.LVL12:
 109              		.thumb
 110              	.LBE26:
 111              		.loc 1 403 0
ARM GAS  /tmp/cc4tHRwq.s 			page 3


 112 003a 436B     		ldr	r3, [r0, #52]
 113              	.LVL13:
 114 003c 002B     		cmp	r3, #0
 115 003e 03DD     		ble	.L14
 116              	.L5:
 117              	.LBB27:
 118              		.loc 1 404 0
 119 0040 0023     		movs	r3, #0
 120              	.LVL14:
 121              	@ 404 "oneWire.c" 1
 122 0042 83F31188 		msr     BASEPRI, r3
 123              	@ 0 "" 2
 124              	.LVL15:
 125              		.thumb
 126 0046 08BD     		pop	{r3, pc}
 127              	.LVL16:
 128              	.L14:
 129              	.LBE27:
 130              		.loc 1 403 0 discriminator 1
 131 0048 2C30     		adds	r0, r0, #44
 132 004a FFF7FEFF 		bl	chSemSignalI
 133              	.LVL17:
 134 004e F7E7     		b	.L5
 135              	.LVL18:
 136              	.L8:
 137              	.LBB28:
 138              	.LBB25:
 139              		.loc 1 534 0
 140 0050 0120     		movs	r0, #1
 141              	.LVL19:
 142 0052 EBE7     		b	.L3
 143              	.LVL20:
 144              	.L9:
 145 0054 0220     		movs	r0, #2
 146              	.LVL21:
 147 0056 E9E7     		b	.L3
 148              	.LVL22:
 149              	.L10:
 150 0058 0320     		movs	r0, #3
 151              	.LVL23:
 152 005a E7E7     		b	.L3
 153              	.LVL24:
 154              	.L11:
 155 005c 0420     		movs	r0, #4
 156              	.LVL25:
 157 005e E5E7     		b	.L3
 158              	.LVL26:
 159              	.L13:
 160 0060 0520     		movs	r0, #5
 161              	.LVL27:
 162 0062 E3E7     		b	.L3
 163              	.L16:
 164              		.align	2
 165              	.L15:
 166 0064 00000000 		.word	.LANCHOR0
 167              	.LBE25:
 168              	.LBE28:
ARM GAS  /tmp/cc4tHRwq.s 			page 4


 169              		.cfi_endproc
 170              	.LFE136:
 171              		.size	rxEnd, .-rxEnd
 172 0068 AFF30080 		.section	.text.txBufferEmpty,"ax",%progbits
 172      AFF30080 
 173              		.align	2
 174              		.p2align 4,,15
 175              		.thumb
 176              		.thumb_func
 177              		.type	txBufferEmpty, %function
 178              	txBufferEmpty:
 179              	.LFB134:
 180              		.loc 1 380 0
 181              		.cfi_startproc
 182              		@ args = 0, pretend = 0, frame = 0
 183              		@ frame_needed = 0, uses_anonymous_args = 0
 184              	.LVL28:
 185 0000 08B5     		push	{r3, lr}
 186              	.LCFI1:
 187              		.cfi_def_cfa_offset 8
 188              		.cfi_offset 3, -8
 189              		.cfi_offset 14, -4
 190              	.LBB29:
 191              	.LBB30:
 192              		.loc 1 534 0
 193 0002 184B     		ldr	r3, .L29
 194 0004 9A69     		ldr	r2, [r3, #24]
 195              	.LVL29:
 196 0006 9042     		cmp	r0, r2
 197 0008 0FD0     		beq	.L22
 198              	.LVL30:
 199 000a D969     		ldr	r1, [r3, #28]
 200 000c 8842     		cmp	r0, r1
 201 000e 1FD0     		beq	.L23
 202              	.LVL31:
 203 0010 1A6A     		ldr	r2, [r3, #32]
 204 0012 9042     		cmp	r0, r2
 205 0014 1ED0     		beq	.L24
 206              	.LVL32:
 207 0016 596A     		ldr	r1, [r3, #36]
 208 0018 8842     		cmp	r0, r1
 209 001a 1DD0     		beq	.L25
 210              	.LVL33:
 211 001c 9A6A     		ldr	r2, [r3, #40]
 212 001e 9042     		cmp	r0, r2
 213 0020 1CD0     		beq	.L26
 214              	.LVL34:
 215 0022 D96A     		ldr	r1, [r3, #44]
 216 0024 8842     		cmp	r0, r1
 217 0026 1BD0     		beq	.L27
 218              	.LVL35:
 219              	.L17:
 220 0028 08BD     		pop	{r3, pc}
 221              	.LVL36:
 222              	.L22:
 223 002a 0020     		movs	r0, #0
 224              	.LVL37:
ARM GAS  /tmp/cc4tHRwq.s 			page 5


 225              	.L18:
 226              		.loc 1 538 0
 227 002c 53F82000 		ldr	r0, [r3, r0, lsl #2]
 228              	.LBE30:
 229              	.LBE29:
 230              		.loc 1 383 0
 231 0030 0028     		cmp	r0, #0
 232 0032 F9D0     		beq	.L17
 233              	.LBB32:
 234              		.loc 1 384 0
 235 0034 2023     		movs	r3, #32
 236              	.LVL38:
 237              	@ 384 "oneWire.c" 1
 238 0036 83F31188 		msr     BASEPRI, r3
 239              	@ 0 "" 2
 240              	.LVL39:
 241              		.thumb
 242              	.LBE32:
 243              		.loc 1 385 0
 244 003a 836A     		ldr	r3, [r0, #40]
 245              	.LVL40:
 246 003c 002B     		cmp	r3, #0
 247 003e 03DD     		ble	.L28
 248              	.L20:
 249              	.LBB33:
 250              		.loc 1 386 0
 251 0040 0023     		movs	r3, #0
 252              	.LVL41:
 253              	@ 386 "oneWire.c" 1
 254 0042 83F31188 		msr     BASEPRI, r3
 255              	@ 0 "" 2
 256              	.LVL42:
 257              		.thumb
 258 0046 08BD     		pop	{r3, pc}
 259              	.LVL43:
 260              	.L28:
 261              	.LBE33:
 262              		.loc 1 385 0 discriminator 1
 263 0048 2030     		adds	r0, r0, #32
 264 004a FFF7FEFF 		bl	chSemSignalI
 265              	.LVL44:
 266 004e F7E7     		b	.L20
 267              	.LVL45:
 268              	.L23:
 269              	.LBB34:
 270              	.LBB31:
 271              		.loc 1 534 0
 272 0050 0120     		movs	r0, #1
 273              	.LVL46:
 274 0052 EBE7     		b	.L18
 275              	.LVL47:
 276              	.L24:
 277 0054 0220     		movs	r0, #2
 278              	.LVL48:
 279 0056 E9E7     		b	.L18
 280              	.LVL49:
 281              	.L25:
ARM GAS  /tmp/cc4tHRwq.s 			page 6


 282 0058 0320     		movs	r0, #3
 283              	.LVL50:
 284 005a E7E7     		b	.L18
 285              	.LVL51:
 286              	.L26:
 287 005c 0420     		movs	r0, #4
 288              	.LVL52:
 289 005e E5E7     		b	.L18
 290              	.LVL53:
 291              	.L27:
 292 0060 0520     		movs	r0, #5
 293              	.LVL54:
 294 0062 E3E7     		b	.L18
 295              	.L30:
 296              		.align	2
 297              	.L29:
 298 0064 00000000 		.word	.LANCHOR0
 299              	.LBE31:
 300              	.LBE34:
 301              		.cfi_endproc
 302              	.LFE134:
 303              		.size	txBufferEmpty, .-txBufferEmpty
 304 0068 AFF30080 		.section	.text.oneWireInit,"ax",%progbits
 304      AFF30080 
 305              		.align	2
 306              		.p2align 4,,15
 307              		.global	oneWireInit
 308              		.thumb
 309              		.thumb_func
 310              		.type	oneWireInit, %function
 311              	oneWireInit:
 312              	.LFB118:
 313              		.loc 1 134 0
 314              		.cfi_startproc
 315              		@ args = 0, pretend = 0, frame = 0
 316              		@ frame_needed = 0, uses_anonymous_args = 0
 317              	.LVL55:
 318 0000 F8B5     		push	{r3, r4, r5, r6, r7, lr}
 319              	.LCFI2:
 320              		.cfi_def_cfa_offset 24
 321              		.cfi_offset 3, -24
 322              		.cfi_offset 4, -20
 323              		.cfi_offset 5, -16
 324              		.cfi_offset 6, -12
 325              		.cfi_offset 7, -8
 326              		.cfi_offset 14, -4
 327              		.loc 1 134 0
 328 0002 0D46     		mov	r5, r1
 329 0004 0446     		mov	r4, r0
 330              		.loc 1 135 0
 331 0006 AA68     		ldr	r2, [r5, #8]	@ unaligned
 332              	.LBB39:
 333              	.LBB40:
 334              		.loc 1 352 0
 335 0008 037B     		ldrb	r3, [r0, #12]	@ zero_extendqisi2
 336              	.LBE40:
 337              	.LBE39:
ARM GAS  /tmp/cc4tHRwq.s 			page 7


 338              		.loc 1 135 0
 339 000a 0868     		ldr	r0, [r1, #0]	@ unaligned
 340              	.LVL56:
 341 000c 4968     		ldr	r1, [r1, #4]	@ unaligned
 342              	.LVL57:
 343 000e 2060     		str	r0, [r4, #0]	@ unaligned
 344 0010 6160     		str	r1, [r4, #4]	@ unaligned
 345 0012 A260     		str	r2, [r4, #8]	@ unaligned
 346              	.LVL58:
 347              	.LBB42:
 348              	.LBB41:
 349              		.loc 1 352 0
 350 0014 63B1     		cbz	r3, .L32
 351              		.loc 1 357 0
 352 0016 A068     		ldr	r0, [r4, #8]
 353 0018 FFF7FEFF 		bl	uartStop
 354              	.LVL59:
 355              		.loc 1 358 0
 356 001c 2379     		ldrb	r3, [r4, #4]	@ zero_extendqisi2
 357 001e 2068     		ldr	r0, [r4, #0]
 358 0020 0121     		movs	r1, #1
 359 0022 01FA03F1 		lsl	r1, r1, r3
 360 0026 2022     		movs	r2, #32
 361 0028 FFF7FEFF 		bl	_pal_lld_setgroupmode
 362              	.LVL60:
 363              		.loc 1 374 0
 364 002c 0020     		movs	r0, #0
 365 002e 2073     		strb	r0, [r4, #12]
 366              	.L32:
 367              	.LBE41:
 368              	.LBE42:
 369              		.loc 1 137 0
 370 0030 0021     		movs	r1, #0
 371 0032 04F12000 		add	r0, r4, #32
 372 0036 FFF7FEFF 		bl	chSemInit
 373              	.LVL61:
 374              		.loc 1 138 0
 375 003a 0021     		movs	r1, #0
 376 003c 04F12C00 		add	r0, r4, #44
 377 0040 FFF7FEFF 		bl	chSemInit
 378              	.LVL62:
 379              		.loc 1 139 0
 380 0044 04F11000 		add	r0, r4, #16
 381 0048 FFF7FEFF 		bl	chMtxInit
 382              	.LVL63:
 383              	.LBB43:
 384              	.LBB44:
 385              		.loc 1 514 0
 386 004c 1F4B     		ldr	r3, .L53
 387 004e 5968     		ldr	r1, [r3, #4]
 388              	.LBE44:
 389              	.LBE43:
 390              		.loc 1 140 0
 391 0050 0022     		movs	r2, #0
 392 0052 84F83820 		strb	r2, [r4, #56]
 393              	.LBB47:
 394              	.LBB45:
ARM GAS  /tmp/cc4tHRwq.s 			page 8


 395              		.loc 1 514 0
 396 0056 8C42     		cmp	r4, r1
 397              	.LBE45:
 398              	.LBE47:
 399              		.loc 1 141 0
 400 0058 84F83920 		strb	r2, [r4, #57]
 401              		.loc 1 142 0
 402 005c D5F808C0 		ldr	ip, [r5, #8]
 403              	.LVL64:
 404              	.LBB48:
 405              	.LBB46:
 406              		.loc 1 514 0
 407 0060 1DD0     		beq	.L37
 408              	.LVL65:
 409 0062 9A68     		ldr	r2, [r3, #8]
 410 0064 9442     		cmp	r4, r2
 411 0066 1FD0     		beq	.L38
 412              	.LVL66:
 413 0068 D868     		ldr	r0, [r3, #12]
 414 006a 8442     		cmp	r4, r0
 415 006c 1ED0     		beq	.L39
 416              	.LVL67:
 417 006e 1D69     		ldr	r5, [r3, #16]
 418              	.LVL68:
 419 0070 AC42     		cmp	r4, r5
 420 0072 1DD0     		beq	.L40
 421              	.LVL69:
 422 0074 5E69     		ldr	r6, [r3, #20]
 423 0076 B442     		cmp	r4, r6
 424 0078 1CD0     		beq	.L41
 425              	.LVL70:
 426 007a 9F69     		ldr	r7, [r3, #24]
 427 007c BC42     		cmp	r4, r7
 428 007e 1BD0     		beq	.L51
 429              	.LVL71:
 430              		.loc 1 521 0
 431 0080 1F68     		ldr	r7, [r3, #0]
 432 0082 37B1     		cbz	r7, .L36
 433              	.LVL72:
 434 0084 D1B1     		cbz	r1, .L43
 435              	.LVL73:
 436 0086 DAB1     		cbz	r2, .L44
 437              	.LVL74:
 438 0088 E0B1     		cbz	r0, .L45
 439              	.LVL75:
 440 008a EDB1     		cbz	r5, .L46
 441              	.LVL76:
 442 008c 06B1     		cbz	r6, .L52
 443 008e F8BD     		pop	{r3, r4, r5, r6, r7, pc}
 444              	.L52:
 445 0090 0527     		movs	r7, #5
 446              	.LVL77:
 447              	.L36:
 448              		.loc 1 527 0
 449 0092 B91D     		adds	r1, r7, #6
 450              		.loc 1 526 0
 451 0094 43F82740 		str	r4, [r3, r7, lsl #2]
ARM GAS  /tmp/cc4tHRwq.s 			page 9


 452              		.loc 1 527 0
 453 0098 43F821C0 		str	ip, [r3, r1, lsl #2]
 454 009c F8BD     		pop	{r3, r4, r5, r6, r7, pc}
 455              	.LVL78:
 456              	.L37:
 457              		.loc 1 514 0
 458 009e 0122     		movs	r2, #1
 459              	.LVL79:
 460              	.L33:
 461              		.loc 1 515 0
 462 00a0 901D     		adds	r0, r2, #6
 463 00a2 43F820C0 		str	ip, [r3, r0, lsl #2]
 464 00a6 F8BD     		pop	{r3, r4, r5, r6, r7, pc}
 465              	.LVL80:
 466              	.L38:
 467              		.loc 1 514 0
 468 00a8 0222     		movs	r2, #2
 469 00aa F9E7     		b	.L33
 470              	.LVL81:
 471              	.L39:
 472 00ac 0322     		movs	r2, #3
 473 00ae F7E7     		b	.L33
 474              	.LVL82:
 475              	.L40:
 476 00b0 0422     		movs	r2, #4
 477 00b2 F5E7     		b	.L33
 478              	.LVL83:
 479              	.L41:
 480 00b4 0522     		movs	r2, #5
 481 00b6 F3E7     		b	.L33
 482              	.LVL84:
 483              	.L51:
 484 00b8 0622     		movs	r2, #6
 485 00ba F1E7     		b	.L33
 486              	.LVL85:
 487              	.L43:
 488              		.loc 1 521 0
 489 00bc 0127     		movs	r7, #1
 490 00be E8E7     		b	.L36
 491              	.LVL86:
 492              	.L44:
 493 00c0 0227     		movs	r7, #2
 494 00c2 E6E7     		b	.L36
 495              	.LVL87:
 496              	.L45:
 497 00c4 0327     		movs	r7, #3
 498 00c6 E4E7     		b	.L36
 499              	.LVL88:
 500              	.L46:
 501 00c8 0427     		movs	r7, #4
 502 00ca E2E7     		b	.L36
 503              	.L54:
 504              		.align	2
 505              	.L53:
 506 00cc 00000000 		.word	.LANCHOR0
 507              	.LBE46:
 508              	.LBE48:
ARM GAS  /tmp/cc4tHRwq.s 			page 10


 509              		.cfi_endproc
 510              	.LFE118:
 511              		.size	oneWireInit, .-oneWireInit
 512              		.section	.text.oneWireReset,"ax",%progbits
 513              		.align	2
 514              		.p2align 4,,15
 515              		.global	oneWireReset
 516              		.thumb
 517              		.thumb_func
 518              		.type	oneWireReset, %function
 519              	oneWireReset:
 520              	.LFB119:
 521              		.loc 1 149 0
 522              		.cfi_startproc
 523              		@ args = 0, pretend = 0, frame = 8
 524              		@ frame_needed = 0, uses_anonymous_args = 0
 525              	.LVL89:
 526 0000 70B5     		push	{r4, r5, r6, lr}
 527              	.LCFI3:
 528              		.cfi_def_cfa_offset 16
 529              		.cfi_offset 4, -16
 530              		.cfi_offset 5, -12
 531              		.cfi_offset 6, -8
 532              		.cfi_offset 14, -4
 533              	.LBB53:
 534              	.LBB54:
 535              		.loc 1 352 0
 536 0002 037B     		ldrb	r3, [r0, #12]	@ zero_extendqisi2
 537              		.loc 1 349 0
 538 0004 4279     		ldrb	r2, [r0, #5]	@ zero_extendqisi2
 539              	.LBE54:
 540              	.LBE53:
 541              		.loc 1 149 0
 542 0006 82B0     		sub	sp, sp, #8
 543              	.LCFI4:
 544              		.cfi_def_cfa_offset 24
 545              		.loc 1 151 0
 546 0008 F021     		movs	r1, #240
 547              		.loc 1 149 0
 548 000a 0446     		mov	r4, r0
 549              	.LBB57:
 550              	.LBB55:
 551              		.loc 1 349 0
 552 000c D001     		lsls	r0, r2, #7
 553              	.LVL90:
 554              		.loc 1 352 0
 555 000e 012B     		cmp	r3, #1
 556              	.LBE55:
 557              	.LBE57:
 558              		.loc 1 151 0
 559 0010 8DF80710 		strb	r1, [sp, #7]
 560              	.LVL91:
 561              	.LBB58:
 562              	.LBB56:
 563              		.loc 1 350 0
 564 0014 40F03E06 		orr	r6, r0, #62
 565              	.LVL92:
ARM GAS  /tmp/cc4tHRwq.s 			page 11


 566              		.loc 1 352 0
 567 0018 0FD0     		beq	.L56
 568              		.loc 1 362 0
 569 001a A068     		ldr	r0, [r4, #8]
 570 001c FFF7FEFF 		bl	uartStop
 571              	.LVL93:
 572              		.loc 1 363 0
 573 0020 A068     		ldr	r0, [r4, #8]
 574 0022 1E49     		ldr	r1, .L64
 575 0024 FFF7FEFF 		bl	uartStart
 576              	.LVL94:
 577              		.loc 1 365 0
 578 0028 2279     		ldrb	r2, [r4, #4]	@ zero_extendqisi2
 579 002a 2068     		ldr	r0, [r4, #0]
 580 002c 0125     		movs	r5, #1
 581 002e 05FA02F1 		lsl	r1, r5, r2
 582 0032 3246     		mov	r2, r6
 583 0034 FFF7FEFF 		bl	_pal_lld_setgroupmode
 584              	.LVL95:
 585              		.loc 1 374 0
 586 0038 2573     		strb	r5, [r4, #12]
 587              	.L56:
 588              	.LBE56:
 589              	.LBE58:
 590              		.loc 1 155 0
 591 003a 04F12006 		add	r6, r4, #32
 592              	.LVL96:
 593 003e 0021     		movs	r1, #0
 594 0040 3046     		mov	r0, r6
 595              		.loc 1 156 0
 596 0042 04F12C05 		add	r5, r4, #44
 597              		.loc 1 155 0
 598 0046 FFF7FEFF 		bl	chSemReset
 599              	.LVL97:
 600              		.loc 1 156 0
 601 004a 0021     		movs	r1, #0
 602 004c 2846     		mov	r0, r5
 603 004e FFF7FEFF 		bl	chSemReset
 604              	.LVL98:
 605              		.loc 1 157 0
 606 0052 0121     		movs	r1, #1
 607 0054 A068     		ldr	r0, [r4, #8]
 608 0056 0DF10602 		add	r2, sp, #6
 609 005a FFF7FEFF 		bl	uartStartReceive
 610              	.LVL99:
 611              		.loc 1 158 0
 612 005e 0121     		movs	r1, #1
 613 0060 0DF10702 		add	r2, sp, #7
 614 0064 A068     		ldr	r0, [r4, #8]
 615 0066 FFF7FEFF 		bl	uartStartSend
 616              	.LVL100:
 617              		.loc 1 159 0
 618 006a 3046     		mov	r0, r6
 619 006c FFF7FEFF 		bl	chSemWait
 620              	.LVL101:
 621              		.loc 1 160 0
 622 0070 2846     		mov	r0, r5
ARM GAS  /tmp/cc4tHRwq.s 			page 12


 623 0072 FFF7FEFF 		bl	chSemWait
 624              	.LVL102:
 625              	.LBB59:
 626              	.LBB60:
 627              		.loc 1 352 0
 628 0076 237B     		ldrb	r3, [r4, #12]	@ zero_extendqisi2
 629 0078 022B     		cmp	r3, #2
 630 007a 08D0     		beq	.L57
 631              		.loc 1 369 0
 632 007c A068     		ldr	r0, [r4, #8]
 633 007e FFF7FEFF 		bl	uartStop
 634              	.LVL103:
 635              		.loc 1 370 0
 636 0082 0749     		ldr	r1, .L64+4
 637 0084 A068     		ldr	r0, [r4, #8]
 638 0086 FFF7FEFF 		bl	uartStart
 639              	.LVL104:
 640              		.loc 1 374 0
 641 008a 0221     		movs	r1, #2
 642 008c 2173     		strb	r1, [r4, #12]
 643              	.L57:
 644              	.LVL105:
 645              	.LBE60:
 646              	.LBE59:
 647              		.loc 1 164 0
 648 008e 9DF80600 		ldrb	r0, [sp, #6]	@ zero_extendqisi2
 649              	.LVL106:
 650              		.loc 1 165 0
 651 0092 F038     		subs	r0, r0, #240
 652              	.LVL107:
 653 0094 18BF     		it	ne
 654 0096 0120     		movne	r0, #1
 655 0098 02B0     		add	sp, sp, #8
 656 009a 70BD     		pop	{r4, r5, r6, pc}
 657              	.L65:
 658              		.align	2
 659              	.L64:
 660 009c 00000000 		.word	.LANCHOR1
 661 00a0 00000000 		.word	.LANCHOR2
 662              		.cfi_endproc
 663              	.LFE119:
 664              		.size	oneWireReset, .-oneWireReset
 665 00a4 AFF30080 		.section	.text.oneWireSendBit,"ax",%progbits
 665      AFF30080 
 665      AFF30080 
 666              		.align	2
 667              		.p2align 4,,15
 668              		.global	oneWireSendBit
 669              		.thumb
 670              		.thumb_func
 671              		.type	oneWireSendBit, %function
 672              	oneWireSendBit:
 673              	.LFB122:
 674              		.loc 1 183 0
 675              		.cfi_startproc
 676              		@ args = 0, pretend = 0, frame = 8
 677              		@ frame_needed = 0, uses_anonymous_args = 0
ARM GAS  /tmp/cc4tHRwq.s 			page 13


 678              	.LVL108:
 679 0000 70B5     		push	{r4, r5, r6, lr}
 680              	.LCFI5:
 681              		.cfi_def_cfa_offset 16
 682              		.cfi_offset 4, -16
 683              		.cfi_offset 5, -12
 684              		.cfi_offset 6, -8
 685              		.cfi_offset 14, -4
 686 0002 82B0     		sub	sp, sp, #8
 687              	.LCFI6:
 688              		.cfi_def_cfa_offset 24
 689              		.loc 1 185 0
 690 0004 02AC     		add	r4, sp, #8
 691 0006 0029     		cmp	r1, #0
 692 0008 14BF     		ite	ne
 693 000a FF21     		movne	r1, #255
 694 000c 0021     		moveq	r1, #0
 695              	.LVL109:
 696 000e 04F8011D 		strb	r1, [r4, #-1]!
 697              		.loc 1 183 0
 698 0012 0646     		mov	r6, r0
 699              		.loc 1 187 0
 700 0014 00F12005 		add	r5, r0, #32
 701 0018 2846     		mov	r0, r5
 702              	.LVL110:
 703 001a 0021     		movs	r1, #0
 704              	.LVL111:
 705 001c FFF7FEFF 		bl	chSemReset
 706              	.LVL112:
 707              		.loc 1 188 0
 708 0020 B068     		ldr	r0, [r6, #8]
 709 0022 0121     		movs	r1, #1
 710 0024 2246     		mov	r2, r4
 711 0026 FFF7FEFF 		bl	uartStartSend
 712              	.LVL113:
 713              		.loc 1 189 0
 714 002a 2846     		mov	r0, r5
 715 002c FFF7FEFF 		bl	chSemWait
 716              	.LVL114:
 717              		.loc 1 191 0
 718 0030 02B0     		add	sp, sp, #8
 719 0032 70BD     		pop	{r4, r5, r6, pc}
 720              		.cfi_endproc
 721              	.LFE122:
 722              		.size	oneWireSendBit, .-oneWireSendBit
 723 0034 AFF30080 		.section	.text.oneWireSend,"ax",%progbits
 723      AFF30080 
 723      AFF30080 
 724              		.align	2
 725              		.p2align 4,,15
 726              		.global	oneWireSend
 727              		.thumb
 728              		.thumb_func
 729              		.type	oneWireSend, %function
 730              	oneWireSend:
 731              	.LFB123:
 732              		.loc 1 196 0
ARM GAS  /tmp/cc4tHRwq.s 			page 14


 733              		.cfi_startproc
 734              		@ args = 0, pretend = 0, frame = 8
 735              		@ frame_needed = 1, uses_anonymous_args = 0
 736              	.LVL115:
 737 0000 2DE9F04F 		push	{r4, r5, r6, r7, r8, r9, sl, fp, lr}
 738              	.LCFI7:
 739              		.cfi_def_cfa_offset 36
 740              		.cfi_offset 4, -36
 741              		.cfi_offset 5, -32
 742              		.cfi_offset 6, -28
 743              		.cfi_offset 7, -24
 744              		.cfi_offset 8, -20
 745              		.cfi_offset 9, -16
 746              		.cfi_offset 10, -12
 747              		.cfi_offset 11, -8
 748              		.cfi_offset 14, -4
 749 0004 83B0     		sub	sp, sp, #12
 750              	.LCFI8:
 751              		.cfi_def_cfa_offset 48
 752              		.loc 1 197 0
 753 0006 D300     		lsls	r3, r2, #3
 754              		.loc 1 196 0
 755 0008 00AF     		add	r7, sp, #0
 756              	.LCFI9:
 757              		.cfi_def_cfa_register 7
 758              		.loc 1 198 0
 759 000a ADEB030D 		sub	sp, sp, r3
 760              		.loc 1 197 0
 761 000e 7B60     		str	r3, [r7, #4]
 762              	.LVL116:
 763              		.loc 1 196 0
 764 0010 3860     		str	r0, [r7, #0]
 765              		.loc 1 198 0
 766 0012 6C46     		mov	r4, sp
 767              	.LVL117:
 768              	.LBB61:
 769              		.loc 1 200 0
 770 0014 002A     		cmp	r2, #0
 771 0016 63D0     		beq	.L79
 772 0018 0020     		movs	r0, #0
 773              	.LVL118:
 774              	.L70:
 775              		.loc 1 201 0 discriminator 2
 776 001a 0D5C     		ldrb	r5, [r1, r0]	@ zero_extendqisi2
 777              	.LBB62:
 778              	.LBB63:
 779              		.loc 1 329 0 discriminator 2
 780 001c 15F0010F 		tst	r5, #1
 781 0020 0CBF     		ite	eq
 782 0022 0026     		moveq	r6, #0
 783 0024 FF26     		movne	r6, #255
 784 0026 05F0020B 		and	fp, r5, #2
 785 002a 05F0040A 		and	sl, r5, #4
 786 002e 05F00809 		and	r9, r5, #8
 787 0032 05F01008 		and	r8, r5, #16
 788 0036 05F0200C 		and	ip, r5, #32
 789 003a 05F0400E 		and	lr, r5, #64
ARM GAS  /tmp/cc4tHRwq.s 			page 15


 790 003e 05F08003 		and	r3, r5, #128
 791 0042 04F83060 		strb	r6, [r4, r0, lsl #3]
 792              	.LBE63:
 793              	.LBE62:
 794              		.loc 1 201 0 discriminator 2
 795 0046 04EBC005 		add	r5, r4, r0, lsl #3
 796              	.LVL119:
 797              	.LBB67:
 798              	.LBB64:
 799              		.loc 1 329 0 discriminator 2
 800 004a 5FFA8BFB 		uxtb	fp, fp
 801 004e 5FFA8AFA 		uxtb	sl, sl
 802 0052 5FFA89F9 		uxtb	r9, r9
 803 0056 5FFA88F8 		uxtb	r8, r8
 804 005a 5FFA8CFC 		uxtb	ip, ip
 805 005e 5FFA8EFE 		uxtb	lr, lr
 806 0062 DBB2     		uxtb	r3, r3
 807              	.LBE64:
 808              	.LBE67:
 809              		.loc 1 200 0 discriminator 2
 810 0064 0130     		adds	r0, r0, #1
 811              	.LVL120:
 812              	.LBB68:
 813              	.LBB65:
 814              		.loc 1 329 0 discriminator 2
 815 0066 BBF1000F 		cmp	fp, #0
 816 006a 14BF     		ite	ne
 817 006c 4FF0FF0B 		movne	fp, #255
 818 0070 4FF0000B 		moveq	fp, #0
 819 0074 BAF1000F 		cmp	sl, #0
 820 0078 14BF     		ite	ne
 821 007a 4FF0FF0A 		movne	sl, #255
 822 007e 4FF0000A 		moveq	sl, #0
 823 0082 B9F1000F 		cmp	r9, #0
 824 0086 14BF     		ite	ne
 825 0088 4FF0FF09 		movne	r9, #255
 826 008c 4FF00009 		moveq	r9, #0
 827 0090 B8F1000F 		cmp	r8, #0
 828 0094 14BF     		ite	ne
 829 0096 4FF0FF08 		movne	r8, #255
 830 009a 4FF00008 		moveq	r8, #0
 831 009e BCF1000F 		cmp	ip, #0
 832 00a2 14BF     		ite	ne
 833 00a4 4FF0FF0C 		movne	ip, #255
 834 00a8 4FF0000C 		moveq	ip, #0
 835 00ac BEF1000F 		cmp	lr, #0
 836 00b0 14BF     		ite	ne
 837 00b2 4FF0FF0E 		movne	lr, #255
 838 00b6 4FF0000E 		moveq	lr, #0
 839 00ba 002B     		cmp	r3, #0
 840 00bc 14BF     		ite	ne
 841 00be FF23     		movne	r3, #255
 842 00c0 0023     		moveq	r3, #0
 843              	.LBE65:
 844              	.LBE68:
 845              		.loc 1 200 0 discriminator 2
 846 00c2 9042     		cmp	r0, r2
ARM GAS  /tmp/cc4tHRwq.s 			page 16


 847              	.LBB69:
 848              	.LBB66:
 849              		.loc 1 329 0 discriminator 2
 850 00c4 85F801B0 		strb	fp, [r5, #1]
 851              	.LVL121:
 852 00c8 85F802A0 		strb	sl, [r5, #2]
 853              	.LVL122:
 854 00cc 85F80390 		strb	r9, [r5, #3]
 855              	.LVL123:
 856 00d0 85F80480 		strb	r8, [r5, #4]
 857              	.LVL124:
 858 00d4 85F805C0 		strb	ip, [r5, #5]
 859              	.LVL125:
 860 00d8 85F806E0 		strb	lr, [r5, #6]
 861              	.LVL126:
 862 00dc EB71     		strb	r3, [r5, #7]
 863              	.LVL127:
 864              	.LBE66:
 865              	.LBE69:
 866              		.loc 1 200 0 discriminator 2
 867 00de 9CD3     		bcc	.L70
 868              	.LVL128:
 869              	.L79:
 870              	.LBE61:
 871              		.loc 1 204 0
 872 00e0 3D68     		ldr	r5, [r7, #0]
 873 00e2 2035     		adds	r5, r5, #32
 874 00e4 2846     		mov	r0, r5
 875 00e6 0021     		movs	r1, #0
 876              	.LVL129:
 877 00e8 FFF7FEFF 		bl	chSemReset
 878              	.LVL130:
 879              		.loc 1 205 0
 880 00ec 3968     		ldr	r1, [r7, #0]
 881 00ee 2246     		mov	r2, r4
 882 00f0 8868     		ldr	r0, [r1, #8]
 883 00f2 7968     		ldr	r1, [r7, #4]
 884 00f4 FFF7FEFF 		bl	uartStartSend
 885              	.LVL131:
 886              		.loc 1 206 0
 887 00f8 2846     		mov	r0, r5
 888 00fa FFF7FEFF 		bl	chSemWait
 889              	.LVL132:
 890              		.loc 1 209 0
 891 00fe 0120     		movs	r0, #1
 892 0100 07F10C07 		add	r7, r7, #12
 893 0104 BD46     		mov	sp, r7
 894 0106 BDE8F08F 		pop	{r4, r5, r6, r7, r8, r9, sl, fp, pc}
 895              		.cfi_endproc
 896              	.LFE123:
 897              		.size	oneWireSend, .-oneWireSend
 898 010a 00BFAFF3 		.section	.text.oneWireSendByte,"ax",%progbits
 898      0080
 899              		.align	2
 900              		.p2align 4,,15
 901              		.global	oneWireSendByte
 902              		.thumb
ARM GAS  /tmp/cc4tHRwq.s 			page 17


 903              		.thumb_func
 904              		.type	oneWireSendByte, %function
 905              	oneWireSendByte:
 906              	.LFB120:
 907              		.loc 1 169 0
 908              		.cfi_startproc
 909              		@ args = 0, pretend = 0, frame = 8
 910              		@ frame_needed = 0, uses_anonymous_args = 0
 911              	.LVL133:
 912 0000 00B5     		push	{lr}
 913              	.LCFI10:
 914              		.cfi_def_cfa_offset 4
 915              		.cfi_offset 14, -4
 916 0002 83B0     		sub	sp, sp, #12
 917              	.LCFI11:
 918              		.cfi_def_cfa_offset 16
 919              		.loc 1 169 0
 920 0004 02AB     		add	r3, sp, #8
 921              		.loc 1 170 0
 922 0006 0122     		movs	r2, #1
 923              		.loc 1 169 0
 924 0008 03F8011D 		strb	r1, [r3, #-1]!
 925              		.loc 1 170 0
 926 000c 1946     		mov	r1, r3
 927              	.LVL134:
 928 000e FFF7FEFF 		bl	oneWireSend
 929              	.LVL135:
 930              		.loc 1 171 0
 931 0012 03B0     		add	sp, sp, #12
 932 0014 00BD     		pop	{pc}
 933              		.cfi_endproc
 934              	.LFE120:
 935              		.size	oneWireSendByte, .-oneWireSendByte
 936 0016 00BFAFF3 		.section	.text.oneWireReceive,"ax",%progbits
 936      0080AFF3 
 936      0080
 937              		.align	2
 938              		.p2align 4,,15
 939              		.global	oneWireReceive
 940              		.thumb
 941              		.thumb_func
 942              		.type	oneWireReceive, %function
 943              	oneWireReceive:
 944              	.LFB124:
 945              		.loc 1 212 0
 946              		.cfi_startproc
 947              		@ args = 0, pretend = 0, frame = 0
 948              		@ frame_needed = 1, uses_anonymous_args = 0
 949              	.LVL136:
 950 0000 2DE9F84F 		push	{r3, r4, r5, r6, r7, r8, r9, sl, fp, lr}
 951              	.LCFI12:
 952              		.cfi_def_cfa_offset 40
 953              		.cfi_offset 3, -40
 954              		.cfi_offset 4, -36
 955              		.cfi_offset 5, -32
 956              		.cfi_offset 6, -28
 957              		.cfi_offset 7, -24
ARM GAS  /tmp/cc4tHRwq.s 			page 18


 958              		.cfi_offset 8, -20
 959              		.cfi_offset 9, -16
 960              		.cfi_offset 10, -12
 961              		.cfi_offset 11, -8
 962              		.cfi_offset 14, -4
 963              		.loc 1 213 0
 964 0004 4FEAC205 		lsl	r5, r2, #3
 965              	.LVL137:
 966              		.loc 1 212 0
 967 0008 00AF     		add	r7, sp, #0
 968              	.LCFI13:
 969              		.cfi_def_cfa_register 7
 970              		.loc 1 216 0
 971 000a B5F5007F 		cmp	r5, #512
 972              		.loc 1 214 0
 973 000e ADEB050D 		sub	sp, sp, r5
 974              		.loc 1 212 0
 975 0012 9046     		mov	r8, r2
 976 0014 0646     		mov	r6, r0
 977 0016 8946     		mov	r9, r1
 978              		.loc 1 214 0
 979 0018 6C46     		mov	r4, sp
 980              	.LVL138:
 981              		.loc 1 216 0
 982 001a 03D9     		bls	.L135
 983              		.loc 1 217 0
 984 001c 0020     		movs	r0, #0
 985              	.LVL139:
 986              	.L93:
 987              		.loc 1 231 0
 988 001e BD46     		mov	sp, r7
 989 0020 BDE8F88F 		pop	{r3, r4, r5, r6, r7, r8, r9, sl, fp, pc}
 990              	.LVL140:
 991              	.L135:
 992              		.loc 1 219 0
 993 0024 00F12C0B 		add	fp, r0, #44
 994 0028 5846     		mov	r0, fp
 995              	.LVL141:
 996 002a 0021     		movs	r1, #0
 997              	.LVL142:
 998 002c FFF7FEFF 		bl	chSemReset
 999              	.LVL143:
 1000              		.loc 1 221 0
 1001 0030 06F1200A 		add	sl, r6, #32
 1002              		.loc 1 220 0
 1003 0034 6A46     		mov	r2, sp
 1004 0036 B068     		ldr	r0, [r6, #8]
 1005 0038 2946     		mov	r1, r5
 1006 003a FFF7FEFF 		bl	uartStartReceive
 1007              	.LVL144:
 1008              		.loc 1 221 0
 1009 003e 5046     		mov	r0, sl
 1010 0040 0021     		movs	r1, #0
 1011 0042 FFF7FEFF 		bl	chSemReset
 1012              	.LVL145:
 1013              		.loc 1 222 0
 1014 0046 2946     		mov	r1, r5
ARM GAS  /tmp/cc4tHRwq.s 			page 19


 1015 0048 704A     		ldr	r2, .L137
 1016 004a B068     		ldr	r0, [r6, #8]
 1017 004c FFF7FEFF 		bl	uartStartSend
 1018              	.LVL146:
 1019              		.loc 1 223 0
 1020 0050 5046     		mov	r0, sl
 1021 0052 FFF7FEFF 		bl	chSemWait
 1022              	.LVL147:
 1023              		.loc 1 224 0
 1024 0056 5846     		mov	r0, fp
 1025 0058 FFF7FEFF 		bl	chSemWait
 1026              	.LVL148:
 1027              	.LBB70:
 1028              		.loc 1 226 0
 1029 005c B8F1000F 		cmp	r8, #0
 1030 0060 00F0CE80 		beq	.L102
 1031              		.loc 1 338 0
 1032 0064 9DF80030 		ldrb	r3, [sp, #0]	@ zero_extendqisi2
 1033              	.LBB71:
 1034              	.LBB72:
 1035              	.LBB73:
 1036 0068 9DF80120 		ldrb	r2, [sp, #1]	@ zero_extendqisi2
 1037              	.LBE73:
 1038              	.LBE72:
 1039              	.LBE71:
 1040              		.loc 1 335 0
 1041 006c B3F1FF0C 		subs	ip, r3, #255
 1042 0070 DCF10000 		rsbs	r0, ip, #0
 1043 0074 08F1FF31 		add	r1, r8, #-1
 1044 0078 50EB0C03 		adcs	r3, r0, ip
 1045              	.LBB98:
 1046              	.LBB86:
 1047              	.LBB74:
 1048              		.loc 1 338 0
 1049 007c FF2A     		cmp	r2, #255
 1050 007e 01F00101 		and	r1, r1, #1
 1051              	.LVL149:
 1052 0082 00F0BF80 		beq	.L136
 1053              	.L106:
 1054              	.LVL150:
 1055 0086 A278     		ldrb	r2, [r4, #2]	@ zero_extendqisi2
 1056 0088 E078     		ldrb	r0, [r4, #3]	@ zero_extendqisi2
 1057 008a FF2A     		cmp	r2, #255
 1058 008c 2279     		ldrb	r2, [r4, #4]	@ zero_extendqisi2
 1059              		.loc 1 339 0
 1060 008e 08BF     		it	eq
 1061 0090 43F00403 		orreq	r3, r3, #4
 1062              	.LVL151:
 1063              		.loc 1 338 0
 1064 0094 FF28     		cmp	r0, #255
 1065 0096 6079     		ldrb	r0, [r4, #5]	@ zero_extendqisi2
 1066              		.loc 1 339 0
 1067 0098 08BF     		it	eq
 1068 009a 43F00803 		orreq	r3, r3, #8
 1069              	.LVL152:
 1070              		.loc 1 338 0
 1071 009e FF2A     		cmp	r2, #255
ARM GAS  /tmp/cc4tHRwq.s 			page 20


 1072 00a0 A279     		ldrb	r2, [r4, #6]	@ zero_extendqisi2
 1073              		.loc 1 339 0
 1074 00a2 08BF     		it	eq
 1075 00a4 43F01003 		orreq	r3, r3, #16
 1076              	.LVL153:
 1077              		.loc 1 338 0
 1078 00a8 FF28     		cmp	r0, #255
 1079 00aa E079     		ldrb	r0, [r4, #7]	@ zero_extendqisi2
 1080              		.loc 1 339 0
 1081 00ac 08BF     		it	eq
 1082 00ae 43F02003 		orreq	r3, r3, #32
 1083              	.LVL154:
 1084              		.loc 1 338 0
 1085 00b2 FF2A     		cmp	r2, #255
 1086              		.loc 1 339 0
 1087 00b4 08BF     		it	eq
 1088 00b6 43F04003 		orreq	r3, r3, #64
 1089              	.LVL155:
 1090              		.loc 1 338 0
 1091 00ba FF28     		cmp	r0, #255
 1092              		.loc 1 339 0
 1093 00bc 08BF     		it	eq
 1094 00be 43F08003 		orreq	r3, r3, #128
 1095              	.LVL156:
 1096              	.LBE74:
 1097              	.LBE86:
 1098              	.LBE98:
 1099              		.loc 1 226 0
 1100 00c2 0120     		movs	r0, #1
 1101              	.LVL157:
 1102 00c4 4045     		cmp	r0, r8
 1103              		.loc 1 227 0
 1104 00c6 89F80030 		strb	r3, [r9, #0]
 1105              		.loc 1 226 0
 1106 00ca 80F09980 		bcs	.L102
 1107 00ce 0029     		cmp	r1, #0
 1108 00d0 56D0     		beq	.L94
 1109              		.loc 1 211 0
 1110 00d2 0821     		movs	r1, #8
 1111              		.loc 1 227 0
 1112 00d4 6318     		adds	r3, r4, r1
 1113              	.LVL158:
 1114              		.loc 1 338 0
 1115 00d6 625C     		ldrb	r2, [r4, r1]	@ zero_extendqisi2
 1116              	.LBB99:
 1117              	.LBB87:
 1118              	.LBB75:
 1119 00d8 5978     		ldrb	r1, [r3, #1]	@ zero_extendqisi2
 1120              	.LBE75:
 1121              	.LBE87:
 1122              	.LBE99:
 1123              		.loc 1 335 0
 1124 00da B2F1FF0E 		subs	lr, r2, #255
 1125 00de DEF10002 		rsbs	r2, lr, #0
 1126 00e2 52EB0E02 		adcs	r2, r2, lr
 1127              	.LVL159:
 1128              	.LBB100:
ARM GAS  /tmp/cc4tHRwq.s 			page 21


 1129              	.LBB88:
 1130              	.LBB76:
 1131              		.loc 1 338 0
 1132 00e6 FF29     		cmp	r1, #255
 1133 00e8 9978     		ldrb	r1, [r3, #2]	@ zero_extendqisi2
 1134              		.loc 1 339 0
 1135 00ea 04BF     		itt	eq
 1136 00ec 42F00202 		orreq	r2, r2, #2
 1137 00f0 D2B2     		uxtbeq	r2, r2
 1138              	.LVL160:
 1139              		.loc 1 338 0
 1140 00f2 FF29     		cmp	r1, #255
 1141 00f4 D978     		ldrb	r1, [r3, #3]	@ zero_extendqisi2
 1142              		.loc 1 339 0
 1143 00f6 08BF     		it	eq
 1144 00f8 42F00402 		orreq	r2, r2, #4
 1145              	.LVL161:
 1146              		.loc 1 338 0
 1147 00fc FF29     		cmp	r1, #255
 1148 00fe 1979     		ldrb	r1, [r3, #4]	@ zero_extendqisi2
 1149              		.loc 1 339 0
 1150 0100 08BF     		it	eq
 1151 0102 42F00802 		orreq	r2, r2, #8
 1152              	.LVL162:
 1153              		.loc 1 338 0
 1154 0106 FF29     		cmp	r1, #255
 1155 0108 5979     		ldrb	r1, [r3, #5]	@ zero_extendqisi2
 1156              		.loc 1 339 0
 1157 010a 08BF     		it	eq
 1158 010c 42F01002 		orreq	r2, r2, #16
 1159              	.LVL163:
 1160              		.loc 1 338 0
 1161 0110 FF29     		cmp	r1, #255
 1162 0112 9979     		ldrb	r1, [r3, #6]	@ zero_extendqisi2
 1163 0114 DB79     		ldrb	r3, [r3, #7]	@ zero_extendqisi2
 1164              		.loc 1 339 0
 1165 0116 08BF     		it	eq
 1166 0118 42F02002 		orreq	r2, r2, #32
 1167              	.LVL164:
 1168              		.loc 1 338 0
 1169 011c FF29     		cmp	r1, #255
 1170              		.loc 1 339 0
 1171 011e 08BF     		it	eq
 1172 0120 42F04002 		orreq	r2, r2, #64
 1173              	.LVL165:
 1174              		.loc 1 338 0
 1175 0124 FF2B     		cmp	r3, #255
 1176              		.loc 1 339 0
 1177 0126 08BF     		it	eq
 1178 0128 42F08002 		orreq	r2, r2, #128
 1179              	.LVL166:
 1180              	.LBE76:
 1181              	.LBE88:
 1182              	.LBE100:
 1183              		.loc 1 227 0
 1184 012c 09F80020 		strb	r2, [r9, r0]
 1185              		.loc 1 226 0
ARM GAS  /tmp/cc4tHRwq.s 			page 22


 1186 0130 0130     		adds	r0, r0, #1
 1187 0132 4045     		cmp	r0, r8
 1188 0134 24D3     		bcc	.L94
 1189 0136 63E0     		b	.L102
 1190              	.LVL167:
 1191              	.L123:
 1192              	.LBB101:
 1193              	.LBB89:
 1194              	.LBB77:
 1195              		.loc 1 338 0
 1196 0138 9A78     		ldrb	r2, [r3, #2]	@ zero_extendqisi2
 1197 013a D878     		ldrb	r0, [r3, #3]	@ zero_extendqisi2
 1198 013c 1979     		ldrb	r1, [r3, #4]	@ zero_extendqisi2
 1199 013e FF2A     		cmp	r2, #255
 1200              		.loc 1 339 0
 1201 0140 08BF     		it	eq
 1202 0142 45F00405 		orreq	r5, r5, #4
 1203              	.LVL168:
 1204              		.loc 1 338 0
 1205 0146 5A79     		ldrb	r2, [r3, #5]	@ zero_extendqisi2
 1206 0148 FF28     		cmp	r0, #255
 1207              		.loc 1 339 0
 1208 014a 08BF     		it	eq
 1209 014c 45F00805 		orreq	r5, r5, #8
 1210              	.LVL169:
 1211              		.loc 1 338 0
 1212 0150 9879     		ldrb	r0, [r3, #6]	@ zero_extendqisi2
 1213 0152 DB79     		ldrb	r3, [r3, #7]	@ zero_extendqisi2
 1214 0154 FF29     		cmp	r1, #255
 1215              		.loc 1 339 0
 1216 0156 08BF     		it	eq
 1217 0158 45F01005 		orreq	r5, r5, #16
 1218              	.LVL170:
 1219              		.loc 1 338 0
 1220 015c FF2A     		cmp	r2, #255
 1221              		.loc 1 339 0
 1222 015e 08BF     		it	eq
 1223 0160 45F02005 		orreq	r5, r5, #32
 1224              	.LVL171:
 1225              		.loc 1 338 0
 1226 0164 FF28     		cmp	r0, #255
 1227              		.loc 1 339 0
 1228 0166 08BF     		it	eq
 1229 0168 45F04005 		orreq	r5, r5, #64
 1230              	.LVL172:
 1231              	.LBE77:
 1232              	.LBE89:
 1233              	.LBE101:
 1234              		.loc 1 226 0
 1235 016c 0CF10100 		add	r0, ip, #1
 1236              	.LBB102:
 1237              	.LBB90:
 1238              	.LBB78:
 1239              		.loc 1 338 0
 1240 0170 FF2B     		cmp	r3, #255
 1241              		.loc 1 339 0
 1242 0172 08BF     		it	eq
ARM GAS  /tmp/cc4tHRwq.s 			page 23


 1243 0174 45F08005 		orreq	r5, r5, #128
 1244              	.LVL173:
 1245              	.LBE78:
 1246              	.LBE90:
 1247              	.LBE102:
 1248              		.loc 1 226 0
 1249 0178 4045     		cmp	r0, r8
 1250              		.loc 1 227 0
 1251 017a 09F80C50 		strb	r5, [r9, ip]
 1252              		.loc 1 226 0
 1253 017e 3FD2     		bcs	.L102
 1254              	.L94:
 1255              		.loc 1 227 0 discriminator 2
 1256 0180 04EBC001 		add	r1, r4, r0, lsl #3
 1257              	.LVL174:
 1258              		.loc 1 338 0 discriminator 2
 1259 0184 14F83060 		ldrb	r6, [r4, r0, lsl #3]	@ zero_extendqisi2
 1260              	.LBB103:
 1261              	.LBB91:
 1262              	.LBB79:
 1263 0188 4A78     		ldrb	r2, [r1, #1]	@ zero_extendqisi2
 1264              	.LBE79:
 1265              	.LBE91:
 1266              	.LBE103:
 1267              		.loc 1 335 0 discriminator 2
 1268 018a B6F1FF05 		subs	r5, r6, #255
 1269 018e 6B42     		rsbs	r3, r5, #0
 1270 0190 53EB0506 		adcs	r6, r3, r5
 1271              	.LVL175:
 1272              	.LBB104:
 1273              	.LBB92:
 1274              	.LBB80:
 1275              		.loc 1 338 0 discriminator 2
 1276 0194 FF2A     		cmp	r2, #255
 1277 0196 8A78     		ldrb	r2, [r1, #2]	@ zero_extendqisi2
 1278 0198 CD78     		ldrb	r5, [r1, #3]	@ zero_extendqisi2
 1279 019a 0B79     		ldrb	r3, [r1, #4]	@ zero_extendqisi2
 1280              		.loc 1 339 0 discriminator 2
 1281 019c 04BF     		itt	eq
 1282 019e 46F00206 		orreq	r6, r6, #2
 1283 01a2 F6B2     		uxtbeq	r6, r6
 1284              	.LVL176:
 1285              		.loc 1 338 0 discriminator 2
 1286 01a4 FF2A     		cmp	r2, #255
 1287              		.loc 1 339 0 discriminator 2
 1288 01a6 08BF     		it	eq
 1289 01a8 46F00406 		orreq	r6, r6, #4
 1290              	.LVL177:
 1291              		.loc 1 338 0 discriminator 2
 1292 01ac 4A79     		ldrb	r2, [r1, #5]	@ zero_extendqisi2
 1293 01ae FF2D     		cmp	r5, #255
 1294              		.loc 1 339 0 discriminator 2
 1295 01b0 08BF     		it	eq
 1296 01b2 46F00806 		orreq	r6, r6, #8
 1297              	.LVL178:
 1298              		.loc 1 338 0 discriminator 2
 1299 01b6 8D79     		ldrb	r5, [r1, #6]	@ zero_extendqisi2
ARM GAS  /tmp/cc4tHRwq.s 			page 24


 1300 01b8 C979     		ldrb	r1, [r1, #7]	@ zero_extendqisi2
 1301 01ba FF2B     		cmp	r3, #255
 1302              		.loc 1 339 0 discriminator 2
 1303 01bc 08BF     		it	eq
 1304 01be 46F01006 		orreq	r6, r6, #16
 1305              	.LVL179:
 1306              	.LBE80:
 1307              	.LBE92:
 1308              	.LBE104:
 1309              		.loc 1 226 0 discriminator 2
 1310 01c2 00F1010C 		add	ip, r0, #1
 1311              	.LBB105:
 1312              	.LBB93:
 1313              	.LBB81:
 1314              		.loc 1 338 0 discriminator 2
 1315 01c6 FF2A     		cmp	r2, #255
 1316              		.loc 1 339 0 discriminator 2
 1317 01c8 08BF     		it	eq
 1318 01ca 46F02006 		orreq	r6, r6, #32
 1319              	.LVL180:
 1320              		.loc 1 338 0 discriminator 2
 1321 01ce FF2D     		cmp	r5, #255
 1322              		.loc 1 339 0 discriminator 2
 1323 01d0 08BF     		it	eq
 1324 01d2 46F04006 		orreq	r6, r6, #64
 1325              	.LVL181:
 1326              	.LBE81:
 1327              	.LBE93:
 1328              	.LBE105:
 1329              		.loc 1 338 0 discriminator 2
 1330 01d6 14F83C50 		ldrb	r5, [r4, ip, lsl #3]	@ zero_extendqisi2
 1331              	.LBB106:
 1332              	.LBB94:
 1333              	.LBB82:
 1334 01da FF29     		cmp	r1, #255
 1335              	.LBE82:
 1336              	.LBE94:
 1337              	.LBE106:
 1338              		.loc 1 227 0 discriminator 2
 1339 01dc 04EBCC03 		add	r3, r4, ip, lsl #3
 1340              	.LBB107:
 1341              	.LBB95:
 1342              	.LBB83:
 1343              		.loc 1 339 0 discriminator 2
 1344 01e0 08BF     		it	eq
 1345 01e2 46F08006 		orreq	r6, r6, #128
 1346              	.LVL182:
 1347              		.loc 1 338 0 discriminator 2
 1348 01e6 5A78     		ldrb	r2, [r3, #1]	@ zero_extendqisi2
 1349              	.LBE83:
 1350              	.LBE95:
 1351              	.LBE107:
 1352              		.loc 1 227 0 discriminator 2
 1353 01e8 09F80060 		strb	r6, [r9, r0]
 1354              		.loc 1 335 0 discriminator 2
 1355 01ec B5F1FF00 		subs	r0, r5, #255
 1356 01f0 4142     		rsbs	r1, r0, #0
ARM GAS  /tmp/cc4tHRwq.s 			page 25


 1357 01f2 51EB0005 		adcs	r5, r1, r0
 1358              	.LVL183:
 1359              	.LBB108:
 1360              	.LBB96:
 1361              	.LBB84:
 1362              		.loc 1 338 0 discriminator 2
 1363 01f6 FF2A     		cmp	r2, #255
 1364 01f8 9ED1     		bne	.L123
 1365              		.loc 1 339 0
 1366 01fa 45F00205 		orr	r5, r5, #2
 1367 01fe 9BE7     		b	.L123
 1368              	.LVL184:
 1369              	.L102:
 1370              	.LBE84:
 1371              	.LBE96:
 1372              	.LBE108:
 1373              	.LBE70:
 1374              		.loc 1 230 0
 1375 0200 0120     		movs	r0, #1
 1376 0202 0CE7     		b	.L93
 1377              	.LVL185:
 1378              	.L136:
 1379              	.LBB110:
 1380              	.LBB109:
 1381              	.LBB97:
 1382              	.LBB85:
 1383              		.loc 1 339 0
 1384 0204 43F00203 		orr	r3, r3, #2
 1385              	.LVL186:
 1386 0208 3DE7     		b	.L106
 1387              	.L138:
 1388 020a 00BF     		.align	2
 1389              	.L137:
 1390 020c 00000000 		.word	.LANCHOR3
 1391              	.LBE85:
 1392              	.LBE97:
 1393              	.LBE109:
 1394              	.LBE110:
 1395              		.cfi_endproc
 1396              	.LFE124:
 1397              		.size	oneWireReceive, .-oneWireReceive
 1398              		.section	.text.oneWireReceiveByte,"ax",%progbits
 1399              		.align	2
 1400              		.p2align 4,,15
 1401              		.global	oneWireReceiveByte
 1402              		.thumb
 1403              		.thumb_func
 1404              		.type	oneWireReceiveByte, %function
 1405              	oneWireReceiveByte:
 1406              	.LFB121:
 1407              		.loc 1 174 0
 1408              		.cfi_startproc
 1409              		@ args = 0, pretend = 0, frame = 8
 1410              		@ frame_needed = 0, uses_anonymous_args = 0
 1411              	.LVL187:
 1412 0000 00B5     		push	{lr}
 1413              	.LCFI14:
ARM GAS  /tmp/cc4tHRwq.s 			page 26


 1414              		.cfi_def_cfa_offset 4
 1415              		.cfi_offset 14, -4
 1416 0002 83B0     		sub	sp, sp, #12
 1417              	.LCFI15:
 1418              		.cfi_def_cfa_offset 16
 1419              		.loc 1 176 0
 1420 0004 0DF10701 		add	r1, sp, #7
 1421 0008 0122     		movs	r2, #1
 1422 000a FFF7FEFF 		bl	oneWireReceive
 1423              	.LVL188:
 1424              		.loc 1 179 0
 1425 000e 9DF80700 		ldrb	r0, [sp, #7]	@ zero_extendqisi2
 1426 0012 03B0     		add	sp, sp, #12
 1427 0014 00BD     		pop	{pc}
 1428              		.cfi_endproc
 1429              	.LFE121:
 1430              		.size	oneWireReceiveByte, .-oneWireReceiveByte
 1431 0016 00BFAFF3 		.section	.text.oneWireReceiveBit,"ax",%progbits
 1431      0080AFF3 
 1431      0080
 1432              		.align	2
 1433              		.p2align 4,,15
 1434              		.global	oneWireReceiveBit
 1435              		.thumb
 1436              		.thumb_func
 1437              		.type	oneWireReceiveBit, %function
 1438              	oneWireReceiveBit:
 1439              	.LFB125:
 1440              		.loc 1 235 0
 1441              		.cfi_startproc
 1442              		@ args = 0, pretend = 0, frame = 8
 1443              		@ frame_needed = 0, uses_anonymous_args = 0
 1444              	.LVL189:
 1445 0000 70B5     		push	{r4, r5, r6, lr}
 1446              	.LCFI16:
 1447              		.cfi_def_cfa_offset 16
 1448              		.cfi_offset 4, -16
 1449              		.cfi_offset 5, -12
 1450              		.cfi_offset 6, -8
 1451              		.cfi_offset 14, -4
 1452 0002 0446     		mov	r4, r0
 1453              		.loc 1 238 0
 1454 0004 00F12C06 		add	r6, r0, #44
 1455              		.loc 1 235 0
 1456 0008 82B0     		sub	sp, sp, #8
 1457              	.LCFI17:
 1458              		.cfi_def_cfa_offset 24
 1459              		.loc 1 238 0
 1460 000a 3046     		mov	r0, r6
 1461              	.LVL190:
 1462 000c 0021     		movs	r1, #0
 1463 000e FFF7FEFF 		bl	chSemReset
 1464              	.LVL191:
 1465              		.loc 1 240 0
 1466 0012 04F12005 		add	r5, r4, #32
 1467              		.loc 1 239 0
 1468 0016 0DF10702 		add	r2, sp, #7
ARM GAS  /tmp/cc4tHRwq.s 			page 27


 1469 001a A068     		ldr	r0, [r4, #8]
 1470 001c 0121     		movs	r1, #1
 1471 001e FFF7FEFF 		bl	uartStartReceive
 1472              	.LVL192:
 1473              		.loc 1 240 0
 1474 0022 2846     		mov	r0, r5
 1475 0024 0021     		movs	r1, #0
 1476 0026 FFF7FEFF 		bl	chSemReset
 1477              	.LVL193:
 1478              		.loc 1 241 0
 1479 002a 40F20002 		movw	r2, #:lower16:.LANCHOR3
 1480 002e 0121     		movs	r1, #1
 1481 0030 C0F20002 		movt	r2, #:upper16:.LANCHOR3
 1482 0034 A068     		ldr	r0, [r4, #8]
 1483 0036 FFF7FEFF 		bl	uartStartSend
 1484              	.LVL194:
 1485              		.loc 1 242 0
 1486 003a 2846     		mov	r0, r5
 1487 003c FFF7FEFF 		bl	chSemWait
 1488              	.LVL195:
 1489              		.loc 1 243 0
 1490 0040 3046     		mov	r0, r6
 1491 0042 FFF7FEFF 		bl	chSemWait
 1492              	.LVL196:
 1493              		.loc 1 245 0
 1494 0046 9DF80700 		ldrb	r0, [sp, #7]	@ zero_extendqisi2
 1495              	.LVL197:
 1496              		.loc 1 246 0
 1497 004a B0F1FF03 		subs	r3, r0, #255
 1498              	.LVL198:
 1499 004e 5942     		rsbs	r1, r3, #0
 1500 0050 51EB0300 		adcs	r0, r1, r3
 1501              	.LVL199:
 1502 0054 02B0     		add	sp, sp, #8
 1503 0056 70BD     		pop	{r4, r5, r6, pc}
 1504              		.cfi_endproc
 1505              	.LFE125:
 1506              		.size	oneWireReceiveBit, .-oneWireReceiveBit
 1507 0058 AFF30080 		.section	.text.oneWireNext.part.0,"ax",%progbits
 1507      AFF30080 
 1508              		.align	2
 1509              		.p2align 4,,15
 1510              		.thumb
 1511              		.thumb_func
 1512              		.type	oneWireNext.part.0, %function
 1513              	oneWireNext.part.0:
 1514              	.LFB141:
 1515              		.loc 1 426 0
 1516              		.cfi_startproc
 1517              		@ args = 0, pretend = 0, frame = 0
 1518              		@ frame_needed = 0, uses_anonymous_args = 0
 1519              	.LVL200:
 1520 0000 2DE9F84F 		push	{r3, r4, r5, r6, r7, r8, r9, sl, fp, lr}
 1521              	.LCFI18:
 1522              		.cfi_def_cfa_offset 40
 1523              		.cfi_offset 3, -40
 1524              		.cfi_offset 4, -36
ARM GAS  /tmp/cc4tHRwq.s 			page 28


 1525              		.cfi_offset 5, -32
 1526              		.cfi_offset 6, -28
 1527              		.cfi_offset 7, -24
 1528              		.cfi_offset 8, -20
 1529              		.cfi_offset 9, -16
 1530              		.cfi_offset 10, -12
 1531              		.cfi_offset 11, -8
 1532              		.cfi_offset 14, -4
 1533              		.loc 1 426 0
 1534 0004 8846     		mov	r8, r1
 1535              		.loc 1 433 0
 1536 0006 4FF0000A 		mov	sl, #0
 1537              		.loc 1 450 0
 1538 000a 002A     		cmp	r2, #0
 1539 000c 0CBF     		ite	eq
 1540 000e F021     		moveq	r1, #240
 1541 0010 EC21     		movne	r1, #236
 1542              	.LVL201:
 1543              		.loc 1 431 0
 1544 0012 0125     		movs	r5, #1
 1545              		.loc 1 426 0
 1546 0014 0646     		mov	r6, r0
 1547              		.loc 1 490 0
 1548 0016 DFF8DC90 		ldr	r9, .L167
 1549              		.loc 1 450 0
 1550 001a FFF7FEFF 		bl	oneWireSendByte
 1551              	.LVL202:
 1552              		.loc 1 430 0
 1553 001e 5446     		mov	r4, sl
 1554              		.loc 1 429 0
 1555 0020 2F46     		mov	r7, r5
 1556 0022 2CE0     		b	.L155
 1557              	.LVL203:
 1558              	.L165:
 1559              		.loc 1 457 0
 1560 0024 4BF00103 		orr	r3, fp, #1
 1561 0028 5FFA83FB 		uxtb	fp, r3
 1562              	.LVL204:
 1563              		.loc 1 458 0
 1564 002c BBF1030F 		cmp	fp, #3
 1565 0030 4FD0     		beq	.L145
 1566              	.LVL205:
 1567              	.L146:
 1568              		.loc 1 480 0
 1569 0032 5FEA5B0B 		lsrs	fp, fp, #1
 1570              	.LVL206:
 1571 0036 08EB0402 		add	r2, r8, r4
 1572 003a 18F80400 		ldrb	r0, [r8, r4]	@ zero_extendqisi2
 1573 003e 3ED1     		bne	.L149
 1574              	.L152:
 1575              		.loc 1 481 0
 1576 0040 20EA0500 		bic	r0, r0, r5
 1577 0044 1070     		strb	r0, [r2, #0]
 1578 0046 0021     		movs	r1, #0
 1579              	.L153:
 1580              		.loc 1 483 0
 1581 0048 3046     		mov	r0, r6
ARM GAS  /tmp/cc4tHRwq.s 			page 29


 1582              		.loc 1 486 0
 1583 004a 6D00     		lsls	r5, r5, #1
 1584              	.LVL207:
 1585              		.loc 1 485 0
 1586 004c 0137     		adds	r7, r7, #1
 1587              	.LVL208:
 1588              		.loc 1 483 0
 1589 004e FFF7FEFF 		bl	oneWireSendBit
 1590              	.LVL209:
 1591              		.loc 1 488 0
 1592 0052 15F0FF05 		ands	r5, r5, #255
 1593              		.loc 1 485 0
 1594 0056 FFB2     		uxtb	r7, r7
 1595              	.LVL210:
 1596              		.loc 1 488 0
 1597 0058 0FD1     		bne	.L154
 1598              		.loc 1 490 0
 1599 005a 18F80400 		ldrb	r0, [r8, r4]	@ zero_extendqisi2
 1600 005e 99F80010 		ldrb	r1, [r9, #0]	@ zero_extendqisi2
 1601 0062 40F20002 		movw	r2, #:lower16:.LANCHOR5
 1602 0066 80EA0103 		eor	r3, r0, r1
 1603 006a C0F20002 		movt	r2, #:upper16:.LANCHOR5
 1604              		.loc 1 491 0
 1605 006e 0134     		adds	r4, r4, #1
 1606              	.LVL211:
 1607              		.loc 1 490 0
 1608 0070 D55C     		ldrb	r5, [r2, r3]	@ zero_extendqisi2
 1609              		.loc 1 491 0
 1610 0072 E4B2     		uxtb	r4, r4
 1611              	.LVL212:
 1612              		.loc 1 490 0
 1613 0074 89F80050 		strb	r5, [r9, #0]
 1614              		.loc 1 492 0
 1615 0078 0125     		movs	r5, #1
 1616              	.LVL213:
 1617              	.L154:
 1618              		.loc 1 495 0
 1619 007a 072C     		cmp	r4, #7
 1620 007c 29D8     		bhi	.L145
 1621              	.LVL214:
 1622              	.L155:
 1623              		.loc 1 454 0
 1624 007e 3046     		mov	r0, r6
 1625 0080 FFF7FEFF 		bl	oneWireReceiveBit
 1626              	.LVL215:
 1627              		.loc 1 453 0
 1628 0084 0028     		cmp	r0, #0
 1629 0086 14BF     		ite	ne
 1630 0088 4FF0020B 		movne	fp, #2
 1631 008c 4FF0000B 		moveq	fp, #0
 1632              	.LVL216:
 1633              		.loc 1 456 0
 1634 0090 3046     		mov	r0, r6
 1635 0092 FFF7FEFF 		bl	oneWireReceiveBit
 1636              	.LVL217:
 1637 0096 0028     		cmp	r0, #0
 1638 0098 C4D1     		bne	.L165
ARM GAS  /tmp/cc4tHRwq.s 			page 30


 1639              		.loc 1 462 0
 1640 009a BBF1000F 		cmp	fp, #0
 1641 009e C8D1     		bne	.L146
 1642              		.loc 1 469 0
 1643 00a0 96F83830 		ldrb	r3, [r6, #56]	@ zero_extendqisi2
 1644              		.loc 1 470 0
 1645 00a4 18F80400 		ldrb	r0, [r8, r4]	@ zero_extendqisi2
 1646              		.loc 1 469 0
 1647 00a8 BB42     		cmp	r3, r7
 1648 00aa 0CD9     		bls	.L150
 1649              		.loc 1 470 0
 1650 00ac 2842     		tst	r0, r5
 1651 00ae 08EB0402 		add	r2, r8, r4
 1652 00b2 0CBF     		ite	eq
 1653 00b4 0021     		moveq	r1, #0
 1654 00b6 0121     		movne	r1, #1
 1655              	.LVL218:
 1656              	.L151:
 1657              		.loc 1 476 0
 1658 00b8 09B9     		cbnz	r1, .L149
 1659 00ba BA46     		mov	sl, r7
 1660 00bc C0E7     		b	.L152
 1661              	.LVL219:
 1662              	.L149:
 1663              		.loc 1 480 0
 1664 00be 2843     		orrs	r0, r0, r5
 1665 00c0 1070     		strb	r0, [r2, #0]
 1666 00c2 0121     		movs	r1, #1
 1667 00c4 C0E7     		b	.L153
 1668              	.LVL220:
 1669              	.L150:
 1670              		.loc 1 473 0
 1671 00c6 14BF     		ite	ne
 1672 00c8 0021     		movne	r1, #0
 1673 00ca 0121     		moveq	r1, #1
 1674              	.LVL221:
 1675 00cc 08EB0402 		add	r2, r8, r4
 1676 00d0 F2E7     		b	.L151
 1677              	.LVL222:
 1678              	.L145:
 1679              		.loc 1 497 0
 1680 00d2 57B1     		cbz	r7, .L166
 1681              		.loc 1 502 0
 1682 00d4 DAF10100 		rsbs	r0, sl, #1
 1683 00d8 38BF     		it	cc
 1684 00da 0020     		movcc	r0, #0
 1685 00dc 86F83900 		strb	r0, [r6, #57]
 1686              	.LVL223:
 1687              		.loc 1 501 0
 1688 00e0 86F838A0 		strb	sl, [r6, #56]
 1689              		.loc 1 503 0
 1690 00e4 0120     		movs	r0, #1
 1691              	.LVL224:
 1692              		.loc 1 507 0
 1693 00e6 BDE8F88F 		pop	{r3, r4, r5, r6, r7, r8, r9, sl, fp, pc}
 1694              	.LVL225:
 1695              	.L166:
ARM GAS  /tmp/cc4tHRwq.s 			page 31


 1696              		.loc 1 498 0
 1697 00ea 86F83870 		strb	r7, [r6, #56]
 1698              		.loc 1 439 0
 1699 00ee 3846     		mov	r0, r7
 1700 00f0 BDE8F88F 		pop	{r3, r4, r5, r6, r7, r8, r9, sl, fp, pc}
 1701              	.L168:
 1702              		.align	2
 1703              	.L167:
 1704 00f4 00000000 		.word	.LANCHOR4
 1705              		.cfi_endproc
 1706              	.LFE141:
 1707              		.size	oneWireNext.part.0, .-oneWireNext.part.0
 1708 00f8 AFF30080 		.section	.text.oneWireReadRom,"ax",%progbits
 1708      AFF30080 
 1709              		.align	2
 1710              		.p2align 4,,15
 1711              		.global	oneWireReadRom
 1712              		.thumb
 1713              		.thumb_func
 1714              		.type	oneWireReadRom, %function
 1715              	oneWireReadRom:
 1716              	.LFB126:
 1717              		.loc 1 249 0
 1718              		.cfi_startproc
 1719              		@ args = 0, pretend = 0, frame = 0
 1720              		@ frame_needed = 0, uses_anonymous_args = 0
 1721              	.LVL226:
 1722 0000 2DE9F041 		push	{r4, r5, r6, r7, r8, lr}
 1723              	.LCFI19:
 1724              		.cfi_def_cfa_offset 24
 1725              		.cfi_offset 4, -24
 1726              		.cfi_offset 5, -20
 1727              		.cfi_offset 6, -16
 1728              		.cfi_offset 7, -12
 1729              		.cfi_offset 8, -8
 1730              		.cfi_offset 14, -4
 1731              		.loc 1 249 0
 1732 0004 0546     		mov	r5, r0
 1733 0006 0C46     		mov	r4, r1
 1734              		.loc 1 250 0
 1735 0008 FFF7FEFF 		bl	oneWireReset
 1736              	.LVL227:
 1737              		.loc 1 251 0
 1738 000c 2846     		mov	r0, r5
 1739 000e 3321     		movs	r1, #51
 1740 0010 FFF7FEFF 		bl	oneWireSendByte
 1741              	.LVL228:
 1742              		.loc 1 252 0
 1743 0014 2146     		mov	r1, r4
 1744 0016 0822     		movs	r2, #8
 1745 0018 2846     		mov	r0, r5
 1746 001a FFF7FEFF 		bl	oneWireReceive
 1747              	.LVL229:
 1748              	.LBB111:
 1749              	.LBB112:
 1750              		.loc 1 301 0
 1751 001e 40F20003 		movw	r3, #:lower16:.LANCHOR5
ARM GAS  /tmp/cc4tHRwq.s 			page 32


 1752 0022 C0F20003 		movt	r3, #:upper16:.LANCHOR5
 1753 0026 2278     		ldrb	r2, [r4, #0]	@ zero_extendqisi2
 1754 0028 94F801C0 		ldrb	ip, [r4, #1]	@ zero_extendqisi2
 1755 002c 13F80280 		ldrb	r8, [r3, r2]	@ zero_extendqisi2
 1756              	.LBE112:
 1757              	.LBE111:
 1758              		.loc 1 254 0
 1759 0030 E079     		ldrb	r0, [r4, #7]	@ zero_extendqisi2
 1760              	.LBB114:
 1761              	.LBB113:
 1762              		.loc 1 301 0
 1763 0032 A778     		ldrb	r7, [r4, #2]	@ zero_extendqisi2
 1764 0034 E678     		ldrb	r6, [r4, #3]	@ zero_extendqisi2
 1765 0036 2579     		ldrb	r5, [r4, #4]	@ zero_extendqisi2
 1766              	.LVL230:
 1767 0038 6179     		ldrb	r1, [r4, #5]	@ zero_extendqisi2
 1768 003a A279     		ldrb	r2, [r4, #6]	@ zero_extendqisi2
 1769 003c 88EA0C04 		eor	r4, r8, ip
 1770              	.LVL231:
 1771 0040 1C5D     		ldrb	r4, [r3, r4]	@ zero_extendqisi2
 1772              	.LVL232:
 1773 0042 7C40     		eors	r4, r4, r7
 1774              	.LVL233:
 1775 0044 1C5D     		ldrb	r4, [r3, r4]	@ zero_extendqisi2
 1776              	.LVL234:
 1777 0046 7440     		eors	r4, r4, r6
 1778 0048 1C5D     		ldrb	r4, [r3, r4]	@ zero_extendqisi2
 1779              	.LVL235:
 1780 004a 6C40     		eors	r4, r4, r5
 1781              	.LVL236:
 1782 004c 1C5D     		ldrb	r4, [r3, r4]	@ zero_extendqisi2
 1783              	.LVL237:
 1784 004e 6140     		eors	r1, r1, r4
 1785 0050 595C     		ldrb	r1, [r3, r1]	@ zero_extendqisi2
 1786              	.LVL238:
 1787 0052 4A40     		eors	r2, r2, r1
 1788              	.LVL239:
 1789              	.LBE113:
 1790              	.LBE114:
 1791              		.loc 1 254 0
 1792 0054 9B5C     		ldrb	r3, [r3, r2]	@ zero_extendqisi2
 1793              		.loc 1 259 0
 1794 0056 C11A     		subs	r1, r0, r3
 1795 0058 4842     		rsbs	r0, r1, #0
 1796 005a 4841     		adcs	r0, r0, r1
 1797 005c BDE8F081 		pop	{r4, r5, r6, r7, r8, pc}
 1798              		.cfi_endproc
 1799              	.LFE126:
 1800              		.size	oneWireReadRom, .-oneWireReadRom
 1801              		.section	.text.oneWireCrc8,"ax",%progbits
 1802              		.align	2
 1803              		.p2align 4,,15
 1804              		.global	oneWireCrc8
 1805              		.thumb
 1806              		.thumb_func
 1807              		.type	oneWireCrc8, %function
 1808              	oneWireCrc8:
ARM GAS  /tmp/cc4tHRwq.s 			page 33


 1809              	.LFB128:
 1810              		.loc 1 297 0
 1811              		.cfi_startproc
 1812              		@ args = 0, pretend = 0, frame = 0
 1813              		@ frame_needed = 0, uses_anonymous_args = 0
 1814              		@ link register save eliminated.
 1815              	.LVL240:
 1816 0000 30B4     		push	{r4, r5}
 1817              	.LCFI20:
 1818              		.cfi_def_cfa_offset 8
 1819              		.cfi_offset 4, -8
 1820              		.cfi_offset 5, -4
 1821              		.loc 1 300 0
 1822 0002 4C1E     		subs	r4, r1, #1
 1823 0004 E4B2     		uxtb	r4, r4
 1824              	.LVL241:
 1825 0006 0029     		cmp	r1, #0
 1826 0008 23D0     		beq	.L173
 1827              		.loc 1 301 0
 1828 000a 0346     		mov	r3, r0
 1829              		.loc 1 300 0
 1830 000c 621E     		subs	r2, r4, #1
 1831 000e 1249     		ldr	r1, .L181
 1832              		.loc 1 301 0
 1833 0010 13F8010B 		ldrb	r0, [r3], #1	@ zero_extendqisi2
 1834              	.LVL242:
 1835              		.loc 1 300 0
 1836 0014 D2B2     		uxtb	r2, r2
 1837 0016 FF2A     		cmp	r2, #255
 1838 0018 04F00104 		and	r4, r4, #1
 1839              	.LVL243:
 1840              		.loc 1 301 0
 1841 001c 085C     		ldrb	r0, [r1, r0]	@ zero_extendqisi2
 1842              	.LVL244:
 1843              		.loc 1 300 0
 1844 001e 16D0     		beq	.L171
 1845 0020 3CB1     		cbz	r4, .L172
 1846              		.loc 1 301 0
 1847 0022 13F8014B 		ldrb	r4, [r3], #1	@ zero_extendqisi2
 1848              	.LVL245:
 1849              		.loc 1 300 0
 1850 0026 013A     		subs	r2, r2, #1
 1851              		.loc 1 301 0
 1852 0028 6040     		eors	r0, r0, r4
 1853              		.loc 1 300 0
 1854 002a D2B2     		uxtb	r2, r2
 1855 002c FF2A     		cmp	r2, #255
 1856              		.loc 1 301 0
 1857 002e 085C     		ldrb	r0, [r1, r0]	@ zero_extendqisi2
 1858              	.LVL246:
 1859              		.loc 1 300 0
 1860 0030 0DD0     		beq	.L171
 1861              	.L172:
 1862              		.loc 1 301 0
 1863 0032 1C46     		mov	r4, r3
 1864 0034 5B78     		ldrb	r3, [r3, #1]	@ zero_extendqisi2
 1865 0036 14F8015B 		ldrb	r5, [r4], #1	@ zero_extendqisi2
ARM GAS  /tmp/cc4tHRwq.s 			page 34


 1866 003a 6840     		eors	r0, r0, r5
 1867              		.loc 1 300 0
 1868 003c 023A     		subs	r2, r2, #2
 1869              		.loc 1 301 0
 1870 003e 085C     		ldrb	r0, [r1, r0]	@ zero_extendqisi2
 1871 0040 4340     		eors	r3, r3, r0
 1872              		.loc 1 300 0
 1873 0042 02F0FF02 		and	r2, r2, #255
 1874              		.loc 1 301 0
 1875 0046 C85C     		ldrb	r0, [r1, r3]	@ zero_extendqisi2
 1876 0048 631C     		adds	r3, r4, #1
 1877              		.loc 1 300 0
 1878 004a FF2A     		cmp	r2, #255
 1879 004c F1D1     		bne	.L172
 1880              	.L171:
 1881              		.loc 1 304 0
 1882 004e 30BC     		pop	{r4, r5}
 1883 0050 7047     		bx	lr
 1884              	.LVL247:
 1885              	.L173:
 1886              		.loc 1 298 0
 1887 0052 0846     		mov	r0, r1
 1888              	.LVL248:
 1889 0054 FBE7     		b	.L171
 1890              	.L182:
 1891 0056 00BF     		.align	2
 1892              	.L181:
 1893 0058 00000000 		.word	.LANCHOR5
 1894              		.cfi_endproc
 1895              	.LFE128:
 1896              		.size	oneWireCrc8, .-oneWireCrc8
 1897 005c AFF30080 		.section	.text.oneWireAcquireBus,"ax",%progbits
 1898              		.align	2
 1899              		.p2align 4,,15
 1900              		.global	oneWireAcquireBus
 1901              		.thumb
 1902              		.thumb_func
 1903              		.type	oneWireAcquireBus, %function
 1904              	oneWireAcquireBus:
 1905              	.LFB129:
 1906              		.loc 1 307 0
 1907              		.cfi_startproc
 1908              		@ args = 0, pretend = 0, frame = 0
 1909              		@ frame_needed = 0, uses_anonymous_args = 0
 1910              		@ link register save eliminated.
 1911              	.LVL249:
 1912              		.loc 1 308 0
 1913 0000 1030     		adds	r0, r0, #16
 1914              	.LVL250:
 1915              		.loc 1 309 0
 1916              		.loc 1 308 0
 1917 0002 FFF7FEBF 		b	chMtxLock
 1918              	.LVL251:
 1919              		.cfi_endproc
 1920              	.LFE129:
 1921              		.size	oneWireAcquireBus, .-oneWireAcquireBus
 1922 0006 00BFAFF3 		.section	.text.oneWireSearchRom,"ax",%progbits
ARM GAS  /tmp/cc4tHRwq.s 			page 35


 1922      0080AFF3 
 1922      0080
 1923              		.align	2
 1924              		.p2align 4,,15
 1925              		.global	oneWireSearchRom
 1926              		.thumb
 1927              		.thumb_func
 1928              		.type	oneWireSearchRom, %function
 1929              	oneWireSearchRom:
 1930              	.LFB127:
 1931              		.loc 1 266 0
 1932              		.cfi_startproc
 1933              		@ args = 0, pretend = 0, frame = 16
 1934              		@ frame_needed = 0, uses_anonymous_args = 0
 1935              	.LVL252:
 1936 0000 2DE9F04F 		push	{r4, r5, r6, r7, r8, r9, sl, fp, lr}
 1937              	.LCFI21:
 1938              		.cfi_def_cfa_offset 36
 1939              		.cfi_offset 4, -36
 1940              		.cfi_offset 5, -32
 1941              		.cfi_offset 6, -28
 1942              		.cfi_offset 7, -24
 1943              		.cfi_offset 8, -20
 1944              		.cfi_offset 9, -16
 1945              		.cfi_offset 10, -12
 1946              		.cfi_offset 11, -8
 1947              		.cfi_offset 14, -4
 1948 0004 85B0     		sub	sp, sp, #20
 1949              	.LCFI22:
 1950              		.cfi_def_cfa_offset 56
 1951              		.loc 1 268 0
 1952 0006 0027     		movs	r7, #0
 1953              		.loc 1 266 0
 1954 0008 0546     		mov	r5, r0
 1955 000a 8B46     		mov	fp, r1
 1956 000c 1446     		mov	r4, r2
 1957 000e 1E46     		mov	r6, r3
 1958              		.loc 1 268 0
 1959 0010 8DF80870 		strb	r7, [sp, #8]
 1960 0014 8DF80970 		strb	r7, [sp, #9]
 1961 0018 8DF80A70 		strb	r7, [sp, #10]
 1962 001c 8DF80B70 		strb	r7, [sp, #11]
 1963 0020 8DF80C70 		strb	r7, [sp, #12]
 1964 0024 8DF80D70 		strb	r7, [sp, #13]
 1965 0028 8DF80E70 		strb	r7, [sp, #14]
 1966 002c 8DF80F70 		strb	r7, [sp, #15]
 1967              		.loc 1 270 0
 1968 0030 FFF7FEFF 		bl	oneWireAcquireBus
 1969              	.LVL253:
 1970              		.loc 1 271 0
 1971 0034 2846     		mov	r0, r5
 1972 0036 FFF7FEFF 		bl	oneWireReset
 1973              	.LVL254:
 1974 003a 38B9     		cbnz	r0, .L185
 1975              	.L189:
 1976              		.loc 1 267 0
 1977 003c 4FF00009 		mov	r9, #0
ARM GAS  /tmp/cc4tHRwq.s 			page 36


 1978              	.LVL255:
 1979              	.L186:
 1980              	.LBB124:
 1981              	.LBB125:
 1982              		.loc 1 313 0
 1983 0040 FFF7FEFF 		bl	chMtxUnlock
 1984              	.LVL256:
 1985              	.LBE125:
 1986              	.LBE124:
 1987              		.loc 1 293 0
 1988 0044 4846     		mov	r0, r9
 1989 0046 05B0     		add	sp, sp, #20
 1990 0048 BDE8F08F 		pop	{r4, r5, r6, r7, r8, r9, sl, fp, pc}
 1991              	.LVL257:
 1992              	.L185:
 1993              	.LBB126:
 1994              	.LBB127:
 1995              	.LBB128:
 1996              	.LBB129:
 1997              		.loc 1 440 0
 1998 004c DFF81CA2 		ldr	sl, .L227
 1999              	.LBE129:
 2000              	.LBE128:
 2001              		.loc 1 418 0
 2002 0050 85F83870 		strb	r7, [r5, #56]
 2003              		.loc 1 419 0
 2004 0054 85F83970 		strb	r7, [r5, #57]
 2005              	.LVL258:
 2006              	.LBB132:
 2007              	.LBB130:
 2008              		.loc 1 441 0
 2009 0058 2846     		mov	r0, r5
 2010              		.loc 1 440 0
 2011 005a 8AF80070 		strb	r7, [sl, #0]
 2012              		.loc 1 441 0
 2013 005e FFF7FEFF 		bl	oneWireReset
 2014              	.LVL259:
 2015              		.loc 1 443 0
 2016 0062 0028     		cmp	r0, #0
 2017 0064 00F08380 		beq	.L187
 2018 0068 95F83980 		ldrb	r8, [r5, #57]	@ zero_extendqisi2
 2019 006c B8F1000F 		cmp	r8, #0
 2020 0070 7DD1     		bne	.L187
 2021 0072 2846     		mov	r0, r5
 2022              	.LVL260:
 2023 0074 02A9     		add	r1, sp, #8
 2024              	.LVL261:
 2025 0076 5A46     		mov	r2, fp
 2026 0078 FFF7FEFF 		bl	oneWireNext.part.0
 2027              	.LVL262:
 2028              	.LBE130:
 2029              	.LBE132:
 2030              	.LBE127:
 2031              	.LBE126:
 2032              		.loc 1 272 0
 2033 007c 0028     		cmp	r0, #0
 2034 007e DDD0     		beq	.L189
ARM GAS  /tmp/cc4tHRwq.s 			page 37


 2035 0080 F107     		lsls	r1, r6, #31
 2036 0082 C146     		mov	r9, r8
 2037 0084 2746     		mov	r7, r4
 2038 0086 40F1BA80 		bpl	.L217
 2039              	.LVL263:
 2040              	.L223:
 2041 008a CDF800B0 		str	fp, [sp, #0]
 2042              	.LVL264:
 2043              	.L193:
 2044              	.LBB135:
 2045              		.loc 1 276 0
 2046 008e 09F10109 		add	r9, r9, #1
 2047              	.LVL265:
 2048              		.loc 1 278 0
 2049 0092 9DF80800 		ldrb	r0, [sp, #8]	@ zero_extendqisi2
 2050 0096 9DF809B0 		ldrb	fp, [sp, #9]	@ zero_extendqisi2
 2051 009a 9DF80A80 		ldrb	r8, [sp, #10]	@ zero_extendqisi2
 2052 009e 9DF80BC0 		ldrb	ip, [sp, #11]	@ zero_extendqisi2
 2053 00a2 9DF80CE0 		ldrb	lr, [sp, #12]	@ zero_extendqisi2
 2054 00a6 9DF80D10 		ldrb	r1, [sp, #13]	@ zero_extendqisi2
 2055 00aa 9DF80E20 		ldrb	r2, [sp, #14]	@ zero_extendqisi2
 2056 00ae 9DF80F30 		ldrb	r3, [sp, #15]	@ zero_extendqisi2
 2057 00b2 3870     		strb	r0, [r7, #0]
 2058              		.loc 1 276 0
 2059 00b4 5FFA89F9 		uxtb	r9, r9
 2060              	.LVL266:
 2061              		.loc 1 281 0
 2062 00b8 B145     		cmp	r9, r6
 2063              	.LBB136:
 2064              	.LBB137:
 2065              		.loc 1 441 0
 2066 00ba 2846     		mov	r0, r5
 2067              	.LBE137:
 2068              	.LBE136:
 2069              		.loc 1 278 0
 2070 00bc 87F801B0 		strb	fp, [r7, #1]
 2071              	.LVL267:
 2072 00c0 87F80280 		strb	r8, [r7, #2]
 2073              	.LVL268:
 2074 00c4 87F803C0 		strb	ip, [r7, #3]
 2075              	.LVL269:
 2076 00c8 87F804E0 		strb	lr, [r7, #4]
 2077              	.LVL270:
 2078 00cc 7971     		strb	r1, [r7, #5]
 2079              	.LVL271:
 2080 00ce BA71     		strb	r2, [r7, #6]
 2081              	.LVL272:
 2082 00d0 FB71     		strb	r3, [r7, #7]
 2083              	.LVL273:
 2084              		.loc 1 281 0
 2085 00d2 B5D2     		bcs	.L186
 2086              	.LVL274:
 2087              	.LBB143:
 2088              	.LBB138:
 2089              		.loc 1 440 0
 2090 00d4 0021     		movs	r1, #0
 2091 00d6 8AF80010 		strb	r1, [sl, #0]
ARM GAS  /tmp/cc4tHRwq.s 			page 38


 2092              		.loc 1 441 0
 2093 00da FFF7FEFF 		bl	oneWireReset
 2094              	.LVL275:
 2095              		.loc 1 443 0
 2096 00de 0028     		cmp	r0, #0
 2097 00e0 4AD0     		beq	.L192
 2098 00e2 95F83930 		ldrb	r3, [r5, #57]	@ zero_extendqisi2
 2099 00e6 009A     		ldr	r2, [sp, #0]
 2100 00e8 02A9     		add	r1, sp, #8
 2101              	.LVL276:
 2102 00ea 2846     		mov	r0, r5
 2103              	.LVL277:
 2104 00ec 002B     		cmp	r3, #0
 2105 00ee 43D1     		bne	.L192
 2106              	.LVL278:
 2107 00f0 FFF7FEFF 		bl	oneWireNext.part.0
 2108              	.LVL279:
 2109              	.LBE138:
 2110              	.LBE143:
 2111              		.loc 1 276 0
 2112 00f4 09F10102 		add	r2, r9, #1
 2113 00f8 0192     		str	r2, [sp, #4]
 2114 00fa 07F10808 		add	r8, r7, #8
 2115              		.loc 1 281 0
 2116 00fe 0028     		cmp	r0, #0
 2117 0100 3DD0     		beq	.L191
 2118              		.loc 1 278 0
 2119 0102 9DF80800 		ldrb	r0, [sp, #8]	@ zero_extendqisi2
 2120 0106 9DF80D10 		ldrb	r1, [sp, #13]	@ zero_extendqisi2
 2121 010a 9DF80A90 		ldrb	r9, [sp, #10]	@ zero_extendqisi2
 2122              	.LVL280:
 2123 010e 9DF80E20 		ldrb	r2, [sp, #14]	@ zero_extendqisi2
 2124              	.LVL281:
 2125 0112 9DF809B0 		ldrb	fp, [sp, #9]	@ zero_extendqisi2
 2126 0116 9DF80BC0 		ldrb	ip, [sp, #11]	@ zero_extendqisi2
 2127 011a 9DF80CE0 		ldrb	lr, [sp, #12]	@ zero_extendqisi2
 2128 011e 9DF80F30 		ldrb	r3, [sp, #15]	@ zero_extendqisi2
 2129 0122 3872     		strb	r0, [r7, #8]
 2130 0124 88F80510 		strb	r1, [r8, #5]
 2131              		.loc 1 276 0
 2132 0128 0199     		ldr	r1, [sp, #4]
 2133              		.loc 1 278 0
 2134 012a 88F80290 		strb	r9, [r8, #2]
 2135 012e 88F80620 		strb	r2, [r8, #6]
 2136              	.LBB144:
 2137              	.LBB139:
 2138              		.loc 1 441 0
 2139 0132 2846     		mov	r0, r5
 2140              		.loc 1 440 0
 2141 0134 0022     		movs	r2, #0
 2142              	.LBE139:
 2143              	.LBE144:
 2144              		.loc 1 278 0
 2145 0136 88F801B0 		strb	fp, [r8, #1]
 2146 013a 88F803C0 		strb	ip, [r8, #3]
 2147 013e 88F804E0 		strb	lr, [r8, #4]
 2148 0142 88F80730 		strb	r3, [r8, #7]
ARM GAS  /tmp/cc4tHRwq.s 			page 39


 2149              		.loc 1 276 0
 2150 0146 5FFA81F9 		uxtb	r9, r1
 2151              	.LVL282:
 2152              	.LBB145:
 2153              	.LBB140:
 2154              		.loc 1 440 0
 2155 014a 8AF80020 		strb	r2, [sl, #0]
 2156              		.loc 1 441 0
 2157 014e FFF7FEFF 		bl	oneWireReset
 2158              	.LVL283:
 2159              		.loc 1 443 0
 2160 0152 88B1     		cbz	r0, .L192
 2161 0154 95F83930 		ldrb	r3, [r5, #57]	@ zero_extendqisi2
 2162 0158 009A     		ldr	r2, [sp, #0]
 2163 015a 2846     		mov	r0, r5
 2164 015c 02A9     		add	r1, sp, #8
 2165              	.LVL284:
 2166 015e 5BB9     		cbnz	r3, .L192
 2167              	.LVL285:
 2168 0160 FFF7FEFF 		bl	oneWireNext.part.0
 2169              	.LVL286:
 2170 0164 08F10807 		add	r7, r8, #8
 2171              	.LBE140:
 2172              	.LBE145:
 2173              		.loc 1 281 0
 2174 0168 0028     		cmp	r0, #0
 2175 016a 90D1     		bne	.L193
 2176 016c 07E0     		b	.L191
 2177              	.LVL287:
 2178              	.L187:
 2179              	.LBE135:
 2180              	.LBB148:
 2181              	.LBB134:
 2182              	.LBB133:
 2183              	.LBB131:
 2184              		.loc 1 445 0
 2185 016e 4FF00009 		mov	r9, #0
 2186 0172 85F83890 		strb	r9, [r5, #56]
 2187 0176 63E7     		b	.L186
 2188              	.LVL288:
 2189              	.L192:
 2190              	.LBE131:
 2191              	.LBE133:
 2192              	.LBE134:
 2193              	.LBE148:
 2194              	.LBB149:
 2195              	.LBB146:
 2196              	.LBB141:
 2197 0178 0020     		movs	r0, #0
 2198 017a 85F83800 		strb	r0, [r5, #56]
 2199              	.L191:
 2200              	.LVL289:
 2201              	.LBE141:
 2202              	.LBE146:
 2203              		.loc 1 287 0
 2204 017e 09F10100 		add	r0, r9, #1
 2205 0182 04EBC902 		add	r2, r4, r9, lsl #3
ARM GAS  /tmp/cc4tHRwq.s 			page 40


 2206 0186 6FEA0901 		mvn	r1, r9
 2207 018a C0B2     		uxtb	r0, r0
 2208              		.loc 1 285 0
 2209 018c 0023     		movs	r3, #0
 2210 018e 8919     		adds	r1, r1, r6
 2211              		.loc 1 283 0
 2212 0190 8642     		cmp	r6, r0
 2213              		.loc 1 285 0
 2214 0192 1370     		strb	r3, [r2, #0]
 2215 0194 5370     		strb	r3, [r2, #1]
 2216 0196 9370     		strb	r3, [r2, #2]
 2217 0198 D370     		strb	r3, [r2, #3]
 2218 019a 1371     		strb	r3, [r2, #4]
 2219 019c 5371     		strb	r3, [r2, #5]
 2220 019e 9371     		strb	r3, [r2, #6]
 2221 01a0 D371     		strb	r3, [r2, #7]
 2222 01a2 01F00102 		and	r2, r1, #1
 2223              	.LVL290:
 2224              		.loc 1 283 0
 2225 01a6 7FF64BAF 		bls	.L186
 2226 01aa 2AB1     		cbz	r2, .L194
 2227              	.LVL291:
 2228 01ac 04EBC002 		add	r2, r4, r0, lsl #3
 2229              		.loc 1 287 0
 2230 01b0 0130     		adds	r0, r0, #1
 2231              	.LVL292:
 2232 01b2 C0B2     		uxtb	r0, r0
 2233              	.LVL293:
 2234              		.loc 1 285 0
 2235 01b4 1370     		strb	r3, [r2, #0]
 2236 01b6 18E0     		b	.L226
 2237              	.LVL294:
 2238              	.L194:
 2239              		.loc 1 287 0
 2240 01b8 00F10105 		add	r5, r0, #1
 2241 01bc 07B2     		sxth	r7, r0
 2242 01be 5FFA85FC 		uxtb	ip, r5
 2243 01c2 04EBC701 		add	r1, r4, r7, lsl #3
 2244 01c6 0FFA8CF5 		sxth	r5, ip
 2245              		.loc 1 285 0
 2246 01ca 04F83730 		strb	r3, [r4, r7, lsl #3]
 2247              	.LVL295:
 2248              		.loc 1 287 0
 2249 01ce 0CF10100 		add	r0, ip, #1
 2250              		.loc 1 285 0
 2251 01d2 4B70     		strb	r3, [r1, #1]
 2252              	.LVL296:
 2253 01d4 8B70     		strb	r3, [r1, #2]
 2254              	.LVL297:
 2255 01d6 CB70     		strb	r3, [r1, #3]
 2256              	.LVL298:
 2257 01d8 0B71     		strb	r3, [r1, #4]
 2258              	.LVL299:
 2259 01da 4B71     		strb	r3, [r1, #5]
 2260              	.LVL300:
 2261 01dc 8B71     		strb	r3, [r1, #6]
 2262              	.LVL301:
ARM GAS  /tmp/cc4tHRwq.s 			page 41


 2263 01de CB71     		strb	r3, [r1, #7]
 2264              	.LVL302:
 2265 01e0 04F83530 		strb	r3, [r4, r5, lsl #3]
 2266              	.LVL303:
 2267 01e4 04EBC502 		add	r2, r4, r5, lsl #3
 2268              		.loc 1 287 0
 2269 01e8 C0B2     		uxtb	r0, r0
 2270              	.LVL304:
 2271              	.L226:
 2272              		.loc 1 283 0
 2273 01ea 8642     		cmp	r6, r0
 2274              		.loc 1 285 0
 2275 01ec 5370     		strb	r3, [r2, #1]
 2276              	.LVL305:
 2277 01ee 9370     		strb	r3, [r2, #2]
 2278              	.LVL306:
 2279 01f0 D370     		strb	r3, [r2, #3]
 2280              	.LVL307:
 2281 01f2 1371     		strb	r3, [r2, #4]
 2282              	.LVL308:
 2283 01f4 5371     		strb	r3, [r2, #5]
 2284              	.LVL309:
 2285 01f6 9371     		strb	r3, [r2, #6]
 2286              	.LVL310:
 2287 01f8 D371     		strb	r3, [r2, #7]
 2288              	.LVL311:
 2289              		.loc 1 283 0
 2290 01fa DDD8     		bhi	.L194
 2291 01fc 20E7     		b	.L186
 2292              	.LVL312:
 2293              	.L217:
 2294              		.loc 1 278 0
 2295 01fe 9DF80890 		ldrb	r9, [sp, #8]	@ zero_extendqisi2
 2296 0202 9DF809C0 		ldrb	ip, [sp, #9]	@ zero_extendqisi2
 2297 0206 9DF80AE0 		ldrb	lr, [sp, #10]	@ zero_extendqisi2
 2298 020a 9DF80B70 		ldrb	r7, [sp, #11]	@ zero_extendqisi2
 2299 020e 9DF80C00 		ldrb	r0, [sp, #12]	@ zero_extendqisi2
 2300 0212 9DF80D10 		ldrb	r1, [sp, #13]	@ zero_extendqisi2
 2301 0216 9DF80E20 		ldrb	r2, [sp, #14]	@ zero_extendqisi2
 2302 021a 9DF80F30 		ldrb	r3, [sp, #15]	@ zero_extendqisi2
 2303 021e 84F80090 		strb	r9, [r4, #0]
 2304              		.loc 1 276 0
 2305 0222 4FF00109 		mov	r9, #1
 2306              	.LVL313:
 2307              		.loc 1 281 0
 2308 0226 B145     		cmp	r9, r6
 2309              		.loc 1 278 0
 2310 0228 84F801C0 		strb	ip, [r4, #1]
 2311              	.LVL314:
 2312 022c 84F802E0 		strb	lr, [r4, #2]
 2313              	.LVL315:
 2314 0230 E770     		strb	r7, [r4, #3]
 2315              	.LVL316:
 2316 0232 2071     		strb	r0, [r4, #4]
 2317              	.LVL317:
 2318 0234 6171     		strb	r1, [r4, #5]
 2319              	.LVL318:
ARM GAS  /tmp/cc4tHRwq.s 			page 42


 2320 0236 A271     		strb	r2, [r4, #6]
 2321              	.LVL319:
 2322 0238 E371     		strb	r3, [r4, #7]
 2323              	.LVL320:
 2324              		.loc 1 281 0
 2325 023a BFF401AF 		bcs	.L186
 2326              	.LVL321:
 2327              	.LBB147:
 2328              	.LBB142:
 2329              		.loc 1 441 0
 2330 023e 2846     		mov	r0, r5
 2331              		.loc 1 440 0
 2332 0240 8AF80080 		strb	r8, [sl, #0]
 2333              		.loc 1 441 0
 2334 0244 FFF7FEFF 		bl	oneWireReset
 2335              	.LVL322:
 2336              		.loc 1 443 0
 2337 0248 0028     		cmp	r0, #0
 2338 024a 95D0     		beq	.L192
 2339 024c 95F83900 		ldrb	r0, [r5, #57]	@ zero_extendqisi2
 2340 0250 0028     		cmp	r0, #0
 2341 0252 91D1     		bne	.L192
 2342 0254 2846     		mov	r0, r5
 2343 0256 02A9     		add	r1, sp, #8
 2344              	.LVL323:
 2345 0258 5A46     		mov	r2, fp
 2346 025a FFF7FEFF 		bl	oneWireNext.part.0
 2347              	.LVL324:
 2348 025e 04F10807 		add	r7, r4, #8
 2349              	.LBE142:
 2350              	.LBE147:
 2351              		.loc 1 281 0
 2352 0262 0028     		cmp	r0, #0
 2353 0264 7FF411AF 		bne	.L223
 2354 0268 89E7     		b	.L191
 2355              	.L228:
 2356 026a 00BF     		.align	2
 2357              	.L227:
 2358 026c 00000000 		.word	.LANCHOR4
 2359              	.LBE149:
 2360              		.cfi_endproc
 2361              	.LFE127:
 2362              		.size	oneWireSearchRom, .-oneWireSearchRom
 2363              		.section	.text.oneWireRealeaseBus,"ax",%progbits
 2364              		.align	2
 2365              		.p2align 4,,15
 2366              		.global	oneWireRealeaseBus
 2367              		.thumb
 2368              		.thumb_func
 2369              		.type	oneWireRealeaseBus, %function
 2370              	oneWireRealeaseBus:
 2371              	.LFB130:
 2372              		.loc 1 312 0
 2373              		.cfi_startproc
 2374              		@ args = 0, pretend = 0, frame = 0
 2375              		@ frame_needed = 0, uses_anonymous_args = 0
 2376              		@ link register save eliminated.
ARM GAS  /tmp/cc4tHRwq.s 			page 43


 2377              		.loc 1 314 0
 2378              		.loc 1 313 0
 2379 0000 FFF7FEBF 		b	chMtxUnlock
 2380              	.LVL325:
 2381              		.cfi_endproc
 2382              	.LFE130:
 2383              		.size	oneWireRealeaseBus, .-oneWireRealeaseBus
 2384 0004 AFF30080 		.section	.bss.usartDict,"aw",%nobits
 2384      AFF30080 
 2384      AFF30080 
 2385              		.align	2
 2386              		.set	.LANCHOR0,. + 0
 2387              		.type	usartDict, %object
 2388              		.size	usartDict, 48
 2389              	usartDict:
 2390 0000 00000000 		.space	48
 2390      00000000 
 2390      00000000 
 2390      00000000 
 2390      00000000 
 2391              		.section	.rodata.owBufferWrite,"a",%progbits
 2392              		.align	2
 2393              		.set	.LANCHOR3,. + 0
 2394              		.type	owBufferWrite, %object
 2395              		.size	owBufferWrite, 512
 2396              	owBufferWrite:
 2397 0000 FF       		.byte	-1
 2398 0001 FF       		.byte	-1
 2399 0002 FF       		.byte	-1
 2400 0003 FF       		.byte	-1
 2401 0004 FF       		.byte	-1
 2402 0005 FF       		.byte	-1
 2403 0006 FF       		.byte	-1
 2404 0007 FF       		.byte	-1
 2405 0008 FF       		.byte	-1
 2406 0009 FF       		.byte	-1
 2407 000a FF       		.byte	-1
 2408 000b FF       		.byte	-1
 2409 000c FF       		.byte	-1
 2410 000d FF       		.byte	-1
 2411 000e FF       		.byte	-1
 2412 000f FF       		.byte	-1
 2413 0010 FF       		.byte	-1
 2414 0011 FF       		.byte	-1
 2415 0012 FF       		.byte	-1
 2416 0013 FF       		.byte	-1
 2417 0014 FF       		.byte	-1
 2418 0015 FF       		.byte	-1
 2419 0016 FF       		.byte	-1
 2420 0017 FF       		.byte	-1
 2421 0018 FF       		.byte	-1
 2422 0019 FF       		.byte	-1
 2423 001a FF       		.byte	-1
 2424 001b FF       		.byte	-1
 2425 001c FF       		.byte	-1
 2426 001d FF       		.byte	-1
 2427 001e FF       		.byte	-1
ARM GAS  /tmp/cc4tHRwq.s 			page 44


 2428 001f FF       		.byte	-1
 2429 0020 FF       		.byte	-1
 2430 0021 FF       		.byte	-1
 2431 0022 FF       		.byte	-1
 2432 0023 FF       		.byte	-1
 2433 0024 FF       		.byte	-1
 2434 0025 FF       		.byte	-1
 2435 0026 FF       		.byte	-1
 2436 0027 FF       		.byte	-1
 2437 0028 FF       		.byte	-1
 2438 0029 FF       		.byte	-1
 2439 002a FF       		.byte	-1
 2440 002b FF       		.byte	-1
 2441 002c FF       		.byte	-1
 2442 002d FF       		.byte	-1
 2443 002e FF       		.byte	-1
 2444 002f FF       		.byte	-1
 2445 0030 FF       		.byte	-1
 2446 0031 FF       		.byte	-1
 2447 0032 FF       		.byte	-1
 2448 0033 FF       		.byte	-1
 2449 0034 FF       		.byte	-1
 2450 0035 FF       		.byte	-1
 2451 0036 FF       		.byte	-1
 2452 0037 FF       		.byte	-1
 2453 0038 FF       		.byte	-1
 2454 0039 FF       		.byte	-1
 2455 003a FF       		.byte	-1
 2456 003b FF       		.byte	-1
 2457 003c FF       		.byte	-1
 2458 003d FF       		.byte	-1
 2459 003e FF       		.byte	-1
 2460 003f FF       		.byte	-1
 2461 0040 FF       		.byte	-1
 2462 0041 FF       		.byte	-1
 2463 0042 FF       		.byte	-1
 2464 0043 FF       		.byte	-1
 2465 0044 FF       		.byte	-1
 2466 0045 FF       		.byte	-1
 2467 0046 FF       		.byte	-1
 2468 0047 FF       		.byte	-1
 2469 0048 FF       		.byte	-1
 2470 0049 FF       		.byte	-1
 2471 004a FF       		.byte	-1
 2472 004b FF       		.byte	-1
 2473 004c FF       		.byte	-1
 2474 004d FF       		.byte	-1
 2475 004e FF       		.byte	-1
 2476 004f FF       		.byte	-1
 2477 0050 FF       		.byte	-1
 2478 0051 FF       		.byte	-1
 2479 0052 FF       		.byte	-1
 2480 0053 FF       		.byte	-1
 2481 0054 FF       		.byte	-1
 2482 0055 FF       		.byte	-1
 2483 0056 FF       		.byte	-1
 2484 0057 FF       		.byte	-1
ARM GAS  /tmp/cc4tHRwq.s 			page 45


 2485 0058 FF       		.byte	-1
 2486 0059 FF       		.byte	-1
 2487 005a FF       		.byte	-1
 2488 005b FF       		.byte	-1
 2489 005c FF       		.byte	-1
 2490 005d FF       		.byte	-1
 2491 005e FF       		.byte	-1
 2492 005f FF       		.byte	-1
 2493 0060 FF       		.byte	-1
 2494 0061 FF       		.byte	-1
 2495 0062 FF       		.byte	-1
 2496 0063 FF       		.byte	-1
 2497 0064 FF       		.byte	-1
 2498 0065 FF       		.byte	-1
 2499 0066 FF       		.byte	-1
 2500 0067 FF       		.byte	-1
 2501 0068 FF       		.byte	-1
 2502 0069 FF       		.byte	-1
 2503 006a FF       		.byte	-1
 2504 006b FF       		.byte	-1
 2505 006c FF       		.byte	-1
 2506 006d FF       		.byte	-1
 2507 006e FF       		.byte	-1
 2508 006f FF       		.byte	-1
 2509 0070 FF       		.byte	-1
 2510 0071 FF       		.byte	-1
 2511 0072 FF       		.byte	-1
 2512 0073 FF       		.byte	-1
 2513 0074 FF       		.byte	-1
 2514 0075 FF       		.byte	-1
 2515 0076 FF       		.byte	-1
 2516 0077 FF       		.byte	-1
 2517 0078 FF       		.byte	-1
 2518 0079 FF       		.byte	-1
 2519 007a FF       		.byte	-1
 2520 007b FF       		.byte	-1
 2521 007c FF       		.byte	-1
 2522 007d FF       		.byte	-1
 2523 007e FF       		.byte	-1
 2524 007f FF       		.byte	-1
 2525 0080 FF       		.byte	-1
 2526 0081 FF       		.byte	-1
 2527 0082 FF       		.byte	-1
 2528 0083 FF       		.byte	-1
 2529 0084 FF       		.byte	-1
 2530 0085 FF       		.byte	-1
 2531 0086 FF       		.byte	-1
 2532 0087 FF       		.byte	-1
 2533 0088 FF       		.byte	-1
 2534 0089 FF       		.byte	-1
 2535 008a FF       		.byte	-1
 2536 008b FF       		.byte	-1
 2537 008c FF       		.byte	-1
 2538 008d FF       		.byte	-1
 2539 008e FF       		.byte	-1
 2540 008f FF       		.byte	-1
 2541 0090 FF       		.byte	-1
ARM GAS  /tmp/cc4tHRwq.s 			page 46


 2542 0091 FF       		.byte	-1
 2543 0092 FF       		.byte	-1
 2544 0093 FF       		.byte	-1
 2545 0094 FF       		.byte	-1
 2546 0095 FF       		.byte	-1
 2547 0096 FF       		.byte	-1
 2548 0097 FF       		.byte	-1
 2549 0098 FF       		.byte	-1
 2550 0099 FF       		.byte	-1
 2551 009a FF       		.byte	-1
 2552 009b FF       		.byte	-1
 2553 009c FF       		.byte	-1
 2554 009d FF       		.byte	-1
 2555 009e FF       		.byte	-1
 2556 009f FF       		.byte	-1
 2557 00a0 FF       		.byte	-1
 2558 00a1 FF       		.byte	-1
 2559 00a2 FF       		.byte	-1
 2560 00a3 FF       		.byte	-1
 2561 00a4 FF       		.byte	-1
 2562 00a5 FF       		.byte	-1
 2563 00a6 FF       		.byte	-1
 2564 00a7 FF       		.byte	-1
 2565 00a8 FF       		.byte	-1
 2566 00a9 FF       		.byte	-1
 2567 00aa FF       		.byte	-1
 2568 00ab FF       		.byte	-1
 2569 00ac FF       		.byte	-1
 2570 00ad FF       		.byte	-1
 2571 00ae FF       		.byte	-1
 2572 00af FF       		.byte	-1
 2573 00b0 FF       		.byte	-1
 2574 00b1 FF       		.byte	-1
 2575 00b2 FF       		.byte	-1
 2576 00b3 FF       		.byte	-1
 2577 00b4 FF       		.byte	-1
 2578 00b5 FF       		.byte	-1
 2579 00b6 FF       		.byte	-1
 2580 00b7 FF       		.byte	-1
 2581 00b8 FF       		.byte	-1
 2582 00b9 FF       		.byte	-1
 2583 00ba FF       		.byte	-1
 2584 00bb FF       		.byte	-1
 2585 00bc FF       		.byte	-1
 2586 00bd FF       		.byte	-1
 2587 00be FF       		.byte	-1
 2588 00bf FF       		.byte	-1
 2589 00c0 FF       		.byte	-1
 2590 00c1 FF       		.byte	-1
 2591 00c2 FF       		.byte	-1
 2592 00c3 FF       		.byte	-1
 2593 00c4 FF       		.byte	-1
 2594 00c5 FF       		.byte	-1
 2595 00c6 FF       		.byte	-1
 2596 00c7 FF       		.byte	-1
 2597 00c8 FF       		.byte	-1
 2598 00c9 FF       		.byte	-1
ARM GAS  /tmp/cc4tHRwq.s 			page 47


 2599 00ca FF       		.byte	-1
 2600 00cb FF       		.byte	-1
 2601 00cc FF       		.byte	-1
 2602 00cd FF       		.byte	-1
 2603 00ce FF       		.byte	-1
 2604 00cf FF       		.byte	-1
 2605 00d0 FF       		.byte	-1
 2606 00d1 FF       		.byte	-1
 2607 00d2 FF       		.byte	-1
 2608 00d3 FF       		.byte	-1
 2609 00d4 FF       		.byte	-1
 2610 00d5 FF       		.byte	-1
 2611 00d6 FF       		.byte	-1
 2612 00d7 FF       		.byte	-1
 2613 00d8 FF       		.byte	-1
 2614 00d9 FF       		.byte	-1
 2615 00da FF       		.byte	-1
 2616 00db FF       		.byte	-1
 2617 00dc FF       		.byte	-1
 2618 00dd FF       		.byte	-1
 2619 00de FF       		.byte	-1
 2620 00df FF       		.byte	-1
 2621 00e0 FF       		.byte	-1
 2622 00e1 FF       		.byte	-1
 2623 00e2 FF       		.byte	-1
 2624 00e3 FF       		.byte	-1
 2625 00e4 FF       		.byte	-1
 2626 00e5 FF       		.byte	-1
 2627 00e6 FF       		.byte	-1
 2628 00e7 FF       		.byte	-1
 2629 00e8 FF       		.byte	-1
 2630 00e9 FF       		.byte	-1
 2631 00ea FF       		.byte	-1
 2632 00eb FF       		.byte	-1
 2633 00ec FF       		.byte	-1
 2634 00ed FF       		.byte	-1
 2635 00ee FF       		.byte	-1
 2636 00ef FF       		.byte	-1
 2637 00f0 FF       		.byte	-1
 2638 00f1 FF       		.byte	-1
 2639 00f2 FF       		.byte	-1
 2640 00f3 FF       		.byte	-1
 2641 00f4 FF       		.byte	-1
 2642 00f5 FF       		.byte	-1
 2643 00f6 FF       		.byte	-1
 2644 00f7 FF       		.byte	-1
 2645 00f8 FF       		.byte	-1
 2646 00f9 FF       		.byte	-1
 2647 00fa FF       		.byte	-1
 2648 00fb FF       		.byte	-1
 2649 00fc FF       		.byte	-1
 2650 00fd FF       		.byte	-1
 2651 00fe FF       		.byte	-1
 2652 00ff FF       		.byte	-1
 2653 0100 FF       		.byte	-1
 2654 0101 FF       		.byte	-1
 2655 0102 FF       		.byte	-1
ARM GAS  /tmp/cc4tHRwq.s 			page 48


 2656 0103 FF       		.byte	-1
 2657 0104 FF       		.byte	-1
 2658 0105 FF       		.byte	-1
 2659 0106 FF       		.byte	-1
 2660 0107 FF       		.byte	-1
 2661 0108 FF       		.byte	-1
 2662 0109 FF       		.byte	-1
 2663 010a FF       		.byte	-1
 2664 010b FF       		.byte	-1
 2665 010c FF       		.byte	-1
 2666 010d FF       		.byte	-1
 2667 010e FF       		.byte	-1
 2668 010f FF       		.byte	-1
 2669 0110 FF       		.byte	-1
 2670 0111 FF       		.byte	-1
 2671 0112 FF       		.byte	-1
 2672 0113 FF       		.byte	-1
 2673 0114 FF       		.byte	-1
 2674 0115 FF       		.byte	-1
 2675 0116 FF       		.byte	-1
 2676 0117 FF       		.byte	-1
 2677 0118 FF       		.byte	-1
 2678 0119 FF       		.byte	-1
 2679 011a FF       		.byte	-1
 2680 011b FF       		.byte	-1
 2681 011c FF       		.byte	-1
 2682 011d FF       		.byte	-1
 2683 011e FF       		.byte	-1
 2684 011f FF       		.byte	-1
 2685 0120 FF       		.byte	-1
 2686 0121 FF       		.byte	-1
 2687 0122 FF       		.byte	-1
 2688 0123 FF       		.byte	-1
 2689 0124 FF       		.byte	-1
 2690 0125 FF       		.byte	-1
 2691 0126 FF       		.byte	-1
 2692 0127 FF       		.byte	-1
 2693 0128 FF       		.byte	-1
 2694 0129 FF       		.byte	-1
 2695 012a FF       		.byte	-1
 2696 012b FF       		.byte	-1
 2697 012c FF       		.byte	-1
 2698 012d FF       		.byte	-1
 2699 012e FF       		.byte	-1
 2700 012f FF       		.byte	-1
 2701 0130 FF       		.byte	-1
 2702 0131 FF       		.byte	-1
 2703 0132 FF       		.byte	-1
 2704 0133 FF       		.byte	-1
 2705 0134 FF       		.byte	-1
 2706 0135 FF       		.byte	-1
 2707 0136 FF       		.byte	-1
 2708 0137 FF       		.byte	-1
 2709 0138 FF       		.byte	-1
 2710 0139 FF       		.byte	-1
 2711 013a FF       		.byte	-1
 2712 013b FF       		.byte	-1
ARM GAS  /tmp/cc4tHRwq.s 			page 49


 2713 013c FF       		.byte	-1
 2714 013d FF       		.byte	-1
 2715 013e FF       		.byte	-1
 2716 013f FF       		.byte	-1
 2717 0140 FF       		.byte	-1
 2718 0141 FF       		.byte	-1
 2719 0142 FF       		.byte	-1
 2720 0143 FF       		.byte	-1
 2721 0144 FF       		.byte	-1
 2722 0145 FF       		.byte	-1
 2723 0146 FF       		.byte	-1
 2724 0147 FF       		.byte	-1
 2725 0148 FF       		.byte	-1
 2726 0149 FF       		.byte	-1
 2727 014a FF       		.byte	-1
 2728 014b FF       		.byte	-1
 2729 014c FF       		.byte	-1
 2730 014d FF       		.byte	-1
 2731 014e FF       		.byte	-1
 2732 014f FF       		.byte	-1
 2733 0150 FF       		.byte	-1
 2734 0151 FF       		.byte	-1
 2735 0152 FF       		.byte	-1
 2736 0153 FF       		.byte	-1
 2737 0154 FF       		.byte	-1
 2738 0155 FF       		.byte	-1
 2739 0156 FF       		.byte	-1
 2740 0157 FF       		.byte	-1
 2741 0158 FF       		.byte	-1
 2742 0159 FF       		.byte	-1
 2743 015a FF       		.byte	-1
 2744 015b FF       		.byte	-1
 2745 015c FF       		.byte	-1
 2746 015d FF       		.byte	-1
 2747 015e FF       		.byte	-1
 2748 015f FF       		.byte	-1
 2749 0160 FF       		.byte	-1
 2750 0161 FF       		.byte	-1
 2751 0162 FF       		.byte	-1
 2752 0163 FF       		.byte	-1
 2753 0164 FF       		.byte	-1
 2754 0165 FF       		.byte	-1
 2755 0166 FF       		.byte	-1
 2756 0167 FF       		.byte	-1
 2757 0168 FF       		.byte	-1
 2758 0169 FF       		.byte	-1
 2759 016a FF       		.byte	-1
 2760 016b FF       		.byte	-1
 2761 016c FF       		.byte	-1
 2762 016d FF       		.byte	-1
 2763 016e FF       		.byte	-1
 2764 016f FF       		.byte	-1
 2765 0170 FF       		.byte	-1
 2766 0171 FF       		.byte	-1
 2767 0172 FF       		.byte	-1
 2768 0173 FF       		.byte	-1
 2769 0174 FF       		.byte	-1
ARM GAS  /tmp/cc4tHRwq.s 			page 50


 2770 0175 FF       		.byte	-1
 2771 0176 FF       		.byte	-1
 2772 0177 FF       		.byte	-1
 2773 0178 FF       		.byte	-1
 2774 0179 FF       		.byte	-1
 2775 017a FF       		.byte	-1
 2776 017b FF       		.byte	-1
 2777 017c FF       		.byte	-1
 2778 017d FF       		.byte	-1
 2779 017e FF       		.byte	-1
 2780 017f FF       		.byte	-1
 2781 0180 FF       		.byte	-1
 2782 0181 FF       		.byte	-1
 2783 0182 FF       		.byte	-1
 2784 0183 FF       		.byte	-1
 2785 0184 FF       		.byte	-1
 2786 0185 FF       		.byte	-1
 2787 0186 FF       		.byte	-1
 2788 0187 FF       		.byte	-1
 2789 0188 FF       		.byte	-1
 2790 0189 FF       		.byte	-1
 2791 018a FF       		.byte	-1
 2792 018b FF       		.byte	-1
 2793 018c FF       		.byte	-1
 2794 018d FF       		.byte	-1
 2795 018e FF       		.byte	-1
 2796 018f FF       		.byte	-1
 2797 0190 FF       		.byte	-1
 2798 0191 FF       		.byte	-1
 2799 0192 FF       		.byte	-1
 2800 0193 FF       		.byte	-1
 2801 0194 FF       		.byte	-1
 2802 0195 FF       		.byte	-1
 2803 0196 FF       		.byte	-1
 2804 0197 FF       		.byte	-1
 2805 0198 FF       		.byte	-1
 2806 0199 FF       		.byte	-1
 2807 019a FF       		.byte	-1
 2808 019b FF       		.byte	-1
 2809 019c FF       		.byte	-1
 2810 019d FF       		.byte	-1
 2811 019e FF       		.byte	-1
 2812 019f FF       		.byte	-1
 2813 01a0 FF       		.byte	-1
 2814 01a1 FF       		.byte	-1
 2815 01a2 FF       		.byte	-1
 2816 01a3 FF       		.byte	-1
 2817 01a4 FF       		.byte	-1
 2818 01a5 FF       		.byte	-1
 2819 01a6 FF       		.byte	-1
 2820 01a7 FF       		.byte	-1
 2821 01a8 FF       		.byte	-1
 2822 01a9 FF       		.byte	-1
 2823 01aa FF       		.byte	-1
 2824 01ab FF       		.byte	-1
 2825 01ac FF       		.byte	-1
 2826 01ad FF       		.byte	-1
ARM GAS  /tmp/cc4tHRwq.s 			page 51


 2827 01ae FF       		.byte	-1
 2828 01af FF       		.byte	-1
 2829 01b0 FF       		.byte	-1
 2830 01b1 FF       		.byte	-1
 2831 01b2 FF       		.byte	-1
 2832 01b3 FF       		.byte	-1
 2833 01b4 FF       		.byte	-1
 2834 01b5 FF       		.byte	-1
 2835 01b6 FF       		.byte	-1
 2836 01b7 FF       		.byte	-1
 2837 01b8 FF       		.byte	-1
 2838 01b9 FF       		.byte	-1
 2839 01ba FF       		.byte	-1
 2840 01bb FF       		.byte	-1
 2841 01bc FF       		.byte	-1
 2842 01bd FF       		.byte	-1
 2843 01be FF       		.byte	-1
 2844 01bf FF       		.byte	-1
 2845 01c0 FF       		.byte	-1
 2846 01c1 FF       		.byte	-1
 2847 01c2 FF       		.byte	-1
 2848 01c3 FF       		.byte	-1
 2849 01c4 FF       		.byte	-1
 2850 01c5 FF       		.byte	-1
 2851 01c6 FF       		.byte	-1
 2852 01c7 FF       		.byte	-1
 2853 01c8 FF       		.byte	-1
 2854 01c9 FF       		.byte	-1
 2855 01ca FF       		.byte	-1
 2856 01cb FF       		.byte	-1
 2857 01cc FF       		.byte	-1
 2858 01cd FF       		.byte	-1
 2859 01ce FF       		.byte	-1
 2860 01cf FF       		.byte	-1
 2861 01d0 FF       		.byte	-1
 2862 01d1 FF       		.byte	-1
 2863 01d2 FF       		.byte	-1
 2864 01d3 FF       		.byte	-1
 2865 01d4 FF       		.byte	-1
 2866 01d5 FF       		.byte	-1
 2867 01d6 FF       		.byte	-1
 2868 01d7 FF       		.byte	-1
 2869 01d8 FF       		.byte	-1
 2870 01d9 FF       		.byte	-1
 2871 01da FF       		.byte	-1
 2872 01db FF       		.byte	-1
 2873 01dc FF       		.byte	-1
 2874 01dd FF       		.byte	-1
 2875 01de FF       		.byte	-1
 2876 01df FF       		.byte	-1
 2877 01e0 FF       		.byte	-1
 2878 01e1 FF       		.byte	-1
 2879 01e2 FF       		.byte	-1
 2880 01e3 FF       		.byte	-1
 2881 01e4 FF       		.byte	-1
 2882 01e5 FF       		.byte	-1
 2883 01e6 FF       		.byte	-1
ARM GAS  /tmp/cc4tHRwq.s 			page 52


 2884 01e7 FF       		.byte	-1
 2885 01e8 FF       		.byte	-1
 2886 01e9 FF       		.byte	-1
 2887 01ea FF       		.byte	-1
 2888 01eb FF       		.byte	-1
 2889 01ec FF       		.byte	-1
 2890 01ed FF       		.byte	-1
 2891 01ee FF       		.byte	-1
 2892 01ef FF       		.byte	-1
 2893 01f0 FF       		.byte	-1
 2894 01f1 FF       		.byte	-1
 2895 01f2 FF       		.byte	-1
 2896 01f3 FF       		.byte	-1
 2897 01f4 FF       		.byte	-1
 2898 01f5 FF       		.byte	-1
 2899 01f6 FF       		.byte	-1
 2900 01f7 FF       		.byte	-1
 2901 01f8 FF       		.byte	-1
 2902 01f9 FF       		.byte	-1
 2903 01fa FF       		.byte	-1
 2904 01fb FF       		.byte	-1
 2905 01fc FF       		.byte	-1
 2906 01fd FF       		.byte	-1
 2907 01fe FF       		.byte	-1
 2908 01ff FF       		.byte	-1
 2909              		.section	.bss.dowcrc.7205,"aw",%nobits
 2910              		.set	.LANCHOR4,. + 0
 2911              		.type	dowcrc.7205, %object
 2912              		.size	dowcrc.7205, 1
 2913              	dowcrc.7205:
 2914 0000 00       		.space	1
 2915              		.section	.rodata.uartCfgReset,"a",%progbits
 2916              		.align	2
 2917              		.set	.LANCHOR1,. + 0
 2918              		.type	uartCfgReset, %object
 2919              		.size	uartCfgReset, 32
 2920              	uartCfgReset:
 2921 0000 00000000 		.word	0
 2922 0004 00000000 		.word	txBufferEmpty
 2923 0008 00000000 		.word	rxEnd
 2924 000c 00000000 		.word	0
 2925 0010 00000000 		.word	rxErr
 2926 0014 80250000 		.word	9600
 2927 0018 0000     		.short	0
 2928 001a 0000     		.short	0
 2929 001c 0800     		.short	8
 2930 001e 0000     		.space	2
 2931              		.section	.rodata.dscrc_table,"a",%progbits
 2932              		.align	2
 2933              		.set	.LANCHOR5,. + 0
 2934              		.type	dscrc_table, %object
 2935              		.size	dscrc_table, 256
 2936              	dscrc_table:
 2937 0000 00       		.byte	0
 2938 0001 5E       		.byte	94
 2939 0002 BC       		.byte	-68
 2940 0003 E2       		.byte	-30
ARM GAS  /tmp/cc4tHRwq.s 			page 53


 2941 0004 61       		.byte	97
 2942 0005 3F       		.byte	63
 2943 0006 DD       		.byte	-35
 2944 0007 83       		.byte	-125
 2945 0008 C2       		.byte	-62
 2946 0009 9C       		.byte	-100
 2947 000a 7E       		.byte	126
 2948 000b 20       		.byte	32
 2949 000c A3       		.byte	-93
 2950 000d FD       		.byte	-3
 2951 000e 1F       		.byte	31
 2952 000f 41       		.byte	65
 2953 0010 9D       		.byte	-99
 2954 0011 C3       		.byte	-61
 2955 0012 21       		.byte	33
 2956 0013 7F       		.byte	127
 2957 0014 FC       		.byte	-4
 2958 0015 A2       		.byte	-94
 2959 0016 40       		.byte	64
 2960 0017 1E       		.byte	30
 2961 0018 5F       		.byte	95
 2962 0019 01       		.byte	1
 2963 001a E3       		.byte	-29
 2964 001b BD       		.byte	-67
 2965 001c 3E       		.byte	62
 2966 001d 60       		.byte	96
 2967 001e 82       		.byte	-126
 2968 001f DC       		.byte	-36
 2969 0020 23       		.byte	35
 2970 0021 7D       		.byte	125
 2971 0022 9F       		.byte	-97
 2972 0023 C1       		.byte	-63
 2973 0024 42       		.byte	66
 2974 0025 1C       		.byte	28
 2975 0026 FE       		.byte	-2
 2976 0027 A0       		.byte	-96
 2977 0028 E1       		.byte	-31
 2978 0029 BF       		.byte	-65
 2979 002a 5D       		.byte	93
 2980 002b 03       		.byte	3
 2981 002c 80       		.byte	-128
 2982 002d DE       		.byte	-34
 2983 002e 3C       		.byte	60
 2984 002f 62       		.byte	98
 2985 0030 BE       		.byte	-66
 2986 0031 E0       		.byte	-32
 2987 0032 02       		.byte	2
 2988 0033 5C       		.byte	92
 2989 0034 DF       		.byte	-33
 2990 0035 81       		.byte	-127
 2991 0036 63       		.byte	99
 2992 0037 3D       		.byte	61
 2993 0038 7C       		.byte	124
 2994 0039 22       		.byte	34
 2995 003a C0       		.byte	-64
 2996 003b 9E       		.byte	-98
 2997 003c 1D       		.byte	29
ARM GAS  /tmp/cc4tHRwq.s 			page 54


 2998 003d 43       		.byte	67
 2999 003e A1       		.byte	-95
 3000 003f FF       		.byte	-1
 3001 0040 46       		.byte	70
 3002 0041 18       		.byte	24
 3003 0042 FA       		.byte	-6
 3004 0043 A4       		.byte	-92
 3005 0044 27       		.byte	39
 3006 0045 79       		.byte	121
 3007 0046 9B       		.byte	-101
 3008 0047 C5       		.byte	-59
 3009 0048 84       		.byte	-124
 3010 0049 DA       		.byte	-38
 3011 004a 38       		.byte	56
 3012 004b 66       		.byte	102
 3013 004c E5       		.byte	-27
 3014 004d BB       		.byte	-69
 3015 004e 59       		.byte	89
 3016 004f 07       		.byte	7
 3017 0050 DB       		.byte	-37
 3018 0051 85       		.byte	-123
 3019 0052 67       		.byte	103
 3020 0053 39       		.byte	57
 3021 0054 BA       		.byte	-70
 3022 0055 E4       		.byte	-28
 3023 0056 06       		.byte	6
 3024 0057 58       		.byte	88
 3025 0058 19       		.byte	25
 3026 0059 47       		.byte	71
 3027 005a A5       		.byte	-91
 3028 005b FB       		.byte	-5
 3029 005c 78       		.byte	120
 3030 005d 26       		.byte	38
 3031 005e C4       		.byte	-60
 3032 005f 9A       		.byte	-102
 3033 0060 65       		.byte	101
 3034 0061 3B       		.byte	59
 3035 0062 D9       		.byte	-39
 3036 0063 87       		.byte	-121
 3037 0064 04       		.byte	4
 3038 0065 5A       		.byte	90
 3039 0066 B8       		.byte	-72
 3040 0067 E6       		.byte	-26
 3041 0068 A7       		.byte	-89
 3042 0069 F9       		.byte	-7
 3043 006a 1B       		.byte	27
 3044 006b 45       		.byte	69
 3045 006c C6       		.byte	-58
 3046 006d 98       		.byte	-104
 3047 006e 7A       		.byte	122
 3048 006f 24       		.byte	36
 3049 0070 F8       		.byte	-8
 3050 0071 A6       		.byte	-90
 3051 0072 44       		.byte	68
 3052 0073 1A       		.byte	26
 3053 0074 99       		.byte	-103
 3054 0075 C7       		.byte	-57
ARM GAS  /tmp/cc4tHRwq.s 			page 55


 3055 0076 25       		.byte	37
 3056 0077 7B       		.byte	123
 3057 0078 3A       		.byte	58
 3058 0079 64       		.byte	100
 3059 007a 86       		.byte	-122
 3060 007b D8       		.byte	-40
 3061 007c 5B       		.byte	91
 3062 007d 05       		.byte	5
 3063 007e E7       		.byte	-25
 3064 007f B9       		.byte	-71
 3065 0080 8C       		.byte	-116
 3066 0081 D2       		.byte	-46
 3067 0082 30       		.byte	48
 3068 0083 6E       		.byte	110
 3069 0084 ED       		.byte	-19
 3070 0085 B3       		.byte	-77
 3071 0086 51       		.byte	81
 3072 0087 0F       		.byte	15
 3073 0088 4E       		.byte	78
 3074 0089 10       		.byte	16
 3075 008a F2       		.byte	-14
 3076 008b AC       		.byte	-84
 3077 008c 2F       		.byte	47
 3078 008d 71       		.byte	113
 3079 008e 93       		.byte	-109
 3080 008f CD       		.byte	-51
 3081 0090 11       		.byte	17
 3082 0091 4F       		.byte	79
 3083 0092 AD       		.byte	-83
 3084 0093 F3       		.byte	-13
 3085 0094 70       		.byte	112
 3086 0095 2E       		.byte	46
 3087 0096 CC       		.byte	-52
 3088 0097 92       		.byte	-110
 3089 0098 D3       		.byte	-45
 3090 0099 8D       		.byte	-115
 3091 009a 6F       		.byte	111
 3092 009b 31       		.byte	49
 3093 009c B2       		.byte	-78
 3094 009d EC       		.byte	-20
 3095 009e 0E       		.byte	14
 3096 009f 50       		.byte	80
 3097 00a0 AF       		.byte	-81
 3098 00a1 F1       		.byte	-15
 3099 00a2 13       		.byte	19
 3100 00a3 4D       		.byte	77
 3101 00a4 CE       		.byte	-50
 3102 00a5 90       		.byte	-112
 3103 00a6 72       		.byte	114
 3104 00a7 2C       		.byte	44
 3105 00a8 6D       		.byte	109
 3106 00a9 33       		.byte	51
 3107 00aa D1       		.byte	-47
 3108 00ab 8F       		.byte	-113
 3109 00ac 0C       		.byte	12
 3110 00ad 52       		.byte	82
 3111 00ae B0       		.byte	-80
ARM GAS  /tmp/cc4tHRwq.s 			page 56


 3112 00af EE       		.byte	-18
 3113 00b0 32       		.byte	50
 3114 00b1 6C       		.byte	108
 3115 00b2 8E       		.byte	-114
 3116 00b3 D0       		.byte	-48
 3117 00b4 53       		.byte	83
 3118 00b5 0D       		.byte	13
 3119 00b6 EF       		.byte	-17
 3120 00b7 B1       		.byte	-79
 3121 00b8 F0       		.byte	-16
 3122 00b9 AE       		.byte	-82
 3123 00ba 4C       		.byte	76
 3124 00bb 12       		.byte	18
 3125 00bc 91       		.byte	-111
 3126 00bd CF       		.byte	-49
 3127 00be 2D       		.byte	45
 3128 00bf 73       		.byte	115
 3129 00c0 CA       		.byte	-54
 3130 00c1 94       		.byte	-108
 3131 00c2 76       		.byte	118
 3132 00c3 28       		.byte	40
 3133 00c4 AB       		.byte	-85
 3134 00c5 F5       		.byte	-11
 3135 00c6 17       		.byte	23
 3136 00c7 49       		.byte	73
 3137 00c8 08       		.byte	8
 3138 00c9 56       		.byte	86
 3139 00ca B4       		.byte	-76
 3140 00cb EA       		.byte	-22
 3141 00cc 69       		.byte	105
 3142 00cd 37       		.byte	55
 3143 00ce D5       		.byte	-43
 3144 00cf 8B       		.byte	-117
 3145 00d0 57       		.byte	87
 3146 00d1 09       		.byte	9
 3147 00d2 EB       		.byte	-21
 3148 00d3 B5       		.byte	-75
 3149 00d4 36       		.byte	54
 3150 00d5 68       		.byte	104
 3151 00d6 8A       		.byte	-118
 3152 00d7 D4       		.byte	-44
 3153 00d8 95       		.byte	-107
 3154 00d9 CB       		.byte	-53
 3155 00da 29       		.byte	41
 3156 00db 77       		.byte	119
 3157 00dc F4       		.byte	-12
 3158 00dd AA       		.byte	-86
 3159 00de 48       		.byte	72
 3160 00df 16       		.byte	22
 3161 00e0 E9       		.byte	-23
 3162 00e1 B7       		.byte	-73
 3163 00e2 55       		.byte	85
 3164 00e3 0B       		.byte	11
 3165 00e4 88       		.byte	-120
 3166 00e5 D6       		.byte	-42
 3167 00e6 34       		.byte	52
 3168 00e7 6A       		.byte	106
ARM GAS  /tmp/cc4tHRwq.s 			page 57


 3169 00e8 2B       		.byte	43
 3170 00e9 75       		.byte	117
 3171 00ea 97       		.byte	-105
 3172 00eb C9       		.byte	-55
 3173 00ec 4A       		.byte	74
 3174 00ed 14       		.byte	20
 3175 00ee F6       		.byte	-10
 3176 00ef A8       		.byte	-88
 3177 00f0 74       		.byte	116
 3178 00f1 2A       		.byte	42
 3179 00f2 C8       		.byte	-56
 3180 00f3 96       		.byte	-106
 3181 00f4 15       		.byte	21
 3182 00f5 4B       		.byte	75
 3183 00f6 A9       		.byte	-87
 3184 00f7 F7       		.byte	-9
 3185 00f8 B6       		.byte	-74
 3186 00f9 E8       		.byte	-24
 3187 00fa 0A       		.byte	10
 3188 00fb 54       		.byte	84
 3189 00fc D7       		.byte	-41
 3190 00fd 89       		.byte	-119
 3191 00fe 6B       		.byte	107
 3192 00ff 35       		.byte	53
 3193              		.section	.rodata.uartCfgTransfert,"a",%progbits
 3194              		.align	2
 3195              		.set	.LANCHOR2,. + 0
 3196              		.type	uartCfgTransfert, %object
 3197              		.size	uartCfgTransfert, 32
 3198              	uartCfgTransfert:
 3199 0000 00000000 		.word	0
 3200 0004 00000000 		.word	txBufferEmpty
 3201 0008 00000000 		.word	rxEnd
 3202 000c 00000000 		.word	0
 3203 0010 00000000 		.word	rxErr
 3204 0014 00C20100 		.word	115200
 3205 0018 0000     		.short	0
 3206 001a 0000     		.short	0
 3207 001c 0800     		.short	8
 3208 001e 0000     		.space	2
 3209              		.text
 3210              	.Letext0:
 3211              		.file 2 "/usr/bin/../lib/gcc/arm-none-eabi/4.7.4/include/stddef.h"
 3212              		.file 3 "/usr/bin/../lib/gcc/arm-none-eabi/4.7.4/../../../../arm-none-eabi/include/stdint.h"
 3213              		.file 4 "../../os/ports/GCC/ARMCMx/chtypes.h"
 3214              		.file 5 "../../os/kernel/include/chlists.h"
 3215              		.file 6 "../../os/kernel/include/chthreads.h"
 3216              		.file 7 "../../os/ports/GCC/ARMCMx/chcore_v7m.h"
 3217              		.file 8 "../../os/kernel/include/chsem.h"
 3218              		.file 9 "../../os/kernel/include/chbsem.h"
 3219              		.file 10 "../../os/kernel/include/chmtx.h"
 3220              		.file 11 "../../os/hal/platforms/STM32F4xx/stm32f4xx.h"
 3221              		.file 12 "../../os/hal/platforms/STM32F4xx/stm32_dma.h"
 3222              		.file 13 "../../os/hal/platforms/STM32/GPIOv2/pal_lld.h"
 3223              		.file 14 "../../os/hal/include/uart.h"
 3224              		.file 15 "../../os/hal/platforms/STM32/USARTv1/uart_lld.h"
 3225              		.file 16 "oneWire.h"
ARM GAS  /tmp/cc4tHRwq.s 			page 58


 3226              		.file 17 "../../os/ports/common/ARMCMx/CMSIS/include/core_cm4.h"