ARM GAS  /tmp/ccQAwNH3.s 			page 1


   1              		.syntax unified
   2              		.cpu cortex-m4
   3              		.eabi_attribute 27, 3
   4              		.eabi_attribute 28, 1
   5              		.fpu fpv4-sp-d16
   6              		.eabi_attribute 20, 1
   7              		.eabi_attribute 21, 1
   8              		.eabi_attribute 23, 3
   9              		.eabi_attribute 24, 1
  10              		.eabi_attribute 25, 1
  11              		.eabi_attribute 26, 1
  12              		.eabi_attribute 30, 2
  13              		.eabi_attribute 34, 1
  14              		.eabi_attribute 18, 4
  15              		.thumb
  16              		.file	"slider.c"
  17              		.text
  18              	.Ltext0:
  19              		.cfi_sections	.debug_frame
  20              		.section	.text.ResetDisplayPos,"ax",%progbits
  21              		.align	2
  22              		.p2align 4,,15
  23              		.thumb
  24              		.thumb_func
  25              		.type	ResetDisplayPos, %function
  26              	ResetDisplayPos:
  27              	.LFB119:
  28              		.file 1 "../../ext/ugfx/src/gwin/slider.c"
  29              		.loc 1 53 0
  30              		.cfi_startproc
  31              		@ args = 0, pretend = 0, frame = 0
  32              		@ frame_needed = 0, uses_anonymous_args = 0
  33              		@ link register save eliminated.
  34              	.LVL0:
  35              		.loc 1 54 0
  36 0000 C289     		ldrh	r2, [r0, #14]
  37 0002 B0F90C30 		ldrsh	r3, [r0, #12]
  38 0006 11B2     		sxth	r1, r2
  39 0008 8B42     		cmp	r3, r1
  40              		.loc 1 53 0
  41 000a 30B4     		push	{r4, r5}
  42              	.LCFI0:
  43              		.cfi_def_cfa_offset 8
  44              		.cfi_offset 4, -8
  45              		.cfi_offset 5, -4
  46              		.loc 1 54 0
  47 000c 0CDB     		blt	.L5
  48              		.loc 1 57 0
  49 000e 026B     		ldr	r2, [r0, #48]
  50 0010 846B     		ldr	r4, [r0, #56]
  51 0012 416B     		ldr	r1, [r0, #52]
  52 0014 A41A     		subs	r4, r4, r2
  53 0016 013B     		subs	r3, r3, #1
  54 0018 04FB03F3 		mul	r3, r4, r3
  55 001c 8A1A     		subs	r2, r1, r2
  56 001e 93FBF2F1 		sdiv	r1, r3, r2
  57 0022 8185     		strh	r1, [r0, #44]	@ movhi
ARM GAS  /tmp/ccQAwNH3.s 			page 2


  58              	.L1:
  59              		.loc 1 58 0
  60 0024 30BC     		pop	{r4, r5}
  61 0026 7047     		bx	lr
  62              	.L5:
  63              		.loc 1 55 0
  64 0028 00F13005 		add	r5, r0, #48
  65 002c 38CD     		ldmia	r5, {r3, r4, r5}
  66 002e 0139     		subs	r1, r1, #1
  67 0030 ED1A     		subs	r5, r5, r3
  68 0032 05FB01F1 		mul	r1, r5, r1
  69 0036 1C1B     		subs	r4, r3, r4
  70 0038 013A     		subs	r2, r2, #1
  71 003a 91FBF4F3 		sdiv	r3, r1, r4
  72 003e D118     		adds	r1, r2, r3
  73 0040 8185     		strh	r1, [r0, #44]	@ movhi
  74 0042 EFE7     		b	.L1
  75              		.cfi_endproc
  76              	.LFE119:
  77              		.size	ResetDisplayPos, .-ResetDisplayPos
  78 0044 AFF30080 		.section	.text.MouseMove,"ax",%progbits
  78      AFF30080 
  78      AFF30080 
  79              		.align	2
  80              		.p2align 4,,15
  81              		.thumb
  82              		.thumb_func
  83              		.type	MouseMove, %function
  84              	MouseMove:
  85              	.LFB121:
  86              		.loc 1 109 0
  87              		.cfi_startproc
  88              		@ args = 0, pretend = 0, frame = 0
  89              		@ frame_needed = 0, uses_anonymous_args = 0
  90              		@ link register save eliminated.
  91              	.LVL1:
  92 0000 70B4     		push	{r4, r5, r6}
  93              	.LCFI1:
  94              		.cfi_def_cfa_offset 12
  95              		.cfi_offset 4, -12
  96              		.cfi_offset 5, -8
  97              		.cfi_offset 6, -4
  98              		.loc 1 113 0
  99 0002 8689     		ldrh	r6, [r0, #12]
 100 0004 C589     		ldrh	r5, [r0, #14]
 101 0006 33B2     		sxth	r3, r6
 102 0008 2CB2     		sxth	r4, r5
 103 000a A342     		cmp	r3, r4
 104 000c 06DA     		bge	.L7
 105              		.loc 1 114 0
 106 000e 002A     		cmp	r2, #0
 107 0010 0EDB     		blt	.L13
 108              		.loc 1 116 0
 109 0012 9442     		cmp	r4, r2
 110 0014 0ADC     		bgt	.L10
 111              		.loc 1 117 0
 112 0016 013D     		subs	r5, r5, #1
ARM GAS  /tmp/ccQAwNH3.s 			page 3


 113 0018 8585     		strh	r5, [r0, #44]	@ movhi
 114 001a 04E0     		b	.L9
 115              	.L7:
 116              		.loc 1 121 0
 117 001c 0029     		cmp	r1, #0
 118 001e 07DB     		blt	.L13
 119              		.loc 1 123 0
 120 0020 8B42     		cmp	r3, r1
 121 0022 08DD     		ble	.L14
 122              		.loc 1 126 0
 123 0024 8185     		strh	r1, [r0, #44]	@ movhi
 124              	.LVL2:
 125              	.L9:
 126              		.loc 1 132 0
 127 0026 70BC     		pop	{r4, r5, r6}
 128              		.loc 1 130 0
 129 0028 FFF7FEBF 		b	_gwidgetRedraw
 130              	.LVL3:
 131              	.L10:
 132              		.loc 1 119 0
 133 002c 8285     		strh	r2, [r0, #44]	@ movhi
 134 002e FAE7     		b	.L9
 135              	.L13:
 136              		.loc 1 122 0
 137 0030 0021     		movs	r1, #0
 138              	.LVL4:
 139 0032 8185     		strh	r1, [r0, #44]	@ movhi
 140 0034 F7E7     		b	.L9
 141              	.LVL5:
 142              	.L14:
 143              		.loc 1 124 0
 144 0036 013E     		subs	r6, r6, #1
 145 0038 8685     		strh	r6, [r0, #44]	@ movhi
 146 003a F4E7     		b	.L9
 147              		.cfi_endproc
 148              	.LFE121:
 149              		.size	MouseMove, .-MouseMove
 150 003c AFF30080 		.section	.text.MouseUp,"ax",%progbits
 151              		.align	2
 152              		.p2align 4,,15
 153              		.thumb
 154              		.thumb_func
 155              		.type	MouseUp, %function
 156              	MouseUp:
 157              	.LFB120:
 158              		.loc 1 62 0
 159              		.cfi_startproc
 160              		@ args = 0, pretend = 0, frame = 0
 161              		@ frame_needed = 0, uses_anonymous_args = 0
 162              	.LVL6:
 163              		.loc 1 74 0
 164 0000 0029     		cmp	r1, #0
 165              	.LVL7:
 166              		.loc 1 62 0
 167 0002 70B5     		push	{r4, r5, r6, lr}
 168              	.LCFI2:
 169              		.cfi_def_cfa_offset 16
ARM GAS  /tmp/ccQAwNH3.s 			page 4


 170              		.cfi_offset 4, -16
 171              		.cfi_offset 5, -12
 172              		.cfi_offset 6, -8
 173              		.cfi_offset 14, -4
 174              		.loc 1 62 0
 175 0004 0546     		mov	r5, r0
 176              		.loc 1 74 0
 177 0006 2EDB     		blt	.L16
 178              		.loc 1 74 0 is_stmt 0 discriminator 1
 179 0008 B0F90C30 		ldrsh	r3, [r0, #12]
 180 000c 9942     		cmp	r1, r3
 181 000e 2ADA     		bge	.L16
 182 0010 002A     		cmp	r2, #0
 183 0012 28DB     		blt	.L16
 184 0014 B0F90E00 		ldrsh	r0, [r0, #14]
 185              	.LVL8:
 186 0018 8242     		cmp	r2, r0
 187 001a 24DA     		bge	.L16
 188              		.loc 1 83 0 is_stmt 1
 189 001c 8342     		cmp	r3, r0
 190 001e 2ADA     		bge	.L18
 191              		.loc 1 84 0
 192 0020 061F     		subs	r6, r0, #4
 193 0022 9642     		cmp	r6, r2
 194 0024 2CDD     		ble	.L33
 195              		.loc 1 86 0
 196 0026 042A     		cmp	r2, #4
 197 0028 2EDC     		bgt	.L21
 198              	.LVL9:
 199              	.L34:
 200              		.loc 1 92 0
 201 002a 6A6B     		ldr	r2, [r5, #52]
 202 002c AA63     		str	r2, [r5, #56]
 203              	.L20:
 204              		.loc 1 99 0
 205 002e 2846     		mov	r0, r5
 206 0030 FFF7FEFF 		bl	ResetDisplayPos
 207              	.LVL10:
 208              		.loc 1 100 0
 209 0034 2846     		mov	r0, r5
 210 0036 FFF7FEFF 		bl	_gwidgetRedraw
 211              	.LVL11:
 212              		.loc 1 39 0
 213 003a 0024     		movs	r4, #0
 214              	.LBB4:
 215              	.LBB5:
 216              		.loc 1 43 0
 217 003c 40F20126 		movw	r6, #513
 218              	.LVL12:
 219              	.L32:
 220              		.loc 1 40 0
 221 0040 2146     		mov	r1, r4
 222 0042 1F48     		ldr	r0, .L36
 223 0044 FFF7FEFF 		bl	geventGetSourceListener
 224              	.LVL13:
 225 0048 0446     		mov	r4, r0
 226 004a E0B1     		cbz	r0, .L35
ARM GAS  /tmp/ccQAwNH3.s 			page 5


 227              		.loc 1 41 0
 228 004c FFF7FEFF 		bl	geventGetEventBuffer
 229              	.LVL14:
 230 0050 0346     		mov	r3, r0
 231              		.loc 1 46 0
 232 0052 2046     		mov	r0, r4
 233              	.LVL15:
 234              		.loc 1 41 0
 235 0054 002B     		cmp	r3, #0
 236 0056 F3D0     		beq	.L32
 237              		.loc 1 45 0
 238 0058 A96B     		ldr	r1, [r5, #56]
 239              		.loc 1 43 0
 240 005a 1E80     		strh	r6, [r3, #0]	@ movhi
 241              		.loc 1 44 0
 242 005c 5D60     		str	r5, [r3, #4]
 243              		.loc 1 45 0
 244 005e 9960     		str	r1, [r3, #8]
 245              		.loc 1 46 0
 246 0060 FFF7FEFF 		bl	geventSendEvent
 247              	.LVL16:
 248 0064 ECE7     		b	.L32
 249              	.LVL17:
 250              	.L16:
 251              	.LBE5:
 252              	.LBE4:
 253              		.loc 1 76 0
 254 0066 2846     		mov	r0, r5
 255 0068 FFF7FEFF 		bl	ResetDisplayPos
 256              	.LVL18:
 257              		.loc 1 77 0
 258 006c 2846     		mov	r0, r5
 259              		.loc 1 106 0
 260 006e BDE87040 		pop	{r4, r5, r6, lr}
 261              		.loc 1 77 0
 262 0072 FFF7FEBF 		b	_gwidgetRedraw
 263              	.LVL19:
 264              	.L18:
 265              		.loc 1 91 0
 266 0076 1A1F     		subs	r2, r3, #4
 267              	.LVL20:
 268 0078 8A42     		cmp	r2, r1
 269 007a D6DD     		ble	.L34
 270              		.loc 1 93 0
 271 007c 0429     		cmp	r1, #4
 272 007e 11DC     		bgt	.L23
 273              	.L33:
 274              		.loc 1 94 0
 275 0080 2C6B     		ldr	r4, [r5, #48]
 276 0082 AC63     		str	r4, [r5, #56]
 277 0084 D3E7     		b	.L20
 278              	.LVL21:
 279              	.L35:
 280              		.loc 1 106 0
 281 0086 70BD     		pop	{r4, r5, r6, pc}
 282              	.LVL22:
 283              	.L21:
ARM GAS  /tmp/ccQAwNH3.s 			page 6


 284              		.loc 1 89 0
 285 0088 2B6B     		ldr	r3, [r5, #48]
 286 008a 696B     		ldr	r1, [r5, #52]
 287 008c 821A     		subs	r2, r0, r2
 288              	.LVL23:
 289 008e CE1A     		subs	r6, r1, r3
 290 0090 941F     		subs	r4, r2, #6
 291 0092 06FB04F4 		mul	r4, r6, r4
 292 0096 0A38     		subs	r0, r0, #10
 293 0098 94FBF0F0 		sdiv	r0, r4, r0
 294 009c C318     		adds	r3, r0, r3
 295 009e 99B2     		uxth	r1, r3
 296 00a0 A963     		str	r1, [r5, #56]
 297 00a2 C4E7     		b	.L20
 298              	.L23:
 299              		.loc 1 96 0
 300 00a4 2C6B     		ldr	r4, [r5, #48]
 301 00a6 6E6B     		ldr	r6, [r5, #52]
 302 00a8 0539     		subs	r1, r1, #5
 303 00aa 301B     		subs	r0, r6, r4
 304 00ac 00FB01F1 		mul	r1, r0, r1
 305 00b0 0A3B     		subs	r3, r3, #10
 306 00b2 91FBF3F3 		sdiv	r3, r1, r3
 307 00b6 1A19     		adds	r2, r3, r4
 308 00b8 94B2     		uxth	r4, r2
 309 00ba AC63     		str	r4, [r5, #56]
 310 00bc B7E7     		b	.L20
 311              	.L37:
 312 00be 00BF     		.align	2
 313              	.L36:
 314 00c0 00000000 		.word	_gwidgetCreate
 315              		.cfi_endproc
 316              	.LFE120:
 317              		.size	MouseUp, .-MouseUp
 318 00c4 AFF30080 		.section	.text.gwinSliderDraw_Std,"ax",%progbits
 318      AFF30080 
 318      AFF30080 
 319              		.align	2
 320              		.p2align 4,,15
 321              		.global	gwinSliderDraw_Std
 322              		.thumb
 323              		.thumb_func
 324              		.type	gwinSliderDraw_Std, %function
 325              	gwinSliderDraw_Std:
 326              	.LFB125:
 327              		.loc 1 282 0
 328              		.cfi_startproc
 329              		@ args = 0, pretend = 0, frame = 0
 330              		@ frame_needed = 0, uses_anonymous_args = 0
 331              	.LVL24:
 332 0000 F0B5     		push	{r4, r5, r6, r7, lr}
 333              	.LCFI3:
 334              		.cfi_def_cfa_offset 20
 335              		.cfi_offset 4, -20
 336              		.cfi_offset 5, -16
 337              		.cfi_offset 6, -12
 338              		.cfi_offset 7, -8
ARM GAS  /tmp/ccQAwNH3.s 			page 7


 339              		.cfi_offset 14, -4
 340              		.loc 1 287 0
 341 0002 4368     		ldr	r3, [r0, #4]
 342 0004 814A     		ldr	r2, .L63
 343 0006 9342     		cmp	r3, r2
 344              		.loc 1 282 0
 345 0008 85B0     		sub	sp, sp, #20
 346              	.LCFI4:
 347              		.cfi_def_cfa_offset 40
 348              		.loc 1 282 0
 349 000a 0446     		mov	r4, r0
 350              		.loc 1 287 0
 351 000c 01D0     		beq	.L59
 352              	.LVL25:
 353              	.L38:
 354              		.loc 1 323 0
 355 000e 05B0     		add	sp, sp, #20
 356 0010 F0BD     		pop	{r4, r5, r6, r7, pc}
 357              	.LVL26:
 358              	.L59:
 359              	.LBB8:
 360              		.loc 1 290 0
 361 0012 808A     		ldrh	r0, [r0, #20]
 362              	.LVL27:
 363              	.LBB9:
 364 0014 00F01001 		and	r1, r0, #16
 365              	.LVL28:
 366 0018 8DB2     		uxth	r5, r1
 367              		.loc 1 291 0
 368 001a A06A     		ldr	r0, [r4, #40]
 369              		.loc 1 290 0
 370 001c 002D     		cmp	r5, #0
 371 001e 68D1     		bne	.L60
 372              		.loc 1 293 0
 373 0020 00F10A05 		add	r5, r0, #10
 374              	.LVL29:
 375              	.L41:
 376              		.loc 1 295 0
 377 0024 A689     		ldrh	r6, [r4, #12]
 378 0026 E789     		ldrh	r7, [r4, #14]
 379 0028 32B2     		sxth	r2, r6
 380 002a 3BB2     		sxth	r3, r7
 381 002c 9A42     		cmp	r2, r3
 382 002e 63DA     		bge	.L42
 383              		.loc 1 296 0
 384 0030 A68D     		ldrh	r6, [r4, #44]
 385 0032 581E     		subs	r0, r3, #1
 386 0034 31B2     		sxth	r1, r6
 387 0036 8142     		cmp	r1, r0
 388 0038 0ED0     		beq	.L43
 389              		.loc 1 297 0
 390 003a 6189     		ldrh	r1, [r4, #10]
 391 003c EB88     		ldrh	r3, [r5, #6]
 392 003e B4F90800 		ldrsh	r0, [r4, #8]
 393 0042 0093     		str	r3, [sp, #0]
 394 0044 B6B2     		uxth	r6, r6
 395 0046 7118     		adds	r1, r6, r1
ARM GAS  /tmp/ccQAwNH3.s 			page 8


 396 0048 BF1B     		subs	r7, r7, r6
 397 004a 09B2     		sxth	r1, r1
 398 004c 3BB2     		sxth	r3, r7
 399 004e FFF7FEFF 		bl	gdispFillArea
 400              	.LVL30:
 401 0052 A68D     		ldrh	r6, [r4, #44]
 402 0054 B4F90C20 		ldrsh	r2, [r4, #12]
 403              	.L43:
 404              		.loc 1 298 0
 405 0058 002E     		cmp	r6, #0
 406 005a 40F09A80 		bne	.L61
 407              	.L44:
 408              		.loc 1 300 0
 409 005e 6E88     		ldrh	r6, [r5, #2]
 410 0060 B4F90800 		ldrsh	r0, [r4, #8]
 411 0064 B4F90A10 		ldrsh	r1, [r4, #10]
 412 0068 B4F90E30 		ldrsh	r3, [r4, #14]
 413 006c 0096     		str	r6, [sp, #0]
 414 006e FFF7FEFF 		bl	gdispDrawBox
 415              	.LVL31:
 416              		.loc 1 301 0
 417 0072 A78D     		ldrh	r7, [r4, #44]
 418 0074 6189     		ldrh	r1, [r4, #10]
 419 0076 2089     		ldrh	r0, [r4, #8]
 420 0078 A289     		ldrh	r2, [r4, #12]
 421 007a 6B88     		ldrh	r3, [r5, #2]
 422 007c 7E18     		adds	r6, r7, r1
 423 007e 8718     		adds	r7, r0, r2
 424 0080 31B2     		sxth	r1, r6
 425 0082 7A1E     		subs	r2, r7, #1
 426 0084 0093     		str	r3, [sp, #0]
 427 0086 12B2     		sxth	r2, r2
 428 0088 0B46     		mov	r3, r1
 429 008a 00B2     		sxth	r0, r0
 430 008c FFF7FEFF 		bl	gdispDrawLine
 431              	.LVL32:
 432              		.loc 1 302 0
 433 0090 A28D     		ldrh	r2, [r4, #44]
 434 0092 11B2     		sxth	r1, r2
 435 0094 0129     		cmp	r1, #1
 436 0096 10DD     		ble	.L45
 437              		.loc 1 303 0
 438 0098 6189     		ldrh	r1, [r4, #10]
 439 009a 2089     		ldrh	r0, [r4, #8]
 440 009c A689     		ldrh	r6, [r4, #12]
 441 009e 6B88     		ldrh	r3, [r5, #2]
 442 00a0 8F18     		adds	r7, r1, r2
 443 00a2 BA1E     		subs	r2, r7, #2
 444 00a4 8619     		adds	r6, r0, r6
 445 00a6 11B2     		sxth	r1, r2
 446 00a8 771E     		subs	r7, r6, #1
 447 00aa 0093     		str	r3, [sp, #0]
 448 00ac 3AB2     		sxth	r2, r7
 449 00ae 0B46     		mov	r3, r1
 450 00b0 00B2     		sxth	r0, r0
 451 00b2 FFF7FEFF 		bl	gdispDrawLine
 452              	.LVL33:
ARM GAS  /tmp/ccQAwNH3.s 			page 9


 453 00b6 A28D     		ldrh	r2, [r4, #44]
 454 00b8 11B2     		sxth	r1, r2
 455              	.L45:
 456              		.loc 1 304 0
 457 00ba E389     		ldrh	r3, [r4, #14]
 458 00bc 18B2     		sxth	r0, r3
 459 00be 461E     		subs	r6, r0, #1
 460 00c0 8E42     		cmp	r6, r1
 461 00c2 00F39080 		bgt	.L46
 462 00c6 A289     		ldrh	r2, [r4, #12]
 463              	.L47:
 464              		.loc 1 320 0
 465 00c8 E769     		ldr	r7, [r4, #28]
 466 00ca A669     		ldr	r6, [r4, #24]
 467 00cc 2089     		ldrh	r0, [r4, #8]
 468 00ce 6189     		ldrh	r1, [r4, #10]
 469 00d0 0097     		str	r7, [sp, #0]
 470 00d2 0196     		str	r6, [sp, #4]
 471 00d4 2C88     		ldrh	r4, [r5, #0]
 472              	.LVL34:
 473 00d6 0130     		adds	r0, r0, #1
 474 00d8 0131     		adds	r1, r1, #1
 475 00da 023A     		subs	r2, r2, #2
 476 00dc 023B     		subs	r3, r3, #2
 477 00de 0294     		str	r4, [sp, #8]
 478 00e0 0124     		movs	r4, #1
 479 00e2 0394     		str	r4, [sp, #12]
 480 00e4 00B2     		sxth	r0, r0
 481 00e6 09B2     		sxth	r1, r1
 482 00e8 12B2     		sxth	r2, r2
 483 00ea 1BB2     		sxth	r3, r3
 484 00ec FFF7FEFF 		bl	gdispDrawStringBox
 485              	.LVL35:
 486 00f0 8DE7     		b	.L38
 487              	.LVL36:
 488              	.L60:
 489              		.loc 1 291 0
 490 00f2 00F11205 		add	r5, r0, #18
 491              	.LVL37:
 492 00f6 95E7     		b	.L41
 493              	.L42:
 494              		.loc 1 309 0
 495 00f8 A78D     		ldrh	r7, [r4, #44]
 496 00fa 013A     		subs	r2, r2, #1
 497 00fc 39B2     		sxth	r1, r7
 498 00fe 9142     		cmp	r1, r2
 499 0100 10D0     		beq	.L48
 500              		.loc 1 310 0
 501 0102 B4F808E0 		ldrh	lr, [r4, #8]
 502 0106 0289     		ldrh	r2, [r0, #8]
 503 0108 B4F90A10 		ldrsh	r1, [r4, #10]
 504 010c 0092     		str	r2, [sp, #0]
 505 010e BFB2     		uxth	r7, r7
 506 0110 07EB0E00 		add	r0, r7, lr
 507 0114 F61B     		subs	r6, r6, r7
 508 0116 00B2     		sxth	r0, r0
 509 0118 32B2     		sxth	r2, r6
ARM GAS  /tmp/ccQAwNH3.s 			page 10


 510 011a FFF7FEFF 		bl	gdispFillArea
 511              	.LVL38:
 512 011e A78D     		ldrh	r7, [r4, #44]
 513 0120 B4F90E30 		ldrsh	r3, [r4, #14]
 514              	.L48:
 515              		.loc 1 311 0
 516 0124 002F     		cmp	r7, #0
 517 0126 52D1     		bne	.L62
 518              	.L49:
 519              		.loc 1 313 0
 520 0128 6E88     		ldrh	r6, [r5, #2]
 521 012a B4F90800 		ldrsh	r0, [r4, #8]
 522 012e B4F90A10 		ldrsh	r1, [r4, #10]
 523 0132 B4F90C20 		ldrsh	r2, [r4, #12]
 524 0136 0096     		str	r6, [sp, #0]
 525 0138 FFF7FEFF 		bl	gdispDrawBox
 526              	.LVL39:
 527              		.loc 1 314 0
 528 013c A78D     		ldrh	r7, [r4, #44]
 529 013e 2089     		ldrh	r0, [r4, #8]
 530 0140 6189     		ldrh	r1, [r4, #10]
 531 0142 E389     		ldrh	r3, [r4, #14]
 532 0144 6A88     		ldrh	r2, [r5, #2]
 533 0146 3E18     		adds	r6, r7, r0
 534 0148 CF18     		adds	r7, r1, r3
 535 014a 30B2     		sxth	r0, r6
 536 014c 7B1E     		subs	r3, r7, #1
 537 014e 0092     		str	r2, [sp, #0]
 538 0150 09B2     		sxth	r1, r1
 539 0152 1BB2     		sxth	r3, r3
 540 0154 0246     		mov	r2, r0
 541 0156 FFF7FEFF 		bl	gdispDrawLine
 542              	.LVL40:
 543              		.loc 1 315 0
 544 015a A38D     		ldrh	r3, [r4, #44]
 545 015c 19B2     		sxth	r1, r3
 546 015e 0129     		cmp	r1, #1
 547 0160 10DD     		ble	.L50
 548              		.loc 1 316 0
 549 0162 2089     		ldrh	r0, [r4, #8]
 550 0164 6189     		ldrh	r1, [r4, #10]
 551 0166 E689     		ldrh	r6, [r4, #14]
 552 0168 6A88     		ldrh	r2, [r5, #2]
 553 016a C718     		adds	r7, r0, r3
 554 016c BB1E     		subs	r3, r7, #2
 555 016e 8E19     		adds	r6, r1, r6
 556 0170 18B2     		sxth	r0, r3
 557 0172 771E     		subs	r7, r6, #1
 558 0174 0092     		str	r2, [sp, #0]
 559 0176 09B2     		sxth	r1, r1
 560 0178 3BB2     		sxth	r3, r7
 561 017a 0246     		mov	r2, r0
 562 017c FFF7FEFF 		bl	gdispDrawLine
 563              	.LVL41:
 564 0180 A38D     		ldrh	r3, [r4, #44]
 565 0182 19B2     		sxth	r1, r3
 566              	.L50:
ARM GAS  /tmp/ccQAwNH3.s 			page 11


 567              		.loc 1 317 0
 568 0184 A289     		ldrh	r2, [r4, #12]
 569 0186 10B2     		sxth	r0, r2
 570 0188 461E     		subs	r6, r0, #1
 571 018a 8E42     		cmp	r6, r1
 572 018c 0EDC     		bgt	.L51
 573              	.L58:
 574 018e E389     		ldrh	r3, [r4, #14]
 575 0190 9AE7     		b	.L47
 576              	.L61:
 577              		.loc 1 299 0
 578 0192 A36A     		ldr	r3, [r4, #40]
 579 0194 B4F90800 		ldrsh	r0, [r4, #8]
 580 0198 1F89     		ldrh	r7, [r3, #8]
 581 019a B4F90A10 		ldrsh	r1, [r4, #10]
 582 019e 0097     		str	r7, [sp, #0]
 583 01a0 33B2     		sxth	r3, r6
 584 01a2 FFF7FEFF 		bl	gdispFillArea
 585              	.LVL42:
 586 01a6 B4F90C20 		ldrsh	r2, [r4, #12]
 587 01aa 58E7     		b	.L44
 588              	.L51:
 589              		.loc 1 318 0
 590 01ac 2789     		ldrh	r7, [r4, #8]
 591 01ae 6189     		ldrh	r1, [r4, #10]
 592 01b0 E689     		ldrh	r6, [r4, #14]
 593 01b2 6A88     		ldrh	r2, [r5, #2]
 594 01b4 B81C     		adds	r0, r7, #2
 595 01b6 C318     		adds	r3, r0, r3
 596 01b8 8F19     		adds	r7, r1, r6
 597 01ba 18B2     		sxth	r0, r3
 598 01bc 7E1E     		subs	r6, r7, #1
 599 01be 0092     		str	r2, [sp, #0]
 600 01c0 09B2     		sxth	r1, r1
 601 01c2 0246     		mov	r2, r0
 602 01c4 33B2     		sxth	r3, r6
 603 01c6 FFF7FEFF 		bl	gdispDrawLine
 604              	.LVL43:
 605 01ca A289     		ldrh	r2, [r4, #12]
 606 01cc DFE7     		b	.L58
 607              	.L62:
 608              		.loc 1 312 0
 609 01ce EA88     		ldrh	r2, [r5, #6]
 610 01d0 B4F90800 		ldrsh	r0, [r4, #8]
 611 01d4 B4F90A10 		ldrsh	r1, [r4, #10]
 612 01d8 0092     		str	r2, [sp, #0]
 613 01da 3AB2     		sxth	r2, r7
 614 01dc FFF7FEFF 		bl	gdispFillArea
 615              	.LVL44:
 616 01e0 B4F90E30 		ldrsh	r3, [r4, #14]
 617 01e4 A0E7     		b	.L49
 618              	.L46:
 619              		.loc 1 305 0
 620 01e6 6789     		ldrh	r7, [r4, #10]
 621 01e8 2089     		ldrh	r0, [r4, #8]
 622 01ea A689     		ldrh	r6, [r4, #12]
 623 01ec 6B88     		ldrh	r3, [r5, #2]
ARM GAS  /tmp/ccQAwNH3.s 			page 12


 624 01ee B91C     		adds	r1, r7, #2
 625 01f0 8A18     		adds	r2, r1, r2
 626 01f2 8719     		adds	r7, r0, r6
 627 01f4 11B2     		sxth	r1, r2
 628 01f6 7E1E     		subs	r6, r7, #1
 629 01f8 0093     		str	r3, [sp, #0]
 630 01fa 32B2     		sxth	r2, r6
 631 01fc 0B46     		mov	r3, r1
 632 01fe 00B2     		sxth	r0, r0
 633 0200 FFF7FEFF 		bl	gdispDrawLine
 634              	.LVL45:
 635 0204 A289     		ldrh	r2, [r4, #12]
 636 0206 E389     		ldrh	r3, [r4, #14]
 637 0208 5EE7     		b	.L47
 638              	.L64:
 639 020a 00BF     		.align	2
 640              	.L63:
 641 020c 00000000 		.word	.LANCHOR0
 642              	.LBE9:
 643              	.LBE8:
 644              		.cfi_endproc
 645              	.LFE125:
 646              		.size	gwinSliderDraw_Std, .-gwinSliderDraw_Std
 647              		.section	.text.gwinSliderCreate,"ax",%progbits
 648              		.align	2
 649              		.p2align 4,,15
 650              		.global	gwinSliderCreate
 651              		.thumb
 652              		.thumb_func
 653              		.type	gwinSliderCreate, %function
 654              	gwinSliderCreate:
 655              	.LFB122:
 656              		.loc 1 226 0
 657              		.cfi_startproc
 658              		@ args = 0, pretend = 0, frame = 0
 659              		@ frame_needed = 0, uses_anonymous_args = 0
 660              	.LVL46:
 661 0000 38B5     		push	{r3, r4, r5, lr}
 662              	.LCFI5:
 663              		.cfi_def_cfa_offset 16
 664              		.cfi_offset 3, -16
 665              		.cfi_offset 4, -12
 666              		.cfi_offset 5, -8
 667              		.cfi_offset 14, -4
 668              		.loc 1 227 0
 669 0002 094A     		ldr	r2, .L70
 670              		.loc 1 226 0
 671 0004 0D46     		mov	r5, r1
 672              		.loc 1 227 0
 673 0006 FFF7FEFF 		bl	_gwidgetCreate
 674              	.LVL47:
 675 000a 0446     		mov	r4, r0
 676 000c 50B1     		cbz	r0, .L66
 677              		.loc 1 236 0
 678 000e 0023     		movs	r3, #0
 679              		.loc 1 237 0
 680 0010 6422     		movs	r2, #100
ARM GAS  /tmp/ccQAwNH3.s 			page 13


 681              		.loc 1 236 0
 682 0012 0363     		str	r3, [r0, #48]
 683              		.loc 1 237 0
 684 0014 4263     		str	r2, [r0, #52]
 685              		.loc 1 238 0
 686 0016 8363     		str	r3, [r0, #56]
 687              		.loc 1 239 0
 688 0018 FFF7FEFF 		bl	ResetDisplayPos
 689              	.LVL48:
 690              		.loc 1 240 0
 691 001c 2046     		mov	r0, r4
 692 001e 297A     		ldrb	r1, [r5, #8]	@ zero_extendqisi2
 693 0020 FFF7FEFF 		bl	gwinSetVisible
 694              	.LVL49:
 695              	.L66:
 696              		.loc 1 242 0
 697 0024 2046     		mov	r0, r4
 698 0026 38BD     		pop	{r3, r4, r5, pc}
 699              	.L71:
 700              		.align	2
 701              	.L70:
 702 0028 00000000 		.word	.LANCHOR0
 703              		.cfi_endproc
 704              	.LFE122:
 705              		.size	gwinSliderCreate, .-gwinSliderCreate
 706 002c AFF30080 		.section	.text.gwinSliderSetRange,"ax",%progbits
 707              		.align	2
 708              		.p2align 4,,15
 709              		.global	gwinSliderSetRange
 710              		.thumb
 711              		.thumb_func
 712              		.type	gwinSliderSetRange, %function
 713              	gwinSliderSetRange:
 714              	.LFB123:
 715              		.loc 1 244 0
 716              		.cfi_startproc
 717              		@ args = 0, pretend = 0, frame = 0
 718              		@ frame_needed = 0, uses_anonymous_args = 0
 719              		@ link register save eliminated.
 720              	.LVL50:
 721 0000 10B4     		push	{r4}
 722              	.LCFI6:
 723              		.cfi_def_cfa_offset 4
 724              		.cfi_offset 4, -4
 725              		.loc 1 247 0
 726 0002 4368     		ldr	r3, [r0, #4]
 727 0004 064C     		ldr	r4, .L76
 728 0006 A342     		cmp	r3, r4
 729 0008 01D0     		beq	.L75
 730              		.loc 1 257 0
 731 000a 10BC     		pop	{r4}
 732 000c 7047     		bx	lr
 733              	.L75:
 734              		.loc 1 250 0
 735 000e 9142     		cmp	r1, r2
 736              		.loc 1 251 0
 737 0010 08BF     		it	eq
ARM GAS  /tmp/ccQAwNH3.s 			page 14


 738 0012 4A1C     		addeq	r2, r1, #1
 739              	.LVL51:
 740              		.loc 1 252 0
 741 0014 0163     		str	r1, [r0, #48]
 742              		.loc 1 253 0
 743 0016 4263     		str	r2, [r0, #52]
 744              		.loc 1 254 0
 745 0018 8163     		str	r1, [r0, #56]
 746              		.loc 1 257 0
 747 001a 10BC     		pop	{r4}
 748              		.loc 1 255 0
 749 001c FFF7FEBF 		b	ResetDisplayPos
 750              	.LVL52:
 751              	.L77:
 752              		.align	2
 753              	.L76:
 754 0020 00000000 		.word	.LANCHOR0
 755              		.cfi_endproc
 756              	.LFE123:
 757              		.size	gwinSliderSetRange, .-gwinSliderSetRange
 758 0024 AFF30080 		.section	.text.gwinSliderSetPosition,"ax",%progbits
 758      AFF30080 
 758      AFF30080 
 759              		.align	2
 760              		.p2align 4,,15
 761              		.global	gwinSliderSetPosition
 762              		.thumb
 763              		.thumb_func
 764              		.type	gwinSliderSetPosition, %function
 765              	gwinSliderSetPosition:
 766              	.LFB124:
 767              		.loc 1 259 0
 768              		.cfi_startproc
 769              		@ args = 0, pretend = 0, frame = 0
 770              		@ frame_needed = 0, uses_anonymous_args = 0
 771              		@ link register save eliminated.
 772              	.LVL53:
 773              		.loc 1 262 0
 774 0000 4368     		ldr	r3, [r0, #4]
 775 0002 0C4A     		ldr	r2, .L89
 776 0004 9342     		cmp	r3, r2
 777 0006 00D0     		beq	.L87
 778 0008 7047     		bx	lr
 779              	.L87:
 780              		.loc 1 265 0
 781 000a 036B     		ldr	r3, [r0, #48]
 782 000c 426B     		ldr	r2, [r0, #52]
 783 000e 9342     		cmp	r3, r2
 784 0010 07DD     		ble	.L88
 785              		.loc 1 270 0
 786 0012 8B42     		cmp	r3, r1
 787 0014 0CDB     		blt	.L86
 788              		.loc 1 271 0
 789 0016 8A42     		cmp	r2, r1
 790 0018 ACBF     		ite	ge
 791 001a 8263     		strge	r2, [r0, #56]
 792 001c 8163     		strlt	r1, [r0, #56]
ARM GAS  /tmp/ccQAwNH3.s 			page 15


 793              	.L82:
 794              		.loc 1 276 0
 795              		.loc 1 274 0
 796 001e FFF7FEBF 		b	ResetDisplayPos
 797              	.LVL54:
 798              	.L88:
 799              		.loc 1 266 0
 800 0022 8B42     		cmp	r3, r1
 801 0024 04DC     		bgt	.L86
 802              		.loc 1 267 0
 803 0026 8A42     		cmp	r2, r1
 804 0028 D4BF     		ite	le
 805 002a 8263     		strle	r2, [r0, #56]
 806 002c 8163     		strgt	r1, [r0, #56]
 807 002e F6E7     		b	.L82
 808              	.L86:
 809              		.loc 1 270 0 discriminator 1
 810 0030 8363     		str	r3, [r0, #56]
 811 0032 F4E7     		b	.L82
 812              	.L90:
 813              		.align	2
 814              	.L89:
 815 0034 00000000 		.word	.LANCHOR0
 816              		.cfi_endproc
 817              	.LFE124:
 818              		.size	gwinSliderSetPosition, .-gwinSliderSetPosition
 819 0038 AFF30080 		.section	.text.gwinSliderDraw_Image,"ax",%progbits
 819      AFF30080 
 820              		.align	2
 821              		.p2align 4,,15
 822              		.global	gwinSliderDraw_Image
 823              		.thumb
 824              		.thumb_func
 825              		.type	gwinSliderDraw_Image, %function
 826              	gwinSliderDraw_Image:
 827              	.LFB126:
 828              		.loc 1 325 0
 829              		.cfi_startproc
 830              		@ args = 0, pretend = 0, frame = 0
 831              		@ frame_needed = 0, uses_anonymous_args = 0
 832              	.LVL55:
 833 0000 2DE9F04F 		push	{r4, r5, r6, r7, r8, r9, sl, fp, lr}
 834              	.LCFI7:
 835              		.cfi_def_cfa_offset 36
 836              		.cfi_offset 4, -36
 837              		.cfi_offset 5, -32
 838              		.cfi_offset 6, -28
 839              		.cfi_offset 7, -24
 840              		.cfi_offset 8, -20
 841              		.cfi_offset 9, -16
 842              		.cfi_offset 10, -12
 843              		.cfi_offset 11, -8
 844              		.cfi_offset 14, -4
 845              		.loc 1 331 0
 846 0004 4368     		ldr	r3, [r0, #4]
 847 0006 854A     		ldr	r2, .L117
 848 0008 9342     		cmp	r3, r2
ARM GAS  /tmp/ccQAwNH3.s 			page 16


 849              		.loc 1 325 0
 850 000a 85B0     		sub	sp, sp, #20
 851              	.LCFI8:
 852              		.cfi_def_cfa_offset 56
 853              		.loc 1 325 0
 854 000c 0446     		mov	r4, r0
 855 000e 0F46     		mov	r7, r1
 856              		.loc 1 331 0
 857 0010 02D0     		beq	.L113
 858              	.LVL56:
 859              	.L91:
 860              		.loc 1 372 0
 861 0012 05B0     		add	sp, sp, #20
 862 0014 BDE8F08F 		pop	{r4, r5, r6, r7, r8, r9, sl, fp, pc}
 863              	.LVL57:
 864              	.L113:
 865              		.loc 1 334 0
 866 0018 808A     		ldrh	r0, [r0, #20]
 867              	.LVL58:
 868              		.loc 1 335 0
 869 001a A26A     		ldr	r2, [r4, #40]
 870              		.loc 1 334 0
 871 001c 00F01001 		and	r1, r0, #16
 872              	.LVL59:
 873 0020 8DB2     		uxth	r5, r1
 874 0022 002D     		cmp	r5, #0
 875 0024 4CD1     		bne	.L114
 876              		.loc 1 337 0
 877 0026 02F10A09 		add	r9, r2, #10
 878              	.LVL60:
 879              	.L94:
 880              		.loc 1 339 0
 881 002a B4F80CE0 		ldrh	lr, [r4, #12]
 882 002e E589     		ldrh	r5, [r4, #14]
 883 0030 0FFA8EF3 		sxth	r3, lr
 884 0034 2EB2     		sxth	r6, r5
 885 0036 B342     		cmp	r3, r6
 886 0038 7CDA     		bge	.L95
 887              		.loc 1 340 0
 888 003a B4F82CE0 		ldrh	lr, [r4, #44]
 889 003e BEF1000F 		cmp	lr, #0
 890 0042 40F0D980 		bne	.L115
 891 0046 7146     		mov	r1, lr
 892              	.L96:
 893              		.loc 1 342 0
 894 0048 0AB2     		sxth	r2, r1
 895 004a 701E     		subs	r0, r6, #1
 896 004c 8242     		cmp	r2, r0
 897 004e 3ED0     		beq	.L97
 898              	.LVL61:
 899              		.loc 1 343 0
 900 0050 B242     		cmp	r2, r6
 901 0052 B7F808C0 		ldrh	ip, [r7, #8]
 902              	.LVL62:
 903 0056 3ADA     		bge	.L97
 904 0058 E346     		mov	fp, ip
 905              		.loc 1 349 0
ARM GAS  /tmp/ccQAwNH3.s 			page 17


 906 005a 4FF0000A 		mov	sl, #0
 907 005e 19E0     		b	.L101
 908              	.LVL63:
 909              	.L116:
 910              		.loc 1 345 0
 911 0060 7046     		mov	r0, lr
 912              	.LVL64:
 913              	.L99:
 914              		.loc 1 349 0
 915 0062 6289     		ldrh	r2, [r4, #10]
 916 0064 B4F90810 		ldrsh	r1, [r4, #8]
 917 0068 CDF804A0 		str	sl, [sp, #4]
 918 006c C6EB0C06 		rsb	r6, r6, ip
 919 0070 8218     		adds	r2, r0, r2
 920 0072 36B2     		sxth	r6, r6
 921 0074 0FFA8BF0 		sxth	r0, fp
 922 0078 0090     		str	r0, [sp, #0]
 923 007a 12B2     		sxth	r2, r2
 924 007c 0296     		str	r6, [sp, #8]
 925 007e 3846     		mov	r0, r7
 926 0080 FFF7FEFF 		bl	gdispImageDraw
 927              	.LVL65:
 928              		.loc 1 343 0
 929 0084 A18D     		ldrh	r1, [r4, #44]
 930 0086 0AB2     		sxth	r2, r1
 931 0088 9045     		cmp	r8, r2
 932 008a 1CDD     		ble	.L100
 933 008c B7F808C0 		ldrh	ip, [r7, #8]
 934 0090 B4F90C30 		ldrsh	r3, [r4, #12]
 935              	.LVL66:
 936              	.L101:
 937              		.loc 1 344 0
 938 0094 1FFA8BF6 		uxth	r6, fp
 939 0098 AD1B     		subs	r5, r5, r6
 940 009a 1FFA85FE 		uxth	lr, r5
 941 009e 1FFA8EF5 		uxth	r5, lr
 942              	.LVL67:
 943              		.loc 1 345 0
 944 00a2 0FFA85F8 		sxth	r8, r5
 945              		.loc 1 346 0
 946 00a6 88B2     		uxth	r0, r1
 947              		.loc 1 345 0
 948 00a8 9045     		cmp	r8, r2
 949              		.loc 1 346 0
 950 00aa C0EB0E02 		rsb	r2, r0, lr
 951              		.loc 1 345 0
 952 00ae D7DA     		bge	.L116
 953              		.loc 1 346 0
 954 00b0 B618     		adds	r6, r6, r2
 955 00b2 B6B2     		uxth	r6, r6
 956 00b4 0D46     		mov	r5, r1
 957 00b6 1FFA86FB 		uxth	fp, r6
 958              	.LVL68:
 959 00ba 0FFA81F8 		sxth	r8, r1
 960 00be D0E7     		b	.L99
 961              	.LVL69:
 962              	.L114:
ARM GAS  /tmp/ccQAwNH3.s 			page 18


 963              		.loc 1 335 0
 964 00c0 02F11209 		add	r9, r2, #18
 965              	.LVL70:
 966 00c4 B1E7     		b	.L94
 967              	.LVL71:
 968              	.L100:
 969 00c6 B4F90C30 		ldrsh	r3, [r4, #12]
 970 00ca B4F90E60 		ldrsh	r6, [r4, #14]
 971              	.LVL72:
 972              	.L97:
 973              		.loc 1 352 0
 974 00ce B9F80250 		ldrh	r5, [r9, #2]
 975 00d2 B4F90800 		ldrsh	r0, [r4, #8]
 976 00d6 B4F90A10 		ldrsh	r1, [r4, #10]
 977 00da 0095     		str	r5, [sp, #0]
 978 00dc 1A46     		mov	r2, r3
 979 00de 3346     		mov	r3, r6
 980 00e0 FFF7FEFF 		bl	gdispDrawBox
 981              	.LVL73:
 982              		.loc 1 353 0
 983 00e4 A68D     		ldrh	r6, [r4, #44]
 984 00e6 6189     		ldrh	r1, [r4, #10]
 985 00e8 2089     		ldrh	r0, [r4, #8]
 986 00ea A289     		ldrh	r2, [r4, #12]
 987 00ec B9F80230 		ldrh	r3, [r9, #2]
 988 00f0 7518     		adds	r5, r6, r1
 989 00f2 8618     		adds	r6, r0, r2
 990 00f4 29B2     		sxth	r1, r5
 991 00f6 721E     		subs	r2, r6, #1
 992 00f8 0093     		str	r3, [sp, #0]
 993 00fa 00B2     		sxth	r0, r0
 994 00fc 12B2     		sxth	r2, r2
 995 00fe 0B46     		mov	r3, r1
 996 0100 FFF7FEFF 		bl	gdispDrawLine
 997              	.LVL74:
 998              	.L102:
 999              		.loc 1 369 0
 1000 0104 E669     		ldr	r6, [r4, #28]
 1001 0106 A569     		ldr	r5, [r4, #24]
 1002 0108 2089     		ldrh	r0, [r4, #8]
 1003 010a 6189     		ldrh	r1, [r4, #10]
 1004 010c A289     		ldrh	r2, [r4, #12]
 1005 010e E389     		ldrh	r3, [r4, #14]
 1006 0110 0096     		str	r6, [sp, #0]
 1007 0112 0195     		str	r5, [sp, #4]
 1008 0114 B9F80040 		ldrh	r4, [r9, #0]
 1009              	.LVL75:
 1010 0118 0130     		adds	r0, r0, #1
 1011 011a 0131     		adds	r1, r1, #1
 1012 011c 023A     		subs	r2, r2, #2
 1013 011e 023B     		subs	r3, r3, #2
 1014 0120 0294     		str	r4, [sp, #8]
 1015 0122 0124     		movs	r4, #1
 1016 0124 0394     		str	r4, [sp, #12]
 1017 0126 00B2     		sxth	r0, r0
 1018 0128 09B2     		sxth	r1, r1
 1019 012a 12B2     		sxth	r2, r2
ARM GAS  /tmp/ccQAwNH3.s 			page 19


 1020 012c 1BB2     		sxth	r3, r3
 1021 012e FFF7FEFF 		bl	gdispDrawStringBox
 1022              	.LVL76:
 1023 0132 6EE7     		b	.L91
 1024              	.LVL77:
 1025              	.L95:
 1026              		.loc 1 357 0
 1027 0134 A08D     		ldrh	r0, [r4, #44]
 1028 0136 013B     		subs	r3, r3, #1
 1029 0138 01B2     		sxth	r1, r0
 1030 013a 9942     		cmp	r1, r3
 1031 013c 12D0     		beq	.L103
 1032              		.loc 1 358 0
 1033 013e B4F808C0 		ldrh	ip, [r4, #8]
 1034 0142 1589     		ldrh	r5, [r2, #8]
 1035 0144 B4F90A10 		ldrsh	r1, [r4, #10]
 1036 0148 0095     		str	r5, [sp, #0]
 1037 014a 82B2     		uxth	r2, r0
 1038 014c 02EB0C00 		add	r0, r2, ip
 1039 0150 C2EB0E02 		rsb	r2, r2, lr
 1040 0154 3346     		mov	r3, r6
 1041 0156 00B2     		sxth	r0, r0
 1042 0158 12B2     		sxth	r2, r2
 1043 015a FFF7FEFF 		bl	gdispFillArea
 1044              	.LVL78:
 1045 015e A08D     		ldrh	r0, [r4, #44]
 1046 0160 B4F90E60 		ldrsh	r6, [r4, #14]
 1047              	.L103:
 1048              		.loc 1 359 0
 1049 0164 58B3     		cbz	r0, .L104
 1050              	.LVL79:
 1051              		.loc 1 360 0
 1052 0166 03B2     		sxth	r3, r0
 1053 0168 002B     		cmp	r3, #0
 1054 016a B7F806B0 		ldrh	fp, [r7, #6]
 1055              	.LVL80:
 1056 016e 26DD     		ble	.L104
 1057 0170 0025     		movs	r5, #0
 1058 0172 2946     		mov	r1, r5
 1059 0174 0FFA8BF8 		sxth	r8, fp
 1060              		.loc 1 363 0
 1061 0178 AA46     		mov	sl, r5
 1062              	.LVL81:
 1063              	.L108:
 1064              		.loc 1 361 0
 1065 017a 4144     		add	r1, r1, r8
 1066 017c 9942     		cmp	r1, r3
 1067              		.loc 1 362 0
 1068 017e ADB2     		uxth	r5, r5
 1069              		.loc 1 361 0
 1070 0180 05DD     		ble	.L106
 1071              		.loc 1 362 0
 1072 0182 C5EB000B 		rsb	fp, r5, r0
 1073 0186 1FFA8BFB 		uxth	fp, fp
 1074              	.LVL82:
 1075 018a 0FFA8BF8 		sxth	r8, fp
 1076              	.LVL83:
ARM GAS  /tmp/ccQAwNH3.s 			page 20


 1077              	.L106:
 1078              		.loc 1 363 0
 1079 018e 2389     		ldrh	r3, [r4, #8]
 1080 0190 B4F90A20 		ldrsh	r2, [r4, #10]
 1081 0194 0096     		str	r6, [sp, #0]
 1082 0196 EE18     		adds	r6, r5, r3
 1083 0198 31B2     		sxth	r1, r6
 1084 019a 4346     		mov	r3, r8
 1085 019c CDF804A0 		str	sl, [sp, #4]
 1086 01a0 CDF808A0 		str	sl, [sp, #8]
 1087 01a4 3846     		mov	r0, r7
 1088 01a6 FFF7FEFF 		bl	gdispImageDraw
 1089              	.LVL84:
 1090              		.loc 1 360 0
 1091 01aa 05EB0B02 		add	r2, r5, fp
 1092 01ae A08D     		ldrh	r0, [r4, #44]
 1093 01b0 B4F90E60 		ldrsh	r6, [r4, #14]
 1094 01b4 95B2     		uxth	r5, r2
 1095              	.LVL85:
 1096 01b6 03B2     		sxth	r3, r0
 1097 01b8 29B2     		sxth	r1, r5
 1098 01ba 8B42     		cmp	r3, r1
 1099 01bc DDDC     		bgt	.L108
 1100              	.LVL86:
 1101              	.L104:
 1102              		.loc 1 366 0
 1103 01be B9F80250 		ldrh	r5, [r9, #2]
 1104 01c2 B4F90800 		ldrsh	r0, [r4, #8]
 1105 01c6 B4F90A10 		ldrsh	r1, [r4, #10]
 1106 01ca B4F90C20 		ldrsh	r2, [r4, #12]
 1107 01ce 0095     		str	r5, [sp, #0]
 1108 01d0 3346     		mov	r3, r6
 1109 01d2 FFF7FEFF 		bl	gdispDrawBox
 1110              	.LVL87:
 1111              		.loc 1 367 0
 1112 01d6 A68D     		ldrh	r6, [r4, #44]
 1113 01d8 2089     		ldrh	r0, [r4, #8]
 1114 01da 6189     		ldrh	r1, [r4, #10]
 1115 01dc E389     		ldrh	r3, [r4, #14]
 1116 01de B9F80220 		ldrh	r2, [r9, #2]
 1117 01e2 3518     		adds	r5, r6, r0
 1118 01e4 CE18     		adds	r6, r1, r3
 1119 01e6 28B2     		sxth	r0, r5
 1120 01e8 731E     		subs	r3, r6, #1
 1121 01ea 0092     		str	r2, [sp, #0]
 1122 01ec 09B2     		sxth	r1, r1
 1123 01ee 0246     		mov	r2, r0
 1124 01f0 1BB2     		sxth	r3, r3
 1125 01f2 FFF7FEFF 		bl	gdispDrawLine
 1126              	.LVL88:
 1127 01f6 85E7     		b	.L102
 1128              	.L115:
 1129              		.loc 1 341 0
 1130 01f8 1589     		ldrh	r5, [r2, #8]
 1131 01fa B4F90A10 		ldrsh	r1, [r4, #10]
 1132 01fe B4F90800 		ldrsh	r0, [r4, #8]
 1133 0202 0095     		str	r5, [sp, #0]
ARM GAS  /tmp/ccQAwNH3.s 			page 21


 1134 0204 1A46     		mov	r2, r3
 1135 0206 0FFA8EF3 		sxth	r3, lr
 1136 020a FFF7FEFF 		bl	gdispFillArea
 1137              	.LVL89:
 1138 020e E589     		ldrh	r5, [r4, #14]
 1139 0210 A18D     		ldrh	r1, [r4, #44]
 1140 0212 B4F90C30 		ldrsh	r3, [r4, #12]
 1141 0216 2EB2     		sxth	r6, r5
 1142 0218 16E7     		b	.L96
 1143              	.L118:
 1144 021a 00BF     		.align	2
 1145              	.L117:
 1146 021c 00000000 		.word	.LANCHOR0
 1147              		.cfi_endproc
 1148              	.LFE126:
 1149              		.size	gwinSliderDraw_Image, .-gwinSliderDraw_Image
 1150              		.section	.rodata.str1.4,"aMS",%progbits,1
 1151              		.align	2
 1152              	.LC0:
 1153 0000 536C6964 		.ascii	"Slider\000"
 1153      657200
 1154 0007 00       		.section	.rodata.sliderVMT,"a",%progbits
 1155              		.align	2
 1156              		.set	.LANCHOR0,. + 0
 1157              		.type	sliderVMT, %object
 1158              		.size	sliderVMT, 36
 1159              	sliderVMT:
 1160 0000 00000000 		.word	.LC0
 1161 0004 3C000000 		.word	60
 1162 0008 00000000 		.word	_gwidgetDestroy
 1163 000c 00000000 		.word	_gwidgetRedraw
 1164 0010 00000000 		.word	0
 1165 0014 00000000 		.word	gwinSliderDraw_Std
 1166 0018 00000000 		.word	0
 1167 001c 00000000 		.word	MouseUp
 1168 0020 00000000 		.word	MouseMove
 1169              		.text
 1170              	.Letext0:
 1171              		.file 2 "/usr/bin/../lib/gcc/arm-none-eabi/4.7.4/include/stddef.h"
 1172              		.file 3 "/usr/bin/../lib/gcc/arm-none-eabi/4.7.4/../../../../arm-none-eabi/include/stdint.h"
 1173              		.file 4 "../../os/ports/GCC/ARMCMx/chtypes.h"
 1174              		.file 5 "../../os/kernel/include/chlists.h"
 1175              		.file 6 "../../os/kernel/include/chthreads.h"
 1176              		.file 7 "../../os/ports/GCC/ARMCMx/chcore_v7m.h"
 1177              		.file 8 "../../os/kernel/include/chsem.h"
 1178              		.file 9 "../../os/kernel/include/chmtx.h"
 1179              		.file 10 "../../ext/ugfx/include/gos/chibios.h"
 1180              		.file 11 "../../ext/ugfx/include/gqueue/gqueue.h"
 1181              		.file 12 "../../ext/ugfx/include/gevent/gevent.h"
 1182              		.file 13 "../../ext/ugfx/include/gdisp/gdisp.h"
 1183              		.file 14 "../../ext/ugfx/include/gdisp/image.h"
 1184              		.file 15 "../../ext/ugfx/include/gwin/gwin.h"
 1185              		.file 16 "../../ext/ugfx/include/gwin/class_gwin.h"
 1186              		.file 17 "../../ext/ugfx/include/gwin/gwidget.h"
 1187              		.file 18 "../../ext/ugfx/include/gwin/slider.h"
 1188              		.file 19 "../../os/ports/common/ARMCMx/CMSIS/include/core_cm4.h"