ARM GAS  /tmp/cc7j7qCO.s 			page 1


   1              		.syntax unified
   2              		.cpu cortex-m4
   3              		.eabi_attribute 27, 3
   4              		.eabi_attribute 28, 1
   5              		.fpu fpv4-sp-d16
   6              		.eabi_attribute 20, 1
   7              		.eabi_attribute 21, 1
   8              		.eabi_attribute 23, 3
   9              		.eabi_attribute 24, 1
  10              		.eabi_attribute 25, 1
  11              		.eabi_attribute 26, 1
  12              		.eabi_attribute 30, 2
  13              		.eabi_attribute 34, 1
  14              		.eabi_attribute 18, 4
  15              		.thumb
  16              		.file	"uart_lld.c"
  17              		.text
  18              	.Ltext0:
  19              		.cfi_sections	.debug_frame
  20              		.section	.text.set_rx_idle_loop,"ax",%progbits
  21              		.align	2
  22              		.p2align 4,,15
  23              		.thumb
  24              		.thumb_func
  25              		.type	set_rx_idle_loop, %function
  26              	set_rx_idle_loop:
  27              	.LFB119:
  28              		.file 1 "../../os/hal/platforms/STM32/USARTv1/uart_lld.c"
  29              		.loc 1 160 0
  30              		.cfi_startproc
  31              		@ args = 0, pretend = 0, frame = 0
  32              		@ frame_needed = 0, uses_anonymous_args = 0
  33              		@ link register save eliminated.
  34              	.LVL0:
  35              		.loc 1 165 0
  36 0000 4368     		ldr	r3, [r0, #4]
  37              		.loc 1 160 0
  38 0002 10B4     		push	{r4}
  39              	.LCFI0:
  40              		.cfi_def_cfa_offset 4
  41              		.cfi_offset 4, -4
  42              		.loc 1 169 0
  43 0004 0469     		ldr	r4, [r0, #16]
  44              		.loc 1 165 0
  45 0006 DA68     		ldr	r2, [r3, #12]
  46              		.loc 1 169 0
  47 0008 2368     		ldr	r3, [r4, #0]
  48 000a 00F11801 		add	r1, r0, #24
  49              		.loc 1 171 0
  50 000e C068     		ldr	r0, [r0, #12]
  51              	.LVL1:
  52              		.loc 1 169 0
  53 0010 D960     		str	r1, [r3, #12]
  54              		.loc 1 166 0
  55 0012 002A     		cmp	r2, #0
  56 0014 14BF     		ite	ne
  57 0016 4FF48872 		movne	r2, #272
ARM GAS  /tmp/cc7j7qCO.s 			page 2


  58 001a 4FF48072 		moveq	r2, #256
  59              	.LVL2:
  60              		.loc 1 171 0
  61 001e 0243     		orrs	r2, r2, r0
  62              	.LVL3:
  63              		.loc 1 170 0
  64 0020 0121     		movs	r1, #1
  65              	.LVL4:
  66 0022 5960     		str	r1, [r3, #4]
  67              		.loc 1 171 0
  68 0024 1A60     		str	r2, [r3, #0]
  69              		.loc 1 172 0
  70 0026 1868     		ldr	r0, [r3, #0]
  71 0028 0843     		orrs	r0, r0, r1
  72 002a 1860     		str	r0, [r3, #0]
  73              		.loc 1 173 0
  74 002c 10BC     		pop	{r4}
  75 002e 7047     		bx	lr
  76              		.cfi_endproc
  77              	.LFE119:
  78              		.size	set_rx_idle_loop, .-set_rx_idle_loop
  79              		.section	.text.usart_stop,"ax",%progbits
  80              		.align	2
  81              		.p2align 4,,15
  82              		.thumb
  83              		.thumb_func
  84              		.type	usart_stop, %function
  85              	usart_stop:
  86              	.LFB120:
  87              		.loc 1 181 0
  88              		.cfi_startproc
  89              		@ args = 0, pretend = 0, frame = 0
  90              		@ frame_needed = 0, uses_anonymous_args = 0
  91              		@ link register save eliminated.
  92              	.LVL5:
  93 0000 30B4     		push	{r4, r5}
  94              	.LCFI1:
  95              		.cfi_def_cfa_offset 8
  96              		.cfi_offset 4, -8
  97              		.cfi_offset 5, -4
  98              		.loc 1 184 0
  99 0002 0469     		ldr	r4, [r0, #16]
 100 0004 2268     		ldr	r2, [r4, #0]
 101 0006 1368     		ldr	r3, [r2, #0]
 102 0008 23F01F01 		bic	r1, r3, #31
 103 000c 1160     		str	r1, [r2, #0]
 104              	.L5:
 105              		.loc 1 184 0 is_stmt 0 discriminator 1
 106 000e 1568     		ldr	r5, [r2, #0]
 107 0010 EB07     		lsls	r3, r5, #31
 108 0012 FCD4     		bmi	.L5
 109              		.loc 1 184 0 discriminator 2
 110 0014 257A     		ldrb	r5, [r4, #8]	@ zero_extendqisi2
 111              		.loc 1 185 0 is_stmt 1 discriminator 2
 112 0016 4169     		ldr	r1, [r0, #20]
 113              		.loc 1 184 0 discriminator 2
 114 0018 6368     		ldr	r3, [r4, #4]
ARM GAS  /tmp/cc7j7qCO.s 			page 3


 115              		.loc 1 185 0 discriminator 2
 116 001a 0A68     		ldr	r2, [r1, #0]
 117              		.loc 1 184 0 discriminator 2
 118 001c 3D24     		movs	r4, #61
 119 001e 04FA05F4 		lsl	r4, r4, r5
 120 0022 1C60     		str	r4, [r3, #0]
 121              		.loc 1 185 0 discriminator 2
 122 0024 1368     		ldr	r3, [r2, #0]
 123 0026 23F01F04 		bic	r4, r3, #31
 124 002a 1460     		str	r4, [r2, #0]
 125              	.L6:
 126              		.loc 1 185 0 is_stmt 0 discriminator 1
 127 002c 1368     		ldr	r3, [r2, #0]
 128 002e 13F00103 		ands	r3, r3, #1
 129 0032 FBD1     		bne	.L6
 130              		.loc 1 185 0 discriminator 2
 131 0034 0C7A     		ldrb	r4, [r1, #8]	@ zero_extendqisi2
 132              		.loc 1 188 0 is_stmt 1 discriminator 2
 133 0036 8268     		ldr	r2, [r0, #8]
 134              		.loc 1 185 0 discriminator 2
 135 0038 4968     		ldr	r1, [r1, #4]
 136 003a 3D20     		movs	r0, #61
 137              	.LVL6:
 138 003c 00FA04F0 		lsl	r0, r0, r4
 139 0040 0860     		str	r0, [r1, #0]
 140              		.loc 1 188 0 discriminator 2
 141 0042 9381     		strh	r3, [r2, #12]	@ movhi
 142              		.loc 1 189 0 discriminator 2
 143 0044 1382     		strh	r3, [r2, #16]	@ movhi
 144              		.loc 1 190 0 discriminator 2
 145 0046 9382     		strh	r3, [r2, #20]	@ movhi
 146              		.loc 1 191 0 discriminator 2
 147 0048 30BC     		pop	{r4, r5}
 148 004a 7047     		bx	lr
 149              		.cfi_endproc
 150              	.LFE120:
 151              		.size	usart_stop, .-usart_stop
 152 004c AFF30080 		.section	.text.uart_lld_serve_tx_end_irq,"ax",%progbits
 153              		.align	2
 154              		.p2align 4,,15
 155              		.thumb
 156              		.thumb_func
 157              		.type	uart_lld_serve_tx_end_irq, %function
 158              	uart_lld_serve_tx_end_irq:
 159              	.LFB123:
 160              		.loc 1 283 0
 161              		.cfi_startproc
 162              		@ args = 0, pretend = 0, frame = 0
 163              		@ frame_needed = 0, uses_anonymous_args = 0
 164              	.LVL7:
 165              		.loc 1 287 0
 166 0000 11F00C0F 		tst	r1, #12
 167              		.loc 1 283 0
 168 0004 10B5     		push	{r4, lr}
 169              	.LCFI2:
 170              		.cfi_def_cfa_offset 8
 171              		.cfi_offset 4, -8
ARM GAS  /tmp/cc7j7qCO.s 			page 4


 172              		.cfi_offset 14, -4
 173              		.loc 1 283 0
 174 0006 0446     		mov	r4, r0
 175              		.loc 1 287 0
 176 0008 1CD1     		bne	.L23
 177              	.LVL8:
 178              	.L11:
 179              		.loc 1 294 0
 180 000a 6169     		ldr	r1, [r4, #20]
 181 000c 0A68     		ldr	r2, [r1, #0]
 182 000e 1368     		ldr	r3, [r2, #0]
 183 0010 23F01F00 		bic	r0, r3, #31
 184 0014 1060     		str	r0, [r2, #0]
 185              	.L12:
 186              		.loc 1 294 0 is_stmt 0 discriminator 1
 187 0016 1368     		ldr	r3, [r2, #0]
 188 0018 D807     		lsls	r0, r3, #31
 189 001a FCD4     		bmi	.L12
 190              		.loc 1 298 0 is_stmt 1 discriminator 2
 191 001c 6368     		ldr	r3, [r4, #4]
 192              		.loc 1 294 0 discriminator 2
 193 001e 087A     		ldrb	r0, [r1, #8]	@ zero_extendqisi2
 194 0020 4A68     		ldr	r2, [r1, #4]
 195              		.loc 1 298 0 discriminator 2
 196 0022 1B68     		ldr	r3, [r3, #0]
 197              		.loc 1 294 0 discriminator 2
 198 0024 3D21     		movs	r1, #61
 199 0026 01FA00F1 		lsl	r1, r1, r0
 200              		.loc 1 297 0 discriminator 2
 201 002a 0220     		movs	r0, #2
 202              		.loc 1 294 0 discriminator 2
 203 002c 1160     		str	r1, [r2, #0]
 204              		.loc 1 297 0 discriminator 2
 205 002e 6070     		strb	r0, [r4, #1]
 206              		.loc 1 298 0 discriminator 2
 207 0030 2BB1     		cbz	r3, .L15
 208              		.loc 1 299 0
 209 0032 2046     		mov	r0, r4
 210 0034 9847     		blx	r3
 211              	.LVL9:
 212              		.loc 1 303 0
 213 0036 6278     		ldrb	r2, [r4, #1]	@ zero_extendqisi2
 214 0038 022A     		cmp	r2, #2
 215 003a 00D0     		beq	.L15
 216 003c 10BD     		pop	{r4, pc}
 217              	.L15:
 218              		.loc 1 304 0
 219 003e 0023     		movs	r3, #0
 220 0040 6370     		strb	r3, [r4, #1]
 221 0042 10BD     		pop	{r4, pc}
 222              	.LVL10:
 223              	.L23:
 224              		.loc 1 288 0
 225 0044 FFF7FEFF 		bl	port_halt
 226              	.LVL11:
 227 0048 DFE7     		b	.L11
 228              		.cfi_endproc
ARM GAS  /tmp/cc7j7qCO.s 			page 5


 229              	.LFE123:
 230              		.size	uart_lld_serve_tx_end_irq, .-uart_lld_serve_tx_end_irq
 231 004a 00BFAFF3 		.section	.text.uart_lld_serve_rx_end_irq,"ax",%progbits
 231      0080
 232              		.align	2
 233              		.p2align 4,,15
 234              		.thumb
 235              		.thumb_func
 236              		.type	uart_lld_serve_rx_end_irq, %function
 237              	uart_lld_serve_rx_end_irq:
 238              	.LFB122:
 239              		.loc 1 243 0
 240              		.cfi_startproc
 241              		@ args = 0, pretend = 0, frame = 0
 242              		@ frame_needed = 0, uses_anonymous_args = 0
 243              	.LVL12:
 244              		.loc 1 247 0
 245 0000 11F00C0F 		tst	r1, #12
 246              		.loc 1 243 0
 247 0004 10B5     		push	{r4, lr}
 248              	.LCFI3:
 249              		.cfi_def_cfa_offset 8
 250              		.cfi_offset 4, -8
 251              		.cfi_offset 14, -4
 252              		.loc 1 243 0
 253 0006 0446     		mov	r4, r0
 254              		.loc 1 247 0
 255 0008 23D1     		bne	.L40
 256              	.LVL13:
 257              	.L25:
 258              		.loc 1 254 0
 259 000a A378     		ldrb	r3, [r4, #2]	@ zero_extendqisi2
 260 000c 3BB9     		cbnz	r3, .L26
 261              		.loc 1 257 0
 262 000e 6168     		ldr	r1, [r4, #4]
 263 0010 CA68     		ldr	r2, [r1, #12]
 264 0012 EAB1     		cbz	r2, .L24
 265              		.loc 1 258 0
 266 0014 238B     		ldrh	r3, [r4, #24]
 267 0016 2046     		mov	r0, r4
 268 0018 99B2     		uxth	r1, r3
 269 001a 9047     		blx	r2
 270              	.LVL14:
 271 001c 10BD     		pop	{r4, pc}
 272              	.L26:
 273              	.LVL15:
 274              	.LBB4:
 275              	.LBB5:
 276              		.loc 1 263 0
 277 001e 2169     		ldr	r1, [r4, #16]
 278 0020 0A68     		ldr	r2, [r1, #0]
 279 0022 1068     		ldr	r0, [r2, #0]
 280 0024 20F01F03 		bic	r3, r0, #31
 281 0028 1360     		str	r3, [r2, #0]
 282              	.L29:
 283 002a 1068     		ldr	r0, [r2, #0]
 284 002c C307     		lsls	r3, r0, #31
ARM GAS  /tmp/cc7j7qCO.s 			page 6


 285 002e FCD4     		bmi	.L29
 286              		.loc 1 265 0
 287 0030 6368     		ldr	r3, [r4, #4]
 288              		.loc 1 263 0
 289 0032 087A     		ldrb	r0, [r1, #8]	@ zero_extendqisi2
 290 0034 4A68     		ldr	r2, [r1, #4]
 291              		.loc 1 265 0
 292 0036 9B68     		ldr	r3, [r3, #8]
 293              		.loc 1 263 0
 294 0038 3D21     		movs	r1, #61
 295 003a 01FA00F1 		lsl	r1, r1, r0
 296              		.loc 1 264 0
 297 003e 0220     		movs	r0, #2
 298              		.loc 1 263 0
 299 0040 1160     		str	r1, [r2, #0]
 300              		.loc 1 264 0
 301 0042 A070     		strb	r0, [r4, #2]
 302              		.loc 1 265 0
 303 0044 43B1     		cbz	r3, .L31
 304              		.loc 1 266 0
 305 0046 2046     		mov	r0, r4
 306 0048 9847     		blx	r3
 307              	.LVL16:
 308              		.loc 1 270 0
 309 004a A278     		ldrb	r2, [r4, #2]	@ zero_extendqisi2
 310 004c 022A     		cmp	r2, #2
 311 004e 03D0     		beq	.L31
 312              	.LVL17:
 313              	.L24:
 314 0050 10BD     		pop	{r4, pc}
 315              	.LVL18:
 316              	.L40:
 317              	.LBE5:
 318              	.LBE4:
 319              		.loc 1 248 0
 320 0052 FFF7FEFF 		bl	port_halt
 321              	.LVL19:
 322 0056 D8E7     		b	.L25
 323              	.LVL20:
 324              	.L31:
 325              	.LBB8:
 326              	.LBB6:
 327              		.loc 1 271 0
 328 0058 0023     		movs	r3, #0
 329              		.loc 1 272 0
 330 005a 2046     		mov	r0, r4
 331              		.loc 1 271 0
 332 005c A370     		strb	r3, [r4, #2]
 333              	.LBE6:
 334              	.LBE8:
 335              		.loc 1 275 0
 336 005e BDE81040 		pop	{r4, lr}
 337              	.LBB9:
 338              	.LBB7:
 339              		.loc 1 272 0
 340 0062 FFF7FEBF 		b	set_rx_idle_loop
 341              	.LVL21:
ARM GAS  /tmp/cc7j7qCO.s 			page 7


 342              	.LBE7:
 343              	.LBE9:
 344              		.cfi_endproc
 345              	.LFE122:
 346              		.size	uart_lld_serve_rx_end_irq, .-uart_lld_serve_rx_end_irq
 347 0066 00BFAFF3 		.section	.text.VectorDC,"ax",%progbits
 347      0080AFF3 
 347      0080
 348              		.align	2
 349              		.p2align 4,,15
 350              		.global	VectorDC
 351              		.thumb
 352              		.thumb_func
 353              		.type	VectorDC, %function
 354              	VectorDC:
 355              	.LFB125:
 356              		.loc 1 384 0
 357              		.cfi_startproc
 358              		@ args = 0, pretend = 0, frame = 0
 359              		@ frame_needed = 0, uses_anonymous_args = 0
 360              	.LVL22:
 361 0000 70B5     		push	{r4, r5, r6, lr}
 362              	.LCFI4:
 363              		.cfi_def_cfa_offset 16
 364              		.cfi_offset 4, -16
 365              		.cfi_offset 5, -12
 366              		.cfi_offset 6, -8
 367              		.cfi_offset 14, -4
 368              	.LBB14:
 369              	.LBB15:
 370              		.loc 1 314 0
 371 0002 1F4E     		ldr	r6, .L73
 372 0004 B568     		ldr	r5, [r6, #8]
 373              	.LVL23:
 374              		.loc 1 316 0
 375 0006 2C88     		ldrh	r4, [r5, #0]
 376              		.loc 1 317 0
 377 0008 AB88     		ldrh	r3, [r5, #4]
 378              		.loc 1 316 0
 379 000a A4B2     		uxth	r4, r4
 380              	.LVL24:
 381              		.loc 1 318 0
 382 000c 40F20F13 		movw	r3, #271
 383 0010 2340     		ands	r3, r3, r4
 384 0012 13B3     		cbz	r3, .L43
 385              		.loc 1 321 0
 386 0014 7068     		ldr	r0, [r6, #4]
 387 0016 0369     		ldr	r3, [r0, #16]
 388              		.loc 1 320 0
 389 0018 4FF6FF62 		movw	r2, #65279
 390 001c 2A80     		strh	r2, [r5, #0]	@ movhi
 391              		.loc 1 321 0
 392 001e E3B1     		cbz	r3, .L43
 393              	.LVL25:
 394              	.LBB16:
 395              	.LBB17:
 396              		.loc 1 142 0
ARM GAS  /tmp/cc7j7qCO.s 			page 8


 397 0020 04F00801 		and	r1, r4, #8
 398 0024 88B2     		uxth	r0, r1
 399              		.loc 1 143 0
 400 0026 0028     		cmp	r0, #0
 401 0028 14BF     		ite	ne
 402 002a 1021     		movne	r1, #16
 403 002c 0021     		moveq	r1, #0
 404              	.LVL26:
 405              		.loc 1 144 0
 406 002e E207     		lsls	r2, r4, #31
 407              		.loc 1 146 0
 408 0030 04F00202 		and	r2, r4, #2
 409 0034 90B2     		uxth	r0, r2
 410              		.loc 1 145 0
 411 0036 48BF     		it	mi
 412 0038 41F00401 		orrmi	r1, r1, #4
 413              	.LVL27:
 414              		.loc 1 146 0
 415 003c 08B1     		cbz	r0, .L47
 416              		.loc 1 147 0
 417 003e 41F00801 		orr	r1, r1, #8
 418              	.LVL28:
 419              	.L47:
 420              		.loc 1 148 0
 421 0042 04F00402 		and	r2, r4, #4
 422 0046 90B2     		uxth	r0, r2
 423 0048 B8B9     		cbnz	r0, .L72
 424              	.L48:
 425              		.loc 1 150 0
 426 004a 04F48072 		and	r2, r4, #256
 427 004e 90B2     		uxth	r0, r2
 428 0050 08B1     		cbz	r0, .L49
 429              		.loc 1 151 0
 430 0052 41F04001 		orr	r1, r1, #64
 431              	.LVL29:
 432              	.L49:
 433              	.LBE17:
 434              	.LBE16:
 435              		.loc 1 322 0
 436 0056 0A48     		ldr	r0, .L73
 437 0058 9847     		blx	r3
 438              	.LVL30:
 439              	.L43:
 440              		.loc 1 324 0
 441 005a 04F04004 		and	r4, r4, #64
 442              	.LVL31:
 443 005e A4B2     		uxth	r4, r4
 444 0060 3CB1     		cbz	r4, .L51
 445              		.loc 1 328 0
 446 0062 7368     		ldr	r3, [r6, #4]
 447 0064 5968     		ldr	r1, [r3, #4]
 448              		.loc 1 325 0
 449 0066 4FF6BF72 		movw	r2, #65471
 450 006a 2A80     		strh	r2, [r5, #0]	@ movhi
 451              		.loc 1 328 0
 452 006c 09B1     		cbz	r1, .L51
 453              		.loc 1 329 0
ARM GAS  /tmp/cc7j7qCO.s 			page 9


 454 006e 0448     		ldr	r0, .L73
 455 0070 8847     		blx	r1
 456              	.LVL32:
 457              	.L51:
 458              	.LBE15:
 459              	.LBE14:
 460              		.loc 1 391 0
 461 0072 BDE87040 		pop	{r4, r5, r6, lr}
 462              		.loc 1 390 0
 463 0076 FFF7FEBF 		b	_port_irq_epilogue
 464              	.LVL33:
 465              	.L72:
 466              	.LBB21:
 467              	.LBB20:
 468              	.LBB19:
 469              	.LBB18:
 470              		.loc 1 149 0
 471 007a 41F02001 		orr	r1, r1, #32
 472              	.LVL34:
 473 007e E4E7     		b	.L48
 474              	.L74:
 475              		.align	2
 476              	.L73:
 477 0080 00000000 		.word	.LANCHOR0
 478              	.LBE18:
 479              	.LBE19:
 480              	.LBE20:
 481              	.LBE21:
 482              		.cfi_endproc
 483              	.LFE125:
 484              		.size	VectorDC, .-VectorDC
 485 0084 AFF30080 		.section	.text.uart_lld_init,"ax",%progbits
 485      AFF30080 
 485      AFF30080 
 486              		.align	2
 487              		.p2align 4,,15
 488              		.global	uart_lld_init
 489              		.thumb
 490              		.thumb_func
 491              		.type	uart_lld_init, %function
 492              	uart_lld_init:
 493              	.LFB126:
 494              		.loc 1 460 0
 495              		.cfi_startproc
 496              		@ args = 0, pretend = 0, frame = 0
 497              		@ frame_needed = 0, uses_anonymous_args = 0
 498 0000 10B5     		push	{r4, lr}
 499              	.LCFI5:
 500              		.cfi_def_cfa_offset 8
 501              		.cfi_offset 4, -8
 502              		.cfi_offset 14, -4
 503              		.loc 1 479 0
 504 0002 40F20004 		movw	r4, #:lower16:.LANCHOR0
 505 0006 C0F20004 		movt	r4, #:upper16:.LANCHOR0
 506 000a 2046     		mov	r0, r4
 507 000c FFF7FEFF 		bl	uartObjectInit
 508              	.LVL35:
ARM GAS  /tmp/cc7j7qCO.s 			page 10


 509              		.loc 1 482 0
 510 0010 064B     		ldr	r3, .L76
 511              		.loc 1 480 0
 512 0012 4FF49042 		mov	r2, #18432
 513 0016 C4F20002 		movt	r2, 16384
 514              		.loc 1 483 0
 515 001a 03F11801 		add	r1, r3, #24
 516              		.loc 1 481 0
 517 001e 0620     		movs	r0, #6
 518              		.loc 1 480 0
 519 0020 A260     		str	r2, [r4, #8]
 520              		.loc 1 481 0
 521 0022 E060     		str	r0, [r4, #12]
 522              		.loc 1 482 0
 523 0024 2361     		str	r3, [r4, #16]
 524              		.loc 1 483 0
 525 0026 6161     		str	r1, [r4, #20]
 526 0028 10BD     		pop	{r4, pc}
 527              	.L77:
 528 002a 00BF     		.align	2
 529              	.L76:
 530 002c 0C000000 		.word	_stm32_dma_streams+12
 531              		.cfi_endproc
 532              	.LFE126:
 533              		.size	uart_lld_init, .-uart_lld_init
 534              		.section	.text.uart_lld_start,"ax",%progbits
 535              		.align	2
 536              		.p2align 4,,15
 537              		.global	uart_lld_start
 538              		.thumb
 539              		.thumb_func
 540              		.type	uart_lld_start, %function
 541              	uart_lld_start:
 542              	.LFB127:
 543              		.loc 1 539 0
 544              		.cfi_startproc
 545              		@ args = 0, pretend = 0, frame = 0
 546              		@ frame_needed = 0, uses_anonymous_args = 0
 547              	.LVL36:
 548 0000 F8B5     		push	{r3, r4, r5, r6, r7, lr}
 549              	.LCFI6:
 550              		.cfi_def_cfa_offset 24
 551              		.cfi_offset 3, -24
 552              		.cfi_offset 4, -20
 553              		.cfi_offset 5, -16
 554              		.cfi_offset 6, -12
 555              		.cfi_offset 7, -8
 556              		.cfi_offset 14, -4
 557              		.loc 1 549 0
 558 0002 0378     		ldrb	r3, [r0, #0]	@ zero_extendqisi2
 559 0004 012B     		cmp	r3, #1
 560              		.loc 1 539 0
 561 0006 0446     		mov	r4, r0
 562              		.loc 1 549 0
 563 0008 3BD0     		beq	.L88
 564 000a 8568     		ldr	r5, [r0, #8]
 565              	.LVL37:
ARM GAS  /tmp/cc7j7qCO.s 			page 11


 566              	.L79:
 567              		.loc 1 685 0
 568 000c 0026     		movs	r6, #0
 569              	.LBB25:
 570              	.LBB26:
 571              		.loc 1 204 0
 572 000e 2046     		mov	r0, r4
 573              	.LBE26:
 574              	.LBE25:
 575              		.loc 1 685 0
 576 0010 A670     		strb	r6, [r4, #2]
 577              		.loc 1 686 0
 578 0012 6670     		strb	r6, [r4, #1]
 579              	.LVL38:
 580              	.LBB30:
 581              	.LBB27:
 582              		.loc 1 204 0
 583 0014 FFF7FEFF 		bl	usart_stop
 584              	.LVL39:
 585              		.loc 1 208 0
 586 0018 4FF48057 		mov	r7, #4096
 587 001c A068     		ldr	r0, [r4, #8]
 588 001e C4F20107 		movt	r7, 16385
 589 0022 B842     		cmp	r0, r7
 590 0024 42D0     		beq	.L82
 591 0026 4FF4A051 		mov	r1, #5120
 592 002a C4F20101 		movt	r1, 16385
 593 002e 8842     		cmp	r0, r1
 594 0030 3CD0     		beq	.L82
 595              		.loc 1 214 0
 596 0032 6368     		ldr	r3, [r4, #4]
 597 0034 4DF68062 		movw	r2, #56960
 598 0038 5E69     		ldr	r6, [r3, #20]
 599 003a C0F28022 		movt	r2, 640
 600 003e B2FBF6F7 		udiv	r7, r2, r6
 601 0042 B8B2     		uxth	r0, r7
 602 0044 2881     		strh	r0, [r5, #8]	@ movhi
 603              	.L84:
 604              		.loc 1 226 0
 605 0046 5F68     		ldr	r7, [r3, #4]
 606              		.loc 1 231 0
 607 0048 188B     		ldrh	r0, [r3, #24]
 608              		.loc 1 223 0
 609 004a 598B     		ldrh	r1, [r3, #26]
 610              		.loc 1 224 0
 611 004c 9A8B     		ldrh	r2, [r3, #28]
 612              		.loc 1 217 0
 613 004e 2B88     		ldrh	r3, [r5, #0]
 614              		.loc 1 218 0
 615 0050 AB88     		ldrh	r3, [r5, #4]
 616              		.loc 1 227 0
 617 0052 42F20C16 		movw	r6, #8460
 618 0056 42F24C13 		movw	r3, #8524
 619 005a 002F     		cmp	r7, #0
 620 005c 08BF     		it	eq
 621 005e 3346     		moveq	r3, r6
 622              	.LVL40:
ARM GAS  /tmp/cc7j7qCO.s 			page 12


 623              		.loc 1 231 0
 624 0060 0343     		orrs	r3, r3, r0
 625              	.LVL41:
 626              		.loc 1 223 0
 627 0062 41F04001 		orr	r1, r1, #64
 628              		.loc 1 219 0
 629 0066 0020     		movs	r0, #0
 630              		.loc 1 224 0
 631 0068 42F0C102 		orr	r2, r2, #193
 632              		.loc 1 219 0
 633 006c 2880     		strh	r0, [r5, #0]	@ movhi
 634              		.loc 1 223 0
 635 006e 89B2     		uxth	r1, r1
 636              		.loc 1 224 0
 637 0070 92B2     		uxth	r2, r2
 638              		.loc 1 234 0
 639 0072 2046     		mov	r0, r4
 640              		.loc 1 223 0
 641 0074 2982     		strh	r1, [r5, #16]	@ movhi
 642              		.loc 1 224 0
 643 0076 AA82     		strh	r2, [r5, #20]	@ movhi
 644              		.loc 1 231 0
 645 0078 AB81     		strh	r3, [r5, #12]	@ movhi
 646              	.LBE27:
 647              	.LBE30:
 648              		.loc 1 688 0
 649 007a BDE8F840 		pop	{r3, r4, r5, r6, r7, lr}
 650              	.LBB31:
 651              	.LBB28:
 652              		.loc 1 234 0
 653 007e FFF7FEBF 		b	set_rx_idle_loop
 654              	.LVL42:
 655              	.L88:
 656              	.LBE28:
 657              	.LBE31:
 658              		.loc 1 593 0
 659 0082 2148     		ldr	r0, .L91
 660              	.LVL43:
 661 0084 8442     		cmp	r4, r0
 662 0086 21D0     		beq	.L89
 663              	.L80:
 664              		.loc 1 678 0
 665 0088 6368     		ldr	r3, [r4, #4]
 666 008a 188B     		ldrh	r0, [r3, #24]
 667 008c 00F4A051 		and	r1, r0, #5120
 668 0090 B1F5805F 		cmp	r1, #4096
 669 0094 15D0     		beq	.L90
 670              	.L81:
 671              		.loc 1 680 0
 672 0096 2669     		ldr	r6, [r4, #16]
 673              		.loc 1 681 0
 674 0098 6769     		ldr	r7, [r4, #20]
 675              		.loc 1 680 0
 676 009a A568     		ldr	r5, [r4, #8]
 677 009c 3068     		ldr	r0, [r6, #0]
 678              		.loc 1 681 0
 679 009e 3968     		ldr	r1, [r7, #0]
ARM GAS  /tmp/cc7j7qCO.s 			page 13


 680              		.loc 1 680 0
 681 00a0 2B1D     		adds	r3, r5, #4
 682              		.loc 1 682 0
 683 00a2 0022     		movs	r2, #0
 684              		.loc 1 680 0
 685 00a4 8360     		str	r3, [r0, #8]
 686              		.loc 1 681 0
 687 00a6 8B60     		str	r3, [r1, #8]
 688              		.loc 1 682 0
 689 00a8 2283     		strh	r2, [r4, #24]	@ movhi
 690 00aa AFE7     		b	.L79
 691              	.LVL44:
 692              	.L82:
 693              	.LBB32:
 694              	.LBB29:
 695              		.loc 1 212 0
 696 00ac 6368     		ldr	r3, [r4, #4]
 697 00ae 4FF43D42 		mov	r2, #48384
 698 00b2 5969     		ldr	r1, [r3, #20]
 699 00b4 C0F20152 		movt	r2, 1281
 700 00b8 B2FBF1F6 		udiv	r6, r2, r1
 701 00bc B7B2     		uxth	r7, r6
 702 00be 2F81     		strh	r7, [r5, #8]	@ movhi
 703 00c0 C1E7     		b	.L84
 704              	.LVL45:
 705              	.L90:
 706              	.LBE29:
 707              	.LBE32:
 708              		.loc 1 679 0
 709 00c2 E268     		ldr	r2, [r4, #12]
 710 00c4 42F42055 		orr	r5, r2, #10240
 711 00c8 E560     		str	r5, [r4, #12]
 712 00ca E4E7     		b	.L81
 713              	.L89:
 714              	.LBB33:
 715              		.loc 1 595 0
 716 00cc 0C21     		movs	r1, #12
 717 00ce 0F4A     		ldr	r2, .L91+4
 718 00d0 2069     		ldr	r0, [r4, #16]
 719 00d2 2346     		mov	r3, r4
 720 00d4 FFF7FEFF 		bl	dmaStreamAllocate
 721              	.LVL46:
 722              		.loc 1 600 0
 723 00d8 0C21     		movs	r1, #12
 724 00da 0D4A     		ldr	r2, .L91+8
 725 00dc 6069     		ldr	r0, [r4, #20]
 726 00de 2346     		mov	r3, r4
 727 00e0 FFF7FEFF 		bl	dmaStreamAllocate
 728              	.LVL47:
 729              		.loc 1 605 0
 730 00e4 4FF46051 		mov	r1, #14336
 731 00e8 C4F20201 		movt	r1, 16386
 732              		.loc 1 606 0
 733 00ec 2720     		movs	r0, #39
 734              		.loc 1 605 0
 735 00ee 0A6C     		ldr	r2, [r1, #64]
 736 00f0 42F48025 		orr	r5, r2, #262144
ARM GAS  /tmp/cc7j7qCO.s 			page 14


 737 00f4 0D64     		str	r5, [r1, #64]
 738              		.loc 1 606 0
 739 00f6 C021     		movs	r1, #192
 740 00f8 FFF7FEFF 		bl	nvicEnableVector
 741              	.LVL48:
 742              		.loc 1 608 0
 743 00fc E668     		ldr	r6, [r4, #12]
 744 00fe 46F00067 		orr	r7, r6, #134217728
 745 0102 E760     		str	r7, [r4, #12]
 746 0104 C0E7     		b	.L80
 747              	.L92:
 748 0106 00BF     		.align	2
 749              	.L91:
 750 0108 00000000 		.word	.LANCHOR0
 751 010c 00000000 		.word	uart_lld_serve_rx_end_irq
 752 0110 00000000 		.word	uart_lld_serve_tx_end_irq
 753              	.LBE33:
 754              		.cfi_endproc
 755              	.LFE127:
 756              		.size	uart_lld_start, .-uart_lld_start
 757 0114 AFF30080 		.section	.text.uart_lld_stop,"ax",%progbits
 757      AFF30080 
 757      AFF30080 
 758              		.align	2
 759              		.p2align 4,,15
 760              		.global	uart_lld_stop
 761              		.thumb
 762              		.thumb_func
 763              		.type	uart_lld_stop, %function
 764              	uart_lld_stop:
 765              	.LFB128:
 766              		.loc 1 697 0
 767              		.cfi_startproc
 768              		@ args = 0, pretend = 0, frame = 0
 769              		@ frame_needed = 0, uses_anonymous_args = 0
 770              	.LVL49:
 771              		.loc 1 699 0
 772 0000 0378     		ldrb	r3, [r0, #0]	@ zero_extendqisi2
 773 0002 022B     		cmp	r3, #2
 774              		.loc 1 697 0
 775 0004 10B5     		push	{r4, lr}
 776              	.LCFI7:
 777              		.cfi_def_cfa_offset 8
 778              		.cfi_offset 4, -8
 779              		.cfi_offset 14, -4
 780              		.loc 1 697 0
 781 0006 0446     		mov	r4, r0
 782              		.loc 1 699 0
 783 0008 00D0     		beq	.L97
 784              	.LVL50:
 785              	.L93:
 786 000a 10BD     		pop	{r4, pc}
 787              	.LVL51:
 788              	.L97:
 789              		.loc 1 700 0
 790 000c FFF7FEFF 		bl	usart_stop
 791              	.LVL52:
ARM GAS  /tmp/cc7j7qCO.s 			page 15


 792              		.loc 1 701 0
 793 0010 2069     		ldr	r0, [r4, #16]
 794 0012 FFF7FEFF 		bl	dmaStreamRelease
 795              	.LVL53:
 796              		.loc 1 702 0
 797 0016 6069     		ldr	r0, [r4, #20]
 798 0018 FFF7FEFF 		bl	dmaStreamRelease
 799              	.LVL54:
 800              		.loc 1 721 0
 801 001c 0748     		ldr	r0, .L98
 802 001e 8442     		cmp	r4, r0
 803 0020 F3D1     		bne	.L93
 804              		.loc 1 722 0
 805 0022 2720     		movs	r0, #39
 806 0024 FFF7FEFF 		bl	nvicDisableVector
 807              	.LVL55:
 808              		.loc 1 723 0
 809 0028 4FF46051 		mov	r1, #14336
 810 002c C4F20201 		movt	r1, 16386
 811 0030 0A6C     		ldr	r2, [r1, #64]
 812 0032 22F48023 		bic	r3, r2, #262144
 813 0036 0B64     		str	r3, [r1, #64]
 814              		.loc 1 724 0
 815 0038 E7E7     		b	.L93
 816              	.L99:
 817 003a 00BF     		.align	2
 818              	.L98:
 819 003c 00000000 		.word	.LANCHOR0
 820              		.cfi_endproc
 821              	.LFE128:
 822              		.size	uart_lld_stop, .-uart_lld_stop
 823              		.section	.text.uart_lld_start_send,"ax",%progbits
 824              		.align	2
 825              		.p2align 4,,15
 826              		.global	uart_lld_start_send
 827              		.thumb
 828              		.thumb_func
 829              		.type	uart_lld_start_send, %function
 830              	uart_lld_start_send:
 831              	.LFB129:
 832              		.loc 1 765 0
 833              		.cfi_startproc
 834              		@ args = 0, pretend = 0, frame = 0
 835              		@ frame_needed = 0, uses_anonymous_args = 0
 836              		@ link register save eliminated.
 837              	.LVL56:
 838              		.loc 1 768 0
 839 0000 4369     		ldr	r3, [r0, #20]
 840              		.loc 1 770 0
 841 0002 C068     		ldr	r0, [r0, #12]
 842              	.LVL57:
 843              		.loc 1 768 0
 844 0004 1B68     		ldr	r3, [r3, #0]
 845              		.loc 1 770 0
 846 0006 40F48A60 		orr	r0, r0, #1104
 847              		.loc 1 768 0
 848 000a DA60     		str	r2, [r3, #12]
ARM GAS  /tmp/cc7j7qCO.s 			page 16


 849              		.loc 1 769 0
 850 000c 5960     		str	r1, [r3, #4]
 851              		.loc 1 770 0
 852 000e 1860     		str	r0, [r3, #0]
 853              		.loc 1 772 0
 854 0010 1A68     		ldr	r2, [r3, #0]
 855              	.LVL58:
 856 0012 42F00101 		orr	r1, r2, #1
 857              	.LVL59:
 858 0016 1960     		str	r1, [r3, #0]
 859 0018 7047     		bx	lr
 860              		.cfi_endproc
 861              	.LFE129:
 862              		.size	uart_lld_start_send, .-uart_lld_start_send
 863 001a 00BFAFF3 		.section	.text.uart_lld_stop_send,"ax",%progbits
 863      0080
 864              		.align	2
 865              		.p2align 4,,15
 866              		.global	uart_lld_stop_send
 867              		.thumb
 868              		.thumb_func
 869              		.type	uart_lld_stop_send, %function
 870              	uart_lld_stop_send:
 871              	.LFB130:
 872              		.loc 1 786 0
 873              		.cfi_startproc
 874              		@ args = 0, pretend = 0, frame = 0
 875              		@ frame_needed = 0, uses_anonymous_args = 0
 876              		@ link register save eliminated.
 877              	.LVL60:
 878              		.loc 1 788 0
 879 0000 4169     		ldr	r1, [r0, #20]
 880 0002 0A68     		ldr	r2, [r1, #0]
 881 0004 1368     		ldr	r3, [r2, #0]
 882 0006 23F01F00 		bic	r0, r3, #31
 883              	.LVL61:
 884 000a 1060     		str	r0, [r2, #0]
 885              	.L102:
 886              		.loc 1 788 0 is_stmt 0 discriminator 1
 887 000c 1368     		ldr	r3, [r2, #0]
 888 000e D807     		lsls	r0, r3, #31
 889 0010 FCD4     		bmi	.L102
 890              		.loc 1 788 0 discriminator 2
 891 0012 087A     		ldrb	r0, [r1, #8]	@ zero_extendqisi2
 892 0014 4B68     		ldr	r3, [r1, #4]
 893 0016 3D21     		movs	r1, #61
 894 0018 01FA00F1 		lsl	r1, r1, r0
 895 001c 1960     		str	r1, [r3, #0]
 896              		.loc 1 789 0 is_stmt 1 discriminator 2
 897 001e 5068     		ldr	r0, [r2, #4]
 898              		.loc 1 790 0 discriminator 2
 899 0020 7047     		bx	lr
 900              		.cfi_endproc
 901              	.LFE130:
 902              		.size	uart_lld_stop_send, .-uart_lld_stop_send
 903 0022 00BFAFF3 		.section	.text.uart_lld_start_receive,"ax",%progbits
 903      0080AFF3 
ARM GAS  /tmp/cc7j7qCO.s 			page 17


 903      0080AFF3 
 903      0080
 904              		.align	2
 905              		.p2align 4,,15
 906              		.global	uart_lld_start_receive
 907              		.thumb
 908              		.thumb_func
 909              		.type	uart_lld_start_receive, %function
 910              	uart_lld_start_receive:
 911              	.LFB131:
 912              		.loc 1 803 0
 913              		.cfi_startproc
 914              		@ args = 0, pretend = 0, frame = 0
 915              		@ frame_needed = 0, uses_anonymous_args = 0
 916              		@ link register save eliminated.
 917              	.LVL62:
 918 0000 70B4     		push	{r4, r5, r6}
 919              	.LCFI8:
 920              		.cfi_def_cfa_offset 12
 921              		.cfi_offset 4, -12
 922              		.cfi_offset 5, -8
 923              		.cfi_offset 6, -4
 924              		.loc 1 806 0
 925 0002 0569     		ldr	r5, [r0, #16]
 926 0004 2C68     		ldr	r4, [r5, #0]
 927 0006 2368     		ldr	r3, [r4, #0]
 928 0008 23F01F06 		bic	r6, r3, #31
 929 000c 2660     		str	r6, [r4, #0]
 930              	.L105:
 931              		.loc 1 806 0 is_stmt 0 discriminator 1
 932 000e 2368     		ldr	r3, [r4, #0]
 933 0010 DE07     		lsls	r6, r3, #31
 934 0012 FCD4     		bmi	.L105
 935              		.loc 1 806 0 discriminator 2
 936 0014 2E7A     		ldrb	r6, [r5, #8]	@ zero_extendqisi2
 937 0016 6B68     		ldr	r3, [r5, #4]
 938 0018 3D25     		movs	r5, #61
 939 001a 05FA06F5 		lsl	r5, r5, r6
 940 001e 1D60     		str	r5, [r3, #0]
 941              		.loc 1 811 0 is_stmt 1 discriminator 2
 942 0020 C068     		ldr	r0, [r0, #12]
 943              	.LVL63:
 944              		.loc 1 809 0 discriminator 2
 945 0022 E260     		str	r2, [r4, #12]
 946              		.loc 1 811 0 discriminator 2
 947 0024 40F48262 		orr	r2, r0, #1040
 948              	.LVL64:
 949              		.loc 1 810 0 discriminator 2
 950 0028 6160     		str	r1, [r4, #4]
 951              		.loc 1 811 0 discriminator 2
 952 002a 2260     		str	r2, [r4, #0]
 953              		.loc 1 813 0 discriminator 2
 954 002c 2168     		ldr	r1, [r4, #0]
 955              	.LVL65:
 956 002e 41F00103 		orr	r3, r1, #1
 957 0032 2360     		str	r3, [r4, #0]
 958              		.loc 1 814 0 discriminator 2
ARM GAS  /tmp/cc7j7qCO.s 			page 18


 959 0034 70BC     		pop	{r4, r5, r6}
 960 0036 7047     		bx	lr
 961              		.cfi_endproc
 962              	.LFE131:
 963              		.size	uart_lld_start_receive, .-uart_lld_start_receive
 964 0038 AFF30080 		.section	.text.uart_lld_stop_receive,"ax",%progbits
 964      AFF30080 
 965              		.align	2
 966              		.p2align 4,,15
 967              		.global	uart_lld_stop_receive
 968              		.thumb
 969              		.thumb_func
 970              		.type	uart_lld_stop_receive, %function
 971              	uart_lld_stop_receive:
 972              	.LFB132:
 973              		.loc 1 827 0
 974              		.cfi_startproc
 975              		@ args = 0, pretend = 0, frame = 0
 976              		@ frame_needed = 0, uses_anonymous_args = 0
 977              	.LVL66:
 978              		.loc 1 830 0
 979 0000 0169     		ldr	r1, [r0, #16]
 980 0002 0A68     		ldr	r2, [r1, #0]
 981 0004 1368     		ldr	r3, [r2, #0]
 982              		.loc 1 827 0
 983 0006 10B5     		push	{r4, lr}
 984              	.LCFI9:
 985              		.cfi_def_cfa_offset 8
 986              		.cfi_offset 4, -8
 987              		.cfi_offset 14, -4
 988              		.loc 1 830 0
 989 0008 23F01F04 		bic	r4, r3, #31
 990 000c 1460     		str	r4, [r2, #0]
 991              	.L108:
 992              		.loc 1 830 0 is_stmt 0 discriminator 1
 993 000e 1368     		ldr	r3, [r2, #0]
 994 0010 DB07     		lsls	r3, r3, #31
 995 0012 FCD4     		bmi	.L108
 996              		.loc 1 830 0 discriminator 2
 997 0014 0C7A     		ldrb	r4, [r1, #8]	@ zero_extendqisi2
 998 0016 4B68     		ldr	r3, [r1, #4]
 999 0018 3D21     		movs	r1, #61
 1000 001a 01FA04F1 		lsl	r1, r1, r4
 1001 001e 1960     		str	r1, [r3, #0]
 1002              		.loc 1 831 0 is_stmt 1 discriminator 2
 1003 0020 5468     		ldr	r4, [r2, #4]
 1004              	.LVL67:
 1005              		.loc 1 832 0 discriminator 2
 1006 0022 FFF7FEFF 		bl	set_rx_idle_loop
 1007              	.LVL68:
 1008              		.loc 1 834 0 discriminator 2
 1009 0026 2046     		mov	r0, r4
 1010 0028 10BD     		pop	{r4, pc}
 1011              		.cfi_endproc
 1012              	.LFE132:
 1013              		.size	uart_lld_stop_receive, .-uart_lld_stop_receive
 1014              		.global	UARTD3
ARM GAS  /tmp/cc7j7qCO.s 			page 19


 1015 002a 00BFAFF3 		.section	.bss.UARTD3,"aw",%nobits
 1015      0080
 1016              		.align	2
 1017              		.set	.LANCHOR0,. + 0
 1018              		.type	UARTD3, %object
 1019              		.size	UARTD3, 28
 1020              	UARTD3:
 1021 0000 00000000 		.space	28
 1021      00000000 
 1021      00000000 
 1021      00000000 
 1021      00000000 
 1022              		.text
 1023              	.Letext0:
 1024              		.file 2 "/usr/bin/../lib/gcc/arm-none-eabi/4.7.4/include/stddef.h"
 1025              		.file 3 "/usr/bin/../lib/gcc/arm-none-eabi/4.7.4/../../../../arm-none-eabi/include/stdint.h"
 1026              		.file 4 "../../os/ports/GCC/ARMCMx/chtypes.h"
 1027              		.file 5 "../../os/hal/platforms/STM32F4xx/stm32f4xx.h"
 1028              		.file 6 "../../os/hal/platforms/STM32F4xx/stm32_dma.h"
 1029              		.file 7 "../../os/hal/include/uart.h"
 1030              		.file 8 "../../os/hal/platforms/STM32/USARTv1/uart_lld.h"
 1031              		.file 9 "../../os/ports/common/ARMCMx/CMSIS/include/core_cm4.h"
 1032              		.file 10 "../../os/ports/GCC/ARMCMx/chcore_v7m.h"
 1033              		.file 11 "../../os/ports/common/ARMCMx/nvic.h"