ARM GAS  /tmp/cc7j7qCO.s 			page 1


   1              		.syntax unified
   2              		.cpu cortex-m4
   3              		.eabi_attribute 27, 3
   4              		.eabi_attribute 28, 1
   5              		.fpu fpv4-sp-d16
   6              		.eabi_attribute 20, 1
   7              		.eabi_attribute 21, 1
   8              		.eabi_attribute 23, 3
   9              		.eabi_attribute 24, 1
  10              		.eabi_attribute 25, 1
  11              		.eabi_attribute 26, 1
  12              		.eabi_attribute 30, 2
  13              		.eabi_attribute 34, 1
  14              		.eabi_attribute 18, 4
  15              		.thumb
  16              		.file	"uart_lld.c"
  17              		.text
  18              	.Ltext0:
  19              		.cfi_sections	.debug_frame
  20              		.section	.text.set_rx_idle_loop,"ax",%progbits
  21              		.align	2
  22              		.p2align 4,,15
  23              		.thumb
  24              		.thumb_func
  25              		.type	set_rx_idle_loop, %function
  26              	set_rx_idle_loop:
  27              	.LFB119:
  28              		.file 1 "../../os/hal/platforms/STM32/USARTv1/uart_lld.c"
  29              		.loc 1 160 0
  30              		.cfi_startproc
  31              		@ args = 0, pretend = 0, frame = 0
  32              		@ frame_needed = 0, uses_anonymous_args = 0
  33              		@ link register save eliminated.
  34              	.LVL0:
  35              		.loc 1 165 0
  36 0000 4368     		ldr	r3, [r0, #4]
  37              		.loc 1 160 0
  38 0002 10B4     		push	{r4}
  39              	.LCFI0:
  40              		.cfi_def_cfa_offset 4
  41              		.cfi_offset 4, -4
  42              		.loc 1 169 0
  43 0004 0469     		ldr	r4, [r0, #16]
  44              		.loc 1 165 0
  45 0006 DA68     		ldr	r2, [r3, #12]
  46              		.loc 1 169 0
  47 0008 2368     		ldr	r3, [r4, #0]
  48 000a 00F11801 		add	r1, r0, #24
  49              		.loc 1 171 0
  50 000e C068     		ldr	r0, [r0, #12]
  51              	.LVL1:
  52              		.loc 1 169 0
  53 0010 D960     		str	r1, [r3, #12]
  54              		.loc 1 166 0
  55 0012 002A     		cmp	r2, #0
  56 0014 14BF     		ite	ne
  57 0016 4FF48872 		movne	r2, #272
ARM GAS  /tmp/cc7j7qCO.s 			page 2


  58 001a 4FF48072 		moveq	r2, #256
  59              	.LVL2:
  60              		.loc 1 171 0
  61 001e 0243     		orrs	r2, r2, r0
  62              	.LVL3:
  63              		.loc 1 170 0
  64 0020 0121     		movs	r1, #1
  65              	.LVL4:
  66 0022 5960     		str	r1, [r3, #4]
  67              		.loc 1 171 0
  68 0024 1A60     		str	r2, [r3, #0]
  69              		.loc 1 172 0
  70 0026 1868     		ldr	r0, [r3, #0]
  71 0028 0843     		orrs	r0, r0, r1
  72 002a 1860     		str	r0, [r3, #0]
  73              		.loc 1 173 0
  74 002c 10BC     		pop	{r4}
  75 002e 7047     		bx	lr
  76              		.cfi_endproc
  77              	.LFE119:
  78              		.size	set_rx_idle_loop, .-set_rx_idle_loop
  79              		.section	.text.usart_stop,"ax",%progbits
  80              		.align	2
  81              		.p2align 4,,15
  82              		.thumb
  83              		.thumb_func
  84              		.type	usart_stop, %function
  85              	usart_stop:
  86              	.LFB120:
  87              		.loc 1 181 0
  88              		.cfi_startproc
  89              		@ args = 0, pretend = 0, frame = 0
  90              		@ frame_needed = 0, uses_anonymous_args = 0
  91              		@ link register save eliminated.
  92              	.LVL5:
  93 0000 30B4     		push	{r4, r5}
  94              	.LCFI1:
  95              		.cfi_def_cfa_offset 8
  96              		.cfi_offset 4, -8
  97              		.cfi_offset 5, -4
  98              		.loc 1 184 0
  99 0002 0469     		ldr	r4, [r0, #16]
 100 0004 2268     		ldr	r2, [r4, #0]
 101 0006 1368     		ldr	r3, [r2, #0]
 102 0008 23F01F01 		bic	r1, r3, #31
 103 000c 1160     		str	r1, [r2, #0]
 104              	.L5:
 105              		.loc 1 184 0 is_stmt 0 discriminator 1
 106 000e 1568     		ldr	r5, [r2, #0]
 107 0010 EB07     		lsls	r3, r5, #31
 108 0012 FCD4     		bmi	.L5
 109              		.loc 1 184 0 discriminator 2
 110 0014 257A     		ldrb	r5, [r4, #8]	@ zero_extendqisi2
 111              		.loc 1 185 0 is_stmt 1 discriminator 2
 112 0016 4169     		ldr	r1, [r0, #20]
 113              		.loc 1 184 0 discriminator 2
 114 0018 6368     		ldr	r3, [r4, #4]
ARM GAS  /tmp/cc7j7qCO.s 			page 3


 115              		.loc 1 185 0 discriminator 2
 116 001a 0A68     		ldr	r2, [r1, #0]
 117              		.loc 1 184 0 discriminator 2
 118 001c 3D24     		movs	r4, #61
 119 001e 04FA05F4 		lsl	r4, r4, r5
 120 0022 1C60     		str	r4, [r3, #0]
 121              		.loc 1 185 0 discriminator 2
 122 0024 1368     		ldr	r3, [r2, #0]
 123 0026 23F01F04 		bic	r4, r3, #31
 124 002a 1460     		str	r4, [r2, #0]
 125              	.L6:
 126              		.loc 1 185 0 is_stmt 0 discriminator 1
 127 002c 1368     		ldr	r3, [r2, #0]
 128 002e 13F00103 		ands	r3, r3, #1
 129 0032 FBD1     		bne	.L6
 130              		.loc 1 185 0 discriminator 2
 131 0034 0C7A     		ldrb	r4, [r1, #8]	@ zero_extendqisi2
 132              		.loc 1 188 0 is_stmt 1 discriminator 2
 133 0036 8268     		ldr	r2, [r0, #8]
 134              		.loc 1 185 0 discriminator 2
 135 0038 4968     		ldr	r1, [r1, #4]
 136 003a 3D20     		movs	r0, #61
 137              	.LVL6:
 138 003c 00FA04F0 		lsl	r0, r0, r4
 139 0040 0860     		str	r0, [r1, #0]
 140              		.loc 1 188 0 discriminator 2
 141 0042 9381     		strh	r3, [r2, #12]	@ movhi
 142              		.loc 1 189 0 discriminator 2
 143 0044 1382     		strh	r3, [r2, #16]	@ movhi
 144              		.loc 1 190 0 discriminator 2
 145 0046 9382     		strh	r3, [r2, #20]	@ movhi
 146              		.loc 1 191 0 discriminator 2
 147 0048 30BC     		pop	{r4, r5}
 148 004a 7047     		bx	lr
 149              		.cfi_endproc
 150              	.LFE120:
 151              		.size	usart_stop, .-usart_stop
 152 004c AFF30080 		.section	.text.uart_lld_serve_tx_end_irq,"ax",%progbits
 153              		.align	2
 154              		.p2align 4,,15
 155              		.thumb
 156              		.thumb_func
 157              		.type	uart_lld_serve_tx_end_irq, %function
 158              	uart_lld_serve_tx_end_irq:
 159              	.LFB123:
 160              		.loc 1 283 0
 161              		.cfi_startproc
 162              		@ args = 0, pretend = 0, frame = 0
 163              		@ frame_needed = 0, uses_anonymous_args = 0
 164              	.LVL7:
 165              		.loc 1 287 0
 166 0000 11F00C0F 		tst	r1, #12
 167              		.loc 1 283 0
 168 0004 10B5     		push	{r4, lr}
 169              	.LCFI2:
 170              		.cfi_def_cfa_offset 8
 171              		.cfi_offset 4, -8
ARM GAS  /tmp/cc7j7qCO.s 			page 4


 172              		.cfi_offset 14, -4
 173              		.loc 1 283 0
 174 0006 0446     		mov	r4, r0
 175              		.loc 1 287 0
 176 0008 1CD1     		bne	.L23
 177              	.LVL8:
 178              	.L11:
 179              		.loc 1 294 0
 180 000a 6169     		ldr	r1, [r4, #20]
 181 000c 0A68     		ldr	r2, [r1, #0]
 182 000e 1368     		ldr	r3, [r2, #0]
 183 0010 23F01F00 		bic	r0, r3, #31
 184 0014 1060     		str	r0, [r2, #0]
 185              	.L12:
 186              		.loc 1 294 0 is_stmt 0 discriminator 1
 187 0016 1368     		ldr	r3, [r2, #0]
 188 0018 D807     		lsls	r0, r3, #31
 189 001a FCD4     		bmi	.L12
 190              		.loc 1 298 0 is_stmt 1 discriminator 2
 191 001c 6368     		ldr	r3, [r4, #4]
 192              		.loc 1 294 0 discriminator 2
 193 001e 087A     		ldrb	r0, [r1, #8]	@ zero_extendqisi2
 194 0020 4A68     		ldr	r2, [r1, #4]
 195              		.loc 1 298 0 discriminator 2
 196 0022 1B68     		ldr	r3, [r3, #0]
 197              		.loc 1 294 0 discriminator 2
 198 0024 3D21     		movs	r1, #61
 199 0026 01FA00F1 		lsl	r1, r1, r0
 200              		.loc 1 297 0 discriminator 2
 201 002a 0220     		movs	r0, #2
 202              		.loc 1 294 0 discriminator 2
 203 002c 1160     		str	r1, [r2, #0]
 204              		.loc 1 297 0 discriminator 2
 205 002e 6070     		strb	r0, [r4, #1]
 206              		.loc 1 298 0 discriminator 2
 207 0030 2BB1     		cbz	r3, .L15
 208              		.loc 1 299 0
 209 0032 2046     		mov	r0, r4
 210 0034 9847     		blx	r3
 211              	.LVL9:
 212              		.loc 1 303 0
 213 0036 6278     		ldrb	r2, [r4, #1]	@ zero_extendqisi2
 214 0038 022A     		cmp	r2, #2
 215 003a 00D0     		beq	.L15
 216 003c 10BD     		pop	{r4, pc}
 217              	.L15:
 218              		.loc 1 304 0
 219 003e 0023     		movs	r3, #0
 220 0040 6370     		strb	r3, [r4, #1]
 221 0042 10BD     		pop	{r4, pc}
 222              	.LVL10:
 223              	.L23:
 224              		.loc 1 288 0
 225 0044 FFF7FEFF 		bl	port_halt
 226              	.LVL11:
 227 0048 DFE7     		b	.L11
 228              		.cfi_endproc
ARM GAS  /tmp/cc7j7qCO.s 			page 5


 229              	.LFE123:
 230              		.size	uart_lld_serve_tx_end_irq, .-uart_lld_serve_tx_end_irq
 231 004a 00BFAFF3 		.section	.text.uart_lld_serve_rx_end_irq,"ax",%progbits
 231      0080
 232              		.align	2
 233              		.p2align 4,,15
 234              		.thumb
 235              		.thumb_func
 236              		.type	uart_lld_serve_rx_end_irq, %function
 237              	uart_lld_serve_rx_end_irq:
 238              	.LFB122:
 239              		.loc 1 243 0
 240              		.cfi_startproc
 241              		@ args = 0, pretend = 0, frame = 0
 242              		@ frame_needed = 0, uses_anonymous_args = 0
 243              	.LVL12:
 244              		.loc 1 247 0
 245 0000 11F00C0F 		tst	r1, #12
 246              		.loc 1 243 0
 247 0004 10B5     		push	{r4, lr}
 248              	.LCFI3:
 249              		.cfi_def_cfa_offset 8
 250              		.cfi_offset 4, -8
 251              		.cfi_offset 14, -4
 252              		.loc 1 243 0
 253 0006 0446     		mov	r4, r0
 254              		.loc 1 247 0
 255 0008 23D1     		bne	.L40
 256              	.LVL13:
 257              	.L25:
 258              		.loc 1 254 0
 259 000a A378     		ldrb	r3, [r4, #2]	@ zero_extendqisi2
 260 000c 3BB9     		cbnz	r3, .L26
 261              		.loc 1 257 0
 262 000e 6168     		ldr	r1, [r4, #4]
 263 0010 CA68     		ldr	r2, [r1, #12]
 264 0012 EAB1     		cbz	r2, .L24
 265              		.loc 1 258 0
 266 0014 238B     		ldrh	r3, [r4, #24]
 267 0016 2046     		mov	r0, r4
 268 0018 99B2     		uxth	r1, r3
 269 001a 9047     		blx	r2
 270              	.LVL14:
 271 001c 10BD     		pop	{r4, pc}
 272              	.L26:
 273              	.LVL15:
 274              	.LBB4:
 275              	.LBB5:
 276              		.loc 1 263 0
 277 001e 2169     		ldr	r1, [r4, #16]
 278 0020 0A68     		ldr	r2, [r1, #0]
 279 0022 1068     		ldr	r0, [r2, #0]
 280 0024 20F01F03 		bic	r3, r0, #31
 281 0028 1360     		str	r3, [r2, #0]
 282              	.L29:
 283 002a 1068     		ldr	r0, [r2, #0]
 284 002c C307     		lsls	r3, r0, #31
ARM GAS  /tmp/cc7j7qCO.s 			page 6


 285 002e FCD4     		bmi	.L29
 286              		.loc 1 265 0
 287 0030 6368     		ldr	r3, [r4, #4]
 288              		.loc 1 263 0
 289 0032 087A     		ldrb	r0, [r1, #8]	@ zero_extendqisi2
 290 0034 4A68     		ldr	r2, [r1, #4]
 291              		.loc 1 265 0
 292 0036 9B68     		ldr	r3, [r3, #8]
 293              		.loc 1 263 0
 294 0038 3D21     		movs	r1, #61
 295 003a 01FA00F1 		lsl	r1, r1, r0
 296              		.loc 1 264 0
 297 003e 0220     		movs	r0, #2
 298              		.loc 1 263 0
 299 0040 1160     		str	r1, [r2, #0]
 300              		.loc 1 264 0
 301 0042 A070     		strb	r0, [r4, #2]
 302              		.loc 1 265 0
 303 0044 43B1     		cbz	r3, .L31
 304              		.loc 1 266 0
 305 0046 2046     		mov	r0, r4
 306 0048 9847     		blx	r3
 307              	.LVL16:
 308              		.loc 1 270 0
 309 004a A278     		ldrb	r2, [r4, #2]	@ zero_extendqisi2
 310 004c 022A     		cmp	r2, #2
 311 004e 03D0     		beq	.L31
 312              	.LVL17:
 313              	.L24:
 314 0050 10BD     		pop	{r4, pc}
 315              	.LVL18:
 316              	.L40:
 317              	.LBE5:
 318              	.LBE4:
 319              		.loc 1 248 0
 320 0052 FFF7FEFF 		bl	port_halt
 321              	.LVL19:
 322 0056 D8E7     		b	.L25
 323              	.LVL20:
 324              	.L31:
 325              	.LBB8:
 326              	.LBB6:
 327              		.loc 1 271 0
 328 0058 0023     		movs	r3, #0
 329              		.loc 1 272 0
 330 005a 2046     		mov	r0, r4
 331              		.loc 1 271 0
 332 005c A370     		strb	r3, [r4, #2]
 333              	.LBE6:
 334              	.LBE8:
 335              		.loc 1 275 0
 336 005e BDE81040 		pop	{r4, lr}
 337              	.LBB9:
 338              	.LBB7:
 339              		.loc 1 272 0
 340 0062 FFF7FEBF 		b	set_rx_idle_loop
 341              	.LVL21:
ARM GAS  /tmp/cc7j7qCO.s 			page 7


 342              	.LBE7:
 343              	.LBE9:
 344              		.cfi_endproc
 345              	.LFE122:
 346              		.size	uart_lld_serve_rx_end_irq, .-uart_lld_serve_rx_end_irq
 347 0066 00BFAFF3 		.section	.text.VectorDC,"ax",%progbits
 347      0080AFF3 
 347      0080
 348              		.align	2
 349              		.p2align 4,,15
 350              		.global	VectorDC
 351              		.thumb
 352              		.thumb_func
 353              		.type	VectorDC, %function
 354              	VectorDC:
 355              	.LFB125:
 356              		.loc 1 384 0
 357              		.cfi_startproc
 358              		@ args = 0, pretend = 0, frame = 0
 359              		@ frame_needed = 0, uses_anonymous_args = 0
 360              	.LVL22:
 361 0000 70B5     		push	{r4, r5, r6, lr}
 362              	.LCFI4:
 363              		.cfi_def_cfa_offset 16
 364              		.cfi_offset 4, -16
 365              		.cfi_offset 5, -12
 366              		.cfi_offset 6, -8
 367              		.cfi_offset 14, -4
 368              	.LBB14:
 369              	.LBB15:
 370              		.loc 1 314 0
 371 0002 1F4E     		ldr	r6, .L73
 372 0004 B568     		ldr	r5, [r6, #8]
 373              	.LVL23:
 374              		.loc 1 316 0
 375 0006 2C88     		ldrh	r4, [r5, #0]
 376              		.loc 1 317 0
 377 0008 AB88     		ldrh	r3, [r5, #4]
 378              		.loc 1 316 0
 379 000a A4B2     		uxth	r4, r4
 380              	.LVL24:
 381              		.loc 1 318 0
 382 000c 40F20F13 		movw	r3, #271
 383 0010 2340     		ands	r3, r3, r4
 384 0012 13B3     		cbz	r3, .L43
 385              		.loc 1 321 0
 386 0014 7068     		ldr	r0, [r6, #4]
 387 0016 0369     		ldr	r3, [r0, #16]
 388              		.loc 1 320 0
 389 0018 4FF6FF62 		movw	r2, #65279
 390 001c 2A80     		strh	r2, [r5, #0]	@ movhi
 391              		.loc 1 321 0
 392 001e E3B1     		cbz	r3, .L43
 393              	.LVL25:
 394              	.LBB16:
 395              	.LBB17:
 396              		.loc 1 142 0
ARM GAS  /tmp/cc7j7qCO.s 			page 8


 397 0020 04F00801 		and	r1, r4, #8
 398 0024 88B2     		uxth	r0, r1
 399              		.loc 1 143 0
 400 0026 0028     		cmp	r0, #0
 401 0028 14BF     		ite	ne
 402 002a 1021     		movne	r1, #16
 403 002c 0021     		moveq	r1, #0
 404              	.LVL26:
 405              		.loc 1 144 0
 406 002e E207     		lsls	r2, r4, #31
 407              		.loc 1 146 0
 408 0030 04F00202 		and	r2, r4, #2
 409 0034 90B2     		uxth	r0, r2
 410              		.loc 1 145 0
 411 0036 48BF     		it	mi
 412 0038 41F00401 		orrmi	r1, r1, #4
 413              	.LVL27:
 414              		.loc 1 146 0
 415 003c 08B1     		cbz	r0, .L47
 416              		.loc 1 147 0
 417 003e 41F00801 		orr	r1, r1, #8
 418              	.LVL28:
 419              	.L47:
 420              		.loc 1 148 0
 421 0042 04F00402 		and	r2, r4, #4
 422 0046 90B2     		uxth	r0, r2
 423 0048 B8B9     		cbnz	r0, .L72
 424              	.L48:
 425              		.loc 1 150 0
 426 004a 04F48072 		and	r2, r4, #256
 427 004e 90B2     		uxth	r0, r2
 428 0050 08B1     		cbz	r0, .L49
 429              		.loc 1 151 0
 430 0052 41F04001 		orr	r1, r1, #64
 431              	.LVL29:
 432              	.L49:
 433              	.LBE17:
 434              	.LBE16:
 435              		.loc 1 322 0
 436 0056 0A48     		ldr	r0, .L73
 437 0058 9847     		blx	r3
 438              	.LVL30:
 439              	.L43:
 440              		.loc 1 324 0
 441 005a 04F04004 		and	r4, r4, #64
 442              	.LVL31:
 443 005e A4B2     		uxth	r4, r4
 444 0060 3CB1     		cbz	r4, .L51
 445              		.loc 1 328 0
 446 0062 7368     		ldr	r3, [r6, #4]
 447 0064 5968     		ldr	r1, [r3, #4]
 448              		.loc 1 325 0
 449 0066 4FF6BF72 		movw	r2, #65471
 450 006a 2A80     		strh	r2, [r5, #0]	@ movhi
 451              		.loc 1 328 0
 452 006c 09B1     		cbz	r1, .L51
 453              		.loc 1 329 0
ARM GAS  /tmp/cc7j7qCO.s 			page 9


 454 006e 0448     		ldr	r0, .L73
 455 0070 8847     		blx	r1
 456              	.LVL32:
 457              	.L51:
 458              	.LBE15:
 459              	.LBE14:
 460              		.loc 1 391 0
 461 0072 BDE87040 		pop	{r4, r5, r6, lr}
 462              		.loc 1 390 0
 463 0076 FFF7FEBF 		b	_port_irq_epilogue
 464              	.LVL33:
 465              	.L72:
 466              	.LBB21:
 467              	.LBB20:
 468              	.LBB19:
 469              	.LBB18:
 470              		.loc 1 149 0
 471 007a 41F02001 		orr	r1, r1, #32
 472              	.LVL34:
 473 007e E4E7     		b	.L48
 474              	.L74:
 475              		.align	2
 476              	.L73:
 477 0080 00000000 		.word	.LANCHOR0
 478              	.LBE18:
 479              	.LBE19:
 480              	.LBE20:
 481              	.LBE21:
 482              		.cfi_endproc
 483              	.LFE125:
 484              		.size	VectorDC, .-VectorDC
 485 0084 AFF30080 		.section	.text.uart_lld_init,"ax",%progbits
 485      AFF30080 
 485      AFF30080 
 486              		.align	2
 487              		.p2align 4,,15
 488              		.global	uart_lld_init
 489              		.thumb
 490              		.thumb_func
 491              		.type	uart_lld_init, %function
 492              	uart_lld_init:
 493              	.LFB126:
 494              		.loc 1 460 0
 495              		.cfi_startproc
 496              		@ args = 0, pretend = 0, frame = 0
 497              		@ frame_needed = 0, uses_anonymous_args = 0
 498 0000 10B5     		push	{r4, lr}
 499              	.LCFI5:
 500              		.cfi_def_cfa_offset 8
 501              		.cfi_offset 4, -8
 502              		.cfi_offset 14, -4
 503              		.loc 1 479 0
 504 0002 40F20004 		movw	r4, #:lower16:.LANCHOR0
 505 0006 C0F20004 		movt	r4, #:upper16:.LANCHOR0
 506 000a 2046     		mov	r0, r4
 507 000c FFF7FEFF 		bl	uartObjectInit
 508              	.LVL35:
ARM GAS  /tmp/cc7j7qCO.s 			page 10


 509              		.loc 1 482 0
 510 0010 064B     		ldr	r3, .L76
 511              		.loc 1 480 0
 512 0012 4FF49042 		mov	r2, #18432
 513 0016 C4F20002 		movt	r2, 16384
 514              		.loc 1 483 0
 515 001a 03F11801 		add	r1, r3, #24
 516              		.loc 1 481 0
 517 001e 0620     		movs	r0, #6
 518              		.loc 1 480 0
 519 0020 A260     		str	r2, [r4, #8]
 520              		.loc 1 481 0
 521 0022 E060     		str	r0, [r4, #12]
 522              		.loc 1 482 0
 523 0024 2361     		str	r3, [r4, #16]
 524              		.loc 1 483 0
 525 0026 6161     		str	r1, [r4, #20]
 526 0028 10BD     		pop	{r4, pc}
 527              	.L77:
 528 002a 00BF     		.align	2
 529              	.L76:
 530 002c 0C000000 		.word	_stm32_dma_streams+12
 531              		.cfi_endproc
 532              	.LFE126:
 533              		.size	uart_lld_init, .-uart_lld_init
 534              		.section	.text.uart_lld_start,"ax",%progbits
 535              		.align	2
 536              		.p2align 4,,15
 537              		.global	uart_lld_start
 538              		.thumb
 539              		.thumb_func
 540              		.type	uart_lld_start, %function
 541              	uart_lld_start:
 542              	.LFB127:
 543              		.loc 1 539 0
 544              		.cfi_startproc
 545              		@ args = 0, pretend = 0, frame = 0
 546              		@ frame_needed = 0, uses_anonymous_args = 0
 547              	.LVL36:
 548 0000 F8B5     		push	{r3, r4, r5, r6, r7, lr}
 549              	.LCFI6:
 550              		.cfi_def_cfa_offset 24
 551              		.cfi_offset 3, -24
 552              		.cfi_offset 4, -20
 553              		.cfi_offset 5, -16
 554              		.cfi_offset 6, -12
 555              		.cfi_offset 7, -8
 556              		.cfi_offset 14, -4
 557              		.loc 1 549 0
 558 0002 0378     		ldrb	r3, [r0, #0]	@ zero_extendqisi2
 559 0004 012B     		cmp	r3, #1
 560              		.loc 1 539 0
 561 0006 0446     		mov	r4, r0
 562              		.loc 1 549 0
 563 0008 3BD0     		beq	.L88
 564 000a 8568     		ldr	r5, [r0, #8]
 565              	.LVL37:
ARM GAS  /tmp/cc7j7qCO.s 			page 11


 566              	.L79:
 567              		.loc 1 685 0
 568 000c 0026     		movs	r6, #0
 569              	.LBB25:
 570              	.LBB26:
 571              		.loc 1 204 0
 572 000e 2046     		mov	r0, r4
 573              	.LBE26:
 574              	.LBE25:
 575              		.loc 1 685 0
 576 0010 A670     		strb	r6, [r4, #2]
 577              		.loc 1 686 0
 578 0012 6670     		strb	r6, [r4, #1]
 579              	.LVL38:
 580              	.LBB30:
 581              	.LBB27:
 582              		.loc 1 204 0
 583 0014 FFF7FEFF 		bl	usart_stop
 584              	.LVL39:
 585              		.loc 1 208 0
 586 0018 4FF48057 		mov	r7, #4096
 587 001c A068     		ldr	r0, [r4, #8]
 588 001e C4F20107 		movt	r7, 16385
 589 0022 B842     		cmp	r0, r7
 590 0024 42D0     		beq	.L82
 591 0026 4FF4A051 		mov	r1, #5120
 592 002a C4F20101 		movt	r1, 16385
 593 002e 8842     		cmp	r0, r1
 594 0030 3CD0     		beq	.L82
 595              		.loc 1 214 0
 596 0032 6368     		ldr	r3, [r4, #4]
 597 0034 4DF68062 		movw	r2, #56960
 598 0038 5E69     		ldr	r6, [r3, #20]
 599 003a C0F28022 		movt	r2, 640
 600 003e B2FBF6F7 		udiv	r7, r2, r6
 601 0042 B8B2     		uxth	r0, r7
 602 0044 2881     		strh	r0, [r5, #8]	@ movhi
 603              	.L84:
 604              		.loc 1 226 0
 605 0046 5F68     		ldr	r7, [r3, #4]
 606              		.loc 1 231 0
 607 0048 188B     		ldrh	r0, [r3, #24]
 608              		.loc 1 223 0
 609 004a 598B     		ldrh	r1, [r3, #26]
 610              		.loc 1 224 0
 611 004c 9A8B     		ldrh	r2, [r3, #28]
 612              		.loc 1 217 0
 613 004e 2B88     		ldrh	r3, [r5, #0]
 614              		.loc 1 218 0
 615 0050 AB88     		ldrh	r3, [r5, #4]
 616              		.loc 1 227 0
 617 0052 42F20C16 		movw	r6, #8460
 618 0056 42F24C13 		movw	r3, #8524
 619 005a 002F     		cmp	r7, #0
 620 005c 08BF     		it	eq
 621 005e 3346     		moveq	r3, r6
 622              	.LVL40:
ARM GAS  /tmp/cc7j7qCO.s 			page 12


 623              		.loc 1 231 0
 624 0060 0343     		orrs	r3, r3, r0
 625              	.LVL41:
 626              		.loc 1 223 0
 627 0062 41F04001 		orr	r1, r1, #64
 628              		.loc 1 219 0
 629 0066 0020     		movs	r0, #0
 630              		.loc 1 224 0
 631 0068 42F0C102 		orr	r2, r2, #193
 632              		.loc 1 219 0
 633 006c 2880     		strh	r0, [r5, #0]	@ movhi
 634              		.loc 1 223 0
 635 006e 89B2     		uxth	r1, r1
 636              		.loc 1 224 0
 637 0070 92B2     		uxth	r2, r2
 638              		.loc 1 234 0
 639 0072 2046     		mov	r0, r4
 640              		.loc 1 223 0
 641 0074 2982     		strh	r1, [r5, #16]	@ movhi
 642              		.loc 1 224 0
 643 0076 AA82     		strh	r2, [r5, #20]	@ movhi
 644              		.loc 1 231 0
 645 0078 AB81     		strh	r3, [r5, #12]	@ movhi
 646              	.LBE27:
 647              	.LBE30:
 648              		.loc 1 688 0
 649 007a BDE8F840 		pop	{r3, r4, r5, r6, r7, lr}
 650              	.LBB31:
 651              	.LBB28:
 652              		.loc 1 234 0
 653 007e FFF7FEBF 		b	set_rx_idle_loop
 654              	.LVL42:
 655              	.L88:
 656              	.LBE28:
 657              	.LBE31:
 658              		.loc 1 593 0
 659 0082 2148     		ldr	r0, .L91
 660              	.LVL43:
 661 0084 8442     		cmp	r4, r0
 662 0086 21D0     		beq	.L89
 663              	.L80:
 664              		.loc 1 678 0
 665 0088 6368     		ldr	r3, [r4, #4]
 666 008a 188B     		ldrh	r0, [r3, #24]
 667 008c 00F4A051 		and	r1, r0, #5120
 668 0090 B1F5805F 		cmp	r1, #4096
 669 0094 15D0     		beq	.L90
 670              	.L81:
 671              		.loc 1 680 0
 672 0096 2669     		ldr	r6, [r4, #16]
 673              		.loc 1 681 0
 674 0098 6769     		ldr	r7, [r4, #20]
 675              		.loc 1 680 0
 676 009a A568     		ldr	r5, [r4, #8]
 677 009c 3068     		ldr	r0, [r6, #0]
 678              		.loc 1 681 0
 679 009e 3968     		ldr	r1, [r7, #0]
ARM GAS  /tmp/cc7j7qCO.s 			page 13


 680              		.loc 1 680 0
 681 00a0 2B1D     		adds	r3, r5, #4
 682              		.loc 1 682 0
 683 00a2 0022     		movs	r2, #0
 684              		.loc 1 680 0
 685 00a4 8360     		str	r3, [r0, #8]
 686              		.loc 1 681 0
 687 00a6 8B60     		str	r3, [r1, #8]
 688              		.loc 1 682 0
 689 00a8 2283     		strh	r2, [r4, #24]	@ movhi
 690 00aa AFE7     		b	.L79
 691              	.LVL44:
 692              	.L82:
 693              	.LBB32:
 694              	.LBB29:
 695              		.loc 1 212 0
 696 00ac 6368     		ldr	r3, [r4, #4]
 697 00ae 4FF43D42 		mov	r2, #48384
 698 00b2 5969     		ldr	r1, [r3, #20]
 699 00b4 C0F20152 		movt	r2, 1281
 700 00b8 B2FBF1F6 		udiv	r6, r2, r1
 701 00bc B7B2     		uxth	r7, r6
 702 00be 2F81     		strh	r7, [r5, #8]	@ movhi
 703 00c0 C1E7     		b	.L84
 704              	.LVL45:
 705              	.L90:
 706              	.LBE29:
 707              	.LBE32:
 708              		.loc 1 679 0
 709 00c2 E268     		ldr	r2, [r4, #12]
 710 00c4 42F42055 		orr	r5, r2, #10240
 711 00c8 E560     		str	r5, [r4, #12]
 712 00ca E4E7     		b	.L81
 713              	.L89:
 714              	.LBB33:
 715              		.loc 1 595 0
 716 00cc 0C21     		movs	r1, #12
 717 00ce 0F4A     		ldr	r2, .L91+4
 718 00d0 2069     		ldr	r0, [r4, #16]
 719 00d2 2346     		mov	r3, r4
 720 00d4 FFF7FEFF 		bl	dmaStreamAllocate
 721              	.LVL46:
 722              		.loc 1 600 0
 723 00d8 0C21     		movs	r1, #12
 724 00da 0D4A     		ldr	r2, .L91+8
 725 00dc 6069     		ldr	r0, [r4, #20]
 726 00de 2346     		mov	r3, r4
 727 00e0 FFF7FEFF 		bl	dmaStreamAllocate
 728              	.LVL47:
 729              		.loc 1 605 0
 730 00e4 4FF46051 		mov	r1, #14336
 731 00e8 C4F20201 		movt	r1, 16386
 732              		.loc 1 606 0
 733 00ec 2720     		movs	r0, #39
 734              		.loc 1 605 0
 735 00ee 0A6C     		ldr	r2, [r1, #64]
 736 00f0 42F48025 		orr	r5, r2, #262144
ARM GAS  /tmp/cc7j7qCO.s 			page 14


 737 00f4 0D64     		str	r5, [r1, #64]
 738              		.loc 1 606 0
 739 00f6 C021     		movs	r1, #192
 740 00f8 FFF7FEFF 		bl	nvicEnableVector
 741              	.LVL48:
 742              		.loc 1 608 0
 743 00fc E668     		ldr	r6, [r4, #12]
 744 00fe 46F00067 		orr	r7, r6, #134217728
 745 0102 E760     		str	r7, [r4, #12]
 746 0104 C0E7     		b	.L80
 747              	.L92:
 748 0106 00BF     		.align	2
 749              	.L91:
 750 0108 00000000 		.word	.LANCHOR0
 751 010c 00000000 		.word	uart_lld_serve_rx_end_irq
 752 0110 00000000 		.word	uart_lld_serve_tx_end_irq
 753              	.LBE33:
 754              		.cfi_endproc
 755              	.LFE127:
 756              		.size	uart_lld_start, .-uart_lld_start
 757 0114 AFF30080 		.section	.text.uart_lld_stop,"ax",%progbits
 757      AFF30080 
 757      AFF30080 
 758              		.align	2
 759              		.p2align 4,,15
 760              		.global	uart_lld_stop
 761              		.thumb
 762              		.thumb_func
 763              		.type	uart_lld_stop, %function
 764              	uart_lld_stop:
 765              	.LFB128:
 766              		.loc 1 697 0
 767              		.cfi_startproc
 768              		@ args = 0, pretend = 0, frame = 0
 769              		@ frame_needed = 0, uses_anonymous_args = 0
 770              	.LVL49:
 771              		.loc 1 699 0
 772 0000 0378     		ldrb	r3, [r0, #0]	@ zero_extendqisi2
 773 0002 022B     		cmp	r3, #2
 774              		.loc 1 697 0
 775 0004 10B5     		push	{r4, lr}
 776              	.LCFI7:
 777              		.cfi_def_cfa_offset 8
 778              		.cfi_offset 4, -8
 779              		.cfi_offset 14, -4
 780              		.loc 1 697 0
 781 0006 0446     		mov	r4, r0
 782              		.loc 1 699 0
 783 0008 00D0     		beq	.L97
 784              	.LVL50:
 785              	.L93:
 786 000a 10BD     		pop	{r4, pc}
 787              	.LVL51:
 788              	.L97:
 789              		.loc 1 700 0
 790 000c FFF7FEFF 		bl	usart_stop
 791              	.LVL52:
ARM GAS  /tmp/cc7j7qCO.s 			page 15


 792              		.loc 1 701 0
 793 0010 2069     		ldr	r0, [r4, #16]
 794 0012 FFF7FEFF 		bl	dmaStreamRelease
 795              	.LVL53:
 796              		.loc 1 702 0
 797 0016 6069     		ldr	r0, [r4, #20]
 798 0018 FFF7FEFF 		bl	dmaStreamRelease
 799              	.LVL54:
 800              		.loc 1 721 0
 801 001c 0748     		ldr	r0, .L98
 802 001e 8442     		cmp	r4, r0
 803 0020 F3D1     		bne	.L93
 804              		.loc 1 722 0
 805 0022 2720     		movs	r0, #39
 806 0024 FFF7FEFF 		bl	nvicDisableVector
 807              	.LVL55:
 808              		.loc 1 723 0
 809 0028 4FF46051 		mov	r1, #14336
 810 002c C4F20201 		movt	r1, 16386
 811 0030 0A6C     		ldr	r2, [r1, #64]
 812 0032 22F48023 		bic	r3, r2, #262144
 813 0036 0B64     		str	r3, [r1, #64]
 814              		.loc 1 724 0
 815 0038 E7E7     		b	.L93
 816              	.L99:
 817 003a 00BF     		.align	2
 818              	.L98:
 819 003c 00000000 		.word	.LANCHOR0
 820              		.cfi_endproc
 821              	.LFE128:
 822              		.size	uart_lld_stop, .-uart_lld_stop
 823              		.section	.text.uart_lld_start_send,"ax",%progbits
 824              		.align	2
 825              		.p2align 4,,15
 826              		.global	uart_lld_start_send
 827              		.thumb
 828              		.thumb_func
 829              		.type	uart_lld_start_send, %function
 830              	uart_lld_start_send:
 831              	.LFB129:
 832              		.loc 1 765 0
 833              		.cfi_startproc
 834              		@ args = 0, pretend = 0, frame = 0
 835              		@ frame_needed = 0, uses_anonymous_args = 0
 836              		@ link register save eliminated.
 837              	.LVL56:
 838              		.loc 1 768 0
 839 0000 4369     		ldr	r3, [r0, #20]
 840              		.loc 1 770 0
 841 0002 C068     		ldr	r0, [r0, #12]
 842              	.LVL57:
 843              		.loc 1 768 0
 844 0004 1B68     		ldr	r3, [r3, #0]
 845              		.loc 1 770 0
 846 0006 40F48A60 		orr	r0, r0, #1104
 847              		.loc 1 768 0
 848 000a DA60     		str	r2, [r3, #12]
ARM GAS  /tmp/cc7j7qCO.s 			page 16


 849              		.loc 1 769 0
 850 000c 5960     		str	r1, [r3, #4]
 851              		.loc 1 770 0
 852 000e 1860     		str	r0, [r3, #0]
 853              		.loc 1 772 0
 854 0010 1A68     		ldr	r2, [r3, #0]
 855              	.LVL58:
 856 0012 42F00101 		orr	r1, r2, #1
 857              	.LVL59:
 858 0016 1960     		str	r1, [r3, #0]
 859 0018 7047     		bx	lr
 860              		.cfi_endproc
 861              	.LFE129:
 862              		.size	uart_lld_start_send, .-uart_lld_start_send
 863 001a 00BFAFF3 		.section	.text.uart_lld_stop_send,"ax",%progbits
 863      0080
 864              		.align	2
 865              		.p2align 4,,15
 866              		.global	uart_lld_stop_send
 867              		.thumb
 868              		.thumb_func
 869              		.type	uart_lld_stop_send, %function
 870              	uart_lld_stop_send:
 871              	.LFB130:
 872              		.loc 1 786 0
 873              		.cfi_startproc
 874              		@ args = 0, pretend = 0, frame = 0
 875              		@ frame_needed = 0, uses_anonymous_args = 0
 876              		@ link register save eliminated.
 877              	.LVL60:
 878              		.loc 1 788 0
 879 0000 4169     		ldr	r1, [r0, #20]
 880 0002 0A68     		ldr	r2, [r1, #0]
 881 0004 1368     		ldr	r3, [r2, #0]
 882 0006 23F01F00 		bic	r0, r3, #31
 883              	.LVL61:
 884 000a 1060     		str	r0, [r2, #0]
 885              	.L102:
 886              		.loc 1 788 0 is_stmt 0 discriminator 1
 887 000c 1368     		ldr	r3, [r2, #0]
 888 000e D807     		lsls	r0, r3, #31
 889 0010 FCD4     		bmi	.L102
 890              		.loc 1 788 0 discriminator 2
 891 0012 087A     		ldrb	r0, [r1, #8]	@ zero_extendqisi2
 892 0014 4B68     		ldr	r3, [r1, #4]
 893 0016 3D21     		movs	r1, #61
 894 0018 01FA00F1 		lsl	r1, r1, r0
 895 001c 1960     		str	r1, [r3, #0]
 896              		.loc 1 789 0 is_stmt 1 discriminator 2
 897 001e 5068     		ldr	r0, [r2, #4]
 898              		.loc 1 790 0 discriminator 2
 899 0020 7047     		bx	lr
 900              		.cfi_endproc
 901              	.LFE130:
 902              		.size	uart_lld_stop_send, .-uart_lld_stop_send
 903 0022 00BFAFF3 		.section	.text.uart_lld_start_receive,"ax",%progbits
 903      0080AFF3 
ARM GAS  /tmp/cc7j7qCO.s 			page 17


 903      0080AFF3 
 903      0080
 904              		.align	2
 905              		.p2align 4,,15
 906              		.global	uart_lld_start_receive
 907              		.thumb
 908              		.thumb_func
 909              		.type	uart_lld_start_receive, %function
 910              	uart_lld_start_receive:
 911              	.LFB131:
 912              		.loc 1 803 0
 913              		.cfi_startproc
 914              		@ args = 0, pretend = 0, frame = 0
 915              		@ frame_needed = 0, uses_anonymous_args = 0
 916              		@ link register save eliminated.
 917              	.LVL62:
 918 0000 70B4     		push	{r4, r5, r6}
 919              	.LCFI8:
 920              		.cfi_def_cfa_offset 12
 921              		.cfi_offset 4, -12
 922              		.cfi_offset 5, -8
 923              		.cfi_offset 6, -4
 924              		.loc 1 806 0
 925 0002 0569     		ldr	r5, [r0, #16]
 926 0004 2C68     		ldr	r4, [r5, #0]
 927 0006 2368     		ldr	r3, [r4, #0]
 928 0008 23F01F06 		bic	r6, r3, #31
 929 000c 2660     		str	r6, [r4, #0]
 930              	.L105:
 931              		.loc 1 806 0 is_stmt 0 discriminator 1
 932 000e 2368     		ldr	r3, [r4, #0]
 933 0010 DE07     		lsls	r6, r3, #31
 934 0012 FCD4     		bmi	.L105
 935              		.loc 1 806 0 discriminator 2
 936 0014 2E7A     		ldrb	r6, [r5, #8]	@ zero_extendqisi2
 937 0016 6B68     		ldr	r3, [r5, #4]
 938 0018 3D25     		movs	r5, #61
 939 001a 05FA06F5 		lsl	r5, r5, r6
 940 001e 1D60     		str	r5, [r3, #0]
 941              		.loc 1 811 0 is_stmt 1 discriminator 2
 942 0020 C068     		ldr	r0, [r0, #12]
 943              	.LVL63:
 944              		.loc 1 809 0 discriminator 2
 945 0022 E260     		str	r2, [r4, #12]
 946              		.loc 1 811 0 discriminator 2
 947 0024 40F48262 		orr	r2, r0, #1040
 948              	.LVL64:
 949              		.loc 1 810 0 discriminator 2
 950 0028 6160     		str	r1, [r4, #4]
 951              		.loc 1 811 0 discriminator 2
 952 002a 2260     		str	r2, [r4, #0]
 953              		.loc 1 813 0 discriminator 2
 954 002c 2168     		ldr	r1, [r4, #0]
 955              	.LVL65:
 956 002e 41F00103 		orr	r3, r1, #1
 957 0032 2360     		str	r3, [r4, #0]
 958              		.loc 1 814 0 discriminator 2
ARM GAS  /tmp/cc7j7qCO.s 			page 18


 959 0034 70BC     		pop	{r4, r5, r6}
 960 0036 7047     		bx	lr
 961              		.cfi_endproc
 962              	.LFE131:
 963              		.size	uart_lld_start_receive, .-uart_lld_start_receive
 964 0038 AFF30080 		.section	.text.uart_lld_stop_receive,"ax",%progbits
 964      AFF30080 
 965              		.align	2
 966              		.p2align 4,,15
 967              		.global	uart_lld_stop_receive
 968              		.thumb
 969              		.thumb_func
 970              		.type	uart_lld_stop_receive, %function
 971              	uart_lld_stop_receive:
 972              	.LFB132:
 973              		.loc 1 827 0
 974              		.cfi_startproc
 975              		@ args = 0, pretend = 0, frame = 0
 976              		@ frame_needed = 0, uses_anonymous_args = 0
 977              	.LVL66:
 978              		.loc 1 830 0
 979 0000 0169     		ldr	r1, [r0, #16]
 980 0002 0A68     		ldr	r2, [r1, #0]
 981 0004 1368     		ldr	r3, [r2, #0]
 982              		.loc 1 827 0
 983 0006 10B5     		push	{r4, lr}
 984              	.LCFI9:
 985              		.cfi_def_cfa_offset 8
 986              		.cfi_offset 4, -8
 987              		.cfi_offset 14, -4
 988              		.loc 1 830 0
 989 0008 23F01F04 		bic	r4, r3, #31
 990 000c 1460     		str	r4, [r2, #0]
 991              	.L108:
 992              		.loc 1 830 0 is_stmt 0 discriminator 1
 993 000e 1368     		ldr	r3, [r2, #0]
 994 0010 DB07     		lsls	r3, r3, #31
 995 0012 FCD4     		bmi	.L108
 996              		.loc 1 830 0 discriminator 2
 997 0014 0C7A     		ldrb	r4, [r1, #8]	@ zero_extendqisi2
 998 0016 4B68     		ldr	r3, [r1, #4]
 999 0018 3D21     		movs	r1, #61
 1000 001a 01FA04F1 		lsl	r1, r1, r4
 1001 001e 1960     		str	r1, [r3, #0]
 1002              		.loc 1 831 0 is_stmt 1 discriminator 2
 1003 0020 5468     		ldr	r4, [r2, #4]
 1004              	.LVL67:
 1005              		.loc 1 832 0 discriminator 2
 1006 0022 FFF7FEFF 		bl	set_rx_idle_loop
 1007              	.LVL68:
 1008              		.loc 1 834 0 discriminator 2
 1009 0026 2046     		mov	r0, r4
 1010 0028 10BD     		pop	{r4, pc}
 1011              		.cfi_endproc
 1012              	.LFE132:
 1013              		.size	uart_lld_stop_receive, .-uart_lld_stop_receive
 1014              		.global	UARTD3
ARM GAS  /tmp/cc7j7qCO.s 			page 19


 1015 002a 00BFAFF3 		.section	.bss.UARTD3,"aw",%nobits
 1015      0080
 1016              		.align	2
 1017              		.set	.LANCHOR0,. + 0
 1018              		.type	UARTD3, %object
 1019              		.size	UARTD3, 28
 1020              	UARTD3:
 1021 0000 00000000 		.space	28
 1021      00000000 
 1021      00000000 
 1021      00000000 
 1021      00000000 
 1022              		.text
 1023              	.Letext0:
 1024              		.file 2 "/usr/bin/../lib/gcc/arm-none-eabi/4.7.4/include/stddef.h"
 1025              		.file 3 "/usr/bin/../lib/gcc/arm-none-eabi/4.7.4/../../../../arm-none-eabi/include/stdint.h"
 1026              		.file 4 "../../os/ports/GCC/ARMCMx/chtypes.h"
 1027              		.file 5 "../../os/hal/platforms/STM32F4xx/stm32f4xx.h"
 1028              		.file 6 "../../os/hal/platforms/STM32F4xx/stm32_dma.h"
 1029              		.file 7 "../../os/hal/include/uart.h"
 1030              		.file 8 "../../os/hal/platforms/STM32/USARTv1/uart_lld.h"
 1031              		.file 9 "../../os/ports/common/ARMCMx/CMSIS/include/core_cm4.h"
 1032              		.file 10 "../../os/ports/GCC/ARMCMx/chcore_v7m.h"
 1033              		.file 11 "../../os/ports/common/ARMCMx/nvic.h"
 1034              		.section	.debug_info,"",%progbits
 1035              	.Ldebug_info0:
 1036 0000 000F0000 		.4byte	0xf00
 1037 0004 0200     		.2byte	0x2
 1038 0006 00000000 		.4byte	.Ldebug_abbrev0
 1039 000a 04       		.byte	0x4
 1040 000b 01       		.uleb128 0x1
 1041 000c A3040000 		.4byte	.LASF208
 1042 0010 01       		.byte	0x1
 1043 0011 020A0000 		.4byte	.LASF209
 1044 0015 2F070000 		.4byte	.LASF210
 1045 0019 F0000000 		.4byte	.Ldebug_ranges0+0xf0
 1046 001d 00000000 		.4byte	0
 1047 0021 00000000 		.4byte	0
 1048 0025 00000000 		.4byte	.Ldebug_line0
 1049 0029 02       		.uleb128 0x2
 1050 002a 04       		.byte	0x4
 1051 002b 05       		.byte	0x5
 1052 002c 696E7400 		.ascii	"int\000"
 1053 0030 03       		.uleb128 0x3
 1054 0031 60000000 		.4byte	.LASF2
 1055 0035 02       		.byte	0x2
 1056 0036 D5       		.byte	0xd5
 1057 0037 3B000000 		.4byte	0x3b
 1058 003b 04       		.uleb128 0x4
 1059 003c 04       		.byte	0x4
 1060 003d 07       		.byte	0x7
 1061 003e 4C030000 		.4byte	.LASF0
 1062 0042 04       		.uleb128 0x4
 1063 0043 01       		.byte	0x1
 1064 0044 06       		.byte	0x6
 1065 0045 AD010000 		.4byte	.LASF1
 1066 0049 03       		.uleb128 0x3
ARM GAS  /tmp/cc7j7qCO.s 			page 20


 1067 004a C4090000 		.4byte	.LASF3
 1068 004e 03       		.byte	0x3
 1069 004f 2A       		.byte	0x2a
 1070 0050 54000000 		.4byte	0x54
 1071 0054 04       		.uleb128 0x4
 1072 0055 01       		.byte	0x1
 1073 0056 08       		.byte	0x8
 1074 0057 DB060000 		.4byte	.LASF4
 1075 005b 04       		.uleb128 0x4
 1076 005c 02       		.byte	0x2
 1077 005d 05       		.byte	0x5
 1078 005e 80070000 		.4byte	.LASF5
 1079 0062 03       		.uleb128 0x3
 1080 0063 4F020000 		.4byte	.LASF6
 1081 0067 03       		.byte	0x3
 1082 0068 36       		.byte	0x36
 1083 0069 6D000000 		.4byte	0x6d
 1084 006d 04       		.uleb128 0x4
 1085 006e 02       		.byte	0x2
 1086 006f 07       		.byte	0x7
 1087 0070 0D040000 		.4byte	.LASF7
 1088 0074 03       		.uleb128 0x3
 1089 0075 D3060000 		.4byte	.LASF8
 1090 0079 03       		.byte	0x3
 1091 007a 4F       		.byte	0x4f
 1092 007b 7F000000 		.4byte	0x7f
 1093 007f 04       		.uleb128 0x4
 1094 0080 04       		.byte	0x4
 1095 0081 05       		.byte	0x5
 1096 0082 07020000 		.4byte	.LASF9
 1097 0086 03       		.uleb128 0x3
 1098 0087 DD030000 		.4byte	.LASF10
 1099 008b 03       		.byte	0x3
 1100 008c 50       		.byte	0x50
 1101 008d 91000000 		.4byte	0x91
 1102 0091 04       		.uleb128 0x4
 1103 0092 04       		.byte	0x4
 1104 0093 07       		.byte	0x7
 1105 0094 B5030000 		.4byte	.LASF11
 1106 0098 04       		.uleb128 0x4
 1107 0099 08       		.byte	0x8
 1108 009a 05       		.byte	0x5
 1109 009b 9F010000 		.4byte	.LASF12
 1110 009f 04       		.uleb128 0x4
 1111 00a0 08       		.byte	0x8
 1112 00a1 07       		.byte	0x7
 1113 00a2 58020000 		.4byte	.LASF13
 1114 00a6 03       		.uleb128 0x3
 1115 00a7 DD000000 		.4byte	.LASF14
 1116 00ab 04       		.byte	0x4
 1117 00ac 24       		.byte	0x24
 1118 00ad B1000000 		.4byte	0xb1
 1119 00b1 04       		.uleb128 0x4
 1120 00b2 01       		.byte	0x1
 1121 00b3 02       		.byte	0x2
 1122 00b4 CD060000 		.4byte	.LASF15
 1123 00b8 05       		.uleb128 0x5
ARM GAS  /tmp/cc7j7qCO.s 			page 21


 1124 00b9 04       		.byte	0x4
 1125 00ba 06       		.uleb128 0x6
 1126 00bb 86000000 		.4byte	0x86
 1127 00bf 04       		.uleb128 0x4
 1128 00c0 04       		.byte	0x4
 1129 00c1 07       		.byte	0x7
 1130 00c2 58050000 		.4byte	.LASF16
 1131 00c6 04       		.uleb128 0x4
 1132 00c7 01       		.byte	0x1
 1133 00c8 08       		.byte	0x8
 1134 00c9 60080000 		.4byte	.LASF17
 1135 00cd 07       		.uleb128 0x7
 1136 00ce 4D050000 		.4byte	.LASF211
 1137 00d2 01       		.byte	0x1
 1138 00d3 05       		.byte	0x5
 1139 00d4 8C       		.byte	0x8c
 1140 00d5 08030000 		.4byte	0x308
 1141 00d9 08       		.uleb128 0x8
 1142 00da BA080000 		.4byte	.LASF18
 1143 00de 72       		.sleb128 -14
 1144 00df 08       		.uleb128 0x8
 1145 00e0 83030000 		.4byte	.LASF19
 1146 00e4 74       		.sleb128 -12
 1147 00e5 08       		.uleb128 0x8
 1148 00e6 7B080000 		.4byte	.LASF20
 1149 00ea 75       		.sleb128 -11
 1150 00eb 08       		.uleb128 0x8
 1151 00ec 24080000 		.4byte	.LASF21
 1152 00f0 76       		.sleb128 -10
 1153 00f1 08       		.uleb128 0x8
 1154 00f2 01040000 		.4byte	.LASF22
 1155 00f6 7B       		.sleb128 -5
 1156 00f7 08       		.uleb128 0x8
 1157 00f8 25090000 		.4byte	.LASF23
 1158 00fc 7C       		.sleb128 -4
 1159 00fd 08       		.uleb128 0x8
 1160 00fe AB020000 		.4byte	.LASF24
 1161 0102 7E       		.sleb128 -2
 1162 0103 08       		.uleb128 0x8
 1163 0104 EC040000 		.4byte	.LASF25
 1164 0108 7F       		.sleb128 -1
 1165 0109 08       		.uleb128 0x8
 1166 010a 43010000 		.4byte	.LASF26
 1167 010e 00       		.sleb128 0
 1168 010f 08       		.uleb128 0x8
 1169 0110 3B000000 		.4byte	.LASF27
 1170 0114 01       		.sleb128 1
 1171 0115 08       		.uleb128 0x8
 1172 0116 FB080000 		.4byte	.LASF28
 1173 011a 02       		.sleb128 2
 1174 011b 08       		.uleb128 0x8
 1175 011c 2F010000 		.4byte	.LASF29
 1176 0120 03       		.sleb128 3
 1177 0121 08       		.uleb128 0x8
 1178 0122 F2070000 		.4byte	.LASF30
 1179 0126 04       		.sleb128 4
 1180 0127 08       		.uleb128 0x8
ARM GAS  /tmp/cc7j7qCO.s 			page 22


 1181 0128 C60A0000 		.4byte	.LASF31
 1182 012c 05       		.sleb128 5
 1183 012d 08       		.uleb128 0x8
 1184 012e 85090000 		.4byte	.LASF32
 1185 0132 06       		.sleb128 6
 1186 0133 08       		.uleb128 0x8
 1187 0134 EA0A0000 		.4byte	.LASF33
 1188 0138 07       		.sleb128 7
 1189 0139 08       		.uleb128 0x8
 1190 013a CE070000 		.4byte	.LASF34
 1191 013e 08       		.sleb128 8
 1192 013f 08       		.uleb128 0x8
 1193 0140 E8050000 		.4byte	.LASF35
 1194 0144 09       		.sleb128 9
 1195 0145 08       		.uleb128 0x8
 1196 0146 8A070000 		.4byte	.LASF36
 1197 014a 0A       		.sleb128 10
 1198 014b 08       		.uleb128 0x8
 1199 014c F50A0000 		.4byte	.LASF37
 1200 0150 0B       		.sleb128 11
 1201 0151 08       		.uleb128 0x8
 1202 0152 70040000 		.4byte	.LASF38
 1203 0156 0C       		.sleb128 12
 1204 0157 08       		.uleb128 0x8
 1205 0158 FD050000 		.4byte	.LASF39
 1206 015c 0D       		.sleb128 13
 1207 015d 08       		.uleb128 0x8
 1208 015e 59030000 		.4byte	.LASF40
 1209 0162 0E       		.sleb128 14
 1210 0163 08       		.uleb128 0x8
 1211 0164 8C050000 		.4byte	.LASF41
 1212 0168 0F       		.sleb128 15
 1213 0169 08       		.uleb128 0x8
 1214 016a 22020000 		.4byte	.LASF42
 1215 016e 10       		.sleb128 16
 1216 016f 08       		.uleb128 0x8
 1217 0170 71030000 		.4byte	.LASF43
 1218 0174 11       		.sleb128 17
 1219 0175 08       		.uleb128 0x8
 1220 0176 6F0A0000 		.4byte	.LASF44
 1221 017a 12       		.sleb128 18
 1222 017b 08       		.uleb128 0x8
 1223 017c 41040000 		.4byte	.LASF45
 1224 0180 13       		.sleb128 19
 1225 0181 08       		.uleb128 0x8
 1226 0182 2D000000 		.4byte	.LASF46
 1227 0186 14       		.sleb128 20
 1228 0187 08       		.uleb128 0x8
 1229 0188 8A0A0000 		.4byte	.LASF47
 1230 018c 15       		.sleb128 21
 1231 018d 08       		.uleb128 0x8
 1232 018e 980A0000 		.4byte	.LASF48
 1233 0192 16       		.sleb128 22
 1234 0193 08       		.uleb128 0x8
 1235 0194 34020000 		.4byte	.LASF49
 1236 0198 17       		.sleb128 23
 1237 0199 08       		.uleb128 0x8
ARM GAS  /tmp/cc7j7qCO.s 			page 23


 1238 019a FC060000 		.4byte	.LASF50
 1239 019e 18       		.sleb128 24
 1240 019f 08       		.uleb128 0x8
 1241 01a0 1C070000 		.4byte	.LASF51
 1242 01a4 19       		.sleb128 25
 1243 01a5 08       		.uleb128 0x8
 1244 01a6 AA070000 		.4byte	.LASF52
 1245 01aa 1A       		.sleb128 26
 1246 01ab 08       		.uleb128 0x8
 1247 01ac F9040000 		.4byte	.LASF53
 1248 01b0 1B       		.sleb128 27
 1249 01b1 08       		.uleb128 0x8
 1250 01b2 7B090000 		.4byte	.LASF54
 1251 01b6 1C       		.sleb128 28
 1252 01b7 08       		.uleb128 0x8
 1253 01b8 E00A0000 		.4byte	.LASF55
 1254 01bc 1D       		.sleb128 29
 1255 01bd 08       		.uleb128 0x8
 1256 01be 1A010000 		.4byte	.LASF56
 1257 01c2 1E       		.sleb128 30
 1258 01c3 08       		.uleb128 0x8
 1259 01c4 8D000000 		.4byte	.LASF57
 1260 01c8 1F       		.sleb128 31
 1261 01c9 08       		.uleb128 0x8
 1262 01ca 620A0000 		.4byte	.LASF58
 1263 01ce 20       		.sleb128 32
 1264 01cf 08       		.uleb128 0x8
 1265 01d0 5C090000 		.4byte	.LASF59
 1266 01d4 21       		.sleb128 33
 1267 01d5 08       		.uleb128 0x8
 1268 01d6 0D010000 		.4byte	.LASF60
 1269 01da 22       		.sleb128 34
 1270 01db 08       		.uleb128 0x8
 1271 01dc 66040000 		.4byte	.LASF61
 1272 01e0 23       		.sleb128 35
 1273 01e1 08       		.uleb128 0x8
 1274 01e2 F3050000 		.4byte	.LASF62
 1275 01e6 24       		.sleb128 36
 1276 01e7 08       		.uleb128 0x8
 1277 01e8 90090000 		.4byte	.LASF63
 1278 01ec 25       		.sleb128 37
 1279 01ed 08       		.uleb128 0x8
 1280 01ee 18080000 		.4byte	.LASF64
 1281 01f2 26       		.sleb128 38
 1282 01f3 08       		.uleb128 0x8
 1283 01f4 69090000 		.4byte	.LASF65
 1284 01f8 27       		.sleb128 39
 1285 01f9 08       		.uleb128 0x8
 1286 01fa 57040000 		.4byte	.LASF66
 1287 01fe 28       		.sleb128 40
 1288 01ff 08       		.uleb128 0x8
 1289 0200 E4000000 		.4byte	.LASF67
 1290 0204 29       		.sleb128 41
 1291 0205 08       		.uleb128 0x8
 1292 0206 9A020000 		.4byte	.LASF68
 1293 020a 2A       		.sleb128 42
 1294 020b 08       		.uleb128 0x8
ARM GAS  /tmp/cc7j7qCO.s 			page 24


 1295 020c 57010000 		.4byte	.LASF69
 1296 0210 2B       		.sleb128 43
 1297 0211 08       		.uleb128 0x8
 1298 0212 B7020000 		.4byte	.LASF70
 1299 0216 2C       		.sleb128 44
 1300 0217 08       		.uleb128 0x8
 1301 0218 15050000 		.4byte	.LASF71
 1302 021c 2D       		.sleb128 45
 1303 021d 08       		.uleb128 0x8
 1304 021e 7C010000 		.4byte	.LASF72
 1305 0222 2E       		.sleb128 46
 1306 0223 08       		.uleb128 0x8
 1307 0224 4E080000 		.4byte	.LASF73
 1308 0228 2F       		.sleb128 47
 1309 0229 08       		.uleb128 0x8
 1310 022a C3060000 		.4byte	.LASF74
 1311 022e 30       		.sleb128 48
 1312 022f 08       		.uleb128 0x8
 1313 0230 4D010000 		.4byte	.LASF75
 1314 0234 31       		.sleb128 49
 1315 0235 08       		.uleb128 0x8
 1316 0236 C4050000 		.4byte	.LASF76
 1317 023a 32       		.sleb128 50
 1318 023b 08       		.uleb128 0x8
 1319 023c A7060000 		.4byte	.LASF77
 1320 0240 33       		.sleb128 51
 1321 0241 08       		.uleb128 0x8
 1322 0242 8F020000 		.4byte	.LASF78
 1323 0246 34       		.sleb128 52
 1324 0247 08       		.uleb128 0x8
 1325 0248 9F070000 		.4byte	.LASF79
 1326 024c 35       		.sleb128 53
 1327 024d 08       		.uleb128 0x8
 1328 024e 79020000 		.4byte	.LASF80
 1329 0252 36       		.sleb128 54
 1330 0253 08       		.uleb128 0x8
 1331 0254 9D080000 		.4byte	.LASF81
 1332 0258 37       		.sleb128 55
 1333 0259 08       		.uleb128 0x8
 1334 025a 37090000 		.4byte	.LASF82
 1335 025e 38       		.sleb128 56
 1336 025f 08       		.uleb128 0x8
 1337 0260 780A0000 		.4byte	.LASF83
 1338 0264 39       		.sleb128 57
 1339 0265 08       		.uleb128 0x8
 1340 0266 9E050000 		.4byte	.LASF84
 1341 026a 3A       		.sleb128 58
 1342 026b 08       		.uleb128 0x8
 1343 026c 08030000 		.4byte	.LASF85
 1344 0270 3B       		.sleb128 59
 1345 0271 08       		.uleb128 0x8
 1346 0272 B1060000 		.4byte	.LASF86
 1347 0276 3C       		.sleb128 60
 1348 0277 08       		.uleb128 0x8
 1349 0278 61050000 		.4byte	.LASF87
 1350 027c 3D       		.sleb128 61
 1351 027d 08       		.uleb128 0x8
ARM GAS  /tmp/cc7j7qCO.s 			page 25


 1352 027e 41020000 		.4byte	.LASF88
 1353 0282 3E       		.sleb128 62
 1354 0283 08       		.uleb128 0x8
 1355 0284 0F060000 		.4byte	.LASF89
 1356 0288 3F       		.sleb128 63
 1357 0289 08       		.uleb128 0x8
 1358 028a 44000000 		.4byte	.LASF90
 1359 028e C000     		.sleb128 64
 1360 0290 08       		.uleb128 0x8
 1361 0291 B9010000 		.4byte	.LASF91
 1362 0295 C100     		.sleb128 65
 1363 0297 08       		.uleb128 0x8
 1364 0298 B80A0000 		.4byte	.LASF92
 1365 029c C200     		.sleb128 66
 1366 029e 08       		.uleb128 0x8
 1367 029f 02080000 		.4byte	.LASF93
 1368 02a3 C300     		.sleb128 67
 1369 02a5 08       		.uleb128 0x8
 1370 02a6 A9000000 		.4byte	.LASF94
 1371 02aa C400     		.sleb128 68
 1372 02ac 08       		.uleb128 0x8
 1373 02ad E7010000 		.4byte	.LASF95
 1374 02b1 C500     		.sleb128 69
 1375 02b3 08       		.uleb128 0x8
 1376 02b4 1A030000 		.4byte	.LASF96
 1377 02b8 C600     		.sleb128 70
 1378 02ba 08       		.uleb128 0x8
 1379 02bb B0050000 		.4byte	.LASF97
 1380 02bf C700     		.sleb128 71
 1381 02c1 08       		.uleb128 0x8
 1382 02c2 A8030000 		.4byte	.LASF98
 1383 02c6 C800     		.sleb128 72
 1384 02c8 08       		.uleb128 0x8
 1385 02c9 71000000 		.4byte	.LASF99
 1386 02cd C900     		.sleb128 73
 1387 02cf 08       		.uleb128 0x8
 1388 02d0 ED030000 		.4byte	.LASF100
 1389 02d4 CA00     		.sleb128 74
 1390 02d6 08       		.uleb128 0x8
 1391 02d7 A7080000 		.4byte	.LASF101
 1392 02db CB00     		.sleb128 75
 1393 02dd 08       		.uleb128 0x8
 1394 02de CF0A0000 		.4byte	.LASF102
 1395 02e2 CC00     		.sleb128 76
 1396 02e4 08       		.uleb128 0x8
 1397 02e5 3C060000 		.4byte	.LASF103
 1398 02e9 CD00     		.sleb128 77
 1399 02eb 08       		.uleb128 0x8
 1400 02ec E2090000 		.4byte	.LASF104
 1401 02f0 CE00     		.sleb128 78
 1402 02f2 08       		.uleb128 0x8
 1403 02f3 C7010000 		.4byte	.LASF105
 1404 02f7 CF00     		.sleb128 79
 1405 02f9 08       		.uleb128 0x8
 1406 02fa 72070000 		.4byte	.LASF106
 1407 02fe D000     		.sleb128 80
 1408 0300 08       		.uleb128 0x8
ARM GAS  /tmp/cc7j7qCO.s 			page 26


 1409 0301 320A0000 		.4byte	.LASF107
 1410 0305 D100     		.sleb128 81
 1411 0307 00       		.byte	0
 1412 0308 09       		.uleb128 0x9
 1413 0309 86000000 		.4byte	0x86
 1414 030d 18030000 		.4byte	0x318
 1415 0311 0A       		.uleb128 0xa
 1416 0312 BF000000 		.4byte	0xbf
 1417 0316 01       		.byte	0x1
 1418 0317 00       		.byte	0
 1419 0318 06       		.uleb128 0x6
 1420 0319 62000000 		.4byte	0x62
 1421 031d 06       		.uleb128 0x6
 1422 031e 74000000 		.4byte	0x74
 1423 0322 0B       		.uleb128 0xb
 1424 0323 18       		.byte	0x18
 1425 0324 05       		.byte	0x5
 1426 0325 D301     		.2byte	0x1d3
 1427 0327 85030000 		.4byte	0x385
 1428 032b 0C       		.uleb128 0xc
 1429 032c 435200   		.ascii	"CR\000"
 1430 032f 05       		.byte	0x5
 1431 0330 D501     		.2byte	0x1d5
 1432 0332 BA000000 		.4byte	0xba
 1433 0336 02       		.byte	0x2
 1434 0337 23       		.byte	0x23
 1435 0338 00       		.uleb128 0
 1436 0339 0D       		.uleb128 0xd
 1437 033a DB080000 		.4byte	.LASF108
 1438 033e 05       		.byte	0x5
 1439 033f D601     		.2byte	0x1d6
 1440 0341 BA000000 		.4byte	0xba
 1441 0345 02       		.byte	0x2
 1442 0346 23       		.byte	0x23
 1443 0347 04       		.uleb128 0x4
 1444 0348 0C       		.uleb128 0xc
 1445 0349 50415200 		.ascii	"PAR\000"
 1446 034d 05       		.byte	0x5
 1447 034e D701     		.2byte	0x1d7
 1448 0350 BA000000 		.4byte	0xba
 1449 0354 02       		.byte	0x2
 1450 0355 23       		.byte	0x23
 1451 0356 08       		.uleb128 0x8
 1452 0357 0D       		.uleb128 0xd
 1453 0358 88000000 		.4byte	.LASF109
 1454 035c 05       		.byte	0x5
 1455 035d D801     		.2byte	0x1d8
 1456 035f BA000000 		.4byte	0xba
 1457 0363 02       		.byte	0x2
 1458 0364 23       		.byte	0x23
 1459 0365 0C       		.uleb128 0xc
 1460 0366 0D       		.uleb128 0xd
 1461 0367 49090000 		.4byte	.LASF110
 1462 036b 05       		.byte	0x5
 1463 036c D901     		.2byte	0x1d9
 1464 036e BA000000 		.4byte	0xba
 1465 0372 02       		.byte	0x2
ARM GAS  /tmp/cc7j7qCO.s 			page 27


 1466 0373 23       		.byte	0x23
 1467 0374 10       		.uleb128 0x10
 1468 0375 0C       		.uleb128 0xc
 1469 0376 46435200 		.ascii	"FCR\000"
 1470 037a 05       		.byte	0x5
 1471 037b DA01     		.2byte	0x1da
 1472 037d BA000000 		.4byte	0xba
 1473 0381 02       		.byte	0x2
 1474 0382 23       		.byte	0x23
 1475 0383 14       		.uleb128 0x14
 1476 0384 00       		.byte	0
 1477 0385 0E       		.uleb128 0xe
 1478 0386 E0080000 		.4byte	.LASF111
 1479 038a 05       		.byte	0x5
 1480 038b DB01     		.2byte	0x1db
 1481 038d 22030000 		.4byte	0x322
 1482 0391 0B       		.uleb128 0xb
 1483 0392 88       		.byte	0x88
 1484 0393 05       		.byte	0x5
 1485 0394 DB02     		.2byte	0x2db
 1486 0396 5E050000 		.4byte	0x55e
 1487 039a 0C       		.uleb128 0xc
 1488 039b 435200   		.ascii	"CR\000"
 1489 039e 05       		.byte	0x5
 1490 039f DD02     		.2byte	0x2dd
 1491 03a1 BA000000 		.4byte	0xba
 1492 03a5 02       		.byte	0x2
 1493 03a6 23       		.byte	0x23
 1494 03a7 00       		.uleb128 0
 1495 03a8 0D       		.uleb128 0xd
 1496 03a9 87020000 		.4byte	.LASF112
 1497 03ad 05       		.byte	0x5
 1498 03ae DE02     		.2byte	0x2de
 1499 03b0 BA000000 		.4byte	0xba
 1500 03b4 02       		.byte	0x2
 1501 03b5 23       		.byte	0x23
 1502 03b6 04       		.uleb128 0x4
 1503 03b7 0D       		.uleb128 0xd
 1504 03b8 3B0A0000 		.4byte	.LASF113
 1505 03bc 05       		.byte	0x5
 1506 03bd DF02     		.2byte	0x2df
 1507 03bf BA000000 		.4byte	0xba
 1508 03c3 02       		.byte	0x2
 1509 03c4 23       		.byte	0x23
 1510 03c5 08       		.uleb128 0x8
 1511 03c6 0C       		.uleb128 0xc
 1512 03c7 43495200 		.ascii	"CIR\000"
 1513 03cb 05       		.byte	0x5
 1514 03cc E002     		.2byte	0x2e0
 1515 03ce BA000000 		.4byte	0xba
 1516 03d2 02       		.byte	0x2
 1517 03d3 23       		.byte	0x23
 1518 03d4 0C       		.uleb128 0xc
 1519 03d5 0D       		.uleb128 0xd
 1520 03d6 D1010000 		.4byte	.LASF114
 1521 03da 05       		.byte	0x5
 1522 03db E102     		.2byte	0x2e1
ARM GAS  /tmp/cc7j7qCO.s 			page 28


 1523 03dd BA000000 		.4byte	0xba
 1524 03e1 02       		.byte	0x2
 1525 03e2 23       		.byte	0x23
 1526 03e3 10       		.uleb128 0x10
 1527 03e4 0D       		.uleb128 0xd
 1528 03e5 E4020000 		.4byte	.LASF115
 1529 03e9 05       		.byte	0x5
 1530 03ea E202     		.2byte	0x2e2
 1531 03ec BA000000 		.4byte	0xba
 1532 03f0 02       		.byte	0x2
 1533 03f1 23       		.byte	0x23
 1534 03f2 14       		.uleb128 0x14
 1535 03f3 0D       		.uleb128 0xd
 1536 03f4 4E040000 		.4byte	.LASF116
 1537 03f8 05       		.byte	0x5
 1538 03f9 E302     		.2byte	0x2e3
 1539 03fb BA000000 		.4byte	0xba
 1540 03ff 02       		.byte	0x2
 1541 0400 23       		.byte	0x23
 1542 0401 18       		.uleb128 0x18
 1543 0402 0D       		.uleb128 0xd
 1544 0403 4E060000 		.4byte	.LASF117
 1545 0407 05       		.byte	0x5
 1546 0408 E402     		.2byte	0x2e4
 1547 040a 86000000 		.4byte	0x86
 1548 040e 02       		.byte	0x2
 1549 040f 23       		.byte	0x23
 1550 0410 1C       		.uleb128 0x1c
 1551 0411 0D       		.uleb128 0xd
 1552 0412 33060000 		.4byte	.LASF118
 1553 0416 05       		.byte	0x5
 1554 0417 E502     		.2byte	0x2e5
 1555 0419 BA000000 		.4byte	0xba
 1556 041d 02       		.byte	0x2
 1557 041e 23       		.byte	0x23
 1558 041f 20       		.uleb128 0x20
 1559 0420 0D       		.uleb128 0xd
 1560 0421 10020000 		.4byte	.LASF119
 1561 0425 05       		.byte	0x5
 1562 0426 E602     		.2byte	0x2e6
 1563 0428 BA000000 		.4byte	0xba
 1564 042c 02       		.byte	0x2
 1565 042d 23       		.byte	0x23
 1566 042e 24       		.uleb128 0x24
 1567 042f 0D       		.uleb128 0xd
 1568 0430 58060000 		.4byte	.LASF120
 1569 0434 05       		.byte	0x5
 1570 0435 E702     		.2byte	0x2e7
 1571 0437 08030000 		.4byte	0x308
 1572 043b 02       		.byte	0x2
 1573 043c 23       		.byte	0x23
 1574 043d 28       		.uleb128 0x28
 1575 043e 0D       		.uleb128 0xd
 1576 043f FA090000 		.4byte	.LASF121
 1577 0443 05       		.byte	0x5
 1578 0444 E802     		.2byte	0x2e8
 1579 0446 BA000000 		.4byte	0xba
ARM GAS  /tmp/cc7j7qCO.s 			page 29


 1580 044a 02       		.byte	0x2
 1581 044b 23       		.byte	0x23
 1582 044c 30       		.uleb128 0x30
 1583 044d 0D       		.uleb128 0xd
 1584 044e F3080000 		.4byte	.LASF122
 1585 0452 05       		.byte	0x5
 1586 0453 E902     		.2byte	0x2e9
 1587 0455 BA000000 		.4byte	0xba
 1588 0459 02       		.byte	0x2
 1589 045a 23       		.byte	0x23
 1590 045b 34       		.uleb128 0x34
 1591 045c 0D       		.uleb128 0xd
 1592 045d BC050000 		.4byte	.LASF123
 1593 0461 05       		.byte	0x5
 1594 0462 EA02     		.2byte	0x2ea
 1595 0464 BA000000 		.4byte	0xba
 1596 0468 02       		.byte	0x2
 1597 0469 23       		.byte	0x23
 1598 046a 38       		.uleb128 0x38
 1599 046b 0D       		.uleb128 0xd
 1600 046c 62060000 		.4byte	.LASF124
 1601 0470 05       		.byte	0x5
 1602 0471 EB02     		.2byte	0x2eb
 1603 0473 86000000 		.4byte	0x86
 1604 0477 02       		.byte	0x2
 1605 0478 23       		.byte	0x23
 1606 0479 3C       		.uleb128 0x3c
 1607 047a 0D       		.uleb128 0xd
 1608 047b 34080000 		.4byte	.LASF125
 1609 047f 05       		.byte	0x5
 1610 0480 EC02     		.2byte	0x2ec
 1611 0482 BA000000 		.4byte	0xba
 1612 0486 02       		.byte	0x2
 1613 0487 23       		.byte	0x23
 1614 0488 40       		.uleb128 0x40
 1615 0489 0D       		.uleb128 0xd
 1616 048a D9070000 		.4byte	.LASF126
 1617 048e 05       		.byte	0x5
 1618 048f ED02     		.2byte	0x2ed
 1619 0491 BA000000 		.4byte	0xba
 1620 0495 02       		.byte	0x2
 1621 0496 23       		.byte	0x23
 1622 0497 44       		.uleb128 0x44
 1623 0498 0D       		.uleb128 0xd
 1624 0499 6C060000 		.4byte	.LASF127
 1625 049d 05       		.byte	0x5
 1626 049e EE02     		.2byte	0x2ee
 1627 04a0 08030000 		.4byte	0x308
 1628 04a4 02       		.byte	0x2
 1629 04a5 23       		.byte	0x23
 1630 04a6 48       		.uleb128 0x48
 1631 04a7 0D       		.uleb128 0xd
 1632 04a8 CC090000 		.4byte	.LASF128
 1633 04ac 05       		.byte	0x5
 1634 04ad EF02     		.2byte	0x2ef
 1635 04af BA000000 		.4byte	0xba
 1636 04b3 02       		.byte	0x2
ARM GAS  /tmp/cc7j7qCO.s 			page 30


 1637 04b4 23       		.byte	0x23
 1638 04b5 50       		.uleb128 0x50
 1639 04b6 0D       		.uleb128 0xd
 1640 04b7 D3000000 		.4byte	.LASF129
 1641 04bb 05       		.byte	0x5
 1642 04bc F002     		.2byte	0x2f0
 1643 04be BA000000 		.4byte	0xba
 1644 04c2 02       		.byte	0x2
 1645 04c3 23       		.byte	0x23
 1646 04c4 54       		.uleb128 0x54
 1647 04c5 0D       		.uleb128 0xd
 1648 04c6 95070000 		.4byte	.LASF130
 1649 04ca 05       		.byte	0x5
 1650 04cb F102     		.2byte	0x2f1
 1651 04cd BA000000 		.4byte	0xba
 1652 04d1 02       		.byte	0x2
 1653 04d2 23       		.byte	0x23
 1654 04d3 58       		.uleb128 0x58
 1655 04d4 0D       		.uleb128 0xd
 1656 04d5 76060000 		.4byte	.LASF131
 1657 04d9 05       		.byte	0x5
 1658 04da F202     		.2byte	0x2f2
 1659 04dc 86000000 		.4byte	0x86
 1660 04e0 02       		.byte	0x2
 1661 04e1 23       		.byte	0x23
 1662 04e2 5C       		.uleb128 0x5c
 1663 04e3 0D       		.uleb128 0xd
 1664 04e4 17000000 		.4byte	.LASF132
 1665 04e8 05       		.byte	0x5
 1666 04e9 F302     		.2byte	0x2f3
 1667 04eb BA000000 		.4byte	0xba
 1668 04ef 02       		.byte	0x2
 1669 04f0 23       		.byte	0x23
 1670 04f1 60       		.uleb128 0x60
 1671 04f2 0D       		.uleb128 0xd
 1672 04f3 90040000 		.4byte	.LASF133
 1673 04f7 05       		.byte	0x5
 1674 04f8 F402     		.2byte	0x2f4
 1675 04fa BA000000 		.4byte	0xba
 1676 04fe 02       		.byte	0x2
 1677 04ff 23       		.byte	0x23
 1678 0500 64       		.uleb128 0x64
 1679 0501 0D       		.uleb128 0xd
 1680 0502 80060000 		.4byte	.LASF134
 1681 0506 05       		.byte	0x5
 1682 0507 F502     		.2byte	0x2f5
 1683 0509 08030000 		.4byte	0x308
 1684 050d 02       		.byte	0x2
 1685 050e 23       		.byte	0x23
 1686 050f 68       		.uleb128 0x68
 1687 0510 0D       		.uleb128 0xd
 1688 0511 9C090000 		.4byte	.LASF135
 1689 0515 05       		.byte	0x5
 1690 0516 F602     		.2byte	0x2f6
 1691 0518 BA000000 		.4byte	0xba
 1692 051c 02       		.byte	0x2
 1693 051d 23       		.byte	0x23
ARM GAS  /tmp/cc7j7qCO.s 			page 31


 1694 051e 70       		.uleb128 0x70
 1695 051f 0C       		.uleb128 0xc
 1696 0520 43535200 		.ascii	"CSR\000"
 1697 0524 05       		.byte	0x5
 1698 0525 F702     		.2byte	0x2f7
 1699 0527 BA000000 		.4byte	0xba
 1700 052b 02       		.byte	0x2
 1701 052c 23       		.byte	0x23
 1702 052d 74       		.uleb128 0x74
 1703 052e 0D       		.uleb128 0xd
 1704 052f 8A060000 		.4byte	.LASF136
 1705 0533 05       		.byte	0x5
 1706 0534 F802     		.2byte	0x2f8
 1707 0536 08030000 		.4byte	0x308
 1708 053a 02       		.byte	0x2
 1709 053b 23       		.byte	0x23
 1710 053c 78       		.uleb128 0x78
 1711 053d 0D       		.uleb128 0xd
 1712 053e 75090000 		.4byte	.LASF137
 1713 0542 05       		.byte	0x5
 1714 0543 F902     		.2byte	0x2f9
 1715 0545 BA000000 		.4byte	0xba
 1716 0549 03       		.byte	0x3
 1717 054a 23       		.byte	0x23
 1718 054b 8001     		.uleb128 0x80
 1719 054d 0D       		.uleb128 0xd
 1720 054e 36040000 		.4byte	.LASF138
 1721 0552 05       		.byte	0x5
 1722 0553 FA02     		.2byte	0x2fa
 1723 0555 BA000000 		.4byte	0xba
 1724 0559 03       		.byte	0x3
 1725 055a 23       		.byte	0x23
 1726 055b 8401     		.uleb128 0x84
 1727 055d 00       		.byte	0
 1728 055e 0E       		.uleb128 0xe
 1729 055f D1030000 		.4byte	.LASF139
 1730 0563 05       		.byte	0x5
 1731 0564 FB02     		.2byte	0x2fb
 1732 0566 91030000 		.4byte	0x391
 1733 056a 0B       		.uleb128 0xb
 1734 056b 1C       		.byte	0x1c
 1735 056c 05       		.byte	0x5
 1736 056d 9303     		.2byte	0x393
 1737 056f 44060000 		.4byte	0x644
 1738 0573 0C       		.uleb128 0xc
 1739 0574 535200   		.ascii	"SR\000"
 1740 0577 05       		.byte	0x5
 1741 0578 9503     		.2byte	0x395
 1742 057a 18030000 		.4byte	0x318
 1743 057e 02       		.byte	0x2
 1744 057f 23       		.byte	0x23
 1745 0580 00       		.uleb128 0
 1746 0581 0D       		.uleb128 0xd
 1747 0582 4E060000 		.4byte	.LASF117
 1748 0586 05       		.byte	0x5
 1749 0587 9603     		.2byte	0x396
 1750 0589 62000000 		.4byte	0x62
ARM GAS  /tmp/cc7j7qCO.s 			page 32


 1751 058d 02       		.byte	0x2
 1752 058e 23       		.byte	0x23
 1753 058f 02       		.uleb128 0x2
 1754 0590 0C       		.uleb128 0xc
 1755 0591 445200   		.ascii	"DR\000"
 1756 0594 05       		.byte	0x5
 1757 0595 9703     		.2byte	0x397
 1758 0597 18030000 		.4byte	0x318
 1759 059b 02       		.byte	0x2
 1760 059c 23       		.byte	0x23
 1761 059d 04       		.uleb128 0x4
 1762 059e 0D       		.uleb128 0xd
 1763 059f 58060000 		.4byte	.LASF120
 1764 05a3 05       		.byte	0x5
 1765 05a4 9803     		.2byte	0x398
 1766 05a6 62000000 		.4byte	0x62
 1767 05aa 02       		.byte	0x2
 1768 05ab 23       		.byte	0x23
 1769 05ac 06       		.uleb128 0x6
 1770 05ad 0C       		.uleb128 0xc
 1771 05ae 42525200 		.ascii	"BRR\000"
 1772 05b2 05       		.byte	0x5
 1773 05b3 9903     		.2byte	0x399
 1774 05b5 18030000 		.4byte	0x318
 1775 05b9 02       		.byte	0x2
 1776 05ba 23       		.byte	0x23
 1777 05bb 08       		.uleb128 0x8
 1778 05bc 0D       		.uleb128 0xd
 1779 05bd 62060000 		.4byte	.LASF124
 1780 05c1 05       		.byte	0x5
 1781 05c2 9A03     		.2byte	0x39a
 1782 05c4 62000000 		.4byte	0x62
 1783 05c8 02       		.byte	0x2
 1784 05c9 23       		.byte	0x23
 1785 05ca 0A       		.uleb128 0xa
 1786 05cb 0C       		.uleb128 0xc
 1787 05cc 43523100 		.ascii	"CR1\000"
 1788 05d0 05       		.byte	0x5
 1789 05d1 9B03     		.2byte	0x39b
 1790 05d3 18030000 		.4byte	0x318
 1791 05d7 02       		.byte	0x2
 1792 05d8 23       		.byte	0x23
 1793 05d9 0C       		.uleb128 0xc
 1794 05da 0D       		.uleb128 0xd
 1795 05db 6C060000 		.4byte	.LASF127
 1796 05df 05       		.byte	0x5
 1797 05e0 9C03     		.2byte	0x39c
 1798 05e2 62000000 		.4byte	0x62
 1799 05e6 02       		.byte	0x2
 1800 05e7 23       		.byte	0x23
 1801 05e8 0E       		.uleb128 0xe
 1802 05e9 0C       		.uleb128 0xc
 1803 05ea 43523200 		.ascii	"CR2\000"
 1804 05ee 05       		.byte	0x5
 1805 05ef 9D03     		.2byte	0x39d
 1806 05f1 18030000 		.4byte	0x318
 1807 05f5 02       		.byte	0x2
ARM GAS  /tmp/cc7j7qCO.s 			page 33


 1808 05f6 23       		.byte	0x23
 1809 05f7 10       		.uleb128 0x10
 1810 05f8 0D       		.uleb128 0xd
 1811 05f9 76060000 		.4byte	.LASF131
 1812 05fd 05       		.byte	0x5
 1813 05fe 9E03     		.2byte	0x39e
 1814 0600 62000000 		.4byte	0x62
 1815 0604 02       		.byte	0x2
 1816 0605 23       		.byte	0x23
 1817 0606 12       		.uleb128 0x12
 1818 0607 0C       		.uleb128 0xc
 1819 0608 43523300 		.ascii	"CR3\000"
 1820 060c 05       		.byte	0x5
 1821 060d 9F03     		.2byte	0x39f
 1822 060f 18030000 		.4byte	0x318
 1823 0613 02       		.byte	0x2
 1824 0614 23       		.byte	0x23
 1825 0615 14       		.uleb128 0x14
 1826 0616 0D       		.uleb128 0xd
 1827 0617 80060000 		.4byte	.LASF134
 1828 061b 05       		.byte	0x5
 1829 061c A003     		.2byte	0x3a0
 1830 061e 62000000 		.4byte	0x62
 1831 0622 02       		.byte	0x2
 1832 0623 23       		.byte	0x23
 1833 0624 16       		.uleb128 0x16
 1834 0625 0D       		.uleb128 0xd
 1835 0626 DA010000 		.4byte	.LASF140
 1836 062a 05       		.byte	0x5
 1837 062b A103     		.2byte	0x3a1
 1838 062d 18030000 		.4byte	0x318
 1839 0631 02       		.byte	0x2
 1840 0632 23       		.byte	0x23
 1841 0633 18       		.uleb128 0x18
 1842 0634 0D       		.uleb128 0xd
 1843 0635 8A060000 		.4byte	.LASF136
 1844 0639 05       		.byte	0x5
 1845 063a A203     		.2byte	0x3a2
 1846 063c 62000000 		.4byte	0x62
 1847 0640 02       		.byte	0x2
 1848 0641 23       		.byte	0x23
 1849 0642 1A       		.uleb128 0x1a
 1850 0643 00       		.byte	0
 1851 0644 0E       		.uleb128 0xe
 1852 0645 82040000 		.4byte	.LASF141
 1853 0649 05       		.byte	0x5
 1854 064a A303     		.2byte	0x3a3
 1855 064c 6A050000 		.4byte	0x56a
 1856 0650 0F       		.uleb128 0xf
 1857 0651 0C       		.byte	0xc
 1858 0652 06       		.byte	0x6
 1859 0653 DA       		.byte	0xda
 1860 0654 9F060000 		.4byte	0x69f
 1861 0658 10       		.uleb128 0x10
 1862 0659 BB000000 		.4byte	.LASF142
 1863 065d 06       		.byte	0x6
 1864 065e DB       		.byte	0xdb
ARM GAS  /tmp/cc7j7qCO.s 			page 34


 1865 065f 9F060000 		.4byte	0x69f
 1866 0663 02       		.byte	0x2
 1867 0664 23       		.byte	0x23
 1868 0665 00       		.uleb128 0
 1869 0666 10       		.uleb128 0x10
 1870 0667 FD070000 		.4byte	.LASF143
 1871 066b 06       		.byte	0x6
 1872 066c DC       		.byte	0xdc
 1873 066d A5060000 		.4byte	0x6a5
 1874 0671 02       		.byte	0x2
 1875 0672 23       		.byte	0x23
 1876 0673 04       		.uleb128 0x4
 1877 0674 10       		.uleb128 0x10
 1878 0675 E6030000 		.4byte	.LASF144
 1879 0679 06       		.byte	0x6
 1880 067a DD       		.byte	0xdd
 1881 067b 49000000 		.4byte	0x49
 1882 067f 02       		.byte	0x2
 1883 0680 23       		.byte	0x23
 1884 0681 08       		.uleb128 0x8
 1885 0682 10       		.uleb128 0x10
 1886 0683 ED020000 		.4byte	.LASF145
 1887 0687 06       		.byte	0x6
 1888 0688 DF       		.byte	0xdf
 1889 0689 49000000 		.4byte	0x49
 1890 068d 02       		.byte	0x2
 1891 068e 23       		.byte	0x23
 1892 068f 09       		.uleb128 0x9
 1893 0690 10       		.uleb128 0x10
 1894 0691 F3000000 		.4byte	.LASF146
 1895 0695 06       		.byte	0x6
 1896 0696 E0       		.byte	0xe0
 1897 0697 49000000 		.4byte	0x49
 1898 069b 02       		.byte	0x2
 1899 069c 23       		.byte	0x23
 1900 069d 0A       		.uleb128 0xa
 1901 069e 00       		.byte	0
 1902 069f 11       		.uleb128 0x11
 1903 06a0 04       		.byte	0x4
 1904 06a1 85030000 		.4byte	0x385
 1905 06a5 11       		.uleb128 0x11
 1906 06a6 04       		.byte	0x4
 1907 06a7 BA000000 		.4byte	0xba
 1908 06ab 03       		.uleb128 0x3
 1909 06ac 94060000 		.4byte	.LASF147
 1910 06b0 06       		.byte	0x6
 1911 06b1 E1       		.byte	0xe1
 1912 06b2 50060000 		.4byte	0x650
 1913 06b6 03       		.uleb128 0x3
 1914 06b7 99030000 		.4byte	.LASF148
 1915 06bb 06       		.byte	0x6
 1916 06bc EA       		.byte	0xea
 1917 06bd C1060000 		.4byte	0x6c1
 1918 06c1 11       		.uleb128 0x11
 1919 06c2 04       		.byte	0x4
 1920 06c3 C7060000 		.4byte	0x6c7
 1921 06c7 12       		.uleb128 0x12
ARM GAS  /tmp/cc7j7qCO.s 			page 35


 1922 06c8 01       		.byte	0x1
 1923 06c9 D8060000 		.4byte	0x6d8
 1924 06cd 13       		.uleb128 0x13
 1925 06ce B8000000 		.4byte	0xb8
 1926 06d2 13       		.uleb128 0x13
 1927 06d3 86000000 		.4byte	0x86
 1928 06d7 00       		.byte	0
 1929 06d8 11       		.uleb128 0x11
 1930 06d9 04       		.byte	0x4
 1931 06da 44060000 		.4byte	0x644
 1932 06de 11       		.uleb128 0x11
 1933 06df 04       		.byte	0x4
 1934 06e0 E4060000 		.4byte	0x6e4
 1935 06e4 14       		.uleb128 0x14
 1936 06e5 AB060000 		.4byte	0x6ab
 1937 06e9 15       		.uleb128 0x15
 1938 06ea 01       		.byte	0x1
 1939 06eb 07       		.byte	0x7
 1940 06ec 41       		.byte	0x41
 1941 06ed 04070000 		.4byte	0x704
 1942 06f1 08       		.uleb128 0x8
 1943 06f2 20040000 		.4byte	.LASF149
 1944 06f6 00       		.sleb128 0
 1945 06f7 08       		.uleb128 0x8
 1946 06f8 2C040000 		.4byte	.LASF150
 1947 06fc 01       		.sleb128 1
 1948 06fd 08       		.uleb128 0x8
 1949 06fe 2C030000 		.4byte	.LASF151
 1950 0702 02       		.sleb128 2
 1951 0703 00       		.byte	0
 1952 0704 03       		.uleb128 0x3
 1953 0705 C2070000 		.4byte	.LASF152
 1954 0709 07       		.byte	0x7
 1955 070a 45       		.byte	0x45
 1956 070b E9060000 		.4byte	0x6e9
 1957 070f 15       		.uleb128 0x15
 1958 0710 01       		.byte	0x1
 1959 0711 07       		.byte	0x7
 1960 0712 4A       		.byte	0x4a
 1961 0713 2A070000 		.4byte	0x72a
 1962 0717 08       		.uleb128 0x8
 1963 0718 CE080000 		.4byte	.LASF153
 1964 071c 00       		.sleb128 0
 1965 071d 08       		.uleb128 0x8
 1966 071e 37030000 		.4byte	.LASF154
 1967 0722 01       		.sleb128 1
 1968 0723 08       		.uleb128 0x8
 1969 0724 E1070000 		.4byte	.LASF155
 1970 0728 02       		.sleb128 2
 1971 0729 00       		.byte	0
 1972 072a 03       		.uleb128 0x3
 1973 072b 25060000 		.4byte	.LASF156
 1974 072f 07       		.byte	0x7
 1975 0730 4E       		.byte	0x4e
 1976 0731 0F070000 		.4byte	0x70f
 1977 0735 15       		.uleb128 0x15
 1978 0736 01       		.byte	0x1
ARM GAS  /tmp/cc7j7qCO.s 			page 36


 1979 0737 07       		.byte	0x7
 1980 0738 53       		.byte	0x53
 1981 0739 50070000 		.4byte	0x750
 1982 073d 08       		.uleb128 0x8
 1983 073e 90080000 		.4byte	.LASF157
 1984 0742 00       		.sleb128 0
 1985 0743 08       		.uleb128 0x8
 1986 0744 06050000 		.4byte	.LASF158
 1987 0748 01       		.sleb128 1
 1988 0749 08       		.uleb128 0x8
 1989 074a 7B050000 		.4byte	.LASF159
 1990 074e 02       		.sleb128 2
 1991 074f 00       		.byte	0
 1992 0750 03       		.uleb128 0x3
 1993 0751 4E090000 		.4byte	.LASF160
 1994 0755 07       		.byte	0x7
 1995 0756 57       		.byte	0x57
 1996 0757 35070000 		.4byte	0x735
 1997 075b 0E       		.uleb128 0xe
 1998 075c 21000000 		.4byte	.LASF161
 1999 0760 08       		.byte	0x8
 2000 0761 FE01     		.2byte	0x1fe
 2001 0763 86000000 		.4byte	0x86
 2002 0767 0E       		.uleb128 0xe
 2003 0768 D9020000 		.4byte	.LASF162
 2004 076c 08       		.byte	0x8
 2005 076d 0302     		.2byte	0x203
 2006 076f 73070000 		.4byte	0x773
 2007 0773 16       		.uleb128 0x16
 2008 0774 D9020000 		.4byte	.LASF162
 2009 0778 1C       		.byte	0x1c
 2010 0779 08       		.byte	0x8
 2011 077a 4B02     		.2byte	0x24b
 2012 077c 08080000 		.4byte	0x808
 2013 0780 0D       		.uleb128 0xd
 2014 0781 F9010000 		.4byte	.LASF163
 2015 0785 08       		.byte	0x8
 2016 0786 4F02     		.2byte	0x24f
 2017 0788 04070000 		.4byte	0x704
 2018 078c 02       		.byte	0x2
 2019 078d 23       		.byte	0x23
 2020 078e 00       		.uleb128 0
 2021 078f 0D       		.uleb128 0xd
 2022 0790 FF010000 		.4byte	.LASF164
 2023 0794 08       		.byte	0x8
 2024 0795 5302     		.2byte	0x253
 2025 0797 2A070000 		.4byte	0x72a
 2026 079b 02       		.byte	0x2
 2027 079c 23       		.byte	0x23
 2028 079d 01       		.uleb128 0x1
 2029 079e 0D       		.uleb128 0xd
 2030 079f DF010000 		.4byte	.LASF165
 2031 07a3 08       		.byte	0x8
 2032 07a4 5702     		.2byte	0x257
 2033 07a6 50070000 		.4byte	0x750
 2034 07aa 02       		.byte	0x2
 2035 07ab 23       		.byte	0x23
ARM GAS  /tmp/cc7j7qCO.s 			page 37


 2036 07ac 02       		.uleb128 0x2
 2037 07ad 0D       		.uleb128 0xd
 2038 07ae 89080000 		.4byte	.LASF166
 2039 07b2 08       		.byte	0x8
 2040 07b3 5B02     		.2byte	0x25b
 2041 07b5 0F090000 		.4byte	0x90f
 2042 07b9 02       		.byte	0x2
 2043 07ba 23       		.byte	0x23
 2044 07bb 04       		.uleb128 0x4
 2045 07bc 0D       		.uleb128 0xd
 2046 07bd 46030000 		.4byte	.LASF167
 2047 07c1 08       		.byte	0x8
 2048 07c2 6302     		.2byte	0x263
 2049 07c4 D8060000 		.4byte	0x6d8
 2050 07c8 02       		.byte	0x2
 2051 07c9 23       		.byte	0x23
 2052 07ca 08       		.uleb128 0x8
 2053 07cb 0D       		.uleb128 0xd
 2054 07cc EC090000 		.4byte	.LASF168
 2055 07d0 08       		.byte	0x8
 2056 07d1 6702     		.2byte	0x267
 2057 07d3 86000000 		.4byte	0x86
 2058 07d7 02       		.byte	0x2
 2059 07d8 23       		.byte	0x23
 2060 07d9 0C       		.uleb128 0xc
 2061 07da 0D       		.uleb128 0xd
 2062 07db C2000000 		.4byte	.LASF169
 2063 07df 08       		.byte	0x8
 2064 07e0 6B02     		.2byte	0x26b
 2065 07e2 DE060000 		.4byte	0x6de
 2066 07e6 02       		.byte	0x2
 2067 07e7 23       		.byte	0x23
 2068 07e8 10       		.uleb128 0x10
 2069 07e9 0D       		.uleb128 0xd
 2070 07ea 48060000 		.4byte	.LASF170
 2071 07ee 08       		.byte	0x8
 2072 07ef 6F02     		.2byte	0x26f
 2073 07f1 DE060000 		.4byte	0x6de
 2074 07f5 02       		.byte	0x2
 2075 07f6 23       		.byte	0x23
 2076 07f7 14       		.uleb128 0x14
 2077 07f8 0D       		.uleb128 0xd
 2078 07f9 3D010000 		.4byte	.LASF171
 2079 07fd 08       		.byte	0x8
 2080 07fe 7302     		.2byte	0x273
 2081 0800 18030000 		.4byte	0x318
 2082 0804 02       		.byte	0x2
 2083 0805 23       		.byte	0x23
 2084 0806 18       		.uleb128 0x18
 2085 0807 00       		.byte	0
 2086 0808 0E       		.uleb128 0xe
 2087 0809 19020000 		.4byte	.LASF172
 2088 080d 08       		.byte	0x8
 2089 080e 0A02     		.2byte	0x20a
 2090 0810 14080000 		.4byte	0x814
 2091 0814 11       		.uleb128 0x11
 2092 0815 04       		.byte	0x4
ARM GAS  /tmp/cc7j7qCO.s 			page 38


 2093 0816 1A080000 		.4byte	0x81a
 2094 081a 12       		.uleb128 0x12
 2095 081b 01       		.byte	0x1
 2096 081c 26080000 		.4byte	0x826
 2097 0820 13       		.uleb128 0x13
 2098 0821 26080000 		.4byte	0x826
 2099 0825 00       		.byte	0
 2100 0826 11       		.uleb128 0x11
 2101 0827 04       		.byte	0x4
 2102 0828 67070000 		.4byte	0x767
 2103 082c 0E       		.uleb128 0xe
 2104 082d 7E000000 		.4byte	.LASF173
 2105 0831 08       		.byte	0x8
 2106 0832 1202     		.2byte	0x212
 2107 0834 38080000 		.4byte	0x838
 2108 0838 11       		.uleb128 0x11
 2109 0839 04       		.byte	0x4
 2110 083a 3E080000 		.4byte	0x83e
 2111 083e 12       		.uleb128 0x12
 2112 083f 01       		.byte	0x1
 2113 0840 4F080000 		.4byte	0x84f
 2114 0844 13       		.uleb128 0x13
 2115 0845 26080000 		.4byte	0x826
 2116 0849 13       		.uleb128 0x13
 2117 084a 62000000 		.4byte	0x62
 2118 084e 00       		.byte	0
 2119 084f 0E       		.uleb128 0xe
 2120 0850 C7030000 		.4byte	.LASF174
 2121 0854 08       		.byte	0x8
 2122 0855 1A02     		.2byte	0x21a
 2123 0857 5B080000 		.4byte	0x85b
 2124 085b 11       		.uleb128 0x11
 2125 085c 04       		.byte	0x4
 2126 085d 61080000 		.4byte	0x861
 2127 0861 12       		.uleb128 0x12
 2128 0862 01       		.byte	0x1
 2129 0863 72080000 		.4byte	0x872
 2130 0867 13       		.uleb128 0x13
 2131 0868 26080000 		.4byte	0x826
 2132 086c 13       		.uleb128 0x13
 2133 086d 5B070000 		.4byte	0x75b
 2134 0871 00       		.byte	0
 2135 0872 0B       		.uleb128 0xb
 2136 0873 20       		.byte	0x20
 2137 0874 08       		.byte	0x8
 2138 0875 2002     		.2byte	0x220
 2139 0877 03090000 		.4byte	0x903
 2140 087b 0D       		.uleb128 0xd
 2141 087c 0E080000 		.4byte	.LASF175
 2142 0880 08       		.byte	0x8
 2143 0881 2402     		.2byte	0x224
 2144 0883 08080000 		.4byte	0x808
 2145 0887 02       		.byte	0x2
 2146 0888 23       		.byte	0x23
 2147 0889 00       		.uleb128 0
 2148 088a 0D       		.uleb128 0xd
 2149 088b B4090000 		.4byte	.LASF176
ARM GAS  /tmp/cc7j7qCO.s 			page 39


 2150 088f 08       		.byte	0x8
 2151 0890 2802     		.2byte	0x228
 2152 0892 08080000 		.4byte	0x808
 2153 0896 02       		.byte	0x2
 2154 0897 23       		.byte	0x23
 2155 0898 04       		.uleb128 0x4
 2156 0899 0D       		.uleb128 0xd
 2157 089a 1C060000 		.4byte	.LASF177
 2158 089e 08       		.byte	0x8
 2159 089f 2C02     		.2byte	0x22c
 2160 08a1 08080000 		.4byte	0x808
 2161 08a5 02       		.byte	0x2
 2162 08a6 23       		.byte	0x23
 2163 08a7 08       		.uleb128 0x8
 2164 08a8 0D       		.uleb128 0xd
 2165 08a9 67000000 		.4byte	.LASF178
 2166 08ad 08       		.byte	0x8
 2167 08ae 3002     		.2byte	0x230
 2168 08b0 2C080000 		.4byte	0x82c
 2169 08b4 02       		.byte	0x2
 2170 08b5 23       		.byte	0x23
 2171 08b6 0C       		.uleb128 0xc
 2172 08b7 0D       		.uleb128 0xd
 2173 08b8 9A040000 		.4byte	.LASF179
 2174 08bc 08       		.byte	0x8
 2175 08bd 3402     		.2byte	0x234
 2176 08bf 4F080000 		.4byte	0x84f
 2177 08c3 02       		.byte	0x2
 2178 08c4 23       		.byte	0x23
 2179 08c5 10       		.uleb128 0x10
 2180 08c6 0D       		.uleb128 0xd
 2181 08c7 F4090000 		.4byte	.LASF180
 2182 08cb 08       		.byte	0x8
 2183 08cc 3902     		.2byte	0x239
 2184 08ce 86000000 		.4byte	0x86
 2185 08d2 02       		.byte	0x2
 2186 08d3 23       		.byte	0x23
 2187 08d4 14       		.uleb128 0x14
 2188 08d5 0C       		.uleb128 0xc
 2189 08d6 63723100 		.ascii	"cr1\000"
 2190 08da 08       		.byte	0x8
 2191 08db 3D02     		.2byte	0x23d
 2192 08dd 62000000 		.4byte	0x62
 2193 08e1 02       		.byte	0x2
 2194 08e2 23       		.byte	0x23
 2195 08e3 18       		.uleb128 0x18
 2196 08e4 0C       		.uleb128 0xc
 2197 08e5 63723200 		.ascii	"cr2\000"
 2198 08e9 08       		.byte	0x8
 2199 08ea 4102     		.2byte	0x241
 2200 08ec 62000000 		.4byte	0x62
 2201 08f0 02       		.byte	0x2
 2202 08f1 23       		.byte	0x23
 2203 08f2 1A       		.uleb128 0x1a
 2204 08f3 0C       		.uleb128 0xc
 2205 08f4 63723300 		.ascii	"cr3\000"
 2206 08f8 08       		.byte	0x8
ARM GAS  /tmp/cc7j7qCO.s 			page 40


 2207 08f9 4502     		.2byte	0x245
 2208 08fb 62000000 		.4byte	0x62
 2209 08ff 02       		.byte	0x2
 2210 0900 23       		.byte	0x23
 2211 0901 1C       		.uleb128 0x1c
 2212 0902 00       		.byte	0
 2213 0903 0E       		.uleb128 0xe
 2214 0904 24010000 		.4byte	.LASF181
 2215 0908 08       		.byte	0x8
 2216 0909 4602     		.2byte	0x246
 2217 090b 72080000 		.4byte	0x872
 2218 090f 11       		.uleb128 0x11
 2219 0910 04       		.byte	0x4
 2220 0911 15090000 		.4byte	0x915
 2221 0915 14       		.uleb128 0x14
 2222 0916 03090000 		.4byte	0x903
 2223 091a 17       		.uleb128 0x17
 2224 091b 0B090000 		.4byte	.LASF184
 2225 091f 01       		.byte	0x1
 2226 0920 F3       		.byte	0xf3
 2227 0921 01       		.byte	0x1
 2228 0922 01       		.byte	0x1
 2229 0923 3E090000 		.4byte	0x93e
 2230 0927 18       		.uleb128 0x18
 2231 0928 52050000 		.4byte	.LASF182
 2232 092c 01       		.byte	0x1
 2233 092d F3       		.byte	0xf3
 2234 092e 26080000 		.4byte	0x826
 2235 0932 18       		.uleb128 0x18
 2236 0933 BE090000 		.4byte	.LASF183
 2237 0937 01       		.byte	0x1
 2238 0938 F3       		.byte	0xf3
 2239 0939 86000000 		.4byte	0x86
 2240 093d 00       		.byte	0
 2241 093e 19       		.uleb128 0x19
 2242 093f 3D050000 		.4byte	.LASF185
 2243 0943 01       		.byte	0x1
 2244 0944 3801     		.2byte	0x138
 2245 0946 01       		.byte	0x1
 2246 0947 01       		.byte	0x1
 2247 0948 6E090000 		.4byte	0x96e
 2248 094c 1A       		.uleb128 0x1a
 2249 094d 52050000 		.4byte	.LASF182
 2250 0951 01       		.byte	0x1
 2251 0952 3801     		.2byte	0x138
 2252 0954 26080000 		.4byte	0x826
 2253 0958 1B       		.uleb128 0x1b
 2254 0959 737200   		.ascii	"sr\000"
 2255 095c 01       		.byte	0x1
 2256 095d 3901     		.2byte	0x139
 2257 095f 62000000 		.4byte	0x62
 2258 0963 1B       		.uleb128 0x1b
 2259 0964 7500     		.ascii	"u\000"
 2260 0966 01       		.byte	0x1
 2261 0967 3A01     		.2byte	0x13a
 2262 0969 D8060000 		.4byte	0x6d8
 2263 096d 00       		.byte	0
ARM GAS  /tmp/cc7j7qCO.s 			page 41


 2264 096e 1C       		.uleb128 0x1c
 2265 096f F7020000 		.4byte	.LASF186
 2266 0973 01       		.byte	0x1
 2267 0974 A0       		.byte	0xa0
 2268 0975 01       		.byte	0x1
 2269 0976 00000000 		.4byte	.LFB119
 2270 097a 30000000 		.4byte	.LFE119
 2271 097e 00000000 		.4byte	.LLST0
 2272 0982 01       		.byte	0x1
 2273 0983 A6090000 		.4byte	0x9a6
 2274 0987 1D       		.uleb128 0x1d
 2275 0988 52050000 		.4byte	.LASF182
 2276 098c 01       		.byte	0x1
 2277 098d A0       		.byte	0xa0
 2278 098e 26080000 		.4byte	0x826
 2279 0992 20000000 		.4byte	.LLST1
 2280 0996 1E       		.uleb128 0x1e
 2281 0997 76080000 		.4byte	.LASF199
 2282 099b 01       		.byte	0x1
 2283 099c A1       		.byte	0xa1
 2284 099d 86000000 		.4byte	0x86
 2285 09a1 50000000 		.4byte	.LLST2
 2286 09a5 00       		.byte	0
 2287 09a6 1C       		.uleb128 0x1c
 2288 09a7 C8000000 		.4byte	.LASF187
 2289 09ab 01       		.byte	0x1
 2290 09ac B5       		.byte	0xb5
 2291 09ad 01       		.byte	0x1
 2292 09ae 00000000 		.4byte	.LFB120
 2293 09b2 4C000000 		.4byte	.LFE120
 2294 09b6 A2000000 		.4byte	.LLST3
 2295 09ba 01       		.byte	0x1
 2296 09bb CF090000 		.4byte	0x9cf
 2297 09bf 1D       		.uleb128 0x1d
 2298 09c0 52050000 		.4byte	.LASF182
 2299 09c4 01       		.byte	0x1
 2300 09c5 B5       		.byte	0xb5
 2301 09c6 26080000 		.4byte	0x826
 2302 09ca C2000000 		.4byte	.LLST4
 2303 09ce 00       		.byte	0
 2304 09cf 1F       		.uleb128 0x1f
 2305 09d0 CE050000 		.4byte	.LASF188
 2306 09d4 01       		.byte	0x1
 2307 09d5 1B01     		.2byte	0x11b
 2308 09d7 01       		.byte	0x1
 2309 09d8 00000000 		.4byte	.LFB123
 2310 09dc 4A000000 		.4byte	.LFE123
 2311 09e0 E3000000 		.4byte	.LLST5
 2312 09e4 01       		.byte	0x1
 2313 09e5 230A0000 		.4byte	0xa23
 2314 09e9 20       		.uleb128 0x20
 2315 09ea 52050000 		.4byte	.LASF182
 2316 09ee 01       		.byte	0x1
 2317 09ef 1B01     		.2byte	0x11b
 2318 09f1 26080000 		.4byte	0x826
 2319 09f5 03010000 		.4byte	.LLST6
 2320 09f9 20       		.uleb128 0x20
ARM GAS  /tmp/cc7j7qCO.s 			page 42


 2321 09fa BE090000 		.4byte	.LASF183
 2322 09fe 01       		.byte	0x1
 2323 09ff 1B01     		.2byte	0x11b
 2324 0a01 86000000 		.4byte	0x86
 2325 0a05 37010000 		.4byte	.LLST7
 2326 0a09 21       		.uleb128 0x21
 2327 0a0a 36000000 		.4byte	.LVL9
 2328 0a0e 190A0000 		.4byte	0xa19
 2329 0a12 22       		.uleb128 0x22
 2330 0a13 01       		.byte	0x1
 2331 0a14 50       		.byte	0x50
 2332 0a15 02       		.byte	0x2
 2333 0a16 74       		.byte	0x74
 2334 0a17 00       		.sleb128 0
 2335 0a18 00       		.byte	0
 2336 0a19 23       		.uleb128 0x23
 2337 0a1a 48000000 		.4byte	.LVL11
 2338 0a1e 710E0000 		.4byte	0xe71
 2339 0a22 00       		.byte	0
 2340 0a23 24       		.uleb128 0x24
 2341 0a24 1A090000 		.4byte	0x91a
 2342 0a28 00000000 		.4byte	.LFB122
 2343 0a2c 66000000 		.4byte	.LFE122
 2344 0a30 71010000 		.4byte	.LLST8
 2345 0a34 01       		.byte	0x1
 2346 0a35 AE0A0000 		.4byte	0xaae
 2347 0a39 25       		.uleb128 0x25
 2348 0a3a 27090000 		.4byte	0x927
 2349 0a3e 91010000 		.4byte	.LLST9
 2350 0a42 25       		.uleb128 0x25
 2351 0a43 32090000 		.4byte	0x932
 2352 0a47 C5010000 		.4byte	.LLST10
 2353 0a4b 26       		.uleb128 0x26
 2354 0a4c 1A090000 		.4byte	0x91a
 2355 0a50 1E000000 		.4byte	.LBB4
 2356 0a54 00000000 		.4byte	.Ldebug_ranges0+0
 2357 0a58 01       		.byte	0x1
 2358 0a59 F3       		.byte	0xf3
 2359 0a5a 940A0000 		.4byte	0xa94
 2360 0a5e 25       		.uleb128 0x25
 2361 0a5f 27090000 		.4byte	0x927
 2362 0a63 FF010000 		.4byte	.LLST11
 2363 0a67 27       		.uleb128 0x27
 2364 0a68 20000000 		.4byte	.Ldebug_ranges0+0x20
 2365 0a6c 28       		.uleb128 0x28
 2366 0a6d 32090000 		.4byte	0x932
 2367 0a71 21       		.uleb128 0x21
 2368 0a72 4A000000 		.4byte	.LVL16
 2369 0a76 810A0000 		.4byte	0xa81
 2370 0a7a 22       		.uleb128 0x22
 2371 0a7b 01       		.byte	0x1
 2372 0a7c 50       		.byte	0x50
 2373 0a7d 02       		.byte	0x2
 2374 0a7e 74       		.byte	0x74
 2375 0a7f 00       		.sleb128 0
 2376 0a80 00       		.byte	0
 2377 0a81 29       		.uleb128 0x29
ARM GAS  /tmp/cc7j7qCO.s 			page 43


 2378 0a82 66000000 		.4byte	.LVL21
 2379 0a86 01       		.byte	0x1
 2380 0a87 6E090000 		.4byte	0x96e
 2381 0a8b 22       		.uleb128 0x22
 2382 0a8c 01       		.byte	0x1
 2383 0a8d 50       		.byte	0x50
 2384 0a8e 02       		.byte	0x2
 2385 0a8f 74       		.byte	0x74
 2386 0a90 00       		.sleb128 0
 2387 0a91 00       		.byte	0
 2388 0a92 00       		.byte	0
 2389 0a93 00       		.byte	0
 2390 0a94 21       		.uleb128 0x21
 2391 0a95 1C000000 		.4byte	.LVL14
 2392 0a99 A40A0000 		.4byte	0xaa4
 2393 0a9d 22       		.uleb128 0x22
 2394 0a9e 01       		.byte	0x1
 2395 0a9f 50       		.byte	0x50
 2396 0aa0 02       		.byte	0x2
 2397 0aa1 74       		.byte	0x74
 2398 0aa2 00       		.sleb128 0
 2399 0aa3 00       		.byte	0
 2400 0aa4 23       		.uleb128 0x23
 2401 0aa5 56000000 		.4byte	.LVL19
 2402 0aa9 710E0000 		.4byte	0xe71
 2403 0aad 00       		.byte	0
 2404 0aae 2A       		.uleb128 0x2a
 2405 0aaf 6A050000 		.4byte	.LASF212
 2406 0ab3 01       		.byte	0x1
 2407 0ab4 8B       		.byte	0x8b
 2408 0ab5 01       		.byte	0x1
 2409 0ab6 5B070000 		.4byte	0x75b
 2410 0aba 01       		.byte	0x1
 2411 0abb D50A0000 		.4byte	0xad5
 2412 0abf 2B       		.uleb128 0x2b
 2413 0ac0 737200   		.ascii	"sr\000"
 2414 0ac3 01       		.byte	0x1
 2415 0ac4 8B       		.byte	0x8b
 2416 0ac5 62000000 		.4byte	0x62
 2417 0ac9 2C       		.uleb128 0x2c
 2418 0aca 73747300 		.ascii	"sts\000"
 2419 0ace 01       		.byte	0x1
 2420 0acf 8C       		.byte	0x8c
 2421 0ad0 5B070000 		.4byte	0x75b
 2422 0ad4 00       		.byte	0
 2423 0ad5 2D       		.uleb128 0x2d
 2424 0ad6 01       		.byte	0x1
 2425 0ad7 34050000 		.4byte	.LASF189
 2426 0adb 01       		.byte	0x1
 2427 0adc 8001     		.2byte	0x180
 2428 0ade 01       		.byte	0x1
 2429 0adf 00000000 		.4byte	.LFB125
 2430 0ae3 84000000 		.4byte	.LFE125
 2431 0ae7 1D020000 		.4byte	.LLST12
 2432 0aeb 01       		.byte	0x1
 2433 0aec 7B0B0000 		.4byte	0xb7b
 2434 0af0 2E       		.uleb128 0x2e
ARM GAS  /tmp/cc7j7qCO.s 			page 44


 2435 0af1 3E090000 		.4byte	0x93e
 2436 0af5 02000000 		.4byte	.LBB14
 2437 0af9 40000000 		.4byte	.Ldebug_ranges0+0x40
 2438 0afd 01       		.byte	0x1
 2439 0afe 8401     		.2byte	0x184
 2440 0b00 700B0000 		.4byte	0xb70
 2441 0b04 27       		.uleb128 0x27
 2442 0b05 58000000 		.4byte	.Ldebug_ranges0+0x58
 2443 0b09 2F       		.uleb128 0x2f
 2444 0b0a 58090000 		.4byte	0x958
 2445 0b0e 3D020000 		.4byte	.LLST13
 2446 0b12 30       		.uleb128 0x30
 2447 0b13 63090000 		.4byte	0x963
 2448 0b17 01       		.byte	0x1
 2449 0b18 55       		.byte	0x55
 2450 0b19 31       		.uleb128 0x31
 2451 0b1a 4C090000 		.4byte	0x94c
 2452 0b1e 06       		.byte	0x6
 2453 0b1f 03       		.byte	0x3
 2454 0b20 00000000 		.4byte	UARTD3
 2455 0b24 9F       		.byte	0x9f
 2456 0b25 2E       		.uleb128 0x2e
 2457 0b26 AE0A0000 		.4byte	0xaae
 2458 0b2a 20000000 		.4byte	.LBB16
 2459 0b2e 70000000 		.4byte	.Ldebug_ranges0+0x70
 2460 0b32 01       		.byte	0x1
 2461 0b33 4201     		.2byte	0x142
 2462 0b35 520B0000 		.4byte	0xb52
 2463 0b39 25       		.uleb128 0x25
 2464 0b3a BF0A0000 		.4byte	0xabf
 2465 0b3e 5B020000 		.4byte	.LLST14
 2466 0b42 27       		.uleb128 0x27
 2467 0b43 88000000 		.4byte	.Ldebug_ranges0+0x88
 2468 0b47 2F       		.uleb128 0x2f
 2469 0b48 C90A0000 		.4byte	0xac9
 2470 0b4c 79020000 		.4byte	.LLST15
 2471 0b50 00       		.byte	0
 2472 0b51 00       		.byte	0
 2473 0b52 21       		.uleb128 0x21
 2474 0b53 5A000000 		.4byte	.LVL30
 2475 0b57 620B0000 		.4byte	0xb62
 2476 0b5b 22       		.uleb128 0x22
 2477 0b5c 01       		.byte	0x1
 2478 0b5d 50       		.byte	0x50
 2479 0b5e 02       		.byte	0x2
 2480 0b5f 76       		.byte	0x76
 2481 0b60 00       		.sleb128 0
 2482 0b61 00       		.byte	0
 2483 0b62 32       		.uleb128 0x32
 2484 0b63 72000000 		.4byte	.LVL32
 2485 0b67 22       		.uleb128 0x22
 2486 0b68 01       		.byte	0x1
 2487 0b69 50       		.byte	0x50
 2488 0b6a 02       		.byte	0x2
 2489 0b6b 76       		.byte	0x76
 2490 0b6c 00       		.sleb128 0
 2491 0b6d 00       		.byte	0
ARM GAS  /tmp/cc7j7qCO.s 			page 45


 2492 0b6e 00       		.byte	0
 2493 0b6f 00       		.byte	0
 2494 0b70 33       		.uleb128 0x33
 2495 0b71 7A000000 		.4byte	.LVL33
 2496 0b75 01       		.byte	0x1
 2497 0b76 7C0E0000 		.4byte	0xe7c
 2498 0b7a 00       		.byte	0
 2499 0b7b 2D       		.uleb128 0x2d
 2500 0b7c 01       		.byte	0x1
 2501 0b7d 52000000 		.4byte	.LASF190
 2502 0b81 01       		.byte	0x1
 2503 0b82 CC01     		.2byte	0x1cc
 2504 0b84 01       		.byte	0x1
 2505 0b85 00000000 		.4byte	.LFB126
 2506 0b89 30000000 		.4byte	.LFE126
 2507 0b8d A3020000 		.4byte	.LLST16
 2508 0b91 01       		.byte	0x1
 2509 0b92 A70B0000 		.4byte	0xba7
 2510 0b96 34       		.uleb128 0x34
 2511 0b97 10000000 		.4byte	.LVL35
 2512 0b9b 870E0000 		.4byte	0xe87
 2513 0b9f 22       		.uleb128 0x22
 2514 0ba0 01       		.byte	0x1
 2515 0ba1 50       		.byte	0x50
 2516 0ba2 02       		.byte	0x2
 2517 0ba3 74       		.byte	0x74
 2518 0ba4 00       		.sleb128 0
 2519 0ba5 00       		.byte	0
 2520 0ba6 00       		.byte	0
 2521 0ba7 17       		.uleb128 0x17
 2522 0ba8 D6090000 		.4byte	.LASF191
 2523 0bac 01       		.byte	0x1
 2524 0bad C7       		.byte	0xc7
 2525 0bae 01       		.byte	0x1
 2526 0baf 01       		.byte	0x1
 2527 0bb0 D40B0000 		.4byte	0xbd4
 2528 0bb4 18       		.uleb128 0x18
 2529 0bb5 52050000 		.4byte	.LASF182
 2530 0bb9 01       		.byte	0x1
 2531 0bba C7       		.byte	0xc7
 2532 0bbb 26080000 		.4byte	0x826
 2533 0bbf 2C       		.uleb128 0x2c
 2534 0bc0 63723100 		.ascii	"cr1\000"
 2535 0bc4 01       		.byte	0x1
 2536 0bc5 C8       		.byte	0xc8
 2537 0bc6 62000000 		.4byte	0x62
 2538 0bca 2C       		.uleb128 0x2c
 2539 0bcb 7500     		.ascii	"u\000"
 2540 0bcd 01       		.byte	0x1
 2541 0bce C9       		.byte	0xc9
 2542 0bcf D8060000 		.4byte	0x6d8
 2543 0bd3 00       		.byte	0
 2544 0bd4 2D       		.uleb128 0x2d
 2545 0bd5 01       		.byte	0x1
 2546 0bd6 CA020000 		.4byte	.LASF192
 2547 0bda 01       		.byte	0x1
 2548 0bdb 1B02     		.2byte	0x21b
ARM GAS  /tmp/cc7j7qCO.s 			page 46


 2549 0bdd 01       		.byte	0x1
 2550 0bde 00000000 		.4byte	.LFB127
 2551 0be2 14010000 		.4byte	.LFE127
 2552 0be6 C3020000 		.4byte	.LLST17
 2553 0bea 01       		.byte	0x1
 2554 0beb C90C0000 		.4byte	0xcc9
 2555 0bef 20       		.uleb128 0x20
 2556 0bf0 52050000 		.4byte	.LASF182
 2557 0bf4 01       		.byte	0x1
 2558 0bf5 1B02     		.2byte	0x21b
 2559 0bf7 26080000 		.4byte	0x826
 2560 0bfb E3020000 		.4byte	.LLST18
 2561 0bff 2E       		.uleb128 0x2e
 2562 0c00 A70B0000 		.4byte	0xba7
 2563 0c04 0E000000 		.4byte	.LBB25
 2564 0c08 A0000000 		.4byte	.Ldebug_ranges0+0xa0
 2565 0c0c 01       		.byte	0x1
 2566 0c0d AF02     		.2byte	0x2af
 2567 0c0f 5A0C0000 		.4byte	0xc5a
 2568 0c13 25       		.uleb128 0x25
 2569 0c14 B40B0000 		.4byte	0xbb4
 2570 0c18 17030000 		.4byte	.LLST19
 2571 0c1c 27       		.uleb128 0x27
 2572 0c1d C8000000 		.4byte	.Ldebug_ranges0+0xc8
 2573 0c21 2F       		.uleb128 0x2f
 2574 0c22 BF0B0000 		.4byte	0xbbf
 2575 0c26 40030000 		.4byte	.LLST20
 2576 0c2a 2F       		.uleb128 0x2f
 2577 0c2b CA0B0000 		.4byte	0xbca
 2578 0c2f 6C030000 		.4byte	.LLST21
 2579 0c33 35       		.uleb128 0x35
 2580 0c34 18000000 		.4byte	.LVL39
 2581 0c38 A6090000 		.4byte	0x9a6
 2582 0c3c 470C0000 		.4byte	0xc47
 2583 0c40 22       		.uleb128 0x22
 2584 0c41 01       		.byte	0x1
 2585 0c42 50       		.byte	0x50
 2586 0c43 02       		.byte	0x2
 2587 0c44 74       		.byte	0x74
 2588 0c45 00       		.sleb128 0
 2589 0c46 00       		.byte	0
 2590 0c47 29       		.uleb128 0x29
 2591 0c48 82000000 		.4byte	.LVL42
 2592 0c4c 01       		.byte	0x1
 2593 0c4d 6E090000 		.4byte	0x96e
 2594 0c51 22       		.uleb128 0x22
 2595 0c52 01       		.byte	0x1
 2596 0c53 50       		.byte	0x50
 2597 0c54 02       		.byte	0x2
 2598 0c55 74       		.byte	0x74
 2599 0c56 00       		.sleb128 0
 2600 0c57 00       		.byte	0
 2601 0c58 00       		.byte	0
 2602 0c59 00       		.byte	0
 2603 0c5a 36       		.uleb128 0x36
 2604 0c5b CC000000 		.4byte	.LBB33
 2605 0c5f 14010000 		.4byte	.LBE33
ARM GAS  /tmp/cc7j7qCO.s 			page 47


 2606 0c63 1B       		.uleb128 0x1b
 2607 0c64 6200     		.ascii	"b\000"
 2608 0c66 01       		.byte	0x1
 2609 0c67 5202     		.2byte	0x252
 2610 0c69 A6000000 		.4byte	0xa6
 2611 0c6d 35       		.uleb128 0x35
 2612 0c6e D8000000 		.4byte	.LVL46
 2613 0c72 9B0E0000 		.4byte	0xe9b
 2614 0c76 8F0C0000 		.4byte	0xc8f
 2615 0c7a 22       		.uleb128 0x22
 2616 0c7b 01       		.byte	0x1
 2617 0c7c 53       		.byte	0x53
 2618 0c7d 02       		.byte	0x2
 2619 0c7e 74       		.byte	0x74
 2620 0c7f 00       		.sleb128 0
 2621 0c80 22       		.uleb128 0x22
 2622 0c81 01       		.byte	0x1
 2623 0c82 52       		.byte	0x52
 2624 0c83 05       		.byte	0x5
 2625 0c84 03       		.byte	0x3
 2626 0c85 00000000 		.4byte	uart_lld_serve_rx_end_irq
 2627 0c89 22       		.uleb128 0x22
 2628 0c8a 01       		.byte	0x1
 2629 0c8b 51       		.byte	0x51
 2630 0c8c 01       		.byte	0x1
 2631 0c8d 3C       		.byte	0x3c
 2632 0c8e 00       		.byte	0
 2633 0c8f 35       		.uleb128 0x35
 2634 0c90 E4000000 		.4byte	.LVL47
 2635 0c94 9B0E0000 		.4byte	0xe9b
 2636 0c98 B10C0000 		.4byte	0xcb1
 2637 0c9c 22       		.uleb128 0x22
 2638 0c9d 01       		.byte	0x1
 2639 0c9e 53       		.byte	0x53
 2640 0c9f 02       		.byte	0x2
 2641 0ca0 74       		.byte	0x74
 2642 0ca1 00       		.sleb128 0
 2643 0ca2 22       		.uleb128 0x22
 2644 0ca3 01       		.byte	0x1
 2645 0ca4 52       		.byte	0x52
 2646 0ca5 05       		.byte	0x5
 2647 0ca6 03       		.byte	0x3
 2648 0ca7 00000000 		.4byte	uart_lld_serve_tx_end_irq
 2649 0cab 22       		.uleb128 0x22
 2650 0cac 01       		.byte	0x1
 2651 0cad 51       		.byte	0x51
 2652 0cae 01       		.byte	0x1
 2653 0caf 3C       		.byte	0x3c
 2654 0cb0 00       		.byte	0
 2655 0cb1 34       		.uleb128 0x34
 2656 0cb2 FC000000 		.4byte	.LVL48
 2657 0cb6 C30E0000 		.4byte	0xec3
 2658 0cba 22       		.uleb128 0x22
 2659 0cbb 01       		.byte	0x1
 2660 0cbc 51       		.byte	0x51
 2661 0cbd 02       		.byte	0x2
 2662 0cbe 08       		.byte	0x8
ARM GAS  /tmp/cc7j7qCO.s 			page 48


 2663 0cbf C0       		.byte	0xc0
 2664 0cc0 22       		.uleb128 0x22
 2665 0cc1 01       		.byte	0x1
 2666 0cc2 50       		.byte	0x50
 2667 0cc3 02       		.byte	0x2
 2668 0cc4 08       		.byte	0x8
 2669 0cc5 27       		.byte	0x27
 2670 0cc6 00       		.byte	0
 2671 0cc7 00       		.byte	0
 2672 0cc8 00       		.byte	0
 2673 0cc9 2D       		.uleb128 0x2d
 2674 0cca 01       		.byte	0x1
 2675 0ccb 540A0000 		.4byte	.LASF193
 2676 0ccf 01       		.byte	0x1
 2677 0cd0 B902     		.2byte	0x2b9
 2678 0cd2 01       		.byte	0x1
 2679 0cd3 00000000 		.4byte	.LFB128
 2680 0cd7 40000000 		.4byte	.LFE128
 2681 0cdb 8A030000 		.4byte	.LLST22
 2682 0cdf 01       		.byte	0x1
 2683 0ce0 200D0000 		.4byte	0xd20
 2684 0ce4 20       		.uleb128 0x20
 2685 0ce5 52050000 		.4byte	.LASF182
 2686 0ce9 01       		.byte	0x1
 2687 0cea B902     		.2byte	0x2b9
 2688 0cec 26080000 		.4byte	0x826
 2689 0cf0 AA030000 		.4byte	.LLST23
 2690 0cf4 23       		.uleb128 0x23
 2691 0cf5 10000000 		.4byte	.LVL52
 2692 0cf9 A6090000 		.4byte	0x9a6
 2693 0cfd 23       		.uleb128 0x23
 2694 0cfe 16000000 		.4byte	.LVL53
 2695 0d02 DD0E0000 		.4byte	0xedd
 2696 0d06 23       		.uleb128 0x23
 2697 0d07 1C000000 		.4byte	.LVL54
 2698 0d0b DD0E0000 		.4byte	0xedd
 2699 0d0f 34       		.uleb128 0x34
 2700 0d10 28000000 		.4byte	.LVL55
 2701 0d14 F20E0000 		.4byte	0xef2
 2702 0d18 22       		.uleb128 0x22
 2703 0d19 01       		.byte	0x1
 2704 0d1a 50       		.byte	0x50
 2705 0d1b 02       		.byte	0x2
 2706 0d1c 08       		.byte	0x8
 2707 0d1d 27       		.byte	0x27
 2708 0d1e 00       		.byte	0
 2709 0d1f 00       		.byte	0
 2710 0d20 37       		.uleb128 0x37
 2711 0d21 01       		.byte	0x1
 2712 0d22 400A0000 		.4byte	.LASF194
 2713 0d26 01       		.byte	0x1
 2714 0d27 FD02     		.2byte	0x2fd
 2715 0d29 01       		.byte	0x1
 2716 0d2a 00000000 		.4byte	.LFB129
 2717 0d2e 1A000000 		.4byte	.LFE129
 2718 0d32 02       		.byte	0x2
 2719 0d33 7D       		.byte	0x7d
ARM GAS  /tmp/cc7j7qCO.s 			page 49


 2720 0d34 00       		.sleb128 0
 2721 0d35 01       		.byte	0x1
 2722 0d36 690D0000 		.4byte	0xd69
 2723 0d3a 20       		.uleb128 0x20
 2724 0d3b 52050000 		.4byte	.LASF182
 2725 0d3f 01       		.byte	0x1
 2726 0d40 FD02     		.2byte	0x2fd
 2727 0d42 26080000 		.4byte	0x826
 2728 0d46 DE030000 		.4byte	.LLST24
 2729 0d4a 38       		.uleb128 0x38
 2730 0d4b 6E00     		.ascii	"n\000"
 2731 0d4d 01       		.byte	0x1
 2732 0d4e FD02     		.2byte	0x2fd
 2733 0d50 30000000 		.4byte	0x30
 2734 0d54 FF030000 		.4byte	.LLST25
 2735 0d58 20       		.uleb128 0x20
 2736 0d59 6B030000 		.4byte	.LASF195
 2737 0d5d 01       		.byte	0x1
 2738 0d5e FD02     		.2byte	0x2fd
 2739 0d60 690D0000 		.4byte	0xd69
 2740 0d64 1E040000 		.4byte	.LLST26
 2741 0d68 00       		.byte	0
 2742 0d69 11       		.uleb128 0x11
 2743 0d6a 04       		.byte	0x4
 2744 0d6b 6F0D0000 		.4byte	0xd6f
 2745 0d6f 39       		.uleb128 0x39
 2746 0d70 3A       		.uleb128 0x3a
 2747 0d71 01       		.byte	0x1
 2748 0d72 E9060000 		.4byte	.LASF197
 2749 0d76 01       		.byte	0x1
 2750 0d77 1203     		.2byte	0x312
 2751 0d79 01       		.byte	0x1
 2752 0d7a 30000000 		.4byte	0x30
 2753 0d7e 00000000 		.4byte	.LFB130
 2754 0d82 22000000 		.4byte	.LFE130
 2755 0d86 02       		.byte	0x2
 2756 0d87 7D       		.byte	0x7d
 2757 0d88 00       		.sleb128 0
 2758 0d89 01       		.byte	0x1
 2759 0d8a 9F0D0000 		.4byte	0xd9f
 2760 0d8e 20       		.uleb128 0x20
 2761 0d8f 52050000 		.4byte	.LASF182
 2762 0d93 01       		.byte	0x1
 2763 0d94 1203     		.2byte	0x312
 2764 0d96 26080000 		.4byte	0x826
 2765 0d9a 3D040000 		.4byte	.LLST27
 2766 0d9e 00       		.byte	0
 2767 0d9f 2D       		.uleb128 0x2d
 2768 0da0 01       		.byte	0x1
 2769 0da1 00000000 		.4byte	.LASF196
 2770 0da5 01       		.byte	0x1
 2771 0da6 2303     		.2byte	0x323
 2772 0da8 01       		.byte	0x1
 2773 0da9 00000000 		.4byte	.LFB131
 2774 0dad 38000000 		.4byte	.LFE131
 2775 0db1 5E040000 		.4byte	.LLST28
 2776 0db5 01       		.byte	0x1
ARM GAS  /tmp/cc7j7qCO.s 			page 50


 2777 0db6 E90D0000 		.4byte	0xde9
 2778 0dba 20       		.uleb128 0x20
 2779 0dbb 52050000 		.4byte	.LASF182
 2780 0dbf 01       		.byte	0x1
 2781 0dc0 2303     		.2byte	0x323
 2782 0dc2 26080000 		.4byte	0x826
 2783 0dc6 7E040000 		.4byte	.LLST29
 2784 0dca 38       		.uleb128 0x38
 2785 0dcb 6E00     		.ascii	"n\000"
 2786 0dcd 01       		.byte	0x1
 2787 0dce 2303     		.2byte	0x323
 2788 0dd0 30000000 		.4byte	0x30
 2789 0dd4 9F040000 		.4byte	.LLST30
 2790 0dd8 20       		.uleb128 0x20
 2791 0dd9 3D010000 		.4byte	.LASF171
 2792 0ddd 01       		.byte	0x1
 2793 0dde 2303     		.2byte	0x323
 2794 0de0 B8000000 		.4byte	0xb8
 2795 0de4 BE040000 		.4byte	.LLST31
 2796 0de8 00       		.byte	0
 2797 0de9 3B       		.uleb128 0x3b
 2798 0dea 01       		.byte	0x1
 2799 0deb 89010000 		.4byte	.LASF198
 2800 0def 01       		.byte	0x1
 2801 0df0 3B03     		.2byte	0x33b
 2802 0df2 01       		.byte	0x1
 2803 0df3 30000000 		.4byte	0x30
 2804 0df7 00000000 		.4byte	.LFB132
 2805 0dfb 2A000000 		.4byte	.LFE132
 2806 0dff DD040000 		.4byte	.LLST32
 2807 0e03 01       		.byte	0x1
 2808 0e04 2E0E0000 		.4byte	0xe2e
 2809 0e08 20       		.uleb128 0x20
 2810 0e09 52050000 		.4byte	.LASF182
 2811 0e0d 01       		.byte	0x1
 2812 0e0e 3B03     		.2byte	0x33b
 2813 0e10 26080000 		.4byte	0x826
 2814 0e14 FD040000 		.4byte	.LLST33
 2815 0e18 3C       		.uleb128 0x3c
 2816 0e19 6E00     		.ascii	"n\000"
 2817 0e1b 01       		.byte	0x1
 2818 0e1c 3C03     		.2byte	0x33c
 2819 0e1e 30000000 		.4byte	0x30
 2820 0e22 01       		.byte	0x1
 2821 0e23 54       		.byte	0x54
 2822 0e24 23       		.uleb128 0x23
 2823 0e25 26000000 		.4byte	.LVL68
 2824 0e29 6E090000 		.4byte	0x96e
 2825 0e2d 00       		.byte	0
 2826 0e2e 3D       		.uleb128 0x3d
 2827 0e2f 0F070000 		.4byte	.LASF200
 2828 0e33 09       		.byte	0x9
 2829 0e34 9806     		.2byte	0x698
 2830 0e36 1D030000 		.4byte	0x31d
 2831 0e3a 01       		.byte	0x1
 2832 0e3b 01       		.byte	0x1
 2833 0e3c 09       		.uleb128 0x9
ARM GAS  /tmp/cc7j7qCO.s 			page 51


 2834 0e3d AB060000 		.4byte	0x6ab
 2835 0e41 4C0E0000 		.4byte	0xe4c
 2836 0e45 0A       		.uleb128 0xa
 2837 0e46 BF000000 		.4byte	0xbf
 2838 0e4a 0F       		.byte	0xf
 2839 0e4b 00       		.byte	0
 2840 0e4c 3D       		.uleb128 0x3d
 2841 0e4d FA000000 		.4byte	.LASF201
 2842 0e51 06       		.byte	0x6
 2843 0e52 BB01     		.2byte	0x1bb
 2844 0e54 5A0E0000 		.4byte	0xe5a
 2845 0e58 01       		.byte	0x1
 2846 0e59 01       		.byte	0x1
 2847 0e5a 14       		.uleb128 0x14
 2848 0e5b 3C0E0000 		.4byte	0xe3c
 2849 0e5f 3E       		.uleb128 0x3e
 2850 0e60 2D050000 		.4byte	.LASF202
 2851 0e64 01       		.byte	0x1
 2852 0e65 6A       		.byte	0x6a
 2853 0e66 67070000 		.4byte	0x767
 2854 0e6a 01       		.byte	0x1
 2855 0e6b 05       		.byte	0x5
 2856 0e6c 03       		.byte	0x3
 2857 0e6d 00000000 		.4byte	UARTD3
 2858 0e71 3F       		.uleb128 0x3f
 2859 0e72 01       		.byte	0x1
 2860 0e73 6F020000 		.4byte	.LASF203
 2861 0e77 0A       		.byte	0xa
 2862 0e78 FA01     		.2byte	0x1fa
 2863 0e7a 01       		.byte	0x1
 2864 0e7b 01       		.byte	0x1
 2865 0e7c 3F       		.uleb128 0x3f
 2866 0e7d 01       		.byte	0x1
 2867 0e7e A1090000 		.4byte	.LASF204
 2868 0e82 0A       		.byte	0xa
 2869 0e83 FC01     		.2byte	0x1fc
 2870 0e85 01       		.byte	0x1
 2871 0e86 01       		.byte	0x1
 2872 0e87 40       		.uleb128 0x40
 2873 0e88 01       		.byte	0x1
 2874 0e89 9A000000 		.4byte	.LASF205
 2875 0e8d 07       		.byte	0x7
 2876 0e8e 67       		.byte	0x67
 2877 0e8f 01       		.byte	0x1
 2878 0e90 01       		.byte	0x1
 2879 0e91 9B0E0000 		.4byte	0xe9b
 2880 0e95 13       		.uleb128 0x13
 2881 0e96 26080000 		.4byte	0x826
 2882 0e9a 00       		.byte	0
 2883 0e9b 41       		.uleb128 0x41
 2884 0e9c 01       		.byte	0x1
 2885 0e9d A60A0000 		.4byte	.LASF213
 2886 0ea1 06       		.byte	0x6
 2887 0ea2 C201     		.2byte	0x1c2
 2888 0ea4 01       		.byte	0x1
 2889 0ea5 A6000000 		.4byte	0xa6
 2890 0ea9 01       		.byte	0x1
ARM GAS  /tmp/cc7j7qCO.s 			page 52


 2891 0eaa C30E0000 		.4byte	0xec3
 2892 0eae 13       		.uleb128 0x13
 2893 0eaf DE060000 		.4byte	0x6de
 2894 0eb3 13       		.uleb128 0x13
 2895 0eb4 86000000 		.4byte	0x86
 2896 0eb8 13       		.uleb128 0x13
 2897 0eb9 B6060000 		.4byte	0x6b6
 2898 0ebd 13       		.uleb128 0x13
 2899 0ebe B8000000 		.4byte	0xb8
 2900 0ec2 00       		.byte	0
 2901 0ec3 42       		.uleb128 0x42
 2902 0ec4 01       		.byte	0x1
 2903 0ec5 6B010000 		.4byte	.LASF206
 2904 0ec9 0B       		.byte	0xb
 2905 0eca 1C01     		.2byte	0x11c
 2906 0ecc 01       		.byte	0x1
 2907 0ecd 01       		.byte	0x1
 2908 0ece DD0E0000 		.4byte	0xedd
 2909 0ed2 13       		.uleb128 0x13
 2910 0ed3 86000000 		.4byte	0x86
 2911 0ed7 13       		.uleb128 0x13
 2912 0ed8 86000000 		.4byte	0x86
 2913 0edc 00       		.byte	0
 2914 0edd 42       		.uleb128 0x42
 2915 0ede 01       		.byte	0x1
 2916 0edf 65080000 		.4byte	.LASF207
 2917 0ee3 06       		.byte	0x6
 2918 0ee4 C601     		.2byte	0x1c6
 2919 0ee6 01       		.byte	0x1
 2920 0ee7 01       		.byte	0x1
 2921 0ee8 F20E0000 		.4byte	0xef2
 2922 0eec 13       		.uleb128 0x13
 2923 0eed DE060000 		.4byte	0x6de
 2924 0ef1 00       		.byte	0
 2925 0ef2 43       		.uleb128 0x43
 2926 0ef3 01       		.byte	0x1
 2927 0ef4 3C080000 		.4byte	.LASF214
 2928 0ef8 0B       		.byte	0xb
 2929 0ef9 1D01     		.2byte	0x11d
 2930 0efb 01       		.byte	0x1
 2931 0efc 01       		.byte	0x1
 2932 0efd 13       		.uleb128 0x13
 2933 0efe 86000000 		.4byte	0x86
 2934 0f02 00       		.byte	0
 2935 0f03 00       		.byte	0
 2936              		.section	.debug_abbrev,"",%progbits
 2937              	.Ldebug_abbrev0:
 2938 0000 01       		.uleb128 0x1
 2939 0001 11       		.uleb128 0x11
 2940 0002 01       		.byte	0x1
 2941 0003 25       		.uleb128 0x25
 2942 0004 0E       		.uleb128 0xe
 2943 0005 13       		.uleb128 0x13
 2944 0006 0B       		.uleb128 0xb
 2945 0007 03       		.uleb128 0x3
 2946 0008 0E       		.uleb128 0xe
 2947 0009 1B       		.uleb128 0x1b
ARM GAS  /tmp/cc7j7qCO.s 			page 53


 2948 000a 0E       		.uleb128 0xe
 2949 000b 55       		.uleb128 0x55
 2950 000c 06       		.uleb128 0x6
 2951 000d 11       		.uleb128 0x11
 2952 000e 01       		.uleb128 0x1
 2953 000f 52       		.uleb128 0x52
 2954 0010 01       		.uleb128 0x1
 2955 0011 10       		.uleb128 0x10
 2956 0012 06       		.uleb128 0x6
 2957 0013 00       		.byte	0
 2958 0014 00       		.byte	0
 2959 0015 02       		.uleb128 0x2
 2960 0016 24       		.uleb128 0x24
 2961 0017 00       		.byte	0
 2962 0018 0B       		.uleb128 0xb
 2963 0019 0B       		.uleb128 0xb
 2964 001a 3E       		.uleb128 0x3e
 2965 001b 0B       		.uleb128 0xb
 2966 001c 03       		.uleb128 0x3
 2967 001d 08       		.uleb128 0x8
 2968 001e 00       		.byte	0
 2969 001f 00       		.byte	0
 2970 0020 03       		.uleb128 0x3
 2971 0021 16       		.uleb128 0x16
 2972 0022 00       		.byte	0
 2973 0023 03       		.uleb128 0x3
 2974 0024 0E       		.uleb128 0xe
 2975 0025 3A       		.uleb128 0x3a
 2976 0026 0B       		.uleb128 0xb
 2977 0027 3B       		.uleb128 0x3b
 2978 0028 0B       		.uleb128 0xb
 2979 0029 49       		.uleb128 0x49
 2980 002a 13       		.uleb128 0x13
 2981 002b 00       		.byte	0
 2982 002c 00       		.byte	0
 2983 002d 04       		.uleb128 0x4
 2984 002e 24       		.uleb128 0x24
 2985 002f 00       		.byte	0
 2986 0030 0B       		.uleb128 0xb
 2987 0031 0B       		.uleb128 0xb
 2988 0032 3E       		.uleb128 0x3e
 2989 0033 0B       		.uleb128 0xb
 2990 0034 03       		.uleb128 0x3
 2991 0035 0E       		.uleb128 0xe
 2992 0036 00       		.byte	0
 2993 0037 00       		.byte	0
 2994 0038 05       		.uleb128 0x5
 2995 0039 0F       		.uleb128 0xf
 2996 003a 00       		.byte	0
 2997 003b 0B       		.uleb128 0xb
 2998 003c 0B       		.uleb128 0xb
 2999 003d 00       		.byte	0
 3000 003e 00       		.byte	0
 3001 003f 06       		.uleb128 0x6
 3002 0040 35       		.uleb128 0x35
 3003 0041 00       		.byte	0
 3004 0042 49       		.uleb128 0x49
ARM GAS  /tmp/cc7j7qCO.s 			page 54


 3005 0043 13       		.uleb128 0x13
 3006 0044 00       		.byte	0
 3007 0045 00       		.byte	0
 3008 0046 07       		.uleb128 0x7
 3009 0047 04       		.uleb128 0x4
 3010 0048 01       		.byte	0x1
 3011 0049 03       		.uleb128 0x3
 3012 004a 0E       		.uleb128 0xe
 3013 004b 0B       		.uleb128 0xb
 3014 004c 0B       		.uleb128 0xb
 3015 004d 3A       		.uleb128 0x3a
 3016 004e 0B       		.uleb128 0xb
 3017 004f 3B       		.uleb128 0x3b
 3018 0050 0B       		.uleb128 0xb
 3019 0051 01       		.uleb128 0x1
 3020 0052 13       		.uleb128 0x13
 3021 0053 00       		.byte	0
 3022 0054 00       		.byte	0
 3023 0055 08       		.uleb128 0x8
 3024 0056 28       		.uleb128 0x28
 3025 0057 00       		.byte	0
 3026 0058 03       		.uleb128 0x3
 3027 0059 0E       		.uleb128 0xe
 3028 005a 1C       		.uleb128 0x1c
 3029 005b 0D       		.uleb128 0xd
 3030 005c 00       		.byte	0
 3031 005d 00       		.byte	0
 3032 005e 09       		.uleb128 0x9
 3033 005f 01       		.uleb128 0x1
 3034 0060 01       		.byte	0x1
 3035 0061 49       		.uleb128 0x49
 3036 0062 13       		.uleb128 0x13
 3037 0063 01       		.uleb128 0x1
 3038 0064 13       		.uleb128 0x13
 3039 0065 00       		.byte	0
 3040 0066 00       		.byte	0
 3041 0067 0A       		.uleb128 0xa
 3042 0068 21       		.uleb128 0x21
 3043 0069 00       		.byte	0
 3044 006a 49       		.uleb128 0x49
 3045 006b 13       		.uleb128 0x13
 3046 006c 2F       		.uleb128 0x2f
 3047 006d 0B       		.uleb128 0xb
 3048 006e 00       		.byte	0
 3049 006f 00       		.byte	0
 3050 0070 0B       		.uleb128 0xb
 3051 0071 13       		.uleb128 0x13
 3052 0072 01       		.byte	0x1
 3053 0073 0B       		.uleb128 0xb
 3054 0074 0B       		.uleb128 0xb
 3055 0075 3A       		.uleb128 0x3a
 3056 0076 0B       		.uleb128 0xb
 3057 0077 3B       		.uleb128 0x3b
 3058 0078 05       		.uleb128 0x5
 3059 0079 01       		.uleb128 0x1
 3060 007a 13       		.uleb128 0x13
 3061 007b 00       		.byte	0
ARM GAS  /tmp/cc7j7qCO.s 			page 55


 3062 007c 00       		.byte	0
 3063 007d 0C       		.uleb128 0xc
 3064 007e 0D       		.uleb128 0xd
 3065 007f 00       		.byte	0
 3066 0080 03       		.uleb128 0x3
 3067 0081 08       		.uleb128 0x8
 3068 0082 3A       		.uleb128 0x3a
 3069 0083 0B       		.uleb128 0xb
 3070 0084 3B       		.uleb128 0x3b
 3071 0085 05       		.uleb128 0x5
 3072 0086 49       		.uleb128 0x49
 3073 0087 13       		.uleb128 0x13
 3074 0088 38       		.uleb128 0x38
 3075 0089 0A       		.uleb128 0xa
 3076 008a 00       		.byte	0
 3077 008b 00       		.byte	0
 3078 008c 0D       		.uleb128 0xd
 3079 008d 0D       		.uleb128 0xd
 3080 008e 00       		.byte	0
 3081 008f 03       		.uleb128 0x3
 3082 0090 0E       		.uleb128 0xe
 3083 0091 3A       		.uleb128 0x3a
 3084 0092 0B       		.uleb128 0xb
 3085 0093 3B       		.uleb128 0x3b
 3086 0094 05       		.uleb128 0x5
 3087 0095 49       		.uleb128 0x49
 3088 0096 13       		.uleb128 0x13
 3089 0097 38       		.uleb128 0x38
 3090 0098 0A       		.uleb128 0xa
 3091 0099 00       		.byte	0
 3092 009a 00       		.byte	0
 3093 009b 0E       		.uleb128 0xe
 3094 009c 16       		.uleb128 0x16
 3095 009d 00       		.byte	0
 3096 009e 03       		.uleb128 0x3
 3097 009f 0E       		.uleb128 0xe
 3098 00a0 3A       		.uleb128 0x3a
 3099 00a1 0B       		.uleb128 0xb
 3100 00a2 3B       		.uleb128 0x3b
 3101 00a3 05       		.uleb128 0x5
 3102 00a4 49       		.uleb128 0x49
 3103 00a5 13       		.uleb128 0x13
 3104 00a6 00       		.byte	0
 3105 00a7 00       		.byte	0
 3106 00a8 0F       		.uleb128 0xf
 3107 00a9 13       		.uleb128 0x13
 3108 00aa 01       		.byte	0x1
 3109 00ab 0B       		.uleb128 0xb
 3110 00ac 0B       		.uleb128 0xb
 3111 00ad 3A       		.uleb128 0x3a
 3112 00ae 0B       		.uleb128 0xb
 3113 00af 3B       		.uleb128 0x3b
 3114 00b0 0B       		.uleb128 0xb
 3115 00b1 01       		.uleb128 0x1
 3116 00b2 13       		.uleb128 0x13
 3117 00b3 00       		.byte	0
 3118 00b4 00       		.byte	0
ARM GAS  /tmp/cc7j7qCO.s 			page 56


 3119 00b5 10       		.uleb128 0x10
 3120 00b6 0D       		.uleb128 0xd
 3121 00b7 00       		.byte	0
 3122 00b8 03       		.uleb128 0x3
 3123 00b9 0E       		.uleb128 0xe
 3124 00ba 3A       		.uleb128 0x3a
 3125 00bb 0B       		.uleb128 0xb
 3126 00bc 3B       		.uleb128 0x3b
 3127 00bd 0B       		.uleb128 0xb
 3128 00be 49       		.uleb128 0x49
 3129 00bf 13       		.uleb128 0x13
 3130 00c0 38       		.uleb128 0x38
 3131 00c1 0A       		.uleb128 0xa
 3132 00c2 00       		.byte	0
 3133 00c3 00       		.byte	0
 3134 00c4 11       		.uleb128 0x11
 3135 00c5 0F       		.uleb128 0xf
 3136 00c6 00       		.byte	0
 3137 00c7 0B       		.uleb128 0xb
 3138 00c8 0B       		.uleb128 0xb
 3139 00c9 49       		.uleb128 0x49
 3140 00ca 13       		.uleb128 0x13
 3141 00cb 00       		.byte	0
 3142 00cc 00       		.byte	0
 3143 00cd 12       		.uleb128 0x12
 3144 00ce 15       		.uleb128 0x15
 3145 00cf 01       		.byte	0x1
 3146 00d0 27       		.uleb128 0x27
 3147 00d1 0C       		.uleb128 0xc
 3148 00d2 01       		.uleb128 0x1
 3149 00d3 13       		.uleb128 0x13
 3150 00d4 00       		.byte	0
 3151 00d5 00       		.byte	0
 3152 00d6 13       		.uleb128 0x13
 3153 00d7 05       		.uleb128 0x5
 3154 00d8 00       		.byte	0
 3155 00d9 49       		.uleb128 0x49
 3156 00da 13       		.uleb128 0x13
 3157 00db 00       		.byte	0
 3158 00dc 00       		.byte	0
 3159 00dd 14       		.uleb128 0x14
 3160 00de 26       		.uleb128 0x26
 3161 00df 00       		.byte	0
 3162 00e0 49       		.uleb128 0x49
 3163 00e1 13       		.uleb128 0x13
 3164 00e2 00       		.byte	0
 3165 00e3 00       		.byte	0
 3166 00e4 15       		.uleb128 0x15
 3167 00e5 04       		.uleb128 0x4
 3168 00e6 01       		.byte	0x1
 3169 00e7 0B       		.uleb128 0xb
 3170 00e8 0B       		.uleb128 0xb
 3171 00e9 3A       		.uleb128 0x3a
 3172 00ea 0B       		.uleb128 0xb
 3173 00eb 3B       		.uleb128 0x3b
 3174 00ec 0B       		.uleb128 0xb
 3175 00ed 01       		.uleb128 0x1
ARM GAS  /tmp/cc7j7qCO.s 			page 57


 3176 00ee 13       		.uleb128 0x13
 3177 00ef 00       		.byte	0
 3178 00f0 00       		.byte	0
 3179 00f1 16       		.uleb128 0x16
 3180 00f2 13       		.uleb128 0x13
 3181 00f3 01       		.byte	0x1
 3182 00f4 03       		.uleb128 0x3
 3183 00f5 0E       		.uleb128 0xe
 3184 00f6 0B       		.uleb128 0xb
 3185 00f7 0B       		.uleb128 0xb
 3186 00f8 3A       		.uleb128 0x3a
 3187 00f9 0B       		.uleb128 0xb
 3188 00fa 3B       		.uleb128 0x3b
 3189 00fb 05       		.uleb128 0x5
 3190 00fc 01       		.uleb128 0x1
 3191 00fd 13       		.uleb128 0x13
 3192 00fe 00       		.byte	0
 3193 00ff 00       		.byte	0
 3194 0100 17       		.uleb128 0x17
 3195 0101 2E       		.uleb128 0x2e
 3196 0102 01       		.byte	0x1
 3197 0103 03       		.uleb128 0x3
 3198 0104 0E       		.uleb128 0xe
 3199 0105 3A       		.uleb128 0x3a
 3200 0106 0B       		.uleb128 0xb
 3201 0107 3B       		.uleb128 0x3b
 3202 0108 0B       		.uleb128 0xb
 3203 0109 27       		.uleb128 0x27
 3204 010a 0C       		.uleb128 0xc
 3205 010b 20       		.uleb128 0x20
 3206 010c 0B       		.uleb128 0xb
 3207 010d 01       		.uleb128 0x1
 3208 010e 13       		.uleb128 0x13
 3209 010f 00       		.byte	0
 3210 0110 00       		.byte	0
 3211 0111 18       		.uleb128 0x18
 3212 0112 05       		.uleb128 0x5
 3213 0113 00       		.byte	0
 3214 0114 03       		.uleb128 0x3
 3215 0115 0E       		.uleb128 0xe
 3216 0116 3A       		.uleb128 0x3a
 3217 0117 0B       		.uleb128 0xb
 3218 0118 3B       		.uleb128 0x3b
 3219 0119 0B       		.uleb128 0xb
 3220 011a 49       		.uleb128 0x49
 3221 011b 13       		.uleb128 0x13
 3222 011c 00       		.byte	0
 3223 011d 00       		.byte	0
 3224 011e 19       		.uleb128 0x19
 3225 011f 2E       		.uleb128 0x2e
 3226 0120 01       		.byte	0x1
 3227 0121 03       		.uleb128 0x3
 3228 0122 0E       		.uleb128 0xe
 3229 0123 3A       		.uleb128 0x3a
 3230 0124 0B       		.uleb128 0xb
 3231 0125 3B       		.uleb128 0x3b
 3232 0126 05       		.uleb128 0x5
ARM GAS  /tmp/cc7j7qCO.s 			page 58


 3233 0127 27       		.uleb128 0x27
 3234 0128 0C       		.uleb128 0xc
 3235 0129 20       		.uleb128 0x20
 3236 012a 0B       		.uleb128 0xb
 3237 012b 01       		.uleb128 0x1
 3238 012c 13       		.uleb128 0x13
 3239 012d 00       		.byte	0
 3240 012e 00       		.byte	0
 3241 012f 1A       		.uleb128 0x1a
 3242 0130 05       		.uleb128 0x5
 3243 0131 00       		.byte	0
 3244 0132 03       		.uleb128 0x3
 3245 0133 0E       		.uleb128 0xe
 3246 0134 3A       		.uleb128 0x3a
 3247 0135 0B       		.uleb128 0xb
 3248 0136 3B       		.uleb128 0x3b
 3249 0137 05       		.uleb128 0x5
 3250 0138 49       		.uleb128 0x49
 3251 0139 13       		.uleb128 0x13
 3252 013a 00       		.byte	0
 3253 013b 00       		.byte	0
 3254 013c 1B       		.uleb128 0x1b
 3255 013d 34       		.uleb128 0x34
 3256 013e 00       		.byte	0
 3257 013f 03       		.uleb128 0x3
 3258 0140 08       		.uleb128 0x8
 3259 0141 3A       		.uleb128 0x3a
 3260 0142 0B       		.uleb128 0xb
 3261 0143 3B       		.uleb128 0x3b
 3262 0144 05       		.uleb128 0x5
 3263 0145 49       		.uleb128 0x49
 3264 0146 13       		.uleb128 0x13
 3265 0147 00       		.byte	0
 3266 0148 00       		.byte	0
 3267 0149 1C       		.uleb128 0x1c
 3268 014a 2E       		.uleb128 0x2e
 3269 014b 01       		.byte	0x1
 3270 014c 03       		.uleb128 0x3
 3271 014d 0E       		.uleb128 0xe
 3272 014e 3A       		.uleb128 0x3a
 3273 014f 0B       		.uleb128 0xb
 3274 0150 3B       		.uleb128 0x3b
 3275 0151 0B       		.uleb128 0xb
 3276 0152 27       		.uleb128 0x27
 3277 0153 0C       		.uleb128 0xc
 3278 0154 11       		.uleb128 0x11
 3279 0155 01       		.uleb128 0x1
 3280 0156 12       		.uleb128 0x12
 3281 0157 01       		.uleb128 0x1
 3282 0158 40       		.uleb128 0x40
 3283 0159 06       		.uleb128 0x6
 3284 015a 9742     		.uleb128 0x2117
 3285 015c 0C       		.uleb128 0xc
 3286 015d 01       		.uleb128 0x1
 3287 015e 13       		.uleb128 0x13
 3288 015f 00       		.byte	0
 3289 0160 00       		.byte	0
ARM GAS  /tmp/cc7j7qCO.s 			page 59


 3290 0161 1D       		.uleb128 0x1d
 3291 0162 05       		.uleb128 0x5
 3292 0163 00       		.byte	0
 3293 0164 03       		.uleb128 0x3
 3294 0165 0E       		.uleb128 0xe
 3295 0166 3A       		.uleb128 0x3a
 3296 0167 0B       		.uleb128 0xb
 3297 0168 3B       		.uleb128 0x3b
 3298 0169 0B       		.uleb128 0xb
 3299 016a 49       		.uleb128 0x49
 3300 016b 13       		.uleb128 0x13
 3301 016c 02       		.uleb128 0x2
 3302 016d 06       		.uleb128 0x6
 3303 016e 00       		.byte	0
 3304 016f 00       		.byte	0
 3305 0170 1E       		.uleb128 0x1e
 3306 0171 34       		.uleb128 0x34
 3307 0172 00       		.byte	0
 3308 0173 03       		.uleb128 0x3
 3309 0174 0E       		.uleb128 0xe
 3310 0175 3A       		.uleb128 0x3a
 3311 0176 0B       		.uleb128 0xb
 3312 0177 3B       		.uleb128 0x3b
 3313 0178 0B       		.uleb128 0xb
 3314 0179 49       		.uleb128 0x49
 3315 017a 13       		.uleb128 0x13
 3316 017b 02       		.uleb128 0x2
 3317 017c 06       		.uleb128 0x6
 3318 017d 00       		.byte	0
 3319 017e 00       		.byte	0
 3320 017f 1F       		.uleb128 0x1f
 3321 0180 2E       		.uleb128 0x2e
 3322 0181 01       		.byte	0x1
 3323 0182 03       		.uleb128 0x3
 3324 0183 0E       		.uleb128 0xe
 3325 0184 3A       		.uleb128 0x3a
 3326 0185 0B       		.uleb128 0xb
 3327 0186 3B       		.uleb128 0x3b
 3328 0187 05       		.uleb128 0x5
 3329 0188 27       		.uleb128 0x27
 3330 0189 0C       		.uleb128 0xc
 3331 018a 11       		.uleb128 0x11
 3332 018b 01       		.uleb128 0x1
 3333 018c 12       		.uleb128 0x12
 3334 018d 01       		.uleb128 0x1
 3335 018e 40       		.uleb128 0x40
 3336 018f 06       		.uleb128 0x6
 3337 0190 9742     		.uleb128 0x2117
 3338 0192 0C       		.uleb128 0xc
 3339 0193 01       		.uleb128 0x1
 3340 0194 13       		.uleb128 0x13
 3341 0195 00       		.byte	0
 3342 0196 00       		.byte	0
 3343 0197 20       		.uleb128 0x20
 3344 0198 05       		.uleb128 0x5
 3345 0199 00       		.byte	0
 3346 019a 03       		.uleb128 0x3
ARM GAS  /tmp/cc7j7qCO.s 			page 60


 3347 019b 0E       		.uleb128 0xe
 3348 019c 3A       		.uleb128 0x3a
 3349 019d 0B       		.uleb128 0xb
 3350 019e 3B       		.uleb128 0x3b
 3351 019f 05       		.uleb128 0x5
 3352 01a0 49       		.uleb128 0x49
 3353 01a1 13       		.uleb128 0x13
 3354 01a2 02       		.uleb128 0x2
 3355 01a3 06       		.uleb128 0x6
 3356 01a4 00       		.byte	0
 3357 01a5 00       		.byte	0
 3358 01a6 21       		.uleb128 0x21
 3359 01a7 898201   		.uleb128 0x4109
 3360 01aa 01       		.byte	0x1
 3361 01ab 11       		.uleb128 0x11
 3362 01ac 01       		.uleb128 0x1
 3363 01ad 01       		.uleb128 0x1
 3364 01ae 13       		.uleb128 0x13
 3365 01af 00       		.byte	0
 3366 01b0 00       		.byte	0
 3367 01b1 22       		.uleb128 0x22
 3368 01b2 8A8201   		.uleb128 0x410a
 3369 01b5 00       		.byte	0
 3370 01b6 02       		.uleb128 0x2
 3371 01b7 0A       		.uleb128 0xa
 3372 01b8 9142     		.uleb128 0x2111
 3373 01ba 0A       		.uleb128 0xa
 3374 01bb 00       		.byte	0
 3375 01bc 00       		.byte	0
 3376 01bd 23       		.uleb128 0x23
 3377 01be 898201   		.uleb128 0x4109
 3378 01c1 00       		.byte	0
 3379 01c2 11       		.uleb128 0x11
 3380 01c3 01       		.uleb128 0x1
 3381 01c4 31       		.uleb128 0x31
 3382 01c5 13       		.uleb128 0x13
 3383 01c6 00       		.byte	0
 3384 01c7 00       		.byte	0
 3385 01c8 24       		.uleb128 0x24
 3386 01c9 2E       		.uleb128 0x2e
 3387 01ca 01       		.byte	0x1
 3388 01cb 31       		.uleb128 0x31
 3389 01cc 13       		.uleb128 0x13
 3390 01cd 11       		.uleb128 0x11
 3391 01ce 01       		.uleb128 0x1
 3392 01cf 12       		.uleb128 0x12
 3393 01d0 01       		.uleb128 0x1
 3394 01d1 40       		.uleb128 0x40
 3395 01d2 06       		.uleb128 0x6
 3396 01d3 9742     		.uleb128 0x2117
 3397 01d5 0C       		.uleb128 0xc
 3398 01d6 01       		.uleb128 0x1
 3399 01d7 13       		.uleb128 0x13
 3400 01d8 00       		.byte	0
 3401 01d9 00       		.byte	0
 3402 01da 25       		.uleb128 0x25
 3403 01db 05       		.uleb128 0x5
ARM GAS  /tmp/cc7j7qCO.s 			page 61


 3404 01dc 00       		.byte	0
 3405 01dd 31       		.uleb128 0x31
 3406 01de 13       		.uleb128 0x13
 3407 01df 02       		.uleb128 0x2
 3408 01e0 06       		.uleb128 0x6
 3409 01e1 00       		.byte	0
 3410 01e2 00       		.byte	0
 3411 01e3 26       		.uleb128 0x26
 3412 01e4 1D       		.uleb128 0x1d
 3413 01e5 01       		.byte	0x1
 3414 01e6 31       		.uleb128 0x31
 3415 01e7 13       		.uleb128 0x13
 3416 01e8 52       		.uleb128 0x52
 3417 01e9 01       		.uleb128 0x1
 3418 01ea 55       		.uleb128 0x55
 3419 01eb 06       		.uleb128 0x6
 3420 01ec 58       		.uleb128 0x58
 3421 01ed 0B       		.uleb128 0xb
 3422 01ee 59       		.uleb128 0x59
 3423 01ef 0B       		.uleb128 0xb
 3424 01f0 01       		.uleb128 0x1
 3425 01f1 13       		.uleb128 0x13
 3426 01f2 00       		.byte	0
 3427 01f3 00       		.byte	0
 3428 01f4 27       		.uleb128 0x27
 3429 01f5 0B       		.uleb128 0xb
 3430 01f6 01       		.byte	0x1
 3431 01f7 55       		.uleb128 0x55
 3432 01f8 06       		.uleb128 0x6
 3433 01f9 00       		.byte	0
 3434 01fa 00       		.byte	0
 3435 01fb 28       		.uleb128 0x28
 3436 01fc 05       		.uleb128 0x5
 3437 01fd 00       		.byte	0
 3438 01fe 31       		.uleb128 0x31
 3439 01ff 13       		.uleb128 0x13
 3440 0200 00       		.byte	0
 3441 0201 00       		.byte	0
 3442 0202 29       		.uleb128 0x29
 3443 0203 898201   		.uleb128 0x4109
 3444 0206 01       		.byte	0x1
 3445 0207 11       		.uleb128 0x11
 3446 0208 01       		.uleb128 0x1
 3447 0209 9542     		.uleb128 0x2115
 3448 020b 0C       		.uleb128 0xc
 3449 020c 31       		.uleb128 0x31
 3450 020d 13       		.uleb128 0x13
 3451 020e 00       		.byte	0
 3452 020f 00       		.byte	0
 3453 0210 2A       		.uleb128 0x2a
 3454 0211 2E       		.uleb128 0x2e
 3455 0212 01       		.byte	0x1
 3456 0213 03       		.uleb128 0x3
 3457 0214 0E       		.uleb128 0xe
 3458 0215 3A       		.uleb128 0x3a
 3459 0216 0B       		.uleb128 0xb
 3460 0217 3B       		.uleb128 0x3b
ARM GAS  /tmp/cc7j7qCO.s 			page 62


 3461 0218 0B       		.uleb128 0xb
 3462 0219 27       		.uleb128 0x27
 3463 021a 0C       		.uleb128 0xc
 3464 021b 49       		.uleb128 0x49
 3465 021c 13       		.uleb128 0x13
 3466 021d 20       		.uleb128 0x20
 3467 021e 0B       		.uleb128 0xb
 3468 021f 01       		.uleb128 0x1
 3469 0220 13       		.uleb128 0x13
 3470 0221 00       		.byte	0
 3471 0222 00       		.byte	0
 3472 0223 2B       		.uleb128 0x2b
 3473 0224 05       		.uleb128 0x5
 3474 0225 00       		.byte	0
 3475 0226 03       		.uleb128 0x3
 3476 0227 08       		.uleb128 0x8
 3477 0228 3A       		.uleb128 0x3a
 3478 0229 0B       		.uleb128 0xb
 3479 022a 3B       		.uleb128 0x3b
 3480 022b 0B       		.uleb128 0xb
 3481 022c 49       		.uleb128 0x49
 3482 022d 13       		.uleb128 0x13
 3483 022e 00       		.byte	0
 3484 022f 00       		.byte	0
 3485 0230 2C       		.uleb128 0x2c
 3486 0231 34       		.uleb128 0x34
 3487 0232 00       		.byte	0
 3488 0233 03       		.uleb128 0x3
 3489 0234 08       		.uleb128 0x8
 3490 0235 3A       		.uleb128 0x3a
 3491 0236 0B       		.uleb128 0xb
 3492 0237 3B       		.uleb128 0x3b
 3493 0238 0B       		.uleb128 0xb
 3494 0239 49       		.uleb128 0x49
 3495 023a 13       		.uleb128 0x13
 3496 023b 00       		.byte	0
 3497 023c 00       		.byte	0
 3498 023d 2D       		.uleb128 0x2d
 3499 023e 2E       		.uleb128 0x2e
 3500 023f 01       		.byte	0x1
 3501 0240 3F       		.uleb128 0x3f
 3502 0241 0C       		.uleb128 0xc
 3503 0242 03       		.uleb128 0x3
 3504 0243 0E       		.uleb128 0xe
 3505 0244 3A       		.uleb128 0x3a
 3506 0245 0B       		.uleb128 0xb
 3507 0246 3B       		.uleb128 0x3b
 3508 0247 05       		.uleb128 0x5
 3509 0248 27       		.uleb128 0x27
 3510 0249 0C       		.uleb128 0xc
 3511 024a 11       		.uleb128 0x11
 3512 024b 01       		.uleb128 0x1
 3513 024c 12       		.uleb128 0x12
 3514 024d 01       		.uleb128 0x1
 3515 024e 40       		.uleb128 0x40
 3516 024f 06       		.uleb128 0x6
 3517 0250 9742     		.uleb128 0x2117
ARM GAS  /tmp/cc7j7qCO.s 			page 63


 3518 0252 0C       		.uleb128 0xc
 3519 0253 01       		.uleb128 0x1
 3520 0254 13       		.uleb128 0x13
 3521 0255 00       		.byte	0
 3522 0256 00       		.byte	0
 3523 0257 2E       		.uleb128 0x2e
 3524 0258 1D       		.uleb128 0x1d
 3525 0259 01       		.byte	0x1
 3526 025a 31       		.uleb128 0x31
 3527 025b 13       		.uleb128 0x13
 3528 025c 52       		.uleb128 0x52
 3529 025d 01       		.uleb128 0x1
 3530 025e 55       		.uleb128 0x55
 3531 025f 06       		.uleb128 0x6
 3532 0260 58       		.uleb128 0x58
 3533 0261 0B       		.uleb128 0xb
 3534 0262 59       		.uleb128 0x59
 3535 0263 05       		.uleb128 0x5
 3536 0264 01       		.uleb128 0x1
 3537 0265 13       		.uleb128 0x13
 3538 0266 00       		.byte	0
 3539 0267 00       		.byte	0
 3540 0268 2F       		.uleb128 0x2f
 3541 0269 34       		.uleb128 0x34
 3542 026a 00       		.byte	0
 3543 026b 31       		.uleb128 0x31
 3544 026c 13       		.uleb128 0x13
 3545 026d 02       		.uleb128 0x2
 3546 026e 06       		.uleb128 0x6
 3547 026f 00       		.byte	0
 3548 0270 00       		.byte	0
 3549 0271 30       		.uleb128 0x30
 3550 0272 34       		.uleb128 0x34
 3551 0273 00       		.byte	0
 3552 0274 31       		.uleb128 0x31
 3553 0275 13       		.uleb128 0x13
 3554 0276 02       		.uleb128 0x2
 3555 0277 0A       		.uleb128 0xa
 3556 0278 00       		.byte	0
 3557 0279 00       		.byte	0
 3558 027a 31       		.uleb128 0x31
 3559 027b 05       		.uleb128 0x5
 3560 027c 00       		.byte	0
 3561 027d 31       		.uleb128 0x31
 3562 027e 13       		.uleb128 0x13
 3563 027f 02       		.uleb128 0x2
 3564 0280 0A       		.uleb128 0xa
 3565 0281 00       		.byte	0
 3566 0282 00       		.byte	0
 3567 0283 32       		.uleb128 0x32
 3568 0284 898201   		.uleb128 0x4109
 3569 0287 01       		.byte	0x1
 3570 0288 11       		.uleb128 0x11
 3571 0289 01       		.uleb128 0x1
 3572 028a 00       		.byte	0
 3573 028b 00       		.byte	0
 3574 028c 33       		.uleb128 0x33
ARM GAS  /tmp/cc7j7qCO.s 			page 64


 3575 028d 898201   		.uleb128 0x4109
 3576 0290 00       		.byte	0
 3577 0291 11       		.uleb128 0x11
 3578 0292 01       		.uleb128 0x1
 3579 0293 9542     		.uleb128 0x2115
 3580 0295 0C       		.uleb128 0xc
 3581 0296 31       		.uleb128 0x31
 3582 0297 13       		.uleb128 0x13
 3583 0298 00       		.byte	0
 3584 0299 00       		.byte	0
 3585 029a 34       		.uleb128 0x34
 3586 029b 898201   		.uleb128 0x4109
 3587 029e 01       		.byte	0x1
 3588 029f 11       		.uleb128 0x11
 3589 02a0 01       		.uleb128 0x1
 3590 02a1 31       		.uleb128 0x31
 3591 02a2 13       		.uleb128 0x13
 3592 02a3 00       		.byte	0
 3593 02a4 00       		.byte	0
 3594 02a5 35       		.uleb128 0x35
 3595 02a6 898201   		.uleb128 0x4109
 3596 02a9 01       		.byte	0x1
 3597 02aa 11       		.uleb128 0x11
 3598 02ab 01       		.uleb128 0x1
 3599 02ac 31       		.uleb128 0x31
 3600 02ad 13       		.uleb128 0x13
 3601 02ae 01       		.uleb128 0x1
 3602 02af 13       		.uleb128 0x13
 3603 02b0 00       		.byte	0
 3604 02b1 00       		.byte	0
 3605 02b2 36       		.uleb128 0x36
 3606 02b3 0B       		.uleb128 0xb
 3607 02b4 01       		.byte	0x1
 3608 02b5 11       		.uleb128 0x11
 3609 02b6 01       		.uleb128 0x1
 3610 02b7 12       		.uleb128 0x12
 3611 02b8 01       		.uleb128 0x1
 3612 02b9 00       		.byte	0
 3613 02ba 00       		.byte	0
 3614 02bb 37       		.uleb128 0x37
 3615 02bc 2E       		.uleb128 0x2e
 3616 02bd 01       		.byte	0x1
 3617 02be 3F       		.uleb128 0x3f
 3618 02bf 0C       		.uleb128 0xc
 3619 02c0 03       		.uleb128 0x3
 3620 02c1 0E       		.uleb128 0xe
 3621 02c2 3A       		.uleb128 0x3a
 3622 02c3 0B       		.uleb128 0xb
 3623 02c4 3B       		.uleb128 0x3b
 3624 02c5 05       		.uleb128 0x5
 3625 02c6 27       		.uleb128 0x27
 3626 02c7 0C       		.uleb128 0xc
 3627 02c8 11       		.uleb128 0x11
 3628 02c9 01       		.uleb128 0x1
 3629 02ca 12       		.uleb128 0x12
 3630 02cb 01       		.uleb128 0x1
 3631 02cc 40       		.uleb128 0x40
ARM GAS  /tmp/cc7j7qCO.s 			page 65


 3632 02cd 0A       		.uleb128 0xa
 3633 02ce 9742     		.uleb128 0x2117
 3634 02d0 0C       		.uleb128 0xc
 3635 02d1 01       		.uleb128 0x1
 3636 02d2 13       		.uleb128 0x13
 3637 02d3 00       		.byte	0
 3638 02d4 00       		.byte	0
 3639 02d5 38       		.uleb128 0x38
 3640 02d6 05       		.uleb128 0x5
 3641 02d7 00       		.byte	0
 3642 02d8 03       		.uleb128 0x3
 3643 02d9 08       		.uleb128 0x8
 3644 02da 3A       		.uleb128 0x3a
 3645 02db 0B       		.uleb128 0xb
 3646 02dc 3B       		.uleb128 0x3b
 3647 02dd 05       		.uleb128 0x5
 3648 02de 49       		.uleb128 0x49
 3649 02df 13       		.uleb128 0x13
 3650 02e0 02       		.uleb128 0x2
 3651 02e1 06       		.uleb128 0x6
 3652 02e2 00       		.byte	0
 3653 02e3 00       		.byte	0
 3654 02e4 39       		.uleb128 0x39
 3655 02e5 26       		.uleb128 0x26
 3656 02e6 00       		.byte	0
 3657 02e7 00       		.byte	0
 3658 02e8 00       		.byte	0
 3659 02e9 3A       		.uleb128 0x3a
 3660 02ea 2E       		.uleb128 0x2e
 3661 02eb 01       		.byte	0x1
 3662 02ec 3F       		.uleb128 0x3f
 3663 02ed 0C       		.uleb128 0xc
 3664 02ee 03       		.uleb128 0x3
 3665 02ef 0E       		.uleb128 0xe
 3666 02f0 3A       		.uleb128 0x3a
 3667 02f1 0B       		.uleb128 0xb
 3668 02f2 3B       		.uleb128 0x3b
 3669 02f3 05       		.uleb128 0x5
 3670 02f4 27       		.uleb128 0x27
 3671 02f5 0C       		.uleb128 0xc
 3672 02f6 49       		.uleb128 0x49
 3673 02f7 13       		.uleb128 0x13
 3674 02f8 11       		.uleb128 0x11
 3675 02f9 01       		.uleb128 0x1
 3676 02fa 12       		.uleb128 0x12
 3677 02fb 01       		.uleb128 0x1
 3678 02fc 40       		.uleb128 0x40
 3679 02fd 0A       		.uleb128 0xa
 3680 02fe 9742     		.uleb128 0x2117
 3681 0300 0C       		.uleb128 0xc
 3682 0301 01       		.uleb128 0x1
 3683 0302 13       		.uleb128 0x13
 3684 0303 00       		.byte	0
 3685 0304 00       		.byte	0
 3686 0305 3B       		.uleb128 0x3b
 3687 0306 2E       		.uleb128 0x2e
 3688 0307 01       		.byte	0x1
ARM GAS  /tmp/cc7j7qCO.s 			page 66


 3689 0308 3F       		.uleb128 0x3f
 3690 0309 0C       		.uleb128 0xc
 3691 030a 03       		.uleb128 0x3
 3692 030b 0E       		.uleb128 0xe
 3693 030c 3A       		.uleb128 0x3a
 3694 030d 0B       		.uleb128 0xb
 3695 030e 3B       		.uleb128 0x3b
 3696 030f 05       		.uleb128 0x5
 3697 0310 27       		.uleb128 0x27
 3698 0311 0C       		.uleb128 0xc
 3699 0312 49       		.uleb128 0x49
 3700 0313 13       		.uleb128 0x13
 3701 0314 11       		.uleb128 0x11
 3702 0315 01       		.uleb128 0x1
 3703 0316 12       		.uleb128 0x12
 3704 0317 01       		.uleb128 0x1
 3705 0318 40       		.uleb128 0x40
 3706 0319 06       		.uleb128 0x6
 3707 031a 9742     		.uleb128 0x2117
 3708 031c 0C       		.uleb128 0xc
 3709 031d 01       		.uleb128 0x1
 3710 031e 13       		.uleb128 0x13
 3711 031f 00       		.byte	0
 3712 0320 00       		.byte	0
 3713 0321 3C       		.uleb128 0x3c
 3714 0322 34       		.uleb128 0x34
 3715 0323 00       		.byte	0
 3716 0324 03       		.uleb128 0x3
 3717 0325 08       		.uleb128 0x8
 3718 0326 3A       		.uleb128 0x3a
 3719 0327 0B       		.uleb128 0xb
 3720 0328 3B       		.uleb128 0x3b
 3721 0329 05       		.uleb128 0x5
 3722 032a 49       		.uleb128 0x49
 3723 032b 13       		.uleb128 0x13
 3724 032c 02       		.uleb128 0x2
 3725 032d 0A       		.uleb128 0xa
 3726 032e 00       		.byte	0
 3727 032f 00       		.byte	0
 3728 0330 3D       		.uleb128 0x3d
 3729 0331 34       		.uleb128 0x34
 3730 0332 00       		.byte	0
 3731 0333 03       		.uleb128 0x3
 3732 0334 0E       		.uleb128 0xe
 3733 0335 3A       		.uleb128 0x3a
 3734 0336 0B       		.uleb128 0xb
 3735 0337 3B       		.uleb128 0x3b
 3736 0338 05       		.uleb128 0x5
 3737 0339 49       		.uleb128 0x49
 3738 033a 13       		.uleb128 0x13
 3739 033b 3F       		.uleb128 0x3f
 3740 033c 0C       		.uleb128 0xc
 3741 033d 3C       		.uleb128 0x3c
 3742 033e 0C       		.uleb128 0xc
 3743 033f 00       		.byte	0
 3744 0340 00       		.byte	0
 3745 0341 3E       		.uleb128 0x3e
ARM GAS  /tmp/cc7j7qCO.s 			page 67


 3746 0342 34       		.uleb128 0x34
 3747 0343 00       		.byte	0
 3748 0344 03       		.uleb128 0x3
 3749 0345 0E       		.uleb128 0xe
 3750 0346 3A       		.uleb128 0x3a
 3751 0347 0B       		.uleb128 0xb
 3752 0348 3B       		.uleb128 0x3b
 3753 0349 0B       		.uleb128 0xb
 3754 034a 49       		.uleb128 0x49
 3755 034b 13       		.uleb128 0x13
 3756 034c 3F       		.uleb128 0x3f
 3757 034d 0C       		.uleb128 0xc
 3758 034e 02       		.uleb128 0x2
 3759 034f 0A       		.uleb128 0xa
 3760 0350 00       		.byte	0
 3761 0351 00       		.byte	0
 3762 0352 3F       		.uleb128 0x3f
 3763 0353 2E       		.uleb128 0x2e
 3764 0354 00       		.byte	0
 3765 0355 3F       		.uleb128 0x3f
 3766 0356 0C       		.uleb128 0xc
 3767 0357 03       		.uleb128 0x3
 3768 0358 0E       		.uleb128 0xe
 3769 0359 3A       		.uleb128 0x3a
 3770 035a 0B       		.uleb128 0xb
 3771 035b 3B       		.uleb128 0x3b
 3772 035c 05       		.uleb128 0x5
 3773 035d 27       		.uleb128 0x27
 3774 035e 0C       		.uleb128 0xc
 3775 035f 3C       		.uleb128 0x3c
 3776 0360 0C       		.uleb128 0xc
 3777 0361 00       		.byte	0
 3778 0362 00       		.byte	0
 3779 0363 40       		.uleb128 0x40
 3780 0364 2E       		.uleb128 0x2e
 3781 0365 01       		.byte	0x1
 3782 0366 3F       		.uleb128 0x3f
 3783 0367 0C       		.uleb128 0xc
 3784 0368 03       		.uleb128 0x3
 3785 0369 0E       		.uleb128 0xe
 3786 036a 3A       		.uleb128 0x3a
 3787 036b 0B       		.uleb128 0xb
 3788 036c 3B       		.uleb128 0x3b
 3789 036d 0B       		.uleb128 0xb
 3790 036e 27       		.uleb128 0x27
 3791 036f 0C       		.uleb128 0xc
 3792 0370 3C       		.uleb128 0x3c
 3793 0371 0C       		.uleb128 0xc
 3794 0372 01       		.uleb128 0x1
 3795 0373 13       		.uleb128 0x13
 3796 0374 00       		.byte	0
 3797 0375 00       		.byte	0
 3798 0376 41       		.uleb128 0x41
 3799 0377 2E       		.uleb128 0x2e
 3800 0378 01       		.byte	0x1
 3801 0379 3F       		.uleb128 0x3f
 3802 037a 0C       		.uleb128 0xc
ARM GAS  /tmp/cc7j7qCO.s 			page 68


 3803 037b 03       		.uleb128 0x3
 3804 037c 0E       		.uleb128 0xe
 3805 037d 3A       		.uleb128 0x3a
 3806 037e 0B       		.uleb128 0xb
 3807 037f 3B       		.uleb128 0x3b
 3808 0380 05       		.uleb128 0x5
 3809 0381 27       		.uleb128 0x27
 3810 0382 0C       		.uleb128 0xc
 3811 0383 49       		.uleb128 0x49
 3812 0384 13       		.uleb128 0x13
 3813 0385 3C       		.uleb128 0x3c
 3814 0386 0C       		.uleb128 0xc
 3815 0387 01       		.uleb128 0x1
 3816 0388 13       		.uleb128 0x13
 3817 0389 00       		.byte	0
 3818 038a 00       		.byte	0
 3819 038b 42       		.uleb128 0x42
 3820 038c 2E       		.uleb128 0x2e
 3821 038d 01       		.byte	0x1
 3822 038e 3F       		.uleb128 0x3f
 3823 038f 0C       		.uleb128 0xc
 3824 0390 03       		.uleb128 0x3
 3825 0391 0E       		.uleb128 0xe
 3826 0392 3A       		.uleb128 0x3a
 3827 0393 0B       		.uleb128 0xb
 3828 0394 3B       		.uleb128 0x3b
 3829 0395 05       		.uleb128 0x5
 3830 0396 27       		.uleb128 0x27
 3831 0397 0C       		.uleb128 0xc
 3832 0398 3C       		.uleb128 0x3c
 3833 0399 0C       		.uleb128 0xc
 3834 039a 01       		.uleb128 0x1
 3835 039b 13       		.uleb128 0x13
 3836 039c 00       		.byte	0
 3837 039d 00       		.byte	0
 3838 039e 43       		.uleb128 0x43
 3839 039f 2E       		.uleb128 0x2e
 3840 03a0 01       		.byte	0x1
 3841 03a1 3F       		.uleb128 0x3f
 3842 03a2 0C       		.uleb128 0xc
 3843 03a3 03       		.uleb128 0x3
 3844 03a4 0E       		.uleb128 0xe
 3845 03a5 3A       		.uleb128 0x3a
 3846 03a6 0B       		.uleb128 0xb
 3847 03a7 3B       		.uleb128 0x3b
 3848 03a8 05       		.uleb128 0x5
 3849 03a9 27       		.uleb128 0x27
 3850 03aa 0C       		.uleb128 0xc
 3851 03ab 3C       		.uleb128 0x3c
 3852 03ac 0C       		.uleb128 0xc
 3853 03ad 00       		.byte	0
 3854 03ae 00       		.byte	0
 3855 03af 00       		.byte	0
 3856              		.section	.debug_loc,"",%progbits
 3857              	.Ldebug_loc0:
 3858              	.LLST0:
 3859 0000 00000000 		.4byte	.LFB119
ARM GAS  /tmp/cc7j7qCO.s 			page 69


 3860 0004 04000000 		.4byte	.LCFI0
 3861 0008 0200     		.2byte	0x2
 3862 000a 7D       		.byte	0x7d
 3863 000b 00       		.sleb128 0
 3864 000c 04000000 		.4byte	.LCFI0
 3865 0010 30000000 		.4byte	.LFE119
 3866 0014 0200     		.2byte	0x2
 3867 0016 7D       		.byte	0x7d
 3868 0017 04       		.sleb128 4
 3869 0018 00000000 		.4byte	0
 3870 001c 00000000 		.4byte	0
 3871              	.LLST1:
 3872 0020 00000000 		.4byte	.LVL0
 3873 0024 10000000 		.4byte	.LVL1
 3874 0028 0100     		.2byte	0x1
 3875 002a 50       		.byte	0x50
 3876 002b 10000000 		.4byte	.LVL1
 3877 002f 22000000 		.4byte	.LVL4
 3878 0033 0300     		.2byte	0x3
 3879 0035 71       		.byte	0x71
 3880 0036 68       		.sleb128 -24
 3881 0037 9F       		.byte	0x9f
 3882 0038 22000000 		.4byte	.LVL4
 3883 003c 30000000 		.4byte	.LFE119
 3884 0040 0600     		.2byte	0x6
 3885 0042 73       		.byte	0x73
 3886 0043 0C       		.sleb128 12
 3887 0044 06       		.byte	0x6
 3888 0045 48       		.byte	0x48
 3889 0046 1C       		.byte	0x1c
 3890 0047 9F       		.byte	0x9f
 3891 0048 00000000 		.4byte	0
 3892 004c 00000000 		.4byte	0
 3893              	.LLST2:
 3894 0050 1E000000 		.4byte	.LVL2
 3895 0054 20000000 		.4byte	.LVL3
 3896 0058 0100     		.2byte	0x1
 3897 005a 52       		.byte	0x52
 3898 005b 20000000 		.4byte	.LVL3
 3899 005f 22000000 		.4byte	.LVL4
 3900 0063 1400     		.2byte	0x14
 3901 0065 0A       		.byte	0xa
 3902 0066 1001     		.2byte	0x110
 3903 0068 0A       		.byte	0xa
 3904 0069 0001     		.2byte	0x100
 3905 006b 71       		.byte	0x71
 3906 006c 6C       		.sleb128 -20
 3907 006d 06       		.byte	0x6
 3908 006e 23       		.byte	0x23
 3909 006f 0C       		.uleb128 0xc
 3910 0070 06       		.byte	0x6
 3911 0071 30       		.byte	0x30
 3912 0072 2E       		.byte	0x2e
 3913 0073 28       		.byte	0x28
 3914 0074 0100     		.2byte	0x1
 3915 0076 16       		.byte	0x16
 3916 0077 13       		.byte	0x13
ARM GAS  /tmp/cc7j7qCO.s 			page 70


 3917 0078 9F       		.byte	0x9f
 3918 0079 22000000 		.4byte	.LVL4
 3919 007d 30000000 		.4byte	.LFE119
 3920 0081 1700     		.2byte	0x17
 3921 0083 0A       		.byte	0xa
 3922 0084 1001     		.2byte	0x110
 3923 0086 0A       		.byte	0xa
 3924 0087 0001     		.2byte	0x100
 3925 0089 73       		.byte	0x73
 3926 008a 0C       		.sleb128 12
 3927 008b 06       		.byte	0x6
 3928 008c 44       		.byte	0x44
 3929 008d 1C       		.byte	0x1c
 3930 008e 06       		.byte	0x6
 3931 008f 23       		.byte	0x23
 3932 0090 0C       		.uleb128 0xc
 3933 0091 06       		.byte	0x6
 3934 0092 30       		.byte	0x30
 3935 0093 2E       		.byte	0x2e
 3936 0094 28       		.byte	0x28
 3937 0095 0100     		.2byte	0x1
 3938 0097 16       		.byte	0x16
 3939 0098 13       		.byte	0x13
 3940 0099 9F       		.byte	0x9f
 3941 009a 00000000 		.4byte	0
 3942 009e 00000000 		.4byte	0
 3943              	.LLST3:
 3944 00a2 00000000 		.4byte	.LFB120
 3945 00a6 02000000 		.4byte	.LCFI1
 3946 00aa 0200     		.2byte	0x2
 3947 00ac 7D       		.byte	0x7d
 3948 00ad 00       		.sleb128 0
 3949 00ae 02000000 		.4byte	.LCFI1
 3950 00b2 4C000000 		.4byte	.LFE120
 3951 00b6 0200     		.2byte	0x2
 3952 00b8 7D       		.byte	0x7d
 3953 00b9 08       		.sleb128 8
 3954 00ba 00000000 		.4byte	0
 3955 00be 00000000 		.4byte	0
 3956              	.LLST4:
 3957 00c2 00000000 		.4byte	.LVL5
 3958 00c6 3C000000 		.4byte	.LVL6
 3959 00ca 0100     		.2byte	0x1
 3960 00cc 50       		.byte	0x50
 3961 00cd 3C000000 		.4byte	.LVL6
 3962 00d1 4C000000 		.4byte	.LFE120
 3963 00d5 0400     		.2byte	0x4
 3964 00d7 F3       		.byte	0xf3
 3965 00d8 01       		.uleb128 0x1
 3966 00d9 50       		.byte	0x50
 3967 00da 9F       		.byte	0x9f
 3968 00db 00000000 		.4byte	0
 3969 00df 00000000 		.4byte	0
 3970              	.LLST5:
 3971 00e3 00000000 		.4byte	.LFB123
 3972 00e7 06000000 		.4byte	.LCFI2
 3973 00eb 0200     		.2byte	0x2
ARM GAS  /tmp/cc7j7qCO.s 			page 71


 3974 00ed 7D       		.byte	0x7d
 3975 00ee 00       		.sleb128 0
 3976 00ef 06000000 		.4byte	.LCFI2
 3977 00f3 4A000000 		.4byte	.LFE123
 3978 00f7 0200     		.2byte	0x2
 3979 00f9 7D       		.byte	0x7d
 3980 00fa 08       		.sleb128 8
 3981 00fb 00000000 		.4byte	0
 3982 00ff 00000000 		.4byte	0
 3983              	.LLST6:
 3984 0103 00000000 		.4byte	.LVL7
 3985 0107 0A000000 		.4byte	.LVL8
 3986 010b 0100     		.2byte	0x1
 3987 010d 50       		.byte	0x50
 3988 010e 0A000000 		.4byte	.LVL8
 3989 0112 44000000 		.4byte	.LVL10
 3990 0116 0100     		.2byte	0x1
 3991 0118 54       		.byte	0x54
 3992 0119 44000000 		.4byte	.LVL10
 3993 011d 47000000 		.4byte	.LVL11-1
 3994 0121 0100     		.2byte	0x1
 3995 0123 50       		.byte	0x50
 3996 0124 47000000 		.4byte	.LVL11-1
 3997 0128 4A000000 		.4byte	.LFE123
 3998 012c 0100     		.2byte	0x1
 3999 012e 54       		.byte	0x54
 4000 012f 00000000 		.4byte	0
 4001 0133 00000000 		.4byte	0
 4002              	.LLST7:
 4003 0137 00000000 		.4byte	.LVL7
 4004 013b 0A000000 		.4byte	.LVL8
 4005 013f 0100     		.2byte	0x1
 4006 0141 51       		.byte	0x51
 4007 0142 0A000000 		.4byte	.LVL8
 4008 0146 44000000 		.4byte	.LVL10
 4009 014a 0400     		.2byte	0x4
 4010 014c F3       		.byte	0xf3
 4011 014d 01       		.uleb128 0x1
 4012 014e 51       		.byte	0x51
 4013 014f 9F       		.byte	0x9f
 4014 0150 44000000 		.4byte	.LVL10
 4015 0154 47000000 		.4byte	.LVL11-1
 4016 0158 0100     		.2byte	0x1
 4017 015a 51       		.byte	0x51
 4018 015b 47000000 		.4byte	.LVL11-1
 4019 015f 4A000000 		.4byte	.LFE123
 4020 0163 0400     		.2byte	0x4
 4021 0165 F3       		.byte	0xf3
 4022 0166 01       		.uleb128 0x1
 4023 0167 51       		.byte	0x51
 4024 0168 9F       		.byte	0x9f
 4025 0169 00000000 		.4byte	0
 4026 016d 00000000 		.4byte	0
 4027              	.LLST8:
 4028 0171 00000000 		.4byte	.LFB122
 4029 0175 06000000 		.4byte	.LCFI3
 4030 0179 0200     		.2byte	0x2
ARM GAS  /tmp/cc7j7qCO.s 			page 72


 4031 017b 7D       		.byte	0x7d
 4032 017c 00       		.sleb128 0
 4033 017d 06000000 		.4byte	.LCFI3
 4034 0181 66000000 		.4byte	.LFE122
 4035 0185 0200     		.2byte	0x2
 4036 0187 7D       		.byte	0x7d
 4037 0188 08       		.sleb128 8
 4038 0189 00000000 		.4byte	0
 4039 018d 00000000 		.4byte	0
 4040              	.LLST9:
 4041 0191 00000000 		.4byte	.LVL12
 4042 0195 0A000000 		.4byte	.LVL13
 4043 0199 0100     		.2byte	0x1
 4044 019b 50       		.byte	0x50
 4045 019c 0A000000 		.4byte	.LVL13
 4046 01a0 52000000 		.4byte	.LVL18
 4047 01a4 0100     		.2byte	0x1
 4048 01a6 54       		.byte	0x54
 4049 01a7 52000000 		.4byte	.LVL18
 4050 01ab 55000000 		.4byte	.LVL19-1
 4051 01af 0100     		.2byte	0x1
 4052 01b1 50       		.byte	0x50
 4053 01b2 55000000 		.4byte	.LVL19-1
 4054 01b6 66000000 		.4byte	.LFE122
 4055 01ba 0100     		.2byte	0x1
 4056 01bc 54       		.byte	0x54
 4057 01bd 00000000 		.4byte	0
 4058 01c1 00000000 		.4byte	0
 4059              	.LLST10:
 4060 01c5 00000000 		.4byte	.LVL12
 4061 01c9 0A000000 		.4byte	.LVL13
 4062 01cd 0100     		.2byte	0x1
 4063 01cf 51       		.byte	0x51
 4064 01d0 0A000000 		.4byte	.LVL13
 4065 01d4 52000000 		.4byte	.LVL18
 4066 01d8 0400     		.2byte	0x4
 4067 01da F3       		.byte	0xf3
 4068 01db 01       		.uleb128 0x1
 4069 01dc 51       		.byte	0x51
 4070 01dd 9F       		.byte	0x9f
 4071 01de 52000000 		.4byte	.LVL18
 4072 01e2 55000000 		.4byte	.LVL19-1
 4073 01e6 0100     		.2byte	0x1
 4074 01e8 51       		.byte	0x51
 4075 01e9 55000000 		.4byte	.LVL19-1
 4076 01ed 66000000 		.4byte	.LFE122
 4077 01f1 0400     		.2byte	0x4
 4078 01f3 F3       		.byte	0xf3
 4079 01f4 01       		.uleb128 0x1
 4080 01f5 51       		.byte	0x51
 4081 01f6 9F       		.byte	0x9f
 4082 01f7 00000000 		.4byte	0
 4083 01fb 00000000 		.4byte	0
 4084              	.LLST11:
 4085 01ff 1E000000 		.4byte	.LVL15
 4086 0203 50000000 		.4byte	.LVL17
 4087 0207 0100     		.2byte	0x1
ARM GAS  /tmp/cc7j7qCO.s 			page 73


 4088 0209 54       		.byte	0x54
 4089 020a 58000000 		.4byte	.LVL20
 4090 020e 66000000 		.4byte	.LFE122
 4091 0212 0100     		.2byte	0x1
 4092 0214 54       		.byte	0x54
 4093 0215 00000000 		.4byte	0
 4094 0219 00000000 		.4byte	0
 4095              	.LLST12:
 4096 021d 00000000 		.4byte	.LFB125
 4097 0221 02000000 		.4byte	.LCFI4
 4098 0225 0200     		.2byte	0x2
 4099 0227 7D       		.byte	0x7d
 4100 0228 00       		.sleb128 0
 4101 0229 02000000 		.4byte	.LCFI4
 4102 022d 84000000 		.4byte	.LFE125
 4103 0231 0200     		.2byte	0x2
 4104 0233 7D       		.byte	0x7d
 4105 0234 10       		.sleb128 16
 4106 0235 00000000 		.4byte	0
 4107 0239 00000000 		.4byte	0
 4108              	.LLST13:
 4109 023d 0C000000 		.4byte	.LVL24
 4110 0241 5E000000 		.4byte	.LVL31
 4111 0245 0100     		.2byte	0x1
 4112 0247 54       		.byte	0x54
 4113 0248 7A000000 		.4byte	.LVL33
 4114 024c 84000000 		.4byte	.LFE125
 4115 0250 0100     		.2byte	0x1
 4116 0252 54       		.byte	0x54
 4117 0253 00000000 		.4byte	0
 4118 0257 00000000 		.4byte	0
 4119              	.LLST14:
 4120 025b 20000000 		.4byte	.LVL25
 4121 025f 5A000000 		.4byte	.LVL30
 4122 0263 0100     		.2byte	0x1
 4123 0265 54       		.byte	0x54
 4124 0266 7A000000 		.4byte	.LVL33
 4125 026a 84000000 		.4byte	.LFE125
 4126 026e 0100     		.2byte	0x1
 4127 0270 54       		.byte	0x54
 4128 0271 00000000 		.4byte	0
 4129 0275 00000000 		.4byte	0
 4130              	.LLST15:
 4131 0279 20000000 		.4byte	.LVL25
 4132 027d 2E000000 		.4byte	.LVL26
 4133 0281 0200     		.2byte	0x2
 4134 0283 30       		.byte	0x30
 4135 0284 9F       		.byte	0x9f
 4136 0285 2E000000 		.4byte	.LVL26
 4137 0289 59000000 		.4byte	.LVL30-1
 4138 028d 0100     		.2byte	0x1
 4139 028f 51       		.byte	0x51
 4140 0290 7A000000 		.4byte	.LVL33
 4141 0294 84000000 		.4byte	.LFE125
 4142 0298 0100     		.2byte	0x1
 4143 029a 51       		.byte	0x51
 4144 029b 00000000 		.4byte	0
ARM GAS  /tmp/cc7j7qCO.s 			page 74


 4145 029f 00000000 		.4byte	0
 4146              	.LLST16:
 4147 02a3 00000000 		.4byte	.LFB126
 4148 02a7 02000000 		.4byte	.LCFI5
 4149 02ab 0200     		.2byte	0x2
 4150 02ad 7D       		.byte	0x7d
 4151 02ae 00       		.sleb128 0
 4152 02af 02000000 		.4byte	.LCFI5
 4153 02b3 30000000 		.4byte	.LFE126
 4154 02b7 0200     		.2byte	0x2
 4155 02b9 7D       		.byte	0x7d
 4156 02ba 08       		.sleb128 8
 4157 02bb 00000000 		.4byte	0
 4158 02bf 00000000 		.4byte	0
 4159              	.LLST17:
 4160 02c3 00000000 		.4byte	.LFB127
 4161 02c7 02000000 		.4byte	.LCFI6
 4162 02cb 0200     		.2byte	0x2
 4163 02cd 7D       		.byte	0x7d
 4164 02ce 00       		.sleb128 0
 4165 02cf 02000000 		.4byte	.LCFI6
 4166 02d3 14010000 		.4byte	.LFE127
 4167 02d7 0200     		.2byte	0x2
 4168 02d9 7D       		.byte	0x7d
 4169 02da 18       		.sleb128 24
 4170 02db 00000000 		.4byte	0
 4171 02df 00000000 		.4byte	0
 4172              	.LLST18:
 4173 02e3 00000000 		.4byte	.LVL36
 4174 02e7 0C000000 		.4byte	.LVL37
 4175 02eb 0100     		.2byte	0x1
 4176 02ed 50       		.byte	0x50
 4177 02ee 0C000000 		.4byte	.LVL37
 4178 02f2 82000000 		.4byte	.LVL42
 4179 02f6 0100     		.2byte	0x1
 4180 02f8 54       		.byte	0x54
 4181 02f9 82000000 		.4byte	.LVL42
 4182 02fd 84000000 		.4byte	.LVL43
 4183 0301 0100     		.2byte	0x1
 4184 0303 50       		.byte	0x50
 4185 0304 84000000 		.4byte	.LVL43
 4186 0308 14010000 		.4byte	.LFE127
 4187 030c 0100     		.2byte	0x1
 4188 030e 54       		.byte	0x54
 4189 030f 00000000 		.4byte	0
 4190 0313 00000000 		.4byte	0
 4191              	.LLST19:
 4192 0317 14000000 		.4byte	.LVL38
 4193 031b 17000000 		.4byte	.LVL39-1
 4194 031f 0100     		.2byte	0x1
 4195 0321 50       		.byte	0x50
 4196 0322 17000000 		.4byte	.LVL39-1
 4197 0326 82000000 		.4byte	.LVL42
 4198 032a 0100     		.2byte	0x1
 4199 032c 54       		.byte	0x54
 4200 032d AC000000 		.4byte	.LVL44
 4201 0331 C2000000 		.4byte	.LVL45
ARM GAS  /tmp/cc7j7qCO.s 			page 75


 4202 0335 0100     		.2byte	0x1
 4203 0337 54       		.byte	0x54
 4204 0338 00000000 		.4byte	0
 4205 033c 00000000 		.4byte	0
 4206              	.LLST20:
 4207 0340 60000000 		.4byte	.LVL40
 4208 0344 62000000 		.4byte	.LVL41
 4209 0348 0100     		.2byte	0x1
 4210 034a 53       		.byte	0x53
 4211 034b 62000000 		.4byte	.LVL41
 4212 034f 82000000 		.4byte	.LVL42
 4213 0353 0F00     		.2byte	0xf
 4214 0355 0A       		.byte	0xa
 4215 0356 4C21     		.2byte	0x214c
 4216 0358 76       		.byte	0x76
 4217 0359 00       		.sleb128 0
 4218 035a 77       		.byte	0x77
 4219 035b 00       		.sleb128 0
 4220 035c 30       		.byte	0x30
 4221 035d 2E       		.byte	0x2e
 4222 035e 28       		.byte	0x28
 4223 035f 0100     		.2byte	0x1
 4224 0361 16       		.byte	0x16
 4225 0362 13       		.byte	0x13
 4226 0363 9F       		.byte	0x9f
 4227 0364 00000000 		.4byte	0
 4228 0368 00000000 		.4byte	0
 4229              	.LLST21:
 4230 036c 14000000 		.4byte	.LVL38
 4231 0370 82000000 		.4byte	.LVL42
 4232 0374 0100     		.2byte	0x1
 4233 0376 55       		.byte	0x55
 4234 0377 AC000000 		.4byte	.LVL44
 4235 037b C2000000 		.4byte	.LVL45
 4236 037f 0100     		.2byte	0x1
 4237 0381 55       		.byte	0x55
 4238 0382 00000000 		.4byte	0
 4239 0386 00000000 		.4byte	0
 4240              	.LLST22:
 4241 038a 00000000 		.4byte	.LFB128
 4242 038e 06000000 		.4byte	.LCFI7
 4243 0392 0200     		.2byte	0x2
 4244 0394 7D       		.byte	0x7d
 4245 0395 00       		.sleb128 0
 4246 0396 06000000 		.4byte	.LCFI7
 4247 039a 40000000 		.4byte	.LFE128
 4248 039e 0200     		.2byte	0x2
 4249 03a0 7D       		.byte	0x7d
 4250 03a1 08       		.sleb128 8
 4251 03a2 00000000 		.4byte	0
 4252 03a6 00000000 		.4byte	0
 4253              	.LLST23:
 4254 03aa 00000000 		.4byte	.LVL49
 4255 03ae 0A000000 		.4byte	.LVL50
 4256 03b2 0100     		.2byte	0x1
 4257 03b4 50       		.byte	0x50
 4258 03b5 0A000000 		.4byte	.LVL50
ARM GAS  /tmp/cc7j7qCO.s 			page 76


 4259 03b9 0C000000 		.4byte	.LVL51
 4260 03bd 0100     		.2byte	0x1
 4261 03bf 54       		.byte	0x54
 4262 03c0 0C000000 		.4byte	.LVL51
 4263 03c4 0F000000 		.4byte	.LVL52-1
 4264 03c8 0100     		.2byte	0x1
 4265 03ca 50       		.byte	0x50
 4266 03cb 0F000000 		.4byte	.LVL52-1
 4267 03cf 40000000 		.4byte	.LFE128
 4268 03d3 0100     		.2byte	0x1
 4269 03d5 54       		.byte	0x54
 4270 03d6 00000000 		.4byte	0
 4271 03da 00000000 		.4byte	0
 4272              	.LLST24:
 4273 03de 00000000 		.4byte	.LVL56
 4274 03e2 04000000 		.4byte	.LVL57
 4275 03e6 0100     		.2byte	0x1
 4276 03e8 50       		.byte	0x50
 4277 03e9 04000000 		.4byte	.LVL57
 4278 03ed 1A000000 		.4byte	.LFE129
 4279 03f1 0400     		.2byte	0x4
 4280 03f3 F3       		.byte	0xf3
 4281 03f4 01       		.uleb128 0x1
 4282 03f5 50       		.byte	0x50
 4283 03f6 9F       		.byte	0x9f
 4284 03f7 00000000 		.4byte	0
 4285 03fb 00000000 		.4byte	0
 4286              	.LLST25:
 4287 03ff 00000000 		.4byte	.LVL56
 4288 0403 16000000 		.4byte	.LVL59
 4289 0407 0100     		.2byte	0x1
 4290 0409 51       		.byte	0x51
 4291 040a 16000000 		.4byte	.LVL59
 4292 040e 1A000000 		.4byte	.LFE129
 4293 0412 0200     		.2byte	0x2
 4294 0414 73       		.byte	0x73
 4295 0415 04       		.sleb128 4
 4296 0416 00000000 		.4byte	0
 4297 041a 00000000 		.4byte	0
 4298              	.LLST26:
 4299 041e 00000000 		.4byte	.LVL56
 4300 0422 12000000 		.4byte	.LVL58
 4301 0426 0100     		.2byte	0x1
 4302 0428 52       		.byte	0x52
 4303 0429 12000000 		.4byte	.LVL58
 4304 042d 1A000000 		.4byte	.LFE129
 4305 0431 0200     		.2byte	0x2
 4306 0433 73       		.byte	0x73
 4307 0434 0C       		.sleb128 12
 4308 0435 00000000 		.4byte	0
 4309 0439 00000000 		.4byte	0
 4310              	.LLST27:
 4311 043d 00000000 		.4byte	.LVL60
 4312 0441 0A000000 		.4byte	.LVL61
 4313 0445 0100     		.2byte	0x1
 4314 0447 50       		.byte	0x50
 4315 0448 0A000000 		.4byte	.LVL61
ARM GAS  /tmp/cc7j7qCO.s 			page 77


 4316 044c 22000000 		.4byte	.LFE130
 4317 0450 0400     		.2byte	0x4
 4318 0452 F3       		.byte	0xf3
 4319 0453 01       		.uleb128 0x1
 4320 0454 50       		.byte	0x50
 4321 0455 9F       		.byte	0x9f
 4322 0456 00000000 		.4byte	0
 4323 045a 00000000 		.4byte	0
 4324              	.LLST28:
 4325 045e 00000000 		.4byte	.LFB131
 4326 0462 02000000 		.4byte	.LCFI8
 4327 0466 0200     		.2byte	0x2
 4328 0468 7D       		.byte	0x7d
 4329 0469 00       		.sleb128 0
 4330 046a 02000000 		.4byte	.LCFI8
 4331 046e 38000000 		.4byte	.LFE131
 4332 0472 0200     		.2byte	0x2
 4333 0474 7D       		.byte	0x7d
 4334 0475 0C       		.sleb128 12
 4335 0476 00000000 		.4byte	0
 4336 047a 00000000 		.4byte	0
 4337              	.LLST29:
 4338 047e 00000000 		.4byte	.LVL62
 4339 0482 22000000 		.4byte	.LVL63
 4340 0486 0100     		.2byte	0x1
 4341 0488 50       		.byte	0x50
 4342 0489 22000000 		.4byte	.LVL63
 4343 048d 38000000 		.4byte	.LFE131
 4344 0491 0400     		.2byte	0x4
 4345 0493 F3       		.byte	0xf3
 4346 0494 01       		.uleb128 0x1
 4347 0495 50       		.byte	0x50
 4348 0496 9F       		.byte	0x9f
 4349 0497 00000000 		.4byte	0
 4350 049b 00000000 		.4byte	0
 4351              	.LLST30:
 4352 049f 00000000 		.4byte	.LVL62
 4353 04a3 2E000000 		.4byte	.LVL65
 4354 04a7 0100     		.2byte	0x1
 4355 04a9 51       		.byte	0x51
 4356 04aa 2E000000 		.4byte	.LVL65
 4357 04ae 38000000 		.4byte	.LFE131
 4358 04b2 0200     		.2byte	0x2
 4359 04b4 74       		.byte	0x74
 4360 04b5 04       		.sleb128 4
 4361 04b6 00000000 		.4byte	0
 4362 04ba 00000000 		.4byte	0
 4363              	.LLST31:
 4364 04be 00000000 		.4byte	.LVL62
 4365 04c2 28000000 		.4byte	.LVL64
 4366 04c6 0100     		.2byte	0x1
 4367 04c8 52       		.byte	0x52
 4368 04c9 28000000 		.4byte	.LVL64
 4369 04cd 38000000 		.4byte	.LFE131
 4370 04d1 0200     		.2byte	0x2
 4371 04d3 74       		.byte	0x74
 4372 04d4 0C       		.sleb128 12
ARM GAS  /tmp/cc7j7qCO.s 			page 78


 4373 04d5 00000000 		.4byte	0
 4374 04d9 00000000 		.4byte	0
 4375              	.LLST32:
 4376 04dd 00000000 		.4byte	.LFB132
 4377 04e1 08000000 		.4byte	.LCFI9
 4378 04e5 0200     		.2byte	0x2
 4379 04e7 7D       		.byte	0x7d
 4380 04e8 00       		.sleb128 0
 4381 04e9 08000000 		.4byte	.LCFI9
 4382 04ed 2A000000 		.4byte	.LFE132
 4383 04f1 0200     		.2byte	0x2
 4384 04f3 7D       		.byte	0x7d
 4385 04f4 08       		.sleb128 8
 4386 04f5 00000000 		.4byte	0
 4387 04f9 00000000 		.4byte	0
 4388              	.LLST33:
 4389 04fd 00000000 		.4byte	.LVL66
 4390 0501 25000000 		.4byte	.LVL68-1
 4391 0505 0100     		.2byte	0x1
 4392 0507 50       		.byte	0x50
 4393 0508 25000000 		.4byte	.LVL68-1
 4394 050c 2A000000 		.4byte	.LFE132
 4395 0510 0400     		.2byte	0x4
 4396 0512 F3       		.byte	0xf3
 4397 0513 01       		.uleb128 0x1
 4398 0514 50       		.byte	0x50
 4399 0515 9F       		.byte	0x9f
 4400 0516 00000000 		.4byte	0
 4401 051a 00000000 		.4byte	0
 4402              		.section	.debug_aranges,"",%progbits
 4403 0000 74000000 		.4byte	0x74
 4404 0004 0200     		.2byte	0x2
 4405 0006 00000000 		.4byte	.Ldebug_info0
 4406 000a 04       		.byte	0x4
 4407 000b 00       		.byte	0
 4408 000c 0000     		.2byte	0
 4409 000e 0000     		.2byte	0
 4410 0010 00000000 		.4byte	.LFB119
 4411 0014 30000000 		.4byte	.LFE119-.LFB119
 4412 0018 00000000 		.4byte	.LFB120
 4413 001c 4C000000 		.4byte	.LFE120-.LFB120
 4414 0020 00000000 		.4byte	.LFB123
 4415 0024 4A000000 		.4byte	.LFE123-.LFB123
 4416 0028 00000000 		.4byte	.LFB122
 4417 002c 66000000 		.4byte	.LFE122-.LFB122
 4418 0030 00000000 		.4byte	.LFB125
 4419 0034 84000000 		.4byte	.LFE125-.LFB125
 4420 0038 00000000 		.4byte	.LFB126
 4421 003c 30000000 		.4byte	.LFE126-.LFB126
 4422 0040 00000000 		.4byte	.LFB127
 4423 0044 14010000 		.4byte	.LFE127-.LFB127
 4424 0048 00000000 		.4byte	.LFB128
 4425 004c 40000000 		.4byte	.LFE128-.LFB128
 4426 0050 00000000 		.4byte	.LFB129
 4427 0054 1A000000 		.4byte	.LFE129-.LFB129
 4428 0058 00000000 		.4byte	.LFB130
 4429 005c 22000000 		.4byte	.LFE130-.LFB130
ARM GAS  /tmp/cc7j7qCO.s 			page 79


 4430 0060 00000000 		.4byte	.LFB131
 4431 0064 38000000 		.4byte	.LFE131-.LFB131
 4432 0068 00000000 		.4byte	.LFB132
 4433 006c 2A000000 		.4byte	.LFE132-.LFB132
 4434 0070 00000000 		.4byte	0
 4435 0074 00000000 		.4byte	0
 4436              		.section	.debug_ranges,"",%progbits
 4437              	.Ldebug_ranges0:
 4438 0000 1E000000 		.4byte	.LBB4
 4439 0004 52000000 		.4byte	.LBE4
 4440 0008 58000000 		.4byte	.LBB8
 4441 000c 5E000000 		.4byte	.LBE8
 4442 0010 62000000 		.4byte	.LBB9
 4443 0014 66000000 		.4byte	.LBE9
 4444 0018 00000000 		.4byte	0
 4445 001c 00000000 		.4byte	0
 4446 0020 1E000000 		.4byte	.LBB5
 4447 0024 52000000 		.4byte	.LBE5
 4448 0028 58000000 		.4byte	.LBB6
 4449 002c 5E000000 		.4byte	.LBE6
 4450 0030 62000000 		.4byte	.LBB7
 4451 0034 66000000 		.4byte	.LBE7
 4452 0038 00000000 		.4byte	0
 4453 003c 00000000 		.4byte	0
 4454 0040 02000000 		.4byte	.LBB14
 4455 0044 72000000 		.4byte	.LBE14
 4456 0048 7A000000 		.4byte	.LBB21
 4457 004c 84000000 		.4byte	.LBE21
 4458 0050 00000000 		.4byte	0
 4459 0054 00000000 		.4byte	0
 4460 0058 02000000 		.4byte	.LBB15
 4461 005c 72000000 		.4byte	.LBE15
 4462 0060 7A000000 		.4byte	.LBB20
 4463 0064 84000000 		.4byte	.LBE20
 4464 0068 00000000 		.4byte	0
 4465 006c 00000000 		.4byte	0
 4466 0070 20000000 		.4byte	.LBB16
 4467 0074 56000000 		.4byte	.LBE16
 4468 0078 7A000000 		.4byte	.LBB19
 4469 007c 84000000 		.4byte	.LBE19
 4470 0080 00000000 		.4byte	0
 4471 0084 00000000 		.4byte	0
 4472 0088 20000000 		.4byte	.LBB17
 4473 008c 56000000 		.4byte	.LBE17
 4474 0090 7A000000 		.4byte	.LBB18
 4475 0094 84000000 		.4byte	.LBE18
 4476 0098 00000000 		.4byte	0
 4477 009c 00000000 		.4byte	0
 4478 00a0 0E000000 		.4byte	.LBB25
 4479 00a4 10000000 		.4byte	.LBE25
 4480 00a8 14000000 		.4byte	.LBB30
 4481 00ac 7A000000 		.4byte	.LBE30
 4482 00b0 7E000000 		.4byte	.LBB31
 4483 00b4 82000000 		.4byte	.LBE31
 4484 00b8 AC000000 		.4byte	.LBB32
 4485 00bc C2000000 		.4byte	.LBE32
 4486 00c0 00000000 		.4byte	0
ARM GAS  /tmp/cc7j7qCO.s 			page 80


 4487 00c4 00000000 		.4byte	0
 4488 00c8 0E000000 		.4byte	.LBB26
 4489 00cc 10000000 		.4byte	.LBE26
 4490 00d0 14000000 		.4byte	.LBB27
 4491 00d4 7A000000 		.4byte	.LBE27
 4492 00d8 7E000000 		.4byte	.LBB28
 4493 00dc 82000000 		.4byte	.LBE28
 4494 00e0 AC000000 		.4byte	.LBB29
 4495 00e4 C2000000 		.4byte	.LBE29
 4496 00e8 00000000 		.4byte	0
 4497 00ec 00000000 		.4byte	0
 4498 00f0 00000000 		.4byte	.LFB119
 4499 00f4 30000000 		.4byte	.LFE119
 4500 00f8 00000000 		.4byte	.LFB120
 4501 00fc 4C000000 		.4byte	.LFE120
 4502 0100 00000000 		.4byte	.LFB123
 4503 0104 4A000000 		.4byte	.LFE123
 4504 0108 00000000 		.4byte	.LFB122
 4505 010c 66000000 		.4byte	.LFE122
 4506 0110 00000000 		.4byte	.LFB125
 4507 0114 84000000 		.4byte	.LFE125
 4508 0118 00000000 		.4byte	.LFB126
 4509 011c 30000000 		.4byte	.LFE126
 4510 0120 00000000 		.4byte	.LFB127
 4511 0124 14010000 		.4byte	.LFE127
 4512 0128 00000000 		.4byte	.LFB128
 4513 012c 40000000 		.4byte	.LFE128
 4514 0130 00000000 		.4byte	.LFB129
 4515 0134 1A000000 		.4byte	.LFE129
 4516 0138 00000000 		.4byte	.LFB130
 4517 013c 22000000 		.4byte	.LFE130
 4518 0140 00000000 		.4byte	.LFB131
 4519 0144 38000000 		.4byte	.LFE131
 4520 0148 00000000 		.4byte	.LFB132
 4521 014c 2A000000 		.4byte	.LFE132
 4522 0150 00000000 		.4byte	0
 4523 0154 00000000 		.4byte	0
 4524              		.section	.debug_line,"",%progbits
 4525              	.Ldebug_line0:
 4526 0000 6B040000 		.section	.debug_str,"MS",%progbits,1
 4526      0200DB01 
 4526      00000201 
 4526      FB0E0D00 
 4526      01010101 
 4527              	.LASF196:
 4528 0000 75617274 		.ascii	"uart_lld_start_receive\000"
 4528      5F6C6C64 
 4528      5F737461 
 4528      72745F72 
 4528      65636569 
 4529              	.LASF132:
 4530 0017 41504231 		.ascii	"APB1LPENR\000"
 4530      4C50454E 
 4530      5200
 4531              	.LASF161:
 4532 0021 75617274 		.ascii	"uartflags_t\000"
 4532      666C6167 
ARM GAS  /tmp/cc7j7qCO.s 			page 81


 4532      735F7400 
 4533              	.LASF46:
 4534 002d 43414E31 		.ascii	"CAN1_RX0_IRQn\000"
 4534      5F525830 
 4534      5F495251 
 4534      6E00
 4535              	.LASF27:
 4536 003b 5056445F 		.ascii	"PVD_IRQn\000"
 4536      4952516E 
 4536      00
 4537              	.LASF90:
 4538 0044 43414E32 		.ascii	"CAN2_RX0_IRQn\000"
 4538      5F525830 
 4538      5F495251 
 4538      6E00
 4539              	.LASF190:
 4540 0052 75617274 		.ascii	"uart_lld_init\000"
 4540      5F6C6C64 
 4540      5F696E69 
 4540      7400
 4541              	.LASF2:
 4542 0060 73697A65 		.ascii	"size_t\000"
 4542      5F7400
 4543              	.LASF178:
 4544 0067 72786368 		.ascii	"rxchar_cb\000"
 4544      61725F63 
 4544      6200
 4545              	.LASF99:
 4546 0071 49324333 		.ascii	"I2C3_ER_IRQn\000"
 4546      5F45525F 
 4546      4952516E 
 4546      00
 4547              	.LASF173:
 4548 007e 75617274 		.ascii	"uartccb_t\000"
 4548      6363625F 
 4548      7400
 4549              	.LASF109:
 4550 0088 4D304152 		.ascii	"M0AR\000"
 4550      00
 4551              	.LASF57:
 4552 008d 49324331 		.ascii	"I2C1_EV_IRQn\000"
 4552      5F45565F 
 4552      4952516E 
 4552      00
 4553              	.LASF205:
 4554 009a 75617274 		.ascii	"uartObjectInit\000"
 4554      4F626A65 
 4554      6374496E 
 4554      697400
 4555              	.LASF94:
 4556 00a9 444D4132 		.ascii	"DMA2_Stream5_IRQn\000"
 4556      5F537472 
 4556      65616D35 
 4556      5F495251 
 4556      6E00
 4557              	.LASF142:
 4558 00bb 73747265 		.ascii	"stream\000"
ARM GAS  /tmp/cc7j7qCO.s 			page 82


 4558      616D00
 4559              	.LASF169:
 4560 00c2 646D6172 		.ascii	"dmarx\000"
 4560      7800
 4561              	.LASF187:
 4562 00c8 75736172 		.ascii	"usart_stop\000"
 4562      745F7374 
 4562      6F7000
 4563              	.LASF129:
 4564 00d3 41484232 		.ascii	"AHB2LPENR\000"
 4564      4C50454E 
 4564      5200
 4565              	.LASF14:
 4566 00dd 626F6F6C 		.ascii	"bool_t\000"
 4566      5F7400
 4567              	.LASF67:
 4568 00e4 5254435F 		.ascii	"RTC_Alarm_IRQn\000"
 4568      416C6172 
 4568      6D5F4952 
 4568      516E00
 4569              	.LASF146:
 4570 00f3 76656374 		.ascii	"vector\000"
 4570      6F7200
 4571              	.LASF201:
 4572 00fa 5F73746D 		.ascii	"_stm32_dma_streams\000"
 4572      33325F64 
 4572      6D615F73 
 4572      74726561 
 4572      6D7300
 4573              	.LASF60:
 4574 010d 49324332 		.ascii	"I2C2_ER_IRQn\000"
 4574      5F45525F 
 4574      4952516E 
 4574      00
 4575              	.LASF56:
 4576 011a 54494D34 		.ascii	"TIM4_IRQn\000"
 4576      5F495251 
 4576      6E00
 4577              	.LASF181:
 4578 0124 55415254 		.ascii	"UARTConfig\000"
 4578      436F6E66 
 4578      696700
 4579              	.LASF29:
 4580 012f 5254435F 		.ascii	"RTC_WKUP_IRQn\000"
 4580      574B5550 
 4580      5F495251 
 4580      6E00
 4581              	.LASF171:
 4582 013d 72786275 		.ascii	"rxbuf\000"
 4582      6600
 4583              	.LASF26:
 4584 0143 57574447 		.ascii	"WWDG_IRQn\000"
 4584      5F495251 
 4584      6E00
 4585              	.LASF75:
 4586 014d 5344494F 		.ascii	"SDIO_IRQn\000"
 4586      5F495251 
ARM GAS  /tmp/cc7j7qCO.s 			page 83


 4586      6E00
 4587              	.LASF69:
 4588 0157 54494D38 		.ascii	"TIM8_BRK_TIM12_IRQn\000"
 4588      5F42524B 
 4588      5F54494D 
 4588      31325F49 
 4588      52516E00 
 4589              	.LASF206:
 4590 016b 6E766963 		.ascii	"nvicEnableVector\000"
 4590      456E6162 
 4590      6C655665 
 4590      63746F72 
 4590      00
 4591              	.LASF72:
 4592 017c 54494D38 		.ascii	"TIM8_CC_IRQn\000"
 4592      5F43435F 
 4592      4952516E 
 4592      00
 4593              	.LASF198:
 4594 0189 75617274 		.ascii	"uart_lld_stop_receive\000"
 4594      5F6C6C64 
 4594      5F73746F 
 4594      705F7265 
 4594      63656976 
 4595              	.LASF12:
 4596 019f 6C6F6E67 		.ascii	"long long int\000"
 4596      206C6F6E 
 4596      6720696E 
 4596      7400
 4597              	.LASF1:
 4598 01ad 7369676E 		.ascii	"signed char\000"
 4598      65642063 
 4598      68617200 
 4599              	.LASF91:
 4600 01b9 43414E32 		.ascii	"CAN2_RX1_IRQn\000"
 4600      5F525831 
 4600      5F495251 
 4600      6E00
 4601              	.LASF105:
 4602 01c7 43525950 		.ascii	"CRYP_IRQn\000"
 4602      5F495251 
 4602      6E00
 4603              	.LASF114:
 4604 01d1 41484231 		.ascii	"AHB1RSTR\000"
 4604      52535452 
 4604      00
 4605              	.LASF140:
 4606 01da 47545052 		.ascii	"GTPR\000"
 4606      00
 4607              	.LASF165:
 4608 01df 72787374 		.ascii	"rxstate\000"
 4608      61746500 
 4609              	.LASF95:
 4610 01e7 444D4132 		.ascii	"DMA2_Stream6_IRQn\000"
 4610      5F537472 
 4610      65616D36 
 4610      5F495251 
ARM GAS  /tmp/cc7j7qCO.s 			page 84


 4610      6E00
 4611              	.LASF163:
 4612 01f9 73746174 		.ascii	"state\000"
 4612      6500
 4613              	.LASF164:
 4614 01ff 74787374 		.ascii	"txstate\000"
 4614      61746500 
 4615              	.LASF9:
 4616 0207 6C6F6E67 		.ascii	"long int\000"
 4616      20696E74 
 4616      00
 4617              	.LASF119:
 4618 0210 41504232 		.ascii	"APB2RSTR\000"
 4618      52535452 
 4618      00
 4619              	.LASF172:
 4620 0219 75617274 		.ascii	"uartcb_t\000"
 4620      63625F74 
 4620      00
 4621              	.LASF42:
 4622 0222 444D4131 		.ascii	"DMA1_Stream5_IRQn\000"
 4622      5F537472 
 4622      65616D35 
 4622      5F495251 
 4622      6E00
 4623              	.LASF49:
 4624 0234 45585449 		.ascii	"EXTI9_5_IRQn\000"
 4624      395F355F 
 4624      4952516E 
 4624      00
 4625              	.LASF88:
 4626 0241 4554485F 		.ascii	"ETH_WKUP_IRQn\000"
 4626      574B5550 
 4626      5F495251 
 4626      6E00
 4627              	.LASF6:
 4628 024f 75696E74 		.ascii	"uint16_t\000"
 4628      31365F74 
 4628      00
 4629              	.LASF13:
 4630 0258 6C6F6E67 		.ascii	"long long unsigned int\000"
 4630      206C6F6E 
 4630      6720756E 
 4630      7369676E 
 4630      65642069 
 4631              	.LASF203:
 4632 026f 706F7274 		.ascii	"port_halt\000"
 4632      5F68616C 
 4632      7400
 4633              	.LASF80:
 4634 0279 54494D36 		.ascii	"TIM6_DAC_IRQn\000"
 4634      5F444143 
 4634      5F495251 
 4634      6E00
 4635              	.LASF112:
 4636 0287 504C4C43 		.ascii	"PLLCFGR\000"
 4636      46475200 
ARM GAS  /tmp/cc7j7qCO.s 			page 85


 4637              	.LASF78:
 4638 028f 55415254 		.ascii	"UART4_IRQn\000"
 4638      345F4952 
 4638      516E00
 4639              	.LASF68:
 4640 029a 4F54475F 		.ascii	"OTG_FS_WKUP_IRQn\000"
 4640      46535F57 
 4640      4B55505F 
 4640      4952516E 
 4640      00
 4641              	.LASF24:
 4642 02ab 50656E64 		.ascii	"PendSV_IRQn\000"
 4642      53565F49 
 4642      52516E00 
 4643              	.LASF70:
 4644 02b7 54494D38 		.ascii	"TIM8_UP_TIM13_IRQn\000"
 4644      5F55505F 
 4644      54494D31 
 4644      335F4952 
 4644      516E00
 4645              	.LASF192:
 4646 02ca 75617274 		.ascii	"uart_lld_start\000"
 4646      5F6C6C64 
 4646      5F737461 
 4646      727400
 4647              	.LASF162:
 4648 02d9 55415254 		.ascii	"UARTDriver\000"
 4648      44726976 
 4648      657200
 4649              	.LASF115:
 4650 02e4 41484232 		.ascii	"AHB2RSTR\000"
 4650      52535452 
 4650      00
 4651              	.LASF145:
 4652 02ed 73656C66 		.ascii	"selfindex\000"
 4652      696E6465 
 4652      7800
 4653              	.LASF186:
 4654 02f7 7365745F 		.ascii	"set_rx_idle_loop\000"
 4654      72785F69 
 4654      646C655F 
 4654      6C6F6F70 
 4654      00
 4655              	.LASF85:
 4656 0308 444D4132 		.ascii	"DMA2_Stream3_IRQn\000"
 4656      5F537472 
 4656      65616D33 
 4656      5F495251 
 4656      6E00
 4657              	.LASF96:
 4658 031a 444D4132 		.ascii	"DMA2_Stream7_IRQn\000"
 4658      5F537472 
 4658      65616D37 
 4658      5F495251 
 4658      6E00
 4659              	.LASF151:
 4660 032c 55415254 		.ascii	"UART_READY\000"
ARM GAS  /tmp/cc7j7qCO.s 			page 86


 4660      5F524541 
 4660      445900
 4661              	.LASF154:
 4662 0337 55415254 		.ascii	"UART_TX_ACTIVE\000"
 4662      5F54585F 
 4662      41435449 
 4662      564500
 4663              	.LASF167:
 4664 0346 75736172 		.ascii	"usart\000"
 4664      7400
 4665              	.LASF0:
 4666 034c 756E7369 		.ascii	"unsigned int\000"
 4666      676E6564 
 4666      20696E74 
 4666      00
 4667              	.LASF40:
 4668 0359 444D4131 		.ascii	"DMA1_Stream3_IRQn\000"
 4668      5F537472 
 4668      65616D33 
 4668      5F495251 
 4668      6E00
 4669              	.LASF195:
 4670 036b 74786275 		.ascii	"txbuf\000"
 4670      6600
 4671              	.LASF43:
 4672 0371 444D4131 		.ascii	"DMA1_Stream6_IRQn\000"
 4672      5F537472 
 4672      65616D36 
 4672      5F495251 
 4672      6E00
 4673              	.LASF19:
 4674 0383 4D656D6F 		.ascii	"MemoryManagement_IRQn\000"
 4674      72794D61 
 4674      6E616765 
 4674      6D656E74 
 4674      5F495251 
 4675              	.LASF148:
 4676 0399 73746D33 		.ascii	"stm32_dmaisr_t\000"
 4676      325F646D 
 4676      61697372 
 4676      5F7400
 4677              	.LASF98:
 4678 03a8 49324333 		.ascii	"I2C3_EV_IRQn\000"
 4678      5F45565F 
 4678      4952516E 
 4678      00
 4679              	.LASF11:
 4680 03b5 6C6F6E67 		.ascii	"long unsigned int\000"
 4680      20756E73 
 4680      69676E65 
 4680      6420696E 
 4680      7400
 4681              	.LASF174:
 4682 03c7 75617274 		.ascii	"uartecb_t\000"
 4682      6563625F 
 4682      7400
 4683              	.LASF139:
ARM GAS  /tmp/cc7j7qCO.s 			page 87


 4684 03d1 5243435F 		.ascii	"RCC_TypeDef\000"
 4684      54797065 
 4684      44656600 
 4685              	.LASF10:
 4686 03dd 75696E74 		.ascii	"uint32_t\000"
 4686      33325F74 
 4686      00
 4687              	.LASF144:
 4688 03e6 69736869 		.ascii	"ishift\000"
 4688      667400
 4689              	.LASF100:
 4690 03ed 4F54475F 		.ascii	"OTG_HS_EP1_OUT_IRQn\000"
 4690      48535F45 
 4690      50315F4F 
 4690      55545F49 
 4690      52516E00 
 4691              	.LASF22:
 4692 0401 53564361 		.ascii	"SVCall_IRQn\000"
 4692      6C6C5F49 
 4692      52516E00 
 4693              	.LASF7:
 4694 040d 73686F72 		.ascii	"short unsigned int\000"
 4694      7420756E 
 4694      7369676E 
 4694      65642069 
 4694      6E7400
 4695              	.LASF149:
 4696 0420 55415254 		.ascii	"UART_UNINIT\000"
 4696      5F554E49 
 4696      4E495400 
 4697              	.LASF150:
 4698 042c 55415254 		.ascii	"UART_STOP\000"
 4698      5F53544F 
 4698      5000
 4699              	.LASF138:
 4700 0436 504C4C49 		.ascii	"PLLI2SCFGR\000"
 4700      32534346 
 4700      475200
 4701              	.LASF45:
 4702 0441 43414E31 		.ascii	"CAN1_TX_IRQn\000"
 4702      5F54585F 
 4702      4952516E 
 4702      00
 4703              	.LASF116:
 4704 044e 41484233 		.ascii	"AHB3RSTR\000"
 4704      52535452 
 4704      00
 4705              	.LASF66:
 4706 0457 45585449 		.ascii	"EXTI15_10_IRQn\000"
 4706      31355F31 
 4706      305F4952 
 4706      516E00
 4707              	.LASF61:
 4708 0466 53504931 		.ascii	"SPI1_IRQn\000"
 4708      5F495251 
 4708      6E00
 4709              	.LASF38:
ARM GAS  /tmp/cc7j7qCO.s 			page 88


 4710 0470 444D4131 		.ascii	"DMA1_Stream1_IRQn\000"
 4710      5F537472 
 4710      65616D31 
 4710      5F495251 
 4710      6E00
 4711              	.LASF141:
 4712 0482 55534152 		.ascii	"USART_TypeDef\000"
 4712      545F5479 
 4712      70654465 
 4712      6600
 4713              	.LASF133:
 4714 0490 41504232 		.ascii	"APB2LPENR\000"
 4714      4C50454E 
 4714      5200
 4715              	.LASF179:
 4716 049a 72786572 		.ascii	"rxerr_cb\000"
 4716      725F6362 
 4716      00
 4717              	.LASF208:
 4718 04a3 474E5520 		.ascii	"GNU C 4.7.4 20130613 (release) [ARM/embedded-4_7-br"
 4718      4320342E 
 4718      372E3420 
 4718      32303133 
 4718      30363133 
 4719 04d6 616E6368 		.ascii	"anch revision 200083]\000"
 4719      20726576 
 4719      6973696F 
 4719      6E203230 
 4719      30303833 
 4720              	.LASF25:
 4721 04ec 53797354 		.ascii	"SysTick_IRQn\000"
 4721      69636B5F 
 4721      4952516E 
 4721      00
 4722              	.LASF53:
 4723 04f9 54494D31 		.ascii	"TIM1_CC_IRQn\000"
 4723      5F43435F 
 4723      4952516E 
 4723      00
 4724              	.LASF158:
 4725 0506 55415254 		.ascii	"UART_RX_ACTIVE\000"
 4725      5F52585F 
 4725      41435449 
 4725      564500
 4726              	.LASF71:
 4727 0515 54494D38 		.ascii	"TIM8_TRG_COM_TIM14_IRQn\000"
 4727      5F545247 
 4727      5F434F4D 
 4727      5F54494D 
 4727      31345F49 
 4728              	.LASF202:
 4729 052d 55415254 		.ascii	"UARTD3\000"
 4729      443300
 4730              	.LASF189:
 4731 0534 56656374 		.ascii	"VectorDC\000"
 4731      6F724443 
 4731      00
ARM GAS  /tmp/cc7j7qCO.s 			page 89


 4732              	.LASF185:
 4733 053d 73657276 		.ascii	"serve_usart_irq\000"
 4733      655F7573 
 4733      6172745F 
 4733      69727100 
 4734              	.LASF211:
 4735 054d 4952516E 		.ascii	"IRQn\000"
 4735      00
 4736              	.LASF182:
 4737 0552 75617274 		.ascii	"uartp\000"
 4737      7000
 4738              	.LASF16:
 4739 0558 73697A65 		.ascii	"sizetype\000"
 4739      74797065 
 4739      00
 4740              	.LASF87:
 4741 0561 4554485F 		.ascii	"ETH_IRQn\000"
 4741      4952516E 
 4741      00
 4742              	.LASF212:
 4743 056a 7472616E 		.ascii	"translate_errors\000"
 4743      736C6174 
 4743      655F6572 
 4743      726F7273 
 4743      00
 4744              	.LASF159:
 4745 057b 55415254 		.ascii	"UART_RX_COMPLETE\000"
 4745      5F52585F 
 4745      434F4D50 
 4745      4C455445 
 4745      00
 4746              	.LASF41:
 4747 058c 444D4131 		.ascii	"DMA1_Stream4_IRQn\000"
 4747      5F537472 
 4747      65616D34 
 4747      5F495251 
 4747      6E00
 4748              	.LASF84:
 4749 059e 444D4132 		.ascii	"DMA2_Stream2_IRQn\000"
 4749      5F537472 
 4749      65616D32 
 4749      5F495251 
 4749      6E00
 4750              	.LASF97:
 4751 05b0 55534152 		.ascii	"USART6_IRQn\000"
 4751      54365F49 
 4751      52516E00 
 4752              	.LASF123:
 4753 05bc 41484233 		.ascii	"AHB3ENR\000"
 4753      454E5200 
 4754              	.LASF76:
 4755 05c4 54494D35 		.ascii	"TIM5_IRQn\000"
 4755      5F495251 
 4755      6E00
 4756              	.LASF188:
 4757 05ce 75617274 		.ascii	"uart_lld_serve_tx_end_irq\000"
 4757      5F6C6C64 
ARM GAS  /tmp/cc7j7qCO.s 			page 90


 4757      5F736572 
 4757      76655F74 
 4757      785F656E 
 4758              	.LASF35:
 4759 05e8 45585449 		.ascii	"EXTI3_IRQn\000"
 4759      335F4952 
 4759      516E00
 4760              	.LASF62:
 4761 05f3 53504932 		.ascii	"SPI2_IRQn\000"
 4761      5F495251 
 4761      6E00
 4762              	.LASF39:
 4763 05fd 444D4131 		.ascii	"DMA1_Stream2_IRQn\000"
 4763      5F537472 
 4763      65616D32 
 4763      5F495251 
 4763      6E00
 4764              	.LASF89:
 4765 060f 43414E32 		.ascii	"CAN2_TX_IRQn\000"
 4765      5F54585F 
 4765      4952516E 
 4765      00
 4766              	.LASF177:
 4767 061c 7278656E 		.ascii	"rxend_cb\000"
 4767      645F6362 
 4767      00
 4768              	.LASF156:
 4769 0625 75617274 		.ascii	"uarttxstate_t\000"
 4769      74787374 
 4769      6174655F 
 4769      7400
 4770              	.LASF118:
 4771 0633 41504231 		.ascii	"APB1RSTR\000"
 4771      52535452 
 4771      00
 4772              	.LASF103:
 4773 063c 4F54475F 		.ascii	"OTG_HS_IRQn\000"
 4773      48535F49 
 4773      52516E00 
 4774              	.LASF170:
 4775 0648 646D6174 		.ascii	"dmatx\000"
 4775      7800
 4776              	.LASF117:
 4777 064e 52455345 		.ascii	"RESERVED0\000"
 4777      52564544 
 4777      3000
 4778              	.LASF120:
 4779 0658 52455345 		.ascii	"RESERVED1\000"
 4779      52564544 
 4779      3100
 4780              	.LASF124:
 4781 0662 52455345 		.ascii	"RESERVED2\000"
 4781      52564544 
 4781      3200
 4782              	.LASF127:
 4783 066c 52455345 		.ascii	"RESERVED3\000"
 4783      52564544 
ARM GAS  /tmp/cc7j7qCO.s 			page 91


 4783      3300
 4784              	.LASF131:
 4785 0676 52455345 		.ascii	"RESERVED4\000"
 4785      52564544 
 4785      3400
 4786              	.LASF134:
 4787 0680 52455345 		.ascii	"RESERVED5\000"
 4787      52564544 
 4787      3500
 4788              	.LASF136:
 4789 068a 52455345 		.ascii	"RESERVED6\000"
 4789      52564544 
 4789      3600
 4790              	.LASF147:
 4791 0694 73746D33 		.ascii	"stm32_dma_stream_t\000"
 4791      325F646D 
 4791      615F7374 
 4791      7265616D 
 4791      5F7400
 4792              	.LASF77:
 4793 06a7 53504933 		.ascii	"SPI3_IRQn\000"
 4793      5F495251 
 4793      6E00
 4794              	.LASF86:
 4795 06b1 444D4132 		.ascii	"DMA2_Stream4_IRQn\000"
 4795      5F537472 
 4795      65616D34 
 4795      5F495251 
 4795      6E00
 4796              	.LASF74:
 4797 06c3 46534D43 		.ascii	"FSMC_IRQn\000"
 4797      5F495251 
 4797      6E00
 4798              	.LASF15:
 4799 06cd 5F426F6F 		.ascii	"_Bool\000"
 4799      6C00
 4800              	.LASF8:
 4801 06d3 696E7433 		.ascii	"int32_t\000"
 4801      325F7400 
 4802              	.LASF4:
 4803 06db 756E7369 		.ascii	"unsigned char\000"
 4803      676E6564 
 4803      20636861 
 4803      7200
 4804              	.LASF197:
 4805 06e9 75617274 		.ascii	"uart_lld_stop_send\000"
 4805      5F6C6C64 
 4805      5F73746F 
 4805      705F7365 
 4805      6E6400
 4806              	.LASF50:
 4807 06fc 54494D31 		.ascii	"TIM1_BRK_TIM9_IRQn\000"
 4807      5F42524B 
 4807      5F54494D 
 4807      395F4952 
 4807      516E00
 4808              	.LASF200:
ARM GAS  /tmp/cc7j7qCO.s 			page 92


 4809 070f 49544D5F 		.ascii	"ITM_RxBuffer\000"
 4809      52784275 
 4809      66666572 
 4809      00
 4810              	.LASF51:
 4811 071c 54494D31 		.ascii	"TIM1_UP_TIM10_IRQn\000"
 4811      5F55505F 
 4811      54494D31 
 4811      305F4952 
 4811      516E00
 4812              	.LASF210:
 4813 072f 2F686F6D 		.ascii	"/home/witold/Dokumenty/arm/ChibiOS-master/APP/smtm3"
 4813      652F7769 
 4813      746F6C64 
 4813      2F446F6B 
 4813      756D656E 
 4814 0762 3266345F 		.ascii	"2f4_lcd_ds18b20\000"
 4814      6C63645F 
 4814      64733138 
 4814      62323000 
 4815              	.LASF106:
 4816 0772 48415348 		.ascii	"HASH_RNG_IRQn\000"
 4816      5F524E47 
 4816      5F495251 
 4816      6E00
 4817              	.LASF5:
 4818 0780 73686F72 		.ascii	"short int\000"
 4818      7420696E 
 4818      7400
 4819              	.LASF36:
 4820 078a 45585449 		.ascii	"EXTI4_IRQn\000"
 4820      345F4952 
 4820      516E00
 4821              	.LASF130:
 4822 0795 41484233 		.ascii	"AHB3LPENR\000"
 4822      4C50454E 
 4822      5200
 4823              	.LASF79:
 4824 079f 55415254 		.ascii	"UART5_IRQn\000"
 4824      355F4952 
 4824      516E00
 4825              	.LASF52:
 4826 07aa 54494D31 		.ascii	"TIM1_TRG_COM_TIM11_IRQn\000"
 4826      5F545247 
 4826      5F434F4D 
 4826      5F54494D 
 4826      31315F49 
 4827              	.LASF152:
 4828 07c2 75617274 		.ascii	"uartstate_t\000"
 4828      73746174 
 4828      655F7400 
 4829              	.LASF34:
 4830 07ce 45585449 		.ascii	"EXTI2_IRQn\000"
 4830      325F4952 
 4830      516E00
 4831              	.LASF126:
 4832 07d9 41504232 		.ascii	"APB2ENR\000"
ARM GAS  /tmp/cc7j7qCO.s 			page 93


 4832      454E5200 
 4833              	.LASF155:
 4834 07e1 55415254 		.ascii	"UART_TX_COMPLETE\000"
 4834      5F54585F 
 4834      434F4D50 
 4834      4C455445 
 4834      00
 4835              	.LASF30:
 4836 07f2 464C4153 		.ascii	"FLASH_IRQn\000"
 4836      485F4952 
 4836      516E00
 4837              	.LASF143:
 4838 07fd 69666372 		.ascii	"ifcr\000"
 4838      00
 4839              	.LASF93:
 4840 0802 4F54475F 		.ascii	"OTG_FS_IRQn\000"
 4840      46535F49 
 4840      52516E00 
 4841              	.LASF175:
 4842 080e 7478656E 		.ascii	"txend1_cb\000"
 4842      64315F63 
 4842      6200
 4843              	.LASF64:
 4844 0818 55534152 		.ascii	"USART2_IRQn\000"
 4844      54325F49 
 4844      52516E00 
 4845              	.LASF21:
 4846 0824 55736167 		.ascii	"UsageFault_IRQn\000"
 4846      65466175 
 4846      6C745F49 
 4846      52516E00 
 4847              	.LASF125:
 4848 0834 41504231 		.ascii	"APB1ENR\000"
 4848      454E5200 
 4849              	.LASF214:
 4850 083c 6E766963 		.ascii	"nvicDisableVector\000"
 4850      44697361 
 4850      626C6556 
 4850      6563746F 
 4850      7200
 4851              	.LASF73:
 4852 084e 444D4131 		.ascii	"DMA1_Stream7_IRQn\000"
 4852      5F537472 
 4852      65616D37 
 4852      5F495251 
 4852      6E00
 4853              	.LASF17:
 4854 0860 63686172 		.ascii	"char\000"
 4854      00
 4855              	.LASF207:
 4856 0865 646D6153 		.ascii	"dmaStreamRelease\000"
 4856      74726561 
 4856      6D52656C 
 4856      65617365 
 4856      00
 4857              	.LASF199:
 4858 0876 6D6F6465 		.ascii	"mode\000"
ARM GAS  /tmp/cc7j7qCO.s 			page 94


 4858      00
 4859              	.LASF20:
 4860 087b 42757346 		.ascii	"BusFault_IRQn\000"
 4860      61756C74 
 4860      5F495251 
 4860      6E00
 4861              	.LASF166:
 4862 0889 636F6E66 		.ascii	"config\000"
 4862      696700
 4863              	.LASF157:
 4864 0890 55415254 		.ascii	"UART_RX_IDLE\000"
 4864      5F52585F 
 4864      49444C45 
 4864      00
 4865              	.LASF81:
 4866 089d 54494D37 		.ascii	"TIM7_IRQn\000"
 4866      5F495251 
 4866      6E00
 4867              	.LASF101:
 4868 08a7 4F54475F 		.ascii	"OTG_HS_EP1_IN_IRQn\000"
 4868      48535F45 
 4868      50315F49 
 4868      4E5F4952 
 4868      516E00
 4869              	.LASF18:
 4870 08ba 4E6F6E4D 		.ascii	"NonMaskableInt_IRQn\000"
 4870      61736B61 
 4870      626C6549 
 4870      6E745F49 
 4870      52516E00 
 4871              	.LASF153:
 4872 08ce 55415254 		.ascii	"UART_TX_IDLE\000"
 4872      5F54585F 
 4872      49444C45 
 4872      00
 4873              	.LASF108:
 4874 08db 4E445452 		.ascii	"NDTR\000"
 4874      00
 4875              	.LASF111:
 4876 08e0 444D415F 		.ascii	"DMA_Stream_TypeDef\000"
 4876      53747265 
 4876      616D5F54 
 4876      79706544 
 4876      656600
 4877              	.LASF122:
 4878 08f3 41484232 		.ascii	"AHB2ENR\000"
 4878      454E5200 
 4879              	.LASF28:
 4880 08fb 54414D50 		.ascii	"TAMP_STAMP_IRQn\000"
 4880      5F535441 
 4880      4D505F49 
 4880      52516E00 
 4881              	.LASF184:
 4882 090b 75617274 		.ascii	"uart_lld_serve_rx_end_irq\000"
 4882      5F6C6C64 
 4882      5F736572 
 4882      76655F72 
ARM GAS  /tmp/cc7j7qCO.s 			page 95


 4882      785F656E 
 4883              	.LASF23:
 4884 0925 44656275 		.ascii	"DebugMonitor_IRQn\000"
 4884      674D6F6E 
 4884      69746F72 
 4884      5F495251 
 4884      6E00
 4885              	.LASF82:
 4886 0937 444D4132 		.ascii	"DMA2_Stream0_IRQn\000"
 4886      5F537472 
 4886      65616D30 
 4886      5F495251 
 4886      6E00
 4887              	.LASF110:
 4888 0949 4D314152 		.ascii	"M1AR\000"
 4888      00
 4889              	.LASF160:
 4890 094e 75617274 		.ascii	"uartrxstate_t\000"
 4890      72787374 
 4890      6174655F 
 4890      7400
 4891              	.LASF59:
 4892 095c 49324332 		.ascii	"I2C2_EV_IRQn\000"
 4892      5F45565F 
 4892      4952516E 
 4892      00
 4893              	.LASF65:
 4894 0969 55534152 		.ascii	"USART3_IRQn\000"
 4894      54335F49 
 4894      52516E00 
 4895              	.LASF137:
 4896 0975 53534347 		.ascii	"SSCGR\000"
 4896      5200
 4897              	.LASF54:
 4898 097b 54494D32 		.ascii	"TIM2_IRQn\000"
 4898      5F495251 
 4898      6E00
 4899              	.LASF32:
 4900 0985 45585449 		.ascii	"EXTI0_IRQn\000"
 4900      305F4952 
 4900      516E00
 4901              	.LASF63:
 4902 0990 55534152 		.ascii	"USART1_IRQn\000"
 4902      54315F49 
 4902      52516E00 
 4903              	.LASF135:
 4904 099c 42444352 		.ascii	"BDCR\000"
 4904      00
 4905              	.LASF204:
 4906 09a1 5F706F72 		.ascii	"_port_irq_epilogue\000"
 4906      745F6972 
 4906      715F6570 
 4906      696C6F67 
 4906      756500
 4907              	.LASF176:
 4908 09b4 7478656E 		.ascii	"txend2_cb\000"
 4908      64325F63 
ARM GAS  /tmp/cc7j7qCO.s 			page 96


 4908      6200
 4909              	.LASF183:
 4910 09be 666C6167 		.ascii	"flags\000"
 4910      7300
 4911              	.LASF3:
 4912 09c4 75696E74 		.ascii	"uint8_t\000"
 4912      385F7400 
 4913              	.LASF128:
 4914 09cc 41484231 		.ascii	"AHB1LPENR\000"
 4914      4C50454E 
 4914      5200
 4915              	.LASF191:
 4916 09d6 75736172 		.ascii	"usart_start\000"
 4916      745F7374 
 4916      61727400 
 4917              	.LASF104:
 4918 09e2 44434D49 		.ascii	"DCMI_IRQn\000"
 4918      5F495251 
 4918      6E00
 4919              	.LASF168:
 4920 09ec 646D616D 		.ascii	"dmamode\000"
 4920      6F646500 
 4921              	.LASF180:
 4922 09f4 73706565 		.ascii	"speed\000"
 4922      6400
 4923              	.LASF121:
 4924 09fa 41484231 		.ascii	"AHB1ENR\000"
 4924      454E5200 
 4925              	.LASF209:
 4926 0a02 2E2E2F2E 		.ascii	"../../os/hal/platforms/STM32/USARTv1/uart_lld.c\000"
 4926      2E2F6F73 
 4926      2F68616C 
 4926      2F706C61 
 4926      74666F72 
 4927              	.LASF107:
 4928 0a32 4650555F 		.ascii	"FPU_IRQn\000"
 4928      4952516E 
 4928      00
 4929              	.LASF113:
 4930 0a3b 43464752 		.ascii	"CFGR\000"
 4930      00
 4931              	.LASF194:
 4932 0a40 75617274 		.ascii	"uart_lld_start_send\000"
 4932      5F6C6C64 
 4932      5F737461 
 4932      72745F73 
 4932      656E6400 
 4933              	.LASF193:
 4934 0a54 75617274 		.ascii	"uart_lld_stop\000"
 4934      5F6C6C64 
 4934      5F73746F 
 4934      7000
 4935              	.LASF58:
 4936 0a62 49324331 		.ascii	"I2C1_ER_IRQn\000"
 4936      5F45525F 
 4936      4952516E 
 4936      00
ARM GAS  /tmp/cc7j7qCO.s 			page 97


 4937              	.LASF44:
 4938 0a6f 4144435F 		.ascii	"ADC_IRQn\000"
 4938      4952516E 
 4938      00
 4939              	.LASF83:
 4940 0a78 444D4132 		.ascii	"DMA2_Stream1_IRQn\000"
 4940      5F537472 
 4940      65616D31 
 4940      5F495251 
 4940      6E00
 4941              	.LASF47:
 4942 0a8a 43414E31 		.ascii	"CAN1_RX1_IRQn\000"
 4942      5F525831 
 4942      5F495251 
 4942      6E00
 4943              	.LASF48:
 4944 0a98 43414E31 		.ascii	"CAN1_SCE_IRQn\000"
 4944      5F534345 
 4944      5F495251 
 4944      6E00
 4945              	.LASF213:
 4946 0aa6 646D6153 		.ascii	"dmaStreamAllocate\000"
 4946      74726561 
 4946      6D416C6C 
 4946      6F636174 
 4946      6500
 4947              	.LASF92:
 4948 0ab8 43414E32 		.ascii	"CAN2_SCE_IRQn\000"
 4948      5F534345 
 4948      5F495251 
 4948      6E00
 4949              	.LASF31:
 4950 0ac6 5243435F 		.ascii	"RCC_IRQn\000"
 4950      4952516E 
 4950      00
 4951              	.LASF102:
 4952 0acf 4F54475F 		.ascii	"OTG_HS_WKUP_IRQn\000"
 4952      48535F57 
 4952      4B55505F 
 4952      4952516E 
 4952      00
 4953              	.LASF55:
 4954 0ae0 54494D33 		.ascii	"TIM3_IRQn\000"
 4954      5F495251 
 4954      6E00
 4955              	.LASF33:
 4956 0aea 45585449 		.ascii	"EXTI1_IRQn\000"
 4956      315F4952 
 4956      516E00
 4957              	.LASF37:
 4958 0af5 444D4131 		.ascii	"DMA1_Stream0_IRQn\000"
 4958      5F537472 
 4958      65616D30 
 4958      5F495251 
 4958      6E00
 4959              		.ident	"GCC: (GNU Tools for ARM Embedded Processors) 4.7.4 20130613 (release) [ARM/embedded-4_7-br
ARM GAS  /tmp/cc7j7qCO.s 			page 98


DEFINED SYMBOLS
                            *ABS*:00000000 uart_lld.c
     /tmp/cc7j7qCO.s:21     .text.set_rx_idle_loop:00000000 $t
     /tmp/cc7j7qCO.s:26     .text.set_rx_idle_loop:00000000 set_rx_idle_loop
     /tmp/cc7j7qCO.s:80     .text.usart_stop:00000000 $t
     /tmp/cc7j7qCO.s:85     .text.usart_stop:00000000 usart_stop
     /tmp/cc7j7qCO.s:153    .text.uart_lld_serve_tx_end_irq:00000000 $t
     /tmp/cc7j7qCO.s:158    .text.uart_lld_serve_tx_end_irq:00000000 uart_lld_serve_tx_end_irq
     /tmp/cc7j7qCO.s:232    .text.uart_lld_serve_rx_end_irq:00000000 $t
     /tmp/cc7j7qCO.s:237    .text.uart_lld_serve_rx_end_irq:00000000 uart_lld_serve_rx_end_irq
     /tmp/cc7j7qCO.s:348    .text.VectorDC:00000000 $t
     /tmp/cc7j7qCO.s:354    .text.VectorDC:00000000 VectorDC
     /tmp/cc7j7qCO.s:477    .text.VectorDC:00000080 $d
     /tmp/cc7j7qCO.s:486    .text.uart_lld_init:00000000 $t
     /tmp/cc7j7qCO.s:492    .text.uart_lld_init:00000000 uart_lld_init
     /tmp/cc7j7qCO.s:1017   .bss.UARTD3:00000000 .LANCHOR0
     /tmp/cc7j7qCO.s:530    .text.uart_lld_init:0000002c $d
     /tmp/cc7j7qCO.s:535    .text.uart_lld_start:00000000 $t
     /tmp/cc7j7qCO.s:541    .text.uart_lld_start:00000000 uart_lld_start
     /tmp/cc7j7qCO.s:750    .text.uart_lld_start:00000108 $d
     /tmp/cc7j7qCO.s:758    .text.uart_lld_stop:00000000 $t
     /tmp/cc7j7qCO.s:764    .text.uart_lld_stop:00000000 uart_lld_stop
     /tmp/cc7j7qCO.s:819    .text.uart_lld_stop:0000003c $d
     /tmp/cc7j7qCO.s:824    .text.uart_lld_start_send:00000000 $t
     /tmp/cc7j7qCO.s:830    .text.uart_lld_start_send:00000000 uart_lld_start_send
     /tmp/cc7j7qCO.s:864    .text.uart_lld_stop_send:00000000 $t
     /tmp/cc7j7qCO.s:870    .text.uart_lld_stop_send:00000000 uart_lld_stop_send
     /tmp/cc7j7qCO.s:904    .text.uart_lld_start_receive:00000000 $t
     /tmp/cc7j7qCO.s:910    .text.uart_lld_start_receive:00000000 uart_lld_start_receive
     /tmp/cc7j7qCO.s:965    .text.uart_lld_stop_receive:00000000 $t
     /tmp/cc7j7qCO.s:971    .text.uart_lld_stop_receive:00000000 uart_lld_stop_receive
     /tmp/cc7j7qCO.s:1020   .bss.UARTD3:00000000 UARTD3
     /tmp/cc7j7qCO.s:1016   .bss.UARTD3:00000000 $d
                     .debug_frame:00000010 $d
     /tmp/cc7j7qCO.s:485    .text.VectorDC:00000084 $t
     /tmp/cc7j7qCO.s:757    .text.uart_lld_start:00000114 $t

UNDEFINED SYMBOLS
port_halt
_port_irq_epilogue
uartObjectInit
_stm32_dma_streams
dmaStreamAllocate
nvicEnableVector
dmaStreamRelease
nvicDisableVector
