ARM GAS  /tmp/ccd61yKH.s 			page 1


   1              		.syntax unified
   2              		.cpu cortex-m4
   3              		.eabi_attribute 27, 3
   4              		.eabi_attribute 28, 1
   5              		.fpu fpv4-sp-d16
   6              		.eabi_attribute 20, 1
   7              		.eabi_attribute 21, 1
   8              		.eabi_attribute 23, 3
   9              		.eabi_attribute 24, 1
  10              		.eabi_attribute 25, 1
  11              		.eabi_attribute 26, 1
  12              		.eabi_attribute 30, 2
  13              		.eabi_attribute 34, 1
  14              		.eabi_attribute 18, 4
  15              		.thumb
  16              		.file	"unlocker.c"
  17              		.text
  18              	.Ltext0:
  19              		.cfi_sections	.debug_frame
  20              		.section	.text.redrawLines,"ax",%progbits
  21              		.align	2
  22              		.p2align 4,,15
  23              		.global	redrawLines
  24              		.thumb
  25              		.thumb_func
  26              		.type	redrawLines, %function
  27              	redrawLines:
  28              	.LFB122:
  29              		.file 1 "unlocker.c"
  30              		.loc 1 71 0
  31              		.cfi_startproc
  32              		@ args = 0, pretend = 0, frame = 0
  33              		@ frame_needed = 0, uses_anonymous_args = 0
  34              	.LVL0:
  35 0000 F0B5     		push	{r4, r5, r6, r7, lr}
  36              	.LCFI0:
  37              		.cfi_def_cfa_offset 20
  38              		.cfi_offset 4, -20
  39              		.cfi_offset 5, -16
  40              		.cfi_offset 6, -12
  41              		.cfi_offset 7, -8
  42              		.cfi_offset 14, -4
  43 0002 994D     		ldr	r5, .L49
  44 0004 83B0     		sub	sp, sp, #12
  45              	.LCFI1:
  46              		.cfi_def_cfa_offset 32
  47              		.loc 1 81 0
  48 0006 48F21047 		movw	r7, #33808
  49 000a 05F11704 		add	r4, r5, #23
  50              		.loc 1 70 0
  51 000e 05F17106 		add	r6, r5, #113
  52              	.LVL1:
  53              	.L2:
  54              		.loc 1 77 0 discriminator 1
  55 0012 14F8173C 		ldrb	r3, [r4, #-23]	@ zero_extendqisi2
  56 0016 2BB1     		cbz	r3, .L7
  57              		.loc 1 78 0
ARM GAS  /tmp/ccd61yKH.s 			page 2


  58 0018 34F8160C 		ldrh	r0, [r4, #-22]
  59 001c 10B1     		cbz	r0, .L7
  60              		.loc 1 79 0
  61 001e 34F8141C 		ldrh	r1, [r4, #-20]
  62 0022 D1B9     		cbnz	r1, .L43
  63              	.L7:
  64              	.LVL2:
  65              		.loc 1 77 0
  66 0024 14F80D1C 		ldrb	r1, [r4, #-13]	@ zero_extendqisi2
  67 0028 39B1     		cbz	r1, .L11
  68              		.loc 1 78 0
  69 002a 34F80C0C 		ldrh	r0, [r4, #-12]
  70 002e 20B1     		cbz	r0, .L11
  71              		.loc 1 79 0
  72 0030 34F80A1C 		ldrh	r1, [r4, #-10]
  73 0034 0029     		cmp	r1, #0
  74 0036 40F08C80 		bne	.L44
  75              	.L11:
  76              	.LVL3:
  77              		.loc 1 77 0
  78 003a 14F8031C 		ldrb	r1, [r4, #-3]	@ zero_extendqisi2
  79 003e 31B1     		cbz	r1, .L3
  80              		.loc 1 78 0
  81 0040 34F8020C 		ldrh	r0, [r4, #-2]
  82 0044 18B1     		cbz	r0, .L3
  83              		.loc 1 79 0
  84 0046 B5F81710 		ldrh	r1, [r5, #23]
  85 004a 0029     		cmp	r1, #0
  86 004c 43D1     		bne	.L45
  87              	.L3:
  88              	.LVL4:
  89 004e 1E34     		adds	r4, r4, #30
  90 0050 1E35     		adds	r5, r5, #30
  91              		.loc 1 74 0
  92 0052 B442     		cmp	r4, r6
  93 0054 DDD1     		bne	.L2
  94              		.loc 1 111 0
  95 0056 03B0     		add	sp, sp, #12
  96 0058 F0BD     		pop	{r4, r5, r6, r7, pc}
  97              	.LVL5:
  98              	.L43:
  99              		.loc 1 81 0
 100 005a 34F91C2C 		ldrsh	r2, [r4, #-28]
 101 005e 34F91A3C 		ldrsh	r3, [r4, #-26]
 102 0062 0097     		str	r7, [sp, #0]
 103 0064 00B2     		sxth	r0, r0
 104 0066 09B2     		sxth	r1, r1
 105 0068 FFF7FEFF 		bl	gdispDrawLine
 106              	.LVL6:
 107              		.loc 1 85 0
 108 006c 34F8163C 		ldrh	r3, [r4, #-22]
 109 0070 34F91C2C 		ldrsh	r2, [r4, #-28]
 110 0074 18B2     		sxth	r0, r3
 111 0076 9042     		cmp	r0, r2
 112 0078 00F0A880 		beq	.L46
 113              		.loc 1 95 0
 114 007c 34F8141C 		ldrh	r1, [r4, #-20]
ARM GAS  /tmp/ccd61yKH.s 			page 3


 115 0080 34F81A3C 		ldrh	r3, [r4, #-26]
 116 0084 0097     		str	r7, [sp, #0]
 117 0086 0139     		subs	r1, r1, #1
 118 0088 013B     		subs	r3, r3, #1
 119 008a 09B2     		sxth	r1, r1
 120 008c 1BB2     		sxth	r3, r3
 121 008e FFF7FEFF 		bl	gdispDrawLine
 122              	.LVL7:
 123              		.loc 1 99 0
 124 0092 34F8141C 		ldrh	r1, [r4, #-20]
 125 0096 34F81A3C 		ldrh	r3, [r4, #-26]
 126 009a 34F9160C 		ldrsh	r0, [r4, #-22]
 127 009e 34F91C2C 		ldrsh	r2, [r4, #-28]
 128 00a2 0097     		str	r7, [sp, #0]
 129 00a4 0131     		adds	r1, r1, #1
 130 00a6 0133     		adds	r3, r3, #1
 131 00a8 09B2     		sxth	r1, r1
 132 00aa 1BB2     		sxth	r3, r3
 133 00ac FFF7FEFF 		bl	gdispDrawLine
 134              	.LVL8:
 135              	.L10:
 136              		.loc 1 104 0
 137 00b0 34F91C0C 		ldrsh	r0, [r4, #-28]
 138 00b4 34F91A1C 		ldrsh	r1, [r4, #-26]
 139 00b8 0322     		movs	r2, #3
 140 00ba 48F21043 		movw	r3, #33808
 141 00be FFF7FEFF 		bl	gdispFillCircle
 142              	.LVL9:
 143              		.loc 1 105 0
 144 00c2 34F9160C 		ldrsh	r0, [r4, #-22]
 145 00c6 34F9141C 		ldrsh	r1, [r4, #-20]
 146 00ca 0322     		movs	r2, #3
 147 00cc 48F21043 		movw	r3, #33808
 148 00d0 FFF7FEFF 		bl	gdispFillCircle
 149              	.LVL10:
 150 00d4 A6E7     		b	.L7
 151              	.LVL11:
 152              	.L45:
 153              		.loc 1 81 0
 154 00d6 34F9082C 		ldrsh	r2, [r4, #-8]
 155 00da 34F9063C 		ldrsh	r3, [r4, #-6]
 156 00de 0097     		str	r7, [sp, #0]
 157 00e0 00B2     		sxth	r0, r0
 158 00e2 09B2     		sxth	r1, r1
 159 00e4 FFF7FEFF 		bl	gdispDrawLine
 160              	.LVL12:
 161              		.loc 1 85 0
 162 00e8 34F8023C 		ldrh	r3, [r4, #-2]
 163 00ec 34F9082C 		ldrsh	r2, [r4, #-8]
 164 00f0 18B2     		sxth	r0, r3
 165 00f2 9042     		cmp	r0, r2
 166 00f4 00F09E80 		beq	.L47
 167              		.loc 1 95 0
 168 00f8 34F8063C 		ldrh	r3, [r4, #-6]
 169 00fc B5F81710 		ldrh	r1, [r5, #23]
 170 0100 0097     		str	r7, [sp, #0]
 171 0102 0139     		subs	r1, r1, #1
ARM GAS  /tmp/ccd61yKH.s 			page 4


 172 0104 013B     		subs	r3, r3, #1
 173 0106 09B2     		sxth	r1, r1
 174 0108 1BB2     		sxth	r3, r3
 175 010a FFF7FEFF 		bl	gdispDrawLine
 176              	.LVL13:
 177              		.loc 1 99 0
 178 010e 34F8063C 		ldrh	r3, [r4, #-6]
 179 0112 B5F81710 		ldrh	r1, [r5, #23]
 180 0116 34F9020C 		ldrsh	r0, [r4, #-2]
 181 011a 34F9082C 		ldrsh	r2, [r4, #-8]
 182 011e 0097     		str	r7, [sp, #0]
 183 0120 0131     		adds	r1, r1, #1
 184 0122 0133     		adds	r3, r3, #1
 185 0124 09B2     		sxth	r1, r1
 186 0126 1BB2     		sxth	r3, r3
 187 0128 FFF7FEFF 		bl	gdispDrawLine
 188              	.LVL14:
 189              	.L5:
 190              		.loc 1 104 0
 191 012c 34F9080C 		ldrsh	r0, [r4, #-8]
 192 0130 34F9061C 		ldrsh	r1, [r4, #-6]
 193 0134 0322     		movs	r2, #3
 194 0136 48F21043 		movw	r3, #33808
 195 013a FFF7FEFF 		bl	gdispFillCircle
 196              	.LVL15:
 197              		.loc 1 105 0
 198 013e 34F9020C 		ldrsh	r0, [r4, #-2]
 199 0142 B5F91710 		ldrsh	r1, [r5, #23]
 200 0146 0322     		movs	r2, #3
 201 0148 48F21043 		movw	r3, #33808
 202 014c FFF7FEFF 		bl	gdispFillCircle
 203              	.LVL16:
 204 0150 7DE7     		b	.L3
 205              	.LVL17:
 206              	.L44:
 207              		.loc 1 81 0
 208 0152 34F9122C 		ldrsh	r2, [r4, #-18]
 209 0156 34F9103C 		ldrsh	r3, [r4, #-16]
 210 015a 0097     		str	r7, [sp, #0]
 211 015c 00B2     		sxth	r0, r0
 212 015e 09B2     		sxth	r1, r1
 213 0160 FFF7FEFF 		bl	gdispDrawLine
 214              	.LVL18:
 215              		.loc 1 85 0
 216 0164 34F80C3C 		ldrh	r3, [r4, #-12]
 217 0168 34F9122C 		ldrsh	r2, [r4, #-18]
 218 016c 18B2     		sxth	r0, r3
 219 016e 9042     		cmp	r0, r2
 220 0170 46D0     		beq	.L48
 221              		.loc 1 95 0
 222 0172 34F80A1C 		ldrh	r1, [r4, #-10]
 223 0176 34F8103C 		ldrh	r3, [r4, #-16]
 224 017a 0097     		str	r7, [sp, #0]
 225 017c 0139     		subs	r1, r1, #1
 226 017e 013B     		subs	r3, r3, #1
 227 0180 09B2     		sxth	r1, r1
 228 0182 1BB2     		sxth	r3, r3
ARM GAS  /tmp/ccd61yKH.s 			page 5


 229 0184 FFF7FEFF 		bl	gdispDrawLine
 230              	.LVL19:
 231              		.loc 1 99 0
 232 0188 34F80A1C 		ldrh	r1, [r4, #-10]
 233 018c 34F8103C 		ldrh	r3, [r4, #-16]
 234 0190 34F90C0C 		ldrsh	r0, [r4, #-12]
 235 0194 34F9122C 		ldrsh	r2, [r4, #-18]
 236 0198 0097     		str	r7, [sp, #0]
 237 019a 0131     		adds	r1, r1, #1
 238 019c 0133     		adds	r3, r3, #1
 239 019e 09B2     		sxth	r1, r1
 240 01a0 1BB2     		sxth	r3, r3
 241 01a2 FFF7FEFF 		bl	gdispDrawLine
 242              	.LVL20:
 243              	.L14:
 244              		.loc 1 104 0
 245 01a6 34F9120C 		ldrsh	r0, [r4, #-18]
 246 01aa 34F9101C 		ldrsh	r1, [r4, #-16]
 247 01ae 0322     		movs	r2, #3
 248 01b0 48F21043 		movw	r3, #33808
 249 01b4 FFF7FEFF 		bl	gdispFillCircle
 250              	.LVL21:
 251              		.loc 1 105 0
 252 01b8 34F90C0C 		ldrsh	r0, [r4, #-12]
 253 01bc 34F90A1C 		ldrsh	r1, [r4, #-10]
 254 01c0 0322     		movs	r2, #3
 255 01c2 48F21043 		movw	r3, #33808
 256 01c6 FFF7FEFF 		bl	gdispFillCircle
 257              	.LVL22:
 258 01ca 36E7     		b	.L11
 259              	.LVL23:
 260              	.L46:
 261              		.loc 1 86 0
 262 01cc 5A1E     		subs	r2, r3, #1
 263 01ce 10B2     		sxth	r0, r2
 264 01d0 34F9141C 		ldrsh	r1, [r4, #-20]
 265 01d4 34F91A3C 		ldrsh	r3, [r4, #-26]
 266 01d8 0097     		str	r7, [sp, #0]
 267 01da 0246     		mov	r2, r0
 268 01dc FFF7FEFF 		bl	gdispDrawLine
 269              	.LVL24:
 270              		.loc 1 90 0
 271 01e0 34F8160C 		ldrh	r0, [r4, #-22]
 272 01e4 34F81C2C 		ldrh	r2, [r4, #-28]
 273 01e8 34F9141C 		ldrsh	r1, [r4, #-20]
 274 01ec 34F91A3C 		ldrsh	r3, [r4, #-26]
 275 01f0 0097     		str	r7, [sp, #0]
 276 01f2 0130     		adds	r0, r0, #1
 277 01f4 0132     		adds	r2, r2, #1
 278 01f6 00B2     		sxth	r0, r0
 279 01f8 12B2     		sxth	r2, r2
 280 01fa FFF7FEFF 		bl	gdispDrawLine
 281              	.LVL25:
 282 01fe 57E7     		b	.L10
 283              	.LVL26:
 284              	.L48:
 285              		.loc 1 86 0
ARM GAS  /tmp/ccd61yKH.s 			page 6


 286 0200 5A1E     		subs	r2, r3, #1
 287 0202 10B2     		sxth	r0, r2
 288 0204 34F90A1C 		ldrsh	r1, [r4, #-10]
 289 0208 34F9103C 		ldrsh	r3, [r4, #-16]
 290 020c 0097     		str	r7, [sp, #0]
 291 020e 0246     		mov	r2, r0
 292 0210 FFF7FEFF 		bl	gdispDrawLine
 293              	.LVL27:
 294              		.loc 1 90 0
 295 0214 34F80C0C 		ldrh	r0, [r4, #-12]
 296 0218 34F8122C 		ldrh	r2, [r4, #-18]
 297 021c 34F90A1C 		ldrsh	r1, [r4, #-10]
 298 0220 34F9103C 		ldrsh	r3, [r4, #-16]
 299 0224 0097     		str	r7, [sp, #0]
 300 0226 0130     		adds	r0, r0, #1
 301 0228 0132     		adds	r2, r2, #1
 302 022a 00B2     		sxth	r0, r0
 303 022c 12B2     		sxth	r2, r2
 304 022e FFF7FEFF 		bl	gdispDrawLine
 305              	.LVL28:
 306 0232 B8E7     		b	.L14
 307              	.LVL29:
 308              	.L47:
 309              		.loc 1 86 0
 310 0234 5A1E     		subs	r2, r3, #1
 311 0236 10B2     		sxth	r0, r2
 312 0238 34F9063C 		ldrsh	r3, [r4, #-6]
 313 023c B5F91710 		ldrsh	r1, [r5, #23]
 314 0240 0097     		str	r7, [sp, #0]
 315 0242 0246     		mov	r2, r0
 316 0244 FFF7FEFF 		bl	gdispDrawLine
 317              	.LVL30:
 318              		.loc 1 90 0
 319 0248 34F8020C 		ldrh	r0, [r4, #-2]
 320 024c 34F8082C 		ldrh	r2, [r4, #-8]
 321 0250 34F9063C 		ldrsh	r3, [r4, #-6]
 322 0254 B5F91710 		ldrsh	r1, [r5, #23]
 323 0258 0097     		str	r7, [sp, #0]
 324 025a 0130     		adds	r0, r0, #1
 325 025c 0132     		adds	r2, r2, #1
 326 025e 00B2     		sxth	r0, r0
 327 0260 12B2     		sxth	r2, r2
 328 0262 FFF7FEFF 		bl	gdispDrawLine
 329              	.LVL31:
 330 0266 61E7     		b	.L5
 331              	.L50:
 332              		.align	2
 333              	.L49:
 334 0268 05000000 		.word	.LANCHOR0+5
 335              		.cfi_endproc
 336              	.LFE122:
 337              		.size	redrawLines, .-redrawLines
 338 026c AFF30080 		.section	.text.drawRingsError,"ax",%progbits
 339              		.align	2
 340              		.p2align 4,,15
 341              		.global	drawRingsError
 342              		.thumb
ARM GAS  /tmp/ccd61yKH.s 			page 7


 343              		.thumb_func
 344              		.type	drawRingsError, %function
 345              	drawRingsError:
 346              	.LFB123:
 347              		.loc 1 114 0
 348              		.cfi_startproc
 349              		@ args = 0, pretend = 0, frame = 0
 350              		@ frame_needed = 0, uses_anonymous_args = 0
 351 0000 70B5     		push	{r4, r5, r6, lr}
 352              	.LCFI2:
 353              		.cfi_def_cfa_offset 16
 354              		.cfi_offset 4, -16
 355              		.cfi_offset 5, -12
 356              		.cfi_offset 6, -8
 357              		.cfi_offset 14, -4
 358              		.loc 1 122 0
 359 0002 40F20004 		movw	r4, #:lower16:.LANCHOR0
 360 0006 C0F20004 		movt	r4, #:upper16:.LANCHOR0
 361              		.loc 1 115 0
 362 000a 4FF6FF70 		movw	r0, #65535
 363 000e FFF7FEFF 		bl	gdispClear
 364              	.LVL32:
 365              	.LBB10:
 366              	.LBB11:
 367              		.loc 1 55 0
 368 0012 B4F90060 		ldrsh	r6, [r4, #0]
 369 0016 B4F90250 		ldrsh	r5, [r4, #2]
 370 001a 1422     		movs	r2, #20
 371 001c 3046     		mov	r0, r6
 372 001e 2946     		mov	r1, r5
 373 0020 4FF47843 		mov	r3, #63488
 374 0024 FFF7FEFF 		bl	gdispFillCircle
 375              	.LVL33:
 376              		.loc 1 56 0
 377 0028 3046     		mov	r0, r6
 378 002a 2946     		mov	r1, r5
 379 002c 1122     		movs	r2, #17
 380 002e 4FF6FF73 		movw	r3, #65535
 381 0032 FFF7FEFF 		bl	gdispFillCircle
 382              	.LVL34:
 383              		.loc 1 57 0
 384 0036 3046     		mov	r0, r6
 385 0038 2946     		mov	r1, r5
 386 003a 0322     		movs	r2, #3
 387 003c 4FF47843 		mov	r3, #63488
 388 0040 FFF7FEFF 		bl	gdispFillCircle
 389              	.LVL35:
 390              		.loc 1 55 0
 391 0044 B4F90A60 		ldrsh	r6, [r4, #10]
 392 0048 B4F90C50 		ldrsh	r5, [r4, #12]
 393 004c 1422     		movs	r2, #20
 394 004e 3046     		mov	r0, r6
 395 0050 2946     		mov	r1, r5
 396 0052 4FF47843 		mov	r3, #63488
 397 0056 FFF7FEFF 		bl	gdispFillCircle
 398              	.LVL36:
 399              		.loc 1 56 0
ARM GAS  /tmp/ccd61yKH.s 			page 8


 400 005a 3046     		mov	r0, r6
 401 005c 2946     		mov	r1, r5
 402 005e 1122     		movs	r2, #17
 403 0060 4FF6FF73 		movw	r3, #65535
 404 0064 FFF7FEFF 		bl	gdispFillCircle
 405              	.LVL37:
 406              		.loc 1 57 0
 407 0068 3046     		mov	r0, r6
 408 006a 2946     		mov	r1, r5
 409 006c 0322     		movs	r2, #3
 410 006e 4FF47843 		mov	r3, #63488
 411 0072 FFF7FEFF 		bl	gdispFillCircle
 412              	.LVL38:
 413              		.loc 1 55 0
 414 0076 B4F91460 		ldrsh	r6, [r4, #20]
 415 007a B4F91650 		ldrsh	r5, [r4, #22]
 416 007e 1422     		movs	r2, #20
 417 0080 3046     		mov	r0, r6
 418 0082 2946     		mov	r1, r5
 419 0084 4FF47843 		mov	r3, #63488
 420 0088 FFF7FEFF 		bl	gdispFillCircle
 421              	.LVL39:
 422              		.loc 1 56 0
 423 008c 3046     		mov	r0, r6
 424 008e 2946     		mov	r1, r5
 425 0090 1122     		movs	r2, #17
 426 0092 4FF6FF73 		movw	r3, #65535
 427 0096 FFF7FEFF 		bl	gdispFillCircle
 428              	.LVL40:
 429              		.loc 1 57 0
 430 009a 3046     		mov	r0, r6
 431 009c 2946     		mov	r1, r5
 432 009e 0322     		movs	r2, #3
 433 00a0 4FF47843 		mov	r3, #63488
 434 00a4 FFF7FEFF 		bl	gdispFillCircle
 435              	.LVL41:
 436              		.loc 1 55 0
 437 00a8 B4F91E60 		ldrsh	r6, [r4, #30]
 438 00ac B4F92050 		ldrsh	r5, [r4, #32]
 439 00b0 1422     		movs	r2, #20
 440 00b2 3046     		mov	r0, r6
 441 00b4 2946     		mov	r1, r5
 442 00b6 4FF47843 		mov	r3, #63488
 443 00ba FFF7FEFF 		bl	gdispFillCircle
 444              	.LVL42:
 445              		.loc 1 56 0
 446 00be 3046     		mov	r0, r6
 447 00c0 2946     		mov	r1, r5
 448 00c2 1122     		movs	r2, #17
 449 00c4 4FF6FF73 		movw	r3, #65535
 450 00c8 FFF7FEFF 		bl	gdispFillCircle
 451              	.LVL43:
 452              		.loc 1 57 0
 453 00cc 3046     		mov	r0, r6
 454 00ce 2946     		mov	r1, r5
 455 00d0 0322     		movs	r2, #3
 456 00d2 4FF47843 		mov	r3, #63488
ARM GAS  /tmp/ccd61yKH.s 			page 9


 457 00d6 FFF7FEFF 		bl	gdispFillCircle
 458              	.LVL44:
 459              		.loc 1 55 0
 460 00da B4F92860 		ldrsh	r6, [r4, #40]
 461 00de B4F92A50 		ldrsh	r5, [r4, #42]
 462 00e2 1422     		movs	r2, #20
 463 00e4 3046     		mov	r0, r6
 464 00e6 2946     		mov	r1, r5
 465 00e8 4FF47843 		mov	r3, #63488
 466 00ec FFF7FEFF 		bl	gdispFillCircle
 467              	.LVL45:
 468              		.loc 1 56 0
 469 00f0 3046     		mov	r0, r6
 470 00f2 2946     		mov	r1, r5
 471 00f4 1122     		movs	r2, #17
 472 00f6 4FF6FF73 		movw	r3, #65535
 473 00fa FFF7FEFF 		bl	gdispFillCircle
 474              	.LVL46:
 475              		.loc 1 57 0
 476 00fe 3046     		mov	r0, r6
 477 0100 2946     		mov	r1, r5
 478 0102 0322     		movs	r2, #3
 479 0104 4FF47843 		mov	r3, #63488
 480 0108 FFF7FEFF 		bl	gdispFillCircle
 481              	.LVL47:
 482              		.loc 1 55 0
 483 010c B4F93260 		ldrsh	r6, [r4, #50]
 484 0110 B4F93450 		ldrsh	r5, [r4, #52]
 485 0114 3046     		mov	r0, r6
 486 0116 2946     		mov	r1, r5
 487 0118 1422     		movs	r2, #20
 488 011a 4FF47843 		mov	r3, #63488
 489 011e FFF7FEFF 		bl	gdispFillCircle
 490              	.LVL48:
 491              		.loc 1 56 0
 492 0122 1122     		movs	r2, #17
 493 0124 3046     		mov	r0, r6
 494 0126 2946     		mov	r1, r5
 495 0128 4FF6FF73 		movw	r3, #65535
 496 012c FFF7FEFF 		bl	gdispFillCircle
 497              	.LVL49:
 498              		.loc 1 57 0
 499 0130 3046     		mov	r0, r6
 500 0132 2946     		mov	r1, r5
 501 0134 0322     		movs	r2, #3
 502 0136 4FF47843 		mov	r3, #63488
 503 013a FFF7FEFF 		bl	gdispFillCircle
 504              	.LVL50:
 505              		.loc 1 55 0
 506 013e B4F93C60 		ldrsh	r6, [r4, #60]
 507 0142 B4F93E50 		ldrsh	r5, [r4, #62]
 508 0146 1422     		movs	r2, #20
 509 0148 3046     		mov	r0, r6
 510 014a 2946     		mov	r1, r5
 511 014c 4FF47843 		mov	r3, #63488
 512 0150 FFF7FEFF 		bl	gdispFillCircle
 513              	.LVL51:
ARM GAS  /tmp/ccd61yKH.s 			page 10


 514              		.loc 1 56 0
 515 0154 3046     		mov	r0, r6
 516 0156 2946     		mov	r1, r5
 517 0158 1122     		movs	r2, #17
 518 015a 4FF6FF73 		movw	r3, #65535
 519 015e FFF7FEFF 		bl	gdispFillCircle
 520              	.LVL52:
 521              		.loc 1 57 0
 522 0162 3046     		mov	r0, r6
 523 0164 2946     		mov	r1, r5
 524 0166 0322     		movs	r2, #3
 525 0168 4FF47843 		mov	r3, #63488
 526 016c FFF7FEFF 		bl	gdispFillCircle
 527              	.LVL53:
 528              		.loc 1 55 0
 529 0170 B4F94660 		ldrsh	r6, [r4, #70]
 530 0174 B4F94850 		ldrsh	r5, [r4, #72]
 531 0178 1422     		movs	r2, #20
 532 017a 3046     		mov	r0, r6
 533 017c 2946     		mov	r1, r5
 534 017e 4FF47843 		mov	r3, #63488
 535 0182 FFF7FEFF 		bl	gdispFillCircle
 536              	.LVL54:
 537              		.loc 1 56 0
 538 0186 3046     		mov	r0, r6
 539 0188 2946     		mov	r1, r5
 540 018a 1122     		movs	r2, #17
 541 018c 4FF6FF73 		movw	r3, #65535
 542 0190 FFF7FEFF 		bl	gdispFillCircle
 543              	.LVL55:
 544              		.loc 1 57 0
 545 0194 3046     		mov	r0, r6
 546 0196 2946     		mov	r1, r5
 547 0198 0322     		movs	r2, #3
 548 019a 4FF47843 		mov	r3, #63488
 549 019e FFF7FEFF 		bl	gdispFillCircle
 550              	.LVL56:
 551              		.loc 1 55 0
 552 01a2 B4F95050 		ldrsh	r5, [r4, #80]
 553 01a6 B4F95240 		ldrsh	r4, [r4, #82]
 554 01aa 1422     		movs	r2, #20
 555 01ac 2846     		mov	r0, r5
 556 01ae 2146     		mov	r1, r4
 557 01b0 4FF47843 		mov	r3, #63488
 558 01b4 FFF7FEFF 		bl	gdispFillCircle
 559              	.LVL57:
 560              		.loc 1 56 0
 561 01b8 2846     		mov	r0, r5
 562 01ba 2146     		mov	r1, r4
 563 01bc 1122     		movs	r2, #17
 564 01be 4FF6FF73 		movw	r3, #65535
 565 01c2 FFF7FEFF 		bl	gdispFillCircle
 566              	.LVL58:
 567              		.loc 1 57 0
 568 01c6 2846     		mov	r0, r5
 569 01c8 2146     		mov	r1, r4
 570 01ca 0322     		movs	r2, #3
ARM GAS  /tmp/ccd61yKH.s 			page 11


 571 01cc 4FF47843 		mov	r3, #63488
 572              	.LBE11:
 573              	.LBE10:
 574              		.loc 1 127 0
 575 01d0 BDE87040 		pop	{r4, r5, r6, lr}
 576              	.LBB13:
 577              	.LBB12:
 578              		.loc 1 57 0
 579 01d4 FFF7FEBF 		b	gdispFillCircle
 580              	.LVL59:
 581              	.LBE12:
 582              	.LBE13:
 583              		.cfi_endproc
 584              	.LFE123:
 585              		.size	drawRingsError, .-drawRingsError
 586 01d8 AFF30080 		.section	.text.drawRingsOk,"ax",%progbits
 586      AFF30080 
 587              		.align	2
 588              		.p2align 4,,15
 589              		.global	drawRingsOk
 590              		.thumb
 591              		.thumb_func
 592              		.type	drawRingsOk, %function
 593              	drawRingsOk:
 594              	.LFB124:
 595              		.loc 1 130 0
 596              		.cfi_startproc
 597              		@ args = 0, pretend = 0, frame = 0
 598              		@ frame_needed = 0, uses_anonymous_args = 0
 599 0000 70B5     		push	{r4, r5, r6, lr}
 600              	.LCFI3:
 601              		.cfi_def_cfa_offset 16
 602              		.cfi_offset 4, -16
 603              		.cfi_offset 5, -12
 604              		.cfi_offset 6, -8
 605              		.cfi_offset 14, -4
 606              		.loc 1 138 0
 607 0002 40F20004 		movw	r4, #:lower16:.LANCHOR0
 608 0006 C0F20004 		movt	r4, #:upper16:.LANCHOR0
 609              		.loc 1 131 0
 610 000a 4FF6FF70 		movw	r0, #65535
 611 000e FFF7FEFF 		bl	gdispClear
 612              	.LVL60:
 613              	.LBB14:
 614              	.LBB15:
 615              		.loc 1 62 0
 616 0012 B4F90060 		ldrsh	r6, [r4, #0]
 617 0016 B4F90250 		ldrsh	r5, [r4, #2]
 618 001a 1422     		movs	r2, #20
 619 001c 3046     		mov	r0, r6
 620 001e 2946     		mov	r1, r5
 621 0020 4FF4FC63 		mov	r3, #2016
 622 0024 FFF7FEFF 		bl	gdispFillCircle
 623              	.LVL61:
 624              		.loc 1 63 0
 625 0028 3046     		mov	r0, r6
 626 002a 2946     		mov	r1, r5
ARM GAS  /tmp/ccd61yKH.s 			page 12


 627 002c 1122     		movs	r2, #17
 628 002e 4FF6FF73 		movw	r3, #65535
 629 0032 FFF7FEFF 		bl	gdispFillCircle
 630              	.LVL62:
 631              		.loc 1 64 0
 632 0036 3046     		mov	r0, r6
 633 0038 2946     		mov	r1, r5
 634 003a 0322     		movs	r2, #3
 635 003c 4FF4FC63 		mov	r3, #2016
 636 0040 FFF7FEFF 		bl	gdispFillCircle
 637              	.LVL63:
 638              		.loc 1 62 0
 639 0044 B4F90A60 		ldrsh	r6, [r4, #10]
 640 0048 B4F90C50 		ldrsh	r5, [r4, #12]
 641 004c 1422     		movs	r2, #20
 642 004e 3046     		mov	r0, r6
 643 0050 2946     		mov	r1, r5
 644 0052 4FF4FC63 		mov	r3, #2016
 645 0056 FFF7FEFF 		bl	gdispFillCircle
 646              	.LVL64:
 647              		.loc 1 63 0
 648 005a 3046     		mov	r0, r6
 649 005c 2946     		mov	r1, r5
 650 005e 1122     		movs	r2, #17
 651 0060 4FF6FF73 		movw	r3, #65535
 652 0064 FFF7FEFF 		bl	gdispFillCircle
 653              	.LVL65:
 654              		.loc 1 64 0
 655 0068 3046     		mov	r0, r6
 656 006a 2946     		mov	r1, r5
 657 006c 0322     		movs	r2, #3
 658 006e 4FF4FC63 		mov	r3, #2016
 659 0072 FFF7FEFF 		bl	gdispFillCircle
 660              	.LVL66:
 661              		.loc 1 62 0
 662 0076 B4F91460 		ldrsh	r6, [r4, #20]
 663 007a B4F91650 		ldrsh	r5, [r4, #22]
 664 007e 1422     		movs	r2, #20
 665 0080 3046     		mov	r0, r6
 666 0082 2946     		mov	r1, r5
 667 0084 4FF4FC63 		mov	r3, #2016
 668 0088 FFF7FEFF 		bl	gdispFillCircle
 669              	.LVL67:
 670              		.loc 1 63 0
 671 008c 3046     		mov	r0, r6
 672 008e 2946     		mov	r1, r5
 673 0090 1122     		movs	r2, #17
 674 0092 4FF6FF73 		movw	r3, #65535
 675 0096 FFF7FEFF 		bl	gdispFillCircle
 676              	.LVL68:
 677              		.loc 1 64 0
 678 009a 3046     		mov	r0, r6
 679 009c 2946     		mov	r1, r5
 680 009e 0322     		movs	r2, #3
 681 00a0 4FF4FC63 		mov	r3, #2016
 682 00a4 FFF7FEFF 		bl	gdispFillCircle
 683              	.LVL69:
ARM GAS  /tmp/ccd61yKH.s 			page 13


 684              		.loc 1 62 0
 685 00a8 B4F91E60 		ldrsh	r6, [r4, #30]
 686 00ac B4F92050 		ldrsh	r5, [r4, #32]
 687 00b0 1422     		movs	r2, #20
 688 00b2 3046     		mov	r0, r6
 689 00b4 2946     		mov	r1, r5
 690 00b6 4FF4FC63 		mov	r3, #2016
 691 00ba FFF7FEFF 		bl	gdispFillCircle
 692              	.LVL70:
 693              		.loc 1 63 0
 694 00be 3046     		mov	r0, r6
 695 00c0 2946     		mov	r1, r5
 696 00c2 1122     		movs	r2, #17
 697 00c4 4FF6FF73 		movw	r3, #65535
 698 00c8 FFF7FEFF 		bl	gdispFillCircle
 699              	.LVL71:
 700              		.loc 1 64 0
 701 00cc 3046     		mov	r0, r6
 702 00ce 2946     		mov	r1, r5
 703 00d0 0322     		movs	r2, #3
 704 00d2 4FF4FC63 		mov	r3, #2016
 705 00d6 FFF7FEFF 		bl	gdispFillCircle
 706              	.LVL72:
 707              		.loc 1 62 0
 708 00da B4F92860 		ldrsh	r6, [r4, #40]
 709 00de B4F92A50 		ldrsh	r5, [r4, #42]
 710 00e2 1422     		movs	r2, #20
 711 00e4 3046     		mov	r0, r6
 712 00e6 2946     		mov	r1, r5
 713 00e8 4FF4FC63 		mov	r3, #2016
 714 00ec FFF7FEFF 		bl	gdispFillCircle
 715              	.LVL73:
 716              		.loc 1 63 0
 717 00f0 3046     		mov	r0, r6
 718 00f2 2946     		mov	r1, r5
 719 00f4 1122     		movs	r2, #17
 720 00f6 4FF6FF73 		movw	r3, #65535
 721 00fa FFF7FEFF 		bl	gdispFillCircle
 722              	.LVL74:
 723              		.loc 1 64 0
 724 00fe 3046     		mov	r0, r6
 725 0100 2946     		mov	r1, r5
 726 0102 0322     		movs	r2, #3
 727 0104 4FF4FC63 		mov	r3, #2016
 728 0108 FFF7FEFF 		bl	gdispFillCircle
 729              	.LVL75:
 730              		.loc 1 62 0
 731 010c B4F93260 		ldrsh	r6, [r4, #50]
 732 0110 B4F93450 		ldrsh	r5, [r4, #52]
 733 0114 3046     		mov	r0, r6
 734 0116 2946     		mov	r1, r5
 735 0118 1422     		movs	r2, #20
 736 011a 4FF4FC63 		mov	r3, #2016
 737 011e FFF7FEFF 		bl	gdispFillCircle
 738              	.LVL76:
 739              		.loc 1 63 0
 740 0122 1122     		movs	r2, #17
ARM GAS  /tmp/ccd61yKH.s 			page 14


 741 0124 3046     		mov	r0, r6
 742 0126 2946     		mov	r1, r5
 743 0128 4FF6FF73 		movw	r3, #65535
 744 012c FFF7FEFF 		bl	gdispFillCircle
 745              	.LVL77:
 746              		.loc 1 64 0
 747 0130 3046     		mov	r0, r6
 748 0132 2946     		mov	r1, r5
 749 0134 0322     		movs	r2, #3
 750 0136 4FF4FC63 		mov	r3, #2016
 751 013a FFF7FEFF 		bl	gdispFillCircle
 752              	.LVL78:
 753              		.loc 1 62 0
 754 013e B4F93C60 		ldrsh	r6, [r4, #60]
 755 0142 B4F93E50 		ldrsh	r5, [r4, #62]
 756 0146 1422     		movs	r2, #20
 757 0148 3046     		mov	r0, r6
 758 014a 2946     		mov	r1, r5
 759 014c 4FF4FC63 		mov	r3, #2016
 760 0150 FFF7FEFF 		bl	gdispFillCircle
 761              	.LVL79:
 762              		.loc 1 63 0
 763 0154 3046     		mov	r0, r6
 764 0156 2946     		mov	r1, r5
 765 0158 1122     		movs	r2, #17
 766 015a 4FF6FF73 		movw	r3, #65535
 767 015e FFF7FEFF 		bl	gdispFillCircle
 768              	.LVL80:
 769              		.loc 1 64 0
 770 0162 3046     		mov	r0, r6
 771 0164 2946     		mov	r1, r5
 772 0166 0322     		movs	r2, #3
 773 0168 4FF4FC63 		mov	r3, #2016
 774 016c FFF7FEFF 		bl	gdispFillCircle
 775              	.LVL81:
 776              		.loc 1 62 0
 777 0170 B4F94660 		ldrsh	r6, [r4, #70]
 778 0174 B4F94850 		ldrsh	r5, [r4, #72]
 779 0178 1422     		movs	r2, #20
 780 017a 3046     		mov	r0, r6
 781 017c 2946     		mov	r1, r5
 782 017e 4FF4FC63 		mov	r3, #2016
 783 0182 FFF7FEFF 		bl	gdispFillCircle
 784              	.LVL82:
 785              		.loc 1 63 0
 786 0186 3046     		mov	r0, r6
 787 0188 2946     		mov	r1, r5
 788 018a 1122     		movs	r2, #17
 789 018c 4FF6FF73 		movw	r3, #65535
 790 0190 FFF7FEFF 		bl	gdispFillCircle
 791              	.LVL83:
 792              		.loc 1 64 0
 793 0194 3046     		mov	r0, r6
 794 0196 2946     		mov	r1, r5
 795 0198 0322     		movs	r2, #3
 796 019a 4FF4FC63 		mov	r3, #2016
 797 019e FFF7FEFF 		bl	gdispFillCircle
ARM GAS  /tmp/ccd61yKH.s 			page 15


 798              	.LVL84:
 799              		.loc 1 62 0
 800 01a2 B4F95050 		ldrsh	r5, [r4, #80]
 801 01a6 B4F95240 		ldrsh	r4, [r4, #82]
 802 01aa 1422     		movs	r2, #20
 803 01ac 2846     		mov	r0, r5
 804 01ae 2146     		mov	r1, r4
 805 01b0 4FF4FC63 		mov	r3, #2016
 806 01b4 FFF7FEFF 		bl	gdispFillCircle
 807              	.LVL85:
 808              		.loc 1 63 0
 809 01b8 2846     		mov	r0, r5
 810 01ba 2146     		mov	r1, r4
 811 01bc 1122     		movs	r2, #17
 812 01be 4FF6FF73 		movw	r3, #65535
 813 01c2 FFF7FEFF 		bl	gdispFillCircle
 814              	.LVL86:
 815              		.loc 1 64 0
 816 01c6 2846     		mov	r0, r5
 817 01c8 2146     		mov	r1, r4
 818 01ca 0322     		movs	r2, #3
 819 01cc 4FF4FC63 		mov	r3, #2016
 820              	.LBE15:
 821              	.LBE14:
 822              		.loc 1 143 0
 823 01d0 BDE87040 		pop	{r4, r5, r6, lr}
 824              	.LBB17:
 825              	.LBB16:
 826              		.loc 1 64 0
 827 01d4 FFF7FEBF 		b	gdispFillCircle
 828              	.LVL87:
 829              	.LBE16:
 830              	.LBE17:
 831              		.cfi_endproc
 832              	.LFE124:
 833              		.size	drawRingsOk, .-drawRingsOk
 834 01d8 AFF30080 		.section	.text.resetRings,"ax",%progbits
 834      AFF30080 
 835              		.align	2
 836              		.p2align 4,,15
 837              		.global	resetRings
 838              		.thumb
 839              		.thumb_func
 840              		.type	resetRings, %function
 841              	resetRings:
 842              	.LFB125:
 843              		.loc 1 151 0
 844              		.cfi_startproc
 845              		@ args = 0, pretend = 0, frame = 16
 846              		@ frame_needed = 0, uses_anonymous_args = 0
 847 0000 2DE9F04F 		push	{r4, r5, r6, r7, r8, r9, sl, fp, lr}
 848              	.LCFI4:
 849              		.cfi_def_cfa_offset 36
 850              		.cfi_offset 4, -36
 851              		.cfi_offset 5, -32
 852              		.cfi_offset 6, -28
 853              		.cfi_offset 7, -24
ARM GAS  /tmp/ccd61yKH.s 			page 16


 854              		.cfi_offset 8, -20
 855              		.cfi_offset 9, -16
 856              		.cfi_offset 10, -12
 857              		.cfi_offset 11, -8
 858              		.cfi_offset 14, -4
 859              		.loc 1 153 0
 860 0004 4FF6FF70 		movw	r0, #65535
 861              		.loc 1 151 0
 862 0008 85B0     		sub	sp, sp, #20
 863              	.LCFI5:
 864              		.cfi_def_cfa_offset 56
 865              		.loc 1 153 0
 866 000a FFF7FEFF 		bl	gdispClear
 867              	.LVL88:
 868              		.loc 1 155 0
 869 000e BE4A     		ldr	r2, .L58
 870              	.LVL89:
 871              		.loc 1 160 0
 872 0010 B2F90230 		ldrsh	r3, [r2, #2]
 873 0014 B2F90000 		ldrsh	r0, [r2, #0]
 874 0018 8342     		cmp	r3, r0
 875 001a 80F27B81 		bge	.L54
 876              		.loc 1 161 0
 877 001e 1E1E     		subs	r6, r3, #0
 878 0020 B8BF     		it	lt
 879 0022 0336     		addlt	r6, r6, #3
 880 0024 C6F38F0B 		ubfx	fp, r6, #2, #16
 881              	.LVL90:
 882              		.loc 1 162 0
 883 0028 4FF6FE77 		movw	r7, 65534	@ movhi
 884 002c 1BFB0702 		smlabb	r2, fp, r7, r0
 885              	.LVL91:
 886 0030 02EBD273 		add	r3, r2, r2, lsr #31
 887 0034 C3F34F08 		ubfx	r8, r3, #1, #16
 888              	.LVL92:
 889              		.loc 1 163 0
 890 0038 DC46     		mov	ip, fp
 891              	.LVL93:
 892              	.L56:
 893              		.loc 1 175 0
 894 003a B44C     		ldr	r4, .L58+4
 895              		.loc 1 184 0
 896 003c B44F     		ldr	r7, .L58+8
 897 003e 1FFA8CFE 		uxth	lr, ip
 898              	.LVL94:
 899 0042 1FFA88F8 		uxth	r8, r8
 900              	.LVL95:
 901              		.loc 1 177 0
 902 0046 0025     		movs	r5, #0
 903              	.LBB18:
 904              	.LBB19:
 905              		.loc 1 42 0
 906 0048 0FFA8EF6 		sxth	r6, lr
 907 004c 0FFA88FA 		sxth	sl, r8
 908              	.LBE19:
 909              	.LBE18:
 910              		.loc 1 176 0
ARM GAS  /tmp/ccd61yKH.s 			page 17


 911 0050 A4F802E0 		strh	lr, [r4, #2]	@ movhi
 912              		.loc 1 175 0
 913 0054 A4F80080 		strh	r8, [r4, #0]	@ movhi
 914              	.LBB43:
 915              	.LBB20:
 916              		.loc 1 42 0
 917 0058 1422     		movs	r2, #20
 918 005a 5046     		mov	r0, sl
 919 005c 3146     		mov	r1, r6
 920 005e 2B46     		mov	r3, r5
 921              	.LBE20:
 922              	.LBE43:
 923              		.loc 1 177 0
 924 0060 2571     		strb	r5, [r4, #4]
 925              		.loc 1 178 0
 926 0062 6571     		strb	r5, [r4, #5]
 927              		.loc 1 179 0
 928 0064 E580     		strh	r5, [r4, #6]	@ movhi
 929              		.loc 1 180 0
 930 0066 2581     		strh	r5, [r4, #8]	@ movhi
 931              	.LBB44:
 932              	.LBB21:
 933              		.loc 1 42 0
 934 0068 CDF800E0 		str	lr, [sp, #0]
 935 006c FFF7FEFF 		bl	gdispFillCircle
 936              	.LVL96:
 937              		.loc 1 43 0
 938 0070 5046     		mov	r0, sl
 939 0072 3146     		mov	r1, r6
 940 0074 1122     		movs	r2, #17
 941 0076 4FF6FF73 		movw	r3, #65535
 942 007a FFF7FEFF 		bl	gdispFillCircle
 943              	.LVL97:
 944              		.loc 1 44 0
 945 007e 5046     		mov	r0, sl
 946 0080 3146     		mov	r1, r6
 947 0082 0322     		movs	r2, #3
 948 0084 2B46     		mov	r3, r5
 949 0086 FFF7FEFF 		bl	gdispFillCircle
 950              	.LVL98:
 951              	.LBE21:
 952              	.LBE44:
 953              		.loc 1 176 0
 954 008a DDF800C0 		ldr	ip, [sp, #0]
 955              		.loc 1 175 0
 956 008e A4F80A80 		strh	r8, [r4, #10]	@ movhi
 957 0092 1FFA8BF9 		uxth	r9, fp
 958              		.loc 1 176 0
 959 0096 09EB0C00 		add	r0, r9, ip
 960 009a 81B2     		uxth	r1, r0
 961 009c 0191     		str	r1, [sp, #4]
 962 009e DDF804E0 		ldr	lr, [sp, #4]
 963              		.loc 1 177 0
 964 00a2 A573     		strb	r5, [r4, #14]
 965              	.LBB45:
 966              	.LBB22:
 967              		.loc 1 42 0
ARM GAS  /tmp/ccd61yKH.s 			page 18


 968 00a4 D346     		mov	fp, sl
 969              	.LVL99:
 970 00a6 0FFA81FA 		sxth	sl, r1
 971              	.LBE22:
 972              	.LBE45:
 973              		.loc 1 176 0
 974 00aa A4F80CE0 		strh	lr, [r4, #12]	@ movhi
 975              	.LBB46:
 976              	.LBB23:
 977              		.loc 1 42 0
 978 00ae 1422     		movs	r2, #20
 979 00b0 5846     		mov	r0, fp
 980 00b2 5146     		mov	r1, sl
 981 00b4 2B46     		mov	r3, r5
 982              	.LBE23:
 983              	.LBE46:
 984              		.loc 1 178 0
 985 00b6 E573     		strb	r5, [r4, #15]
 986              		.loc 1 179 0
 987 00b8 2582     		strh	r5, [r4, #16]	@ movhi
 988              		.loc 1 180 0
 989 00ba 6582     		strh	r5, [r4, #18]	@ movhi
 990              		.loc 1 184 0
 991 00bc 3D70     		strb	r5, [r7, #0]
 992              	.LVL100:
 993              	.LBB47:
 994              	.LBB24:
 995              		.loc 1 42 0
 996 00be CDF800C0 		str	ip, [sp, #0]
 997 00c2 FFF7FEFF 		bl	gdispFillCircle
 998              	.LVL101:
 999              		.loc 1 43 0
 1000 00c6 5846     		mov	r0, fp
 1001 00c8 5146     		mov	r1, sl
 1002 00ca 1122     		movs	r2, #17
 1003 00cc 4FF6FF73 		movw	r3, #65535
 1004 00d0 FFF7FEFF 		bl	gdispFillCircle
 1005              	.LVL102:
 1006              		.loc 1 44 0
 1007 00d4 5846     		mov	r0, fp
 1008 00d6 5146     		mov	r1, sl
 1009 00d8 0322     		movs	r2, #3
 1010 00da 2B46     		mov	r3, r5
 1011 00dc FFF7FEFF 		bl	gdispFillCircle
 1012              	.LVL103:
 1013              	.LBE24:
 1014              	.LBE47:
 1015              		.loc 1 176 0
 1016 00e0 DDF800C0 		ldr	ip, [sp, #0]
 1017              		.loc 1 175 0
 1018 00e4 A4F81480 		strh	r8, [r4, #20]	@ movhi
 1019              		.loc 1 176 0
 1020 00e8 4FEA4902 		lsl	r2, r9, #1
 1021 00ec 93B2     		uxth	r3, r2
 1022 00ee 03EB0C00 		add	r0, r3, ip
 1023 00f2 81B2     		uxth	r1, r0
 1024 00f4 0291     		str	r1, [sp, #8]
ARM GAS  /tmp/ccd61yKH.s 			page 19


 1025 00f6 DDF808E0 		ldr	lr, [sp, #8]
 1026 00fa 0393     		str	r3, [sp, #12]
 1027              	.LBB48:
 1028              	.LBB25:
 1029              		.loc 1 42 0
 1030 00fc 0FFA81FA 		sxth	sl, r1
 1031              	.LBE25:
 1032              	.LBE48:
 1033              		.loc 1 176 0
 1034 0100 A4F816E0 		strh	lr, [r4, #22]	@ movhi
 1035              	.LBB49:
 1036              	.LBB26:
 1037              		.loc 1 42 0
 1038 0104 1422     		movs	r2, #20
 1039 0106 5846     		mov	r0, fp
 1040 0108 5146     		mov	r1, sl
 1041 010a 2B46     		mov	r3, r5
 1042              	.LBE26:
 1043              	.LBE49:
 1044              		.loc 1 177 0
 1045 010c 2576     		strb	r5, [r4, #24]
 1046              		.loc 1 178 0
 1047 010e 6576     		strb	r5, [r4, #25]
 1048              		.loc 1 179 0
 1049 0110 6583     		strh	r5, [r4, #26]	@ movhi
 1050              		.loc 1 180 0
 1051 0112 A583     		strh	r5, [r4, #28]	@ movhi
 1052              		.loc 1 184 0
 1053 0114 FD70     		strb	r5, [r7, #3]
 1054              	.LVL104:
 1055              	.LBB50:
 1056              	.LBB27:
 1057              		.loc 1 42 0
 1058 0116 CDF800C0 		str	ip, [sp, #0]
 1059 011a FFF7FEFF 		bl	gdispFillCircle
 1060              	.LVL105:
 1061              		.loc 1 43 0
 1062 011e 5846     		mov	r0, fp
 1063 0120 5146     		mov	r1, sl
 1064 0122 1122     		movs	r2, #17
 1065 0124 4FF6FF73 		movw	r3, #65535
 1066 0128 FFF7FEFF 		bl	gdispFillCircle
 1067              	.LVL106:
 1068              		.loc 1 44 0
 1069 012c 5846     		mov	r0, fp
 1070 012e 5146     		mov	r1, sl
 1071 0130 0322     		movs	r2, #3
 1072 0132 2B46     		mov	r3, r5
 1073 0134 FFF7FEFF 		bl	gdispFillCircle
 1074              	.LVL107:
 1075 0138 C144     		add	r9, r9, r8
 1076              		.loc 1 42 0
 1077 013a DDF800C0 		ldr	ip, [sp, #0]
 1078              	.LBE27:
 1079              	.LBE50:
 1080              		.loc 1 177 0
 1081 013e 84F82250 		strb	r5, [r4, #34]
ARM GAS  /tmp/ccd61yKH.s 			page 20


 1082 0142 1FFA89F9 		uxth	r9, r9
 1083              	.LBB51:
 1084              	.LBB28:
 1085              		.loc 1 42 0
 1086 0146 0FFA8CFA 		sxth	sl, ip
 1087 014a 0FFA89FB 		sxth	fp, r9
 1088              	.LBE28:
 1089              	.LBE51:
 1090              		.loc 1 176 0
 1091 014e A4F820C0 		strh	ip, [r4, #32]	@ movhi
 1092              	.LBB52:
 1093              	.LBB29:
 1094              		.loc 1 42 0
 1095 0152 1422     		movs	r2, #20
 1096 0154 5146     		mov	r1, sl
 1097              	.LBE29:
 1098              	.LBE52:
 1099              		.loc 1 175 0
 1100 0156 A4F81E90 		strh	r9, [r4, #30]	@ movhi
 1101              	.LBB53:
 1102              	.LBB30:
 1103              		.loc 1 42 0
 1104 015a 2B46     		mov	r3, r5
 1105 015c 5846     		mov	r0, fp
 1106              	.LBE30:
 1107              	.LBE53:
 1108              		.loc 1 178 0
 1109 015e 84F82350 		strb	r5, [r4, #35]
 1110              		.loc 1 179 0
 1111 0162 A584     		strh	r5, [r4, #36]	@ movhi
 1112              		.loc 1 180 0
 1113 0164 E584     		strh	r5, [r4, #38]	@ movhi
 1114              		.loc 1 184 0
 1115 0166 BD71     		strb	r5, [r7, #6]
 1116              	.LVL108:
 1117              	.LBB54:
 1118              	.LBB31:
 1119              		.loc 1 42 0
 1120 0168 CDF800C0 		str	ip, [sp, #0]
 1121 016c FFF7FEFF 		bl	gdispFillCircle
 1122              	.LVL109:
 1123              		.loc 1 43 0
 1124 0170 5146     		mov	r1, sl
 1125 0172 1122     		movs	r2, #17
 1126 0174 5846     		mov	r0, fp
 1127 0176 4FF6FF73 		movw	r3, #65535
 1128 017a FFF7FEFF 		bl	gdispFillCircle
 1129              	.LVL110:
 1130              		.loc 1 42 0
 1131 017e 019A     		ldr	r2, [sp, #4]
 1132              		.loc 1 44 0
 1133 0180 5146     		mov	r1, sl
 1134 0182 5846     		mov	r0, fp
 1135              		.loc 1 42 0
 1136 0184 0FFA82FA 		sxth	sl, r2
 1137              		.loc 1 44 0
 1138 0188 2B46     		mov	r3, r5
ARM GAS  /tmp/ccd61yKH.s 			page 21


 1139 018a 0322     		movs	r2, #3
 1140 018c FFF7FEFF 		bl	gdispFillCircle
 1141              	.LVL111:
 1142              	.LBE31:
 1143              	.LBE54:
 1144              		.loc 1 176 0
 1145 0190 DDF804E0 		ldr	lr, [sp, #4]
 1146              		.loc 1 175 0
 1147 0194 A4F82890 		strh	r9, [r4, #40]	@ movhi
 1148              		.loc 1 176 0
 1149 0198 A4F82AE0 		strh	lr, [r4, #42]	@ movhi
 1150              	.LBB55:
 1151              	.LBB32:
 1152              		.loc 1 42 0
 1153 019c 1422     		movs	r2, #20
 1154 019e 5146     		mov	r1, sl
 1155 01a0 2B46     		mov	r3, r5
 1156 01a2 5846     		mov	r0, fp
 1157              	.LBE32:
 1158              	.LBE55:
 1159              		.loc 1 177 0
 1160 01a4 84F82C50 		strb	r5, [r4, #44]
 1161              		.loc 1 178 0
 1162 01a8 84F82D50 		strb	r5, [r4, #45]
 1163              		.loc 1 179 0
 1164 01ac E585     		strh	r5, [r4, #46]	@ movhi
 1165              		.loc 1 180 0
 1166 01ae 2586     		strh	r5, [r4, #48]	@ movhi
 1167              		.loc 1 184 0
 1168 01b0 7D70     		strb	r5, [r7, #1]
 1169              	.LVL112:
 1170              	.LBB56:
 1171              	.LBB33:
 1172              		.loc 1 42 0
 1173 01b2 FFF7FEFF 		bl	gdispFillCircle
 1174              	.LVL113:
 1175              		.loc 1 43 0
 1176 01b6 5146     		mov	r1, sl
 1177 01b8 1122     		movs	r2, #17
 1178 01ba 5846     		mov	r0, fp
 1179 01bc 4FF6FF73 		movw	r3, #65535
 1180 01c0 FFF7FEFF 		bl	gdispFillCircle
 1181              	.LVL114:
 1182              		.loc 1 42 0
 1183 01c4 029B     		ldr	r3, [sp, #8]
 1184              		.loc 1 44 0
 1185 01c6 5146     		mov	r1, sl
 1186 01c8 0322     		movs	r2, #3
 1187              		.loc 1 42 0
 1188 01ca 0FFA83FA 		sxth	sl, r3
 1189              		.loc 1 44 0
 1190 01ce 5846     		mov	r0, fp
 1191 01d0 2B46     		mov	r3, r5
 1192 01d2 FFF7FEFF 		bl	gdispFillCircle
 1193              	.LVL115:
 1194              	.LBE33:
 1195              	.LBE56:
ARM GAS  /tmp/ccd61yKH.s 			page 22


 1196              		.loc 1 175 0
 1197 01d6 A4F83290 		strh	r9, [r4, #50]	@ movhi
 1198              		.loc 1 176 0
 1199 01da DDF80890 		ldr	r9, [sp, #8]
 1200              	.LVL116:
 1201              		.loc 1 177 0
 1202 01de 84F83650 		strb	r5, [r4, #54]
 1203              	.LBB57:
 1204              	.LBB34:
 1205              		.loc 1 42 0
 1206 01e2 5146     		mov	r1, sl
 1207 01e4 1422     		movs	r2, #20
 1208 01e6 2B46     		mov	r3, r5
 1209 01e8 5846     		mov	r0, fp
 1210              	.LBE34:
 1211              	.LBE57:
 1212              		.loc 1 176 0
 1213 01ea A4F83490 		strh	r9, [r4, #52]	@ movhi
 1214              		.loc 1 178 0
 1215 01ee 84F83750 		strb	r5, [r4, #55]
 1216              		.loc 1 179 0
 1217 01f2 2587     		strh	r5, [r4, #56]	@ movhi
 1218              		.loc 1 180 0
 1219 01f4 6587     		strh	r5, [r4, #58]	@ movhi
 1220              		.loc 1 184 0
 1221 01f6 3D71     		strb	r5, [r7, #4]
 1222              	.LVL117:
 1223              	.LBB58:
 1224              	.LBB35:
 1225              		.loc 1 42 0
 1226 01f8 FFF7FEFF 		bl	gdispFillCircle
 1227              	.LVL118:
 1228              		.loc 1 43 0
 1229 01fc 1122     		movs	r2, #17
 1230 01fe 5146     		mov	r1, sl
 1231 0200 5846     		mov	r0, fp
 1232 0202 4FF6FF73 		movw	r3, #65535
 1233 0206 FFF7FEFF 		bl	gdispFillCircle
 1234              	.LVL119:
 1235              		.loc 1 44 0
 1236 020a 5146     		mov	r1, sl
 1237 020c 5846     		mov	r0, fp
 1238 020e 0322     		movs	r2, #3
 1239 0210 2B46     		mov	r3, r5
 1240 0212 FFF7FEFF 		bl	gdispFillCircle
 1241              	.LVL120:
 1242 0216 0398     		ldr	r0, [sp, #12]
 1243              		.loc 1 42 0
 1244 0218 DDF800C0 		ldr	ip, [sp, #0]
 1245              	.LBE35:
 1246              	.LBE58:
 1247              		.loc 1 177 0
 1248 021c 84F84050 		strb	r5, [r4, #64]
 1249 0220 8044     		add	r8, r8, r0
 1250 0222 1FFA88F8 		uxth	r8, r8
 1251              	.LBB59:
 1252              	.LBB36:
ARM GAS  /tmp/ccd61yKH.s 			page 23


 1253              		.loc 1 42 0
 1254 0226 0FFA8CF9 		sxth	r9, ip
 1255 022a 0FFA88FA 		sxth	sl, r8
 1256              	.LBE36:
 1257              	.LBE59:
 1258              		.loc 1 176 0
 1259 022e A4F83EC0 		strh	ip, [r4, #62]	@ movhi
 1260              	.LBB60:
 1261              	.LBB37:
 1262              		.loc 1 42 0
 1263 0232 4946     		mov	r1, r9
 1264 0234 1422     		movs	r2, #20
 1265 0236 2B46     		mov	r3, r5
 1266 0238 5046     		mov	r0, sl
 1267              	.LBE37:
 1268              	.LBE60:
 1269              		.loc 1 175 0
 1270 023a A4F83C80 		strh	r8, [r4, #60]	@ movhi
 1271              		.loc 1 178 0
 1272 023e 84F84150 		strb	r5, [r4, #65]
 1273              		.loc 1 179 0
 1274 0242 A4F84250 		strh	r5, [r4, #66]	@ movhi
 1275              		.loc 1 180 0
 1276 0246 A4F84450 		strh	r5, [r4, #68]	@ movhi
 1277              		.loc 1 184 0
 1278 024a FD71     		strb	r5, [r7, #7]
 1279              	.LVL121:
 1280              	.LBB61:
 1281              	.LBB38:
 1282              		.loc 1 42 0
 1283 024c FFF7FEFF 		bl	gdispFillCircle
 1284              	.LVL122:
 1285              		.loc 1 43 0
 1286 0250 4946     		mov	r1, r9
 1287 0252 5046     		mov	r0, sl
 1288 0254 1122     		movs	r2, #17
 1289 0256 4FF6FF73 		movw	r3, #65535
 1290 025a FFF7FEFF 		bl	gdispFillCircle
 1291              	.LVL123:
 1292              		.loc 1 42 0
 1293 025e 019A     		ldr	r2, [sp, #4]
 1294              		.loc 1 44 0
 1295 0260 4946     		mov	r1, r9
 1296 0262 5046     		mov	r0, sl
 1297              		.loc 1 42 0
 1298 0264 0FFA82F9 		sxth	r9, r2
 1299              		.loc 1 44 0
 1300 0268 2B46     		mov	r3, r5
 1301 026a 0322     		movs	r2, #3
 1302 026c FFF7FEFF 		bl	gdispFillCircle
 1303              	.LVL124:
 1304              	.LBE38:
 1305              	.LBE61:
 1306              		.loc 1 176 0
 1307 0270 DDF804E0 		ldr	lr, [sp, #4]
 1308              		.loc 1 175 0
 1309 0274 A4F84680 		strh	r8, [r4, #70]	@ movhi
ARM GAS  /tmp/ccd61yKH.s 			page 24


 1310              		.loc 1 176 0
 1311 0278 A4F848E0 		strh	lr, [r4, #72]	@ movhi
 1312              	.LBB62:
 1313              	.LBB39:
 1314              		.loc 1 42 0
 1315 027c 4946     		mov	r1, r9
 1316 027e 1422     		movs	r2, #20
 1317 0280 2B46     		mov	r3, r5
 1318 0282 5046     		mov	r0, sl
 1319              	.LBE39:
 1320              	.LBE62:
 1321              		.loc 1 177 0
 1322 0284 84F84A50 		strb	r5, [r4, #74]
 1323              		.loc 1 178 0
 1324 0288 84F84B50 		strb	r5, [r4, #75]
 1325              		.loc 1 179 0
 1326 028c A4F84C50 		strh	r5, [r4, #76]	@ movhi
 1327              		.loc 1 180 0
 1328 0290 A4F84E50 		strh	r5, [r4, #78]	@ movhi
 1329              		.loc 1 184 0
 1330 0294 BD70     		strb	r5, [r7, #2]
 1331              	.LVL125:
 1332              	.LBB63:
 1333              	.LBB40:
 1334              		.loc 1 42 0
 1335 0296 FFF7FEFF 		bl	gdispFillCircle
 1336              	.LVL126:
 1337              		.loc 1 43 0
 1338 029a 4946     		mov	r1, r9
 1339 029c 5046     		mov	r0, sl
 1340 029e 1122     		movs	r2, #17
 1341 02a0 4FF6FF73 		movw	r3, #65535
 1342 02a4 FFF7FEFF 		bl	gdispFillCircle
 1343              	.LVL127:
 1344              		.loc 1 42 0
 1345 02a8 029B     		ldr	r3, [sp, #8]
 1346              		.loc 1 44 0
 1347 02aa 4946     		mov	r1, r9
 1348 02ac 5046     		mov	r0, sl
 1349              		.loc 1 42 0
 1350 02ae 0FFA83F9 		sxth	r9, r3
 1351              		.loc 1 44 0
 1352 02b2 0322     		movs	r2, #3
 1353 02b4 2B46     		mov	r3, r5
 1354 02b6 FFF7FEFF 		bl	gdispFillCircle
 1355              	.LVL128:
 1356              	.LBE40:
 1357              	.LBE63:
 1358              		.loc 1 176 0
 1359 02ba DDF808C0 		ldr	ip, [sp, #8]
 1360              		.loc 1 175 0
 1361 02be A4F85080 		strh	r8, [r4, #80]	@ movhi
 1362              		.loc 1 176 0
 1363 02c2 A4F852C0 		strh	ip, [r4, #82]	@ movhi
 1364              	.LBB64:
 1365              	.LBB41:
 1366              		.loc 1 42 0
ARM GAS  /tmp/ccd61yKH.s 			page 25


 1367 02c6 1422     		movs	r2, #20
 1368 02c8 2B46     		mov	r3, r5
 1369 02ca 5046     		mov	r0, sl
 1370 02cc 4946     		mov	r1, r9
 1371              	.LBE41:
 1372              	.LBE64:
 1373              		.loc 1 177 0
 1374 02ce 84F85450 		strb	r5, [r4, #84]
 1375              		.loc 1 178 0
 1376 02d2 84F85550 		strb	r5, [r4, #85]
 1377              		.loc 1 179 0
 1378 02d6 A4F85650 		strh	r5, [r4, #86]	@ movhi
 1379              		.loc 1 180 0
 1380 02da A4F85850 		strh	r5, [r4, #88]	@ movhi
 1381              		.loc 1 184 0
 1382 02de 7D71     		strb	r5, [r7, #5]
 1383              	.LVL129:
 1384              	.LBB65:
 1385              	.LBB42:
 1386              		.loc 1 42 0
 1387 02e0 FFF7FEFF 		bl	gdispFillCircle
 1388              	.LVL130:
 1389              		.loc 1 43 0
 1390 02e4 5046     		mov	r0, sl
 1391 02e6 4946     		mov	r1, r9
 1392 02e8 1122     		movs	r2, #17
 1393 02ea 4FF6FF73 		movw	r3, #65535
 1394 02ee FFF7FEFF 		bl	gdispFillCircle
 1395              	.LVL131:
 1396              		.loc 1 44 0
 1397 02f2 5046     		mov	r0, sl
 1398 02f4 4946     		mov	r1, r9
 1399 02f6 0322     		movs	r2, #3
 1400 02f8 2B46     		mov	r3, r5
 1401 02fa FFF7FEFF 		bl	gdispFillCircle
 1402              	.LVL132:
 1403              	.LBE42:
 1404              	.LBE65:
 1405              		.loc 1 179 0
 1406 02fe 2E46     		mov	r6, r5	@ movhi
 1407              		.loc 1 184 0
 1408 0300 3D72     		strb	r5, [r7, #8]
 1409              	.LVL133:
 1410              		.loc 1 190 0
 1411 0302 05B0     		add	sp, sp, #20
 1412 0304 BDE8F08F 		pop	{r4, r5, r6, r7, r8, r9, sl, fp, pc}
 1413              	.L59:
 1414              		.align	2
 1415              	.L58:
 1416 0308 00000000 		.word	GDISP
 1417 030c 00000000 		.word	.LANCHOR0
 1418 0310 00000000 		.word	.LANCHOR1
 1419              	.LVL134:
 1420              	.L54:
 1421              		.loc 1 165 0
 1422 0314 B0F10009 		subs	r9, r0, #0
 1423 0318 B8BF     		it	lt
ARM GAS  /tmp/ccd61yKH.s 			page 26


 1424 031a 09F10309 		addlt	r9, r9, #3
 1425 031e C9F38F0B 		ubfx	fp, r9, #2, #16
 1426              	.LVL135:
 1427              		.loc 1 167 0
 1428 0322 4FF6FE71 		movw	r1, 65534	@ movhi
 1429 0326 1BFB0134 		smlabb	r4, fp, r1, r3
 1430 032a 04EBD475 		add	r5, r4, r4, lsr #31
 1431 032e C5F34F0C 		ubfx	ip, r5, #1, #16
 1432              	.LVL136:
 1433              		.loc 1 166 0
 1434 0332 D846     		mov	r8, fp
 1435 0334 81E6     		b	.L56
 1436              		.cfi_endproc
 1437              	.LFE125:
 1438              		.size	resetRings, .-resetRings
 1439 0336 00BFAFF3 		.section	.text.unlocker,"ax",%progbits
 1439      0080AFF3 
 1439      0080
 1440              		.align	2
 1441              		.p2align 4,,15
 1442              		.global	unlocker
 1443              		.thumb
 1444              		.thumb_func
 1445              		.type	unlocker, %function
 1446              	unlocker:
 1447              	.LFB126:
 1448              		.loc 1 196 0
 1449              		.cfi_startproc
 1450              		@ args = 0, pretend = 0, frame = 24
 1451              		@ frame_needed = 0, uses_anonymous_args = 0
 1452              	.LVL137:
 1453 0000 2DE9F04F 		push	{r4, r5, r6, r7, r8, r9, sl, fp, lr}
 1454              	.LCFI6:
 1455              		.cfi_def_cfa_offset 36
 1456              		.cfi_offset 4, -36
 1457              		.cfi_offset 5, -32
 1458              		.cfi_offset 6, -28
 1459              		.cfi_offset 7, -24
 1460              		.cfi_offset 8, -20
 1461              		.cfi_offset 9, -16
 1462              		.cfi_offset 10, -12
 1463              		.cfi_offset 11, -8
 1464              		.cfi_offset 14, -4
 1465 0004 324D     		ldr	r5, .L149
 1466              		.loc 1 258 0
 1467 0006 334C     		ldr	r4, .L149+4
 1468              		.loc 1 226 0
 1469 0008 DFF8CCA0 		ldr	sl, .L149+8
 1470              		.loc 1 196 0
 1471 000c 87B0     		sub	sp, sp, #28
 1472              	.LCFI7:
 1473              		.cfi_def_cfa_offset 64
 1474              		.loc 1 202 0
 1475 000e 4FF0000B 		mov	fp, #0
 1476              		.loc 1 196 0
 1477 0012 0646     		mov	r6, r0
 1478 0014 0491     		str	r1, [sp, #16]
ARM GAS  /tmp/ccd61yKH.s 			page 27


 1479              		.loc 1 200 0
 1480 0016 D946     		mov	r9, fp
 1481              		.loc 1 197 0
 1482 0018 FFF7FEFF 		bl	resetRings
 1483              	.LVL138:
 1484              		.loc 1 205 0
 1485 001c A846     		mov	r8, r5
 1486              		.loc 1 201 0
 1487 001e CDF808B0 		str	fp, [sp, #8]
 1488 0022 CDF80CB0 		str	fp, [sp, #12]
 1489              		.loc 1 200 0
 1490 0026 CDF804B0 		str	fp, [sp, #4]
 1491              	.LVL139:
 1492              	.L139:
 1493              		.loc 1 205 0
 1494 002a 0020     		movs	r0, #0
 1495 002c 2849     		ldr	r1, .L149
 1496 002e FFF7FEFF 		bl	ginputGetMouseStatus
 1497              	.LVL140:
 1498              		.loc 1 208 0
 1499 0032 6B89     		ldrh	r3, [r5, #10]
 1500 0034 DB07     		lsls	r3, r3, #31
 1501 0036 51D4     		bmi	.L62
 1502              		.loc 1 209 0
 1503 0038 B9F1000F 		cmp	r9, #0
 1504 003c F5D0     		beq	.L139
 1505              		.loc 1 209 0 is_stmt 0 discriminator 1
 1506 003e 019A     		ldr	r2, [sp, #4]
 1507 0040 002A     		cmp	r2, #0
 1508 0042 F2D0     		beq	.L139
 1509              	.LVL141:
 1510              		.loc 1 213 0 is_stmt 1
 1511 0044 0499     		ldr	r1, [sp, #16]
 1512 0046 0029     		cmp	r1, #0
 1513 0048 40F0D383 		bne	.L140
 1514              		.loc 1 226 0
 1515 004c 40F20000 		movw	r0, #:lower16:.LANCHOR1
 1516 0050 C0F20000 		movt	r0, #:upper16:.LANCHOR1
 1517 0054 3278     		ldrb	r2, [r6, #0]	@ zero_extendqisi2
 1518 0056 0378     		ldrb	r3, [r0, #0]	@ zero_extendqisi2
 1519 0058 9A42     		cmp	r2, r3
 1520 005a 40F07681 		bne	.L65
 1521              	.LVL142:
 1522 005e 7178     		ldrb	r1, [r6, #1]	@ zero_extendqisi2
 1523 0060 9AF80120 		ldrb	r2, [sl, #1]	@ zero_extendqisi2
 1524 0064 9142     		cmp	r1, r2
 1525 0066 40F07081 		bne	.L65
 1526              	.LVL143:
 1527 006a B178     		ldrb	r1, [r6, #2]	@ zero_extendqisi2
 1528 006c 9AF80230 		ldrb	r3, [sl, #2]	@ zero_extendqisi2
 1529 0070 9942     		cmp	r1, r3
 1530 0072 40F06A81 		bne	.L65
 1531              	.LVL144:
 1532 0076 F278     		ldrb	r2, [r6, #3]	@ zero_extendqisi2
 1533 0078 9AF80310 		ldrb	r1, [sl, #3]	@ zero_extendqisi2
 1534 007c 8A42     		cmp	r2, r1
 1535 007e 40F06481 		bne	.L65
ARM GAS  /tmp/ccd61yKH.s 			page 28


 1536              	.LVL145:
 1537 0082 3279     		ldrb	r2, [r6, #4]	@ zero_extendqisi2
 1538 0084 9AF80430 		ldrb	r3, [sl, #4]	@ zero_extendqisi2
 1539 0088 9A42     		cmp	r2, r3
 1540 008a 40F05E81 		bne	.L65
 1541              	.LVL146:
 1542 008e 7179     		ldrb	r1, [r6, #5]	@ zero_extendqisi2
 1543 0090 9AF80520 		ldrb	r2, [sl, #5]	@ zero_extendqisi2
 1544 0094 9142     		cmp	r1, r2
 1545 0096 40F05881 		bne	.L65
 1546              	.LVL147:
 1547 009a B179     		ldrb	r1, [r6, #6]	@ zero_extendqisi2
 1548 009c 8079     		ldrb	r0, [r0, #6]	@ zero_extendqisi2
 1549 009e 8142     		cmp	r1, r0
 1550 00a0 40F05381 		bne	.L65
 1551              	.LVL148:
 1552 00a4 F279     		ldrb	r2, [r6, #7]	@ zero_extendqisi2
 1553 00a6 9AF80730 		ldrb	r3, [sl, #7]	@ zero_extendqisi2
 1554 00aa 9A42     		cmp	r2, r3
 1555 00ac 40F04D81 		bne	.L65
 1556              	.LVL149:
 1557 00b0 317A     		ldrb	r1, [r6, #8]	@ zero_extendqisi2
 1558 00b2 9AF80800 		ldrb	r0, [sl, #8]	@ zero_extendqisi2
 1559 00b6 8142     		cmp	r1, r0
 1560 00b8 40F04781 		bne	.L65
 1561              	.LVL150:
 1562              		.loc 1 244 0
 1563 00bc FFF7FEFF 		bl	drawRingsOk
 1564              	.LVL151:
 1565              		.loc 1 245 0
 1566 00c0 4FF49660 		mov	r0, #1200
 1567              		.loc 1 287 0
 1568 00c4 07B0     		add	sp, sp, #28
 1569 00c6 BDE8F04F 		pop	{r4, r5, r6, r7, r8, r9, sl, fp, lr}
 1570              		.loc 1 245 0
 1571 00ca FFF7FEBF 		b	gfxSleepMilliseconds
 1572              	.LVL152:
 1573              	.L150:
 1574 00ce 00BF     		.align	2
 1575              	.L149:
 1576 00d0 00000000 		.word	.LANCHOR2
 1577 00d4 00000000 		.word	.LANCHOR0
 1578 00d8 00000000 		.word	.LANCHOR1
 1579              	.LVL153:
 1580              	.L62:
 1581              		.loc 1 258 0
 1582 00dc 2079     		ldrb	r0, [r4, #4]	@ zero_extendqisi2
 1583 00de C94F     		ldr	r7, .L151
 1584 00e0 B0B9     		cbnz	r0, .L68
 1585              		.loc 1 259 0
 1586 00e2 B7F90020 		ldrsh	r2, [r7, #0]
 1587 00e6 B8F90430 		ldrsh	r3, [r8, #4]
 1588 00ea A2F10D01 		sub	r1, r2, #13
 1589 00ee 8B42     		cmp	r3, r1
 1590 00f0 0EDB     		blt	.L68
 1591              		.loc 1 260 0
 1592 00f2 0D32     		adds	r2, r2, #13
ARM GAS  /tmp/ccd61yKH.s 			page 29


 1593 00f4 9A42     		cmp	r2, r3
 1594 00f6 0BDB     		blt	.L68
 1595              		.loc 1 261 0
 1596 00f8 B7F90200 		ldrsh	r0, [r7, #2]
 1597 00fc B8F90620 		ldrsh	r2, [r8, #6]
 1598 0100 A0F10D03 		sub	r3, r0, #13
 1599 0104 9A42     		cmp	r2, r3
 1600 0106 03DB     		blt	.L68
 1601              		.loc 1 262 0
 1602 0108 0D30     		adds	r0, r0, #13
 1603 010a 9042     		cmp	r0, r2
 1604 010c 80F22A83 		bge	.L141
 1605              	.LVL154:
 1606              	.L68:
 1607              		.loc 1 258 0
 1608 0110 A37B     		ldrb	r3, [r4, #14]	@ zero_extendqisi2
 1609 0112 B3B9     		cbnz	r3, .L70
 1610              		.loc 1 259 0
 1611 0114 B4F90A20 		ldrsh	r2, [r4, #10]
 1612 0118 B5F90400 		ldrsh	r0, [r5, #4]
 1613 011c A2F10D01 		sub	r1, r2, #13
 1614 0120 8142     		cmp	r1, r0
 1615 0122 0EDC     		bgt	.L70
 1616              		.loc 1 260 0
 1617 0124 0D32     		adds	r2, r2, #13
 1618 0126 9042     		cmp	r0, r2
 1619 0128 0BDC     		bgt	.L70
 1620              		.loc 1 261 0
 1621 012a B4F90C20 		ldrsh	r2, [r4, #12]
 1622 012e B8F90630 		ldrsh	r3, [r8, #6]
 1623 0132 A2F10D00 		sub	r0, r2, #13
 1624 0136 9842     		cmp	r0, r3
 1625 0138 03DC     		bgt	.L70
 1626              		.loc 1 262 0
 1627 013a 0D32     		adds	r2, r2, #13
 1628 013c 9342     		cmp	r3, r2
 1629 013e 40F3CB82 		ble	.L142
 1630              	.LVL155:
 1631              	.L70:
 1632              		.loc 1 258 0
 1633 0142 217E     		ldrb	r1, [r4, #24]	@ zero_extendqisi2
 1634 0144 B1B9     		cbnz	r1, .L72
 1635              		.loc 1 259 0
 1636 0146 B4F91420 		ldrsh	r2, [r4, #20]
 1637 014a B5F90400 		ldrsh	r0, [r5, #4]
 1638 014e A2F10D03 		sub	r3, r2, #13
 1639 0152 8342     		cmp	r3, r0
 1640 0154 0EDC     		bgt	.L72
 1641              		.loc 1 260 0
 1642 0156 0D32     		adds	r2, r2, #13
 1643 0158 9042     		cmp	r0, r2
 1644 015a 0BDC     		bgt	.L72
 1645              		.loc 1 261 0
 1646 015c B4F91620 		ldrsh	r2, [r4, #22]
 1647 0160 B8F90600 		ldrsh	r0, [r8, #6]
 1648 0164 A2F10D01 		sub	r1, r2, #13
 1649 0168 8142     		cmp	r1, r0
ARM GAS  /tmp/ccd61yKH.s 			page 30


 1650 016a 03DC     		bgt	.L72
 1651              		.loc 1 262 0
 1652 016c 0D32     		adds	r2, r2, #13
 1653 016e 9042     		cmp	r0, r2
 1654 0170 40F36C82 		ble	.L143
 1655              	.LVL156:
 1656              	.L72:
 1657              		.loc 1 258 0
 1658 0174 94F82200 		ldrb	r0, [r4, #34]	@ zero_extendqisi2
 1659 0178 B0B9     		cbnz	r0, .L75
 1660              		.loc 1 259 0
 1661 017a B4F91E20 		ldrsh	r2, [r4, #30]
 1662 017e B5F90430 		ldrsh	r3, [r5, #4]
 1663 0182 A2F10D01 		sub	r1, r2, #13
 1664 0186 9942     		cmp	r1, r3
 1665 0188 0EDC     		bgt	.L75
 1666              		.loc 1 260 0
 1667 018a 0D32     		adds	r2, r2, #13
 1668 018c 9342     		cmp	r3, r2
 1669 018e 0BDC     		bgt	.L75
 1670              		.loc 1 261 0
 1671 0190 B4F92000 		ldrsh	r0, [r4, #32]
 1672 0194 B8F90620 		ldrsh	r2, [r8, #6]
 1673 0198 A0F10D03 		sub	r3, r0, #13
 1674 019c 9342     		cmp	r3, r2
 1675 019e 03DC     		bgt	.L75
 1676              		.loc 1 262 0
 1677 01a0 0D30     		adds	r0, r0, #13
 1678 01a2 8242     		cmp	r2, r0
 1679 01a4 40F30982 		ble	.L144
 1680              	.LVL157:
 1681              	.L75:
 1682              		.loc 1 258 0
 1683 01a8 94F82C20 		ldrb	r2, [r4, #44]	@ zero_extendqisi2
 1684 01ac B2B9     		cbnz	r2, .L77
 1685              		.loc 1 259 0
 1686 01ae B4F92800 		ldrsh	r0, [r4, #40]
 1687 01b2 B5F90430 		ldrsh	r3, [r5, #4]
 1688 01b6 A0F10D01 		sub	r1, r0, #13
 1689 01ba 9942     		cmp	r1, r3
 1690 01bc 0EDC     		bgt	.L77
 1691              		.loc 1 260 0
 1692 01be 0D30     		adds	r0, r0, #13
 1693 01c0 8342     		cmp	r3, r0
 1694 01c2 0BDC     		bgt	.L77
 1695              		.loc 1 261 0
 1696 01c4 B4F92A20 		ldrsh	r2, [r4, #42]
 1697 01c8 B8F90600 		ldrsh	r0, [r8, #6]
 1698 01cc A2F10D03 		sub	r3, r2, #13
 1699 01d0 8342     		cmp	r3, r0
 1700 01d2 03DC     		bgt	.L77
 1701              		.loc 1 262 0
 1702 01d4 0D32     		adds	r2, r2, #13
 1703 01d6 9042     		cmp	r0, r2
 1704 01d8 40F3A781 		ble	.L145
 1705              	.LVL158:
 1706              	.L77:
ARM GAS  /tmp/ccd61yKH.s 			page 31


 1707              		.loc 1 258 0
 1708 01dc 94F83630 		ldrb	r3, [r4, #54]	@ zero_extendqisi2
 1709 01e0 B3B9     		cbnz	r3, .L79
 1710              		.loc 1 259 0
 1711 01e2 B4F93220 		ldrsh	r2, [r4, #50]
 1712 01e6 B5F90400 		ldrsh	r0, [r5, #4]
 1713 01ea A2F10D01 		sub	r1, r2, #13
 1714 01ee 8142     		cmp	r1, r0
 1715 01f0 0EDC     		bgt	.L79
 1716              		.loc 1 260 0
 1717 01f2 0D32     		adds	r2, r2, #13
 1718 01f4 9042     		cmp	r0, r2
 1719 01f6 0BDC     		bgt	.L79
 1720              		.loc 1 261 0
 1721 01f8 B4F93420 		ldrsh	r2, [r4, #52]
 1722 01fc B8F90630 		ldrsh	r3, [r8, #6]
 1723 0200 A2F10D00 		sub	r0, r2, #13
 1724 0204 9842     		cmp	r0, r3
 1725 0206 03DC     		bgt	.L79
 1726              		.loc 1 262 0
 1727 0208 0D32     		adds	r2, r2, #13
 1728 020a 9342     		cmp	r3, r2
 1729 020c 40F34581 		ble	.L146
 1730              	.LVL159:
 1731              	.L79:
 1732              		.loc 1 258 0
 1733 0210 94F84000 		ldrb	r0, [r4, #64]	@ zero_extendqisi2
 1734 0214 B0B9     		cbnz	r0, .L82
 1735              		.loc 1 259 0
 1736 0216 B4F93C20 		ldrsh	r2, [r4, #60]
 1737 021a B5F90430 		ldrsh	r3, [r5, #4]
 1738 021e A2F10D01 		sub	r1, r2, #13
 1739 0222 8B42     		cmp	r3, r1
 1740 0224 0EDB     		blt	.L82
 1741              		.loc 1 260 0
 1742 0226 0D32     		adds	r2, r2, #13
 1743 0228 9A42     		cmp	r2, r3
 1744 022a 0BDB     		blt	.L82
 1745              		.loc 1 261 0
 1746 022c B4F93E00 		ldrsh	r0, [r4, #62]
 1747 0230 B8F90620 		ldrsh	r2, [r8, #6]
 1748 0234 A0F10D03 		sub	r3, r0, #13
 1749 0238 9A42     		cmp	r2, r3
 1750 023a 03DB     		blt	.L82
 1751              		.loc 1 262 0
 1752 023c 0D30     		adds	r0, r0, #13
 1753 023e 9042     		cmp	r0, r2
 1754 0240 80F2E280 		bge	.L147
 1755              	.LVL160:
 1756              	.L82:
 1757              		.loc 1 258 0
 1758 0244 94F84A00 		ldrb	r0, [r4, #74]	@ zero_extendqisi2
 1759 0248 A8B9     		cbnz	r0, .L85
 1760              		.loc 1 259 0
 1761 024a B4F94620 		ldrsh	r2, [r4, #70]
 1762 024e B5F90430 		ldrsh	r3, [r5, #4]
 1763 0252 A2F10D01 		sub	r1, r2, #13
ARM GAS  /tmp/ccd61yKH.s 			page 32


 1764 0256 9942     		cmp	r1, r3
 1765 0258 0DDC     		bgt	.L85
 1766              		.loc 1 260 0
 1767 025a 0D32     		adds	r2, r2, #13
 1768 025c 9342     		cmp	r3, r2
 1769 025e 0ADC     		bgt	.L85
 1770              		.loc 1 261 0
 1771 0260 B4F94800 		ldrsh	r0, [r4, #72]
 1772 0264 B8F90620 		ldrsh	r2, [r8, #6]
 1773 0268 A0F10D03 		sub	r3, r0, #13
 1774 026c 9342     		cmp	r3, r2
 1775 026e 02DC     		bgt	.L85
 1776              		.loc 1 262 0
 1777 0270 0D30     		adds	r0, r0, #13
 1778 0272 8242     		cmp	r2, r0
 1779 0274 7BDD     		ble	.L148
 1780              	.LVL161:
 1781              	.L85:
 1782              		.loc 1 258 0
 1783 0276 94F85400 		ldrb	r0, [r4, #84]	@ zero_extendqisi2
 1784 027a 0028     		cmp	r0, #0
 1785 027c 7FF4D5AE 		bne	.L139
 1786              		.loc 1 259 0
 1787 0280 B4F95020 		ldrsh	r2, [r4, #80]
 1788 0284 B5F90430 		ldrsh	r3, [r5, #4]
 1789 0288 A2F10D01 		sub	r1, r2, #13
 1790 028c 9942     		cmp	r1, r3
 1791 028e 3FF7CCAE 		bgt	.L139
 1792              		.loc 1 260 0
 1793 0292 0D32     		adds	r2, r2, #13
 1794 0294 9342     		cmp	r3, r2
 1795 0296 3FF7C8AE 		bgt	.L139
 1796              		.loc 1 261 0
 1797 029a B4F95200 		ldrsh	r0, [r4, #82]
 1798 029e B8F90620 		ldrsh	r2, [r8, #6]
 1799 02a2 A0F10D03 		sub	r3, r0, #13
 1800 02a6 9342     		cmp	r3, r2
 1801 02a8 3FF7BFAE 		bgt	.L139
 1802              		.loc 1 262 0
 1803 02ac 0D30     		adds	r0, r0, #13
 1804 02ae 8242     		cmp	r2, r0
 1805 02b0 3FF7BBAE 		bgt	.L139
 1806              	.LVL162:
 1807              	.LBB66:
 1808              	.LBB67:
 1809              		.loc 1 49 0
 1810 02b4 B4F950E0 		ldrsh	lr, [r4, #80]
 1811 02b8 B4F95270 		ldrsh	r7, [r4, #82]
 1812 02bc CDF800E0 		str	lr, [sp, #0]
 1813              	.LBE67:
 1814              	.LBE66:
 1815              		.loc 1 264 0
 1816 02c0 0121     		movs	r1, #1
 1817              	.LBB93:
 1818              	.LBB68:
 1819              		.loc 1 49 0
 1820 02c2 7046     		mov	r0, lr
ARM GAS  /tmp/ccd61yKH.s 			page 33


 1821              	.LBE68:
 1822              	.LBE93:
 1823              		.loc 1 264 0
 1824 02c4 84F85410 		strb	r1, [r4, #84]
 1825              	.LBB94:
 1826              	.LBB69:
 1827              		.loc 1 49 0
 1828 02c8 1422     		movs	r2, #20
 1829 02ca 4FF6E073 		movw	r3, #65504
 1830 02ce 3946     		mov	r1, r7
 1831 02d0 FFF7FEFF 		bl	gdispFillCircle
 1832              	.LVL163:
 1833              		.loc 1 50 0
 1834 02d4 DDF800C0 		ldr	ip, [sp, #0]
 1835 02d8 3946     		mov	r1, r7
 1836 02da 6046     		mov	r0, ip
 1837 02dc 1122     		movs	r2, #17
 1838 02de 4FF6FF73 		movw	r3, #65535
 1839 02e2 FFF7FEFF 		bl	gdispFillCircle
 1840              	.LVL164:
 1841              		.loc 1 51 0
 1842 02e6 DDF800C0 		ldr	ip, [sp, #0]
 1843 02ea 3946     		mov	r1, r7
 1844 02ec 6046     		mov	r0, ip
 1845 02ee 0322     		movs	r2, #3
 1846 02f0 4FF6E073 		movw	r3, #65504
 1847 02f4 FFF7FEFF 		bl	gdispFillCircle
 1848              	.LVL165:
 1849              	.LBE69:
 1850              	.LBE94:
 1851              		.loc 1 268 0
 1852 02f8 B9F1000F 		cmp	r9, #0
 1853 02fc 10D0     		beq	.L67
 1854              		.loc 1 268 0 is_stmt 0 discriminator 1
 1855 02fe 0198     		ldr	r0, [sp, #4]
 1856 0300 70B1     		cbz	r0, .L67
 1857              		.loc 1 271 0 is_stmt 1
 1858 0302 039A     		ldr	r2, [sp, #12]
 1859 0304 029B     		ldr	r3, [sp, #8]
 1860              		.loc 1 269 0
 1861 0306 A4F85690 		strh	r9, [r4, #86]	@ movhi
 1862              		.loc 1 271 0
 1863 030a 511C     		adds	r1, r2, #1
 1864 030c 03EB4300 		add	r0, r3, r3, lsl #1
 1865 0310 0A18     		adds	r2, r1, r0
 1866              		.loc 1 270 0
 1867 0312 0199     		ldr	r1, [sp, #4]
 1868              		.loc 1 271 0
 1869 0314 84F85520 		strb	r2, [r4, #85]
 1870              		.loc 1 270 0
 1871 0318 A4F85810 		strh	r1, [r4, #88]	@ movhi
 1872              		.loc 1 272 0
 1873 031c FFF7FEFF 		bl	redrawLines
 1874              	.LVL166:
 1875              	.L67:
 1876              		.loc 1 279 0
 1877 0320 40F20001 		movw	r1, #:lower16:.LANCHOR1
ARM GAS  /tmp/ccd61yKH.s 			page 34


 1878 0324 0220     		movs	r0, #2
 1879 0326 C0F20001 		movt	r1, #:upper16:.LANCHOR1
 1880 032a 0BF10103 		add	r3, fp, #1
 1881 032e 0290     		str	r0, [sp, #8]
 1882 0330 0922     		movs	r2, #9
 1883              		.loc 1 275 0
 1884 0332 B4F85200 		ldrh	r0, [r4, #82]
 1885              		.loc 1 279 0
 1886 0336 01F80B20 		strb	r2, [r1, fp]
 1887 033a 5FFA83FB 		uxtb	fp, r3
 1888              	.LVL167:
 1889 033e 0223     		movs	r3, #2
 1890              	.LVL168:
 1891              		.loc 1 274 0
 1892 0340 B4F85090 		ldrh	r9, [r4, #80]
 1893              	.LVL169:
 1894              		.loc 1 275 0
 1895 0344 0190     		str	r0, [sp, #4]
 1896              	.LVL170:
 1897              		.loc 1 279 0
 1898 0346 0393     		str	r3, [sp, #12]
 1899 0348 6FE6     		b	.L139
 1900              	.LVL171:
 1901              	.L65:
 1902              		.loc 1 240 0
 1903 034a 4FF0000B 		mov	fp, #0
 1904              	.LVL172:
 1905              		.loc 1 234 0
 1906 034e FFF7FEFF 		bl	drawRingsError
 1907              	.LVL173:
 1908              		.loc 1 235 0
 1909 0352 4FF49660 		mov	r0, #1200
 1910 0356 FFF7FEFF 		bl	gfxSleepMilliseconds
 1911              	.LVL174:
 1912              		.loc 1 236 0
 1913 035a D946     		mov	r9, fp
 1914              		.loc 1 239 0
 1915 035c CDF808B0 		str	fp, [sp, #8]
 1916              		.loc 1 241 0
 1917 0360 FFF7FEFF 		bl	resetRings
 1918              	.LVL175:
 1919              		.loc 1 238 0
 1920 0364 CDF80CB0 		str	fp, [sp, #12]
 1921              		.loc 1 237 0
 1922 0368 CDF804B0 		str	fp, [sp, #4]
 1923              		.loc 1 242 0
 1924 036c 5DE6     		b	.L139
 1925              	.LVL176:
 1926              	.L148:
 1927              	.LBB95:
 1928              	.LBB70:
 1929              		.loc 1 49 0
 1930 036e B4F946E0 		ldrsh	lr, [r4, #70]
 1931 0372 B4F94870 		ldrsh	r7, [r4, #72]
 1932 0376 CDF800E0 		str	lr, [sp, #0]
 1933              	.LBE70:
 1934              	.LBE95:
ARM GAS  /tmp/ccd61yKH.s 			page 35


 1935              		.loc 1 264 0
 1936 037a 0121     		movs	r1, #1
 1937              	.LBB96:
 1938              	.LBB71:
 1939              		.loc 1 49 0
 1940 037c 7046     		mov	r0, lr
 1941              	.LBE71:
 1942              	.LBE96:
 1943              		.loc 1 264 0
 1944 037e 84F84A10 		strb	r1, [r4, #74]
 1945              	.LBB97:
 1946              	.LBB72:
 1947              		.loc 1 49 0
 1948 0382 1422     		movs	r2, #20
 1949 0384 4FF6E073 		movw	r3, #65504
 1950 0388 3946     		mov	r1, r7
 1951 038a FFF7FEFF 		bl	gdispFillCircle
 1952              	.LVL177:
 1953              		.loc 1 50 0
 1954 038e DDF800C0 		ldr	ip, [sp, #0]
 1955 0392 3946     		mov	r1, r7
 1956 0394 6046     		mov	r0, ip
 1957 0396 1122     		movs	r2, #17
 1958 0398 4FF6FF73 		movw	r3, #65535
 1959 039c FFF7FEFF 		bl	gdispFillCircle
 1960              	.LVL178:
 1961              		.loc 1 51 0
 1962 03a0 DDF800C0 		ldr	ip, [sp, #0]
 1963 03a4 3946     		mov	r1, r7
 1964 03a6 6046     		mov	r0, ip
 1965 03a8 0322     		movs	r2, #3
 1966 03aa 4FF6E073 		movw	r3, #65504
 1967 03ae FFF7FEFF 		bl	gdispFillCircle
 1968              	.LVL179:
 1969              	.LBE72:
 1970              	.LBE97:
 1971              		.loc 1 268 0
 1972 03b2 B9F1000F 		cmp	r9, #0
 1973 03b6 0FD0     		beq	.L87
 1974 03b8 0198     		ldr	r0, [sp, #4]
 1975 03ba 68B1     		cbz	r0, .L87
 1976              		.loc 1 271 0
 1977 03bc 039A     		ldr	r2, [sp, #12]
 1978 03be 029B     		ldr	r3, [sp, #8]
 1979              		.loc 1 269 0
 1980 03c0 A4F84C90 		strh	r9, [r4, #76]	@ movhi
 1981              		.loc 1 271 0
 1982 03c4 0132     		adds	r2, r2, #1
 1983 03c6 03EB4301 		add	r1, r3, r3, lsl #1
 1984 03ca 5218     		adds	r2, r2, r1
 1985              		.loc 1 270 0
 1986 03cc A4F84E00 		strh	r0, [r4, #78]	@ movhi
 1987              		.loc 1 271 0
 1988 03d0 84F84B20 		strb	r2, [r4, #75]
 1989              		.loc 1 272 0
 1990 03d4 FFF7FEFF 		bl	redrawLines
 1991              	.LVL180:
ARM GAS  /tmp/ccd61yKH.s 			page 36


 1992              	.L87:
 1993              		.loc 1 279 0
 1994 03d8 40F20000 		movw	r0, #:lower16:.LANCHOR1
 1995 03dc C0F20000 		movt	r0, #:upper16:.LANCHOR1
 1996 03e0 0BF10103 		add	r3, fp, #1
 1997 03e4 0621     		movs	r1, #6
 1998              		.loc 1 275 0
 1999 03e6 B4F84820 		ldrh	r2, [r4, #72]
 2000              		.loc 1 279 0
 2001 03ea 00F80B10 		strb	r1, [r0, fp]
 2002 03ee 5FFA83FB 		uxtb	fp, r3
 2003              	.LVL181:
 2004 03f2 0221     		movs	r1, #2
 2005              		.loc 1 281 0
 2006 03f4 0123     		movs	r3, #1
 2007              	.LVL182:
 2008              		.loc 1 274 0
 2009 03f6 B4F84690 		ldrh	r9, [r4, #70]
 2010              	.LVL183:
 2011              		.loc 1 275 0
 2012 03fa 0192     		str	r2, [sp, #4]
 2013              	.LVL184:
 2014              		.loc 1 281 0
 2015 03fc 0293     		str	r3, [sp, #8]
 2016              		.loc 1 279 0
 2017 03fe 0391     		str	r1, [sp, #12]
 2018 0400 39E7     		b	.L85
 2019              	.L152:
 2020 0402 00BF     		.align	2
 2021              	.L151:
 2022 0404 00000000 		.word	.LANCHOR0
 2023              	.LVL185:
 2024              	.L147:
 2025              	.LBB98:
 2026              	.LBB73:
 2027              		.loc 1 49 0
 2028 0408 B4F93CE0 		ldrsh	lr, [r4, #60]
 2029 040c B4F93E70 		ldrsh	r7, [r4, #62]
 2030 0410 CDF800E0 		str	lr, [sp, #0]
 2031              	.LBE73:
 2032              	.LBE98:
 2033              		.loc 1 264 0
 2034 0414 0121     		movs	r1, #1
 2035              	.LBB99:
 2036              	.LBB74:
 2037              		.loc 1 49 0
 2038 0416 7046     		mov	r0, lr
 2039              	.LBE74:
 2040              	.LBE99:
 2041              		.loc 1 264 0
 2042 0418 84F84010 		strb	r1, [r4, #64]
 2043              	.LBB100:
 2044              	.LBB75:
 2045              		.loc 1 49 0
 2046 041c 1422     		movs	r2, #20
 2047 041e 4FF6E073 		movw	r3, #65504
 2048 0422 3946     		mov	r1, r7
ARM GAS  /tmp/ccd61yKH.s 			page 37


 2049 0424 FFF7FEFF 		bl	gdispFillCircle
 2050              	.LVL186:
 2051              		.loc 1 50 0
 2052 0428 DDF800C0 		ldr	ip, [sp, #0]
 2053 042c 3946     		mov	r1, r7
 2054 042e 6046     		mov	r0, ip
 2055 0430 1122     		movs	r2, #17
 2056 0432 4FF6FF73 		movw	r3, #65535
 2057 0436 FFF7FEFF 		bl	gdispFillCircle
 2058              	.LVL187:
 2059              		.loc 1 51 0
 2060 043a DDF800C0 		ldr	ip, [sp, #0]
 2061 043e 3946     		mov	r1, r7
 2062 0440 6046     		mov	r0, ip
 2063 0442 0322     		movs	r2, #3
 2064 0444 4FF6E073 		movw	r3, #65504
 2065 0448 FFF7FEFF 		bl	gdispFillCircle
 2066              	.LVL188:
 2067              	.LBE75:
 2068              	.LBE100:
 2069              		.loc 1 268 0
 2070 044c B9F1000F 		cmp	r9, #0
 2071 0450 0FD0     		beq	.L84
 2072 0452 0198     		ldr	r0, [sp, #4]
 2073 0454 68B1     		cbz	r0, .L84
 2074              		.loc 1 271 0
 2075 0456 039A     		ldr	r2, [sp, #12]
 2076 0458 029B     		ldr	r3, [sp, #8]
 2077              		.loc 1 269 0
 2078 045a A4F84290 		strh	r9, [r4, #66]	@ movhi
 2079              		.loc 1 271 0
 2080 045e 0132     		adds	r2, r2, #1
 2081 0460 03EB4301 		add	r1, r3, r3, lsl #1
 2082 0464 5218     		adds	r2, r2, r1
 2083              		.loc 1 270 0
 2084 0466 A4F84400 		strh	r0, [r4, #68]	@ movhi
 2085              		.loc 1 271 0
 2086 046a 84F84120 		strb	r2, [r4, #65]
 2087              		.loc 1 272 0
 2088 046e FFF7FEFF 		bl	redrawLines
 2089              	.LVL189:
 2090              	.L84:
 2091              		.loc 1 279 0
 2092 0472 40F20000 		movw	r0, #:lower16:.LANCHOR1
 2093 0476 C0F20000 		movt	r0, #:upper16:.LANCHOR1
 2094 047a 0BF10103 		add	r3, fp, #1
 2095 047e 0321     		movs	r1, #3
 2096              		.loc 1 275 0
 2097 0480 E28F     		ldrh	r2, [r4, #62]
 2098              		.loc 1 279 0
 2099 0482 00F80B10 		strb	r1, [r0, fp]
 2100 0486 5FFA83FB 		uxtb	fp, r3
 2101              	.LVL190:
 2102 048a 0221     		movs	r1, #2
 2103 048c 0023     		movs	r3, #0
 2104              	.LVL191:
 2105              		.loc 1 274 0
ARM GAS  /tmp/ccd61yKH.s 			page 38


 2106 048e B4F83C90 		ldrh	r9, [r4, #60]
 2107              	.LVL192:
 2108              		.loc 1 275 0
 2109 0492 0192     		str	r2, [sp, #4]
 2110              	.LVL193:
 2111              		.loc 1 279 0
 2112 0494 0293     		str	r3, [sp, #8]
 2113 0496 0391     		str	r1, [sp, #12]
 2114 0498 D4E6     		b	.L82
 2115              	.LVL194:
 2116              	.L146:
 2117              	.LBB101:
 2118              	.LBB76:
 2119              		.loc 1 49 0
 2120 049a B4F932E0 		ldrsh	lr, [r4, #50]
 2121 049e B4F93470 		ldrsh	r7, [r4, #52]
 2122 04a2 CDF800E0 		str	lr, [sp, #0]
 2123              	.LBE76:
 2124              	.LBE101:
 2125              		.loc 1 264 0
 2126 04a6 0121     		movs	r1, #1
 2127              	.LBB102:
 2128              	.LBB77:
 2129              		.loc 1 49 0
 2130 04a8 7046     		mov	r0, lr
 2131              	.LBE77:
 2132              	.LBE102:
 2133              		.loc 1 264 0
 2134 04aa 84F83610 		strb	r1, [r4, #54]
 2135              	.LBB103:
 2136              	.LBB78:
 2137              		.loc 1 49 0
 2138 04ae 1422     		movs	r2, #20
 2139 04b0 4FF6E073 		movw	r3, #65504
 2140 04b4 3946     		mov	r1, r7
 2141 04b6 FFF7FEFF 		bl	gdispFillCircle
 2142              	.LVL195:
 2143              		.loc 1 50 0
 2144 04ba DDF800C0 		ldr	ip, [sp, #0]
 2145 04be 3946     		mov	r1, r7
 2146 04c0 6046     		mov	r0, ip
 2147 04c2 1122     		movs	r2, #17
 2148 04c4 4FF6FF73 		movw	r3, #65535
 2149 04c8 FFF7FEFF 		bl	gdispFillCircle
 2150              	.LVL196:
 2151              		.loc 1 51 0
 2152 04cc DDF800C0 		ldr	ip, [sp, #0]
 2153 04d0 3946     		mov	r1, r7
 2154 04d2 6046     		mov	r0, ip
 2155 04d4 0322     		movs	r2, #3
 2156 04d6 4FF6E073 		movw	r3, #65504
 2157 04da FFF7FEFF 		bl	gdispFillCircle
 2158              	.LVL197:
 2159              	.LBE78:
 2160              	.LBE103:
 2161              		.loc 1 268 0
 2162 04de B9F1000F 		cmp	r9, #0
ARM GAS  /tmp/ccd61yKH.s 			page 39


 2163 04e2 0ED0     		beq	.L81
 2164 04e4 0198     		ldr	r0, [sp, #4]
 2165 04e6 60B1     		cbz	r0, .L81
 2166              		.loc 1 271 0
 2167 04e8 039A     		ldr	r2, [sp, #12]
 2168 04ea 029B     		ldr	r3, [sp, #8]
 2169              		.loc 1 269 0
 2170 04ec A4F83890 		strh	r9, [r4, #56]	@ movhi
 2171              		.loc 1 271 0
 2172 04f0 0132     		adds	r2, r2, #1
 2173 04f2 03EB4301 		add	r1, r3, r3, lsl #1
 2174 04f6 5218     		adds	r2, r2, r1
 2175              		.loc 1 270 0
 2176 04f8 6087     		strh	r0, [r4, #58]	@ movhi
 2177              		.loc 1 271 0
 2178 04fa 84F83720 		strb	r2, [r4, #55]
 2179              		.loc 1 272 0
 2180 04fe FFF7FEFF 		bl	redrawLines
 2181              	.LVL198:
 2182              	.L81:
 2183              		.loc 1 279 0
 2184 0502 40F20000 		movw	r0, #:lower16:.LANCHOR1
 2185 0506 C0F20000 		movt	r0, #:upper16:.LANCHOR1
 2186 050a 0BF10103 		add	r3, fp, #1
 2187 050e 0821     		movs	r1, #8
 2188              		.loc 1 275 0
 2189 0510 A28E     		ldrh	r2, [r4, #52]
 2190              		.loc 1 279 0
 2191 0512 00F80B10 		strb	r1, [r0, fp]
 2192 0516 5FFA83FB 		uxtb	fp, r3
 2193              	.LVL199:
 2194 051a 0121     		movs	r1, #1
 2195 051c 0223     		movs	r3, #2
 2196              	.LVL200:
 2197              		.loc 1 274 0
 2198 051e B4F83290 		ldrh	r9, [r4, #50]
 2199              	.LVL201:
 2200              		.loc 1 275 0
 2201 0522 0192     		str	r2, [sp, #4]
 2202              	.LVL202:
 2203              		.loc 1 279 0
 2204 0524 0293     		str	r3, [sp, #8]
 2205 0526 0391     		str	r1, [sp, #12]
 2206 0528 72E6     		b	.L79
 2207              	.LVL203:
 2208              	.L145:
 2209              	.LBB104:
 2210              	.LBB79:
 2211              		.loc 1 49 0
 2212 052a B4F928E0 		ldrsh	lr, [r4, #40]
 2213 052e B4F92A70 		ldrsh	r7, [r4, #42]
 2214 0532 CDF800E0 		str	lr, [sp, #0]
 2215              	.LBE79:
 2216              	.LBE104:
 2217              		.loc 1 264 0
 2218 0536 0121     		movs	r1, #1
 2219              	.LBB105:
ARM GAS  /tmp/ccd61yKH.s 			page 40


 2220              	.LBB80:
 2221              		.loc 1 49 0
 2222 0538 7046     		mov	r0, lr
 2223              	.LBE80:
 2224              	.LBE105:
 2225              		.loc 1 264 0
 2226 053a 84F82C10 		strb	r1, [r4, #44]
 2227              	.LBB106:
 2228              	.LBB81:
 2229              		.loc 1 49 0
 2230 053e 1422     		movs	r2, #20
 2231 0540 4FF6E073 		movw	r3, #65504
 2232 0544 3946     		mov	r1, r7
 2233 0546 FFF7FEFF 		bl	gdispFillCircle
 2234              	.LVL204:
 2235              		.loc 1 50 0
 2236 054a DDF800C0 		ldr	ip, [sp, #0]
 2237 054e 3946     		mov	r1, r7
 2238 0550 6046     		mov	r0, ip
 2239 0552 1122     		movs	r2, #17
 2240 0554 4FF6FF73 		movw	r3, #65535
 2241 0558 FFF7FEFF 		bl	gdispFillCircle
 2242              	.LVL205:
 2243              		.loc 1 51 0
 2244 055c DDF800C0 		ldr	ip, [sp, #0]
 2245 0560 3946     		mov	r1, r7
 2246 0562 6046     		mov	r0, ip
 2247 0564 0322     		movs	r2, #3
 2248 0566 4FF6E073 		movw	r3, #65504
 2249 056a FFF7FEFF 		bl	gdispFillCircle
 2250              	.LVL206:
 2251              	.LBE81:
 2252              	.LBE106:
 2253              		.loc 1 268 0
 2254 056e B9F1000F 		cmp	r9, #0
 2255 0572 0ED0     		beq	.L78
 2256 0574 0198     		ldr	r0, [sp, #4]
 2257 0576 60B1     		cbz	r0, .L78
 2258              		.loc 1 271 0
 2259 0578 039A     		ldr	r2, [sp, #12]
 2260 057a 029B     		ldr	r3, [sp, #8]
 2261              		.loc 1 269 0
 2262 057c A4F82E90 		strh	r9, [r4, #46]	@ movhi
 2263              		.loc 1 271 0
 2264 0580 0132     		adds	r2, r2, #1
 2265 0582 03EB4301 		add	r1, r3, r3, lsl #1
 2266 0586 5218     		adds	r2, r2, r1
 2267              		.loc 1 270 0
 2268 0588 2086     		strh	r0, [r4, #48]	@ movhi
 2269              		.loc 1 271 0
 2270 058a 84F82D20 		strb	r2, [r4, #45]
 2271              		.loc 1 272 0
 2272 058e FFF7FEFF 		bl	redrawLines
 2273              	.LVL207:
 2274              	.L78:
 2275              		.loc 1 281 0
 2276 0592 0120     		movs	r0, #1
ARM GAS  /tmp/ccd61yKH.s 			page 41


 2277              		.loc 1 275 0
 2278 0594 618D     		ldrh	r1, [r4, #42]
 2279              		.loc 1 281 0
 2280 0596 0290     		str	r0, [sp, #8]
 2281              		.loc 1 279 0
 2282 0598 40F20000 		movw	r0, #:lower16:.LANCHOR1
 2283 059c C0F20000 		movt	r0, #:upper16:.LANCHOR1
 2284 05a0 0BF10103 		add	r3, fp, #1
 2285              		.loc 1 275 0
 2286 05a4 0191     		str	r1, [sp, #4]
 2287              		.loc 1 279 0
 2288 05a6 0522     		movs	r2, #5
 2289 05a8 0121     		movs	r1, #1
 2290 05aa 00F80B20 		strb	r2, [r0, fp]
 2291              		.loc 1 274 0
 2292 05ae B4F82890 		ldrh	r9, [r4, #40]
 2293              	.LVL208:
 2294              		.loc 1 279 0
 2295 05b2 0391     		str	r1, [sp, #12]
 2296 05b4 5FFA83FB 		uxtb	fp, r3
 2297              	.LVL209:
 2298 05b8 10E6     		b	.L77
 2299              	.LVL210:
 2300              	.L144:
 2301              	.LBB107:
 2302              	.LBB82:
 2303              		.loc 1 49 0
 2304 05ba B4F91EE0 		ldrsh	lr, [r4, #30]
 2305 05be B4F92070 		ldrsh	r7, [r4, #32]
 2306 05c2 CDF800E0 		str	lr, [sp, #0]
 2307              	.LBE82:
 2308              	.LBE107:
 2309              		.loc 1 264 0
 2310 05c6 0121     		movs	r1, #1
 2311              	.LBB108:
 2312              	.LBB83:
 2313              		.loc 1 49 0
 2314 05c8 7046     		mov	r0, lr
 2315              	.LBE83:
 2316              	.LBE108:
 2317              		.loc 1 264 0
 2318 05ca 84F82210 		strb	r1, [r4, #34]
 2319              	.LBB109:
 2320              	.LBB84:
 2321              		.loc 1 49 0
 2322 05ce 1422     		movs	r2, #20
 2323 05d0 4FF6E073 		movw	r3, #65504
 2324 05d4 3946     		mov	r1, r7
 2325 05d6 FFF7FEFF 		bl	gdispFillCircle
 2326              	.LVL211:
 2327              		.loc 1 50 0
 2328 05da DDF800C0 		ldr	ip, [sp, #0]
 2329 05de 3946     		mov	r1, r7
 2330 05e0 6046     		mov	r0, ip
 2331 05e2 1122     		movs	r2, #17
 2332 05e4 4FF6FF73 		movw	r3, #65535
 2333 05e8 FFF7FEFF 		bl	gdispFillCircle
ARM GAS  /tmp/ccd61yKH.s 			page 42


 2334              	.LVL212:
 2335              		.loc 1 51 0
 2336 05ec DDF800C0 		ldr	ip, [sp, #0]
 2337 05f0 3946     		mov	r1, r7
 2338 05f2 6046     		mov	r0, ip
 2339 05f4 0322     		movs	r2, #3
 2340 05f6 4FF6E073 		movw	r3, #65504
 2341 05fa FFF7FEFF 		bl	gdispFillCircle
 2342              	.LVL213:
 2343              	.LBE84:
 2344              	.LBE109:
 2345              		.loc 1 268 0
 2346 05fe B9F1000F 		cmp	r9, #0
 2347 0602 0FD0     		beq	.L76
 2348 0604 0198     		ldr	r0, [sp, #4]
 2349 0606 68B1     		cbz	r0, .L76
 2350              		.loc 1 271 0
 2351 0608 039A     		ldr	r2, [sp, #12]
 2352 060a 029B     		ldr	r3, [sp, #8]
 2353              		.loc 1 269 0
 2354 060c A4F82490 		strh	r9, [r4, #36]	@ movhi
 2355              		.loc 1 271 0
 2356 0610 511C     		adds	r1, r2, #1
 2357 0612 03EB4300 		add	r0, r3, r3, lsl #1
 2358 0616 0A18     		adds	r2, r1, r0
 2359              		.loc 1 270 0
 2360 0618 0199     		ldr	r1, [sp, #4]
 2361              		.loc 1 271 0
 2362 061a 84F82320 		strb	r2, [r4, #35]
 2363              		.loc 1 270 0
 2364 061e E184     		strh	r1, [r4, #38]	@ movhi
 2365              		.loc 1 272 0
 2366 0620 FFF7FEFF 		bl	redrawLines
 2367              	.LVL214:
 2368              	.L76:
 2369              		.loc 1 279 0
 2370 0624 40F20001 		movw	r1, #:lower16:.LANCHOR1
 2371              		.loc 1 275 0
 2372 0628 208C     		ldrh	r0, [r4, #32]
 2373              		.loc 1 274 0
 2374 062a B4F81E90 		ldrh	r9, [r4, #30]
 2375              	.LVL215:
 2376              		.loc 1 275 0
 2377 062e 0190     		str	r0, [sp, #4]
 2378              	.LVL216:
 2379              		.loc 1 279 0
 2380 0630 C0F20001 		movt	r1, #:upper16:.LANCHOR1
 2381 0634 0BF10103 		add	r3, fp, #1
 2382 0638 0222     		movs	r2, #2
 2383 063a 01F80B20 		strb	r2, [r1, fp]
 2384 063e 0020     		movs	r0, #0
 2385 0640 5FFA83FB 		uxtb	fp, r3
 2386              	.LVL217:
 2387 0644 0123     		movs	r3, #1
 2388              	.LVL218:
 2389 0646 0290     		str	r0, [sp, #8]
 2390 0648 0393     		str	r3, [sp, #12]
ARM GAS  /tmp/ccd61yKH.s 			page 43


 2391 064a ADE5     		b	.L75
 2392              	.LVL219:
 2393              	.L143:
 2394              	.LBB110:
 2395              	.LBB85:
 2396              		.loc 1 49 0
 2397 064c B4F914E0 		ldrsh	lr, [r4, #20]
 2398 0650 B4F91670 		ldrsh	r7, [r4, #22]
 2399 0654 CDF800E0 		str	lr, [sp, #0]
 2400              	.LBE85:
 2401              	.LBE110:
 2402              		.loc 1 264 0
 2403 0658 0123     		movs	r3, #1
 2404              	.LBB111:
 2405              	.LBB86:
 2406              		.loc 1 49 0
 2407 065a 7046     		mov	r0, lr
 2408              	.LBE86:
 2409              	.LBE111:
 2410              		.loc 1 264 0
 2411 065c 2376     		strb	r3, [r4, #24]
 2412              	.LBB112:
 2413              	.LBB87:
 2414              		.loc 1 49 0
 2415 065e 1422     		movs	r2, #20
 2416 0660 4FF6E073 		movw	r3, #65504
 2417 0664 3946     		mov	r1, r7
 2418 0666 FFF7FEFF 		bl	gdispFillCircle
 2419              	.LVL220:
 2420              		.loc 1 50 0
 2421 066a DDF800C0 		ldr	ip, [sp, #0]
 2422 066e 3946     		mov	r1, r7
 2423 0670 6046     		mov	r0, ip
 2424 0672 1122     		movs	r2, #17
 2425 0674 4FF6FF73 		movw	r3, #65535
 2426 0678 FFF7FEFF 		bl	gdispFillCircle
 2427              	.LVL221:
 2428              		.loc 1 51 0
 2429 067c DDF800C0 		ldr	ip, [sp, #0]
 2430 0680 3946     		mov	r1, r7
 2431 0682 6046     		mov	r0, ip
 2432 0684 0322     		movs	r2, #3
 2433 0686 4FF6E073 		movw	r3, #65504
 2434 068a FFF7FEFF 		bl	gdispFillCircle
 2435              	.LVL222:
 2436              	.LBE87:
 2437              	.LBE112:
 2438              		.loc 1 268 0
 2439 068e B9F1000F 		cmp	r9, #0
 2440 0692 0DD0     		beq	.L74
 2441 0694 0198     		ldr	r0, [sp, #4]
 2442 0696 58B1     		cbz	r0, .L74
 2443              		.loc 1 271 0
 2444 0698 039A     		ldr	r2, [sp, #12]
 2445 069a 0299     		ldr	r1, [sp, #8]
 2446              		.loc 1 269 0
 2447 069c A4F81A90 		strh	r9, [r4, #26]	@ movhi
ARM GAS  /tmp/ccd61yKH.s 			page 44


 2448              		.loc 1 271 0
 2449 06a0 0132     		adds	r2, r2, #1
 2450 06a2 01EB4103 		add	r3, r1, r1, lsl #1
 2451 06a6 D218     		adds	r2, r2, r3
 2452              		.loc 1 270 0
 2453 06a8 A083     		strh	r0, [r4, #28]	@ movhi
 2454              		.loc 1 271 0
 2455 06aa 6276     		strb	r2, [r4, #25]
 2456              		.loc 1 272 0
 2457 06ac FFF7FEFF 		bl	redrawLines
 2458              	.LVL223:
 2459              	.L74:
 2460              		.loc 1 279 0
 2461 06b0 40F20000 		movw	r0, #:lower16:.LANCHOR1
 2462 06b4 C0F20000 		movt	r0, #:upper16:.LANCHOR1
 2463 06b8 0BF10103 		add	r3, fp, #1
 2464 06bc 0721     		movs	r1, #7
 2465              		.loc 1 275 0
 2466 06be E28A     		ldrh	r2, [r4, #22]
 2467              		.loc 1 279 0
 2468 06c0 00F80B10 		strb	r1, [r0, fp]
 2469 06c4 5FFA83FB 		uxtb	fp, r3
 2470              	.LVL224:
 2471 06c8 0021     		movs	r1, #0
 2472 06ca 0223     		movs	r3, #2
 2473              	.LVL225:
 2474              		.loc 1 274 0
 2475 06cc B4F81490 		ldrh	r9, [r4, #20]
 2476              	.LVL226:
 2477              		.loc 1 275 0
 2478 06d0 0192     		str	r2, [sp, #4]
 2479              	.LVL227:
 2480              		.loc 1 279 0
 2481 06d2 0293     		str	r3, [sp, #8]
 2482 06d4 0391     		str	r1, [sp, #12]
 2483 06d6 4DE5     		b	.L72
 2484              	.LVL228:
 2485              	.L142:
 2486              	.LBB113:
 2487              	.LBB88:
 2488              		.loc 1 49 0
 2489 06d8 B4F90AE0 		ldrsh	lr, [r4, #10]
 2490 06dc B4F90C70 		ldrsh	r7, [r4, #12]
 2491 06e0 CDF800E0 		str	lr, [sp, #0]
 2492              	.LBE88:
 2493              	.LBE113:
 2494              		.loc 1 264 0
 2495 06e4 0121     		movs	r1, #1
 2496              	.LBB114:
 2497              	.LBB89:
 2498              		.loc 1 49 0
 2499 06e6 7046     		mov	r0, lr
 2500              	.LBE89:
 2501              	.LBE114:
 2502              		.loc 1 264 0
 2503 06e8 A173     		strb	r1, [r4, #14]
 2504              	.LBB115:
ARM GAS  /tmp/ccd61yKH.s 			page 45


 2505              	.LBB90:
 2506              		.loc 1 49 0
 2507 06ea 1422     		movs	r2, #20
 2508 06ec 4FF6E073 		movw	r3, #65504
 2509 06f0 3946     		mov	r1, r7
 2510 06f2 FFF7FEFF 		bl	gdispFillCircle
 2511              	.LVL229:
 2512              		.loc 1 50 0
 2513 06f6 DDF800C0 		ldr	ip, [sp, #0]
 2514 06fa 3946     		mov	r1, r7
 2515 06fc 6046     		mov	r0, ip
 2516 06fe 1122     		movs	r2, #17
 2517 0700 4FF6FF73 		movw	r3, #65535
 2518 0704 FFF7FEFF 		bl	gdispFillCircle
 2519              	.LVL230:
 2520              		.loc 1 51 0
 2521 0708 DDF800C0 		ldr	ip, [sp, #0]
 2522 070c 3946     		mov	r1, r7
 2523 070e 6046     		mov	r0, ip
 2524 0710 0322     		movs	r2, #3
 2525 0712 4FF6E073 		movw	r3, #65504
 2526 0716 FFF7FEFF 		bl	gdispFillCircle
 2527              	.LVL231:
 2528              	.LBE90:
 2529              	.LBE115:
 2530              		.loc 1 268 0
 2531 071a B9F1000F 		cmp	r9, #0
 2532 071e 0DD0     		beq	.L71
 2533 0720 0198     		ldr	r0, [sp, #4]
 2534 0722 58B1     		cbz	r0, .L71
 2535              		.loc 1 271 0
 2536 0724 039A     		ldr	r2, [sp, #12]
 2537 0726 029B     		ldr	r3, [sp, #8]
 2538              		.loc 1 269 0
 2539 0728 A4F81090 		strh	r9, [r4, #16]	@ movhi
 2540              		.loc 1 271 0
 2541 072c 0132     		adds	r2, r2, #1
 2542 072e 03EB4301 		add	r1, r3, r3, lsl #1
 2543 0732 5218     		adds	r2, r2, r1
 2544              		.loc 1 270 0
 2545 0734 6082     		strh	r0, [r4, #18]	@ movhi
 2546              		.loc 1 271 0
 2547 0736 E273     		strb	r2, [r4, #15]
 2548              		.loc 1 272 0
 2549 0738 FFF7FEFF 		bl	redrawLines
 2550              	.LVL232:
 2551              	.L71:
 2552              		.loc 1 279 0
 2553 073c 40F20002 		movw	r2, #:lower16:.LANCHOR1
 2554              		.loc 1 275 0
 2555 0740 A089     		ldrh	r0, [r4, #12]
 2556              		.loc 1 274 0
 2557 0742 B4F80A90 		ldrh	r9, [r4, #10]
 2558              	.LVL233:
 2559              		.loc 1 275 0
 2560 0746 0190     		str	r0, [sp, #4]
 2561              	.LVL234:
ARM GAS  /tmp/ccd61yKH.s 			page 46


 2562              		.loc 1 279 0
 2563 0748 C0F20002 		movt	r2, #:upper16:.LANCHOR1
 2564 074c 0BF10103 		add	r3, fp, #1
 2565 0750 0421     		movs	r1, #4
 2566 0752 02F80B10 		strb	r1, [r2, fp]
 2567              		.loc 1 281 0
 2568 0756 0120     		movs	r0, #1
 2569              		.loc 1 279 0
 2570 0758 5FFA83FB 		uxtb	fp, r3
 2571              	.LVL235:
 2572 075c 0023     		movs	r3, #0
 2573              	.LVL236:
 2574              		.loc 1 281 0
 2575 075e 0290     		str	r0, [sp, #8]
 2576              		.loc 1 279 0
 2577 0760 0393     		str	r3, [sp, #12]
 2578 0762 EEE4     		b	.L70
 2579              	.LVL237:
 2580              	.L141:
 2581              	.LBB116:
 2582              	.LBB91:
 2583              		.loc 1 49 0
 2584 0764 B7F90210 		ldrsh	r1, [r7, #2]
 2585 0768 B7F900C0 		ldrsh	ip, [r7, #0]
 2586 076c 0591     		str	r1, [sp, #20]
 2587              	.LBE91:
 2588              	.LBE116:
 2589              		.loc 1 264 0
 2590 076e 0120     		movs	r0, #1
 2591 0770 3871     		strb	r0, [r7, #4]
 2592              	.LBB117:
 2593              	.LBB92:
 2594              		.loc 1 49 0
 2595 0772 1422     		movs	r2, #20
 2596 0774 6046     		mov	r0, ip
 2597 0776 4FF6E073 		movw	r3, #65504
 2598 077a 0599     		ldr	r1, [sp, #20]
 2599 077c CDF800C0 		str	ip, [sp, #0]
 2600 0780 FFF7FEFF 		bl	gdispFillCircle
 2601              	.LVL238:
 2602              		.loc 1 50 0
 2603 0784 DDF800C0 		ldr	ip, [sp, #0]
 2604 0788 0599     		ldr	r1, [sp, #20]
 2605 078a 6046     		mov	r0, ip
 2606 078c 1122     		movs	r2, #17
 2607 078e 4FF6FF73 		movw	r3, #65535
 2608 0792 FFF7FEFF 		bl	gdispFillCircle
 2609              	.LVL239:
 2610              		.loc 1 51 0
 2611 0796 DDF800C0 		ldr	ip, [sp, #0]
 2612 079a 0599     		ldr	r1, [sp, #20]
 2613 079c 6046     		mov	r0, ip
 2614 079e 0322     		movs	r2, #3
 2615 07a0 4FF6E073 		movw	r3, #65504
 2616 07a4 FFF7FEFF 		bl	gdispFillCircle
 2617              	.LVL240:
 2618              	.LBE92:
ARM GAS  /tmp/ccd61yKH.s 			page 47


 2619              	.LBE117:
 2620              		.loc 1 268 0
 2621 07a8 B9F1000F 		cmp	r9, #0
 2622 07ac 0DD0     		beq	.L69
 2623 07ae 0199     		ldr	r1, [sp, #4]
 2624 07b0 59B1     		cbz	r1, .L69
 2625              		.loc 1 271 0
 2626 07b2 039A     		ldr	r2, [sp, #12]
 2627 07b4 029B     		ldr	r3, [sp, #8]
 2628              		.loc 1 269 0
 2629 07b6 A7F80690 		strh	r9, [r7, #6]	@ movhi
 2630              		.loc 1 271 0
 2631 07ba 0132     		adds	r2, r2, #1
 2632 07bc 03EB4300 		add	r0, r3, r3, lsl #1
 2633 07c0 1218     		adds	r2, r2, r0
 2634              		.loc 1 270 0
 2635 07c2 3981     		strh	r1, [r7, #8]	@ movhi
 2636              		.loc 1 271 0
 2637 07c4 7A71     		strb	r2, [r7, #5]
 2638              		.loc 1 272 0
 2639 07c6 FFF7FEFF 		bl	redrawLines
 2640              	.LVL241:
 2641              	.L69:
 2642              		.loc 1 279 0
 2643 07ca 0021     		movs	r1, #0
 2644              		.loc 1 275 0
 2645 07cc 6088     		ldrh	r0, [r4, #2]
 2646              		.loc 1 279 0
 2647 07ce 0291     		str	r1, [sp, #8]
 2648 07d0 40F20001 		movw	r1, #:lower16:.LANCHOR1
 2649 07d4 C0F20001 		movt	r1, #:upper16:.LANCHOR1
 2650 07d8 0BF10103 		add	r3, fp, #1
 2651              		.loc 1 275 0
 2652 07dc 0190     		str	r0, [sp, #4]
 2653              		.loc 1 279 0
 2654 07de 0122     		movs	r2, #1
 2655 07e0 0020     		movs	r0, #0
 2656 07e2 01F80B20 		strb	r2, [r1, fp]
 2657              		.loc 1 274 0
 2658 07e6 B4F80090 		ldrh	r9, [r4, #0]
 2659              	.LVL242:
 2660              		.loc 1 279 0
 2661 07ea 0390     		str	r0, [sp, #12]
 2662 07ec 5FFA83FB 		uxtb	fp, r3
 2663              	.LVL243:
 2664 07f0 8EE4     		b	.L68
 2665              	.LVL244:
 2666              	.L140:
 2667              		.loc 1 215 0
 2668 07f2 40F20002 		movw	r2, #:lower16:.LANCHOR1
 2669 07f6 C0F20002 		movt	r2, #:upper16:.LANCHOR1
 2670 07fa 1378     		ldrb	r3, [r2, #0]	@ zero_extendqisi2
 2671 07fc 3370     		strb	r3, [r6, #0]
 2672              	.LVL245:
 2673 07fe 5178     		ldrb	r1, [r2, #1]	@ zero_extendqisi2
 2674 0800 7170     		strb	r1, [r6, #1]
 2675              	.LVL246:
ARM GAS  /tmp/ccd61yKH.s 			page 48


 2676 0802 9078     		ldrb	r0, [r2, #2]	@ zero_extendqisi2
 2677 0804 B070     		strb	r0, [r6, #2]
 2678              	.LVL247:
 2679 0806 D378     		ldrb	r3, [r2, #3]	@ zero_extendqisi2
 2680 0808 F370     		strb	r3, [r6, #3]
 2681              	.LVL248:
 2682 080a 1179     		ldrb	r1, [r2, #4]	@ zero_extendqisi2
 2683 080c 3171     		strb	r1, [r6, #4]
 2684              	.LVL249:
 2685 080e 5079     		ldrb	r0, [r2, #5]	@ zero_extendqisi2
 2686 0810 7071     		strb	r0, [r6, #5]
 2687              	.LVL250:
 2688 0812 9379     		ldrb	r3, [r2, #6]	@ zero_extendqisi2
 2689 0814 B371     		strb	r3, [r6, #6]
 2690              	.LVL251:
 2691 0816 D179     		ldrb	r1, [r2, #7]	@ zero_extendqisi2
 2692 0818 F171     		strb	r1, [r6, #7]
 2693              	.LVL252:
 2694 081a 127A     		ldrb	r2, [r2, #8]	@ zero_extendqisi2
 2695 081c 3272     		strb	r2, [r6, #8]
 2696              	.LVL253:
 2697              		.loc 1 218 0
 2698 081e FFF7FEFF 		bl	drawRingsOk
 2699              	.LVL254:
 2700              		.loc 1 219 0
 2701 0822 4FF49660 		mov	r0, #1200
 2702              		.loc 1 287 0
 2703 0826 07B0     		add	sp, sp, #28
 2704 0828 BDE8F04F 		pop	{r4, r5, r6, r7, r8, r9, sl, fp, lr}
 2705              		.loc 1 219 0
 2706 082c FFF7FEBF 		b	gfxSleepMilliseconds
 2707              	.LVL255:
 2708              		.cfi_endproc
 2709              	.LFE126:
 2710              		.size	unlocker, .-unlocker
 2711              		.section	.text.displayUnlockerSetup,"ax",%progbits
 2712              		.align	2
 2713              		.p2align 4,,15
 2714              		.global	displayUnlockerSetup
 2715              		.thumb
 2716              		.thumb_func
 2717              		.type	displayUnlockerSetup, %function
 2718              	displayUnlockerSetup:
 2719              	.LFB127:
 2720              		.loc 1 293 0
 2721              		.cfi_startproc
 2722              		@ args = 0, pretend = 0, frame = 0
 2723              		@ frame_needed = 0, uses_anonymous_args = 0
 2724              		@ link register save eliminated.
 2725              	.LVL256:
 2726              		.loc 1 294 0
 2727 0000 0121     		movs	r1, #1
 2728              		.loc 1 295 0
 2729              		.loc 1 294 0
 2730 0002 FFF7FEBF 		b	unlocker
 2731              	.LVL257:
 2732              		.cfi_endproc
ARM GAS  /tmp/ccd61yKH.s 			page 49


 2733              	.LFE127:
 2734              		.size	displayUnlockerSetup, .-displayUnlockerSetup
 2735 0006 00BFAFF3 		.section	.text.displayUnlocker,"ax",%progbits
 2735      0080AFF3 
 2735      0080
 2736              		.align	2
 2737              		.p2align 4,,15
 2738              		.global	displayUnlocker
 2739              		.thumb
 2740              		.thumb_func
 2741              		.type	displayUnlocker, %function
 2742              	displayUnlocker:
 2743              	.LFB128:
 2744              		.loc 1 301 0
 2745              		.cfi_startproc
 2746              		@ args = 0, pretend = 0, frame = 0
 2747              		@ frame_needed = 0, uses_anonymous_args = 0
 2748              		@ link register save eliminated.
 2749              	.LVL258:
 2750              		.loc 1 302 0
 2751 0000 0021     		movs	r1, #0
 2752              		.loc 1 303 0
 2753              		.loc 1 302 0
 2754 0002 FFF7FEBF 		b	unlocker
 2755              	.LVL259:
 2756              		.cfi_endproc
 2757              	.LFE128:
 2758              		.size	displayUnlocker, .-displayUnlocker
 2759              		.global	unlock_sequence
 2760              		.global	unlocker_rings
 2761              		.global	ev
 2762 0006 00BFAFF3 		.section	.bss.ev,"aw",%nobits
 2762      0080AFF3 
 2762      0080
 2763              		.align	2
 2764              		.set	.LANCHOR2,. + 0
 2765              		.type	ev, %object
 2766              		.size	ev, 16
 2767              	ev:
 2768 0000 00000000 		.space	16
 2768      00000000 
 2768      00000000 
 2768      00000000 
 2769              		.section	.bss.unlocker_rings,"aw",%nobits
 2770              		.align	2
 2771              		.set	.LANCHOR0,. + 0
 2772              		.type	unlocker_rings, %object
 2773              		.size	unlocker_rings, 90
 2774              	unlocker_rings:
 2775 0000 00000000 		.space	90
 2775      00000000 
 2775      00000000 
 2775      00000000 
 2775      00000000 
 2776 005a 0000     		.section	.bss.unlock_sequence,"aw",%nobits
 2777              		.align	2
 2778              		.set	.LANCHOR1,. + 0
ARM GAS  /tmp/ccd61yKH.s 			page 50


 2779              		.type	unlock_sequence, %object
 2780              		.size	unlock_sequence, 9
 2781              	unlock_sequence:
 2782 0000 00000000 		.space	9
 2782      00000000 
 2782      00
 2783 0009 000000   		.text
 2784              	.Letext0:
 2785              		.file 2 "/usr/bin/../lib/gcc/arm-none-eabi/4.7.4/../../../../arm-none-eabi/include/stdint.h"
 2786              		.file 3 "../../os/ports/GCC/ARMCMx/chtypes.h"
 2787              		.file 4 "../../ext/ugfx/include/gos/chibios.h"
 2788              		.file 5 "../../ext/ugfx/include/gevent/gevent.h"
 2789              		.file 6 "../../ext/ugfx/include/gdisp/gdisp.h"
 2790              		.file 7 "../../ext/ugfx/include/ginput/mouse.h"
 2791              		.file 8 "unlocker.h"
 2792              		.file 9 "../../os/ports/common/ARMCMx/CMSIS/include/core_cm4.h"