ARM GAS  /tmp/ccd61yKH.s 			page 1


   1              		.syntax unified
   2              		.cpu cortex-m4
   3              		.eabi_attribute 27, 3
   4              		.eabi_attribute 28, 1
   5              		.fpu fpv4-sp-d16
   6              		.eabi_attribute 20, 1
   7              		.eabi_attribute 21, 1
   8              		.eabi_attribute 23, 3
   9              		.eabi_attribute 24, 1
  10              		.eabi_attribute 25, 1
  11              		.eabi_attribute 26, 1
  12              		.eabi_attribute 30, 2
  13              		.eabi_attribute 34, 1
  14              		.eabi_attribute 18, 4
  15              		.thumb
  16              		.file	"unlocker.c"
  17              		.text
  18              	.Ltext0:
  19              		.cfi_sections	.debug_frame
  20              		.section	.text.redrawLines,"ax",%progbits
  21              		.align	2
  22              		.p2align 4,,15
  23              		.global	redrawLines
  24              		.thumb
  25              		.thumb_func
  26              		.type	redrawLines, %function
  27              	redrawLines:
  28              	.LFB122:
  29              		.file 1 "unlocker.c"
  30              		.loc 1 71 0
  31              		.cfi_startproc
  32              		@ args = 0, pretend = 0, frame = 0
  33              		@ frame_needed = 0, uses_anonymous_args = 0
  34              	.LVL0:
  35 0000 F0B5     		push	{r4, r5, r6, r7, lr}
  36              	.LCFI0:
  37              		.cfi_def_cfa_offset 20
  38              		.cfi_offset 4, -20
  39              		.cfi_offset 5, -16
  40              		.cfi_offset 6, -12
  41              		.cfi_offset 7, -8
  42              		.cfi_offset 14, -4
  43 0002 994D     		ldr	r5, .L49
  44 0004 83B0     		sub	sp, sp, #12
  45              	.LCFI1:
  46              		.cfi_def_cfa_offset 32
  47              		.loc 1 81 0
  48 0006 48F21047 		movw	r7, #33808
  49 000a 05F11704 		add	r4, r5, #23
  50              		.loc 1 70 0
  51 000e 05F17106 		add	r6, r5, #113
  52              	.LVL1:
  53              	.L2:
  54              		.loc 1 77 0 discriminator 1
  55 0012 14F8173C 		ldrb	r3, [r4, #-23]	@ zero_extendqisi2
  56 0016 2BB1     		cbz	r3, .L7
  57              		.loc 1 78 0
ARM GAS  /tmp/ccd61yKH.s 			page 2


  58 0018 34F8160C 		ldrh	r0, [r4, #-22]
  59 001c 10B1     		cbz	r0, .L7
  60              		.loc 1 79 0
  61 001e 34F8141C 		ldrh	r1, [r4, #-20]
  62 0022 D1B9     		cbnz	r1, .L43
  63              	.L7:
  64              	.LVL2:
  65              		.loc 1 77 0
  66 0024 14F80D1C 		ldrb	r1, [r4, #-13]	@ zero_extendqisi2
  67 0028 39B1     		cbz	r1, .L11
  68              		.loc 1 78 0
  69 002a 34F80C0C 		ldrh	r0, [r4, #-12]
  70 002e 20B1     		cbz	r0, .L11
  71              		.loc 1 79 0
  72 0030 34F80A1C 		ldrh	r1, [r4, #-10]
  73 0034 0029     		cmp	r1, #0
  74 0036 40F08C80 		bne	.L44
  75              	.L11:
  76              	.LVL3:
  77              		.loc 1 77 0
  78 003a 14F8031C 		ldrb	r1, [r4, #-3]	@ zero_extendqisi2
  79 003e 31B1     		cbz	r1, .L3
  80              		.loc 1 78 0
  81 0040 34F8020C 		ldrh	r0, [r4, #-2]
  82 0044 18B1     		cbz	r0, .L3
  83              		.loc 1 79 0
  84 0046 B5F81710 		ldrh	r1, [r5, #23]
  85 004a 0029     		cmp	r1, #0
  86 004c 43D1     		bne	.L45
  87              	.L3:
  88              	.LVL4:
  89 004e 1E34     		adds	r4, r4, #30
  90 0050 1E35     		adds	r5, r5, #30
  91              		.loc 1 74 0
  92 0052 B442     		cmp	r4, r6
  93 0054 DDD1     		bne	.L2
  94              		.loc 1 111 0
  95 0056 03B0     		add	sp, sp, #12
  96 0058 F0BD     		pop	{r4, r5, r6, r7, pc}
  97              	.LVL5:
  98              	.L43:
  99              		.loc 1 81 0
 100 005a 34F91C2C 		ldrsh	r2, [r4, #-28]
 101 005e 34F91A3C 		ldrsh	r3, [r4, #-26]
 102 0062 0097     		str	r7, [sp, #0]
 103 0064 00B2     		sxth	r0, r0
 104 0066 09B2     		sxth	r1, r1
 105 0068 FFF7FEFF 		bl	gdispDrawLine
 106              	.LVL6:
 107              		.loc 1 85 0
 108 006c 34F8163C 		ldrh	r3, [r4, #-22]
 109 0070 34F91C2C 		ldrsh	r2, [r4, #-28]
 110 0074 18B2     		sxth	r0, r3
 111 0076 9042     		cmp	r0, r2
 112 0078 00F0A880 		beq	.L46
 113              		.loc 1 95 0
 114 007c 34F8141C 		ldrh	r1, [r4, #-20]
ARM GAS  /tmp/ccd61yKH.s 			page 3


 115 0080 34F81A3C 		ldrh	r3, [r4, #-26]
 116 0084 0097     		str	r7, [sp, #0]
 117 0086 0139     		subs	r1, r1, #1
 118 0088 013B     		subs	r3, r3, #1
 119 008a 09B2     		sxth	r1, r1
 120 008c 1BB2     		sxth	r3, r3
 121 008e FFF7FEFF 		bl	gdispDrawLine
 122              	.LVL7:
 123              		.loc 1 99 0
 124 0092 34F8141C 		ldrh	r1, [r4, #-20]
 125 0096 34F81A3C 		ldrh	r3, [r4, #-26]
 126 009a 34F9160C 		ldrsh	r0, [r4, #-22]
 127 009e 34F91C2C 		ldrsh	r2, [r4, #-28]
 128 00a2 0097     		str	r7, [sp, #0]
 129 00a4 0131     		adds	r1, r1, #1
 130 00a6 0133     		adds	r3, r3, #1
 131 00a8 09B2     		sxth	r1, r1
 132 00aa 1BB2     		sxth	r3, r3
 133 00ac FFF7FEFF 		bl	gdispDrawLine
 134              	.LVL8:
 135              	.L10:
 136              		.loc 1 104 0
 137 00b0 34F91C0C 		ldrsh	r0, [r4, #-28]
 138 00b4 34F91A1C 		ldrsh	r1, [r4, #-26]
 139 00b8 0322     		movs	r2, #3
 140 00ba 48F21043 		movw	r3, #33808
 141 00be FFF7FEFF 		bl	gdispFillCircle
 142              	.LVL9:
 143              		.loc 1 105 0
 144 00c2 34F9160C 		ldrsh	r0, [r4, #-22]
 145 00c6 34F9141C 		ldrsh	r1, [r4, #-20]
 146 00ca 0322     		movs	r2, #3
 147 00cc 48F21043 		movw	r3, #33808
 148 00d0 FFF7FEFF 		bl	gdispFillCircle
 149              	.LVL10:
 150 00d4 A6E7     		b	.L7
 151              	.LVL11:
 152              	.L45:
 153              		.loc 1 81 0
 154 00d6 34F9082C 		ldrsh	r2, [r4, #-8]
 155 00da 34F9063C 		ldrsh	r3, [r4, #-6]
 156 00de 0097     		str	r7, [sp, #0]
 157 00e0 00B2     		sxth	r0, r0
 158 00e2 09B2     		sxth	r1, r1
 159 00e4 FFF7FEFF 		bl	gdispDrawLine
 160              	.LVL12:
 161              		.loc 1 85 0
 162 00e8 34F8023C 		ldrh	r3, [r4, #-2]
 163 00ec 34F9082C 		ldrsh	r2, [r4, #-8]
 164 00f0 18B2     		sxth	r0, r3
 165 00f2 9042     		cmp	r0, r2
 166 00f4 00F09E80 		beq	.L47
 167              		.loc 1 95 0
 168 00f8 34F8063C 		ldrh	r3, [r4, #-6]
 169 00fc B5F81710 		ldrh	r1, [r5, #23]
 170 0100 0097     		str	r7, [sp, #0]
 171 0102 0139     		subs	r1, r1, #1
ARM GAS  /tmp/ccd61yKH.s 			page 4


 172 0104 013B     		subs	r3, r3, #1
 173 0106 09B2     		sxth	r1, r1
 174 0108 1BB2     		sxth	r3, r3
 175 010a FFF7FEFF 		bl	gdispDrawLine
 176              	.LVL13:
 177              		.loc 1 99 0
 178 010e 34F8063C 		ldrh	r3, [r4, #-6]
 179 0112 B5F81710 		ldrh	r1, [r5, #23]
 180 0116 34F9020C 		ldrsh	r0, [r4, #-2]
 181 011a 34F9082C 		ldrsh	r2, [r4, #-8]
 182 011e 0097     		str	r7, [sp, #0]
 183 0120 0131     		adds	r1, r1, #1
 184 0122 0133     		adds	r3, r3, #1
 185 0124 09B2     		sxth	r1, r1
 186 0126 1BB2     		sxth	r3, r3
 187 0128 FFF7FEFF 		bl	gdispDrawLine
 188              	.LVL14:
 189              	.L5:
 190              		.loc 1 104 0
 191 012c 34F9080C 		ldrsh	r0, [r4, #-8]
 192 0130 34F9061C 		ldrsh	r1, [r4, #-6]
 193 0134 0322     		movs	r2, #3
 194 0136 48F21043 		movw	r3, #33808
 195 013a FFF7FEFF 		bl	gdispFillCircle
 196              	.LVL15:
 197              		.loc 1 105 0
 198 013e 34F9020C 		ldrsh	r0, [r4, #-2]
 199 0142 B5F91710 		ldrsh	r1, [r5, #23]
 200 0146 0322     		movs	r2, #3
 201 0148 48F21043 		movw	r3, #33808
 202 014c FFF7FEFF 		bl	gdispFillCircle
 203              	.LVL16:
 204 0150 7DE7     		b	.L3
 205              	.LVL17:
 206              	.L44:
 207              		.loc 1 81 0
 208 0152 34F9122C 		ldrsh	r2, [r4, #-18]
 209 0156 34F9103C 		ldrsh	r3, [r4, #-16]
 210 015a 0097     		str	r7, [sp, #0]
 211 015c 00B2     		sxth	r0, r0
 212 015e 09B2     		sxth	r1, r1
 213 0160 FFF7FEFF 		bl	gdispDrawLine
 214              	.LVL18:
 215              		.loc 1 85 0
 216 0164 34F80C3C 		ldrh	r3, [r4, #-12]
 217 0168 34F9122C 		ldrsh	r2, [r4, #-18]
 218 016c 18B2     		sxth	r0, r3
 219 016e 9042     		cmp	r0, r2
 220 0170 46D0     		beq	.L48
 221              		.loc 1 95 0
 222 0172 34F80A1C 		ldrh	r1, [r4, #-10]
 223 0176 34F8103C 		ldrh	r3, [r4, #-16]
 224 017a 0097     		str	r7, [sp, #0]
 225 017c 0139     		subs	r1, r1, #1
 226 017e 013B     		subs	r3, r3, #1
 227 0180 09B2     		sxth	r1, r1
 228 0182 1BB2     		sxth	r3, r3
ARM GAS  /tmp/ccd61yKH.s 			page 5


 229 0184 FFF7FEFF 		bl	gdispDrawLine
 230              	.LVL19:
 231              		.loc 1 99 0
 232 0188 34F80A1C 		ldrh	r1, [r4, #-10]
 233 018c 34F8103C 		ldrh	r3, [r4, #-16]
 234 0190 34F90C0C 		ldrsh	r0, [r4, #-12]
 235 0194 34F9122C 		ldrsh	r2, [r4, #-18]
 236 0198 0097     		str	r7, [sp, #0]
 237 019a 0131     		adds	r1, r1, #1
 238 019c 0133     		adds	r3, r3, #1
 239 019e 09B2     		sxth	r1, r1
 240 01a0 1BB2     		sxth	r3, r3
 241 01a2 FFF7FEFF 		bl	gdispDrawLine
 242              	.LVL20:
 243              	.L14:
 244              		.loc 1 104 0
 245 01a6 34F9120C 		ldrsh	r0, [r4, #-18]
 246 01aa 34F9101C 		ldrsh	r1, [r4, #-16]
 247 01ae 0322     		movs	r2, #3
 248 01b0 48F21043 		movw	r3, #33808
 249 01b4 FFF7FEFF 		bl	gdispFillCircle
 250              	.LVL21:
 251              		.loc 1 105 0
 252 01b8 34F90C0C 		ldrsh	r0, [r4, #-12]
 253 01bc 34F90A1C 		ldrsh	r1, [r4, #-10]
 254 01c0 0322     		movs	r2, #3
 255 01c2 48F21043 		movw	r3, #33808
 256 01c6 FFF7FEFF 		bl	gdispFillCircle
 257              	.LVL22:
 258 01ca 36E7     		b	.L11
 259              	.LVL23:
 260              	.L46:
 261              		.loc 1 86 0
 262 01cc 5A1E     		subs	r2, r3, #1
 263 01ce 10B2     		sxth	r0, r2
 264 01d0 34F9141C 		ldrsh	r1, [r4, #-20]
 265 01d4 34F91A3C 		ldrsh	r3, [r4, #-26]
 266 01d8 0097     		str	r7, [sp, #0]
 267 01da 0246     		mov	r2, r0
 268 01dc FFF7FEFF 		bl	gdispDrawLine
 269              	.LVL24:
 270              		.loc 1 90 0
 271 01e0 34F8160C 		ldrh	r0, [r4, #-22]
 272 01e4 34F81C2C 		ldrh	r2, [r4, #-28]
 273 01e8 34F9141C 		ldrsh	r1, [r4, #-20]
 274 01ec 34F91A3C 		ldrsh	r3, [r4, #-26]
 275 01f0 0097     		str	r7, [sp, #0]
 276 01f2 0130     		adds	r0, r0, #1
 277 01f4 0132     		adds	r2, r2, #1
 278 01f6 00B2     		sxth	r0, r0
 279 01f8 12B2     		sxth	r2, r2
 280 01fa FFF7FEFF 		bl	gdispDrawLine
 281              	.LVL25:
 282 01fe 57E7     		b	.L10
 283              	.LVL26:
 284              	.L48:
 285              		.loc 1 86 0
ARM GAS  /tmp/ccd61yKH.s 			page 6


 286 0200 5A1E     		subs	r2, r3, #1
 287 0202 10B2     		sxth	r0, r2
 288 0204 34F90A1C 		ldrsh	r1, [r4, #-10]
 289 0208 34F9103C 		ldrsh	r3, [r4, #-16]
 290 020c 0097     		str	r7, [sp, #0]
 291 020e 0246     		mov	r2, r0
 292 0210 FFF7FEFF 		bl	gdispDrawLine
 293              	.LVL27:
 294              		.loc 1 90 0
 295 0214 34F80C0C 		ldrh	r0, [r4, #-12]
 296 0218 34F8122C 		ldrh	r2, [r4, #-18]
 297 021c 34F90A1C 		ldrsh	r1, [r4, #-10]
 298 0220 34F9103C 		ldrsh	r3, [r4, #-16]
 299 0224 0097     		str	r7, [sp, #0]
 300 0226 0130     		adds	r0, r0, #1
 301 0228 0132     		adds	r2, r2, #1
 302 022a 00B2     		sxth	r0, r0
 303 022c 12B2     		sxth	r2, r2
 304 022e FFF7FEFF 		bl	gdispDrawLine
 305              	.LVL28:
 306 0232 B8E7     		b	.L14
 307              	.LVL29:
 308              	.L47:
 309              		.loc 1 86 0
 310 0234 5A1E     		subs	r2, r3, #1
 311 0236 10B2     		sxth	r0, r2
 312 0238 34F9063C 		ldrsh	r3, [r4, #-6]
 313 023c B5F91710 		ldrsh	r1, [r5, #23]
 314 0240 0097     		str	r7, [sp, #0]
 315 0242 0246     		mov	r2, r0
 316 0244 FFF7FEFF 		bl	gdispDrawLine
 317              	.LVL30:
 318              		.loc 1 90 0
 319 0248 34F8020C 		ldrh	r0, [r4, #-2]
 320 024c 34F8082C 		ldrh	r2, [r4, #-8]
 321 0250 34F9063C 		ldrsh	r3, [r4, #-6]
 322 0254 B5F91710 		ldrsh	r1, [r5, #23]
 323 0258 0097     		str	r7, [sp, #0]
 324 025a 0130     		adds	r0, r0, #1
 325 025c 0132     		adds	r2, r2, #1
 326 025e 00B2     		sxth	r0, r0
 327 0260 12B2     		sxth	r2, r2
 328 0262 FFF7FEFF 		bl	gdispDrawLine
 329              	.LVL31:
 330 0266 61E7     		b	.L5
 331              	.L50:
 332              		.align	2
 333              	.L49:
 334 0268 05000000 		.word	.LANCHOR0+5
 335              		.cfi_endproc
 336              	.LFE122:
 337              		.size	redrawLines, .-redrawLines
 338 026c AFF30080 		.section	.text.drawRingsError,"ax",%progbits
 339              		.align	2
 340              		.p2align 4,,15
 341              		.global	drawRingsError
 342              		.thumb
ARM GAS  /tmp/ccd61yKH.s 			page 7


 343              		.thumb_func
 344              		.type	drawRingsError, %function
 345              	drawRingsError:
 346              	.LFB123:
 347              		.loc 1 114 0
 348              		.cfi_startproc
 349              		@ args = 0, pretend = 0, frame = 0
 350              		@ frame_needed = 0, uses_anonymous_args = 0
 351 0000 70B5     		push	{r4, r5, r6, lr}
 352              	.LCFI2:
 353              		.cfi_def_cfa_offset 16
 354              		.cfi_offset 4, -16
 355              		.cfi_offset 5, -12
 356              		.cfi_offset 6, -8
 357              		.cfi_offset 14, -4
 358              		.loc 1 122 0
 359 0002 40F20004 		movw	r4, #:lower16:.LANCHOR0
 360 0006 C0F20004 		movt	r4, #:upper16:.LANCHOR0
 361              		.loc 1 115 0
 362 000a 4FF6FF70 		movw	r0, #65535
 363 000e FFF7FEFF 		bl	gdispClear
 364              	.LVL32:
 365              	.LBB10:
 366              	.LBB11:
 367              		.loc 1 55 0
 368 0012 B4F90060 		ldrsh	r6, [r4, #0]
 369 0016 B4F90250 		ldrsh	r5, [r4, #2]
 370 001a 1422     		movs	r2, #20
 371 001c 3046     		mov	r0, r6
 372 001e 2946     		mov	r1, r5
 373 0020 4FF47843 		mov	r3, #63488
 374 0024 FFF7FEFF 		bl	gdispFillCircle
 375              	.LVL33:
 376              		.loc 1 56 0
 377 0028 3046     		mov	r0, r6
 378 002a 2946     		mov	r1, r5
 379 002c 1122     		movs	r2, #17
 380 002e 4FF6FF73 		movw	r3, #65535
 381 0032 FFF7FEFF 		bl	gdispFillCircle
 382              	.LVL34:
 383              		.loc 1 57 0
 384 0036 3046     		mov	r0, r6
 385 0038 2946     		mov	r1, r5
 386 003a 0322     		movs	r2, #3
 387 003c 4FF47843 		mov	r3, #63488
 388 0040 FFF7FEFF 		bl	gdispFillCircle
 389              	.LVL35:
 390              		.loc 1 55 0
 391 0044 B4F90A60 		ldrsh	r6, [r4, #10]
 392 0048 B4F90C50 		ldrsh	r5, [r4, #12]
 393 004c 1422     		movs	r2, #20
 394 004e 3046     		mov	r0, r6
 395 0050 2946     		mov	r1, r5
 396 0052 4FF47843 		mov	r3, #63488
 397 0056 FFF7FEFF 		bl	gdispFillCircle
 398              	.LVL36:
 399              		.loc 1 56 0
ARM GAS  /tmp/ccd61yKH.s 			page 8


 400 005a 3046     		mov	r0, r6
 401 005c 2946     		mov	r1, r5
 402 005e 1122     		movs	r2, #17
 403 0060 4FF6FF73 		movw	r3, #65535
 404 0064 FFF7FEFF 		bl	gdispFillCircle
 405              	.LVL37:
 406              		.loc 1 57 0
 407 0068 3046     		mov	r0, r6
 408 006a 2946     		mov	r1, r5
 409 006c 0322     		movs	r2, #3
 410 006e 4FF47843 		mov	r3, #63488
 411 0072 FFF7FEFF 		bl	gdispFillCircle
 412              	.LVL38:
 413              		.loc 1 55 0
 414 0076 B4F91460 		ldrsh	r6, [r4, #20]
 415 007a B4F91650 		ldrsh	r5, [r4, #22]
 416 007e 1422     		movs	r2, #20
 417 0080 3046     		mov	r0, r6
 418 0082 2946     		mov	r1, r5
 419 0084 4FF47843 		mov	r3, #63488
 420 0088 FFF7FEFF 		bl	gdispFillCircle
 421              	.LVL39:
 422              		.loc 1 56 0
 423 008c 3046     		mov	r0, r6
 424 008e 2946     		mov	r1, r5
 425 0090 1122     		movs	r2, #17
 426 0092 4FF6FF73 		movw	r3, #65535
 427 0096 FFF7FEFF 		bl	gdispFillCircle
 428              	.LVL40:
 429              		.loc 1 57 0
 430 009a 3046     		mov	r0, r6
 431 009c 2946     		mov	r1, r5
 432 009e 0322     		movs	r2, #3
 433 00a0 4FF47843 		mov	r3, #63488
 434 00a4 FFF7FEFF 		bl	gdispFillCircle
 435              	.LVL41:
 436              		.loc 1 55 0
 437 00a8 B4F91E60 		ldrsh	r6, [r4, #30]
 438 00ac B4F92050 		ldrsh	r5, [r4, #32]
 439 00b0 1422     		movs	r2, #20
 440 00b2 3046     		mov	r0, r6
 441 00b4 2946     		mov	r1, r5
 442 00b6 4FF47843 		mov	r3, #63488
 443 00ba FFF7FEFF 		bl	gdispFillCircle
 444              	.LVL42:
 445              		.loc 1 56 0
 446 00be 3046     		mov	r0, r6
 447 00c0 2946     		mov	r1, r5
 448 00c2 1122     		movs	r2, #17
 449 00c4 4FF6FF73 		movw	r3, #65535
 450 00c8 FFF7FEFF 		bl	gdispFillCircle
 451              	.LVL43:
 452              		.loc 1 57 0
 453 00cc 3046     		mov	r0, r6
 454 00ce 2946     		mov	r1, r5
 455 00d0 0322     		movs	r2, #3
 456 00d2 4FF47843 		mov	r3, #63488
ARM GAS  /tmp/ccd61yKH.s 			page 9


 457 00d6 FFF7FEFF 		bl	gdispFillCircle
 458              	.LVL44:
 459              		.loc 1 55 0
 460 00da B4F92860 		ldrsh	r6, [r4, #40]
 461 00de B4F92A50 		ldrsh	r5, [r4, #42]
 462 00e2 1422     		movs	r2, #20
 463 00e4 3046     		mov	r0, r6
 464 00e6 2946     		mov	r1, r5
 465 00e8 4FF47843 		mov	r3, #63488
 466 00ec FFF7FEFF 		bl	gdispFillCircle
 467              	.LVL45:
 468              		.loc 1 56 0
 469 00f0 3046     		mov	r0, r6
 470 00f2 2946     		mov	r1, r5
 471 00f4 1122     		movs	r2, #17
 472 00f6 4FF6FF73 		movw	r3, #65535
 473 00fa FFF7FEFF 		bl	gdispFillCircle
 474              	.LVL46:
 475              		.loc 1 57 0
 476 00fe 3046     		mov	r0, r6
 477 0100 2946     		mov	r1, r5
 478 0102 0322     		movs	r2, #3
 479 0104 4FF47843 		mov	r3, #63488
 480 0108 FFF7FEFF 		bl	gdispFillCircle
 481              	.LVL47:
 482              		.loc 1 55 0
 483 010c B4F93260 		ldrsh	r6, [r4, #50]
 484 0110 B4F93450 		ldrsh	r5, [r4, #52]
 485 0114 3046     		mov	r0, r6
 486 0116 2946     		mov	r1, r5
 487 0118 1422     		movs	r2, #20
 488 011a 4FF47843 		mov	r3, #63488
 489 011e FFF7FEFF 		bl	gdispFillCircle
 490              	.LVL48:
 491              		.loc 1 56 0
 492 0122 1122     		movs	r2, #17
 493 0124 3046     		mov	r0, r6
 494 0126 2946     		mov	r1, r5
 495 0128 4FF6FF73 		movw	r3, #65535
 496 012c FFF7FEFF 		bl	gdispFillCircle
 497              	.LVL49:
 498              		.loc 1 57 0
 499 0130 3046     		mov	r0, r6
 500 0132 2946     		mov	r1, r5
 501 0134 0322     		movs	r2, #3
 502 0136 4FF47843 		mov	r3, #63488
 503 013a FFF7FEFF 		bl	gdispFillCircle
 504              	.LVL50:
 505              		.loc 1 55 0
 506 013e B4F93C60 		ldrsh	r6, [r4, #60]
 507 0142 B4F93E50 		ldrsh	r5, [r4, #62]
 508 0146 1422     		movs	r2, #20
 509 0148 3046     		mov	r0, r6
 510 014a 2946     		mov	r1, r5
 511 014c 4FF47843 		mov	r3, #63488
 512 0150 FFF7FEFF 		bl	gdispFillCircle
 513              	.LVL51:
ARM GAS  /tmp/ccd61yKH.s 			page 10


 514              		.loc 1 56 0
 515 0154 3046     		mov	r0, r6
 516 0156 2946     		mov	r1, r5
 517 0158 1122     		movs	r2, #17
 518 015a 4FF6FF73 		movw	r3, #65535
 519 015e FFF7FEFF 		bl	gdispFillCircle
 520              	.LVL52:
 521              		.loc 1 57 0
 522 0162 3046     		mov	r0, r6
 523 0164 2946     		mov	r1, r5
 524 0166 0322     		movs	r2, #3
 525 0168 4FF47843 		mov	r3, #63488
 526 016c FFF7FEFF 		bl	gdispFillCircle
 527              	.LVL53:
 528              		.loc 1 55 0
 529 0170 B4F94660 		ldrsh	r6, [r4, #70]
 530 0174 B4F94850 		ldrsh	r5, [r4, #72]
 531 0178 1422     		movs	r2, #20
 532 017a 3046     		mov	r0, r6
 533 017c 2946     		mov	r1, r5
 534 017e 4FF47843 		mov	r3, #63488
 535 0182 FFF7FEFF 		bl	gdispFillCircle
 536              	.LVL54:
 537              		.loc 1 56 0
 538 0186 3046     		mov	r0, r6
 539 0188 2946     		mov	r1, r5
 540 018a 1122     		movs	r2, #17
 541 018c 4FF6FF73 		movw	r3, #65535
 542 0190 FFF7FEFF 		bl	gdispFillCircle
 543              	.LVL55:
 544              		.loc 1 57 0
 545 0194 3046     		mov	r0, r6
 546 0196 2946     		mov	r1, r5
 547 0198 0322     		movs	r2, #3
 548 019a 4FF47843 		mov	r3, #63488
 549 019e FFF7FEFF 		bl	gdispFillCircle
 550              	.LVL56:
 551              		.loc 1 55 0
 552 01a2 B4F95050 		ldrsh	r5, [r4, #80]
 553 01a6 B4F95240 		ldrsh	r4, [r4, #82]
 554 01aa 1422     		movs	r2, #20
 555 01ac 2846     		mov	r0, r5
 556 01ae 2146     		mov	r1, r4
 557 01b0 4FF47843 		mov	r3, #63488
 558 01b4 FFF7FEFF 		bl	gdispFillCircle
 559              	.LVL57:
 560              		.loc 1 56 0
 561 01b8 2846     		mov	r0, r5
 562 01ba 2146     		mov	r1, r4
 563 01bc 1122     		movs	r2, #17
 564 01be 4FF6FF73 		movw	r3, #65535
 565 01c2 FFF7FEFF 		bl	gdispFillCircle
 566              	.LVL58:
 567              		.loc 1 57 0
 568 01c6 2846     		mov	r0, r5
 569 01c8 2146     		mov	r1, r4
 570 01ca 0322     		movs	r2, #3
ARM GAS  /tmp/ccd61yKH.s 			page 11


 571 01cc 4FF47843 		mov	r3, #63488
 572              	.LBE11:
 573              	.LBE10:
 574              		.loc 1 127 0
 575 01d0 BDE87040 		pop	{r4, r5, r6, lr}
 576              	.LBB13:
 577              	.LBB12:
 578              		.loc 1 57 0
 579 01d4 FFF7FEBF 		b	gdispFillCircle
 580              	.LVL59:
 581              	.LBE12:
 582              	.LBE13:
 583              		.cfi_endproc
 584              	.LFE123:
 585              		.size	drawRingsError, .-drawRingsError
 586 01d8 AFF30080 		.section	.text.drawRingsOk,"ax",%progbits
 586      AFF30080 
 587              		.align	2
 588              		.p2align 4,,15
 589              		.global	drawRingsOk
 590              		.thumb
 591              		.thumb_func
 592              		.type	drawRingsOk, %function
 593              	drawRingsOk:
 594              	.LFB124:
 595              		.loc 1 130 0
 596              		.cfi_startproc
 597              		@ args = 0, pretend = 0, frame = 0
 598              		@ frame_needed = 0, uses_anonymous_args = 0
 599 0000 70B5     		push	{r4, r5, r6, lr}
 600              	.LCFI3:
 601              		.cfi_def_cfa_offset 16
 602              		.cfi_offset 4, -16
 603              		.cfi_offset 5, -12
 604              		.cfi_offset 6, -8
 605              		.cfi_offset 14, -4
 606              		.loc 1 138 0
 607 0002 40F20004 		movw	r4, #:lower16:.LANCHOR0
 608 0006 C0F20004 		movt	r4, #:upper16:.LANCHOR0
 609              		.loc 1 131 0
 610 000a 4FF6FF70 		movw	r0, #65535
 611 000e FFF7FEFF 		bl	gdispClear
 612              	.LVL60:
 613              	.LBB14:
 614              	.LBB15:
 615              		.loc 1 62 0
 616 0012 B4F90060 		ldrsh	r6, [r4, #0]
 617 0016 B4F90250 		ldrsh	r5, [r4, #2]
 618 001a 1422     		movs	r2, #20
 619 001c 3046     		mov	r0, r6
 620 001e 2946     		mov	r1, r5
 621 0020 4FF4FC63 		mov	r3, #2016
 622 0024 FFF7FEFF 		bl	gdispFillCircle
 623              	.LVL61:
 624              		.loc 1 63 0
 625 0028 3046     		mov	r0, r6
 626 002a 2946     		mov	r1, r5
ARM GAS  /tmp/ccd61yKH.s 			page 12


 627 002c 1122     		movs	r2, #17
 628 002e 4FF6FF73 		movw	r3, #65535
 629 0032 FFF7FEFF 		bl	gdispFillCircle
 630              	.LVL62:
 631              		.loc 1 64 0
 632 0036 3046     		mov	r0, r6
 633 0038 2946     		mov	r1, r5
 634 003a 0322     		movs	r2, #3
 635 003c 4FF4FC63 		mov	r3, #2016
 636 0040 FFF7FEFF 		bl	gdispFillCircle
 637              	.LVL63:
 638              		.loc 1 62 0
 639 0044 B4F90A60 		ldrsh	r6, [r4, #10]
 640 0048 B4F90C50 		ldrsh	r5, [r4, #12]
 641 004c 1422     		movs	r2, #20
 642 004e 3046     		mov	r0, r6
 643 0050 2946     		mov	r1, r5
 644 0052 4FF4FC63 		mov	r3, #2016
 645 0056 FFF7FEFF 		bl	gdispFillCircle
 646              	.LVL64:
 647              		.loc 1 63 0
 648 005a 3046     		mov	r0, r6
 649 005c 2946     		mov	r1, r5
 650 005e 1122     		movs	r2, #17
 651 0060 4FF6FF73 		movw	r3, #65535
 652 0064 FFF7FEFF 		bl	gdispFillCircle
 653              	.LVL65:
 654              		.loc 1 64 0
 655 0068 3046     		mov	r0, r6
 656 006a 2946     		mov	r1, r5
 657 006c 0322     		movs	r2, #3
 658 006e 4FF4FC63 		mov	r3, #2016
 659 0072 FFF7FEFF 		bl	gdispFillCircle
 660              	.LVL66:
 661              		.loc 1 62 0
 662 0076 B4F91460 		ldrsh	r6, [r4, #20]
 663 007a B4F91650 		ldrsh	r5, [r4, #22]
 664 007e 1422     		movs	r2, #20
 665 0080 3046     		mov	r0, r6
 666 0082 2946     		mov	r1, r5
 667 0084 4FF4FC63 		mov	r3, #2016
 668 0088 FFF7FEFF 		bl	gdispFillCircle
 669              	.LVL67:
 670              		.loc 1 63 0
 671 008c 3046     		mov	r0, r6
 672 008e 2946     		mov	r1, r5
 673 0090 1122     		movs	r2, #17
 674 0092 4FF6FF73 		movw	r3, #65535
 675 0096 FFF7FEFF 		bl	gdispFillCircle
 676              	.LVL68:
 677              		.loc 1 64 0
 678 009a 3046     		mov	r0, r6
 679 009c 2946     		mov	r1, r5
 680 009e 0322     		movs	r2, #3
 681 00a0 4FF4FC63 		mov	r3, #2016
 682 00a4 FFF7FEFF 		bl	gdispFillCircle
 683              	.LVL69:
ARM GAS  /tmp/ccd61yKH.s 			page 13


 684              		.loc 1 62 0
 685 00a8 B4F91E60 		ldrsh	r6, [r4, #30]
 686 00ac B4F92050 		ldrsh	r5, [r4, #32]
 687 00b0 1422     		movs	r2, #20
 688 00b2 3046     		mov	r0, r6
 689 00b4 2946     		mov	r1, r5
 690 00b6 4FF4FC63 		mov	r3, #2016
 691 00ba FFF7FEFF 		bl	gdispFillCircle
 692              	.LVL70:
 693              		.loc 1 63 0
 694 00be 3046     		mov	r0, r6
 695 00c0 2946     		mov	r1, r5
 696 00c2 1122     		movs	r2, #17
 697 00c4 4FF6FF73 		movw	r3, #65535
 698 00c8 FFF7FEFF 		bl	gdispFillCircle
 699              	.LVL71:
 700              		.loc 1 64 0
 701 00cc 3046     		mov	r0, r6
 702 00ce 2946     		mov	r1, r5
 703 00d0 0322     		movs	r2, #3
 704 00d2 4FF4FC63 		mov	r3, #2016
 705 00d6 FFF7FEFF 		bl	gdispFillCircle
 706              	.LVL72:
 707              		.loc 1 62 0
 708 00da B4F92860 		ldrsh	r6, [r4, #40]
 709 00de B4F92A50 		ldrsh	r5, [r4, #42]
 710 00e2 1422     		movs	r2, #20
 711 00e4 3046     		mov	r0, r6
 712 00e6 2946     		mov	r1, r5
 713 00e8 4FF4FC63 		mov	r3, #2016
 714 00ec FFF7FEFF 		bl	gdispFillCircle
 715              	.LVL73:
 716              		.loc 1 63 0
 717 00f0 3046     		mov	r0, r6
 718 00f2 2946     		mov	r1, r5
 719 00f4 1122     		movs	r2, #17
 720 00f6 4FF6FF73 		movw	r3, #65535
 721 00fa FFF7FEFF 		bl	gdispFillCircle
 722              	.LVL74:
 723              		.loc 1 64 0
 724 00fe 3046     		mov	r0, r6
 725 0100 2946     		mov	r1, r5
 726 0102 0322     		movs	r2, #3
 727 0104 4FF4FC63 		mov	r3, #2016
 728 0108 FFF7FEFF 		bl	gdispFillCircle
 729              	.LVL75:
 730              		.loc 1 62 0
 731 010c B4F93260 		ldrsh	r6, [r4, #50]
 732 0110 B4F93450 		ldrsh	r5, [r4, #52]
 733 0114 3046     		mov	r0, r6
 734 0116 2946     		mov	r1, r5
 735 0118 1422     		movs	r2, #20
 736 011a 4FF4FC63 		mov	r3, #2016
 737 011e FFF7FEFF 		bl	gdispFillCircle
 738              	.LVL76:
 739              		.loc 1 63 0
 740 0122 1122     		movs	r2, #17
ARM GAS  /tmp/ccd61yKH.s 			page 14


 741 0124 3046     		mov	r0, r6
 742 0126 2946     		mov	r1, r5
 743 0128 4FF6FF73 		movw	r3, #65535
 744 012c FFF7FEFF 		bl	gdispFillCircle
 745              	.LVL77:
 746              		.loc 1 64 0
 747 0130 3046     		mov	r0, r6
 748 0132 2946     		mov	r1, r5
 749 0134 0322     		movs	r2, #3
 750 0136 4FF4FC63 		mov	r3, #2016
 751 013a FFF7FEFF 		bl	gdispFillCircle
 752              	.LVL78:
 753              		.loc 1 62 0
 754 013e B4F93C60 		ldrsh	r6, [r4, #60]
 755 0142 B4F93E50 		ldrsh	r5, [r4, #62]
 756 0146 1422     		movs	r2, #20
 757 0148 3046     		mov	r0, r6
 758 014a 2946     		mov	r1, r5
 759 014c 4FF4FC63 		mov	r3, #2016
 760 0150 FFF7FEFF 		bl	gdispFillCircle
 761              	.LVL79:
 762              		.loc 1 63 0
 763 0154 3046     		mov	r0, r6
 764 0156 2946     		mov	r1, r5
 765 0158 1122     		movs	r2, #17
 766 015a 4FF6FF73 		movw	r3, #65535
 767 015e FFF7FEFF 		bl	gdispFillCircle
 768              	.LVL80:
 769              		.loc 1 64 0
 770 0162 3046     		mov	r0, r6
 771 0164 2946     		mov	r1, r5
 772 0166 0322     		movs	r2, #3
 773 0168 4FF4FC63 		mov	r3, #2016
 774 016c FFF7FEFF 		bl	gdispFillCircle
 775              	.LVL81:
 776              		.loc 1 62 0
 777 0170 B4F94660 		ldrsh	r6, [r4, #70]
 778 0174 B4F94850 		ldrsh	r5, [r4, #72]
 779 0178 1422     		movs	r2, #20
 780 017a 3046     		mov	r0, r6
 781 017c 2946     		mov	r1, r5
 782 017e 4FF4FC63 		mov	r3, #2016
 783 0182 FFF7FEFF 		bl	gdispFillCircle
 784              	.LVL82:
 785              		.loc 1 63 0
 786 0186 3046     		mov	r0, r6
 787 0188 2946     		mov	r1, r5
 788 018a 1122     		movs	r2, #17
 789 018c 4FF6FF73 		movw	r3, #65535
 790 0190 FFF7FEFF 		bl	gdispFillCircle
 791              	.LVL83:
 792              		.loc 1 64 0
 793 0194 3046     		mov	r0, r6
 794 0196 2946     		mov	r1, r5
 795 0198 0322     		movs	r2, #3
 796 019a 4FF4FC63 		mov	r3, #2016
 797 019e FFF7FEFF 		bl	gdispFillCircle
ARM GAS  /tmp/ccd61yKH.s 			page 15


 798              	.LVL84:
 799              		.loc 1 62 0
 800 01a2 B4F95050 		ldrsh	r5, [r4, #80]
 801 01a6 B4F95240 		ldrsh	r4, [r4, #82]
 802 01aa 1422     		movs	r2, #20
 803 01ac 2846     		mov	r0, r5
 804 01ae 2146     		mov	r1, r4
 805 01b0 4FF4FC63 		mov	r3, #2016
 806 01b4 FFF7FEFF 		bl	gdispFillCircle
 807              	.LVL85:
 808              		.loc 1 63 0
 809 01b8 2846     		mov	r0, r5
 810 01ba 2146     		mov	r1, r4
 811 01bc 1122     		movs	r2, #17
 812 01be 4FF6FF73 		movw	r3, #65535
 813 01c2 FFF7FEFF 		bl	gdispFillCircle
 814              	.LVL86:
 815              		.loc 1 64 0
 816 01c6 2846     		mov	r0, r5
 817 01c8 2146     		mov	r1, r4
 818 01ca 0322     		movs	r2, #3
 819 01cc 4FF4FC63 		mov	r3, #2016
 820              	.LBE15:
 821              	.LBE14:
 822              		.loc 1 143 0
 823 01d0 BDE87040 		pop	{r4, r5, r6, lr}
 824              	.LBB17:
 825              	.LBB16:
 826              		.loc 1 64 0
 827 01d4 FFF7FEBF 		b	gdispFillCircle
 828              	.LVL87:
 829              	.LBE16:
 830              	.LBE17:
 831              		.cfi_endproc
 832              	.LFE124:
 833              		.size	drawRingsOk, .-drawRingsOk
 834 01d8 AFF30080 		.section	.text.resetRings,"ax",%progbits
 834      AFF30080 
 835              		.align	2
 836              		.p2align 4,,15
 837              		.global	resetRings
 838              		.thumb
 839              		.thumb_func
 840              		.type	resetRings, %function
 841              	resetRings:
 842              	.LFB125:
 843              		.loc 1 151 0
 844              		.cfi_startproc
 845              		@ args = 0, pretend = 0, frame = 16
 846              		@ frame_needed = 0, uses_anonymous_args = 0
 847 0000 2DE9F04F 		push	{r4, r5, r6, r7, r8, r9, sl, fp, lr}
 848              	.LCFI4:
 849              		.cfi_def_cfa_offset 36
 850              		.cfi_offset 4, -36
 851              		.cfi_offset 5, -32
 852              		.cfi_offset 6, -28
 853              		.cfi_offset 7, -24
ARM GAS  /tmp/ccd61yKH.s 			page 16


 854              		.cfi_offset 8, -20
 855              		.cfi_offset 9, -16
 856              		.cfi_offset 10, -12
 857              		.cfi_offset 11, -8
 858              		.cfi_offset 14, -4
 859              		.loc 1 153 0
 860 0004 4FF6FF70 		movw	r0, #65535
 861              		.loc 1 151 0
 862 0008 85B0     		sub	sp, sp, #20
 863              	.LCFI5:
 864              		.cfi_def_cfa_offset 56
 865              		.loc 1 153 0
 866 000a FFF7FEFF 		bl	gdispClear
 867              	.LVL88:
 868              		.loc 1 155 0
 869 000e BE4A     		ldr	r2, .L58
 870              	.LVL89:
 871              		.loc 1 160 0
 872 0010 B2F90230 		ldrsh	r3, [r2, #2]
 873 0014 B2F90000 		ldrsh	r0, [r2, #0]
 874 0018 8342     		cmp	r3, r0
 875 001a 80F27B81 		bge	.L54
 876              		.loc 1 161 0
 877 001e 1E1E     		subs	r6, r3, #0
 878 0020 B8BF     		it	lt
 879 0022 0336     		addlt	r6, r6, #3
 880 0024 C6F38F0B 		ubfx	fp, r6, #2, #16
 881              	.LVL90:
 882              		.loc 1 162 0
 883 0028 4FF6FE77 		movw	r7, 65534	@ movhi
 884 002c 1BFB0702 		smlabb	r2, fp, r7, r0
 885              	.LVL91:
 886 0030 02EBD273 		add	r3, r2, r2, lsr #31
 887 0034 C3F34F08 		ubfx	r8, r3, #1, #16
 888              	.LVL92:
 889              		.loc 1 163 0
 890 0038 DC46     		mov	ip, fp
 891              	.LVL93:
 892              	.L56:
 893              		.loc 1 175 0
 894 003a B44C     		ldr	r4, .L58+4
 895              		.loc 1 184 0
 896 003c B44F     		ldr	r7, .L58+8
 897 003e 1FFA8CFE 		uxth	lr, ip
 898              	.LVL94:
 899 0042 1FFA88F8 		uxth	r8, r8
 900              	.LVL95:
 901              		.loc 1 177 0
 902 0046 0025     		movs	r5, #0
 903              	.LBB18:
 904              	.LBB19:
 905              		.loc 1 42 0
 906 0048 0FFA8EF6 		sxth	r6, lr
 907 004c 0FFA88FA 		sxth	sl, r8
 908              	.LBE19:
 909              	.LBE18:
 910              		.loc 1 176 0
ARM GAS  /tmp/ccd61yKH.s 			page 17


 911 0050 A4F802E0 		strh	lr, [r4, #2]	@ movhi
 912              		.loc 1 175 0
 913 0054 A4F80080 		strh	r8, [r4, #0]	@ movhi
 914              	.LBB43:
 915              	.LBB20:
 916              		.loc 1 42 0
 917 0058 1422     		movs	r2, #20
 918 005a 5046     		mov	r0, sl
 919 005c 3146     		mov	r1, r6
 920 005e 2B46     		mov	r3, r5
 921              	.LBE20:
 922              	.LBE43:
 923              		.loc 1 177 0
 924 0060 2571     		strb	r5, [r4, #4]
 925              		.loc 1 178 0
 926 0062 6571     		strb	r5, [r4, #5]
 927              		.loc 1 179 0
 928 0064 E580     		strh	r5, [r4, #6]	@ movhi
 929              		.loc 1 180 0
 930 0066 2581     		strh	r5, [r4, #8]	@ movhi
 931              	.LBB44:
 932              	.LBB21:
 933              		.loc 1 42 0
 934 0068 CDF800E0 		str	lr, [sp, #0]
 935 006c FFF7FEFF 		bl	gdispFillCircle
 936              	.LVL96:
 937              		.loc 1 43 0
 938 0070 5046     		mov	r0, sl
 939 0072 3146     		mov	r1, r6
 940 0074 1122     		movs	r2, #17
 941 0076 4FF6FF73 		movw	r3, #65535
 942 007a FFF7FEFF 		bl	gdispFillCircle
 943              	.LVL97:
 944              		.loc 1 44 0
 945 007e 5046     		mov	r0, sl
 946 0080 3146     		mov	r1, r6
 947 0082 0322     		movs	r2, #3
 948 0084 2B46     		mov	r3, r5
 949 0086 FFF7FEFF 		bl	gdispFillCircle
 950              	.LVL98:
 951              	.LBE21:
 952              	.LBE44:
 953              		.loc 1 176 0
 954 008a DDF800C0 		ldr	ip, [sp, #0]
 955              		.loc 1 175 0
 956 008e A4F80A80 		strh	r8, [r4, #10]	@ movhi
 957 0092 1FFA8BF9 		uxth	r9, fp
 958              		.loc 1 176 0
 959 0096 09EB0C00 		add	r0, r9, ip
 960 009a 81B2     		uxth	r1, r0
 961 009c 0191     		str	r1, [sp, #4]
 962 009e DDF804E0 		ldr	lr, [sp, #4]
 963              		.loc 1 177 0
 964 00a2 A573     		strb	r5, [r4, #14]
 965              	.LBB45:
 966              	.LBB22:
 967              		.loc 1 42 0
ARM GAS  /tmp/ccd61yKH.s 			page 18


 968 00a4 D346     		mov	fp, sl
 969              	.LVL99:
 970 00a6 0FFA81FA 		sxth	sl, r1
 971              	.LBE22:
 972              	.LBE45:
 973              		.loc 1 176 0
 974 00aa A4F80CE0 		strh	lr, [r4, #12]	@ movhi
 975              	.LBB46:
 976              	.LBB23:
 977              		.loc 1 42 0
 978 00ae 1422     		movs	r2, #20
 979 00b0 5846     		mov	r0, fp
 980 00b2 5146     		mov	r1, sl
 981 00b4 2B46     		mov	r3, r5
 982              	.LBE23:
 983              	.LBE46:
 984              		.loc 1 178 0
 985 00b6 E573     		strb	r5, [r4, #15]
 986              		.loc 1 179 0
 987 00b8 2582     		strh	r5, [r4, #16]	@ movhi
 988              		.loc 1 180 0
 989 00ba 6582     		strh	r5, [r4, #18]	@ movhi
 990              		.loc 1 184 0
 991 00bc 3D70     		strb	r5, [r7, #0]
 992              	.LVL100:
 993              	.LBB47:
 994              	.LBB24:
 995              		.loc 1 42 0
 996 00be CDF800C0 		str	ip, [sp, #0]
 997 00c2 FFF7FEFF 		bl	gdispFillCircle
 998              	.LVL101:
 999              		.loc 1 43 0
 1000 00c6 5846     		mov	r0, fp
 1001 00c8 5146     		mov	r1, sl
 1002 00ca 1122     		movs	r2, #17
 1003 00cc 4FF6FF73 		movw	r3, #65535
 1004 00d0 FFF7FEFF 		bl	gdispFillCircle
 1005              	.LVL102:
 1006              		.loc 1 44 0
 1007 00d4 5846     		mov	r0, fp
 1008 00d6 5146     		mov	r1, sl
 1009 00d8 0322     		movs	r2, #3
 1010 00da 2B46     		mov	r3, r5
 1011 00dc FFF7FEFF 		bl	gdispFillCircle
 1012              	.LVL103:
 1013              	.LBE24:
 1014              	.LBE47:
 1015              		.loc 1 176 0
 1016 00e0 DDF800C0 		ldr	ip, [sp, #0]
 1017              		.loc 1 175 0
 1018 00e4 A4F81480 		strh	r8, [r4, #20]	@ movhi
 1019              		.loc 1 176 0
 1020 00e8 4FEA4902 		lsl	r2, r9, #1
 1021 00ec 93B2     		uxth	r3, r2
 1022 00ee 03EB0C00 		add	r0, r3, ip
 1023 00f2 81B2     		uxth	r1, r0
 1024 00f4 0291     		str	r1, [sp, #8]
ARM GAS  /tmp/ccd61yKH.s 			page 19


 1025 00f6 DDF808E0 		ldr	lr, [sp, #8]
 1026 00fa 0393     		str	r3, [sp, #12]
 1027              	.LBB48:
 1028              	.LBB25:
 1029              		.loc 1 42 0
 1030 00fc 0FFA81FA 		sxth	sl, r1
 1031              	.LBE25:
 1032              	.LBE48:
 1033              		.loc 1 176 0
 1034 0100 A4F816E0 		strh	lr, [r4, #22]	@ movhi
 1035              	.LBB49:
 1036              	.LBB26:
 1037              		.loc 1 42 0
 1038 0104 1422     		movs	r2, #20
 1039 0106 5846     		mov	r0, fp
 1040 0108 5146     		mov	r1, sl
 1041 010a 2B46     		mov	r3, r5
 1042              	.LBE26:
 1043              	.LBE49:
 1044              		.loc 1 177 0
 1045 010c 2576     		strb	r5, [r4, #24]
 1046              		.loc 1 178 0
 1047 010e 6576     		strb	r5, [r4, #25]
 1048              		.loc 1 179 0
 1049 0110 6583     		strh	r5, [r4, #26]	@ movhi
 1050              		.loc 1 180 0
 1051 0112 A583     		strh	r5, [r4, #28]	@ movhi
 1052              		.loc 1 184 0
 1053 0114 FD70     		strb	r5, [r7, #3]
 1054              	.LVL104:
 1055              	.LBB50:
 1056              	.LBB27:
 1057              		.loc 1 42 0
 1058 0116 CDF800C0 		str	ip, [sp, #0]
 1059 011a FFF7FEFF 		bl	gdispFillCircle
 1060              	.LVL105:
 1061              		.loc 1 43 0
 1062 011e 5846     		mov	r0, fp
 1063 0120 5146     		mov	r1, sl
 1064 0122 1122     		movs	r2, #17
 1065 0124 4FF6FF73 		movw	r3, #65535
 1066 0128 FFF7FEFF 		bl	gdispFillCircle
 1067              	.LVL106:
 1068              		.loc 1 44 0
 1069 012c 5846     		mov	r0, fp
 1070 012e 5146     		mov	r1, sl
 1071 0130 0322     		movs	r2, #3
 1072 0132 2B46     		mov	r3, r5
 1073 0134 FFF7FEFF 		bl	gdispFillCircle
 1074              	.LVL107:
 1075 0138 C144     		add	r9, r9, r8
 1076              		.loc 1 42 0
 1077 013a DDF800C0 		ldr	ip, [sp, #0]
 1078              	.LBE27:
 1079              	.LBE50:
 1080              		.loc 1 177 0
 1081 013e 84F82250 		strb	r5, [r4, #34]
ARM GAS  /tmp/ccd61yKH.s 			page 20


 1082 0142 1FFA89F9 		uxth	r9, r9
 1083              	.LBB51:
 1084              	.LBB28:
 1085              		.loc 1 42 0
 1086 0146 0FFA8CFA 		sxth	sl, ip
 1087 014a 0FFA89FB 		sxth	fp, r9
 1088              	.LBE28:
 1089              	.LBE51:
 1090              		.loc 1 176 0
 1091 014e A4F820C0 		strh	ip, [r4, #32]	@ movhi
 1092              	.LBB52:
 1093              	.LBB29:
 1094              		.loc 1 42 0
 1095 0152 1422     		movs	r2, #20
 1096 0154 5146     		mov	r1, sl
 1097              	.LBE29:
 1098              	.LBE52:
 1099              		.loc 1 175 0
 1100 0156 A4F81E90 		strh	r9, [r4, #30]	@ movhi
 1101              	.LBB53:
 1102              	.LBB30:
 1103              		.loc 1 42 0
 1104 015a 2B46     		mov	r3, r5
 1105 015c 5846     		mov	r0, fp
 1106              	.LBE30:
 1107              	.LBE53:
 1108              		.loc 1 178 0
 1109 015e 84F82350 		strb	r5, [r4, #35]
 1110              		.loc 1 179 0
 1111 0162 A584     		strh	r5, [r4, #36]	@ movhi
 1112              		.loc 1 180 0
 1113 0164 E584     		strh	r5, [r4, #38]	@ movhi
 1114              		.loc 1 184 0
 1115 0166 BD71     		strb	r5, [r7, #6]
 1116              	.LVL108:
 1117              	.LBB54:
 1118              	.LBB31:
 1119              		.loc 1 42 0
 1120 0168 CDF800C0 		str	ip, [sp, #0]
 1121 016c FFF7FEFF 		bl	gdispFillCircle
 1122              	.LVL109:
 1123              		.loc 1 43 0
 1124 0170 5146     		mov	r1, sl
 1125 0172 1122     		movs	r2, #17
 1126 0174 5846     		mov	r0, fp
 1127 0176 4FF6FF73 		movw	r3, #65535
 1128 017a FFF7FEFF 		bl	gdispFillCircle
 1129              	.LVL110:
 1130              		.loc 1 42 0
 1131 017e 019A     		ldr	r2, [sp, #4]
 1132              		.loc 1 44 0
 1133 0180 5146     		mov	r1, sl
 1134 0182 5846     		mov	r0, fp
 1135              		.loc 1 42 0
 1136 0184 0FFA82FA 		sxth	sl, r2
 1137              		.loc 1 44 0
 1138 0188 2B46     		mov	r3, r5
ARM GAS  /tmp/ccd61yKH.s 			page 21


 1139 018a 0322     		movs	r2, #3
 1140 018c FFF7FEFF 		bl	gdispFillCircle
 1141              	.LVL111:
 1142              	.LBE31:
 1143              	.LBE54:
 1144              		.loc 1 176 0
 1145 0190 DDF804E0 		ldr	lr, [sp, #4]
 1146              		.loc 1 175 0
 1147 0194 A4F82890 		strh	r9, [r4, #40]	@ movhi
 1148              		.loc 1 176 0
 1149 0198 A4F82AE0 		strh	lr, [r4, #42]	@ movhi
 1150              	.LBB55:
 1151              	.LBB32:
 1152              		.loc 1 42 0
 1153 019c 1422     		movs	r2, #20
 1154 019e 5146     		mov	r1, sl
 1155 01a0 2B46     		mov	r3, r5
 1156 01a2 5846     		mov	r0, fp
 1157              	.LBE32:
 1158              	.LBE55:
 1159              		.loc 1 177 0
 1160 01a4 84F82C50 		strb	r5, [r4, #44]
 1161              		.loc 1 178 0
 1162 01a8 84F82D50 		strb	r5, [r4, #45]
 1163              		.loc 1 179 0
 1164 01ac E585     		strh	r5, [r4, #46]	@ movhi
 1165              		.loc 1 180 0
 1166 01ae 2586     		strh	r5, [r4, #48]	@ movhi
 1167              		.loc 1 184 0
 1168 01b0 7D70     		strb	r5, [r7, #1]
 1169              	.LVL112:
 1170              	.LBB56:
 1171              	.LBB33:
 1172              		.loc 1 42 0
 1173 01b2 FFF7FEFF 		bl	gdispFillCircle
 1174              	.LVL113:
 1175              		.loc 1 43 0
 1176 01b6 5146     		mov	r1, sl
 1177 01b8 1122     		movs	r2, #17
 1178 01ba 5846     		mov	r0, fp
 1179 01bc 4FF6FF73 		movw	r3, #65535
 1180 01c0 FFF7FEFF 		bl	gdispFillCircle
 1181              	.LVL114:
 1182              		.loc 1 42 0
 1183 01c4 029B     		ldr	r3, [sp, #8]
 1184              		.loc 1 44 0
 1185 01c6 5146     		mov	r1, sl
 1186 01c8 0322     		movs	r2, #3
 1187              		.loc 1 42 0
 1188 01ca 0FFA83FA 		sxth	sl, r3
 1189              		.loc 1 44 0
 1190 01ce 5846     		mov	r0, fp
 1191 01d0 2B46     		mov	r3, r5
 1192 01d2 FFF7FEFF 		bl	gdispFillCircle
 1193              	.LVL115:
 1194              	.LBE33:
 1195              	.LBE56:
ARM GAS  /tmp/ccd61yKH.s 			page 22


 1196              		.loc 1 175 0
 1197 01d6 A4F83290 		strh	r9, [r4, #50]	@ movhi
 1198              		.loc 1 176 0
 1199 01da DDF80890 		ldr	r9, [sp, #8]
 1200              	.LVL116:
 1201              		.loc 1 177 0
 1202 01de 84F83650 		strb	r5, [r4, #54]
 1203              	.LBB57:
 1204              	.LBB34:
 1205              		.loc 1 42 0
 1206 01e2 5146     		mov	r1, sl
 1207 01e4 1422     		movs	r2, #20
 1208 01e6 2B46     		mov	r3, r5
 1209 01e8 5846     		mov	r0, fp
 1210              	.LBE34:
 1211              	.LBE57:
 1212              		.loc 1 176 0
 1213 01ea A4F83490 		strh	r9, [r4, #52]	@ movhi
 1214              		.loc 1 178 0
 1215 01ee 84F83750 		strb	r5, [r4, #55]
 1216              		.loc 1 179 0
 1217 01f2 2587     		strh	r5, [r4, #56]	@ movhi
 1218              		.loc 1 180 0
 1219 01f4 6587     		strh	r5, [r4, #58]	@ movhi
 1220              		.loc 1 184 0
 1221 01f6 3D71     		strb	r5, [r7, #4]
 1222              	.LVL117:
 1223              	.LBB58:
 1224              	.LBB35:
 1225              		.loc 1 42 0
 1226 01f8 FFF7FEFF 		bl	gdispFillCircle
 1227              	.LVL118:
 1228              		.loc 1 43 0
 1229 01fc 1122     		movs	r2, #17
 1230 01fe 5146     		mov	r1, sl
 1231 0200 5846     		mov	r0, fp
 1232 0202 4FF6FF73 		movw	r3, #65535
 1233 0206 FFF7FEFF 		bl	gdispFillCircle
 1234              	.LVL119:
 1235              		.loc 1 44 0
 1236 020a 5146     		mov	r1, sl
 1237 020c 5846     		mov	r0, fp
 1238 020e 0322     		movs	r2, #3
 1239 0210 2B46     		mov	r3, r5
 1240 0212 FFF7FEFF 		bl	gdispFillCircle
 1241              	.LVL120:
 1242 0216 0398     		ldr	r0, [sp, #12]
 1243              		.loc 1 42 0
 1244 0218 DDF800C0 		ldr	ip, [sp, #0]
 1245              	.LBE35:
 1246              	.LBE58:
 1247              		.loc 1 177 0
 1248 021c 84F84050 		strb	r5, [r4, #64]
 1249 0220 8044     		add	r8, r8, r0
 1250 0222 1FFA88F8 		uxth	r8, r8
 1251              	.LBB59:
 1252              	.LBB36:
ARM GAS  /tmp/ccd61yKH.s 			page 23


 1253              		.loc 1 42 0
 1254 0226 0FFA8CF9 		sxth	r9, ip
 1255 022a 0FFA88FA 		sxth	sl, r8
 1256              	.LBE36:
 1257              	.LBE59:
 1258              		.loc 1 176 0
 1259 022e A4F83EC0 		strh	ip, [r4, #62]	@ movhi
 1260              	.LBB60:
 1261              	.LBB37:
 1262              		.loc 1 42 0
 1263 0232 4946     		mov	r1, r9
 1264 0234 1422     		movs	r2, #20
 1265 0236 2B46     		mov	r3, r5
 1266 0238 5046     		mov	r0, sl
 1267              	.LBE37:
 1268              	.LBE60:
 1269              		.loc 1 175 0
 1270 023a A4F83C80 		strh	r8, [r4, #60]	@ movhi
 1271              		.loc 1 178 0
 1272 023e 84F84150 		strb	r5, [r4, #65]
 1273              		.loc 1 179 0
 1274 0242 A4F84250 		strh	r5, [r4, #66]	@ movhi
 1275              		.loc 1 180 0
 1276 0246 A4F84450 		strh	r5, [r4, #68]	@ movhi
 1277              		.loc 1 184 0
 1278 024a FD71     		strb	r5, [r7, #7]
 1279              	.LVL121:
 1280              	.LBB61:
 1281              	.LBB38:
 1282              		.loc 1 42 0
 1283 024c FFF7FEFF 		bl	gdispFillCircle
 1284              	.LVL122:
 1285              		.loc 1 43 0
 1286 0250 4946     		mov	r1, r9
 1287 0252 5046     		mov	r0, sl
 1288 0254 1122     		movs	r2, #17
 1289 0256 4FF6FF73 		movw	r3, #65535
 1290 025a FFF7FEFF 		bl	gdispFillCircle
 1291              	.LVL123:
 1292              		.loc 1 42 0
 1293 025e 019A     		ldr	r2, [sp, #4]
 1294              		.loc 1 44 0
 1295 0260 4946     		mov	r1, r9
 1296 0262 5046     		mov	r0, sl
 1297              		.loc 1 42 0
 1298 0264 0FFA82F9 		sxth	r9, r2
 1299              		.loc 1 44 0
 1300 0268 2B46     		mov	r3, r5
 1301 026a 0322     		movs	r2, #3
 1302 026c FFF7FEFF 		bl	gdispFillCircle
 1303              	.LVL124:
 1304              	.LBE38:
 1305              	.LBE61:
 1306              		.loc 1 176 0
 1307 0270 DDF804E0 		ldr	lr, [sp, #4]
 1308              		.loc 1 175 0
 1309 0274 A4F84680 		strh	r8, [r4, #70]	@ movhi
ARM GAS  /tmp/ccd61yKH.s 			page 24


 1310              		.loc 1 176 0
 1311 0278 A4F848E0 		strh	lr, [r4, #72]	@ movhi
 1312              	.LBB62:
 1313              	.LBB39:
 1314              		.loc 1 42 0
 1315 027c 4946     		mov	r1, r9
 1316 027e 1422     		movs	r2, #20
 1317 0280 2B46     		mov	r3, r5
 1318 0282 5046     		mov	r0, sl
 1319              	.LBE39:
 1320              	.LBE62:
 1321              		.loc 1 177 0
 1322 0284 84F84A50 		strb	r5, [r4, #74]
 1323              		.loc 1 178 0
 1324 0288 84F84B50 		strb	r5, [r4, #75]
 1325              		.loc 1 179 0
 1326 028c A4F84C50 		strh	r5, [r4, #76]	@ movhi
 1327              		.loc 1 180 0
 1328 0290 A4F84E50 		strh	r5, [r4, #78]	@ movhi
 1329              		.loc 1 184 0
 1330 0294 BD70     		strb	r5, [r7, #2]
 1331              	.LVL125:
 1332              	.LBB63:
 1333              	.LBB40:
 1334              		.loc 1 42 0
 1335 0296 FFF7FEFF 		bl	gdispFillCircle
 1336              	.LVL126:
 1337              		.loc 1 43 0
 1338 029a 4946     		mov	r1, r9
 1339 029c 5046     		mov	r0, sl
 1340 029e 1122     		movs	r2, #17
 1341 02a0 4FF6FF73 		movw	r3, #65535
 1342 02a4 FFF7FEFF 		bl	gdispFillCircle
 1343              	.LVL127:
 1344              		.loc 1 42 0
 1345 02a8 029B     		ldr	r3, [sp, #8]
 1346              		.loc 1 44 0
 1347 02aa 4946     		mov	r1, r9
 1348 02ac 5046     		mov	r0, sl
 1349              		.loc 1 42 0
 1350 02ae 0FFA83F9 		sxth	r9, r3
 1351              		.loc 1 44 0
 1352 02b2 0322     		movs	r2, #3
 1353 02b4 2B46     		mov	r3, r5
 1354 02b6 FFF7FEFF 		bl	gdispFillCircle
 1355              	.LVL128:
 1356              	.LBE40:
 1357              	.LBE63:
 1358              		.loc 1 176 0
 1359 02ba DDF808C0 		ldr	ip, [sp, #8]
 1360              		.loc 1 175 0
 1361 02be A4F85080 		strh	r8, [r4, #80]	@ movhi
 1362              		.loc 1 176 0
 1363 02c2 A4F852C0 		strh	ip, [r4, #82]	@ movhi
 1364              	.LBB64:
 1365              	.LBB41:
 1366              		.loc 1 42 0
ARM GAS  /tmp/ccd61yKH.s 			page 25


 1367 02c6 1422     		movs	r2, #20
 1368 02c8 2B46     		mov	r3, r5
 1369 02ca 5046     		mov	r0, sl
 1370 02cc 4946     		mov	r1, r9
 1371              	.LBE41:
 1372              	.LBE64:
 1373              		.loc 1 177 0
 1374 02ce 84F85450 		strb	r5, [r4, #84]
 1375              		.loc 1 178 0
 1376 02d2 84F85550 		strb	r5, [r4, #85]
 1377              		.loc 1 179 0
 1378 02d6 A4F85650 		strh	r5, [r4, #86]	@ movhi
 1379              		.loc 1 180 0
 1380 02da A4F85850 		strh	r5, [r4, #88]	@ movhi
 1381              		.loc 1 184 0
 1382 02de 7D71     		strb	r5, [r7, #5]
 1383              	.LVL129:
 1384              	.LBB65:
 1385              	.LBB42:
 1386              		.loc 1 42 0
 1387 02e0 FFF7FEFF 		bl	gdispFillCircle
 1388              	.LVL130:
 1389              		.loc 1 43 0
 1390 02e4 5046     		mov	r0, sl
 1391 02e6 4946     		mov	r1, r9
 1392 02e8 1122     		movs	r2, #17
 1393 02ea 4FF6FF73 		movw	r3, #65535
 1394 02ee FFF7FEFF 		bl	gdispFillCircle
 1395              	.LVL131:
 1396              		.loc 1 44 0
 1397 02f2 5046     		mov	r0, sl
 1398 02f4 4946     		mov	r1, r9
 1399 02f6 0322     		movs	r2, #3
 1400 02f8 2B46     		mov	r3, r5
 1401 02fa FFF7FEFF 		bl	gdispFillCircle
 1402              	.LVL132:
 1403              	.LBE42:
 1404              	.LBE65:
 1405              		.loc 1 179 0
 1406 02fe 2E46     		mov	r6, r5	@ movhi
 1407              		.loc 1 184 0
 1408 0300 3D72     		strb	r5, [r7, #8]
 1409              	.LVL133:
 1410              		.loc 1 190 0
 1411 0302 05B0     		add	sp, sp, #20
 1412 0304 BDE8F08F 		pop	{r4, r5, r6, r7, r8, r9, sl, fp, pc}
 1413              	.L59:
 1414              		.align	2
 1415              	.L58:
 1416 0308 00000000 		.word	GDISP
 1417 030c 00000000 		.word	.LANCHOR0
 1418 0310 00000000 		.word	.LANCHOR1
 1419              	.LVL134:
 1420              	.L54:
 1421              		.loc 1 165 0
 1422 0314 B0F10009 		subs	r9, r0, #0
 1423 0318 B8BF     		it	lt
ARM GAS  /tmp/ccd61yKH.s 			page 26


 1424 031a 09F10309 		addlt	r9, r9, #3
 1425 031e C9F38F0B 		ubfx	fp, r9, #2, #16
 1426              	.LVL135:
 1427              		.loc 1 167 0
 1428 0322 4FF6FE71 		movw	r1, 65534	@ movhi
 1429 0326 1BFB0134 		smlabb	r4, fp, r1, r3
 1430 032a 04EBD475 		add	r5, r4, r4, lsr #31
 1431 032e C5F34F0C 		ubfx	ip, r5, #1, #16
 1432              	.LVL136:
 1433              		.loc 1 166 0
 1434 0332 D846     		mov	r8, fp
 1435 0334 81E6     		b	.L56
 1436              		.cfi_endproc
 1437              	.LFE125:
 1438              		.size	resetRings, .-resetRings
 1439 0336 00BFAFF3 		.section	.text.unlocker,"ax",%progbits
 1439      0080AFF3 
 1439      0080
 1440              		.align	2
 1441              		.p2align 4,,15
 1442              		.global	unlocker
 1443              		.thumb
 1444              		.thumb_func
 1445              		.type	unlocker, %function
 1446              	unlocker:
 1447              	.LFB126:
 1448              		.loc 1 196 0
 1449              		.cfi_startproc
 1450              		@ args = 0, pretend = 0, frame = 24
 1451              		@ frame_needed = 0, uses_anonymous_args = 0
 1452              	.LVL137:
 1453 0000 2DE9F04F 		push	{r4, r5, r6, r7, r8, r9, sl, fp, lr}
 1454              	.LCFI6:
 1455              		.cfi_def_cfa_offset 36
 1456              		.cfi_offset 4, -36
 1457              		.cfi_offset 5, -32
 1458              		.cfi_offset 6, -28
 1459              		.cfi_offset 7, -24
 1460              		.cfi_offset 8, -20
 1461              		.cfi_offset 9, -16
 1462              		.cfi_offset 10, -12
 1463              		.cfi_offset 11, -8
 1464              		.cfi_offset 14, -4
 1465 0004 324D     		ldr	r5, .L149
 1466              		.loc 1 258 0
 1467 0006 334C     		ldr	r4, .L149+4
 1468              		.loc 1 226 0
 1469 0008 DFF8CCA0 		ldr	sl, .L149+8
 1470              		.loc 1 196 0
 1471 000c 87B0     		sub	sp, sp, #28
 1472              	.LCFI7:
 1473              		.cfi_def_cfa_offset 64
 1474              		.loc 1 202 0
 1475 000e 4FF0000B 		mov	fp, #0
 1476              		.loc 1 196 0
 1477 0012 0646     		mov	r6, r0
 1478 0014 0491     		str	r1, [sp, #16]
ARM GAS  /tmp/ccd61yKH.s 			page 27


 1479              		.loc 1 200 0
 1480 0016 D946     		mov	r9, fp
 1481              		.loc 1 197 0
 1482 0018 FFF7FEFF 		bl	resetRings
 1483              	.LVL138:
 1484              		.loc 1 205 0
 1485 001c A846     		mov	r8, r5
 1486              		.loc 1 201 0
 1487 001e CDF808B0 		str	fp, [sp, #8]
 1488 0022 CDF80CB0 		str	fp, [sp, #12]
 1489              		.loc 1 200 0
 1490 0026 CDF804B0 		str	fp, [sp, #4]
 1491              	.LVL139:
 1492              	.L139:
 1493              		.loc 1 205 0
 1494 002a 0020     		movs	r0, #0
 1495 002c 2849     		ldr	r1, .L149
 1496 002e FFF7FEFF 		bl	ginputGetMouseStatus
 1497              	.LVL140:
 1498              		.loc 1 208 0
 1499 0032 6B89     		ldrh	r3, [r5, #10]
 1500 0034 DB07     		lsls	r3, r3, #31
 1501 0036 51D4     		bmi	.L62
 1502              		.loc 1 209 0
 1503 0038 B9F1000F 		cmp	r9, #0
 1504 003c F5D0     		beq	.L139
 1505              		.loc 1 209 0 is_stmt 0 discriminator 1
 1506 003e 019A     		ldr	r2, [sp, #4]
 1507 0040 002A     		cmp	r2, #0
 1508 0042 F2D0     		beq	.L139
 1509              	.LVL141:
 1510              		.loc 1 213 0 is_stmt 1
 1511 0044 0499     		ldr	r1, [sp, #16]
 1512 0046 0029     		cmp	r1, #0
 1513 0048 40F0D383 		bne	.L140
 1514              		.loc 1 226 0
 1515 004c 40F20000 		movw	r0, #:lower16:.LANCHOR1
 1516 0050 C0F20000 		movt	r0, #:upper16:.LANCHOR1
 1517 0054 3278     		ldrb	r2, [r6, #0]	@ zero_extendqisi2
 1518 0056 0378     		ldrb	r3, [r0, #0]	@ zero_extendqisi2
 1519 0058 9A42     		cmp	r2, r3
 1520 005a 40F07681 		bne	.L65
 1521              	.LVL142:
 1522 005e 7178     		ldrb	r1, [r6, #1]	@ zero_extendqisi2
 1523 0060 9AF80120 		ldrb	r2, [sl, #1]	@ zero_extendqisi2
 1524 0064 9142     		cmp	r1, r2
 1525 0066 40F07081 		bne	.L65
 1526              	.LVL143:
 1527 006a B178     		ldrb	r1, [r6, #2]	@ zero_extendqisi2
 1528 006c 9AF80230 		ldrb	r3, [sl, #2]	@ zero_extendqisi2
 1529 0070 9942     		cmp	r1, r3
 1530 0072 40F06A81 		bne	.L65
 1531              	.LVL144:
 1532 0076 F278     		ldrb	r2, [r6, #3]	@ zero_extendqisi2
 1533 0078 9AF80310 		ldrb	r1, [sl, #3]	@ zero_extendqisi2
 1534 007c 8A42     		cmp	r2, r1
 1535 007e 40F06481 		bne	.L65
ARM GAS  /tmp/ccd61yKH.s 			page 28


 1536              	.LVL145:
 1537 0082 3279     		ldrb	r2, [r6, #4]	@ zero_extendqisi2
 1538 0084 9AF80430 		ldrb	r3, [sl, #4]	@ zero_extendqisi2
 1539 0088 9A42     		cmp	r2, r3
 1540 008a 40F05E81 		bne	.L65
 1541              	.LVL146:
 1542 008e 7179     		ldrb	r1, [r6, #5]	@ zero_extendqisi2
 1543 0090 9AF80520 		ldrb	r2, [sl, #5]	@ zero_extendqisi2
 1544 0094 9142     		cmp	r1, r2
 1545 0096 40F05881 		bne	.L65
 1546              	.LVL147:
 1547 009a B179     		ldrb	r1, [r6, #6]	@ zero_extendqisi2
 1548 009c 8079     		ldrb	r0, [r0, #6]	@ zero_extendqisi2
 1549 009e 8142     		cmp	r1, r0
 1550 00a0 40F05381 		bne	.L65
 1551              	.LVL148:
 1552 00a4 F279     		ldrb	r2, [r6, #7]	@ zero_extendqisi2
 1553 00a6 9AF80730 		ldrb	r3, [sl, #7]	@ zero_extendqisi2
 1554 00aa 9A42     		cmp	r2, r3
 1555 00ac 40F04D81 		bne	.L65
 1556              	.LVL149:
 1557 00b0 317A     		ldrb	r1, [r6, #8]	@ zero_extendqisi2
 1558 00b2 9AF80800 		ldrb	r0, [sl, #8]	@ zero_extendqisi2
 1559 00b6 8142     		cmp	r1, r0
 1560 00b8 40F04781 		bne	.L65
 1561              	.LVL150:
 1562              		.loc 1 244 0
 1563 00bc FFF7FEFF 		bl	drawRingsOk
 1564              	.LVL151:
 1565              		.loc 1 245 0
 1566 00c0 4FF49660 		mov	r0, #1200
 1567              		.loc 1 287 0
 1568 00c4 07B0     		add	sp, sp, #28
 1569 00c6 BDE8F04F 		pop	{r4, r5, r6, r7, r8, r9, sl, fp, lr}
 1570              		.loc 1 245 0
 1571 00ca FFF7FEBF 		b	gfxSleepMilliseconds
 1572              	.LVL152:
 1573              	.L150:
 1574 00ce 00BF     		.align	2
 1575              	.L149:
 1576 00d0 00000000 		.word	.LANCHOR2
 1577 00d4 00000000 		.word	.LANCHOR0
 1578 00d8 00000000 		.word	.LANCHOR1
 1579              	.LVL153:
 1580              	.L62:
 1581              		.loc 1 258 0
 1582 00dc 2079     		ldrb	r0, [r4, #4]	@ zero_extendqisi2
 1583 00de C94F     		ldr	r7, .L151
 1584 00e0 B0B9     		cbnz	r0, .L68
 1585              		.loc 1 259 0
 1586 00e2 B7F90020 		ldrsh	r2, [r7, #0]
 1587 00e6 B8F90430 		ldrsh	r3, [r8, #4]
 1588 00ea A2F10D01 		sub	r1, r2, #13
 1589 00ee 8B42     		cmp	r3, r1
 1590 00f0 0EDB     		blt	.L68
 1591              		.loc 1 260 0
 1592 00f2 0D32     		adds	r2, r2, #13
ARM GAS  /tmp/ccd61yKH.s 			page 29


 1593 00f4 9A42     		cmp	r2, r3
 1594 00f6 0BDB     		blt	.L68
 1595              		.loc 1 261 0
 1596 00f8 B7F90200 		ldrsh	r0, [r7, #2]
 1597 00fc B8F90620 		ldrsh	r2, [r8, #6]
 1598 0100 A0F10D03 		sub	r3, r0, #13
 1599 0104 9A42     		cmp	r2, r3
 1600 0106 03DB     		blt	.L68
 1601              		.loc 1 262 0
 1602 0108 0D30     		adds	r0, r0, #13
 1603 010a 9042     		cmp	r0, r2
 1604 010c 80F22A83 		bge	.L141
 1605              	.LVL154:
 1606              	.L68:
 1607              		.loc 1 258 0
 1608 0110 A37B     		ldrb	r3, [r4, #14]	@ zero_extendqisi2
 1609 0112 B3B9     		cbnz	r3, .L70
 1610              		.loc 1 259 0
 1611 0114 B4F90A20 		ldrsh	r2, [r4, #10]
 1612 0118 B5F90400 		ldrsh	r0, [r5, #4]
 1613 011c A2F10D01 		sub	r1, r2, #13
 1614 0120 8142     		cmp	r1, r0
 1615 0122 0EDC     		bgt	.L70
 1616              		.loc 1 260 0
 1617 0124 0D32     		adds	r2, r2, #13
 1618 0126 9042     		cmp	r0, r2
 1619 0128 0BDC     		bgt	.L70
 1620              		.loc 1 261 0
 1621 012a B4F90C20 		ldrsh	r2, [r4, #12]
 1622 012e B8F90630 		ldrsh	r3, [r8, #6]
 1623 0132 A2F10D00 		sub	r0, r2, #13
 1624 0136 9842     		cmp	r0, r3
 1625 0138 03DC     		bgt	.L70
 1626              		.loc 1 262 0
 1627 013a 0D32     		adds	r2, r2, #13
 1628 013c 9342     		cmp	r3, r2
 1629 013e 40F3CB82 		ble	.L142
 1630              	.LVL155:
 1631              	.L70:
 1632              		.loc 1 258 0
 1633 0142 217E     		ldrb	r1, [r4, #24]	@ zero_extendqisi2
 1634 0144 B1B9     		cbnz	r1, .L72
 1635              		.loc 1 259 0
 1636 0146 B4F91420 		ldrsh	r2, [r4, #20]
 1637 014a B5F90400 		ldrsh	r0, [r5, #4]
 1638 014e A2F10D03 		sub	r3, r2, #13
 1639 0152 8342     		cmp	r3, r0
 1640 0154 0EDC     		bgt	.L72
 1641              		.loc 1 260 0
 1642 0156 0D32     		adds	r2, r2, #13
 1643 0158 9042     		cmp	r0, r2
 1644 015a 0BDC     		bgt	.L72
 1645              		.loc 1 261 0
 1646 015c B4F91620 		ldrsh	r2, [r4, #22]
 1647 0160 B8F90600 		ldrsh	r0, [r8, #6]
 1648 0164 A2F10D01 		sub	r1, r2, #13
 1649 0168 8142     		cmp	r1, r0
ARM GAS  /tmp/ccd61yKH.s 			page 30


 1650 016a 03DC     		bgt	.L72
 1651              		.loc 1 262 0
 1652 016c 0D32     		adds	r2, r2, #13
 1653 016e 9042     		cmp	r0, r2
 1654 0170 40F36C82 		ble	.L143
 1655              	.LVL156:
 1656              	.L72:
 1657              		.loc 1 258 0
 1658 0174 94F82200 		ldrb	r0, [r4, #34]	@ zero_extendqisi2
 1659 0178 B0B9     		cbnz	r0, .L75
 1660              		.loc 1 259 0
 1661 017a B4F91E20 		ldrsh	r2, [r4, #30]
 1662 017e B5F90430 		ldrsh	r3, [r5, #4]
 1663 0182 A2F10D01 		sub	r1, r2, #13
 1664 0186 9942     		cmp	r1, r3
 1665 0188 0EDC     		bgt	.L75
 1666              		.loc 1 260 0
 1667 018a 0D32     		adds	r2, r2, #13
 1668 018c 9342     		cmp	r3, r2
 1669 018e 0BDC     		bgt	.L75
 1670              		.loc 1 261 0
 1671 0190 B4F92000 		ldrsh	r0, [r4, #32]
 1672 0194 B8F90620 		ldrsh	r2, [r8, #6]
 1673 0198 A0F10D03 		sub	r3, r0, #13
 1674 019c 9342     		cmp	r3, r2
 1675 019e 03DC     		bgt	.L75
 1676              		.loc 1 262 0
 1677 01a0 0D30     		adds	r0, r0, #13
 1678 01a2 8242     		cmp	r2, r0
 1679 01a4 40F30982 		ble	.L144
 1680              	.LVL157:
 1681              	.L75:
 1682              		.loc 1 258 0
 1683 01a8 94F82C20 		ldrb	r2, [r4, #44]	@ zero_extendqisi2
 1684 01ac B2B9     		cbnz	r2, .L77
 1685              		.loc 1 259 0
 1686 01ae B4F92800 		ldrsh	r0, [r4, #40]
 1687 01b2 B5F90430 		ldrsh	r3, [r5, #4]
 1688 01b6 A0F10D01 		sub	r1, r0, #13
 1689 01ba 9942     		cmp	r1, r3
 1690 01bc 0EDC     		bgt	.L77
 1691              		.loc 1 260 0
 1692 01be 0D30     		adds	r0, r0, #13
 1693 01c0 8342     		cmp	r3, r0
 1694 01c2 0BDC     		bgt	.L77
 1695              		.loc 1 261 0
 1696 01c4 B4F92A20 		ldrsh	r2, [r4, #42]
 1697 01c8 B8F90600 		ldrsh	r0, [r8, #6]
 1698 01cc A2F10D03 		sub	r3, r2, #13
 1699 01d0 8342     		cmp	r3, r0
 1700 01d2 03DC     		bgt	.L77
 1701              		.loc 1 262 0
 1702 01d4 0D32     		adds	r2, r2, #13
 1703 01d6 9042     		cmp	r0, r2
 1704 01d8 40F3A781 		ble	.L145
 1705              	.LVL158:
 1706              	.L77:
ARM GAS  /tmp/ccd61yKH.s 			page 31


 1707              		.loc 1 258 0
 1708 01dc 94F83630 		ldrb	r3, [r4, #54]	@ zero_extendqisi2
 1709 01e0 B3B9     		cbnz	r3, .L79
 1710              		.loc 1 259 0
 1711 01e2 B4F93220 		ldrsh	r2, [r4, #50]
 1712 01e6 B5F90400 		ldrsh	r0, [r5, #4]
 1713 01ea A2F10D01 		sub	r1, r2, #13
 1714 01ee 8142     		cmp	r1, r0
 1715 01f0 0EDC     		bgt	.L79
 1716              		.loc 1 260 0
 1717 01f2 0D32     		adds	r2, r2, #13
 1718 01f4 9042     		cmp	r0, r2
 1719 01f6 0BDC     		bgt	.L79
 1720              		.loc 1 261 0
 1721 01f8 B4F93420 		ldrsh	r2, [r4, #52]
 1722 01fc B8F90630 		ldrsh	r3, [r8, #6]
 1723 0200 A2F10D00 		sub	r0, r2, #13
 1724 0204 9842     		cmp	r0, r3
 1725 0206 03DC     		bgt	.L79
 1726              		.loc 1 262 0
 1727 0208 0D32     		adds	r2, r2, #13
 1728 020a 9342     		cmp	r3, r2
 1729 020c 40F34581 		ble	.L146
 1730              	.LVL159:
 1731              	.L79:
 1732              		.loc 1 258 0
 1733 0210 94F84000 		ldrb	r0, [r4, #64]	@ zero_extendqisi2
 1734 0214 B0B9     		cbnz	r0, .L82
 1735              		.loc 1 259 0
 1736 0216 B4F93C20 		ldrsh	r2, [r4, #60]
 1737 021a B5F90430 		ldrsh	r3, [r5, #4]
 1738 021e A2F10D01 		sub	r1, r2, #13
 1739 0222 8B42     		cmp	r3, r1
 1740 0224 0EDB     		blt	.L82
 1741              		.loc 1 260 0
 1742 0226 0D32     		adds	r2, r2, #13
 1743 0228 9A42     		cmp	r2, r3
 1744 022a 0BDB     		blt	.L82
 1745              		.loc 1 261 0
 1746 022c B4F93E00 		ldrsh	r0, [r4, #62]
 1747 0230 B8F90620 		ldrsh	r2, [r8, #6]
 1748 0234 A0F10D03 		sub	r3, r0, #13
 1749 0238 9A42     		cmp	r2, r3
 1750 023a 03DB     		blt	.L82
 1751              		.loc 1 262 0
 1752 023c 0D30     		adds	r0, r0, #13
 1753 023e 9042     		cmp	r0, r2
 1754 0240 80F2E280 		bge	.L147
 1755              	.LVL160:
 1756              	.L82:
 1757              		.loc 1 258 0
 1758 0244 94F84A00 		ldrb	r0, [r4, #74]	@ zero_extendqisi2
 1759 0248 A8B9     		cbnz	r0, .L85
 1760              		.loc 1 259 0
 1761 024a B4F94620 		ldrsh	r2, [r4, #70]
 1762 024e B5F90430 		ldrsh	r3, [r5, #4]
 1763 0252 A2F10D01 		sub	r1, r2, #13
ARM GAS  /tmp/ccd61yKH.s 			page 32


 1764 0256 9942     		cmp	r1, r3
 1765 0258 0DDC     		bgt	.L85
 1766              		.loc 1 260 0
 1767 025a 0D32     		adds	r2, r2, #13
 1768 025c 9342     		cmp	r3, r2
 1769 025e 0ADC     		bgt	.L85
 1770              		.loc 1 261 0
 1771 0260 B4F94800 		ldrsh	r0, [r4, #72]
 1772 0264 B8F90620 		ldrsh	r2, [r8, #6]
 1773 0268 A0F10D03 		sub	r3, r0, #13
 1774 026c 9342     		cmp	r3, r2
 1775 026e 02DC     		bgt	.L85
 1776              		.loc 1 262 0
 1777 0270 0D30     		adds	r0, r0, #13
 1778 0272 8242     		cmp	r2, r0
 1779 0274 7BDD     		ble	.L148
 1780              	.LVL161:
 1781              	.L85:
 1782              		.loc 1 258 0
 1783 0276 94F85400 		ldrb	r0, [r4, #84]	@ zero_extendqisi2
 1784 027a 0028     		cmp	r0, #0
 1785 027c 7FF4D5AE 		bne	.L139
 1786              		.loc 1 259 0
 1787 0280 B4F95020 		ldrsh	r2, [r4, #80]
 1788 0284 B5F90430 		ldrsh	r3, [r5, #4]
 1789 0288 A2F10D01 		sub	r1, r2, #13
 1790 028c 9942     		cmp	r1, r3
 1791 028e 3FF7CCAE 		bgt	.L139
 1792              		.loc 1 260 0
 1793 0292 0D32     		adds	r2, r2, #13
 1794 0294 9342     		cmp	r3, r2
 1795 0296 3FF7C8AE 		bgt	.L139
 1796              		.loc 1 261 0
 1797 029a B4F95200 		ldrsh	r0, [r4, #82]
 1798 029e B8F90620 		ldrsh	r2, [r8, #6]
 1799 02a2 A0F10D03 		sub	r3, r0, #13
 1800 02a6 9342     		cmp	r3, r2
 1801 02a8 3FF7BFAE 		bgt	.L139
 1802              		.loc 1 262 0
 1803 02ac 0D30     		adds	r0, r0, #13
 1804 02ae 8242     		cmp	r2, r0
 1805 02b0 3FF7BBAE 		bgt	.L139
 1806              	.LVL162:
 1807              	.LBB66:
 1808              	.LBB67:
 1809              		.loc 1 49 0
 1810 02b4 B4F950E0 		ldrsh	lr, [r4, #80]
 1811 02b8 B4F95270 		ldrsh	r7, [r4, #82]
 1812 02bc CDF800E0 		str	lr, [sp, #0]
 1813              	.LBE67:
 1814              	.LBE66:
 1815              		.loc 1 264 0
 1816 02c0 0121     		movs	r1, #1
 1817              	.LBB93:
 1818              	.LBB68:
 1819              		.loc 1 49 0
 1820 02c2 7046     		mov	r0, lr
ARM GAS  /tmp/ccd61yKH.s 			page 33


 1821              	.LBE68:
 1822              	.LBE93:
 1823              		.loc 1 264 0
 1824 02c4 84F85410 		strb	r1, [r4, #84]
 1825              	.LBB94:
 1826              	.LBB69:
 1827              		.loc 1 49 0
 1828 02c8 1422     		movs	r2, #20
 1829 02ca 4FF6E073 		movw	r3, #65504
 1830 02ce 3946     		mov	r1, r7
 1831 02d0 FFF7FEFF 		bl	gdispFillCircle
 1832              	.LVL163:
 1833              		.loc 1 50 0
 1834 02d4 DDF800C0 		ldr	ip, [sp, #0]
 1835 02d8 3946     		mov	r1, r7
 1836 02da 6046     		mov	r0, ip
 1837 02dc 1122     		movs	r2, #17
 1838 02de 4FF6FF73 		movw	r3, #65535
 1839 02e2 FFF7FEFF 		bl	gdispFillCircle
 1840              	.LVL164:
 1841              		.loc 1 51 0
 1842 02e6 DDF800C0 		ldr	ip, [sp, #0]
 1843 02ea 3946     		mov	r1, r7
 1844 02ec 6046     		mov	r0, ip
 1845 02ee 0322     		movs	r2, #3
 1846 02f0 4FF6E073 		movw	r3, #65504
 1847 02f4 FFF7FEFF 		bl	gdispFillCircle
 1848              	.LVL165:
 1849              	.LBE69:
 1850              	.LBE94:
 1851              		.loc 1 268 0
 1852 02f8 B9F1000F 		cmp	r9, #0
 1853 02fc 10D0     		beq	.L67
 1854              		.loc 1 268 0 is_stmt 0 discriminator 1
 1855 02fe 0198     		ldr	r0, [sp, #4]
 1856 0300 70B1     		cbz	r0, .L67
 1857              		.loc 1 271 0 is_stmt 1
 1858 0302 039A     		ldr	r2, [sp, #12]
 1859 0304 029B     		ldr	r3, [sp, #8]
 1860              		.loc 1 269 0
 1861 0306 A4F85690 		strh	r9, [r4, #86]	@ movhi
 1862              		.loc 1 271 0
 1863 030a 511C     		adds	r1, r2, #1
 1864 030c 03EB4300 		add	r0, r3, r3, lsl #1
 1865 0310 0A18     		adds	r2, r1, r0
 1866              		.loc 1 270 0
 1867 0312 0199     		ldr	r1, [sp, #4]
 1868              		.loc 1 271 0
 1869 0314 84F85520 		strb	r2, [r4, #85]
 1870              		.loc 1 270 0
 1871 0318 A4F85810 		strh	r1, [r4, #88]	@ movhi
 1872              		.loc 1 272 0
 1873 031c FFF7FEFF 		bl	redrawLines
 1874              	.LVL166:
 1875              	.L67:
 1876              		.loc 1 279 0
 1877 0320 40F20001 		movw	r1, #:lower16:.LANCHOR1
ARM GAS  /tmp/ccd61yKH.s 			page 34


 1878 0324 0220     		movs	r0, #2
 1879 0326 C0F20001 		movt	r1, #:upper16:.LANCHOR1
 1880 032a 0BF10103 		add	r3, fp, #1
 1881 032e 0290     		str	r0, [sp, #8]
 1882 0330 0922     		movs	r2, #9
 1883              		.loc 1 275 0
 1884 0332 B4F85200 		ldrh	r0, [r4, #82]
 1885              		.loc 1 279 0
 1886 0336 01F80B20 		strb	r2, [r1, fp]
 1887 033a 5FFA83FB 		uxtb	fp, r3
 1888              	.LVL167:
 1889 033e 0223     		movs	r3, #2
 1890              	.LVL168:
 1891              		.loc 1 274 0
 1892 0340 B4F85090 		ldrh	r9, [r4, #80]
 1893              	.LVL169:
 1894              		.loc 1 275 0
 1895 0344 0190     		str	r0, [sp, #4]
 1896              	.LVL170:
 1897              		.loc 1 279 0
 1898 0346 0393     		str	r3, [sp, #12]
 1899 0348 6FE6     		b	.L139
 1900              	.LVL171:
 1901              	.L65:
 1902              		.loc 1 240 0
 1903 034a 4FF0000B 		mov	fp, #0
 1904              	.LVL172:
 1905              		.loc 1 234 0
 1906 034e FFF7FEFF 		bl	drawRingsError
 1907              	.LVL173:
 1908              		.loc 1 235 0
 1909 0352 4FF49660 		mov	r0, #1200
 1910 0356 FFF7FEFF 		bl	gfxSleepMilliseconds
 1911              	.LVL174:
 1912              		.loc 1 236 0
 1913 035a D946     		mov	r9, fp
 1914              		.loc 1 239 0
 1915 035c CDF808B0 		str	fp, [sp, #8]
 1916              		.loc 1 241 0
 1917 0360 FFF7FEFF 		bl	resetRings
 1918              	.LVL175:
 1919              		.loc 1 238 0
 1920 0364 CDF80CB0 		str	fp, [sp, #12]
 1921              		.loc 1 237 0
 1922 0368 CDF804B0 		str	fp, [sp, #4]
 1923              		.loc 1 242 0
 1924 036c 5DE6     		b	.L139
 1925              	.LVL176:
 1926              	.L148:
 1927              	.LBB95:
 1928              	.LBB70:
 1929              		.loc 1 49 0
 1930 036e B4F946E0 		ldrsh	lr, [r4, #70]
 1931 0372 B4F94870 		ldrsh	r7, [r4, #72]
 1932 0376 CDF800E0 		str	lr, [sp, #0]
 1933              	.LBE70:
 1934              	.LBE95:
ARM GAS  /tmp/ccd61yKH.s 			page 35


 1935              		.loc 1 264 0
 1936 037a 0121     		movs	r1, #1
 1937              	.LBB96:
 1938              	.LBB71:
 1939              		.loc 1 49 0
 1940 037c 7046     		mov	r0, lr
 1941              	.LBE71:
 1942              	.LBE96:
 1943              		.loc 1 264 0
 1944 037e 84F84A10 		strb	r1, [r4, #74]
 1945              	.LBB97:
 1946              	.LBB72:
 1947              		.loc 1 49 0
 1948 0382 1422     		movs	r2, #20
 1949 0384 4FF6E073 		movw	r3, #65504
 1950 0388 3946     		mov	r1, r7
 1951 038a FFF7FEFF 		bl	gdispFillCircle
 1952              	.LVL177:
 1953              		.loc 1 50 0
 1954 038e DDF800C0 		ldr	ip, [sp, #0]
 1955 0392 3946     		mov	r1, r7
 1956 0394 6046     		mov	r0, ip
 1957 0396 1122     		movs	r2, #17
 1958 0398 4FF6FF73 		movw	r3, #65535
 1959 039c FFF7FEFF 		bl	gdispFillCircle
 1960              	.LVL178:
 1961              		.loc 1 51 0
 1962 03a0 DDF800C0 		ldr	ip, [sp, #0]
 1963 03a4 3946     		mov	r1, r7
 1964 03a6 6046     		mov	r0, ip
 1965 03a8 0322     		movs	r2, #3
 1966 03aa 4FF6E073 		movw	r3, #65504
 1967 03ae FFF7FEFF 		bl	gdispFillCircle
 1968              	.LVL179:
 1969              	.LBE72:
 1970              	.LBE97:
 1971              		.loc 1 268 0
 1972 03b2 B9F1000F 		cmp	r9, #0
 1973 03b6 0FD0     		beq	.L87
 1974 03b8 0198     		ldr	r0, [sp, #4]
 1975 03ba 68B1     		cbz	r0, .L87
 1976              		.loc 1 271 0
 1977 03bc 039A     		ldr	r2, [sp, #12]
 1978 03be 029B     		ldr	r3, [sp, #8]
 1979              		.loc 1 269 0
 1980 03c0 A4F84C90 		strh	r9, [r4, #76]	@ movhi
 1981              		.loc 1 271 0
 1982 03c4 0132     		adds	r2, r2, #1
 1983 03c6 03EB4301 		add	r1, r3, r3, lsl #1
 1984 03ca 5218     		adds	r2, r2, r1
 1985              		.loc 1 270 0
 1986 03cc A4F84E00 		strh	r0, [r4, #78]	@ movhi
 1987              		.loc 1 271 0
 1988 03d0 84F84B20 		strb	r2, [r4, #75]
 1989              		.loc 1 272 0
 1990 03d4 FFF7FEFF 		bl	redrawLines
 1991              	.LVL180:
ARM GAS  /tmp/ccd61yKH.s 			page 36


 1992              	.L87:
 1993              		.loc 1 279 0
 1994 03d8 40F20000 		movw	r0, #:lower16:.LANCHOR1
 1995 03dc C0F20000 		movt	r0, #:upper16:.LANCHOR1
 1996 03e0 0BF10103 		add	r3, fp, #1
 1997 03e4 0621     		movs	r1, #6
 1998              		.loc 1 275 0
 1999 03e6 B4F84820 		ldrh	r2, [r4, #72]
 2000              		.loc 1 279 0
 2001 03ea 00F80B10 		strb	r1, [r0, fp]
 2002 03ee 5FFA83FB 		uxtb	fp, r3
 2003              	.LVL181:
 2004 03f2 0221     		movs	r1, #2
 2005              		.loc 1 281 0
 2006 03f4 0123     		movs	r3, #1
 2007              	.LVL182:
 2008              		.loc 1 274 0
 2009 03f6 B4F84690 		ldrh	r9, [r4, #70]
 2010              	.LVL183:
 2011              		.loc 1 275 0
 2012 03fa 0192     		str	r2, [sp, #4]
 2013              	.LVL184:
 2014              		.loc 1 281 0
 2015 03fc 0293     		str	r3, [sp, #8]
 2016              		.loc 1 279 0
 2017 03fe 0391     		str	r1, [sp, #12]
 2018 0400 39E7     		b	.L85
 2019              	.L152:
 2020 0402 00BF     		.align	2
 2021              	.L151:
 2022 0404 00000000 		.word	.LANCHOR0
 2023              	.LVL185:
 2024              	.L147:
 2025              	.LBB98:
 2026              	.LBB73:
 2027              		.loc 1 49 0
 2028 0408 B4F93CE0 		ldrsh	lr, [r4, #60]
 2029 040c B4F93E70 		ldrsh	r7, [r4, #62]
 2030 0410 CDF800E0 		str	lr, [sp, #0]
 2031              	.LBE73:
 2032              	.LBE98:
 2033              		.loc 1 264 0
 2034 0414 0121     		movs	r1, #1
 2035              	.LBB99:
 2036              	.LBB74:
 2037              		.loc 1 49 0
 2038 0416 7046     		mov	r0, lr
 2039              	.LBE74:
 2040              	.LBE99:
 2041              		.loc 1 264 0
 2042 0418 84F84010 		strb	r1, [r4, #64]
 2043              	.LBB100:
 2044              	.LBB75:
 2045              		.loc 1 49 0
 2046 041c 1422     		movs	r2, #20
 2047 041e 4FF6E073 		movw	r3, #65504
 2048 0422 3946     		mov	r1, r7
ARM GAS  /tmp/ccd61yKH.s 			page 37


 2049 0424 FFF7FEFF 		bl	gdispFillCircle
 2050              	.LVL186:
 2051              		.loc 1 50 0
 2052 0428 DDF800C0 		ldr	ip, [sp, #0]
 2053 042c 3946     		mov	r1, r7
 2054 042e 6046     		mov	r0, ip
 2055 0430 1122     		movs	r2, #17
 2056 0432 4FF6FF73 		movw	r3, #65535
 2057 0436 FFF7FEFF 		bl	gdispFillCircle
 2058              	.LVL187:
 2059              		.loc 1 51 0
 2060 043a DDF800C0 		ldr	ip, [sp, #0]
 2061 043e 3946     		mov	r1, r7
 2062 0440 6046     		mov	r0, ip
 2063 0442 0322     		movs	r2, #3
 2064 0444 4FF6E073 		movw	r3, #65504
 2065 0448 FFF7FEFF 		bl	gdispFillCircle
 2066              	.LVL188:
 2067              	.LBE75:
 2068              	.LBE100:
 2069              		.loc 1 268 0
 2070 044c B9F1000F 		cmp	r9, #0
 2071 0450 0FD0     		beq	.L84
 2072 0452 0198     		ldr	r0, [sp, #4]
 2073 0454 68B1     		cbz	r0, .L84
 2074              		.loc 1 271 0
 2075 0456 039A     		ldr	r2, [sp, #12]
 2076 0458 029B     		ldr	r3, [sp, #8]
 2077              		.loc 1 269 0
 2078 045a A4F84290 		strh	r9, [r4, #66]	@ movhi
 2079              		.loc 1 271 0
 2080 045e 0132     		adds	r2, r2, #1
 2081 0460 03EB4301 		add	r1, r3, r3, lsl #1
 2082 0464 5218     		adds	r2, r2, r1
 2083              		.loc 1 270 0
 2084 0466 A4F84400 		strh	r0, [r4, #68]	@ movhi
 2085              		.loc 1 271 0
 2086 046a 84F84120 		strb	r2, [r4, #65]
 2087              		.loc 1 272 0
 2088 046e FFF7FEFF 		bl	redrawLines
 2089              	.LVL189:
 2090              	.L84:
 2091              		.loc 1 279 0
 2092 0472 40F20000 		movw	r0, #:lower16:.LANCHOR1
 2093 0476 C0F20000 		movt	r0, #:upper16:.LANCHOR1
 2094 047a 0BF10103 		add	r3, fp, #1
 2095 047e 0321     		movs	r1, #3
 2096              		.loc 1 275 0
 2097 0480 E28F     		ldrh	r2, [r4, #62]
 2098              		.loc 1 279 0
 2099 0482 00F80B10 		strb	r1, [r0, fp]
 2100 0486 5FFA83FB 		uxtb	fp, r3
 2101              	.LVL190:
 2102 048a 0221     		movs	r1, #2
 2103 048c 0023     		movs	r3, #0
 2104              	.LVL191:
 2105              		.loc 1 274 0
ARM GAS  /tmp/ccd61yKH.s 			page 38


 2106 048e B4F83C90 		ldrh	r9, [r4, #60]
 2107              	.LVL192:
 2108              		.loc 1 275 0
 2109 0492 0192     		str	r2, [sp, #4]
 2110              	.LVL193:
 2111              		.loc 1 279 0
 2112 0494 0293     		str	r3, [sp, #8]
 2113 0496 0391     		str	r1, [sp, #12]
 2114 0498 D4E6     		b	.L82
 2115              	.LVL194:
 2116              	.L146:
 2117              	.LBB101:
 2118              	.LBB76:
 2119              		.loc 1 49 0
 2120 049a B4F932E0 		ldrsh	lr, [r4, #50]
 2121 049e B4F93470 		ldrsh	r7, [r4, #52]
 2122 04a2 CDF800E0 		str	lr, [sp, #0]
 2123              	.LBE76:
 2124              	.LBE101:
 2125              		.loc 1 264 0
 2126 04a6 0121     		movs	r1, #1
 2127              	.LBB102:
 2128              	.LBB77:
 2129              		.loc 1 49 0
 2130 04a8 7046     		mov	r0, lr
 2131              	.LBE77:
 2132              	.LBE102:
 2133              		.loc 1 264 0
 2134 04aa 84F83610 		strb	r1, [r4, #54]
 2135              	.LBB103:
 2136              	.LBB78:
 2137              		.loc 1 49 0
 2138 04ae 1422     		movs	r2, #20
 2139 04b0 4FF6E073 		movw	r3, #65504
 2140 04b4 3946     		mov	r1, r7
 2141 04b6 FFF7FEFF 		bl	gdispFillCircle
 2142              	.LVL195:
 2143              		.loc 1 50 0
 2144 04ba DDF800C0 		ldr	ip, [sp, #0]
 2145 04be 3946     		mov	r1, r7
 2146 04c0 6046     		mov	r0, ip
 2147 04c2 1122     		movs	r2, #17
 2148 04c4 4FF6FF73 		movw	r3, #65535
 2149 04c8 FFF7FEFF 		bl	gdispFillCircle
 2150              	.LVL196:
 2151              		.loc 1 51 0
 2152 04cc DDF800C0 		ldr	ip, [sp, #0]
 2153 04d0 3946     		mov	r1, r7
 2154 04d2 6046     		mov	r0, ip
 2155 04d4 0322     		movs	r2, #3
 2156 04d6 4FF6E073 		movw	r3, #65504
 2157 04da FFF7FEFF 		bl	gdispFillCircle
 2158              	.LVL197:
 2159              	.LBE78:
 2160              	.LBE103:
 2161              		.loc 1 268 0
 2162 04de B9F1000F 		cmp	r9, #0
ARM GAS  /tmp/ccd61yKH.s 			page 39


 2163 04e2 0ED0     		beq	.L81
 2164 04e4 0198     		ldr	r0, [sp, #4]
 2165 04e6 60B1     		cbz	r0, .L81
 2166              		.loc 1 271 0
 2167 04e8 039A     		ldr	r2, [sp, #12]
 2168 04ea 029B     		ldr	r3, [sp, #8]
 2169              		.loc 1 269 0
 2170 04ec A4F83890 		strh	r9, [r4, #56]	@ movhi
 2171              		.loc 1 271 0
 2172 04f0 0132     		adds	r2, r2, #1
 2173 04f2 03EB4301 		add	r1, r3, r3, lsl #1
 2174 04f6 5218     		adds	r2, r2, r1
 2175              		.loc 1 270 0
 2176 04f8 6087     		strh	r0, [r4, #58]	@ movhi
 2177              		.loc 1 271 0
 2178 04fa 84F83720 		strb	r2, [r4, #55]
 2179              		.loc 1 272 0
 2180 04fe FFF7FEFF 		bl	redrawLines
 2181              	.LVL198:
 2182              	.L81:
 2183              		.loc 1 279 0
 2184 0502 40F20000 		movw	r0, #:lower16:.LANCHOR1
 2185 0506 C0F20000 		movt	r0, #:upper16:.LANCHOR1
 2186 050a 0BF10103 		add	r3, fp, #1
 2187 050e 0821     		movs	r1, #8
 2188              		.loc 1 275 0
 2189 0510 A28E     		ldrh	r2, [r4, #52]
 2190              		.loc 1 279 0
 2191 0512 00F80B10 		strb	r1, [r0, fp]
 2192 0516 5FFA83FB 		uxtb	fp, r3
 2193              	.LVL199:
 2194 051a 0121     		movs	r1, #1
 2195 051c 0223     		movs	r3, #2
 2196              	.LVL200:
 2197              		.loc 1 274 0
 2198 051e B4F83290 		ldrh	r9, [r4, #50]
 2199              	.LVL201:
 2200              		.loc 1 275 0
 2201 0522 0192     		str	r2, [sp, #4]
 2202              	.LVL202:
 2203              		.loc 1 279 0
 2204 0524 0293     		str	r3, [sp, #8]
 2205 0526 0391     		str	r1, [sp, #12]
 2206 0528 72E6     		b	.L79
 2207              	.LVL203:
 2208              	.L145:
 2209              	.LBB104:
 2210              	.LBB79:
 2211              		.loc 1 49 0
 2212 052a B4F928E0 		ldrsh	lr, [r4, #40]
 2213 052e B4F92A70 		ldrsh	r7, [r4, #42]
 2214 0532 CDF800E0 		str	lr, [sp, #0]
 2215              	.LBE79:
 2216              	.LBE104:
 2217              		.loc 1 264 0
 2218 0536 0121     		movs	r1, #1
 2219              	.LBB105:
ARM GAS  /tmp/ccd61yKH.s 			page 40


 2220              	.LBB80:
 2221              		.loc 1 49 0
 2222 0538 7046     		mov	r0, lr
 2223              	.LBE80:
 2224              	.LBE105:
 2225              		.loc 1 264 0
 2226 053a 84F82C10 		strb	r1, [r4, #44]
 2227              	.LBB106:
 2228              	.LBB81:
 2229              		.loc 1 49 0
 2230 053e 1422     		movs	r2, #20
 2231 0540 4FF6E073 		movw	r3, #65504
 2232 0544 3946     		mov	r1, r7
 2233 0546 FFF7FEFF 		bl	gdispFillCircle
 2234              	.LVL204:
 2235              		.loc 1 50 0
 2236 054a DDF800C0 		ldr	ip, [sp, #0]
 2237 054e 3946     		mov	r1, r7
 2238 0550 6046     		mov	r0, ip
 2239 0552 1122     		movs	r2, #17
 2240 0554 4FF6FF73 		movw	r3, #65535
 2241 0558 FFF7FEFF 		bl	gdispFillCircle
 2242              	.LVL205:
 2243              		.loc 1 51 0
 2244 055c DDF800C0 		ldr	ip, [sp, #0]
 2245 0560 3946     		mov	r1, r7
 2246 0562 6046     		mov	r0, ip
 2247 0564 0322     		movs	r2, #3
 2248 0566 4FF6E073 		movw	r3, #65504
 2249 056a FFF7FEFF 		bl	gdispFillCircle
 2250              	.LVL206:
 2251              	.LBE81:
 2252              	.LBE106:
 2253              		.loc 1 268 0
 2254 056e B9F1000F 		cmp	r9, #0
 2255 0572 0ED0     		beq	.L78
 2256 0574 0198     		ldr	r0, [sp, #4]
 2257 0576 60B1     		cbz	r0, .L78
 2258              		.loc 1 271 0
 2259 0578 039A     		ldr	r2, [sp, #12]
 2260 057a 029B     		ldr	r3, [sp, #8]
 2261              		.loc 1 269 0
 2262 057c A4F82E90 		strh	r9, [r4, #46]	@ movhi
 2263              		.loc 1 271 0
 2264 0580 0132     		adds	r2, r2, #1
 2265 0582 03EB4301 		add	r1, r3, r3, lsl #1
 2266 0586 5218     		adds	r2, r2, r1
 2267              		.loc 1 270 0
 2268 0588 2086     		strh	r0, [r4, #48]	@ movhi
 2269              		.loc 1 271 0
 2270 058a 84F82D20 		strb	r2, [r4, #45]
 2271              		.loc 1 272 0
 2272 058e FFF7FEFF 		bl	redrawLines
 2273              	.LVL207:
 2274              	.L78:
 2275              		.loc 1 281 0
 2276 0592 0120     		movs	r0, #1
ARM GAS  /tmp/ccd61yKH.s 			page 41


 2277              		.loc 1 275 0
 2278 0594 618D     		ldrh	r1, [r4, #42]
 2279              		.loc 1 281 0
 2280 0596 0290     		str	r0, [sp, #8]
 2281              		.loc 1 279 0
 2282 0598 40F20000 		movw	r0, #:lower16:.LANCHOR1
 2283 059c C0F20000 		movt	r0, #:upper16:.LANCHOR1
 2284 05a0 0BF10103 		add	r3, fp, #1
 2285              		.loc 1 275 0
 2286 05a4 0191     		str	r1, [sp, #4]
 2287              		.loc 1 279 0
 2288 05a6 0522     		movs	r2, #5
 2289 05a8 0121     		movs	r1, #1
 2290 05aa 00F80B20 		strb	r2, [r0, fp]
 2291              		.loc 1 274 0
 2292 05ae B4F82890 		ldrh	r9, [r4, #40]
 2293              	.LVL208:
 2294              		.loc 1 279 0
 2295 05b2 0391     		str	r1, [sp, #12]
 2296 05b4 5FFA83FB 		uxtb	fp, r3
 2297              	.LVL209:
 2298 05b8 10E6     		b	.L77
 2299              	.LVL210:
 2300              	.L144:
 2301              	.LBB107:
 2302              	.LBB82:
 2303              		.loc 1 49 0
 2304 05ba B4F91EE0 		ldrsh	lr, [r4, #30]
 2305 05be B4F92070 		ldrsh	r7, [r4, #32]
 2306 05c2 CDF800E0 		str	lr, [sp, #0]
 2307              	.LBE82:
 2308              	.LBE107:
 2309              		.loc 1 264 0
 2310 05c6 0121     		movs	r1, #1
 2311              	.LBB108:
 2312              	.LBB83:
 2313              		.loc 1 49 0
 2314 05c8 7046     		mov	r0, lr
 2315              	.LBE83:
 2316              	.LBE108:
 2317              		.loc 1 264 0
 2318 05ca 84F82210 		strb	r1, [r4, #34]
 2319              	.LBB109:
 2320              	.LBB84:
 2321              		.loc 1 49 0
 2322 05ce 1422     		movs	r2, #20
 2323 05d0 4FF6E073 		movw	r3, #65504
 2324 05d4 3946     		mov	r1, r7
 2325 05d6 FFF7FEFF 		bl	gdispFillCircle
 2326              	.LVL211:
 2327              		.loc 1 50 0
 2328 05da DDF800C0 		ldr	ip, [sp, #0]
 2329 05de 3946     		mov	r1, r7
 2330 05e0 6046     		mov	r0, ip
 2331 05e2 1122     		movs	r2, #17
 2332 05e4 4FF6FF73 		movw	r3, #65535
 2333 05e8 FFF7FEFF 		bl	gdispFillCircle
ARM GAS  /tmp/ccd61yKH.s 			page 42


 2334              	.LVL212:
 2335              		.loc 1 51 0
 2336 05ec DDF800C0 		ldr	ip, [sp, #0]
 2337 05f0 3946     		mov	r1, r7
 2338 05f2 6046     		mov	r0, ip
 2339 05f4 0322     		movs	r2, #3
 2340 05f6 4FF6E073 		movw	r3, #65504
 2341 05fa FFF7FEFF 		bl	gdispFillCircle
 2342              	.LVL213:
 2343              	.LBE84:
 2344              	.LBE109:
 2345              		.loc 1 268 0
 2346 05fe B9F1000F 		cmp	r9, #0
 2347 0602 0FD0     		beq	.L76
 2348 0604 0198     		ldr	r0, [sp, #4]
 2349 0606 68B1     		cbz	r0, .L76
 2350              		.loc 1 271 0
 2351 0608 039A     		ldr	r2, [sp, #12]
 2352 060a 029B     		ldr	r3, [sp, #8]
 2353              		.loc 1 269 0
 2354 060c A4F82490 		strh	r9, [r4, #36]	@ movhi
 2355              		.loc 1 271 0
 2356 0610 511C     		adds	r1, r2, #1
 2357 0612 03EB4300 		add	r0, r3, r3, lsl #1
 2358 0616 0A18     		adds	r2, r1, r0
 2359              		.loc 1 270 0
 2360 0618 0199     		ldr	r1, [sp, #4]
 2361              		.loc 1 271 0
 2362 061a 84F82320 		strb	r2, [r4, #35]
 2363              		.loc 1 270 0
 2364 061e E184     		strh	r1, [r4, #38]	@ movhi
 2365              		.loc 1 272 0
 2366 0620 FFF7FEFF 		bl	redrawLines
 2367              	.LVL214:
 2368              	.L76:
 2369              		.loc 1 279 0
 2370 0624 40F20001 		movw	r1, #:lower16:.LANCHOR1
 2371              		.loc 1 275 0
 2372 0628 208C     		ldrh	r0, [r4, #32]
 2373              		.loc 1 274 0
 2374 062a B4F81E90 		ldrh	r9, [r4, #30]
 2375              	.LVL215:
 2376              		.loc 1 275 0
 2377 062e 0190     		str	r0, [sp, #4]
 2378              	.LVL216:
 2379              		.loc 1 279 0
 2380 0630 C0F20001 		movt	r1, #:upper16:.LANCHOR1
 2381 0634 0BF10103 		add	r3, fp, #1
 2382 0638 0222     		movs	r2, #2
 2383 063a 01F80B20 		strb	r2, [r1, fp]
 2384 063e 0020     		movs	r0, #0
 2385 0640 5FFA83FB 		uxtb	fp, r3
 2386              	.LVL217:
 2387 0644 0123     		movs	r3, #1
 2388              	.LVL218:
 2389 0646 0290     		str	r0, [sp, #8]
 2390 0648 0393     		str	r3, [sp, #12]
ARM GAS  /tmp/ccd61yKH.s 			page 43


 2391 064a ADE5     		b	.L75
 2392              	.LVL219:
 2393              	.L143:
 2394              	.LBB110:
 2395              	.LBB85:
 2396              		.loc 1 49 0
 2397 064c B4F914E0 		ldrsh	lr, [r4, #20]
 2398 0650 B4F91670 		ldrsh	r7, [r4, #22]
 2399 0654 CDF800E0 		str	lr, [sp, #0]
 2400              	.LBE85:
 2401              	.LBE110:
 2402              		.loc 1 264 0
 2403 0658 0123     		movs	r3, #1
 2404              	.LBB111:
 2405              	.LBB86:
 2406              		.loc 1 49 0
 2407 065a 7046     		mov	r0, lr
 2408              	.LBE86:
 2409              	.LBE111:
 2410              		.loc 1 264 0
 2411 065c 2376     		strb	r3, [r4, #24]
 2412              	.LBB112:
 2413              	.LBB87:
 2414              		.loc 1 49 0
 2415 065e 1422     		movs	r2, #20
 2416 0660 4FF6E073 		movw	r3, #65504
 2417 0664 3946     		mov	r1, r7
 2418 0666 FFF7FEFF 		bl	gdispFillCircle
 2419              	.LVL220:
 2420              		.loc 1 50 0
 2421 066a DDF800C0 		ldr	ip, [sp, #0]
 2422 066e 3946     		mov	r1, r7
 2423 0670 6046     		mov	r0, ip
 2424 0672 1122     		movs	r2, #17
 2425 0674 4FF6FF73 		movw	r3, #65535
 2426 0678 FFF7FEFF 		bl	gdispFillCircle
 2427              	.LVL221:
 2428              		.loc 1 51 0
 2429 067c DDF800C0 		ldr	ip, [sp, #0]
 2430 0680 3946     		mov	r1, r7
 2431 0682 6046     		mov	r0, ip
 2432 0684 0322     		movs	r2, #3
 2433 0686 4FF6E073 		movw	r3, #65504
 2434 068a FFF7FEFF 		bl	gdispFillCircle
 2435              	.LVL222:
 2436              	.LBE87:
 2437              	.LBE112:
 2438              		.loc 1 268 0
 2439 068e B9F1000F 		cmp	r9, #0
 2440 0692 0DD0     		beq	.L74
 2441 0694 0198     		ldr	r0, [sp, #4]
 2442 0696 58B1     		cbz	r0, .L74
 2443              		.loc 1 271 0
 2444 0698 039A     		ldr	r2, [sp, #12]
 2445 069a 0299     		ldr	r1, [sp, #8]
 2446              		.loc 1 269 0
 2447 069c A4F81A90 		strh	r9, [r4, #26]	@ movhi
ARM GAS  /tmp/ccd61yKH.s 			page 44


 2448              		.loc 1 271 0
 2449 06a0 0132     		adds	r2, r2, #1
 2450 06a2 01EB4103 		add	r3, r1, r1, lsl #1
 2451 06a6 D218     		adds	r2, r2, r3
 2452              		.loc 1 270 0
 2453 06a8 A083     		strh	r0, [r4, #28]	@ movhi
 2454              		.loc 1 271 0
 2455 06aa 6276     		strb	r2, [r4, #25]
 2456              		.loc 1 272 0
 2457 06ac FFF7FEFF 		bl	redrawLines
 2458              	.LVL223:
 2459              	.L74:
 2460              		.loc 1 279 0
 2461 06b0 40F20000 		movw	r0, #:lower16:.LANCHOR1
 2462 06b4 C0F20000 		movt	r0, #:upper16:.LANCHOR1
 2463 06b8 0BF10103 		add	r3, fp, #1
 2464 06bc 0721     		movs	r1, #7
 2465              		.loc 1 275 0
 2466 06be E28A     		ldrh	r2, [r4, #22]
 2467              		.loc 1 279 0
 2468 06c0 00F80B10 		strb	r1, [r0, fp]
 2469 06c4 5FFA83FB 		uxtb	fp, r3
 2470              	.LVL224:
 2471 06c8 0021     		movs	r1, #0
 2472 06ca 0223     		movs	r3, #2
 2473              	.LVL225:
 2474              		.loc 1 274 0
 2475 06cc B4F81490 		ldrh	r9, [r4, #20]
 2476              	.LVL226:
 2477              		.loc 1 275 0
 2478 06d0 0192     		str	r2, [sp, #4]
 2479              	.LVL227:
 2480              		.loc 1 279 0
 2481 06d2 0293     		str	r3, [sp, #8]
 2482 06d4 0391     		str	r1, [sp, #12]
 2483 06d6 4DE5     		b	.L72
 2484              	.LVL228:
 2485              	.L142:
 2486              	.LBB113:
 2487              	.LBB88:
 2488              		.loc 1 49 0
 2489 06d8 B4F90AE0 		ldrsh	lr, [r4, #10]
 2490 06dc B4F90C70 		ldrsh	r7, [r4, #12]
 2491 06e0 CDF800E0 		str	lr, [sp, #0]
 2492              	.LBE88:
 2493              	.LBE113:
 2494              		.loc 1 264 0
 2495 06e4 0121     		movs	r1, #1
 2496              	.LBB114:
 2497              	.LBB89:
 2498              		.loc 1 49 0
 2499 06e6 7046     		mov	r0, lr
 2500              	.LBE89:
 2501              	.LBE114:
 2502              		.loc 1 264 0
 2503 06e8 A173     		strb	r1, [r4, #14]
 2504              	.LBB115:
ARM GAS  /tmp/ccd61yKH.s 			page 45


 2505              	.LBB90:
 2506              		.loc 1 49 0
 2507 06ea 1422     		movs	r2, #20
 2508 06ec 4FF6E073 		movw	r3, #65504
 2509 06f0 3946     		mov	r1, r7
 2510 06f2 FFF7FEFF 		bl	gdispFillCircle
 2511              	.LVL229:
 2512              		.loc 1 50 0
 2513 06f6 DDF800C0 		ldr	ip, [sp, #0]
 2514 06fa 3946     		mov	r1, r7
 2515 06fc 6046     		mov	r0, ip
 2516 06fe 1122     		movs	r2, #17
 2517 0700 4FF6FF73 		movw	r3, #65535
 2518 0704 FFF7FEFF 		bl	gdispFillCircle
 2519              	.LVL230:
 2520              		.loc 1 51 0
 2521 0708 DDF800C0 		ldr	ip, [sp, #0]
 2522 070c 3946     		mov	r1, r7
 2523 070e 6046     		mov	r0, ip
 2524 0710 0322     		movs	r2, #3
 2525 0712 4FF6E073 		movw	r3, #65504
 2526 0716 FFF7FEFF 		bl	gdispFillCircle
 2527              	.LVL231:
 2528              	.LBE90:
 2529              	.LBE115:
 2530              		.loc 1 268 0
 2531 071a B9F1000F 		cmp	r9, #0
 2532 071e 0DD0     		beq	.L71
 2533 0720 0198     		ldr	r0, [sp, #4]
 2534 0722 58B1     		cbz	r0, .L71
 2535              		.loc 1 271 0
 2536 0724 039A     		ldr	r2, [sp, #12]
 2537 0726 029B     		ldr	r3, [sp, #8]
 2538              		.loc 1 269 0
 2539 0728 A4F81090 		strh	r9, [r4, #16]	@ movhi
 2540              		.loc 1 271 0
 2541 072c 0132     		adds	r2, r2, #1
 2542 072e 03EB4301 		add	r1, r3, r3, lsl #1
 2543 0732 5218     		adds	r2, r2, r1
 2544              		.loc 1 270 0
 2545 0734 6082     		strh	r0, [r4, #18]	@ movhi
 2546              		.loc 1 271 0
 2547 0736 E273     		strb	r2, [r4, #15]
 2548              		.loc 1 272 0
 2549 0738 FFF7FEFF 		bl	redrawLines
 2550              	.LVL232:
 2551              	.L71:
 2552              		.loc 1 279 0
 2553 073c 40F20002 		movw	r2, #:lower16:.LANCHOR1
 2554              		.loc 1 275 0
 2555 0740 A089     		ldrh	r0, [r4, #12]
 2556              		.loc 1 274 0
 2557 0742 B4F80A90 		ldrh	r9, [r4, #10]
 2558              	.LVL233:
 2559              		.loc 1 275 0
 2560 0746 0190     		str	r0, [sp, #4]
 2561              	.LVL234:
ARM GAS  /tmp/ccd61yKH.s 			page 46


 2562              		.loc 1 279 0
 2563 0748 C0F20002 		movt	r2, #:upper16:.LANCHOR1
 2564 074c 0BF10103 		add	r3, fp, #1
 2565 0750 0421     		movs	r1, #4
 2566 0752 02F80B10 		strb	r1, [r2, fp]
 2567              		.loc 1 281 0
 2568 0756 0120     		movs	r0, #1
 2569              		.loc 1 279 0
 2570 0758 5FFA83FB 		uxtb	fp, r3
 2571              	.LVL235:
 2572 075c 0023     		movs	r3, #0
 2573              	.LVL236:
 2574              		.loc 1 281 0
 2575 075e 0290     		str	r0, [sp, #8]
 2576              		.loc 1 279 0
 2577 0760 0393     		str	r3, [sp, #12]
 2578 0762 EEE4     		b	.L70
 2579              	.LVL237:
 2580              	.L141:
 2581              	.LBB116:
 2582              	.LBB91:
 2583              		.loc 1 49 0
 2584 0764 B7F90210 		ldrsh	r1, [r7, #2]
 2585 0768 B7F900C0 		ldrsh	ip, [r7, #0]
 2586 076c 0591     		str	r1, [sp, #20]
 2587              	.LBE91:
 2588              	.LBE116:
 2589              		.loc 1 264 0
 2590 076e 0120     		movs	r0, #1
 2591 0770 3871     		strb	r0, [r7, #4]
 2592              	.LBB117:
 2593              	.LBB92:
 2594              		.loc 1 49 0
 2595 0772 1422     		movs	r2, #20
 2596 0774 6046     		mov	r0, ip
 2597 0776 4FF6E073 		movw	r3, #65504
 2598 077a 0599     		ldr	r1, [sp, #20]
 2599 077c CDF800C0 		str	ip, [sp, #0]
 2600 0780 FFF7FEFF 		bl	gdispFillCircle
 2601              	.LVL238:
 2602              		.loc 1 50 0
 2603 0784 DDF800C0 		ldr	ip, [sp, #0]
 2604 0788 0599     		ldr	r1, [sp, #20]
 2605 078a 6046     		mov	r0, ip
 2606 078c 1122     		movs	r2, #17
 2607 078e 4FF6FF73 		movw	r3, #65535
 2608 0792 FFF7FEFF 		bl	gdispFillCircle
 2609              	.LVL239:
 2610              		.loc 1 51 0
 2611 0796 DDF800C0 		ldr	ip, [sp, #0]
 2612 079a 0599     		ldr	r1, [sp, #20]
 2613 079c 6046     		mov	r0, ip
 2614 079e 0322     		movs	r2, #3
 2615 07a0 4FF6E073 		movw	r3, #65504
 2616 07a4 FFF7FEFF 		bl	gdispFillCircle
 2617              	.LVL240:
 2618              	.LBE92:
ARM GAS  /tmp/ccd61yKH.s 			page 47


 2619              	.LBE117:
 2620              		.loc 1 268 0
 2621 07a8 B9F1000F 		cmp	r9, #0
 2622 07ac 0DD0     		beq	.L69
 2623 07ae 0199     		ldr	r1, [sp, #4]
 2624 07b0 59B1     		cbz	r1, .L69
 2625              		.loc 1 271 0
 2626 07b2 039A     		ldr	r2, [sp, #12]
 2627 07b4 029B     		ldr	r3, [sp, #8]
 2628              		.loc 1 269 0
 2629 07b6 A7F80690 		strh	r9, [r7, #6]	@ movhi
 2630              		.loc 1 271 0
 2631 07ba 0132     		adds	r2, r2, #1
 2632 07bc 03EB4300 		add	r0, r3, r3, lsl #1
 2633 07c0 1218     		adds	r2, r2, r0
 2634              		.loc 1 270 0
 2635 07c2 3981     		strh	r1, [r7, #8]	@ movhi
 2636              		.loc 1 271 0
 2637 07c4 7A71     		strb	r2, [r7, #5]
 2638              		.loc 1 272 0
 2639 07c6 FFF7FEFF 		bl	redrawLines
 2640              	.LVL241:
 2641              	.L69:
 2642              		.loc 1 279 0
 2643 07ca 0021     		movs	r1, #0
 2644              		.loc 1 275 0
 2645 07cc 6088     		ldrh	r0, [r4, #2]
 2646              		.loc 1 279 0
 2647 07ce 0291     		str	r1, [sp, #8]
 2648 07d0 40F20001 		movw	r1, #:lower16:.LANCHOR1
 2649 07d4 C0F20001 		movt	r1, #:upper16:.LANCHOR1
 2650 07d8 0BF10103 		add	r3, fp, #1
 2651              		.loc 1 275 0
 2652 07dc 0190     		str	r0, [sp, #4]
 2653              		.loc 1 279 0
 2654 07de 0122     		movs	r2, #1
 2655 07e0 0020     		movs	r0, #0
 2656 07e2 01F80B20 		strb	r2, [r1, fp]
 2657              		.loc 1 274 0
 2658 07e6 B4F80090 		ldrh	r9, [r4, #0]
 2659              	.LVL242:
 2660              		.loc 1 279 0
 2661 07ea 0390     		str	r0, [sp, #12]
 2662 07ec 5FFA83FB 		uxtb	fp, r3
 2663              	.LVL243:
 2664 07f0 8EE4     		b	.L68
 2665              	.LVL244:
 2666              	.L140:
 2667              		.loc 1 215 0
 2668 07f2 40F20002 		movw	r2, #:lower16:.LANCHOR1
 2669 07f6 C0F20002 		movt	r2, #:upper16:.LANCHOR1
 2670 07fa 1378     		ldrb	r3, [r2, #0]	@ zero_extendqisi2
 2671 07fc 3370     		strb	r3, [r6, #0]
 2672              	.LVL245:
 2673 07fe 5178     		ldrb	r1, [r2, #1]	@ zero_extendqisi2
 2674 0800 7170     		strb	r1, [r6, #1]
 2675              	.LVL246:
ARM GAS  /tmp/ccd61yKH.s 			page 48


 2676 0802 9078     		ldrb	r0, [r2, #2]	@ zero_extendqisi2
 2677 0804 B070     		strb	r0, [r6, #2]
 2678              	.LVL247:
 2679 0806 D378     		ldrb	r3, [r2, #3]	@ zero_extendqisi2
 2680 0808 F370     		strb	r3, [r6, #3]
 2681              	.LVL248:
 2682 080a 1179     		ldrb	r1, [r2, #4]	@ zero_extendqisi2
 2683 080c 3171     		strb	r1, [r6, #4]
 2684              	.LVL249:
 2685 080e 5079     		ldrb	r0, [r2, #5]	@ zero_extendqisi2
 2686 0810 7071     		strb	r0, [r6, #5]
 2687              	.LVL250:
 2688 0812 9379     		ldrb	r3, [r2, #6]	@ zero_extendqisi2
 2689 0814 B371     		strb	r3, [r6, #6]
 2690              	.LVL251:
 2691 0816 D179     		ldrb	r1, [r2, #7]	@ zero_extendqisi2
 2692 0818 F171     		strb	r1, [r6, #7]
 2693              	.LVL252:
 2694 081a 127A     		ldrb	r2, [r2, #8]	@ zero_extendqisi2
 2695 081c 3272     		strb	r2, [r6, #8]
 2696              	.LVL253:
 2697              		.loc 1 218 0
 2698 081e FFF7FEFF 		bl	drawRingsOk
 2699              	.LVL254:
 2700              		.loc 1 219 0
 2701 0822 4FF49660 		mov	r0, #1200
 2702              		.loc 1 287 0
 2703 0826 07B0     		add	sp, sp, #28
 2704 0828 BDE8F04F 		pop	{r4, r5, r6, r7, r8, r9, sl, fp, lr}
 2705              		.loc 1 219 0
 2706 082c FFF7FEBF 		b	gfxSleepMilliseconds
 2707              	.LVL255:
 2708              		.cfi_endproc
 2709              	.LFE126:
 2710              		.size	unlocker, .-unlocker
 2711              		.section	.text.displayUnlockerSetup,"ax",%progbits
 2712              		.align	2
 2713              		.p2align 4,,15
 2714              		.global	displayUnlockerSetup
 2715              		.thumb
 2716              		.thumb_func
 2717              		.type	displayUnlockerSetup, %function
 2718              	displayUnlockerSetup:
 2719              	.LFB127:
 2720              		.loc 1 293 0
 2721              		.cfi_startproc
 2722              		@ args = 0, pretend = 0, frame = 0
 2723              		@ frame_needed = 0, uses_anonymous_args = 0
 2724              		@ link register save eliminated.
 2725              	.LVL256:
 2726              		.loc 1 294 0
 2727 0000 0121     		movs	r1, #1
 2728              		.loc 1 295 0
 2729              		.loc 1 294 0
 2730 0002 FFF7FEBF 		b	unlocker
 2731              	.LVL257:
 2732              		.cfi_endproc
ARM GAS  /tmp/ccd61yKH.s 			page 49


 2733              	.LFE127:
 2734              		.size	displayUnlockerSetup, .-displayUnlockerSetup
 2735 0006 00BFAFF3 		.section	.text.displayUnlocker,"ax",%progbits
 2735      0080AFF3 
 2735      0080
 2736              		.align	2
 2737              		.p2align 4,,15
 2738              		.global	displayUnlocker
 2739              		.thumb
 2740              		.thumb_func
 2741              		.type	displayUnlocker, %function
 2742              	displayUnlocker:
 2743              	.LFB128:
 2744              		.loc 1 301 0
 2745              		.cfi_startproc
 2746              		@ args = 0, pretend = 0, frame = 0
 2747              		@ frame_needed = 0, uses_anonymous_args = 0
 2748              		@ link register save eliminated.
 2749              	.LVL258:
 2750              		.loc 1 302 0
 2751 0000 0021     		movs	r1, #0
 2752              		.loc 1 303 0
 2753              		.loc 1 302 0
 2754 0002 FFF7FEBF 		b	unlocker
 2755              	.LVL259:
 2756              		.cfi_endproc
 2757              	.LFE128:
 2758              		.size	displayUnlocker, .-displayUnlocker
 2759              		.global	unlock_sequence
 2760              		.global	unlocker_rings
 2761              		.global	ev
 2762 0006 00BFAFF3 		.section	.bss.ev,"aw",%nobits
 2762      0080AFF3 
 2762      0080
 2763              		.align	2
 2764              		.set	.LANCHOR2,. + 0
 2765              		.type	ev, %object
 2766              		.size	ev, 16
 2767              	ev:
 2768 0000 00000000 		.space	16
 2768      00000000 
 2768      00000000 
 2768      00000000 
 2769              		.section	.bss.unlocker_rings,"aw",%nobits
 2770              		.align	2
 2771              		.set	.LANCHOR0,. + 0
 2772              		.type	unlocker_rings, %object
 2773              		.size	unlocker_rings, 90
 2774              	unlocker_rings:
 2775 0000 00000000 		.space	90
 2775      00000000 
 2775      00000000 
 2775      00000000 
 2775      00000000 
 2776 005a 0000     		.section	.bss.unlock_sequence,"aw",%nobits
 2777              		.align	2
 2778              		.set	.LANCHOR1,. + 0
ARM GAS  /tmp/ccd61yKH.s 			page 50


 2779              		.type	unlock_sequence, %object
 2780              		.size	unlock_sequence, 9
 2781              	unlock_sequence:
 2782 0000 00000000 		.space	9
 2782      00000000 
 2782      00
 2783 0009 000000   		.text
 2784              	.Letext0:
 2785              		.file 2 "/usr/bin/../lib/gcc/arm-none-eabi/4.7.4/../../../../arm-none-eabi/include/stdint.h"
 2786              		.file 3 "../../os/ports/GCC/ARMCMx/chtypes.h"
 2787              		.file 4 "../../ext/ugfx/include/gos/chibios.h"
 2788              		.file 5 "../../ext/ugfx/include/gevent/gevent.h"
 2789              		.file 6 "../../ext/ugfx/include/gdisp/gdisp.h"
 2790              		.file 7 "../../ext/ugfx/include/ginput/mouse.h"
 2791              		.file 8 "unlocker.h"
 2792              		.file 9 "../../os/ports/common/ARMCMx/CMSIS/include/core_cm4.h"
 2793              		.section	.debug_info,"",%progbits
 2794              	.Ldebug_info0:
 2795 0000 5E190000 		.4byte	0x195e
 2796 0004 0200     		.2byte	0x2
 2797 0006 00000000 		.4byte	.Ldebug_abbrev0
 2798 000a 04       		.byte	0x4
 2799 000b 01       		.uleb128 0x1
 2800 000c AA000000 		.4byte	.LASF95
 2801 0010 01       		.byte	0x1
 2802 0011 ED020000 		.4byte	.LASF96
 2803 0015 95020000 		.4byte	.LASF97
 2804 0019 D0010000 		.4byte	.Ldebug_ranges0+0x1d0
 2805 001d 00000000 		.4byte	0
 2806 0021 00000000 		.4byte	0
 2807 0025 00000000 		.4byte	.Ldebug_line0
 2808 0029 02       		.uleb128 0x2
 2809 002a 04       		.byte	0x4
 2810 002b 05       		.byte	0x5
 2811 002c 696E7400 		.ascii	"int\000"
 2812 0030 03       		.uleb128 0x3
 2813 0031 04       		.byte	0x4
 2814 0032 07       		.byte	0x7
 2815 0033 27030000 		.4byte	.LASF0
 2816 0037 03       		.uleb128 0x3
 2817 0038 01       		.byte	0x1
 2818 0039 06       		.byte	0x6
 2819 003a F8020000 		.4byte	.LASF1
 2820 003e 04       		.uleb128 0x4
 2821 003f 45010000 		.4byte	.LASF3
 2822 0043 02       		.byte	0x2
 2823 0044 2A       		.byte	0x2a
 2824 0045 49000000 		.4byte	0x49
 2825 0049 03       		.uleb128 0x3
 2826 004a 01       		.byte	0x1
 2827 004b 08       		.byte	0x8
 2828 004c 76020000 		.4byte	.LASF2
 2829 0050 04       		.uleb128 0x4
 2830 0051 D2030000 		.4byte	.LASF4
 2831 0055 02       		.byte	0x2
 2832 0056 35       		.byte	0x35
 2833 0057 5B000000 		.4byte	0x5b
ARM GAS  /tmp/ccd61yKH.s 			page 51


 2834 005b 03       		.uleb128 0x3
 2835 005c 02       		.byte	0x2
 2836 005d 05       		.byte	0x5
 2837 005e 2E000000 		.4byte	.LASF5
 2838 0062 04       		.uleb128 0x4
 2839 0063 95030000 		.4byte	.LASF6
 2840 0067 02       		.byte	0x2
 2841 0068 36       		.byte	0x36
 2842 0069 6D000000 		.4byte	0x6d
 2843 006d 03       		.uleb128 0x3
 2844 006e 02       		.byte	0x2
 2845 006f 07       		.byte	0x7
 2846 0070 6E030000 		.4byte	.LASF7
 2847 0074 04       		.uleb128 0x4
 2848 0075 B2030000 		.4byte	.LASF8
 2849 0079 02       		.byte	0x2
 2850 007a 4F       		.byte	0x4f
 2851 007b 7F000000 		.4byte	0x7f
 2852 007f 03       		.uleb128 0x3
 2853 0080 04       		.byte	0x4
 2854 0081 05       		.byte	0x5
 2855 0082 F9010000 		.4byte	.LASF9
 2856 0086 04       		.uleb128 0x4
 2857 0087 71010000 		.4byte	.LASF10
 2858 008b 02       		.byte	0x2
 2859 008c 50       		.byte	0x50
 2860 008d 91000000 		.4byte	0x91
 2861 0091 03       		.uleb128 0x3
 2862 0092 04       		.byte	0x4
 2863 0093 07       		.byte	0x7
 2864 0094 F2030000 		.4byte	.LASF11
 2865 0098 03       		.uleb128 0x3
 2866 0099 08       		.byte	0x8
 2867 009a 05       		.byte	0x5
 2868 009b B1010000 		.4byte	.LASF12
 2869 009f 03       		.uleb128 0x3
 2870 00a0 08       		.byte	0x8
 2871 00a1 07       		.byte	0x7
 2872 00a2 04030000 		.4byte	.LASF13
 2873 00a6 04       		.uleb128 0x4
 2874 00a7 F1040000 		.4byte	.LASF14
 2875 00ab 03       		.byte	0x3
 2876 00ac 24       		.byte	0x24
 2877 00ad B1000000 		.4byte	0xb1
 2878 00b1 03       		.uleb128 0x3
 2879 00b2 01       		.byte	0x1
 2880 00b3 02       		.byte	0x2
 2881 00b4 E2030000 		.4byte	.LASF15
 2882 00b8 04       		.uleb128 0x4
 2883 00b9 81030000 		.4byte	.LASF16
 2884 00bd 03       		.byte	0x3
 2885 00be 2E       		.byte	0x2e
 2886 00bf 86000000 		.4byte	0x86
 2887 00c3 03       		.uleb128 0x3
 2888 00c4 04       		.byte	0x4
 2889 00c5 07       		.byte	0x7
 2890 00c6 38000000 		.4byte	.LASF17
ARM GAS  /tmp/ccd61yKH.s 			page 52


 2891 00ca 03       		.uleb128 0x3
 2892 00cb 01       		.byte	0x1
 2893 00cc 08       		.byte	0x8
 2894 00cd E5010000 		.4byte	.LASF18
 2895 00d1 05       		.uleb128 0x5
 2896 00d2 04       		.byte	0x4
 2897 00d3 3E000000 		.4byte	0x3e
 2898 00d7 06       		.uleb128 0x6
 2899 00d8 74000000 		.4byte	0x74
 2900 00dc 04       		.uleb128 0x4
 2901 00dd A5010000 		.4byte	.LASF19
 2902 00e1 04       		.byte	0x4
 2903 00e2 24       		.byte	0x24
 2904 00e3 B8000000 		.4byte	0xb8
 2905 00e7 04       		.uleb128 0x4
 2906 00e8 5D030000 		.4byte	.LASF20
 2907 00ec 05       		.byte	0x5
 2908 00ed 21       		.byte	0x21
 2909 00ee 62000000 		.4byte	0x62
 2910 00f2 04       		.uleb128 0x4
 2911 00f3 DA030000 		.4byte	.LASF21
 2912 00f7 06       		.byte	0x6
 2913 00f8 23       		.byte	0x23
 2914 00f9 50000000 		.4byte	0x50
 2915 00fd 07       		.uleb128 0x7
 2916 00fe 5C000000 		.4byte	.LASF27
 2917 0102 01       		.byte	0x1
 2918 0103 06       		.byte	0x6
 2919 0104 46       		.byte	0x46
 2920 0105 22010000 		.4byte	0x122
 2921 0109 08       		.uleb128 0x8
 2922 010a EA010000 		.4byte	.LASF22
 2923 010e 00       		.sleb128 0
 2924 010f 08       		.uleb128 0x8
 2925 0110 15010000 		.4byte	.LASF23
 2926 0114 01       		.sleb128 1
 2927 0115 08       		.uleb128 0x8
 2928 0116 E0040000 		.4byte	.LASF24
 2929 011a 02       		.sleb128 2
 2930 011b 08       		.uleb128 0x8
 2931 011c C8010000 		.4byte	.LASF25
 2932 0120 03       		.sleb128 3
 2933 0121 00       		.byte	0
 2934 0122 04       		.uleb128 0x4
 2935 0123 9E030000 		.4byte	.LASF26
 2936 0127 06       		.byte	0x6
 2937 0128 46       		.byte	0x46
 2938 0129 FD000000 		.4byte	0xfd
 2939 012d 07       		.uleb128 0x7
 2940 012e 8B030000 		.4byte	.LASF28
 2941 0132 01       		.byte	0x1
 2942 0133 06       		.byte	0x6
 2943 0134 4A       		.byte	0x4a
 2944 0135 52010000 		.4byte	0x152
 2945 0139 08       		.uleb128 0x8
 2946 013a 0F000000 		.4byte	.LASF29
 2947 013e 00       		.sleb128 0
ARM GAS  /tmp/ccd61yKH.s 			page 53


 2948 013f 08       		.uleb128 0x8
 2949 0140 C7040000 		.4byte	.LASF30
 2950 0144 01       		.sleb128 1
 2951 0145 08       		.uleb128 0x8
 2952 0146 67020000 		.4byte	.LASF31
 2953 014a 02       		.sleb128 2
 2954 014b 08       		.uleb128 0x8
 2955 014c 0B040000 		.4byte	.LASF32
 2956 0150 03       		.sleb128 3
 2957 0151 00       		.byte	0
 2958 0152 04       		.uleb128 0x4
 2959 0153 83000000 		.4byte	.LASF33
 2960 0157 06       		.byte	0x6
 2961 0158 4A       		.byte	0x4a
 2962 0159 2D010000 		.4byte	0x12d
 2963 015d 09       		.uleb128 0x9
 2964 015e 1A040000 		.4byte	.LASF52
 2965 0162 10       		.byte	0x10
 2966 0163 06       		.byte	0x6
 2967 0164 51       		.byte	0x51
 2968 0165 F6010000 		.4byte	0x1f6
 2969 0169 0A       		.uleb128 0xa
 2970 016a 49030000 		.4byte	.LASF34
 2971 016e 06       		.byte	0x6
 2972 016f 52       		.byte	0x52
 2973 0170 F2000000 		.4byte	0xf2
 2974 0174 02       		.byte	0x2
 2975 0175 23       		.byte	0x23
 2976 0176 00       		.uleb128 0
 2977 0177 0A       		.uleb128 0xa
 2978 0178 13040000 		.4byte	.LASF35
 2979 017c 06       		.byte	0x6
 2980 017d 53       		.byte	0x53
 2981 017e F2000000 		.4byte	0xf2
 2982 0182 02       		.byte	0x2
 2983 0183 23       		.byte	0x23
 2984 0184 02       		.uleb128 0x2
 2985 0185 0A       		.uleb128 0xa
 2986 0186 BA030000 		.4byte	.LASF36
 2987 018a 06       		.byte	0x6
 2988 018b 54       		.byte	0x54
 2989 018c 22010000 		.4byte	0x122
 2990 0190 02       		.byte	0x2
 2991 0191 23       		.byte	0x23
 2992 0192 04       		.uleb128 0x4
 2993 0193 0A       		.uleb128 0xa
 2994 0194 84020000 		.4byte	.LASF37
 2995 0198 06       		.byte	0x6
 2996 0199 55       		.byte	0x55
 2997 019a 52010000 		.4byte	0x152
 2998 019e 02       		.byte	0x2
 2999 019f 23       		.byte	0x23
 3000 01a0 05       		.uleb128 0x5
 3001 01a1 0A       		.uleb128 0xa
 3002 01a2 E8030000 		.4byte	.LASF38
 3003 01a6 06       		.byte	0x6
 3004 01a7 56       		.byte	0x56
ARM GAS  /tmp/ccd61yKH.s 			page 54


 3005 01a8 3E000000 		.4byte	0x3e
 3006 01ac 02       		.byte	0x2
 3007 01ad 23       		.byte	0x23
 3008 01ae 06       		.uleb128 0x6
 3009 01af 0A       		.uleb128 0xa
 3010 01b0 46040000 		.4byte	.LASF39
 3011 01b4 06       		.byte	0x6
 3012 01b5 57       		.byte	0x57
 3013 01b6 3E000000 		.4byte	0x3e
 3014 01ba 02       		.byte	0x2
 3015 01bb 23       		.byte	0x23
 3016 01bc 07       		.uleb128 0x7
 3017 01bd 0A       		.uleb128 0xa
 3018 01be 4F040000 		.4byte	.LASF40
 3019 01c2 06       		.byte	0x6
 3020 01c3 59       		.byte	0x59
 3021 01c4 F2000000 		.4byte	0xf2
 3022 01c8 02       		.byte	0x2
 3023 01c9 23       		.byte	0x23
 3024 01ca 08       		.uleb128 0x8
 3025 01cb 0A       		.uleb128 0xa
 3026 01cc 04040000 		.4byte	.LASF41
 3027 01d0 06       		.byte	0x6
 3028 01d1 59       		.byte	0x59
 3029 01d2 F2000000 		.4byte	0xf2
 3030 01d6 02       		.byte	0x2
 3031 01d7 23       		.byte	0x23
 3032 01d8 0A       		.uleb128 0xa
 3033 01d9 0A       		.uleb128 0xa
 3034 01da 8E020000 		.4byte	.LASF42
 3035 01de 06       		.byte	0x6
 3036 01df 5A       		.byte	0x5a
 3037 01e0 F2000000 		.4byte	0xf2
 3038 01e4 02       		.byte	0x2
 3039 01e5 23       		.byte	0x23
 3040 01e6 0C       		.uleb128 0xc
 3041 01e7 0A       		.uleb128 0xa
 3042 01e8 00010000 		.4byte	.LASF43
 3043 01ec 06       		.byte	0x6
 3044 01ed 5A       		.byte	0x5a
 3045 01ee F2000000 		.4byte	0xf2
 3046 01f2 02       		.byte	0x2
 3047 01f3 23       		.byte	0x23
 3048 01f4 0E       		.uleb128 0xe
 3049 01f5 00       		.byte	0
 3050 01f6 04       		.uleb128 0x4
 3051 01f7 77000000 		.4byte	.LASF44
 3052 01fb 06       		.byte	0x6
 3053 01fc 5C       		.byte	0x5c
 3054 01fd 5D010000 		.4byte	0x15d
 3055 0201 04       		.uleb128 0x4
 3056 0202 25010000 		.4byte	.LASF45
 3057 0206 06       		.byte	0x6
 3058 0207 DB       		.byte	0xdb
 3059 0208 62000000 		.4byte	0x62
 3060 020c 07       		.uleb128 0x7
 3061 020d 86040000 		.4byte	.LASF46
ARM GAS  /tmp/ccd61yKH.s 			page 55


 3062 0211 01       		.byte	0x1
 3063 0212 07       		.byte	0x7
 3064 0213 33       		.byte	0x33
 3065 0214 37020000 		.4byte	0x237
 3066 0218 08       		.uleb128 0x8
 3067 0219 5F040000 		.4byte	.LASF47
 3068 021d 00       		.sleb128 0
 3069 021e 08       		.uleb128 0x8
 3070 021f 31020000 		.4byte	.LASF48
 3071 0223 01       		.sleb128 1
 3072 0224 08       		.uleb128 0x8
 3073 0225 68000000 		.4byte	.LASF49
 3074 0229 02       		.sleb128 2
 3075 022a 08       		.uleb128 0x8
 3076 022b 33010000 		.4byte	.LASF50
 3077 022f 04       		.sleb128 4
 3078 0230 08       		.uleb128 0x8
 3079 0231 42020000 		.4byte	.LASF51
 3080 0235 08       		.sleb128 8
 3081 0236 00       		.byte	0
 3082 0237 09       		.uleb128 0x9
 3083 0238 D2040000 		.4byte	.LASF53
 3084 023c 10       		.byte	0x10
 3085 023d 07       		.byte	0x7
 3086 023e 22       		.byte	0x22
 3087 023f AE020000 		.4byte	0x2ae
 3088 0243 0A       		.uleb128 0xa
 3089 0244 1B030000 		.4byte	.LASF54
 3090 0248 07       		.byte	0x7
 3091 0249 23       		.byte	0x23
 3092 024a E7000000 		.4byte	0xe7
 3093 024e 02       		.byte	0x2
 3094 024f 23       		.byte	0x23
 3095 0250 00       		.uleb128 0
 3096 0251 0A       		.uleb128 0xa
 3097 0252 4F030000 		.4byte	.LASF55
 3098 0256 07       		.byte	0x7
 3099 0257 24       		.byte	0x24
 3100 0258 62000000 		.4byte	0x62
 3101 025c 02       		.byte	0x2
 3102 025d 23       		.byte	0x23
 3103 025e 02       		.uleb128 0x2
 3104 025f 0B       		.uleb128 0xb
 3105 0260 7800     		.ascii	"x\000"
 3106 0262 07       		.byte	0x7
 3107 0263 25       		.byte	0x25
 3108 0264 F2000000 		.4byte	0xf2
 3109 0268 02       		.byte	0x2
 3110 0269 23       		.byte	0x23
 3111 026a 04       		.uleb128 0x4
 3112 026b 0B       		.uleb128 0xb
 3113 026c 7900     		.ascii	"y\000"
 3114 026e 07       		.byte	0x7
 3115 026f 25       		.byte	0x25
 3116 0270 F2000000 		.4byte	0xf2
 3117 0274 02       		.byte	0x2
 3118 0275 23       		.byte	0x23
ARM GAS  /tmp/ccd61yKH.s 			page 56


 3119 0276 06       		.uleb128 0x6
 3120 0277 0B       		.uleb128 0xb
 3121 0278 7A00     		.ascii	"z\000"
 3122 027a 07       		.byte	0x7
 3123 027b 25       		.byte	0x25
 3124 027c F2000000 		.4byte	0xf2
 3125 0280 02       		.byte	0x2
 3126 0281 23       		.byte	0x23
 3127 0282 08       		.uleb128 0x8
 3128 0283 0A       		.uleb128 0xa
 3129 0284 4C000000 		.4byte	.LASF56
 3130 0288 07       		.byte	0x7
 3131 0289 28       		.byte	0x28
 3132 028a 62000000 		.4byte	0x62
 3133 028e 02       		.byte	0x2
 3134 028f 23       		.byte	0x23
 3135 0290 0A       		.uleb128 0xa
 3136 0291 0A       		.uleb128 0xa
 3137 0292 F3000000 		.4byte	.LASF57
 3138 0296 07       		.byte	0x7
 3139 0297 32       		.byte	0x32
 3140 0298 62000000 		.4byte	0x62
 3141 029c 02       		.byte	0x2
 3142 029d 23       		.byte	0x23
 3143 029e 0C       		.uleb128 0xc
 3144 029f 0A       		.uleb128 0xa
 3145 02a0 58030000 		.4byte	.LASF58
 3146 02a4 07       		.byte	0x7
 3147 02a5 3A       		.byte	0x3a
 3148 02a6 0C020000 		.4byte	0x20c
 3149 02aa 02       		.byte	0x2
 3150 02ab 23       		.byte	0x23
 3151 02ac 0E       		.uleb128 0xe
 3152 02ad 00       		.byte	0
 3153 02ae 04       		.uleb128 0x4
 3154 02af C6030000 		.4byte	.LASF59
 3155 02b3 07       		.byte	0x7
 3156 02b4 3B       		.byte	0x3b
 3157 02b5 37020000 		.4byte	0x237
 3158 02b9 09       		.uleb128 0x9
 3159 02ba 75040000 		.4byte	.LASF60
 3160 02be 0A       		.byte	0xa
 3161 02bf 08       		.byte	0x8
 3162 02c0 3D       		.byte	0x3d
 3163 02c1 16030000 		.4byte	0x316
 3164 02c5 0B       		.uleb128 0xb
 3165 02c6 7800     		.ascii	"x\000"
 3166 02c8 08       		.byte	0x8
 3167 02c9 3E       		.byte	0x3e
 3168 02ca F2000000 		.4byte	0xf2
 3169 02ce 02       		.byte	0x2
 3170 02cf 23       		.byte	0x23
 3171 02d0 00       		.uleb128 0
 3172 02d1 0B       		.uleb128 0xb
 3173 02d2 7900     		.ascii	"y\000"
 3174 02d4 08       		.byte	0x8
 3175 02d5 3F       		.byte	0x3f
ARM GAS  /tmp/ccd61yKH.s 			page 57


 3176 02d6 F2000000 		.4byte	0xf2
 3177 02da 02       		.byte	0x2
 3178 02db 23       		.byte	0x23
 3179 02dc 02       		.uleb128 0x2
 3180 02dd 0A       		.uleb128 0xa
 3181 02de 7A010000 		.4byte	.LASF61
 3182 02e2 08       		.byte	0x8
 3183 02e3 40       		.byte	0x40
 3184 02e4 3E000000 		.4byte	0x3e
 3185 02e8 02       		.byte	0x2
 3186 02e9 23       		.byte	0x23
 3187 02ea 04       		.uleb128 0x4
 3188 02eb 0A       		.uleb128 0xa
 3189 02ec BF010000 		.4byte	.LASF62
 3190 02f0 08       		.byte	0x8
 3191 02f1 41       		.byte	0x41
 3192 02f2 3E000000 		.4byte	0x3e
 3193 02f6 02       		.byte	0x2
 3194 02f7 23       		.byte	0x23
 3195 02f8 05       		.uleb128 0x5
 3196 02f9 0A       		.uleb128 0xa
 3197 02fa 6A010000 		.4byte	.LASF63
 3198 02fe 08       		.byte	0x8
 3199 02ff 42       		.byte	0x42
 3200 0300 F2000000 		.4byte	0xf2
 3201 0304 02       		.byte	0x2
 3202 0305 23       		.byte	0x23
 3203 0306 06       		.uleb128 0x6
 3204 0307 0A       		.uleb128 0xa
 3205 0308 A3040000 		.4byte	.LASF64
 3206 030c 08       		.byte	0x8
 3207 030d 43       		.byte	0x43
 3208 030e F2000000 		.4byte	0xf2
 3209 0312 02       		.byte	0x2
 3210 0313 23       		.byte	0x23
 3211 0314 08       		.uleb128 0x8
 3212 0315 00       		.byte	0
 3213 0316 0C       		.uleb128 0xc
 3214 0317 01       		.byte	0x1
 3215 0318 28040000 		.4byte	.LASF65
 3216 031c 01       		.byte	0x1
 3217 031d 36       		.byte	0x36
 3218 031e 01       		.byte	0x1
 3219 031f 03       		.byte	0x3
 3220 0320 37030000 		.4byte	0x337
 3221 0324 0D       		.uleb128 0xd
 3222 0325 7800     		.ascii	"x\000"
 3223 0327 01       		.byte	0x1
 3224 0328 36       		.byte	0x36
 3225 0329 F2000000 		.4byte	0xf2
 3226 032d 0D       		.uleb128 0xd
 3227 032e 7900     		.ascii	"y\000"
 3228 0330 01       		.byte	0x1
 3229 0331 36       		.byte	0x36
 3230 0332 F2000000 		.4byte	0xf2
 3231 0336 00       		.byte	0
 3232 0337 0C       		.uleb128 0xc
ARM GAS  /tmp/ccd61yKH.s 			page 58


 3233 0338 01       		.byte	0x1
 3234 0339 4D010000 		.4byte	.LASF66
 3235 033d 01       		.byte	0x1
 3236 033e 3C       		.byte	0x3c
 3237 033f 01       		.byte	0x1
 3238 0340 03       		.byte	0x3
 3239 0341 58030000 		.4byte	0x358
 3240 0345 0D       		.uleb128 0xd
 3241 0346 7800     		.ascii	"x\000"
 3242 0348 01       		.byte	0x1
 3243 0349 3C       		.byte	0x3c
 3244 034a F2000000 		.4byte	0xf2
 3245 034e 0D       		.uleb128 0xd
 3246 034f 7900     		.ascii	"y\000"
 3247 0351 01       		.byte	0x1
 3248 0352 3C       		.byte	0x3c
 3249 0353 F2000000 		.4byte	0xf2
 3250 0357 00       		.byte	0
 3251 0358 0C       		.uleb128 0xc
 3252 0359 01       		.byte	0x1
 3253 035a 56040000 		.4byte	.LASF67
 3254 035e 01       		.byte	0x1
 3255 035f 28       		.byte	0x28
 3256 0360 01       		.byte	0x1
 3257 0361 03       		.byte	0x3
 3258 0362 79030000 		.4byte	0x379
 3259 0366 0D       		.uleb128 0xd
 3260 0367 7800     		.ascii	"x\000"
 3261 0369 01       		.byte	0x1
 3262 036a 28       		.byte	0x28
 3263 036b F2000000 		.4byte	0xf2
 3264 036f 0D       		.uleb128 0xd
 3265 0370 7900     		.ascii	"y\000"
 3266 0372 01       		.byte	0x1
 3267 0373 28       		.byte	0x28
 3268 0374 F2000000 		.4byte	0xf2
 3269 0378 00       		.byte	0
 3270 0379 0C       		.uleb128 0xc
 3271 037a 01       		.byte	0x1
 3272 037b 58010000 		.4byte	.LASF68
 3273 037f 01       		.byte	0x1
 3274 0380 2F       		.byte	0x2f
 3275 0381 01       		.byte	0x1
 3276 0382 03       		.byte	0x3
 3277 0383 9A030000 		.4byte	0x39a
 3278 0387 0D       		.uleb128 0xd
 3279 0388 7800     		.ascii	"x\000"
 3280 038a 01       		.byte	0x1
 3281 038b 2F       		.byte	0x2f
 3282 038c F2000000 		.4byte	0xf2
 3283 0390 0D       		.uleb128 0xd
 3284 0391 7900     		.ascii	"y\000"
 3285 0393 01       		.byte	0x1
 3286 0394 2F       		.byte	0x2f
 3287 0395 F2000000 		.4byte	0xf2
 3288 0399 00       		.byte	0
 3289 039a 0E       		.uleb128 0xe
ARM GAS  /tmp/ccd61yKH.s 			page 59


 3290 039b 01       		.byte	0x1
 3291 039c D9010000 		.4byte	.LASF69
 3292 03a0 01       		.byte	0x1
 3293 03a1 46       		.byte	0x46
 3294 03a2 01       		.byte	0x1
 3295 03a3 00000000 		.4byte	.LFB122
 3296 03a7 6C020000 		.4byte	.LFE122
 3297 03ab 00000000 		.4byte	.LLST0
 3298 03af 01       		.byte	0x1
 3299 03b0 9C050000 		.4byte	0x59c
 3300 03b4 0F       		.uleb128 0xf
 3301 03b5 6900     		.ascii	"i\000"
 3302 03b7 01       		.byte	0x1
 3303 03b8 48       		.byte	0x48
 3304 03b9 3E000000 		.4byte	0x3e
 3305 03bd 2C000000 		.4byte	.LLST1
 3306 03c1 0F       		.uleb128 0xf
 3307 03c2 6A00     		.ascii	"j\000"
 3308 03c4 01       		.byte	0x1
 3309 03c5 48       		.byte	0x48
 3310 03c6 3E000000 		.4byte	0x3e
 3311 03ca 40000000 		.4byte	.LLST2
 3312 03ce 10       		.uleb128 0x10
 3313 03cf 6C000000 		.4byte	.LVL6
 3314 03d3 CC180000 		.4byte	0x18cc
 3315 03d7 E3030000 		.4byte	0x3e3
 3316 03db 11       		.uleb128 0x11
 3317 03dc 02       		.byte	0x2
 3318 03dd 7D       		.byte	0x7d
 3319 03de 00       		.sleb128 0
 3320 03df 02       		.byte	0x2
 3321 03e0 77       		.byte	0x77
 3322 03e1 00       		.sleb128 0
 3323 03e2 00       		.byte	0
 3324 03e3 10       		.uleb128 0x10
 3325 03e4 92000000 		.4byte	.LVL7
 3326 03e8 CC180000 		.4byte	0x18cc
 3327 03ec F8030000 		.4byte	0x3f8
 3328 03f0 11       		.uleb128 0x11
 3329 03f1 02       		.byte	0x2
 3330 03f2 7D       		.byte	0x7d
 3331 03f3 00       		.sleb128 0
 3332 03f4 02       		.byte	0x2
 3333 03f5 77       		.byte	0x77
 3334 03f6 00       		.sleb128 0
 3335 03f7 00       		.byte	0
 3336 03f8 10       		.uleb128 0x10
 3337 03f9 B0000000 		.4byte	.LVL8
 3338 03fd CC180000 		.4byte	0x18cc
 3339 0401 0D040000 		.4byte	0x40d
 3340 0405 11       		.uleb128 0x11
 3341 0406 02       		.byte	0x2
 3342 0407 7D       		.byte	0x7d
 3343 0408 00       		.sleb128 0
 3344 0409 02       		.byte	0x2
 3345 040a 77       		.byte	0x77
 3346 040b 00       		.sleb128 0
ARM GAS  /tmp/ccd61yKH.s 			page 60


 3347 040c 00       		.byte	0
 3348 040d 10       		.uleb128 0x10
 3349 040e C2000000 		.4byte	.LVL9
 3350 0412 F5180000 		.4byte	0x18f5
 3351 0416 26040000 		.4byte	0x426
 3352 041a 11       		.uleb128 0x11
 3353 041b 01       		.byte	0x1
 3354 041c 53       		.byte	0x53
 3355 041d 02       		.byte	0x2
 3356 041e 77       		.byte	0x77
 3357 041f 00       		.sleb128 0
 3358 0420 11       		.uleb128 0x11
 3359 0421 01       		.byte	0x1
 3360 0422 52       		.byte	0x52
 3361 0423 01       		.byte	0x1
 3362 0424 33       		.byte	0x33
 3363 0425 00       		.byte	0
 3364 0426 10       		.uleb128 0x10
 3365 0427 D4000000 		.4byte	.LVL10
 3366 042b F5180000 		.4byte	0x18f5
 3367 042f 3F040000 		.4byte	0x43f
 3368 0433 11       		.uleb128 0x11
 3369 0434 01       		.byte	0x1
 3370 0435 53       		.byte	0x53
 3371 0436 02       		.byte	0x2
 3372 0437 77       		.byte	0x77
 3373 0438 00       		.sleb128 0
 3374 0439 11       		.uleb128 0x11
 3375 043a 01       		.byte	0x1
 3376 043b 52       		.byte	0x52
 3377 043c 01       		.byte	0x1
 3378 043d 33       		.byte	0x33
 3379 043e 00       		.byte	0
 3380 043f 10       		.uleb128 0x10
 3381 0440 E8000000 		.4byte	.LVL12
 3382 0444 CC180000 		.4byte	0x18cc
 3383 0448 54040000 		.4byte	0x454
 3384 044c 11       		.uleb128 0x11
 3385 044d 02       		.byte	0x2
 3386 044e 7D       		.byte	0x7d
 3387 044f 00       		.sleb128 0
 3388 0450 02       		.byte	0x2
 3389 0451 77       		.byte	0x77
 3390 0452 00       		.sleb128 0
 3391 0453 00       		.byte	0
 3392 0454 10       		.uleb128 0x10
 3393 0455 0E010000 		.4byte	.LVL13
 3394 0459 CC180000 		.4byte	0x18cc
 3395 045d 69040000 		.4byte	0x469
 3396 0461 11       		.uleb128 0x11
 3397 0462 02       		.byte	0x2
 3398 0463 7D       		.byte	0x7d
 3399 0464 00       		.sleb128 0
 3400 0465 02       		.byte	0x2
 3401 0466 77       		.byte	0x77
 3402 0467 00       		.sleb128 0
 3403 0468 00       		.byte	0
ARM GAS  /tmp/ccd61yKH.s 			page 61


 3404 0469 10       		.uleb128 0x10
 3405 046a 2C010000 		.4byte	.LVL14
 3406 046e CC180000 		.4byte	0x18cc
 3407 0472 7E040000 		.4byte	0x47e
 3408 0476 11       		.uleb128 0x11
 3409 0477 02       		.byte	0x2
 3410 0478 7D       		.byte	0x7d
 3411 0479 00       		.sleb128 0
 3412 047a 02       		.byte	0x2
 3413 047b 77       		.byte	0x77
 3414 047c 00       		.sleb128 0
 3415 047d 00       		.byte	0
 3416 047e 10       		.uleb128 0x10
 3417 047f 3E010000 		.4byte	.LVL15
 3418 0483 F5180000 		.4byte	0x18f5
 3419 0487 97040000 		.4byte	0x497
 3420 048b 11       		.uleb128 0x11
 3421 048c 01       		.byte	0x1
 3422 048d 53       		.byte	0x53
 3423 048e 02       		.byte	0x2
 3424 048f 77       		.byte	0x77
 3425 0490 00       		.sleb128 0
 3426 0491 11       		.uleb128 0x11
 3427 0492 01       		.byte	0x1
 3428 0493 52       		.byte	0x52
 3429 0494 01       		.byte	0x1
 3430 0495 33       		.byte	0x33
 3431 0496 00       		.byte	0
 3432 0497 10       		.uleb128 0x10
 3433 0498 50010000 		.4byte	.LVL16
 3434 049c F5180000 		.4byte	0x18f5
 3435 04a0 B0040000 		.4byte	0x4b0
 3436 04a4 11       		.uleb128 0x11
 3437 04a5 01       		.byte	0x1
 3438 04a6 53       		.byte	0x53
 3439 04a7 02       		.byte	0x2
 3440 04a8 77       		.byte	0x77
 3441 04a9 00       		.sleb128 0
 3442 04aa 11       		.uleb128 0x11
 3443 04ab 01       		.byte	0x1
 3444 04ac 52       		.byte	0x52
 3445 04ad 01       		.byte	0x1
 3446 04ae 33       		.byte	0x33
 3447 04af 00       		.byte	0
 3448 04b0 10       		.uleb128 0x10
 3449 04b1 64010000 		.4byte	.LVL18
 3450 04b5 CC180000 		.4byte	0x18cc
 3451 04b9 C5040000 		.4byte	0x4c5
 3452 04bd 11       		.uleb128 0x11
 3453 04be 02       		.byte	0x2
 3454 04bf 7D       		.byte	0x7d
 3455 04c0 00       		.sleb128 0
 3456 04c1 02       		.byte	0x2
 3457 04c2 77       		.byte	0x77
 3458 04c3 00       		.sleb128 0
 3459 04c4 00       		.byte	0
 3460 04c5 10       		.uleb128 0x10
ARM GAS  /tmp/ccd61yKH.s 			page 62


 3461 04c6 88010000 		.4byte	.LVL19
 3462 04ca CC180000 		.4byte	0x18cc
 3463 04ce DA040000 		.4byte	0x4da
 3464 04d2 11       		.uleb128 0x11
 3465 04d3 02       		.byte	0x2
 3466 04d4 7D       		.byte	0x7d
 3467 04d5 00       		.sleb128 0
 3468 04d6 02       		.byte	0x2
 3469 04d7 77       		.byte	0x77
 3470 04d8 00       		.sleb128 0
 3471 04d9 00       		.byte	0
 3472 04da 10       		.uleb128 0x10
 3473 04db A6010000 		.4byte	.LVL20
 3474 04df CC180000 		.4byte	0x18cc
 3475 04e3 EF040000 		.4byte	0x4ef
 3476 04e7 11       		.uleb128 0x11
 3477 04e8 02       		.byte	0x2
 3478 04e9 7D       		.byte	0x7d
 3479 04ea 00       		.sleb128 0
 3480 04eb 02       		.byte	0x2
 3481 04ec 77       		.byte	0x77
 3482 04ed 00       		.sleb128 0
 3483 04ee 00       		.byte	0
 3484 04ef 10       		.uleb128 0x10
 3485 04f0 B8010000 		.4byte	.LVL21
 3486 04f4 F5180000 		.4byte	0x18f5
 3487 04f8 08050000 		.4byte	0x508
 3488 04fc 11       		.uleb128 0x11
 3489 04fd 01       		.byte	0x1
 3490 04fe 53       		.byte	0x53
 3491 04ff 02       		.byte	0x2
 3492 0500 77       		.byte	0x77
 3493 0501 00       		.sleb128 0
 3494 0502 11       		.uleb128 0x11
 3495 0503 01       		.byte	0x1
 3496 0504 52       		.byte	0x52
 3497 0505 01       		.byte	0x1
 3498 0506 33       		.byte	0x33
 3499 0507 00       		.byte	0
 3500 0508 10       		.uleb128 0x10
 3501 0509 CA010000 		.4byte	.LVL22
 3502 050d F5180000 		.4byte	0x18f5
 3503 0511 21050000 		.4byte	0x521
 3504 0515 11       		.uleb128 0x11
 3505 0516 01       		.byte	0x1
 3506 0517 53       		.byte	0x53
 3507 0518 02       		.byte	0x2
 3508 0519 77       		.byte	0x77
 3509 051a 00       		.sleb128 0
 3510 051b 11       		.uleb128 0x11
 3511 051c 01       		.byte	0x1
 3512 051d 52       		.byte	0x52
 3513 051e 01       		.byte	0x1
 3514 051f 33       		.byte	0x33
 3515 0520 00       		.byte	0
 3516 0521 10       		.uleb128 0x10
 3517 0522 E0010000 		.4byte	.LVL24
ARM GAS  /tmp/ccd61yKH.s 			page 63


 3518 0526 CC180000 		.4byte	0x18cc
 3519 052a 36050000 		.4byte	0x536
 3520 052e 11       		.uleb128 0x11
 3521 052f 02       		.byte	0x2
 3522 0530 7D       		.byte	0x7d
 3523 0531 00       		.sleb128 0
 3524 0532 02       		.byte	0x2
 3525 0533 77       		.byte	0x77
 3526 0534 00       		.sleb128 0
 3527 0535 00       		.byte	0
 3528 0536 10       		.uleb128 0x10
 3529 0537 FE010000 		.4byte	.LVL25
 3530 053b CC180000 		.4byte	0x18cc
 3531 053f 4B050000 		.4byte	0x54b
 3532 0543 11       		.uleb128 0x11
 3533 0544 02       		.byte	0x2
 3534 0545 7D       		.byte	0x7d
 3535 0546 00       		.sleb128 0
 3536 0547 02       		.byte	0x2
 3537 0548 77       		.byte	0x77
 3538 0549 00       		.sleb128 0
 3539 054a 00       		.byte	0
 3540 054b 10       		.uleb128 0x10
 3541 054c 14020000 		.4byte	.LVL27
 3542 0550 CC180000 		.4byte	0x18cc
 3543 0554 60050000 		.4byte	0x560
 3544 0558 11       		.uleb128 0x11
 3545 0559 02       		.byte	0x2
 3546 055a 7D       		.byte	0x7d
 3547 055b 00       		.sleb128 0
 3548 055c 02       		.byte	0x2
 3549 055d 77       		.byte	0x77
 3550 055e 00       		.sleb128 0
 3551 055f 00       		.byte	0
 3552 0560 10       		.uleb128 0x10
 3553 0561 32020000 		.4byte	.LVL28
 3554 0565 CC180000 		.4byte	0x18cc
 3555 0569 75050000 		.4byte	0x575
 3556 056d 11       		.uleb128 0x11
 3557 056e 02       		.byte	0x2
 3558 056f 7D       		.byte	0x7d
 3559 0570 00       		.sleb128 0
 3560 0571 02       		.byte	0x2
 3561 0572 77       		.byte	0x77
 3562 0573 00       		.sleb128 0
 3563 0574 00       		.byte	0
 3564 0575 10       		.uleb128 0x10
 3565 0576 48020000 		.4byte	.LVL30
 3566 057a CC180000 		.4byte	0x18cc
 3567 057e 8A050000 		.4byte	0x58a
 3568 0582 11       		.uleb128 0x11
 3569 0583 02       		.byte	0x2
 3570 0584 7D       		.byte	0x7d
 3571 0585 00       		.sleb128 0
 3572 0586 02       		.byte	0x2
 3573 0587 77       		.byte	0x77
 3574 0588 00       		.sleb128 0
ARM GAS  /tmp/ccd61yKH.s 			page 64


 3575 0589 00       		.byte	0
 3576 058a 12       		.uleb128 0x12
 3577 058b 66020000 		.4byte	.LVL31
 3578 058f CC180000 		.4byte	0x18cc
 3579 0593 11       		.uleb128 0x11
 3580 0594 02       		.byte	0x2
 3581 0595 7D       		.byte	0x7d
 3582 0596 00       		.sleb128 0
 3583 0597 02       		.byte	0x2
 3584 0598 77       		.byte	0x77
 3585 0599 00       		.sleb128 0
 3586 059a 00       		.byte	0
 3587 059b 00       		.byte	0
 3588 059c 0E       		.uleb128 0xe
 3589 059d 01       		.byte	0x1
 3590 059e 00000000 		.4byte	.LASF70
 3591 05a2 01       		.byte	0x1
 3592 05a3 71       		.byte	0x71
 3593 05a4 01       		.byte	0x1
 3594 05a5 00000000 		.4byte	.LFB123
 3595 05a9 D8010000 		.4byte	.LFE123
 3596 05ad C0000000 		.4byte	.LLST3
 3597 05b1 01       		.byte	0x1
 3598 05b2 FD090000 		.4byte	0x9fd
 3599 05b6 0F       		.uleb128 0xf
 3600 05b7 6900     		.ascii	"i\000"
 3601 05b9 01       		.byte	0x1
 3602 05ba 75       		.byte	0x75
 3603 05bb 3E000000 		.4byte	0x3e
 3604 05bf E0000000 		.4byte	.LLST4
 3605 05c3 0F       		.uleb128 0xf
 3606 05c4 6A00     		.ascii	"j\000"
 3607 05c6 01       		.byte	0x1
 3608 05c7 75       		.byte	0x75
 3609 05c8 3E000000 		.4byte	0x3e
 3610 05cc 0C010000 		.4byte	.LLST5
 3611 05d0 13       		.uleb128 0x13
 3612 05d1 16030000 		.4byte	0x316
 3613 05d5 12000000 		.4byte	.LBB10
 3614 05d9 00000000 		.4byte	.Ldebug_ranges0+0
 3615 05dd 01       		.byte	0x1
 3616 05de 7A       		.byte	0x7a
 3617 05df EC090000 		.4byte	0x9ec
 3618 05e3 14       		.uleb128 0x14
 3619 05e4 2D030000 		.4byte	0x32d
 3620 05e8 80010000 		.4byte	.LLST6
 3621 05ec 14       		.uleb128 0x14
 3622 05ed 24030000 		.4byte	0x324
 3623 05f1 72020000 		.4byte	.LLST7
 3624 05f5 10       		.uleb128 0x10
 3625 05f6 28000000 		.4byte	.LVL33
 3626 05fa F5180000 		.4byte	0x18f5
 3627 05fe 1B060000 		.4byte	0x61b
 3628 0602 11       		.uleb128 0x11
 3629 0603 01       		.byte	0x1
 3630 0604 53       		.byte	0x53
 3631 0605 03       		.byte	0x3
ARM GAS  /tmp/ccd61yKH.s 			page 65


 3632 0606 0B       		.byte	0xb
 3633 0607 00F8     		.2byte	0xf800
 3634 0609 11       		.uleb128 0x11
 3635 060a 01       		.byte	0x1
 3636 060b 52       		.byte	0x52
 3637 060c 01       		.byte	0x1
 3638 060d 44       		.byte	0x44
 3639 060e 11       		.uleb128 0x11
 3640 060f 01       		.byte	0x1
 3641 0610 51       		.byte	0x51
 3642 0611 02       		.byte	0x2
 3643 0612 75       		.byte	0x75
 3644 0613 00       		.sleb128 0
 3645 0614 11       		.uleb128 0x11
 3646 0615 01       		.byte	0x1
 3647 0616 50       		.byte	0x50
 3648 0617 02       		.byte	0x2
 3649 0618 76       		.byte	0x76
 3650 0619 00       		.sleb128 0
 3651 061a 00       		.byte	0
 3652 061b 10       		.uleb128 0x10
 3653 061c 36000000 		.4byte	.LVL34
 3654 0620 F5180000 		.4byte	0x18f5
 3655 0624 40060000 		.4byte	0x640
 3656 0628 11       		.uleb128 0x11
 3657 0629 01       		.byte	0x1
 3658 062a 53       		.byte	0x53
 3659 062b 02       		.byte	0x2
 3660 062c 09       		.byte	0x9
 3661 062d FF       		.byte	0xff
 3662 062e 11       		.uleb128 0x11
 3663 062f 01       		.byte	0x1
 3664 0630 52       		.byte	0x52
 3665 0631 01       		.byte	0x1
 3666 0632 41       		.byte	0x41
 3667 0633 11       		.uleb128 0x11
 3668 0634 01       		.byte	0x1
 3669 0635 51       		.byte	0x51
 3670 0636 02       		.byte	0x2
 3671 0637 75       		.byte	0x75
 3672 0638 00       		.sleb128 0
 3673 0639 11       		.uleb128 0x11
 3674 063a 01       		.byte	0x1
 3675 063b 50       		.byte	0x50
 3676 063c 02       		.byte	0x2
 3677 063d 76       		.byte	0x76
 3678 063e 00       		.sleb128 0
 3679 063f 00       		.byte	0
 3680 0640 10       		.uleb128 0x10
 3681 0641 44000000 		.4byte	.LVL35
 3682 0645 F5180000 		.4byte	0x18f5
 3683 0649 66060000 		.4byte	0x666
 3684 064d 11       		.uleb128 0x11
 3685 064e 01       		.byte	0x1
 3686 064f 53       		.byte	0x53
 3687 0650 03       		.byte	0x3
 3688 0651 0B       		.byte	0xb
ARM GAS  /tmp/ccd61yKH.s 			page 66


 3689 0652 00F8     		.2byte	0xf800
 3690 0654 11       		.uleb128 0x11
 3691 0655 01       		.byte	0x1
 3692 0656 52       		.byte	0x52
 3693 0657 01       		.byte	0x1
 3694 0658 33       		.byte	0x33
 3695 0659 11       		.uleb128 0x11
 3696 065a 01       		.byte	0x1
 3697 065b 51       		.byte	0x51
 3698 065c 02       		.byte	0x2
 3699 065d 75       		.byte	0x75
 3700 065e 00       		.sleb128 0
 3701 065f 11       		.uleb128 0x11
 3702 0660 01       		.byte	0x1
 3703 0661 50       		.byte	0x50
 3704 0662 02       		.byte	0x2
 3705 0663 76       		.byte	0x76
 3706 0664 00       		.sleb128 0
 3707 0665 00       		.byte	0
 3708 0666 10       		.uleb128 0x10
 3709 0667 5A000000 		.4byte	.LVL36
 3710 066b F5180000 		.4byte	0x18f5
 3711 066f 8C060000 		.4byte	0x68c
 3712 0673 11       		.uleb128 0x11
 3713 0674 01       		.byte	0x1
 3714 0675 53       		.byte	0x53
 3715 0676 03       		.byte	0x3
 3716 0677 0B       		.byte	0xb
 3717 0678 00F8     		.2byte	0xf800
 3718 067a 11       		.uleb128 0x11
 3719 067b 01       		.byte	0x1
 3720 067c 52       		.byte	0x52
 3721 067d 01       		.byte	0x1
 3722 067e 44       		.byte	0x44
 3723 067f 11       		.uleb128 0x11
 3724 0680 01       		.byte	0x1
 3725 0681 51       		.byte	0x51
 3726 0682 02       		.byte	0x2
 3727 0683 75       		.byte	0x75
 3728 0684 00       		.sleb128 0
 3729 0685 11       		.uleb128 0x11
 3730 0686 01       		.byte	0x1
 3731 0687 50       		.byte	0x50
 3732 0688 02       		.byte	0x2
 3733 0689 76       		.byte	0x76
 3734 068a 00       		.sleb128 0
 3735 068b 00       		.byte	0
 3736 068c 10       		.uleb128 0x10
 3737 068d 68000000 		.4byte	.LVL37
 3738 0691 F5180000 		.4byte	0x18f5
 3739 0695 B1060000 		.4byte	0x6b1
 3740 0699 11       		.uleb128 0x11
 3741 069a 01       		.byte	0x1
 3742 069b 53       		.byte	0x53
 3743 069c 02       		.byte	0x2
 3744 069d 09       		.byte	0x9
 3745 069e FF       		.byte	0xff
ARM GAS  /tmp/ccd61yKH.s 			page 67


 3746 069f 11       		.uleb128 0x11
 3747 06a0 01       		.byte	0x1
 3748 06a1 52       		.byte	0x52
 3749 06a2 01       		.byte	0x1
 3750 06a3 41       		.byte	0x41
 3751 06a4 11       		.uleb128 0x11
 3752 06a5 01       		.byte	0x1
 3753 06a6 51       		.byte	0x51
 3754 06a7 02       		.byte	0x2
 3755 06a8 75       		.byte	0x75
 3756 06a9 00       		.sleb128 0
 3757 06aa 11       		.uleb128 0x11
 3758 06ab 01       		.byte	0x1
 3759 06ac 50       		.byte	0x50
 3760 06ad 02       		.byte	0x2
 3761 06ae 76       		.byte	0x76
 3762 06af 00       		.sleb128 0
 3763 06b0 00       		.byte	0
 3764 06b1 10       		.uleb128 0x10
 3765 06b2 76000000 		.4byte	.LVL38
 3766 06b6 F5180000 		.4byte	0x18f5
 3767 06ba D7060000 		.4byte	0x6d7
 3768 06be 11       		.uleb128 0x11
 3769 06bf 01       		.byte	0x1
 3770 06c0 53       		.byte	0x53
 3771 06c1 03       		.byte	0x3
 3772 06c2 0B       		.byte	0xb
 3773 06c3 00F8     		.2byte	0xf800
 3774 06c5 11       		.uleb128 0x11
 3775 06c6 01       		.byte	0x1
 3776 06c7 52       		.byte	0x52
 3777 06c8 01       		.byte	0x1
 3778 06c9 33       		.byte	0x33
 3779 06ca 11       		.uleb128 0x11
 3780 06cb 01       		.byte	0x1
 3781 06cc 51       		.byte	0x51
 3782 06cd 02       		.byte	0x2
 3783 06ce 75       		.byte	0x75
 3784 06cf 00       		.sleb128 0
 3785 06d0 11       		.uleb128 0x11
 3786 06d1 01       		.byte	0x1
 3787 06d2 50       		.byte	0x50
 3788 06d3 02       		.byte	0x2
 3789 06d4 76       		.byte	0x76
 3790 06d5 00       		.sleb128 0
 3791 06d6 00       		.byte	0
 3792 06d7 10       		.uleb128 0x10
 3793 06d8 8C000000 		.4byte	.LVL39
 3794 06dc F5180000 		.4byte	0x18f5
 3795 06e0 FD060000 		.4byte	0x6fd
 3796 06e4 11       		.uleb128 0x11
 3797 06e5 01       		.byte	0x1
 3798 06e6 53       		.byte	0x53
 3799 06e7 03       		.byte	0x3
 3800 06e8 0B       		.byte	0xb
 3801 06e9 00F8     		.2byte	0xf800
 3802 06eb 11       		.uleb128 0x11
ARM GAS  /tmp/ccd61yKH.s 			page 68


 3803 06ec 01       		.byte	0x1
 3804 06ed 52       		.byte	0x52
 3805 06ee 01       		.byte	0x1
 3806 06ef 44       		.byte	0x44
 3807 06f0 11       		.uleb128 0x11
 3808 06f1 01       		.byte	0x1
 3809 06f2 51       		.byte	0x51
 3810 06f3 02       		.byte	0x2
 3811 06f4 75       		.byte	0x75
 3812 06f5 00       		.sleb128 0
 3813 06f6 11       		.uleb128 0x11
 3814 06f7 01       		.byte	0x1
 3815 06f8 50       		.byte	0x50
 3816 06f9 02       		.byte	0x2
 3817 06fa 76       		.byte	0x76
 3818 06fb 00       		.sleb128 0
 3819 06fc 00       		.byte	0
 3820 06fd 10       		.uleb128 0x10
 3821 06fe 9A000000 		.4byte	.LVL40
 3822 0702 F5180000 		.4byte	0x18f5
 3823 0706 22070000 		.4byte	0x722
 3824 070a 11       		.uleb128 0x11
 3825 070b 01       		.byte	0x1
 3826 070c 53       		.byte	0x53
 3827 070d 02       		.byte	0x2
 3828 070e 09       		.byte	0x9
 3829 070f FF       		.byte	0xff
 3830 0710 11       		.uleb128 0x11
 3831 0711 01       		.byte	0x1
 3832 0712 52       		.byte	0x52
 3833 0713 01       		.byte	0x1
 3834 0714 41       		.byte	0x41
 3835 0715 11       		.uleb128 0x11
 3836 0716 01       		.byte	0x1
 3837 0717 51       		.byte	0x51
 3838 0718 02       		.byte	0x2
 3839 0719 75       		.byte	0x75
 3840 071a 00       		.sleb128 0
 3841 071b 11       		.uleb128 0x11
 3842 071c 01       		.byte	0x1
 3843 071d 50       		.byte	0x50
 3844 071e 02       		.byte	0x2
 3845 071f 76       		.byte	0x76
 3846 0720 00       		.sleb128 0
 3847 0721 00       		.byte	0
 3848 0722 10       		.uleb128 0x10
 3849 0723 A8000000 		.4byte	.LVL41
 3850 0727 F5180000 		.4byte	0x18f5
 3851 072b 48070000 		.4byte	0x748
 3852 072f 11       		.uleb128 0x11
 3853 0730 01       		.byte	0x1
 3854 0731 53       		.byte	0x53
 3855 0732 03       		.byte	0x3
 3856 0733 0B       		.byte	0xb
 3857 0734 00F8     		.2byte	0xf800
 3858 0736 11       		.uleb128 0x11
 3859 0737 01       		.byte	0x1
ARM GAS  /tmp/ccd61yKH.s 			page 69


 3860 0738 52       		.byte	0x52
 3861 0739 01       		.byte	0x1
 3862 073a 33       		.byte	0x33
 3863 073b 11       		.uleb128 0x11
 3864 073c 01       		.byte	0x1
 3865 073d 51       		.byte	0x51
 3866 073e 02       		.byte	0x2
 3867 073f 75       		.byte	0x75
 3868 0740 00       		.sleb128 0
 3869 0741 11       		.uleb128 0x11
 3870 0742 01       		.byte	0x1
 3871 0743 50       		.byte	0x50
 3872 0744 02       		.byte	0x2
 3873 0745 76       		.byte	0x76
 3874 0746 00       		.sleb128 0
 3875 0747 00       		.byte	0
 3876 0748 10       		.uleb128 0x10
 3877 0749 BE000000 		.4byte	.LVL42
 3878 074d F5180000 		.4byte	0x18f5
 3879 0751 6E070000 		.4byte	0x76e
 3880 0755 11       		.uleb128 0x11
 3881 0756 01       		.byte	0x1
 3882 0757 53       		.byte	0x53
 3883 0758 03       		.byte	0x3
 3884 0759 0B       		.byte	0xb
 3885 075a 00F8     		.2byte	0xf800
 3886 075c 11       		.uleb128 0x11
 3887 075d 01       		.byte	0x1
 3888 075e 52       		.byte	0x52
 3889 075f 01       		.byte	0x1
 3890 0760 44       		.byte	0x44
 3891 0761 11       		.uleb128 0x11
 3892 0762 01       		.byte	0x1
 3893 0763 51       		.byte	0x51
 3894 0764 02       		.byte	0x2
 3895 0765 75       		.byte	0x75
 3896 0766 00       		.sleb128 0
 3897 0767 11       		.uleb128 0x11
 3898 0768 01       		.byte	0x1
 3899 0769 50       		.byte	0x50
 3900 076a 02       		.byte	0x2
 3901 076b 76       		.byte	0x76
 3902 076c 00       		.sleb128 0
 3903 076d 00       		.byte	0
 3904 076e 10       		.uleb128 0x10
 3905 076f CC000000 		.4byte	.LVL43
 3906 0773 F5180000 		.4byte	0x18f5
 3907 0777 93070000 		.4byte	0x793
 3908 077b 11       		.uleb128 0x11
 3909 077c 01       		.byte	0x1
 3910 077d 53       		.byte	0x53
 3911 077e 02       		.byte	0x2
 3912 077f 09       		.byte	0x9
 3913 0780 FF       		.byte	0xff
 3914 0781 11       		.uleb128 0x11
 3915 0782 01       		.byte	0x1
 3916 0783 52       		.byte	0x52
ARM GAS  /tmp/ccd61yKH.s 			page 70


 3917 0784 01       		.byte	0x1
 3918 0785 41       		.byte	0x41
 3919 0786 11       		.uleb128 0x11
 3920 0787 01       		.byte	0x1
 3921 0788 51       		.byte	0x51
 3922 0789 02       		.byte	0x2
 3923 078a 75       		.byte	0x75
 3924 078b 00       		.sleb128 0
 3925 078c 11       		.uleb128 0x11
 3926 078d 01       		.byte	0x1
 3927 078e 50       		.byte	0x50
 3928 078f 02       		.byte	0x2
 3929 0790 76       		.byte	0x76
 3930 0791 00       		.sleb128 0
 3931 0792 00       		.byte	0
 3932 0793 10       		.uleb128 0x10
 3933 0794 DA000000 		.4byte	.LVL44
 3934 0798 F5180000 		.4byte	0x18f5
 3935 079c B9070000 		.4byte	0x7b9
 3936 07a0 11       		.uleb128 0x11
 3937 07a1 01       		.byte	0x1
 3938 07a2 53       		.byte	0x53
 3939 07a3 03       		.byte	0x3
 3940 07a4 0B       		.byte	0xb
 3941 07a5 00F8     		.2byte	0xf800
 3942 07a7 11       		.uleb128 0x11
 3943 07a8 01       		.byte	0x1
 3944 07a9 52       		.byte	0x52
 3945 07aa 01       		.byte	0x1
 3946 07ab 33       		.byte	0x33
 3947 07ac 11       		.uleb128 0x11
 3948 07ad 01       		.byte	0x1
 3949 07ae 51       		.byte	0x51
 3950 07af 02       		.byte	0x2
 3951 07b0 75       		.byte	0x75
 3952 07b1 00       		.sleb128 0
 3953 07b2 11       		.uleb128 0x11
 3954 07b3 01       		.byte	0x1
 3955 07b4 50       		.byte	0x50
 3956 07b5 02       		.byte	0x2
 3957 07b6 76       		.byte	0x76
 3958 07b7 00       		.sleb128 0
 3959 07b8 00       		.byte	0
 3960 07b9 10       		.uleb128 0x10
 3961 07ba F0000000 		.4byte	.LVL45
 3962 07be F5180000 		.4byte	0x18f5
 3963 07c2 DF070000 		.4byte	0x7df
 3964 07c6 11       		.uleb128 0x11
 3965 07c7 01       		.byte	0x1
 3966 07c8 53       		.byte	0x53
 3967 07c9 03       		.byte	0x3
 3968 07ca 0B       		.byte	0xb
 3969 07cb 00F8     		.2byte	0xf800
 3970 07cd 11       		.uleb128 0x11
 3971 07ce 01       		.byte	0x1
 3972 07cf 52       		.byte	0x52
 3973 07d0 01       		.byte	0x1
ARM GAS  /tmp/ccd61yKH.s 			page 71


 3974 07d1 44       		.byte	0x44
 3975 07d2 11       		.uleb128 0x11
 3976 07d3 01       		.byte	0x1
 3977 07d4 51       		.byte	0x51
 3978 07d5 02       		.byte	0x2
 3979 07d6 75       		.byte	0x75
 3980 07d7 00       		.sleb128 0
 3981 07d8 11       		.uleb128 0x11
 3982 07d9 01       		.byte	0x1
 3983 07da 50       		.byte	0x50
 3984 07db 02       		.byte	0x2
 3985 07dc 76       		.byte	0x76
 3986 07dd 00       		.sleb128 0
 3987 07de 00       		.byte	0
 3988 07df 10       		.uleb128 0x10
 3989 07e0 FE000000 		.4byte	.LVL46
 3990 07e4 F5180000 		.4byte	0x18f5
 3991 07e8 04080000 		.4byte	0x804
 3992 07ec 11       		.uleb128 0x11
 3993 07ed 01       		.byte	0x1
 3994 07ee 53       		.byte	0x53
 3995 07ef 02       		.byte	0x2
 3996 07f0 09       		.byte	0x9
 3997 07f1 FF       		.byte	0xff
 3998 07f2 11       		.uleb128 0x11
 3999 07f3 01       		.byte	0x1
 4000 07f4 52       		.byte	0x52
 4001 07f5 01       		.byte	0x1
 4002 07f6 41       		.byte	0x41
 4003 07f7 11       		.uleb128 0x11
 4004 07f8 01       		.byte	0x1
 4005 07f9 51       		.byte	0x51
 4006 07fa 02       		.byte	0x2
 4007 07fb 75       		.byte	0x75
 4008 07fc 00       		.sleb128 0
 4009 07fd 11       		.uleb128 0x11
 4010 07fe 01       		.byte	0x1
 4011 07ff 50       		.byte	0x50
 4012 0800 02       		.byte	0x2
 4013 0801 76       		.byte	0x76
 4014 0802 00       		.sleb128 0
 4015 0803 00       		.byte	0
 4016 0804 10       		.uleb128 0x10
 4017 0805 0C010000 		.4byte	.LVL47
 4018 0809 F5180000 		.4byte	0x18f5
 4019 080d 2A080000 		.4byte	0x82a
 4020 0811 11       		.uleb128 0x11
 4021 0812 01       		.byte	0x1
 4022 0813 53       		.byte	0x53
 4023 0814 03       		.byte	0x3
 4024 0815 0B       		.byte	0xb
 4025 0816 00F8     		.2byte	0xf800
 4026 0818 11       		.uleb128 0x11
 4027 0819 01       		.byte	0x1
 4028 081a 52       		.byte	0x52
 4029 081b 01       		.byte	0x1
 4030 081c 33       		.byte	0x33
ARM GAS  /tmp/ccd61yKH.s 			page 72


 4031 081d 11       		.uleb128 0x11
 4032 081e 01       		.byte	0x1
 4033 081f 51       		.byte	0x51
 4034 0820 02       		.byte	0x2
 4035 0821 75       		.byte	0x75
 4036 0822 00       		.sleb128 0
 4037 0823 11       		.uleb128 0x11
 4038 0824 01       		.byte	0x1
 4039 0825 50       		.byte	0x50
 4040 0826 02       		.byte	0x2
 4041 0827 76       		.byte	0x76
 4042 0828 00       		.sleb128 0
 4043 0829 00       		.byte	0
 4044 082a 10       		.uleb128 0x10
 4045 082b 22010000 		.4byte	.LVL48
 4046 082f F5180000 		.4byte	0x18f5
 4047 0833 50080000 		.4byte	0x850
 4048 0837 11       		.uleb128 0x11
 4049 0838 01       		.byte	0x1
 4050 0839 53       		.byte	0x53
 4051 083a 03       		.byte	0x3
 4052 083b 0B       		.byte	0xb
 4053 083c 00F8     		.2byte	0xf800
 4054 083e 11       		.uleb128 0x11
 4055 083f 01       		.byte	0x1
 4056 0840 52       		.byte	0x52
 4057 0841 01       		.byte	0x1
 4058 0842 44       		.byte	0x44
 4059 0843 11       		.uleb128 0x11
 4060 0844 01       		.byte	0x1
 4061 0845 51       		.byte	0x51
 4062 0846 02       		.byte	0x2
 4063 0847 75       		.byte	0x75
 4064 0848 00       		.sleb128 0
 4065 0849 11       		.uleb128 0x11
 4066 084a 01       		.byte	0x1
 4067 084b 50       		.byte	0x50
 4068 084c 02       		.byte	0x2
 4069 084d 76       		.byte	0x76
 4070 084e 00       		.sleb128 0
 4071 084f 00       		.byte	0
 4072 0850 10       		.uleb128 0x10
 4073 0851 30010000 		.4byte	.LVL49
 4074 0855 F5180000 		.4byte	0x18f5
 4075 0859 75080000 		.4byte	0x875
 4076 085d 11       		.uleb128 0x11
 4077 085e 01       		.byte	0x1
 4078 085f 53       		.byte	0x53
 4079 0860 02       		.byte	0x2
 4080 0861 09       		.byte	0x9
 4081 0862 FF       		.byte	0xff
 4082 0863 11       		.uleb128 0x11
 4083 0864 01       		.byte	0x1
 4084 0865 52       		.byte	0x52
 4085 0866 01       		.byte	0x1
 4086 0867 41       		.byte	0x41
 4087 0868 11       		.uleb128 0x11
ARM GAS  /tmp/ccd61yKH.s 			page 73


 4088 0869 01       		.byte	0x1
 4089 086a 51       		.byte	0x51
 4090 086b 02       		.byte	0x2
 4091 086c 75       		.byte	0x75
 4092 086d 00       		.sleb128 0
 4093 086e 11       		.uleb128 0x11
 4094 086f 01       		.byte	0x1
 4095 0870 50       		.byte	0x50
 4096 0871 02       		.byte	0x2
 4097 0872 76       		.byte	0x76
 4098 0873 00       		.sleb128 0
 4099 0874 00       		.byte	0
 4100 0875 10       		.uleb128 0x10
 4101 0876 3E010000 		.4byte	.LVL50
 4102 087a F5180000 		.4byte	0x18f5
 4103 087e 9B080000 		.4byte	0x89b
 4104 0882 11       		.uleb128 0x11
 4105 0883 01       		.byte	0x1
 4106 0884 53       		.byte	0x53
 4107 0885 03       		.byte	0x3
 4108 0886 0B       		.byte	0xb
 4109 0887 00F8     		.2byte	0xf800
 4110 0889 11       		.uleb128 0x11
 4111 088a 01       		.byte	0x1
 4112 088b 52       		.byte	0x52
 4113 088c 01       		.byte	0x1
 4114 088d 33       		.byte	0x33
 4115 088e 11       		.uleb128 0x11
 4116 088f 01       		.byte	0x1
 4117 0890 51       		.byte	0x51
 4118 0891 02       		.byte	0x2
 4119 0892 75       		.byte	0x75
 4120 0893 00       		.sleb128 0
 4121 0894 11       		.uleb128 0x11
 4122 0895 01       		.byte	0x1
 4123 0896 50       		.byte	0x50
 4124 0897 02       		.byte	0x2
 4125 0898 76       		.byte	0x76
 4126 0899 00       		.sleb128 0
 4127 089a 00       		.byte	0
 4128 089b 10       		.uleb128 0x10
 4129 089c 54010000 		.4byte	.LVL51
 4130 08a0 F5180000 		.4byte	0x18f5
 4131 08a4 C1080000 		.4byte	0x8c1
 4132 08a8 11       		.uleb128 0x11
 4133 08a9 01       		.byte	0x1
 4134 08aa 53       		.byte	0x53
 4135 08ab 03       		.byte	0x3
 4136 08ac 0B       		.byte	0xb
 4137 08ad 00F8     		.2byte	0xf800
 4138 08af 11       		.uleb128 0x11
 4139 08b0 01       		.byte	0x1
 4140 08b1 52       		.byte	0x52
 4141 08b2 01       		.byte	0x1
 4142 08b3 44       		.byte	0x44
 4143 08b4 11       		.uleb128 0x11
 4144 08b5 01       		.byte	0x1
ARM GAS  /tmp/ccd61yKH.s 			page 74


 4145 08b6 51       		.byte	0x51
 4146 08b7 02       		.byte	0x2
 4147 08b8 75       		.byte	0x75
 4148 08b9 00       		.sleb128 0
 4149 08ba 11       		.uleb128 0x11
 4150 08bb 01       		.byte	0x1
 4151 08bc 50       		.byte	0x50
 4152 08bd 02       		.byte	0x2
 4153 08be 76       		.byte	0x76
 4154 08bf 00       		.sleb128 0
 4155 08c0 00       		.byte	0
 4156 08c1 10       		.uleb128 0x10
 4157 08c2 62010000 		.4byte	.LVL52
 4158 08c6 F5180000 		.4byte	0x18f5
 4159 08ca E6080000 		.4byte	0x8e6
 4160 08ce 11       		.uleb128 0x11
 4161 08cf 01       		.byte	0x1
 4162 08d0 53       		.byte	0x53
 4163 08d1 02       		.byte	0x2
 4164 08d2 09       		.byte	0x9
 4165 08d3 FF       		.byte	0xff
 4166 08d4 11       		.uleb128 0x11
 4167 08d5 01       		.byte	0x1
 4168 08d6 52       		.byte	0x52
 4169 08d7 01       		.byte	0x1
 4170 08d8 41       		.byte	0x41
 4171 08d9 11       		.uleb128 0x11
 4172 08da 01       		.byte	0x1
 4173 08db 51       		.byte	0x51
 4174 08dc 02       		.byte	0x2
 4175 08dd 75       		.byte	0x75
 4176 08de 00       		.sleb128 0
 4177 08df 11       		.uleb128 0x11
 4178 08e0 01       		.byte	0x1
 4179 08e1 50       		.byte	0x50
 4180 08e2 02       		.byte	0x2
 4181 08e3 76       		.byte	0x76
 4182 08e4 00       		.sleb128 0
 4183 08e5 00       		.byte	0
 4184 08e6 10       		.uleb128 0x10
 4185 08e7 70010000 		.4byte	.LVL53
 4186 08eb F5180000 		.4byte	0x18f5
 4187 08ef 0C090000 		.4byte	0x90c
 4188 08f3 11       		.uleb128 0x11
 4189 08f4 01       		.byte	0x1
 4190 08f5 53       		.byte	0x53
 4191 08f6 03       		.byte	0x3
 4192 08f7 0B       		.byte	0xb
 4193 08f8 00F8     		.2byte	0xf800
 4194 08fa 11       		.uleb128 0x11
 4195 08fb 01       		.byte	0x1
 4196 08fc 52       		.byte	0x52
 4197 08fd 01       		.byte	0x1
 4198 08fe 33       		.byte	0x33
 4199 08ff 11       		.uleb128 0x11
 4200 0900 01       		.byte	0x1
 4201 0901 51       		.byte	0x51
ARM GAS  /tmp/ccd61yKH.s 			page 75


 4202 0902 02       		.byte	0x2
 4203 0903 75       		.byte	0x75
 4204 0904 00       		.sleb128 0
 4205 0905 11       		.uleb128 0x11
 4206 0906 01       		.byte	0x1
 4207 0907 50       		.byte	0x50
 4208 0908 02       		.byte	0x2
 4209 0909 76       		.byte	0x76
 4210 090a 00       		.sleb128 0
 4211 090b 00       		.byte	0
 4212 090c 10       		.uleb128 0x10
 4213 090d 86010000 		.4byte	.LVL54
 4214 0911 F5180000 		.4byte	0x18f5
 4215 0915 32090000 		.4byte	0x932
 4216 0919 11       		.uleb128 0x11
 4217 091a 01       		.byte	0x1
 4218 091b 53       		.byte	0x53
 4219 091c 03       		.byte	0x3
 4220 091d 0B       		.byte	0xb
 4221 091e 00F8     		.2byte	0xf800
 4222 0920 11       		.uleb128 0x11
 4223 0921 01       		.byte	0x1
 4224 0922 52       		.byte	0x52
 4225 0923 01       		.byte	0x1
 4226 0924 44       		.byte	0x44
 4227 0925 11       		.uleb128 0x11
 4228 0926 01       		.byte	0x1
 4229 0927 51       		.byte	0x51
 4230 0928 02       		.byte	0x2
 4231 0929 75       		.byte	0x75
 4232 092a 00       		.sleb128 0
 4233 092b 11       		.uleb128 0x11
 4234 092c 01       		.byte	0x1
 4235 092d 50       		.byte	0x50
 4236 092e 02       		.byte	0x2
 4237 092f 76       		.byte	0x76
 4238 0930 00       		.sleb128 0
 4239 0931 00       		.byte	0
 4240 0932 10       		.uleb128 0x10
 4241 0933 94010000 		.4byte	.LVL55
 4242 0937 F5180000 		.4byte	0x18f5
 4243 093b 57090000 		.4byte	0x957
 4244 093f 11       		.uleb128 0x11
 4245 0940 01       		.byte	0x1
 4246 0941 53       		.byte	0x53
 4247 0942 02       		.byte	0x2
 4248 0943 09       		.byte	0x9
 4249 0944 FF       		.byte	0xff
 4250 0945 11       		.uleb128 0x11
 4251 0946 01       		.byte	0x1
 4252 0947 52       		.byte	0x52
 4253 0948 01       		.byte	0x1
 4254 0949 41       		.byte	0x41
 4255 094a 11       		.uleb128 0x11
 4256 094b 01       		.byte	0x1
 4257 094c 51       		.byte	0x51
 4258 094d 02       		.byte	0x2
ARM GAS  /tmp/ccd61yKH.s 			page 76


 4259 094e 75       		.byte	0x75
 4260 094f 00       		.sleb128 0
 4261 0950 11       		.uleb128 0x11
 4262 0951 01       		.byte	0x1
 4263 0952 50       		.byte	0x50
 4264 0953 02       		.byte	0x2
 4265 0954 76       		.byte	0x76
 4266 0955 00       		.sleb128 0
 4267 0956 00       		.byte	0
 4268 0957 10       		.uleb128 0x10
 4269 0958 A2010000 		.4byte	.LVL56
 4270 095c F5180000 		.4byte	0x18f5
 4271 0960 7D090000 		.4byte	0x97d
 4272 0964 11       		.uleb128 0x11
 4273 0965 01       		.byte	0x1
 4274 0966 53       		.byte	0x53
 4275 0967 03       		.byte	0x3
 4276 0968 0B       		.byte	0xb
 4277 0969 00F8     		.2byte	0xf800
 4278 096b 11       		.uleb128 0x11
 4279 096c 01       		.byte	0x1
 4280 096d 52       		.byte	0x52
 4281 096e 01       		.byte	0x1
 4282 096f 33       		.byte	0x33
 4283 0970 11       		.uleb128 0x11
 4284 0971 01       		.byte	0x1
 4285 0972 51       		.byte	0x51
 4286 0973 02       		.byte	0x2
 4287 0974 75       		.byte	0x75
 4288 0975 00       		.sleb128 0
 4289 0976 11       		.uleb128 0x11
 4290 0977 01       		.byte	0x1
 4291 0978 50       		.byte	0x50
 4292 0979 02       		.byte	0x2
 4293 097a 76       		.byte	0x76
 4294 097b 00       		.sleb128 0
 4295 097c 00       		.byte	0
 4296 097d 10       		.uleb128 0x10
 4297 097e B8010000 		.4byte	.LVL57
 4298 0982 F5180000 		.4byte	0x18f5
 4299 0986 A3090000 		.4byte	0x9a3
 4300 098a 11       		.uleb128 0x11
 4301 098b 01       		.byte	0x1
 4302 098c 53       		.byte	0x53
 4303 098d 03       		.byte	0x3
 4304 098e 0B       		.byte	0xb
 4305 098f 00F8     		.2byte	0xf800
 4306 0991 11       		.uleb128 0x11
 4307 0992 01       		.byte	0x1
 4308 0993 52       		.byte	0x52
 4309 0994 01       		.byte	0x1
 4310 0995 44       		.byte	0x44
 4311 0996 11       		.uleb128 0x11
 4312 0997 01       		.byte	0x1
 4313 0998 51       		.byte	0x51
 4314 0999 02       		.byte	0x2
 4315 099a 74       		.byte	0x74
ARM GAS  /tmp/ccd61yKH.s 			page 77


 4316 099b 00       		.sleb128 0
 4317 099c 11       		.uleb128 0x11
 4318 099d 01       		.byte	0x1
 4319 099e 50       		.byte	0x50
 4320 099f 02       		.byte	0x2
 4321 09a0 75       		.byte	0x75
 4322 09a1 00       		.sleb128 0
 4323 09a2 00       		.byte	0
 4324 09a3 10       		.uleb128 0x10
 4325 09a4 C6010000 		.4byte	.LVL58
 4326 09a8 F5180000 		.4byte	0x18f5
 4327 09ac C8090000 		.4byte	0x9c8
 4328 09b0 11       		.uleb128 0x11
 4329 09b1 01       		.byte	0x1
 4330 09b2 53       		.byte	0x53
 4331 09b3 02       		.byte	0x2
 4332 09b4 09       		.byte	0x9
 4333 09b5 FF       		.byte	0xff
 4334 09b6 11       		.uleb128 0x11
 4335 09b7 01       		.byte	0x1
 4336 09b8 52       		.byte	0x52
 4337 09b9 01       		.byte	0x1
 4338 09ba 41       		.byte	0x41
 4339 09bb 11       		.uleb128 0x11
 4340 09bc 01       		.byte	0x1
 4341 09bd 51       		.byte	0x51
 4342 09be 02       		.byte	0x2
 4343 09bf 74       		.byte	0x74
 4344 09c0 00       		.sleb128 0
 4345 09c1 11       		.uleb128 0x11
 4346 09c2 01       		.byte	0x1
 4347 09c3 50       		.byte	0x50
 4348 09c4 02       		.byte	0x2
 4349 09c5 75       		.byte	0x75
 4350 09c6 00       		.sleb128 0
 4351 09c7 00       		.byte	0
 4352 09c8 15       		.uleb128 0x15
 4353 09c9 D8010000 		.4byte	.LVL59
 4354 09cd 01       		.byte	0x1
 4355 09ce F5180000 		.4byte	0x18f5
 4356 09d2 11       		.uleb128 0x11
 4357 09d3 01       		.byte	0x1
 4358 09d4 53       		.byte	0x53
 4359 09d5 03       		.byte	0x3
 4360 09d6 0B       		.byte	0xb
 4361 09d7 00F8     		.2byte	0xf800
 4362 09d9 11       		.uleb128 0x11
 4363 09da 01       		.byte	0x1
 4364 09db 52       		.byte	0x52
 4365 09dc 01       		.byte	0x1
 4366 09dd 33       		.byte	0x33
 4367 09de 11       		.uleb128 0x11
 4368 09df 01       		.byte	0x1
 4369 09e0 51       		.byte	0x51
 4370 09e1 02       		.byte	0x2
 4371 09e2 74       		.byte	0x74
 4372 09e3 00       		.sleb128 0
ARM GAS  /tmp/ccd61yKH.s 			page 78


 4373 09e4 11       		.uleb128 0x11
 4374 09e5 01       		.byte	0x1
 4375 09e6 50       		.byte	0x50
 4376 09e7 02       		.byte	0x2
 4377 09e8 75       		.byte	0x75
 4378 09e9 00       		.sleb128 0
 4379 09ea 00       		.byte	0
 4380 09eb 00       		.byte	0
 4381 09ec 12       		.uleb128 0x12
 4382 09ed 12000000 		.4byte	.LVL32
 4383 09f1 19190000 		.4byte	0x1919
 4384 09f5 11       		.uleb128 0x11
 4385 09f6 01       		.byte	0x1
 4386 09f7 50       		.byte	0x50
 4387 09f8 02       		.byte	0x2
 4388 09f9 09       		.byte	0x9
 4389 09fa FF       		.byte	0xff
 4390 09fb 00       		.byte	0
 4391 09fc 00       		.byte	0
 4392 09fd 0E       		.uleb128 0xe
 4393 09fe 01       		.byte	0x1
 4394 09ff 25020000 		.4byte	.LASF71
 4395 0a03 01       		.byte	0x1
 4396 0a04 81       		.byte	0x81
 4397 0a05 01       		.byte	0x1
 4398 0a06 00000000 		.4byte	.LFB124
 4399 0a0a D8010000 		.4byte	.LFE124
 4400 0a0e 64030000 		.4byte	.LLST8
 4401 0a12 01       		.byte	0x1
 4402 0a13 5E0E0000 		.4byte	0xe5e
 4403 0a17 0F       		.uleb128 0xf
 4404 0a18 6900     		.ascii	"i\000"
 4405 0a1a 01       		.byte	0x1
 4406 0a1b 85       		.byte	0x85
 4407 0a1c 3E000000 		.4byte	0x3e
 4408 0a20 84030000 		.4byte	.LLST9
 4409 0a24 0F       		.uleb128 0xf
 4410 0a25 6A00     		.ascii	"j\000"
 4411 0a27 01       		.byte	0x1
 4412 0a28 85       		.byte	0x85
 4413 0a29 3E000000 		.4byte	0x3e
 4414 0a2d B0030000 		.4byte	.LLST10
 4415 0a31 13       		.uleb128 0x13
 4416 0a32 37030000 		.4byte	0x337
 4417 0a36 12000000 		.4byte	.LBB14
 4418 0a3a 18000000 		.4byte	.Ldebug_ranges0+0x18
 4419 0a3e 01       		.byte	0x1
 4420 0a3f 8A       		.byte	0x8a
 4421 0a40 4D0E0000 		.4byte	0xe4d
 4422 0a44 14       		.uleb128 0x14
 4423 0a45 4E030000 		.4byte	0x34e
 4424 0a49 24040000 		.4byte	.LLST11
 4425 0a4d 14       		.uleb128 0x14
 4426 0a4e 45030000 		.4byte	0x345
 4427 0a52 16050000 		.4byte	.LLST12
 4428 0a56 10       		.uleb128 0x10
 4429 0a57 28000000 		.4byte	.LVL61
ARM GAS  /tmp/ccd61yKH.s 			page 79


 4430 0a5b F5180000 		.4byte	0x18f5
 4431 0a5f 7C0A0000 		.4byte	0xa7c
 4432 0a63 11       		.uleb128 0x11
 4433 0a64 01       		.byte	0x1
 4434 0a65 53       		.byte	0x53
 4435 0a66 03       		.byte	0x3
 4436 0a67 0A       		.byte	0xa
 4437 0a68 E007     		.2byte	0x7e0
 4438 0a6a 11       		.uleb128 0x11
 4439 0a6b 01       		.byte	0x1
 4440 0a6c 52       		.byte	0x52
 4441 0a6d 01       		.byte	0x1
 4442 0a6e 44       		.byte	0x44
 4443 0a6f 11       		.uleb128 0x11
 4444 0a70 01       		.byte	0x1
 4445 0a71 51       		.byte	0x51
 4446 0a72 02       		.byte	0x2
 4447 0a73 75       		.byte	0x75
 4448 0a74 00       		.sleb128 0
 4449 0a75 11       		.uleb128 0x11
 4450 0a76 01       		.byte	0x1
 4451 0a77 50       		.byte	0x50
 4452 0a78 02       		.byte	0x2
 4453 0a79 76       		.byte	0x76
 4454 0a7a 00       		.sleb128 0
 4455 0a7b 00       		.byte	0
 4456 0a7c 10       		.uleb128 0x10
 4457 0a7d 36000000 		.4byte	.LVL62
 4458 0a81 F5180000 		.4byte	0x18f5
 4459 0a85 A10A0000 		.4byte	0xaa1
 4460 0a89 11       		.uleb128 0x11
 4461 0a8a 01       		.byte	0x1
 4462 0a8b 53       		.byte	0x53
 4463 0a8c 02       		.byte	0x2
 4464 0a8d 09       		.byte	0x9
 4465 0a8e FF       		.byte	0xff
 4466 0a8f 11       		.uleb128 0x11
 4467 0a90 01       		.byte	0x1
 4468 0a91 52       		.byte	0x52
 4469 0a92 01       		.byte	0x1
 4470 0a93 41       		.byte	0x41
 4471 0a94 11       		.uleb128 0x11
 4472 0a95 01       		.byte	0x1
 4473 0a96 51       		.byte	0x51
 4474 0a97 02       		.byte	0x2
 4475 0a98 75       		.byte	0x75
 4476 0a99 00       		.sleb128 0
 4477 0a9a 11       		.uleb128 0x11
 4478 0a9b 01       		.byte	0x1
 4479 0a9c 50       		.byte	0x50
 4480 0a9d 02       		.byte	0x2
 4481 0a9e 76       		.byte	0x76
 4482 0a9f 00       		.sleb128 0
 4483 0aa0 00       		.byte	0
 4484 0aa1 10       		.uleb128 0x10
 4485 0aa2 44000000 		.4byte	.LVL63
 4486 0aa6 F5180000 		.4byte	0x18f5
ARM GAS  /tmp/ccd61yKH.s 			page 80


 4487 0aaa C70A0000 		.4byte	0xac7
 4488 0aae 11       		.uleb128 0x11
 4489 0aaf 01       		.byte	0x1
 4490 0ab0 53       		.byte	0x53
 4491 0ab1 03       		.byte	0x3
 4492 0ab2 0A       		.byte	0xa
 4493 0ab3 E007     		.2byte	0x7e0
 4494 0ab5 11       		.uleb128 0x11
 4495 0ab6 01       		.byte	0x1
 4496 0ab7 52       		.byte	0x52
 4497 0ab8 01       		.byte	0x1
 4498 0ab9 33       		.byte	0x33
 4499 0aba 11       		.uleb128 0x11
 4500 0abb 01       		.byte	0x1
 4501 0abc 51       		.byte	0x51
 4502 0abd 02       		.byte	0x2
 4503 0abe 75       		.byte	0x75
 4504 0abf 00       		.sleb128 0
 4505 0ac0 11       		.uleb128 0x11
 4506 0ac1 01       		.byte	0x1
 4507 0ac2 50       		.byte	0x50
 4508 0ac3 02       		.byte	0x2
 4509 0ac4 76       		.byte	0x76
 4510 0ac5 00       		.sleb128 0
 4511 0ac6 00       		.byte	0
 4512 0ac7 10       		.uleb128 0x10
 4513 0ac8 5A000000 		.4byte	.LVL64
 4514 0acc F5180000 		.4byte	0x18f5
 4515 0ad0 ED0A0000 		.4byte	0xaed
 4516 0ad4 11       		.uleb128 0x11
 4517 0ad5 01       		.byte	0x1
 4518 0ad6 53       		.byte	0x53
 4519 0ad7 03       		.byte	0x3
 4520 0ad8 0A       		.byte	0xa
 4521 0ad9 E007     		.2byte	0x7e0
 4522 0adb 11       		.uleb128 0x11
 4523 0adc 01       		.byte	0x1
 4524 0add 52       		.byte	0x52
 4525 0ade 01       		.byte	0x1
 4526 0adf 44       		.byte	0x44
 4527 0ae0 11       		.uleb128 0x11
 4528 0ae1 01       		.byte	0x1
 4529 0ae2 51       		.byte	0x51
 4530 0ae3 02       		.byte	0x2
 4531 0ae4 75       		.byte	0x75
 4532 0ae5 00       		.sleb128 0
 4533 0ae6 11       		.uleb128 0x11
 4534 0ae7 01       		.byte	0x1
 4535 0ae8 50       		.byte	0x50
 4536 0ae9 02       		.byte	0x2
 4537 0aea 76       		.byte	0x76
 4538 0aeb 00       		.sleb128 0
 4539 0aec 00       		.byte	0
 4540 0aed 10       		.uleb128 0x10
 4541 0aee 68000000 		.4byte	.LVL65
 4542 0af2 F5180000 		.4byte	0x18f5
 4543 0af6 120B0000 		.4byte	0xb12
ARM GAS  /tmp/ccd61yKH.s 			page 81


 4544 0afa 11       		.uleb128 0x11
 4545 0afb 01       		.byte	0x1
 4546 0afc 53       		.byte	0x53
 4547 0afd 02       		.byte	0x2
 4548 0afe 09       		.byte	0x9
 4549 0aff FF       		.byte	0xff
 4550 0b00 11       		.uleb128 0x11
 4551 0b01 01       		.byte	0x1
 4552 0b02 52       		.byte	0x52
 4553 0b03 01       		.byte	0x1
 4554 0b04 41       		.byte	0x41
 4555 0b05 11       		.uleb128 0x11
 4556 0b06 01       		.byte	0x1
 4557 0b07 51       		.byte	0x51
 4558 0b08 02       		.byte	0x2
 4559 0b09 75       		.byte	0x75
 4560 0b0a 00       		.sleb128 0
 4561 0b0b 11       		.uleb128 0x11
 4562 0b0c 01       		.byte	0x1
 4563 0b0d 50       		.byte	0x50
 4564 0b0e 02       		.byte	0x2
 4565 0b0f 76       		.byte	0x76
 4566 0b10 00       		.sleb128 0
 4567 0b11 00       		.byte	0
 4568 0b12 10       		.uleb128 0x10
 4569 0b13 76000000 		.4byte	.LVL66
 4570 0b17 F5180000 		.4byte	0x18f5
 4571 0b1b 380B0000 		.4byte	0xb38
 4572 0b1f 11       		.uleb128 0x11
 4573 0b20 01       		.byte	0x1
 4574 0b21 53       		.byte	0x53
 4575 0b22 03       		.byte	0x3
 4576 0b23 0A       		.byte	0xa
 4577 0b24 E007     		.2byte	0x7e0
 4578 0b26 11       		.uleb128 0x11
 4579 0b27 01       		.byte	0x1
 4580 0b28 52       		.byte	0x52
 4581 0b29 01       		.byte	0x1
 4582 0b2a 33       		.byte	0x33
 4583 0b2b 11       		.uleb128 0x11
 4584 0b2c 01       		.byte	0x1
 4585 0b2d 51       		.byte	0x51
 4586 0b2e 02       		.byte	0x2
 4587 0b2f 75       		.byte	0x75
 4588 0b30 00       		.sleb128 0
 4589 0b31 11       		.uleb128 0x11
 4590 0b32 01       		.byte	0x1
 4591 0b33 50       		.byte	0x50
 4592 0b34 02       		.byte	0x2
 4593 0b35 76       		.byte	0x76
 4594 0b36 00       		.sleb128 0
 4595 0b37 00       		.byte	0
 4596 0b38 10       		.uleb128 0x10
 4597 0b39 8C000000 		.4byte	.LVL67
 4598 0b3d F5180000 		.4byte	0x18f5
 4599 0b41 5E0B0000 		.4byte	0xb5e
 4600 0b45 11       		.uleb128 0x11
ARM GAS  /tmp/ccd61yKH.s 			page 82


 4601 0b46 01       		.byte	0x1
 4602 0b47 53       		.byte	0x53
 4603 0b48 03       		.byte	0x3
 4604 0b49 0A       		.byte	0xa
 4605 0b4a E007     		.2byte	0x7e0
 4606 0b4c 11       		.uleb128 0x11
 4607 0b4d 01       		.byte	0x1
 4608 0b4e 52       		.byte	0x52
 4609 0b4f 01       		.byte	0x1
 4610 0b50 44       		.byte	0x44
 4611 0b51 11       		.uleb128 0x11
 4612 0b52 01       		.byte	0x1
 4613 0b53 51       		.byte	0x51
 4614 0b54 02       		.byte	0x2
 4615 0b55 75       		.byte	0x75
 4616 0b56 00       		.sleb128 0
 4617 0b57 11       		.uleb128 0x11
 4618 0b58 01       		.byte	0x1
 4619 0b59 50       		.byte	0x50
 4620 0b5a 02       		.byte	0x2
 4621 0b5b 76       		.byte	0x76
 4622 0b5c 00       		.sleb128 0
 4623 0b5d 00       		.byte	0
 4624 0b5e 10       		.uleb128 0x10
 4625 0b5f 9A000000 		.4byte	.LVL68
 4626 0b63 F5180000 		.4byte	0x18f5
 4627 0b67 830B0000 		.4byte	0xb83
 4628 0b6b 11       		.uleb128 0x11
 4629 0b6c 01       		.byte	0x1
 4630 0b6d 53       		.byte	0x53
 4631 0b6e 02       		.byte	0x2
 4632 0b6f 09       		.byte	0x9
 4633 0b70 FF       		.byte	0xff
 4634 0b71 11       		.uleb128 0x11
 4635 0b72 01       		.byte	0x1
 4636 0b73 52       		.byte	0x52
 4637 0b74 01       		.byte	0x1
 4638 0b75 41       		.byte	0x41
 4639 0b76 11       		.uleb128 0x11
 4640 0b77 01       		.byte	0x1
 4641 0b78 51       		.byte	0x51
 4642 0b79 02       		.byte	0x2
 4643 0b7a 75       		.byte	0x75
 4644 0b7b 00       		.sleb128 0
 4645 0b7c 11       		.uleb128 0x11
 4646 0b7d 01       		.byte	0x1
 4647 0b7e 50       		.byte	0x50
 4648 0b7f 02       		.byte	0x2
 4649 0b80 76       		.byte	0x76
 4650 0b81 00       		.sleb128 0
 4651 0b82 00       		.byte	0
 4652 0b83 10       		.uleb128 0x10
 4653 0b84 A8000000 		.4byte	.LVL69
 4654 0b88 F5180000 		.4byte	0x18f5
 4655 0b8c A90B0000 		.4byte	0xba9
 4656 0b90 11       		.uleb128 0x11
 4657 0b91 01       		.byte	0x1
ARM GAS  /tmp/ccd61yKH.s 			page 83


 4658 0b92 53       		.byte	0x53
 4659 0b93 03       		.byte	0x3
 4660 0b94 0A       		.byte	0xa
 4661 0b95 E007     		.2byte	0x7e0
 4662 0b97 11       		.uleb128 0x11
 4663 0b98 01       		.byte	0x1
 4664 0b99 52       		.byte	0x52
 4665 0b9a 01       		.byte	0x1
 4666 0b9b 33       		.byte	0x33
 4667 0b9c 11       		.uleb128 0x11
 4668 0b9d 01       		.byte	0x1
 4669 0b9e 51       		.byte	0x51
 4670 0b9f 02       		.byte	0x2
 4671 0ba0 75       		.byte	0x75
 4672 0ba1 00       		.sleb128 0
 4673 0ba2 11       		.uleb128 0x11
 4674 0ba3 01       		.byte	0x1
 4675 0ba4 50       		.byte	0x50
 4676 0ba5 02       		.byte	0x2
 4677 0ba6 76       		.byte	0x76
 4678 0ba7 00       		.sleb128 0
 4679 0ba8 00       		.byte	0
 4680 0ba9 10       		.uleb128 0x10
 4681 0baa BE000000 		.4byte	.LVL70
 4682 0bae F5180000 		.4byte	0x18f5
 4683 0bb2 CF0B0000 		.4byte	0xbcf
 4684 0bb6 11       		.uleb128 0x11
 4685 0bb7 01       		.byte	0x1
 4686 0bb8 53       		.byte	0x53
 4687 0bb9 03       		.byte	0x3
 4688 0bba 0A       		.byte	0xa
 4689 0bbb E007     		.2byte	0x7e0
 4690 0bbd 11       		.uleb128 0x11
 4691 0bbe 01       		.byte	0x1
 4692 0bbf 52       		.byte	0x52
 4693 0bc0 01       		.byte	0x1
 4694 0bc1 44       		.byte	0x44
 4695 0bc2 11       		.uleb128 0x11
 4696 0bc3 01       		.byte	0x1
 4697 0bc4 51       		.byte	0x51
 4698 0bc5 02       		.byte	0x2
 4699 0bc6 75       		.byte	0x75
 4700 0bc7 00       		.sleb128 0
 4701 0bc8 11       		.uleb128 0x11
 4702 0bc9 01       		.byte	0x1
 4703 0bca 50       		.byte	0x50
 4704 0bcb 02       		.byte	0x2
 4705 0bcc 76       		.byte	0x76
 4706 0bcd 00       		.sleb128 0
 4707 0bce 00       		.byte	0
 4708 0bcf 10       		.uleb128 0x10
 4709 0bd0 CC000000 		.4byte	.LVL71
 4710 0bd4 F5180000 		.4byte	0x18f5
 4711 0bd8 F40B0000 		.4byte	0xbf4
 4712 0bdc 11       		.uleb128 0x11
 4713 0bdd 01       		.byte	0x1
 4714 0bde 53       		.byte	0x53
ARM GAS  /tmp/ccd61yKH.s 			page 84


 4715 0bdf 02       		.byte	0x2
 4716 0be0 09       		.byte	0x9
 4717 0be1 FF       		.byte	0xff
 4718 0be2 11       		.uleb128 0x11
 4719 0be3 01       		.byte	0x1
 4720 0be4 52       		.byte	0x52
 4721 0be5 01       		.byte	0x1
 4722 0be6 41       		.byte	0x41
 4723 0be7 11       		.uleb128 0x11
 4724 0be8 01       		.byte	0x1
 4725 0be9 51       		.byte	0x51
 4726 0bea 02       		.byte	0x2
 4727 0beb 75       		.byte	0x75
 4728 0bec 00       		.sleb128 0
 4729 0bed 11       		.uleb128 0x11
 4730 0bee 01       		.byte	0x1
 4731 0bef 50       		.byte	0x50
 4732 0bf0 02       		.byte	0x2
 4733 0bf1 76       		.byte	0x76
 4734 0bf2 00       		.sleb128 0
 4735 0bf3 00       		.byte	0
 4736 0bf4 10       		.uleb128 0x10
 4737 0bf5 DA000000 		.4byte	.LVL72
 4738 0bf9 F5180000 		.4byte	0x18f5
 4739 0bfd 1A0C0000 		.4byte	0xc1a
 4740 0c01 11       		.uleb128 0x11
 4741 0c02 01       		.byte	0x1
 4742 0c03 53       		.byte	0x53
 4743 0c04 03       		.byte	0x3
 4744 0c05 0A       		.byte	0xa
 4745 0c06 E007     		.2byte	0x7e0
 4746 0c08 11       		.uleb128 0x11
 4747 0c09 01       		.byte	0x1
 4748 0c0a 52       		.byte	0x52
 4749 0c0b 01       		.byte	0x1
 4750 0c0c 33       		.byte	0x33
 4751 0c0d 11       		.uleb128 0x11
 4752 0c0e 01       		.byte	0x1
 4753 0c0f 51       		.byte	0x51
 4754 0c10 02       		.byte	0x2
 4755 0c11 75       		.byte	0x75
 4756 0c12 00       		.sleb128 0
 4757 0c13 11       		.uleb128 0x11
 4758 0c14 01       		.byte	0x1
 4759 0c15 50       		.byte	0x50
 4760 0c16 02       		.byte	0x2
 4761 0c17 76       		.byte	0x76
 4762 0c18 00       		.sleb128 0
 4763 0c19 00       		.byte	0
 4764 0c1a 10       		.uleb128 0x10
 4765 0c1b F0000000 		.4byte	.LVL73
 4766 0c1f F5180000 		.4byte	0x18f5
 4767 0c23 400C0000 		.4byte	0xc40
 4768 0c27 11       		.uleb128 0x11
 4769 0c28 01       		.byte	0x1
 4770 0c29 53       		.byte	0x53
 4771 0c2a 03       		.byte	0x3
ARM GAS  /tmp/ccd61yKH.s 			page 85


 4772 0c2b 0A       		.byte	0xa
 4773 0c2c E007     		.2byte	0x7e0
 4774 0c2e 11       		.uleb128 0x11
 4775 0c2f 01       		.byte	0x1
 4776 0c30 52       		.byte	0x52
 4777 0c31 01       		.byte	0x1
 4778 0c32 44       		.byte	0x44
 4779 0c33 11       		.uleb128 0x11
 4780 0c34 01       		.byte	0x1
 4781 0c35 51       		.byte	0x51
 4782 0c36 02       		.byte	0x2
 4783 0c37 75       		.byte	0x75
 4784 0c38 00       		.sleb128 0
 4785 0c39 11       		.uleb128 0x11
 4786 0c3a 01       		.byte	0x1
 4787 0c3b 50       		.byte	0x50
 4788 0c3c 02       		.byte	0x2
 4789 0c3d 76       		.byte	0x76
 4790 0c3e 00       		.sleb128 0
 4791 0c3f 00       		.byte	0
 4792 0c40 10       		.uleb128 0x10
 4793 0c41 FE000000 		.4byte	.LVL74
 4794 0c45 F5180000 		.4byte	0x18f5
 4795 0c49 650C0000 		.4byte	0xc65
 4796 0c4d 11       		.uleb128 0x11
 4797 0c4e 01       		.byte	0x1
 4798 0c4f 53       		.byte	0x53
 4799 0c50 02       		.byte	0x2
 4800 0c51 09       		.byte	0x9
 4801 0c52 FF       		.byte	0xff
 4802 0c53 11       		.uleb128 0x11
 4803 0c54 01       		.byte	0x1
 4804 0c55 52       		.byte	0x52
 4805 0c56 01       		.byte	0x1
 4806 0c57 41       		.byte	0x41
 4807 0c58 11       		.uleb128 0x11
 4808 0c59 01       		.byte	0x1
 4809 0c5a 51       		.byte	0x51
 4810 0c5b 02       		.byte	0x2
 4811 0c5c 75       		.byte	0x75
 4812 0c5d 00       		.sleb128 0
 4813 0c5e 11       		.uleb128 0x11
 4814 0c5f 01       		.byte	0x1
 4815 0c60 50       		.byte	0x50
 4816 0c61 02       		.byte	0x2
 4817 0c62 76       		.byte	0x76
 4818 0c63 00       		.sleb128 0
 4819 0c64 00       		.byte	0
 4820 0c65 10       		.uleb128 0x10
 4821 0c66 0C010000 		.4byte	.LVL75
 4822 0c6a F5180000 		.4byte	0x18f5
 4823 0c6e 8B0C0000 		.4byte	0xc8b
 4824 0c72 11       		.uleb128 0x11
 4825 0c73 01       		.byte	0x1
 4826 0c74 53       		.byte	0x53
 4827 0c75 03       		.byte	0x3
 4828 0c76 0A       		.byte	0xa
ARM GAS  /tmp/ccd61yKH.s 			page 86


 4829 0c77 E007     		.2byte	0x7e0
 4830 0c79 11       		.uleb128 0x11
 4831 0c7a 01       		.byte	0x1
 4832 0c7b 52       		.byte	0x52
 4833 0c7c 01       		.byte	0x1
 4834 0c7d 33       		.byte	0x33
 4835 0c7e 11       		.uleb128 0x11
 4836 0c7f 01       		.byte	0x1
 4837 0c80 51       		.byte	0x51
 4838 0c81 02       		.byte	0x2
 4839 0c82 75       		.byte	0x75
 4840 0c83 00       		.sleb128 0
 4841 0c84 11       		.uleb128 0x11
 4842 0c85 01       		.byte	0x1
 4843 0c86 50       		.byte	0x50
 4844 0c87 02       		.byte	0x2
 4845 0c88 76       		.byte	0x76
 4846 0c89 00       		.sleb128 0
 4847 0c8a 00       		.byte	0
 4848 0c8b 10       		.uleb128 0x10
 4849 0c8c 22010000 		.4byte	.LVL76
 4850 0c90 F5180000 		.4byte	0x18f5
 4851 0c94 B10C0000 		.4byte	0xcb1
 4852 0c98 11       		.uleb128 0x11
 4853 0c99 01       		.byte	0x1
 4854 0c9a 53       		.byte	0x53
 4855 0c9b 03       		.byte	0x3
 4856 0c9c 0A       		.byte	0xa
 4857 0c9d E007     		.2byte	0x7e0
 4858 0c9f 11       		.uleb128 0x11
 4859 0ca0 01       		.byte	0x1
 4860 0ca1 52       		.byte	0x52
 4861 0ca2 01       		.byte	0x1
 4862 0ca3 44       		.byte	0x44
 4863 0ca4 11       		.uleb128 0x11
 4864 0ca5 01       		.byte	0x1
 4865 0ca6 51       		.byte	0x51
 4866 0ca7 02       		.byte	0x2
 4867 0ca8 75       		.byte	0x75
 4868 0ca9 00       		.sleb128 0
 4869 0caa 11       		.uleb128 0x11
 4870 0cab 01       		.byte	0x1
 4871 0cac 50       		.byte	0x50
 4872 0cad 02       		.byte	0x2
 4873 0cae 76       		.byte	0x76
 4874 0caf 00       		.sleb128 0
 4875 0cb0 00       		.byte	0
 4876 0cb1 10       		.uleb128 0x10
 4877 0cb2 30010000 		.4byte	.LVL77
 4878 0cb6 F5180000 		.4byte	0x18f5
 4879 0cba D60C0000 		.4byte	0xcd6
 4880 0cbe 11       		.uleb128 0x11
 4881 0cbf 01       		.byte	0x1
 4882 0cc0 53       		.byte	0x53
 4883 0cc1 02       		.byte	0x2
 4884 0cc2 09       		.byte	0x9
 4885 0cc3 FF       		.byte	0xff
ARM GAS  /tmp/ccd61yKH.s 			page 87


 4886 0cc4 11       		.uleb128 0x11
 4887 0cc5 01       		.byte	0x1
 4888 0cc6 52       		.byte	0x52
 4889 0cc7 01       		.byte	0x1
 4890 0cc8 41       		.byte	0x41
 4891 0cc9 11       		.uleb128 0x11
 4892 0cca 01       		.byte	0x1
 4893 0ccb 51       		.byte	0x51
 4894 0ccc 02       		.byte	0x2
 4895 0ccd 75       		.byte	0x75
 4896 0cce 00       		.sleb128 0
 4897 0ccf 11       		.uleb128 0x11
 4898 0cd0 01       		.byte	0x1
 4899 0cd1 50       		.byte	0x50
 4900 0cd2 02       		.byte	0x2
 4901 0cd3 76       		.byte	0x76
 4902 0cd4 00       		.sleb128 0
 4903 0cd5 00       		.byte	0
 4904 0cd6 10       		.uleb128 0x10
 4905 0cd7 3E010000 		.4byte	.LVL78
 4906 0cdb F5180000 		.4byte	0x18f5
 4907 0cdf FC0C0000 		.4byte	0xcfc
 4908 0ce3 11       		.uleb128 0x11
 4909 0ce4 01       		.byte	0x1
 4910 0ce5 53       		.byte	0x53
 4911 0ce6 03       		.byte	0x3
 4912 0ce7 0A       		.byte	0xa
 4913 0ce8 E007     		.2byte	0x7e0
 4914 0cea 11       		.uleb128 0x11
 4915 0ceb 01       		.byte	0x1
 4916 0cec 52       		.byte	0x52
 4917 0ced 01       		.byte	0x1
 4918 0cee 33       		.byte	0x33
 4919 0cef 11       		.uleb128 0x11
 4920 0cf0 01       		.byte	0x1
 4921 0cf1 51       		.byte	0x51
 4922 0cf2 02       		.byte	0x2
 4923 0cf3 75       		.byte	0x75
 4924 0cf4 00       		.sleb128 0
 4925 0cf5 11       		.uleb128 0x11
 4926 0cf6 01       		.byte	0x1
 4927 0cf7 50       		.byte	0x50
 4928 0cf8 02       		.byte	0x2
 4929 0cf9 76       		.byte	0x76
 4930 0cfa 00       		.sleb128 0
 4931 0cfb 00       		.byte	0
 4932 0cfc 10       		.uleb128 0x10
 4933 0cfd 54010000 		.4byte	.LVL79
 4934 0d01 F5180000 		.4byte	0x18f5
 4935 0d05 220D0000 		.4byte	0xd22
 4936 0d09 11       		.uleb128 0x11
 4937 0d0a 01       		.byte	0x1
 4938 0d0b 53       		.byte	0x53
 4939 0d0c 03       		.byte	0x3
 4940 0d0d 0A       		.byte	0xa
 4941 0d0e E007     		.2byte	0x7e0
 4942 0d10 11       		.uleb128 0x11
ARM GAS  /tmp/ccd61yKH.s 			page 88


 4943 0d11 01       		.byte	0x1
 4944 0d12 52       		.byte	0x52
 4945 0d13 01       		.byte	0x1
 4946 0d14 44       		.byte	0x44
 4947 0d15 11       		.uleb128 0x11
 4948 0d16 01       		.byte	0x1
 4949 0d17 51       		.byte	0x51
 4950 0d18 02       		.byte	0x2
 4951 0d19 75       		.byte	0x75
 4952 0d1a 00       		.sleb128 0
 4953 0d1b 11       		.uleb128 0x11
 4954 0d1c 01       		.byte	0x1
 4955 0d1d 50       		.byte	0x50
 4956 0d1e 02       		.byte	0x2
 4957 0d1f 76       		.byte	0x76
 4958 0d20 00       		.sleb128 0
 4959 0d21 00       		.byte	0
 4960 0d22 10       		.uleb128 0x10
 4961 0d23 62010000 		.4byte	.LVL80
 4962 0d27 F5180000 		.4byte	0x18f5
 4963 0d2b 470D0000 		.4byte	0xd47
 4964 0d2f 11       		.uleb128 0x11
 4965 0d30 01       		.byte	0x1
 4966 0d31 53       		.byte	0x53
 4967 0d32 02       		.byte	0x2
 4968 0d33 09       		.byte	0x9
 4969 0d34 FF       		.byte	0xff
 4970 0d35 11       		.uleb128 0x11
 4971 0d36 01       		.byte	0x1
 4972 0d37 52       		.byte	0x52
 4973 0d38 01       		.byte	0x1
 4974 0d39 41       		.byte	0x41
 4975 0d3a 11       		.uleb128 0x11
 4976 0d3b 01       		.byte	0x1
 4977 0d3c 51       		.byte	0x51
 4978 0d3d 02       		.byte	0x2
 4979 0d3e 75       		.byte	0x75
 4980 0d3f 00       		.sleb128 0
 4981 0d40 11       		.uleb128 0x11
 4982 0d41 01       		.byte	0x1
 4983 0d42 50       		.byte	0x50
 4984 0d43 02       		.byte	0x2
 4985 0d44 76       		.byte	0x76
 4986 0d45 00       		.sleb128 0
 4987 0d46 00       		.byte	0
 4988 0d47 10       		.uleb128 0x10
 4989 0d48 70010000 		.4byte	.LVL81
 4990 0d4c F5180000 		.4byte	0x18f5
 4991 0d50 6D0D0000 		.4byte	0xd6d
 4992 0d54 11       		.uleb128 0x11
 4993 0d55 01       		.byte	0x1
 4994 0d56 53       		.byte	0x53
 4995 0d57 03       		.byte	0x3
 4996 0d58 0A       		.byte	0xa
 4997 0d59 E007     		.2byte	0x7e0
 4998 0d5b 11       		.uleb128 0x11
 4999 0d5c 01       		.byte	0x1
ARM GAS  /tmp/ccd61yKH.s 			page 89


 5000 0d5d 52       		.byte	0x52
 5001 0d5e 01       		.byte	0x1
 5002 0d5f 33       		.byte	0x33
 5003 0d60 11       		.uleb128 0x11
 5004 0d61 01       		.byte	0x1
 5005 0d62 51       		.byte	0x51
 5006 0d63 02       		.byte	0x2
 5007 0d64 75       		.byte	0x75
 5008 0d65 00       		.sleb128 0
 5009 0d66 11       		.uleb128 0x11
 5010 0d67 01       		.byte	0x1
 5011 0d68 50       		.byte	0x50
 5012 0d69 02       		.byte	0x2
 5013 0d6a 76       		.byte	0x76
 5014 0d6b 00       		.sleb128 0
 5015 0d6c 00       		.byte	0
 5016 0d6d 10       		.uleb128 0x10
 5017 0d6e 86010000 		.4byte	.LVL82
 5018 0d72 F5180000 		.4byte	0x18f5
 5019 0d76 930D0000 		.4byte	0xd93
 5020 0d7a 11       		.uleb128 0x11
 5021 0d7b 01       		.byte	0x1
 5022 0d7c 53       		.byte	0x53
 5023 0d7d 03       		.byte	0x3
 5024 0d7e 0A       		.byte	0xa
 5025 0d7f E007     		.2byte	0x7e0
 5026 0d81 11       		.uleb128 0x11
 5027 0d82 01       		.byte	0x1
 5028 0d83 52       		.byte	0x52
 5029 0d84 01       		.byte	0x1
 5030 0d85 44       		.byte	0x44
 5031 0d86 11       		.uleb128 0x11
 5032 0d87 01       		.byte	0x1
 5033 0d88 51       		.byte	0x51
 5034 0d89 02       		.byte	0x2
 5035 0d8a 75       		.byte	0x75
 5036 0d8b 00       		.sleb128 0
 5037 0d8c 11       		.uleb128 0x11
 5038 0d8d 01       		.byte	0x1
 5039 0d8e 50       		.byte	0x50
 5040 0d8f 02       		.byte	0x2
 5041 0d90 76       		.byte	0x76
 5042 0d91 00       		.sleb128 0
 5043 0d92 00       		.byte	0
 5044 0d93 10       		.uleb128 0x10
 5045 0d94 94010000 		.4byte	.LVL83
 5046 0d98 F5180000 		.4byte	0x18f5
 5047 0d9c B80D0000 		.4byte	0xdb8
 5048 0da0 11       		.uleb128 0x11
 5049 0da1 01       		.byte	0x1
 5050 0da2 53       		.byte	0x53
 5051 0da3 02       		.byte	0x2
 5052 0da4 09       		.byte	0x9
 5053 0da5 FF       		.byte	0xff
 5054 0da6 11       		.uleb128 0x11
 5055 0da7 01       		.byte	0x1
 5056 0da8 52       		.byte	0x52
ARM GAS  /tmp/ccd61yKH.s 			page 90


 5057 0da9 01       		.byte	0x1
 5058 0daa 41       		.byte	0x41
 5059 0dab 11       		.uleb128 0x11
 5060 0dac 01       		.byte	0x1
 5061 0dad 51       		.byte	0x51
 5062 0dae 02       		.byte	0x2
 5063 0daf 75       		.byte	0x75
 5064 0db0 00       		.sleb128 0
 5065 0db1 11       		.uleb128 0x11
 5066 0db2 01       		.byte	0x1
 5067 0db3 50       		.byte	0x50
 5068 0db4 02       		.byte	0x2
 5069 0db5 76       		.byte	0x76
 5070 0db6 00       		.sleb128 0
 5071 0db7 00       		.byte	0
 5072 0db8 10       		.uleb128 0x10
 5073 0db9 A2010000 		.4byte	.LVL84
 5074 0dbd F5180000 		.4byte	0x18f5
 5075 0dc1 DE0D0000 		.4byte	0xdde
 5076 0dc5 11       		.uleb128 0x11
 5077 0dc6 01       		.byte	0x1
 5078 0dc7 53       		.byte	0x53
 5079 0dc8 03       		.byte	0x3
 5080 0dc9 0A       		.byte	0xa
 5081 0dca E007     		.2byte	0x7e0
 5082 0dcc 11       		.uleb128 0x11
 5083 0dcd 01       		.byte	0x1
 5084 0dce 52       		.byte	0x52
 5085 0dcf 01       		.byte	0x1
 5086 0dd0 33       		.byte	0x33
 5087 0dd1 11       		.uleb128 0x11
 5088 0dd2 01       		.byte	0x1
 5089 0dd3 51       		.byte	0x51
 5090 0dd4 02       		.byte	0x2
 5091 0dd5 75       		.byte	0x75
 5092 0dd6 00       		.sleb128 0
 5093 0dd7 11       		.uleb128 0x11
 5094 0dd8 01       		.byte	0x1
 5095 0dd9 50       		.byte	0x50
 5096 0dda 02       		.byte	0x2
 5097 0ddb 76       		.byte	0x76
 5098 0ddc 00       		.sleb128 0
 5099 0ddd 00       		.byte	0
 5100 0dde 10       		.uleb128 0x10
 5101 0ddf B8010000 		.4byte	.LVL85
 5102 0de3 F5180000 		.4byte	0x18f5
 5103 0de7 040E0000 		.4byte	0xe04
 5104 0deb 11       		.uleb128 0x11
 5105 0dec 01       		.byte	0x1
 5106 0ded 53       		.byte	0x53
 5107 0dee 03       		.byte	0x3
 5108 0def 0A       		.byte	0xa
 5109 0df0 E007     		.2byte	0x7e0
 5110 0df2 11       		.uleb128 0x11
 5111 0df3 01       		.byte	0x1
 5112 0df4 52       		.byte	0x52
 5113 0df5 01       		.byte	0x1
ARM GAS  /tmp/ccd61yKH.s 			page 91


 5114 0df6 44       		.byte	0x44
 5115 0df7 11       		.uleb128 0x11
 5116 0df8 01       		.byte	0x1
 5117 0df9 51       		.byte	0x51
 5118 0dfa 02       		.byte	0x2
 5119 0dfb 74       		.byte	0x74
 5120 0dfc 00       		.sleb128 0
 5121 0dfd 11       		.uleb128 0x11
 5122 0dfe 01       		.byte	0x1
 5123 0dff 50       		.byte	0x50
 5124 0e00 02       		.byte	0x2
 5125 0e01 75       		.byte	0x75
 5126 0e02 00       		.sleb128 0
 5127 0e03 00       		.byte	0
 5128 0e04 10       		.uleb128 0x10
 5129 0e05 C6010000 		.4byte	.LVL86
 5130 0e09 F5180000 		.4byte	0x18f5
 5131 0e0d 290E0000 		.4byte	0xe29
 5132 0e11 11       		.uleb128 0x11
 5133 0e12 01       		.byte	0x1
 5134 0e13 53       		.byte	0x53
 5135 0e14 02       		.byte	0x2
 5136 0e15 09       		.byte	0x9
 5137 0e16 FF       		.byte	0xff
 5138 0e17 11       		.uleb128 0x11
 5139 0e18 01       		.byte	0x1
 5140 0e19 52       		.byte	0x52
 5141 0e1a 01       		.byte	0x1
 5142 0e1b 41       		.byte	0x41
 5143 0e1c 11       		.uleb128 0x11
 5144 0e1d 01       		.byte	0x1
 5145 0e1e 51       		.byte	0x51
 5146 0e1f 02       		.byte	0x2
 5147 0e20 74       		.byte	0x74
 5148 0e21 00       		.sleb128 0
 5149 0e22 11       		.uleb128 0x11
 5150 0e23 01       		.byte	0x1
 5151 0e24 50       		.byte	0x50
 5152 0e25 02       		.byte	0x2
 5153 0e26 75       		.byte	0x75
 5154 0e27 00       		.sleb128 0
 5155 0e28 00       		.byte	0
 5156 0e29 15       		.uleb128 0x15
 5157 0e2a D8010000 		.4byte	.LVL87
 5158 0e2e 01       		.byte	0x1
 5159 0e2f F5180000 		.4byte	0x18f5
 5160 0e33 11       		.uleb128 0x11
 5161 0e34 01       		.byte	0x1
 5162 0e35 53       		.byte	0x53
 5163 0e36 03       		.byte	0x3
 5164 0e37 0A       		.byte	0xa
 5165 0e38 E007     		.2byte	0x7e0
 5166 0e3a 11       		.uleb128 0x11
 5167 0e3b 01       		.byte	0x1
 5168 0e3c 52       		.byte	0x52
 5169 0e3d 01       		.byte	0x1
 5170 0e3e 33       		.byte	0x33
ARM GAS  /tmp/ccd61yKH.s 			page 92


 5171 0e3f 11       		.uleb128 0x11
 5172 0e40 01       		.byte	0x1
 5173 0e41 51       		.byte	0x51
 5174 0e42 02       		.byte	0x2
 5175 0e43 74       		.byte	0x74
 5176 0e44 00       		.sleb128 0
 5177 0e45 11       		.uleb128 0x11
 5178 0e46 01       		.byte	0x1
 5179 0e47 50       		.byte	0x50
 5180 0e48 02       		.byte	0x2
 5181 0e49 75       		.byte	0x75
 5182 0e4a 00       		.sleb128 0
 5183 0e4b 00       		.byte	0
 5184 0e4c 00       		.byte	0
 5185 0e4d 12       		.uleb128 0x12
 5186 0e4e 12000000 		.4byte	.LVL60
 5187 0e52 19190000 		.4byte	0x1919
 5188 0e56 11       		.uleb128 0x11
 5189 0e57 01       		.byte	0x1
 5190 0e58 50       		.byte	0x50
 5191 0e59 02       		.byte	0x2
 5192 0e5a 09       		.byte	0x9
 5193 0e5b FF       		.byte	0xff
 5194 0e5c 00       		.byte	0
 5195 0e5d 00       		.byte	0
 5196 0e5e 0E       		.uleb128 0xe
 5197 0e5f 01       		.byte	0x1
 5198 0e60 02020000 		.4byte	.LASF72
 5199 0e64 01       		.byte	0x1
 5200 0e65 96       		.byte	0x96
 5201 0e66 01       		.byte	0x1
 5202 0e67 00000000 		.4byte	.LFB125
 5203 0e6b 36030000 		.4byte	.LFE125
 5204 0e6f 08060000 		.4byte	.LLST13
 5205 0e73 01       		.byte	0x1
 5206 0e74 EF120000 		.4byte	0x12ef
 5207 0e78 16       		.uleb128 0x16
 5208 0e79 20030000 		.4byte	.LASF73
 5209 0e7d 01       		.byte	0x1
 5210 0e7e 9B       		.byte	0x9b
 5211 0e7f F2000000 		.4byte	0xf2
 5212 0e83 34060000 		.4byte	.LLST14
 5213 0e87 16       		.uleb128 0x16
 5214 0e88 82010000 		.4byte	.LASF74
 5215 0e8c 01       		.byte	0x1
 5216 0e8d 9C       		.byte	0x9c
 5217 0e8e F2000000 		.4byte	0xf2
 5218 0e92 54060000 		.4byte	.LLST15
 5219 0e96 16       		.uleb128 0x16
 5220 0e97 1D020000 		.4byte	.LASF75
 5221 0e9b 01       		.byte	0x1
 5222 0e9c 9E       		.byte	0x9e
 5223 0e9d F2000000 		.4byte	0xf2
 5224 0ea1 74060000 		.4byte	.LLST16
 5225 0ea5 16       		.uleb128 0x16
 5226 0ea6 26000000 		.4byte	.LASF76
 5227 0eaa 01       		.byte	0x1
ARM GAS  /tmp/ccd61yKH.s 			page 93


 5228 0eab 9E       		.byte	0x9e
 5229 0eac F2000000 		.4byte	0xf2
 5230 0eb0 92060000 		.4byte	.LLST17
 5231 0eb4 16       		.uleb128 0x16
 5232 0eb5 2D010000 		.4byte	.LASF77
 5233 0eb9 01       		.byte	0x1
 5234 0eba 9E       		.byte	0x9e
 5235 0ebb F2000000 		.4byte	0xf2
 5236 0ebf BB060000 		.4byte	.LLST18
 5237 0ec3 0F       		.uleb128 0xf
 5238 0ec4 6900     		.ascii	"i\000"
 5239 0ec6 01       		.byte	0x1
 5240 0ec7 AA       		.byte	0xaa
 5241 0ec8 3E000000 		.4byte	0x3e
 5242 0ecc D9060000 		.4byte	.LLST19
 5243 0ed0 0F       		.uleb128 0xf
 5244 0ed1 6A00     		.ascii	"j\000"
 5245 0ed3 01       		.byte	0x1
 5246 0ed4 AA       		.byte	0xaa
 5247 0ed5 3E000000 		.4byte	0x3e
 5248 0ed9 11070000 		.4byte	.LLST20
 5249 0edd 13       		.uleb128 0x13
 5250 0ede 58030000 		.4byte	0x358
 5251 0ee2 48000000 		.4byte	.LBB18
 5252 0ee6 30000000 		.4byte	.Ldebug_ranges0+0x30
 5253 0eea 01       		.byte	0x1
 5254 0eeb B6       		.byte	0xb6
 5255 0eec DE120000 		.4byte	0x12de
 5256 0ef0 14       		.uleb128 0x14
 5257 0ef1 6F030000 		.4byte	0x36f
 5258 0ef5 91070000 		.4byte	.LLST21
 5259 0ef9 14       		.uleb128 0x14
 5260 0efa 66030000 		.4byte	0x366
 5261 0efe 02080000 		.4byte	.LLST22
 5262 0f02 10       		.uleb128 0x10
 5263 0f03 70000000 		.4byte	.LVL96
 5264 0f07 F5180000 		.4byte	0x18f5
 5265 0f0b 270F0000 		.4byte	0xf27
 5266 0f0f 11       		.uleb128 0x11
 5267 0f10 01       		.byte	0x1
 5268 0f11 53       		.byte	0x53
 5269 0f12 02       		.byte	0x2
 5270 0f13 75       		.byte	0x75
 5271 0f14 00       		.sleb128 0
 5272 0f15 11       		.uleb128 0x11
 5273 0f16 01       		.byte	0x1
 5274 0f17 52       		.byte	0x52
 5275 0f18 01       		.byte	0x1
 5276 0f19 44       		.byte	0x44
 5277 0f1a 11       		.uleb128 0x11
 5278 0f1b 01       		.byte	0x1
 5279 0f1c 51       		.byte	0x51
 5280 0f1d 02       		.byte	0x2
 5281 0f1e 76       		.byte	0x76
 5282 0f1f 00       		.sleb128 0
 5283 0f20 11       		.uleb128 0x11
 5284 0f21 01       		.byte	0x1
ARM GAS  /tmp/ccd61yKH.s 			page 94


 5285 0f22 50       		.byte	0x50
 5286 0f23 02       		.byte	0x2
 5287 0f24 7A       		.byte	0x7a
 5288 0f25 00       		.sleb128 0
 5289 0f26 00       		.byte	0
 5290 0f27 10       		.uleb128 0x10
 5291 0f28 7E000000 		.4byte	.LVL97
 5292 0f2c F5180000 		.4byte	0x18f5
 5293 0f30 4C0F0000 		.4byte	0xf4c
 5294 0f34 11       		.uleb128 0x11
 5295 0f35 01       		.byte	0x1
 5296 0f36 53       		.byte	0x53
 5297 0f37 02       		.byte	0x2
 5298 0f38 09       		.byte	0x9
 5299 0f39 FF       		.byte	0xff
 5300 0f3a 11       		.uleb128 0x11
 5301 0f3b 01       		.byte	0x1
 5302 0f3c 52       		.byte	0x52
 5303 0f3d 01       		.byte	0x1
 5304 0f3e 41       		.byte	0x41
 5305 0f3f 11       		.uleb128 0x11
 5306 0f40 01       		.byte	0x1
 5307 0f41 51       		.byte	0x51
 5308 0f42 02       		.byte	0x2
 5309 0f43 76       		.byte	0x76
 5310 0f44 00       		.sleb128 0
 5311 0f45 11       		.uleb128 0x11
 5312 0f46 01       		.byte	0x1
 5313 0f47 50       		.byte	0x50
 5314 0f48 02       		.byte	0x2
 5315 0f49 7A       		.byte	0x7a
 5316 0f4a 00       		.sleb128 0
 5317 0f4b 00       		.byte	0
 5318 0f4c 10       		.uleb128 0x10
 5319 0f4d 8A000000 		.4byte	.LVL98
 5320 0f51 F5180000 		.4byte	0x18f5
 5321 0f55 710F0000 		.4byte	0xf71
 5322 0f59 11       		.uleb128 0x11
 5323 0f5a 01       		.byte	0x1
 5324 0f5b 53       		.byte	0x53
 5325 0f5c 02       		.byte	0x2
 5326 0f5d 75       		.byte	0x75
 5327 0f5e 00       		.sleb128 0
 5328 0f5f 11       		.uleb128 0x11
 5329 0f60 01       		.byte	0x1
 5330 0f61 52       		.byte	0x52
 5331 0f62 01       		.byte	0x1
 5332 0f63 33       		.byte	0x33
 5333 0f64 11       		.uleb128 0x11
 5334 0f65 01       		.byte	0x1
 5335 0f66 51       		.byte	0x51
 5336 0f67 02       		.byte	0x2
 5337 0f68 76       		.byte	0x76
 5338 0f69 00       		.sleb128 0
 5339 0f6a 11       		.uleb128 0x11
 5340 0f6b 01       		.byte	0x1
 5341 0f6c 50       		.byte	0x50
ARM GAS  /tmp/ccd61yKH.s 			page 95


 5342 0f6d 02       		.byte	0x2
 5343 0f6e 7A       		.byte	0x7a
 5344 0f6f 00       		.sleb128 0
 5345 0f70 00       		.byte	0
 5346 0f71 10       		.uleb128 0x10
 5347 0f72 C6000000 		.4byte	.LVL101
 5348 0f76 F5180000 		.4byte	0x18f5
 5349 0f7a 960F0000 		.4byte	0xf96
 5350 0f7e 11       		.uleb128 0x11
 5351 0f7f 01       		.byte	0x1
 5352 0f80 53       		.byte	0x53
 5353 0f81 02       		.byte	0x2
 5354 0f82 75       		.byte	0x75
 5355 0f83 00       		.sleb128 0
 5356 0f84 11       		.uleb128 0x11
 5357 0f85 01       		.byte	0x1
 5358 0f86 52       		.byte	0x52
 5359 0f87 01       		.byte	0x1
 5360 0f88 44       		.byte	0x44
 5361 0f89 11       		.uleb128 0x11
 5362 0f8a 01       		.byte	0x1
 5363 0f8b 51       		.byte	0x51
 5364 0f8c 02       		.byte	0x2
 5365 0f8d 7A       		.byte	0x7a
 5366 0f8e 00       		.sleb128 0
 5367 0f8f 11       		.uleb128 0x11
 5368 0f90 01       		.byte	0x1
 5369 0f91 50       		.byte	0x50
 5370 0f92 02       		.byte	0x2
 5371 0f93 7B       		.byte	0x7b
 5372 0f94 00       		.sleb128 0
 5373 0f95 00       		.byte	0
 5374 0f96 10       		.uleb128 0x10
 5375 0f97 D4000000 		.4byte	.LVL102
 5376 0f9b F5180000 		.4byte	0x18f5
 5377 0f9f BB0F0000 		.4byte	0xfbb
 5378 0fa3 11       		.uleb128 0x11
 5379 0fa4 01       		.byte	0x1
 5380 0fa5 53       		.byte	0x53
 5381 0fa6 02       		.byte	0x2
 5382 0fa7 09       		.byte	0x9
 5383 0fa8 FF       		.byte	0xff
 5384 0fa9 11       		.uleb128 0x11
 5385 0faa 01       		.byte	0x1
 5386 0fab 52       		.byte	0x52
 5387 0fac 01       		.byte	0x1
 5388 0fad 41       		.byte	0x41
 5389 0fae 11       		.uleb128 0x11
 5390 0faf 01       		.byte	0x1
 5391 0fb0 51       		.byte	0x51
 5392 0fb1 02       		.byte	0x2
 5393 0fb2 7A       		.byte	0x7a
 5394 0fb3 00       		.sleb128 0
 5395 0fb4 11       		.uleb128 0x11
 5396 0fb5 01       		.byte	0x1
 5397 0fb6 50       		.byte	0x50
 5398 0fb7 02       		.byte	0x2
ARM GAS  /tmp/ccd61yKH.s 			page 96


 5399 0fb8 7B       		.byte	0x7b
 5400 0fb9 00       		.sleb128 0
 5401 0fba 00       		.byte	0
 5402 0fbb 10       		.uleb128 0x10
 5403 0fbc E0000000 		.4byte	.LVL103
 5404 0fc0 F5180000 		.4byte	0x18f5
 5405 0fc4 E00F0000 		.4byte	0xfe0
 5406 0fc8 11       		.uleb128 0x11
 5407 0fc9 01       		.byte	0x1
 5408 0fca 53       		.byte	0x53
 5409 0fcb 02       		.byte	0x2
 5410 0fcc 75       		.byte	0x75
 5411 0fcd 00       		.sleb128 0
 5412 0fce 11       		.uleb128 0x11
 5413 0fcf 01       		.byte	0x1
 5414 0fd0 52       		.byte	0x52
 5415 0fd1 01       		.byte	0x1
 5416 0fd2 33       		.byte	0x33
 5417 0fd3 11       		.uleb128 0x11
 5418 0fd4 01       		.byte	0x1
 5419 0fd5 51       		.byte	0x51
 5420 0fd6 02       		.byte	0x2
 5421 0fd7 7A       		.byte	0x7a
 5422 0fd8 00       		.sleb128 0
 5423 0fd9 11       		.uleb128 0x11
 5424 0fda 01       		.byte	0x1
 5425 0fdb 50       		.byte	0x50
 5426 0fdc 02       		.byte	0x2
 5427 0fdd 7B       		.byte	0x7b
 5428 0fde 00       		.sleb128 0
 5429 0fdf 00       		.byte	0
 5430 0fe0 10       		.uleb128 0x10
 5431 0fe1 1E010000 		.4byte	.LVL105
 5432 0fe5 F5180000 		.4byte	0x18f5
 5433 0fe9 05100000 		.4byte	0x1005
 5434 0fed 11       		.uleb128 0x11
 5435 0fee 01       		.byte	0x1
 5436 0fef 53       		.byte	0x53
 5437 0ff0 02       		.byte	0x2
 5438 0ff1 75       		.byte	0x75
 5439 0ff2 00       		.sleb128 0
 5440 0ff3 11       		.uleb128 0x11
 5441 0ff4 01       		.byte	0x1
 5442 0ff5 52       		.byte	0x52
 5443 0ff6 01       		.byte	0x1
 5444 0ff7 44       		.byte	0x44
 5445 0ff8 11       		.uleb128 0x11
 5446 0ff9 01       		.byte	0x1
 5447 0ffa 51       		.byte	0x51
 5448 0ffb 02       		.byte	0x2
 5449 0ffc 7A       		.byte	0x7a
 5450 0ffd 00       		.sleb128 0
 5451 0ffe 11       		.uleb128 0x11
 5452 0fff 01       		.byte	0x1
 5453 1000 50       		.byte	0x50
 5454 1001 02       		.byte	0x2
 5455 1002 7B       		.byte	0x7b
ARM GAS  /tmp/ccd61yKH.s 			page 97


 5456 1003 00       		.sleb128 0
 5457 1004 00       		.byte	0
 5458 1005 10       		.uleb128 0x10
 5459 1006 2C010000 		.4byte	.LVL106
 5460 100a F5180000 		.4byte	0x18f5
 5461 100e 2A100000 		.4byte	0x102a
 5462 1012 11       		.uleb128 0x11
 5463 1013 01       		.byte	0x1
 5464 1014 53       		.byte	0x53
 5465 1015 02       		.byte	0x2
 5466 1016 09       		.byte	0x9
 5467 1017 FF       		.byte	0xff
 5468 1018 11       		.uleb128 0x11
 5469 1019 01       		.byte	0x1
 5470 101a 52       		.byte	0x52
 5471 101b 01       		.byte	0x1
 5472 101c 41       		.byte	0x41
 5473 101d 11       		.uleb128 0x11
 5474 101e 01       		.byte	0x1
 5475 101f 51       		.byte	0x51
 5476 1020 02       		.byte	0x2
 5477 1021 7A       		.byte	0x7a
 5478 1022 00       		.sleb128 0
 5479 1023 11       		.uleb128 0x11
 5480 1024 01       		.byte	0x1
 5481 1025 50       		.byte	0x50
 5482 1026 02       		.byte	0x2
 5483 1027 7B       		.byte	0x7b
 5484 1028 00       		.sleb128 0
 5485 1029 00       		.byte	0
 5486 102a 10       		.uleb128 0x10
 5487 102b 38010000 		.4byte	.LVL107
 5488 102f F5180000 		.4byte	0x18f5
 5489 1033 4F100000 		.4byte	0x104f
 5490 1037 11       		.uleb128 0x11
 5491 1038 01       		.byte	0x1
 5492 1039 53       		.byte	0x53
 5493 103a 02       		.byte	0x2
 5494 103b 75       		.byte	0x75
 5495 103c 00       		.sleb128 0
 5496 103d 11       		.uleb128 0x11
 5497 103e 01       		.byte	0x1
 5498 103f 52       		.byte	0x52
 5499 1040 01       		.byte	0x1
 5500 1041 33       		.byte	0x33
 5501 1042 11       		.uleb128 0x11
 5502 1043 01       		.byte	0x1
 5503 1044 51       		.byte	0x51
 5504 1045 02       		.byte	0x2
 5505 1046 7A       		.byte	0x7a
 5506 1047 00       		.sleb128 0
 5507 1048 11       		.uleb128 0x11
 5508 1049 01       		.byte	0x1
 5509 104a 50       		.byte	0x50
 5510 104b 02       		.byte	0x2
 5511 104c 7B       		.byte	0x7b
 5512 104d 00       		.sleb128 0
ARM GAS  /tmp/ccd61yKH.s 			page 98


 5513 104e 00       		.byte	0
 5514 104f 10       		.uleb128 0x10
 5515 1050 70010000 		.4byte	.LVL109
 5516 1054 F5180000 		.4byte	0x18f5
 5517 1058 74100000 		.4byte	0x1074
 5518 105c 11       		.uleb128 0x11
 5519 105d 01       		.byte	0x1
 5520 105e 53       		.byte	0x53
 5521 105f 02       		.byte	0x2
 5522 1060 75       		.byte	0x75
 5523 1061 00       		.sleb128 0
 5524 1062 11       		.uleb128 0x11
 5525 1063 01       		.byte	0x1
 5526 1064 52       		.byte	0x52
 5527 1065 01       		.byte	0x1
 5528 1066 44       		.byte	0x44
 5529 1067 11       		.uleb128 0x11
 5530 1068 01       		.byte	0x1
 5531 1069 51       		.byte	0x51
 5532 106a 02       		.byte	0x2
 5533 106b 7A       		.byte	0x7a
 5534 106c 00       		.sleb128 0
 5535 106d 11       		.uleb128 0x11
 5536 106e 01       		.byte	0x1
 5537 106f 50       		.byte	0x50
 5538 1070 02       		.byte	0x2
 5539 1071 7B       		.byte	0x7b
 5540 1072 00       		.sleb128 0
 5541 1073 00       		.byte	0
 5542 1074 10       		.uleb128 0x10
 5543 1075 7E010000 		.4byte	.LVL110
 5544 1079 F5180000 		.4byte	0x18f5
 5545 107d 99100000 		.4byte	0x1099
 5546 1081 11       		.uleb128 0x11
 5547 1082 01       		.byte	0x1
 5548 1083 53       		.byte	0x53
 5549 1084 02       		.byte	0x2
 5550 1085 09       		.byte	0x9
 5551 1086 FF       		.byte	0xff
 5552 1087 11       		.uleb128 0x11
 5553 1088 01       		.byte	0x1
 5554 1089 52       		.byte	0x52
 5555 108a 01       		.byte	0x1
 5556 108b 41       		.byte	0x41
 5557 108c 11       		.uleb128 0x11
 5558 108d 01       		.byte	0x1
 5559 108e 51       		.byte	0x51
 5560 108f 02       		.byte	0x2
 5561 1090 7A       		.byte	0x7a
 5562 1091 00       		.sleb128 0
 5563 1092 11       		.uleb128 0x11
 5564 1093 01       		.byte	0x1
 5565 1094 50       		.byte	0x50
 5566 1095 02       		.byte	0x2
 5567 1096 7B       		.byte	0x7b
 5568 1097 00       		.sleb128 0
 5569 1098 00       		.byte	0
ARM GAS  /tmp/ccd61yKH.s 			page 99


 5570 1099 10       		.uleb128 0x10
 5571 109a 90010000 		.4byte	.LVL111
 5572 109e F5180000 		.4byte	0x18f5
 5573 10a2 B8100000 		.4byte	0x10b8
 5574 10a6 11       		.uleb128 0x11
 5575 10a7 01       		.byte	0x1
 5576 10a8 53       		.byte	0x53
 5577 10a9 02       		.byte	0x2
 5578 10aa 75       		.byte	0x75
 5579 10ab 00       		.sleb128 0
 5580 10ac 11       		.uleb128 0x11
 5581 10ad 01       		.byte	0x1
 5582 10ae 52       		.byte	0x52
 5583 10af 01       		.byte	0x1
 5584 10b0 33       		.byte	0x33
 5585 10b1 11       		.uleb128 0x11
 5586 10b2 01       		.byte	0x1
 5587 10b3 50       		.byte	0x50
 5588 10b4 02       		.byte	0x2
 5589 10b5 7B       		.byte	0x7b
 5590 10b6 00       		.sleb128 0
 5591 10b7 00       		.byte	0
 5592 10b8 10       		.uleb128 0x10
 5593 10b9 B6010000 		.4byte	.LVL113
 5594 10bd F5180000 		.4byte	0x18f5
 5595 10c1 DD100000 		.4byte	0x10dd
 5596 10c5 11       		.uleb128 0x11
 5597 10c6 01       		.byte	0x1
 5598 10c7 53       		.byte	0x53
 5599 10c8 02       		.byte	0x2
 5600 10c9 75       		.byte	0x75
 5601 10ca 00       		.sleb128 0
 5602 10cb 11       		.uleb128 0x11
 5603 10cc 01       		.byte	0x1
 5604 10cd 52       		.byte	0x52
 5605 10ce 01       		.byte	0x1
 5606 10cf 44       		.byte	0x44
 5607 10d0 11       		.uleb128 0x11
 5608 10d1 01       		.byte	0x1
 5609 10d2 51       		.byte	0x51
 5610 10d3 02       		.byte	0x2
 5611 10d4 7A       		.byte	0x7a
 5612 10d5 00       		.sleb128 0
 5613 10d6 11       		.uleb128 0x11
 5614 10d7 01       		.byte	0x1
 5615 10d8 50       		.byte	0x50
 5616 10d9 02       		.byte	0x2
 5617 10da 7B       		.byte	0x7b
 5618 10db 00       		.sleb128 0
 5619 10dc 00       		.byte	0
 5620 10dd 10       		.uleb128 0x10
 5621 10de C4010000 		.4byte	.LVL114
 5622 10e2 F5180000 		.4byte	0x18f5
 5623 10e6 02110000 		.4byte	0x1102
 5624 10ea 11       		.uleb128 0x11
 5625 10eb 01       		.byte	0x1
 5626 10ec 53       		.byte	0x53
ARM GAS  /tmp/ccd61yKH.s 			page 100


 5627 10ed 02       		.byte	0x2
 5628 10ee 09       		.byte	0x9
 5629 10ef FF       		.byte	0xff
 5630 10f0 11       		.uleb128 0x11
 5631 10f1 01       		.byte	0x1
 5632 10f2 52       		.byte	0x52
 5633 10f3 01       		.byte	0x1
 5634 10f4 41       		.byte	0x41
 5635 10f5 11       		.uleb128 0x11
 5636 10f6 01       		.byte	0x1
 5637 10f7 51       		.byte	0x51
 5638 10f8 02       		.byte	0x2
 5639 10f9 7A       		.byte	0x7a
 5640 10fa 00       		.sleb128 0
 5641 10fb 11       		.uleb128 0x11
 5642 10fc 01       		.byte	0x1
 5643 10fd 50       		.byte	0x50
 5644 10fe 02       		.byte	0x2
 5645 10ff 7B       		.byte	0x7b
 5646 1100 00       		.sleb128 0
 5647 1101 00       		.byte	0
 5648 1102 10       		.uleb128 0x10
 5649 1103 D6010000 		.4byte	.LVL115
 5650 1107 F5180000 		.4byte	0x18f5
 5651 110b 29110000 		.4byte	0x1129
 5652 110f 11       		.uleb128 0x11
 5653 1110 01       		.byte	0x1
 5654 1111 53       		.byte	0x53
 5655 1112 02       		.byte	0x2
 5656 1113 75       		.byte	0x75
 5657 1114 00       		.sleb128 0
 5658 1115 11       		.uleb128 0x11
 5659 1116 01       		.byte	0x1
 5660 1117 52       		.byte	0x52
 5661 1118 01       		.byte	0x1
 5662 1119 33       		.byte	0x33
 5663 111a 11       		.uleb128 0x11
 5664 111b 01       		.byte	0x1
 5665 111c 51       		.byte	0x51
 5666 111d 04       		.byte	0x4
 5667 111e 91       		.byte	0x91
 5668 111f 4C       		.sleb128 -52
 5669 1120 94       		.byte	0x94
 5670 1121 02       		.byte	0x2
 5671 1122 11       		.uleb128 0x11
 5672 1123 01       		.byte	0x1
 5673 1124 50       		.byte	0x50
 5674 1125 02       		.byte	0x2
 5675 1126 7B       		.byte	0x7b
 5676 1127 00       		.sleb128 0
 5677 1128 00       		.byte	0
 5678 1129 10       		.uleb128 0x10
 5679 112a FC010000 		.4byte	.LVL118
 5680 112e F5180000 		.4byte	0x18f5
 5681 1132 4E110000 		.4byte	0x114e
 5682 1136 11       		.uleb128 0x11
 5683 1137 01       		.byte	0x1
ARM GAS  /tmp/ccd61yKH.s 			page 101


 5684 1138 53       		.byte	0x53
 5685 1139 02       		.byte	0x2
 5686 113a 75       		.byte	0x75
 5687 113b 00       		.sleb128 0
 5688 113c 11       		.uleb128 0x11
 5689 113d 01       		.byte	0x1
 5690 113e 52       		.byte	0x52
 5691 113f 01       		.byte	0x1
 5692 1140 44       		.byte	0x44
 5693 1141 11       		.uleb128 0x11
 5694 1142 01       		.byte	0x1
 5695 1143 51       		.byte	0x51
 5696 1144 02       		.byte	0x2
 5697 1145 7A       		.byte	0x7a
 5698 1146 00       		.sleb128 0
 5699 1147 11       		.uleb128 0x11
 5700 1148 01       		.byte	0x1
 5701 1149 50       		.byte	0x50
 5702 114a 02       		.byte	0x2
 5703 114b 7B       		.byte	0x7b
 5704 114c 00       		.sleb128 0
 5705 114d 00       		.byte	0
 5706 114e 10       		.uleb128 0x10
 5707 114f 0A020000 		.4byte	.LVL119
 5708 1153 F5180000 		.4byte	0x18f5
 5709 1157 73110000 		.4byte	0x1173
 5710 115b 11       		.uleb128 0x11
 5711 115c 01       		.byte	0x1
 5712 115d 53       		.byte	0x53
 5713 115e 02       		.byte	0x2
 5714 115f 09       		.byte	0x9
 5715 1160 FF       		.byte	0xff
 5716 1161 11       		.uleb128 0x11
 5717 1162 01       		.byte	0x1
 5718 1163 52       		.byte	0x52
 5719 1164 01       		.byte	0x1
 5720 1165 41       		.byte	0x41
 5721 1166 11       		.uleb128 0x11
 5722 1167 01       		.byte	0x1
 5723 1168 51       		.byte	0x51
 5724 1169 02       		.byte	0x2
 5725 116a 7A       		.byte	0x7a
 5726 116b 00       		.sleb128 0
 5727 116c 11       		.uleb128 0x11
 5728 116d 01       		.byte	0x1
 5729 116e 50       		.byte	0x50
 5730 116f 02       		.byte	0x2
 5731 1170 7B       		.byte	0x7b
 5732 1171 00       		.sleb128 0
 5733 1172 00       		.byte	0
 5734 1173 10       		.uleb128 0x10
 5735 1174 16020000 		.4byte	.LVL120
 5736 1178 F5180000 		.4byte	0x18f5
 5737 117c 98110000 		.4byte	0x1198
 5738 1180 11       		.uleb128 0x11
 5739 1181 01       		.byte	0x1
 5740 1182 53       		.byte	0x53
ARM GAS  /tmp/ccd61yKH.s 			page 102


 5741 1183 02       		.byte	0x2
 5742 1184 75       		.byte	0x75
 5743 1185 00       		.sleb128 0
 5744 1186 11       		.uleb128 0x11
 5745 1187 01       		.byte	0x1
 5746 1188 52       		.byte	0x52
 5747 1189 01       		.byte	0x1
 5748 118a 33       		.byte	0x33
 5749 118b 11       		.uleb128 0x11
 5750 118c 01       		.byte	0x1
 5751 118d 51       		.byte	0x51
 5752 118e 02       		.byte	0x2
 5753 118f 7A       		.byte	0x7a
 5754 1190 00       		.sleb128 0
 5755 1191 11       		.uleb128 0x11
 5756 1192 01       		.byte	0x1
 5757 1193 50       		.byte	0x50
 5758 1194 02       		.byte	0x2
 5759 1195 7B       		.byte	0x7b
 5760 1196 00       		.sleb128 0
 5761 1197 00       		.byte	0
 5762 1198 10       		.uleb128 0x10
 5763 1199 50020000 		.4byte	.LVL122
 5764 119d F5180000 		.4byte	0x18f5
 5765 11a1 BD110000 		.4byte	0x11bd
 5766 11a5 11       		.uleb128 0x11
 5767 11a6 01       		.byte	0x1
 5768 11a7 53       		.byte	0x53
 5769 11a8 02       		.byte	0x2
 5770 11a9 75       		.byte	0x75
 5771 11aa 00       		.sleb128 0
 5772 11ab 11       		.uleb128 0x11
 5773 11ac 01       		.byte	0x1
 5774 11ad 52       		.byte	0x52
 5775 11ae 01       		.byte	0x1
 5776 11af 44       		.byte	0x44
 5777 11b0 11       		.uleb128 0x11
 5778 11b1 01       		.byte	0x1
 5779 11b2 51       		.byte	0x51
 5780 11b3 02       		.byte	0x2
 5781 11b4 79       		.byte	0x79
 5782 11b5 00       		.sleb128 0
 5783 11b6 11       		.uleb128 0x11
 5784 11b7 01       		.byte	0x1
 5785 11b8 50       		.byte	0x50
 5786 11b9 02       		.byte	0x2
 5787 11ba 7A       		.byte	0x7a
 5788 11bb 00       		.sleb128 0
 5789 11bc 00       		.byte	0
 5790 11bd 10       		.uleb128 0x10
 5791 11be 5E020000 		.4byte	.LVL123
 5792 11c2 F5180000 		.4byte	0x18f5
 5793 11c6 E2110000 		.4byte	0x11e2
 5794 11ca 11       		.uleb128 0x11
 5795 11cb 01       		.byte	0x1
 5796 11cc 53       		.byte	0x53
 5797 11cd 02       		.byte	0x2
ARM GAS  /tmp/ccd61yKH.s 			page 103


 5798 11ce 09       		.byte	0x9
 5799 11cf FF       		.byte	0xff
 5800 11d0 11       		.uleb128 0x11
 5801 11d1 01       		.byte	0x1
 5802 11d2 52       		.byte	0x52
 5803 11d3 01       		.byte	0x1
 5804 11d4 41       		.byte	0x41
 5805 11d5 11       		.uleb128 0x11
 5806 11d6 01       		.byte	0x1
 5807 11d7 51       		.byte	0x51
 5808 11d8 02       		.byte	0x2
 5809 11d9 79       		.byte	0x79
 5810 11da 00       		.sleb128 0
 5811 11db 11       		.uleb128 0x11
 5812 11dc 01       		.byte	0x1
 5813 11dd 50       		.byte	0x50
 5814 11de 02       		.byte	0x2
 5815 11df 7A       		.byte	0x7a
 5816 11e0 00       		.sleb128 0
 5817 11e1 00       		.byte	0
 5818 11e2 10       		.uleb128 0x10
 5819 11e3 70020000 		.4byte	.LVL124
 5820 11e7 F5180000 		.4byte	0x18f5
 5821 11eb 01120000 		.4byte	0x1201
 5822 11ef 11       		.uleb128 0x11
 5823 11f0 01       		.byte	0x1
 5824 11f1 53       		.byte	0x53
 5825 11f2 02       		.byte	0x2
 5826 11f3 75       		.byte	0x75
 5827 11f4 00       		.sleb128 0
 5828 11f5 11       		.uleb128 0x11
 5829 11f6 01       		.byte	0x1
 5830 11f7 52       		.byte	0x52
 5831 11f8 01       		.byte	0x1
 5832 11f9 33       		.byte	0x33
 5833 11fa 11       		.uleb128 0x11
 5834 11fb 01       		.byte	0x1
 5835 11fc 50       		.byte	0x50
 5836 11fd 02       		.byte	0x2
 5837 11fe 7A       		.byte	0x7a
 5838 11ff 00       		.sleb128 0
 5839 1200 00       		.byte	0
 5840 1201 10       		.uleb128 0x10
 5841 1202 9A020000 		.4byte	.LVL126
 5842 1206 F5180000 		.4byte	0x18f5
 5843 120a 26120000 		.4byte	0x1226
 5844 120e 11       		.uleb128 0x11
 5845 120f 01       		.byte	0x1
 5846 1210 53       		.byte	0x53
 5847 1211 02       		.byte	0x2
 5848 1212 75       		.byte	0x75
 5849 1213 00       		.sleb128 0
 5850 1214 11       		.uleb128 0x11
 5851 1215 01       		.byte	0x1
 5852 1216 52       		.byte	0x52
 5853 1217 01       		.byte	0x1
 5854 1218 44       		.byte	0x44
ARM GAS  /tmp/ccd61yKH.s 			page 104


 5855 1219 11       		.uleb128 0x11
 5856 121a 01       		.byte	0x1
 5857 121b 51       		.byte	0x51
 5858 121c 02       		.byte	0x2
 5859 121d 79       		.byte	0x79
 5860 121e 00       		.sleb128 0
 5861 121f 11       		.uleb128 0x11
 5862 1220 01       		.byte	0x1
 5863 1221 50       		.byte	0x50
 5864 1222 02       		.byte	0x2
 5865 1223 7A       		.byte	0x7a
 5866 1224 00       		.sleb128 0
 5867 1225 00       		.byte	0
 5868 1226 10       		.uleb128 0x10
 5869 1227 A8020000 		.4byte	.LVL127
 5870 122b F5180000 		.4byte	0x18f5
 5871 122f 4B120000 		.4byte	0x124b
 5872 1233 11       		.uleb128 0x11
 5873 1234 01       		.byte	0x1
 5874 1235 53       		.byte	0x53
 5875 1236 02       		.byte	0x2
 5876 1237 09       		.byte	0x9
 5877 1238 FF       		.byte	0xff
 5878 1239 11       		.uleb128 0x11
 5879 123a 01       		.byte	0x1
 5880 123b 52       		.byte	0x52
 5881 123c 01       		.byte	0x1
 5882 123d 41       		.byte	0x41
 5883 123e 11       		.uleb128 0x11
 5884 123f 01       		.byte	0x1
 5885 1240 51       		.byte	0x51
 5886 1241 02       		.byte	0x2
 5887 1242 79       		.byte	0x79
 5888 1243 00       		.sleb128 0
 5889 1244 11       		.uleb128 0x11
 5890 1245 01       		.byte	0x1
 5891 1246 50       		.byte	0x50
 5892 1247 02       		.byte	0x2
 5893 1248 7A       		.byte	0x7a
 5894 1249 00       		.sleb128 0
 5895 124a 00       		.byte	0
 5896 124b 10       		.uleb128 0x10
 5897 124c BA020000 		.4byte	.LVL128
 5898 1250 F5180000 		.4byte	0x18f5
 5899 1254 72120000 		.4byte	0x1272
 5900 1258 11       		.uleb128 0x11
 5901 1259 01       		.byte	0x1
 5902 125a 53       		.byte	0x53
 5903 125b 02       		.byte	0x2
 5904 125c 75       		.byte	0x75
 5905 125d 00       		.sleb128 0
 5906 125e 11       		.uleb128 0x11
 5907 125f 01       		.byte	0x1
 5908 1260 52       		.byte	0x52
 5909 1261 01       		.byte	0x1
 5910 1262 33       		.byte	0x33
 5911 1263 11       		.uleb128 0x11
ARM GAS  /tmp/ccd61yKH.s 			page 105


 5912 1264 01       		.byte	0x1
 5913 1265 51       		.byte	0x51
 5914 1266 04       		.byte	0x4
 5915 1267 91       		.byte	0x91
 5916 1268 4C       		.sleb128 -52
 5917 1269 94       		.byte	0x94
 5918 126a 02       		.byte	0x2
 5919 126b 11       		.uleb128 0x11
 5920 126c 01       		.byte	0x1
 5921 126d 50       		.byte	0x50
 5922 126e 02       		.byte	0x2
 5923 126f 7A       		.byte	0x7a
 5924 1270 00       		.sleb128 0
 5925 1271 00       		.byte	0
 5926 1272 10       		.uleb128 0x10
 5927 1273 E4020000 		.4byte	.LVL130
 5928 1277 F5180000 		.4byte	0x18f5
 5929 127b 97120000 		.4byte	0x1297
 5930 127f 11       		.uleb128 0x11
 5931 1280 01       		.byte	0x1
 5932 1281 53       		.byte	0x53
 5933 1282 02       		.byte	0x2
 5934 1283 75       		.byte	0x75
 5935 1284 00       		.sleb128 0
 5936 1285 11       		.uleb128 0x11
 5937 1286 01       		.byte	0x1
 5938 1287 52       		.byte	0x52
 5939 1288 01       		.byte	0x1
 5940 1289 44       		.byte	0x44
 5941 128a 11       		.uleb128 0x11
 5942 128b 01       		.byte	0x1
 5943 128c 51       		.byte	0x51
 5944 128d 02       		.byte	0x2
 5945 128e 79       		.byte	0x79
 5946 128f 00       		.sleb128 0
 5947 1290 11       		.uleb128 0x11
 5948 1291 01       		.byte	0x1
 5949 1292 50       		.byte	0x50
 5950 1293 02       		.byte	0x2
 5951 1294 7A       		.byte	0x7a
 5952 1295 00       		.sleb128 0
 5953 1296 00       		.byte	0
 5954 1297 10       		.uleb128 0x10
 5955 1298 F2020000 		.4byte	.LVL131
 5956 129c F5180000 		.4byte	0x18f5
 5957 12a0 BC120000 		.4byte	0x12bc
 5958 12a4 11       		.uleb128 0x11
 5959 12a5 01       		.byte	0x1
 5960 12a6 53       		.byte	0x53
 5961 12a7 02       		.byte	0x2
 5962 12a8 09       		.byte	0x9
 5963 12a9 FF       		.byte	0xff
 5964 12aa 11       		.uleb128 0x11
 5965 12ab 01       		.byte	0x1
 5966 12ac 52       		.byte	0x52
 5967 12ad 01       		.byte	0x1
 5968 12ae 41       		.byte	0x41
ARM GAS  /tmp/ccd61yKH.s 			page 106


 5969 12af 11       		.uleb128 0x11
 5970 12b0 01       		.byte	0x1
 5971 12b1 51       		.byte	0x51
 5972 12b2 02       		.byte	0x2
 5973 12b3 79       		.byte	0x79
 5974 12b4 00       		.sleb128 0
 5975 12b5 11       		.uleb128 0x11
 5976 12b6 01       		.byte	0x1
 5977 12b7 50       		.byte	0x50
 5978 12b8 02       		.byte	0x2
 5979 12b9 7A       		.byte	0x7a
 5980 12ba 00       		.sleb128 0
 5981 12bb 00       		.byte	0
 5982 12bc 12       		.uleb128 0x12
 5983 12bd FE020000 		.4byte	.LVL132
 5984 12c1 F5180000 		.4byte	0x18f5
 5985 12c5 11       		.uleb128 0x11
 5986 12c6 01       		.byte	0x1
 5987 12c7 53       		.byte	0x53
 5988 12c8 02       		.byte	0x2
 5989 12c9 75       		.byte	0x75
 5990 12ca 00       		.sleb128 0
 5991 12cb 11       		.uleb128 0x11
 5992 12cc 01       		.byte	0x1
 5993 12cd 52       		.byte	0x52
 5994 12ce 01       		.byte	0x1
 5995 12cf 33       		.byte	0x33
 5996 12d0 11       		.uleb128 0x11
 5997 12d1 01       		.byte	0x1
 5998 12d2 51       		.byte	0x51
 5999 12d3 02       		.byte	0x2
 6000 12d4 79       		.byte	0x79
 6001 12d5 00       		.sleb128 0
 6002 12d6 11       		.uleb128 0x11
 6003 12d7 01       		.byte	0x1
 6004 12d8 50       		.byte	0x50
 6005 12d9 02       		.byte	0x2
 6006 12da 7A       		.byte	0x7a
 6007 12db 00       		.sleb128 0
 6008 12dc 00       		.byte	0
 6009 12dd 00       		.byte	0
 6010 12de 12       		.uleb128 0x12
 6011 12df 0E000000 		.4byte	.LVL88
 6012 12e3 19190000 		.4byte	0x1919
 6013 12e7 11       		.uleb128 0x11
 6014 12e8 01       		.byte	0x1
 6015 12e9 50       		.byte	0x50
 6016 12ea 02       		.byte	0x2
 6017 12eb 09       		.byte	0x9
 6018 12ec FF       		.byte	0xff
 6019 12ed 00       		.byte	0
 6020 12ee 00       		.byte	0
 6021 12ef 0E       		.uleb128 0xe
 6022 12f0 01       		.byte	0x1
 6023 12f1 57020000 		.4byte	.LASF78
 6024 12f5 01       		.byte	0x1
 6025 12f6 C3       		.byte	0xc3
ARM GAS  /tmp/ccd61yKH.s 			page 107


 6026 12f7 01       		.byte	0x1
 6027 12f8 00000000 		.4byte	.LFB126
 6028 12fc 30080000 		.4byte	.LFE126
 6029 1300 2B080000 		.4byte	.LLST23
 6030 1304 01       		.byte	0x1
 6031 1305 D2170000 		.4byte	0x17d2
 6032 1309 17       		.uleb128 0x17
 6033 130a 36040000 		.4byte	.LASF79
 6034 130e 01       		.byte	0x1
 6035 130f C3       		.byte	0xc3
 6036 1310 D1000000 		.4byte	0xd1
 6037 1314 58080000 		.4byte	.LLST24
 6038 1318 17       		.uleb128 0x17
 6039 1319 18000000 		.4byte	.LASF80
 6040 131d 01       		.byte	0x1
 6041 131e C3       		.byte	0xc3
 6042 131f 3E000000 		.4byte	0x3e
 6043 1323 76080000 		.4byte	.LLST25
 6044 1327 0F       		.uleb128 0xf
 6045 1328 6900     		.ascii	"i\000"
 6046 132a 01       		.byte	0x1
 6047 132b C7       		.byte	0xc7
 6048 132c 3E000000 		.4byte	0x3e
 6049 1330 97080000 		.4byte	.LLST26
 6050 1334 0F       		.uleb128 0xf
 6051 1335 6A00     		.ascii	"j\000"
 6052 1337 01       		.byte	0x1
 6053 1338 C7       		.byte	0xc7
 6054 1339 3E000000 		.4byte	0x3e
 6055 133d BF090000 		.4byte	.LLST27
 6056 1341 16       		.uleb128 0x16
 6057 1342 97010000 		.4byte	.LASF81
 6058 1346 01       		.byte	0x1
 6059 1347 C8       		.byte	0xc8
 6060 1348 F2000000 		.4byte	0xf2
 6061 134c 930A0000 		.4byte	.LLST28
 6062 1350 16       		.uleb128 0x16
 6063 1351 9E010000 		.4byte	.LASF82
 6064 1355 01       		.byte	0x1
 6065 1356 C8       		.byte	0xc8
 6066 1357 F2000000 		.4byte	0xf2
 6067 135b B30B0000 		.4byte	.LLST29
 6068 135f 16       		.uleb128 0x16
 6069 1360 60020000 		.4byte	.LASF83
 6070 1364 01       		.byte	0x1
 6071 1365 C9       		.byte	0xc9
 6072 1366 3E000000 		.4byte	0x3e
 6073 136a EB0B0000 		.4byte	.LLST30
 6074 136e 16       		.uleb128 0x16
 6075 136f 63010000 		.4byte	.LASF84
 6076 1373 01       		.byte	0x1
 6077 1374 C9       		.byte	0xc9
 6078 1375 3E000000 		.4byte	0x3e
 6079 1379 FB0C0000 		.4byte	.LLST31
 6080 137d 16       		.uleb128 0x16
 6081 137e 6A040000 		.4byte	.LASF85
 6082 1382 01       		.byte	0x1
ARM GAS  /tmp/ccd61yKH.s 			page 108


 6083 1383 CA       		.byte	0xca
 6084 1384 3E000000 		.4byte	0x3e
 6085 1388 0B0E0000 		.4byte	.LLST32
 6086 138c 18       		.uleb128 0x18
 6087 138d 79030000 		.4byte	0x379
 6088 1391 B4020000 		.4byte	.LBB66
 6089 1395 F8000000 		.4byte	.Ldebug_ranges0+0xf8
 6090 1399 01       		.byte	0x1
 6091 139a 0A01     		.2byte	0x10a
 6092 139c FA160000 		.4byte	0x16fa
 6093 13a0 14       		.uleb128 0x14
 6094 13a1 90030000 		.4byte	0x390
 6095 13a5 110F0000 		.4byte	.LLST33
 6096 13a9 14       		.uleb128 0x14
 6097 13aa 87030000 		.4byte	0x387
 6098 13ae 04100000 		.4byte	.LLST34
 6099 13b2 10       		.uleb128 0x10
 6100 13b3 D4020000 		.4byte	.LVL163
 6101 13b7 F5180000 		.4byte	0x18f5
 6102 13bb D1130000 		.4byte	0x13d1
 6103 13bf 11       		.uleb128 0x11
 6104 13c0 01       		.byte	0x1
 6105 13c1 53       		.byte	0x53
 6106 13c2 02       		.byte	0x2
 6107 13c3 09       		.byte	0x9
 6108 13c4 E0       		.byte	0xe0
 6109 13c5 11       		.uleb128 0x11
 6110 13c6 01       		.byte	0x1
 6111 13c7 52       		.byte	0x52
 6112 13c8 01       		.byte	0x1
 6113 13c9 44       		.byte	0x44
 6114 13ca 11       		.uleb128 0x11
 6115 13cb 01       		.byte	0x1
 6116 13cc 51       		.byte	0x51
 6117 13cd 02       		.byte	0x2
 6118 13ce 77       		.byte	0x77
 6119 13cf 00       		.sleb128 0
 6120 13d0 00       		.byte	0
 6121 13d1 10       		.uleb128 0x10
 6122 13d2 E6020000 		.4byte	.LVL164
 6123 13d6 F5180000 		.4byte	0x18f5
 6124 13da F0130000 		.4byte	0x13f0
 6125 13de 11       		.uleb128 0x11
 6126 13df 01       		.byte	0x1
 6127 13e0 53       		.byte	0x53
 6128 13e1 02       		.byte	0x2
 6129 13e2 09       		.byte	0x9
 6130 13e3 FF       		.byte	0xff
 6131 13e4 11       		.uleb128 0x11
 6132 13e5 01       		.byte	0x1
 6133 13e6 52       		.byte	0x52
 6134 13e7 01       		.byte	0x1
 6135 13e8 41       		.byte	0x41
 6136 13e9 11       		.uleb128 0x11
 6137 13ea 01       		.byte	0x1
 6138 13eb 51       		.byte	0x51
 6139 13ec 02       		.byte	0x2
ARM GAS  /tmp/ccd61yKH.s 			page 109


 6140 13ed 77       		.byte	0x77
 6141 13ee 00       		.sleb128 0
 6142 13ef 00       		.byte	0
 6143 13f0 10       		.uleb128 0x10
 6144 13f1 F8020000 		.4byte	.LVL165
 6145 13f5 F5180000 		.4byte	0x18f5
 6146 13f9 0F140000 		.4byte	0x140f
 6147 13fd 11       		.uleb128 0x11
 6148 13fe 01       		.byte	0x1
 6149 13ff 53       		.byte	0x53
 6150 1400 02       		.byte	0x2
 6151 1401 09       		.byte	0x9
 6152 1402 E0       		.byte	0xe0
 6153 1403 11       		.uleb128 0x11
 6154 1404 01       		.byte	0x1
 6155 1405 52       		.byte	0x52
 6156 1406 01       		.byte	0x1
 6157 1407 33       		.byte	0x33
 6158 1408 11       		.uleb128 0x11
 6159 1409 01       		.byte	0x1
 6160 140a 51       		.byte	0x51
 6161 140b 02       		.byte	0x2
 6162 140c 77       		.byte	0x77
 6163 140d 00       		.sleb128 0
 6164 140e 00       		.byte	0
 6165 140f 10       		.uleb128 0x10
 6166 1410 8E030000 		.4byte	.LVL177
 6167 1414 F5180000 		.4byte	0x18f5
 6168 1418 2E140000 		.4byte	0x142e
 6169 141c 11       		.uleb128 0x11
 6170 141d 01       		.byte	0x1
 6171 141e 53       		.byte	0x53
 6172 141f 02       		.byte	0x2
 6173 1420 09       		.byte	0x9
 6174 1421 E0       		.byte	0xe0
 6175 1422 11       		.uleb128 0x11
 6176 1423 01       		.byte	0x1
 6177 1424 52       		.byte	0x52
 6178 1425 01       		.byte	0x1
 6179 1426 44       		.byte	0x44
 6180 1427 11       		.uleb128 0x11
 6181 1428 01       		.byte	0x1
 6182 1429 51       		.byte	0x51
 6183 142a 02       		.byte	0x2
 6184 142b 77       		.byte	0x77
 6185 142c 00       		.sleb128 0
 6186 142d 00       		.byte	0
 6187 142e 10       		.uleb128 0x10
 6188 142f A0030000 		.4byte	.LVL178
 6189 1433 F5180000 		.4byte	0x18f5
 6190 1437 4D140000 		.4byte	0x144d
 6191 143b 11       		.uleb128 0x11
 6192 143c 01       		.byte	0x1
 6193 143d 53       		.byte	0x53
 6194 143e 02       		.byte	0x2
 6195 143f 09       		.byte	0x9
 6196 1440 FF       		.byte	0xff
ARM GAS  /tmp/ccd61yKH.s 			page 110


 6197 1441 11       		.uleb128 0x11
 6198 1442 01       		.byte	0x1
 6199 1443 52       		.byte	0x52
 6200 1444 01       		.byte	0x1
 6201 1445 41       		.byte	0x41
 6202 1446 11       		.uleb128 0x11
 6203 1447 01       		.byte	0x1
 6204 1448 51       		.byte	0x51
 6205 1449 02       		.byte	0x2
 6206 144a 77       		.byte	0x77
 6207 144b 00       		.sleb128 0
 6208 144c 00       		.byte	0
 6209 144d 10       		.uleb128 0x10
 6210 144e B2030000 		.4byte	.LVL179
 6211 1452 F5180000 		.4byte	0x18f5
 6212 1456 6C140000 		.4byte	0x146c
 6213 145a 11       		.uleb128 0x11
 6214 145b 01       		.byte	0x1
 6215 145c 53       		.byte	0x53
 6216 145d 02       		.byte	0x2
 6217 145e 09       		.byte	0x9
 6218 145f E0       		.byte	0xe0
 6219 1460 11       		.uleb128 0x11
 6220 1461 01       		.byte	0x1
 6221 1462 52       		.byte	0x52
 6222 1463 01       		.byte	0x1
 6223 1464 33       		.byte	0x33
 6224 1465 11       		.uleb128 0x11
 6225 1466 01       		.byte	0x1
 6226 1467 51       		.byte	0x51
 6227 1468 02       		.byte	0x2
 6228 1469 77       		.byte	0x77
 6229 146a 00       		.sleb128 0
 6230 146b 00       		.byte	0
 6231 146c 10       		.uleb128 0x10
 6232 146d 28040000 		.4byte	.LVL186
 6233 1471 F5180000 		.4byte	0x18f5
 6234 1475 8B140000 		.4byte	0x148b
 6235 1479 11       		.uleb128 0x11
 6236 147a 01       		.byte	0x1
 6237 147b 53       		.byte	0x53
 6238 147c 02       		.byte	0x2
 6239 147d 09       		.byte	0x9
 6240 147e E0       		.byte	0xe0
 6241 147f 11       		.uleb128 0x11
 6242 1480 01       		.byte	0x1
 6243 1481 52       		.byte	0x52
 6244 1482 01       		.byte	0x1
 6245 1483 44       		.byte	0x44
 6246 1484 11       		.uleb128 0x11
 6247 1485 01       		.byte	0x1
 6248 1486 51       		.byte	0x51
 6249 1487 02       		.byte	0x2
 6250 1488 77       		.byte	0x77
 6251 1489 00       		.sleb128 0
 6252 148a 00       		.byte	0
 6253 148b 10       		.uleb128 0x10
ARM GAS  /tmp/ccd61yKH.s 			page 111


 6254 148c 3A040000 		.4byte	.LVL187
 6255 1490 F5180000 		.4byte	0x18f5
 6256 1494 AA140000 		.4byte	0x14aa
 6257 1498 11       		.uleb128 0x11
 6258 1499 01       		.byte	0x1
 6259 149a 53       		.byte	0x53
 6260 149b 02       		.byte	0x2
 6261 149c 09       		.byte	0x9
 6262 149d FF       		.byte	0xff
 6263 149e 11       		.uleb128 0x11
 6264 149f 01       		.byte	0x1
 6265 14a0 52       		.byte	0x52
 6266 14a1 01       		.byte	0x1
 6267 14a2 41       		.byte	0x41
 6268 14a3 11       		.uleb128 0x11
 6269 14a4 01       		.byte	0x1
 6270 14a5 51       		.byte	0x51
 6271 14a6 02       		.byte	0x2
 6272 14a7 77       		.byte	0x77
 6273 14a8 00       		.sleb128 0
 6274 14a9 00       		.byte	0
 6275 14aa 10       		.uleb128 0x10
 6276 14ab 4C040000 		.4byte	.LVL188
 6277 14af F5180000 		.4byte	0x18f5
 6278 14b3 C9140000 		.4byte	0x14c9
 6279 14b7 11       		.uleb128 0x11
 6280 14b8 01       		.byte	0x1
 6281 14b9 53       		.byte	0x53
 6282 14ba 02       		.byte	0x2
 6283 14bb 09       		.byte	0x9
 6284 14bc E0       		.byte	0xe0
 6285 14bd 11       		.uleb128 0x11
 6286 14be 01       		.byte	0x1
 6287 14bf 52       		.byte	0x52
 6288 14c0 01       		.byte	0x1
 6289 14c1 33       		.byte	0x33
 6290 14c2 11       		.uleb128 0x11
 6291 14c3 01       		.byte	0x1
 6292 14c4 51       		.byte	0x51
 6293 14c5 02       		.byte	0x2
 6294 14c6 77       		.byte	0x77
 6295 14c7 00       		.sleb128 0
 6296 14c8 00       		.byte	0
 6297 14c9 10       		.uleb128 0x10
 6298 14ca BA040000 		.4byte	.LVL195
 6299 14ce F5180000 		.4byte	0x18f5
 6300 14d2 E8140000 		.4byte	0x14e8
 6301 14d6 11       		.uleb128 0x11
 6302 14d7 01       		.byte	0x1
 6303 14d8 53       		.byte	0x53
 6304 14d9 02       		.byte	0x2
 6305 14da 09       		.byte	0x9
 6306 14db E0       		.byte	0xe0
 6307 14dc 11       		.uleb128 0x11
 6308 14dd 01       		.byte	0x1
 6309 14de 52       		.byte	0x52
 6310 14df 01       		.byte	0x1
ARM GAS  /tmp/ccd61yKH.s 			page 112


 6311 14e0 44       		.byte	0x44
 6312 14e1 11       		.uleb128 0x11
 6313 14e2 01       		.byte	0x1
 6314 14e3 51       		.byte	0x51
 6315 14e4 02       		.byte	0x2
 6316 14e5 77       		.byte	0x77
 6317 14e6 00       		.sleb128 0
 6318 14e7 00       		.byte	0
 6319 14e8 10       		.uleb128 0x10
 6320 14e9 CC040000 		.4byte	.LVL196
 6321 14ed F5180000 		.4byte	0x18f5
 6322 14f1 07150000 		.4byte	0x1507
 6323 14f5 11       		.uleb128 0x11
 6324 14f6 01       		.byte	0x1
 6325 14f7 53       		.byte	0x53
 6326 14f8 02       		.byte	0x2
 6327 14f9 09       		.byte	0x9
 6328 14fa FF       		.byte	0xff
 6329 14fb 11       		.uleb128 0x11
 6330 14fc 01       		.byte	0x1
 6331 14fd 52       		.byte	0x52
 6332 14fe 01       		.byte	0x1
 6333 14ff 41       		.byte	0x41
 6334 1500 11       		.uleb128 0x11
 6335 1501 01       		.byte	0x1
 6336 1502 51       		.byte	0x51
 6337 1503 02       		.byte	0x2
 6338 1504 77       		.byte	0x77
 6339 1505 00       		.sleb128 0
 6340 1506 00       		.byte	0
 6341 1507 10       		.uleb128 0x10
 6342 1508 DE040000 		.4byte	.LVL197
 6343 150c F5180000 		.4byte	0x18f5
 6344 1510 26150000 		.4byte	0x1526
 6345 1514 11       		.uleb128 0x11
 6346 1515 01       		.byte	0x1
 6347 1516 53       		.byte	0x53
 6348 1517 02       		.byte	0x2
 6349 1518 09       		.byte	0x9
 6350 1519 E0       		.byte	0xe0
 6351 151a 11       		.uleb128 0x11
 6352 151b 01       		.byte	0x1
 6353 151c 52       		.byte	0x52
 6354 151d 01       		.byte	0x1
 6355 151e 33       		.byte	0x33
 6356 151f 11       		.uleb128 0x11
 6357 1520 01       		.byte	0x1
 6358 1521 51       		.byte	0x51
 6359 1522 02       		.byte	0x2
 6360 1523 77       		.byte	0x77
 6361 1524 00       		.sleb128 0
 6362 1525 00       		.byte	0
 6363 1526 10       		.uleb128 0x10
 6364 1527 4A050000 		.4byte	.LVL204
 6365 152b F5180000 		.4byte	0x18f5
 6366 152f 45150000 		.4byte	0x1545
 6367 1533 11       		.uleb128 0x11
ARM GAS  /tmp/ccd61yKH.s 			page 113


 6368 1534 01       		.byte	0x1
 6369 1535 53       		.byte	0x53
 6370 1536 02       		.byte	0x2
 6371 1537 09       		.byte	0x9
 6372 1538 E0       		.byte	0xe0
 6373 1539 11       		.uleb128 0x11
 6374 153a 01       		.byte	0x1
 6375 153b 52       		.byte	0x52
 6376 153c 01       		.byte	0x1
 6377 153d 44       		.byte	0x44
 6378 153e 11       		.uleb128 0x11
 6379 153f 01       		.byte	0x1
 6380 1540 51       		.byte	0x51
 6381 1541 02       		.byte	0x2
 6382 1542 77       		.byte	0x77
 6383 1543 00       		.sleb128 0
 6384 1544 00       		.byte	0
 6385 1545 10       		.uleb128 0x10
 6386 1546 5C050000 		.4byte	.LVL205
 6387 154a F5180000 		.4byte	0x18f5
 6388 154e 64150000 		.4byte	0x1564
 6389 1552 11       		.uleb128 0x11
 6390 1553 01       		.byte	0x1
 6391 1554 53       		.byte	0x53
 6392 1555 02       		.byte	0x2
 6393 1556 09       		.byte	0x9
 6394 1557 FF       		.byte	0xff
 6395 1558 11       		.uleb128 0x11
 6396 1559 01       		.byte	0x1
 6397 155a 52       		.byte	0x52
 6398 155b 01       		.byte	0x1
 6399 155c 41       		.byte	0x41
 6400 155d 11       		.uleb128 0x11
 6401 155e 01       		.byte	0x1
 6402 155f 51       		.byte	0x51
 6403 1560 02       		.byte	0x2
 6404 1561 77       		.byte	0x77
 6405 1562 00       		.sleb128 0
 6406 1563 00       		.byte	0
 6407 1564 10       		.uleb128 0x10
 6408 1565 6E050000 		.4byte	.LVL206
 6409 1569 F5180000 		.4byte	0x18f5
 6410 156d 83150000 		.4byte	0x1583
 6411 1571 11       		.uleb128 0x11
 6412 1572 01       		.byte	0x1
 6413 1573 53       		.byte	0x53
 6414 1574 02       		.byte	0x2
 6415 1575 09       		.byte	0x9
 6416 1576 E0       		.byte	0xe0
 6417 1577 11       		.uleb128 0x11
 6418 1578 01       		.byte	0x1
 6419 1579 52       		.byte	0x52
 6420 157a 01       		.byte	0x1
 6421 157b 33       		.byte	0x33
 6422 157c 11       		.uleb128 0x11
 6423 157d 01       		.byte	0x1
 6424 157e 51       		.byte	0x51
ARM GAS  /tmp/ccd61yKH.s 			page 114


 6425 157f 02       		.byte	0x2
 6426 1580 77       		.byte	0x77
 6427 1581 00       		.sleb128 0
 6428 1582 00       		.byte	0
 6429 1583 10       		.uleb128 0x10
 6430 1584 DA050000 		.4byte	.LVL211
 6431 1588 F5180000 		.4byte	0x18f5
 6432 158c A2150000 		.4byte	0x15a2
 6433 1590 11       		.uleb128 0x11
 6434 1591 01       		.byte	0x1
 6435 1592 53       		.byte	0x53
 6436 1593 02       		.byte	0x2
 6437 1594 09       		.byte	0x9
 6438 1595 E0       		.byte	0xe0
 6439 1596 11       		.uleb128 0x11
 6440 1597 01       		.byte	0x1
 6441 1598 52       		.byte	0x52
 6442 1599 01       		.byte	0x1
 6443 159a 44       		.byte	0x44
 6444 159b 11       		.uleb128 0x11
 6445 159c 01       		.byte	0x1
 6446 159d 51       		.byte	0x51
 6447 159e 02       		.byte	0x2
 6448 159f 77       		.byte	0x77
 6449 15a0 00       		.sleb128 0
 6450 15a1 00       		.byte	0
 6451 15a2 10       		.uleb128 0x10
 6452 15a3 EC050000 		.4byte	.LVL212
 6453 15a7 F5180000 		.4byte	0x18f5
 6454 15ab C1150000 		.4byte	0x15c1
 6455 15af 11       		.uleb128 0x11
 6456 15b0 01       		.byte	0x1
 6457 15b1 53       		.byte	0x53
 6458 15b2 02       		.byte	0x2
 6459 15b3 09       		.byte	0x9
 6460 15b4 FF       		.byte	0xff
 6461 15b5 11       		.uleb128 0x11
 6462 15b6 01       		.byte	0x1
 6463 15b7 52       		.byte	0x52
 6464 15b8 01       		.byte	0x1
 6465 15b9 41       		.byte	0x41
 6466 15ba 11       		.uleb128 0x11
 6467 15bb 01       		.byte	0x1
 6468 15bc 51       		.byte	0x51
 6469 15bd 02       		.byte	0x2
 6470 15be 77       		.byte	0x77
 6471 15bf 00       		.sleb128 0
 6472 15c0 00       		.byte	0
 6473 15c1 10       		.uleb128 0x10
 6474 15c2 FE050000 		.4byte	.LVL213
 6475 15c6 F5180000 		.4byte	0x18f5
 6476 15ca E0150000 		.4byte	0x15e0
 6477 15ce 11       		.uleb128 0x11
 6478 15cf 01       		.byte	0x1
 6479 15d0 53       		.byte	0x53
 6480 15d1 02       		.byte	0x2
 6481 15d2 09       		.byte	0x9
ARM GAS  /tmp/ccd61yKH.s 			page 115


 6482 15d3 E0       		.byte	0xe0
 6483 15d4 11       		.uleb128 0x11
 6484 15d5 01       		.byte	0x1
 6485 15d6 52       		.byte	0x52
 6486 15d7 01       		.byte	0x1
 6487 15d8 33       		.byte	0x33
 6488 15d9 11       		.uleb128 0x11
 6489 15da 01       		.byte	0x1
 6490 15db 51       		.byte	0x51
 6491 15dc 02       		.byte	0x2
 6492 15dd 77       		.byte	0x77
 6493 15de 00       		.sleb128 0
 6494 15df 00       		.byte	0
 6495 15e0 10       		.uleb128 0x10
 6496 15e1 6A060000 		.4byte	.LVL220
 6497 15e5 F5180000 		.4byte	0x18f5
 6498 15e9 FF150000 		.4byte	0x15ff
 6499 15ed 11       		.uleb128 0x11
 6500 15ee 01       		.byte	0x1
 6501 15ef 53       		.byte	0x53
 6502 15f0 02       		.byte	0x2
 6503 15f1 09       		.byte	0x9
 6504 15f2 E0       		.byte	0xe0
 6505 15f3 11       		.uleb128 0x11
 6506 15f4 01       		.byte	0x1
 6507 15f5 52       		.byte	0x52
 6508 15f6 01       		.byte	0x1
 6509 15f7 44       		.byte	0x44
 6510 15f8 11       		.uleb128 0x11
 6511 15f9 01       		.byte	0x1
 6512 15fa 51       		.byte	0x51
 6513 15fb 02       		.byte	0x2
 6514 15fc 77       		.byte	0x77
 6515 15fd 00       		.sleb128 0
 6516 15fe 00       		.byte	0
 6517 15ff 10       		.uleb128 0x10
 6518 1600 7C060000 		.4byte	.LVL221
 6519 1604 F5180000 		.4byte	0x18f5
 6520 1608 1E160000 		.4byte	0x161e
 6521 160c 11       		.uleb128 0x11
 6522 160d 01       		.byte	0x1
 6523 160e 53       		.byte	0x53
 6524 160f 02       		.byte	0x2
 6525 1610 09       		.byte	0x9
 6526 1611 FF       		.byte	0xff
 6527 1612 11       		.uleb128 0x11
 6528 1613 01       		.byte	0x1
 6529 1614 52       		.byte	0x52
 6530 1615 01       		.byte	0x1
 6531 1616 41       		.byte	0x41
 6532 1617 11       		.uleb128 0x11
 6533 1618 01       		.byte	0x1
 6534 1619 51       		.byte	0x51
 6535 161a 02       		.byte	0x2
 6536 161b 77       		.byte	0x77
 6537 161c 00       		.sleb128 0
 6538 161d 00       		.byte	0
ARM GAS  /tmp/ccd61yKH.s 			page 116


 6539 161e 10       		.uleb128 0x10
 6540 161f 8E060000 		.4byte	.LVL222
 6541 1623 F5180000 		.4byte	0x18f5
 6542 1627 3D160000 		.4byte	0x163d
 6543 162b 11       		.uleb128 0x11
 6544 162c 01       		.byte	0x1
 6545 162d 53       		.byte	0x53
 6546 162e 02       		.byte	0x2
 6547 162f 09       		.byte	0x9
 6548 1630 E0       		.byte	0xe0
 6549 1631 11       		.uleb128 0x11
 6550 1632 01       		.byte	0x1
 6551 1633 52       		.byte	0x52
 6552 1634 01       		.byte	0x1
 6553 1635 33       		.byte	0x33
 6554 1636 11       		.uleb128 0x11
 6555 1637 01       		.byte	0x1
 6556 1638 51       		.byte	0x51
 6557 1639 02       		.byte	0x2
 6558 163a 77       		.byte	0x77
 6559 163b 00       		.sleb128 0
 6560 163c 00       		.byte	0
 6561 163d 10       		.uleb128 0x10
 6562 163e F6060000 		.4byte	.LVL229
 6563 1642 F5180000 		.4byte	0x18f5
 6564 1646 5C160000 		.4byte	0x165c
 6565 164a 11       		.uleb128 0x11
 6566 164b 01       		.byte	0x1
 6567 164c 53       		.byte	0x53
 6568 164d 02       		.byte	0x2
 6569 164e 09       		.byte	0x9
 6570 164f E0       		.byte	0xe0
 6571 1650 11       		.uleb128 0x11
 6572 1651 01       		.byte	0x1
 6573 1652 52       		.byte	0x52
 6574 1653 01       		.byte	0x1
 6575 1654 44       		.byte	0x44
 6576 1655 11       		.uleb128 0x11
 6577 1656 01       		.byte	0x1
 6578 1657 51       		.byte	0x51
 6579 1658 02       		.byte	0x2
 6580 1659 77       		.byte	0x77
 6581 165a 00       		.sleb128 0
 6582 165b 00       		.byte	0
 6583 165c 10       		.uleb128 0x10
 6584 165d 08070000 		.4byte	.LVL230
 6585 1661 F5180000 		.4byte	0x18f5
 6586 1665 7B160000 		.4byte	0x167b
 6587 1669 11       		.uleb128 0x11
 6588 166a 01       		.byte	0x1
 6589 166b 53       		.byte	0x53
 6590 166c 02       		.byte	0x2
 6591 166d 09       		.byte	0x9
 6592 166e FF       		.byte	0xff
 6593 166f 11       		.uleb128 0x11
 6594 1670 01       		.byte	0x1
 6595 1671 52       		.byte	0x52
ARM GAS  /tmp/ccd61yKH.s 			page 117


 6596 1672 01       		.byte	0x1
 6597 1673 41       		.byte	0x41
 6598 1674 11       		.uleb128 0x11
 6599 1675 01       		.byte	0x1
 6600 1676 51       		.byte	0x51
 6601 1677 02       		.byte	0x2
 6602 1678 77       		.byte	0x77
 6603 1679 00       		.sleb128 0
 6604 167a 00       		.byte	0
 6605 167b 10       		.uleb128 0x10
 6606 167c 1A070000 		.4byte	.LVL231
 6607 1680 F5180000 		.4byte	0x18f5
 6608 1684 9A160000 		.4byte	0x169a
 6609 1688 11       		.uleb128 0x11
 6610 1689 01       		.byte	0x1
 6611 168a 53       		.byte	0x53
 6612 168b 02       		.byte	0x2
 6613 168c 09       		.byte	0x9
 6614 168d E0       		.byte	0xe0
 6615 168e 11       		.uleb128 0x11
 6616 168f 01       		.byte	0x1
 6617 1690 52       		.byte	0x52
 6618 1691 01       		.byte	0x1
 6619 1692 33       		.byte	0x33
 6620 1693 11       		.uleb128 0x11
 6621 1694 01       		.byte	0x1
 6622 1695 51       		.byte	0x51
 6623 1696 02       		.byte	0x2
 6624 1697 77       		.byte	0x77
 6625 1698 00       		.sleb128 0
 6626 1699 00       		.byte	0
 6627 169a 10       		.uleb128 0x10
 6628 169b 84070000 		.4byte	.LVL238
 6629 169f F5180000 		.4byte	0x18f5
 6630 16a3 BB160000 		.4byte	0x16bb
 6631 16a7 11       		.uleb128 0x11
 6632 16a8 01       		.byte	0x1
 6633 16a9 53       		.byte	0x53
 6634 16aa 02       		.byte	0x2
 6635 16ab 09       		.byte	0x9
 6636 16ac E0       		.byte	0xe0
 6637 16ad 11       		.uleb128 0x11
 6638 16ae 01       		.byte	0x1
 6639 16af 52       		.byte	0x52
 6640 16b0 01       		.byte	0x1
 6641 16b1 44       		.byte	0x44
 6642 16b2 11       		.uleb128 0x11
 6643 16b3 01       		.byte	0x1
 6644 16b4 51       		.byte	0x51
 6645 16b5 04       		.byte	0x4
 6646 16b6 91       		.byte	0x91
 6647 16b7 54       		.sleb128 -44
 6648 16b8 94       		.byte	0x94
 6649 16b9 02       		.byte	0x2
 6650 16ba 00       		.byte	0
 6651 16bb 10       		.uleb128 0x10
 6652 16bc 96070000 		.4byte	.LVL239
ARM GAS  /tmp/ccd61yKH.s 			page 118


 6653 16c0 F5180000 		.4byte	0x18f5
 6654 16c4 DC160000 		.4byte	0x16dc
 6655 16c8 11       		.uleb128 0x11
 6656 16c9 01       		.byte	0x1
 6657 16ca 53       		.byte	0x53
 6658 16cb 02       		.byte	0x2
 6659 16cc 09       		.byte	0x9
 6660 16cd FF       		.byte	0xff
 6661 16ce 11       		.uleb128 0x11
 6662 16cf 01       		.byte	0x1
 6663 16d0 52       		.byte	0x52
 6664 16d1 01       		.byte	0x1
 6665 16d2 41       		.byte	0x41
 6666 16d3 11       		.uleb128 0x11
 6667 16d4 01       		.byte	0x1
 6668 16d5 51       		.byte	0x51
 6669 16d6 04       		.byte	0x4
 6670 16d7 91       		.byte	0x91
 6671 16d8 54       		.sleb128 -44
 6672 16d9 94       		.byte	0x94
 6673 16da 02       		.byte	0x2
 6674 16db 00       		.byte	0
 6675 16dc 12       		.uleb128 0x12
 6676 16dd A8070000 		.4byte	.LVL240
 6677 16e1 F5180000 		.4byte	0x18f5
 6678 16e5 11       		.uleb128 0x11
 6679 16e6 01       		.byte	0x1
 6680 16e7 53       		.byte	0x53
 6681 16e8 02       		.byte	0x2
 6682 16e9 09       		.byte	0x9
 6683 16ea E0       		.byte	0xe0
 6684 16eb 11       		.uleb128 0x11
 6685 16ec 01       		.byte	0x1
 6686 16ed 52       		.byte	0x52
 6687 16ee 01       		.byte	0x1
 6688 16ef 33       		.byte	0x33
 6689 16f0 11       		.uleb128 0x11
 6690 16f1 01       		.byte	0x1
 6691 16f2 51       		.byte	0x51
 6692 16f3 04       		.byte	0x4
 6693 16f4 91       		.byte	0x91
 6694 16f5 54       		.sleb128 -44
 6695 16f6 94       		.byte	0x94
 6696 16f7 02       		.byte	0x2
 6697 16f8 00       		.byte	0
 6698 16f9 00       		.byte	0
 6699 16fa 19       		.uleb128 0x19
 6700 16fb 1C000000 		.4byte	.LVL138
 6701 16ff 5E0E0000 		.4byte	0xe5e
 6702 1703 10       		.uleb128 0x10
 6703 1704 32000000 		.4byte	.LVL140
 6704 1708 2E190000 		.4byte	0x192e
 6705 170c 1F170000 		.4byte	0x171f
 6706 1710 11       		.uleb128 0x11
 6707 1711 01       		.byte	0x1
 6708 1712 51       		.byte	0x51
 6709 1713 02       		.byte	0x2
ARM GAS  /tmp/ccd61yKH.s 			page 119


 6710 1714 75       		.byte	0x75
 6711 1715 00       		.sleb128 0
 6712 1716 11       		.uleb128 0x11
 6713 1717 01       		.byte	0x1
 6714 1718 50       		.byte	0x50
 6715 1719 04       		.byte	0x4
 6716 171a 91       		.byte	0x91
 6717 171b 48       		.sleb128 -56
 6718 171c 94       		.byte	0x94
 6719 171d 02       		.byte	0x2
 6720 171e 00       		.byte	0
 6721 171f 19       		.uleb128 0x19
 6722 1720 C0000000 		.4byte	.LVL151
 6723 1724 FD090000 		.4byte	0x9fd
 6724 1728 1A       		.uleb128 0x1a
 6725 1729 CE000000 		.4byte	.LVL152
 6726 172d 01       		.byte	0x1
 6727 172e 51190000 		.4byte	0x1951
 6728 1732 3E170000 		.4byte	0x173e
 6729 1736 11       		.uleb128 0x11
 6730 1737 01       		.byte	0x1
 6731 1738 50       		.byte	0x50
 6732 1739 03       		.byte	0x3
 6733 173a 0A       		.byte	0xa
 6734 173b B004     		.2byte	0x4b0
 6735 173d 00       		.byte	0
 6736 173e 19       		.uleb128 0x19
 6737 173f 20030000 		.4byte	.LVL166
 6738 1743 9A030000 		.4byte	0x39a
 6739 1747 19       		.uleb128 0x19
 6740 1748 52030000 		.4byte	.LVL173
 6741 174c 9C050000 		.4byte	0x59c
 6742 1750 10       		.uleb128 0x10
 6743 1751 5A030000 		.4byte	.LVL174
 6744 1755 51190000 		.4byte	0x1951
 6745 1759 65170000 		.4byte	0x1765
 6746 175d 11       		.uleb128 0x11
 6747 175e 01       		.byte	0x1
 6748 175f 50       		.byte	0x50
 6749 1760 03       		.byte	0x3
 6750 1761 0A       		.byte	0xa
 6751 1762 B004     		.2byte	0x4b0
 6752 1764 00       		.byte	0
 6753 1765 19       		.uleb128 0x19
 6754 1766 64030000 		.4byte	.LVL175
 6755 176a 5E0E0000 		.4byte	0xe5e
 6756 176e 19       		.uleb128 0x19
 6757 176f D8030000 		.4byte	.LVL180
 6758 1773 9A030000 		.4byte	0x39a
 6759 1777 19       		.uleb128 0x19
 6760 1778 72040000 		.4byte	.LVL189
 6761 177c 9A030000 		.4byte	0x39a
 6762 1780 19       		.uleb128 0x19
 6763 1781 02050000 		.4byte	.LVL198
 6764 1785 9A030000 		.4byte	0x39a
 6765 1789 19       		.uleb128 0x19
 6766 178a 92050000 		.4byte	.LVL207
ARM GAS  /tmp/ccd61yKH.s 			page 120


 6767 178e 9A030000 		.4byte	0x39a
 6768 1792 19       		.uleb128 0x19
 6769 1793 24060000 		.4byte	.LVL214
 6770 1797 9A030000 		.4byte	0x39a
 6771 179b 19       		.uleb128 0x19
 6772 179c B0060000 		.4byte	.LVL223
 6773 17a0 9A030000 		.4byte	0x39a
 6774 17a4 19       		.uleb128 0x19
 6775 17a5 3C070000 		.4byte	.LVL232
 6776 17a9 9A030000 		.4byte	0x39a
 6777 17ad 19       		.uleb128 0x19
 6778 17ae CA070000 		.4byte	.LVL241
 6779 17b2 9A030000 		.4byte	0x39a
 6780 17b6 19       		.uleb128 0x19
 6781 17b7 22080000 		.4byte	.LVL254
 6782 17bb FD090000 		.4byte	0x9fd
 6783 17bf 15       		.uleb128 0x15
 6784 17c0 30080000 		.4byte	.LVL255
 6785 17c4 01       		.byte	0x1
 6786 17c5 51190000 		.4byte	0x1951
 6787 17c9 11       		.uleb128 0x11
 6788 17ca 01       		.byte	0x1
 6789 17cb 50       		.byte	0x50
 6790 17cc 03       		.byte	0x3
 6791 17cd 0A       		.byte	0xa
 6792 17ce B004     		.2byte	0x4b0
 6793 17d0 00       		.byte	0
 6794 17d1 00       		.byte	0
 6795 17d2 1B       		.uleb128 0x1b
 6796 17d3 01       		.byte	0x1
 6797 17d4 95000000 		.4byte	.LASF86
 6798 17d8 01       		.byte	0x1
 6799 17d9 2401     		.2byte	0x124
 6800 17db 01       		.byte	0x1
 6801 17dc 00000000 		.4byte	.LFB127
 6802 17e0 06000000 		.4byte	.LFE127
 6803 17e4 02       		.byte	0x2
 6804 17e5 7D       		.byte	0x7d
 6805 17e6 00       		.sleb128 0
 6806 17e7 01       		.byte	0x1
 6807 17e8 14180000 		.4byte	0x1814
 6808 17ec 1C       		.uleb128 0x1c
 6809 17ed 36040000 		.4byte	.LASF79
 6810 17f1 01       		.byte	0x1
 6811 17f2 2401     		.2byte	0x124
 6812 17f4 D1000000 		.4byte	0xd1
 6813 17f8 93100000 		.4byte	.LLST35
 6814 17fc 15       		.uleb128 0x15
 6815 17fd 06000000 		.4byte	.LVL257
 6816 1801 01       		.byte	0x1
 6817 1802 EF120000 		.4byte	0x12ef
 6818 1806 11       		.uleb128 0x11
 6819 1807 01       		.byte	0x1
 6820 1808 51       		.byte	0x51
 6821 1809 01       		.byte	0x1
 6822 180a 31       		.byte	0x31
 6823 180b 11       		.uleb128 0x11
ARM GAS  /tmp/ccd61yKH.s 			page 121


 6824 180c 01       		.byte	0x1
 6825 180d 50       		.byte	0x50
 6826 180e 03       		.byte	0x3
 6827 180f F3       		.byte	0xf3
 6828 1810 01       		.uleb128 0x1
 6829 1811 50       		.byte	0x50
 6830 1812 00       		.byte	0
 6831 1813 00       		.byte	0
 6832 1814 1B       		.uleb128 0x1b
 6833 1815 01       		.byte	0x1
 6834 1816 AA040000 		.4byte	.LASF87
 6835 181a 01       		.byte	0x1
 6836 181b 2C01     		.2byte	0x12c
 6837 181d 01       		.byte	0x1
 6838 181e 00000000 		.4byte	.LFB128
 6839 1822 06000000 		.4byte	.LFE128
 6840 1826 02       		.byte	0x2
 6841 1827 7D       		.byte	0x7d
 6842 1828 00       		.sleb128 0
 6843 1829 01       		.byte	0x1
 6844 182a 56180000 		.4byte	0x1856
 6845 182e 1C       		.uleb128 0x1c
 6846 182f 36040000 		.4byte	.LASF79
 6847 1833 01       		.byte	0x1
 6848 1834 2C01     		.2byte	0x12c
 6849 1836 D1000000 		.4byte	0xd1
 6850 183a B4100000 		.4byte	.LLST36
 6851 183e 15       		.uleb128 0x15
 6852 183f 06000000 		.4byte	.LVL259
 6853 1843 01       		.byte	0x1
 6854 1844 EF120000 		.4byte	0x12ef
 6855 1848 11       		.uleb128 0x11
 6856 1849 01       		.byte	0x1
 6857 184a 51       		.byte	0x51
 6858 184b 01       		.byte	0x1
 6859 184c 30       		.byte	0x30
 6860 184d 11       		.uleb128 0x11
 6861 184e 01       		.byte	0x1
 6862 184f 50       		.byte	0x50
 6863 1850 03       		.byte	0x3
 6864 1851 F3       		.byte	0xf3
 6865 1852 01       		.uleb128 0x1
 6866 1853 50       		.byte	0x50
 6867 1854 00       		.byte	0
 6868 1855 00       		.byte	0
 6869 1856 1D       		.uleb128 0x1d
 6870 1857 BA040000 		.4byte	.LASF88
 6871 185b 09       		.byte	0x9
 6872 185c 9806     		.2byte	0x698
 6873 185e D7000000 		.4byte	0xd7
 6874 1862 01       		.byte	0x1
 6875 1863 01       		.byte	0x1
 6876 1864 1E       		.uleb128 0x1e
 6877 1865 68030000 		.4byte	.LASF89
 6878 1869 06       		.byte	0x6
 6879 186a 5E       		.byte	0x5e
 6880 186b F6010000 		.4byte	0x1f6
ARM GAS  /tmp/ccd61yKH.s 			page 122


 6881 186f 01       		.byte	0x1
 6882 1870 01       		.byte	0x1
 6883 1871 1F       		.uleb128 0x1f
 6884 1872 657600   		.ascii	"ev\000"
 6885 1875 01       		.byte	0x1
 6886 1876 23       		.byte	0x23
 6887 1877 AE020000 		.4byte	0x2ae
 6888 187b 01       		.byte	0x1
 6889 187c 05       		.byte	0x5
 6890 187d 03       		.byte	0x3
 6891 187e 00000000 		.4byte	ev
 6892 1882 20       		.uleb128 0x20
 6893 1883 B9020000 		.4byte	0x2b9
 6894 1887 98180000 		.4byte	0x1898
 6895 188b 21       		.uleb128 0x21
 6896 188c C3000000 		.4byte	0xc3
 6897 1890 02       		.byte	0x2
 6898 1891 21       		.uleb128 0x21
 6899 1892 C3000000 		.4byte	0xc3
 6900 1896 02       		.byte	0x2
 6901 1897 00       		.byte	0
 6902 1898 22       		.uleb128 0x22
 6903 1899 88010000 		.4byte	.LASF90
 6904 189d 01       		.byte	0x1
 6905 189e 25       		.byte	0x25
 6906 189f 82180000 		.4byte	0x1882
 6907 18a3 01       		.byte	0x1
 6908 18a4 05       		.byte	0x5
 6909 18a5 03       		.byte	0x3
 6910 18a6 00000000 		.4byte	unlocker_rings
 6911 18aa 20       		.uleb128 0x20
 6912 18ab 3E000000 		.4byte	0x3e
 6913 18af BA180000 		.4byte	0x18ba
 6914 18b3 21       		.uleb128 0x21
 6915 18b4 C3000000 		.4byte	0xc3
 6916 18b8 08       		.byte	0x8
 6917 18b9 00       		.byte	0
 6918 18ba 22       		.uleb128 0x22
 6919 18bb 0D020000 		.4byte	.LASF91
 6920 18bf 01       		.byte	0x1
 6921 18c0 26       		.byte	0x26
 6922 18c1 AA180000 		.4byte	0x18aa
 6923 18c5 01       		.byte	0x1
 6924 18c6 05       		.byte	0x5
 6925 18c7 03       		.byte	0x3
 6926 18c8 00000000 		.4byte	unlock_sequence
 6927 18cc 23       		.uleb128 0x23
 6928 18cd 01       		.byte	0x1
 6929 18ce 07010000 		.4byte	.LASF92
 6930 18d2 06       		.byte	0x6
 6931 18d3 5D01     		.2byte	0x15d
 6932 18d5 01       		.byte	0x1
 6933 18d6 01       		.byte	0x1
 6934 18d7 F5180000 		.4byte	0x18f5
 6935 18db 24       		.uleb128 0x24
 6936 18dc F2000000 		.4byte	0xf2
 6937 18e0 24       		.uleb128 0x24
ARM GAS  /tmp/ccd61yKH.s 			page 123


 6938 18e1 F2000000 		.4byte	0xf2
 6939 18e5 24       		.uleb128 0x24
 6940 18e6 F2000000 		.4byte	0xf2
 6941 18ea 24       		.uleb128 0x24
 6942 18eb F2000000 		.4byte	0xf2
 6943 18ef 24       		.uleb128 0x24
 6944 18f0 01020000 		.4byte	0x201
 6945 18f4 00       		.byte	0
 6946 18f5 23       		.uleb128 0x23
 6947 18f6 01       		.byte	0x1
 6948 18f7 93040000 		.4byte	.LASF93
 6949 18fb 06       		.byte	0x6
 6950 18fc A301     		.2byte	0x1a3
 6951 18fe 01       		.byte	0x1
 6952 18ff 01       		.byte	0x1
 6953 1900 19190000 		.4byte	0x1919
 6954 1904 24       		.uleb128 0x24
 6955 1905 F2000000 		.4byte	0xf2
 6956 1909 24       		.uleb128 0x24
 6957 190a F2000000 		.4byte	0xf2
 6958 190e 24       		.uleb128 0x24
 6959 190f F2000000 		.4byte	0xf2
 6960 1913 24       		.uleb128 0x24
 6961 1914 01020000 		.4byte	0x201
 6962 1918 00       		.byte	0
 6963 1919 23       		.uleb128 0x23
 6964 191a 01       		.byte	0x1
 6965 191b 41000000 		.4byte	.LASF94
 6966 191f 06       		.byte	0x6
 6967 1920 4801     		.2byte	0x148
 6968 1922 01       		.byte	0x1
 6969 1923 01       		.byte	0x1
 6970 1924 2E190000 		.4byte	0x192e
 6971 1928 24       		.uleb128 0x24
 6972 1929 01020000 		.4byte	0x201
 6973 192d 00       		.byte	0
 6974 192e 25       		.uleb128 0x25
 6975 192f 01       		.byte	0x1
 6976 1930 D8020000 		.4byte	.LASF98
 6977 1934 07       		.byte	0x7
 6978 1935 69       		.byte	0x69
 6979 1936 01       		.byte	0x1
 6980 1937 A6000000 		.4byte	0xa6
 6981 193b 01       		.byte	0x1
 6982 193c 4B190000 		.4byte	0x194b
 6983 1940 24       		.uleb128 0x24
 6984 1941 62000000 		.4byte	0x62
 6985 1945 24       		.uleb128 0x24
 6986 1946 4B190000 		.4byte	0x194b
 6987 194a 00       		.byte	0
 6988 194b 05       		.uleb128 0x5
 6989 194c 04       		.byte	0x4
 6990 194d AE020000 		.4byte	0x2ae
 6991 1951 26       		.uleb128 0x26
 6992 1952 01       		.byte	0x1
 6993 1953 34030000 		.4byte	.LASF99
 6994 1957 04       		.byte	0x4
ARM GAS  /tmp/ccd61yKH.s 			page 124


 6995 1958 50       		.byte	0x50
 6996 1959 01       		.byte	0x1
 6997 195a 01       		.byte	0x1
 6998 195b 24       		.uleb128 0x24
 6999 195c DC000000 		.4byte	0xdc
 7000 1960 00       		.byte	0
 7001 1961 00       		.byte	0
 7002              		.section	.debug_abbrev,"",%progbits
 7003              	.Ldebug_abbrev0:
 7004 0000 01       		.uleb128 0x1
 7005 0001 11       		.uleb128 0x11
 7006 0002 01       		.byte	0x1
 7007 0003 25       		.uleb128 0x25
 7008 0004 0E       		.uleb128 0xe
 7009 0005 13       		.uleb128 0x13
 7010 0006 0B       		.uleb128 0xb
 7011 0007 03       		.uleb128 0x3
 7012 0008 0E       		.uleb128 0xe
 7013 0009 1B       		.uleb128 0x1b
 7014 000a 0E       		.uleb128 0xe
 7015 000b 55       		.uleb128 0x55
 7016 000c 06       		.uleb128 0x6
 7017 000d 11       		.uleb128 0x11
 7018 000e 01       		.uleb128 0x1
 7019 000f 52       		.uleb128 0x52
 7020 0010 01       		.uleb128 0x1
 7021 0011 10       		.uleb128 0x10
 7022 0012 06       		.uleb128 0x6
 7023 0013 00       		.byte	0
 7024 0014 00       		.byte	0
 7025 0015 02       		.uleb128 0x2
 7026 0016 24       		.uleb128 0x24
 7027 0017 00       		.byte	0
 7028 0018 0B       		.uleb128 0xb
 7029 0019 0B       		.uleb128 0xb
 7030 001a 3E       		.uleb128 0x3e
 7031 001b 0B       		.uleb128 0xb
 7032 001c 03       		.uleb128 0x3
 7033 001d 08       		.uleb128 0x8
 7034 001e 00       		.byte	0
 7035 001f 00       		.byte	0
 7036 0020 03       		.uleb128 0x3
 7037 0021 24       		.uleb128 0x24
 7038 0022 00       		.byte	0
 7039 0023 0B       		.uleb128 0xb
 7040 0024 0B       		.uleb128 0xb
 7041 0025 3E       		.uleb128 0x3e
 7042 0026 0B       		.uleb128 0xb
 7043 0027 03       		.uleb128 0x3
 7044 0028 0E       		.uleb128 0xe
 7045 0029 00       		.byte	0
 7046 002a 00       		.byte	0
 7047 002b 04       		.uleb128 0x4
 7048 002c 16       		.uleb128 0x16
 7049 002d 00       		.byte	0
 7050 002e 03       		.uleb128 0x3
 7051 002f 0E       		.uleb128 0xe
ARM GAS  /tmp/ccd61yKH.s 			page 125


 7052 0030 3A       		.uleb128 0x3a
 7053 0031 0B       		.uleb128 0xb
 7054 0032 3B       		.uleb128 0x3b
 7055 0033 0B       		.uleb128 0xb
 7056 0034 49       		.uleb128 0x49
 7057 0035 13       		.uleb128 0x13
 7058 0036 00       		.byte	0
 7059 0037 00       		.byte	0
 7060 0038 05       		.uleb128 0x5
 7061 0039 0F       		.uleb128 0xf
 7062 003a 00       		.byte	0
 7063 003b 0B       		.uleb128 0xb
 7064 003c 0B       		.uleb128 0xb
 7065 003d 49       		.uleb128 0x49
 7066 003e 13       		.uleb128 0x13
 7067 003f 00       		.byte	0
 7068 0040 00       		.byte	0
 7069 0041 06       		.uleb128 0x6
 7070 0042 35       		.uleb128 0x35
 7071 0043 00       		.byte	0
 7072 0044 49       		.uleb128 0x49
 7073 0045 13       		.uleb128 0x13
 7074 0046 00       		.byte	0
 7075 0047 00       		.byte	0
 7076 0048 07       		.uleb128 0x7
 7077 0049 04       		.uleb128 0x4
 7078 004a 01       		.byte	0x1
 7079 004b 03       		.uleb128 0x3
 7080 004c 0E       		.uleb128 0xe
 7081 004d 0B       		.uleb128 0xb
 7082 004e 0B       		.uleb128 0xb
 7083 004f 3A       		.uleb128 0x3a
 7084 0050 0B       		.uleb128 0xb
 7085 0051 3B       		.uleb128 0x3b
 7086 0052 0B       		.uleb128 0xb
 7087 0053 01       		.uleb128 0x1
 7088 0054 13       		.uleb128 0x13
 7089 0055 00       		.byte	0
 7090 0056 00       		.byte	0
 7091 0057 08       		.uleb128 0x8
 7092 0058 28       		.uleb128 0x28
 7093 0059 00       		.byte	0
 7094 005a 03       		.uleb128 0x3
 7095 005b 0E       		.uleb128 0xe
 7096 005c 1C       		.uleb128 0x1c
 7097 005d 0D       		.uleb128 0xd
 7098 005e 00       		.byte	0
 7099 005f 00       		.byte	0
 7100 0060 09       		.uleb128 0x9
 7101 0061 13       		.uleb128 0x13
 7102 0062 01       		.byte	0x1
 7103 0063 03       		.uleb128 0x3
 7104 0064 0E       		.uleb128 0xe
 7105 0065 0B       		.uleb128 0xb
 7106 0066 0B       		.uleb128 0xb
 7107 0067 3A       		.uleb128 0x3a
 7108 0068 0B       		.uleb128 0xb
ARM GAS  /tmp/ccd61yKH.s 			page 126


 7109 0069 3B       		.uleb128 0x3b
 7110 006a 0B       		.uleb128 0xb
 7111 006b 01       		.uleb128 0x1
 7112 006c 13       		.uleb128 0x13
 7113 006d 00       		.byte	0
 7114 006e 00       		.byte	0
 7115 006f 0A       		.uleb128 0xa
 7116 0070 0D       		.uleb128 0xd
 7117 0071 00       		.byte	0
 7118 0072 03       		.uleb128 0x3
 7119 0073 0E       		.uleb128 0xe
 7120 0074 3A       		.uleb128 0x3a
 7121 0075 0B       		.uleb128 0xb
 7122 0076 3B       		.uleb128 0x3b
 7123 0077 0B       		.uleb128 0xb
 7124 0078 49       		.uleb128 0x49
 7125 0079 13       		.uleb128 0x13
 7126 007a 38       		.uleb128 0x38
 7127 007b 0A       		.uleb128 0xa
 7128 007c 00       		.byte	0
 7129 007d 00       		.byte	0
 7130 007e 0B       		.uleb128 0xb
 7131 007f 0D       		.uleb128 0xd
 7132 0080 00       		.byte	0
 7133 0081 03       		.uleb128 0x3
 7134 0082 08       		.uleb128 0x8
 7135 0083 3A       		.uleb128 0x3a
 7136 0084 0B       		.uleb128 0xb
 7137 0085 3B       		.uleb128 0x3b
 7138 0086 0B       		.uleb128 0xb
 7139 0087 49       		.uleb128 0x49
 7140 0088 13       		.uleb128 0x13
 7141 0089 38       		.uleb128 0x38
 7142 008a 0A       		.uleb128 0xa
 7143 008b 00       		.byte	0
 7144 008c 00       		.byte	0
 7145 008d 0C       		.uleb128 0xc
 7146 008e 2E       		.uleb128 0x2e
 7147 008f 01       		.byte	0x1
 7148 0090 3F       		.uleb128 0x3f
 7149 0091 0C       		.uleb128 0xc
 7150 0092 03       		.uleb128 0x3
 7151 0093 0E       		.uleb128 0xe
 7152 0094 3A       		.uleb128 0x3a
 7153 0095 0B       		.uleb128 0xb
 7154 0096 3B       		.uleb128 0x3b
 7155 0097 0B       		.uleb128 0xb
 7156 0098 27       		.uleb128 0x27
 7157 0099 0C       		.uleb128 0xc
 7158 009a 20       		.uleb128 0x20
 7159 009b 0B       		.uleb128 0xb
 7160 009c 01       		.uleb128 0x1
 7161 009d 13       		.uleb128 0x13
 7162 009e 00       		.byte	0
 7163 009f 00       		.byte	0
 7164 00a0 0D       		.uleb128 0xd
 7165 00a1 05       		.uleb128 0x5
ARM GAS  /tmp/ccd61yKH.s 			page 127


 7166 00a2 00       		.byte	0
 7167 00a3 03       		.uleb128 0x3
 7168 00a4 08       		.uleb128 0x8
 7169 00a5 3A       		.uleb128 0x3a
 7170 00a6 0B       		.uleb128 0xb
 7171 00a7 3B       		.uleb128 0x3b
 7172 00a8 0B       		.uleb128 0xb
 7173 00a9 49       		.uleb128 0x49
 7174 00aa 13       		.uleb128 0x13
 7175 00ab 00       		.byte	0
 7176 00ac 00       		.byte	0
 7177 00ad 0E       		.uleb128 0xe
 7178 00ae 2E       		.uleb128 0x2e
 7179 00af 01       		.byte	0x1
 7180 00b0 3F       		.uleb128 0x3f
 7181 00b1 0C       		.uleb128 0xc
 7182 00b2 03       		.uleb128 0x3
 7183 00b3 0E       		.uleb128 0xe
 7184 00b4 3A       		.uleb128 0x3a
 7185 00b5 0B       		.uleb128 0xb
 7186 00b6 3B       		.uleb128 0x3b
 7187 00b7 0B       		.uleb128 0xb
 7188 00b8 27       		.uleb128 0x27
 7189 00b9 0C       		.uleb128 0xc
 7190 00ba 11       		.uleb128 0x11
 7191 00bb 01       		.uleb128 0x1
 7192 00bc 12       		.uleb128 0x12
 7193 00bd 01       		.uleb128 0x1
 7194 00be 40       		.uleb128 0x40
 7195 00bf 06       		.uleb128 0x6
 7196 00c0 9742     		.uleb128 0x2117
 7197 00c2 0C       		.uleb128 0xc
 7198 00c3 01       		.uleb128 0x1
 7199 00c4 13       		.uleb128 0x13
 7200 00c5 00       		.byte	0
 7201 00c6 00       		.byte	0
 7202 00c7 0F       		.uleb128 0xf
 7203 00c8 34       		.uleb128 0x34
 7204 00c9 00       		.byte	0
 7205 00ca 03       		.uleb128 0x3
 7206 00cb 08       		.uleb128 0x8
 7207 00cc 3A       		.uleb128 0x3a
 7208 00cd 0B       		.uleb128 0xb
 7209 00ce 3B       		.uleb128 0x3b
 7210 00cf 0B       		.uleb128 0xb
 7211 00d0 49       		.uleb128 0x49
 7212 00d1 13       		.uleb128 0x13
 7213 00d2 02       		.uleb128 0x2
 7214 00d3 06       		.uleb128 0x6
 7215 00d4 00       		.byte	0
 7216 00d5 00       		.byte	0
 7217 00d6 10       		.uleb128 0x10
 7218 00d7 898201   		.uleb128 0x4109
 7219 00da 01       		.byte	0x1
 7220 00db 11       		.uleb128 0x11
 7221 00dc 01       		.uleb128 0x1
 7222 00dd 31       		.uleb128 0x31
ARM GAS  /tmp/ccd61yKH.s 			page 128


 7223 00de 13       		.uleb128 0x13
 7224 00df 01       		.uleb128 0x1
 7225 00e0 13       		.uleb128 0x13
 7226 00e1 00       		.byte	0
 7227 00e2 00       		.byte	0
 7228 00e3 11       		.uleb128 0x11
 7229 00e4 8A8201   		.uleb128 0x410a
 7230 00e7 00       		.byte	0
 7231 00e8 02       		.uleb128 0x2
 7232 00e9 0A       		.uleb128 0xa
 7233 00ea 9142     		.uleb128 0x2111
 7234 00ec 0A       		.uleb128 0xa
 7235 00ed 00       		.byte	0
 7236 00ee 00       		.byte	0
 7237 00ef 12       		.uleb128 0x12
 7238 00f0 898201   		.uleb128 0x4109
 7239 00f3 01       		.byte	0x1
 7240 00f4 11       		.uleb128 0x11
 7241 00f5 01       		.uleb128 0x1
 7242 00f6 31       		.uleb128 0x31
 7243 00f7 13       		.uleb128 0x13
 7244 00f8 00       		.byte	0
 7245 00f9 00       		.byte	0
 7246 00fa 13       		.uleb128 0x13
 7247 00fb 1D       		.uleb128 0x1d
 7248 00fc 01       		.byte	0x1
 7249 00fd 31       		.uleb128 0x31
 7250 00fe 13       		.uleb128 0x13
 7251 00ff 52       		.uleb128 0x52
 7252 0100 01       		.uleb128 0x1
 7253 0101 55       		.uleb128 0x55
 7254 0102 06       		.uleb128 0x6
 7255 0103 58       		.uleb128 0x58
 7256 0104 0B       		.uleb128 0xb
 7257 0105 59       		.uleb128 0x59
 7258 0106 0B       		.uleb128 0xb
 7259 0107 01       		.uleb128 0x1
 7260 0108 13       		.uleb128 0x13
 7261 0109 00       		.byte	0
 7262 010a 00       		.byte	0
 7263 010b 14       		.uleb128 0x14
 7264 010c 05       		.uleb128 0x5
 7265 010d 00       		.byte	0
 7266 010e 31       		.uleb128 0x31
 7267 010f 13       		.uleb128 0x13
 7268 0110 02       		.uleb128 0x2
 7269 0111 06       		.uleb128 0x6
 7270 0112 00       		.byte	0
 7271 0113 00       		.byte	0
 7272 0114 15       		.uleb128 0x15
 7273 0115 898201   		.uleb128 0x4109
 7274 0118 01       		.byte	0x1
 7275 0119 11       		.uleb128 0x11
 7276 011a 01       		.uleb128 0x1
 7277 011b 9542     		.uleb128 0x2115
 7278 011d 0C       		.uleb128 0xc
 7279 011e 31       		.uleb128 0x31
ARM GAS  /tmp/ccd61yKH.s 			page 129


 7280 011f 13       		.uleb128 0x13
 7281 0120 00       		.byte	0
 7282 0121 00       		.byte	0
 7283 0122 16       		.uleb128 0x16
 7284 0123 34       		.uleb128 0x34
 7285 0124 00       		.byte	0
 7286 0125 03       		.uleb128 0x3
 7287 0126 0E       		.uleb128 0xe
 7288 0127 3A       		.uleb128 0x3a
 7289 0128 0B       		.uleb128 0xb
 7290 0129 3B       		.uleb128 0x3b
 7291 012a 0B       		.uleb128 0xb
 7292 012b 49       		.uleb128 0x49
 7293 012c 13       		.uleb128 0x13
 7294 012d 02       		.uleb128 0x2
 7295 012e 06       		.uleb128 0x6
 7296 012f 00       		.byte	0
 7297 0130 00       		.byte	0
 7298 0131 17       		.uleb128 0x17
 7299 0132 05       		.uleb128 0x5
 7300 0133 00       		.byte	0
 7301 0134 03       		.uleb128 0x3
 7302 0135 0E       		.uleb128 0xe
 7303 0136 3A       		.uleb128 0x3a
 7304 0137 0B       		.uleb128 0xb
 7305 0138 3B       		.uleb128 0x3b
 7306 0139 0B       		.uleb128 0xb
 7307 013a 49       		.uleb128 0x49
 7308 013b 13       		.uleb128 0x13
 7309 013c 02       		.uleb128 0x2
 7310 013d 06       		.uleb128 0x6
 7311 013e 00       		.byte	0
 7312 013f 00       		.byte	0
 7313 0140 18       		.uleb128 0x18
 7314 0141 1D       		.uleb128 0x1d
 7315 0142 01       		.byte	0x1
 7316 0143 31       		.uleb128 0x31
 7317 0144 13       		.uleb128 0x13
 7318 0145 52       		.uleb128 0x52
 7319 0146 01       		.uleb128 0x1
 7320 0147 55       		.uleb128 0x55
 7321 0148 06       		.uleb128 0x6
 7322 0149 58       		.uleb128 0x58
 7323 014a 0B       		.uleb128 0xb
 7324 014b 59       		.uleb128 0x59
 7325 014c 05       		.uleb128 0x5
 7326 014d 01       		.uleb128 0x1
 7327 014e 13       		.uleb128 0x13
 7328 014f 00       		.byte	0
 7329 0150 00       		.byte	0
 7330 0151 19       		.uleb128 0x19
 7331 0152 898201   		.uleb128 0x4109
 7332 0155 00       		.byte	0
 7333 0156 11       		.uleb128 0x11
 7334 0157 01       		.uleb128 0x1
 7335 0158 31       		.uleb128 0x31
 7336 0159 13       		.uleb128 0x13
ARM GAS  /tmp/ccd61yKH.s 			page 130


 7337 015a 00       		.byte	0
 7338 015b 00       		.byte	0
 7339 015c 1A       		.uleb128 0x1a
 7340 015d 898201   		.uleb128 0x4109
 7341 0160 01       		.byte	0x1
 7342 0161 11       		.uleb128 0x11
 7343 0162 01       		.uleb128 0x1
 7344 0163 9542     		.uleb128 0x2115
 7345 0165 0C       		.uleb128 0xc
 7346 0166 31       		.uleb128 0x31
 7347 0167 13       		.uleb128 0x13
 7348 0168 01       		.uleb128 0x1
 7349 0169 13       		.uleb128 0x13
 7350 016a 00       		.byte	0
 7351 016b 00       		.byte	0
 7352 016c 1B       		.uleb128 0x1b
 7353 016d 2E       		.uleb128 0x2e
 7354 016e 01       		.byte	0x1
 7355 016f 3F       		.uleb128 0x3f
 7356 0170 0C       		.uleb128 0xc
 7357 0171 03       		.uleb128 0x3
 7358 0172 0E       		.uleb128 0xe
 7359 0173 3A       		.uleb128 0x3a
 7360 0174 0B       		.uleb128 0xb
 7361 0175 3B       		.uleb128 0x3b
 7362 0176 05       		.uleb128 0x5
 7363 0177 27       		.uleb128 0x27
 7364 0178 0C       		.uleb128 0xc
 7365 0179 11       		.uleb128 0x11
 7366 017a 01       		.uleb128 0x1
 7367 017b 12       		.uleb128 0x12
 7368 017c 01       		.uleb128 0x1
 7369 017d 40       		.uleb128 0x40
 7370 017e 0A       		.uleb128 0xa
 7371 017f 9742     		.uleb128 0x2117
 7372 0181 0C       		.uleb128 0xc
 7373 0182 01       		.uleb128 0x1
 7374 0183 13       		.uleb128 0x13
 7375 0184 00       		.byte	0
 7376 0185 00       		.byte	0
 7377 0186 1C       		.uleb128 0x1c
 7378 0187 05       		.uleb128 0x5
 7379 0188 00       		.byte	0
 7380 0189 03       		.uleb128 0x3
 7381 018a 0E       		.uleb128 0xe
 7382 018b 3A       		.uleb128 0x3a
 7383 018c 0B       		.uleb128 0xb
 7384 018d 3B       		.uleb128 0x3b
 7385 018e 05       		.uleb128 0x5
 7386 018f 49       		.uleb128 0x49
 7387 0190 13       		.uleb128 0x13
 7388 0191 02       		.uleb128 0x2
 7389 0192 06       		.uleb128 0x6
 7390 0193 00       		.byte	0
 7391 0194 00       		.byte	0
 7392 0195 1D       		.uleb128 0x1d
 7393 0196 34       		.uleb128 0x34
ARM GAS  /tmp/ccd61yKH.s 			page 131


 7394 0197 00       		.byte	0
 7395 0198 03       		.uleb128 0x3
 7396 0199 0E       		.uleb128 0xe
 7397 019a 3A       		.uleb128 0x3a
 7398 019b 0B       		.uleb128 0xb
 7399 019c 3B       		.uleb128 0x3b
 7400 019d 05       		.uleb128 0x5
 7401 019e 49       		.uleb128 0x49
 7402 019f 13       		.uleb128 0x13
 7403 01a0 3F       		.uleb128 0x3f
 7404 01a1 0C       		.uleb128 0xc
 7405 01a2 3C       		.uleb128 0x3c
 7406 01a3 0C       		.uleb128 0xc
 7407 01a4 00       		.byte	0
 7408 01a5 00       		.byte	0
 7409 01a6 1E       		.uleb128 0x1e
 7410 01a7 34       		.uleb128 0x34
 7411 01a8 00       		.byte	0
 7412 01a9 03       		.uleb128 0x3
 7413 01aa 0E       		.uleb128 0xe
 7414 01ab 3A       		.uleb128 0x3a
 7415 01ac 0B       		.uleb128 0xb
 7416 01ad 3B       		.uleb128 0x3b
 7417 01ae 0B       		.uleb128 0xb
 7418 01af 49       		.uleb128 0x49
 7419 01b0 13       		.uleb128 0x13
 7420 01b1 3F       		.uleb128 0x3f
 7421 01b2 0C       		.uleb128 0xc
 7422 01b3 3C       		.uleb128 0x3c
 7423 01b4 0C       		.uleb128 0xc
 7424 01b5 00       		.byte	0
 7425 01b6 00       		.byte	0
 7426 01b7 1F       		.uleb128 0x1f
 7427 01b8 34       		.uleb128 0x34
 7428 01b9 00       		.byte	0
 7429 01ba 03       		.uleb128 0x3
 7430 01bb 08       		.uleb128 0x8
 7431 01bc 3A       		.uleb128 0x3a
 7432 01bd 0B       		.uleb128 0xb
 7433 01be 3B       		.uleb128 0x3b
 7434 01bf 0B       		.uleb128 0xb
 7435 01c0 49       		.uleb128 0x49
 7436 01c1 13       		.uleb128 0x13
 7437 01c2 3F       		.uleb128 0x3f
 7438 01c3 0C       		.uleb128 0xc
 7439 01c4 02       		.uleb128 0x2
 7440 01c5 0A       		.uleb128 0xa
 7441 01c6 00       		.byte	0
 7442 01c7 00       		.byte	0
 7443 01c8 20       		.uleb128 0x20
 7444 01c9 01       		.uleb128 0x1
 7445 01ca 01       		.byte	0x1
 7446 01cb 49       		.uleb128 0x49
 7447 01cc 13       		.uleb128 0x13
 7448 01cd 01       		.uleb128 0x1
 7449 01ce 13       		.uleb128 0x13
 7450 01cf 00       		.byte	0
ARM GAS  /tmp/ccd61yKH.s 			page 132


 7451 01d0 00       		.byte	0
 7452 01d1 21       		.uleb128 0x21
 7453 01d2 21       		.uleb128 0x21
 7454 01d3 00       		.byte	0
 7455 01d4 49       		.uleb128 0x49
 7456 01d5 13       		.uleb128 0x13
 7457 01d6 2F       		.uleb128 0x2f
 7458 01d7 0B       		.uleb128 0xb
 7459 01d8 00       		.byte	0
 7460 01d9 00       		.byte	0
 7461 01da 22       		.uleb128 0x22
 7462 01db 34       		.uleb128 0x34
 7463 01dc 00       		.byte	0
 7464 01dd 03       		.uleb128 0x3
 7465 01de 0E       		.uleb128 0xe
 7466 01df 3A       		.uleb128 0x3a
 7467 01e0 0B       		.uleb128 0xb
 7468 01e1 3B       		.uleb128 0x3b
 7469 01e2 0B       		.uleb128 0xb
 7470 01e3 49       		.uleb128 0x49
 7471 01e4 13       		.uleb128 0x13
 7472 01e5 3F       		.uleb128 0x3f
 7473 01e6 0C       		.uleb128 0xc
 7474 01e7 02       		.uleb128 0x2
 7475 01e8 0A       		.uleb128 0xa
 7476 01e9 00       		.byte	0
 7477 01ea 00       		.byte	0
 7478 01eb 23       		.uleb128 0x23
 7479 01ec 2E       		.uleb128 0x2e
 7480 01ed 01       		.byte	0x1
 7481 01ee 3F       		.uleb128 0x3f
 7482 01ef 0C       		.uleb128 0xc
 7483 01f0 03       		.uleb128 0x3
 7484 01f1 0E       		.uleb128 0xe
 7485 01f2 3A       		.uleb128 0x3a
 7486 01f3 0B       		.uleb128 0xb
 7487 01f4 3B       		.uleb128 0x3b
 7488 01f5 05       		.uleb128 0x5
 7489 01f6 27       		.uleb128 0x27
 7490 01f7 0C       		.uleb128 0xc
 7491 01f8 3C       		.uleb128 0x3c
 7492 01f9 0C       		.uleb128 0xc
 7493 01fa 01       		.uleb128 0x1
 7494 01fb 13       		.uleb128 0x13
 7495 01fc 00       		.byte	0
 7496 01fd 00       		.byte	0
 7497 01fe 24       		.uleb128 0x24
 7498 01ff 05       		.uleb128 0x5
 7499 0200 00       		.byte	0
 7500 0201 49       		.uleb128 0x49
 7501 0202 13       		.uleb128 0x13
 7502 0203 00       		.byte	0
 7503 0204 00       		.byte	0
 7504 0205 25       		.uleb128 0x25
 7505 0206 2E       		.uleb128 0x2e
 7506 0207 01       		.byte	0x1
 7507 0208 3F       		.uleb128 0x3f
ARM GAS  /tmp/ccd61yKH.s 			page 133


 7508 0209 0C       		.uleb128 0xc
 7509 020a 03       		.uleb128 0x3
 7510 020b 0E       		.uleb128 0xe
 7511 020c 3A       		.uleb128 0x3a
 7512 020d 0B       		.uleb128 0xb
 7513 020e 3B       		.uleb128 0x3b
 7514 020f 0B       		.uleb128 0xb
 7515 0210 27       		.uleb128 0x27
 7516 0211 0C       		.uleb128 0xc
 7517 0212 49       		.uleb128 0x49
 7518 0213 13       		.uleb128 0x13
 7519 0214 3C       		.uleb128 0x3c
 7520 0215 0C       		.uleb128 0xc
 7521 0216 01       		.uleb128 0x1
 7522 0217 13       		.uleb128 0x13
 7523 0218 00       		.byte	0
 7524 0219 00       		.byte	0
 7525 021a 26       		.uleb128 0x26
 7526 021b 2E       		.uleb128 0x2e
 7527 021c 01       		.byte	0x1
 7528 021d 3F       		.uleb128 0x3f
 7529 021e 0C       		.uleb128 0xc
 7530 021f 03       		.uleb128 0x3
 7531 0220 0E       		.uleb128 0xe
 7532 0221 3A       		.uleb128 0x3a
 7533 0222 0B       		.uleb128 0xb
 7534 0223 3B       		.uleb128 0x3b
 7535 0224 0B       		.uleb128 0xb
 7536 0225 27       		.uleb128 0x27
 7537 0226 0C       		.uleb128 0xc
 7538 0227 3C       		.uleb128 0x3c
 7539 0228 0C       		.uleb128 0xc
 7540 0229 00       		.byte	0
 7541 022a 00       		.byte	0
 7542 022b 00       		.byte	0
 7543              		.section	.debug_loc,"",%progbits
 7544              	.Ldebug_loc0:
 7545              	.LLST0:
 7546 0000 00000000 		.4byte	.LFB122
 7547 0004 02000000 		.4byte	.LCFI0
 7548 0008 0200     		.2byte	0x2
 7549 000a 7D       		.byte	0x7d
 7550 000b 00       		.sleb128 0
 7551 000c 02000000 		.4byte	.LCFI0
 7552 0010 06000000 		.4byte	.LCFI1
 7553 0014 0200     		.2byte	0x2
 7554 0016 7D       		.byte	0x7d
 7555 0017 14       		.sleb128 20
 7556 0018 06000000 		.4byte	.LCFI1
 7557 001c 6C020000 		.4byte	.LFE122
 7558 0020 0200     		.2byte	0x2
 7559 0022 7D       		.byte	0x7d
 7560 0023 20       		.sleb128 32
 7561 0024 00000000 		.4byte	0
 7562 0028 00000000 		.4byte	0
 7563              	.LLST1:
 7564 002c 00000000 		.4byte	.LVL0
ARM GAS  /tmp/ccd61yKH.s 			page 134


 7565 0030 12000000 		.4byte	.LVL1
 7566 0034 0200     		.2byte	0x2
 7567 0036 30       		.byte	0x30
 7568 0037 9F       		.byte	0x9f
 7569 0038 00000000 		.4byte	0
 7570 003c 00000000 		.4byte	0
 7571              	.LLST2:
 7572 0040 12000000 		.4byte	.LVL1
 7573 0044 24000000 		.4byte	.LVL2
 7574 0048 0200     		.2byte	0x2
 7575 004a 30       		.byte	0x30
 7576 004b 9F       		.byte	0x9f
 7577 004c 24000000 		.4byte	.LVL2
 7578 0050 3A000000 		.4byte	.LVL3
 7579 0054 0200     		.2byte	0x2
 7580 0056 31       		.byte	0x31
 7581 0057 9F       		.byte	0x9f
 7582 0058 3A000000 		.4byte	.LVL3
 7583 005c 4E000000 		.4byte	.LVL4
 7584 0060 0200     		.2byte	0x2
 7585 0062 32       		.byte	0x32
 7586 0063 9F       		.byte	0x9f
 7587 0064 4E000000 		.4byte	.LVL4
 7588 0068 5A000000 		.4byte	.LVL5
 7589 006c 0200     		.2byte	0x2
 7590 006e 33       		.byte	0x33
 7591 006f 9F       		.byte	0x9f
 7592 0070 5A000000 		.4byte	.LVL5
 7593 0074 D6000000 		.4byte	.LVL11
 7594 0078 0200     		.2byte	0x2
 7595 007a 30       		.byte	0x30
 7596 007b 9F       		.byte	0x9f
 7597 007c D6000000 		.4byte	.LVL11
 7598 0080 52010000 		.4byte	.LVL17
 7599 0084 0200     		.2byte	0x2
 7600 0086 32       		.byte	0x32
 7601 0087 9F       		.byte	0x9f
 7602 0088 52010000 		.4byte	.LVL17
 7603 008c CC010000 		.4byte	.LVL23
 7604 0090 0200     		.2byte	0x2
 7605 0092 31       		.byte	0x31
 7606 0093 9F       		.byte	0x9f
 7607 0094 CC010000 		.4byte	.LVL23
 7608 0098 00020000 		.4byte	.LVL26
 7609 009c 0200     		.2byte	0x2
 7610 009e 30       		.byte	0x30
 7611 009f 9F       		.byte	0x9f
 7612 00a0 00020000 		.4byte	.LVL26
 7613 00a4 34020000 		.4byte	.LVL29
 7614 00a8 0200     		.2byte	0x2
 7615 00aa 31       		.byte	0x31
 7616 00ab 9F       		.byte	0x9f
 7617 00ac 34020000 		.4byte	.LVL29
 7618 00b0 6C020000 		.4byte	.LFE122
 7619 00b4 0200     		.2byte	0x2
 7620 00b6 32       		.byte	0x32
 7621 00b7 9F       		.byte	0x9f
ARM GAS  /tmp/ccd61yKH.s 			page 135


 7622 00b8 00000000 		.4byte	0
 7623 00bc 00000000 		.4byte	0
 7624              	.LLST3:
 7625 00c0 00000000 		.4byte	.LFB123
 7626 00c4 02000000 		.4byte	.LCFI2
 7627 00c8 0200     		.2byte	0x2
 7628 00ca 7D       		.byte	0x7d
 7629 00cb 00       		.sleb128 0
 7630 00cc 02000000 		.4byte	.LCFI2
 7631 00d0 D8010000 		.4byte	.LFE123
 7632 00d4 0200     		.2byte	0x2
 7633 00d6 7D       		.byte	0x7d
 7634 00d7 10       		.sleb128 16
 7635 00d8 00000000 		.4byte	0
 7636 00dc 00000000 		.4byte	0
 7637              	.LLST4:
 7638 00e0 12000000 		.4byte	.LVL32
 7639 00e4 A8000000 		.4byte	.LVL41
 7640 00e8 0200     		.2byte	0x2
 7641 00ea 30       		.byte	0x30
 7642 00eb 9F       		.byte	0x9f
 7643 00ec A8000000 		.4byte	.LVL41
 7644 00f0 3E010000 		.4byte	.LVL50
 7645 00f4 0200     		.2byte	0x2
 7646 00f6 31       		.byte	0x31
 7647 00f7 9F       		.byte	0x9f
 7648 00f8 3E010000 		.4byte	.LVL50
 7649 00fc D8010000 		.4byte	.LFE123
 7650 0100 0200     		.2byte	0x2
 7651 0102 32       		.byte	0x32
 7652 0103 9F       		.byte	0x9f
 7653 0104 00000000 		.4byte	0
 7654 0108 00000000 		.4byte	0
 7655              	.LLST5:
 7656 010c 12000000 		.4byte	.LVL32
 7657 0110 44000000 		.4byte	.LVL35
 7658 0114 0200     		.2byte	0x2
 7659 0116 30       		.byte	0x30
 7660 0117 9F       		.byte	0x9f
 7661 0118 44000000 		.4byte	.LVL35
 7662 011c 76000000 		.4byte	.LVL38
 7663 0120 0200     		.2byte	0x2
 7664 0122 31       		.byte	0x31
 7665 0123 9F       		.byte	0x9f
 7666 0124 76000000 		.4byte	.LVL38
 7667 0128 A8000000 		.4byte	.LVL41
 7668 012c 0200     		.2byte	0x2
 7669 012e 32       		.byte	0x32
 7670 012f 9F       		.byte	0x9f
 7671 0130 A8000000 		.4byte	.LVL41
 7672 0134 DA000000 		.4byte	.LVL44
 7673 0138 0200     		.2byte	0x2
 7674 013a 30       		.byte	0x30
 7675 013b 9F       		.byte	0x9f
 7676 013c DA000000 		.4byte	.LVL44
 7677 0140 0C010000 		.4byte	.LVL47
 7678 0144 0200     		.2byte	0x2
ARM GAS  /tmp/ccd61yKH.s 			page 136


 7679 0146 31       		.byte	0x31
 7680 0147 9F       		.byte	0x9f
 7681 0148 0C010000 		.4byte	.LVL47
 7682 014c 3E010000 		.4byte	.LVL50
 7683 0150 0200     		.2byte	0x2
 7684 0152 32       		.byte	0x32
 7685 0153 9F       		.byte	0x9f
 7686 0154 3E010000 		.4byte	.LVL50
 7687 0158 70010000 		.4byte	.LVL53
 7688 015c 0200     		.2byte	0x2
 7689 015e 30       		.byte	0x30
 7690 015f 9F       		.byte	0x9f
 7691 0160 70010000 		.4byte	.LVL53
 7692 0164 A2010000 		.4byte	.LVL56
 7693 0168 0200     		.2byte	0x2
 7694 016a 31       		.byte	0x31
 7695 016b 9F       		.byte	0x9f
 7696 016c A2010000 		.4byte	.LVL56
 7697 0170 D8010000 		.4byte	.LFE123
 7698 0174 0200     		.2byte	0x2
 7699 0176 32       		.byte	0x32
 7700 0177 9F       		.byte	0x9f
 7701 0178 00000000 		.4byte	0
 7702 017c 00000000 		.4byte	0
 7703              	.LLST6:
 7704 0180 12000000 		.4byte	.LVL32
 7705 0184 27000000 		.4byte	.LVL33-1
 7706 0188 0500     		.2byte	0x5
 7707 018a 03       		.byte	0x3
 7708 018b 02000000 		.4byte	unlocker_rings+2
 7709 018f 27000000 		.4byte	.LVL33-1
 7710 0193 44000000 		.4byte	.LVL35
 7711 0197 0100     		.2byte	0x1
 7712 0199 55       		.byte	0x55
 7713 019a 44000000 		.4byte	.LVL35
 7714 019e 59000000 		.4byte	.LVL36-1
 7715 01a2 0500     		.2byte	0x5
 7716 01a4 03       		.byte	0x3
 7717 01a5 0C000000 		.4byte	unlocker_rings+12
 7718 01a9 59000000 		.4byte	.LVL36-1
 7719 01ad 76000000 		.4byte	.LVL38
 7720 01b1 0100     		.2byte	0x1
 7721 01b3 55       		.byte	0x55
 7722 01b4 76000000 		.4byte	.LVL38
 7723 01b8 8B000000 		.4byte	.LVL39-1
 7724 01bc 0500     		.2byte	0x5
 7725 01be 03       		.byte	0x3
 7726 01bf 16000000 		.4byte	unlocker_rings+22
 7727 01c3 8B000000 		.4byte	.LVL39-1
 7728 01c7 A8000000 		.4byte	.LVL41
 7729 01cb 0100     		.2byte	0x1
 7730 01cd 55       		.byte	0x55
 7731 01ce A8000000 		.4byte	.LVL41
 7732 01d2 BD000000 		.4byte	.LVL42-1
 7733 01d6 0500     		.2byte	0x5
 7734 01d8 03       		.byte	0x3
 7735 01d9 20000000 		.4byte	unlocker_rings+32
ARM GAS  /tmp/ccd61yKH.s 			page 137


 7736 01dd BD000000 		.4byte	.LVL42-1
 7737 01e1 DA000000 		.4byte	.LVL44
 7738 01e5 0100     		.2byte	0x1
 7739 01e7 55       		.byte	0x55
 7740 01e8 DA000000 		.4byte	.LVL44
 7741 01ec EF000000 		.4byte	.LVL45-1
 7742 01f0 0500     		.2byte	0x5
 7743 01f2 03       		.byte	0x3
 7744 01f3 2A000000 		.4byte	unlocker_rings+42
 7745 01f7 EF000000 		.4byte	.LVL45-1
 7746 01fb 0C010000 		.4byte	.LVL47
 7747 01ff 0100     		.2byte	0x1
 7748 0201 55       		.byte	0x55
 7749 0202 0C010000 		.4byte	.LVL47
 7750 0206 21010000 		.4byte	.LVL48-1
 7751 020a 0500     		.2byte	0x5
 7752 020c 03       		.byte	0x3
 7753 020d 34000000 		.4byte	unlocker_rings+52
 7754 0211 21010000 		.4byte	.LVL48-1
 7755 0215 3E010000 		.4byte	.LVL50
 7756 0219 0100     		.2byte	0x1
 7757 021b 55       		.byte	0x55
 7758 021c 3E010000 		.4byte	.LVL50
 7759 0220 53010000 		.4byte	.LVL51-1
 7760 0224 0500     		.2byte	0x5
 7761 0226 03       		.byte	0x3
 7762 0227 3E000000 		.4byte	unlocker_rings+62
 7763 022b 53010000 		.4byte	.LVL51-1
 7764 022f 70010000 		.4byte	.LVL53
 7765 0233 0100     		.2byte	0x1
 7766 0235 55       		.byte	0x55
 7767 0236 70010000 		.4byte	.LVL53
 7768 023a 85010000 		.4byte	.LVL54-1
 7769 023e 0500     		.2byte	0x5
 7770 0240 03       		.byte	0x3
 7771 0241 48000000 		.4byte	unlocker_rings+72
 7772 0245 85010000 		.4byte	.LVL54-1
 7773 0249 A2010000 		.4byte	.LVL56
 7774 024d 0100     		.2byte	0x1
 7775 024f 55       		.byte	0x55
 7776 0250 A2010000 		.4byte	.LVL56
 7777 0254 B7010000 		.4byte	.LVL57-1
 7778 0258 0500     		.2byte	0x5
 7779 025a 03       		.byte	0x3
 7780 025b 52000000 		.4byte	unlocker_rings+82
 7781 025f B7010000 		.4byte	.LVL57-1
 7782 0263 D8010000 		.4byte	.LFE123
 7783 0267 0100     		.2byte	0x1
 7784 0269 54       		.byte	0x54
 7785 026a 00000000 		.4byte	0
 7786 026e 00000000 		.4byte	0
 7787              	.LLST7:
 7788 0272 12000000 		.4byte	.LVL32
 7789 0276 27000000 		.4byte	.LVL33-1
 7790 027a 0500     		.2byte	0x5
 7791 027c 03       		.byte	0x3
 7792 027d 00000000 		.4byte	unlocker_rings
ARM GAS  /tmp/ccd61yKH.s 			page 138


 7793 0281 27000000 		.4byte	.LVL33-1
 7794 0285 44000000 		.4byte	.LVL35
 7795 0289 0100     		.2byte	0x1
 7796 028b 56       		.byte	0x56
 7797 028c 44000000 		.4byte	.LVL35
 7798 0290 59000000 		.4byte	.LVL36-1
 7799 0294 0500     		.2byte	0x5
 7800 0296 03       		.byte	0x3
 7801 0297 0A000000 		.4byte	unlocker_rings+10
 7802 029b 59000000 		.4byte	.LVL36-1
 7803 029f 76000000 		.4byte	.LVL38
 7804 02a3 0100     		.2byte	0x1
 7805 02a5 56       		.byte	0x56
 7806 02a6 76000000 		.4byte	.LVL38
 7807 02aa 8B000000 		.4byte	.LVL39-1
 7808 02ae 0500     		.2byte	0x5
 7809 02b0 03       		.byte	0x3
 7810 02b1 14000000 		.4byte	unlocker_rings+20
 7811 02b5 8B000000 		.4byte	.LVL39-1
 7812 02b9 A8000000 		.4byte	.LVL41
 7813 02bd 0100     		.2byte	0x1
 7814 02bf 56       		.byte	0x56
 7815 02c0 A8000000 		.4byte	.LVL41
 7816 02c4 BD000000 		.4byte	.LVL42-1
 7817 02c8 0500     		.2byte	0x5
 7818 02ca 03       		.byte	0x3
 7819 02cb 1E000000 		.4byte	unlocker_rings+30
 7820 02cf BD000000 		.4byte	.LVL42-1
 7821 02d3 DA000000 		.4byte	.LVL44
 7822 02d7 0100     		.2byte	0x1
 7823 02d9 56       		.byte	0x56
 7824 02da DA000000 		.4byte	.LVL44
 7825 02de EF000000 		.4byte	.LVL45-1
 7826 02e2 0500     		.2byte	0x5
 7827 02e4 03       		.byte	0x3
 7828 02e5 28000000 		.4byte	unlocker_rings+40
 7829 02e9 EF000000 		.4byte	.LVL45-1
 7830 02ed 0C010000 		.4byte	.LVL47
 7831 02f1 0100     		.2byte	0x1
 7832 02f3 56       		.byte	0x56
 7833 02f4 0C010000 		.4byte	.LVL47
 7834 02f8 21010000 		.4byte	.LVL48-1
 7835 02fc 0500     		.2byte	0x5
 7836 02fe 03       		.byte	0x3
 7837 02ff 32000000 		.4byte	unlocker_rings+50
 7838 0303 21010000 		.4byte	.LVL48-1
 7839 0307 3E010000 		.4byte	.LVL50
 7840 030b 0100     		.2byte	0x1
 7841 030d 56       		.byte	0x56
 7842 030e 3E010000 		.4byte	.LVL50
 7843 0312 53010000 		.4byte	.LVL51-1
 7844 0316 0500     		.2byte	0x5
 7845 0318 03       		.byte	0x3
 7846 0319 3C000000 		.4byte	unlocker_rings+60
 7847 031d 53010000 		.4byte	.LVL51-1
 7848 0321 70010000 		.4byte	.LVL53
 7849 0325 0100     		.2byte	0x1
ARM GAS  /tmp/ccd61yKH.s 			page 139


 7850 0327 56       		.byte	0x56
 7851 0328 70010000 		.4byte	.LVL53
 7852 032c 85010000 		.4byte	.LVL54-1
 7853 0330 0500     		.2byte	0x5
 7854 0332 03       		.byte	0x3
 7855 0333 46000000 		.4byte	unlocker_rings+70
 7856 0337 85010000 		.4byte	.LVL54-1
 7857 033b A2010000 		.4byte	.LVL56
 7858 033f 0100     		.2byte	0x1
 7859 0341 56       		.byte	0x56
 7860 0342 A2010000 		.4byte	.LVL56
 7861 0346 B7010000 		.4byte	.LVL57-1
 7862 034a 0500     		.2byte	0x5
 7863 034c 03       		.byte	0x3
 7864 034d 50000000 		.4byte	unlocker_rings+80
 7865 0351 B7010000 		.4byte	.LVL57-1
 7866 0355 D8010000 		.4byte	.LFE123
 7867 0359 0100     		.2byte	0x1
 7868 035b 55       		.byte	0x55
 7869 035c 00000000 		.4byte	0
 7870 0360 00000000 		.4byte	0
 7871              	.LLST8:
 7872 0364 00000000 		.4byte	.LFB124
 7873 0368 02000000 		.4byte	.LCFI3
 7874 036c 0200     		.2byte	0x2
 7875 036e 7D       		.byte	0x7d
 7876 036f 00       		.sleb128 0
 7877 0370 02000000 		.4byte	.LCFI3
 7878 0374 D8010000 		.4byte	.LFE124
 7879 0378 0200     		.2byte	0x2
 7880 037a 7D       		.byte	0x7d
 7881 037b 10       		.sleb128 16
 7882 037c 00000000 		.4byte	0
 7883 0380 00000000 		.4byte	0
 7884              	.LLST9:
 7885 0384 12000000 		.4byte	.LVL60
 7886 0388 A8000000 		.4byte	.LVL69
 7887 038c 0200     		.2byte	0x2
 7888 038e 30       		.byte	0x30
 7889 038f 9F       		.byte	0x9f
 7890 0390 A8000000 		.4byte	.LVL69
 7891 0394 3E010000 		.4byte	.LVL78
 7892 0398 0200     		.2byte	0x2
 7893 039a 31       		.byte	0x31
 7894 039b 9F       		.byte	0x9f
 7895 039c 3E010000 		.4byte	.LVL78
 7896 03a0 D8010000 		.4byte	.LFE124
 7897 03a4 0200     		.2byte	0x2
 7898 03a6 32       		.byte	0x32
 7899 03a7 9F       		.byte	0x9f
 7900 03a8 00000000 		.4byte	0
 7901 03ac 00000000 		.4byte	0
 7902              	.LLST10:
 7903 03b0 12000000 		.4byte	.LVL60
 7904 03b4 44000000 		.4byte	.LVL63
 7905 03b8 0200     		.2byte	0x2
 7906 03ba 30       		.byte	0x30
ARM GAS  /tmp/ccd61yKH.s 			page 140


 7907 03bb 9F       		.byte	0x9f
 7908 03bc 44000000 		.4byte	.LVL63
 7909 03c0 76000000 		.4byte	.LVL66
 7910 03c4 0200     		.2byte	0x2
 7911 03c6 31       		.byte	0x31
 7912 03c7 9F       		.byte	0x9f
 7913 03c8 76000000 		.4byte	.LVL66
 7914 03cc A8000000 		.4byte	.LVL69
 7915 03d0 0200     		.2byte	0x2
 7916 03d2 32       		.byte	0x32
 7917 03d3 9F       		.byte	0x9f
 7918 03d4 A8000000 		.4byte	.LVL69
 7919 03d8 DA000000 		.4byte	.LVL72
 7920 03dc 0200     		.2byte	0x2
 7921 03de 30       		.byte	0x30
 7922 03df 9F       		.byte	0x9f
 7923 03e0 DA000000 		.4byte	.LVL72
 7924 03e4 0C010000 		.4byte	.LVL75
 7925 03e8 0200     		.2byte	0x2
 7926 03ea 31       		.byte	0x31
 7927 03eb 9F       		.byte	0x9f
 7928 03ec 0C010000 		.4byte	.LVL75
 7929 03f0 3E010000 		.4byte	.LVL78
 7930 03f4 0200     		.2byte	0x2
 7931 03f6 32       		.byte	0x32
 7932 03f7 9F       		.byte	0x9f
 7933 03f8 3E010000 		.4byte	.LVL78
 7934 03fc 70010000 		.4byte	.LVL81
 7935 0400 0200     		.2byte	0x2
 7936 0402 30       		.byte	0x30
 7937 0403 9F       		.byte	0x9f
 7938 0404 70010000 		.4byte	.LVL81
 7939 0408 A2010000 		.4byte	.LVL84
 7940 040c 0200     		.2byte	0x2
 7941 040e 31       		.byte	0x31
 7942 040f 9F       		.byte	0x9f
 7943 0410 A2010000 		.4byte	.LVL84
 7944 0414 D8010000 		.4byte	.LFE124
 7945 0418 0200     		.2byte	0x2
 7946 041a 32       		.byte	0x32
 7947 041b 9F       		.byte	0x9f
 7948 041c 00000000 		.4byte	0
 7949 0420 00000000 		.4byte	0
 7950              	.LLST11:
 7951 0424 12000000 		.4byte	.LVL60
 7952 0428 27000000 		.4byte	.LVL61-1
 7953 042c 0500     		.2byte	0x5
 7954 042e 03       		.byte	0x3
 7955 042f 02000000 		.4byte	unlocker_rings+2
 7956 0433 27000000 		.4byte	.LVL61-1
 7957 0437 44000000 		.4byte	.LVL63
 7958 043b 0100     		.2byte	0x1
 7959 043d 55       		.byte	0x55
 7960 043e 44000000 		.4byte	.LVL63
 7961 0442 59000000 		.4byte	.LVL64-1
 7962 0446 0500     		.2byte	0x5
 7963 0448 03       		.byte	0x3
ARM GAS  /tmp/ccd61yKH.s 			page 141


 7964 0449 0C000000 		.4byte	unlocker_rings+12
 7965 044d 59000000 		.4byte	.LVL64-1
 7966 0451 76000000 		.4byte	.LVL66
 7967 0455 0100     		.2byte	0x1
 7968 0457 55       		.byte	0x55
 7969 0458 76000000 		.4byte	.LVL66
 7970 045c 8B000000 		.4byte	.LVL67-1
 7971 0460 0500     		.2byte	0x5
 7972 0462 03       		.byte	0x3
 7973 0463 16000000 		.4byte	unlocker_rings+22
 7974 0467 8B000000 		.4byte	.LVL67-1
 7975 046b A8000000 		.4byte	.LVL69
 7976 046f 0100     		.2byte	0x1
 7977 0471 55       		.byte	0x55
 7978 0472 A8000000 		.4byte	.LVL69
 7979 0476 BD000000 		.4byte	.LVL70-1
 7980 047a 0500     		.2byte	0x5
 7981 047c 03       		.byte	0x3
 7982 047d 20000000 		.4byte	unlocker_rings+32
 7983 0481 BD000000 		.4byte	.LVL70-1
 7984 0485 DA000000 		.4byte	.LVL72
 7985 0489 0100     		.2byte	0x1
 7986 048b 55       		.byte	0x55
 7987 048c DA000000 		.4byte	.LVL72
 7988 0490 EF000000 		.4byte	.LVL73-1
 7989 0494 0500     		.2byte	0x5
 7990 0496 03       		.byte	0x3
 7991 0497 2A000000 		.4byte	unlocker_rings+42
 7992 049b EF000000 		.4byte	.LVL73-1
 7993 049f 0C010000 		.4byte	.LVL75
 7994 04a3 0100     		.2byte	0x1
 7995 04a5 55       		.byte	0x55
 7996 04a6 0C010000 		.4byte	.LVL75
 7997 04aa 21010000 		.4byte	.LVL76-1
 7998 04ae 0500     		.2byte	0x5
 7999 04b0 03       		.byte	0x3
 8000 04b1 34000000 		.4byte	unlocker_rings+52
 8001 04b5 21010000 		.4byte	.LVL76-1
 8002 04b9 3E010000 		.4byte	.LVL78
 8003 04bd 0100     		.2byte	0x1
 8004 04bf 55       		.byte	0x55
 8005 04c0 3E010000 		.4byte	.LVL78
 8006 04c4 53010000 		.4byte	.LVL79-1
 8007 04c8 0500     		.2byte	0x5
 8008 04ca 03       		.byte	0x3
 8009 04cb 3E000000 		.4byte	unlocker_rings+62
 8010 04cf 53010000 		.4byte	.LVL79-1
 8011 04d3 70010000 		.4byte	.LVL81
 8012 04d7 0100     		.2byte	0x1
 8013 04d9 55       		.byte	0x55
 8014 04da 70010000 		.4byte	.LVL81
 8015 04de 85010000 		.4byte	.LVL82-1
 8016 04e2 0500     		.2byte	0x5
 8017 04e4 03       		.byte	0x3
 8018 04e5 48000000 		.4byte	unlocker_rings+72
 8019 04e9 85010000 		.4byte	.LVL82-1
 8020 04ed A2010000 		.4byte	.LVL84
ARM GAS  /tmp/ccd61yKH.s 			page 142


 8021 04f1 0100     		.2byte	0x1
 8022 04f3 55       		.byte	0x55
 8023 04f4 A2010000 		.4byte	.LVL84
 8024 04f8 B7010000 		.4byte	.LVL85-1
 8025 04fc 0500     		.2byte	0x5
 8026 04fe 03       		.byte	0x3
 8027 04ff 52000000 		.4byte	unlocker_rings+82
 8028 0503 B7010000 		.4byte	.LVL85-1
 8029 0507 D8010000 		.4byte	.LFE124
 8030 050b 0100     		.2byte	0x1
 8031 050d 54       		.byte	0x54
 8032 050e 00000000 		.4byte	0
 8033 0512 00000000 		.4byte	0
 8034              	.LLST12:
 8035 0516 12000000 		.4byte	.LVL60
 8036 051a 27000000 		.4byte	.LVL61-1
 8037 051e 0500     		.2byte	0x5
 8038 0520 03       		.byte	0x3
 8039 0521 00000000 		.4byte	unlocker_rings
 8040 0525 27000000 		.4byte	.LVL61-1
 8041 0529 44000000 		.4byte	.LVL63
 8042 052d 0100     		.2byte	0x1
 8043 052f 56       		.byte	0x56
 8044 0530 44000000 		.4byte	.LVL63
 8045 0534 59000000 		.4byte	.LVL64-1
 8046 0538 0500     		.2byte	0x5
 8047 053a 03       		.byte	0x3
 8048 053b 0A000000 		.4byte	unlocker_rings+10
 8049 053f 59000000 		.4byte	.LVL64-1
 8050 0543 76000000 		.4byte	.LVL66
 8051 0547 0100     		.2byte	0x1
 8052 0549 56       		.byte	0x56
 8053 054a 76000000 		.4byte	.LVL66
 8054 054e 8B000000 		.4byte	.LVL67-1
 8055 0552 0500     		.2byte	0x5
 8056 0554 03       		.byte	0x3
 8057 0555 14000000 		.4byte	unlocker_rings+20
 8058 0559 8B000000 		.4byte	.LVL67-1
 8059 055d A8000000 		.4byte	.LVL69
 8060 0561 0100     		.2byte	0x1
 8061 0563 56       		.byte	0x56
 8062 0564 A8000000 		.4byte	.LVL69
 8063 0568 BD000000 		.4byte	.LVL70-1
 8064 056c 0500     		.2byte	0x5
 8065 056e 03       		.byte	0x3
 8066 056f 1E000000 		.4byte	unlocker_rings+30
 8067 0573 BD000000 		.4byte	.LVL70-1
 8068 0577 DA000000 		.4byte	.LVL72
 8069 057b 0100     		.2byte	0x1
 8070 057d 56       		.byte	0x56
 8071 057e DA000000 		.4byte	.LVL72
 8072 0582 EF000000 		.4byte	.LVL73-1
 8073 0586 0500     		.2byte	0x5
 8074 0588 03       		.byte	0x3
 8075 0589 28000000 		.4byte	unlocker_rings+40
 8076 058d EF000000 		.4byte	.LVL73-1
 8077 0591 0C010000 		.4byte	.LVL75
ARM GAS  /tmp/ccd61yKH.s 			page 143


 8078 0595 0100     		.2byte	0x1
 8079 0597 56       		.byte	0x56
 8080 0598 0C010000 		.4byte	.LVL75
 8081 059c 21010000 		.4byte	.LVL76-1
 8082 05a0 0500     		.2byte	0x5
 8083 05a2 03       		.byte	0x3
 8084 05a3 32000000 		.4byte	unlocker_rings+50
 8085 05a7 21010000 		.4byte	.LVL76-1
 8086 05ab 3E010000 		.4byte	.LVL78
 8087 05af 0100     		.2byte	0x1
 8088 05b1 56       		.byte	0x56
 8089 05b2 3E010000 		.4byte	.LVL78
 8090 05b6 53010000 		.4byte	.LVL79-1
 8091 05ba 0500     		.2byte	0x5
 8092 05bc 03       		.byte	0x3
 8093 05bd 3C000000 		.4byte	unlocker_rings+60
 8094 05c1 53010000 		.4byte	.LVL79-1
 8095 05c5 70010000 		.4byte	.LVL81
 8096 05c9 0100     		.2byte	0x1
 8097 05cb 56       		.byte	0x56
 8098 05cc 70010000 		.4byte	.LVL81
 8099 05d0 85010000 		.4byte	.LVL82-1
 8100 05d4 0500     		.2byte	0x5
 8101 05d6 03       		.byte	0x3
 8102 05d7 46000000 		.4byte	unlocker_rings+70
 8103 05db 85010000 		.4byte	.LVL82-1
 8104 05df A2010000 		.4byte	.LVL84
 8105 05e3 0100     		.2byte	0x1
 8106 05e5 56       		.byte	0x56
 8107 05e6 A2010000 		.4byte	.LVL84
 8108 05ea B7010000 		.4byte	.LVL85-1
 8109 05ee 0500     		.2byte	0x5
 8110 05f0 03       		.byte	0x3
 8111 05f1 50000000 		.4byte	unlocker_rings+80
 8112 05f5 B7010000 		.4byte	.LVL85-1
 8113 05f9 D8010000 		.4byte	.LFE124
 8114 05fd 0100     		.2byte	0x1
 8115 05ff 55       		.byte	0x55
 8116 0600 00000000 		.4byte	0
 8117 0604 00000000 		.4byte	0
 8118              	.LLST13:
 8119 0608 00000000 		.4byte	.LFB125
 8120 060c 04000000 		.4byte	.LCFI4
 8121 0610 0200     		.2byte	0x2
 8122 0612 7D       		.byte	0x7d
 8123 0613 00       		.sleb128 0
 8124 0614 04000000 		.4byte	.LCFI4
 8125 0618 0A000000 		.4byte	.LCFI5
 8126 061c 0200     		.2byte	0x2
 8127 061e 7D       		.byte	0x7d
 8128 061f 24       		.sleb128 36
 8129 0620 0A000000 		.4byte	.LCFI5
 8130 0624 36030000 		.4byte	.LFE125
 8131 0628 0200     		.2byte	0x2
 8132 062a 7D       		.byte	0x7d
 8133 062b 38       		.sleb128 56
 8134 062c 00000000 		.4byte	0
ARM GAS  /tmp/ccd61yKH.s 			page 144


 8135 0630 00000000 		.4byte	0
 8136              	.LLST14:
 8137 0634 10000000 		.4byte	.LVL89
 8138 0638 30000000 		.4byte	.LVL91
 8139 063c 0200     		.2byte	0x2
 8140 063e 72       		.byte	0x72
 8141 063f 02       		.sleb128 2
 8142 0640 14030000 		.4byte	.LVL134
 8143 0644 36030000 		.4byte	.LFE125
 8144 0648 0200     		.2byte	0x2
 8145 064a 72       		.byte	0x72
 8146 064b 02       		.sleb128 2
 8147 064c 00000000 		.4byte	0
 8148 0650 00000000 		.4byte	0
 8149              	.LLST15:
 8150 0654 10000000 		.4byte	.LVL89
 8151 0658 30000000 		.4byte	.LVL91
 8152 065c 0200     		.2byte	0x2
 8153 065e 72       		.byte	0x72
 8154 065f 00       		.sleb128 0
 8155 0660 14030000 		.4byte	.LVL134
 8156 0664 36030000 		.4byte	.LFE125
 8157 0668 0200     		.2byte	0x2
 8158 066a 72       		.byte	0x72
 8159 066b 00       		.sleb128 0
 8160 066c 00000000 		.4byte	0
 8161 0670 00000000 		.4byte	0
 8162              	.LLST16:
 8163 0674 38000000 		.4byte	.LVL92
 8164 0678 46000000 		.4byte	.LVL95
 8165 067c 0100     		.2byte	0x1
 8166 067e 58       		.byte	0x58
 8167 067f 22030000 		.4byte	.LVL135
 8168 0683 36030000 		.4byte	.LFE125
 8169 0687 0100     		.2byte	0x1
 8170 0689 5B       		.byte	0x5b
 8171 068a 00000000 		.4byte	0
 8172 068e 00000000 		.4byte	0
 8173              	.LLST17:
 8174 0692 38000000 		.4byte	.LVL92
 8175 0696 3A000000 		.4byte	.LVL93
 8176 069a 0100     		.2byte	0x1
 8177 069c 5B       		.byte	0x5b
 8178 069d 3A000000 		.4byte	.LVL93
 8179 06a1 6F000000 		.4byte	.LVL96-1
 8180 06a5 0100     		.2byte	0x1
 8181 06a7 5C       		.byte	0x5c
 8182 06a8 32030000 		.4byte	.LVL136
 8183 06ac 36030000 		.4byte	.LFE125
 8184 06b0 0100     		.2byte	0x1
 8185 06b2 5C       		.byte	0x5c
 8186 06b3 00000000 		.4byte	0
 8187 06b7 00000000 		.4byte	0
 8188              	.LLST18:
 8189 06bb 28000000 		.4byte	.LVL90
 8190 06bf A6000000 		.4byte	.LVL99
 8191 06c3 0100     		.2byte	0x1
ARM GAS  /tmp/ccd61yKH.s 			page 145


 8192 06c5 5B       		.byte	0x5b
 8193 06c6 22030000 		.4byte	.LVL135
 8194 06ca 36030000 		.4byte	.LFE125
 8195 06ce 0100     		.2byte	0x1
 8196 06d0 5B       		.byte	0x5b
 8197 06d1 00000000 		.4byte	0
 8198 06d5 00000000 		.4byte	0
 8199              	.LLST19:
 8200 06d9 3A000000 		.4byte	.LVL93
 8201 06dd 68010000 		.4byte	.LVL108
 8202 06e1 0200     		.2byte	0x2
 8203 06e3 30       		.byte	0x30
 8204 06e4 9F       		.byte	0x9f
 8205 06e5 68010000 		.4byte	.LVL108
 8206 06e9 4C020000 		.4byte	.LVL121
 8207 06ed 0200     		.2byte	0x2
 8208 06ef 31       		.byte	0x31
 8209 06f0 9F       		.byte	0x9f
 8210 06f1 4C020000 		.4byte	.LVL121
 8211 06f5 02030000 		.4byte	.LVL133
 8212 06f9 0200     		.2byte	0x2
 8213 06fb 32       		.byte	0x32
 8214 06fc 9F       		.byte	0x9f
 8215 06fd 02030000 		.4byte	.LVL133
 8216 0701 14030000 		.4byte	.LVL134
 8217 0705 0200     		.2byte	0x2
 8218 0707 33       		.byte	0x33
 8219 0708 9F       		.byte	0x9f
 8220 0709 00000000 		.4byte	0
 8221 070d 00000000 		.4byte	0
 8222              	.LLST20:
 8223 0711 42000000 		.4byte	.LVL94
 8224 0715 BE000000 		.4byte	.LVL100
 8225 0719 0200     		.2byte	0x2
 8226 071b 30       		.byte	0x30
 8227 071c 9F       		.byte	0x9f
 8228 071d BE000000 		.4byte	.LVL100
 8229 0721 16010000 		.4byte	.LVL104
 8230 0725 0200     		.2byte	0x2
 8231 0727 31       		.byte	0x31
 8232 0728 9F       		.byte	0x9f
 8233 0729 16010000 		.4byte	.LVL104
 8234 072d 68010000 		.4byte	.LVL108
 8235 0731 0200     		.2byte	0x2
 8236 0733 32       		.byte	0x32
 8237 0734 9F       		.byte	0x9f
 8238 0735 68010000 		.4byte	.LVL108
 8239 0739 B2010000 		.4byte	.LVL112
 8240 073d 0200     		.2byte	0x2
 8241 073f 30       		.byte	0x30
 8242 0740 9F       		.byte	0x9f
 8243 0741 B2010000 		.4byte	.LVL112
 8244 0745 F8010000 		.4byte	.LVL117
 8245 0749 0200     		.2byte	0x2
 8246 074b 31       		.byte	0x31
 8247 074c 9F       		.byte	0x9f
 8248 074d F8010000 		.4byte	.LVL117
ARM GAS  /tmp/ccd61yKH.s 			page 146


 8249 0751 4C020000 		.4byte	.LVL121
 8250 0755 0200     		.2byte	0x2
 8251 0757 32       		.byte	0x32
 8252 0758 9F       		.byte	0x9f
 8253 0759 4C020000 		.4byte	.LVL121
 8254 075d 96020000 		.4byte	.LVL125
 8255 0761 0200     		.2byte	0x2
 8256 0763 30       		.byte	0x30
 8257 0764 9F       		.byte	0x9f
 8258 0765 96020000 		.4byte	.LVL125
 8259 0769 E0020000 		.4byte	.LVL129
 8260 076d 0200     		.2byte	0x2
 8261 076f 31       		.byte	0x31
 8262 0770 9F       		.byte	0x9f
 8263 0771 E0020000 		.4byte	.LVL129
 8264 0775 02030000 		.4byte	.LVL133
 8265 0779 0200     		.2byte	0x2
 8266 077b 32       		.byte	0x32
 8267 077c 9F       		.byte	0x9f
 8268 077d 02030000 		.4byte	.LVL133
 8269 0781 14030000 		.4byte	.LVL134
 8270 0785 0200     		.2byte	0x2
 8271 0787 33       		.byte	0x33
 8272 0788 9F       		.byte	0x9f
 8273 0789 00000000 		.4byte	0
 8274 078d 00000000 		.4byte	0
 8275              	.LLST21:
 8276 0791 46000000 		.4byte	.LVL95
 8277 0795 6F000000 		.4byte	.LVL96-1
 8278 0799 0100     		.2byte	0x1
 8279 079b 5C       		.byte	0x5c
 8280 079c BE000000 		.4byte	.LVL100
 8281 07a0 16010000 		.4byte	.LVL104
 8282 07a4 0200     		.2byte	0x2
 8283 07a6 91       		.byte	0x91
 8284 07a7 4C       		.sleb128 -52
 8285 07a8 16010000 		.4byte	.LVL104
 8286 07ac 68010000 		.4byte	.LVL108
 8287 07b0 0200     		.2byte	0x2
 8288 07b2 91       		.byte	0x91
 8289 07b3 50       		.sleb128 -48
 8290 07b4 68010000 		.4byte	.LVL108
 8291 07b8 6F010000 		.4byte	.LVL109-1
 8292 07bc 0100     		.2byte	0x1
 8293 07be 5C       		.byte	0x5c
 8294 07bf B2010000 		.4byte	.LVL112
 8295 07c3 F8010000 		.4byte	.LVL117
 8296 07c7 0200     		.2byte	0x2
 8297 07c9 91       		.byte	0x91
 8298 07ca 4C       		.sleb128 -52
 8299 07cb F8010000 		.4byte	.LVL117
 8300 07cf 4C020000 		.4byte	.LVL121
 8301 07d3 0200     		.2byte	0x2
 8302 07d5 91       		.byte	0x91
 8303 07d6 50       		.sleb128 -48
 8304 07d7 4C020000 		.4byte	.LVL121
 8305 07db 4F020000 		.4byte	.LVL122-1
ARM GAS  /tmp/ccd61yKH.s 			page 147


 8306 07df 0100     		.2byte	0x1
 8307 07e1 5C       		.byte	0x5c
 8308 07e2 96020000 		.4byte	.LVL125
 8309 07e6 E0020000 		.4byte	.LVL129
 8310 07ea 0200     		.2byte	0x2
 8311 07ec 91       		.byte	0x91
 8312 07ed 4C       		.sleb128 -52
 8313 07ee E0020000 		.4byte	.LVL129
 8314 07f2 14030000 		.4byte	.LVL134
 8315 07f6 0200     		.2byte	0x2
 8316 07f8 91       		.byte	0x91
 8317 07f9 50       		.sleb128 -48
 8318 07fa 00000000 		.4byte	0
 8319 07fe 00000000 		.4byte	0
 8320              	.LLST22:
 8321 0802 46000000 		.4byte	.LVL95
 8322 0806 68010000 		.4byte	.LVL108
 8323 080a 0100     		.2byte	0x1
 8324 080c 58       		.byte	0x58
 8325 080d 68010000 		.4byte	.LVL108
 8326 0811 DE010000 		.4byte	.LVL116
 8327 0815 0100     		.2byte	0x1
 8328 0817 59       		.byte	0x59
 8329 0818 4C020000 		.4byte	.LVL121
 8330 081c 14030000 		.4byte	.LVL134
 8331 0820 0100     		.2byte	0x1
 8332 0822 58       		.byte	0x58
 8333 0823 00000000 		.4byte	0
 8334 0827 00000000 		.4byte	0
 8335              	.LLST23:
 8336 082b 00000000 		.4byte	.LFB126
 8337 082f 04000000 		.4byte	.LCFI6
 8338 0833 0200     		.2byte	0x2
 8339 0835 7D       		.byte	0x7d
 8340 0836 00       		.sleb128 0
 8341 0837 04000000 		.4byte	.LCFI6
 8342 083b 0E000000 		.4byte	.LCFI7
 8343 083f 0200     		.2byte	0x2
 8344 0841 7D       		.byte	0x7d
 8345 0842 24       		.sleb128 36
 8346 0843 0E000000 		.4byte	.LCFI7
 8347 0847 30080000 		.4byte	.LFE126
 8348 084b 0300     		.2byte	0x3
 8349 084d 7D       		.byte	0x7d
 8350 084e C000     		.sleb128 64
 8351 0850 00000000 		.4byte	0
 8352 0854 00000000 		.4byte	0
 8353              	.LLST24:
 8354 0858 00000000 		.4byte	.LVL137
 8355 085c 1B000000 		.4byte	.LVL138-1
 8356 0860 0100     		.2byte	0x1
 8357 0862 50       		.byte	0x50
 8358 0863 1B000000 		.4byte	.LVL138-1
 8359 0867 30080000 		.4byte	.LFE126
 8360 086b 0100     		.2byte	0x1
 8361 086d 56       		.byte	0x56
 8362 086e 00000000 		.4byte	0
ARM GAS  /tmp/ccd61yKH.s 			page 148


 8363 0872 00000000 		.4byte	0
 8364              	.LLST25:
 8365 0876 00000000 		.4byte	.LVL137
 8366 087a 1B000000 		.4byte	.LVL138-1
 8367 087e 0100     		.2byte	0x1
 8368 0880 51       		.byte	0x51
 8369 0881 1B000000 		.4byte	.LVL138-1
 8370 0885 30080000 		.4byte	.LFE126
 8371 0889 0400     		.2byte	0x4
 8372 088b F3       		.byte	0xf3
 8373 088c 01       		.uleb128 0x1
 8374 088d 51       		.byte	0x51
 8375 088e 9F       		.byte	0x9f
 8376 088f 00000000 		.4byte	0
 8377 0893 00000000 		.4byte	0
 8378              	.LLST26:
 8379 0897 44000000 		.4byte	.LVL141
 8380 089b 5E000000 		.4byte	.LVL142
 8381 089f 0200     		.2byte	0x2
 8382 08a1 30       		.byte	0x30
 8383 08a2 9F       		.byte	0x9f
 8384 08a3 5E000000 		.4byte	.LVL142
 8385 08a7 6A000000 		.4byte	.LVL143
 8386 08ab 0200     		.2byte	0x2
 8387 08ad 31       		.byte	0x31
 8388 08ae 9F       		.byte	0x9f
 8389 08af 6A000000 		.4byte	.LVL143
 8390 08b3 76000000 		.4byte	.LVL144
 8391 08b7 0200     		.2byte	0x2
 8392 08b9 32       		.byte	0x32
 8393 08ba 9F       		.byte	0x9f
 8394 08bb 76000000 		.4byte	.LVL144
 8395 08bf 82000000 		.4byte	.LVL145
 8396 08c3 0200     		.2byte	0x2
 8397 08c5 33       		.byte	0x33
 8398 08c6 9F       		.byte	0x9f
 8399 08c7 82000000 		.4byte	.LVL145
 8400 08cb 8E000000 		.4byte	.LVL146
 8401 08cf 0200     		.2byte	0x2
 8402 08d1 34       		.byte	0x34
 8403 08d2 9F       		.byte	0x9f
 8404 08d3 8E000000 		.4byte	.LVL146
 8405 08d7 9A000000 		.4byte	.LVL147
 8406 08db 0200     		.2byte	0x2
 8407 08dd 35       		.byte	0x35
 8408 08de 9F       		.byte	0x9f
 8409 08df 9A000000 		.4byte	.LVL147
 8410 08e3 A4000000 		.4byte	.LVL148
 8411 08e7 0200     		.2byte	0x2
 8412 08e9 36       		.byte	0x36
 8413 08ea 9F       		.byte	0x9f
 8414 08eb A4000000 		.4byte	.LVL148
 8415 08ef B0000000 		.4byte	.LVL149
 8416 08f3 0200     		.2byte	0x2
 8417 08f5 37       		.byte	0x37
 8418 08f6 9F       		.byte	0x9f
 8419 08f7 B0000000 		.4byte	.LVL149
ARM GAS  /tmp/ccd61yKH.s 			page 149


 8420 08fb BC000000 		.4byte	.LVL150
 8421 08ff 0200     		.2byte	0x2
 8422 0901 38       		.byte	0x38
 8423 0902 9F       		.byte	0x9f
 8424 0903 BC000000 		.4byte	.LVL150
 8425 0907 DC000000 		.4byte	.LVL153
 8426 090b 0200     		.2byte	0x2
 8427 090d 39       		.byte	0x39
 8428 090e 9F       		.byte	0x9f
 8429 090f 74010000 		.4byte	.LVL156
 8430 0913 10020000 		.4byte	.LVL159
 8431 0917 0200     		.2byte	0x2
 8432 0919 31       		.byte	0x31
 8433 091a 9F       		.byte	0x9f
 8434 091b 10020000 		.4byte	.LVL159
 8435 091f 4A030000 		.4byte	.LVL171
 8436 0923 0200     		.2byte	0x2
 8437 0925 32       		.byte	0x32
 8438 0926 9F       		.byte	0x9f
 8439 0927 6E030000 		.4byte	.LVL176
 8440 092b 9A040000 		.4byte	.LVL194
 8441 092f 0200     		.2byte	0x2
 8442 0931 32       		.byte	0x32
 8443 0932 9F       		.byte	0x9f
 8444 0933 9A040000 		.4byte	.LVL194
 8445 0937 4C060000 		.4byte	.LVL219
 8446 093b 0200     		.2byte	0x2
 8447 093d 31       		.byte	0x31
 8448 093e 9F       		.byte	0x9f
 8449 093f F2070000 		.4byte	.LVL244
 8450 0943 FE070000 		.4byte	.LVL245
 8451 0947 0200     		.2byte	0x2
 8452 0949 30       		.byte	0x30
 8453 094a 9F       		.byte	0x9f
 8454 094b FE070000 		.4byte	.LVL245
 8455 094f 02080000 		.4byte	.LVL246
 8456 0953 0200     		.2byte	0x2
 8457 0955 31       		.byte	0x31
 8458 0956 9F       		.byte	0x9f
 8459 0957 02080000 		.4byte	.LVL246
 8460 095b 06080000 		.4byte	.LVL247
 8461 095f 0200     		.2byte	0x2
 8462 0961 32       		.byte	0x32
 8463 0962 9F       		.byte	0x9f
 8464 0963 06080000 		.4byte	.LVL247
 8465 0967 0A080000 		.4byte	.LVL248
 8466 096b 0200     		.2byte	0x2
 8467 096d 33       		.byte	0x33
 8468 096e 9F       		.byte	0x9f
 8469 096f 0A080000 		.4byte	.LVL248
 8470 0973 0E080000 		.4byte	.LVL249
 8471 0977 0200     		.2byte	0x2
 8472 0979 34       		.byte	0x34
 8473 097a 9F       		.byte	0x9f
 8474 097b 0E080000 		.4byte	.LVL249
 8475 097f 12080000 		.4byte	.LVL250
 8476 0983 0200     		.2byte	0x2
ARM GAS  /tmp/ccd61yKH.s 			page 150


 8477 0985 35       		.byte	0x35
 8478 0986 9F       		.byte	0x9f
 8479 0987 12080000 		.4byte	.LVL250
 8480 098b 16080000 		.4byte	.LVL251
 8481 098f 0200     		.2byte	0x2
 8482 0991 36       		.byte	0x36
 8483 0992 9F       		.byte	0x9f
 8484 0993 16080000 		.4byte	.LVL251
 8485 0997 1A080000 		.4byte	.LVL252
 8486 099b 0200     		.2byte	0x2
 8487 099d 37       		.byte	0x37
 8488 099e 9F       		.byte	0x9f
 8489 099f 1A080000 		.4byte	.LVL252
 8490 09a3 1E080000 		.4byte	.LVL253
 8491 09a7 0200     		.2byte	0x2
 8492 09a9 38       		.byte	0x38
 8493 09aa 9F       		.byte	0x9f
 8494 09ab 1E080000 		.4byte	.LVL253
 8495 09af 30080000 		.4byte	.LFE126
 8496 09b3 0200     		.2byte	0x2
 8497 09b5 39       		.byte	0x39
 8498 09b6 9F       		.byte	0x9f
 8499 09b7 00000000 		.4byte	0
 8500 09bb 00000000 		.4byte	0
 8501              	.LLST27:
 8502 09bf DC000000 		.4byte	.LVL153
 8503 09c3 10010000 		.4byte	.LVL154
 8504 09c7 0200     		.2byte	0x2
 8505 09c9 30       		.byte	0x30
 8506 09ca 9F       		.byte	0x9f
 8507 09cb 10010000 		.4byte	.LVL154
 8508 09cf 42010000 		.4byte	.LVL155
 8509 09d3 0200     		.2byte	0x2
 8510 09d5 31       		.byte	0x31
 8511 09d6 9F       		.byte	0x9f
 8512 09d7 42010000 		.4byte	.LVL155
 8513 09db 74010000 		.4byte	.LVL156
 8514 09df 0200     		.2byte	0x2
 8515 09e1 32       		.byte	0x32
 8516 09e2 9F       		.byte	0x9f
 8517 09e3 74010000 		.4byte	.LVL156
 8518 09e7 A8010000 		.4byte	.LVL157
 8519 09eb 0200     		.2byte	0x2
 8520 09ed 30       		.byte	0x30
 8521 09ee 9F       		.byte	0x9f
 8522 09ef A8010000 		.4byte	.LVL157
 8523 09f3 DC010000 		.4byte	.LVL158
 8524 09f7 0200     		.2byte	0x2
 8525 09f9 31       		.byte	0x31
 8526 09fa 9F       		.byte	0x9f
 8527 09fb DC010000 		.4byte	.LVL158
 8528 09ff 10020000 		.4byte	.LVL159
 8529 0a03 0200     		.2byte	0x2
 8530 0a05 32       		.byte	0x32
 8531 0a06 9F       		.byte	0x9f
 8532 0a07 10020000 		.4byte	.LVL159
 8533 0a0b 44020000 		.4byte	.LVL160
ARM GAS  /tmp/ccd61yKH.s 			page 151


 8534 0a0f 0200     		.2byte	0x2
 8535 0a11 30       		.byte	0x30
 8536 0a12 9F       		.byte	0x9f
 8537 0a13 44020000 		.4byte	.LVL160
 8538 0a17 76020000 		.4byte	.LVL161
 8539 0a1b 0200     		.2byte	0x2
 8540 0a1d 31       		.byte	0x31
 8541 0a1e 9F       		.byte	0x9f
 8542 0a1f 76020000 		.4byte	.LVL161
 8543 0a23 4A030000 		.4byte	.LVL171
 8544 0a27 0200     		.2byte	0x2
 8545 0a29 32       		.byte	0x32
 8546 0a2a 9F       		.byte	0x9f
 8547 0a2b 6E030000 		.4byte	.LVL176
 8548 0a2f 08040000 		.4byte	.LVL185
 8549 0a33 0200     		.2byte	0x2
 8550 0a35 31       		.byte	0x31
 8551 0a36 9F       		.byte	0x9f
 8552 0a37 08040000 		.4byte	.LVL185
 8553 0a3b 9A040000 		.4byte	.LVL194
 8554 0a3f 0200     		.2byte	0x2
 8555 0a41 30       		.byte	0x30
 8556 0a42 9F       		.byte	0x9f
 8557 0a43 9A040000 		.4byte	.LVL194
 8558 0a47 2A050000 		.4byte	.LVL203
 8559 0a4b 0200     		.2byte	0x2
 8560 0a4d 32       		.byte	0x32
 8561 0a4e 9F       		.byte	0x9f
 8562 0a4f 2A050000 		.4byte	.LVL203
 8563 0a53 BA050000 		.4byte	.LVL210
 8564 0a57 0200     		.2byte	0x2
 8565 0a59 31       		.byte	0x31
 8566 0a5a 9F       		.byte	0x9f
 8567 0a5b BA050000 		.4byte	.LVL210
 8568 0a5f 4C060000 		.4byte	.LVL219
 8569 0a63 0200     		.2byte	0x2
 8570 0a65 30       		.byte	0x30
 8571 0a66 9F       		.byte	0x9f
 8572 0a67 4C060000 		.4byte	.LVL219
 8573 0a6b D8060000 		.4byte	.LVL228
 8574 0a6f 0200     		.2byte	0x2
 8575 0a71 32       		.byte	0x32
 8576 0a72 9F       		.byte	0x9f
 8577 0a73 D8060000 		.4byte	.LVL228
 8578 0a77 64070000 		.4byte	.LVL237
 8579 0a7b 0200     		.2byte	0x2
 8580 0a7d 31       		.byte	0x31
 8581 0a7e 9F       		.byte	0x9f
 8582 0a7f 64070000 		.4byte	.LVL237
 8583 0a83 F2070000 		.4byte	.LVL244
 8584 0a87 0200     		.2byte	0x2
 8585 0a89 30       		.byte	0x30
 8586 0a8a 9F       		.byte	0x9f
 8587 0a8b 00000000 		.4byte	0
 8588 0a8f 00000000 		.4byte	0
 8589              	.LLST28:
 8590 0a93 1C000000 		.4byte	.LVL138
ARM GAS  /tmp/ccd61yKH.s 			page 152


 8591 0a97 2A000000 		.4byte	.LVL139
 8592 0a9b 0200     		.2byte	0x2
 8593 0a9d 30       		.byte	0x30
 8594 0a9e 9F       		.byte	0x9f
 8595 0a9f 2A000000 		.4byte	.LVL139
 8596 0aa3 44030000 		.4byte	.LVL169
 8597 0aa7 0100     		.2byte	0x1
 8598 0aa9 59       		.byte	0x59
 8599 0aaa 44030000 		.4byte	.LVL169
 8600 0aae 4A030000 		.4byte	.LVL171
 8601 0ab2 0500     		.2byte	0x5
 8602 0ab4 03       		.byte	0x3
 8603 0ab5 50000000 		.4byte	unlocker_rings+80
 8604 0ab9 4A030000 		.4byte	.LVL171
 8605 0abd 5A030000 		.4byte	.LVL174
 8606 0ac1 0100     		.2byte	0x1
 8607 0ac3 59       		.byte	0x59
 8608 0ac4 5A030000 		.4byte	.LVL174
 8609 0ac8 6E030000 		.4byte	.LVL176
 8610 0acc 0200     		.2byte	0x2
 8611 0ace 30       		.byte	0x30
 8612 0acf 9F       		.byte	0x9f
 8613 0ad0 6E030000 		.4byte	.LVL176
 8614 0ad4 FA030000 		.4byte	.LVL183
 8615 0ad8 0100     		.2byte	0x1
 8616 0ada 59       		.byte	0x59
 8617 0adb FA030000 		.4byte	.LVL183
 8618 0adf 08040000 		.4byte	.LVL185
 8619 0ae3 0500     		.2byte	0x5
 8620 0ae5 03       		.byte	0x3
 8621 0ae6 46000000 		.4byte	unlocker_rings+70
 8622 0aea 08040000 		.4byte	.LVL185
 8623 0aee 92040000 		.4byte	.LVL192
 8624 0af2 0100     		.2byte	0x1
 8625 0af4 59       		.byte	0x59
 8626 0af5 92040000 		.4byte	.LVL192
 8627 0af9 9A040000 		.4byte	.LVL194
 8628 0afd 0500     		.2byte	0x5
 8629 0aff 03       		.byte	0x3
 8630 0b00 3C000000 		.4byte	unlocker_rings+60
 8631 0b04 9A040000 		.4byte	.LVL194
 8632 0b08 22050000 		.4byte	.LVL201
 8633 0b0c 0100     		.2byte	0x1
 8634 0b0e 59       		.byte	0x59
 8635 0b0f 22050000 		.4byte	.LVL201
 8636 0b13 2A050000 		.4byte	.LVL203
 8637 0b17 0500     		.2byte	0x5
 8638 0b19 03       		.byte	0x3
 8639 0b1a 32000000 		.4byte	unlocker_rings+50
 8640 0b1e 2A050000 		.4byte	.LVL203
 8641 0b22 B2050000 		.4byte	.LVL208
 8642 0b26 0100     		.2byte	0x1
 8643 0b28 59       		.byte	0x59
 8644 0b29 B2050000 		.4byte	.LVL208
 8645 0b2d BA050000 		.4byte	.LVL210
 8646 0b31 0500     		.2byte	0x5
 8647 0b33 03       		.byte	0x3
ARM GAS  /tmp/ccd61yKH.s 			page 153


 8648 0b34 28000000 		.4byte	unlocker_rings+40
 8649 0b38 BA050000 		.4byte	.LVL210
 8650 0b3c 2E060000 		.4byte	.LVL215
 8651 0b40 0100     		.2byte	0x1
 8652 0b42 59       		.byte	0x59
 8653 0b43 2E060000 		.4byte	.LVL215
 8654 0b47 4C060000 		.4byte	.LVL219
 8655 0b4b 0500     		.2byte	0x5
 8656 0b4d 03       		.byte	0x3
 8657 0b4e 1E000000 		.4byte	unlocker_rings+30
 8658 0b52 4C060000 		.4byte	.LVL219
 8659 0b56 D0060000 		.4byte	.LVL226
 8660 0b5a 0100     		.2byte	0x1
 8661 0b5c 59       		.byte	0x59
 8662 0b5d D0060000 		.4byte	.LVL226
 8663 0b61 D8060000 		.4byte	.LVL228
 8664 0b65 0500     		.2byte	0x5
 8665 0b67 03       		.byte	0x3
 8666 0b68 14000000 		.4byte	unlocker_rings+20
 8667 0b6c D8060000 		.4byte	.LVL228
 8668 0b70 46070000 		.4byte	.LVL233
 8669 0b74 0100     		.2byte	0x1
 8670 0b76 59       		.byte	0x59
 8671 0b77 46070000 		.4byte	.LVL233
 8672 0b7b 64070000 		.4byte	.LVL237
 8673 0b7f 0500     		.2byte	0x5
 8674 0b81 03       		.byte	0x3
 8675 0b82 0A000000 		.4byte	unlocker_rings+10
 8676 0b86 64070000 		.4byte	.LVL237
 8677 0b8a EA070000 		.4byte	.LVL242
 8678 0b8e 0100     		.2byte	0x1
 8679 0b90 59       		.byte	0x59
 8680 0b91 EA070000 		.4byte	.LVL242
 8681 0b95 F2070000 		.4byte	.LVL244
 8682 0b99 0500     		.2byte	0x5
 8683 0b9b 03       		.byte	0x3
 8684 0b9c 00000000 		.4byte	unlocker_rings
 8685 0ba0 F2070000 		.4byte	.LVL244
 8686 0ba4 30080000 		.4byte	.LFE126
 8687 0ba8 0100     		.2byte	0x1
 8688 0baa 59       		.byte	0x59
 8689 0bab 00000000 		.4byte	0
 8690 0baf 00000000 		.4byte	0
 8691              	.LLST29:
 8692 0bb3 1C000000 		.4byte	.LVL138
 8693 0bb7 2A000000 		.4byte	.LVL139
 8694 0bbb 0200     		.2byte	0x2
 8695 0bbd 30       		.byte	0x30
 8696 0bbe 9F       		.byte	0x9f
 8697 0bbf 2A000000 		.4byte	.LVL139
 8698 0bc3 5A030000 		.4byte	.LVL174
 8699 0bc7 0200     		.2byte	0x2
 8700 0bc9 91       		.byte	0x91
 8701 0bca 44       		.sleb128 -60
 8702 0bcb 5A030000 		.4byte	.LVL174
 8703 0bcf 6E030000 		.4byte	.LVL176
 8704 0bd3 0200     		.2byte	0x2
ARM GAS  /tmp/ccd61yKH.s 			page 154


 8705 0bd5 30       		.byte	0x30
 8706 0bd6 9F       		.byte	0x9f
 8707 0bd7 6E030000 		.4byte	.LVL176
 8708 0bdb 30080000 		.4byte	.LFE126
 8709 0bdf 0200     		.2byte	0x2
 8710 0be1 91       		.byte	0x91
 8711 0be2 44       		.sleb128 -60
 8712 0be3 00000000 		.4byte	0
 8713 0be7 00000000 		.4byte	0
 8714              	.LLST30:
 8715 0beb 1C000000 		.4byte	.LVL138
 8716 0bef 2A000000 		.4byte	.LVL139
 8717 0bf3 0200     		.2byte	0x2
 8718 0bf5 30       		.byte	0x30
 8719 0bf6 9F       		.byte	0x9f
 8720 0bf7 2A000000 		.4byte	.LVL139
 8721 0bfb 46030000 		.4byte	.LVL170
 8722 0bff 0200     		.2byte	0x2
 8723 0c01 91       		.byte	0x91
 8724 0c02 4C       		.sleb128 -52
 8725 0c03 46030000 		.4byte	.LVL170
 8726 0c07 4A030000 		.4byte	.LVL171
 8727 0c0b 0200     		.2byte	0x2
 8728 0c0d 32       		.byte	0x32
 8729 0c0e 9F       		.byte	0x9f
 8730 0c0f 4A030000 		.4byte	.LVL171
 8731 0c13 5A030000 		.4byte	.LVL174
 8732 0c17 0200     		.2byte	0x2
 8733 0c19 91       		.byte	0x91
 8734 0c1a 4C       		.sleb128 -52
 8735 0c1b 5A030000 		.4byte	.LVL174
 8736 0c1f 6E030000 		.4byte	.LVL176
 8737 0c23 0200     		.2byte	0x2
 8738 0c25 30       		.byte	0x30
 8739 0c26 9F       		.byte	0x9f
 8740 0c27 6E030000 		.4byte	.LVL176
 8741 0c2b FC030000 		.4byte	.LVL184
 8742 0c2f 0200     		.2byte	0x2
 8743 0c31 91       		.byte	0x91
 8744 0c32 4C       		.sleb128 -52
 8745 0c33 FC030000 		.4byte	.LVL184
 8746 0c37 08040000 		.4byte	.LVL185
 8747 0c3b 0200     		.2byte	0x2
 8748 0c3d 32       		.byte	0x32
 8749 0c3e 9F       		.byte	0x9f
 8750 0c3f 08040000 		.4byte	.LVL185
 8751 0c43 94040000 		.4byte	.LVL193
 8752 0c47 0200     		.2byte	0x2
 8753 0c49 91       		.byte	0x91
 8754 0c4a 4C       		.sleb128 -52
 8755 0c4b 94040000 		.4byte	.LVL193
 8756 0c4f 9A040000 		.4byte	.LVL194
 8757 0c53 0200     		.2byte	0x2
 8758 0c55 32       		.byte	0x32
 8759 0c56 9F       		.byte	0x9f
 8760 0c57 9A040000 		.4byte	.LVL194
 8761 0c5b 24050000 		.4byte	.LVL202
ARM GAS  /tmp/ccd61yKH.s 			page 155


 8762 0c5f 0200     		.2byte	0x2
 8763 0c61 91       		.byte	0x91
 8764 0c62 4C       		.sleb128 -52
 8765 0c63 24050000 		.4byte	.LVL202
 8766 0c67 2A050000 		.4byte	.LVL203
 8767 0c6b 0200     		.2byte	0x2
 8768 0c6d 31       		.byte	0x31
 8769 0c6e 9F       		.byte	0x9f
 8770 0c6f 2A050000 		.4byte	.LVL203
 8771 0c73 B2050000 		.4byte	.LVL208
 8772 0c77 0200     		.2byte	0x2
 8773 0c79 91       		.byte	0x91
 8774 0c7a 4C       		.sleb128 -52
 8775 0c7b B2050000 		.4byte	.LVL208
 8776 0c7f BA050000 		.4byte	.LVL210
 8777 0c83 0200     		.2byte	0x2
 8778 0c85 31       		.byte	0x31
 8779 0c86 9F       		.byte	0x9f
 8780 0c87 BA050000 		.4byte	.LVL210
 8781 0c8b 30060000 		.4byte	.LVL216
 8782 0c8f 0200     		.2byte	0x2
 8783 0c91 91       		.byte	0x91
 8784 0c92 4C       		.sleb128 -52
 8785 0c93 30060000 		.4byte	.LVL216
 8786 0c97 4C060000 		.4byte	.LVL219
 8787 0c9b 0200     		.2byte	0x2
 8788 0c9d 31       		.byte	0x31
 8789 0c9e 9F       		.byte	0x9f
 8790 0c9f 4C060000 		.4byte	.LVL219
 8791 0ca3 D2060000 		.4byte	.LVL227
 8792 0ca7 0200     		.2byte	0x2
 8793 0ca9 91       		.byte	0x91
 8794 0caa 4C       		.sleb128 -52
 8795 0cab D2060000 		.4byte	.LVL227
 8796 0caf D8060000 		.4byte	.LVL228
 8797 0cb3 0200     		.2byte	0x2
 8798 0cb5 30       		.byte	0x30
 8799 0cb6 9F       		.byte	0x9f
 8800 0cb7 D8060000 		.4byte	.LVL228
 8801 0cbb 48070000 		.4byte	.LVL234
 8802 0cbf 0200     		.2byte	0x2
 8803 0cc1 91       		.byte	0x91
 8804 0cc2 4C       		.sleb128 -52
 8805 0cc3 48070000 		.4byte	.LVL234
 8806 0cc7 64070000 		.4byte	.LVL237
 8807 0ccb 0200     		.2byte	0x2
 8808 0ccd 30       		.byte	0x30
 8809 0cce 9F       		.byte	0x9f
 8810 0ccf 64070000 		.4byte	.LVL237
 8811 0cd3 EA070000 		.4byte	.LVL242
 8812 0cd7 0200     		.2byte	0x2
 8813 0cd9 91       		.byte	0x91
 8814 0cda 4C       		.sleb128 -52
 8815 0cdb EA070000 		.4byte	.LVL242
 8816 0cdf F2070000 		.4byte	.LVL244
 8817 0ce3 0200     		.2byte	0x2
 8818 0ce5 30       		.byte	0x30
ARM GAS  /tmp/ccd61yKH.s 			page 156


 8819 0ce6 9F       		.byte	0x9f
 8820 0ce7 F2070000 		.4byte	.LVL244
 8821 0ceb 30080000 		.4byte	.LFE126
 8822 0cef 0200     		.2byte	0x2
 8823 0cf1 91       		.byte	0x91
 8824 0cf2 4C       		.sleb128 -52
 8825 0cf3 00000000 		.4byte	0
 8826 0cf7 00000000 		.4byte	0
 8827              	.LLST31:
 8828 0cfb 1C000000 		.4byte	.LVL138
 8829 0cff 2A000000 		.4byte	.LVL139
 8830 0d03 0200     		.2byte	0x2
 8831 0d05 30       		.byte	0x30
 8832 0d06 9F       		.byte	0x9f
 8833 0d07 2A000000 		.4byte	.LVL139
 8834 0d0b 46030000 		.4byte	.LVL170
 8835 0d0f 0200     		.2byte	0x2
 8836 0d11 91       		.byte	0x91
 8837 0d12 48       		.sleb128 -56
 8838 0d13 46030000 		.4byte	.LVL170
 8839 0d17 4A030000 		.4byte	.LVL171
 8840 0d1b 0200     		.2byte	0x2
 8841 0d1d 32       		.byte	0x32
 8842 0d1e 9F       		.byte	0x9f
 8843 0d1f 4A030000 		.4byte	.LVL171
 8844 0d23 5A030000 		.4byte	.LVL174
 8845 0d27 0200     		.2byte	0x2
 8846 0d29 91       		.byte	0x91
 8847 0d2a 48       		.sleb128 -56
 8848 0d2b 5A030000 		.4byte	.LVL174
 8849 0d2f 6E030000 		.4byte	.LVL176
 8850 0d33 0200     		.2byte	0x2
 8851 0d35 30       		.byte	0x30
 8852 0d36 9F       		.byte	0x9f
 8853 0d37 6E030000 		.4byte	.LVL176
 8854 0d3b FC030000 		.4byte	.LVL184
 8855 0d3f 0200     		.2byte	0x2
 8856 0d41 91       		.byte	0x91
 8857 0d42 48       		.sleb128 -56
 8858 0d43 FC030000 		.4byte	.LVL184
 8859 0d47 08040000 		.4byte	.LVL185
 8860 0d4b 0200     		.2byte	0x2
 8861 0d4d 31       		.byte	0x31
 8862 0d4e 9F       		.byte	0x9f
 8863 0d4f 08040000 		.4byte	.LVL185
 8864 0d53 94040000 		.4byte	.LVL193
 8865 0d57 0200     		.2byte	0x2
 8866 0d59 91       		.byte	0x91
 8867 0d5a 48       		.sleb128 -56
 8868 0d5b 94040000 		.4byte	.LVL193
 8869 0d5f 9A040000 		.4byte	.LVL194
 8870 0d63 0200     		.2byte	0x2
 8871 0d65 30       		.byte	0x30
 8872 0d66 9F       		.byte	0x9f
 8873 0d67 9A040000 		.4byte	.LVL194
 8874 0d6b 24050000 		.4byte	.LVL202
 8875 0d6f 0200     		.2byte	0x2
ARM GAS  /tmp/ccd61yKH.s 			page 157


 8876 0d71 91       		.byte	0x91
 8877 0d72 48       		.sleb128 -56
 8878 0d73 24050000 		.4byte	.LVL202
 8879 0d77 2A050000 		.4byte	.LVL203
 8880 0d7b 0200     		.2byte	0x2
 8881 0d7d 32       		.byte	0x32
 8882 0d7e 9F       		.byte	0x9f
 8883 0d7f 2A050000 		.4byte	.LVL203
 8884 0d83 B2050000 		.4byte	.LVL208
 8885 0d87 0200     		.2byte	0x2
 8886 0d89 91       		.byte	0x91
 8887 0d8a 48       		.sleb128 -56
 8888 0d8b B2050000 		.4byte	.LVL208
 8889 0d8f BA050000 		.4byte	.LVL210
 8890 0d93 0200     		.2byte	0x2
 8891 0d95 31       		.byte	0x31
 8892 0d96 9F       		.byte	0x9f
 8893 0d97 BA050000 		.4byte	.LVL210
 8894 0d9b 30060000 		.4byte	.LVL216
 8895 0d9f 0200     		.2byte	0x2
 8896 0da1 91       		.byte	0x91
 8897 0da2 48       		.sleb128 -56
 8898 0da3 30060000 		.4byte	.LVL216
 8899 0da7 4C060000 		.4byte	.LVL219
 8900 0dab 0200     		.2byte	0x2
 8901 0dad 30       		.byte	0x30
 8902 0dae 9F       		.byte	0x9f
 8903 0daf 4C060000 		.4byte	.LVL219
 8904 0db3 D2060000 		.4byte	.LVL227
 8905 0db7 0200     		.2byte	0x2
 8906 0db9 91       		.byte	0x91
 8907 0dba 48       		.sleb128 -56
 8908 0dbb D2060000 		.4byte	.LVL227
 8909 0dbf D8060000 		.4byte	.LVL228
 8910 0dc3 0200     		.2byte	0x2
 8911 0dc5 32       		.byte	0x32
 8912 0dc6 9F       		.byte	0x9f
 8913 0dc7 D8060000 		.4byte	.LVL228
 8914 0dcb 48070000 		.4byte	.LVL234
 8915 0dcf 0200     		.2byte	0x2
 8916 0dd1 91       		.byte	0x91
 8917 0dd2 48       		.sleb128 -56
 8918 0dd3 48070000 		.4byte	.LVL234
 8919 0dd7 64070000 		.4byte	.LVL237
 8920 0ddb 0200     		.2byte	0x2
 8921 0ddd 31       		.byte	0x31
 8922 0dde 9F       		.byte	0x9f
 8923 0ddf 64070000 		.4byte	.LVL237
 8924 0de3 EA070000 		.4byte	.LVL242
 8925 0de7 0200     		.2byte	0x2
 8926 0de9 91       		.byte	0x91
 8927 0dea 48       		.sleb128 -56
 8928 0deb EA070000 		.4byte	.LVL242
 8929 0def F2070000 		.4byte	.LVL244
 8930 0df3 0200     		.2byte	0x2
 8931 0df5 30       		.byte	0x30
 8932 0df6 9F       		.byte	0x9f
ARM GAS  /tmp/ccd61yKH.s 			page 158


 8933 0df7 F2070000 		.4byte	.LVL244
 8934 0dfb 30080000 		.4byte	.LFE126
 8935 0dff 0200     		.2byte	0x2
 8936 0e01 91       		.byte	0x91
 8937 0e02 48       		.sleb128 -56
 8938 0e03 00000000 		.4byte	0
 8939 0e07 00000000 		.4byte	0
 8940              	.LLST32:
 8941 0e0b 1C000000 		.4byte	.LVL138
 8942 0e0f 2A000000 		.4byte	.LVL139
 8943 0e13 0200     		.2byte	0x2
 8944 0e15 30       		.byte	0x30
 8945 0e16 9F       		.byte	0x9f
 8946 0e17 2A000000 		.4byte	.LVL139
 8947 0e1b 3E030000 		.4byte	.LVL167
 8948 0e1f 0100     		.2byte	0x1
 8949 0e21 5B       		.byte	0x5b
 8950 0e22 3E030000 		.4byte	.LVL167
 8951 0e26 40030000 		.4byte	.LVL168
 8952 0e2a 0300     		.2byte	0x3
 8953 0e2c 73       		.byte	0x73
 8954 0e2d 7F       		.sleb128 -1
 8955 0e2e 9F       		.byte	0x9f
 8956 0e2f 46030000 		.4byte	.LVL170
 8957 0e33 4E030000 		.4byte	.LVL172
 8958 0e37 0100     		.2byte	0x1
 8959 0e39 5B       		.byte	0x5b
 8960 0e3a 5A030000 		.4byte	.LVL174
 8961 0e3e 6E030000 		.4byte	.LVL176
 8962 0e42 0200     		.2byte	0x2
 8963 0e44 30       		.byte	0x30
 8964 0e45 9F       		.byte	0x9f
 8965 0e46 6E030000 		.4byte	.LVL176
 8966 0e4a F2030000 		.4byte	.LVL181
 8967 0e4e 0100     		.2byte	0x1
 8968 0e50 5B       		.byte	0x5b
 8969 0e51 F2030000 		.4byte	.LVL181
 8970 0e55 F6030000 		.4byte	.LVL182
 8971 0e59 0300     		.2byte	0x3
 8972 0e5b 73       		.byte	0x73
 8973 0e5c 7F       		.sleb128 -1
 8974 0e5d 9F       		.byte	0x9f
 8975 0e5e FC030000 		.4byte	.LVL184
 8976 0e62 8A040000 		.4byte	.LVL190
 8977 0e66 0100     		.2byte	0x1
 8978 0e68 5B       		.byte	0x5b
 8979 0e69 8A040000 		.4byte	.LVL190
 8980 0e6d 8E040000 		.4byte	.LVL191
 8981 0e71 0300     		.2byte	0x3
 8982 0e73 73       		.byte	0x73
 8983 0e74 7F       		.sleb128 -1
 8984 0e75 9F       		.byte	0x9f
 8985 0e76 94040000 		.4byte	.LVL193
 8986 0e7a 1A050000 		.4byte	.LVL199
 8987 0e7e 0100     		.2byte	0x1
 8988 0e80 5B       		.byte	0x5b
 8989 0e81 1A050000 		.4byte	.LVL199
ARM GAS  /tmp/ccd61yKH.s 			page 159


 8990 0e85 1E050000 		.4byte	.LVL200
 8991 0e89 0300     		.2byte	0x3
 8992 0e8b 73       		.byte	0x73
 8993 0e8c 7F       		.sleb128 -1
 8994 0e8d 9F       		.byte	0x9f
 8995 0e8e 24050000 		.4byte	.LVL202
 8996 0e92 B8050000 		.4byte	.LVL209
 8997 0e96 0100     		.2byte	0x1
 8998 0e98 5B       		.byte	0x5b
 8999 0e99 B8050000 		.4byte	.LVL209
 9000 0e9d BA050000 		.4byte	.LVL210
 9001 0ea1 0100     		.2byte	0x1
 9002 0ea3 53       		.byte	0x53
 9003 0ea4 BA050000 		.4byte	.LVL210
 9004 0ea8 44060000 		.4byte	.LVL217
 9005 0eac 0100     		.2byte	0x1
 9006 0eae 5B       		.byte	0x5b
 9007 0eaf 44060000 		.4byte	.LVL217
 9008 0eb3 46060000 		.4byte	.LVL218
 9009 0eb7 0100     		.2byte	0x1
 9010 0eb9 53       		.byte	0x53
 9011 0eba 46060000 		.4byte	.LVL218
 9012 0ebe C8060000 		.4byte	.LVL224
 9013 0ec2 0100     		.2byte	0x1
 9014 0ec4 5B       		.byte	0x5b
 9015 0ec5 C8060000 		.4byte	.LVL224
 9016 0ec9 CC060000 		.4byte	.LVL225
 9017 0ecd 0300     		.2byte	0x3
 9018 0ecf 73       		.byte	0x73
 9019 0ed0 7F       		.sleb128 -1
 9020 0ed1 9F       		.byte	0x9f
 9021 0ed2 D2060000 		.4byte	.LVL227
 9022 0ed6 5C070000 		.4byte	.LVL235
 9023 0eda 0100     		.2byte	0x1
 9024 0edc 5B       		.byte	0x5b
 9025 0edd 5C070000 		.4byte	.LVL235
 9026 0ee1 5E070000 		.4byte	.LVL236
 9027 0ee5 0100     		.2byte	0x1
 9028 0ee7 53       		.byte	0x53
 9029 0ee8 5E070000 		.4byte	.LVL236
 9030 0eec F0070000 		.4byte	.LVL243
 9031 0ef0 0100     		.2byte	0x1
 9032 0ef2 5B       		.byte	0x5b
 9033 0ef3 F0070000 		.4byte	.LVL243
 9034 0ef7 F2070000 		.4byte	.LVL244
 9035 0efb 0100     		.2byte	0x1
 9036 0efd 53       		.byte	0x53
 9037 0efe F2070000 		.4byte	.LVL244
 9038 0f02 30080000 		.4byte	.LFE126
 9039 0f06 0100     		.2byte	0x1
 9040 0f08 5B       		.byte	0x5b
 9041 0f09 00000000 		.4byte	0
 9042 0f0d 00000000 		.4byte	0
 9043              	.LLST33:
 9044 0f11 B4020000 		.4byte	.LVL162
 9045 0f15 D3020000 		.4byte	.LVL163-1
 9046 0f19 0500     		.2byte	0x5
ARM GAS  /tmp/ccd61yKH.s 			page 160


 9047 0f1b 03       		.byte	0x3
 9048 0f1c 52000000 		.4byte	unlocker_rings+82
 9049 0f20 D3020000 		.4byte	.LVL163-1
 9050 0f24 4A030000 		.4byte	.LVL171
 9051 0f28 0100     		.2byte	0x1
 9052 0f2a 57       		.byte	0x57
 9053 0f2b 6E030000 		.4byte	.LVL176
 9054 0f2f 8D030000 		.4byte	.LVL177-1
 9055 0f33 0500     		.2byte	0x5
 9056 0f35 03       		.byte	0x3
 9057 0f36 48000000 		.4byte	unlocker_rings+72
 9058 0f3a 8D030000 		.4byte	.LVL177-1
 9059 0f3e 08040000 		.4byte	.LVL185
 9060 0f42 0100     		.2byte	0x1
 9061 0f44 57       		.byte	0x57
 9062 0f45 08040000 		.4byte	.LVL185
 9063 0f49 27040000 		.4byte	.LVL186-1
 9064 0f4d 0500     		.2byte	0x5
 9065 0f4f 03       		.byte	0x3
 9066 0f50 3E000000 		.4byte	unlocker_rings+62
 9067 0f54 27040000 		.4byte	.LVL186-1
 9068 0f58 9A040000 		.4byte	.LVL194
 9069 0f5c 0100     		.2byte	0x1
 9070 0f5e 57       		.byte	0x57
 9071 0f5f 9A040000 		.4byte	.LVL194
 9072 0f63 B9040000 		.4byte	.LVL195-1
 9073 0f67 0500     		.2byte	0x5
 9074 0f69 03       		.byte	0x3
 9075 0f6a 34000000 		.4byte	unlocker_rings+52
 9076 0f6e B9040000 		.4byte	.LVL195-1
 9077 0f72 2A050000 		.4byte	.LVL203
 9078 0f76 0100     		.2byte	0x1
 9079 0f78 57       		.byte	0x57
 9080 0f79 2A050000 		.4byte	.LVL203
 9081 0f7d 49050000 		.4byte	.LVL204-1
 9082 0f81 0500     		.2byte	0x5
 9083 0f83 03       		.byte	0x3
 9084 0f84 2A000000 		.4byte	unlocker_rings+42
 9085 0f88 49050000 		.4byte	.LVL204-1
 9086 0f8c BA050000 		.4byte	.LVL210
 9087 0f90 0100     		.2byte	0x1
 9088 0f92 57       		.byte	0x57
 9089 0f93 BA050000 		.4byte	.LVL210
 9090 0f97 D9050000 		.4byte	.LVL211-1
 9091 0f9b 0500     		.2byte	0x5
 9092 0f9d 03       		.byte	0x3
 9093 0f9e 20000000 		.4byte	unlocker_rings+32
 9094 0fa2 D9050000 		.4byte	.LVL211-1
 9095 0fa6 4C060000 		.4byte	.LVL219
 9096 0faa 0100     		.2byte	0x1
 9097 0fac 57       		.byte	0x57
 9098 0fad 4C060000 		.4byte	.LVL219
 9099 0fb1 69060000 		.4byte	.LVL220-1
 9100 0fb5 0500     		.2byte	0x5
 9101 0fb7 03       		.byte	0x3
 9102 0fb8 16000000 		.4byte	unlocker_rings+22
 9103 0fbc 69060000 		.4byte	.LVL220-1
ARM GAS  /tmp/ccd61yKH.s 			page 161


 9104 0fc0 D8060000 		.4byte	.LVL228
 9105 0fc4 0100     		.2byte	0x1
 9106 0fc6 57       		.byte	0x57
 9107 0fc7 D8060000 		.4byte	.LVL228
 9108 0fcb F5060000 		.4byte	.LVL229-1
 9109 0fcf 0500     		.2byte	0x5
 9110 0fd1 03       		.byte	0x3
 9111 0fd2 0C000000 		.4byte	unlocker_rings+12
 9112 0fd6 F5060000 		.4byte	.LVL229-1
 9113 0fda 64070000 		.4byte	.LVL237
 9114 0fde 0100     		.2byte	0x1
 9115 0fe0 57       		.byte	0x57
 9116 0fe1 64070000 		.4byte	.LVL237
 9117 0fe5 83070000 		.4byte	.LVL238-1
 9118 0fe9 0500     		.2byte	0x5
 9119 0feb 03       		.byte	0x3
 9120 0fec 02000000 		.4byte	unlocker_rings+2
 9121 0ff0 83070000 		.4byte	.LVL238-1
 9122 0ff4 F2070000 		.4byte	.LVL244
 9123 0ff8 0200     		.2byte	0x2
 9124 0ffa 91       		.byte	0x91
 9125 0ffb 54       		.sleb128 -44
 9126 0ffc 00000000 		.4byte	0
 9127 1000 00000000 		.4byte	0
 9128              	.LLST34:
 9129 1004 B4020000 		.4byte	.LVL162
 9130 1008 D3020000 		.4byte	.LVL163-1
 9131 100c 0500     		.2byte	0x5
 9132 100e 03       		.byte	0x3
 9133 100f 50000000 		.4byte	unlocker_rings+80
 9134 1013 6E030000 		.4byte	.LVL176
 9135 1017 8D030000 		.4byte	.LVL177-1
 9136 101b 0500     		.2byte	0x5
 9137 101d 03       		.byte	0x3
 9138 101e 46000000 		.4byte	unlocker_rings+70
 9139 1022 08040000 		.4byte	.LVL185
 9140 1026 27040000 		.4byte	.LVL186-1
 9141 102a 0500     		.2byte	0x5
 9142 102c 03       		.byte	0x3
 9143 102d 3C000000 		.4byte	unlocker_rings+60
 9144 1031 9A040000 		.4byte	.LVL194
 9145 1035 B9040000 		.4byte	.LVL195-1
 9146 1039 0500     		.2byte	0x5
 9147 103b 03       		.byte	0x3
 9148 103c 32000000 		.4byte	unlocker_rings+50
 9149 1040 2A050000 		.4byte	.LVL203
 9150 1044 49050000 		.4byte	.LVL204-1
 9151 1048 0500     		.2byte	0x5
 9152 104a 03       		.byte	0x3
 9153 104b 28000000 		.4byte	unlocker_rings+40
 9154 104f BA050000 		.4byte	.LVL210
 9155 1053 D9050000 		.4byte	.LVL211-1
 9156 1057 0500     		.2byte	0x5
 9157 1059 03       		.byte	0x3
 9158 105a 1E000000 		.4byte	unlocker_rings+30
 9159 105e 4C060000 		.4byte	.LVL219
 9160 1062 69060000 		.4byte	.LVL220-1
ARM GAS  /tmp/ccd61yKH.s 			page 162


 9161 1066 0500     		.2byte	0x5
 9162 1068 03       		.byte	0x3
 9163 1069 14000000 		.4byte	unlocker_rings+20
 9164 106d D8060000 		.4byte	.LVL228
 9165 1071 F5060000 		.4byte	.LVL229-1
 9166 1075 0500     		.2byte	0x5
 9167 1077 03       		.byte	0x3
 9168 1078 0A000000 		.4byte	unlocker_rings+10
 9169 107c 64070000 		.4byte	.LVL237
 9170 1080 83070000 		.4byte	.LVL238-1
 9171 1084 0500     		.2byte	0x5
 9172 1086 03       		.byte	0x3
 9173 1087 00000000 		.4byte	unlocker_rings
 9174 108b 00000000 		.4byte	0
 9175 108f 00000000 		.4byte	0
 9176              	.LLST35:
 9177 1093 00000000 		.4byte	.LVL256
 9178 1097 05000000 		.4byte	.LVL257-1
 9179 109b 0100     		.2byte	0x1
 9180 109d 50       		.byte	0x50
 9181 109e 05000000 		.4byte	.LVL257-1
 9182 10a2 06000000 		.4byte	.LFE127
 9183 10a6 0400     		.2byte	0x4
 9184 10a8 F3       		.byte	0xf3
 9185 10a9 01       		.uleb128 0x1
 9186 10aa 50       		.byte	0x50
 9187 10ab 9F       		.byte	0x9f
 9188 10ac 00000000 		.4byte	0
 9189 10b0 00000000 		.4byte	0
 9190              	.LLST36:
 9191 10b4 00000000 		.4byte	.LVL258
 9192 10b8 05000000 		.4byte	.LVL259-1
 9193 10bc 0100     		.2byte	0x1
 9194 10be 50       		.byte	0x50
 9195 10bf 05000000 		.4byte	.LVL259-1
 9196 10c3 06000000 		.4byte	.LFE128
 9197 10c7 0400     		.2byte	0x4
 9198 10c9 F3       		.byte	0xf3
 9199 10ca 01       		.uleb128 0x1
 9200 10cb 50       		.byte	0x50
 9201 10cc 9F       		.byte	0x9f
 9202 10cd 00000000 		.4byte	0
 9203 10d1 00000000 		.4byte	0
 9204              		.section	.debug_aranges,"",%progbits
 9205 0000 4C000000 		.4byte	0x4c
 9206 0004 0200     		.2byte	0x2
 9207 0006 00000000 		.4byte	.Ldebug_info0
 9208 000a 04       		.byte	0x4
 9209 000b 00       		.byte	0
 9210 000c 0000     		.2byte	0
 9211 000e 0000     		.2byte	0
 9212 0010 00000000 		.4byte	.LFB122
 9213 0014 6C020000 		.4byte	.LFE122-.LFB122
 9214 0018 00000000 		.4byte	.LFB123
 9215 001c D8010000 		.4byte	.LFE123-.LFB123
 9216 0020 00000000 		.4byte	.LFB124
 9217 0024 D8010000 		.4byte	.LFE124-.LFB124
ARM GAS  /tmp/ccd61yKH.s 			page 163


 9218 0028 00000000 		.4byte	.LFB125
 9219 002c 36030000 		.4byte	.LFE125-.LFB125
 9220 0030 00000000 		.4byte	.LFB126
 9221 0034 30080000 		.4byte	.LFE126-.LFB126
 9222 0038 00000000 		.4byte	.LFB127
 9223 003c 06000000 		.4byte	.LFE127-.LFB127
 9224 0040 00000000 		.4byte	.LFB128
 9225 0044 06000000 		.4byte	.LFE128-.LFB128
 9226 0048 00000000 		.4byte	0
 9227 004c 00000000 		.4byte	0
 9228              		.section	.debug_ranges,"",%progbits
 9229              	.Ldebug_ranges0:
 9230 0000 12000000 		.4byte	.LBB10
 9231 0004 D0010000 		.4byte	.LBE10
 9232 0008 D4010000 		.4byte	.LBB13
 9233 000c D8010000 		.4byte	.LBE13
 9234 0010 00000000 		.4byte	0
 9235 0014 00000000 		.4byte	0
 9236 0018 12000000 		.4byte	.LBB14
 9237 001c D0010000 		.4byte	.LBE14
 9238 0020 D4010000 		.4byte	.LBB17
 9239 0024 D8010000 		.4byte	.LBE17
 9240 0028 00000000 		.4byte	0
 9241 002c 00000000 		.4byte	0
 9242 0030 48000000 		.4byte	.LBB18
 9243 0034 50000000 		.4byte	.LBE18
 9244 0038 58000000 		.4byte	.LBB43
 9245 003c 60000000 		.4byte	.LBE43
 9246 0040 68000000 		.4byte	.LBB44
 9247 0044 8A000000 		.4byte	.LBE44
 9248 0048 A4000000 		.4byte	.LBB45
 9249 004c AA000000 		.4byte	.LBE45
 9250 0050 AE000000 		.4byte	.LBB46
 9251 0054 B6000000 		.4byte	.LBE46
 9252 0058 BE000000 		.4byte	.LBB47
 9253 005c E0000000 		.4byte	.LBE47
 9254 0060 FC000000 		.4byte	.LBB48
 9255 0064 00010000 		.4byte	.LBE48
 9256 0068 04010000 		.4byte	.LBB49
 9257 006c 0C010000 		.4byte	.LBE49
 9258 0070 16010000 		.4byte	.LBB50
 9259 0074 3E010000 		.4byte	.LBE50
 9260 0078 46010000 		.4byte	.LBB51
 9261 007c 4E010000 		.4byte	.LBE51
 9262 0080 52010000 		.4byte	.LBB52
 9263 0084 56010000 		.4byte	.LBE52
 9264 0088 5A010000 		.4byte	.LBB53
 9265 008c 5E010000 		.4byte	.LBE53
 9266 0090 68010000 		.4byte	.LBB54
 9267 0094 90010000 		.4byte	.LBE54
 9268 0098 9C010000 		.4byte	.LBB55
 9269 009c A4010000 		.4byte	.LBE55
 9270 00a0 B2010000 		.4byte	.LBB56
 9271 00a4 D6010000 		.4byte	.LBE56
 9272 00a8 E2010000 		.4byte	.LBB57
 9273 00ac EA010000 		.4byte	.LBE57
 9274 00b0 F8010000 		.4byte	.LBB58
ARM GAS  /tmp/ccd61yKH.s 			page 164


 9275 00b4 1C020000 		.4byte	.LBE58
 9276 00b8 26020000 		.4byte	.LBB59
 9277 00bc 2E020000 		.4byte	.LBE59
 9278 00c0 32020000 		.4byte	.LBB60
 9279 00c4 3A020000 		.4byte	.LBE60
 9280 00c8 4C020000 		.4byte	.LBB61
 9281 00cc 70020000 		.4byte	.LBE61
 9282 00d0 7C020000 		.4byte	.LBB62
 9283 00d4 84020000 		.4byte	.LBE62
 9284 00d8 96020000 		.4byte	.LBB63
 9285 00dc BA020000 		.4byte	.LBE63
 9286 00e0 C6020000 		.4byte	.LBB64
 9287 00e4 CE020000 		.4byte	.LBE64
 9288 00e8 E0020000 		.4byte	.LBB65
 9289 00ec FE020000 		.4byte	.LBE65
 9290 00f0 00000000 		.4byte	0
 9291 00f4 00000000 		.4byte	0
 9292 00f8 B4020000 		.4byte	.LBB66
 9293 00fc C0020000 		.4byte	.LBE66
 9294 0100 C2020000 		.4byte	.LBB93
 9295 0104 C4020000 		.4byte	.LBE93
 9296 0108 C8020000 		.4byte	.LBB94
 9297 010c F8020000 		.4byte	.LBE94
 9298 0110 6E030000 		.4byte	.LBB95
 9299 0114 7A030000 		.4byte	.LBE95
 9300 0118 7C030000 		.4byte	.LBB96
 9301 011c 7E030000 		.4byte	.LBE96
 9302 0120 82030000 		.4byte	.LBB97
 9303 0124 B2030000 		.4byte	.LBE97
 9304 0128 08040000 		.4byte	.LBB98
 9305 012c 14040000 		.4byte	.LBE98
 9306 0130 16040000 		.4byte	.LBB99
 9307 0134 18040000 		.4byte	.LBE99
 9308 0138 1C040000 		.4byte	.LBB100
 9309 013c 4C040000 		.4byte	.LBE100
 9310 0140 9A040000 		.4byte	.LBB101
 9311 0144 A6040000 		.4byte	.LBE101
 9312 0148 A8040000 		.4byte	.LBB102
 9313 014c AA040000 		.4byte	.LBE102
 9314 0150 AE040000 		.4byte	.LBB103
 9315 0154 DE040000 		.4byte	.LBE103
 9316 0158 2A050000 		.4byte	.LBB104
 9317 015c 36050000 		.4byte	.LBE104
 9318 0160 38050000 		.4byte	.LBB105
 9319 0164 3A050000 		.4byte	.LBE105
 9320 0168 3E050000 		.4byte	.LBB106
 9321 016c 6E050000 		.4byte	.LBE106
 9322 0170 BA050000 		.4byte	.LBB107
 9323 0174 C6050000 		.4byte	.LBE107
 9324 0178 C8050000 		.4byte	.LBB108
 9325 017c CA050000 		.4byte	.LBE108
 9326 0180 CE050000 		.4byte	.LBB109
 9327 0184 FE050000 		.4byte	.LBE109
 9328 0188 4C060000 		.4byte	.LBB110
 9329 018c 58060000 		.4byte	.LBE110
 9330 0190 5A060000 		.4byte	.LBB111
 9331 0194 5C060000 		.4byte	.LBE111
ARM GAS  /tmp/ccd61yKH.s 			page 165


 9332 0198 5E060000 		.4byte	.LBB112
 9333 019c 8E060000 		.4byte	.LBE112
 9334 01a0 D8060000 		.4byte	.LBB113
 9335 01a4 E4060000 		.4byte	.LBE113
 9336 01a8 E6060000 		.4byte	.LBB114
 9337 01ac E8060000 		.4byte	.LBE114
 9338 01b0 EA060000 		.4byte	.LBB115
 9339 01b4 1A070000 		.4byte	.LBE115
 9340 01b8 64070000 		.4byte	.LBB116
 9341 01bc 6E070000 		.4byte	.LBE116
 9342 01c0 72070000 		.4byte	.LBB117
 9343 01c4 A8070000 		.4byte	.LBE117
 9344 01c8 00000000 		.4byte	0
 9345 01cc 00000000 		.4byte	0
 9346 01d0 00000000 		.4byte	.LFB122
 9347 01d4 6C020000 		.4byte	.LFE122
 9348 01d8 00000000 		.4byte	.LFB123
 9349 01dc D8010000 		.4byte	.LFE123
 9350 01e0 00000000 		.4byte	.LFB124
 9351 01e4 D8010000 		.4byte	.LFE124
 9352 01e8 00000000 		.4byte	.LFB125
 9353 01ec 36030000 		.4byte	.LFE125
 9354 01f0 00000000 		.4byte	.LFB126
 9355 01f4 30080000 		.4byte	.LFE126
 9356 01f8 00000000 		.4byte	.LFB127
 9357 01fc 06000000 		.4byte	.LFE127
 9358 0200 00000000 		.4byte	.LFB128
 9359 0204 06000000 		.4byte	.LFE128
 9360 0208 00000000 		.4byte	0
 9361 020c 00000000 		.4byte	0
 9362              		.section	.debug_line,"",%progbits
 9363              	.Ldebug_line0:
 9364 0000 95050000 		.section	.debug_str,"MS",%progbits,1
 9364      02008801 
 9364      00000201 
 9364      FB0E0D00 
 9364      01010101 
 9365              	.LASF70:
 9366 0000 64726177 		.ascii	"drawRingsError\000"
 9366      52696E67 
 9366      73457272 
 9366      6F7200
 9367              	.LASF29:
 9368 000f 706F7765 		.ascii	"powerOff\000"
 9368      724F6666 
 9368      00
 9369              	.LASF80:
 9370 0018 73617665 		.ascii	"save_sequence\000"
 9370      5F736571 
 9370      75656E63 
 9370      6500
 9371              	.LASF76:
 9372 0026 73746172 		.ascii	"start_y\000"
 9372      745F7900 
 9373              	.LASF5:
 9374 002e 73686F72 		.ascii	"short int\000"
 9374      7420696E 
ARM GAS  /tmp/ccd61yKH.s 			page 166


 9374      7400
 9375              	.LASF17:
 9376 0038 73697A65 		.ascii	"sizetype\000"
 9376      74797065 
 9376      00
 9377              	.LASF94:
 9378 0041 67646973 		.ascii	"gdispClear\000"
 9378      70436C65 
 9378      617200
 9379              	.LASF56:
 9380 004c 63757272 		.ascii	"current_buttons\000"
 9380      656E745F 
 9380      62757474 
 9380      6F6E7300 
 9381              	.LASF27:
 9382 005c 6F726965 		.ascii	"orientation\000"
 9382      6E746174 
 9382      696F6E00 
 9383              	.LASF49:
 9384 0068 474D4554 		.ascii	"GMETA_MOUSE_UP\000"
 9384      415F4D4F 
 9384      5553455F 
 9384      555000
 9385              	.LASF44:
 9386 0077 47444953 		.ascii	"GDISPDriver\000"
 9386      50447269 
 9386      76657200 
 9387              	.LASF33:
 9388 0083 67646973 		.ascii	"gdisp_powermode_t\000"
 9388      705F706F 
 9388      7765726D 
 9388      6F64655F 
 9388      7400
 9389              	.LASF86:
 9390 0095 64697370 		.ascii	"displayUnlockerSetup\000"
 9390      6C617955 
 9390      6E6C6F63 
 9390      6B657253 
 9390      65747570 
 9391              	.LASF95:
 9392 00aa 474E5520 		.ascii	"GNU C 4.7.4 20130613 (release) [ARM/embedded-4_7-br"
 9392      4320342E 
 9392      372E3420 
 9392      32303133 
 9392      30363133 
 9393 00dd 616E6368 		.ascii	"anch revision 200083]\000"
 9393      20726576 
 9393      6973696F 
 9393      6E203230 
 9393      30303833 
 9394              	.LASF57:
 9395 00f3 6C617374 		.ascii	"last_buttons\000"
 9395      5F627574 
 9395      746F6E73 
 9395      00
 9396              	.LASF43:
 9397 0100 636C6970 		.ascii	"clipy1\000"
ARM GAS  /tmp/ccd61yKH.s 			page 167


 9397      793100
 9398              	.LASF92:
 9399 0107 67646973 		.ascii	"gdispDrawLine\000"
 9399      70447261 
 9399      774C696E 
 9399      6500
 9400              	.LASF23:
 9401 0115 47444953 		.ascii	"GDISP_ROTATE_90\000"
 9401      505F524F 
 9401      54415445 
 9401      5F393000 
 9402              	.LASF45:
 9403 0125 636F6C6F 		.ascii	"color_t\000"
 9403      725F7400 
 9404              	.LASF77:
 9405 012d 64656C74 		.ascii	"delta\000"
 9405      6100
 9406              	.LASF50:
 9407 0133 474D4554 		.ascii	"GMETA_MOUSE_CLICK\000"
 9407      415F4D4F 
 9407      5553455F 
 9407      434C4943 
 9407      4B00
 9408              	.LASF3:
 9409 0145 75696E74 		.ascii	"uint8_t\000"
 9409      385F7400 
 9410              	.LASF66:
 9411 014d 64726177 		.ascii	"drawRingOk\000"
 9411      52696E67 
 9411      4F6B00
 9412              	.LASF68:
 9413 0158 64726177 		.ascii	"drawRingHL\000"
 9413      52696E67 
 9413      484C00
 9414              	.LASF84:
 9415 0163 6C617374 		.ascii	"last_j\000"
 9415      5F6A00
 9416              	.LASF63:
 9417 016a 70726576 		.ascii	"prev_x\000"
 9417      5F7800
 9418              	.LASF10:
 9419 0171 75696E74 		.ascii	"uint32_t\000"
 9419      33325F74 
 9419      00
 9420              	.LASF61:
 9421 017a 63686563 		.ascii	"checked\000"
 9421      6B656400 
 9422              	.LASF74:
 9423 0182 77696474 		.ascii	"width\000"
 9423      6800
 9424              	.LASF90:
 9425 0188 756E6C6F 		.ascii	"unlocker_rings\000"
 9425      636B6572 
 9425      5F72696E 
 9425      677300
 9426              	.LASF81:
 9427 0197 6C617374 		.ascii	"last_x\000"
ARM GAS  /tmp/ccd61yKH.s 			page 168


 9427      5F7800
 9428              	.LASF82:
 9429 019e 6C617374 		.ascii	"last_y\000"
 9429      5F7900
 9430              	.LASF19:
 9431 01a5 64656C61 		.ascii	"delaytime_t\000"
 9431      7974696D 
 9431      655F7400 
 9432              	.LASF12:
 9433 01b1 6C6F6E67 		.ascii	"long long int\000"
 9433      206C6F6E 
 9433      6720696E 
 9433      7400
 9434              	.LASF62:
 9435 01bf 6861735F 		.ascii	"has_prev\000"
 9435      70726576 
 9435      00
 9436              	.LASF25:
 9437 01c8 47444953 		.ascii	"GDISP_ROTATE_270\000"
 9437      505F524F 
 9437      54415445 
 9437      5F323730 
 9437      00
 9438              	.LASF69:
 9439 01d9 72656472 		.ascii	"redrawLines\000"
 9439      61774C69 
 9439      6E657300 
 9440              	.LASF18:
 9441 01e5 63686172 		.ascii	"char\000"
 9441      00
 9442              	.LASF22:
 9443 01ea 47444953 		.ascii	"GDISP_ROTATE_0\000"
 9443      505F524F 
 9443      54415445 
 9443      5F3000
 9444              	.LASF9:
 9445 01f9 6C6F6E67 		.ascii	"long int\000"
 9445      20696E74 
 9445      00
 9446              	.LASF72:
 9447 0202 72657365 		.ascii	"resetRings\000"
 9447      7452696E 
 9447      677300
 9448              	.LASF91:
 9449 020d 756E6C6F 		.ascii	"unlock_sequence\000"
 9449      636B5F73 
 9449      65717565 
 9449      6E636500 
 9450              	.LASF75:
 9451 021d 73746172 		.ascii	"start_x\000"
 9451      745F7800 
 9452              	.LASF71:
 9453 0225 64726177 		.ascii	"drawRingsOk\000"
 9453      52696E67 
 9453      734F6B00 
 9454              	.LASF48:
 9455 0231 474D4554 		.ascii	"GMETA_MOUSE_DOWN\000"
ARM GAS  /tmp/ccd61yKH.s 			page 169


 9455      415F4D4F 
 9455      5553455F 
 9455      444F574E 
 9455      00
 9456              	.LASF51:
 9457 0242 474D4554 		.ascii	"GMETA_MOUSE_CXTCLICK\000"
 9457      415F4D4F 
 9457      5553455F 
 9457      43585443 
 9457      4C49434B 
 9458              	.LASF78:
 9459 0257 756E6C6F 		.ascii	"unlocker\000"
 9459      636B6572 
 9459      00
 9460              	.LASF83:
 9461 0260 6C617374 		.ascii	"last_i\000"
 9461      5F6900
 9462              	.LASF31:
 9463 0267 706F7765 		.ascii	"powerDeepSleep\000"
 9463      72446565 
 9463      70536C65 
 9463      657000
 9464              	.LASF2:
 9465 0276 756E7369 		.ascii	"unsigned char\000"
 9465      676E6564 
 9465      20636861 
 9465      7200
 9466              	.LASF37:
 9467 0284 506F7765 		.ascii	"Powermode\000"
 9467      726D6F64 
 9467      6500
 9468              	.LASF42:
 9469 028e 636C6970 		.ascii	"clipx1\000"
 9469      783100
 9470              	.LASF97:
 9471 0295 2F686F6D 		.ascii	"/home/witold/Dokumenty/arm/ChibiOS-master/APP/smtm3"
 9471      652F7769 
 9471      746F6C64 
 9471      2F446F6B 
 9471      756D656E 
 9472 02c8 3266345F 		.ascii	"2f4_lcd_ds18b20\000"
 9472      6C63645F 
 9472      64733138 
 9472      62323000 
 9473              	.LASF98:
 9474 02d8 67696E70 		.ascii	"ginputGetMouseStatus\000"
 9474      75744765 
 9474      744D6F75 
 9474      73655374 
 9474      61747573 
 9475              	.LASF96:
 9476 02ed 756E6C6F 		.ascii	"unlocker.c\000"
 9476      636B6572 
 9476      2E6300
 9477              	.LASF1:
 9478 02f8 7369676E 		.ascii	"signed char\000"
 9478      65642063 
ARM GAS  /tmp/ccd61yKH.s 			page 170


 9478      68617200 
 9479              	.LASF13:
 9480 0304 6C6F6E67 		.ascii	"long long unsigned int\000"
 9480      206C6F6E 
 9480      6720756E 
 9480      7369676E 
 9480      65642069 
 9481              	.LASF54:
 9482 031b 74797065 		.ascii	"type\000"
 9482      00
 9483              	.LASF73:
 9484 0320 68656967 		.ascii	"height\000"
 9484      687400
 9485              	.LASF0:
 9486 0327 756E7369 		.ascii	"unsigned int\000"
 9486      676E6564 
 9486      20696E74 
 9486      00
 9487              	.LASF99:
 9488 0334 67667853 		.ascii	"gfxSleepMilliseconds\000"
 9488      6C656570 
 9488      4D696C6C 
 9488      69736563 
 9488      6F6E6473 
 9489              	.LASF34:
 9490 0349 57696474 		.ascii	"Width\000"
 9490      6800
 9491              	.LASF55:
 9492 034f 696E7374 		.ascii	"instance\000"
 9492      616E6365 
 9492      00
 9493              	.LASF58:
 9494 0358 6D657461 		.ascii	"meta\000"
 9494      00
 9495              	.LASF20:
 9496 035d 47457665 		.ascii	"GEventType\000"
 9496      6E745479 
 9496      706500
 9497              	.LASF89:
 9498 0368 47444953 		.ascii	"GDISP\000"
 9498      5000
 9499              	.LASF7:
 9500 036e 73686F72 		.ascii	"short unsigned int\000"
 9500      7420756E 
 9500      7369676E 
 9500      65642069 
 9500      6E7400
 9501              	.LASF16:
 9502 0381 73797374 		.ascii	"systime_t\000"
 9502      696D655F 
 9502      7400
 9503              	.LASF28:
 9504 038b 706F7765 		.ascii	"powermode\000"
 9504      726D6F64 
 9504      6500
 9505              	.LASF6:
 9506 0395 75696E74 		.ascii	"uint16_t\000"
ARM GAS  /tmp/ccd61yKH.s 			page 171


 9506      31365F74 
 9506      00
 9507              	.LASF26:
 9508 039e 67646973 		.ascii	"gdisp_orientation_t\000"
 9508      705F6F72 
 9508      69656E74 
 9508      6174696F 
 9508      6E5F7400 
 9509              	.LASF8:
 9510 03b2 696E7433 		.ascii	"int32_t\000"
 9510      325F7400 
 9511              	.LASF36:
 9512 03ba 4F726965 		.ascii	"Orientation\000"
 9512      6E746174 
 9512      696F6E00 
 9513              	.LASF59:
 9514 03c6 47457665 		.ascii	"GEventMouse\000"
 9514      6E744D6F 
 9514      75736500 
 9515              	.LASF4:
 9516 03d2 696E7431 		.ascii	"int16_t\000"
 9516      365F7400 
 9517              	.LASF21:
 9518 03da 636F6F72 		.ascii	"coord_t\000"
 9518      645F7400 
 9519              	.LASF15:
 9520 03e2 5F426F6F 		.ascii	"_Bool\000"
 9520      6C00
 9521              	.LASF38:
 9522 03e8 4261636B 		.ascii	"Backlight\000"
 9522      6C696768 
 9522      7400
 9523              	.LASF11:
 9524 03f2 6C6F6E67 		.ascii	"long unsigned int\000"
 9524      20756E73 
 9524      69676E65 
 9524      6420696E 
 9524      7400
 9525              	.LASF41:
 9526 0404 636C6970 		.ascii	"clipy0\000"
 9526      793000
 9527              	.LASF32:
 9528 040b 706F7765 		.ascii	"powerOn\000"
 9528      724F6E00 
 9529              	.LASF35:
 9530 0413 48656967 		.ascii	"Height\000"
 9530      687400
 9531              	.LASF52:
 9532 041a 47444953 		.ascii	"GDISPDriver_t\000"
 9532      50447269 
 9532      7665725F 
 9532      7400
 9533              	.LASF65:
 9534 0428 64726177 		.ascii	"drawRingError\000"
 9534      52696E67 
 9534      4572726F 
 9534      7200
ARM GAS  /tmp/ccd61yKH.s 			page 172


 9535              	.LASF79:
 9536 0436 73656372 		.ascii	"secret_sequence\000"
 9536      65745F73 
 9536      65717565 
 9536      6E636500 
 9537              	.LASF39:
 9538 0446 436F6E74 		.ascii	"Contrast\000"
 9538      72617374 
 9538      00
 9539              	.LASF40:
 9540 044f 636C6970 		.ascii	"clipx0\000"
 9540      783000
 9541              	.LASF67:
 9542 0456 64726177 		.ascii	"drawRing\000"
 9542      52696E67 
 9542      00
 9543              	.LASF47:
 9544 045f 474D4554 		.ascii	"GMETA_NONE\000"
 9544      415F4E4F 
 9544      4E4500
 9545              	.LASF85:
 9546 046a 756E6C6F 		.ascii	"unlock_cnt\000"
 9546      636B5F63 
 9546      6E7400
 9547              	.LASF60:
 9548 0475 756E6C6F 		.ascii	"unlocker_rings_t\000"
 9548      636B6572 
 9548      5F72696E 
 9548      67735F74 
 9548      00
 9549              	.LASF46:
 9550 0486 474D6F75 		.ascii	"GMouseMeta_e\000"
 9550      73654D65 
 9550      74615F65 
 9550      00
 9551              	.LASF93:
 9552 0493 67646973 		.ascii	"gdispFillCircle\000"
 9552      7046696C 
 9552      6C436972 
 9552      636C6500 
 9553              	.LASF64:
 9554 04a3 70726576 		.ascii	"prev_y\000"
 9554      5F7900
 9555              	.LASF87:
 9556 04aa 64697370 		.ascii	"displayUnlocker\000"
 9556      6C617955 
 9556      6E6C6F63 
 9556      6B657200 
 9557              	.LASF88:
 9558 04ba 49544D5F 		.ascii	"ITM_RxBuffer\000"
 9558      52784275 
 9558      66666572 
 9558      00
 9559              	.LASF30:
 9560 04c7 706F7765 		.ascii	"powerSleep\000"
 9560      72536C65 
 9560      657000
ARM GAS  /tmp/ccd61yKH.s 			page 173


 9561              	.LASF53:
 9562 04d2 47457665 		.ascii	"GEventMouse_t\000"
 9562      6E744D6F 
 9562      7573655F 
 9562      7400
 9563              	.LASF24:
 9564 04e0 47444953 		.ascii	"GDISP_ROTATE_180\000"
 9564      505F524F 
 9564      54415445 
 9564      5F313830 
 9564      00
 9565              	.LASF14:
 9566 04f1 626F6F6C 		.ascii	"bool_t\000"
 9566      5F7400
 9567              		.ident	"GCC: (GNU Tools for ARM Embedded Processors) 4.7.4 20130613 (release) [ARM/embedded-4_7-br
ARM GAS  /tmp/ccd61yKH.s 			page 174


DEFINED SYMBOLS
                            *ABS*:00000000 unlocker.c
     /tmp/ccd61yKH.s:21     .text.redrawLines:00000000 $t
     /tmp/ccd61yKH.s:27     .text.redrawLines:00000000 redrawLines
     /tmp/ccd61yKH.s:334    .text.redrawLines:00000268 $d
     /tmp/ccd61yKH.s:339    .text.drawRingsError:00000000 $t
     /tmp/ccd61yKH.s:345    .text.drawRingsError:00000000 drawRingsError
     /tmp/ccd61yKH.s:2771   .bss.unlocker_rings:00000000 .LANCHOR0
     /tmp/ccd61yKH.s:587    .text.drawRingsOk:00000000 $t
     /tmp/ccd61yKH.s:593    .text.drawRingsOk:00000000 drawRingsOk
     /tmp/ccd61yKH.s:835    .text.resetRings:00000000 $t
     /tmp/ccd61yKH.s:841    .text.resetRings:00000000 resetRings
     /tmp/ccd61yKH.s:1416   .text.resetRings:00000308 $d
     /tmp/ccd61yKH.s:1422   .text.resetRings:00000314 $t
     /tmp/ccd61yKH.s:1440   .text.unlocker:00000000 $t
     /tmp/ccd61yKH.s:1446   .text.unlocker:00000000 unlocker
     /tmp/ccd61yKH.s:2778   .bss.unlock_sequence:00000000 .LANCHOR1
     /tmp/ccd61yKH.s:1576   .text.unlocker:000000d0 $d
     /tmp/ccd61yKH.s:1582   .text.unlocker:000000dc $t
     /tmp/ccd61yKH.s:2022   .text.unlocker:00000404 $d
     /tmp/ccd61yKH.s:2028   .text.unlocker:00000408 $t
     /tmp/ccd61yKH.s:2712   .text.displayUnlockerSetup:00000000 $t
     /tmp/ccd61yKH.s:2718   .text.displayUnlockerSetup:00000000 displayUnlockerSetup
     /tmp/ccd61yKH.s:2736   .text.displayUnlocker:00000000 $t
     /tmp/ccd61yKH.s:2742   .text.displayUnlocker:00000000 displayUnlocker
     /tmp/ccd61yKH.s:2781   .bss.unlock_sequence:00000000 unlock_sequence
     /tmp/ccd61yKH.s:2774   .bss.unlocker_rings:00000000 unlocker_rings
     /tmp/ccd61yKH.s:2767   .bss.ev:00000000 ev
     /tmp/ccd61yKH.s:2763   .bss.ev:00000000 $d
     /tmp/ccd61yKH.s:2770   .bss.unlocker_rings:00000000 $d
     /tmp/ccd61yKH.s:2777   .bss.unlock_sequence:00000000 $d
                     .debug_frame:00000010 $d
     /tmp/ccd61yKH.s:338    .text.redrawLines:0000026c $t

UNDEFINED SYMBOLS
gdispDrawLine
gdispFillCircle
gdispClear
GDISP
ginputGetMouseStatus
gfxSleepMilliseconds
