ARM GAS  /tmp/ccEzaYOi.s 			page 1


   1              		.syntax unified
   2              		.cpu cortex-m4
   3              		.eabi_attribute 27, 3
   4              		.eabi_attribute 28, 1
   5              		.fpu fpv4-sp-d16
   6              		.eabi_attribute 20, 1
   7              		.eabi_attribute 21, 1
   8              		.eabi_attribute 23, 3
   9              		.eabi_attribute 24, 1
  10              		.eabi_attribute 25, 1
  11              		.eabi_attribute 26, 1
  12              		.eabi_attribute 30, 2
  13              		.eabi_attribute 34, 1
  14              		.eabi_attribute 18, 4
  15              		.thumb
  16              		.file	"hal.c"
  17              		.text
  18              	.Ltext0:
  19              		.cfi_sections	.debug_frame
  20              		.section	.text.halInit,"ax",%progbits
  21              		.align	2
  22              		.p2align 4,,15
  23              		.global	halInit
  24              		.thumb
  25              		.thumb_func
  26              		.type	halInit, %function
  27              	halInit:
  28              	.LFB118:
  29              		.file 1 "../../os/hal/src/hal.c"
  30              		.loc 1 61 0
  31              		.cfi_startproc
  32              		@ args = 0, pretend = 0, frame = 0
  33              		@ frame_needed = 0, uses_anonymous_args = 0
  34 0000 08B5     		push	{r3, lr}
  35              	.LCFI0:
  36              		.cfi_def_cfa_offset 8
  37              		.cfi_offset 3, -8
  38              		.cfi_offset 14, -4
  39              		.loc 1 63 0
  40 0002 FFF7FEFF 		bl	hal_lld_init
  41              	.LVL0:
  42              		.loc 1 69 0
  43 0006 40F20000 		movw	r0, #:lower16:pal_default_config
  44 000a C0F20000 		movt	r0, #:upper16:pal_default_config
  45 000e FFF7FEFF 		bl	_pal_lld_init
  46              	.LVL1:
  47              		.loc 1 93 0
  48 0012 FFF7FEFF 		bl	pwmInit
  49              	.LVL2:
  50              		.loc 1 102 0
  51 0016 FFF7FEFF 		bl	spiInit
  52              	.LVL3:
  53              		.loc 1 108 0
  54 001a FFF7FEFF 		bl	usbInit
  55              	.LVL4:
  56              		.loc 1 114 0
  57 001e FFF7FEFF 		bl	sduInit
ARM GAS  /tmp/ccEzaYOi.s 			page 2


  58              	.LVL5:
  59              		.loc 1 121 0
  60 0022 BDE80840 		pop	{r3, lr}
  61              		.loc 1 120 0
  62 0026 FFF7FEBF 		b	boardInit
  63              	.LVL6:
  64              		.cfi_endproc
  65              	.LFE118:
  66              		.size	halInit, .-halInit
  67              		.section	.text.halIsCounterWithin,"ax",%progbits
  68              		.align	2
  69              		.p2align 4,,15
  70              		.global	halIsCounterWithin
  71              		.thumb
  72              		.thumb_func
  73              		.type	halIsCounterWithin, %function
  74              	halIsCounterWithin:
  75              	.LFB119:
  76              		.loc 1 167 0
  77              		.cfi_startproc
  78              		@ args = 0, pretend = 0, frame = 0
  79              		@ frame_needed = 0, uses_anonymous_args = 0
  80              		@ link register save eliminated.
  81              	.LVL7:
  82              		.loc 1 168 0
  83 0000 4FF48053 		mov	r3, #4096
  84 0004 CEF20003 		movt	r3, 57344
  85              		.loc 1 170 0
  86 0008 8142     		cmp	r1, r0
  87              		.loc 1 168 0
  88 000a 5A68     		ldr	r2, [r3, #4]
  89              	.LVL8:
  90              		.loc 1 170 0
  91 000c 06D9     		bls	.L3
  92              		.loc 1 170 0 is_stmt 0 discriminator 1
  93 000e 8242     		cmp	r2, r0
  94 0010 08D3     		bcc	.L7
  95              	.L9:
  96              		.loc 1 171 0 is_stmt 1 discriminator 2
  97 0012 8A42     		cmp	r2, r1
  98 0014 2CBF     		ite	cs
  99 0016 0020     		movcs	r0, #0
 100              	.LVL9:
 101 0018 0120     		movcc	r0, #1
 102 001a 7047     		bx	lr
 103              	.LVL10:
 104              	.L3:
 105              		.loc 1 171 0 is_stmt 0
 106 001c 8242     		cmp	r2, r0
 107 001e F8D3     		bcc	.L9
 108 0020 0120     		movs	r0, #1
 109              	.LVL11:
 110              		.loc 1 172 0 is_stmt 1
 111 0022 7047     		bx	lr
 112              	.LVL12:
 113              	.L7:
 114              		.loc 1 170 0
ARM GAS  /tmp/ccEzaYOi.s 			page 3


 115 0024 0020     		movs	r0, #0
 116              	.LVL13:
 117 0026 7047     		bx	lr
 118              		.cfi_endproc
 119              	.LFE119:
 120              		.size	halIsCounterWithin, .-halIsCounterWithin
 121 0028 AFF30080 		.section	.text.halPolledDelay,"ax",%progbits
 121      AFF30080 
 122              		.align	2
 123              		.p2align 4,,15
 124              		.global	halPolledDelay
 125              		.thumb
 126              		.thumb_func
 127              		.type	halPolledDelay, %function
 128              	halPolledDelay:
 129              	.LFB120:
 130              		.loc 1 186 0
 131              		.cfi_startproc
 132              		@ args = 0, pretend = 0, frame = 0
 133              		@ frame_needed = 0, uses_anonymous_args = 0
 134              		@ link register save eliminated.
 135              	.LVL14:
 136              		.loc 1 187 0
 137 0000 4FF48053 		mov	r3, #4096
 138 0004 CEF20003 		movt	r3, 57344
 139              	.LBB4:
 140              	.LBB5:
 141              		.loc 1 168 0
 142 0008 1946     		mov	r1, r3
 143              	.LBE5:
 144              	.LBE4:
 145              		.loc 1 187 0
 146 000a 5A68     		ldr	r2, [r3, #4]
 147              	.LVL15:
 148              		.loc 1 188 0
 149 000c 8018     		adds	r0, r0, r2
 150              	.LVL16:
 151              	.L21:
 152              	.LBB7:
 153              	.LBB6:
 154              		.loc 1 170 0 discriminator 1
 155 000e 8242     		cmp	r2, r0
 156              		.loc 1 168 0 discriminator 1
 157 0010 4B68     		ldr	r3, [r1, #4]
 158              	.LVL17:
 159              		.loc 1 170 0 discriminator 1
 160 0012 02D2     		bcs	.L12
 161              		.loc 1 170 0 is_stmt 0
 162 0014 9A42     		cmp	r2, r3
 163 0016 02D9     		bls	.L22
 164 0018 7047     		bx	lr
 165              	.L12:
 166              		.loc 1 171 0 is_stmt 1
 167 001a 9A42     		cmp	r2, r3
 168 001c F7D9     		bls	.L21
 169              	.L22:
 170 001e 9842     		cmp	r0, r3
ARM GAS  /tmp/ccEzaYOi.s 			page 4


 171 0020 94BF     		ite	ls
 172 0022 0023     		movls	r3, #0
 173              	.LVL18:
 174 0024 0123     		movhi	r3, #1
 175              	.LBE6:
 176              	.LBE7:
 177              		.loc 1 189 0
 178 0026 002B     		cmp	r3, #0
 179 0028 F1D1     		bne	.L21
 180 002a 7047     		bx	lr
 181              		.cfi_endproc
 182              	.LFE120:
 183              		.size	halPolledDelay, .-halPolledDelay
 184 002c AFF30080 		.text
 185              	.Letext0:
 186              		.file 2 "/usr/bin/../lib/gcc/arm-none-eabi/4.7.4/../../../../arm-none-eabi/include/stdint.h"
 187              		.file 3 "../../os/ports/GCC/ARMCMx/chtypes.h"
 188              		.file 4 "../../os/ports/common/ARMCMx/nvic.h"
 189              		.file 5 "../../os/hal/platforms/STM32F4xx/hal_lld.h"
 190              		.file 6 "../../os/hal/platforms/STM32/GPIOv2/pal_lld.h"
 191              		.file 7 "../../os/ports/common/ARMCMx/CMSIS/include/core_cm4.h"
 192              		.file 8 "../../os/hal/include/pwm.h"
 193              		.file 9 "../../os/hal/include/spi.h"
 194              		.file 10 "../../os/hal/include/usb.h"
 195              		.file 11 "../../os/hal/include/serial_usb.h"
 196              		.file 12 "../../boards/ST_STM32F4_DISCOVERY/board.h"