ARM GAS  /tmp/ccYxCHBW.s 			page 1


   1              		.syntax unified
   2              		.cpu cortex-m4
   3              		.eabi_attribute 27, 3
   4              		.eabi_attribute 28, 1
   5              		.fpu fpv4-sp-d16
   6              		.eabi_attribute 20, 1
   7              		.eabi_attribute 21, 1
   8              		.eabi_attribute 23, 3
   9              		.eabi_attribute 24, 1
  10              		.eabi_attribute 25, 1
  11              		.eabi_attribute 26, 1
  12              		.eabi_attribute 30, 2
  13              		.eabi_attribute 34, 1
  14              		.eabi_attribute 18, 4
  15              		.thumb
  16              		.file	"main.c"
  17              		.text
  18              	.Ltext0:
  19              		.cfi_sections	.debug_frame
  20              		.section	.text.tsCalibRead,"ax",%progbits
  21              		.align	2
  22              		.p2align 4,,15
  23              		.global	tsCalibRead
  24              		.thumb
  25              		.thumb_func
  26              		.type	tsCalibRead, %function
  27              	tsCalibRead:
  28              	.LFB118:
  29              		.file 1 "main.c"
  30              		.loc 1 69 0
  31              		.cfi_startproc
  32              		@ args = 0, pretend = 0, frame = 0
  33              		@ frame_needed = 0, uses_anonymous_args = 0
  34              		@ link register save eliminated.
  35              	.LVL0:
  36              		.loc 1 74 0
  37 0000 0020     		movs	r0, #0
  38              	.LVL1:
  39 0002 7047     		bx	lr
  40              		.cfi_endproc
  41              	.LFE118:
  42              		.size	tsCalibRead, .-tsCalibRead
  43 0004 AFF30080 		.section	.text.startup.main,"ax",%progbits
  43      AFF30080 
  43      AFF30080 
  44              		.align	2
  45              		.p2align 4,,15
  46              		.global	main
  47              		.thumb
  48              		.thumb_func
  49              		.type	main, %function
  50              	main:
  51              	.LFB119:
  52              		.loc 1 76 0
  53              		.cfi_startproc
  54              		@ args = 0, pretend = 0, frame = 0
  55              		@ frame_needed = 0, uses_anonymous_args = 0
ARM GAS  /tmp/ccYxCHBW.s 			page 2


  56 0000 70B5     		push	{r4, r5, r6, lr}
  57              	.LCFI0:
  58              		.cfi_def_cfa_offset 16
  59              		.cfi_offset 4, -16
  60              		.cfi_offset 5, -12
  61              		.cfi_offset 6, -8
  62              		.cfi_offset 14, -4
  63              		.loc 1 78 0
  64 0002 1E48     		ldr	r0, .L5
  65 0004 1E4E     		ldr	r6, .L5+4
  66              		.loc 1 76 0
  67 0006 82B0     		sub	sp, sp, #8
  68              	.LCFI1:
  69              		.cfi_def_cfa_offset 24
  70              		.loc 1 78 0
  71 0008 FFF7FEFF 		bl	gdispOpenFont
  72              	.LVL2:
  73 000c 0546     		mov	r5, r0
  74              	.LVL3:
  75              		.loc 1 81 0
  76 000e FFF7FEFF 		bl	gfxInit
  77              	.LVL4:
  78              		.loc 1 84 0
  79 0012 0020     		movs	r0, #0
  80 0014 0146     		mov	r1, r0
  81 0016 0346     		mov	r3, r0
  82 0018 1A4A     		ldr	r2, .L5+8
  83 001a FFF7FEFF 		bl	ginputSetMouseCalibrationRoutines
  84              	.LVL5:
  85              		.loc 1 85 0
  86 001e 0020     		movs	r0, #0
  87 0020 FFF7FEFF 		bl	ginputGetMouse
  88              	.LVL6:
  89              		.loc 1 88 0
  90 0024 184B     		ldr	r3, .L5+12
  91 0026 1C8A     		ldrh	r4, [r3, #16]
  92 0028 0FCB     		ldmia	r3, {r0, r1, r2, r3}
  93 002a ADF80040 		strh	r4, [sp, #0]	@ movhi
  94 002e FFF7FEFF 		bl	nSetColorScheme
  95              	.LVL7:
  96              		.loc 1 95 0
  97 0032 4FF6FF74 		movw	r4, #65535
  98              	.L3:
  99              		.loc 1 91 0 discriminator 1
 100 0036 FFF7FEFF 		bl	nLaunchNotepadApp
 101              	.LVL8:
 102 003a FFF7FEFF 		bl	chThdWait
 103              	.LVL9:
 104              		.loc 1 93 0 discriminator 1
 105 003e 0020     		movs	r0, #0
 106 0040 0146     		mov	r1, r0
 107 0042 B6F90020 		ldrsh	r2, [r6, #0]
 108 0046 B6F90230 		ldrsh	r3, [r6, #2]
 109 004a FFF7FEFF 		bl	gdispSetClip
 110              	.LVL10:
 111              		.loc 1 94 0 discriminator 1
 112 004e 0020     		movs	r0, #0
ARM GAS  /tmp/ccYxCHBW.s 			page 3


 113 0050 FFF7FEFF 		bl	gdispClear
 114              	.LVL11:
 115              		.loc 1 95 0 discriminator 1
 116 0054 0320     		movs	r0, #3
 117 0056 0146     		mov	r1, r0
 118 0058 2B46     		mov	r3, r5
 119 005a 0094     		str	r4, [sp, #0]
 120 005c 0B4A     		ldr	r2, .L5+16
 121 005e FFF7FEFF 		bl	gdispDrawString
 122              	.LVL12:
 123              		.loc 1 96 0 discriminator 1
 124 0062 0320     		movs	r0, #3
 125 0064 0094     		str	r4, [sp, #0]
 126 0066 1421     		movs	r1, #20
 127 0068 094A     		ldr	r2, .L5+20
 128 006a 2B46     		mov	r3, r5
 129 006c FFF7FEFF 		bl	gdispDrawString
 130              	.LVL13:
 131              		.loc 1 98 0 discriminator 1
 132 0070 4FF47A70 		mov	r0, #1000
 133 0074 FFF7FEFF 		bl	gfxSleepMilliseconds
 134              	.LVL14:
 135 0078 DDE7     		b	.L3
 136              	.L6:
 137 007a 00BF     		.align	2
 138              	.L5:
 139 007c 00000000 		.word	.LC0
 140 0080 00000000 		.word	GDISP
 141 0084 00000000 		.word	tsCalibRead
 142 0088 00000000 		.word	.LANCHOR0
 143 008c 04000000 		.word	.LC1
 144 0090 18000000 		.word	.LC2
 145              		.cfi_endproc
 146              	.LFE119:
 147              		.size	main, .-main
 148              		.global	schemeDefault2
 149              		.global	schemeDefault
 150 0094 AFF30080 		.section	.rodata.str1.4,"aMS",%progbits,1
 150      AFF30080 
 150      AFF30080 
 151              		.align	2
 152              	.LC0:
 153 0000 55493200 		.ascii	"UI2\000"
 154              	.LC1:
 155 0004 4E6F7465 		.ascii	"Notepad Terminated.\000"
 155      70616420 
 155      5465726D 
 155      696E6174 
 155      65642E00 
 156              	.LC2:
 157 0018 52656C61 		.ascii	"Relaunching Notepad App...\000"
 157      756E6368 
 157      696E6720 
 157      4E6F7465 
 157      70616420 
 158 0033 00       		.section	.rodata.schemeDefault,"a",%progbits
 159              		.align	2
ARM GAS  /tmp/ccYxCHBW.s 			page 4


 160              		.set	.LANCHOR0,. + 0
 161              		.type	schemeDefault, %object
 162              		.size	schemeDefault, 18
 163              	schemeDefault:
 164 0000 3B33     		.short	13115
 165 0002 FFFF     		.short	-1
 166 0004 76FF     		.short	-138
 167 0006 CECD     		.short	-12850
 168 0008 85C4     		.short	-15227
 169 000a B0F6     		.short	-2384
 170 000c 8CCD     		.short	-12916
 171 000e 0DDE     		.short	-8691
 172 0010 0000     		.short	0
 173 0012 0000     		.section	.rodata.schemeDefault2,"a",%progbits
 174              		.align	2
 175              		.type	schemeDefault2, %object
 176              		.size	schemeDefault2, 18
 177              	schemeDefault2:
 178 0000 3B33     		.short	13115
 179 0002 FFFF     		.short	-1
 180 0004 DFCE     		.short	-12577
 181 0006 DC84     		.short	-31524
 182 0008 DE53     		.short	21470
 183 000a DEA5     		.short	-23074
 184 000c 3E64     		.short	25662
 185 000e 5F8D     		.short	-29345
 186 0010 0000     		.short	0
 187 0012 0000     		.text
 188              	.Letext0:
 189              		.file 2 "/usr/bin/../lib/gcc/arm-none-eabi/4.7.4/include/stddef.h"
 190              		.file 3 "/usr/bin/../lib/gcc/arm-none-eabi/4.7.4/../../../../arm-none-eabi/include/stdint.h"
 191              		.file 4 "../../os/ports/GCC/ARMCMx/chtypes.h"
 192              		.file 5 "../../os/kernel/include/chlists.h"
 193              		.file 6 "../../os/kernel/include/chthreads.h"
 194              		.file 7 "../../os/ports/GCC/ARMCMx/chcore_v7m.h"
 195              		.file 8 "../../os/kernel/include/chmtx.h"
 196              		.file 9 "../../ext/ugfx/include/gos/chibios.h"
 197              		.file 10 "../../ext/ugfx/include/gevent/gevent.h"
 198              		.file 11 "../../ext/ugfx/include/gdisp/gdisp.h"
 199              		.file 12 "../../ext/ugfx/include/ginput/mouse.h"
 200              		.file 13 "notepadUIDefines.h"
 201              		.file 14 "../../os/ports/common/ARMCMx/CMSIS/include/core_cm4.h"
 202              		.file 15 "notepadApp.h"
 203              		.file 16 "../../ext/ugfx/include/gfx.h"