ARM GAS  /tmp/ccqfPfe7.s 			page 1


   1              		.syntax unified
   2              		.cpu cortex-m4
   3              		.eabi_attribute 27, 3
   4              		.eabi_attribute 28, 1
   5              		.fpu fpv4-sp-d16
   6              		.eabi_attribute 20, 1
   7              		.eabi_attribute 21, 1
   8              		.eabi_attribute 23, 3
   9              		.eabi_attribute 24, 1
  10              		.eabi_attribute 25, 1
  11              		.eabi_attribute 26, 1
  12              		.eabi_attribute 30, 2
  13              		.eabi_attribute 34, 1
  14              		.eabi_attribute 18, 4
  15              		.thumb
  16              		.file	"testmtx.c"
  17              		.text
  18              	.Ltext0:
  19              		.cfi_sections	.debug_frame
  20              		.section	.text.mtx8_execute,"ax",%progbits
  21              		.align	2
  22              		.p2align 4,,15
  23              		.thumb
  24              		.thumb_func
  25              		.type	mtx8_execute, %function
  26              	mtx8_execute:
  27              	.LFB36:
  28              		.file 1 "../../test/testmtx.c"
  29              		.loc 1 595 0
  30              		.cfi_startproc
  31              		@ args = 0, pretend = 0, frame = 0
  32              		@ frame_needed = 0, uses_anonymous_args = 0
  33 0000 F0B5     		push	{r4, r5, r6, r7, lr}
  34              	.LCFI0:
  35              		.cfi_def_cfa_offset 20
  36              		.cfi_offset 4, -20
  37              		.cfi_offset 5, -16
  38              		.cfi_offset 6, -12
  39              		.cfi_offset 7, -8
  40              		.cfi_offset 14, -4
  41              		.loc 1 597 0
  42 0002 40F20003 		movw	r3, #:lower16:rlist
  43 0006 C0F20003 		movt	r3, #:upper16:rlist
  44              		.loc 1 598 0
  45 000a 40F20005 		movw	r5, #:lower16:wa
  46              		.loc 1 597 0
  47 000e 9969     		ldr	r1, [r3, #24]
  48              		.loc 1 595 0
  49 0010 83B0     		sub	sp, sp, #12
  50              	.LCFI1:
  51              		.cfi_def_cfa_offset 32
  52              		.loc 1 597 0
  53 0012 8E68     		ldr	r6, [r1, #8]
  54              	.LVL0:
  55              		.loc 1 598 0
  56 0014 C0F20005 		movt	r5, #:upper16:wa
  57 0018 40F20004 		movw	r4, #:lower16:.LC0
ARM GAS  /tmp/ccqfPfe7.s 			page 2


  58 001c C0F20004 		movt	r4, #:upper16:.LC0
  59 0020 40F20003 		movw	r3, #:lower16:thread11
  60 0024 721C     		adds	r2, r6, #1
  61 0026 0094     		str	r4, [sp, #0]
  62 0028 2868     		ldr	r0, [r5, #0]
  63 002a 4FF4DC71 		mov	r1, #440
  64 002e C0F20003 		movt	r3, #:upper16:thread11
  65 0032 FFF7FEFF 		bl	chThdCreateStatic
  66              	.LVL1:
  67 0036 40F20004 		movw	r4, #:lower16:threads
  68 003a C0F20004 		movt	r4, #:upper16:threads
  69              		.loc 1 599 0
  70 003e 6F68     		ldr	r7, [r5, #4]
  71              		.loc 1 598 0
  72 0040 2060     		str	r0, [r4, #0]
  73              		.loc 1 599 0
  74 0042 40F20000 		movw	r0, #:lower16:.LC1
  75 0046 C0F20000 		movt	r0, #:upper16:.LC1
  76 004a 40F20003 		movw	r3, #:lower16:thread10
  77 004e B21C     		adds	r2, r6, #2
  78 0050 0090     		str	r0, [sp, #0]
  79 0052 4FF4DC71 		mov	r1, #440
  80 0056 C0F20003 		movt	r3, #:upper16:thread10
  81 005a 3846     		mov	r0, r7
  82 005c FFF7FEFF 		bl	chThdCreateStatic
  83              	.LVL2:
  84              		.loc 1 600 0
  85 0060 AD68     		ldr	r5, [r5, #8]
  86              		.loc 1 599 0
  87 0062 6060     		str	r0, [r4, #4]
  88              		.loc 1 600 0
  89 0064 40F20000 		movw	r0, #:lower16:.LC2
  90 0068 C0F20000 		movt	r0, #:upper16:.LC2
  91 006c 40F20003 		movw	r3, #:lower16:thread12
  92 0070 4FF4DC71 		mov	r1, #440
  93 0074 F21C     		adds	r2, r6, #3
  94 0076 C0F20003 		movt	r3, #:upper16:thread12
  95 007a 0090     		str	r0, [sp, #0]
  96 007c 2846     		mov	r0, r5
  97 007e FFF7FEFF 		bl	chThdCreateStatic
  98              	.LVL3:
  99              		.loc 1 601 0
 100 0082 40F20005 		movw	r5, #:lower16:.LANCHOR0
 101 0086 C0F20005 		movt	r5, #:upper16:.LANCHOR0
 102              		.loc 1 600 0
 103 008a A060     		str	r0, [r4, #8]
 104              		.loc 1 601 0
 105 008c 2846     		mov	r0, r5
 106 008e FFF7FEFF 		bl	chCondSignal
 107              	.LVL4:
 108              		.loc 1 602 0
 109 0092 2846     		mov	r0, r5
 110 0094 FFF7FEFF 		bl	chCondSignal
 111              	.LVL5:
 112              		.loc 1 603 0
 113 0098 FFF7FEFF 		bl	test_wait_threads
 114              	.LVL6:
ARM GAS  /tmp/ccqfPfe7.s 			page 3


 115              		.loc 1 604 0
 116 009c 40F20001 		movw	r1, #:lower16:.LC3
 117 00a0 0120     		movs	r0, #1
 118 00a2 C0F20001 		movt	r1, #:upper16:.LC3
 119              		.loc 1 605 0
 120 00a6 03B0     		add	sp, sp, #12
 121 00a8 BDE8F040 		pop	{r4, r5, r6, r7, lr}
 122              		.loc 1 604 0
 123 00ac FFF7FEBF 		b	_test_assert_sequence
 124              	.LVL7:
 125              		.cfi_endproc
 126              	.LFE36:
 127              		.size	mtx8_execute, .-mtx8_execute
 128              		.section	.text.thread12,"ax",%progbits
 129              		.align	2
 130              		.p2align 4,,15
 131              		.thumb
 132              		.thumb_func
 133              		.type	thread12, %function
 134              	thread12:
 135              	.LFB35:
 136              		.loc 1 587 0
 137              		.cfi_startproc
 138              		@ args = 0, pretend = 0, frame = 0
 139              		@ frame_needed = 0, uses_anonymous_args = 0
 140              	.LVL8:
 141 0000 10B5     		push	{r4, lr}
 142              	.LCFI2:
 143              		.cfi_def_cfa_offset 8
 144              		.cfi_offset 4, -8
 145              		.cfi_offset 14, -4
 146              		.loc 1 587 0
 147 0002 0446     		mov	r4, r0
 148              		.loc 1 589 0
 149 0004 40F20000 		movw	r0, #:lower16:.LANCHOR1
 150              	.LVL9:
 151 0008 C0F20000 		movt	r0, #:upper16:.LANCHOR1
 152 000c FFF7FEFF 		bl	chMtxLock
 153              	.LVL10:
 154              		.loc 1 590 0
 155 0010 2078     		ldrb	r0, [r4, #0]	@ zero_extendqisi2
 156 0012 FFF7FEFF 		bl	test_emit_token
 157              	.LVL11:
 158              		.loc 1 591 0
 159 0016 FFF7FEFF 		bl	chMtxUnlock
 160              	.LVL12:
 161              		.loc 1 593 0
 162 001a 0020     		movs	r0, #0
 163 001c 10BD     		pop	{r4, pc}
 164              		.cfi_endproc
 165              	.LFE35:
 166              		.size	thread12, .-thread12
 167 001e 00BF     		.section	.text.thread1,"ax",%progbits
 168              		.align	2
 169              		.p2align 4,,15
 170              		.thumb
 171              		.thumb_func
ARM GAS  /tmp/ccqfPfe7.s 			page 4


 172              		.type	thread1, %function
 173              	thread1:
 174              	.LFB8:
 175              		.loc 1 89 0
 176              		.cfi_startproc
 177              		@ args = 0, pretend = 0, frame = 0
 178              		@ frame_needed = 0, uses_anonymous_args = 0
 179              	.LVL13:
 180 0000 10B5     		push	{r4, lr}
 181              	.LCFI3:
 182              		.cfi_def_cfa_offset 8
 183              		.cfi_offset 4, -8
 184              		.cfi_offset 14, -4
 185              		.loc 1 89 0
 186 0002 0446     		mov	r4, r0
 187              		.loc 1 91 0
 188 0004 40F20000 		movw	r0, #:lower16:.LANCHOR2
 189              	.LVL14:
 190 0008 C0F20000 		movt	r0, #:upper16:.LANCHOR2
 191 000c FFF7FEFF 		bl	chMtxLock
 192              	.LVL15:
 193              		.loc 1 92 0
 194 0010 2078     		ldrb	r0, [r4, #0]	@ zero_extendqisi2
 195 0012 FFF7FEFF 		bl	test_emit_token
 196              	.LVL16:
 197              		.loc 1 93 0
 198 0016 FFF7FEFF 		bl	chMtxUnlock
 199              	.LVL17:
 200              		.loc 1 95 0
 201 001a 0020     		movs	r0, #0
 202 001c 10BD     		pop	{r4, pc}
 203              		.cfi_endproc
 204              	.LFE8:
 205              		.size	thread1, .-thread1
 206 001e 00BF     		.section	.text.thread10,"ax",%progbits
 207              		.align	2
 208              		.p2align 4,,15
 209              		.thumb
 210              		.thumb_func
 211              		.type	thread10, %function
 212              	thread10:
 213              	.LFB29:
 214              		.loc 1 484 0
 215              		.cfi_startproc
 216              		@ args = 0, pretend = 0, frame = 0
 217              		@ frame_needed = 0, uses_anonymous_args = 0
 218              	.LVL18:
 219 0000 10B5     		push	{r4, lr}
 220              	.LCFI4:
 221              		.cfi_def_cfa_offset 8
 222              		.cfi_offset 4, -8
 223              		.cfi_offset 14, -4
 224              		.loc 1 484 0
 225 0002 0446     		mov	r4, r0
 226              		.loc 1 486 0
 227 0004 40F20000 		movw	r0, #:lower16:.LANCHOR2
 228              	.LVL19:
ARM GAS  /tmp/ccqfPfe7.s 			page 5


 229 0008 C0F20000 		movt	r0, #:upper16:.LANCHOR2
 230 000c FFF7FEFF 		bl	chMtxLock
 231              	.LVL20:
 232              		.loc 1 487 0
 233 0010 40F20000 		movw	r0, #:lower16:.LANCHOR0
 234 0014 C0F20000 		movt	r0, #:upper16:.LANCHOR0
 235 0018 FFF7FEFF 		bl	chCondWait
 236              	.LVL21:
 237              		.loc 1 488 0
 238 001c 2078     		ldrb	r0, [r4, #0]	@ zero_extendqisi2
 239 001e FFF7FEFF 		bl	test_emit_token
 240              	.LVL22:
 241              		.loc 1 489 0
 242 0022 FFF7FEFF 		bl	chMtxUnlock
 243              	.LVL23:
 244              		.loc 1 491 0
 245 0026 0020     		movs	r0, #0
 246 0028 10BD     		pop	{r4, pc}
 247              		.cfi_endproc
 248              	.LFE29:
 249              		.size	thread10, .-thread10
 250 002a 00BFAFF3 		.section	.text.thread11,"ax",%progbits
 250      0080
 251              		.align	2
 252              		.p2align 4,,15
 253              		.thumb
 254              		.thumb_func
 255              		.type	thread11, %function
 256              	thread11:
 257              	.LFB34:
 258              		.loc 1 572 0
 259              		.cfi_startproc
 260              		@ args = 0, pretend = 0, frame = 0
 261              		@ frame_needed = 0, uses_anonymous_args = 0
 262              	.LVL24:
 263 0000 10B5     		push	{r4, lr}
 264              	.LCFI5:
 265              		.cfi_def_cfa_offset 8
 266              		.cfi_offset 4, -8
 267              		.cfi_offset 14, -4
 268              		.loc 1 572 0
 269 0002 0446     		mov	r4, r0
 270              		.loc 1 574 0
 271 0004 40F20000 		movw	r0, #:lower16:.LANCHOR1
 272              	.LVL25:
 273 0008 C0F20000 		movt	r0, #:upper16:.LANCHOR1
 274 000c FFF7FEFF 		bl	chMtxLock
 275              	.LVL26:
 276              		.loc 1 575 0
 277 0010 40F20000 		movw	r0, #:lower16:.LANCHOR2
 278 0014 C0F20000 		movt	r0, #:upper16:.LANCHOR2
 279 0018 FFF7FEFF 		bl	chMtxLock
 280              	.LVL27:
 281              		.loc 1 577 0
 282 001c 40F20000 		movw	r0, #:lower16:.LANCHOR0
 283 0020 4FF0FF31 		mov	r1, #-1
 284 0024 C0F20000 		movt	r0, #:upper16:.LANCHOR0
ARM GAS  /tmp/ccqfPfe7.s 			page 6


 285 0028 FFF7FEFF 		bl	chCondWaitTimeout
 286              	.LVL28:
 287              		.loc 1 581 0
 288 002c 2078     		ldrb	r0, [r4, #0]	@ zero_extendqisi2
 289 002e FFF7FEFF 		bl	test_emit_token
 290              	.LVL29:
 291              		.loc 1 582 0
 292 0032 FFF7FEFF 		bl	chMtxUnlock
 293              	.LVL30:
 294              		.loc 1 583 0
 295 0036 FFF7FEFF 		bl	chMtxUnlock
 296              	.LVL31:
 297              		.loc 1 585 0
 298 003a 0020     		movs	r0, #0
 299 003c 10BD     		pop	{r4, pc}
 300              		.cfi_endproc
 301              	.LFE34:
 302              		.size	thread11, .-thread11
 303 003e 00BF     		.section	.text.mtx8_setup,"ax",%progbits
 304              		.align	2
 305              		.p2align 4,,15
 306              		.thumb
 307              		.thumb_func
 308              		.type	mtx8_setup, %function
 309              	mtx8_setup:
 310              	.LFB33:
 311              		.loc 1 565 0
 312              		.cfi_startproc
 313              		@ args = 0, pretend = 0, frame = 0
 314              		@ frame_needed = 0, uses_anonymous_args = 0
 315              		.loc 1 567 0
 316 0000 40F20000 		movw	r0, #:lower16:.LANCHOR0
 317              		.loc 1 565 0
 318 0004 08B5     		push	{r3, lr}
 319              	.LCFI6:
 320              		.cfi_def_cfa_offset 8
 321              		.cfi_offset 3, -8
 322              		.cfi_offset 14, -4
 323              		.loc 1 567 0
 324 0006 C0F20000 		movt	r0, #:upper16:.LANCHOR0
 325 000a FFF7FEFF 		bl	chCondInit
 326              	.LVL32:
 327              		.loc 1 568 0
 328 000e 40F20000 		movw	r0, #:lower16:.LANCHOR2
 329 0012 C0F20000 		movt	r0, #:upper16:.LANCHOR2
 330 0016 FFF7FEFF 		bl	chMtxInit
 331              	.LVL33:
 332              		.loc 1 569 0
 333 001a 40F20000 		movw	r0, #:lower16:.LANCHOR1
 334 001e C0F20000 		movt	r0, #:upper16:.LANCHOR1
 335              		.loc 1 570 0
 336 0022 BDE80840 		pop	{r3, lr}
 337              		.loc 1 569 0
 338 0026 FFF7FEBF 		b	chMtxInit
 339              	.LVL34:
 340              		.cfi_endproc
 341              	.LFE33:
ARM GAS  /tmp/ccqfPfe7.s 			page 7


 342              		.size	mtx8_setup, .-mtx8_setup
 343 002a 00BFAFF3 		.section	.text.mtx7_setup,"ax",%progbits
 343      0080
 344              		.align	2
 345              		.p2align 4,,15
 346              		.thumb
 347              		.thumb_func
 348              		.type	mtx7_setup, %function
 349              	mtx7_setup:
 350              	.LFB31:
 351              		.loc 1 530 0
 352              		.cfi_startproc
 353              		@ args = 0, pretend = 0, frame = 0
 354              		@ frame_needed = 0, uses_anonymous_args = 0
 355 0000 08B5     		push	{r3, lr}
 356              	.LCFI7:
 357              		.cfi_def_cfa_offset 8
 358              		.cfi_offset 3, -8
 359              		.cfi_offset 14, -4
 360              		.loc 1 532 0
 361 0002 40F20000 		movw	r0, #:lower16:.LANCHOR0
 362 0006 C0F20000 		movt	r0, #:upper16:.LANCHOR0
 363 000a FFF7FEFF 		bl	chCondInit
 364              	.LVL35:
 365              		.loc 1 533 0
 366 000e 40F20000 		movw	r0, #:lower16:.LANCHOR2
 367 0012 C0F20000 		movt	r0, #:upper16:.LANCHOR2
 368              		.loc 1 534 0
 369 0016 BDE80840 		pop	{r3, lr}
 370              		.loc 1 533 0
 371 001a FFF7FEBF 		b	chMtxInit
 372              	.LVL36:
 373              		.cfi_endproc
 374              	.LFE31:
 375              		.size	mtx7_setup, .-mtx7_setup
 376 001e 00BF     		.section	.text.mtx6_setup,"ax",%progbits
 377              		.align	2
 378              		.p2align 4,,15
 379              		.thumb
 380              		.thumb_func
 381              		.type	mtx6_setup, %function
 382              	mtx6_setup:
 383              	.LFB28:
 384              		.loc 1 478 0
 385              		.cfi_startproc
 386              		@ args = 0, pretend = 0, frame = 0
 387              		@ frame_needed = 0, uses_anonymous_args = 0
 388 0000 08B5     		push	{r3, lr}
 389              	.LCFI8:
 390              		.cfi_def_cfa_offset 8
 391              		.cfi_offset 3, -8
 392              		.cfi_offset 14, -4
 393              		.loc 1 480 0
 394 0002 40F20000 		movw	r0, #:lower16:.LANCHOR0
 395 0006 C0F20000 		movt	r0, #:upper16:.LANCHOR0
 396 000a FFF7FEFF 		bl	chCondInit
 397              	.LVL37:
ARM GAS  /tmp/ccqfPfe7.s 			page 8


 398              		.loc 1 481 0
 399 000e 40F20000 		movw	r0, #:lower16:.LANCHOR2
 400 0012 C0F20000 		movt	r0, #:upper16:.LANCHOR2
 401              		.loc 1 482 0
 402 0016 BDE80840 		pop	{r3, lr}
 403              		.loc 1 481 0
 404 001a FFF7FEBF 		b	chMtxInit
 405              	.LVL38:
 406              		.cfi_endproc
 407              	.LFE28:
 408              		.size	mtx6_setup, .-mtx6_setup
 409 001e 00BF     		.section	.text.mtx5_setup,"ax",%progbits
 410              		.align	2
 411              		.p2align 4,,15
 412              		.thumb
 413              		.thumb_func
 414              		.type	mtx5_setup, %function
 415              	mtx5_setup:
 416              	.LFB26:
 417              		.loc 1 428 0
 418              		.cfi_startproc
 419              		@ args = 0, pretend = 0, frame = 0
 420              		@ frame_needed = 0, uses_anonymous_args = 0
 421              		@ link register save eliminated.
 422              		.loc 1 430 0
 423 0000 40F20000 		movw	r0, #:lower16:.LANCHOR2
 424 0004 C0F20000 		movt	r0, #:upper16:.LANCHOR2
 425              		.loc 1 431 0
 426              		.loc 1 430 0
 427 0008 FFF7FEBF 		b	chMtxInit
 428              	.LVL39:
 429              		.cfi_endproc
 430              	.LFE26:
 431              		.size	mtx5_setup, .-mtx5_setup
 432 000c AFF30080 		.section	.text.mtx4_setup,"ax",%progbits
 433              		.align	2
 434              		.p2align 4,,15
 435              		.thumb
 436              		.thumb_func
 437              		.type	mtx4_setup, %function
 438              	mtx4_setup:
 439              	.LFB22:
 440              		.loc 1 341 0
 441              		.cfi_startproc
 442              		@ args = 0, pretend = 0, frame = 0
 443              		@ frame_needed = 0, uses_anonymous_args = 0
 444 0000 08B5     		push	{r3, lr}
 445              	.LCFI9:
 446              		.cfi_def_cfa_offset 8
 447              		.cfi_offset 3, -8
 448              		.cfi_offset 14, -4
 449              		.loc 1 343 0
 450 0002 40F20000 		movw	r0, #:lower16:.LANCHOR2
 451 0006 C0F20000 		movt	r0, #:upper16:.LANCHOR2
 452 000a FFF7FEFF 		bl	chMtxInit
 453              	.LVL40:
 454              		.loc 1 344 0
ARM GAS  /tmp/ccqfPfe7.s 			page 9


 455 000e 40F20000 		movw	r0, #:lower16:.LANCHOR1
 456 0012 C0F20000 		movt	r0, #:upper16:.LANCHOR1
 457              		.loc 1 345 0
 458 0016 BDE80840 		pop	{r3, lr}
 459              		.loc 1 344 0
 460 001a FFF7FEBF 		b	chMtxInit
 461              	.LVL41:
 462              		.cfi_endproc
 463              	.LFE22:
 464              		.size	mtx4_setup, .-mtx4_setup
 465 001e 00BF     		.section	.text.mtx3_setup,"ax",%progbits
 466              		.align	2
 467              		.p2align 4,,15
 468              		.thumb
 469              		.thumb_func
 470              		.type	mtx3_setup, %function
 471              	mtx3_setup:
 472              	.LFB15:
 473              		.loc 1 241 0
 474              		.cfi_startproc
 475              		@ args = 0, pretend = 0, frame = 0
 476              		@ frame_needed = 0, uses_anonymous_args = 0
 477 0000 08B5     		push	{r3, lr}
 478              	.LCFI10:
 479              		.cfi_def_cfa_offset 8
 480              		.cfi_offset 3, -8
 481              		.cfi_offset 14, -4
 482              		.loc 1 243 0
 483 0002 40F20000 		movw	r0, #:lower16:.LANCHOR2
 484 0006 C0F20000 		movt	r0, #:upper16:.LANCHOR2
 485 000a FFF7FEFF 		bl	chMtxInit
 486              	.LVL42:
 487              		.loc 1 244 0
 488 000e 40F20000 		movw	r0, #:lower16:.LANCHOR1
 489 0012 C0F20000 		movt	r0, #:upper16:.LANCHOR1
 490              		.loc 1 245 0
 491 0016 BDE80840 		pop	{r3, lr}
 492              		.loc 1 244 0
 493 001a FFF7FEBF 		b	chMtxInit
 494              	.LVL43:
 495              		.cfi_endproc
 496              	.LFE15:
 497              		.size	mtx3_setup, .-mtx3_setup
 498 001e 00BF     		.section	.text.mtx2_setup,"ax",%progbits
 499              		.align	2
 500              		.p2align 4,,15
 501              		.thumb
 502              		.thumb_func
 503              		.type	mtx2_setup, %function
 504              	mtx2_setup:
 505              	.LFB10:
 506              		.loc 1 151 0
 507              		.cfi_startproc
 508              		@ args = 0, pretend = 0, frame = 0
 509              		@ frame_needed = 0, uses_anonymous_args = 0
 510              		@ link register save eliminated.
 511              		.loc 1 153 0
ARM GAS  /tmp/ccqfPfe7.s 			page 10


 512 0000 40F20000 		movw	r0, #:lower16:.LANCHOR2
 513 0004 C0F20000 		movt	r0, #:upper16:.LANCHOR2
 514              		.loc 1 154 0
 515              		.loc 1 153 0
 516 0008 FFF7FEBF 		b	chMtxInit
 517              	.LVL44:
 518              		.cfi_endproc
 519              	.LFE10:
 520              		.size	mtx2_setup, .-mtx2_setup
 521 000c AFF30080 		.section	.text.mtx1_setup,"ax",%progbits
 522              		.align	2
 523              		.p2align 4,,15
 524              		.thumb
 525              		.thumb_func
 526              		.type	mtx1_setup, %function
 527              	mtx1_setup:
 528              	.LFB7:
 529              		.loc 1 84 0
 530              		.cfi_startproc
 531              		@ args = 0, pretend = 0, frame = 0
 532              		@ frame_needed = 0, uses_anonymous_args = 0
 533              		@ link register save eliminated.
 534              		.loc 1 86 0
 535 0000 40F20000 		movw	r0, #:lower16:.LANCHOR2
 536 0004 C0F20000 		movt	r0, #:upper16:.LANCHOR2
 537              		.loc 1 87 0
 538              		.loc 1 86 0
 539 0008 FFF7FEBF 		b	chMtxInit
 540              	.LVL45:
 541              		.cfi_endproc
 542              	.LFE7:
 543              		.size	mtx1_setup, .-mtx1_setup
 544 000c AFF30080 		.section	.text.mtx7_execute,"ax",%progbits
 545              		.align	2
 546              		.p2align 4,,15
 547              		.thumb
 548              		.thumb_func
 549              		.type	mtx7_execute, %function
 550              	mtx7_execute:
 551              	.LFB32:
 552              		.loc 1 536 0
 553              		.cfi_startproc
 554              		@ args = 0, pretend = 0, frame = 0
 555              		@ frame_needed = 0, uses_anonymous_args = 0
 556 0000 F0B5     		push	{r4, r5, r6, r7, lr}
 557              	.LCFI11:
 558              		.cfi_def_cfa_offset 20
 559              		.cfi_offset 4, -20
 560              		.cfi_offset 5, -16
 561              		.cfi_offset 6, -12
 562              		.cfi_offset 7, -8
 563              		.cfi_offset 14, -4
 564              		.loc 1 538 0
 565 0002 40F20003 		movw	r3, #:lower16:rlist
 566 0006 C0F20003 		movt	r3, #:upper16:rlist
 567              		.loc 1 539 0
 568 000a 40F20006 		movw	r6, #:lower16:wa
ARM GAS  /tmp/ccqfPfe7.s 			page 11


 569              		.loc 1 538 0
 570 000e 9969     		ldr	r1, [r3, #24]
 571              		.loc 1 536 0
 572 0010 83B0     		sub	sp, sp, #12
 573              	.LCFI12:
 574              		.cfi_def_cfa_offset 32
 575              		.loc 1 538 0
 576 0012 8F68     		ldr	r7, [r1, #8]
 577              	.LVL46:
 578              		.loc 1 539 0
 579 0014 C0F20006 		movt	r6, #:upper16:wa
 580 0018 40F20005 		movw	r5, #:lower16:thread10
 581 001c 40F20004 		movw	r4, #:lower16:.LC4
 582 0020 C0F20005 		movt	r5, #:upper16:thread10
 583 0024 C0F20004 		movt	r4, #:upper16:.LC4
 584 0028 7A1C     		adds	r2, r7, #1
 585 002a 2B46     		mov	r3, r5
 586 002c 0094     		str	r4, [sp, #0]
 587 002e 3068     		ldr	r0, [r6, #0]
 588 0030 4FF4DC71 		mov	r1, #440
 589 0034 FFF7FEFF 		bl	chThdCreateStatic
 590              	.LVL47:
 591 0038 40F20004 		movw	r4, #:lower16:threads
 592 003c C0F20004 		movt	r4, #:upper16:threads
 593              		.loc 1 540 0
 594 0040 BA1C     		adds	r2, r7, #2
 595              		.loc 1 539 0
 596 0042 2060     		str	r0, [r4, #0]
 597              		.loc 1 540 0
 598 0044 40F20000 		movw	r0, #:lower16:.LC5
 599 0048 C0F20000 		movt	r0, #:upper16:.LC5
 600 004c 2B46     		mov	r3, r5
 601 004e 0090     		str	r0, [sp, #0]
 602 0050 4FF4DC71 		mov	r1, #440
 603 0054 7068     		ldr	r0, [r6, #4]
 604 0056 FFF7FEFF 		bl	chThdCreateStatic
 605              	.LVL48:
 606 005a 6060     		str	r0, [r4, #4]
 607              		.loc 1 541 0
 608 005c 40F20000 		movw	r0, #:lower16:.LC1
 609 0060 C0F20000 		movt	r0, #:upper16:.LC1
 610 0064 FA1C     		adds	r2, r7, #3
 611 0066 2B46     		mov	r3, r5
 612 0068 0090     		str	r0, [sp, #0]
 613 006a 4FF4DC71 		mov	r1, #440
 614 006e B068     		ldr	r0, [r6, #8]
 615 0070 FFF7FEFF 		bl	chThdCreateStatic
 616              	.LVL49:
 617 0074 A060     		str	r0, [r4, #8]
 618              		.loc 1 542 0
 619 0076 40F20000 		movw	r0, #:lower16:.LC2
 620 007a C0F20000 		movt	r0, #:upper16:.LC2
 621 007e 3A1D     		adds	r2, r7, #4
 622 0080 2B46     		mov	r3, r5
 623 0082 0090     		str	r0, [sp, #0]
 624 0084 4FF4DC71 		mov	r1, #440
 625 0088 F068     		ldr	r0, [r6, #12]
ARM GAS  /tmp/ccqfPfe7.s 			page 12


 626 008a FFF7FEFF 		bl	chThdCreateStatic
 627              	.LVL50:
 628              		.loc 1 543 0
 629 008e 3669     		ldr	r6, [r6, #16]
 630              		.loc 1 542 0
 631 0090 E060     		str	r0, [r4, #12]
 632              		.loc 1 543 0
 633 0092 40F20000 		movw	r0, #:lower16:.LC0
 634 0096 C0F20000 		movt	r0, #:upper16:.LC0
 635 009a 4FF4DC71 		mov	r1, #440
 636 009e 7A1D     		adds	r2, r7, #5
 637 00a0 2B46     		mov	r3, r5
 638 00a2 0090     		str	r0, [sp, #0]
 639 00a4 3046     		mov	r0, r6
 640 00a6 FFF7FEFF 		bl	chThdCreateStatic
 641              	.LVL51:
 642 00aa 2061     		str	r0, [r4, #16]
 643              		.loc 1 544 0
 644 00ac 40F20000 		movw	r0, #:lower16:.LANCHOR0
 645 00b0 C0F20000 		movt	r0, #:upper16:.LANCHOR0
 646 00b4 FFF7FEFF 		bl	chCondBroadcast
 647              	.LVL52:
 648              		.loc 1 545 0
 649 00b8 FFF7FEFF 		bl	test_wait_threads
 650              	.LVL53:
 651              		.loc 1 546 0
 652 00bc 40F20001 		movw	r1, #:lower16:.LC6
 653 00c0 0120     		movs	r0, #1
 654 00c2 C0F20001 		movt	r1, #:upper16:.LC6
 655              		.loc 1 547 0
 656 00c6 03B0     		add	sp, sp, #12
 657 00c8 BDE8F040 		pop	{r4, r5, r6, r7, lr}
 658              		.loc 1 546 0
 659 00cc FFF7FEBF 		b	_test_assert_sequence
 660              	.LVL54:
 661              		.cfi_endproc
 662              	.LFE32:
 663              		.size	mtx7_execute, .-mtx7_execute
 664              		.section	.text.mtx6_execute,"ax",%progbits
 665              		.align	2
 666              		.p2align 4,,15
 667              		.thumb
 668              		.thumb_func
 669              		.type	mtx6_execute, %function
 670              	mtx6_execute:
 671              	.LFB30:
 672              		.loc 1 493 0
 673              		.cfi_startproc
 674              		@ args = 0, pretend = 0, frame = 0
 675              		@ frame_needed = 0, uses_anonymous_args = 0
 676 0000 F0B5     		push	{r4, r5, r6, r7, lr}
 677              	.LCFI13:
 678              		.cfi_def_cfa_offset 20
 679              		.cfi_offset 4, -20
 680              		.cfi_offset 5, -16
 681              		.cfi_offset 6, -12
 682              		.cfi_offset 7, -8
ARM GAS  /tmp/ccqfPfe7.s 			page 13


 683              		.cfi_offset 14, -4
 684              		.loc 1 495 0
 685 0002 40F20003 		movw	r3, #:lower16:rlist
 686 0006 C0F20003 		movt	r3, #:upper16:rlist
 687              		.loc 1 496 0
 688 000a 40F20006 		movw	r6, #:lower16:wa
 689              		.loc 1 495 0
 690 000e 9969     		ldr	r1, [r3, #24]
 691              		.loc 1 493 0
 692 0010 83B0     		sub	sp, sp, #12
 693              	.LCFI14:
 694              		.cfi_def_cfa_offset 32
 695              		.loc 1 495 0
 696 0012 8F68     		ldr	r7, [r1, #8]
 697              	.LVL55:
 698              		.loc 1 496 0
 699 0014 C0F20006 		movt	r6, #:upper16:wa
 700 0018 40F20005 		movw	r5, #:lower16:thread10
 701 001c 40F20004 		movw	r4, #:lower16:.LC4
 702 0020 C0F20005 		movt	r5, #:upper16:thread10
 703 0024 C0F20004 		movt	r4, #:upper16:.LC4
 704 0028 7A1C     		adds	r2, r7, #1
 705 002a 2B46     		mov	r3, r5
 706 002c 0094     		str	r4, [sp, #0]
 707 002e 3068     		ldr	r0, [r6, #0]
 708 0030 4FF4DC71 		mov	r1, #440
 709 0034 FFF7FEFF 		bl	chThdCreateStatic
 710              	.LVL56:
 711 0038 40F20004 		movw	r4, #:lower16:threads
 712 003c C0F20004 		movt	r4, #:upper16:threads
 713              		.loc 1 497 0
 714 0040 7168     		ldr	r1, [r6, #4]
 715              		.loc 1 496 0
 716 0042 2060     		str	r0, [r4, #0]
 717              		.loc 1 497 0
 718 0044 40F20000 		movw	r0, #:lower16:.LC5
 719 0048 C0F20000 		movt	r0, #:upper16:.LC5
 720 004c BA1C     		adds	r2, r7, #2
 721 004e 2B46     		mov	r3, r5
 722 0050 0090     		str	r0, [sp, #0]
 723 0052 0846     		mov	r0, r1
 724 0054 4FF4DC71 		mov	r1, #440
 725 0058 FFF7FEFF 		bl	chThdCreateStatic
 726              	.LVL57:
 727              		.loc 1 498 0
 728 005c B168     		ldr	r1, [r6, #8]
 729              		.loc 1 497 0
 730 005e 6060     		str	r0, [r4, #4]
 731              		.loc 1 498 0
 732 0060 40F20000 		movw	r0, #:lower16:.LC1
 733 0064 C0F20000 		movt	r0, #:upper16:.LC1
 734 0068 FA1C     		adds	r2, r7, #3
 735 006a 2B46     		mov	r3, r5
 736 006c 0090     		str	r0, [sp, #0]
 737 006e 0846     		mov	r0, r1
 738 0070 4FF4DC71 		mov	r1, #440
 739 0074 FFF7FEFF 		bl	chThdCreateStatic
ARM GAS  /tmp/ccqfPfe7.s 			page 14


 740              	.LVL58:
 741              		.loc 1 499 0
 742 0078 F168     		ldr	r1, [r6, #12]
 743              		.loc 1 498 0
 744 007a A060     		str	r0, [r4, #8]
 745              		.loc 1 499 0
 746 007c 40F20000 		movw	r0, #:lower16:.LC2
 747 0080 C0F20000 		movt	r0, #:upper16:.LC2
 748 0084 3A1D     		adds	r2, r7, #4
 749 0086 2B46     		mov	r3, r5
 750 0088 0090     		str	r0, [sp, #0]
 751 008a 0846     		mov	r0, r1
 752 008c 4FF4DC71 		mov	r1, #440
 753 0090 FFF7FEFF 		bl	chThdCreateStatic
 754              	.LVL59:
 755              		.loc 1 500 0
 756 0094 3269     		ldr	r2, [r6, #16]
 757              		.loc 1 499 0
 758 0096 E060     		str	r0, [r4, #12]
 759              		.loc 1 500 0
 760 0098 40F20001 		movw	r1, #:lower16:.LC0
 761 009c C0F20001 		movt	r1, #:upper16:.LC0
 762 00a0 2B46     		mov	r3, r5
 763 00a2 0091     		str	r1, [sp, #0]
 764 00a4 1046     		mov	r0, r2
 765 00a6 4FF4DC71 		mov	r1, #440
 766 00aa 7A1D     		adds	r2, r7, #5
 767 00ac FFF7FEFF 		bl	chThdCreateStatic
 768              	.LVL60:
 769              	.LBB2:
 770              		.loc 1 501 0
 771 00b0 2023     		movs	r3, #32
 772              	.LVL61:
 773              	.LBE2:
 774              		.loc 1 500 0
 775 00b2 2061     		str	r0, [r4, #16]
 776              	.LBB3:
 777              		.loc 1 501 0
 778              	@ 501 "../../test/testmtx.c" 1
 779 00b4 83F31188 		msr     BASEPRI, r3
 780              	@ 0 "" 2
 781              	.LVL62:
 782              		.thumb
 783              	.LBE3:
 784              		.loc 1 502 0
 785 00b8 40F20004 		movw	r4, #:lower16:.LANCHOR0
 786 00bc C0F20004 		movt	r4, #:upper16:.LANCHOR0
 787 00c0 2046     		mov	r0, r4
 788 00c2 FFF7FEFF 		bl	chCondSignalI
 789              	.LVL63:
 790              		.loc 1 503 0
 791 00c6 2046     		mov	r0, r4
 792 00c8 FFF7FEFF 		bl	chCondSignalI
 793              	.LVL64:
 794              		.loc 1 504 0
 795 00cc 2046     		mov	r0, r4
 796 00ce FFF7FEFF 		bl	chCondSignalI
ARM GAS  /tmp/ccqfPfe7.s 			page 15


 797              	.LVL65:
 798              		.loc 1 505 0
 799 00d2 2046     		mov	r0, r4
 800 00d4 FFF7FEFF 		bl	chCondSignalI
 801              	.LVL66:
 802              		.loc 1 506 0
 803 00d8 2046     		mov	r0, r4
 804 00da FFF7FEFF 		bl	chCondSignalI
 805              	.LVL67:
 806              		.loc 1 507 0
 807 00de FFF7FEFF 		bl	chSchRescheduleS
 808              	.LVL68:
 809              	.LBB4:
 810              		.loc 1 508 0
 811 00e2 0023     		movs	r3, #0
 812              	.LVL69:
 813              	@ 508 "../../test/testmtx.c" 1
 814 00e4 83F31188 		msr     BASEPRI, r3
 815              	@ 0 "" 2
 816              	.LVL70:
 817              		.thumb
 818              	.LBE4:
 819              		.loc 1 509 0
 820 00e8 FFF7FEFF 		bl	test_wait_threads
 821              	.LVL71:
 822              		.loc 1 510 0
 823 00ec 40F20001 		movw	r1, #:lower16:.LC6
 824 00f0 0120     		movs	r0, #1
 825 00f2 C0F20001 		movt	r1, #:upper16:.LC6
 826              		.loc 1 511 0
 827 00f6 03B0     		add	sp, sp, #12
 828 00f8 BDE8F040 		pop	{r4, r5, r6, r7, lr}
 829              		.loc 1 510 0
 830 00fc FFF7FEBF 		b	_test_assert_sequence
 831              	.LVL72:
 832              		.cfi_endproc
 833              	.LFE30:
 834              		.size	mtx6_execute, .-mtx6_execute
 835              		.section	.text.mtx1_execute,"ax",%progbits
 836              		.align	2
 837              		.p2align 4,,15
 838              		.thumb
 839              		.thumb_func
 840              		.type	mtx1_execute, %function
 841              	mtx1_execute:
 842              	.LFB9:
 843              		.loc 1 97 0
 844              		.cfi_startproc
 845              		@ args = 0, pretend = 0, frame = 8
 846              		@ frame_needed = 0, uses_anonymous_args = 0
 847 0000 F0B5     		push	{r4, r5, r6, r7, lr}
 848              	.LCFI15:
 849              		.cfi_def_cfa_offset 20
 850              		.cfi_offset 4, -20
 851              		.cfi_offset 5, -16
 852              		.cfi_offset 6, -12
 853              		.cfi_offset 7, -8
ARM GAS  /tmp/ccqfPfe7.s 			page 16


 854              		.cfi_offset 14, -4
 855              		.loc 1 99 0
 856 0002 2C4F     		ldr	r7, .L20
 857              		.loc 1 100 0
 858 0004 2C48     		ldr	r0, .L20+4
 859              		.loc 1 99 0
 860 0006 BB69     		ldr	r3, [r7, #24]
 861              		.loc 1 101 0
 862 0008 2C4E     		ldr	r6, .L20+8
 863              		.loc 1 99 0
 864 000a 9C68     		ldr	r4, [r3, #8]
 865              	.LVL73:
 866              		.loc 1 101 0
 867 000c 2C4D     		ldr	r5, .L20+12
 868              		.loc 1 97 0
 869 000e 85B0     		sub	sp, sp, #20
 870              	.LCFI16:
 871              		.cfi_def_cfa_offset 40
 872              		.loc 1 100 0
 873 0010 FFF7FEFF 		bl	chMtxLock
 874              	.LVL74:
 875              		.loc 1 101 0
 876 0014 2B4A     		ldr	r2, .L20+16
 877 0016 3068     		ldr	r0, [r6, #0]
 878 0018 2B4B     		ldr	r3, .L20+20
 879 001a 0092     		str	r2, [sp, #0]
 880 001c 4FF4DC71 		mov	r1, #440
 881 0020 621C     		adds	r2, r4, #1
 882 0022 FFF7FEFF 		bl	chThdCreateStatic
 883              	.LVL75:
 884              		.loc 1 102 0
 885 0026 7168     		ldr	r1, [r6, #4]
 886              		.loc 1 101 0
 887 0028 2860     		str	r0, [r5, #0]
 888              		.loc 1 102 0
 889 002a 2848     		ldr	r0, .L20+24
 890 002c 0391     		str	r1, [sp, #12]
 891 002e A21C     		adds	r2, r4, #2
 892 0030 4FF4DC71 		mov	r1, #440
 893 0034 244B     		ldr	r3, .L20+20
 894 0036 0090     		str	r0, [sp, #0]
 895 0038 0398     		ldr	r0, [sp, #12]
 896 003a FFF7FEFF 		bl	chThdCreateStatic
 897              	.LVL76:
 898              		.loc 1 103 0
 899 003e B368     		ldr	r3, [r6, #8]
 900              		.loc 1 102 0
 901 0040 6860     		str	r0, [r5, #4]
 902              		.loc 1 103 0
 903 0042 2348     		ldr	r0, .L20+28
 904 0044 0393     		str	r3, [sp, #12]
 905 0046 E21C     		adds	r2, r4, #3
 906 0048 4FF4DC71 		mov	r1, #440
 907 004c 1E4B     		ldr	r3, .L20+20
 908 004e 0090     		str	r0, [sp, #0]
 909 0050 0398     		ldr	r0, [sp, #12]
 910 0052 FFF7FEFF 		bl	chThdCreateStatic
ARM GAS  /tmp/ccqfPfe7.s 			page 17


 911              	.LVL77:
 912              		.loc 1 104 0
 913 0056 F268     		ldr	r2, [r6, #12]
 914              		.loc 1 103 0
 915 0058 A860     		str	r0, [r5, #8]
 916              		.loc 1 104 0
 917 005a 1E48     		ldr	r0, .L20+32
 918 005c 0392     		str	r2, [sp, #12]
 919 005e 4FF4DC71 		mov	r1, #440
 920 0062 221D     		adds	r2, r4, #4
 921 0064 184B     		ldr	r3, .L20+20
 922 0066 0090     		str	r0, [sp, #0]
 923 0068 0398     		ldr	r0, [sp, #12]
 924 006a FFF7FEFF 		bl	chThdCreateStatic
 925              	.LVL78:
 926              		.loc 1 105 0
 927 006e 3669     		ldr	r6, [r6, #16]
 928              		.loc 1 104 0
 929 0070 E860     		str	r0, [r5, #12]
 930              		.loc 1 105 0
 931 0072 1948     		ldr	r0, .L20+36
 932 0074 144B     		ldr	r3, .L20+20
 933 0076 0090     		str	r0, [sp, #0]
 934 0078 4FF4DC71 		mov	r1, #440
 935 007c 621D     		adds	r2, r4, #5
 936 007e 3046     		mov	r0, r6
 937 0080 FFF7FEFF 		bl	chThdCreateStatic
 938              	.LVL79:
 939 0084 2861     		str	r0, [r5, #16]
 940              		.loc 1 106 0
 941 0086 FFF7FEFF 		bl	chMtxUnlock
 942              	.LVL80:
 943              		.loc 1 107 0
 944 008a FFF7FEFF 		bl	test_wait_threads
 945              	.LVL81:
 946              		.loc 1 108 0
 947 008e B969     		ldr	r1, [r7, #24]
 948 0090 8B68     		ldr	r3, [r1, #8]
 949 0092 0120     		movs	r0, #1
 950 0094 1A1B     		subs	r2, r3, r4
 951 0096 5142     		rsbs	r1, r2, #0
 952 0098 5141     		adcs	r1, r1, r2
 953 009a FFF7FEFF 		bl	_test_assert
 954              	.LVL82:
 955 009e 08B1     		cbz	r0, .L19
 956              		.loc 1 110 0
 957 00a0 05B0     		add	sp, sp, #20
 958 00a2 F0BD     		pop	{r4, r5, r6, r7, pc}
 959              	.L19:
 960              		.loc 1 109 0
 961 00a4 0D49     		ldr	r1, .L20+40
 962 00a6 0220     		movs	r0, #2
 963              		.loc 1 110 0
 964 00a8 05B0     		add	sp, sp, #20
 965 00aa BDE8F040 		pop	{r4, r5, r6, r7, lr}
 966              		.loc 1 109 0
 967 00ae FFF7FEBF 		b	_test_assert_sequence
ARM GAS  /tmp/ccqfPfe7.s 			page 18


 968              	.LVL83:
 969              	.L21:
 970 00b2 00BF     		.align	2
 971              	.L20:
 972 00b4 00000000 		.word	rlist
 973 00b8 00000000 		.word	.LANCHOR2
 974 00bc 00000000 		.word	wa
 975 00c0 00000000 		.word	threads
 976 00c4 10000000 		.word	.LC4
 977 00c8 00000000 		.word	thread1
 978 00cc 14000000 		.word	.LC5
 979 00d0 04000000 		.word	.LC1
 980 00d4 08000000 		.word	.LC2
 981 00d8 00000000 		.word	.LC0
 982 00dc 18000000 		.word	.LC6
 983              		.cfi_endproc
 984              	.LFE9:
 985              		.size	mtx1_execute, .-mtx1_execute
 986              		.section	.text.mtx5_execute,"ax",%progbits
 987              		.align	2
 988              		.p2align 4,,15
 989              		.thumb
 990              		.thumb_func
 991              		.type	mtx5_execute, %function
 992              	mtx5_execute:
 993              	.LFB27:
 994              		.loc 1 433 0
 995              		.cfi_startproc
 996              		@ args = 0, pretend = 0, frame = 0
 997              		@ frame_needed = 0, uses_anonymous_args = 0
 998 0000 F8B5     		push	{r3, r4, r5, r6, r7, lr}
 999              	.LCFI17:
 1000              		.cfi_def_cfa_offset 24
 1001              		.cfi_offset 3, -24
 1002              		.cfi_offset 4, -20
 1003              		.cfi_offset 5, -16
 1004              		.cfi_offset 6, -12
 1005              		.cfi_offset 7, -8
 1006              		.cfi_offset 14, -4
 1007              		.loc 1 437 0
 1008 0002 2E4D     		ldr	r5, .L27
 1009              		.loc 1 439 0
 1010 0004 2E4C     		ldr	r4, .L27+4
 1011              		.loc 1 437 0
 1012 0006 AB69     		ldr	r3, [r5, #24]
 1013              		.loc 1 439 0
 1014 0008 2046     		mov	r0, r4
 1015              		.loc 1 437 0
 1016 000a 9E68     		ldr	r6, [r3, #8]
 1017              	.LVL84:
 1018              		.loc 1 439 0
 1019 000c FFF7FEFF 		bl	chMtxTryLock
 1020              	.LVL85:
 1021              		.loc 1 440 0
 1022 0010 0146     		mov	r1, r0
 1023 0012 0120     		movs	r0, #1
 1024              	.LVL86:
ARM GAS  /tmp/ccqfPfe7.s 			page 19


 1025 0014 FFF7FEFF 		bl	_test_assert
 1026              	.LVL87:
 1027 0018 00B1     		cbz	r0, .L26
 1028              	.L22:
 1029 001a F8BD     		pop	{r3, r4, r5, r6, r7, pc}
 1030              	.L26:
 1031              		.loc 1 442 0
 1032 001c 2046     		mov	r0, r4
 1033 001e FFF7FEFF 		bl	chMtxTryLock
 1034              	.LVL88:
 1035              		.loc 1 443 0
 1036 0022 80F00101 		eor	r1, r0, #1
 1037 0026 C9B2     		uxtb	r1, r1
 1038 0028 0220     		movs	r0, #2
 1039              	.LVL89:
 1040 002a FFF7FEFF 		bl	_test_assert
 1041              	.LVL90:
 1042 002e 0746     		mov	r7, r0
 1043 0030 0028     		cmp	r0, #0
 1044 0032 F2D1     		bne	.L22
 1045              	.LBB5:
 1046              		.loc 1 445 0
 1047 0034 2023     		movs	r3, #32
 1048              	.LVL91:
 1049              	@ 445 "../../test/testmtx.c" 1
 1050 0036 83F31188 		msr     BASEPRI, r3
 1051              	@ 0 "" 2
 1052              	.LVL92:
 1053              		.thumb
 1054              	.LBE5:
 1055              		.loc 1 446 0
 1056 003a FFF7FEFF 		bl	chMtxUnlockS
 1057              	.LVL93:
 1058              	.LBB6:
 1059              		.loc 1 447 0
 1060 003e 3B46     		mov	r3, r7
 1061              	.LVL94:
 1062              	@ 447 "../../test/testmtx.c" 1
 1063 0040 83F31188 		msr     BASEPRI, r3
 1064              	@ 0 "" 2
 1065              	.LVL95:
 1066              		.thumb
 1067              	.LBE6:
 1068              		.loc 1 449 0
 1069 0044 2268     		ldr	r2, [r4, #0]
 1070 0046 0320     		movs	r0, #3
 1071 0048 B2EB040C 		subs	ip, r2, r4
 1072 004c DCF10003 		rsbs	r3, ip, #0
 1073              	.LVL96:
 1074 0050 53EB0C01 		adcs	r1, r3, ip
 1075 0054 FFF7FEFF 		bl	_test_assert
 1076              	.LVL97:
 1077 0058 0028     		cmp	r0, #0
 1078 005a DED1     		bne	.L22
 1079              		.loc 1 450 0
 1080 005c A168     		ldr	r1, [r4, #8]
 1081 005e 0420     		movs	r0, #4
ARM GAS  /tmp/ccqfPfe7.s 			page 20


 1082 0060 D1F10101 		rsbs	r1, r1, #1
 1083 0064 38BF     		it	cc
 1084 0066 0021     		movcc	r1, #0
 1085 0068 FFF7FEFF 		bl	_test_assert
 1086              	.LVL98:
 1087 006c 0028     		cmp	r0, #0
 1088 006e D4D1     		bne	.L22
 1089              		.loc 1 451 0
 1090 0070 A869     		ldr	r0, [r5, #24]
 1091 0072 8268     		ldr	r2, [r0, #8]
 1092 0074 0520     		movs	r0, #5
 1093 0076 B2EB060E 		subs	lr, r2, r6
 1094 007a DEF10003 		rsbs	r3, lr, #0
 1095 007e 53EB0E01 		adcs	r1, r3, lr
 1096 0082 FFF7FEFF 		bl	_test_assert
 1097              	.LVL99:
 1098 0086 0028     		cmp	r0, #0
 1099 0088 C7D1     		bne	.L22
 1100              		.loc 1 453 0
 1101 008a 2046     		mov	r0, r4
 1102 008c FFF7FEFF 		bl	chMtxLock
 1103              	.LVL100:
 1104              		.loc 1 454 0
 1105 0090 FFF7FEFF 		bl	chMtxUnlockAll
 1106              	.LVL101:
 1107              		.loc 1 455 0
 1108 0094 2168     		ldr	r1, [r4, #0]
 1109 0096 0620     		movs	r0, #6
 1110 0098 0A1B     		subs	r2, r1, r4
 1111 009a 5342     		rsbs	r3, r2, #0
 1112 009c 53EB0201 		adcs	r1, r3, r2
 1113 00a0 FFF7FEFF 		bl	_test_assert
 1114              	.LVL102:
 1115 00a4 0028     		cmp	r0, #0
 1116 00a6 B8D1     		bne	.L22
 1117              		.loc 1 456 0
 1118 00a8 A168     		ldr	r1, [r4, #8]
 1119 00aa 0720     		movs	r0, #7
 1120 00ac D1F10101 		rsbs	r1, r1, #1
 1121 00b0 38BF     		it	cc
 1122 00b2 0021     		movcc	r1, #0
 1123              		.loc 1 457 0
 1124 00b4 BDE8F840 		pop	{r3, r4, r5, r6, r7, lr}
 1125              		.loc 1 456 0
 1126 00b8 FFF7FEBF 		b	_test_assert
 1127              	.LVL103:
 1128              	.L28:
 1129              		.align	2
 1130              	.L27:
 1131 00bc 00000000 		.word	rlist
 1132 00c0 00000000 		.word	.LANCHOR2
 1133              		.cfi_endproc
 1134              	.LFE27:
 1135              		.size	mtx5_execute, .-mtx5_execute
 1136 00c4 AFF30080 		.section	.text.mtx4_execute,"ax",%progbits
 1136      AFF30080 
 1136      AFF30080 
ARM GAS  /tmp/ccqfPfe7.s 			page 21


 1137              		.align	2
 1138              		.p2align 4,,15
 1139              		.thumb
 1140              		.thumb_func
 1141              		.type	mtx4_execute, %function
 1142              	mtx4_execute:
 1143              	.LFB25:
 1144              		.loc 1 365 0
 1145              		.cfi_startproc
 1146              		@ args = 0, pretend = 0, frame = 8
 1147              		@ frame_needed = 0, uses_anonymous_args = 0
 1148 0000 2DE9F046 		push	{r4, r5, r6, r7, r9, sl, lr}
 1149              	.LCFI18:
 1150              		.cfi_def_cfa_offset 28
 1151              		.cfi_offset 4, -28
 1152              		.cfi_offset 5, -24
 1153              		.cfi_offset 6, -20
 1154              		.cfi_offset 7, -16
 1155              		.cfi_offset 9, -12
 1156              		.cfi_offset 10, -8
 1157              		.cfi_offset 14, -4
 1158              		.loc 1 368 0
 1159 0004 8C4D     		ldr	r5, .L34
 1160              		.loc 1 371 0
 1161 0006 8D4E     		ldr	r6, .L34+4
 1162              		.loc 1 368 0
 1163 0008 AB69     		ldr	r3, [r5, #24]
 1164              		.loc 1 371 0
 1165 000a 3268     		ldr	r2, [r6, #0]
 1166              		.loc 1 368 0
 1167 000c 9C68     		ldr	r4, [r3, #8]
 1168              	.LVL104:
 1169              		.loc 1 371 0
 1170 000e 8C48     		ldr	r0, .L34+8
 1171 0010 8C4B     		ldr	r3, .L34+12
 1172 0012 8D4F     		ldr	r7, .L34+16
 1173              		.loc 1 365 0
 1174 0014 85B0     		sub	sp, sp, #20
 1175              	.LCFI19:
 1176              		.cfi_def_cfa_offset 48
 1177              		.loc 1 369 0
 1178 0016 04F10109 		add	r9, r4, #1
 1179              	.LVL105:
 1180              		.loc 1 371 0
 1181 001a 0392     		str	r2, [sp, #12]
 1182 001c 0090     		str	r0, [sp, #0]
 1183 001e 4FF4DC71 		mov	r1, #440
 1184 0022 4A46     		mov	r2, r9
 1185 0024 0398     		ldr	r0, [sp, #12]
 1186 0026 FFF7FEFF 		bl	chThdCreateStatic
 1187              	.LVL106:
 1188              		.loc 1 372 0
 1189 002a 7668     		ldr	r6, [r6, #4]
 1190              		.loc 1 371 0
 1191 002c 3860     		str	r0, [r7, #0]
 1192              		.loc 1 372 0
 1193 002e 8748     		ldr	r0, .L34+20
ARM GAS  /tmp/ccqfPfe7.s 			page 22


 1194 0030 874B     		ldr	r3, .L34+24
 1195 0032 0090     		str	r0, [sp, #0]
 1196              		.loc 1 370 0
 1197 0034 04F1020A 		add	sl, r4, #2
 1198              	.LVL107:
 1199              		.loc 1 372 0
 1200 0038 4FF4DC71 		mov	r1, #440
 1201 003c 5246     		mov	r2, sl
 1202 003e 3046     		mov	r0, r6
 1203 0040 FFF7FEFF 		bl	chThdCreateStatic
 1204              	.LVL108:
 1205 0044 7860     		str	r0, [r7, #4]
 1206              		.loc 1 373 0
 1207 0046 8348     		ldr	r0, .L34+28
 1208 0048 FFF7FEFF 		bl	chMtxLock
 1209              	.LVL109:
 1210              		.loc 1 374 0
 1211 004c A969     		ldr	r1, [r5, #24]
 1212 004e 8B68     		ldr	r3, [r1, #8]
 1213 0050 0120     		movs	r0, #1
 1214 0052 1A1B     		subs	r2, r3, r4
 1215 0054 5142     		rsbs	r1, r2, #0
 1216 0056 5141     		adcs	r1, r1, r2
 1217 0058 FFF7FEFF 		bl	_test_assert
 1218              	.LVL110:
 1219 005c 10B1     		cbz	r0, .L33
 1220              	.L29:
 1221              		.loc 1 409 0
 1222 005e 05B0     		add	sp, sp, #20
 1223 0060 BDE8F086 		pop	{r4, r5, r6, r7, r9, sl, pc}
 1224              	.L33:
 1225              		.loc 1 375 0
 1226 0064 6420     		movs	r0, #100
 1227 0066 FFF7FEFF 		bl	chThdSleep
 1228              	.LVL111:
 1229              		.loc 1 376 0
 1230 006a A869     		ldr	r0, [r5, #24]
 1231 006c 8368     		ldr	r3, [r0, #8]
 1232 006e 0220     		movs	r0, #2
 1233 0070 B3EB0902 		subs	r2, r3, r9
 1234 0074 5142     		rsbs	r1, r2, #0
 1235 0076 5141     		adcs	r1, r1, r2
 1236 0078 FFF7FEFF 		bl	_test_assert
 1237              	.LVL112:
 1238 007c 0028     		cmp	r0, #0
 1239 007e EED1     		bne	.L29
 1240              		.loc 1 377 0
 1241 0080 7548     		ldr	r0, .L34+32
 1242 0082 FFF7FEFF 		bl	chMtxLock
 1243              	.LVL113:
 1244              		.loc 1 378 0
 1245 0086 A869     		ldr	r0, [r5, #24]
 1246 0088 8368     		ldr	r3, [r0, #8]
 1247 008a 0320     		movs	r0, #3
 1248 008c B3EB090C 		subs	ip, r3, r9
 1249 0090 DCF10002 		rsbs	r2, ip, #0
 1250 0094 52EB0C01 		adcs	r1, r2, ip
ARM GAS  /tmp/ccqfPfe7.s 			page 23


 1251 0098 FFF7FEFF 		bl	_test_assert
 1252              	.LVL114:
 1253 009c 0028     		cmp	r0, #0
 1254 009e DED1     		bne	.L29
 1255              		.loc 1 379 0
 1256 00a0 6420     		movs	r0, #100
 1257 00a2 FFF7FEFF 		bl	chThdSleep
 1258              	.LVL115:
 1259              		.loc 1 380 0
 1260 00a6 A969     		ldr	r1, [r5, #24]
 1261 00a8 8B68     		ldr	r3, [r1, #8]
 1262 00aa 0420     		movs	r0, #4
 1263 00ac B3EB0A0E 		subs	lr, r3, sl
 1264 00b0 DEF10002 		rsbs	r2, lr, #0
 1265 00b4 52EB0E01 		adcs	r1, r2, lr
 1266 00b8 FFF7FEFF 		bl	_test_assert
 1267              	.LVL116:
 1268 00bc 0028     		cmp	r0, #0
 1269 00be CED1     		bne	.L29
 1270              		.loc 1 381 0
 1271 00c0 FFF7FEFF 		bl	chMtxUnlock
 1272              	.LVL117:
 1273              		.loc 1 382 0
 1274 00c4 A869     		ldr	r0, [r5, #24]
 1275 00c6 8168     		ldr	r1, [r0, #8]
 1276 00c8 0520     		movs	r0, #5
 1277 00ca B1EB0903 		subs	r3, r1, r9
 1278 00ce 5A42     		rsbs	r2, r3, #0
 1279 00d0 52EB0301 		adcs	r1, r2, r3
 1280 00d4 FFF7FEFF 		bl	_test_assert
 1281              	.LVL118:
 1282 00d8 0028     		cmp	r0, #0
 1283 00da C0D1     		bne	.L29
 1284              		.loc 1 383 0
 1285 00dc 6420     		movs	r0, #100
 1286 00de FFF7FEFF 		bl	chThdSleep
 1287              	.LVL119:
 1288              		.loc 1 384 0
 1289 00e2 A869     		ldr	r0, [r5, #24]
 1290 00e4 8168     		ldr	r1, [r0, #8]
 1291 00e6 0620     		movs	r0, #6
 1292 00e8 B1EB0903 		subs	r3, r1, r9
 1293 00ec 5A42     		rsbs	r2, r3, #0
 1294 00ee 52EB0301 		adcs	r1, r2, r3
 1295 00f2 FFF7FEFF 		bl	_test_assert
 1296              	.LVL120:
 1297 00f6 0028     		cmp	r0, #0
 1298 00f8 B1D1     		bne	.L29
 1299              		.loc 1 385 0
 1300 00fa FFF7FEFF 		bl	chMtxUnlockAll
 1301              	.LVL121:
 1302              		.loc 1 386 0
 1303 00fe A869     		ldr	r0, [r5, #24]
 1304 0100 8168     		ldr	r1, [r0, #8]
 1305 0102 0720     		movs	r0, #7
 1306 0104 B1EB040C 		subs	ip, r1, r4
 1307 0108 DCF10003 		rsbs	r3, ip, #0
ARM GAS  /tmp/ccqfPfe7.s 			page 24


 1308 010c 53EB0C01 		adcs	r1, r3, ip
 1309 0110 FFF7FEFF 		bl	_test_assert
 1310              	.LVL122:
 1311 0114 0028     		cmp	r0, #0
 1312 0116 A2D1     		bne	.L29
 1313              		.loc 1 387 0
 1314 0118 FFF7FEFF 		bl	test_wait_threads
 1315              	.LVL123:
 1316              		.loc 1 390 0
 1317 011c 4F4A     		ldr	r2, .L34+36
 1318 011e 494B     		ldr	r3, .L34+12
 1319 0120 0092     		str	r2, [sp, #0]
 1320 0122 4FF4DC71 		mov	r1, #440
 1321 0126 4A46     		mov	r2, r9
 1322 0128 0398     		ldr	r0, [sp, #12]
 1323 012a FFF7FEFF 		bl	chThdCreateStatic
 1324              	.LVL124:
 1325 012e 3860     		str	r0, [r7, #0]
 1326              		.loc 1 391 0
 1327 0130 4B48     		ldr	r0, .L34+40
 1328 0132 474B     		ldr	r3, .L34+24
 1329 0134 0090     		str	r0, [sp, #0]
 1330 0136 4FF4DC71 		mov	r1, #440
 1331 013a 5246     		mov	r2, sl
 1332 013c 3046     		mov	r0, r6
 1333 013e FFF7FEFF 		bl	chThdCreateStatic
 1334              	.LVL125:
 1335 0142 7860     		str	r0, [r7, #4]
 1336              		.loc 1 392 0
 1337 0144 4348     		ldr	r0, .L34+28
 1338 0146 FFF7FEFF 		bl	chMtxLock
 1339              	.LVL126:
 1340              		.loc 1 393 0
 1341 014a A969     		ldr	r1, [r5, #24]
 1342 014c 8B68     		ldr	r3, [r1, #8]
 1343 014e 0820     		movs	r0, #8
 1344 0150 B3EB040E 		subs	lr, r3, r4
 1345 0154 DEF10002 		rsbs	r2, lr, #0
 1346 0158 52EB0E01 		adcs	r1, r2, lr
 1347 015c FFF7FEFF 		bl	_test_assert
 1348              	.LVL127:
 1349 0160 0028     		cmp	r0, #0
 1350 0162 7FF47CAF 		bne	.L29
 1351              		.loc 1 394 0
 1352 0166 6420     		movs	r0, #100
 1353 0168 FFF7FEFF 		bl	chThdSleep
 1354              	.LVL128:
 1355              		.loc 1 395 0
 1356 016c A869     		ldr	r0, [r5, #24]
 1357 016e 8168     		ldr	r1, [r0, #8]
 1358 0170 0920     		movs	r0, #9
 1359 0172 B1EB0903 		subs	r3, r1, r9
 1360 0176 5A42     		rsbs	r2, r3, #0
 1361 0178 52EB0301 		adcs	r1, r2, r3
 1362 017c FFF7FEFF 		bl	_test_assert
 1363              	.LVL129:
 1364 0180 0028     		cmp	r0, #0
ARM GAS  /tmp/ccqfPfe7.s 			page 25


 1365 0182 7FF46CAF 		bne	.L29
 1366              		.loc 1 396 0
 1367 0186 3448     		ldr	r0, .L34+32
 1368 0188 FFF7FEFF 		bl	chMtxLock
 1369              	.LVL130:
 1370              		.loc 1 397 0
 1371 018c A869     		ldr	r0, [r5, #24]
 1372 018e 8168     		ldr	r1, [r0, #8]
 1373 0190 0A20     		movs	r0, #10
 1374 0192 B1EB0903 		subs	r3, r1, r9
 1375 0196 5A42     		rsbs	r2, r3, #0
 1376 0198 52EB0301 		adcs	r1, r2, r3
 1377 019c FFF7FEFF 		bl	_test_assert
 1378              	.LVL131:
 1379 01a0 0028     		cmp	r0, #0
 1380 01a2 7FF45CAF 		bne	.L29
 1381              		.loc 1 398 0
 1382 01a6 6420     		movs	r0, #100
 1383 01a8 FFF7FEFF 		bl	chThdSleep
 1384              	.LVL132:
 1385              		.loc 1 399 0
 1386 01ac AE69     		ldr	r6, [r5, #24]
 1387 01ae B168     		ldr	r1, [r6, #8]
 1388 01b0 0B20     		movs	r0, #11
 1389 01b2 B1EB0A0C 		subs	ip, r1, sl
 1390 01b6 DCF10003 		rsbs	r3, ip, #0
 1391 01ba 53EB0C01 		adcs	r1, r3, ip
 1392 01be FFF7FEFF 		bl	_test_assert
 1393              	.LVL133:
 1394 01c2 0646     		mov	r6, r0
 1395 01c4 0028     		cmp	r0, #0
 1396 01c6 7FF44AAF 		bne	.L29
 1397              	.LBB7:
 1398              		.loc 1 400 0
 1399 01ca 2023     		movs	r3, #32
 1400              	.LVL134:
 1401              	@ 400 "../../test/testmtx.c" 1
 1402 01cc 83F31188 		msr     BASEPRI, r3
 1403              	@ 0 "" 2
 1404              	.LVL135:
 1405              		.thumb
 1406              	.LBE7:
 1407              		.loc 1 401 0
 1408 01d0 FFF7FEFF 		bl	chMtxUnlockS
 1409              	.LVL136:
 1410              	.LBB8:
 1411              		.loc 1 402 0
 1412 01d4 3346     		mov	r3, r6
 1413              	.LVL137:
 1414              	@ 402 "../../test/testmtx.c" 1
 1415 01d6 83F31188 		msr     BASEPRI, r3
 1416              	@ 0 "" 2
 1417              	.LVL138:
 1418              		.thumb
 1419              	.LBE8:
 1420              		.loc 1 403 0
 1421 01da A869     		ldr	r0, [r5, #24]
ARM GAS  /tmp/ccqfPfe7.s 			page 26


 1422 01dc 8268     		ldr	r2, [r0, #8]
 1423 01de 0C20     		movs	r0, #12
 1424 01e0 B2EB090E 		subs	lr, r2, r9
 1425 01e4 DEF10001 		rsbs	r1, lr, #0
 1426 01e8 51EB0E01 		adcs	r1, r1, lr
 1427 01ec FFF7FEFF 		bl	_test_assert
 1428              	.LVL139:
 1429 01f0 0028     		cmp	r0, #0
 1430 01f2 7FF434AF 		bne	.L29
 1431              		.loc 1 404 0
 1432 01f6 6420     		movs	r0, #100
 1433 01f8 FFF7FEFF 		bl	chThdSleep
 1434              	.LVL140:
 1435              		.loc 1 405 0
 1436 01fc AB69     		ldr	r3, [r5, #24]
 1437 01fe 9A68     		ldr	r2, [r3, #8]
 1438 0200 0D20     		movs	r0, #13
 1439 0202 B2EB0903 		subs	r3, r2, r9
 1440 0206 5942     		rsbs	r1, r3, #0
 1441 0208 5941     		adcs	r1, r1, r3
 1442 020a FFF7FEFF 		bl	_test_assert
 1443              	.LVL141:
 1444 020e 0028     		cmp	r0, #0
 1445 0210 7FF425AF 		bne	.L29
 1446              		.loc 1 406 0
 1447 0214 FFF7FEFF 		bl	chMtxUnlockAll
 1448              	.LVL142:
 1449              		.loc 1 407 0
 1450 0218 A869     		ldr	r0, [r5, #24]
 1451 021a 8268     		ldr	r2, [r0, #8]
 1452 021c 0E20     		movs	r0, #14
 1453 021e 131B     		subs	r3, r2, r4
 1454 0220 5942     		rsbs	r1, r3, #0
 1455 0222 5941     		adcs	r1, r1, r3
 1456 0224 FFF7FEFF 		bl	_test_assert
 1457              	.LVL143:
 1458 0228 0028     		cmp	r0, #0
 1459 022a 7FF418AF 		bne	.L29
 1460              		.loc 1 409 0
 1461 022e 05B0     		add	sp, sp, #20
 1462 0230 BDE8F046 		pop	{r4, r5, r6, r7, r9, sl, lr}
 1463              		.loc 1 408 0
 1464 0234 FFF7FEBF 		b	test_wait_threads
 1465              	.LVL144:
 1466              	.L35:
 1467              		.align	2
 1468              	.L34:
 1469 0238 00000000 		.word	rlist
 1470 023c 00000000 		.word	wa
 1471 0240 08000000 		.word	.LC2
 1472 0244 00000000 		.word	thread4a
 1473 0248 00000000 		.word	threads
 1474 024c 00000000 		.word	.LC0
 1475 0250 00000000 		.word	thread4b
 1476 0254 00000000 		.word	.LANCHOR1
 1477 0258 00000000 		.word	.LANCHOR2
 1478 025c 14000000 		.word	.LC5
ARM GAS  /tmp/ccqfPfe7.s 			page 27


 1479 0260 04000000 		.word	.LC1
 1480              		.cfi_endproc
 1481              	.LFE25:
 1482              		.size	mtx4_execute, .-mtx4_execute
 1483 0264 AFF30080 		.section	.text.thread4b,"ax",%progbits
 1483      AFF30080 
 1483      AFF30080 
 1484              		.align	2
 1485              		.p2align 4,,15
 1486              		.thumb
 1487              		.thumb_func
 1488              		.type	thread4b, %function
 1489              	thread4b:
 1490              	.LFB24:
 1491              		.loc 1 356 0
 1492              		.cfi_startproc
 1493              		@ args = 0, pretend = 0, frame = 0
 1494              		@ frame_needed = 0, uses_anonymous_args = 0
 1495              	.LVL145:
 1496 0000 08B5     		push	{r3, lr}
 1497              	.LCFI20:
 1498              		.cfi_def_cfa_offset 8
 1499              		.cfi_offset 3, -8
 1500              		.cfi_offset 14, -4
 1501              		.loc 1 359 0
 1502 0002 9620     		movs	r0, #150
 1503              	.LVL146:
 1504 0004 FFF7FEFF 		bl	chThdSleep
 1505              	.LVL147:
 1506              		.loc 1 360 0
 1507 0008 40F20000 		movw	r0, #:lower16:.LANCHOR2
 1508 000c C0F20000 		movt	r0, #:upper16:.LANCHOR2
 1509 0010 FFF7FEFF 		bl	chMtxLock
 1510              	.LVL148:
 1511              		.loc 1 361 0
 1512 0014 FFF7FEFF 		bl	chMtxUnlock
 1513              	.LVL149:
 1514              		.loc 1 363 0
 1515 0018 0020     		movs	r0, #0
 1516 001a 08BD     		pop	{r3, pc}
 1517              		.cfi_endproc
 1518              	.LFE24:
 1519              		.size	thread4b, .-thread4b
 1520 001c AFF30080 		.section	.text.thread4a,"ax",%progbits
 1521              		.align	2
 1522              		.p2align 4,,15
 1523              		.thumb
 1524              		.thumb_func
 1525              		.type	thread4a, %function
 1526              	thread4a:
 1527              	.LFB23:
 1528              		.loc 1 347 0
 1529              		.cfi_startproc
 1530              		@ args = 0, pretend = 0, frame = 0
 1531              		@ frame_needed = 0, uses_anonymous_args = 0
 1532              	.LVL150:
 1533 0000 08B5     		push	{r3, lr}
ARM GAS  /tmp/ccqfPfe7.s 			page 28


 1534              	.LCFI21:
 1535              		.cfi_def_cfa_offset 8
 1536              		.cfi_offset 3, -8
 1537              		.cfi_offset 14, -4
 1538              		.loc 1 350 0
 1539 0002 3220     		movs	r0, #50
 1540              	.LVL151:
 1541 0004 FFF7FEFF 		bl	chThdSleep
 1542              	.LVL152:
 1543              		.loc 1 351 0
 1544 0008 40F20000 		movw	r0, #:lower16:.LANCHOR1
 1545 000c C0F20000 		movt	r0, #:upper16:.LANCHOR1
 1546 0010 FFF7FEFF 		bl	chMtxLock
 1547              	.LVL153:
 1548              		.loc 1 352 0
 1549 0014 FFF7FEFF 		bl	chMtxUnlock
 1550              	.LVL154:
 1551              		.loc 1 354 0
 1552 0018 0020     		movs	r0, #0
 1553 001a 08BD     		pop	{r3, pc}
 1554              		.cfi_endproc
 1555              	.LFE23:
 1556              		.size	thread4a, .-thread4a
 1557 001c AFF30080 		.section	.text.mtx3_execute,"ax",%progbits
 1558              		.align	2
 1559              		.p2align 4,,15
 1560              		.thumb
 1561              		.thumb_func
 1562              		.type	mtx3_execute, %function
 1563              	mtx3_execute:
 1564              	.LFB21:
 1565              		.loc 1 308 0
 1566              		.cfi_startproc
 1567              		@ args = 0, pretend = 0, frame = 8
 1568              		@ frame_needed = 0, uses_anonymous_args = 0
 1569 0000 2DE9F041 		push	{r4, r5, r6, r7, r8, lr}
 1570              	.LCFI22:
 1571              		.cfi_def_cfa_offset 24
 1572              		.cfi_offset 4, -24
 1573              		.cfi_offset 5, -20
 1574              		.cfi_offset 6, -16
 1575              		.cfi_offset 7, -12
 1576              		.cfi_offset 8, -8
 1577              		.cfi_offset 14, -4
 1578              		.loc 1 313 0
 1579 0004 304E     		ldr	r6, .L41
 1580 0006 DFF8E480 		ldr	r8, .L41+36
 1581 000a 304C     		ldr	r4, .L41+4
 1582              		.loc 1 308 0
 1583 000c 84B0     		sub	sp, sp, #16
 1584              	.LCFI23:
 1585              		.cfi_def_cfa_offset 40
 1586              		.loc 1 311 0
 1587 000e FFF7FEFF 		bl	test_wait_tick
 1588              	.LVL155:
 1589              		.loc 1 313 0
 1590 0012 B369     		ldr	r3, [r6, #24]
ARM GAS  /tmp/ccqfPfe7.s 			page 29


 1591              		.loc 1 312 0
 1592 0014 2E49     		ldr	r1, .L41+8
 1593              		.loc 1 313 0
 1594 0016 9A68     		ldr	r2, [r3, #8]
 1595              		.loc 1 312 0
 1596 0018 CF68     		ldr	r7, [r1, #12]
 1597              	.LVL156:
 1598              		.loc 1 313 0
 1599 001a 2E4B     		ldr	r3, .L41+12
 1600 001c D8F80000 		ldr	r0, [r8, #0]
 1601 0020 0025     		movs	r5, #0
 1602 0022 4FF4DC71 		mov	r1, #440
 1603 0026 053A     		subs	r2, r2, #5
 1604 0028 0095     		str	r5, [sp, #0]
 1605 002a FFF7FEFF 		bl	chThdCreateStatic
 1606              	.LVL157:
 1607              		.loc 1 314 0
 1608 002e B369     		ldr	r3, [r6, #24]
 1609 0030 D8F80420 		ldr	r2, [r8, #4]
 1610 0034 9B68     		ldr	r3, [r3, #8]
 1611 0036 0392     		str	r2, [sp, #12]
 1612              		.loc 1 313 0
 1613 0038 2060     		str	r0, [r4, #0]
 1614              		.loc 1 314 0
 1615 003a 1A1F     		subs	r2, r3, #4
 1616 003c 4FF4DC71 		mov	r1, #440
 1617 0040 254B     		ldr	r3, .L41+16
 1618 0042 0095     		str	r5, [sp, #0]
 1619 0044 0398     		ldr	r0, [sp, #12]
 1620 0046 FFF7FEFF 		bl	chThdCreateStatic
 1621              	.LVL158:
 1622              		.loc 1 315 0
 1623 004a B169     		ldr	r1, [r6, #24]
 1624 004c D8F80820 		ldr	r2, [r8, #8]
 1625 0050 8B68     		ldr	r3, [r1, #8]
 1626 0052 0392     		str	r2, [sp, #12]
 1627              		.loc 1 314 0
 1628 0054 6060     		str	r0, [r4, #4]
 1629              		.loc 1 315 0
 1630 0056 DA1E     		subs	r2, r3, #3
 1631 0058 4FF4DC71 		mov	r1, #440
 1632 005c 1F4B     		ldr	r3, .L41+20
 1633 005e 0095     		str	r5, [sp, #0]
 1634 0060 0398     		ldr	r0, [sp, #12]
 1635 0062 FFF7FEFF 		bl	chThdCreateStatic
 1636              	.LVL159:
 1637              		.loc 1 316 0
 1638 0066 B169     		ldr	r1, [r6, #24]
 1639 0068 D8F80C20 		ldr	r2, [r8, #12]
 1640 006c 8B68     		ldr	r3, [r1, #8]
 1641 006e 0392     		str	r2, [sp, #12]
 1642              		.loc 1 315 0
 1643 0070 A060     		str	r0, [r4, #8]
 1644              		.loc 1 316 0
 1645 0072 9A1E     		subs	r2, r3, #2
 1646 0074 4FF4DC71 		mov	r1, #440
 1647 0078 194B     		ldr	r3, .L41+24
ARM GAS  /tmp/ccqfPfe7.s 			page 30


 1648 007a 0095     		str	r5, [sp, #0]
 1649 007c 0398     		ldr	r0, [sp, #12]
 1650 007e FFF7FEFF 		bl	chThdCreateStatic
 1651              	.LVL160:
 1652              		.loc 1 317 0
 1653 0082 B169     		ldr	r1, [r6, #24]
 1654 0084 D8F81060 		ldr	r6, [r8, #16]
 1655 0088 8A68     		ldr	r2, [r1, #8]
 1656 008a 164B     		ldr	r3, .L41+28
 1657              		.loc 1 316 0
 1658 008c E060     		str	r0, [r4, #12]
 1659              		.loc 1 317 0
 1660 008e 4FF4DC71 		mov	r1, #440
 1661 0092 013A     		subs	r2, r2, #1
 1662 0094 0095     		str	r5, [sp, #0]
 1663 0096 3046     		mov	r0, r6
 1664 0098 FFF7FEFF 		bl	chThdCreateStatic
 1665              	.LVL161:
 1666 009c 2061     		str	r0, [r4, #16]
 1667              		.loc 1 318 0
 1668 009e FFF7FEFF 		bl	test_wait_threads
 1669              	.LVL162:
 1670              		.loc 1 319 0
 1671 00a2 0120     		movs	r0, #1
 1672 00a4 1049     		ldr	r1, .L41+32
 1673 00a6 FFF7FEFF 		bl	_test_assert_sequence
 1674              	.LVL163:
 1675 00aa 10B1     		cbz	r0, .L40
 1676              		.loc 1 321 0
 1677 00ac 04B0     		add	sp, sp, #16
 1678 00ae BDE8F081 		pop	{r4, r5, r6, r7, r8, pc}
 1679              	.L40:
 1680              		.loc 1 320 0
 1681 00b2 0220     		movs	r0, #2
 1682 00b4 07F16E01 		add	r1, r7, #110
 1683 00b8 07F17302 		add	r2, r7, #115
 1684              		.loc 1 321 0
 1685 00bc 04B0     		add	sp, sp, #16
 1686 00be BDE8F041 		pop	{r4, r5, r6, r7, r8, lr}
 1687              		.loc 1 320 0
 1688 00c2 FFF7FEBF 		b	_test_assert_time_window
 1689              	.LVL164:
 1690              	.L42:
 1691 00c6 00BF     		.align	2
 1692              	.L41:
 1693 00c8 00000000 		.word	rlist
 1694 00cc 00000000 		.word	threads
 1695 00d0 00000000 		.word	vtlist
 1696 00d4 00000000 		.word	thread3LL
 1697 00d8 00000000 		.word	thread3L
 1698 00dc 00000000 		.word	thread3M
 1699 00e0 00000000 		.word	thread3H
 1700 00e4 00000000 		.word	thread3HH
 1701 00e8 18000000 		.word	.LC6
 1702 00ec 00000000 		.word	wa
 1703              		.cfi_endproc
 1704              	.LFE21:
ARM GAS  /tmp/ccqfPfe7.s 			page 31


 1705              		.size	mtx3_execute, .-mtx3_execute
 1706              		.section	.text.mtx2_execute,"ax",%progbits
 1707              		.align	2
 1708              		.p2align 4,,15
 1709              		.thumb
 1710              		.thumb_func
 1711              		.type	mtx2_execute, %function
 1712              	mtx2_execute:
 1713              	.LFB14:
 1714              		.loc 1 190 0
 1715              		.cfi_startproc
 1716              		@ args = 0, pretend = 0, frame = 8
 1717              		@ frame_needed = 0, uses_anonymous_args = 0
 1718 0000 2DE9F041 		push	{r4, r5, r6, r7, r8, lr}
 1719              	.LCFI24:
 1720              		.cfi_def_cfa_offset 24
 1721              		.cfi_offset 4, -24
 1722              		.cfi_offset 5, -20
 1723              		.cfi_offset 6, -16
 1724              		.cfi_offset 7, -12
 1725              		.cfi_offset 8, -8
 1726              		.cfi_offset 14, -4
 1727              		.loc 1 195 0
 1728 0004 224E     		ldr	r6, .L46
 1729 0006 DFF8A480 		ldr	r8, .L46+28
 1730 000a 224C     		ldr	r4, .L46+4
 1731              		.loc 1 190 0
 1732 000c 84B0     		sub	sp, sp, #16
 1733              	.LCFI25:
 1734              		.cfi_def_cfa_offset 40
 1735              		.loc 1 193 0
 1736 000e FFF7FEFF 		bl	test_wait_tick
 1737              	.LVL165:
 1738              		.loc 1 195 0
 1739 0012 B369     		ldr	r3, [r6, #24]
 1740              		.loc 1 194 0
 1741 0014 2049     		ldr	r1, .L46+8
 1742              		.loc 1 195 0
 1743 0016 9A68     		ldr	r2, [r3, #8]
 1744              		.loc 1 194 0
 1745 0018 CF68     		ldr	r7, [r1, #12]
 1746              	.LVL166:
 1747              		.loc 1 195 0
 1748 001a 204B     		ldr	r3, .L46+12
 1749 001c D8F80000 		ldr	r0, [r8, #0]
 1750 0020 0025     		movs	r5, #0
 1751 0022 4FF4DC71 		mov	r1, #440
 1752 0026 013A     		subs	r2, r2, #1
 1753 0028 0095     		str	r5, [sp, #0]
 1754 002a FFF7FEFF 		bl	chThdCreateStatic
 1755              	.LVL167:
 1756              		.loc 1 196 0
 1757 002e B369     		ldr	r3, [r6, #24]
 1758 0030 D8F80420 		ldr	r2, [r8, #4]
 1759 0034 9B68     		ldr	r3, [r3, #8]
 1760 0036 0392     		str	r2, [sp, #12]
 1761              		.loc 1 195 0
ARM GAS  /tmp/ccqfPfe7.s 			page 32


 1762 0038 2060     		str	r0, [r4, #0]
 1763              		.loc 1 196 0
 1764 003a 9A1E     		subs	r2, r3, #2
 1765 003c 4FF4DC71 		mov	r1, #440
 1766 0040 174B     		ldr	r3, .L46+16
 1767 0042 0095     		str	r5, [sp, #0]
 1768 0044 0398     		ldr	r0, [sp, #12]
 1769 0046 FFF7FEFF 		bl	chThdCreateStatic
 1770              	.LVL168:
 1771              		.loc 1 197 0
 1772 004a B169     		ldr	r1, [r6, #24]
 1773 004c D8F80860 		ldr	r6, [r8, #8]
 1774 0050 8A68     		ldr	r2, [r1, #8]
 1775 0052 144B     		ldr	r3, .L46+20
 1776              		.loc 1 196 0
 1777 0054 6060     		str	r0, [r4, #4]
 1778              		.loc 1 197 0
 1779 0056 4FF4DC71 		mov	r1, #440
 1780 005a 033A     		subs	r2, r2, #3
 1781 005c 0095     		str	r5, [sp, #0]
 1782 005e 3046     		mov	r0, r6
 1783 0060 FFF7FEFF 		bl	chThdCreateStatic
 1784              	.LVL169:
 1785 0064 A060     		str	r0, [r4, #8]
 1786              		.loc 1 198 0
 1787 0066 FFF7FEFF 		bl	test_wait_threads
 1788              	.LVL170:
 1789              		.loc 1 199 0
 1790 006a 0120     		movs	r0, #1
 1791 006c 0E49     		ldr	r1, .L46+24
 1792 006e FFF7FEFF 		bl	_test_assert_sequence
 1793              	.LVL171:
 1794 0072 10B1     		cbz	r0, .L45
 1795              		.loc 1 201 0
 1796 0074 04B0     		add	sp, sp, #16
 1797 0076 BDE8F081 		pop	{r4, r5, r6, r7, r8, pc}
 1798              	.L45:
 1799              		.loc 1 200 0
 1800 007a 0220     		movs	r0, #2
 1801 007c 07F16401 		add	r1, r7, #100
 1802 0080 07F16902 		add	r2, r7, #105
 1803              		.loc 1 201 0
 1804 0084 04B0     		add	sp, sp, #16
 1805 0086 BDE8F041 		pop	{r4, r5, r6, r7, r8, lr}
 1806              		.loc 1 200 0
 1807 008a FFF7FEBF 		b	_test_assert_time_window
 1808              	.LVL172:
 1809              	.L47:
 1810 008e 00BF     		.align	2
 1811              	.L46:
 1812 0090 00000000 		.word	rlist
 1813 0094 00000000 		.word	threads
 1814 0098 00000000 		.word	vtlist
 1815 009c 00000000 		.word	thread2H
 1816 00a0 00000000 		.word	thread2M
 1817 00a4 00000000 		.word	thread2L
 1818 00a8 0C000000 		.word	.LC3
ARM GAS  /tmp/ccqfPfe7.s 			page 33


 1819 00ac 00000000 		.word	wa
 1820              		.cfi_endproc
 1821              	.LFE14:
 1822              		.size	mtx2_execute, .-mtx2_execute
 1823              		.section	.text.thread3HH,"ax",%progbits
 1824              		.align	2
 1825              		.p2align 4,,15
 1826              		.thumb
 1827              		.thumb_func
 1828              		.type	thread3HH, %function
 1829              	thread3HH:
 1830              	.LFB20:
 1831              		.loc 1 297 0
 1832              		.cfi_startproc
 1833              		@ args = 0, pretend = 0, frame = 0
 1834              		@ frame_needed = 0, uses_anonymous_args = 0
 1835              	.LVL173:
 1836 0000 08B5     		push	{r3, lr}
 1837              	.LCFI26:
 1838              		.cfi_def_cfa_offset 8
 1839              		.cfi_offset 3, -8
 1840              		.cfi_offset 14, -4
 1841              		.loc 1 300 0
 1842 0002 3220     		movs	r0, #50
 1843              	.LVL174:
 1844 0004 FFF7FEFF 		bl	chThdSleep
 1845              	.LVL175:
 1846              		.loc 1 301 0
 1847 0008 40F20000 		movw	r0, #:lower16:.LANCHOR1
 1848 000c C0F20000 		movt	r0, #:upper16:.LANCHOR1
 1849 0010 FFF7FEFF 		bl	chMtxLock
 1850              	.LVL176:
 1851              		.loc 1 302 0
 1852 0014 0A20     		movs	r0, #10
 1853 0016 FFF7FEFF 		bl	test_cpu_pulse
 1854              	.LVL177:
 1855              		.loc 1 303 0
 1856 001a FFF7FEFF 		bl	chMtxUnlock
 1857              	.LVL178:
 1858              		.loc 1 304 0
 1859 001e 4120     		movs	r0, #65
 1860 0020 FFF7FEFF 		bl	test_emit_token
 1861              	.LVL179:
 1862              		.loc 1 306 0
 1863 0024 0020     		movs	r0, #0
 1864 0026 08BD     		pop	{r3, pc}
 1865              		.cfi_endproc
 1866              	.LFE20:
 1867              		.size	thread3HH, .-thread3HH
 1868 0028 AFF30080 		.section	.text.thread3H,"ax",%progbits
 1868      AFF30080 
 1869              		.align	2
 1870              		.p2align 4,,15
 1871              		.thumb
 1872              		.thumb_func
 1873              		.type	thread3H, %function
 1874              	thread3H:
ARM GAS  /tmp/ccqfPfe7.s 			page 34


 1875              	.LFB19:
 1876              		.loc 1 287 0
 1877              		.cfi_startproc
 1878              		@ args = 0, pretend = 0, frame = 0
 1879              		@ frame_needed = 0, uses_anonymous_args = 0
 1880              	.LVL180:
 1881 0000 08B5     		push	{r3, lr}
 1882              	.LCFI27:
 1883              		.cfi_def_cfa_offset 8
 1884              		.cfi_offset 3, -8
 1885              		.cfi_offset 14, -4
 1886              		.loc 1 290 0
 1887 0002 2820     		movs	r0, #40
 1888              	.LVL181:
 1889 0004 FFF7FEFF 		bl	chThdSleep
 1890              	.LVL182:
 1891              		.loc 1 291 0
 1892 0008 1420     		movs	r0, #20
 1893 000a FFF7FEFF 		bl	test_cpu_pulse
 1894              	.LVL183:
 1895              		.loc 1 292 0
 1896 000e 4220     		movs	r0, #66
 1897 0010 FFF7FEFF 		bl	test_emit_token
 1898              	.LVL184:
 1899              		.loc 1 294 0
 1900 0014 0020     		movs	r0, #0
 1901 0016 08BD     		pop	{r3, pc}
 1902              		.cfi_endproc
 1903              	.LFE19:
 1904              		.size	thread3H, .-thread3H
 1905 0018 AFF30080 		.section	.text.thread3M,"ax",%progbits
 1905      AFF30080 
 1906              		.align	2
 1907              		.p2align 4,,15
 1908              		.thumb
 1909              		.thumb_func
 1910              		.type	thread3M, %function
 1911              	thread3M:
 1912              	.LFB18:
 1913              		.loc 1 275 0
 1914              		.cfi_startproc
 1915              		@ args = 0, pretend = 0, frame = 0
 1916              		@ frame_needed = 0, uses_anonymous_args = 0
 1917              	.LVL185:
 1918 0000 08B5     		push	{r3, lr}
 1919              	.LCFI28:
 1920              		.cfi_def_cfa_offset 8
 1921              		.cfi_offset 3, -8
 1922              		.cfi_offset 14, -4
 1923              		.loc 1 278 0
 1924 0002 1420     		movs	r0, #20
 1925              	.LVL186:
 1926 0004 FFF7FEFF 		bl	chThdSleep
 1927              	.LVL187:
 1928              		.loc 1 279 0
 1929 0008 40F20000 		movw	r0, #:lower16:.LANCHOR1
 1930 000c C0F20000 		movt	r0, #:upper16:.LANCHOR1
ARM GAS  /tmp/ccqfPfe7.s 			page 35


 1931 0010 FFF7FEFF 		bl	chMtxLock
 1932              	.LVL188:
 1933              		.loc 1 280 0
 1934 0014 0A20     		movs	r0, #10
 1935 0016 FFF7FEFF 		bl	test_cpu_pulse
 1936              	.LVL189:
 1937              		.loc 1 281 0
 1938 001a FFF7FEFF 		bl	chMtxUnlock
 1939              	.LVL190:
 1940              		.loc 1 282 0
 1941 001e 4320     		movs	r0, #67
 1942 0020 FFF7FEFF 		bl	test_emit_token
 1943              	.LVL191:
 1944              		.loc 1 284 0
 1945 0024 0020     		movs	r0, #0
 1946 0026 08BD     		pop	{r3, pc}
 1947              		.cfi_endproc
 1948              	.LFE18:
 1949              		.size	thread3M, .-thread3M
 1950 0028 AFF30080 		.section	.text.thread3L,"ax",%progbits
 1950      AFF30080 
 1951              		.align	2
 1952              		.p2align 4,,15
 1953              		.thumb
 1954              		.thumb_func
 1955              		.type	thread3L, %function
 1956              	thread3L:
 1957              	.LFB17:
 1958              		.loc 1 259 0
 1959              		.cfi_startproc
 1960              		@ args = 0, pretend = 0, frame = 0
 1961              		@ frame_needed = 0, uses_anonymous_args = 0
 1962              	.LVL192:
 1963 0000 08B5     		push	{r3, lr}
 1964              	.LCFI29:
 1965              		.cfi_def_cfa_offset 8
 1966              		.cfi_offset 3, -8
 1967              		.cfi_offset 14, -4
 1968              		.loc 1 262 0
 1969 0002 0A20     		movs	r0, #10
 1970              	.LVL193:
 1971 0004 FFF7FEFF 		bl	chThdSleep
 1972              	.LVL194:
 1973              		.loc 1 263 0
 1974 0008 40F20000 		movw	r0, #:lower16:.LANCHOR1
 1975 000c C0F20000 		movt	r0, #:upper16:.LANCHOR1
 1976 0010 FFF7FEFF 		bl	chMtxLock
 1977              	.LVL195:
 1978              		.loc 1 264 0
 1979 0014 1420     		movs	r0, #20
 1980 0016 FFF7FEFF 		bl	test_cpu_pulse
 1981              	.LVL196:
 1982              		.loc 1 265 0
 1983 001a 40F20000 		movw	r0, #:lower16:.LANCHOR2
 1984 001e C0F20000 		movt	r0, #:upper16:.LANCHOR2
 1985 0022 FFF7FEFF 		bl	chMtxLock
 1986              	.LVL197:
ARM GAS  /tmp/ccqfPfe7.s 			page 36


 1987              		.loc 1 266 0
 1988 0026 0A20     		movs	r0, #10
 1989 0028 FFF7FEFF 		bl	test_cpu_pulse
 1990              	.LVL198:
 1991              		.loc 1 267 0
 1992 002c FFF7FEFF 		bl	chMtxUnlock
 1993              	.LVL199:
 1994              		.loc 1 268 0
 1995 0030 0A20     		movs	r0, #10
 1996 0032 FFF7FEFF 		bl	test_cpu_pulse
 1997              	.LVL200:
 1998              		.loc 1 269 0
 1999 0036 FFF7FEFF 		bl	chMtxUnlock
 2000              	.LVL201:
 2001              		.loc 1 270 0
 2002 003a 4420     		movs	r0, #68
 2003 003c FFF7FEFF 		bl	test_emit_token
 2004              	.LVL202:
 2005              		.loc 1 272 0
 2006 0040 0020     		movs	r0, #0
 2007 0042 08BD     		pop	{r3, pc}
 2008              		.cfi_endproc
 2009              	.LFE17:
 2010              		.size	thread3L, .-thread3L
 2011 0044 AFF30080 		.section	.text.thread3LL,"ax",%progbits
 2011      AFF30080 
 2011      AFF30080 
 2012              		.align	2
 2013              		.p2align 4,,15
 2014              		.thumb
 2015              		.thumb_func
 2016              		.type	thread3LL, %function
 2017              	thread3LL:
 2018              	.LFB16:
 2019              		.loc 1 248 0
 2020              		.cfi_startproc
 2021              		@ args = 0, pretend = 0, frame = 0
 2022              		@ frame_needed = 0, uses_anonymous_args = 0
 2023              	.LVL203:
 2024              		.loc 1 251 0
 2025 0000 40F20000 		movw	r0, #:lower16:.LANCHOR2
 2026              	.LVL204:
 2027              		.loc 1 248 0
 2028 0004 08B5     		push	{r3, lr}
 2029              	.LCFI30:
 2030              		.cfi_def_cfa_offset 8
 2031              		.cfi_offset 3, -8
 2032              		.cfi_offset 14, -4
 2033              		.loc 1 251 0
 2034 0006 C0F20000 		movt	r0, #:upper16:.LANCHOR2
 2035 000a FFF7FEFF 		bl	chMtxLock
 2036              	.LVL205:
 2037              		.loc 1 252 0
 2038 000e 1E20     		movs	r0, #30
 2039 0010 FFF7FEFF 		bl	test_cpu_pulse
 2040              	.LVL206:
 2041              		.loc 1 253 0
ARM GAS  /tmp/ccqfPfe7.s 			page 37


 2042 0014 FFF7FEFF 		bl	chMtxUnlock
 2043              	.LVL207:
 2044              		.loc 1 254 0
 2045 0018 4520     		movs	r0, #69
 2046 001a FFF7FEFF 		bl	test_emit_token
 2047              	.LVL208:
 2048              		.loc 1 256 0
 2049 001e 0020     		movs	r0, #0
 2050 0020 08BD     		pop	{r3, pc}
 2051              		.cfi_endproc
 2052              	.LFE16:
 2053              		.size	thread3LL, .-thread3LL
 2054 0022 00BFAFF3 		.section	.text.thread2L,"ax",%progbits
 2054      0080AFF3 
 2054      0080AFF3 
 2054      0080
 2055              		.align	2
 2056              		.p2align 4,,15
 2057              		.thumb
 2058              		.thumb_func
 2059              		.type	thread2L, %function
 2060              	thread2L:
 2061              	.LFB11:
 2062              		.loc 1 157 0
 2063              		.cfi_startproc
 2064              		@ args = 0, pretend = 0, frame = 0
 2065              		@ frame_needed = 0, uses_anonymous_args = 0
 2066              	.LVL209:
 2067              		.loc 1 160 0
 2068 0000 40F20000 		movw	r0, #:lower16:.LANCHOR2
 2069              	.LVL210:
 2070              		.loc 1 157 0
 2071 0004 08B5     		push	{r3, lr}
 2072              	.LCFI31:
 2073              		.cfi_def_cfa_offset 8
 2074              		.cfi_offset 3, -8
 2075              		.cfi_offset 14, -4
 2076              		.loc 1 160 0
 2077 0006 C0F20000 		movt	r0, #:upper16:.LANCHOR2
 2078 000a FFF7FEFF 		bl	chMtxLock
 2079              	.LVL211:
 2080              		.loc 1 161 0
 2081 000e 2820     		movs	r0, #40
 2082 0010 FFF7FEFF 		bl	test_cpu_pulse
 2083              	.LVL212:
 2084              		.loc 1 162 0
 2085 0014 FFF7FEFF 		bl	chMtxUnlock
 2086              	.LVL213:
 2087              		.loc 1 163 0
 2088 0018 0A20     		movs	r0, #10
 2089 001a FFF7FEFF 		bl	test_cpu_pulse
 2090              	.LVL214:
 2091              		.loc 1 164 0
 2092 001e 4320     		movs	r0, #67
 2093 0020 FFF7FEFF 		bl	test_emit_token
 2094              	.LVL215:
 2095              		.loc 1 166 0
ARM GAS  /tmp/ccqfPfe7.s 			page 38


 2096 0024 0020     		movs	r0, #0
 2097 0026 08BD     		pop	{r3, pc}
 2098              		.cfi_endproc
 2099              	.LFE11:
 2100              		.size	thread2L, .-thread2L
 2101 0028 AFF30080 		.section	.text.thread2M,"ax",%progbits
 2101      AFF30080 
 2102              		.align	2
 2103              		.p2align 4,,15
 2104              		.thumb
 2105              		.thumb_func
 2106              		.type	thread2M, %function
 2107              	thread2M:
 2108              	.LFB12:
 2109              		.loc 1 169 0
 2110              		.cfi_startproc
 2111              		@ args = 0, pretend = 0, frame = 0
 2112              		@ frame_needed = 0, uses_anonymous_args = 0
 2113              	.LVL216:
 2114 0000 08B5     		push	{r3, lr}
 2115              	.LCFI32:
 2116              		.cfi_def_cfa_offset 8
 2117              		.cfi_offset 3, -8
 2118              		.cfi_offset 14, -4
 2119              		.loc 1 172 0
 2120 0002 1420     		movs	r0, #20
 2121              	.LVL217:
 2122 0004 FFF7FEFF 		bl	chThdSleep
 2123              	.LVL218:
 2124              		.loc 1 173 0
 2125 0008 2820     		movs	r0, #40
 2126 000a FFF7FEFF 		bl	test_cpu_pulse
 2127              	.LVL219:
 2128              		.loc 1 174 0
 2129 000e 4220     		movs	r0, #66
 2130 0010 FFF7FEFF 		bl	test_emit_token
 2131              	.LVL220:
 2132              		.loc 1 176 0
 2133 0014 0020     		movs	r0, #0
 2134 0016 08BD     		pop	{r3, pc}
 2135              		.cfi_endproc
 2136              	.LFE12:
 2137              		.size	thread2M, .-thread2M
 2138 0018 AFF30080 		.section	.text.thread2H,"ax",%progbits
 2138      AFF30080 
 2139              		.align	2
 2140              		.p2align 4,,15
 2141              		.thumb
 2142              		.thumb_func
 2143              		.type	thread2H, %function
 2144              	thread2H:
 2145              	.LFB13:
 2146              		.loc 1 179 0
 2147              		.cfi_startproc
 2148              		@ args = 0, pretend = 0, frame = 0
 2149              		@ frame_needed = 0, uses_anonymous_args = 0
 2150              	.LVL221:
ARM GAS  /tmp/ccqfPfe7.s 			page 39


 2151 0000 08B5     		push	{r3, lr}
 2152              	.LCFI33:
 2153              		.cfi_def_cfa_offset 8
 2154              		.cfi_offset 3, -8
 2155              		.cfi_offset 14, -4
 2156              		.loc 1 182 0
 2157 0002 2820     		movs	r0, #40
 2158              	.LVL222:
 2159 0004 FFF7FEFF 		bl	chThdSleep
 2160              	.LVL223:
 2161              		.loc 1 183 0
 2162 0008 40F20000 		movw	r0, #:lower16:.LANCHOR2
 2163 000c C0F20000 		movt	r0, #:upper16:.LANCHOR2
 2164 0010 FFF7FEFF 		bl	chMtxLock
 2165              	.LVL224:
 2166              		.loc 1 184 0
 2167 0014 0A20     		movs	r0, #10
 2168 0016 FFF7FEFF 		bl	test_cpu_pulse
 2169              	.LVL225:
 2170              		.loc 1 185 0
 2171 001a FFF7FEFF 		bl	chMtxUnlock
 2172              	.LVL226:
 2173              		.loc 1 186 0
 2174 001e 4120     		movs	r0, #65
 2175 0020 FFF7FEFF 		bl	test_emit_token
 2176              	.LVL227:
 2177              		.loc 1 188 0
 2178 0024 0020     		movs	r0, #0
 2179 0026 08BD     		pop	{r3, pc}
 2180              		.cfi_endproc
 2181              	.LFE13:
 2182              		.size	thread2H, .-thread2H
 2183              		.global	patternmtx
 2184              		.global	testmtx8
 2185              		.global	testmtx7
 2186              		.global	testmtx6
 2187              		.global	testmtx5
 2188              		.global	testmtx4
 2189              		.global	testmtx3
 2190              		.global	testmtx2
 2191              		.global	testmtx1
 2192 0028 AFF30080 		.section	.rodata.testmtx5,"a",%progbits
 2192      AFF30080 
 2193              		.align	2
 2194              		.type	testmtx5, %object
 2195              		.size	testmtx5, 16
 2196              	testmtx5:
 2197 0000 64000000 		.word	.LC10
 2198 0004 00000000 		.word	mtx5_setup
 2199 0008 00000000 		.word	0
 2200 000c 00000000 		.word	mtx5_execute
 2201              		.section	.rodata.testmtx6,"a",%progbits
 2202              		.align	2
 2203              		.type	testmtx6, %object
 2204              		.size	testmtx6, 16
 2205              	testmtx6:
 2206 0000 4C000000 		.word	.LC9
ARM GAS  /tmp/ccqfPfe7.s 			page 40


 2207 0004 00000000 		.word	mtx6_setup
 2208 0008 00000000 		.word	0
 2209 000c 00000000 		.word	mtx6_execute
 2210              		.section	.rodata.testmtx7,"a",%progbits
 2211              		.align	2
 2212              		.type	testmtx7, %object
 2213              		.size	testmtx7, 16
 2214              	testmtx7:
 2215 0000 34000000 		.word	.LC8
 2216 0004 00000000 		.word	mtx7_setup
 2217 0008 00000000 		.word	0
 2218 000c 00000000 		.word	mtx7_execute
 2219              		.section	.rodata.testmtx8,"a",%progbits
 2220              		.align	2
 2221              		.type	testmtx8, %object
 2222              		.size	testmtx8, 16
 2223              	testmtx8:
 2224 0000 20000000 		.word	.LC7
 2225 0004 00000000 		.word	mtx8_setup
 2226 0008 00000000 		.word	0
 2227 000c 00000000 		.word	mtx8_execute
 2228              		.section	.data.m1,"aw",%progbits
 2229              		.align	2
 2230              		.set	.LANCHOR2,. + 0
 2231              		.type	m1, %object
 2232              		.size	m1, 16
 2233              	m1:
 2234 0000 00000000 		.word	m1
 2235 0004 00000000 		.word	m1
 2236 0008 00000000 		.word	0
 2237 000c 00000000 		.word	0
 2238              		.section	.data.m2,"aw",%progbits
 2239              		.align	2
 2240              		.set	.LANCHOR1,. + 0
 2241              		.type	m2, %object
 2242              		.size	m2, 16
 2243              	m2:
 2244 0000 00000000 		.word	m2
 2245 0004 00000000 		.word	m2
 2246 0008 00000000 		.word	0
 2247 000c 00000000 		.word	0
 2248              		.section	.rodata.str1.4,"aMS",%progbits,1
 2249              		.align	2
 2250              	.LC0:
 2251 0000 4100     		.ascii	"A\000"
 2252 0002 0000     		.space	2
 2253              	.LC1:
 2254 0004 4300     		.ascii	"C\000"
 2255 0006 0000     		.space	2
 2256              	.LC2:
 2257 0008 4200     		.ascii	"B\000"
 2258 000a 0000     		.space	2
 2259              	.LC3:
 2260 000c 41424300 		.ascii	"ABC\000"
 2261              	.LC4:
 2262 0010 4500     		.ascii	"E\000"
 2263 0012 0000     		.space	2
ARM GAS  /tmp/ccqfPfe7.s 			page 41


 2264              	.LC5:
 2265 0014 4400     		.ascii	"D\000"
 2266 0016 0000     		.space	2
 2267              	.LC6:
 2268 0018 41424344 		.ascii	"ABCDE\000"
 2268      4500
 2269 001e 0000     		.space	2
 2270              	.LC7:
 2271 0020 436F6E64 		.ascii	"CondVar, boost test\000"
 2271      5661722C 
 2271      20626F6F 
 2271      73742074 
 2271      65737400 
 2272              	.LC8:
 2273 0034 436F6E64 		.ascii	"CondVar, broadcast test\000"
 2273      5661722C 
 2273      2062726F 
 2273      61646361 
 2273      73742074 
 2274              	.LC9:
 2275 004c 436F6E64 		.ascii	"CondVar, signal test\000"
 2275      5661722C 
 2275      20736967 
 2275      6E616C20 
 2275      74657374 
 2276 0061 000000   		.space	3
 2277              	.LC10:
 2278 0064 4D757465 		.ascii	"Mutexes, status\000"
 2278      7865732C 
 2278      20737461 
 2278      74757300 
 2279              	.LC11:
 2280 0074 4D757465 		.ascii	"Mutexes, priority return\000"
 2280      7865732C 
 2280      20707269 
 2280      6F726974 
 2280      79207265 
 2281 008d 000000   		.space	3
 2282              	.LC12:
 2283 0090 4D757465 		.ascii	"Mutexes, priority inheritance, complex case\000"
 2283      7865732C 
 2283      20707269 
 2283      6F726974 
 2283      7920696E 
 2284              	.LC13:
 2285 00bc 4D757465 		.ascii	"Mutexes, priority inheritance, simple case\000"
 2285      7865732C 
 2285      20707269 
 2285      6F726974 
 2285      7920696E 
 2286 00e7 00       		.space	1
 2287              	.LC14:
 2288 00e8 4D757465 		.ascii	"Mutexes, priority enqueuing test\000"
 2288      7865732C 
 2288      20707269 
 2288      6F726974 
 2288      7920656E 
ARM GAS  /tmp/ccqfPfe7.s 			page 42


 2289 0109 000000   		.section	.rodata.patternmtx,"a",%progbits
 2290              		.align	2
 2291              		.type	patternmtx, %object
 2292              		.size	patternmtx, 36
 2293              	patternmtx:
 2294 0000 00000000 		.word	testmtx1
 2295 0004 00000000 		.word	testmtx2
 2296 0008 00000000 		.word	testmtx3
 2297 000c 00000000 		.word	testmtx4
 2298 0010 00000000 		.word	testmtx5
 2299 0014 00000000 		.word	testmtx6
 2300 0018 00000000 		.word	testmtx7
 2301 001c 00000000 		.word	testmtx8
 2302 0020 00000000 		.word	0
 2303              		.section	.data.c1,"aw",%progbits
 2304              		.align	2
 2305              		.set	.LANCHOR0,. + 0
 2306              		.type	c1, %object
 2307              		.size	c1, 8
 2308              	c1:
 2309 0000 00000000 		.word	c1
 2310 0004 00000000 		.word	c1
 2311              		.section	.rodata.testmtx1,"a",%progbits
 2312              		.align	2
 2313              		.type	testmtx1, %object
 2314              		.size	testmtx1, 16
 2315              	testmtx1:
 2316 0000 E8000000 		.word	.LC14
 2317 0004 00000000 		.word	mtx1_setup
 2318 0008 00000000 		.word	0
 2319 000c 00000000 		.word	mtx1_execute
 2320              		.section	.rodata.testmtx2,"a",%progbits
 2321              		.align	2
 2322              		.type	testmtx2, %object
 2323              		.size	testmtx2, 16
 2324              	testmtx2:
 2325 0000 BC000000 		.word	.LC13
 2326 0004 00000000 		.word	mtx2_setup
 2327 0008 00000000 		.word	0
 2328 000c 00000000 		.word	mtx2_execute
 2329              		.section	.rodata.testmtx3,"a",%progbits
 2330              		.align	2
 2331              		.type	testmtx3, %object
 2332              		.size	testmtx3, 16
 2333              	testmtx3:
 2334 0000 90000000 		.word	.LC12
 2335 0004 00000000 		.word	mtx3_setup
 2336 0008 00000000 		.word	0
 2337 000c 00000000 		.word	mtx3_execute
 2338              		.section	.rodata.testmtx4,"a",%progbits
 2339              		.align	2
 2340              		.type	testmtx4, %object
 2341              		.size	testmtx4, 16
 2342              	testmtx4:
 2343 0000 74000000 		.word	.LC11
 2344 0004 00000000 		.word	mtx4_setup
 2345 0008 00000000 		.word	0
ARM GAS  /tmp/ccqfPfe7.s 			page 43


 2346 000c 00000000 		.word	mtx4_execute
 2347              		.text
 2348              	.Letext0:
 2349              		.file 2 "/usr/bin/../lib/gcc/arm-none-eabi/4.7.4/include/stddef.h"
 2350              		.file 3 "/usr/bin/../lib/gcc/arm-none-eabi/4.7.4/../../../../arm-none-eabi/include/stdint.h"
 2351              		.file 4 "../../os/ports/GCC/ARMCMx/chtypes.h"
 2352              		.file 5 "../../os/kernel/include/chlists.h"
 2353              		.file 6 "../../os/kernel/include/chthreads.h"
 2354              		.file 7 "../../os/ports/GCC/ARMCMx/chcore_v7m.h"
 2355              		.file 8 "../../os/kernel/include/chvt.h"
 2356              		.file 9 "../../os/kernel/include/chschd.h"
 2357              		.file 10 "../../os/kernel/include/chmtx.h"
 2358              		.file 11 "../../os/kernel/include/chcond.h"
 2359              		.file 12 "../../test/test.h"