ARM GAS  /tmp/ccZTuUMW.s 			page 1


   1              		.syntax unified
   2              		.cpu cortex-m4
   3              		.eabi_attribute 27, 3
   4              		.eabi_attribute 28, 1
   5              		.fpu fpv4-sp-d16
   6              		.eabi_attribute 20, 1
   7              		.eabi_attribute 21, 1
   8              		.eabi_attribute 23, 3
   9              		.eabi_attribute 24, 1
  10              		.eabi_attribute 25, 1
  11              		.eabi_attribute 26, 1
  12              		.eabi_attribute 30, 2
  13              		.eabi_attribute 34, 1
  14              		.eabi_attribute 18, 4
  15              		.thumb
  16              		.file	"testbmk.c"
  17              		.text
  18              	.Ltext0:
  19              		.cfi_sections	.debug_frame
  20              		.section	.text.thread2,"ax",%progbits
  21              		.align	2
  22              		.p2align 4,,15
  23              		.thumb
  24              		.thumb_func
  25              		.type	thread2, %function
  26              	thread2:
  27              	.LFB11:
  28              		.file 1 "../../test/testbmk.c"
  29              		.loc 1 154 0
  30              		.cfi_startproc
  31              		@ args = 0, pretend = 0, frame = 0
  32              		@ frame_needed = 0, uses_anonymous_args = 0
  33              		@ link register save eliminated.
  34              	.LVL0:
  35              		.loc 1 157 0
  36 0000 7047     		bx	lr
  37              		.cfi_endproc
  38              	.LFE11:
  39              		.size	thread2, .-thread2
  40 0002 00BFAFF3 		.section	.text.tmo,"ax",%progbits
  40      0080AFF3 
  40      0080AFF3 
  40      0080
  41              		.align	2
  42              		.p2align 4,,15
  43              		.thumb
  44              		.thumb_func
  45              		.type	tmo, %function
  46              	tmo:
  47              	.LFB23:
  48              		.loc 1 502 0
  49              		.cfi_startproc
  50              		@ args = 0, pretend = 0, frame = 0
  51              		@ frame_needed = 0, uses_anonymous_args = 0
  52              		@ link register save eliminated.
  53              	.LVL1:
  54 0000 7047     		bx	lr
ARM GAS  /tmp/ccZTuUMW.s 			page 2


  55              		.cfi_endproc
  56              	.LFE23:
  57              		.size	tmo, .-tmo
  58 0002 00BFAFF3 		.section	.text.bmk13_execute,"ax",%progbits
  58      0080AFF3 
  58      0080AFF3 
  58      0080
  59              		.align	2
  60              		.p2align 4,,15
  61              		.thumb
  62              		.thumb_func
  63              		.type	bmk13_execute, %function
  64              	bmk13_execute:
  65              	.LFB29:
  66              		.loc 1 637 0
  67              		.cfi_startproc
  68              		@ args = 0, pretend = 0, frame = 0
  69              		@ frame_needed = 0, uses_anonymous_args = 0
  70              		.loc 1 639 0
  71 0000 40F20000 		movw	r0, #:lower16:.LC0
  72              		.loc 1 637 0
  73 0004 10B5     		push	{r4, lr}
  74              	.LCFI0:
  75              		.cfi_def_cfa_offset 8
  76              		.cfi_offset 4, -8
  77              		.cfi_offset 14, -4
  78              		.loc 1 639 0
  79 0006 C0F20000 		movt	r0, #:upper16:.LC0
  80              		.loc 1 645 0
  81 000a 40F20004 		movw	r4, #:lower16:.LC1
  82 000e C0F20004 		movt	r4, #:upper16:.LC1
  83              		.loc 1 639 0
  84 0012 FFF7FEFF 		bl	test_print
  85              	.LVL2:
  86              		.loc 1 640 0
  87 0016 4FF42970 		mov	r0, #676
  88 001a FFF7FEFF 		bl	test_printn
  89              	.LVL3:
  90              		.loc 1 645 0
  91 001e 2046     		mov	r0, r4
  92 0020 FFF7FEFF 		bl	test_println
  93              	.LVL4:
  94              		.loc 1 646 0
  95 0024 40F20000 		movw	r0, #:lower16:.LC2
  96 0028 C0F20000 		movt	r0, #:upper16:.LC2
  97 002c FFF7FEFF 		bl	test_print
  98              	.LVL5:
  99              		.loc 1 647 0
 100 0030 4820     		movs	r0, #72
 101 0032 FFF7FEFF 		bl	test_printn
 102              	.LVL6:
 103              		.loc 1 648 0
 104 0036 2046     		mov	r0, r4
 105 0038 FFF7FEFF 		bl	test_println
 106              	.LVL7:
 107              		.loc 1 649 0
 108 003c 40F20000 		movw	r0, #:lower16:.LC3
ARM GAS  /tmp/ccZTuUMW.s 			page 3


 109 0040 C0F20000 		movt	r0, #:upper16:.LC3
 110 0044 FFF7FEFF 		bl	test_print
 111              	.LVL8:
 112              		.loc 1 650 0
 113 0048 1420     		movs	r0, #20
 114 004a FFF7FEFF 		bl	test_printn
 115              	.LVL9:
 116              		.loc 1 651 0
 117 004e 2046     		mov	r0, r4
 118 0050 FFF7FEFF 		bl	test_println
 119              	.LVL10:
 120              		.loc 1 653 0
 121 0054 40F20000 		movw	r0, #:lower16:.LC4
 122 0058 C0F20000 		movt	r0, #:upper16:.LC4
 123 005c FFF7FEFF 		bl	test_print
 124              	.LVL11:
 125              		.loc 1 654 0
 126 0060 0C20     		movs	r0, #12
 127 0062 FFF7FEFF 		bl	test_printn
 128              	.LVL12:
 129              		.loc 1 655 0
 130 0066 2046     		mov	r0, r4
 131 0068 FFF7FEFF 		bl	test_println
 132              	.LVL13:
 133              		.loc 1 658 0
 134 006c 40F20000 		movw	r0, #:lower16:.LC5
 135 0070 C0F20000 		movt	r0, #:upper16:.LC5
 136 0074 FFF7FEFF 		bl	test_print
 137              	.LVL14:
 138              		.loc 1 659 0
 139 0078 0420     		movs	r0, #4
 140 007a FFF7FEFF 		bl	test_printn
 141              	.LVL15:
 142              		.loc 1 660 0
 143 007e 2046     		mov	r0, r4
 144 0080 FFF7FEFF 		bl	test_println
 145              	.LVL16:
 146              		.loc 1 661 0
 147 0084 40F20000 		movw	r0, #:lower16:.LC6
 148 0088 C0F20000 		movt	r0, #:upper16:.LC6
 149 008c FFF7FEFF 		bl	test_print
 150              	.LVL17:
 151              		.loc 1 662 0
 152 0090 1020     		movs	r0, #16
 153 0092 FFF7FEFF 		bl	test_printn
 154              	.LVL18:
 155              		.loc 1 663 0
 156 0096 2046     		mov	r0, r4
 157 0098 FFF7FEFF 		bl	test_println
 158              	.LVL19:
 159              		.loc 1 666 0
 160 009c 40F20000 		movw	r0, #:lower16:.LC7
 161 00a0 C0F20000 		movt	r0, #:upper16:.LC7
 162 00a4 FFF7FEFF 		bl	test_print
 163              	.LVL20:
 164              		.loc 1 667 0
 165 00a8 1020     		movs	r0, #16
ARM GAS  /tmp/ccZTuUMW.s 			page 4


 166 00aa FFF7FEFF 		bl	test_printn
 167              	.LVL21:
 168              		.loc 1 668 0
 169 00ae 2046     		mov	r0, r4
 170 00b0 FFF7FEFF 		bl	test_println
 171              	.LVL22:
 172              		.loc 1 671 0
 173 00b4 40F20000 		movw	r0, #:lower16:.LC8
 174 00b8 C0F20000 		movt	r0, #:upper16:.LC8
 175 00bc FFF7FEFF 		bl	test_print
 176              	.LVL23:
 177              		.loc 1 672 0
 178 00c0 0820     		movs	r0, #8
 179 00c2 FFF7FEFF 		bl	test_printn
 180              	.LVL24:
 181              		.loc 1 673 0
 182 00c6 2046     		mov	r0, r4
 183 00c8 FFF7FEFF 		bl	test_println
 184              	.LVL25:
 185              		.loc 1 676 0
 186 00cc 40F20000 		movw	r0, #:lower16:.LC9
 187 00d0 C0F20000 		movt	r0, #:upper16:.LC9
 188 00d4 FFF7FEFF 		bl	test_print
 189              	.LVL26:
 190              		.loc 1 677 0
 191 00d8 2420     		movs	r0, #36
 192 00da FFF7FEFF 		bl	test_printn
 193              	.LVL27:
 194              		.loc 1 678 0
 195 00de 2046     		mov	r0, r4
 196 00e0 FFF7FEFF 		bl	test_println
 197              	.LVL28:
 198              		.loc 1 681 0
 199 00e4 40F20000 		movw	r0, #:lower16:.LC10
 200 00e8 C0F20000 		movt	r0, #:upper16:.LC10
 201 00ec FFF7FEFF 		bl	test_print
 202              	.LVL29:
 203              		.loc 1 682 0
 204 00f0 2820     		movs	r0, #40
 205 00f2 FFF7FEFF 		bl	test_printn
 206              	.LVL30:
 207              		.loc 1 683 0
 208 00f6 2046     		mov	r0, r4
 209              		.loc 1 685 0
 210 00f8 BDE81040 		pop	{r4, lr}
 211              		.loc 1 683 0
 212 00fc FFF7FEBF 		b	test_println
 213              	.LVL31:
 214              		.cfi_endproc
 215              	.LFE29:
 216              		.size	bmk13_execute, .-bmk13_execute
 217              		.section	.text.bmk12_execute,"ax",%progbits
 218              		.align	2
 219              		.p2align 4,,15
 220              		.thumb
 221              		.thumb_func
 222              		.type	bmk12_execute, %function
ARM GAS  /tmp/ccZTuUMW.s 			page 5


 223              	bmk12_execute:
 224              	.LFB28:
 225              		.loc 1 598 0
 226              		.cfi_startproc
 227              		@ args = 0, pretend = 0, frame = 0
 228              		@ frame_needed = 0, uses_anonymous_args = 0
 229              	.LVL32:
 230 0000 38B5     		push	{r3, r4, r5, lr}
 231              	.LCFI1:
 232              		.cfi_def_cfa_offset 16
 233              		.cfi_offset 3, -16
 234              		.cfi_offset 4, -12
 235              		.cfi_offset 5, -8
 236              		.cfi_offset 14, -4
 237              		.loc 1 601 0
 238 0002 FFF7FEFF 		bl	test_wait_tick
 239              	.LVL33:
 240              		.loc 1 602 0
 241 0006 4FF47A70 		mov	r0, #1000
 242 000a FFF7FEFF 		bl	test_start_timer
 243              	.LVL34:
 244 000e 134D     		ldr	r5, .L11
 245              		.loc 1 599 0
 246 0010 0024     		movs	r4, #0
 247              	.LVL35:
 248              	.L5:
 249              	.LBB2:
 250              		.loc 1 604 0 discriminator 1
 251 0012 1348     		ldr	r0, .L11+4
 252 0014 FFF7FEFF 		bl	chMtxLock
 253              	.LVL36:
 254              		.loc 1 605 0 discriminator 1
 255 0018 FFF7FEFF 		bl	chMtxUnlock
 256              	.LVL37:
 257              		.loc 1 606 0 discriminator 1
 258 001c 1048     		ldr	r0, .L11+4
 259 001e FFF7FEFF 		bl	chMtxLock
 260              	.LVL38:
 261              		.loc 1 607 0 discriminator 1
 262 0022 FFF7FEFF 		bl	chMtxUnlock
 263              	.LVL39:
 264              		.loc 1 608 0 discriminator 1
 265 0026 0E48     		ldr	r0, .L11+4
 266 0028 FFF7FEFF 		bl	chMtxLock
 267              	.LVL40:
 268              		.loc 1 609 0 discriminator 1
 269 002c FFF7FEFF 		bl	chMtxUnlock
 270              	.LVL41:
 271              		.loc 1 610 0 discriminator 1
 272 0030 0B48     		ldr	r0, .L11+4
 273 0032 FFF7FEFF 		bl	chMtxLock
 274              	.LVL42:
 275              		.loc 1 611 0 discriminator 1
 276 0036 FFF7FEFF 		bl	chMtxUnlock
 277              	.LVL43:
 278              		.loc 1 614 0 discriminator 1
 279 003a FFF7FEFF 		bl	ChkIntSources
ARM GAS  /tmp/ccZTuUMW.s 			page 6


 280              	.LVL44:
 281              	.LBE2:
 282              		.loc 1 616 0 discriminator 1
 283 003e 2B78     		ldrb	r3, [r5, #0]	@ zero_extendqisi2
 284              	.LBB3:
 285              		.loc 1 612 0 discriminator 1
 286 0040 0134     		adds	r4, r4, #1
 287              	.LVL45:
 288              	.LBE3:
 289              		.loc 1 616 0 discriminator 1
 290 0042 002B     		cmp	r3, #0
 291 0044 E5D0     		beq	.L5
 292              		.loc 1 617 0
 293 0046 0748     		ldr	r0, .L11+8
 294 0048 FFF7FEFF 		bl	test_print
 295              	.LVL46:
 296              		.loc 1 618 0
 297 004c A000     		lsls	r0, r4, #2
 298 004e FFF7FEFF 		bl	test_printn
 299              	.LVL47:
 300              		.loc 1 619 0
 301 0052 0548     		ldr	r0, .L11+12
 302              		.loc 1 620 0
 303 0054 BDE83840 		pop	{r3, r4, r5, lr}
 304              		.loc 1 619 0
 305 0058 FFF7FEBF 		b	test_println
 306              	.LVL48:
 307              	.L12:
 308              		.align	2
 309              	.L11:
 310 005c 00000000 		.word	test_timer_done
 311 0060 00000000 		.word	.LANCHOR0
 312 0064 A8000000 		.word	.LC11
 313 0068 B8000000 		.word	.LC12
 314              		.cfi_endproc
 315              	.LFE28:
 316              		.size	bmk12_execute, .-bmk12_execute
 317 006c AFF30080 		.section	.text.bmk12_setup,"ax",%progbits
 318              		.align	2
 319              		.p2align 4,,15
 320              		.thumb
 321              		.thumb_func
 322              		.type	bmk12_setup, %function
 323              	bmk12_setup:
 324              	.LFB27:
 325              		.loc 1 593 0
 326              		.cfi_startproc
 327              		@ args = 0, pretend = 0, frame = 0
 328              		@ frame_needed = 0, uses_anonymous_args = 0
 329              		@ link register save eliminated.
 330              		.loc 1 595 0
 331 0000 40F20000 		movw	r0, #:lower16:.LANCHOR0
 332 0004 C0F20000 		movt	r0, #:upper16:.LANCHOR0
 333              		.loc 1 596 0
 334              		.loc 1 595 0
 335 0008 FFF7FEBF 		b	chMtxInit
 336              	.LVL49:
ARM GAS  /tmp/ccZTuUMW.s 			page 7


 337              		.cfi_endproc
 338              	.LFE27:
 339              		.size	bmk12_setup, .-bmk12_setup
 340 000c AFF30080 		.section	.text.thread3,"ax",%progbits
 341              		.align	2
 342              		.p2align 4,,15
 343              		.thumb
 344              		.thumb_func
 345              		.type	thread3, %function
 346              	thread3:
 347              	.LFB17:
 348              		.loc 1 341 0
 349              		.cfi_startproc
 350              		@ args = 0, pretend = 0, frame = 0
 351              		@ frame_needed = 0, uses_anonymous_args = 0
 352              	.LVL50:
 353 0000 10B5     		push	{r4, lr}
 354              	.LCFI2:
 355              		.cfi_def_cfa_offset 8
 356              		.cfi_offset 4, -8
 357              		.cfi_offset 14, -4
 358              		.loc 1 344 0
 359 0002 074C     		ldr	r4, .L27
 360 0004 02E0     		b	.L25
 361              	.LVL51:
 362              	.L26:
 363              		.loc 1 345 0
 364 0006 0748     		ldr	r0, .L27+4
 365 0008 FFF7FEFF 		bl	chSemWait
 366              	.LVL52:
 367              	.L25:
 368              		.loc 1 344 0
 369 000c A369     		ldr	r3, [r4, #24]
 370 000e 587F     		ldrb	r0, [r3, #29]	@ zero_extendqisi2
 371 0010 00F00401 		and	r1, r0, #4
 372 0014 CAB2     		uxtb	r2, r1
 373 0016 002A     		cmp	r2, #0
 374 0018 F5D0     		beq	.L26
 375              		.loc 1 347 0
 376 001a 0020     		movs	r0, #0
 377 001c 10BD     		pop	{r4, pc}
 378              	.L28:
 379 001e 00BF     		.align	2
 380              	.L27:
 381 0020 00000000 		.word	rlist
 382 0024 00000000 		.word	.LANCHOR1
 383              		.cfi_endproc
 384              	.LFE17:
 385              		.size	thread3, .-thread3
 386 0028 AFF30080 		.section	.text.bmk11_execute,"ax",%progbits
 386      AFF30080 
 387              		.align	2
 388              		.p2align 4,,15
 389              		.thumb
 390              		.thumb_func
 391              		.type	bmk11_execute, %function
 392              	bmk11_execute:
ARM GAS  /tmp/ccZTuUMW.s 			page 8


 393              	.LFB26:
 394              		.loc 1 550 0
 395              		.cfi_startproc
 396              		@ args = 0, pretend = 0, frame = 0
 397              		@ frame_needed = 0, uses_anonymous_args = 0
 398              	.LVL53:
 399 0000 38B5     		push	{r3, r4, r5, lr}
 400              	.LCFI3:
 401              		.cfi_def_cfa_offset 16
 402              		.cfi_offset 3, -16
 403              		.cfi_offset 4, -12
 404              		.cfi_offset 5, -8
 405              		.cfi_offset 14, -4
 406              		.loc 1 553 0
 407 0002 FFF7FEFF 		bl	test_wait_tick
 408              	.LVL54:
 409              		.loc 1 554 0
 410 0006 4FF47A70 		mov	r0, #1000
 411 000a FFF7FEFF 		bl	test_start_timer
 412              	.LVL55:
 413 000e 154D     		ldr	r5, .L35
 414              		.loc 1 551 0
 415 0010 0024     		movs	r4, #0
 416              	.LVL56:
 417              	.L30:
 418              	.LBB4:
 419              		.loc 1 556 0 discriminator 1
 420 0012 1548     		ldr	r0, .L35+4
 421 0014 FFF7FEFF 		bl	chSemWait
 422              	.LVL57:
 423              		.loc 1 557 0 discriminator 1
 424 0018 1348     		ldr	r0, .L35+4
 425 001a FFF7FEFF 		bl	chSemSignal
 426              	.LVL58:
 427              		.loc 1 558 0 discriminator 1
 428 001e 1248     		ldr	r0, .L35+4
 429 0020 FFF7FEFF 		bl	chSemWait
 430              	.LVL59:
 431              		.loc 1 559 0 discriminator 1
 432 0024 1048     		ldr	r0, .L35+4
 433 0026 FFF7FEFF 		bl	chSemSignal
 434              	.LVL60:
 435              		.loc 1 560 0 discriminator 1
 436 002a 0F48     		ldr	r0, .L35+4
 437 002c FFF7FEFF 		bl	chSemWait
 438              	.LVL61:
 439              		.loc 1 561 0 discriminator 1
 440 0030 0D48     		ldr	r0, .L35+4
 441 0032 FFF7FEFF 		bl	chSemSignal
 442              	.LVL62:
 443              		.loc 1 562 0 discriminator 1
 444 0036 0C48     		ldr	r0, .L35+4
 445 0038 FFF7FEFF 		bl	chSemWait
 446              	.LVL63:
 447              		.loc 1 563 0 discriminator 1
 448 003c 0A48     		ldr	r0, .L35+4
 449 003e FFF7FEFF 		bl	chSemSignal
ARM GAS  /tmp/ccZTuUMW.s 			page 9


 450              	.LVL64:
 451              		.loc 1 566 0 discriminator 1
 452 0042 FFF7FEFF 		bl	ChkIntSources
 453              	.LVL65:
 454              	.LBE4:
 455              		.loc 1 568 0 discriminator 1
 456 0046 2B78     		ldrb	r3, [r5, #0]	@ zero_extendqisi2
 457              	.LBB5:
 458              		.loc 1 564 0 discriminator 1
 459 0048 0134     		adds	r4, r4, #1
 460              	.LVL66:
 461              	.LBE5:
 462              		.loc 1 568 0 discriminator 1
 463 004a 002B     		cmp	r3, #0
 464 004c E1D0     		beq	.L30
 465              		.loc 1 569 0
 466 004e 0748     		ldr	r0, .L35+8
 467 0050 FFF7FEFF 		bl	test_print
 468              	.LVL67:
 469              		.loc 1 570 0
 470 0054 A000     		lsls	r0, r4, #2
 471 0056 FFF7FEFF 		bl	test_printn
 472              	.LVL68:
 473              		.loc 1 571 0
 474 005a 0548     		ldr	r0, .L35+12
 475              		.loc 1 572 0
 476 005c BDE83840 		pop	{r3, r4, r5, lr}
 477              		.loc 1 571 0
 478 0060 FFF7FEBF 		b	test_println
 479              	.LVL69:
 480              	.L36:
 481              		.align	2
 482              	.L35:
 483 0064 00000000 		.word	test_timer_done
 484 0068 00000000 		.word	.LANCHOR1
 485 006c A8000000 		.word	.LC11
 486 0070 C8000000 		.word	.LC13
 487              		.cfi_endproc
 488              	.LFE26:
 489              		.size	bmk11_execute, .-bmk11_execute
 490 0074 AFF30080 		.section	.text.bmk11_setup,"ax",%progbits
 490      AFF30080 
 490      AFF30080 
 491              		.align	2
 492              		.p2align 4,,15
 493              		.thumb
 494              		.thumb_func
 495              		.type	bmk11_setup, %function
 496              	bmk11_setup:
 497              	.LFB25:
 498              		.loc 1 545 0
 499              		.cfi_startproc
 500              		@ args = 0, pretend = 0, frame = 0
 501              		@ frame_needed = 0, uses_anonymous_args = 0
 502              		@ link register save eliminated.
 503              		.loc 1 547 0
 504 0000 40F20000 		movw	r0, #:lower16:.LANCHOR1
ARM GAS  /tmp/ccZTuUMW.s 			page 10


 505 0004 C0F20000 		movt	r0, #:upper16:.LANCHOR1
 506 0008 0121     		movs	r1, #1
 507              		.loc 1 548 0
 508              		.loc 1 547 0
 509 000a FFF7FEBF 		b	chSemInit
 510              	.LVL70:
 511              		.cfi_endproc
 512              	.LFE25:
 513              		.size	bmk11_setup, .-bmk11_setup
 514 000e 00BF     		.section	.text.bmk7_setup,"ax",%progbits
 515              		.align	2
 516              		.p2align 4,,15
 517              		.thumb
 518              		.thumb_func
 519              		.type	bmk7_setup, %function
 520              	bmk7_setup:
 521              	.LFB18:
 522              		.loc 1 349 0
 523              		.cfi_startproc
 524              		@ args = 0, pretend = 0, frame = 0
 525              		@ frame_needed = 0, uses_anonymous_args = 0
 526              		@ link register save eliminated.
 527              		.loc 1 351 0
 528 0000 40F20000 		movw	r0, #:lower16:.LANCHOR1
 529 0004 C0F20000 		movt	r0, #:upper16:.LANCHOR1
 530 0008 0021     		movs	r1, #0
 531              		.loc 1 352 0
 532              		.loc 1 351 0
 533 000a FFF7FEBF 		b	chSemInit
 534              	.LVL71:
 535              		.cfi_endproc
 536              	.LFE18:
 537              		.size	bmk7_setup, .-bmk7_setup
 538 000e 00BF     		.section	.text.bmk10_execute,"ax",%progbits
 539              		.align	2
 540              		.p2align 4,,15
 541              		.thumb
 542              		.thumb_func
 543              		.type	bmk10_execute, %function
 544              	bmk10_execute:
 545              	.LFB24:
 546              		.loc 1 504 0
 547              		.cfi_startproc
 548              		@ args = 0, pretend = 0, frame = 0
 549              		@ frame_needed = 0, uses_anonymous_args = 0
 550              	.LVL72:
 551 0000 38B5     		push	{r3, r4, r5, lr}
 552              	.LCFI4:
 553              		.cfi_def_cfa_offset 16
 554              		.cfi_offset 3, -16
 555              		.cfi_offset 4, -12
 556              		.cfi_offset 5, -8
 557              		.cfi_offset 14, -4
 558              		.loc 1 508 0
 559 0002 FFF7FEFF 		bl	test_wait_tick
 560              	.LVL73:
 561              		.loc 1 509 0
ARM GAS  /tmp/ccZTuUMW.s 			page 11


 562 0006 4FF47A70 		mov	r0, #1000
 563 000a FFF7FEFF 		bl	test_start_timer
 564              	.LVL74:
 565 000e 164D     		ldr	r5, .L45
 566              		.loc 1 506 0
 567 0010 0024     		movs	r4, #0
 568              	.LVL75:
 569              	.L40:
 570              	.LBB6:
 571              	.LBB7:
 572              		.loc 1 511 0 discriminator 1
 573 0012 2023     		movs	r3, #32
 574              	.LVL76:
 575              	@ 511 "../../test/testbmk.c" 1
 576 0014 83F31188 		msr     BASEPRI, r3
 577              	@ 0 "" 2
 578              	.LVL77:
 579              		.thumb
 580              	.LBE7:
 581              		.loc 1 512 0 discriminator 1
 582 0018 0121     		movs	r1, #1
 583 001a 0023     		movs	r3, #0
 584              	.LVL78:
 585 001c 1348     		ldr	r0, .L45+4
 586 001e 144A     		ldr	r2, .L45+8
 587 0020 FFF7FEFF 		bl	chVTSetI
 588              	.LVL79:
 589              		.loc 1 513 0 discriminator 1
 590 0024 0023     		movs	r3, #0
 591 0026 42F21071 		movw	r1, #10000
 592 002a 114A     		ldr	r2, .L45+8
 593 002c 1148     		ldr	r0, .L45+12
 594 002e FFF7FEFF 		bl	chVTSetI
 595              	.LVL80:
 596              		.loc 1 514 0 discriminator 1
 597 0032 0E48     		ldr	r0, .L45+4
 598 0034 FFF7FEFF 		bl	chVTResetI
 599              	.LVL81:
 600              		.loc 1 515 0 discriminator 1
 601 0038 0E48     		ldr	r0, .L45+12
 602 003a FFF7FEFF 		bl	chVTResetI
 603              	.LVL82:
 604              	.LBB8:
 605              		.loc 1 516 0 discriminator 1
 606 003e 0023     		movs	r3, #0
 607              	.LVL83:
 608              	@ 516 "../../test/testbmk.c" 1
 609 0040 83F31188 		msr     BASEPRI, r3
 610              	@ 0 "" 2
 611              	.LVL84:
 612              		.thumb
 613              	.LBE8:
 614              		.loc 1 519 0 discriminator 1
 615 0044 FFF7FEFF 		bl	ChkIntSources
 616              	.LVL85:
 617              	.LBE6:
 618              		.loc 1 521 0 discriminator 1
ARM GAS  /tmp/ccZTuUMW.s 			page 12


 619 0048 2B78     		ldrb	r3, [r5, #0]	@ zero_extendqisi2
 620              	.LBB9:
 621              		.loc 1 517 0 discriminator 1
 622 004a 0134     		adds	r4, r4, #1
 623              	.LVL86:
 624              	.LBE9:
 625              		.loc 1 521 0 discriminator 1
 626 004c 002B     		cmp	r3, #0
 627 004e E0D0     		beq	.L40
 628              		.loc 1 522 0
 629 0050 0948     		ldr	r0, .L45+16
 630 0052 FFF7FEFF 		bl	test_print
 631              	.LVL87:
 632              		.loc 1 523 0
 633 0056 6000     		lsls	r0, r4, #1
 634 0058 FFF7FEFF 		bl	test_printn
 635              	.LVL88:
 636              		.loc 1 524 0
 637 005c 0748     		ldr	r0, .L45+20
 638              		.loc 1 525 0
 639 005e BDE83840 		pop	{r3, r4, r5, lr}
 640              		.loc 1 524 0
 641 0062 FFF7FEBF 		b	test_println
 642              	.LVL89:
 643              	.L46:
 644 0066 00BF     		.align	2
 645              	.L45:
 646 0068 00000000 		.word	test_timer_done
 647 006c 00000000 		.word	.LANCHOR2
 648 0070 00000000 		.word	tmo
 649 0074 00000000 		.word	.LANCHOR3
 650 0078 A8000000 		.word	.LC11
 651 007c D8000000 		.word	.LC14
 652              		.cfi_endproc
 653              	.LFE24:
 654              		.size	bmk10_execute, .-bmk10_execute
 655              		.section	.text.bmk9_execute,"ax",%progbits
 656              		.align	2
 657              		.p2align 4,,15
 658              		.thumb
 659              		.thumb_func
 660              		.type	bmk9_execute, %function
 661              	bmk9_execute:
 662              	.LFB22:
 663              		.loc 1 455 0
 664              		.cfi_startproc
 665              		@ args = 0, pretend = 0, frame = 0
 666              		@ frame_needed = 0, uses_anonymous_args = 0
 667 0000 30B5     		push	{r4, r5, lr}
 668              	.LCFI5:
 669              		.cfi_def_cfa_offset 12
 670              		.cfi_offset 4, -12
 671              		.cfi_offset 5, -8
 672              		.cfi_offset 14, -4
 673 0002 83B0     		sub	sp, sp, #12
 674              	.LCFI6:
 675              		.cfi_def_cfa_offset 24
ARM GAS  /tmp/ccZTuUMW.s 			page 13


 676              		.loc 1 460 0
 677 0004 0024     		movs	r4, #0
 678 0006 2549     		ldr	r1, .L53
 679 0008 2548     		ldr	r0, .L53+4
 680 000a 0094     		str	r4, [sp, #0]
 681 000c 1022     		movs	r2, #16
 682 000e 2346     		mov	r3, r4
 683 0010 FFF7FEFF 		bl	chIQInit
 684              	.LVL90:
 685              		.loc 1 462 0
 686 0014 FFF7FEFF 		bl	test_wait_tick
 687              	.LVL91:
 688              		.loc 1 463 0
 689 0018 4FF47A70 		mov	r0, #1000
 690 001c FFF7FEFF 		bl	test_start_timer
 691              	.LVL92:
 692 0020 204D     		ldr	r5, .L53+8
 693              	.LVL93:
 694              	.L48:
 695              	.LBB10:
 696              	.LBB11:
 697              		.loc 1 465 0 discriminator 1
 698 0022 2023     		movs	r3, #32
 699              	.LVL94:
 700              	@ 465 "../../test/testbmk.c" 1
 701 0024 83F31188 		msr     BASEPRI, r3
 702              	@ 0 "" 2
 703              	.LVL95:
 704              		.thumb
 705              	.LBE11:
 706              		.loc 1 466 0 discriminator 1
 707 0028 0021     		movs	r1, #0
 708 002a 1D48     		ldr	r0, .L53+4
 709 002c FFF7FEFF 		bl	chIQPutI
 710              	.LVL96:
 711              		.loc 1 467 0 discriminator 1
 712 0030 0121     		movs	r1, #1
 713 0032 1B48     		ldr	r0, .L53+4
 714 0034 FFF7FEFF 		bl	chIQPutI
 715              	.LVL97:
 716              		.loc 1 468 0 discriminator 1
 717 0038 0221     		movs	r1, #2
 718 003a 1948     		ldr	r0, .L53+4
 719 003c FFF7FEFF 		bl	chIQPutI
 720              	.LVL98:
 721              		.loc 1 469 0 discriminator 1
 722 0040 0321     		movs	r1, #3
 723 0042 1748     		ldr	r0, .L53+4
 724 0044 FFF7FEFF 		bl	chIQPutI
 725              	.LVL99:
 726              	.LBB12:
 727              		.loc 1 470 0 discriminator 1
 728 0048 0023     		movs	r3, #0
 729              	.LVL100:
 730              	@ 470 "../../test/testbmk.c" 1
 731 004a 83F31188 		msr     BASEPRI, r3
 732              	@ 0 "" 2
ARM GAS  /tmp/ccZTuUMW.s 			page 14


 733              	.LVL101:
 734              		.thumb
 735              	.LBE12:
 736              		.loc 1 471 0 discriminator 1
 737 004e 4FF0FF31 		mov	r1, #-1
 738 0052 1348     		ldr	r0, .L53+4
 739 0054 FFF7FEFF 		bl	chIQGetTimeout
 740              	.LVL102:
 741              		.loc 1 472 0 discriminator 1
 742 0058 4FF0FF31 		mov	r1, #-1
 743 005c 1048     		ldr	r0, .L53+4
 744 005e FFF7FEFF 		bl	chIQGetTimeout
 745              	.LVL103:
 746              		.loc 1 473 0 discriminator 1
 747 0062 4FF0FF31 		mov	r1, #-1
 748 0066 0E48     		ldr	r0, .L53+4
 749 0068 FFF7FEFF 		bl	chIQGetTimeout
 750              	.LVL104:
 751              		.loc 1 474 0 discriminator 1
 752 006c 4FF0FF31 		mov	r1, #-1
 753 0070 0B48     		ldr	r0, .L53+4
 754 0072 FFF7FEFF 		bl	chIQGetTimeout
 755              	.LVL105:
 756              		.loc 1 477 0 discriminator 1
 757 0076 FFF7FEFF 		bl	ChkIntSources
 758              	.LVL106:
 759              	.LBE10:
 760              		.loc 1 479 0 discriminator 1
 761 007a 2B78     		ldrb	r3, [r5, #0]	@ zero_extendqisi2
 762              	.LBB13:
 763              		.loc 1 475 0 discriminator 1
 764 007c 0134     		adds	r4, r4, #1
 765              	.LVL107:
 766              	.LBE13:
 767              		.loc 1 479 0 discriminator 1
 768 007e 002B     		cmp	r3, #0
 769 0080 CFD0     		beq	.L48
 770              		.loc 1 480 0
 771 0082 0948     		ldr	r0, .L53+12
 772 0084 FFF7FEFF 		bl	test_print
 773              	.LVL108:
 774              		.loc 1 481 0
 775 0088 A000     		lsls	r0, r4, #2
 776 008a FFF7FEFF 		bl	test_printn
 777              	.LVL109:
 778              		.loc 1 482 0
 779 008e 0748     		ldr	r0, .L53+16
 780              		.loc 1 483 0
 781 0090 03B0     		add	sp, sp, #12
 782 0092 BDE83040 		pop	{r4, r5, lr}
 783              		.loc 1 482 0
 784 0096 FFF7FEBF 		b	test_println
 785              	.LVL110:
 786              	.L54:
 787 009a 00BF     		.align	2
 788              	.L53:
 789 009c 00000000 		.word	.LANCHOR5
ARM GAS  /tmp/ccZTuUMW.s 			page 15


 790 00a0 00000000 		.word	.LANCHOR4
 791 00a4 00000000 		.word	test_timer_done
 792 00a8 A8000000 		.word	.LC11
 793 00ac E4000000 		.word	.LC15
 794              		.cfi_endproc
 795              	.LFE22:
 796              		.size	bmk9_execute, .-bmk9_execute
 797              		.section	.text.bmk6_execute,"ax",%progbits
 798              		.align	2
 799              		.p2align 4,,15
 800              		.thumb
 801              		.thumb_func
 802              		.type	bmk6_execute, %function
 803              	bmk6_execute:
 804              	.LFB16:
 805              		.loc 1 304 0
 806              		.cfi_startproc
 807              		@ args = 0, pretend = 0, frame = 0
 808              		@ frame_needed = 0, uses_anonymous_args = 0
 809              	.LVL111:
 810 0000 2DE9F041 		push	{r4, r5, r6, r7, r8, lr}
 811              	.LCFI7:
 812              		.cfi_def_cfa_offset 24
 813              		.cfi_offset 4, -24
 814              		.cfi_offset 5, -20
 815              		.cfi_offset 6, -16
 816              		.cfi_offset 7, -12
 817              		.cfi_offset 8, -8
 818              		.cfi_offset 14, -4
 819              		.loc 1 308 0
 820 0004 154B     		ldr	r3, .L61
 821              		.loc 1 307 0
 822 0006 164A     		ldr	r2, .L61+4
 823              		.loc 1 308 0
 824 0008 9869     		ldr	r0, [r3, #24]
 825              		.loc 1 307 0
 826 000a D2F80080 		ldr	r8, [r2, #0]
 827              	.LVL112:
 828              		.loc 1 308 0
 829 000e 8668     		ldr	r6, [r0, #8]
 830 0010 144F     		ldr	r7, .L61+8
 831              		.loc 1 304 0
 832 0012 82B0     		sub	sp, sp, #8
 833              	.LCFI8:
 834              		.cfi_def_cfa_offset 32
 835              		.loc 1 309 0
 836 0014 FFF7FEFF 		bl	test_wait_tick
 837              	.LVL113:
 838              		.loc 1 310 0
 839 0018 4FF47A70 		mov	r0, #1000
 840 001c FFF7FEFF 		bl	test_start_timer
 841              	.LVL114:
 842              		.loc 1 306 0
 843 0020 0024     		movs	r4, #0
 844              		.loc 1 308 0
 845 0022 0136     		adds	r6, r6, #1
 846              	.LVL115:
ARM GAS  /tmp/ccZTuUMW.s 			page 16


 847              	.LBB14:
 848              		.loc 1 312 0
 849 0024 2546     		mov	r5, r4
 850              	.LVL116:
 851              	.L56:
 852              		.loc 1 312 0 is_stmt 0 discriminator 1
 853 0026 4FF4DC71 		mov	r1, #440
 854 002a 3246     		mov	r2, r6
 855 002c 0E4B     		ldr	r3, .L61+12
 856 002e 0095     		str	r5, [sp, #0]
 857 0030 4046     		mov	r0, r8
 858 0032 FFF7FEFF 		bl	chThdCreateStatic
 859              	.LVL117:
 860              		.loc 1 315 0 is_stmt 1 discriminator 1
 861 0036 FFF7FEFF 		bl	ChkIntSources
 862              	.LVL118:
 863              	.LBE14:
 864              		.loc 1 317 0 discriminator 1
 865 003a 3978     		ldrb	r1, [r7, #0]	@ zero_extendqisi2
 866              	.LBB15:
 867              		.loc 1 313 0 discriminator 1
 868 003c 0134     		adds	r4, r4, #1
 869              	.LVL119:
 870              	.LBE15:
 871              		.loc 1 317 0 discriminator 1
 872 003e 0029     		cmp	r1, #0
 873 0040 F1D0     		beq	.L56
 874              		.loc 1 318 0
 875 0042 0A48     		ldr	r0, .L61+16
 876 0044 FFF7FEFF 		bl	test_print
 877              	.LVL120:
 878              		.loc 1 319 0
 879 0048 2046     		mov	r0, r4
 880 004a FFF7FEFF 		bl	test_printn
 881              	.LVL121:
 882              		.loc 1 320 0
 883 004e 0848     		ldr	r0, .L61+20
 884              		.loc 1 321 0
 885 0050 02B0     		add	sp, sp, #8
 886 0052 BDE8F041 		pop	{r4, r5, r6, r7, r8, lr}
 887              		.loc 1 320 0
 888 0056 FFF7FEBF 		b	test_println
 889              	.LVL122:
 890              	.L62:
 891 005a 00BF     		.align	2
 892              	.L61:
 893 005c 00000000 		.word	rlist
 894 0060 00000000 		.word	wa
 895 0064 00000000 		.word	test_timer_done
 896 0068 00000000 		.word	thread2
 897 006c A8000000 		.word	.LC11
 898 0070 F0000000 		.word	.LC16
 899              		.cfi_endproc
 900              	.LFE16:
 901              		.size	bmk6_execute, .-bmk6_execute
 902 0074 AFF30080 		.section	.text.bmk8_execute,"ax",%progbits
 902      AFF30080 
ARM GAS  /tmp/ccZTuUMW.s 			page 17


 902      AFF30080 
 903              		.align	2
 904              		.p2align 4,,15
 905              		.thumb
 906              		.thumb_func
 907              		.type	bmk8_execute, %function
 908              	bmk8_execute:
 909              	.LFB21:
 910              		.loc 1 416 0
 911              		.cfi_startproc
 912              		@ args = 0, pretend = 0, frame = 8
 913              		@ frame_needed = 0, uses_anonymous_args = 0
 914 0000 2DE9F043 		push	{r4, r5, r6, r7, r8, r9, lr}
 915              	.LCFI9:
 916              		.cfi_def_cfa_offset 28
 917              		.cfi_offset 4, -28
 918              		.cfi_offset 5, -24
 919              		.cfi_offset 6, -20
 920              		.cfi_offset 7, -16
 921              		.cfi_offset 8, -12
 922              		.cfi_offset 9, -8
 923              		.cfi_offset 14, -4
 924              		.loc 1 422 0
 925 0004 40F20009 		movw	r9, #:lower16:rlist
 926              		.loc 1 416 0
 927 0008 85B0     		sub	sp, sp, #20
 928              	.LCFI10:
 929              		.cfi_def_cfa_offset 48
 930              		.loc 1 419 0
 931 000a 04AC     		add	r4, sp, #16
 932              		.loc 1 422 0
 933 000c C0F20009 		movt	r9, #:upper16:rlist
 934              		.loc 1 419 0
 935 0010 0023     		movs	r3, #0
 936 0012 44F8043D 		str	r3, [r4, #-4]!
 937              	.LVL123:
 938              		.loc 1 420 0
 939 0016 FFF7FEFF 		bl	test_wait_tick
 940              	.LVL124:
 941              		.loc 1 422 0
 942 001a D9F81810 		ldr	r1, [r9, #24]
 943 001e 40F20008 		movw	r8, #:lower16:wa
 944 0022 C0F20008 		movt	r8, #:upper16:wa
 945 0026 8A68     		ldr	r2, [r1, #8]
 946 0028 D8F80000 		ldr	r0, [r8, #0]
 947 002c 0094     		str	r4, [sp, #0]
 948 002e 40F20006 		movw	r6, #:lower16:thread8
 949 0032 C0F20006 		movt	r6, #:upper16:thread8
 950 0036 013A     		subs	r2, r2, #1
 951 0038 3346     		mov	r3, r6
 952 003a 4FF4DC71 		mov	r1, #440
 953 003e FFF7FEFF 		bl	chThdCreateStatic
 954              	.LVL125:
 955              		.loc 1 423 0
 956 0042 D9F81850 		ldr	r5, [r9, #24]
 957 0046 D8F80470 		ldr	r7, [r8, #4]
 958 004a AB68     		ldr	r3, [r5, #8]
ARM GAS  /tmp/ccZTuUMW.s 			page 18


 959 004c 0094     		str	r4, [sp, #0]
 960              		.loc 1 422 0
 961 004e 40F20005 		movw	r5, #:lower16:threads
 962 0052 C0F20005 		movt	r5, #:upper16:threads
 963              		.loc 1 423 0
 964 0056 5A1E     		subs	r2, r3, #1
 965              		.loc 1 422 0
 966 0058 2860     		str	r0, [r5, #0]
 967              		.loc 1 423 0
 968 005a 3346     		mov	r3, r6
 969 005c 4FF4DC71 		mov	r1, #440
 970 0060 3846     		mov	r0, r7
 971 0062 FFF7FEFF 		bl	chThdCreateStatic
 972              	.LVL126:
 973              		.loc 1 424 0
 974 0066 D9F81810 		ldr	r1, [r9, #24]
 975 006a D8F80870 		ldr	r7, [r8, #8]
 976 006e 8A68     		ldr	r2, [r1, #8]
 977              		.loc 1 423 0
 978 0070 6860     		str	r0, [r5, #4]
 979              		.loc 1 424 0
 980 0072 013A     		subs	r2, r2, #1
 981 0074 3346     		mov	r3, r6
 982 0076 4FF4DC71 		mov	r1, #440
 983 007a 0094     		str	r4, [sp, #0]
 984 007c 3846     		mov	r0, r7
 985 007e FFF7FEFF 		bl	chThdCreateStatic
 986              	.LVL127:
 987              		.loc 1 425 0
 988 0082 D9F81830 		ldr	r3, [r9, #24]
 989 0086 D8F80C70 		ldr	r7, [r8, #12]
 990 008a 9A68     		ldr	r2, [r3, #8]
 991              		.loc 1 424 0
 992 008c A860     		str	r0, [r5, #8]
 993              		.loc 1 425 0
 994 008e 013A     		subs	r2, r2, #1
 995 0090 3346     		mov	r3, r6
 996 0092 4FF4DC71 		mov	r1, #440
 997 0096 0094     		str	r4, [sp, #0]
 998 0098 3846     		mov	r0, r7
 999 009a FFF7FEFF 		bl	chThdCreateStatic
 1000              	.LVL128:
 1001              		.loc 1 426 0
 1002 009e D9F81810 		ldr	r1, [r9, #24]
 1003 00a2 D8F81070 		ldr	r7, [r8, #16]
 1004 00a6 8B68     		ldr	r3, [r1, #8]
 1005              		.loc 1 425 0
 1006 00a8 E860     		str	r0, [r5, #12]
 1007              		.loc 1 426 0
 1008 00aa 5A1E     		subs	r2, r3, #1
 1009 00ac 4FF4DC71 		mov	r1, #440
 1010 00b0 3346     		mov	r3, r6
 1011 00b2 0094     		str	r4, [sp, #0]
 1012 00b4 3846     		mov	r0, r7
 1013 00b6 FFF7FEFF 		bl	chThdCreateStatic
 1014              	.LVL129:
 1015 00ba 2861     		str	r0, [r5, #16]
ARM GAS  /tmp/ccZTuUMW.s 			page 19


 1016              		.loc 1 428 0
 1017 00bc 4FF47A70 		mov	r0, #1000
 1018 00c0 FFF7FEFF 		bl	chThdSleep
 1019              	.LVL130:
 1020              		.loc 1 429 0
 1021 00c4 FFF7FEFF 		bl	test_terminate_threads
 1022              	.LVL131:
 1023              		.loc 1 430 0
 1024 00c8 FFF7FEFF 		bl	test_wait_threads
 1025              	.LVL132:
 1026              		.loc 1 432 0
 1027 00cc 40F20000 		movw	r0, #:lower16:.LC11
 1028 00d0 C0F20000 		movt	r0, #:upper16:.LC11
 1029 00d4 FFF7FEFF 		bl	test_print
 1030              	.LVL133:
 1031              		.loc 1 433 0
 1032 00d8 0398     		ldr	r0, [sp, #12]
 1033 00da FFF7FEFF 		bl	test_printn
 1034              	.LVL134:
 1035              		.loc 1 434 0
 1036 00de 40F20000 		movw	r0, #:lower16:.LC17
 1037 00e2 C0F20000 		movt	r0, #:upper16:.LC17
 1038 00e6 FFF7FEFF 		bl	test_println
 1039              	.LVL135:
 1040              		.loc 1 435 0
 1041 00ea 05B0     		add	sp, sp, #20
 1042 00ec BDE8F083 		pop	{r4, r5, r6, r7, r8, r9, pc}
 1043              		.cfi_endproc
 1044              	.LFE21:
 1045              		.size	bmk8_execute, .-bmk8_execute
 1046              		.section	.text.thread8,"ax",%progbits
 1047              		.align	2
 1048              		.p2align 4,,15
 1049              		.thumb
 1050              		.thumb_func
 1051              		.type	thread8, %function
 1052              	thread8:
 1053              	.LFB20:
 1054              		.loc 1 401 0
 1055              		.cfi_startproc
 1056              		@ args = 0, pretend = 0, frame = 0
 1057              		@ frame_needed = 0, uses_anonymous_args = 0
 1058              	.LVL136:
 1059 0000 38B5     		push	{r3, r4, r5, lr}
 1060              	.LCFI11:
 1061              		.cfi_def_cfa_offset 16
 1062              		.cfi_offset 3, -16
 1063              		.cfi_offset 4, -12
 1064              		.cfi_offset 5, -8
 1065              		.cfi_offset 14, -4
 1066 0002 0C4D     		ldr	r5, .L70
 1067              		.loc 1 401 0
 1068 0004 0446     		mov	r4, r0
 1069              	.LVL137:
 1070              	.L65:
 1071              	.LBB16:
 1072              		.loc 1 404 0 discriminator 1
ARM GAS  /tmp/ccZTuUMW.s 			page 20


 1073 0006 FFF7FEFF 		bl	chThdYield
 1074              	.LVL138:
 1075              		.loc 1 405 0 discriminator 1
 1076 000a FFF7FEFF 		bl	chThdYield
 1077              	.LVL139:
 1078              		.loc 1 406 0 discriminator 1
 1079 000e FFF7FEFF 		bl	chThdYield
 1080              	.LVL140:
 1081              		.loc 1 407 0 discriminator 1
 1082 0012 FFF7FEFF 		bl	chThdYield
 1083              	.LVL141:
 1084              		.loc 1 408 0 discriminator 1
 1085 0016 2368     		ldr	r3, [r4, #0]
 1086 0018 181D     		adds	r0, r3, #4
 1087 001a 2060     		str	r0, [r4, #0]
 1088              		.loc 1 410 0 discriminator 1
 1089 001c FFF7FEFF 		bl	ChkIntSources
 1090              	.LVL142:
 1091              	.LBE16:
 1092              		.loc 1 412 0 discriminator 1
 1093 0020 A969     		ldr	r1, [r5, #24]
 1094 0022 4A7F     		ldrb	r2, [r1, #29]	@ zero_extendqisi2
 1095 0024 02F00403 		and	r3, r2, #4
 1096 0028 D8B2     		uxtb	r0, r3
 1097 002a 0028     		cmp	r0, #0
 1098 002c EBD0     		beq	.L65
 1099              		.loc 1 414 0
 1100 002e 0020     		movs	r0, #0
 1101 0030 38BD     		pop	{r3, r4, r5, pc}
 1102              	.L71:
 1103 0032 00BF     		.align	2
 1104              	.L70:
 1105 0034 00000000 		.word	rlist
 1106              		.cfi_endproc
 1107              	.LFE20:
 1108              		.size	thread8, .-thread8
 1109 0038 AFF30080 		.section	.text.bmk7_execute,"ax",%progbits
 1109      AFF30080 
 1110              		.align	2
 1111              		.p2align 4,,15
 1112              		.thumb
 1113              		.thumb_func
 1114              		.type	bmk7_execute, %function
 1115              	bmk7_execute:
 1116              	.LFB19:
 1117              		.loc 1 354 0
 1118              		.cfi_startproc
 1119              		@ args = 0, pretend = 0, frame = 8
 1120              		@ frame_needed = 0, uses_anonymous_args = 0
 1121 0000 2DE9F042 		push	{r4, r5, r6, r7, r9, lr}
 1122              	.LCFI12:
 1123              		.cfi_def_cfa_offset 24
 1124              		.cfi_offset 4, -24
 1125              		.cfi_offset 5, -20
 1126              		.cfi_offset 6, -16
 1127              		.cfi_offset 7, -12
 1128              		.cfi_offset 9, -8
ARM GAS  /tmp/ccZTuUMW.s 			page 21


 1129              		.cfi_offset 14, -4
 1130              		.loc 1 357 0
 1131 0004 DFF80891 		ldr	r9, .L78+32
 1132 0008 394F     		ldr	r7, .L78
 1133 000a D9F81830 		ldr	r3, [r9, #24]
 1134 000e 3868     		ldr	r0, [r7, #0]
 1135 0010 9A68     		ldr	r2, [r3, #8]
 1136 0012 384B     		ldr	r3, .L78+4
 1137 0014 384E     		ldr	r6, .L78+8
 1138 0016 394D     		ldr	r5, .L78+12
 1139              		.loc 1 354 0
 1140 0018 84B0     		sub	sp, sp, #16
 1141              	.LCFI13:
 1142              		.cfi_def_cfa_offset 40
 1143              		.loc 1 357 0
 1144 001a 0024     		movs	r4, #0
 1145 001c 4FF4DC71 		mov	r1, #440
 1146 0020 0532     		adds	r2, r2, #5
 1147 0022 0094     		str	r4, [sp, #0]
 1148 0024 FFF7FEFF 		bl	chThdCreateStatic
 1149              	.LVL143:
 1150              		.loc 1 358 0
 1151 0028 D9F81810 		ldr	r1, [r9, #24]
 1152 002c 7B68     		ldr	r3, [r7, #4]
 1153 002e 8A68     		ldr	r2, [r1, #8]
 1154 0030 0393     		str	r3, [sp, #12]
 1155              		.loc 1 357 0
 1156 0032 3060     		str	r0, [r6, #0]
 1157              		.loc 1 358 0
 1158 0034 4FF4DC71 		mov	r1, #440
 1159 0038 0432     		adds	r2, r2, #4
 1160 003a 2E4B     		ldr	r3, .L78+4
 1161 003c 0094     		str	r4, [sp, #0]
 1162 003e 0398     		ldr	r0, [sp, #12]
 1163 0040 FFF7FEFF 		bl	chThdCreateStatic
 1164              	.LVL144:
 1165              		.loc 1 359 0
 1166 0044 D9F81810 		ldr	r1, [r9, #24]
 1167 0048 BB68     		ldr	r3, [r7, #8]
 1168 004a 8A68     		ldr	r2, [r1, #8]
 1169 004c 0393     		str	r3, [sp, #12]
 1170              		.loc 1 358 0
 1171 004e 7060     		str	r0, [r6, #4]
 1172              		.loc 1 359 0
 1173 0050 4FF4DC71 		mov	r1, #440
 1174 0054 0332     		adds	r2, r2, #3
 1175 0056 274B     		ldr	r3, .L78+4
 1176 0058 0094     		str	r4, [sp, #0]
 1177 005a 0398     		ldr	r0, [sp, #12]
 1178 005c FFF7FEFF 		bl	chThdCreateStatic
 1179              	.LVL145:
 1180              		.loc 1 360 0
 1181 0060 D9F81810 		ldr	r1, [r9, #24]
 1182 0064 FB68     		ldr	r3, [r7, #12]
 1183 0066 8A68     		ldr	r2, [r1, #8]
 1184 0068 0393     		str	r3, [sp, #12]
 1185              		.loc 1 359 0
ARM GAS  /tmp/ccZTuUMW.s 			page 22


 1186 006a B060     		str	r0, [r6, #8]
 1187              		.loc 1 360 0
 1188 006c 4FF4DC71 		mov	r1, #440
 1189 0070 0232     		adds	r2, r2, #2
 1190 0072 204B     		ldr	r3, .L78+4
 1191 0074 0094     		str	r4, [sp, #0]
 1192 0076 0398     		ldr	r0, [sp, #12]
 1193 0078 FFF7FEFF 		bl	chThdCreateStatic
 1194              	.LVL146:
 1195              		.loc 1 361 0
 1196 007c D9F81810 		ldr	r1, [r9, #24]
 1197 0080 3F69     		ldr	r7, [r7, #16]
 1198 0082 8A68     		ldr	r2, [r1, #8]
 1199 0084 1B4B     		ldr	r3, .L78+4
 1200              		.loc 1 360 0
 1201 0086 F060     		str	r0, [r6, #12]
 1202              		.loc 1 361 0
 1203 0088 4FF4DC71 		mov	r1, #440
 1204 008c 0132     		adds	r2, r2, #1
 1205 008e 0094     		str	r4, [sp, #0]
 1206 0090 3846     		mov	r0, r7
 1207 0092 FFF7FEFF 		bl	chThdCreateStatic
 1208              	.LVL147:
 1209 0096 3061     		str	r0, [r6, #16]
 1210              	.LVL148:
 1211              		.loc 1 364 0
 1212 0098 FFF7FEFF 		bl	test_wait_tick
 1213              	.LVL149:
 1214              		.loc 1 365 0
 1215 009c 4FF47A70 		mov	r0, #1000
 1216 00a0 FFF7FEFF 		bl	test_start_timer
 1217              	.LVL150:
 1218              	.L73:
 1219              	.LBB17:
 1220              		.loc 1 367 0 discriminator 1
 1221 00a4 1648     		ldr	r0, .L78+16
 1222 00a6 0021     		movs	r1, #0
 1223 00a8 FFF7FEFF 		bl	chSemReset
 1224              	.LVL151:
 1225              		.loc 1 370 0 discriminator 1
 1226 00ac FFF7FEFF 		bl	ChkIntSources
 1227              	.LVL152:
 1228              	.LBE17:
 1229              		.loc 1 372 0 discriminator 1
 1230 00b0 2878     		ldrb	r0, [r5, #0]	@ zero_extendqisi2
 1231              	.LBB18:
 1232              		.loc 1 368 0 discriminator 1
 1233 00b2 0134     		adds	r4, r4, #1
 1234              	.LVL153:
 1235              	.LBE18:
 1236              		.loc 1 372 0 discriminator 1
 1237 00b4 0028     		cmp	r0, #0
 1238 00b6 F5D0     		beq	.L73
 1239              		.loc 1 373 0
 1240 00b8 FFF7FEFF 		bl	test_terminate_threads
 1241              	.LVL154:
 1242              		.loc 1 374 0
ARM GAS  /tmp/ccZTuUMW.s 			page 23


 1243 00bc 0021     		movs	r1, #0
 1244 00be 1048     		ldr	r0, .L78+16
 1245 00c0 FFF7FEFF 		bl	chSemReset
 1246              	.LVL155:
 1247              		.loc 1 375 0
 1248 00c4 FFF7FEFF 		bl	test_wait_threads
 1249              	.LVL156:
 1250              		.loc 1 377 0
 1251 00c8 0E48     		ldr	r0, .L78+20
 1252 00ca FFF7FEFF 		bl	test_print
 1253              	.LVL157:
 1254              		.loc 1 378 0
 1255 00ce 2046     		mov	r0, r4
 1256 00d0 FFF7FEFF 		bl	test_printn
 1257              	.LVL158:
 1258              		.loc 1 379 0
 1259 00d4 0C48     		ldr	r0, .L78+24
 1260 00d6 FFF7FEFF 		bl	test_print
 1261              	.LVL159:
 1262              		.loc 1 380 0
 1263 00da 04EB4403 		add	r3, r4, r4, lsl #1
 1264 00de 5800     		lsls	r0, r3, #1
 1265 00e0 FFF7FEFF 		bl	test_printn
 1266              	.LVL160:
 1267              		.loc 1 381 0
 1268 00e4 0948     		ldr	r0, .L78+28
 1269              		.loc 1 382 0
 1270 00e6 04B0     		add	sp, sp, #16
 1271 00e8 BDE8F042 		pop	{r4, r5, r6, r7, r9, lr}
 1272              		.loc 1 381 0
 1273 00ec FFF7FEBF 		b	test_println
 1274              	.LVL161:
 1275              	.L79:
 1276              		.align	2
 1277              	.L78:
 1278 00f0 00000000 		.word	wa
 1279 00f4 00000000 		.word	thread3
 1280 00f8 00000000 		.word	threads
 1281 00fc 00000000 		.word	test_timer_done
 1282 0100 00000000 		.word	.LANCHOR1
 1283 0104 A8000000 		.word	.LC11
 1284 0108 08010000 		.word	.LC18
 1285 010c FC000000 		.word	.LC17
 1286 0110 00000000 		.word	rlist
 1287              		.cfi_endproc
 1288              	.LFE19:
 1289              		.size	bmk7_execute, .-bmk7_execute
 1290 0114 AFF30080 		.section	.text.bmk5_execute,"ax",%progbits
 1290      AFF30080 
 1290      AFF30080 
 1291              		.align	2
 1292              		.p2align 4,,15
 1293              		.thumb
 1294              		.thumb_func
 1295              		.type	bmk5_execute, %function
 1296              	bmk5_execute:
 1297              	.LFB15:
ARM GAS  /tmp/ccZTuUMW.s 			page 24


 1298              		.loc 1 265 0
 1299              		.cfi_startproc
 1300              		@ args = 0, pretend = 0, frame = 0
 1301              		@ frame_needed = 0, uses_anonymous_args = 0
 1302              	.LVL162:
 1303 0000 2DE9F041 		push	{r4, r5, r6, r7, r8, lr}
 1304              	.LCFI14:
 1305              		.cfi_def_cfa_offset 24
 1306              		.cfi_offset 4, -24
 1307              		.cfi_offset 5, -20
 1308              		.cfi_offset 6, -16
 1309              		.cfi_offset 7, -12
 1310              		.cfi_offset 8, -8
 1311              		.cfi_offset 14, -4
 1312              		.loc 1 269 0
 1313 0004 164B     		ldr	r3, .L86
 1314              		.loc 1 268 0
 1315 0006 174A     		ldr	r2, .L86+4
 1316              		.loc 1 269 0
 1317 0008 9869     		ldr	r0, [r3, #24]
 1318              		.loc 1 268 0
 1319 000a D2F80080 		ldr	r8, [r2, #0]
 1320              	.LVL163:
 1321              		.loc 1 269 0
 1322 000e 8668     		ldr	r6, [r0, #8]
 1323 0010 154F     		ldr	r7, .L86+8
 1324              		.loc 1 265 0
 1325 0012 82B0     		sub	sp, sp, #8
 1326              	.LCFI15:
 1327              		.cfi_def_cfa_offset 32
 1328              		.loc 1 270 0
 1329 0014 FFF7FEFF 		bl	test_wait_tick
 1330              	.LVL164:
 1331              		.loc 1 271 0
 1332 0018 4FF47A70 		mov	r0, #1000
 1333 001c FFF7FEFF 		bl	test_start_timer
 1334              	.LVL165:
 1335              		.loc 1 267 0
 1336 0020 0024     		movs	r4, #0
 1337              		.loc 1 269 0
 1338 0022 013E     		subs	r6, r6, #1
 1339              	.LVL166:
 1340              	.LBB19:
 1341              		.loc 1 273 0
 1342 0024 2546     		mov	r5, r4
 1343              	.LVL167:
 1344              	.L81:
 1345              		.loc 1 273 0 is_stmt 0 discriminator 1
 1346 0026 4FF4DC71 		mov	r1, #440
 1347 002a 3246     		mov	r2, r6
 1348 002c 0F4B     		ldr	r3, .L86+12
 1349 002e 0095     		str	r5, [sp, #0]
 1350 0030 4046     		mov	r0, r8
 1351 0032 FFF7FEFF 		bl	chThdCreateStatic
 1352              	.LVL168:
 1353 0036 FFF7FEFF 		bl	chThdWait
 1354              	.LVL169:
ARM GAS  /tmp/ccZTuUMW.s 			page 25


 1355              		.loc 1 276 0 is_stmt 1 discriminator 1
 1356 003a FFF7FEFF 		bl	ChkIntSources
 1357              	.LVL170:
 1358              	.LBE19:
 1359              		.loc 1 278 0 discriminator 1
 1360 003e 3978     		ldrb	r1, [r7, #0]	@ zero_extendqisi2
 1361              	.LBB20:
 1362              		.loc 1 274 0 discriminator 1
 1363 0040 0134     		adds	r4, r4, #1
 1364              	.LVL171:
 1365              	.LBE20:
 1366              		.loc 1 278 0 discriminator 1
 1367 0042 0029     		cmp	r1, #0
 1368 0044 EFD0     		beq	.L81
 1369              		.loc 1 279 0
 1370 0046 0A48     		ldr	r0, .L86+16
 1371 0048 FFF7FEFF 		bl	test_print
 1372              	.LVL172:
 1373              		.loc 1 280 0
 1374 004c 2046     		mov	r0, r4
 1375 004e FFF7FEFF 		bl	test_printn
 1376              	.LVL173:
 1377              		.loc 1 281 0
 1378 0052 0848     		ldr	r0, .L86+20
 1379              		.loc 1 282 0
 1380 0054 02B0     		add	sp, sp, #8
 1381 0056 BDE8F041 		pop	{r4, r5, r6, r7, r8, lr}
 1382              		.loc 1 281 0
 1383 005a FFF7FEBF 		b	test_println
 1384              	.LVL174:
 1385              	.L87:
 1386 005e 00BF     		.align	2
 1387              	.L86:
 1388 0060 00000000 		.word	rlist
 1389 0064 00000000 		.word	wa
 1390 0068 00000000 		.word	test_timer_done
 1391 006c 00000000 		.word	thread2
 1392 0070 A8000000 		.word	.LC11
 1393 0074 F0000000 		.word	.LC16
 1394              		.cfi_endproc
 1395              	.LFE15:
 1396              		.size	bmk5_execute, .-bmk5_execute
 1397 0078 AFF30080 		.section	.text.bmk4_execute,"ax",%progbits
 1397      AFF30080 
 1398              		.align	2
 1399              		.p2align 4,,15
 1400              		.thumb
 1401              		.thumb_func
 1402              		.type	bmk4_execute, %function
 1403              	bmk4_execute:
 1404              	.LFB14:
 1405              		.loc 1 217 0
 1406              		.cfi_startproc
 1407              		@ args = 0, pretend = 0, frame = 0
 1408              		@ frame_needed = 0, uses_anonymous_args = 0
 1409 0000 70B5     		push	{r4, r5, r6, lr}
 1410              	.LCFI16:
ARM GAS  /tmp/ccZTuUMW.s 			page 26


 1411              		.cfi_def_cfa_offset 16
 1412              		.cfi_offset 4, -16
 1413              		.cfi_offset 5, -12
 1414              		.cfi_offset 6, -8
 1415              		.cfi_offset 14, -4
 1416              		.loc 1 221 0
 1417 0002 264B     		ldr	r3, .L94
 1418 0004 264C     		ldr	r4, .L94+4
 1419 0006 9869     		ldr	r0, [r3, #24]
 1420 0008 264B     		ldr	r3, .L94+8
 1421 000a 8268     		ldr	r2, [r0, #8]
 1422 000c 2068     		ldr	r0, [r4, #0]
 1423 000e 264E     		ldr	r6, .L94+12
 1424              		.loc 1 217 0
 1425 0010 82B0     		sub	sp, sp, #8
 1426              	.LCFI17:
 1427              		.cfi_def_cfa_offset 24
 1428              		.loc 1 221 0
 1429 0012 0025     		movs	r5, #0
 1430 0014 4FF4DC71 		mov	r1, #440
 1431 0018 0132     		adds	r2, r2, #1
 1432 001a 0095     		str	r5, [sp, #0]
 1433 001c FFF7FEFF 		bl	chThdCreateStatic
 1434              	.LVL175:
 1435 0020 2249     		ldr	r1, .L94+16
 1436 0022 0446     		mov	r4, r0
 1437 0024 0860     		str	r0, [r1, #0]
 1438              	.LVL176:
 1439              		.loc 1 223 0
 1440 0026 FFF7FEFF 		bl	test_wait_tick
 1441              	.LVL177:
 1442              		.loc 1 224 0
 1443 002a 4FF47A70 		mov	r0, #1000
 1444 002e FFF7FEFF 		bl	test_start_timer
 1445              	.LVL178:
 1446              	.L89:
 1447              	.LBB21:
 1448              	.LBB22:
 1449              		.loc 1 226 0 discriminator 1
 1450 0032 2023     		movs	r3, #32
 1451              	.LVL179:
 1452              	@ 226 "../../test/testbmk.c" 1
 1453 0034 83F31188 		msr     BASEPRI, r3
 1454              	@ 0 "" 2
 1455              	.LVL180:
 1456              		.thumb
 1457              	.LBE22:
 1458              		.loc 1 227 0 discriminator 1
 1459 0038 0021     		movs	r1, #0
 1460 003a 2046     		mov	r0, r4
 1461 003c FFF7FEFF 		bl	chSchWakeupS
 1462              	.LVL181:
 1463              		.loc 1 228 0 discriminator 1
 1464 0040 2046     		mov	r0, r4
 1465 0042 0021     		movs	r1, #0
 1466 0044 FFF7FEFF 		bl	chSchWakeupS
 1467              	.LVL182:
ARM GAS  /tmp/ccZTuUMW.s 			page 27


 1468              		.loc 1 229 0 discriminator 1
 1469 0048 2046     		mov	r0, r4
 1470 004a 0021     		movs	r1, #0
 1471 004c FFF7FEFF 		bl	chSchWakeupS
 1472              	.LVL183:
 1473              		.loc 1 230 0 discriminator 1
 1474 0050 2046     		mov	r0, r4
 1475 0052 0021     		movs	r1, #0
 1476 0054 FFF7FEFF 		bl	chSchWakeupS
 1477              	.LVL184:
 1478              	.LBB23:
 1479              		.loc 1 231 0 discriminator 1
 1480 0058 0023     		movs	r3, #0
 1481              	.LVL185:
 1482              	@ 231 "../../test/testbmk.c" 1
 1483 005a 83F31188 		msr     BASEPRI, r3
 1484              	@ 0 "" 2
 1485              	.LVL186:
 1486              		.thumb
 1487              	.LBE23:
 1488              		.loc 1 234 0 discriminator 1
 1489 005e FFF7FEFF 		bl	ChkIntSources
 1490              	.LVL187:
 1491              	.LBE21:
 1492              		.loc 1 236 0 discriminator 1
 1493 0062 3378     		ldrb	r3, [r6, #0]	@ zero_extendqisi2
 1494              	.LBB24:
 1495              		.loc 1 232 0 discriminator 1
 1496 0064 0435     		adds	r5, r5, #4
 1497              	.LVL188:
 1498              	.LBE24:
 1499              		.loc 1 236 0 discriminator 1
 1500 0066 002B     		cmp	r3, #0
 1501 0068 E3D0     		beq	.L89
 1502              	.LBB25:
 1503              		.loc 1 237 0
 1504 006a 2023     		movs	r3, #32
 1505              	.LVL189:
 1506              	@ 237 "../../test/testbmk.c" 1
 1507 006c 83F31188 		msr     BASEPRI, r3
 1508              	@ 0 "" 2
 1509              	.LVL190:
 1510              		.thumb
 1511              	.LBE25:
 1512              		.loc 1 238 0
 1513 0070 4FF0FF31 		mov	r1, #-1
 1514 0074 2046     		mov	r0, r4
 1515 0076 FFF7FEFF 		bl	chSchWakeupS
 1516              	.LVL191:
 1517              	.LBB26:
 1518              		.loc 1 239 0
 1519 007a 0023     		movs	r3, #0
 1520              	.LVL192:
 1521              	@ 239 "../../test/testbmk.c" 1
 1522 007c 83F31188 		msr     BASEPRI, r3
 1523              	@ 0 "" 2
 1524              	.LVL193:
ARM GAS  /tmp/ccZTuUMW.s 			page 28


 1525              		.thumb
 1526              	.LBE26:
 1527              		.loc 1 241 0
 1528 0080 FFF7FEFF 		bl	test_wait_threads
 1529              	.LVL194:
 1530              		.loc 1 242 0
 1531 0084 0A48     		ldr	r0, .L94+20
 1532 0086 FFF7FEFF 		bl	test_print
 1533              	.LVL195:
 1534              		.loc 1 243 0
 1535 008a 6800     		lsls	r0, r5, #1
 1536 008c FFF7FEFF 		bl	test_printn
 1537              	.LVL196:
 1538              		.loc 1 244 0
 1539 0090 0848     		ldr	r0, .L94+24
 1540              		.loc 1 245 0
 1541 0092 02B0     		add	sp, sp, #8
 1542 0094 BDE87040 		pop	{r4, r5, r6, lr}
 1543              		.loc 1 244 0
 1544 0098 FFF7FEBF 		b	test_println
 1545              	.LVL197:
 1546              	.L95:
 1547              		.align	2
 1548              	.L94:
 1549 009c 00000000 		.word	rlist
 1550 00a0 00000000 		.word	wa
 1551 00a4 00000000 		.word	thread4
 1552 00a8 00000000 		.word	test_timer_done
 1553 00ac 00000000 		.word	threads
 1554 00b0 A8000000 		.word	.LC11
 1555 00b4 FC000000 		.word	.LC17
 1556              		.cfi_endproc
 1557              	.LFE14:
 1558              		.size	bmk4_execute, .-bmk4_execute
 1559 00b8 AFF30080 		.section	.text.msg_loop_test,"ax",%progbits
 1559      AFF30080 
 1560              		.align	2
 1561              		.p2align 4,,15
 1562              		.thumb
 1563              		.thumb_func
 1564              		.type	msg_loop_test, %function
 1565              	msg_loop_test:
 1566              	.LFB8:
 1567              		.loc 1 80 0
 1568              		.cfi_startproc
 1569              		@ args = 0, pretend = 0, frame = 0
 1570              		@ frame_needed = 0, uses_anonymous_args = 0
 1571              	.LVL198:
 1572 0000 70B5     		push	{r4, r5, r6, lr}
 1573              	.LCFI18:
 1574              		.cfi_def_cfa_offset 16
 1575              		.cfi_offset 4, -16
 1576              		.cfi_offset 5, -12
 1577              		.cfi_offset 6, -8
 1578              		.cfi_offset 14, -4
 1579              		.loc 1 80 0
 1580 0002 0546     		mov	r5, r0
ARM GAS  /tmp/ccZTuUMW.s 			page 29


 1581              		.loc 1 83 0
 1582 0004 FFF7FEFF 		bl	test_wait_tick
 1583              	.LVL199:
 1584              		.loc 1 84 0
 1585 0008 4FF47A70 		mov	r0, #1000
 1586 000c FFF7FEFF 		bl	test_start_timer
 1587              	.LVL200:
 1588 0010 084E     		ldr	r6, .L102
 1589              		.loc 1 82 0
 1590 0012 0024     		movs	r4, #0
 1591              	.LVL201:
 1592              	.L97:
 1593              	.LBB27:
 1594              		.loc 1 86 0 discriminator 1
 1595 0014 0121     		movs	r1, #1
 1596 0016 2846     		mov	r0, r5
 1597 0018 FFF7FEFF 		bl	chMsgSend
 1598              	.LVL202:
 1599              		.loc 1 89 0 discriminator 1
 1600 001c FFF7FEFF 		bl	ChkIntSources
 1601              	.LVL203:
 1602              	.LBE27:
 1603              		.loc 1 91 0 discriminator 1
 1604 0020 3378     		ldrb	r3, [r6, #0]	@ zero_extendqisi2
 1605              	.LBB28:
 1606              		.loc 1 87 0 discriminator 1
 1607 0022 0134     		adds	r4, r4, #1
 1608              	.LVL204:
 1609              	.LBE28:
 1610              		.loc 1 91 0 discriminator 1
 1611 0024 002B     		cmp	r3, #0
 1612 0026 F5D0     		beq	.L97
 1613              		.loc 1 92 0
 1614 0028 2846     		mov	r0, r5
 1615 002a 0021     		movs	r1, #0
 1616 002c FFF7FEFF 		bl	chMsgSend
 1617              	.LVL205:
 1618              		.loc 1 94 0
 1619 0030 2046     		mov	r0, r4
 1620 0032 70BD     		pop	{r4, r5, r6, pc}
 1621              	.L103:
 1622              		.align	2
 1623              	.L102:
 1624 0034 00000000 		.word	test_timer_done
 1625              		.cfi_endproc
 1626              	.LFE8:
 1627              		.size	msg_loop_test, .-msg_loop_test
 1628              		.section	.text.bmk3_execute,"ax",%progbits
 1629              		.align	2
 1630              		.p2align 4,,15
 1631              		.thumb
 1632              		.thumb_func
 1633              		.type	bmk3_execute, %function
 1634              	bmk3_execute:
 1635              	.LFB12:
 1636              		.loc 1 169 0
 1637              		.cfi_startproc
ARM GAS  /tmp/ccZTuUMW.s 			page 30


 1638              		@ args = 0, pretend = 0, frame = 0
 1639              		@ frame_needed = 0, uses_anonymous_args = 0
 1640 0000 2DE9F041 		push	{r4, r5, r6, r7, r8, lr}
 1641              	.LCFI19:
 1642              		.cfi_def_cfa_offset 24
 1643              		.cfi_offset 4, -24
 1644              		.cfi_offset 5, -20
 1645              		.cfi_offset 6, -16
 1646              		.cfi_offset 7, -12
 1647              		.cfi_offset 8, -8
 1648              		.cfi_offset 14, -4
 1649              		.loc 1 172 0
 1650 0004 40F20006 		movw	r6, #:lower16:rlist
 1651 0008 C0F20006 		movt	r6, #:upper16:rlist
 1652 000c 40F20005 		movw	r5, #:lower16:wa
 1653 0010 B369     		ldr	r3, [r6, #24]
 1654              		.loc 1 169 0
 1655 0012 82B0     		sub	sp, sp, #8
 1656              	.LCFI20:
 1657              		.cfi_def_cfa_offset 32
 1658              		.loc 1 172 0
 1659 0014 C0F20005 		movt	r5, #:upper16:wa
 1660 0018 9A68     		ldr	r2, [r3, #8]
 1661 001a 2868     		ldr	r0, [r5, #0]
 1662 001c 0027     		movs	r7, #0
 1663 001e 40F20003 		movw	r3, #:lower16:thread1
 1664 0022 0132     		adds	r2, r2, #1
 1665 0024 4FF4DC71 		mov	r1, #440
 1666 0028 C0F20003 		movt	r3, #:upper16:thread1
 1667 002c 0097     		str	r7, [sp, #0]
 1668 002e FFF7FEFF 		bl	chThdCreateStatic
 1669              	.LVL206:
 1670              		.loc 1 173 0
 1671 0032 B169     		ldr	r1, [r6, #24]
 1672              		.loc 1 172 0
 1673 0034 40F20004 		movw	r4, #:lower16:threads
 1674 0038 C0F20004 		movt	r4, #:upper16:threads
 1675              		.loc 1 173 0
 1676 003c 8B68     		ldr	r3, [r1, #8]
 1677 003e 0097     		str	r7, [sp, #0]
 1678 0040 40F20008 		movw	r8, #:lower16:thread2
 1679 0044 C0F20008 		movt	r8, #:upper16:thread2
 1680 0048 9A1E     		subs	r2, r3, #2
 1681              		.loc 1 172 0
 1682 004a 2060     		str	r0, [r4, #0]
 1683              		.loc 1 173 0
 1684 004c 4346     		mov	r3, r8
 1685 004e 4FF4DC71 		mov	r1, #440
 1686 0052 6868     		ldr	r0, [r5, #4]
 1687 0054 FFF7FEFF 		bl	chThdCreateStatic
 1688              	.LVL207:
 1689              		.loc 1 174 0
 1690 0058 B269     		ldr	r2, [r6, #24]
 1691 005a 9368     		ldr	r3, [r2, #8]
 1692              		.loc 1 173 0
 1693 005c 6060     		str	r0, [r4, #4]
 1694              		.loc 1 174 0
ARM GAS  /tmp/ccZTuUMW.s 			page 31


 1695 005e DA1E     		subs	r2, r3, #3
 1696 0060 4FF4DC71 		mov	r1, #440
 1697 0064 4346     		mov	r3, r8
 1698 0066 0097     		str	r7, [sp, #0]
 1699 0068 A868     		ldr	r0, [r5, #8]
 1700 006a FFF7FEFF 		bl	chThdCreateStatic
 1701              	.LVL208:
 1702              		.loc 1 175 0
 1703 006e B169     		ldr	r1, [r6, #24]
 1704 0070 8A68     		ldr	r2, [r1, #8]
 1705              		.loc 1 174 0
 1706 0072 A060     		str	r0, [r4, #8]
 1707              		.loc 1 175 0
 1708 0074 043A     		subs	r2, r2, #4
 1709 0076 4346     		mov	r3, r8
 1710 0078 4FF4DC71 		mov	r1, #440
 1711 007c 0097     		str	r7, [sp, #0]
 1712 007e E868     		ldr	r0, [r5, #12]
 1713 0080 FFF7FEFF 		bl	chThdCreateStatic
 1714              	.LVL209:
 1715              		.loc 1 176 0
 1716 0084 B369     		ldr	r3, [r6, #24]
 1717 0086 2D69     		ldr	r5, [r5, #16]
 1718 0088 9A68     		ldr	r2, [r3, #8]
 1719              		.loc 1 175 0
 1720 008a E060     		str	r0, [r4, #12]
 1721              		.loc 1 176 0
 1722 008c 4FF4DC71 		mov	r1, #440
 1723 0090 053A     		subs	r2, r2, #5
 1724 0092 4346     		mov	r3, r8
 1725 0094 0097     		str	r7, [sp, #0]
 1726 0096 2846     		mov	r0, r5
 1727 0098 FFF7FEFF 		bl	chThdCreateStatic
 1728              	.LVL210:
 1729 009c 2061     		str	r0, [r4, #16]
 1730              		.loc 1 177 0
 1731 009e 2068     		ldr	r0, [r4, #0]
 1732 00a0 FFF7FEFF 		bl	msg_loop_test
 1733              	.LVL211:
 1734 00a4 0446     		mov	r4, r0
 1735              	.LVL212:
 1736              		.loc 1 178 0
 1737 00a6 FFF7FEFF 		bl	test_wait_threads
 1738              	.LVL213:
 1739              		.loc 1 179 0
 1740 00aa 40F20000 		movw	r0, #:lower16:.LC11
 1741 00ae C0F20000 		movt	r0, #:upper16:.LC11
 1742 00b2 FFF7FEFF 		bl	test_print
 1743              	.LVL214:
 1744              		.loc 1 180 0
 1745 00b6 2046     		mov	r0, r4
 1746 00b8 FFF7FEFF 		bl	test_printn
 1747              	.LVL215:
 1748              		.loc 1 181 0
 1749 00bc 40F20000 		movw	r0, #:lower16:.LC19
 1750 00c0 C0F20000 		movt	r0, #:upper16:.LC19
 1751 00c4 FFF7FEFF 		bl	test_print
ARM GAS  /tmp/ccZTuUMW.s 			page 32


 1752              	.LVL216:
 1753              		.loc 1 182 0
 1754 00c8 6000     		lsls	r0, r4, #1
 1755 00ca FFF7FEFF 		bl	test_printn
 1756              	.LVL217:
 1757              		.loc 1 183 0
 1758 00ce 40F20000 		movw	r0, #:lower16:.LC17
 1759 00d2 C0F20000 		movt	r0, #:upper16:.LC17
 1760              		.loc 1 184 0
 1761 00d6 02B0     		add	sp, sp, #8
 1762 00d8 BDE8F041 		pop	{r4, r5, r6, r7, r8, lr}
 1763              		.loc 1 183 0
 1764 00dc FFF7FEBF 		b	test_println
 1765              	.LVL218:
 1766              		.cfi_endproc
 1767              	.LFE12:
 1768              		.size	bmk3_execute, .-bmk3_execute
 1769              		.section	.text.bmk2_execute,"ax",%progbits
 1770              		.align	2
 1771              		.p2align 4,,15
 1772              		.thumb
 1773              		.thumb_func
 1774              		.type	bmk2_execute, %function
 1775              	bmk2_execute:
 1776              	.LFB10:
 1777              		.loc 1 134 0
 1778              		.cfi_startproc
 1779              		@ args = 0, pretend = 0, frame = 0
 1780              		@ frame_needed = 0, uses_anonymous_args = 0
 1781              		.loc 1 137 0
 1782 0000 40F20002 		movw	r2, #:lower16:rlist
 1783              		.loc 1 134 0
 1784 0004 10B5     		push	{r4, lr}
 1785              	.LCFI21:
 1786              		.cfi_def_cfa_offset 8
 1787              		.cfi_offset 4, -8
 1788              		.cfi_offset 14, -4
 1789              		.loc 1 137 0
 1790 0006 C0F20002 		movt	r2, #:upper16:rlist
 1791 000a 40F20003 		movw	r3, #:lower16:wa
 1792 000e 9169     		ldr	r1, [r2, #24]
 1793 0010 C0F20003 		movt	r3, #:upper16:wa
 1794 0014 8C68     		ldr	r4, [r1, #8]
 1795 0016 1868     		ldr	r0, [r3, #0]
 1796              		.loc 1 134 0
 1797 0018 82B0     		sub	sp, sp, #8
 1798              	.LCFI22:
 1799              		.cfi_def_cfa_offset 16
 1800              		.loc 1 137 0
 1801 001a 621C     		adds	r2, r4, #1
 1802 001c 40F20003 		movw	r3, #:lower16:thread1
 1803 0020 0024     		movs	r4, #0
 1804 0022 4FF4DC71 		mov	r1, #440
 1805 0026 C0F20003 		movt	r3, #:upper16:thread1
 1806 002a 0094     		str	r4, [sp, #0]
 1807 002c FFF7FEFF 		bl	chThdCreateStatic
 1808              	.LVL219:
ARM GAS  /tmp/ccZTuUMW.s 			page 33


 1809 0030 40F20002 		movw	r2, #:lower16:threads
 1810 0034 C0F20002 		movt	r2, #:upper16:threads
 1811 0038 1060     		str	r0, [r2, #0]
 1812              		.loc 1 138 0
 1813 003a FFF7FEFF 		bl	msg_loop_test
 1814              	.LVL220:
 1815 003e 0446     		mov	r4, r0
 1816              	.LVL221:
 1817              		.loc 1 139 0
 1818 0040 FFF7FEFF 		bl	test_wait_threads
 1819              	.LVL222:
 1820              		.loc 1 140 0
 1821 0044 40F20000 		movw	r0, #:lower16:.LC11
 1822 0048 C0F20000 		movt	r0, #:upper16:.LC11
 1823 004c FFF7FEFF 		bl	test_print
 1824              	.LVL223:
 1825              		.loc 1 141 0
 1826 0050 2046     		mov	r0, r4
 1827 0052 FFF7FEFF 		bl	test_printn
 1828              	.LVL224:
 1829              		.loc 1 142 0
 1830 0056 40F20000 		movw	r0, #:lower16:.LC19
 1831 005a C0F20000 		movt	r0, #:upper16:.LC19
 1832 005e FFF7FEFF 		bl	test_print
 1833              	.LVL225:
 1834              		.loc 1 143 0
 1835 0062 6000     		lsls	r0, r4, #1
 1836 0064 FFF7FEFF 		bl	test_printn
 1837              	.LVL226:
 1838              		.loc 1 144 0
 1839 0068 40F20000 		movw	r0, #:lower16:.LC17
 1840 006c C0F20000 		movt	r0, #:upper16:.LC17
 1841              		.loc 1 145 0
 1842 0070 02B0     		add	sp, sp, #8
 1843 0072 BDE81040 		pop	{r4, lr}
 1844              		.loc 1 144 0
 1845 0076 FFF7FEBF 		b	test_println
 1846              	.LVL227:
 1847              		.cfi_endproc
 1848              	.LFE10:
 1849              		.size	bmk2_execute, .-bmk2_execute
 1850 007a 00BFAFF3 		.section	.text.bmk1_execute,"ax",%progbits
 1850      0080
 1851              		.align	2
 1852              		.p2align 4,,15
 1853              		.thumb
 1854              		.thumb_func
 1855              		.type	bmk1_execute, %function
 1856              	bmk1_execute:
 1857              	.LFB9:
 1858              		.loc 1 105 0
 1859              		.cfi_startproc
 1860              		@ args = 0, pretend = 0, frame = 0
 1861              		@ frame_needed = 0, uses_anonymous_args = 0
 1862              		.loc 1 108 0
 1863 0000 40F20002 		movw	r2, #:lower16:rlist
 1864              		.loc 1 105 0
ARM GAS  /tmp/ccZTuUMW.s 			page 34


 1865 0004 10B5     		push	{r4, lr}
 1866              	.LCFI23:
 1867              		.cfi_def_cfa_offset 8
 1868              		.cfi_offset 4, -8
 1869              		.cfi_offset 14, -4
 1870              		.loc 1 108 0
 1871 0006 C0F20002 		movt	r2, #:upper16:rlist
 1872 000a 40F20003 		movw	r3, #:lower16:wa
 1873 000e 9169     		ldr	r1, [r2, #24]
 1874 0010 C0F20003 		movt	r3, #:upper16:wa
 1875 0014 8C68     		ldr	r4, [r1, #8]
 1876 0016 1868     		ldr	r0, [r3, #0]
 1877              		.loc 1 105 0
 1878 0018 82B0     		sub	sp, sp, #8
 1879              	.LCFI24:
 1880              		.cfi_def_cfa_offset 16
 1881              		.loc 1 108 0
 1882 001a 621E     		subs	r2, r4, #1
 1883 001c 40F20003 		movw	r3, #:lower16:thread1
 1884 0020 0024     		movs	r4, #0
 1885 0022 4FF4DC71 		mov	r1, #440
 1886 0026 C0F20003 		movt	r3, #:upper16:thread1
 1887 002a 0094     		str	r4, [sp, #0]
 1888 002c FFF7FEFF 		bl	chThdCreateStatic
 1889              	.LVL228:
 1890 0030 40F20002 		movw	r2, #:lower16:threads
 1891 0034 C0F20002 		movt	r2, #:upper16:threads
 1892 0038 1060     		str	r0, [r2, #0]
 1893              		.loc 1 109 0
 1894 003a FFF7FEFF 		bl	msg_loop_test
 1895              	.LVL229:
 1896 003e 0446     		mov	r4, r0
 1897              	.LVL230:
 1898              		.loc 1 110 0
 1899 0040 FFF7FEFF 		bl	test_wait_threads
 1900              	.LVL231:
 1901              		.loc 1 111 0
 1902 0044 40F20000 		movw	r0, #:lower16:.LC11
 1903 0048 C0F20000 		movt	r0, #:upper16:.LC11
 1904 004c FFF7FEFF 		bl	test_print
 1905              	.LVL232:
 1906              		.loc 1 112 0
 1907 0050 2046     		mov	r0, r4
 1908 0052 FFF7FEFF 		bl	test_printn
 1909              	.LVL233:
 1910              		.loc 1 113 0
 1911 0056 40F20000 		movw	r0, #:lower16:.LC19
 1912 005a C0F20000 		movt	r0, #:upper16:.LC19
 1913 005e FFF7FEFF 		bl	test_print
 1914              	.LVL234:
 1915              		.loc 1 114 0
 1916 0062 6000     		lsls	r0, r4, #1
 1917 0064 FFF7FEFF 		bl	test_printn
 1918              	.LVL235:
 1919              		.loc 1 115 0
 1920 0068 40F20000 		movw	r0, #:lower16:.LC17
 1921 006c C0F20000 		movt	r0, #:upper16:.LC17
ARM GAS  /tmp/ccZTuUMW.s 			page 35


 1922              		.loc 1 116 0
 1923 0070 02B0     		add	sp, sp, #8
 1924 0072 BDE81040 		pop	{r4, lr}
 1925              		.loc 1 115 0
 1926 0076 FFF7FEBF 		b	test_println
 1927              	.LVL236:
 1928              		.cfi_endproc
 1929              	.LFE9:
 1930              		.size	bmk1_execute, .-bmk1_execute
 1931 007a 00BFAFF3 		.section	.text.thread1,"ax",%progbits
 1931      0080
 1932              		.align	2
 1933              		.p2align 4,,15
 1934              		.thumb
 1935              		.thumb_func
 1936              		.type	thread1, %function
 1937              	thread1:
 1938              	.LFB7:
 1939              		.loc 1 64 0
 1940              		.cfi_startproc
 1941              		@ args = 0, pretend = 0, frame = 0
 1942              		@ frame_needed = 0, uses_anonymous_args = 0
 1943              	.LVL237:
 1944 0000 10B5     		push	{r4, lr}
 1945              	.LCFI25:
 1946              		.cfi_def_cfa_offset 8
 1947              		.cfi_offset 4, -8
 1948              		.cfi_offset 14, -4
 1949              	.LVL238:
 1950              	.L108:
 1951              		.loc 1 70 0 discriminator 1
 1952 0002 FFF7FEFF 		bl	chMsgWait
 1953              	.LVL239:
 1954              		.loc 1 71 0 discriminator 1
 1955 0006 446B     		ldr	r4, [r0, #52]
 1956              	.LVL240:
 1957              		.loc 1 72 0 discriminator 1
 1958 0008 2146     		mov	r1, r4
 1959 000a FFF7FEFF 		bl	chMsgRelease
 1960              	.LVL241:
 1961              		.loc 1 73 0 discriminator 1
 1962 000e 002C     		cmp	r4, #0
 1963 0010 F7D1     		bne	.L108
 1964              		.loc 1 75 0
 1965 0012 2046     		mov	r0, r4
 1966 0014 10BD     		pop	{r4, pc}
 1967              		.cfi_endproc
 1968              	.LFE7:
 1969              		.size	thread1, .-thread1
 1970 0016 00BFAFF3 		.section	.text.thread4,"ax",%progbits
 1970      0080AFF3 
 1970      0080
 1971              		.align	2
 1972              		.p2align 4,,15
 1973              		.global	thread4
 1974              		.thumb
 1975              		.thumb_func
ARM GAS  /tmp/ccZTuUMW.s 			page 36


 1976              		.type	thread4, %function
 1977              	thread4:
 1978              	.LFB13:
 1979              		.loc 1 203 0
 1980              		.cfi_startproc
 1981              		@ args = 0, pretend = 0, frame = 0
 1982              		@ frame_needed = 0, uses_anonymous_args = 0
 1983              	.LVL242:
 1984              		.loc 1 205 0
 1985 0000 084A     		ldr	r2, .L116
 1986              		.loc 1 203 0
 1987 0002 10B5     		push	{r4, lr}
 1988              	.LCFI26:
 1989              		.cfi_def_cfa_offset 8
 1990              		.cfi_offset 4, -8
 1991              		.cfi_offset 14, -4
 1992              	.LBB29:
 1993              		.loc 1 208 0
 1994 0004 2023     		movs	r3, #32
 1995              	.LVL243:
 1996              	.LBE29:
 1997              		.loc 1 205 0
 1998 0006 9469     		ldr	r4, [r2, #24]
 1999              	.LVL244:
 2000              	.LBB30:
 2001              		.loc 1 208 0
 2002              	@ 208 "../../test/testbmk.c" 1
 2003 0008 83F31188 		msr     BASEPRI, r3
 2004              	@ 0 "" 2
 2005              	.LVL245:
 2006              		.thumb
 2007              	.L111:
 2008              	.LBE30:
 2009              		.loc 1 210 0 discriminator 1
 2010 000c 0220     		movs	r0, #2
 2011 000e FFF7FEFF 		bl	chSchGoSleepS
 2012              	.LVL246:
 2013              		.loc 1 212 0 discriminator 1
 2014 0012 636A     		ldr	r3, [r4, #36]
 2015 0014 002B     		cmp	r3, #0
 2016 0016 F9D0     		beq	.L111
 2017              	.LBB31:
 2018              		.loc 1 213 0
 2019 0018 0023     		movs	r3, #0
 2020              	.LVL247:
 2021              	@ 213 "../../test/testbmk.c" 1
 2022 001a 83F31188 		msr     BASEPRI, r3
 2023              	@ 0 "" 2
 2024              	.LVL248:
 2025              		.thumb
 2026              	.LBE31:
 2027              		.loc 1 215 0
 2028 001e 1846     		mov	r0, r3
 2029 0020 10BD     		pop	{r4, pc}
 2030              	.L117:
 2031 0022 00BF     		.align	2
 2032              	.L116:
ARM GAS  /tmp/ccZTuUMW.s 			page 37


 2033 0024 00000000 		.word	rlist
 2034              		.cfi_endproc
 2035              	.LFE13:
 2036              		.size	thread4, .-thread4
 2037              		.global	patternbmk
 2038              		.global	testbmk13
 2039              		.global	testbmk12
 2040              		.global	testbmk11
 2041              		.global	testbmk10
 2042              		.global	testbmk9
 2043              		.global	testbmk8
 2044              		.global	testbmk7
 2045              		.global	testbmk6
 2046              		.global	testbmk5
 2047              		.global	testbmk4
 2048              		.global	testbmk3
 2049              		.global	testbmk2
 2050              		.global	testbmk1
 2051 0028 AFF30080 		.section	.rodata.testbmk8,"a",%progbits
 2051      AFF30080 
 2052              		.align	2
 2053              		.type	testbmk8, %object
 2054              		.size	testbmk8, 16
 2055              	testbmk8:
 2056 0000 D0010000 		.word	.LC25
 2057 0004 00000000 		.word	0
 2058 0008 00000000 		.word	0
 2059 000c 00000000 		.word	bmk8_execute
 2060              		.section	.rodata.patternbmk,"a",%progbits
 2061              		.align	2
 2062              		.type	patternbmk, %object
 2063              		.size	patternbmk, 56
 2064              	patternbmk:
 2065 0000 00000000 		.word	testbmk1
 2066 0004 00000000 		.word	testbmk2
 2067 0008 00000000 		.word	testbmk3
 2068 000c 00000000 		.word	testbmk4
 2069 0010 00000000 		.word	testbmk5
 2070 0014 00000000 		.word	testbmk6
 2071 0018 00000000 		.word	testbmk7
 2072 001c 00000000 		.word	testbmk8
 2073 0020 00000000 		.word	testbmk9
 2074 0024 00000000 		.word	testbmk10
 2075 0028 00000000 		.word	testbmk11
 2076 002c 00000000 		.word	testbmk12
 2077 0030 00000000 		.word	testbmk13
 2078 0034 00000000 		.word	0
 2079              		.section	.bss.vt2.4979,"aw",%nobits
 2080              		.align	2
 2081              		.set	.LANCHOR3,. + 0
 2082              		.type	vt2.4979, %object
 2083              		.size	vt2.4979, 20
 2084              	vt2.4979:
 2085 0000 00000000 		.space	20
 2085      00000000 
 2085      00000000 
 2085      00000000 
ARM GAS  /tmp/ccZTuUMW.s 			page 38


 2085      00000000 
 2086              		.section	.rodata.testbmk2,"a",%progbits
 2087              		.align	2
 2088              		.type	testbmk2, %object
 2089              		.size	testbmk2, 16
 2090              	testbmk2:
 2091 0000 98020000 		.word	.LC31
 2092 0004 00000000 		.word	0
 2093 0008 00000000 		.word	0
 2094 000c 00000000 		.word	bmk2_execute
 2095              		.section	.rodata.testbmk10,"a",%progbits
 2096              		.align	2
 2097              		.type	testbmk10, %object
 2098              		.size	testbmk10, 16
 2099              	testbmk10:
 2100 0000 88010000 		.word	.LC23
 2101 0004 00000000 		.word	0
 2102 0008 00000000 		.word	0
 2103 000c 00000000 		.word	bmk10_execute
 2104              		.section	.rodata.testbmk4,"a",%progbits
 2105              		.align	2
 2106              		.type	testbmk4, %object
 2107              		.size	testbmk4, 16
 2108              	testbmk4:
 2109 0000 64020000 		.word	.LC29
 2110 0004 00000000 		.word	0
 2111 0008 00000000 		.word	0
 2112 000c 00000000 		.word	bmk4_execute
 2113              		.section	.bss.mtx1,"aw",%nobits
 2114              		.align	2
 2115              		.set	.LANCHOR0,. + 0
 2116              		.type	mtx1, %object
 2117              		.size	mtx1, 16
 2118              	mtx1:
 2119 0000 00000000 		.space	16
 2119      00000000 
 2119      00000000 
 2119      00000000 
 2120              		.section	.rodata.testbmk3,"a",%progbits
 2121              		.align	2
 2122              		.type	testbmk3, %object
 2123              		.size	testbmk3, 16
 2124              	testbmk3:
 2125 0000 80020000 		.word	.LC30
 2126 0004 00000000 		.word	0
 2127 0008 00000000 		.word	0
 2128 000c 00000000 		.word	bmk3_execute
 2129              		.section	.rodata.testbmk6,"a",%progbits
 2130              		.align	2
 2131              		.type	testbmk6, %object
 2132              		.size	testbmk6, 16
 2133              	testbmk6:
 2134 0000 24020000 		.word	.LC27
 2135 0004 00000000 		.word	0
 2136 0008 00000000 		.word	0
 2137 000c 00000000 		.word	bmk6_execute
 2138              		.section	.bss.ib.4964,"aw",%nobits
ARM GAS  /tmp/ccZTuUMW.s 			page 39


 2139              		.align	2
 2140              		.set	.LANCHOR5,. + 0
 2141              		.type	ib.4964, %object
 2142              		.size	ib.4964, 16
 2143              	ib.4964:
 2144 0000 00000000 		.space	16
 2144      00000000 
 2144      00000000 
 2144      00000000 
 2145              		.section	.rodata.str1.4,"aMS",%progbits,1
 2146              		.align	2
 2147              	.LC0:
 2148 0000 2D2D2D20 		.ascii	"--- System: \000"
 2148      53797374 
 2148      656D3A20 
 2148      00
 2149 000d 000000   		.space	3
 2150              	.LC1:
 2151 0010 20627974 		.ascii	" bytes\000"
 2151      657300
 2152 0017 00       		.space	1
 2153              	.LC2:
 2154 0018 2D2D2D20 		.ascii	"--- Thread: \000"
 2154      54687265 
 2154      61643A20 
 2154      00
 2155 0025 000000   		.space	3
 2156              	.LC3:
 2157 0028 2D2D2D20 		.ascii	"--- Timer : \000"
 2157      54696D65 
 2157      72203A20 
 2157      00
 2158 0035 000000   		.space	3
 2159              	.LC4:
 2160 0038 2D2D2D20 		.ascii	"--- Semaph: \000"
 2160      53656D61 
 2160      70683A20 
 2160      00
 2161 0045 000000   		.space	3
 2162              	.LC5:
 2163 0048 2D2D2D20 		.ascii	"--- EventS: \000"
 2163      4576656E 
 2163      74533A20 
 2163      00
 2164 0055 000000   		.space	3
 2165              	.LC6:
 2166 0058 2D2D2D20 		.ascii	"--- EventL: \000"
 2166      4576656E 
 2166      744C3A20 
 2166      00
 2167 0065 000000   		.space	3
 2168              	.LC7:
 2169 0068 2D2D2D20 		.ascii	"--- Mutex : \000"
 2169      4D757465 
 2169      78203A20 
 2169      00
 2170 0075 000000   		.space	3
ARM GAS  /tmp/ccZTuUMW.s 			page 40


 2171              	.LC8:
 2172 0078 2D2D2D20 		.ascii	"--- CondV.: \000"
 2172      436F6E64 
 2172      562E3A20 
 2172      00
 2173 0085 000000   		.space	3
 2174              	.LC9:
 2175 0088 2D2D2D20 		.ascii	"--- Queue : \000"
 2175      51756575 
 2175      65203A20 
 2175      00
 2176 0095 000000   		.space	3
 2177              	.LC10:
 2178 0098 2D2D2D20 		.ascii	"--- MailB.: \000"
 2178      4D61696C 
 2178      422E3A20 
 2178      00
 2179 00a5 000000   		.space	3
 2180              	.LC11:
 2181 00a8 2D2D2D20 		.ascii	"--- Score : \000"
 2181      53636F72 
 2181      65203A20 
 2181      00
 2182 00b5 000000   		.space	3
 2183              	.LC12:
 2184 00b8 206C6F63 		.ascii	" lock+unlock/S\000"
 2184      6B2B756E 
 2184      6C6F636B 
 2184      2F5300
 2185 00c7 00       		.space	1
 2186              	.LC13:
 2187 00c8 20776169 		.ascii	" wait+signal/S\000"
 2187      742B7369 
 2187      676E616C 
 2187      2F5300
 2188 00d7 00       		.space	1
 2189              	.LC14:
 2190 00d8 2074696D 		.ascii	" timers/S\000"
 2190      6572732F 
 2190      5300
 2191 00e2 0000     		.space	2
 2192              	.LC15:
 2193 00e4 20627974 		.ascii	" bytes/S\000"
 2193      65732F53 
 2193      00
 2194 00ed 000000   		.space	3
 2195              	.LC16:
 2196 00f0 20746872 		.ascii	" threads/S\000"
 2196      65616473 
 2196      2F5300
 2197 00fb 00       		.space	1
 2198              	.LC17:
 2199 00fc 20637478 		.ascii	" ctxswc/S\000"
 2199      7377632F 
 2199      5300
 2200 0106 0000     		.space	2
 2201              	.LC18:
ARM GAS  /tmp/ccZTuUMW.s 			page 41


 2202 0108 20726573 		.ascii	" reschedules/S, \000"
 2202      63686564 
 2202      756C6573 
 2202      2F532C20 
 2202      00
 2203 0119 000000   		.space	3
 2204              	.LC19:
 2205 011c 206D7367 		.ascii	" msgs/S, \000"
 2205      732F532C 
 2205      2000
 2206 0126 0000     		.space	2
 2207              	.LC20:
 2208 0128 42656E63 		.ascii	"Benchmark, RAM footprint\000"
 2208      686D6172 
 2208      6B2C2052 
 2208      414D2066 
 2208      6F6F7470 
 2209 0141 000000   		.space	3
 2210              	.LC21:
 2211 0144 42656E63 		.ascii	"Benchmark, mutexes lock/unlock\000"
 2211      686D6172 
 2211      6B2C206D 
 2211      75746578 
 2211      6573206C 
 2212 0163 00       		.space	1
 2213              	.LC22:
 2214 0164 42656E63 		.ascii	"Benchmark, semaphores wait/signal\000"
 2214      686D6172 
 2214      6B2C2073 
 2214      656D6170 
 2214      686F7265 
 2215 0186 0000     		.space	2
 2216              	.LC23:
 2217 0188 42656E63 		.ascii	"Benchmark, virtual timers set/reset\000"
 2217      686D6172 
 2217      6B2C2076 
 2217      69727475 
 2217      616C2074 
 2218              	.LC24:
 2219 01ac 42656E63 		.ascii	"Benchmark, I/O Queues throughput\000"
 2219      686D6172 
 2219      6B2C2049 
 2219      2F4F2051 
 2219      75657565 
 2220 01cd 000000   		.space	3
 2221              	.LC25:
 2222 01d0 42656E63 		.ascii	"Benchmark, round robin context switching\000"
 2222      686D6172 
 2222      6B2C2072 
 2222      6F756E64 
 2222      20726F62 
 2223 01f9 000000   		.space	3
 2224              	.LC26:
 2225 01fc 42656E63 		.ascii	"Benchmark, mass reschedule, 5 threads\000"
 2225      686D6172 
 2225      6B2C206D 
 2225      61737320 
ARM GAS  /tmp/ccZTuUMW.s 			page 42


 2225      72657363 
 2226 0222 0000     		.space	2
 2227              	.LC27:
 2228 0224 42656E63 		.ascii	"Benchmark, threads, create only\000"
 2228      686D6172 
 2228      6B2C2074 
 2228      68726561 
 2228      64732C20 
 2229              	.LC28:
 2230 0244 42656E63 		.ascii	"Benchmark, threads, full cycle\000"
 2230      686D6172 
 2230      6B2C2074 
 2230      68726561 
 2230      64732C20 
 2231 0263 00       		.space	1
 2232              	.LC29:
 2233 0264 42656E63 		.ascii	"Benchmark, context switch\000"
 2233      686D6172 
 2233      6B2C2063 
 2233      6F6E7465 
 2233      78742073 
 2234 027e 0000     		.space	2
 2235              	.LC30:
 2236 0280 42656E63 		.ascii	"Benchmark, messages #3\000"
 2236      686D6172 
 2236      6B2C206D 
 2236      65737361 
 2236      67657320 
 2237 0297 00       		.space	1
 2238              	.LC31:
 2239 0298 42656E63 		.ascii	"Benchmark, messages #2\000"
 2239      686D6172 
 2239      6B2C206D 
 2239      65737361 
 2239      67657320 
 2240 02af 00       		.space	1
 2241              	.LC32:
 2242 02b0 42656E63 		.ascii	"Benchmark, messages #1\000"
 2242      686D6172 
 2242      6B2C206D 
 2242      65737361 
 2242      67657320 
 2243 02c7 00       		.section	.rodata.testbmk9,"a",%progbits
 2244              		.align	2
 2245              		.type	testbmk9, %object
 2246              		.size	testbmk9, 16
 2247              	testbmk9:
 2248 0000 AC010000 		.word	.LC24
 2249 0004 00000000 		.word	0
 2250 0008 00000000 		.word	0
 2251 000c 00000000 		.word	bmk9_execute
 2252              		.section	.bss.sem1,"aw",%nobits
 2253              		.align	2
 2254              		.set	.LANCHOR1,. + 0
 2255              		.type	sem1, %object
 2256              		.size	sem1, 12
 2257              	sem1:
ARM GAS  /tmp/ccZTuUMW.s 			page 43


 2258 0000 00000000 		.space	12
 2258      00000000 
 2258      00000000 
 2259              		.section	.bss.vt1.4978,"aw",%nobits
 2260              		.align	2
 2261              		.set	.LANCHOR2,. + 0
 2262              		.type	vt1.4978, %object
 2263              		.size	vt1.4978, 20
 2264              	vt1.4978:
 2265 0000 00000000 		.space	20
 2265      00000000 
 2265      00000000 
 2265      00000000 
 2265      00000000 
 2266              		.section	.rodata.testbmk1,"a",%progbits
 2267              		.align	2
 2268              		.type	testbmk1, %object
 2269              		.size	testbmk1, 16
 2270              	testbmk1:
 2271 0000 B0020000 		.word	.LC32
 2272 0004 00000000 		.word	0
 2273 0008 00000000 		.word	0
 2274 000c 00000000 		.word	bmk1_execute
 2275              		.section	.rodata.testbmk11,"a",%progbits
 2276              		.align	2
 2277              		.type	testbmk11, %object
 2278              		.size	testbmk11, 16
 2279              	testbmk11:
 2280 0000 64010000 		.word	.LC22
 2281 0004 00000000 		.word	bmk11_setup
 2282 0008 00000000 		.word	0
 2283 000c 00000000 		.word	bmk11_execute
 2284              		.section	.rodata.testbmk12,"a",%progbits
 2285              		.align	2
 2286              		.type	testbmk12, %object
 2287              		.size	testbmk12, 16
 2288              	testbmk12:
 2289 0000 44010000 		.word	.LC21
 2290 0004 00000000 		.word	bmk12_setup
 2291 0008 00000000 		.word	0
 2292 000c 00000000 		.word	bmk12_execute
 2293              		.section	.rodata.testbmk13,"a",%progbits
 2294              		.align	2
 2295              		.type	testbmk13, %object
 2296              		.size	testbmk13, 16
 2297              	testbmk13:
 2298 0000 28010000 		.word	.LC20
 2299 0004 00000000 		.word	0
 2300 0008 00000000 		.word	0
 2301 000c 00000000 		.word	bmk13_execute
 2302              		.section	.rodata.testbmk5,"a",%progbits
 2303              		.align	2
 2304              		.type	testbmk5, %object
 2305              		.size	testbmk5, 16
 2306              	testbmk5:
 2307 0000 44020000 		.word	.LC28
 2308 0004 00000000 		.word	0
ARM GAS  /tmp/ccZTuUMW.s 			page 44


 2309 0008 00000000 		.word	0
 2310 000c 00000000 		.word	bmk5_execute
 2311              		.section	.bss.iq.4965,"aw",%nobits
 2312              		.align	2
 2313              		.set	.LANCHOR4,. + 0
 2314              		.type	iq.4965, %object
 2315              		.size	iq.4965, 36
 2316              	iq.4965:
 2317 0000 00000000 		.space	36
 2317      00000000 
 2317      00000000 
 2317      00000000 
 2317      00000000 
 2318              		.section	.rodata.testbmk7,"a",%progbits
 2319              		.align	2
 2320              		.type	testbmk7, %object
 2321              		.size	testbmk7, 16
 2322              	testbmk7:
 2323 0000 FC010000 		.word	.LC26
 2324 0004 00000000 		.word	bmk7_setup
 2325 0008 00000000 		.word	0
 2326 000c 00000000 		.word	bmk7_execute
 2327              		.text
 2328              	.Letext0:
 2329              		.file 2 "/usr/bin/../lib/gcc/arm-none-eabi/4.7.4/include/stddef.h"
 2330              		.file 3 "/usr/bin/../lib/gcc/arm-none-eabi/4.7.4/../../../../arm-none-eabi/include/stdint.h"
 2331              		.file 4 "../../os/ports/GCC/ARMCMx/chtypes.h"
 2332              		.file 5 "../../os/kernel/include/chlists.h"
 2333              		.file 6 "../../os/kernel/include/chthreads.h"
 2334              		.file 7 "../../os/ports/GCC/ARMCMx/chcore_v7m.h"
 2335              		.file 8 "../../os/kernel/include/chvt.h"
 2336              		.file 9 "../../os/kernel/include/chschd.h"
 2337              		.file 10 "../../os/kernel/include/chsem.h"
 2338              		.file 11 "../../os/kernel/include/chmtx.h"
 2339              		.file 12 "../../os/kernel/include/chqueues.h"
 2340              		.file 13 "../../test/test.h"
 2341              		.file 14 "../../os/kernel/include/chmsg.h"