ARM GAS  /tmp/ccIq0oiT.s 			page 1


   1              		.syntax unified
   2              		.cpu cortex-m4
   3              		.fpu softvfp
   4              		.eabi_attribute 20, 1
   5              		.eabi_attribute 21, 1
   6              		.eabi_attribute 23, 3
   7              		.eabi_attribute 24, 1
   8              		.eabi_attribute 25, 1
   9              		.eabi_attribute 26, 1
  10              		.eabi_attribute 30, 2
  11              		.eabi_attribute 34, 1
  12              		.eabi_attribute 18, 4
  13              		.thumb
  14              		.file	"ch.cpp"
  15              		.text
  16              	.Ltext0:
  17              		.cfi_sections	.debug_frame
  18              		.section	.text._ZN10chibios_rt15ThreadReference4stopEv,"ax",%progbits
  19              		.align	2
  20              		.p2align 4,,15
  21              		.global	_ZN10chibios_rt15ThreadReference4stopEv
  22              		.thumb
  23              		.thumb_func
  24              		.type	_ZN10chibios_rt15ThreadReference4stopEv, %function
  25              	_ZN10chibios_rt15ThreadReference4stopEv:
  26              	.LFB29:
  27              		.file 1 "../../os/various/cpp_wrappers/ch.cpp"
  28              		.loc 1 107 0
  29              		.cfi_startproc
  30              		@ args = 0, pretend = 0, frame = 0
  31              		@ frame_needed = 0, uses_anonymous_args = 0
  32              		@ link register save eliminated.
  33              	.LVL0:
  34 0000 7047     		bx	lr
  35              		.cfi_endproc
  36              	.LFE29:
  37              		.size	_ZN10chibios_rt15ThreadReference4stopEv, .-_ZN10chibios_rt15ThreadReference4stopEv
  38 0002 00BFAFF3 		.section	.text.startup._ZN10chibios_rt10BaseThread4mainEv,"ax",%progbits
  38      0080AFF3 
  38      0080AFF3 
  38      0080
  39              		.align	2
  40              		.p2align 4,,15
  41              		.global	_ZN10chibios_rt10BaseThread4mainEv
  42              		.thumb
  43              		.thumb_func
  44              		.type	_ZN10chibios_rt10BaseThread4mainEv, %function
  45              	_ZN10chibios_rt10BaseThread4mainEv:
  46              	.LFB45:
  47              		.loc 1 261 0
  48              		.cfi_startproc
  49              		@ args = 0, pretend = 0, frame = 0
  50              		@ frame_needed = 0, uses_anonymous_args = 0
  51              		@ link register save eliminated.
  52              	.LVL1:
  53              		.loc 1 264 0
  54 0000 0020     		movs	r0, #0
ARM GAS  /tmp/ccIq0oiT.s 			page 2


  55              	.LVL2:
  56 0002 7047     		bx	lr
  57              		.cfi_endproc
  58              	.LFE45:
  59              		.size	_ZN10chibios_rt10BaseThread4mainEv, .-_ZN10chibios_rt10BaseThread4mainEv
  60 0004 AFF30080 		.section	.text._ZN10chibios_rt10BaseThread5startEm,"ax",%progbits
  60      AFF30080 
  60      AFF30080 
  61              		.align	2
  62              		.p2align 4,,15
  63              		.global	_ZN10chibios_rt10BaseThread5startEm
  64              		.thumb
  65              		.thumb_func
  66              		.type	_ZN10chibios_rt10BaseThread5startEm, %function
  67              	_ZN10chibios_rt10BaseThread5startEm:
  68              	.LFB46:
  69              		.loc 1 266 0
  70              		.cfi_startproc
  71              		@ args = 0, pretend = 0, frame = 0
  72              		@ frame_needed = 0, uses_anonymous_args = 0
  73              		@ link register save eliminated.
  74              	.LVL3:
  75              	.LBB13:
  76              	.LBB14:
  77              		.file 2 "../../os/various/cpp_wrappers/ch.hpp"
  78              		.loc 2 234 0
  79 0000 4A68     		ldr	r2, [r1, #4]
  80              	.LVL4:
  81 0002 0249     		ldr	r1, .L4
  82              	.LVL5:
  83 0004 80E80600 		stmia	r0, {r1, r2}
  84              	.LBE14:
  85              	.LBE13:
  86              		.loc 1 271 0
  87 0008 7047     		bx	lr
  88              	.L5:
  89 000a 00BF     		.align	2
  90              	.L4:
  91 000c 08000000 		.word	.LANCHOR0+8
  92              		.cfi_endproc
  93              	.LFE46:
  94              		.size	_ZN10chibios_rt10BaseThread5startEm, .-_ZN10chibios_rt10BaseThread5startEm
  95              		.section	.text._ZN10chibios_rt6System4initEv,"ax",%progbits
  96              		.align	2
  97              		.p2align 4,,15
  98              		.global	_ZN10chibios_rt6System4initEv
  99              		.thumb
 100              		.thumb_func
 101              		.type	_ZN10chibios_rt6System4initEv, %function
 102              	_ZN10chibios_rt6System4initEv:
 103              	.LFB16:
 104              		.loc 1 31 0
 105              		.cfi_startproc
 106              		@ args = 0, pretend = 0, frame = 0
 107              		@ frame_needed = 0, uses_anonymous_args = 0
 108              		@ link register save eliminated.
 109              		.loc 1 34 0
ARM GAS  /tmp/ccIq0oiT.s 			page 3


 110              		.loc 1 33 0
 111 0000 FFF7FEBF 		b	chSysInit
 112              	.LVL6:
 113              		.cfi_endproc
 114              	.LFE16:
 115              		.size	_ZN10chibios_rt6System4initEv, .-_ZN10chibios_rt6System4initEv
 116 0004 AFF30080 		.section	.text._ZN10chibios_rt6System4lockEv,"ax",%progbits
 116      AFF30080 
 116      AFF30080 
 117              		.align	2
 118              		.p2align 4,,15
 119              		.global	_ZN10chibios_rt6System4lockEv
 120              		.thumb
 121              		.thumb_func
 122              		.type	_ZN10chibios_rt6System4lockEv, %function
 123              	_ZN10chibios_rt6System4lockEv:
 124              	.LFB17:
 125              		.loc 1 36 0
 126              		.cfi_startproc
 127              		@ args = 0, pretend = 0, frame = 0
 128              		@ frame_needed = 0, uses_anonymous_args = 0
 129              		@ link register save eliminated.
 130              	.LBB15:
 131              		.loc 1 38 0
 132 0000 2023     		movs	r3, #32
 133              	.LVL7:
 134              	@ 38 "../../os/various/cpp_wrappers/ch.cpp" 1
 135 0002 83F31188 		msr     BASEPRI, r3
 136              	@ 0 "" 2
 137              	.LVL8:
 138              		.thumb
 139 0006 7047     		bx	lr
 140              	.LBE15:
 141              		.cfi_endproc
 142              	.LFE17:
 143              		.size	_ZN10chibios_rt6System4lockEv, .-_ZN10chibios_rt6System4lockEv
 144 0008 AFF30080 		.section	.text._ZN10chibios_rt6System6unlockEv,"ax",%progbits
 144      AFF30080 
 145              		.align	2
 146              		.p2align 4,,15
 147              		.global	_ZN10chibios_rt6System6unlockEv
 148              		.thumb
 149              		.thumb_func
 150              		.type	_ZN10chibios_rt6System6unlockEv, %function
 151              	_ZN10chibios_rt6System6unlockEv:
 152              	.LFB18:
 153              		.loc 1 41 0
 154              		.cfi_startproc
 155              		@ args = 0, pretend = 0, frame = 0
 156              		@ frame_needed = 0, uses_anonymous_args = 0
 157              		@ link register save eliminated.
 158              	.LBB16:
 159              		.loc 1 43 0
 160 0000 0023     		movs	r3, #0
 161              	.LVL9:
 162              	@ 43 "../../os/various/cpp_wrappers/ch.cpp" 1
 163 0002 83F31188 		msr     BASEPRI, r3
ARM GAS  /tmp/ccIq0oiT.s 			page 4


 164              	@ 0 "" 2
 165              	.LVL10:
 166              		.thumb
 167 0006 7047     		bx	lr
 168              	.LBE16:
 169              		.cfi_endproc
 170              	.LFE18:
 171              		.size	_ZN10chibios_rt6System6unlockEv, .-_ZN10chibios_rt6System6unlockEv
 172 0008 AFF30080 		.section	.text._ZN10chibios_rt6System11lockFromIsrEv,"ax",%progbits
 172      AFF30080 
 173              		.align	2
 174              		.p2align 4,,15
 175              		.global	_ZN10chibios_rt6System11lockFromIsrEv
 176              		.thumb
 177              		.thumb_func
 178              		.type	_ZN10chibios_rt6System11lockFromIsrEv, %function
 179              	_ZN10chibios_rt6System11lockFromIsrEv:
 180              	.LFB19:
 181              		.loc 1 46 0
 182              		.cfi_startproc
 183              		@ args = 0, pretend = 0, frame = 0
 184              		@ frame_needed = 0, uses_anonymous_args = 0
 185              		@ link register save eliminated.
 186              	.LBB17:
 187              		.loc 1 48 0
 188 0000 2023     		movs	r3, #32
 189              	.LVL11:
 190              	@ 48 "../../os/various/cpp_wrappers/ch.cpp" 1
 191 0002 83F31188 		msr     BASEPRI, r3
 192              	@ 0 "" 2
 193              	.LVL12:
 194              		.thumb
 195 0006 7047     		bx	lr
 196              	.LBE17:
 197              		.cfi_endproc
 198              	.LFE19:
 199              		.size	_ZN10chibios_rt6System11lockFromIsrEv, .-_ZN10chibios_rt6System11lockFromIsrEv
 200 0008 AFF30080 		.section	.text._ZN10chibios_rt6System13unlockFromIsrEv,"ax",%progbits
 200      AFF30080 
 201              		.align	2
 202              		.p2align 4,,15
 203              		.global	_ZN10chibios_rt6System13unlockFromIsrEv
 204              		.thumb
 205              		.thumb_func
 206              		.type	_ZN10chibios_rt6System13unlockFromIsrEv, %function
 207              	_ZN10chibios_rt6System13unlockFromIsrEv:
 208              	.LFB20:
 209              		.loc 1 51 0
 210              		.cfi_startproc
 211              		@ args = 0, pretend = 0, frame = 0
 212              		@ frame_needed = 0, uses_anonymous_args = 0
 213              		@ link register save eliminated.
 214              	.LBB18:
 215              		.loc 1 53 0
 216 0000 0023     		movs	r3, #0
 217              	.LVL13:
 218              	@ 53 "../../os/various/cpp_wrappers/ch.cpp" 1
ARM GAS  /tmp/ccIq0oiT.s 			page 5


 219 0002 83F31188 		msr     BASEPRI, r3
 220              	@ 0 "" 2
 221              	.LVL14:
 222              		.thumb
 223 0006 7047     		bx	lr
 224              	.LBE18:
 225              		.cfi_endproc
 226              	.LFE20:
 227              		.size	_ZN10chibios_rt6System13unlockFromIsrEv, .-_ZN10chibios_rt6System13unlockFromIsrEv
 228 0008 AFF30080 		.section	.text._ZN10chibios_rt6System7getTimeEv,"ax",%progbits
 228      AFF30080 
 229              		.align	2
 230              		.p2align 4,,15
 231              		.global	_ZN10chibios_rt6System7getTimeEv
 232              		.thumb
 233              		.thumb_func
 234              		.type	_ZN10chibios_rt6System7getTimeEv, %function
 235              	_ZN10chibios_rt6System7getTimeEv:
 236              	.LFB21:
 237              		.loc 1 56 0
 238              		.cfi_startproc
 239              		@ args = 0, pretend = 0, frame = 0
 240              		@ frame_needed = 0, uses_anonymous_args = 0
 241              		@ link register save eliminated.
 242              		.loc 1 58 0
 243 0000 40F20003 		movw	r3, #:lower16:vtlist
 244 0004 C0F20003 		movt	r3, #:upper16:vtlist
 245 0008 D868     		ldr	r0, [r3, #12]
 246              		.loc 1 59 0
 247 000a 7047     		bx	lr
 248              		.cfi_endproc
 249              	.LFE21:
 250              		.size	_ZN10chibios_rt6System7getTimeEv, .-_ZN10chibios_rt6System7getTimeEv
 251 000c AFF30080 		.section	.text._ZN10chibios_rt6System12isTimeWithinEmm,"ax",%progbits
 252              		.align	2
 253              		.p2align 4,,15
 254              		.global	_ZN10chibios_rt6System12isTimeWithinEmm
 255              		.thumb
 256              		.thumb_func
 257              		.type	_ZN10chibios_rt6System12isTimeWithinEmm, %function
 258              	_ZN10chibios_rt6System12isTimeWithinEmm:
 259              	.LFB22:
 260              		.loc 1 61 0
 261              		.cfi_startproc
 262              		@ args = 0, pretend = 0, frame = 0
 263              		@ frame_needed = 0, uses_anonymous_args = 0
 264              		@ link register save eliminated.
 265              	.LVL15:
 266              		.loc 1 64 0
 267              		.loc 1 63 0
 268 0000 FFF7FEBF 		b	chTimeIsWithin
 269              	.LVL16:
 270              		.cfi_endproc
 271              	.LFE22:
 272              		.size	_ZN10chibios_rt6System12isTimeWithinEmm, .-_ZN10chibios_rt6System12isTimeWithinEmm
 273 0004 AFF30080 		.section	.text._ZN10chibios_rt4Core5allocEj,"ax",%progbits
 273      AFF30080 
ARM GAS  /tmp/ccIq0oiT.s 			page 6


 273      AFF30080 
 274              		.align	2
 275              		.p2align 4,,15
 276              		.global	_ZN10chibios_rt4Core5allocEj
 277              		.thumb
 278              		.thumb_func
 279              		.type	_ZN10chibios_rt4Core5allocEj, %function
 280              	_ZN10chibios_rt4Core5allocEj:
 281              	.LFB23:
 282              		.loc 1 69 0
 283              		.cfi_startproc
 284              		@ args = 0, pretend = 0, frame = 0
 285              		@ frame_needed = 0, uses_anonymous_args = 0
 286              		@ link register save eliminated.
 287              	.LVL17:
 288              		.loc 1 72 0
 289              		.loc 1 71 0
 290 0000 FFF7FEBF 		b	chCoreAlloc
 291              	.LVL18:
 292              		.cfi_endproc
 293              	.LFE23:
 294              		.size	_ZN10chibios_rt4Core5allocEj, .-_ZN10chibios_rt4Core5allocEj
 295 0004 AFF30080 		.section	.text._ZN10chibios_rt4Core6allocIEj,"ax",%progbits
 295      AFF30080 
 295      AFF30080 
 296              		.align	2
 297              		.p2align 4,,15
 298              		.global	_ZN10chibios_rt4Core6allocIEj
 299              		.thumb
 300              		.thumb_func
 301              		.type	_ZN10chibios_rt4Core6allocIEj, %function
 302              	_ZN10chibios_rt4Core6allocIEj:
 303              	.LFB24:
 304              		.loc 1 74 0
 305              		.cfi_startproc
 306              		@ args = 0, pretend = 0, frame = 0
 307              		@ frame_needed = 0, uses_anonymous_args = 0
 308              		@ link register save eliminated.
 309              	.LVL19:
 310              		.loc 1 77 0
 311              		.loc 1 76 0
 312 0000 FFF7FEBF 		b	chCoreAllocI
 313              	.LVL20:
 314              		.cfi_endproc
 315              	.LFE24:
 316              		.size	_ZN10chibios_rt4Core6allocIEj, .-_ZN10chibios_rt4Core6allocIEj
 317 0004 AFF30080 		.section	.text._ZN10chibios_rt4Core9getStatusEv,"ax",%progbits
 317      AFF30080 
 317      AFF30080 
 318              		.align	2
 319              		.p2align 4,,15
 320              		.global	_ZN10chibios_rt4Core9getStatusEv
 321              		.thumb
 322              		.thumb_func
 323              		.type	_ZN10chibios_rt4Core9getStatusEv, %function
 324              	_ZN10chibios_rt4Core9getStatusEv:
 325              	.LFB25:
ARM GAS  /tmp/ccIq0oiT.s 			page 7


 326              		.loc 1 79 0
 327              		.cfi_startproc
 328              		@ args = 0, pretend = 0, frame = 0
 329              		@ frame_needed = 0, uses_anonymous_args = 0
 330              		@ link register save eliminated.
 331              		.loc 1 82 0
 332              		.loc 1 81 0
 333 0000 FFF7FEBF 		b	chCoreStatus
 334              	.LVL21:
 335              		.cfi_endproc
 336              	.LFE25:
 337              		.size	_ZN10chibios_rt4Core9getStatusEv, .-_ZN10chibios_rt4Core9getStatusEv
 338 0004 AFF30080 		.section	.text._ZN10chibios_rt5Timer4setIEmPFvPvES1_,"ax",%progbits
 338      AFF30080 
 338      AFF30080 
 339              		.align	2
 340              		.p2align 4,,15
 341              		.global	_ZN10chibios_rt5Timer4setIEmPFvPvES1_
 342              		.thumb
 343              		.thumb_func
 344              		.type	_ZN10chibios_rt5Timer4setIEmPFvPvES1_, %function
 345              	_ZN10chibios_rt5Timer4setIEmPFvPvES1_:
 346              	.LFB26:
 347              		.loc 1 87 0
 348              		.cfi_startproc
 349              		@ args = 0, pretend = 0, frame = 0
 350              		@ frame_needed = 0, uses_anonymous_args = 0
 351              		@ link register save eliminated.
 352              	.LVL22:
 353              		.loc 1 90 0
 354              		.loc 1 89 0
 355 0000 FFF7FEBF 		b	chVTSetI
 356              	.LVL23:
 357              		.cfi_endproc
 358              	.LFE26:
 359              		.size	_ZN10chibios_rt5Timer4setIEmPFvPvES1_, .-_ZN10chibios_rt5Timer4setIEmPFvPvES1_
 360 0004 AFF30080 		.section	.text._ZN10chibios_rt5Timer6resetIEv,"ax",%progbits
 360      AFF30080 
 360      AFF30080 
 361              		.align	2
 362              		.p2align 4,,15
 363              		.global	_ZN10chibios_rt5Timer6resetIEv
 364              		.thumb
 365              		.thumb_func
 366              		.type	_ZN10chibios_rt5Timer6resetIEv, %function
 367              	_ZN10chibios_rt5Timer6resetIEv:
 368              	.LFB27:
 369              		.loc 1 92 0
 370              		.cfi_startproc
 371              		@ args = 0, pretend = 0, frame = 0
 372              		@ frame_needed = 0, uses_anonymous_args = 0
 373              		@ link register save eliminated.
 374              	.LVL24:
 375              		.loc 1 94 0
 376 0000 C368     		ldr	r3, [r0, #12]
 377 0002 0BB1     		cbz	r3, .L17
 378              		.loc 1 96 0
ARM GAS  /tmp/ccIq0oiT.s 			page 8


 379              		.loc 1 95 0
 380 0004 FFF7FEBF 		b	chVTResetI
 381              	.LVL25:
 382              	.L17:
 383 0008 7047     		bx	lr
 384              		.cfi_endproc
 385              	.LFE27:
 386              		.size	_ZN10chibios_rt5Timer6resetIEv, .-_ZN10chibios_rt5Timer6resetIEv
 387 000a 00BFAFF3 		.section	.text._ZN10chibios_rt5Timer8isArmedIEv,"ax",%progbits
 387      0080
 388              		.align	2
 389              		.p2align 4,,15
 390              		.global	_ZN10chibios_rt5Timer8isArmedIEv
 391              		.thumb
 392              		.thumb_func
 393              		.type	_ZN10chibios_rt5Timer8isArmedIEv, %function
 394              	_ZN10chibios_rt5Timer8isArmedIEv:
 395              	.LFB28:
 396              		.loc 1 98 0
 397              		.cfi_startproc
 398              		@ args = 0, pretend = 0, frame = 0
 399              		@ frame_needed = 0, uses_anonymous_args = 0
 400              		@ link register save eliminated.
 401              	.LVL26:
 402              		.loc 1 100 0
 403 0000 C068     		ldr	r0, [r0, #12]
 404              	.LVL27:
 405              		.loc 1 101 0
 406 0002 0030     		adds	r0, r0, #0
 407 0004 18BF     		it	ne
 408 0006 0120     		movne	r0, #1
 409 0008 7047     		bx	lr
 410              		.cfi_endproc
 411              	.LFE28:
 412              		.size	_ZN10chibios_rt5Timer8isArmedIEv, .-_ZN10chibios_rt5Timer8isArmedIEv
 413 000a 00BFAFF3 		.section	.text._ZN10chibios_rt15ThreadReference7suspendEv,"ax",%progbits
 413      0080
 414              		.align	2
 415              		.p2align 4,,15
 416              		.global	_ZN10chibios_rt15ThreadReference7suspendEv
 417              		.thumb
 418              		.thumb_func
 419              		.type	_ZN10chibios_rt15ThreadReference7suspendEv, %function
 420              	_ZN10chibios_rt15ThreadReference7suspendEv:
 421              	.LFB30:
 422              		.loc 1 112 0
 423              		.cfi_startproc
 424              		@ args = 0, pretend = 0, frame = 0
 425              		@ frame_needed = 0, uses_anonymous_args = 0
 426              	.LVL28:
 427 0000 10B5     		push	{r4, lr}
 428              	.LCFI0:
 429              		.cfi_def_cfa_offset 8
 430              		.cfi_offset 4, -8
 431              		.cfi_offset 14, -4
 432              	.LBB19:
 433              	.LBB20:
ARM GAS  /tmp/ccIq0oiT.s 			page 9


 434              		.loc 1 115 0
 435 0002 2023     		movs	r3, #32
 436              	.LVL29:
 437              	.LBE20:
 438              	.LBE19:
 439              		.loc 1 112 0
 440 0004 0446     		mov	r4, r0
 441              	.LBB24:
 442              	.LBB21:
 443              		.loc 1 115 0
 444              	@ 115 "../../os/various/cpp_wrappers/ch.cpp" 1
 445 0006 83F31188 		msr     BASEPRI, r3
 446              	@ 0 "" 2
 447              	.LVL30:
 448              		.thumb
 449              	.LBE21:
 450              		.loc 1 121 0
 451 000a 40F20003 		movw	r3, #:lower16:rlist
 452              	.LVL31:
 453 000e C0F20003 		movt	r3, #:upper16:rlist
 454              		.loc 1 122 0
 455 0012 0220     		movs	r0, #2
 456              	.LVL32:
 457              		.loc 1 121 0
 458 0014 9969     		ldr	r1, [r3, #24]
 459 0016 6160     		str	r1, [r4, #4]
 460              		.loc 1 122 0
 461 0018 FFF7FEFF 		bl	chSchGoSleepS
 462              	.LVL33:
 463              		.loc 1 123 0
 464 001c 6268     		ldr	r2, [r4, #4]
 465              	.LBB22:
 466              		.loc 1 125 0
 467 001e 0023     		movs	r3, #0
 468              	.LVL34:
 469              	.LBE22:
 470              		.loc 1 123 0
 471 0020 506A     		ldr	r0, [r2, #36]
 472              	.LVL35:
 473              	.LBB23:
 474              		.loc 1 125 0
 475              	@ 125 "../../os/various/cpp_wrappers/ch.cpp" 1
 476 0022 83F31188 		msr     BASEPRI, r3
 477              	@ 0 "" 2
 478              	.LVL36:
 479              		.thumb
 480              	.LBE23:
 481              	.LBE24:
 482              		.loc 1 127 0
 483 0026 10BD     		pop	{r4, pc}
 484              		.cfi_endproc
 485              	.LFE30:
 486              		.size	_ZN10chibios_rt15ThreadReference7suspendEv, .-_ZN10chibios_rt15ThreadReference7suspendEv
 487 0028 AFF30080 		.section	.text._ZN10chibios_rt15ThreadReference8suspendSEv,"ax",%progbits
 487      AFF30080 
 488              		.align	2
 489              		.p2align 4,,15
ARM GAS  /tmp/ccIq0oiT.s 			page 10


 490              		.global	_ZN10chibios_rt15ThreadReference8suspendSEv
 491              		.thumb
 492              		.thumb_func
 493              		.type	_ZN10chibios_rt15ThreadReference8suspendSEv, %function
 494              	_ZN10chibios_rt15ThreadReference8suspendSEv:
 495              	.LFB31:
 496              		.loc 1 129 0
 497              		.cfi_startproc
 498              		@ args = 0, pretend = 0, frame = 0
 499              		@ frame_needed = 0, uses_anonymous_args = 0
 500              	.LVL37:
 501              		.loc 1 135 0
 502 0000 40F20003 		movw	r3, #:lower16:rlist
 503 0004 C0F20003 		movt	r3, #:upper16:rlist
 504              		.loc 1 129 0
 505 0008 10B5     		push	{r4, lr}
 506              	.LCFI1:
 507              		.cfi_def_cfa_offset 8
 508              		.cfi_offset 4, -8
 509              		.cfi_offset 14, -4
 510              		.loc 1 135 0
 511 000a 9969     		ldr	r1, [r3, #24]
 512              		.loc 1 129 0
 513 000c 0446     		mov	r4, r0
 514              		.loc 1 136 0
 515 000e 0220     		movs	r0, #2
 516              	.LVL38:
 517              		.loc 1 135 0
 518 0010 6160     		str	r1, [r4, #4]
 519              		.loc 1 136 0
 520 0012 FFF7FEFF 		bl	chSchGoSleepS
 521              	.LVL39:
 522              		.loc 1 137 0
 523 0016 6068     		ldr	r0, [r4, #4]
 524              		.loc 1 138 0
 525 0018 406A     		ldr	r0, [r0, #36]
 526 001a 10BD     		pop	{r4, pc}
 527              		.cfi_endproc
 528              	.LFE31:
 529              		.size	_ZN10chibios_rt15ThreadReference8suspendSEv, .-_ZN10chibios_rt15ThreadReference8suspendSEv
 530 001c AFF30080 		.section	.text._ZN10chibios_rt15ThreadReference6resumeEl,"ax",%progbits
 531              		.align	2
 532              		.p2align 4,,15
 533              		.global	_ZN10chibios_rt15ThreadReference6resumeEl
 534              		.thumb
 535              		.thumb_func
 536              		.type	_ZN10chibios_rt15ThreadReference6resumeEl, %function
 537              	_ZN10chibios_rt15ThreadReference6resumeEl:
 538              	.LFB32:
 539              		.loc 1 140 0
 540              		.cfi_startproc
 541              		@ args = 0, pretend = 0, frame = 0
 542              		@ frame_needed = 0, uses_anonymous_args = 0
 543              	.LVL40:
 544 0000 08B5     		push	{r3, lr}
 545              	.LCFI2:
 546              		.cfi_def_cfa_offset 8
ARM GAS  /tmp/ccIq0oiT.s 			page 11


 547              		.cfi_offset 3, -8
 548              		.cfi_offset 14, -4
 549              	.LBB25:
 550              		.loc 1 142 0
 551 0002 2023     		movs	r3, #32
 552              	.LVL41:
 553              	@ 142 "../../os/various/cpp_wrappers/ch.cpp" 1
 554 0004 83F31188 		msr     BASEPRI, r3
 555              	@ 0 "" 2
 556              	.LVL42:
 557              		.thumb
 558              	.LBE25:
 559              	.LBB26:
 560              		.loc 1 148 0
 561 0008 4368     		ldr	r3, [r0, #4]
 562              	.LVL43:
 563 000a 23B1     		cbz	r3, .L24
 564              	.LVL44:
 565              	.LBB27:
 566              		.loc 1 150 0
 567 000c 0022     		movs	r2, #0
 568 000e 4260     		str	r2, [r0, #4]
 569              		.loc 1 151 0
 570 0010 1846     		mov	r0, r3
 571              	.LVL45:
 572 0012 FFF7FEFF 		bl	chSchWakeupS
 573              	.LVL46:
 574              	.L24:
 575              	.LBE27:
 576              	.LBE26:
 577              	.LBB28:
 578              		.loc 1 154 0
 579 0016 0023     		movs	r3, #0
 580              	.LVL47:
 581              	@ 154 "../../os/various/cpp_wrappers/ch.cpp" 1
 582 0018 83F31188 		msr     BASEPRI, r3
 583              	@ 0 "" 2
 584              	.LVL48:
 585              		.thumb
 586 001c 08BD     		pop	{r3, pc}
 587              	.LBE28:
 588              		.cfi_endproc
 589              	.LFE32:
 590              		.size	_ZN10chibios_rt15ThreadReference6resumeEl, .-_ZN10chibios_rt15ThreadReference6resumeEl
 591 001e 00BF     		.section	.text._ZN10chibios_rt15ThreadReference7resumeIEl,"ax",%progbits
 592              		.align	2
 593              		.p2align 4,,15
 594              		.global	_ZN10chibios_rt15ThreadReference7resumeIEl
 595              		.thumb
 596              		.thumb_func
 597              		.type	_ZN10chibios_rt15ThreadReference7resumeIEl, %function
 598              	_ZN10chibios_rt15ThreadReference7resumeIEl:
 599              	.LFB33:
 600              		.loc 1 157 0
 601              		.cfi_startproc
 602              		@ args = 0, pretend = 0, frame = 0
 603              		@ frame_needed = 0, uses_anonymous_args = 0
ARM GAS  /tmp/ccIq0oiT.s 			page 12


 604              		@ link register save eliminated.
 605              	.LVL49:
 606              	.LBB29:
 607              		.loc 1 163 0
 608 0000 4368     		ldr	r3, [r0, #4]
 609 0002 2BB1     		cbz	r3, .L28
 610              	.LVL50:
 611              	.LBB30:
 612              		.loc 1 165 0
 613 0004 0022     		movs	r2, #0
 614 0006 4260     		str	r2, [r0, #4]
 615              		.loc 1 167 0
 616 0008 1846     		mov	r0, r3
 617              	.LVL51:
 618              		.loc 1 166 0
 619 000a 5963     		str	r1, [r3, #52]
 620              	.LBE30:
 621              	.LBE29:
 622              		.loc 1 169 0
 623              	.LBB32:
 624              	.LBB31:
 625              		.loc 1 167 0
 626 000c FFF7FEBF 		b	chSchReadyI
 627              	.LVL52:
 628              	.L28:
 629 0010 7047     		bx	lr
 630              	.LBE31:
 631              	.LBE32:
 632              		.cfi_endproc
 633              	.LFE33:
 634              		.size	_ZN10chibios_rt15ThreadReference7resumeIEl, .-_ZN10chibios_rt15ThreadReference7resumeIEl
 635 0012 00BFAFF3 		.section	.text._ZN10chibios_rt15ThreadReference16requestTerminateEv,"ax",%progbits
 635      0080AFF3 
 635      0080AFF3 
 635      0080
 636              		.align	2
 637              		.p2align 4,,15
 638              		.global	_ZN10chibios_rt15ThreadReference16requestTerminateEv
 639              		.thumb
 640              		.thumb_func
 641              		.type	_ZN10chibios_rt15ThreadReference16requestTerminateEv, %function
 642              	_ZN10chibios_rt15ThreadReference16requestTerminateEv:
 643              	.LFB34:
 644              		.loc 1 171 0
 645              		.cfi_startproc
 646              		@ args = 0, pretend = 0, frame = 0
 647              		@ frame_needed = 0, uses_anonymous_args = 0
 648              		@ link register save eliminated.
 649              	.LVL53:
 650              		.loc 1 177 0
 651 0000 4068     		ldr	r0, [r0, #4]
 652              	.LVL54:
 653              		.loc 1 178 0
 654              		.loc 1 177 0
 655 0002 FFF7FEBF 		b	chThdTerminate
 656              	.LVL55:
 657              		.cfi_endproc
ARM GAS  /tmp/ccIq0oiT.s 			page 13


 658              	.LFE34:
 659              		.size	_ZN10chibios_rt15ThreadReference16requestTerminateEv, .-_ZN10chibios_rt15ThreadReference16re
 660 0006 00BFAFF3 		.section	.text._ZN10chibios_rt15ThreadReference4waitEv,"ax",%progbits
 660      0080AFF3 
 660      0080
 661              		.align	2
 662              		.p2align 4,,15
 663              		.global	_ZN10chibios_rt15ThreadReference4waitEv
 664              		.thumb
 665              		.thumb_func
 666              		.type	_ZN10chibios_rt15ThreadReference4waitEv, %function
 667              	_ZN10chibios_rt15ThreadReference4waitEv:
 668              	.LFB35:
 669              		.loc 1 181 0
 670              		.cfi_startproc
 671              		@ args = 0, pretend = 0, frame = 0
 672              		@ frame_needed = 0, uses_anonymous_args = 0
 673              	.LVL56:
 674 0000 10B5     		push	{r4, lr}
 675              	.LCFI3:
 676              		.cfi_def_cfa_offset 8
 677              		.cfi_offset 4, -8
 678              		.cfi_offset 14, -4
 679              		.loc 1 181 0
 680 0002 0446     		mov	r4, r0
 681              	.LBB33:
 682              		.loc 1 187 0
 683 0004 4068     		ldr	r0, [r0, #4]
 684              	.LVL57:
 685 0006 FFF7FEFF 		bl	chThdWait
 686              	.LVL58:
 687              		.loc 1 188 0
 688 000a 0023     		movs	r3, #0
 689 000c 6360     		str	r3, [r4, #4]
 690              	.LBE33:
 691              		.loc 1 190 0
 692 000e 10BD     		pop	{r4, pc}
 693              		.cfi_endproc
 694              	.LFE35:
 695              		.size	_ZN10chibios_rt15ThreadReference4waitEv, .-_ZN10chibios_rt15ThreadReference4waitEv
 696              		.section	.text._ZN10chibios_rt15ThreadReference11sendMessageEl,"ax",%progbits
 697              		.align	2
 698              		.p2align 4,,15
 699              		.global	_ZN10chibios_rt15ThreadReference11sendMessageEl
 700              		.thumb
 701              		.thumb_func
 702              		.type	_ZN10chibios_rt15ThreadReference11sendMessageEl, %function
 703              	_ZN10chibios_rt15ThreadReference11sendMessageEl:
 704              	.LFB36:
 705              		.loc 1 194 0
 706              		.cfi_startproc
 707              		@ args = 0, pretend = 0, frame = 0
 708              		@ frame_needed = 0, uses_anonymous_args = 0
 709              		@ link register save eliminated.
 710              	.LVL59:
 711              		.loc 1 200 0
 712 0000 4068     		ldr	r0, [r0, #4]
ARM GAS  /tmp/ccIq0oiT.s 			page 14


 713              	.LVL60:
 714              		.loc 1 201 0
 715              		.loc 1 200 0
 716 0002 FFF7FEBF 		b	chMsgSend
 717              	.LVL61:
 718              		.cfi_endproc
 719              	.LFE36:
 720              		.size	_ZN10chibios_rt15ThreadReference11sendMessageEl, .-_ZN10chibios_rt15ThreadReference11sendMes
 721 0006 00BFAFF3 		.section	.text._ZN10chibios_rt15ThreadReference16isPendingMessageEv,"ax",%progbits
 721      0080AFF3 
 721      0080
 722              		.align	2
 723              		.p2align 4,,15
 724              		.global	_ZN10chibios_rt15ThreadReference16isPendingMessageEv
 725              		.thumb
 726              		.thumb_func
 727              		.type	_ZN10chibios_rt15ThreadReference16isPendingMessageEv, %function
 728              	_ZN10chibios_rt15ThreadReference16isPendingMessageEv:
 729              	.LFB37:
 730              		.loc 1 203 0
 731              		.cfi_startproc
 732              		@ args = 0, pretend = 0, frame = 0
 733              		@ frame_needed = 0, uses_anonymous_args = 0
 734              		@ link register save eliminated.
 735              	.LVL62:
 736              		.loc 1 209 0
 737 0000 4368     		ldr	r3, [r0, #4]
 738 0002 D86A     		ldr	r0, [r3, #44]
 739              	.LVL63:
 740 0004 2C33     		adds	r3, r3, #44
 741              		.loc 1 210 0
 742 0006 C01A     		subs	r0, r0, r3
 743 0008 18BF     		it	ne
 744 000a 0120     		movne	r0, #1
 745 000c 7047     		bx	lr
 746              		.cfi_endproc
 747              	.LFE37:
 748              		.size	_ZN10chibios_rt15ThreadReference16isPendingMessageEv, .-_ZN10chibios_rt15ThreadReference16is
 749 000e 00BF     		.section	.text._ZN10chibios_rt15ThreadReference10getMessageEv,"ax",%progbits
 750              		.align	2
 751              		.p2align 4,,15
 752              		.global	_ZN10chibios_rt15ThreadReference10getMessageEv
 753              		.thumb
 754              		.thumb_func
 755              		.type	_ZN10chibios_rt15ThreadReference10getMessageEv, %function
 756              	_ZN10chibios_rt15ThreadReference10getMessageEv:
 757              	.LFB38:
 758              		.loc 1 212 0
 759              		.cfi_startproc
 760              		@ args = 0, pretend = 0, frame = 0
 761              		@ frame_needed = 0, uses_anonymous_args = 0
 762              		@ link register save eliminated.
 763              	.LVL64:
 764              		.loc 1 218 0
 765 0000 4368     		ldr	r3, [r0, #4]
 766              		.loc 1 219 0
 767 0002 586B     		ldr	r0, [r3, #52]
ARM GAS  /tmp/ccIq0oiT.s 			page 15


 768              	.LVL65:
 769 0004 7047     		bx	lr
 770              		.cfi_endproc
 771              	.LFE38:
 772              		.size	_ZN10chibios_rt15ThreadReference10getMessageEv, .-_ZN10chibios_rt15ThreadReference10getMessa
 773 0006 00BFAFF3 		.section	.text._ZN10chibios_rt15ThreadReference14releaseMessageEl,"ax",%progbits
 773      0080AFF3 
 773      0080
 774              		.align	2
 775              		.p2align 4,,15
 776              		.global	_ZN10chibios_rt15ThreadReference14releaseMessageEl
 777              		.thumb
 778              		.thumb_func
 779              		.type	_ZN10chibios_rt15ThreadReference14releaseMessageEl, %function
 780              	_ZN10chibios_rt15ThreadReference14releaseMessageEl:
 781              	.LFB39:
 782              		.loc 1 221 0
 783              		.cfi_startproc
 784              		@ args = 0, pretend = 0, frame = 0
 785              		@ frame_needed = 0, uses_anonymous_args = 0
 786              		@ link register save eliminated.
 787              	.LVL66:
 788              		.loc 1 227 0
 789 0000 4068     		ldr	r0, [r0, #4]
 790              	.LVL67:
 791              		.loc 1 228 0
 792              		.loc 1 227 0
 793 0002 FFF7FEBF 		b	chMsgRelease
 794              	.LVL68:
 795              		.cfi_endproc
 796              	.LFE39:
 797              		.size	_ZN10chibios_rt15ThreadReference14releaseMessageEl, .-_ZN10chibios_rt15ThreadReference14rele
 798 0006 00BFAFF3 		.section	.text._ZN10chibios_rt15ThreadReference12signalEventsEm,"ax",%progbits
 798      0080AFF3 
 798      0080
 799              		.align	2
 800              		.p2align 4,,15
 801              		.global	_ZN10chibios_rt15ThreadReference12signalEventsEm
 802              		.thumb
 803              		.thumb_func
 804              		.type	_ZN10chibios_rt15ThreadReference12signalEventsEm, %function
 805              	_ZN10chibios_rt15ThreadReference12signalEventsEm:
 806              	.LFB40:
 807              		.loc 1 232 0
 808              		.cfi_startproc
 809              		@ args = 0, pretend = 0, frame = 0
 810              		@ frame_needed = 0, uses_anonymous_args = 0
 811              		@ link register save eliminated.
 812              	.LVL69:
 813              		.loc 1 238 0
 814 0000 4068     		ldr	r0, [r0, #4]
 815              	.LVL70:
 816              		.loc 1 239 0
 817              		.loc 1 238 0
 818 0002 FFF7FEBF 		b	chEvtSignal
 819              	.LVL71:
 820              		.cfi_endproc
ARM GAS  /tmp/ccIq0oiT.s 			page 16


 821              	.LFE40:
 822              		.size	_ZN10chibios_rt15ThreadReference12signalEventsEm, .-_ZN10chibios_rt15ThreadReference12signal
 823 0006 00BFAFF3 		.section	.text._ZN10chibios_rt15ThreadReference13signalEventsIEm,"ax",%progbits
 823      0080AFF3 
 823      0080
 824              		.align	2
 825              		.p2align 4,,15
 826              		.global	_ZN10chibios_rt15ThreadReference13signalEventsIEm
 827              		.thumb
 828              		.thumb_func
 829              		.type	_ZN10chibios_rt15ThreadReference13signalEventsIEm, %function
 830              	_ZN10chibios_rt15ThreadReference13signalEventsIEm:
 831              	.LFB41:
 832              		.loc 1 241 0
 833              		.cfi_startproc
 834              		@ args = 0, pretend = 0, frame = 0
 835              		@ frame_needed = 0, uses_anonymous_args = 0
 836              		@ link register save eliminated.
 837              	.LVL72:
 838              		.loc 1 247 0
 839 0000 4068     		ldr	r0, [r0, #4]
 840              	.LVL73:
 841              		.loc 1 248 0
 842              		.loc 1 247 0
 843 0002 FFF7FEBF 		b	chEvtSignalI
 844              	.LVL74:
 845              		.cfi_endproc
 846              	.LFE41:
 847              		.size	_ZN10chibios_rt15ThreadReference13signalEventsIEm, .-_ZN10chibios_rt15ThreadReference13signa
 848 0006 00BFAFF3 		.section	.text._ZN10chibios_rt10BaseThreadC2Ev,"ax",%progbits
 848      0080AFF3 
 848      0080
 849              		.align	2
 850              		.p2align 4,,15
 851              		.global	_ZN10chibios_rt10BaseThreadC2Ev
 852              		.thumb
 853              		.thumb_func
 854              		.type	_ZN10chibios_rt10BaseThreadC2Ev, %function
 855              	_ZN10chibios_rt10BaseThreadC2Ev:
 856              	.LFB43:
 857              		.loc 1 257 0
 858              		.cfi_startproc
 859              		@ args = 0, pretend = 0, frame = 0
 860              		@ frame_needed = 0, uses_anonymous_args = 0
 861              		@ link register save eliminated.
 862              	.LVL75:
 863              	.LBB34:
 864              		.loc 1 257 0
 865 0000 0249     		ldr	r1, .L39
 866              	.LBB35:
 867              	.LBB36:
 868              		.loc 2 250 0
 869 0002 0022     		movs	r2, #0
 870 0004 4260     		str	r2, [r0, #4]
 871              	.LBE36:
 872              	.LBE35:
 873              		.loc 1 257 0
ARM GAS  /tmp/ccIq0oiT.s 			page 17


 874 0006 0160     		str	r1, [r0, #0]
 875              	.LBE34:
 876              		.loc 1 259 0
 877 0008 7047     		bx	lr
 878              	.L40:
 879 000a 00BF     		.align	2
 880              	.L39:
 881 000c 08000000 		.word	.LANCHOR1+8
 882              		.cfi_endproc
 883              	.LFE43:
 884              		.size	_ZN10chibios_rt10BaseThreadC2Ev, .-_ZN10chibios_rt10BaseThreadC2Ev
 885              		.global	_ZN10chibios_rt10BaseThreadC1Ev
 886              		.thumb_set _ZN10chibios_rt10BaseThreadC1Ev,_ZN10chibios_rt10BaseThreadC2Ev
 887              		.section	.text._ZN10chibios_rt10_thd_startEPv,"ax",%progbits
 888              		.align	2
 889              		.p2align 4,,15
 890              		.global	_ZN10chibios_rt10_thd_startEPv
 891              		.thumb
 892              		.thumb_func
 893              		.type	_ZN10chibios_rt10_thd_startEPv, %function
 894              	_ZN10chibios_rt10_thd_startEPv:
 895              	.LFB50:
 896              		.loc 1 273 0
 897              		.cfi_startproc
 898              		@ args = 0, pretend = 0, frame = 0
 899              		@ frame_needed = 0, uses_anonymous_args = 0
 900              	.LVL76:
 901 0000 08B5     		push	{r3, lr}
 902              	.LCFI4:
 903              		.cfi_def_cfa_offset 8
 904              		.cfi_offset 3, -8
 905              		.cfi_offset 14, -4
 906              		.loc 1 275 0
 907 0002 0368     		ldr	r3, [r0, #0]
 908 0004 5968     		ldr	r1, [r3, #4]
 909 0006 8847     		blx	r1
 910              	.LVL77:
 911              		.loc 1 276 0
 912 0008 08BD     		pop	{r3, pc}
 913              		.cfi_endproc
 914              	.LFE50:
 915              		.size	_ZN10chibios_rt10_thd_startEPv, .-_ZN10chibios_rt10_thd_startEPv
 916 000a 00BFAFF3 		.section	.text._ZN10chibios_rt10BaseThread7setNameEPKc,"ax",%progbits
 916      0080
 917              		.align	2
 918              		.p2align 4,,15
 919              		.global	_ZN10chibios_rt10BaseThread7setNameEPKc
 920              		.thumb
 921              		.thumb_func
 922              		.type	_ZN10chibios_rt10BaseThread7setNameEPKc, %function
 923              	_ZN10chibios_rt10BaseThread7setNameEPKc:
 924              	.LFB51:
 925              		.loc 1 278 0
 926              		.cfi_startproc
 927              		@ args = 0, pretend = 0, frame = 0
 928              		@ frame_needed = 0, uses_anonymous_args = 0
 929              		@ link register save eliminated.
ARM GAS  /tmp/ccIq0oiT.s 			page 18


 930              	.LVL78:
 931              		.loc 1 280 0
 932 0000 40F20003 		movw	r3, #:lower16:rlist
 933 0004 C0F20003 		movt	r3, #:upper16:rlist
 934 0008 9969     		ldr	r1, [r3, #24]
 935 000a 8861     		str	r0, [r1, #24]
 936 000c 7047     		bx	lr
 937              		.cfi_endproc
 938              	.LFE51:
 939              		.size	_ZN10chibios_rt10BaseThread7setNameEPKc, .-_ZN10chibios_rt10BaseThread7setNameEPKc
 940              		.section	.text._ZN10chibios_rt10BaseThread11setPriorityEm,"ax",%progbits
 941              		.align	2
 942              		.p2align 4,,15
 943              		.global	_ZN10chibios_rt10BaseThread11setPriorityEm
 944              		.thumb
 945              		.thumb_func
 946              		.type	_ZN10chibios_rt10BaseThread11setPriorityEm, %function
 947              	_ZN10chibios_rt10BaseThread11setPriorityEm:
 948              	.LFB52:
 949              		.loc 1 283 0
 950              		.cfi_startproc
 951              		@ args = 0, pretend = 0, frame = 0
 952              		@ frame_needed = 0, uses_anonymous_args = 0
 953              		@ link register save eliminated.
 954              	.LVL79:
 955              		.loc 1 286 0
 956              		.loc 1 285 0
 957 0000 FFF7FEBF 		b	chThdSetPriority
 958              	.LVL80:
 959              		.cfi_endproc
 960              	.LFE52:
 961              		.size	_ZN10chibios_rt10BaseThread11setPriorityEm, .-_ZN10chibios_rt10BaseThread11setPriorityEm
 962 0004 AFF30080 		.section	.text._ZN10chibios_rt10BaseThread4exitEl,"ax",%progbits
 962      AFF30080 
 962      AFF30080 
 963              		.align	2
 964              		.p2align 4,,15
 965              		.global	_ZN10chibios_rt10BaseThread4exitEl
 966              		.thumb
 967              		.thumb_func
 968              		.type	_ZN10chibios_rt10BaseThread4exitEl, %function
 969              	_ZN10chibios_rt10BaseThread4exitEl:
 970              	.LFB53:
 971              		.loc 1 288 0
 972              		.cfi_startproc
 973              		@ args = 0, pretend = 0, frame = 0
 974              		@ frame_needed = 0, uses_anonymous_args = 0
 975              		@ link register save eliminated.
 976              	.LVL81:
 977              		.loc 1 291 0
 978              		.loc 1 290 0
 979 0000 FFF7FEBF 		b	chThdExit
 980              	.LVL82:
 981              		.cfi_endproc
 982              	.LFE53:
 983              		.size	_ZN10chibios_rt10BaseThread4exitEl, .-_ZN10chibios_rt10BaseThread4exitEl
 984 0004 AFF30080 		.section	.text._ZN10chibios_rt10BaseThread5exitSEl,"ax",%progbits
ARM GAS  /tmp/ccIq0oiT.s 			page 19


 984      AFF30080 
 984      AFF30080 
 985              		.align	2
 986              		.p2align 4,,15
 987              		.global	_ZN10chibios_rt10BaseThread5exitSEl
 988              		.thumb
 989              		.thumb_func
 990              		.type	_ZN10chibios_rt10BaseThread5exitSEl, %function
 991              	_ZN10chibios_rt10BaseThread5exitSEl:
 992              	.LFB54:
 993              		.loc 1 293 0
 994              		.cfi_startproc
 995              		@ args = 0, pretend = 0, frame = 0
 996              		@ frame_needed = 0, uses_anonymous_args = 0
 997              		@ link register save eliminated.
 998              	.LVL83:
 999              		.loc 1 296 0
 1000              		.loc 1 295 0
 1001 0000 FFF7FEBF 		b	chThdExitS
 1002              	.LVL84:
 1003              		.cfi_endproc
 1004              	.LFE54:
 1005              		.size	_ZN10chibios_rt10BaseThread5exitSEl, .-_ZN10chibios_rt10BaseThread5exitSEl
 1006 0004 AFF30080 		.section	.text._ZN10chibios_rt10BaseThread15shouldTerminateEv,"ax",%progbits
 1006      AFF30080 
 1006      AFF30080 
 1007              		.align	2
 1008              		.p2align 4,,15
 1009              		.global	_ZN10chibios_rt10BaseThread15shouldTerminateEv
 1010              		.thumb
 1011              		.thumb_func
 1012              		.type	_ZN10chibios_rt10BaseThread15shouldTerminateEv, %function
 1013              	_ZN10chibios_rt10BaseThread15shouldTerminateEv:
 1014              	.LFB55:
 1015              		.loc 1 298 0
 1016              		.cfi_startproc
 1017              		@ args = 0, pretend = 0, frame = 0
 1018              		@ frame_needed = 0, uses_anonymous_args = 0
 1019              		@ link register save eliminated.
 1020              		.loc 1 300 0
 1021 0000 40F20003 		movw	r3, #:lower16:rlist
 1022 0004 C0F20003 		movt	r3, #:upper16:rlist
 1023 0008 9869     		ldr	r0, [r3, #24]
 1024 000a 417F     		ldrb	r1, [r0, #29]	@ zero_extendqisi2
 1025              		.loc 1 301 0
 1026 000c C1F38000 		ubfx	r0, r1, #2, #1
 1027 0010 7047     		bx	lr
 1028              		.cfi_endproc
 1029              	.LFE55:
 1030              		.size	_ZN10chibios_rt10BaseThread15shouldTerminateEv, .-_ZN10chibios_rt10BaseThread15shouldTermina
 1031 0012 00BFAFF3 		.section	.text._ZN10chibios_rt10BaseThread5sleepEm,"ax",%progbits
 1031      0080AFF3 
 1031      0080AFF3 
 1031      0080
 1032              		.align	2
 1033              		.p2align 4,,15
 1034              		.global	_ZN10chibios_rt10BaseThread5sleepEm
ARM GAS  /tmp/ccIq0oiT.s 			page 20


 1035              		.thumb
 1036              		.thumb_func
 1037              		.type	_ZN10chibios_rt10BaseThread5sleepEm, %function
 1038              	_ZN10chibios_rt10BaseThread5sleepEm:
 1039              	.LFB56:
 1040              		.loc 1 303 0
 1041              		.cfi_startproc
 1042              		@ args = 0, pretend = 0, frame = 0
 1043              		@ frame_needed = 0, uses_anonymous_args = 0
 1044              		@ link register save eliminated.
 1045              	.LVL85:
 1046              		.loc 1 306 0
 1047              		.loc 1 305 0
 1048 0000 FFF7FEBF 		b	chThdSleep
 1049              	.LVL86:
 1050              		.cfi_endproc
 1051              	.LFE56:
 1052              		.size	_ZN10chibios_rt10BaseThread5sleepEm, .-_ZN10chibios_rt10BaseThread5sleepEm
 1053 0004 AFF30080 		.section	.text._ZN10chibios_rt10BaseThread10sleepUntilEm,"ax",%progbits
 1053      AFF30080 
 1053      AFF30080 
 1054              		.align	2
 1055              		.p2align 4,,15
 1056              		.global	_ZN10chibios_rt10BaseThread10sleepUntilEm
 1057              		.thumb
 1058              		.thumb_func
 1059              		.type	_ZN10chibios_rt10BaseThread10sleepUntilEm, %function
 1060              	_ZN10chibios_rt10BaseThread10sleepUntilEm:
 1061              	.LFB57:
 1062              		.loc 1 308 0
 1063              		.cfi_startproc
 1064              		@ args = 0, pretend = 0, frame = 0
 1065              		@ frame_needed = 0, uses_anonymous_args = 0
 1066              		@ link register save eliminated.
 1067              	.LVL87:
 1068              		.loc 1 311 0
 1069              		.loc 1 310 0
 1070 0000 FFF7FEBF 		b	chThdSleepUntil
 1071              	.LVL88:
 1072              		.cfi_endproc
 1073              	.LFE57:
 1074              		.size	_ZN10chibios_rt10BaseThread10sleepUntilEm, .-_ZN10chibios_rt10BaseThread10sleepUntilEm
 1075 0004 AFF30080 		.section	.text._ZN10chibios_rt10BaseThread5yieldEv,"ax",%progbits
 1075      AFF30080 
 1075      AFF30080 
 1076              		.align	2
 1077              		.p2align 4,,15
 1078              		.global	_ZN10chibios_rt10BaseThread5yieldEv
 1079              		.thumb
 1080              		.thumb_func
 1081              		.type	_ZN10chibios_rt10BaseThread5yieldEv, %function
 1082              	_ZN10chibios_rt10BaseThread5yieldEv:
 1083              	.LFB58:
 1084              		.loc 1 313 0
 1085              		.cfi_startproc
 1086              		@ args = 0, pretend = 0, frame = 0
 1087              		@ frame_needed = 0, uses_anonymous_args = 0
ARM GAS  /tmp/ccIq0oiT.s 			page 21


 1088              		@ link register save eliminated.
 1089              		.loc 1 316 0
 1090              		.loc 1 315 0
 1091 0000 FFF7FEBF 		b	chThdYield
 1092              	.LVL89:
 1093              		.cfi_endproc
 1094              	.LFE58:
 1095              		.size	_ZN10chibios_rt10BaseThread5yieldEv, .-_ZN10chibios_rt10BaseThread5yieldEv
 1096 0004 AFF30080 		.section	.text._ZN10chibios_rt10BaseThread11waitMessageEv,"ax",%progbits
 1096      AFF30080 
 1096      AFF30080 
 1097              		.align	2
 1098              		.p2align 4,,15
 1099              		.global	_ZN10chibios_rt10BaseThread11waitMessageEv
 1100              		.thumb
 1101              		.thumb_func
 1102              		.type	_ZN10chibios_rt10BaseThread11waitMessageEv, %function
 1103              	_ZN10chibios_rt10BaseThread11waitMessageEv:
 1104              	.LFB59:
 1105              		.loc 1 319 0
 1106              		.cfi_startproc
 1107              		@ args = 0, pretend = 0, frame = 0
 1108              		@ frame_needed = 0, uses_anonymous_args = 0
 1109              	.LVL90:
 1110 0000 10B5     		push	{r4, lr}
 1111              	.LCFI5:
 1112              		.cfi_def_cfa_offset 8
 1113              		.cfi_offset 4, -8
 1114              		.cfi_offset 14, -4
 1115              		.loc 1 319 0
 1116 0002 0446     		mov	r4, r0
 1117              	.LBB37:
 1118              		.loc 1 321 0
 1119 0004 FFF7FEFF 		bl	chMsgWait
 1120              	.LVL91:
 1121              	.LBB38:
 1122              	.LBB39:
 1123              		.loc 2 250 0
 1124 0008 024B     		ldr	r3, .L51
 1125 000a 6060     		str	r0, [r4, #4]
 1126 000c 2360     		str	r3, [r4, #0]
 1127              	.LBE39:
 1128              	.LBE38:
 1129              	.LBE37:
 1130              		.loc 1 323 0
 1131 000e 2046     		mov	r0, r4
 1132              	.LVL92:
 1133 0010 10BD     		pop	{r4, pc}
 1134              	.L52:
 1135 0012 00BF     		.align	2
 1136              	.L51:
 1137 0014 08000000 		.word	.LANCHOR0+8
 1138              		.cfi_endproc
 1139              	.LFE59:
 1140              		.size	_ZN10chibios_rt10BaseThread11waitMessageEv, .-_ZN10chibios_rt10BaseThread11waitMessageEv
 1141 0018 AFF30080 		.section	.text._ZN10chibios_rt10BaseThread17getAndClearEventsEm,"ax",%progbits
 1141      AFF30080 
ARM GAS  /tmp/ccIq0oiT.s 			page 22


 1142              		.align	2
 1143              		.p2align 4,,15
 1144              		.global	_ZN10chibios_rt10BaseThread17getAndClearEventsEm
 1145              		.thumb
 1146              		.thumb_func
 1147              		.type	_ZN10chibios_rt10BaseThread17getAndClearEventsEm, %function
 1148              	_ZN10chibios_rt10BaseThread17getAndClearEventsEm:
 1149              	.LFB60:
 1150              		.loc 1 327 0
 1151              		.cfi_startproc
 1152              		@ args = 0, pretend = 0, frame = 0
 1153              		@ frame_needed = 0, uses_anonymous_args = 0
 1154              		@ link register save eliminated.
 1155              	.LVL93:
 1156              		.loc 1 330 0
 1157              		.loc 1 329 0
 1158 0000 FFF7FEBF 		b	chEvtGetAndClearEvents
 1159              	.LVL94:
 1160              		.cfi_endproc
 1161              	.LFE60:
 1162              		.size	_ZN10chibios_rt10BaseThread17getAndClearEventsEm, .-_ZN10chibios_rt10BaseThread17getAndClear
 1163 0004 AFF30080 		.section	.text._ZN10chibios_rt10BaseThread9addEventsEm,"ax",%progbits
 1163      AFF30080 
 1163      AFF30080 
 1164              		.align	2
 1165              		.p2align 4,,15
 1166              		.global	_ZN10chibios_rt10BaseThread9addEventsEm
 1167              		.thumb
 1168              		.thumb_func
 1169              		.type	_ZN10chibios_rt10BaseThread9addEventsEm, %function
 1170              	_ZN10chibios_rt10BaseThread9addEventsEm:
 1171              	.LFB61:
 1172              		.loc 1 332 0
 1173              		.cfi_startproc
 1174              		@ args = 0, pretend = 0, frame = 0
 1175              		@ frame_needed = 0, uses_anonymous_args = 0
 1176              		@ link register save eliminated.
 1177              	.LVL95:
 1178              		.loc 1 335 0
 1179              		.loc 1 334 0
 1180 0000 FFF7FEBF 		b	chEvtAddEvents
 1181              	.LVL96:
 1182              		.cfi_endproc
 1183              	.LFE61:
 1184              		.size	_ZN10chibios_rt10BaseThread9addEventsEm, .-_ZN10chibios_rt10BaseThread9addEventsEm
 1185 0004 AFF30080 		.section	.text._ZN10chibios_rt10BaseThread12waitOneEventEm,"ax",%progbits
 1185      AFF30080 
 1185      AFF30080 
 1186              		.align	2
 1187              		.p2align 4,,15
 1188              		.global	_ZN10chibios_rt10BaseThread12waitOneEventEm
 1189              		.thumb
 1190              		.thumb_func
 1191              		.type	_ZN10chibios_rt10BaseThread12waitOneEventEm, %function
 1192              	_ZN10chibios_rt10BaseThread12waitOneEventEm:
 1193              	.LFB62:
 1194              		.loc 1 337 0
ARM GAS  /tmp/ccIq0oiT.s 			page 23


 1195              		.cfi_startproc
 1196              		@ args = 0, pretend = 0, frame = 0
 1197              		@ frame_needed = 0, uses_anonymous_args = 0
 1198              		@ link register save eliminated.
 1199              	.LVL97:
 1200              		.loc 1 340 0
 1201              		.loc 1 339 0
 1202 0000 FFF7FEBF 		b	chEvtWaitOne
 1203              	.LVL98:
 1204              		.cfi_endproc
 1205              	.LFE62:
 1206              		.size	_ZN10chibios_rt10BaseThread12waitOneEventEm, .-_ZN10chibios_rt10BaseThread12waitOneEventEm
 1207 0004 AFF30080 		.section	.text._ZN10chibios_rt10BaseThread12waitAnyEventEm,"ax",%progbits
 1207      AFF30080 
 1207      AFF30080 
 1208              		.align	2
 1209              		.p2align 4,,15
 1210              		.global	_ZN10chibios_rt10BaseThread12waitAnyEventEm
 1211              		.thumb
 1212              		.thumb_func
 1213              		.type	_ZN10chibios_rt10BaseThread12waitAnyEventEm, %function
 1214              	_ZN10chibios_rt10BaseThread12waitAnyEventEm:
 1215              	.LFB63:
 1216              		.loc 1 342 0
 1217              		.cfi_startproc
 1218              		@ args = 0, pretend = 0, frame = 0
 1219              		@ frame_needed = 0, uses_anonymous_args = 0
 1220              		@ link register save eliminated.
 1221              	.LVL99:
 1222              		.loc 1 345 0
 1223              		.loc 1 344 0
 1224 0000 FFF7FEBF 		b	chEvtWaitAny
 1225              	.LVL100:
 1226              		.cfi_endproc
 1227              	.LFE63:
 1228              		.size	_ZN10chibios_rt10BaseThread12waitAnyEventEm, .-_ZN10chibios_rt10BaseThread12waitAnyEventEm
 1229 0004 AFF30080 		.section	.text._ZN10chibios_rt10BaseThread13waitAllEventsEm,"ax",%progbits
 1229      AFF30080 
 1229      AFF30080 
 1230              		.align	2
 1231              		.p2align 4,,15
 1232              		.global	_ZN10chibios_rt10BaseThread13waitAllEventsEm
 1233              		.thumb
 1234              		.thumb_func
 1235              		.type	_ZN10chibios_rt10BaseThread13waitAllEventsEm, %function
 1236              	_ZN10chibios_rt10BaseThread13waitAllEventsEm:
 1237              	.LFB64:
 1238              		.loc 1 347 0
 1239              		.cfi_startproc
 1240              		@ args = 0, pretend = 0, frame = 0
 1241              		@ frame_needed = 0, uses_anonymous_args = 0
 1242              		@ link register save eliminated.
 1243              	.LVL101:
 1244              		.loc 1 350 0
 1245              		.loc 1 349 0
 1246 0000 FFF7FEBF 		b	chEvtWaitAll
 1247              	.LVL102:
ARM GAS  /tmp/ccIq0oiT.s 			page 24


 1248              		.cfi_endproc
 1249              	.LFE64:
 1250              		.size	_ZN10chibios_rt10BaseThread13waitAllEventsEm, .-_ZN10chibios_rt10BaseThread13waitAllEventsEm
 1251 0004 AFF30080 		.section	.text._ZN10chibios_rt10BaseThread19waitOneEventTimeoutEmm,"ax",%progbits
 1251      AFF30080 
 1251      AFF30080 
 1252              		.align	2
 1253              		.p2align 4,,15
 1254              		.global	_ZN10chibios_rt10BaseThread19waitOneEventTimeoutEmm
 1255              		.thumb
 1256              		.thumb_func
 1257              		.type	_ZN10chibios_rt10BaseThread19waitOneEventTimeoutEmm, %function
 1258              	_ZN10chibios_rt10BaseThread19waitOneEventTimeoutEmm:
 1259              	.LFB65:
 1260              		.loc 1 354 0
 1261              		.cfi_startproc
 1262              		@ args = 0, pretend = 0, frame = 0
 1263              		@ frame_needed = 0, uses_anonymous_args = 0
 1264              		@ link register save eliminated.
 1265              	.LVL103:
 1266              		.loc 1 357 0
 1267              		.loc 1 356 0
 1268 0000 FFF7FEBF 		b	chEvtWaitOneTimeout
 1269              	.LVL104:
 1270              		.cfi_endproc
 1271              	.LFE65:
 1272              		.size	_ZN10chibios_rt10BaseThread19waitOneEventTimeoutEmm, .-_ZN10chibios_rt10BaseThread19waitOneE
 1273 0004 AFF30080 		.section	.text._ZN10chibios_rt10BaseThread19waitAnyEventTimeoutEmm,"ax",%progbits
 1273      AFF30080 
 1273      AFF30080 
 1274              		.align	2
 1275              		.p2align 4,,15
 1276              		.global	_ZN10chibios_rt10BaseThread19waitAnyEventTimeoutEmm
 1277              		.thumb
 1278              		.thumb_func
 1279              		.type	_ZN10chibios_rt10BaseThread19waitAnyEventTimeoutEmm, %function
 1280              	_ZN10chibios_rt10BaseThread19waitAnyEventTimeoutEmm:
 1281              	.LFB66:
 1282              		.loc 1 360 0
 1283              		.cfi_startproc
 1284              		@ args = 0, pretend = 0, frame = 0
 1285              		@ frame_needed = 0, uses_anonymous_args = 0
 1286              		@ link register save eliminated.
 1287              	.LVL105:
 1288              		.loc 1 363 0
 1289              		.loc 1 362 0
 1290 0000 FFF7FEBF 		b	chEvtWaitAnyTimeout
 1291              	.LVL106:
 1292              		.cfi_endproc
 1293              	.LFE66:
 1294              		.size	_ZN10chibios_rt10BaseThread19waitAnyEventTimeoutEmm, .-_ZN10chibios_rt10BaseThread19waitAnyE
 1295 0004 AFF30080 		.section	.text._ZN10chibios_rt10BaseThread20waitAllEventsTimeoutEmm,"ax",%progbits
 1295      AFF30080 
 1295      AFF30080 
 1296              		.align	2
 1297              		.p2align 4,,15
 1298              		.global	_ZN10chibios_rt10BaseThread20waitAllEventsTimeoutEmm
ARM GAS  /tmp/ccIq0oiT.s 			page 25


 1299              		.thumb
 1300              		.thumb_func
 1301              		.type	_ZN10chibios_rt10BaseThread20waitAllEventsTimeoutEmm, %function
 1302              	_ZN10chibios_rt10BaseThread20waitAllEventsTimeoutEmm:
 1303              	.LFB67:
 1304              		.loc 1 366 0
 1305              		.cfi_startproc
 1306              		@ args = 0, pretend = 0, frame = 0
 1307              		@ frame_needed = 0, uses_anonymous_args = 0
 1308              		@ link register save eliminated.
 1309              	.LVL107:
 1310              		.loc 1 369 0
 1311              		.loc 1 368 0
 1312 0000 FFF7FEBF 		b	chEvtWaitAllTimeout
 1313              	.LVL108:
 1314              		.cfi_endproc
 1315              	.LFE67:
 1316              		.size	_ZN10chibios_rt10BaseThread20waitAllEventsTimeoutEmm, .-_ZN10chibios_rt10BaseThread20waitAll
 1317 0004 AFF30080 		.section	.text._ZN10chibios_rt10BaseThread14dispatchEventsEPKPFvlEm,"ax",%progbits
 1317      AFF30080 
 1317      AFF30080 
 1318              		.align	2
 1319              		.p2align 4,,15
 1320              		.global	_ZN10chibios_rt10BaseThread14dispatchEventsEPKPFvlEm
 1321              		.thumb
 1322              		.thumb_func
 1323              		.type	_ZN10chibios_rt10BaseThread14dispatchEventsEPKPFvlEm, %function
 1324              	_ZN10chibios_rt10BaseThread14dispatchEventsEPKPFvlEm:
 1325              	.LFB68:
 1326              		.loc 1 373 0
 1327              		.cfi_startproc
 1328              		@ args = 0, pretend = 0, frame = 0
 1329              		@ frame_needed = 0, uses_anonymous_args = 0
 1330              		@ link register save eliminated.
 1331              	.LVL109:
 1332              		.loc 1 376 0
 1333              		.loc 1 375 0
 1334 0000 FFF7FEBF 		b	chEvtDispatch
 1335              	.LVL110:
 1336              		.cfi_endproc
 1337              	.LFE68:
 1338              		.size	_ZN10chibios_rt10BaseThread14dispatchEventsEPKPFvlEm, .-_ZN10chibios_rt10BaseThread14dispatc
 1339 0004 AFF30080 		.section	.text._ZN10chibios_rt10BaseThread11unlockMutexEv,"ax",%progbits
 1339      AFF30080 
 1339      AFF30080 
 1340              		.align	2
 1341              		.p2align 4,,15
 1342              		.global	_ZN10chibios_rt10BaseThread11unlockMutexEv
 1343              		.thumb
 1344              		.thumb_func
 1345              		.type	_ZN10chibios_rt10BaseThread11unlockMutexEv, %function
 1346              	_ZN10chibios_rt10BaseThread11unlockMutexEv:
 1347              	.LFB69:
 1348              		.loc 1 380 0
 1349              		.cfi_startproc
 1350              		@ args = 0, pretend = 0, frame = 0
 1351              		@ frame_needed = 0, uses_anonymous_args = 0
ARM GAS  /tmp/ccIq0oiT.s 			page 26


 1352              		@ link register save eliminated.
 1353              		.loc 1 383 0
 1354              		.loc 1 382 0
 1355 0000 FFF7FEBF 		b	chMtxUnlock
 1356              	.LVL111:
 1357              		.cfi_endproc
 1358              	.LFE69:
 1359              		.size	_ZN10chibios_rt10BaseThread11unlockMutexEv, .-_ZN10chibios_rt10BaseThread11unlockMutexEv
 1360 0004 AFF30080 		.section	.text._ZN10chibios_rt10BaseThread12unlockMutexSEv,"ax",%progbits
 1360      AFF30080 
 1360      AFF30080 
 1361              		.align	2
 1362              		.p2align 4,,15
 1363              		.global	_ZN10chibios_rt10BaseThread12unlockMutexSEv
 1364              		.thumb
 1365              		.thumb_func
 1366              		.type	_ZN10chibios_rt10BaseThread12unlockMutexSEv, %function
 1367              	_ZN10chibios_rt10BaseThread12unlockMutexSEv:
 1368              	.LFB70:
 1369              		.loc 1 385 0
 1370              		.cfi_startproc
 1371              		@ args = 0, pretend = 0, frame = 0
 1372              		@ frame_needed = 0, uses_anonymous_args = 0
 1373              		@ link register save eliminated.
 1374              		.loc 1 388 0
 1375              		.loc 1 387 0
 1376 0000 FFF7FEBF 		b	chMtxUnlockS
 1377              	.LVL112:
 1378              		.cfi_endproc
 1379              	.LFE70:
 1380              		.size	_ZN10chibios_rt10BaseThread12unlockMutexSEv, .-_ZN10chibios_rt10BaseThread12unlockMutexSEv
 1381 0004 AFF30080 		.section	.text._ZN10chibios_rt10BaseThread16unlockAllMutexesEv,"ax",%progbits
 1381      AFF30080 
 1381      AFF30080 
 1382              		.align	2
 1383              		.p2align 4,,15
 1384              		.global	_ZN10chibios_rt10BaseThread16unlockAllMutexesEv
 1385              		.thumb
 1386              		.thumb_func
 1387              		.type	_ZN10chibios_rt10BaseThread16unlockAllMutexesEv, %function
 1388              	_ZN10chibios_rt10BaseThread16unlockAllMutexesEv:
 1389              	.LFB71:
 1390              		.loc 1 390 0
 1391              		.cfi_startproc
 1392              		@ args = 0, pretend = 0, frame = 0
 1393              		@ frame_needed = 0, uses_anonymous_args = 0
 1394              		@ link register save eliminated.
 1395              		.loc 1 393 0
 1396              		.loc 1 392 0
 1397 0000 FFF7FEBF 		b	chMtxUnlockAll
 1398              	.LVL113:
 1399              		.cfi_endproc
 1400              	.LFE71:
 1401              		.size	_ZN10chibios_rt10BaseThread16unlockAllMutexesEv, .-_ZN10chibios_rt10BaseThread16unlockAllMut
 1402 0004 AFF30080 		.section	.text._ZN10chibios_rt16CounterSemaphoreC2El,"ax",%progbits
 1402      AFF30080 
 1402      AFF30080 
ARM GAS  /tmp/ccIq0oiT.s 			page 27


 1403              		.align	2
 1404              		.p2align 4,,15
 1405              		.global	_ZN10chibios_rt16CounterSemaphoreC2El
 1406              		.thumb
 1407              		.thumb_func
 1408              		.type	_ZN10chibios_rt16CounterSemaphoreC2El, %function
 1409              	_ZN10chibios_rt16CounterSemaphoreC2El:
 1410              	.LFB73:
 1411              		.loc 1 400 0
 1412              		.cfi_startproc
 1413              		@ args = 0, pretend = 0, frame = 0
 1414              		@ frame_needed = 0, uses_anonymous_args = 0
 1415              	.LVL114:
 1416 0000 10B5     		push	{r4, lr}
 1417              	.LCFI6:
 1418              		.cfi_def_cfa_offset 8
 1419              		.cfi_offset 4, -8
 1420              		.cfi_offset 14, -4
 1421              		.loc 1 400 0
 1422 0002 0446     		mov	r4, r0
 1423              	.LBB40:
 1424              		.loc 1 402 0
 1425 0004 FFF7FEFF 		bl	chSemInit
 1426              	.LVL115:
 1427              	.LBE40:
 1428              		.loc 1 403 0
 1429 0008 2046     		mov	r0, r4
 1430 000a 10BD     		pop	{r4, pc}
 1431              		.cfi_endproc
 1432              	.LFE73:
 1433              		.size	_ZN10chibios_rt16CounterSemaphoreC2El, .-_ZN10chibios_rt16CounterSemaphoreC2El
 1434              		.global	_ZN10chibios_rt16CounterSemaphoreC1El
 1435              		.thumb_set _ZN10chibios_rt16CounterSemaphoreC1El,_ZN10chibios_rt16CounterSemaphoreC2El
 1436 000c AFF30080 		.section	.text._ZN10chibios_rt16CounterSemaphore5resetEl,"ax",%progbits
 1437              		.align	2
 1438              		.p2align 4,,15
 1439              		.global	_ZN10chibios_rt16CounterSemaphore5resetEl
 1440              		.thumb
 1441              		.thumb_func
 1442              		.type	_ZN10chibios_rt16CounterSemaphore5resetEl, %function
 1443              	_ZN10chibios_rt16CounterSemaphore5resetEl:
 1444              	.LFB75:
 1445              		.loc 1 405 0
 1446              		.cfi_startproc
 1447              		@ args = 0, pretend = 0, frame = 0
 1448              		@ frame_needed = 0, uses_anonymous_args = 0
 1449              		@ link register save eliminated.
 1450              	.LVL116:
 1451              		.loc 1 408 0
 1452              		.loc 1 407 0
 1453 0000 FFF7FEBF 		b	chSemReset
 1454              	.LVL117:
 1455              		.cfi_endproc
 1456              	.LFE75:
 1457              		.size	_ZN10chibios_rt16CounterSemaphore5resetEl, .-_ZN10chibios_rt16CounterSemaphore5resetEl
 1458 0004 AFF30080 		.section	.text._ZN10chibios_rt16CounterSemaphore6resetIEl,"ax",%progbits
 1458      AFF30080 
ARM GAS  /tmp/ccIq0oiT.s 			page 28


 1458      AFF30080 
 1459              		.align	2
 1460              		.p2align 4,,15
 1461              		.global	_ZN10chibios_rt16CounterSemaphore6resetIEl
 1462              		.thumb
 1463              		.thumb_func
 1464              		.type	_ZN10chibios_rt16CounterSemaphore6resetIEl, %function
 1465              	_ZN10chibios_rt16CounterSemaphore6resetIEl:
 1466              	.LFB76:
 1467              		.loc 1 410 0
 1468              		.cfi_startproc
 1469              		@ args = 0, pretend = 0, frame = 0
 1470              		@ frame_needed = 0, uses_anonymous_args = 0
 1471              		@ link register save eliminated.
 1472              	.LVL118:
 1473              		.loc 1 413 0
 1474              		.loc 1 412 0
 1475 0000 FFF7FEBF 		b	chSemResetI
 1476              	.LVL119:
 1477              		.cfi_endproc
 1478              	.LFE76:
 1479              		.size	_ZN10chibios_rt16CounterSemaphore6resetIEl, .-_ZN10chibios_rt16CounterSemaphore6resetIEl
 1480 0004 AFF30080 		.section	.text._ZN10chibios_rt16CounterSemaphore4waitEv,"ax",%progbits
 1480      AFF30080 
 1480      AFF30080 
 1481              		.align	2
 1482              		.p2align 4,,15
 1483              		.global	_ZN10chibios_rt16CounterSemaphore4waitEv
 1484              		.thumb
 1485              		.thumb_func
 1486              		.type	_ZN10chibios_rt16CounterSemaphore4waitEv, %function
 1487              	_ZN10chibios_rt16CounterSemaphore4waitEv:
 1488              	.LFB77:
 1489              		.loc 1 415 0
 1490              		.cfi_startproc
 1491              		@ args = 0, pretend = 0, frame = 0
 1492              		@ frame_needed = 0, uses_anonymous_args = 0
 1493              		@ link register save eliminated.
 1494              	.LVL120:
 1495              		.loc 1 418 0
 1496              		.loc 1 417 0
 1497 0000 FFF7FEBF 		b	chSemWait
 1498              	.LVL121:
 1499              		.cfi_endproc
 1500              	.LFE77:
 1501              		.size	_ZN10chibios_rt16CounterSemaphore4waitEv, .-_ZN10chibios_rt16CounterSemaphore4waitEv
 1502 0004 AFF30080 		.section	.text._ZN10chibios_rt16CounterSemaphore5waitSEv,"ax",%progbits
 1502      AFF30080 
 1502      AFF30080 
 1503              		.align	2
 1504              		.p2align 4,,15
 1505              		.global	_ZN10chibios_rt16CounterSemaphore5waitSEv
 1506              		.thumb
 1507              		.thumb_func
 1508              		.type	_ZN10chibios_rt16CounterSemaphore5waitSEv, %function
 1509              	_ZN10chibios_rt16CounterSemaphore5waitSEv:
 1510              	.LFB78:
ARM GAS  /tmp/ccIq0oiT.s 			page 29


 1511              		.loc 1 420 0
 1512              		.cfi_startproc
 1513              		@ args = 0, pretend = 0, frame = 0
 1514              		@ frame_needed = 0, uses_anonymous_args = 0
 1515              		@ link register save eliminated.
 1516              	.LVL122:
 1517              		.loc 1 423 0
 1518              		.loc 1 422 0
 1519 0000 FFF7FEBF 		b	chSemWaitS
 1520              	.LVL123:
 1521              		.cfi_endproc
 1522              	.LFE78:
 1523              		.size	_ZN10chibios_rt16CounterSemaphore5waitSEv, .-_ZN10chibios_rt16CounterSemaphore5waitSEv
 1524 0004 AFF30080 		.section	.text._ZN10chibios_rt16CounterSemaphore11waitTimeoutEm,"ax",%progbits
 1524      AFF30080 
 1524      AFF30080 
 1525              		.align	2
 1526              		.p2align 4,,15
 1527              		.global	_ZN10chibios_rt16CounterSemaphore11waitTimeoutEm
 1528              		.thumb
 1529              		.thumb_func
 1530              		.type	_ZN10chibios_rt16CounterSemaphore11waitTimeoutEm, %function
 1531              	_ZN10chibios_rt16CounterSemaphore11waitTimeoutEm:
 1532              	.LFB79:
 1533              		.loc 1 425 0
 1534              		.cfi_startproc
 1535              		@ args = 0, pretend = 0, frame = 0
 1536              		@ frame_needed = 0, uses_anonymous_args = 0
 1537              		@ link register save eliminated.
 1538              	.LVL124:
 1539              		.loc 1 428 0
 1540              		.loc 1 427 0
 1541 0000 FFF7FEBF 		b	chSemWaitTimeout
 1542              	.LVL125:
 1543              		.cfi_endproc
 1544              	.LFE79:
 1545              		.size	_ZN10chibios_rt16CounterSemaphore11waitTimeoutEm, .-_ZN10chibios_rt16CounterSemaphore11waitT
 1546 0004 AFF30080 		.section	.text._ZN10chibios_rt16CounterSemaphore12waitTimeoutSEm,"ax",%progbits
 1546      AFF30080 
 1546      AFF30080 
 1547              		.align	2
 1548              		.p2align 4,,15
 1549              		.global	_ZN10chibios_rt16CounterSemaphore12waitTimeoutSEm
 1550              		.thumb
 1551              		.thumb_func
 1552              		.type	_ZN10chibios_rt16CounterSemaphore12waitTimeoutSEm, %function
 1553              	_ZN10chibios_rt16CounterSemaphore12waitTimeoutSEm:
 1554              	.LFB80:
 1555              		.loc 1 430 0
 1556              		.cfi_startproc
 1557              		@ args = 0, pretend = 0, frame = 0
 1558              		@ frame_needed = 0, uses_anonymous_args = 0
 1559              		@ link register save eliminated.
 1560              	.LVL126:
 1561              		.loc 1 433 0
 1562              		.loc 1 432 0
 1563 0000 FFF7FEBF 		b	chSemWaitTimeoutS
ARM GAS  /tmp/ccIq0oiT.s 			page 30


 1564              	.LVL127:
 1565              		.cfi_endproc
 1566              	.LFE80:
 1567              		.size	_ZN10chibios_rt16CounterSemaphore12waitTimeoutSEm, .-_ZN10chibios_rt16CounterSemaphore12wait
 1568 0004 AFF30080 		.section	.text._ZN10chibios_rt16CounterSemaphore6signalEv,"ax",%progbits
 1568      AFF30080 
 1568      AFF30080 
 1569              		.align	2
 1570              		.p2align 4,,15
 1571              		.global	_ZN10chibios_rt16CounterSemaphore6signalEv
 1572              		.thumb
 1573              		.thumb_func
 1574              		.type	_ZN10chibios_rt16CounterSemaphore6signalEv, %function
 1575              	_ZN10chibios_rt16CounterSemaphore6signalEv:
 1576              	.LFB81:
 1577              		.loc 1 435 0
 1578              		.cfi_startproc
 1579              		@ args = 0, pretend = 0, frame = 0
 1580              		@ frame_needed = 0, uses_anonymous_args = 0
 1581              		@ link register save eliminated.
 1582              	.LVL128:
 1583              		.loc 1 438 0
 1584              		.loc 1 437 0
 1585 0000 FFF7FEBF 		b	chSemSignal
 1586              	.LVL129:
 1587              		.cfi_endproc
 1588              	.LFE81:
 1589              		.size	_ZN10chibios_rt16CounterSemaphore6signalEv, .-_ZN10chibios_rt16CounterSemaphore6signalEv
 1590 0004 AFF30080 		.section	.text._ZN10chibios_rt16CounterSemaphore7signalIEv,"ax",%progbits
 1590      AFF30080 
 1590      AFF30080 
 1591              		.align	2
 1592              		.p2align 4,,15
 1593              		.global	_ZN10chibios_rt16CounterSemaphore7signalIEv
 1594              		.thumb
 1595              		.thumb_func
 1596              		.type	_ZN10chibios_rt16CounterSemaphore7signalIEv, %function
 1597              	_ZN10chibios_rt16CounterSemaphore7signalIEv:
 1598              	.LFB82:
 1599              		.loc 1 440 0
 1600              		.cfi_startproc
 1601              		@ args = 0, pretend = 0, frame = 0
 1602              		@ frame_needed = 0, uses_anonymous_args = 0
 1603              		@ link register save eliminated.
 1604              	.LVL130:
 1605              		.loc 1 443 0
 1606              		.loc 1 442 0
 1607 0000 FFF7FEBF 		b	chSemSignalI
 1608              	.LVL131:
 1609              		.cfi_endproc
 1610              	.LFE82:
 1611              		.size	_ZN10chibios_rt16CounterSemaphore7signalIEv, .-_ZN10chibios_rt16CounterSemaphore7signalIEv
 1612 0004 AFF30080 		.section	.text._ZN10chibios_rt16CounterSemaphore11addCounterIEl,"ax",%progbits
 1612      AFF30080 
 1612      AFF30080 
 1613              		.align	2
 1614              		.p2align 4,,15
ARM GAS  /tmp/ccIq0oiT.s 			page 31


 1615              		.global	_ZN10chibios_rt16CounterSemaphore11addCounterIEl
 1616              		.thumb
 1617              		.thumb_func
 1618              		.type	_ZN10chibios_rt16CounterSemaphore11addCounterIEl, %function
 1619              	_ZN10chibios_rt16CounterSemaphore11addCounterIEl:
 1620              	.LFB83:
 1621              		.loc 1 445 0
 1622              		.cfi_startproc
 1623              		@ args = 0, pretend = 0, frame = 0
 1624              		@ frame_needed = 0, uses_anonymous_args = 0
 1625              		@ link register save eliminated.
 1626              	.LVL132:
 1627              		.loc 1 448 0
 1628              		.loc 1 447 0
 1629 0000 FFF7FEBF 		b	chSemAddCounterI
 1630              	.LVL133:
 1631              		.cfi_endproc
 1632              	.LFE83:
 1633              		.size	_ZN10chibios_rt16CounterSemaphore11addCounterIEl, .-_ZN10chibios_rt16CounterSemaphore11addCo
 1634 0004 AFF30080 		.section	.text._ZN10chibios_rt16CounterSemaphore11getCounterIEv,"ax",%progbits
 1634      AFF30080 
 1634      AFF30080 
 1635              		.align	2
 1636              		.p2align 4,,15
 1637              		.global	_ZN10chibios_rt16CounterSemaphore11getCounterIEv
 1638              		.thumb
 1639              		.thumb_func
 1640              		.type	_ZN10chibios_rt16CounterSemaphore11getCounterIEv, %function
 1641              	_ZN10chibios_rt16CounterSemaphore11getCounterIEv:
 1642              	.LFB84:
 1643              		.loc 1 450 0
 1644              		.cfi_startproc
 1645              		@ args = 0, pretend = 0, frame = 0
 1646              		@ frame_needed = 0, uses_anonymous_args = 0
 1647              		@ link register save eliminated.
 1648              	.LVL134:
 1649              		.loc 1 453 0
 1650 0000 8068     		ldr	r0, [r0, #8]
 1651              	.LVL135:
 1652 0002 7047     		bx	lr
 1653              		.cfi_endproc
 1654              	.LFE84:
 1655              		.size	_ZN10chibios_rt16CounterSemaphore11getCounterIEv, .-_ZN10chibios_rt16CounterSemaphore11getCo
 1656 0004 AFF30080 		.section	.text._ZN10chibios_rt16CounterSemaphore10signalWaitEPS0_S1_,"ax",%progbits
 1656      AFF30080 
 1656      AFF30080 
 1657              		.align	2
 1658              		.p2align 4,,15
 1659              		.global	_ZN10chibios_rt16CounterSemaphore10signalWaitEPS0_S1_
 1660              		.thumb
 1661              		.thumb_func
 1662              		.type	_ZN10chibios_rt16CounterSemaphore10signalWaitEPS0_S1_, %function
 1663              	_ZN10chibios_rt16CounterSemaphore10signalWaitEPS0_S1_:
 1664              	.LFB85:
 1665              		.loc 1 457 0
 1666              		.cfi_startproc
 1667              		@ args = 0, pretend = 0, frame = 0
ARM GAS  /tmp/ccIq0oiT.s 			page 32


 1668              		@ frame_needed = 0, uses_anonymous_args = 0
 1669              		@ link register save eliminated.
 1670              	.LVL136:
 1671              		.loc 1 460 0
 1672              		.loc 1 459 0
 1673 0000 FFF7FEBF 		b	chSemSignalWait
 1674              	.LVL137:
 1675              		.cfi_endproc
 1676              	.LFE85:
 1677              		.size	_ZN10chibios_rt16CounterSemaphore10signalWaitEPS0_S1_, .-_ZN10chibios_rt16CounterSemaphore10
 1678 0004 AFF30080 		.section	.text._ZN10chibios_rt15BinarySemaphoreC2Eb,"ax",%progbits
 1678      AFF30080 
 1678      AFF30080 
 1679              		.align	2
 1680              		.p2align 4,,15
 1681              		.global	_ZN10chibios_rt15BinarySemaphoreC2Eb
 1682              		.thumb
 1683              		.thumb_func
 1684              		.type	_ZN10chibios_rt15BinarySemaphoreC2Eb, %function
 1685              	_ZN10chibios_rt15BinarySemaphoreC2Eb:
 1686              	.LFB87:
 1687              		.loc 1 466 0
 1688              		.cfi_startproc
 1689              		@ args = 0, pretend = 0, frame = 0
 1690              		@ frame_needed = 0, uses_anonymous_args = 0
 1691              	.LVL138:
 1692 0000 10B5     		push	{r4, lr}
 1693              	.LCFI7:
 1694              		.cfi_def_cfa_offset 8
 1695              		.cfi_offset 4, -8
 1696              		.cfi_offset 14, -4
 1697              	.LBB41:
 1698              		.loc 1 468 0
 1699 0002 81F00101 		eor	r1, r1, #1
 1700              	.LVL139:
 1701              	.LBE41:
 1702              		.loc 1 466 0
 1703 0006 0446     		mov	r4, r0
 1704              	.LBB42:
 1705              		.loc 1 468 0
 1706 0008 FFF7FEFF 		bl	chSemInit
 1707              	.LVL140:
 1708              	.LBE42:
 1709              		.loc 1 469 0
 1710 000c 2046     		mov	r0, r4
 1711 000e 10BD     		pop	{r4, pc}
 1712              		.cfi_endproc
 1713              	.LFE87:
 1714              		.size	_ZN10chibios_rt15BinarySemaphoreC2Eb, .-_ZN10chibios_rt15BinarySemaphoreC2Eb
 1715              		.global	_ZN10chibios_rt15BinarySemaphoreC1Eb
 1716              		.thumb_set _ZN10chibios_rt15BinarySemaphoreC1Eb,_ZN10chibios_rt15BinarySemaphoreC2Eb
 1717              		.section	.text._ZN10chibios_rt15BinarySemaphore4waitEv,"ax",%progbits
 1718              		.align	2
 1719              		.p2align 4,,15
 1720              		.global	_ZN10chibios_rt15BinarySemaphore4waitEv
 1721              		.thumb
 1722              		.thumb_func
ARM GAS  /tmp/ccIq0oiT.s 			page 33


 1723              		.type	_ZN10chibios_rt15BinarySemaphore4waitEv, %function
 1724              	_ZN10chibios_rt15BinarySemaphore4waitEv:
 1725              	.LFB89:
 1726              		.loc 1 471 0
 1727              		.cfi_startproc
 1728              		@ args = 0, pretend = 0, frame = 0
 1729              		@ frame_needed = 0, uses_anonymous_args = 0
 1730              		@ link register save eliminated.
 1731              	.LVL141:
 1732              		.loc 1 474 0
 1733              		.loc 1 473 0
 1734 0000 FFF7FEBF 		b	chSemWait
 1735              	.LVL142:
 1736              		.cfi_endproc
 1737              	.LFE89:
 1738              		.size	_ZN10chibios_rt15BinarySemaphore4waitEv, .-_ZN10chibios_rt15BinarySemaphore4waitEv
 1739 0004 AFF30080 		.section	.text._ZN10chibios_rt15BinarySemaphore5waitSEv,"ax",%progbits
 1739      AFF30080 
 1739      AFF30080 
 1740              		.align	2
 1741              		.p2align 4,,15
 1742              		.global	_ZN10chibios_rt15BinarySemaphore5waitSEv
 1743              		.thumb
 1744              		.thumb_func
 1745              		.type	_ZN10chibios_rt15BinarySemaphore5waitSEv, %function
 1746              	_ZN10chibios_rt15BinarySemaphore5waitSEv:
 1747              	.LFB90:
 1748              		.loc 1 476 0
 1749              		.cfi_startproc
 1750              		@ args = 0, pretend = 0, frame = 0
 1751              		@ frame_needed = 0, uses_anonymous_args = 0
 1752              		@ link register save eliminated.
 1753              	.LVL143:
 1754              		.loc 1 479 0
 1755              		.loc 1 478 0
 1756 0000 FFF7FEBF 		b	chSemWaitS
 1757              	.LVL144:
 1758              		.cfi_endproc
 1759              	.LFE90:
 1760              		.size	_ZN10chibios_rt15BinarySemaphore5waitSEv, .-_ZN10chibios_rt15BinarySemaphore5waitSEv
 1761 0004 AFF30080 		.section	.text._ZN10chibios_rt15BinarySemaphore11waitTimeoutEm,"ax",%progbits
 1761      AFF30080 
 1761      AFF30080 
 1762              		.align	2
 1763              		.p2align 4,,15
 1764              		.global	_ZN10chibios_rt15BinarySemaphore11waitTimeoutEm
 1765              		.thumb
 1766              		.thumb_func
 1767              		.type	_ZN10chibios_rt15BinarySemaphore11waitTimeoutEm, %function
 1768              	_ZN10chibios_rt15BinarySemaphore11waitTimeoutEm:
 1769              	.LFB91:
 1770              		.loc 1 481 0
 1771              		.cfi_startproc
 1772              		@ args = 0, pretend = 0, frame = 0
 1773              		@ frame_needed = 0, uses_anonymous_args = 0
 1774              		@ link register save eliminated.
 1775              	.LVL145:
ARM GAS  /tmp/ccIq0oiT.s 			page 34


 1776              		.loc 1 484 0
 1777              		.loc 1 483 0
 1778 0000 FFF7FEBF 		b	chSemWaitTimeout
 1779              	.LVL146:
 1780              		.cfi_endproc
 1781              	.LFE91:
 1782              		.size	_ZN10chibios_rt15BinarySemaphore11waitTimeoutEm, .-_ZN10chibios_rt15BinarySemaphore11waitTim
 1783 0004 AFF30080 		.section	.text._ZN10chibios_rt15BinarySemaphore12waitTimeoutSEm,"ax",%progbits
 1783      AFF30080 
 1783      AFF30080 
 1784              		.align	2
 1785              		.p2align 4,,15
 1786              		.global	_ZN10chibios_rt15BinarySemaphore12waitTimeoutSEm
 1787              		.thumb
 1788              		.thumb_func
 1789              		.type	_ZN10chibios_rt15BinarySemaphore12waitTimeoutSEm, %function
 1790              	_ZN10chibios_rt15BinarySemaphore12waitTimeoutSEm:
 1791              	.LFB92:
 1792              		.loc 1 486 0
 1793              		.cfi_startproc
 1794              		@ args = 0, pretend = 0, frame = 0
 1795              		@ frame_needed = 0, uses_anonymous_args = 0
 1796              		@ link register save eliminated.
 1797              	.LVL147:
 1798              		.loc 1 489 0
 1799              		.loc 1 488 0
 1800 0000 FFF7FEBF 		b	chSemWaitTimeoutS
 1801              	.LVL148:
 1802              		.cfi_endproc
 1803              	.LFE92:
 1804              		.size	_ZN10chibios_rt15BinarySemaphore12waitTimeoutSEm, .-_ZN10chibios_rt15BinarySemaphore12waitTi
 1805 0004 AFF30080 		.section	.text._ZN10chibios_rt15BinarySemaphore5resetEb,"ax",%progbits
 1805      AFF30080 
 1805      AFF30080 
 1806              		.align	2
 1807              		.p2align 4,,15
 1808              		.global	_ZN10chibios_rt15BinarySemaphore5resetEb
 1809              		.thumb
 1810              		.thumb_func
 1811              		.type	_ZN10chibios_rt15BinarySemaphore5resetEb, %function
 1812              	_ZN10chibios_rt15BinarySemaphore5resetEb:
 1813              	.LFB93:
 1814              		.loc 1 491 0
 1815              		.cfi_startproc
 1816              		@ args = 0, pretend = 0, frame = 0
 1817              		@ frame_needed = 0, uses_anonymous_args = 0
 1818              		@ link register save eliminated.
 1819              	.LVL149:
 1820              		.loc 1 493 0
 1821 0000 81F00101 		eor	r1, r1, #1
 1822              	.LVL150:
 1823              		.loc 1 494 0
 1824              		.loc 1 493 0
 1825 0004 FFF7FEBF 		b	chSemReset
 1826              	.LVL151:
 1827              		.cfi_endproc
 1828              	.LFE93:
ARM GAS  /tmp/ccIq0oiT.s 			page 35


 1829              		.size	_ZN10chibios_rt15BinarySemaphore5resetEb, .-_ZN10chibios_rt15BinarySemaphore5resetEb
 1830 0008 AFF30080 		.section	.text._ZN10chibios_rt15BinarySemaphore6resetIEb,"ax",%progbits
 1830      AFF30080 
 1831              		.align	2
 1832              		.p2align 4,,15
 1833              		.global	_ZN10chibios_rt15BinarySemaphore6resetIEb
 1834              		.thumb
 1835              		.thumb_func
 1836              		.type	_ZN10chibios_rt15BinarySemaphore6resetIEb, %function
 1837              	_ZN10chibios_rt15BinarySemaphore6resetIEb:
 1838              	.LFB94:
 1839              		.loc 1 496 0
 1840              		.cfi_startproc
 1841              		@ args = 0, pretend = 0, frame = 0
 1842              		@ frame_needed = 0, uses_anonymous_args = 0
 1843              		@ link register save eliminated.
 1844              	.LVL152:
 1845              		.loc 1 498 0
 1846 0000 81F00101 		eor	r1, r1, #1
 1847              	.LVL153:
 1848              		.loc 1 499 0
 1849              		.loc 1 498 0
 1850 0004 FFF7FEBF 		b	chSemResetI
 1851              	.LVL154:
 1852              		.cfi_endproc
 1853              	.LFE94:
 1854              		.size	_ZN10chibios_rt15BinarySemaphore6resetIEb, .-_ZN10chibios_rt15BinarySemaphore6resetIEb
 1855 0008 AFF30080 		.section	.text._ZN10chibios_rt15BinarySemaphore6signalEv,"ax",%progbits
 1855      AFF30080 
 1856              		.align	2
 1857              		.p2align 4,,15
 1858              		.global	_ZN10chibios_rt15BinarySemaphore6signalEv
 1859              		.thumb
 1860              		.thumb_func
 1861              		.type	_ZN10chibios_rt15BinarySemaphore6signalEv, %function
 1862              	_ZN10chibios_rt15BinarySemaphore6signalEv:
 1863              	.LFB95:
 1864              		.loc 1 501 0
 1865              		.cfi_startproc
 1866              		@ args = 0, pretend = 0, frame = 0
 1867              		@ frame_needed = 0, uses_anonymous_args = 0
 1868              	.LVL155:
 1869 0000 08B5     		push	{r3, lr}
 1870              	.LCFI8:
 1871              		.cfi_def_cfa_offset 8
 1872              		.cfi_offset 3, -8
 1873              		.cfi_offset 14, -4
 1874              	.LBB43:
 1875              	.LBB44:
 1876              		.loc 1 503 0
 1877 0002 2023     		movs	r3, #32
 1878              	.LVL156:
 1879              	@ 503 "../../os/various/cpp_wrappers/ch.cpp" 1
 1880 0004 83F31188 		msr     BASEPRI, r3
 1881              	@ 0 "" 2
 1882              	.LVL157:
 1883              		.thumb
ARM GAS  /tmp/ccIq0oiT.s 			page 36


 1884              	.LBE44:
 1885 0008 8368     		ldr	r3, [r0, #8]
 1886              	.LVL158:
 1887 000a 002B     		cmp	r3, #0
 1888 000c 05DD     		ble	.L86
 1889              	.LVL159:
 1890              	.L85:
 1891              		.loc 1 503 0 is_stmt 0 discriminator 2
 1892 000e FFF7FEFF 		bl	chSchRescheduleS
 1893              	.LVL160:
 1894              	.LBB45:
 1895 0012 0023     		movs	r3, #0
 1896              	.LVL161:
 1897              	@ 503 "../../os/various/cpp_wrappers/ch.cpp" 1
 1898 0014 83F31188 		msr     BASEPRI, r3
 1899              	@ 0 "" 2
 1900              	.LVL162:
 1901              		.thumb
 1902 0018 08BD     		pop	{r3, pc}
 1903              	.LVL163:
 1904              	.L86:
 1905              	.LBE45:
 1906              		.loc 1 503 0 discriminator 1
 1907 001a FFF7FEFF 		bl	chSemSignalI
 1908              	.LVL164:
 1909 001e F6E7     		b	.L85
 1910              	.LBE43:
 1911              		.cfi_endproc
 1912              	.LFE95:
 1913              		.size	_ZN10chibios_rt15BinarySemaphore6signalEv, .-_ZN10chibios_rt15BinarySemaphore6signalEv
 1914              		.section	.text._ZN10chibios_rt15BinarySemaphore7signalIEv,"ax",%progbits
 1915              		.align	2
 1916              		.p2align 4,,15
 1917              		.global	_ZN10chibios_rt15BinarySemaphore7signalIEv
 1918              		.thumb
 1919              		.thumb_func
 1920              		.type	_ZN10chibios_rt15BinarySemaphore7signalIEv, %function
 1921              	_ZN10chibios_rt15BinarySemaphore7signalIEv:
 1922              	.LFB96:
 1923              		.loc 1 506 0 is_stmt 1
 1924              		.cfi_startproc
 1925              		@ args = 0, pretend = 0, frame = 0
 1926              		@ frame_needed = 0, uses_anonymous_args = 0
 1927              		@ link register save eliminated.
 1928              	.LVL165:
 1929              		.loc 1 508 0
 1930 0000 8368     		ldr	r3, [r0, #8]
 1931 0002 002B     		cmp	r3, #0
 1932 0004 00DD     		ble	.L89
 1933 0006 7047     		bx	lr
 1934              	.L89:
 1935              		.loc 1 509 0 discriminator 1
 1936              		.loc 1 508 0 discriminator 1
 1937 0008 FFF7FEBF 		b	chSemSignalI
 1938              	.LVL166:
 1939              		.cfi_endproc
 1940              	.LFE96:
ARM GAS  /tmp/ccIq0oiT.s 			page 37


 1941              		.size	_ZN10chibios_rt15BinarySemaphore7signalIEv, .-_ZN10chibios_rt15BinarySemaphore7signalIEv
 1942 000c AFF30080 		.section	.text._ZN10chibios_rt15BinarySemaphore9getStateIEv,"ax",%progbits
 1943              		.align	2
 1944              		.p2align 4,,15
 1945              		.global	_ZN10chibios_rt15BinarySemaphore9getStateIEv
 1946              		.thumb
 1947              		.thumb_func
 1948              		.type	_ZN10chibios_rt15BinarySemaphore9getStateIEv, %function
 1949              	_ZN10chibios_rt15BinarySemaphore9getStateIEv:
 1950              	.LFB97:
 1951              		.loc 1 511 0
 1952              		.cfi_startproc
 1953              		@ args = 0, pretend = 0, frame = 0
 1954              		@ frame_needed = 0, uses_anonymous_args = 0
 1955              		@ link register save eliminated.
 1956              	.LVL167:
 1957              		.loc 1 513 0
 1958 0000 8068     		ldr	r0, [r0, #8]
 1959              	.LVL168:
 1960              		.loc 1 514 0
 1961 0002 0028     		cmp	r0, #0
 1962 0004 CCBF     		ite	gt
 1963 0006 0020     		movgt	r0, #0
 1964 0008 0120     		movle	r0, #1
 1965 000a 7047     		bx	lr
 1966              		.cfi_endproc
 1967              	.LFE97:
 1968              		.size	_ZN10chibios_rt15BinarySemaphore9getStateIEv, .-_ZN10chibios_rt15BinarySemaphore9getStateIEv
 1969 000c AFF30080 		.section	.text._ZN10chibios_rt5MutexC2Ev,"ax",%progbits
 1970              		.align	2
 1971              		.p2align 4,,15
 1972              		.global	_ZN10chibios_rt5MutexC2Ev
 1973              		.thumb
 1974              		.thumb_func
 1975              		.type	_ZN10chibios_rt5MutexC2Ev, %function
 1976              	_ZN10chibios_rt5MutexC2Ev:
 1977              	.LFB99:
 1978              		.loc 1 521 0
 1979              		.cfi_startproc
 1980              		@ args = 0, pretend = 0, frame = 0
 1981              		@ frame_needed = 0, uses_anonymous_args = 0
 1982              	.LVL169:
 1983 0000 10B5     		push	{r4, lr}
 1984              	.LCFI9:
 1985              		.cfi_def_cfa_offset 8
 1986              		.cfi_offset 4, -8
 1987              		.cfi_offset 14, -4
 1988              		.loc 1 521 0
 1989 0002 0446     		mov	r4, r0
 1990              	.LBB46:
 1991              		.loc 1 523 0
 1992 0004 FFF7FEFF 		bl	chMtxInit
 1993              	.LVL170:
 1994              	.LBE46:
 1995              		.loc 1 524 0
 1996 0008 2046     		mov	r0, r4
 1997 000a 10BD     		pop	{r4, pc}
ARM GAS  /tmp/ccIq0oiT.s 			page 38


 1998              		.cfi_endproc
 1999              	.LFE99:
 2000              		.size	_ZN10chibios_rt5MutexC2Ev, .-_ZN10chibios_rt5MutexC2Ev
 2001              		.global	_ZN10chibios_rt5MutexC1Ev
 2002              		.thumb_set _ZN10chibios_rt5MutexC1Ev,_ZN10chibios_rt5MutexC2Ev
 2003 000c AFF30080 		.section	.text._ZN10chibios_rt5Mutex7tryLockEv,"ax",%progbits
 2004              		.align	2
 2005              		.p2align 4,,15
 2006              		.global	_ZN10chibios_rt5Mutex7tryLockEv
 2007              		.thumb
 2008              		.thumb_func
 2009              		.type	_ZN10chibios_rt5Mutex7tryLockEv, %function
 2010              	_ZN10chibios_rt5Mutex7tryLockEv:
 2011              	.LFB101:
 2012              		.loc 1 526 0
 2013              		.cfi_startproc
 2014              		@ args = 0, pretend = 0, frame = 0
 2015              		@ frame_needed = 0, uses_anonymous_args = 0
 2016              		@ link register save eliminated.
 2017              	.LVL171:
 2018              		.loc 1 529 0
 2019              		.loc 1 528 0
 2020 0000 FFF7FEBF 		b	chMtxTryLock
 2021              	.LVL172:
 2022              		.cfi_endproc
 2023              	.LFE101:
 2024              		.size	_ZN10chibios_rt5Mutex7tryLockEv, .-_ZN10chibios_rt5Mutex7tryLockEv
 2025 0004 AFF30080 		.section	.text._ZN10chibios_rt5Mutex8tryLockSEv,"ax",%progbits
 2025      AFF30080 
 2025      AFF30080 
 2026              		.align	2
 2027              		.p2align 4,,15
 2028              		.global	_ZN10chibios_rt5Mutex8tryLockSEv
 2029              		.thumb
 2030              		.thumb_func
 2031              		.type	_ZN10chibios_rt5Mutex8tryLockSEv, %function
 2032              	_ZN10chibios_rt5Mutex8tryLockSEv:
 2033              	.LFB102:
 2034              		.loc 1 531 0
 2035              		.cfi_startproc
 2036              		@ args = 0, pretend = 0, frame = 0
 2037              		@ frame_needed = 0, uses_anonymous_args = 0
 2038              		@ link register save eliminated.
 2039              	.LVL173:
 2040              		.loc 1 534 0
 2041              		.loc 1 533 0
 2042 0000 FFF7FEBF 		b	chMtxTryLockS
 2043              	.LVL174:
 2044              		.cfi_endproc
 2045              	.LFE102:
 2046              		.size	_ZN10chibios_rt5Mutex8tryLockSEv, .-_ZN10chibios_rt5Mutex8tryLockSEv
 2047 0004 AFF30080 		.section	.text._ZN10chibios_rt5Mutex4lockEv,"ax",%progbits
 2047      AFF30080 
 2047      AFF30080 
 2048              		.align	2
 2049              		.p2align 4,,15
 2050              		.global	_ZN10chibios_rt5Mutex4lockEv
ARM GAS  /tmp/ccIq0oiT.s 			page 39


 2051              		.thumb
 2052              		.thumb_func
 2053              		.type	_ZN10chibios_rt5Mutex4lockEv, %function
 2054              	_ZN10chibios_rt5Mutex4lockEv:
 2055              	.LFB103:
 2056              		.loc 1 536 0
 2057              		.cfi_startproc
 2058              		@ args = 0, pretend = 0, frame = 0
 2059              		@ frame_needed = 0, uses_anonymous_args = 0
 2060              		@ link register save eliminated.
 2061              	.LVL175:
 2062              		.loc 1 539 0
 2063              		.loc 1 538 0
 2064 0000 FFF7FEBF 		b	chMtxLock
 2065              	.LVL176:
 2066              		.cfi_endproc
 2067              	.LFE103:
 2068              		.size	_ZN10chibios_rt5Mutex4lockEv, .-_ZN10chibios_rt5Mutex4lockEv
 2069 0004 AFF30080 		.section	.text._ZN10chibios_rt5Mutex5lockSEv,"ax",%progbits
 2069      AFF30080 
 2069      AFF30080 
 2070              		.align	2
 2071              		.p2align 4,,15
 2072              		.global	_ZN10chibios_rt5Mutex5lockSEv
 2073              		.thumb
 2074              		.thumb_func
 2075              		.type	_ZN10chibios_rt5Mutex5lockSEv, %function
 2076              	_ZN10chibios_rt5Mutex5lockSEv:
 2077              	.LFB104:
 2078              		.loc 1 541 0
 2079              		.cfi_startproc
 2080              		@ args = 0, pretend = 0, frame = 0
 2081              		@ frame_needed = 0, uses_anonymous_args = 0
 2082              		@ link register save eliminated.
 2083              	.LVL177:
 2084              		.loc 1 544 0
 2085              		.loc 1 543 0
 2086 0000 FFF7FEBF 		b	chMtxLockS
 2087              	.LVL178:
 2088              		.cfi_endproc
 2089              	.LFE104:
 2090              		.size	_ZN10chibios_rt5Mutex5lockSEv, .-_ZN10chibios_rt5Mutex5lockSEv
 2091 0004 AFF30080 		.section	.text._ZN10chibios_rt7CondVarC2Ev,"ax",%progbits
 2091      AFF30080 
 2091      AFF30080 
 2092              		.align	2
 2093              		.p2align 4,,15
 2094              		.global	_ZN10chibios_rt7CondVarC2Ev
 2095              		.thumb
 2096              		.thumb_func
 2097              		.type	_ZN10chibios_rt7CondVarC2Ev, %function
 2098              	_ZN10chibios_rt7CondVarC2Ev:
 2099              	.LFB106:
 2100              		.loc 1 550 0
 2101              		.cfi_startproc
 2102              		@ args = 0, pretend = 0, frame = 0
 2103              		@ frame_needed = 0, uses_anonymous_args = 0
ARM GAS  /tmp/ccIq0oiT.s 			page 40


 2104              	.LVL179:
 2105 0000 10B5     		push	{r4, lr}
 2106              	.LCFI10:
 2107              		.cfi_def_cfa_offset 8
 2108              		.cfi_offset 4, -8
 2109              		.cfi_offset 14, -4
 2110              		.loc 1 550 0
 2111 0002 0446     		mov	r4, r0
 2112              	.LBB47:
 2113              		.loc 1 552 0
 2114 0004 FFF7FEFF 		bl	chCondInit
 2115              	.LVL180:
 2116              	.LBE47:
 2117              		.loc 1 553 0
 2118 0008 2046     		mov	r0, r4
 2119 000a 10BD     		pop	{r4, pc}
 2120              		.cfi_endproc
 2121              	.LFE106:
 2122              		.size	_ZN10chibios_rt7CondVarC2Ev, .-_ZN10chibios_rt7CondVarC2Ev
 2123              		.global	_ZN10chibios_rt7CondVarC1Ev
 2124              		.thumb_set _ZN10chibios_rt7CondVarC1Ev,_ZN10chibios_rt7CondVarC2Ev
 2125 000c AFF30080 		.section	.text._ZN10chibios_rt7CondVar6signalEv,"ax",%progbits
 2126              		.align	2
 2127              		.p2align 4,,15
 2128              		.global	_ZN10chibios_rt7CondVar6signalEv
 2129              		.thumb
 2130              		.thumb_func
 2131              		.type	_ZN10chibios_rt7CondVar6signalEv, %function
 2132              	_ZN10chibios_rt7CondVar6signalEv:
 2133              	.LFB108:
 2134              		.loc 1 555 0
 2135              		.cfi_startproc
 2136              		@ args = 0, pretend = 0, frame = 0
 2137              		@ frame_needed = 0, uses_anonymous_args = 0
 2138              		@ link register save eliminated.
 2139              	.LVL181:
 2140              		.loc 1 558 0
 2141              		.loc 1 557 0
 2142 0000 FFF7FEBF 		b	chCondSignal
 2143              	.LVL182:
 2144              		.cfi_endproc
 2145              	.LFE108:
 2146              		.size	_ZN10chibios_rt7CondVar6signalEv, .-_ZN10chibios_rt7CondVar6signalEv
 2147 0004 AFF30080 		.section	.text._ZN10chibios_rt7CondVar7signalIEv,"ax",%progbits
 2147      AFF30080 
 2147      AFF30080 
 2148              		.align	2
 2149              		.p2align 4,,15
 2150              		.global	_ZN10chibios_rt7CondVar7signalIEv
 2151              		.thumb
 2152              		.thumb_func
 2153              		.type	_ZN10chibios_rt7CondVar7signalIEv, %function
 2154              	_ZN10chibios_rt7CondVar7signalIEv:
 2155              	.LFB109:
 2156              		.loc 1 560 0
 2157              		.cfi_startproc
 2158              		@ args = 0, pretend = 0, frame = 0
ARM GAS  /tmp/ccIq0oiT.s 			page 41


 2159              		@ frame_needed = 0, uses_anonymous_args = 0
 2160              		@ link register save eliminated.
 2161              	.LVL183:
 2162              		.loc 1 563 0
 2163              		.loc 1 562 0
 2164 0000 FFF7FEBF 		b	chCondSignalI
 2165              	.LVL184:
 2166              		.cfi_endproc
 2167              	.LFE109:
 2168              		.size	_ZN10chibios_rt7CondVar7signalIEv, .-_ZN10chibios_rt7CondVar7signalIEv
 2169 0004 AFF30080 		.section	.text._ZN10chibios_rt7CondVar9broadcastEv,"ax",%progbits
 2169      AFF30080 
 2169      AFF30080 
 2170              		.align	2
 2171              		.p2align 4,,15
 2172              		.global	_ZN10chibios_rt7CondVar9broadcastEv
 2173              		.thumb
 2174              		.thumb_func
 2175              		.type	_ZN10chibios_rt7CondVar9broadcastEv, %function
 2176              	_ZN10chibios_rt7CondVar9broadcastEv:
 2177              	.LFB110:
 2178              		.loc 1 565 0
 2179              		.cfi_startproc
 2180              		@ args = 0, pretend = 0, frame = 0
 2181              		@ frame_needed = 0, uses_anonymous_args = 0
 2182              		@ link register save eliminated.
 2183              	.LVL185:
 2184              		.loc 1 568 0
 2185              		.loc 1 567 0
 2186 0000 FFF7FEBF 		b	chCondBroadcast
 2187              	.LVL186:
 2188              		.cfi_endproc
 2189              	.LFE110:
 2190              		.size	_ZN10chibios_rt7CondVar9broadcastEv, .-_ZN10chibios_rt7CondVar9broadcastEv
 2191 0004 AFF30080 		.section	.text._ZN10chibios_rt7CondVar10broadcastIEv,"ax",%progbits
 2191      AFF30080 
 2191      AFF30080 
 2192              		.align	2
 2193              		.p2align 4,,15
 2194              		.global	_ZN10chibios_rt7CondVar10broadcastIEv
 2195              		.thumb
 2196              		.thumb_func
 2197              		.type	_ZN10chibios_rt7CondVar10broadcastIEv, %function
 2198              	_ZN10chibios_rt7CondVar10broadcastIEv:
 2199              	.LFB111:
 2200              		.loc 1 570 0
 2201              		.cfi_startproc
 2202              		@ args = 0, pretend = 0, frame = 0
 2203              		@ frame_needed = 0, uses_anonymous_args = 0
 2204              		@ link register save eliminated.
 2205              	.LVL187:
 2206              		.loc 1 573 0
 2207              		.loc 1 572 0
 2208 0000 FFF7FEBF 		b	chCondBroadcastI
 2209              	.LVL188:
 2210              		.cfi_endproc
 2211              	.LFE111:
ARM GAS  /tmp/ccIq0oiT.s 			page 42


 2212              		.size	_ZN10chibios_rt7CondVar10broadcastIEv, .-_ZN10chibios_rt7CondVar10broadcastIEv
 2213 0004 AFF30080 		.section	.text._ZN10chibios_rt7CondVar4waitEv,"ax",%progbits
 2213      AFF30080 
 2213      AFF30080 
 2214              		.align	2
 2215              		.p2align 4,,15
 2216              		.global	_ZN10chibios_rt7CondVar4waitEv
 2217              		.thumb
 2218              		.thumb_func
 2219              		.type	_ZN10chibios_rt7CondVar4waitEv, %function
 2220              	_ZN10chibios_rt7CondVar4waitEv:
 2221              	.LFB112:
 2222              		.loc 1 575 0
 2223              		.cfi_startproc
 2224              		@ args = 0, pretend = 0, frame = 0
 2225              		@ frame_needed = 0, uses_anonymous_args = 0
 2226              		@ link register save eliminated.
 2227              	.LVL189:
 2228              		.loc 1 578 0
 2229              		.loc 1 577 0
 2230 0000 FFF7FEBF 		b	chCondWait
 2231              	.LVL190:
 2232              		.cfi_endproc
 2233              	.LFE112:
 2234              		.size	_ZN10chibios_rt7CondVar4waitEv, .-_ZN10chibios_rt7CondVar4waitEv
 2235 0004 AFF30080 		.section	.text._ZN10chibios_rt7CondVar5waitSEv,"ax",%progbits
 2235      AFF30080 
 2235      AFF30080 
 2236              		.align	2
 2237              		.p2align 4,,15
 2238              		.global	_ZN10chibios_rt7CondVar5waitSEv
 2239              		.thumb
 2240              		.thumb_func
 2241              		.type	_ZN10chibios_rt7CondVar5waitSEv, %function
 2242              	_ZN10chibios_rt7CondVar5waitSEv:
 2243              	.LFB113:
 2244              		.loc 1 580 0
 2245              		.cfi_startproc
 2246              		@ args = 0, pretend = 0, frame = 0
 2247              		@ frame_needed = 0, uses_anonymous_args = 0
 2248              		@ link register save eliminated.
 2249              	.LVL191:
 2250              		.loc 1 583 0
 2251              		.loc 1 582 0
 2252 0000 FFF7FEBF 		b	chCondWaitS
 2253              	.LVL192:
 2254              		.cfi_endproc
 2255              	.LFE113:
 2256              		.size	_ZN10chibios_rt7CondVar5waitSEv, .-_ZN10chibios_rt7CondVar5waitSEv
 2257 0004 AFF30080 		.section	.text._ZN10chibios_rt7CondVar11waitTimeoutEm,"ax",%progbits
 2257      AFF30080 
 2257      AFF30080 
 2258              		.align	2
 2259              		.p2align 4,,15
 2260              		.global	_ZN10chibios_rt7CondVar11waitTimeoutEm
 2261              		.thumb
 2262              		.thumb_func
ARM GAS  /tmp/ccIq0oiT.s 			page 43


 2263              		.type	_ZN10chibios_rt7CondVar11waitTimeoutEm, %function
 2264              	_ZN10chibios_rt7CondVar11waitTimeoutEm:
 2265              	.LFB114:
 2266              		.loc 1 586 0
 2267              		.cfi_startproc
 2268              		@ args = 0, pretend = 0, frame = 0
 2269              		@ frame_needed = 0, uses_anonymous_args = 0
 2270              		@ link register save eliminated.
 2271              	.LVL193:
 2272              		.loc 1 589 0
 2273              		.loc 1 588 0
 2274 0000 FFF7FEBF 		b	chCondWaitTimeout
 2275              	.LVL194:
 2276              		.cfi_endproc
 2277              	.LFE114:
 2278              		.size	_ZN10chibios_rt7CondVar11waitTimeoutEm, .-_ZN10chibios_rt7CondVar11waitTimeoutEm
 2279 0004 AFF30080 		.section	.text._ZN10chibios_rt11EvtListener16getAndClearFlagsEv,"ax",%progbits
 2279      AFF30080 
 2279      AFF30080 
 2280              		.align	2
 2281              		.p2align 4,,15
 2282              		.global	_ZN10chibios_rt11EvtListener16getAndClearFlagsEv
 2283              		.thumb
 2284              		.thumb_func
 2285              		.type	_ZN10chibios_rt11EvtListener16getAndClearFlagsEv, %function
 2286              	_ZN10chibios_rt11EvtListener16getAndClearFlagsEv:
 2287              	.LFB115:
 2288              		.loc 1 598 0
 2289              		.cfi_startproc
 2290              		@ args = 0, pretend = 0, frame = 0
 2291              		@ frame_needed = 0, uses_anonymous_args = 0
 2292              		@ link register save eliminated.
 2293              	.LVL195:
 2294              		.loc 1 601 0
 2295              		.loc 1 600 0
 2296 0000 FFF7FEBF 		b	chEvtGetAndClearFlags
 2297              	.LVL196:
 2298              		.cfi_endproc
 2299              	.LFE115:
 2300              		.size	_ZN10chibios_rt11EvtListener16getAndClearFlagsEv, .-_ZN10chibios_rt11EvtListener16getAndClea
 2301 0004 AFF30080 		.section	.text._ZN10chibios_rt11EvtListener17getAndClearFlagsIEv,"ax",%progbits
 2301      AFF30080 
 2301      AFF30080 
 2302              		.align	2
 2303              		.p2align 4,,15
 2304              		.global	_ZN10chibios_rt11EvtListener17getAndClearFlagsIEv
 2305              		.thumb
 2306              		.thumb_func
 2307              		.type	_ZN10chibios_rt11EvtListener17getAndClearFlagsIEv, %function
 2308              	_ZN10chibios_rt11EvtListener17getAndClearFlagsIEv:
 2309              	.LFB116:
 2310              		.loc 1 603 0
 2311              		.cfi_startproc
 2312              		@ args = 0, pretend = 0, frame = 0
 2313              		@ frame_needed = 0, uses_anonymous_args = 0
 2314              		@ link register save eliminated.
 2315              	.LVL197:
ARM GAS  /tmp/ccIq0oiT.s 			page 44


 2316              		.loc 1 606 0
 2317              		.loc 1 605 0
 2318 0000 FFF7FEBF 		b	chEvtGetAndClearFlagsI
 2319              	.LVL198:
 2320              		.cfi_endproc
 2321              	.LFE116:
 2322              		.size	_ZN10chibios_rt11EvtListener17getAndClearFlagsIEv, .-_ZN10chibios_rt11EvtListener17getAndCle
 2323 0004 AFF30080 		.section	.text._ZN10chibios_rt9EvtSourceC2Ev,"ax",%progbits
 2323      AFF30080 
 2323      AFF30080 
 2324              		.align	2
 2325              		.p2align 4,,15
 2326              		.global	_ZN10chibios_rt9EvtSourceC2Ev
 2327              		.thumb
 2328              		.thumb_func
 2329              		.type	_ZN10chibios_rt9EvtSourceC2Ev, %function
 2330              	_ZN10chibios_rt9EvtSourceC2Ev:
 2331              	.LFB118:
 2332              		.loc 1 611 0
 2333              		.cfi_startproc
 2334              		@ args = 0, pretend = 0, frame = 0
 2335              		@ frame_needed = 0, uses_anonymous_args = 0
 2336              		@ link register save eliminated.
 2337              	.LVL199:
 2338              	.LBB48:
 2339              		.loc 1 613 0
 2340 0000 0060     		str	r0, [r0, #0]
 2341              	.LBE48:
 2342              		.loc 1 614 0
 2343 0002 7047     		bx	lr
 2344              		.cfi_endproc
 2345              	.LFE118:
 2346              		.size	_ZN10chibios_rt9EvtSourceC2Ev, .-_ZN10chibios_rt9EvtSourceC2Ev
 2347              		.global	_ZN10chibios_rt9EvtSourceC1Ev
 2348              		.thumb_set _ZN10chibios_rt9EvtSourceC1Ev,_ZN10chibios_rt9EvtSourceC2Ev
 2349 0004 AFF30080 		.section	.text._ZN10chibios_rt9EvtSource11registerOneEPNS_11EvtListenerEl,"ax",%progbits
 2349      AFF30080 
 2349      AFF30080 
 2350              		.align	2
 2351              		.p2align 4,,15
 2352              		.global	_ZN10chibios_rt9EvtSource11registerOneEPNS_11EvtListenerEl
 2353              		.thumb
 2354              		.thumb_func
 2355              		.type	_ZN10chibios_rt9EvtSource11registerOneEPNS_11EvtListenerEl, %function
 2356              	_ZN10chibios_rt9EvtSource11registerOneEPNS_11EvtListenerEl:
 2357              	.LFB120:
 2358              		.loc 1 617 0
 2359              		.cfi_startproc
 2360              		@ args = 0, pretend = 0, frame = 0
 2361              		@ frame_needed = 0, uses_anonymous_args = 0
 2362              		@ link register save eliminated.
 2363              	.LVL200:
 2364              		.loc 1 619 0
 2365 0000 0123     		movs	r3, #1
 2366 0002 03FA02F2 		lsl	r2, r3, r2
 2367              	.LVL201:
 2368              		.loc 1 620 0
ARM GAS  /tmp/ccIq0oiT.s 			page 45


 2369              		.loc 1 619 0
 2370 0006 FFF7FEBF 		b	chEvtRegisterMask
 2371              	.LVL202:
 2372              		.cfi_endproc
 2373              	.LFE120:
 2374              		.size	_ZN10chibios_rt9EvtSource11registerOneEPNS_11EvtListenerEl, .-_ZN10chibios_rt9EvtSource11reg
 2375 000a 00BFAFF3 		.section	.text._ZN10chibios_rt9EvtSource12registerMaskEPNS_11EvtListenerEm,"ax",%progbits
 2375      0080
 2376              		.align	2
 2377              		.p2align 4,,15
 2378              		.global	_ZN10chibios_rt9EvtSource12registerMaskEPNS_11EvtListenerEm
 2379              		.thumb
 2380              		.thumb_func
 2381              		.type	_ZN10chibios_rt9EvtSource12registerMaskEPNS_11EvtListenerEm, %function
 2382              	_ZN10chibios_rt9EvtSource12registerMaskEPNS_11EvtListenerEm:
 2383              	.LFB121:
 2384              		.loc 1 623 0
 2385              		.cfi_startproc
 2386              		@ args = 0, pretend = 0, frame = 0
 2387              		@ frame_needed = 0, uses_anonymous_args = 0
 2388              		@ link register save eliminated.
 2389              	.LVL203:
 2390              		.loc 1 626 0
 2391              		.loc 1 625 0
 2392 0000 FFF7FEBF 		b	chEvtRegisterMask
 2393              	.LVL204:
 2394              		.cfi_endproc
 2395              	.LFE121:
 2396              		.size	_ZN10chibios_rt9EvtSource12registerMaskEPNS_11EvtListenerEm, .-_ZN10chibios_rt9EvtSource12re
 2397 0004 AFF30080 		.section	.text._ZN10chibios_rt9EvtSource10unregisterEPNS_11EvtListenerE,"ax",%progbits
 2397      AFF30080 
 2397      AFF30080 
 2398              		.align	2
 2399              		.p2align 4,,15
 2400              		.global	_ZN10chibios_rt9EvtSource10unregisterEPNS_11EvtListenerE
 2401              		.thumb
 2402              		.thumb_func
 2403              		.type	_ZN10chibios_rt9EvtSource10unregisterEPNS_11EvtListenerE, %function
 2404              	_ZN10chibios_rt9EvtSource10unregisterEPNS_11EvtListenerE:
 2405              	.LFB122:
 2406              		.loc 1 628 0
 2407              		.cfi_startproc
 2408              		@ args = 0, pretend = 0, frame = 0
 2409              		@ frame_needed = 0, uses_anonymous_args = 0
 2410              		@ link register save eliminated.
 2411              	.LVL205:
 2412              		.loc 1 631 0
 2413              		.loc 1 630 0
 2414 0000 FFF7FEBF 		b	chEvtUnregister
 2415              	.LVL206:
 2416              		.cfi_endproc
 2417              	.LFE122:
 2418              		.size	_ZN10chibios_rt9EvtSource10unregisterEPNS_11EvtListenerE, .-_ZN10chibios_rt9EvtSource10unreg
 2419 0004 AFF30080 		.section	.text._ZN10chibios_rt9EvtSource14broadcastFlagsEm,"ax",%progbits
 2419      AFF30080 
 2419      AFF30080 
 2420              		.align	2
ARM GAS  /tmp/ccIq0oiT.s 			page 46


 2421              		.p2align 4,,15
 2422              		.global	_ZN10chibios_rt9EvtSource14broadcastFlagsEm
 2423              		.thumb
 2424              		.thumb_func
 2425              		.type	_ZN10chibios_rt9EvtSource14broadcastFlagsEm, %function
 2426              	_ZN10chibios_rt9EvtSource14broadcastFlagsEm:
 2427              	.LFB123:
 2428              		.loc 1 633 0
 2429              		.cfi_startproc
 2430              		@ args = 0, pretend = 0, frame = 0
 2431              		@ frame_needed = 0, uses_anonymous_args = 0
 2432              		@ link register save eliminated.
 2433              	.LVL207:
 2434              		.loc 1 636 0
 2435              		.loc 1 635 0
 2436 0000 FFF7FEBF 		b	chEvtBroadcastFlags
 2437              	.LVL208:
 2438              		.cfi_endproc
 2439              	.LFE123:
 2440              		.size	_ZN10chibios_rt9EvtSource14broadcastFlagsEm, .-_ZN10chibios_rt9EvtSource14broadcastFlagsEm
 2441 0004 AFF30080 		.section	.text._ZN10chibios_rt9EvtSource15broadcastFlagsIEm,"ax",%progbits
 2441      AFF30080 
 2441      AFF30080 
 2442              		.align	2
 2443              		.p2align 4,,15
 2444              		.global	_ZN10chibios_rt9EvtSource15broadcastFlagsIEm
 2445              		.thumb
 2446              		.thumb_func
 2447              		.type	_ZN10chibios_rt9EvtSource15broadcastFlagsIEm, %function
 2448              	_ZN10chibios_rt9EvtSource15broadcastFlagsIEm:
 2449              	.LFB124:
 2450              		.loc 1 638 0
 2451              		.cfi_startproc
 2452              		@ args = 0, pretend = 0, frame = 0
 2453              		@ frame_needed = 0, uses_anonymous_args = 0
 2454              		@ link register save eliminated.
 2455              	.LVL209:
 2456              		.loc 1 641 0
 2457              		.loc 1 640 0
 2458 0000 FFF7FEBF 		b	chEvtBroadcastFlagsI
 2459              	.LVL210:
 2460              		.cfi_endproc
 2461              	.LFE124:
 2462              		.size	_ZN10chibios_rt9EvtSource15broadcastFlagsIEm, .-_ZN10chibios_rt9EvtSource15broadcastFlagsIEm
 2463 0004 AFF30080 		.section	.text._ZN10chibios_rt7InQueueC2EPhjPFvP12GenericQueueEPv,"ax",%progbits
 2463      AFF30080 
 2463      AFF30080 
 2464              		.align	2
 2465              		.p2align 4,,15
 2466              		.global	_ZN10chibios_rt7InQueueC2EPhjPFvP12GenericQueueEPv
 2467              		.thumb
 2468              		.thumb_func
 2469              		.type	_ZN10chibios_rt7InQueueC2EPhjPFvP12GenericQueueEPv, %function
 2470              	_ZN10chibios_rt7InQueueC2EPhjPFvP12GenericQueueEPv:
 2471              	.LFB126:
 2472              		.loc 1 648 0
 2473              		.cfi_startproc
ARM GAS  /tmp/ccIq0oiT.s 			page 47


 2474              		@ args = 4, pretend = 0, frame = 0
 2475              		@ frame_needed = 0, uses_anonymous_args = 0
 2476              	.LVL211:
 2477 0000 30B5     		push	{r4, r5, lr}
 2478              	.LCFI11:
 2479              		.cfi_def_cfa_offset 12
 2480              		.cfi_offset 4, -12
 2481              		.cfi_offset 5, -8
 2482              		.cfi_offset 14, -4
 2483 0002 83B0     		sub	sp, sp, #12
 2484              	.LCFI12:
 2485              		.cfi_def_cfa_offset 24
 2486              		.loc 1 648 0
 2487 0004 0546     		mov	r5, r0
 2488              	.LBB49:
 2489              		.loc 1 650 0
 2490 0006 069C     		ldr	r4, [sp, #24]
 2491 0008 0094     		str	r4, [sp, #0]
 2492 000a FFF7FEFF 		bl	chIQInit
 2493              	.LVL212:
 2494              	.LBE49:
 2495              		.loc 1 651 0
 2496 000e 2846     		mov	r0, r5
 2497 0010 03B0     		add	sp, sp, #12
 2498 0012 30BD     		pop	{r4, r5, pc}
 2499              		.cfi_endproc
 2500              	.LFE126:
 2501              		.size	_ZN10chibios_rt7InQueueC2EPhjPFvP12GenericQueueEPv, .-_ZN10chibios_rt7InQueueC2EPhjPFvP12Gen
 2502              		.global	_ZN10chibios_rt7InQueueC1EPhjPFvP12GenericQueueEPv
 2503              		.thumb_set _ZN10chibios_rt7InQueueC1EPhjPFvP12GenericQueueEPv,_ZN10chibios_rt7InQueueC2EPhjPFvP12G
 2504 0014 AFF30080 		.section	.text._ZN10chibios_rt7InQueue8getFullIEv,"ax",%progbits
 2504      AFF30080 
 2504      AFF30080 
 2505              		.align	2
 2506              		.p2align 4,,15
 2507              		.global	_ZN10chibios_rt7InQueue8getFullIEv
 2508              		.thumb
 2509              		.thumb_func
 2510              		.type	_ZN10chibios_rt7InQueue8getFullIEv, %function
 2511              	_ZN10chibios_rt7InQueue8getFullIEv:
 2512              	.LFB128:
 2513              		.loc 1 653 0
 2514              		.cfi_startproc
 2515              		@ args = 0, pretend = 0, frame = 0
 2516              		@ frame_needed = 0, uses_anonymous_args = 0
 2517              		@ link register save eliminated.
 2518              	.LVL213:
 2519              		.loc 1 656 0
 2520 0000 8068     		ldr	r0, [r0, #8]
 2521              	.LVL214:
 2522 0002 7047     		bx	lr
 2523              		.cfi_endproc
 2524              	.LFE128:
 2525              		.size	_ZN10chibios_rt7InQueue8getFullIEv, .-_ZN10chibios_rt7InQueue8getFullIEv
 2526 0004 AFF30080 		.section	.text._ZN10chibios_rt7InQueue9getEmptyIEv,"ax",%progbits
 2526      AFF30080 
 2526      AFF30080 
ARM GAS  /tmp/ccIq0oiT.s 			page 48


 2527              		.align	2
 2528              		.p2align 4,,15
 2529              		.global	_ZN10chibios_rt7InQueue9getEmptyIEv
 2530              		.thumb
 2531              		.thumb_func
 2532              		.type	_ZN10chibios_rt7InQueue9getEmptyIEv, %function
 2533              	_ZN10chibios_rt7InQueue9getEmptyIEv:
 2534              	.LFB129:
 2535              		.loc 1 658 0
 2536              		.cfi_startproc
 2537              		@ args = 0, pretend = 0, frame = 0
 2538              		@ frame_needed = 0, uses_anonymous_args = 0
 2539              		@ link register save eliminated.
 2540              	.LVL215:
 2541              		.loc 1 660 0
 2542 0000 0169     		ldr	r1, [r0, #16]
 2543 0002 C268     		ldr	r2, [r0, #12]
 2544 0004 8368     		ldr	r3, [r0, #8]
 2545 0006 881A     		subs	r0, r1, r2
 2546              	.LVL216:
 2547              		.loc 1 661 0
 2548 0008 C01A     		subs	r0, r0, r3
 2549 000a 7047     		bx	lr
 2550              		.cfi_endproc
 2551              	.LFE129:
 2552              		.size	_ZN10chibios_rt7InQueue9getEmptyIEv, .-_ZN10chibios_rt7InQueue9getEmptyIEv
 2553 000c AFF30080 		.section	.text._ZN10chibios_rt7InQueue8isEmptyIEv,"ax",%progbits
 2554              		.align	2
 2555              		.p2align 4,,15
 2556              		.global	_ZN10chibios_rt7InQueue8isEmptyIEv
 2557              		.thumb
 2558              		.thumb_func
 2559              		.type	_ZN10chibios_rt7InQueue8isEmptyIEv, %function
 2560              	_ZN10chibios_rt7InQueue8isEmptyIEv:
 2561              	.LFB130:
 2562              		.loc 1 663 0
 2563              		.cfi_startproc
 2564              		@ args = 0, pretend = 0, frame = 0
 2565              		@ frame_needed = 0, uses_anonymous_args = 0
 2566              		@ link register save eliminated.
 2567              	.LVL217:
 2568              		.loc 1 665 0
 2569 0000 8068     		ldr	r0, [r0, #8]
 2570              	.LVL218:
 2571              		.loc 1 666 0
 2572 0002 D0F10100 		rsbs	r0, r0, #1
 2573 0006 38BF     		it	cc
 2574 0008 0020     		movcc	r0, #0
 2575 000a 7047     		bx	lr
 2576              		.cfi_endproc
 2577              	.LFE130:
 2578              		.size	_ZN10chibios_rt7InQueue8isEmptyIEv, .-_ZN10chibios_rt7InQueue8isEmptyIEv
 2579 000c AFF30080 		.section	.text._ZN10chibios_rt7InQueue7isFullIEv,"ax",%progbits
 2580              		.align	2
 2581              		.p2align 4,,15
 2582              		.global	_ZN10chibios_rt7InQueue7isFullIEv
 2583              		.thumb
ARM GAS  /tmp/ccIq0oiT.s 			page 49


 2584              		.thumb_func
 2585              		.type	_ZN10chibios_rt7InQueue7isFullIEv, %function
 2586              	_ZN10chibios_rt7InQueue7isFullIEv:
 2587              	.LFB131:
 2588              		.loc 1 668 0
 2589              		.cfi_startproc
 2590              		@ args = 0, pretend = 0, frame = 0
 2591              		@ frame_needed = 0, uses_anonymous_args = 0
 2592              		@ link register save eliminated.
 2593              	.LVL219:
 2594              		.loc 1 670 0
 2595 0000 4269     		ldr	r2, [r0, #20]
 2596 0002 8369     		ldr	r3, [r0, #24]
 2597 0004 9A42     		cmp	r2, r3
 2598 0006 01D0     		beq	.L119
 2599 0008 0020     		movs	r0, #0
 2600              	.LVL220:
 2601              		.loc 1 671 0
 2602 000a 7047     		bx	lr
 2603              	.LVL221:
 2604              	.L119:
 2605              		.loc 1 670 0 discriminator 1
 2606 000c 8068     		ldr	r0, [r0, #8]
 2607              	.LVL222:
 2608 000e 0030     		adds	r0, r0, #0
 2609 0010 18BF     		it	ne
 2610 0012 0120     		movne	r0, #1
 2611 0014 7047     		bx	lr
 2612              		.cfi_endproc
 2613              	.LFE131:
 2614              		.size	_ZN10chibios_rt7InQueue7isFullIEv, .-_ZN10chibios_rt7InQueue7isFullIEv
 2615 0016 00BFAFF3 		.section	.text._ZN10chibios_rt7InQueue6resetIEv,"ax",%progbits
 2615      0080AFF3 
 2615      0080
 2616              		.align	2
 2617              		.p2align 4,,15
 2618              		.global	_ZN10chibios_rt7InQueue6resetIEv
 2619              		.thumb
 2620              		.thumb_func
 2621              		.type	_ZN10chibios_rt7InQueue6resetIEv, %function
 2622              	_ZN10chibios_rt7InQueue6resetIEv:
 2623              	.LFB132:
 2624              		.loc 1 673 0
 2625              		.cfi_startproc
 2626              		@ args = 0, pretend = 0, frame = 0
 2627              		@ frame_needed = 0, uses_anonymous_args = 0
 2628              		@ link register save eliminated.
 2629              	.LVL223:
 2630              		.loc 1 676 0
 2631              		.loc 1 675 0
 2632 0000 FFF7FEBF 		b	chIQResetI
 2633              	.LVL224:
 2634              		.cfi_endproc
 2635              	.LFE132:
 2636              		.size	_ZN10chibios_rt7InQueue6resetIEv, .-_ZN10chibios_rt7InQueue6resetIEv
 2637 0004 AFF30080 		.section	.text._ZN10chibios_rt7InQueue4putIEh,"ax",%progbits
 2637      AFF30080 
ARM GAS  /tmp/ccIq0oiT.s 			page 50


 2637      AFF30080 
 2638              		.align	2
 2639              		.p2align 4,,15
 2640              		.global	_ZN10chibios_rt7InQueue4putIEh
 2641              		.thumb
 2642              		.thumb_func
 2643              		.type	_ZN10chibios_rt7InQueue4putIEh, %function
 2644              	_ZN10chibios_rt7InQueue4putIEh:
 2645              	.LFB133:
 2646              		.loc 1 678 0
 2647              		.cfi_startproc
 2648              		@ args = 0, pretend = 0, frame = 0
 2649              		@ frame_needed = 0, uses_anonymous_args = 0
 2650              		@ link register save eliminated.
 2651              	.LVL225:
 2652              		.loc 1 681 0
 2653              		.loc 1 680 0
 2654 0000 FFF7FEBF 		b	chIQPutI
 2655              	.LVL226:
 2656              		.cfi_endproc
 2657              	.LFE133:
 2658              		.size	_ZN10chibios_rt7InQueue4putIEh, .-_ZN10chibios_rt7InQueue4putIEh
 2659 0004 AFF30080 		.section	.text._ZN10chibios_rt7InQueue3getEv,"ax",%progbits
 2659      AFF30080 
 2659      AFF30080 
 2660              		.align	2
 2661              		.p2align 4,,15
 2662              		.global	_ZN10chibios_rt7InQueue3getEv
 2663              		.thumb
 2664              		.thumb_func
 2665              		.type	_ZN10chibios_rt7InQueue3getEv, %function
 2666              	_ZN10chibios_rt7InQueue3getEv:
 2667              	.LFB134:
 2668              		.loc 1 683 0
 2669              		.cfi_startproc
 2670              		@ args = 0, pretend = 0, frame = 0
 2671              		@ frame_needed = 0, uses_anonymous_args = 0
 2672              		@ link register save eliminated.
 2673              	.LVL227:
 2674              		.loc 1 685 0
 2675 0000 4FF0FF31 		mov	r1, #-1
 2676              		.loc 1 686 0
 2677              		.loc 1 685 0
 2678 0004 FFF7FEBF 		b	chIQGetTimeout
 2679              	.LVL228:
 2680              		.cfi_endproc
 2681              	.LFE134:
 2682              		.size	_ZN10chibios_rt7InQueue3getEv, .-_ZN10chibios_rt7InQueue3getEv
 2683 0008 AFF30080 		.section	.text._ZN10chibios_rt7InQueue10getTimeoutEm,"ax",%progbits
 2683      AFF30080 
 2684              		.align	2
 2685              		.p2align 4,,15
 2686              		.global	_ZN10chibios_rt7InQueue10getTimeoutEm
 2687              		.thumb
 2688              		.thumb_func
 2689              		.type	_ZN10chibios_rt7InQueue10getTimeoutEm, %function
 2690              	_ZN10chibios_rt7InQueue10getTimeoutEm:
ARM GAS  /tmp/ccIq0oiT.s 			page 51


 2691              	.LFB135:
 2692              		.loc 1 688 0
 2693              		.cfi_startproc
 2694              		@ args = 0, pretend = 0, frame = 0
 2695              		@ frame_needed = 0, uses_anonymous_args = 0
 2696              		@ link register save eliminated.
 2697              	.LVL229:
 2698              		.loc 1 691 0
 2699              		.loc 1 690 0
 2700 0000 FFF7FEBF 		b	chIQGetTimeout
 2701              	.LVL230:
 2702              		.cfi_endproc
 2703              	.LFE135:
 2704              		.size	_ZN10chibios_rt7InQueue10getTimeoutEm, .-_ZN10chibios_rt7InQueue10getTimeoutEm
 2705 0004 AFF30080 		.section	.text._ZN10chibios_rt7InQueue11readTimeoutEPhjm,"ax",%progbits
 2705      AFF30080 
 2705      AFF30080 
 2706              		.align	2
 2707              		.p2align 4,,15
 2708              		.global	_ZN10chibios_rt7InQueue11readTimeoutEPhjm
 2709              		.thumb
 2710              		.thumb_func
 2711              		.type	_ZN10chibios_rt7InQueue11readTimeoutEPhjm, %function
 2712              	_ZN10chibios_rt7InQueue11readTimeoutEPhjm:
 2713              	.LFB136:
 2714              		.loc 1 693 0
 2715              		.cfi_startproc
 2716              		@ args = 0, pretend = 0, frame = 0
 2717              		@ frame_needed = 0, uses_anonymous_args = 0
 2718              		@ link register save eliminated.
 2719              	.LVL231:
 2720              		.loc 1 696 0
 2721              		.loc 1 695 0
 2722 0000 FFF7FEBF 		b	chIQReadTimeout
 2723              	.LVL232:
 2724              		.cfi_endproc
 2725              	.LFE136:
 2726              		.size	_ZN10chibios_rt7InQueue11readTimeoutEPhjm, .-_ZN10chibios_rt7InQueue11readTimeoutEPhjm
 2727 0004 AFF30080 		.section	.text._ZN10chibios_rt8OutQueueC2EPhjPFvP12GenericQueueEPv,"ax",%progbits
 2727      AFF30080 
 2727      AFF30080 
 2728              		.align	2
 2729              		.p2align 4,,15
 2730              		.global	_ZN10chibios_rt8OutQueueC2EPhjPFvP12GenericQueueEPv
 2731              		.thumb
 2732              		.thumb_func
 2733              		.type	_ZN10chibios_rt8OutQueueC2EPhjPFvP12GenericQueueEPv, %function
 2734              	_ZN10chibios_rt8OutQueueC2EPhjPFvP12GenericQueueEPv:
 2735              	.LFB138:
 2736              		.loc 1 701 0
 2737              		.cfi_startproc
 2738              		@ args = 4, pretend = 0, frame = 0
 2739              		@ frame_needed = 0, uses_anonymous_args = 0
 2740              	.LVL233:
 2741 0000 30B5     		push	{r4, r5, lr}
 2742              	.LCFI13:
 2743              		.cfi_def_cfa_offset 12
ARM GAS  /tmp/ccIq0oiT.s 			page 52


 2744              		.cfi_offset 4, -12
 2745              		.cfi_offset 5, -8
 2746              		.cfi_offset 14, -4
 2747 0002 83B0     		sub	sp, sp, #12
 2748              	.LCFI14:
 2749              		.cfi_def_cfa_offset 24
 2750              		.loc 1 701 0
 2751 0004 0546     		mov	r5, r0
 2752              	.LBB50:
 2753              		.loc 1 703 0
 2754 0006 069C     		ldr	r4, [sp, #24]
 2755 0008 0094     		str	r4, [sp, #0]
 2756 000a FFF7FEFF 		bl	chOQInit
 2757              	.LVL234:
 2758              	.LBE50:
 2759              		.loc 1 704 0
 2760 000e 2846     		mov	r0, r5
 2761 0010 03B0     		add	sp, sp, #12
 2762 0012 30BD     		pop	{r4, r5, pc}
 2763              		.cfi_endproc
 2764              	.LFE138:
 2765              		.size	_ZN10chibios_rt8OutQueueC2EPhjPFvP12GenericQueueEPv, .-_ZN10chibios_rt8OutQueueC2EPhjPFvP12G
 2766              		.global	_ZN10chibios_rt8OutQueueC1EPhjPFvP12GenericQueueEPv
 2767              		.thumb_set _ZN10chibios_rt8OutQueueC1EPhjPFvP12GenericQueueEPv,_ZN10chibios_rt8OutQueueC2EPhjPFvP1
 2768 0014 AFF30080 		.section	.text._ZN10chibios_rt8OutQueue8getFullIEv,"ax",%progbits
 2768      AFF30080 
 2768      AFF30080 
 2769              		.align	2
 2770              		.p2align 4,,15
 2771              		.global	_ZN10chibios_rt8OutQueue8getFullIEv
 2772              		.thumb
 2773              		.thumb_func
 2774              		.type	_ZN10chibios_rt8OutQueue8getFullIEv, %function
 2775              	_ZN10chibios_rt8OutQueue8getFullIEv:
 2776              	.LFB140:
 2777              		.loc 1 706 0
 2778              		.cfi_startproc
 2779              		@ args = 0, pretend = 0, frame = 0
 2780              		@ frame_needed = 0, uses_anonymous_args = 0
 2781              		@ link register save eliminated.
 2782              	.LVL235:
 2783              		.loc 1 708 0
 2784 0000 0169     		ldr	r1, [r0, #16]
 2785 0002 C268     		ldr	r2, [r0, #12]
 2786 0004 8368     		ldr	r3, [r0, #8]
 2787 0006 881A     		subs	r0, r1, r2
 2788              	.LVL236:
 2789              		.loc 1 709 0
 2790 0008 C01A     		subs	r0, r0, r3
 2791 000a 7047     		bx	lr
 2792              		.cfi_endproc
 2793              	.LFE140:
 2794              		.size	_ZN10chibios_rt8OutQueue8getFullIEv, .-_ZN10chibios_rt8OutQueue8getFullIEv
 2795 000c AFF30080 		.section	.text._ZN10chibios_rt8OutQueue9getEmptyIEv,"ax",%progbits
 2796              		.align	2
 2797              		.p2align 4,,15
 2798              		.global	_ZN10chibios_rt8OutQueue9getEmptyIEv
ARM GAS  /tmp/ccIq0oiT.s 			page 53


 2799              		.thumb
 2800              		.thumb_func
 2801              		.type	_ZN10chibios_rt8OutQueue9getEmptyIEv, %function
 2802              	_ZN10chibios_rt8OutQueue9getEmptyIEv:
 2803              	.LFB141:
 2804              		.loc 1 711 0
 2805              		.cfi_startproc
 2806              		@ args = 0, pretend = 0, frame = 0
 2807              		@ frame_needed = 0, uses_anonymous_args = 0
 2808              		@ link register save eliminated.
 2809              	.LVL237:
 2810              		.loc 1 714 0
 2811 0000 8068     		ldr	r0, [r0, #8]
 2812              	.LVL238:
 2813 0002 7047     		bx	lr
 2814              		.cfi_endproc
 2815              	.LFE141:
 2816              		.size	_ZN10chibios_rt8OutQueue9getEmptyIEv, .-_ZN10chibios_rt8OutQueue9getEmptyIEv
 2817 0004 AFF30080 		.section	.text._ZN10chibios_rt8OutQueue8isEmptyIEv,"ax",%progbits
 2817      AFF30080 
 2817      AFF30080 
 2818              		.align	2
 2819              		.p2align 4,,15
 2820              		.global	_ZN10chibios_rt8OutQueue8isEmptyIEv
 2821              		.thumb
 2822              		.thumb_func
 2823              		.type	_ZN10chibios_rt8OutQueue8isEmptyIEv, %function
 2824              	_ZN10chibios_rt8OutQueue8isEmptyIEv:
 2825              	.LFB142:
 2826              		.loc 1 716 0
 2827              		.cfi_startproc
 2828              		@ args = 0, pretend = 0, frame = 0
 2829              		@ frame_needed = 0, uses_anonymous_args = 0
 2830              		@ link register save eliminated.
 2831              	.LVL239:
 2832              		.loc 1 718 0
 2833 0000 4269     		ldr	r2, [r0, #20]
 2834 0002 8369     		ldr	r3, [r0, #24]
 2835 0004 9A42     		cmp	r2, r3
 2836 0006 01D0     		beq	.L131
 2837 0008 0020     		movs	r0, #0
 2838              	.LVL240:
 2839              		.loc 1 719 0
 2840 000a 7047     		bx	lr
 2841              	.LVL241:
 2842              	.L131:
 2843              		.loc 1 718 0 discriminator 1
 2844 000c 8068     		ldr	r0, [r0, #8]
 2845              	.LVL242:
 2846 000e 0030     		adds	r0, r0, #0
 2847 0010 18BF     		it	ne
 2848 0012 0120     		movne	r0, #1
 2849 0014 7047     		bx	lr
 2850              		.cfi_endproc
 2851              	.LFE142:
 2852              		.size	_ZN10chibios_rt8OutQueue8isEmptyIEv, .-_ZN10chibios_rt8OutQueue8isEmptyIEv
 2853 0016 00BFAFF3 		.section	.text._ZN10chibios_rt8OutQueue7isFullIEv,"ax",%progbits
ARM GAS  /tmp/ccIq0oiT.s 			page 54


 2853      0080AFF3 
 2853      0080
 2854              		.align	2
 2855              		.p2align 4,,15
 2856              		.global	_ZN10chibios_rt8OutQueue7isFullIEv
 2857              		.thumb
 2858              		.thumb_func
 2859              		.type	_ZN10chibios_rt8OutQueue7isFullIEv, %function
 2860              	_ZN10chibios_rt8OutQueue7isFullIEv:
 2861              	.LFB143:
 2862              		.loc 1 721 0
 2863              		.cfi_startproc
 2864              		@ args = 0, pretend = 0, frame = 0
 2865              		@ frame_needed = 0, uses_anonymous_args = 0
 2866              		@ link register save eliminated.
 2867              	.LVL243:
 2868              		.loc 1 723 0
 2869 0000 8068     		ldr	r0, [r0, #8]
 2870              	.LVL244:
 2871              		.loc 1 724 0
 2872 0002 D0F10100 		rsbs	r0, r0, #1
 2873 0006 38BF     		it	cc
 2874 0008 0020     		movcc	r0, #0
 2875 000a 7047     		bx	lr
 2876              		.cfi_endproc
 2877              	.LFE143:
 2878              		.size	_ZN10chibios_rt8OutQueue7isFullIEv, .-_ZN10chibios_rt8OutQueue7isFullIEv
 2879 000c AFF30080 		.section	.text._ZN10chibios_rt8OutQueue6resetIEv,"ax",%progbits
 2880              		.align	2
 2881              		.p2align 4,,15
 2882              		.global	_ZN10chibios_rt8OutQueue6resetIEv
 2883              		.thumb
 2884              		.thumb_func
 2885              		.type	_ZN10chibios_rt8OutQueue6resetIEv, %function
 2886              	_ZN10chibios_rt8OutQueue6resetIEv:
 2887              	.LFB144:
 2888              		.loc 1 726 0
 2889              		.cfi_startproc
 2890              		@ args = 0, pretend = 0, frame = 0
 2891              		@ frame_needed = 0, uses_anonymous_args = 0
 2892              		@ link register save eliminated.
 2893              	.LVL245:
 2894              		.loc 1 729 0
 2895              		.loc 1 728 0
 2896 0000 FFF7FEBF 		b	chOQResetI
 2897              	.LVL246:
 2898              		.cfi_endproc
 2899              	.LFE144:
 2900              		.size	_ZN10chibios_rt8OutQueue6resetIEv, .-_ZN10chibios_rt8OutQueue6resetIEv
 2901 0004 AFF30080 		.section	.text._ZN10chibios_rt8OutQueue3putEh,"ax",%progbits
 2901      AFF30080 
 2901      AFF30080 
 2902              		.align	2
 2903              		.p2align 4,,15
 2904              		.global	_ZN10chibios_rt8OutQueue3putEh
 2905              		.thumb
 2906              		.thumb_func
ARM GAS  /tmp/ccIq0oiT.s 			page 55


 2907              		.type	_ZN10chibios_rt8OutQueue3putEh, %function
 2908              	_ZN10chibios_rt8OutQueue3putEh:
 2909              	.LFB145:
 2910              		.loc 1 731 0
 2911              		.cfi_startproc
 2912              		@ args = 0, pretend = 0, frame = 0
 2913              		@ frame_needed = 0, uses_anonymous_args = 0
 2914              		@ link register save eliminated.
 2915              	.LVL247:
 2916              		.loc 1 733 0
 2917 0000 4FF0FF32 		mov	r2, #-1
 2918              		.loc 1 734 0
 2919              		.loc 1 733 0
 2920 0004 FFF7FEBF 		b	chOQPutTimeout
 2921              	.LVL248:
 2922              		.cfi_endproc
 2923              	.LFE145:
 2924              		.size	_ZN10chibios_rt8OutQueue3putEh, .-_ZN10chibios_rt8OutQueue3putEh
 2925 0008 AFF30080 		.section	.text._ZN10chibios_rt8OutQueue10putTimeoutEhm,"ax",%progbits
 2925      AFF30080 
 2926              		.align	2
 2927              		.p2align 4,,15
 2928              		.global	_ZN10chibios_rt8OutQueue10putTimeoutEhm
 2929              		.thumb
 2930              		.thumb_func
 2931              		.type	_ZN10chibios_rt8OutQueue10putTimeoutEhm, %function
 2932              	_ZN10chibios_rt8OutQueue10putTimeoutEhm:
 2933              	.LFB146:
 2934              		.loc 1 736 0
 2935              		.cfi_startproc
 2936              		@ args = 0, pretend = 0, frame = 0
 2937              		@ frame_needed = 0, uses_anonymous_args = 0
 2938              		@ link register save eliminated.
 2939              	.LVL249:
 2940              		.loc 1 739 0
 2941              		.loc 1 738 0
 2942 0000 FFF7FEBF 		b	chOQPutTimeout
 2943              	.LVL250:
 2944              		.cfi_endproc
 2945              	.LFE146:
 2946              		.size	_ZN10chibios_rt8OutQueue10putTimeoutEhm, .-_ZN10chibios_rt8OutQueue10putTimeoutEhm
 2947 0004 AFF30080 		.section	.text._ZN10chibios_rt8OutQueue4getIEv,"ax",%progbits
 2947      AFF30080 
 2947      AFF30080 
 2948              		.align	2
 2949              		.p2align 4,,15
 2950              		.global	_ZN10chibios_rt8OutQueue4getIEv
 2951              		.thumb
 2952              		.thumb_func
 2953              		.type	_ZN10chibios_rt8OutQueue4getIEv, %function
 2954              	_ZN10chibios_rt8OutQueue4getIEv:
 2955              	.LFB147:
 2956              		.loc 1 741 0
 2957              		.cfi_startproc
 2958              		@ args = 0, pretend = 0, frame = 0
 2959              		@ frame_needed = 0, uses_anonymous_args = 0
 2960              		@ link register save eliminated.
ARM GAS  /tmp/ccIq0oiT.s 			page 56


 2961              	.LVL251:
 2962              		.loc 1 744 0
 2963              		.loc 1 743 0
 2964 0000 FFF7FEBF 		b	chOQGetI
 2965              	.LVL252:
 2966              		.cfi_endproc
 2967              	.LFE147:
 2968              		.size	_ZN10chibios_rt8OutQueue4getIEv, .-_ZN10chibios_rt8OutQueue4getIEv
 2969 0004 AFF30080 		.section	.text._ZN10chibios_rt8OutQueue12writeTimeoutEPKhjm,"ax",%progbits
 2969      AFF30080 
 2969      AFF30080 
 2970              		.align	2
 2971              		.p2align 4,,15
 2972              		.global	_ZN10chibios_rt8OutQueue12writeTimeoutEPKhjm
 2973              		.thumb
 2974              		.thumb_func
 2975              		.type	_ZN10chibios_rt8OutQueue12writeTimeoutEPKhjm, %function
 2976              	_ZN10chibios_rt8OutQueue12writeTimeoutEPKhjm:
 2977              	.LFB148:
 2978              		.loc 1 747 0
 2979              		.cfi_startproc
 2980              		@ args = 0, pretend = 0, frame = 0
 2981              		@ frame_needed = 0, uses_anonymous_args = 0
 2982              		@ link register save eliminated.
 2983              	.LVL253:
 2984              		.loc 1 750 0
 2985              		.loc 1 749 0
 2986 0000 FFF7FEBF 		b	chOQWriteTimeout
 2987              	.LVL254:
 2988              		.cfi_endproc
 2989              	.LFE148:
 2990              		.size	_ZN10chibios_rt8OutQueue12writeTimeoutEPKhjm, .-_ZN10chibios_rt8OutQueue12writeTimeoutEPKhjm
 2991 0004 AFF30080 		.section	.text._ZN10chibios_rt7MailboxC2EPll,"ax",%progbits
 2991      AFF30080 
 2991      AFF30080 
 2992              		.align	2
 2993              		.p2align 4,,15
 2994              		.global	_ZN10chibios_rt7MailboxC2EPll
 2995              		.thumb
 2996              		.thumb_func
 2997              		.type	_ZN10chibios_rt7MailboxC2EPll, %function
 2998              	_ZN10chibios_rt7MailboxC2EPll:
 2999              	.LFB150:
 3000              		.loc 1 757 0
 3001              		.cfi_startproc
 3002              		@ args = 0, pretend = 0, frame = 0
 3003              		@ frame_needed = 0, uses_anonymous_args = 0
 3004              	.LVL255:
 3005 0000 10B5     		push	{r4, lr}
 3006              	.LCFI15:
 3007              		.cfi_def_cfa_offset 8
 3008              		.cfi_offset 4, -8
 3009              		.cfi_offset 14, -4
 3010              		.loc 1 757 0
 3011 0002 0446     		mov	r4, r0
 3012              	.LBB51:
 3013              		.loc 1 759 0
ARM GAS  /tmp/ccIq0oiT.s 			page 57


 3014 0004 FFF7FEFF 		bl	chMBInit
 3015              	.LVL256:
 3016              	.LBE51:
 3017              		.loc 1 760 0
 3018 0008 2046     		mov	r0, r4
 3019 000a 10BD     		pop	{r4, pc}
 3020              		.cfi_endproc
 3021              	.LFE150:
 3022              		.size	_ZN10chibios_rt7MailboxC2EPll, .-_ZN10chibios_rt7MailboxC2EPll
 3023              		.global	_ZN10chibios_rt7MailboxC1EPll
 3024              		.thumb_set _ZN10chibios_rt7MailboxC1EPll,_ZN10chibios_rt7MailboxC2EPll
 3025 000c AFF30080 		.section	.text._ZN10chibios_rt7Mailbox5resetEv,"ax",%progbits
 3026              		.align	2
 3027              		.p2align 4,,15
 3028              		.global	_ZN10chibios_rt7Mailbox5resetEv
 3029              		.thumb
 3030              		.thumb_func
 3031              		.type	_ZN10chibios_rt7Mailbox5resetEv, %function
 3032              	_ZN10chibios_rt7Mailbox5resetEv:
 3033              	.LFB152:
 3034              		.loc 1 762 0
 3035              		.cfi_startproc
 3036              		@ args = 0, pretend = 0, frame = 0
 3037              		@ frame_needed = 0, uses_anonymous_args = 0
 3038              		@ link register save eliminated.
 3039              	.LVL257:
 3040              		.loc 1 765 0
 3041              		.loc 1 764 0
 3042 0000 FFF7FEBF 		b	chMBReset
 3043              	.LVL258:
 3044              		.cfi_endproc
 3045              	.LFE152:
 3046              		.size	_ZN10chibios_rt7Mailbox5resetEv, .-_ZN10chibios_rt7Mailbox5resetEv
 3047 0004 AFF30080 		.section	.text._ZN10chibios_rt7Mailbox4postElm,"ax",%progbits
 3047      AFF30080 
 3047      AFF30080 
 3048              		.align	2
 3049              		.p2align 4,,15
 3050              		.global	_ZN10chibios_rt7Mailbox4postElm
 3051              		.thumb
 3052              		.thumb_func
 3053              		.type	_ZN10chibios_rt7Mailbox4postElm, %function
 3054              	_ZN10chibios_rt7Mailbox4postElm:
 3055              	.LFB153:
 3056              		.loc 1 767 0
 3057              		.cfi_startproc
 3058              		@ args = 0, pretend = 0, frame = 0
 3059              		@ frame_needed = 0, uses_anonymous_args = 0
 3060              		@ link register save eliminated.
 3061              	.LVL259:
 3062              		.loc 1 770 0
 3063              		.loc 1 769 0
 3064 0000 FFF7FEBF 		b	chMBPost
 3065              	.LVL260:
 3066              		.cfi_endproc
 3067              	.LFE153:
 3068              		.size	_ZN10chibios_rt7Mailbox4postElm, .-_ZN10chibios_rt7Mailbox4postElm
ARM GAS  /tmp/ccIq0oiT.s 			page 58


 3069 0004 AFF30080 		.section	.text._ZN10chibios_rt7Mailbox5postSElm,"ax",%progbits
 3069      AFF30080 
 3069      AFF30080 
 3070              		.align	2
 3071              		.p2align 4,,15
 3072              		.global	_ZN10chibios_rt7Mailbox5postSElm
 3073              		.thumb
 3074              		.thumb_func
 3075              		.type	_ZN10chibios_rt7Mailbox5postSElm, %function
 3076              	_ZN10chibios_rt7Mailbox5postSElm:
 3077              	.LFB154:
 3078              		.loc 1 772 0
 3079              		.cfi_startproc
 3080              		@ args = 0, pretend = 0, frame = 0
 3081              		@ frame_needed = 0, uses_anonymous_args = 0
 3082              		@ link register save eliminated.
 3083              	.LVL261:
 3084              		.loc 1 775 0
 3085              		.loc 1 774 0
 3086 0000 FFF7FEBF 		b	chMBPostS
 3087              	.LVL262:
 3088              		.cfi_endproc
 3089              	.LFE154:
 3090              		.size	_ZN10chibios_rt7Mailbox5postSElm, .-_ZN10chibios_rt7Mailbox5postSElm
 3091 0004 AFF30080 		.section	.text._ZN10chibios_rt7Mailbox5postIEl,"ax",%progbits
 3091      AFF30080 
 3091      AFF30080 
 3092              		.align	2
 3093              		.p2align 4,,15
 3094              		.global	_ZN10chibios_rt7Mailbox5postIEl
 3095              		.thumb
 3096              		.thumb_func
 3097              		.type	_ZN10chibios_rt7Mailbox5postIEl, %function
 3098              	_ZN10chibios_rt7Mailbox5postIEl:
 3099              	.LFB155:
 3100              		.loc 1 777 0
 3101              		.cfi_startproc
 3102              		@ args = 0, pretend = 0, frame = 0
 3103              		@ frame_needed = 0, uses_anonymous_args = 0
 3104              		@ link register save eliminated.
 3105              	.LVL263:
 3106              		.loc 1 780 0
 3107              		.loc 1 779 0
 3108 0000 FFF7FEBF 		b	chMBPostI
 3109              	.LVL264:
 3110              		.cfi_endproc
 3111              	.LFE155:
 3112              		.size	_ZN10chibios_rt7Mailbox5postIEl, .-_ZN10chibios_rt7Mailbox5postIEl
 3113 0004 AFF30080 		.section	.text._ZN10chibios_rt7Mailbox9postAheadElm,"ax",%progbits
 3113      AFF30080 
 3113      AFF30080 
 3114              		.align	2
 3115              		.p2align 4,,15
 3116              		.global	_ZN10chibios_rt7Mailbox9postAheadElm
 3117              		.thumb
 3118              		.thumb_func
 3119              		.type	_ZN10chibios_rt7Mailbox9postAheadElm, %function
ARM GAS  /tmp/ccIq0oiT.s 			page 59


 3120              	_ZN10chibios_rt7Mailbox9postAheadElm:
 3121              	.LFB156:
 3122              		.loc 1 782 0
 3123              		.cfi_startproc
 3124              		@ args = 0, pretend = 0, frame = 0
 3125              		@ frame_needed = 0, uses_anonymous_args = 0
 3126              		@ link register save eliminated.
 3127              	.LVL265:
 3128              		.loc 1 785 0
 3129              		.loc 1 784 0
 3130 0000 FFF7FEBF 		b	chMBPostAhead
 3131              	.LVL266:
 3132              		.cfi_endproc
 3133              	.LFE156:
 3134              		.size	_ZN10chibios_rt7Mailbox9postAheadElm, .-_ZN10chibios_rt7Mailbox9postAheadElm
 3135 0004 AFF30080 		.section	.text._ZN10chibios_rt7Mailbox10postAheadSElm,"ax",%progbits
 3135      AFF30080 
 3135      AFF30080 
 3136              		.align	2
 3137              		.p2align 4,,15
 3138              		.global	_ZN10chibios_rt7Mailbox10postAheadSElm
 3139              		.thumb
 3140              		.thumb_func
 3141              		.type	_ZN10chibios_rt7Mailbox10postAheadSElm, %function
 3142              	_ZN10chibios_rt7Mailbox10postAheadSElm:
 3143              	.LFB157:
 3144              		.loc 1 787 0
 3145              		.cfi_startproc
 3146              		@ args = 0, pretend = 0, frame = 0
 3147              		@ frame_needed = 0, uses_anonymous_args = 0
 3148              		@ link register save eliminated.
 3149              	.LVL267:
 3150              		.loc 1 790 0
 3151              		.loc 1 789 0
 3152 0000 FFF7FEBF 		b	chMBPostAheadS
 3153              	.LVL268:
 3154              		.cfi_endproc
 3155              	.LFE157:
 3156              		.size	_ZN10chibios_rt7Mailbox10postAheadSElm, .-_ZN10chibios_rt7Mailbox10postAheadSElm
 3157 0004 AFF30080 		.section	.text._ZN10chibios_rt7Mailbox10postAheadIEl,"ax",%progbits
 3157      AFF30080 
 3157      AFF30080 
 3158              		.align	2
 3159              		.p2align 4,,15
 3160              		.global	_ZN10chibios_rt7Mailbox10postAheadIEl
 3161              		.thumb
 3162              		.thumb_func
 3163              		.type	_ZN10chibios_rt7Mailbox10postAheadIEl, %function
 3164              	_ZN10chibios_rt7Mailbox10postAheadIEl:
 3165              	.LFB158:
 3166              		.loc 1 792 0
 3167              		.cfi_startproc
 3168              		@ args = 0, pretend = 0, frame = 0
 3169              		@ frame_needed = 0, uses_anonymous_args = 0
 3170              		@ link register save eliminated.
 3171              	.LVL269:
 3172              		.loc 1 795 0
ARM GAS  /tmp/ccIq0oiT.s 			page 60


 3173              		.loc 1 794 0
 3174 0000 FFF7FEBF 		b	chMBPostAheadI
 3175              	.LVL270:
 3176              		.cfi_endproc
 3177              	.LFE158:
 3178              		.size	_ZN10chibios_rt7Mailbox10postAheadIEl, .-_ZN10chibios_rt7Mailbox10postAheadIEl
 3179 0004 AFF30080 		.section	.text._ZN10chibios_rt7Mailbox5fetchEPlm,"ax",%progbits
 3179      AFF30080 
 3179      AFF30080 
 3180              		.align	2
 3181              		.p2align 4,,15
 3182              		.global	_ZN10chibios_rt7Mailbox5fetchEPlm
 3183              		.thumb
 3184              		.thumb_func
 3185              		.type	_ZN10chibios_rt7Mailbox5fetchEPlm, %function
 3186              	_ZN10chibios_rt7Mailbox5fetchEPlm:
 3187              	.LFB159:
 3188              		.loc 1 797 0
 3189              		.cfi_startproc
 3190              		@ args = 0, pretend = 0, frame = 0
 3191              		@ frame_needed = 0, uses_anonymous_args = 0
 3192              		@ link register save eliminated.
 3193              	.LVL271:
 3194              		.loc 1 800 0
 3195              		.loc 1 799 0
 3196 0000 FFF7FEBF 		b	chMBFetch
 3197              	.LVL272:
 3198              		.cfi_endproc
 3199              	.LFE159:
 3200              		.size	_ZN10chibios_rt7Mailbox5fetchEPlm, .-_ZN10chibios_rt7Mailbox5fetchEPlm
 3201 0004 AFF30080 		.section	.text._ZN10chibios_rt7Mailbox6fetchSEPlm,"ax",%progbits
 3201      AFF30080 
 3201      AFF30080 
 3202              		.align	2
 3203              		.p2align 4,,15
 3204              		.global	_ZN10chibios_rt7Mailbox6fetchSEPlm
 3205              		.thumb
 3206              		.thumb_func
 3207              		.type	_ZN10chibios_rt7Mailbox6fetchSEPlm, %function
 3208              	_ZN10chibios_rt7Mailbox6fetchSEPlm:
 3209              	.LFB160:
 3210              		.loc 1 802 0
 3211              		.cfi_startproc
 3212              		@ args = 0, pretend = 0, frame = 0
 3213              		@ frame_needed = 0, uses_anonymous_args = 0
 3214              		@ link register save eliminated.
 3215              	.LVL273:
 3216              		.loc 1 805 0
 3217              		.loc 1 804 0
 3218 0000 FFF7FEBF 		b	chMBFetchS
 3219              	.LVL274:
 3220              		.cfi_endproc
 3221              	.LFE160:
 3222              		.size	_ZN10chibios_rt7Mailbox6fetchSEPlm, .-_ZN10chibios_rt7Mailbox6fetchSEPlm
 3223 0004 AFF30080 		.section	.text._ZN10chibios_rt7Mailbox6fetchIEPl,"ax",%progbits
 3223      AFF30080 
 3223      AFF30080 
ARM GAS  /tmp/ccIq0oiT.s 			page 61


 3224              		.align	2
 3225              		.p2align 4,,15
 3226              		.global	_ZN10chibios_rt7Mailbox6fetchIEPl
 3227              		.thumb
 3228              		.thumb_func
 3229              		.type	_ZN10chibios_rt7Mailbox6fetchIEPl, %function
 3230              	_ZN10chibios_rt7Mailbox6fetchIEPl:
 3231              	.LFB161:
 3232              		.loc 1 807 0
 3233              		.cfi_startproc
 3234              		@ args = 0, pretend = 0, frame = 0
 3235              		@ frame_needed = 0, uses_anonymous_args = 0
 3236              		@ link register save eliminated.
 3237              	.LVL275:
 3238              		.loc 1 810 0
 3239              		.loc 1 809 0
 3240 0000 FFF7FEBF 		b	chMBFetchI
 3241              	.LVL276:
 3242              		.cfi_endproc
 3243              	.LFE161:
 3244              		.size	_ZN10chibios_rt7Mailbox6fetchIEPl, .-_ZN10chibios_rt7Mailbox6fetchIEPl
 3245 0004 AFF30080 		.section	.text._ZN10chibios_rt7Mailbox13getFreeCountIEv,"ax",%progbits
 3245      AFF30080 
 3245      AFF30080 
 3246              		.align	2
 3247              		.p2align 4,,15
 3248              		.global	_ZN10chibios_rt7Mailbox13getFreeCountIEv
 3249              		.thumb
 3250              		.thumb_func
 3251              		.type	_ZN10chibios_rt7Mailbox13getFreeCountIEv, %function
 3252              	_ZN10chibios_rt7Mailbox13getFreeCountIEv:
 3253              	.LFB162:
 3254              		.loc 1 812 0
 3255              		.cfi_startproc
 3256              		@ args = 0, pretend = 0, frame = 0
 3257              		@ frame_needed = 0, uses_anonymous_args = 0
 3258              		@ link register save eliminated.
 3259              	.LVL277:
 3260              		.loc 1 815 0
 3261 0000 406A     		ldr	r0, [r0, #36]
 3262              	.LVL278:
 3263 0002 7047     		bx	lr
 3264              		.cfi_endproc
 3265              	.LFE162:
 3266              		.size	_ZN10chibios_rt7Mailbox13getFreeCountIEv, .-_ZN10chibios_rt7Mailbox13getFreeCountIEv
 3267 0004 AFF30080 		.section	.text._ZN10chibios_rt7Mailbox13getUsedCountIEv,"ax",%progbits
 3267      AFF30080 
 3267      AFF30080 
 3268              		.align	2
 3269              		.p2align 4,,15
 3270              		.global	_ZN10chibios_rt7Mailbox13getUsedCountIEv
 3271              		.thumb
 3272              		.thumb_func
 3273              		.type	_ZN10chibios_rt7Mailbox13getUsedCountIEv, %function
 3274              	_ZN10chibios_rt7Mailbox13getUsedCountIEv:
 3275              	.LFB163:
 3276              		.loc 1 817 0
ARM GAS  /tmp/ccIq0oiT.s 			page 62


 3277              		.cfi_startproc
 3278              		@ args = 0, pretend = 0, frame = 0
 3279              		@ frame_needed = 0, uses_anonymous_args = 0
 3280              		@ link register save eliminated.
 3281              	.LVL279:
 3282              		.loc 1 820 0
 3283 0000 8069     		ldr	r0, [r0, #24]
 3284              	.LVL280:
 3285 0002 7047     		bx	lr
 3286              		.cfi_endproc
 3287              	.LFE163:
 3288              		.size	_ZN10chibios_rt7Mailbox13getUsedCountIEv, .-_ZN10chibios_rt7Mailbox13getUsedCountIEv
 3289 0004 AFF30080 		.section	.text._ZN10chibios_rt10MemoryPoolC2EjPFPvjE,"ax",%progbits
 3289      AFF30080 
 3289      AFF30080 
 3290              		.align	2
 3291              		.p2align 4,,15
 3292              		.global	_ZN10chibios_rt10MemoryPoolC2EjPFPvjE
 3293              		.thumb
 3294              		.thumb_func
 3295              		.type	_ZN10chibios_rt10MemoryPoolC2EjPFPvjE, %function
 3296              	_ZN10chibios_rt10MemoryPoolC2EjPFPvjE:
 3297              	.LFB165:
 3298              		.loc 1 827 0
 3299              		.cfi_startproc
 3300              		@ args = 0, pretend = 0, frame = 0
 3301              		@ frame_needed = 0, uses_anonymous_args = 0
 3302              	.LVL281:
 3303 0000 10B5     		push	{r4, lr}
 3304              	.LCFI16:
 3305              		.cfi_def_cfa_offset 8
 3306              		.cfi_offset 4, -8
 3307              		.cfi_offset 14, -4
 3308              		.loc 1 827 0
 3309 0002 0446     		mov	r4, r0
 3310              	.LBB52:
 3311              		.loc 1 829 0
 3312 0004 FFF7FEFF 		bl	chPoolInit
 3313              	.LVL282:
 3314              	.LBE52:
 3315              		.loc 1 830 0
 3316 0008 2046     		mov	r0, r4
 3317 000a 10BD     		pop	{r4, pc}
 3318              		.cfi_endproc
 3319              	.LFE165:
 3320              		.size	_ZN10chibios_rt10MemoryPoolC2EjPFPvjE, .-_ZN10chibios_rt10MemoryPoolC2EjPFPvjE
 3321              		.global	_ZN10chibios_rt10MemoryPoolC1EjPFPvjE
 3322              		.thumb_set _ZN10chibios_rt10MemoryPoolC1EjPFPvjE,_ZN10chibios_rt10MemoryPoolC2EjPFPvjE
 3323 000c AFF30080 		.section	.text._ZN10chibios_rt10MemoryPoolC2EjPFPvjES1_j,"ax",%progbits
 3324              		.align	2
 3325              		.p2align 4,,15
 3326              		.global	_ZN10chibios_rt10MemoryPoolC2EjPFPvjES1_j
 3327              		.thumb
 3328              		.thumb_func
 3329              		.type	_ZN10chibios_rt10MemoryPoolC2EjPFPvjES1_j, %function
 3330              	_ZN10chibios_rt10MemoryPoolC2EjPFPvjES1_j:
 3331              	.LFB168:
ARM GAS  /tmp/ccIq0oiT.s 			page 63


 3332              		.loc 1 832 0
 3333              		.cfi_startproc
 3334              		@ args = 4, pretend = 0, frame = 0
 3335              		@ frame_needed = 0, uses_anonymous_args = 0
 3336              	.LVL283:
 3337 0000 38B5     		push	{r3, r4, r5, lr}
 3338              	.LCFI17:
 3339              		.cfi_def_cfa_offset 16
 3340              		.cfi_offset 3, -16
 3341              		.cfi_offset 4, -12
 3342              		.cfi_offset 5, -8
 3343              		.cfi_offset 14, -4
 3344              		.loc 1 832 0
 3345 0002 0446     		mov	r4, r0
 3346 0004 1D46     		mov	r5, r3
 3347              	.LBB53:
 3348              		.loc 1 834 0
 3349 0006 FFF7FEFF 		bl	chPoolInit
 3350              	.LVL284:
 3351              		.loc 1 835 0
 3352 000a 2046     		mov	r0, r4
 3353 000c 2946     		mov	r1, r5
 3354 000e 049A     		ldr	r2, [sp, #16]
 3355 0010 FFF7FEFF 		bl	chPoolLoadArray
 3356              	.LVL285:
 3357              	.LBE53:
 3358              		.loc 1 836 0
 3359 0014 2046     		mov	r0, r4
 3360 0016 38BD     		pop	{r3, r4, r5, pc}
 3361              		.cfi_endproc
 3362              	.LFE168:
 3363              		.size	_ZN10chibios_rt10MemoryPoolC2EjPFPvjES1_j, .-_ZN10chibios_rt10MemoryPoolC2EjPFPvjES1_j
 3364              		.global	_ZN10chibios_rt10MemoryPoolC1EjPFPvjES1_j
 3365              		.thumb_set _ZN10chibios_rt10MemoryPoolC1EjPFPvjES1_j,_ZN10chibios_rt10MemoryPoolC2EjPFPvjES1_j
 3366 0018 AFF30080 		.section	.text._ZN10chibios_rt10MemoryPool9loadArrayEPvj,"ax",%progbits
 3366      AFF30080 
 3367              		.align	2
 3368              		.p2align 4,,15
 3369              		.global	_ZN10chibios_rt10MemoryPool9loadArrayEPvj
 3370              		.thumb
 3371              		.thumb_func
 3372              		.type	_ZN10chibios_rt10MemoryPool9loadArrayEPvj, %function
 3373              	_ZN10chibios_rt10MemoryPool9loadArrayEPvj:
 3374              	.LFB170:
 3375              		.loc 1 839 0
 3376              		.cfi_startproc
 3377              		@ args = 0, pretend = 0, frame = 0
 3378              		@ frame_needed = 0, uses_anonymous_args = 0
 3379              		@ link register save eliminated.
 3380              	.LVL286:
 3381              		.loc 1 842 0
 3382              		.loc 1 841 0
 3383 0000 FFF7FEBF 		b	chPoolLoadArray
 3384              	.LVL287:
 3385              		.cfi_endproc
 3386              	.LFE170:
 3387              		.size	_ZN10chibios_rt10MemoryPool9loadArrayEPvj, .-_ZN10chibios_rt10MemoryPool9loadArrayEPvj
ARM GAS  /tmp/ccIq0oiT.s 			page 64


 3388 0004 AFF30080 		.section	.text._ZN10chibios_rt10MemoryPool6allocIEv,"ax",%progbits
 3388      AFF30080 
 3388      AFF30080 
 3389              		.align	2
 3390              		.p2align 4,,15
 3391              		.global	_ZN10chibios_rt10MemoryPool6allocIEv
 3392              		.thumb
 3393              		.thumb_func
 3394              		.type	_ZN10chibios_rt10MemoryPool6allocIEv, %function
 3395              	_ZN10chibios_rt10MemoryPool6allocIEv:
 3396              	.LFB171:
 3397              		.loc 1 844 0
 3398              		.cfi_startproc
 3399              		@ args = 0, pretend = 0, frame = 0
 3400              		@ frame_needed = 0, uses_anonymous_args = 0
 3401              		@ link register save eliminated.
 3402              	.LVL288:
 3403              		.loc 1 847 0
 3404              		.loc 1 846 0
 3405 0000 FFF7FEBF 		b	chPoolAllocI
 3406              	.LVL289:
 3407              		.cfi_endproc
 3408              	.LFE171:
 3409              		.size	_ZN10chibios_rt10MemoryPool6allocIEv, .-_ZN10chibios_rt10MemoryPool6allocIEv
 3410 0004 AFF30080 		.section	.text._ZN10chibios_rt10MemoryPool5allocEv,"ax",%progbits
 3410      AFF30080 
 3410      AFF30080 
 3411              		.align	2
 3412              		.p2align 4,,15
 3413              		.global	_ZN10chibios_rt10MemoryPool5allocEv
 3414              		.thumb
 3415              		.thumb_func
 3416              		.type	_ZN10chibios_rt10MemoryPool5allocEv, %function
 3417              	_ZN10chibios_rt10MemoryPool5allocEv:
 3418              	.LFB172:
 3419              		.loc 1 849 0
 3420              		.cfi_startproc
 3421              		@ args = 0, pretend = 0, frame = 0
 3422              		@ frame_needed = 0, uses_anonymous_args = 0
 3423              		@ link register save eliminated.
 3424              	.LVL290:
 3425              		.loc 1 852 0
 3426              		.loc 1 851 0
 3427 0000 FFF7FEBF 		b	chPoolAlloc
 3428              	.LVL291:
 3429              		.cfi_endproc
 3430              	.LFE172:
 3431              		.size	_ZN10chibios_rt10MemoryPool5allocEv, .-_ZN10chibios_rt10MemoryPool5allocEv
 3432 0004 AFF30080 		.section	.text._ZN10chibios_rt10MemoryPool4freeEPv,"ax",%progbits
 3432      AFF30080 
 3432      AFF30080 
 3433              		.align	2
 3434              		.p2align 4,,15
 3435              		.global	_ZN10chibios_rt10MemoryPool4freeEPv
 3436              		.thumb
 3437              		.thumb_func
 3438              		.type	_ZN10chibios_rt10MemoryPool4freeEPv, %function
ARM GAS  /tmp/ccIq0oiT.s 			page 65


 3439              	_ZN10chibios_rt10MemoryPool4freeEPv:
 3440              	.LFB173:
 3441              		.loc 1 854 0
 3442              		.cfi_startproc
 3443              		@ args = 0, pretend = 0, frame = 0
 3444              		@ frame_needed = 0, uses_anonymous_args = 0
 3445              		@ link register save eliminated.
 3446              	.LVL292:
 3447              		.loc 1 857 0
 3448              		.loc 1 856 0
 3449 0000 FFF7FEBF 		b	chPoolFree
 3450              	.LVL293:
 3451              		.cfi_endproc
 3452              	.LFE173:
 3453              		.size	_ZN10chibios_rt10MemoryPool4freeEPv, .-_ZN10chibios_rt10MemoryPool4freeEPv
 3454 0004 AFF30080 		.section	.text._ZN10chibios_rt10MemoryPool5freeIEPv,"ax",%progbits
 3454      AFF30080 
 3454      AFF30080 
 3455              		.align	2
 3456              		.p2align 4,,15
 3457              		.global	_ZN10chibios_rt10MemoryPool5freeIEPv
 3458              		.thumb
 3459              		.thumb_func
 3460              		.type	_ZN10chibios_rt10MemoryPool5freeIEPv, %function
 3461              	_ZN10chibios_rt10MemoryPool5freeIEPv:
 3462              	.LFB174:
 3463              		.loc 1 859 0
 3464              		.cfi_startproc
 3465              		@ args = 0, pretend = 0, frame = 0
 3466              		@ frame_needed = 0, uses_anonymous_args = 0
 3467              		@ link register save eliminated.
 3468              	.LVL294:
 3469              		.loc 1 862 0
 3470              		.loc 1 861 0
 3471 0000 FFF7FEBF 		b	chPoolFreeI
 3472              	.LVL295:
 3473              		.cfi_endproc
 3474              	.LFE174:
 3475              		.size	_ZN10chibios_rt10MemoryPool5freeIEPv, .-_ZN10chibios_rt10MemoryPool5freeIEPv
 3476              		.global	_ZTVN10chibios_rt15ThreadReferenceE
 3477              		.global	_ZTVN10chibios_rt10BaseThreadE
 3478 0004 AFF30080 		.section	.rodata._ZTVN10chibios_rt10BaseThreadE,"a",%progbits
 3478      AFF30080 
 3478      AFF30080 
 3479              		.align	3
 3480              		.set	.LANCHOR1,. + 0
 3481              		.type	_ZTVN10chibios_rt10BaseThreadE, %object
 3482              		.size	_ZTVN10chibios_rt10BaseThreadE, 20
 3483              	_ZTVN10chibios_rt10BaseThreadE:
 3484 0000 00000000 		.word	0
 3485 0004 00000000 		.word	0
 3486 0008 00000000 		.word	_ZN10chibios_rt15ThreadReference4stopEv
 3487 000c 00000000 		.word	_ZN10chibios_rt10BaseThread4mainEv
 3488 0010 00000000 		.word	_ZN10chibios_rt10BaseThread5startEm
 3489 0014 00000000 		.section	.rodata._ZTVN10chibios_rt15ThreadReferenceE,"a",%progbits
 3490              		.align	3
 3491              		.set	.LANCHOR0,. + 0
ARM GAS  /tmp/ccIq0oiT.s 			page 66


 3492              		.type	_ZTVN10chibios_rt15ThreadReferenceE, %object
 3493              		.size	_ZTVN10chibios_rt15ThreadReferenceE, 12
 3494              	_ZTVN10chibios_rt15ThreadReferenceE:
 3495 0000 00000000 		.word	0
 3496 0004 00000000 		.word	0
 3497 0008 00000000 		.word	_ZN10chibios_rt15ThreadReference4stopEv
 3498 000c 00000000 		.text
 3499              	.Letext0:
 3500              		.file 3 "/usr/bin/../lib/gcc/arm-none-eabi/4.7.4/include/stddef.h"
 3501              		.file 4 "/usr/bin/../lib/gcc/arm-none-eabi/4.7.4/../../../../arm-none-eabi/include/stdint.h"
 3502              		.file 5 "../../os/ports/GCC/ARMCMx/chtypes.h"
 3503              		.file 6 "../../os/kernel/include/chlists.h"
 3504              		.file 7 "../../os/kernel/include/chthreads.h"
 3505              		.file 8 "../../os/ports/GCC/ARMCMx/chcore_v7m.h"
 3506              		.file 9 "../../os/kernel/include/chvt.h"
 3507              		.file 10 "../../os/kernel/include/chschd.h"
 3508              		.file 11 "../../os/kernel/include/chsem.h"
 3509              		.file 12 "../../os/kernel/include/chbsem.h"
 3510              		.file 13 "../../os/kernel/include/chmtx.h"
 3511              		.file 14 "../../os/kernel/include/chcond.h"
 3512              		.file 15 "../../os/kernel/include/chevents.h"
 3513              		.file 16 "../../os/kernel/include/chmboxes.h"
 3514              		.file 17 "../../os/kernel/include/chmemcore.h"
 3515              		.file 18 "../../os/kernel/include/chmempools.h"
 3516              		.file 19 "../../os/kernel/include/chqueues.h"
 3517              		.file 20 "../../os/kernel/include/chmsg.h"
 3518              		.file 21 "../../os/kernel/include/chsys.h"