ARM GAS  /tmp/cclOqGEX.s 			page 1


   1              		.syntax unified
   2              		.cpu cortex-m4
   3              		.fpu softvfp
   4              		.eabi_attribute 20, 1
   5              		.eabi_attribute 21, 1
   6              		.eabi_attribute 23, 3
   7              		.eabi_attribute 24, 1
   8              		.eabi_attribute 25, 1
   9              		.eabi_attribute 26, 1
  10              		.eabi_attribute 30, 2
  11              		.eabi_attribute 34, 1
  12              		.eabi_attribute 18, 4
  13              		.thumb
  14              		.file	"main.cpp"
  15              		.text
  16              	.Ltext0:
  17              		.cfi_sections	.debug_frame
  18              		.section	.text._ZN10chibios_rt16BaseStaticThreadILi256EE5startEm,"axG",%progbits,_ZN10chibios_rt16
  19              		.align	2
  20              		.p2align 4,,15
  21              		.weak	_ZN10chibios_rt16BaseStaticThreadILi256EE5startEm
  22              		.thumb
  23              		.thumb_func
  24              		.type	_ZN10chibios_rt16BaseStaticThreadILi256EE5startEm, %function
  25              	_ZN10chibios_rt16BaseStaticThreadILi256EE5startEm:
  26              	.LFB146:
  27              		.file 1 "../../os/various/cpp_wrappers/ch.hpp"
  28              		.loc 1 784 0
  29              		.cfi_startproc
  30              		@ args = 0, pretend = 0, frame = 0
  31              		@ frame_needed = 0, uses_anonymous_args = 0
  32              	.LVL0:
  33 0000 30B5     		push	{r4, r5, lr}
  34              	.LCFI0:
  35              		.cfi_def_cfa_offset 12
  36              		.cfi_offset 4, -12
  37              		.cfi_offset 5, -8
  38              		.cfi_offset 14, -4
  39 0002 83B0     		sub	sp, sp, #12
  40              	.LCFI1:
  41              		.cfi_def_cfa_offset 24
  42              	.LBB13:
  43              		.loc 1 787 0
  44 0004 40F20003 		movw	r3, #:lower16:_ZN10chibios_rt10_thd_startEPv
  45              	.LBE13:
  46              		.loc 1 784 0
  47 0008 0446     		mov	r4, r0
  48 000a 0D46     		mov	r5, r1
  49              	.LBB18:
  50              		.loc 1 787 0
  51 000c 0091     		str	r1, [sp, #0]
  52 000e 01F10800 		add	r0, r1, #8
  53              	.LVL1:
  54 0012 C0F20003 		movt	r3, #:upper16:_ZN10chibios_rt10_thd_startEPv
  55 0016 4FF4D871 		mov	r1, #432
  56              	.LVL2:
  57 001a FFF7FEFF 		bl	chThdCreateStatic
ARM GAS  /tmp/cclOqGEX.s 			page 2


  58              	.LVL3:
  59              	.LBB14:
  60              	.LBB15:
  61              		.loc 1 234 0
  62 001e 034B     		ldr	r3, .L2
  63              	.LBE15:
  64              	.LBE14:
  65              		.loc 1 787 0
  66 0020 6860     		str	r0, [r5, #4]
  67              	.LVL4:
  68              	.LBB17:
  69              	.LBB16:
  70              		.loc 1 234 0
  71 0022 2360     		str	r3, [r4, #0]
  72 0024 6060     		str	r0, [r4, #4]
  73              	.LBE16:
  74              	.LBE17:
  75              	.LBE18:
  76              		.loc 1 789 0
  77 0026 2046     		mov	r0, r4
  78 0028 03B0     		add	sp, sp, #12
  79 002a 30BD     		pop	{r4, r5, pc}
  80              	.L3:
  81              		.align	2
  82              	.L2:
  83 002c 08000000 		.word	_ZTVN10chibios_rt15ThreadReferenceE+8
  84              		.cfi_endproc
  85              	.LFE146:
  86              		.size	_ZN10chibios_rt16BaseStaticThreadILi256EE5startEm, .-_ZN10chibios_rt16BaseStaticThreadILi256
  87              		.section	.text._ZN10chibios_rt16BaseStaticThreadILi128EE5startEm,"axG",%progbits,_ZN10chibios_rt16
  88              		.align	2
  89              		.p2align 4,,15
  90              		.weak	_ZN10chibios_rt16BaseStaticThreadILi128EE5startEm
  91              		.thumb
  92              		.thumb_func
  93              		.type	_ZN10chibios_rt16BaseStaticThreadILi128EE5startEm, %function
  94              	_ZN10chibios_rt16BaseStaticThreadILi128EE5startEm:
  95              	.LFB142:
  96              		.loc 1 784 0
  97              		.cfi_startproc
  98              		@ args = 0, pretend = 0, frame = 0
  99              		@ frame_needed = 0, uses_anonymous_args = 0
 100              	.LVL5:
 101 0000 30B5     		push	{r4, r5, lr}
 102              	.LCFI2:
 103              		.cfi_def_cfa_offset 12
 104              		.cfi_offset 4, -12
 105              		.cfi_offset 5, -8
 106              		.cfi_offset 14, -4
 107 0002 83B0     		sub	sp, sp, #12
 108              	.LCFI3:
 109              		.cfi_def_cfa_offset 24
 110              	.LBB19:
 111              		.loc 1 787 0
 112 0004 40F20003 		movw	r3, #:lower16:_ZN10chibios_rt10_thd_startEPv
 113              	.LBE19:
 114              		.loc 1 784 0
ARM GAS  /tmp/cclOqGEX.s 			page 3


 115 0008 0446     		mov	r4, r0
 116 000a 0D46     		mov	r5, r1
 117              	.LBB24:
 118              		.loc 1 787 0
 119 000c 0091     		str	r1, [sp, #0]
 120 000e 01F10800 		add	r0, r1, #8
 121              	.LVL6:
 122 0012 C0F20003 		movt	r3, #:upper16:_ZN10chibios_rt10_thd_startEPv
 123 0016 4FF49871 		mov	r1, #304
 124              	.LVL7:
 125 001a FFF7FEFF 		bl	chThdCreateStatic
 126              	.LVL8:
 127              	.LBB20:
 128              	.LBB21:
 129              		.loc 1 234 0
 130 001e 034B     		ldr	r3, .L5
 131              	.LBE21:
 132              	.LBE20:
 133              		.loc 1 787 0
 134 0020 6860     		str	r0, [r5, #4]
 135              	.LVL9:
 136              	.LBB23:
 137              	.LBB22:
 138              		.loc 1 234 0
 139 0022 2360     		str	r3, [r4, #0]
 140 0024 6060     		str	r0, [r4, #4]
 141              	.LBE22:
 142              	.LBE23:
 143              	.LBE24:
 144              		.loc 1 789 0
 145 0026 2046     		mov	r0, r4
 146 0028 03B0     		add	sp, sp, #12
 147 002a 30BD     		pop	{r4, r5, pc}
 148              	.L6:
 149              		.align	2
 150              	.L5:
 151 002c 08000000 		.word	_ZTVN10chibios_rt15ThreadReferenceE+8
 152              		.cfi_endproc
 153              	.LFE142:
 154              		.size	_ZN10chibios_rt16BaseStaticThreadILi128EE5startEm, .-_ZN10chibios_rt16BaseStaticThreadILi128
 155              		.section	.text.startup._ZN15SequencerThread4mainEv,"axG",%progbits,_ZN15SequencerThread4mainEv,com
 156              		.align	2
 157              		.p2align 4,,15
 158              		.weak	_ZN15SequencerThread4mainEv
 159              		.thumb
 160              		.thumb_func
 161              		.type	_ZN15SequencerThread4mainEv, %function
 162              	_ZN15SequencerThread4mainEv:
 163              	.LFB127:
 164              		.file 2 "main.cpp"
 165              		.loc 2 93 0
 166              		.cfi_startproc
 167              		@ args = 0, pretend = 0, frame = 0
 168              		@ frame_needed = 0, uses_anonymous_args = 0
 169              	.LVL10:
 170 0000 38B5     		push	{r3, r4, r5, lr}
 171              	.LCFI4:
ARM GAS  /tmp/cclOqGEX.s 			page 4


 172              		.cfi_def_cfa_offset 16
 173              		.cfi_offset 3, -16
 174              		.cfi_offset 4, -12
 175              		.cfi_offset 5, -8
 176              		.cfi_offset 14, -4
 177              		.loc 2 93 0
 178 0002 0446     		mov	r4, r0
 179              		.loc 2 95 0
 180 0004 1748     		ldr	r0, .L20
 181              	.LVL11:
 182 0006 FFF7FEFF 		bl	_ZN10chibios_rt10BaseThread7setNameEPKc
 183              	.LVL12:
 184              		.loc 2 108 0
 185 000a 4FF44065 		mov	r5, #3072
 186 000e D4F83C31 		ldr	r3, [r4, #316]
 187 0012 C4F20205 		movt	r5, 16386
 188              	.L18:
 189              		.loc 2 98 0
 190 0016 1A78     		ldrb	r2, [r3, #0]	@ zero_extendqisi2
 191 0018 042A     		cmp	r2, #4
 192 001a 06D8     		bhi	.L9
 193 001c DFE802F0 		tbb	[pc, r2]
 194              	.L15:
 195 0020 19       		.byte	(.L10-.L15)/2
 196 0021 11       		.byte	(.L11-.L15)/2
 197 0022 09       		.byte	(.L17-.L15)/2
 198 0023 0B       		.byte	(.L13-.L15)/2
 199 0024 03       		.byte	(.L14-.L15)/2
 200 0025 00       		.align	1
 201              	.L14:
 202              		.loc 2 111 0
 203 0026 9888     		ldrh	r0, [r3, #4]
 204 0028 2883     		strh	r0, [r5, #24]	@ movhi
 205              	.L9:
 206              		.loc 2 114 0
 207 002a 0833     		adds	r3, r3, #8
 208 002c C4F83C31 		str	r3, [r4, #316]
 209 0030 F1E7     		b	.L18
 210              	.L17:
 211              		.loc 2 116 0
 212 0032 0020     		movs	r0, #0
 213 0034 38BD     		pop	{r3, r4, r5, pc}
 214              	.L13:
 215              		.loc 2 108 0
 216 0036 9988     		ldrh	r1, [r3, #4]
 217              		.loc 2 114 0
 218 0038 0833     		adds	r3, r3, #8
 219              		.loc 2 108 0
 220 003a 6983     		strh	r1, [r5, #26]	@ movhi
 221              		.loc 2 114 0
 222 003c C4F83C31 		str	r3, [r4, #316]
 223 0040 E9E7     		b	.L18
 224              	.L11:
 225              		.loc 2 103 0
 226 0042 5A68     		ldr	r2, [r3, #4]
 227 0044 D4F83831 		ldr	r3, [r4, #312]
 228 0048 03EBC203 		add	r3, r3, r2, lsl #3
ARM GAS  /tmp/cclOqGEX.s 			page 5


 229 004c C4F83C31 		str	r3, [r4, #316]
 230              		.loc 2 104 0
 231 0050 E1E7     		b	.L18
 232              	.L10:
 233              		.loc 2 100 0
 234 0052 5868     		ldr	r0, [r3, #4]
 235 0054 FFF7FEFF 		bl	_ZN10chibios_rt10BaseThread5sleepEm
 236              	.LVL13:
 237 0058 D4F83C31 		ldr	r3, [r4, #316]
 238              		.loc 2 114 0
 239 005c 0833     		adds	r3, r3, #8
 240 005e C4F83C31 		str	r3, [r4, #316]
 241 0062 D8E7     		b	.L18
 242              	.L21:
 243              		.align	2
 244              	.L20:
 245 0064 00000000 		.word	.LC0
 246              		.cfi_endproc
 247              	.LFE127:
 248              		.size	_ZN15SequencerThread4mainEv, .-_ZN15SequencerThread4mainEv
 249 0068 AFF30080 		.section	.text.startup._ZN12TesterThread4mainEv,"axG",%progbits,_ZN12TesterThread4mainEv,comdat
 249      AFF30080 
 250              		.align	2
 251              		.p2align 4,,15
 252              		.weak	_ZN12TesterThread4mainEv
 253              		.thumb
 254              		.thumb_func
 255              		.type	_ZN12TesterThread4mainEv, %function
 256              	_ZN12TesterThread4mainEv:
 257              	.LFB131:
 258              		.loc 2 131 0
 259              		.cfi_startproc
 260              		@ args = 0, pretend = 0, frame = 0
 261              		@ frame_needed = 0, uses_anonymous_args = 0
 262              	.LVL14:
 263 0000 08B5     		push	{r3, lr}
 264              	.LCFI5:
 265              		.cfi_def_cfa_offset 8
 266              		.cfi_offset 3, -8
 267              		.cfi_offset 14, -4
 268              		.loc 2 133 0
 269 0002 40F20000 		movw	r0, #:lower16:.LC1
 270              	.LVL15:
 271 0006 C0F20000 		movt	r0, #:upper16:.LC1
 272 000a FFF7FEFF 		bl	_ZN10chibios_rt10BaseThread7setNameEPKc
 273              	.LVL16:
 274              		.loc 2 135 0
 275 000e 40F20000 		movw	r0, #:lower16:SD2
 276 0012 C0F20000 		movt	r0, #:upper16:SD2
 277              		.loc 2 136 0
 278 0016 BDE80840 		pop	{r3, lr}
 279              		.loc 2 135 0
 280 001a FFF7FEBF 		b	TestThread
 281              	.LVL17:
 282              		.cfi_endproc
 283              	.LFE131:
 284              		.size	_ZN12TesterThread4mainEv, .-_ZN12TesterThread4mainEv
ARM GAS  /tmp/cclOqGEX.s 			page 6


 285 001e 00BF     		.section	.text.startup.main,"ax",%progbits
 286              		.align	2
 287              		.p2align 4,,15
 288              		.global	main
 289              		.thumb
 290              		.thumb_func
 291              		.type	main, %function
 292              	main:
 293              	.LFB135:
 294              		.loc 2 155 0
 295              		.cfi_startproc
 296              		@ args = 0, pretend = 0, frame = 8
 297              		@ frame_needed = 0, uses_anonymous_args = 0
 298 0000 30B5     		push	{r4, r5, lr}
 299              	.LCFI6:
 300              		.cfi_def_cfa_offset 12
 301              		.cfi_offset 4, -12
 302              		.cfi_offset 5, -8
 303              		.cfi_offset 14, -4
 304 0002 85B0     		sub	sp, sp, #20
 305              	.LCFI7:
 306              		.cfi_def_cfa_offset 32
 307              		.loc 2 164 0
 308 0004 FFF7FEFF 		bl	halInit
 309              	.LVL18:
 310              		.loc 2 165 0
 311 0008 FFF7FEFF 		bl	_ZN10chibios_rt6System4initEv
 312              	.LVL19:
 313              		.loc 2 167 0
 314 000c 2348     		ldr	r0, .L29
 315 000e 244D     		ldr	r5, .L29+4
 316 0010 FFF7FEFF 		bl	_ZN13chibios_fatfs12FatFSWrapper5mountEv
 317              	.LVL20:
 318              		.loc 2 168 0
 319 0014 2148     		ldr	r0, .L29
 320 0016 FFF7FEFF 		bl	_ZN13chibios_fatfs12FatFSWrapper7unmountEv
 321              	.LVL21:
 322              		.loc 2 174 0
 323 001a 2248     		ldr	r0, .L29+8
 324 001c 0021     		movs	r1, #0
 325 001e FFF7FEFF 		bl	sdStart
 326              	.LVL22:
 327              		.loc 2 175 0
 328 0022 0020     		movs	r0, #0
 329 0024 C4F20200 		movt	r0, 16386
 330 0028 0421     		movs	r1, #4
 331 002a 40F28232 		movw	r2, #898
 332 002e FFF7FEFF 		bl	_pal_lld_setgroupmode
 333              	.LVL23:
 334              		.loc 2 176 0
 335 0032 0020     		movs	r0, #0
 336 0034 C4F20200 		movt	r0, 16386
 337 0038 0821     		movs	r1, #8
 338 003a 40F28232 		movw	r2, #898
 339 003e FFF7FEFF 		bl	_pal_lld_setgroupmode
 340              	.LVL24:
 341              		.loc 2 182 0
ARM GAS  /tmp/cclOqGEX.s 			page 7


 342 0042 1949     		ldr	r1, .L29+12
 343 0044 4A22     		movs	r2, #74
 344 0046 02A8     		add	r0, sp, #8
 345 0048 FFF7FEFF 		bl	_ZN10chibios_rt16BaseStaticThreadILi128EE5startEm
 346              	.LVL25:
 347              		.loc 2 183 0
 348 004c 02A8     		add	r0, sp, #8
 349 004e 1749     		ldr	r1, .L29+16
 350 0050 4A22     		movs	r2, #74
 351 0052 FFF7FEFF 		bl	_ZN10chibios_rt16BaseStaticThreadILi128EE5startEm
 352              	.LVL26:
 353              		.loc 2 184 0
 354 0056 02A8     		add	r0, sp, #8
 355 0058 1549     		ldr	r1, .L29+20
 356 005a 4A22     		movs	r2, #74
 357 005c FFF7FEFF 		bl	_ZN10chibios_rt16BaseStaticThreadILi128EE5startEm
 358              	.LVL27:
 359              		.loc 2 191 0
 360 0060 0024     		movs	r4, #0
 361              		.loc 2 185 0
 362 0062 02A8     		add	r0, sp, #8
 363 0064 1349     		ldr	r1, .L29+24
 364 0066 4A22     		movs	r2, #74
 365 0068 FFF7FEFF 		bl	_ZN10chibios_rt16BaseStaticThreadILi128EE5startEm
 366              	.LVL28:
 367              		.loc 2 191 0
 368 006c C4F20204 		movt	r4, 16386
 369 0070 03E0     		b	.L25
 370              	.L24:
 371              		.loc 2 195 0
 372 0072 4FF4FA70 		mov	r0, #500
 373 0076 FFF7FEFF 		bl	_ZN10chibios_rt10BaseThread5sleepEm
 374              	.LVL29:
 375              	.L25:
 376              		.loc 2 191 0
 377 007a 2369     		ldr	r3, [r4, #16]
 378 007c DB07     		lsls	r3, r3, #31
 379 007e F8D5     		bpl	.L24
 380              	.LVL30:
 381              	.LBB30:
 382              	.LBB31:
 383              		.loc 1 787 0
 384 0080 4FF4D871 		mov	r1, #432
 385 0084 4022     		movs	r2, #64
 386 0086 0C4B     		ldr	r3, .L29+28
 387 0088 0095     		str	r5, [sp, #0]
 388 008a 0C48     		ldr	r0, .L29+32
 389 008c FFF7FEFF 		bl	chThdCreateStatic
 390              	.LVL31:
 391 0090 6860     		str	r0, [r5, #4]
 392              	.LVL32:
 393              	.LBE31:
 394              	.LBE30:
 395              		.loc 2 193 0
 396 0092 0348     		ldr	r0, .L29+4
 397 0094 FFF7FEFF 		bl	_ZN10chibios_rt15ThreadReference4waitEv
 398              	.LVL33:
ARM GAS  /tmp/cclOqGEX.s 			page 8


 399 0098 EBE7     		b	.L24
 400              	.L30:
 401 009a 00BF     		.align	2
 402              	.L29:
 403 009c 00000000 		.word	.LANCHOR0
 404 00a0 00000000 		.word	.LANCHOR5
 405 00a4 00000000 		.word	SD2
 406 00a8 00000000 		.word	.LANCHOR1
 407 00ac 00000000 		.word	.LANCHOR2
 408 00b0 00000000 		.word	.LANCHOR3
 409 00b4 00000000 		.word	.LANCHOR4
 410 00b8 00000000 		.word	_ZN10chibios_rt10_thd_startEPv
 411 00bc 08000000 		.word	.LANCHOR5+8
 412              		.cfi_endproc
 413              	.LFE135:
 414              		.size	main, .-main
 415              		.section	.text.startup._GLOBAL__sub_I_main,"ax",%progbits
 416              		.align	2
 417              		.p2align 4,,15
 418              		.thumb
 419              		.thumb_func
 420              		.type	_GLOBAL__sub_I_main, %function
 421              	_GLOBAL__sub_I_main:
 422              	.LFB148:
 423              		.loc 2 199 0
 424              		.cfi_startproc
 425              		@ args = 0, pretend = 0, frame = 0
 426              		@ frame_needed = 0, uses_anonymous_args = 0
 427              	.LVL34:
 428 0000 F8B5     		push	{r3, r4, r5, r6, r7, lr}
 429              	.LCFI8:
 430              		.cfi_def_cfa_offset 24
 431              		.cfi_offset 3, -24
 432              		.cfi_offset 4, -20
 433              		.cfi_offset 5, -16
 434              		.cfi_offset 6, -12
 435              		.cfi_offset 7, -8
 436              		.cfi_offset 14, -4
 437              	.LBB64:
 438              	.LBB65:
 439              	.LBB66:
 440              	.LBB67:
 441              	.LBB68:
 442              	.LBB69:
 443              		.loc 1 771 0
 444 0002 40F20005 		movw	r5, #:lower16:.LANCHOR5
 445 0006 C0F20005 		movt	r5, #:upper16:.LANCHOR5
 446 000a 2846     		mov	r0, r5
 447              	.LBE69:
 448              	.LBE68:
 449              	.LBE67:
 450              	.LBE66:
 451              	.LBB75:
 452              	.LBB76:
 453              	.LBB77:
 454              	.LBB78:
 455 000c 40F20004 		movw	r4, #:lower16:.LANCHOR1
ARM GAS  /tmp/cclOqGEX.s 			page 9


 456              	.LBE78:
 457              	.LBE77:
 458              	.LBE76:
 459              	.LBE75:
 460              	.LBB91:
 461              	.LBB72:
 462              	.LBB71:
 463              	.LBB70:
 464 0010 FFF7FEFF 		bl	_ZN10chibios_rt10BaseThreadC2Ev
 465              	.LVL35:
 466              	.LBE70:
 467              	.LBE71:
 468              	.LBE72:
 469              	.LBE91:
 470              	.LBB92:
 471              	.LBB85:
 472              	.LBB82:
 473              	.LBB79:
 474 0014 C0F20004 		movt	r4, #:upper16:.LANCHOR1
 475              	.LBE79:
 476              	.LBE82:
 477              	.LBE85:
 478              	.LBE92:
 479              	.LBB93:
 480              	.LBB73:
 481              		.loc 2 139 0
 482 0018 234B     		ldr	r3, .L32
 483              	.LBE73:
 484              	.LBE93:
 485              	.LBB94:
 486              	.LBB86:
 487              		.loc 2 119 0
 488 001a 244F     		ldr	r7, .L32+4
 489              	.LBE86:
 490              	.LBE94:
 491              	.LBB95:
 492              	.LBB74:
 493              		.loc 2 139 0
 494 001c 2B60     		str	r3, [r5, #0]
 495              	.LVL36:
 496              	.LBE74:
 497              	.LBE95:
 498              	.LBB96:
 499              	.LBB87:
 500              	.LBB83:
 501              	.LBB80:
 502              		.loc 1 771 0
 503 001e 2046     		mov	r0, r4
 504              	.LBE80:
 505              	.LBE83:
 506              	.LBE87:
 507              	.LBE96:
 508              	.LBB97:
 509              	.LBB98:
 510              	.LBB99:
 511              	.LBB100:
 512 0020 40F20006 		movw	r6, #:lower16:.LANCHOR2
ARM GAS  /tmp/cclOqGEX.s 			page 10


 513              	.LBE100:
 514              	.LBE99:
 515              	.LBE98:
 516              	.LBE97:
 517              	.LBB111:
 518              	.LBB88:
 519              	.LBB84:
 520              	.LBB81:
 521 0024 FFF7FEFF 		bl	_ZN10chibios_rt10BaseThreadC2Ev
 522              	.LVL37:
 523              	.LBE81:
 524              	.LBE84:
 525              	.LBE88:
 526              	.LBE111:
 527              	.LBB112:
 528              	.LBB107:
 529              	.LBB104:
 530              	.LBB101:
 531 0028 C0F20006 		movt	r6, #:upper16:.LANCHOR2
 532              	.LBE101:
 533              	.LBE104:
 534              	.LBE107:
 535              	.LBE112:
 536              	.LBB113:
 537              	.LBB89:
 538              		.loc 2 121 0
 539 002c 40F20001 		movw	r1, #:lower16:.LANCHOR6
 540 0030 C0F20001 		movt	r1, #:upper16:.LANCHOR6
 541              	.LBE89:
 542              	.LBE113:
 543              	.LBB114:
 544              	.LBB108:
 545              	.LBB105:
 546              	.LBB102:
 547              		.loc 1 771 0
 548 0034 3046     		mov	r0, r6
 549              	.LBE102:
 550              	.LBE105:
 551              	.LBE108:
 552              	.LBE114:
 553              	.LBB115:
 554              	.LBB116:
 555              	.LBB117:
 556              	.LBB118:
 557 0036 40F20005 		movw	r5, #:lower16:.LANCHOR3
 558 003a C0F20005 		movt	r5, #:upper16:.LANCHOR3
 559              	.LBE118:
 560              	.LBE117:
 561              	.LBE116:
 562              	.LBE115:
 563              	.LBB126:
 564              	.LBB90:
 565              		.loc 2 121 0
 566 003e C4F83C11 		str	r1, [r4, #316]
 567 0042 C4F83811 		str	r1, [r4, #312]
 568              	.LVL38:
 569              		.loc 2 119 0
ARM GAS  /tmp/cclOqGEX.s 			page 11


 570 0046 2760     		str	r7, [r4, #0]
 571              	.LBE90:
 572              	.LBE126:
 573              	.LBB127:
 574              	.LBB109:
 575              	.LBB106:
 576              	.LBB103:
 577              		.loc 1 771 0
 578 0048 FFF7FEFF 		bl	_ZN10chibios_rt10BaseThreadC2Ev
 579              	.LVL39:
 580              	.LBE103:
 581              	.LBE106:
 582              		.loc 2 121 0
 583 004c 40F20002 		movw	r2, #:lower16:.LANCHOR7
 584 0050 C0F20002 		movt	r2, #:upper16:.LANCHOR7
 585              	.LBE109:
 586              	.LBE127:
 587              	.LBB128:
 588              	.LBB123:
 589              	.LBB121:
 590              	.LBB119:
 591              		.loc 1 771 0
 592 0054 2846     		mov	r0, r5
 593              	.LBE119:
 594              	.LBE121:
 595              	.LBE123:
 596              	.LBE128:
 597              	.LBB129:
 598              	.LBB130:
 599              	.LBB131:
 600              	.LBB132:
 601 0056 40F20004 		movw	r4, #:lower16:.LANCHOR4
 602 005a C0F20004 		movt	r4, #:upper16:.LANCHOR4
 603              	.LBE132:
 604              	.LBE131:
 605              	.LBE130:
 606              	.LBE129:
 607              	.LBB141:
 608              	.LBB110:
 609              		.loc 2 121 0
 610 005e C6F83C21 		str	r2, [r6, #316]
 611 0062 C6F83821 		str	r2, [r6, #312]
 612              	.LVL40:
 613              		.loc 2 119 0
 614 0066 3760     		str	r7, [r6, #0]
 615              	.LBE110:
 616              	.LBE141:
 617              	.LBB142:
 618              	.LBB124:
 619              	.LBB122:
 620              	.LBB120:
 621              		.loc 1 771 0
 622 0068 FFF7FEFF 		bl	_ZN10chibios_rt10BaseThreadC2Ev
 623              	.LVL41:
 624              	.LBE120:
 625              	.LBE122:
 626              		.loc 2 121 0
ARM GAS  /tmp/cclOqGEX.s 			page 12


 627 006c 40F20003 		movw	r3, #:lower16:.LANCHOR8
 628 0070 C0F20003 		movt	r3, #:upper16:.LANCHOR8
 629              	.LBE124:
 630              	.LBE142:
 631              	.LBB143:
 632              	.LBB137:
 633              	.LBB135:
 634              	.LBB133:
 635              		.loc 1 771 0
 636 0074 2046     		mov	r0, r4
 637              	.LBE133:
 638              	.LBE135:
 639              	.LBE137:
 640              	.LBE143:
 641              	.LBB144:
 642              	.LBB125:
 643              		.loc 2 119 0
 644 0076 2F60     		str	r7, [r5, #0]
 645              		.loc 2 121 0
 646 0078 C5F83C31 		str	r3, [r5, #316]
 647 007c C5F83831 		str	r3, [r5, #312]
 648              	.LVL42:
 649              	.LBE125:
 650              	.LBE144:
 651              	.LBB145:
 652              	.LBB138:
 653              	.LBB136:
 654              	.LBB134:
 655              		.loc 1 771 0
 656 0080 FFF7FEFF 		bl	_ZN10chibios_rt10BaseThreadC2Ev
 657              	.LVL43:
 658              	.LBE134:
 659              	.LBE136:
 660              		.loc 2 121 0
 661 0084 40F20001 		movw	r1, #:lower16:.LANCHOR9
 662              	.LBE138:
 663              	.LBE145:
 664              		.loc 2 150 0
 665 0088 40F20000 		movw	r0, #:lower16:.LANCHOR0
 666              	.LBB146:
 667              	.LBB139:
 668              		.loc 2 121 0
 669 008c C0F20001 		movt	r1, #:upper16:.LANCHOR9
 670              	.LBE139:
 671              	.LBE146:
 672              		.loc 2 150 0
 673 0090 C0F20000 		movt	r0, #:upper16:.LANCHOR0
 674              	.LBB147:
 675              	.LBB140:
 676              		.loc 2 119 0
 677 0094 2760     		str	r7, [r4, #0]
 678              		.loc 2 121 0
 679 0096 C4F83C11 		str	r1, [r4, #316]
 680 009a C4F83811 		str	r1, [r4, #312]
 681              	.LBE140:
 682              	.LBE147:
 683              	.LBE65:
ARM GAS  /tmp/cclOqGEX.s 			page 13


 684              	.LBE64:
 685              		.loc 2 199 0
 686 009e BDE8F840 		pop	{r3, r4, r5, r6, r7, lr}
 687              	.LBB149:
 688              	.LBB148:
 689              		.loc 2 150 0
 690 00a2 FFF7FEBF 		b	_ZN13chibios_fatfs12FatFSWrapperC1Ev
 691              	.LVL44:
 692              	.L33:
 693 00a6 00BF     		.align	2
 694              	.L32:
 695 00a8 08000000 		.word	_ZTV12TesterThread+8
 696 00ac 08000000 		.word	_ZTV15SequencerThread+8
 697              	.LBE148:
 698              	.LBE149:
 699              		.cfi_endproc
 700              	.LFE148:
 701              		.size	_GLOBAL__sub_I_main, .-_GLOBAL__sub_I_main
 702              		.section	.init_array,"aw",%init_array
 703              		.align	2
 704 0000 00000000 		.word	_GLOBAL__sub_I_main(target1)
 705              		.weak	_ZTV15SequencerThread
 706              		.section	.rodata._ZTV15SequencerThread,"aG",%progbits,_ZTV15SequencerThread,comdat
 707              		.align	3
 708              		.type	_ZTV15SequencerThread, %object
 709              		.size	_ZTV15SequencerThread, 20
 710              	_ZTV15SequencerThread:
 711 0000 00000000 		.word	0
 712 0004 00000000 		.word	0
 713 0008 00000000 		.word	_ZN10chibios_rt15ThreadReference4stopEv
 714 000c 00000000 		.word	_ZN15SequencerThread4mainEv
 715 0010 00000000 		.word	_ZN10chibios_rt16BaseStaticThreadILi128EE5startEm
 716              		.weak	_ZTV12TesterThread
 717 0014 00000000 		.section	.rodata._ZTV12TesterThread,"aG",%progbits,_ZTV12TesterThread,comdat
 718              		.align	3
 719              		.type	_ZTV12TesterThread, %object
 720              		.size	_ZTV12TesterThread, 20
 721              	_ZTV12TesterThread:
 722 0000 00000000 		.word	0
 723 0004 00000000 		.word	0
 724 0008 00000000 		.word	_ZN10chibios_rt15ThreadReference4stopEv
 725 000c 00000000 		.word	_ZN12TesterThread4mainEv
 726 0010 00000000 		.word	_ZN10chibios_rt16BaseStaticThreadILi256EE5startEm
 727 0014 00000000 		.section	.bss._ZL8blinker1,"aw",%nobits
 728              		.align	3
 729              		.set	.LANCHOR1,. + 0
 730              		.type	_ZL8blinker1, %object
 731              		.size	_ZL8blinker1, 320
 732              	_ZL8blinker1:
 733 0000 00000000 		.space	320
 733      00000000 
 733      00000000 
 733      00000000 
 733      00000000 
 734              		.section	.bss._ZL8blinker2,"aw",%nobits
 735              		.align	3
 736              		.set	.LANCHOR2,. + 0
ARM GAS  /tmp/cclOqGEX.s 			page 14


 737              		.type	_ZL8blinker2, %object
 738              		.size	_ZL8blinker2, 320
 739              	_ZL8blinker2:
 740 0000 00000000 		.space	320
 740      00000000 
 740      00000000 
 740      00000000 
 740      00000000 
 741              		.section	.bss._ZL8blinker3,"aw",%nobits
 742              		.align	3
 743              		.set	.LANCHOR3,. + 0
 744              		.type	_ZL8blinker3, %object
 745              		.size	_ZL8blinker3, 320
 746              	_ZL8blinker3:
 747 0000 00000000 		.space	320
 747      00000000 
 747      00000000 
 747      00000000 
 747      00000000 
 748              		.section	.bss._ZL8blinker4,"aw",%nobits
 749              		.align	3
 750              		.set	.LANCHOR4,. + 0
 751              		.type	_ZL8blinker4, %object
 752              		.size	_ZL8blinker4, 320
 753              	_ZL8blinker4:
 754 0000 00000000 		.space	320
 754      00000000 
 754      00000000 
 754      00000000 
 754      00000000 
 755              		.section	.bss._ZL2fs,"aw",%nobits
 756              		.align	3
 757              		.set	.LANCHOR0,. + 0
 758              		.type	_ZL2fs, %object
 759              		.size	_ZL2fs, 1360
 760              	_ZL2fs:
 761 0000 00000000 		.space	1360
 761      00000000 
 761      00000000 
 761      00000000 
 761      00000000 
 762              		.section	.bss._ZL6tester,"aw",%nobits
 763              		.align	3
 764              		.set	.LANCHOR5,. + 0
 765              		.type	_ZL6tester, %object
 766              		.size	_ZL6tester, 440
 767              	_ZL6tester:
 768 0000 00000000 		.space	440
 768      00000000 
 768      00000000 
 768      00000000 
 768      00000000 
 769              		.section	.rodata.str1.4,"aMS",%progbits,1
 770              		.align	2
 771              	.LC0:
 772 0000 73657175 		.ascii	"sequencer\000"
 772      656E6365 
ARM GAS  /tmp/cclOqGEX.s 			page 15


 772      7200
 773 000a 0000     		.space	2
 774              	.LC1:
 775 000c 74657374 		.ascii	"tester\000"
 775      657200
 776 0013 00       		.section	.rodata._ZL13LED6_sequence,"a",%progbits
 777              		.align	2
 778              		.set	.LANCHOR9,. + 0
 779              		.type	_ZL13LED6_sequence, %object
 780              		.size	_ZL13LED6_sequence, 40
 781              	_ZL13LED6_sequence:
 782 0000 04       		.byte	4
 783 0001 000000   		.space	3
 784 0004 00800000 		.word	32768
 785 0008 00       		.byte	0
 786 0009 000000   		.space	3
 787 000c C8000000 		.word	200
 788 0010 03       		.byte	3
 789 0011 000000   		.space	3
 790 0014 00800000 		.word	32768
 791 0018 00       		.byte	0
 792 0019 000000   		.space	3
 793 001c 20030000 		.word	800
 794 0020 01       		.byte	1
 795 0021 000000   		.space	3
 796 0024 00000000 		.word	0
 797              		.section	.rodata._ZL13LED5_sequence,"a",%progbits
 798              		.align	2
 799              		.set	.LANCHOR8,. + 0
 800              		.type	_ZL13LED5_sequence, %object
 801              		.size	_ZL13LED5_sequence, 40
 802              	_ZL13LED5_sequence:
 803 0000 04       		.byte	4
 804 0001 000000   		.space	3
 805 0004 00400000 		.word	16384
 806 0008 00       		.byte	0
 807 0009 000000   		.space	3
 808 000c 90010000 		.word	400
 809 0010 03       		.byte	3
 810 0011 000000   		.space	3
 811 0014 00400000 		.word	16384
 812 0018 00       		.byte	0
 813 0019 000000   		.space	3
 814 001c 58020000 		.word	600
 815 0020 01       		.byte	1
 816 0021 000000   		.space	3
 817 0024 00000000 		.word	0
 818              		.section	.rodata._ZL13LED3_sequence,"a",%progbits
 819              		.align	2
 820              		.set	.LANCHOR6,. + 0
 821              		.type	_ZL13LED3_sequence, %object
 822              		.size	_ZL13LED3_sequence, 40
 823              	_ZL13LED3_sequence:
 824 0000 04       		.byte	4
 825 0001 000000   		.space	3
 826 0004 00200000 		.word	8192
 827 0008 00       		.byte	0
ARM GAS  /tmp/cclOqGEX.s 			page 16


 828 0009 000000   		.space	3
 829 000c 20030000 		.word	800
 830 0010 03       		.byte	3
 831 0011 000000   		.space	3
 832 0014 00200000 		.word	8192
 833 0018 00       		.byte	0
 834 0019 000000   		.space	3
 835 001c C8000000 		.word	200
 836 0020 01       		.byte	1
 837 0021 000000   		.space	3
 838 0024 00000000 		.word	0
 839              		.section	.rodata._ZL13LED4_sequence,"a",%progbits
 840              		.align	2
 841              		.set	.LANCHOR7,. + 0
 842              		.type	_ZL13LED4_sequence, %object
 843              		.size	_ZL13LED4_sequence, 40
 844              	_ZL13LED4_sequence:
 845 0000 04       		.byte	4
 846 0001 000000   		.space	3
 847 0004 00100000 		.word	4096
 848 0008 00       		.byte	0
 849 0009 000000   		.space	3
 850 000c 58020000 		.word	600
 851 0010 03       		.byte	3
 852 0011 000000   		.space	3
 853 0014 00100000 		.word	4096
 854 0018 00       		.byte	0
 855 0019 000000   		.space	3
 856 001c 90010000 		.word	400
 857 0020 01       		.byte	1
 858 0021 000000   		.space	3
 859 0024 00000000 		.word	0
 860              		.text
 861              	.Letext0:
 862              		.file 3 "/usr/bin/../lib/gcc/arm-none-eabi/4.7.4/include/stddef.h"
 863              		.file 4 "/usr/bin/../lib/gcc/arm-none-eabi/4.7.4/../../../../arm-none-eabi/include/stdint.h"
 864              		.file 5 "../../os/ports/GCC/ARMCMx/chtypes.h"
 865              		.file 6 "../../os/kernel/include/chlists.h"
 866              		.file 7 "../../os/kernel/include/chthreads.h"
 867              		.file 8 "../../os/ports/GCC/ARMCMx/chcore_v7m.h"
 868              		.file 9 "../../os/kernel/include/chmtx.h"
 869              		.file 10 "../../os/kernel/include/chevents.h"
 870              		.file 11 "../../os/kernel/include/chqueues.h"
 871              		.file 12 "../../os/hal/platforms/STM32F4xx/stm32f4xx.h"
 872              		.file 13 "../../os/hal/platforms/STM32/GPIOv2/pal_lld.h"
 873              		.file 14 "../../os/hal/include/serial.h"
 874              		.file 15 "../../os/hal/platforms/STM32/USARTv1/serial_lld.h"
 875              		.file 16 "../../os/fs/fatfs/fatfs_fsimpl.hpp"
 876              		.file 17 "../../test/test.h"
 877              		.file 18 "../../os/fs/fs.hpp"
 878              		.file 19 "../../os/ports/common/ARMCMx/CMSIS/include/core_cm4.h"
 879              		.file 20 "../../os/hal/include/hal.h"