ARM GAS  /tmp/ccpqBDes.s 			page 1


   1              		.syntax unified
   2              		.cpu cortex-m4
   3              		.fpu softvfp
   4              		.eabi_attribute 20, 1
   5              		.eabi_attribute 21, 1
   6              		.eabi_attribute 23, 3
   7              		.eabi_attribute 24, 1
   8              		.eabi_attribute 25, 1
   9              		.eabi_attribute 26, 1
  10              		.eabi_attribute 30, 2
  11              		.eabi_attribute 34, 1
  12              		.eabi_attribute 18, 4
  13              		.thumb
  14              		.file	"icmp.c"
  15              		.text
  16              	.Ltext0:
  17              		.cfi_sections	.debug_frame
  18              		.section	.text.icmp_send_response,"ax",%progbits
  19              		.align	2
  20              		.p2align 4,,15
  21              		.thumb
  22              		.thumb_func
  23              		.type	icmp_send_response, %function
  24              	icmp_send_response:
  25              	.LFB10:
  26              		.file 1 "../../ext/lwip/src/core/ipv4/icmp.c"
  27              		.loc 1 292 0
  28              		.cfi_startproc
  29              		@ args = 0, pretend = 0, frame = 8
  30              		@ frame_needed = 0, uses_anonymous_args = 0
  31              	.LVL0:
  32 0000 2DE9F043 		push	{r4, r5, r6, r7, r8, r9, lr}
  33              	.LCFI0:
  34              		.cfi_def_cfa_offset 28
  35              		.cfi_offset 4, -28
  36              		.cfi_offset 5, -24
  37              		.cfi_offset 6, -20
  38              		.cfi_offset 7, -16
  39              		.cfi_offset 8, -12
  40              		.cfi_offset 9, -8
  41              		.cfi_offset 14, -4
  42 0004 0746     		mov	r7, r0
  43 0006 85B0     		sub	sp, sp, #20
  44              	.LCFI1:
  45              		.cfi_def_cfa_offset 48
  46              		.loc 1 292 0
  47 0008 0D46     		mov	r5, r1
  48 000a 9046     		mov	r8, r2
  49              		.loc 1 300 0
  50 000c 0120     		movs	r0, #1
  51              	.LVL1:
  52 000e 2421     		movs	r1, #36
  53              	.LVL2:
  54 0010 0022     		movs	r2, #0
  55              	.LVL3:
  56 0012 FFF7FEFF 		bl	pbuf_alloc
  57              	.LVL4:
ARM GAS  /tmp/ccpqBDes.s 			page 2


  58              		.loc 1 302 0
  59 0016 0646     		mov	r6, r0
  60 0018 0028     		cmp	r0, #0
  61 001a 3ED0     		beq	.L1
  62              		.loc 1 306 0
  63 001c 4389     		ldrh	r3, [r0, #10]
  64 001e 232B     		cmp	r3, #35
  65 0020 01D8     		bhi	.L3
  66              		.loc 1 306 0 is_stmt 0 discriminator 1
  67 0022 FFF7FEFF 		bl	port_halt
  68              	.LVL5:
  69              	.L3:
  70              		.loc 1 316 0 is_stmt 1
  71 0026 7468     		ldr	r4, [r6, #4]
  72              		.loc 1 309 0
  73 0028 D7F80490 		ldr	r9, [r7, #4]
  74              	.LVL6:
  75              		.loc 1 317 0
  76 002c 2570     		strb	r5, [r4, #0]
  77              		.loc 1 319 0
  78 002e 0025     		movs	r5, #0
  79              		.loc 1 318 0
  80 0030 84F80180 		strb	r8, [r4, #1]
  81              		.loc 1 319 0
  82 0034 2571     		strb	r5, [r4, #4]
  83 0036 6571     		strb	r5, [r4, #5]
  84              		.loc 1 320 0
  85 0038 A571     		strb	r5, [r4, #6]
  86 003a E571     		strb	r5, [r4, #7]
  87              		.loc 1 323 0
  88 003c 7B68     		ldr	r3, [r7, #4]
  89 003e 7268     		ldr	r2, [r6, #4]
  90 0040 1868     		ldr	r0, [r3, #0]	@ unaligned
  91 0042 D3F804E0 		ldr	lr, [r3, #4]	@ unaligned
  92 0046 9F68     		ldr	r7, [r3, #8]	@ unaligned
  93              	.LVL7:
  94 0048 D968     		ldr	r1, [r3, #12]	@ unaligned
  95 004a 9060     		str	r0, [r2, #8]	@ unaligned
  96 004c C2F80CE0 		str	lr, [r2, #12]	@ unaligned
  97 0050 1761     		str	r7, [r2, #16]	@ unaligned
  98 0052 5161     		str	r1, [r2, #20]	@ unaligned
  99 0054 5969     		ldr	r1, [r3, #20]	@ unaligned
 100 0056 1F69     		ldr	r7, [r3, #16]	@ unaligned
 101 0058 9B69     		ldr	r3, [r3, #24]	@ unaligned
 102 005a 9761     		str	r7, [r2, #24]	@ unaligned
 103 005c 1362     		str	r3, [r2, #32]	@ unaligned
 104 005e D161     		str	r1, [r2, #28]	@ unaligned
 105              		.loc 1 327 0
 106 0060 A570     		strb	r5, [r4, #2]
 107 0062 E570     		strb	r5, [r4, #3]
 108              		.loc 1 328 0
 109 0064 7189     		ldrh	r1, [r6, #10]
 110 0066 2046     		mov	r0, r4
 111 0068 FFF7FEFF 		bl	inet_chksum
 112              	.LVL8:
 113              		.loc 1 329 0
 114 006c 0C49     		ldr	r1, .L9
ARM GAS  /tmp/ccpqBDes.s 			page 3


 115              		.loc 1 328 0
 116 006e 6080     		strh	r0, [r4, #2]	@ unaligned
 117              		.loc 1 329 0
 118 0070 B1F86020 		ldrh	r2, [r1, #96]
 119 0074 501C     		adds	r0, r2, #1
 120 0076 A1F86000 		strh	r0, [r1, #96]	@ movhi
 121              		.loc 1 334 0
 122 007a D9F80C30 		ldr	r3, [r9, #12]	@ unaligned
 123              		.loc 1 335 0
 124 007e 0095     		str	r5, [sp, #0]
 125              		.loc 1 334 0
 126 0080 04AA     		add	r2, sp, #16
 127              		.loc 1 335 0
 128 0082 0121     		movs	r1, #1
 129              		.loc 1 334 0
 130 0084 42F8043D 		str	r3, [r2, #-4]!
 131              		.loc 1 335 0
 132 0088 3046     		mov	r0, r6
 133 008a 0191     		str	r1, [sp, #4]
 134 008c FF23     		movs	r3, #255
 135 008e 2946     		mov	r1, r5
 136 0090 FFF7FEFF 		bl	ip_output
 137              	.LVL9:
 138              		.loc 1 336 0
 139 0094 3046     		mov	r0, r6
 140 0096 FFF7FEFF 		bl	pbuf_free
 141              	.LVL10:
 142              	.L1:
 143              		.loc 1 337 0
 144 009a 05B0     		add	sp, sp, #20
 145 009c BDE8F083 		pop	{r4, r5, r6, r7, r8, r9, pc}
 146              	.L10:
 147              		.align	2
 148              	.L9:
 149 00a0 00000000 		.word	lwip_stats
 150              		.cfi_endproc
 151              	.LFE10:
 152              		.size	icmp_send_response, .-icmp_send_response
 153 00a4 AFF30080 		.section	.text.icmp_input,"ax",%progbits
 153      AFF30080 
 153      AFF30080 
 154              		.align	2
 155              		.p2align 4,,15
 156              		.global	icmp_input
 157              		.thumb
 158              		.thumb_func
 159              		.type	icmp_input, %function
 160              	icmp_input:
 161              	.LFB7:
 162              		.loc 1 78 0
 163              		.cfi_startproc
 164              		@ args = 0, pretend = 0, frame = 8
 165              		@ frame_needed = 0, uses_anonymous_args = 0
 166              	.LVL11:
 167 0000 2DE9F04F 		push	{r4, r5, r6, r7, r8, r9, sl, fp, lr}
 168              	.LCFI2:
 169              		.cfi_def_cfa_offset 36
ARM GAS  /tmp/ccpqBDes.s 			page 4


 170              		.cfi_offset 4, -36
 171              		.cfi_offset 5, -32
 172              		.cfi_offset 6, -28
 173              		.cfi_offset 7, -24
 174              		.cfi_offset 8, -20
 175              		.cfi_offset 9, -16
 176              		.cfi_offset 10, -12
 177              		.cfi_offset 11, -8
 178              		.cfi_offset 14, -4
 179              		.loc 1 87 0
 180 0004 6F4C     		ldr	r4, .L41
 181              		.loc 1 91 0
 182 0006 4668     		ldr	r6, [r0, #4]
 183              	.LVL12:
 184              		.loc 1 87 0
 185 0008 B4F86230 		ldrh	r3, [r4, #98]
 186 000c 5A1C     		adds	r2, r3, #1
 187 000e A4F86220 		strh	r2, [r4, #98]	@ movhi
 188              		.loc 1 92 0
 189 0012 3778     		ldrb	r7, [r6, #0]	@ zero_extendqisi2
 190 0014 07F00F03 		and	r3, r7, #15
 191 0018 9F00     		lsls	r7, r3, #2
 192              	.LVL13:
 193              		.loc 1 93 0
 194 001a C7F10008 		rsb	r8, r7, #0
 195              		.loc 1 78 0
 196 001e 87B0     		sub	sp, sp, #28
 197              	.LCFI3:
 198              		.cfi_def_cfa_offset 64
 199              		.loc 1 78 0
 200 0020 8946     		mov	r9, r1
 201              		.loc 1 93 0
 202 0022 4146     		mov	r1, r8
 203              	.LVL14:
 204              		.loc 1 78 0
 205 0024 0546     		mov	r5, r0
 206              		.loc 1 93 0
 207 0026 FFF7FEFF 		bl	pbuf_header
 208              	.LVL15:
 209 002a F8B9     		cbnz	r0, .L12
 210              		.loc 1 93 0 is_stmt 0 discriminator 1
 211 002c 2889     		ldrh	r0, [r5, #8]
 212 002e 0328     		cmp	r0, #3
 213 0030 1CD9     		bls	.L12
 214              	.LVL16:
 215              		.loc 1 98 0 is_stmt 1
 216 0032 6968     		ldr	r1, [r5, #4]
 217              		.loc 1 102 0
 218 0034 0A78     		ldrb	r2, [r1, #0]	@ zero_extendqisi2
 219 0036 5AB1     		cbz	r2, .L14
 220 0038 082A     		cmp	r2, #8
 221 003a 22D0     		beq	.L36
 222              		.loc 1 232 0
 223 003c B4F87000 		ldrh	r0, [r4, #112]
 224              		.loc 1 233 0
 225 0040 B4F86630 		ldrh	r3, [r4, #102]
 226              		.loc 1 232 0
ARM GAS  /tmp/ccpqBDes.s 			page 5


 227 0044 411C     		adds	r1, r0, #1
 228              		.loc 1 233 0
 229 0046 5A1C     		adds	r2, r3, #1
 230              		.loc 1 232 0
 231 0048 A4F87010 		strh	r1, [r4, #112]	@ movhi
 232              		.loc 1 233 0
 233 004c A4F86620 		strh	r2, [r4, #102]	@ movhi
 234              	.LVL17:
 235              	.L14:
 236              		.loc 1 235 0
 237 0050 2846     		mov	r0, r5
 238              		.loc 1 249 0
 239 0052 07B0     		add	sp, sp, #28
 240 0054 BDE8F04F 		pop	{r4, r5, r6, r7, r8, r9, sl, fp, lr}
 241              		.loc 1 235 0
 242 0058 FFF7FEBF 		b	pbuf_free
 243              	.LVL18:
 244              	.L38:
 245              	.LBB2:
 246              		.loc 1 113 0
 247 005c 0AF0F00A 		and	sl, sl, #240
 248              	.LVL19:
 249              		.loc 1 124 0
 250 0060 BAF1E00F 		cmp	sl, #224
 251 0064 17D0     		beq	.L16
 252              	.LBE2:
 253              		.loc 1 133 0
 254 0066 2889     		ldrh	r0, [r5, #8]
 255 0068 0728     		cmp	r0, #7
 256 006a 1FD8     		bhi	.L37
 257              	.L12:
 258              	.LDL1:
 259              		.loc 1 238 0
 260 006c 2846     		mov	r0, r5
 261 006e FFF7FEFF 		bl	pbuf_free
 262              	.LVL20:
 263              		.loc 1 239 0
 264 0072 B4F86A00 		ldrh	r0, [r4, #106]
 265 0076 411C     		adds	r1, r0, #1
 266 0078 A4F86A10 		strh	r1, [r4, #106]	@ movhi
 267              	.LVL21:
 268              	.L11:
 269              		.loc 1 249 0
 270 007c 07B0     		add	sp, sp, #28
 271 007e BDE8F08F 		pop	{r4, r5, r6, r7, r8, r9, sl, fp, pc}
 272              	.LVL22:
 273              	.L36:
 274              	.LBB3:
 275              		.loc 1 113 0
 276 0082 DFF848B1 		ldr	fp, .L41+8
 277 0086 DBF800A0 		ldr	sl, [fp, #0]
 278              	.LVL23:
 279              		.loc 1 119 0
 280 008a 4946     		mov	r1, r9
 281              	.LVL24:
 282 008c 5046     		mov	r0, sl
 283 008e FFF7FEFF 		bl	ip4_addr_isbroadcast
ARM GAS  /tmp/ccpqBDes.s 			page 6


 284              	.LVL25:
 285 0092 0028     		cmp	r0, #0
 286 0094 E2D0     		beq	.L38
 287              	.LVL26:
 288              	.L16:
 289              		.loc 1 126 0
 290 0096 B4F87430 		ldrh	r3, [r4, #116]
 291              		.loc 1 127 0
 292 009a 2846     		mov	r0, r5
 293              		.loc 1 126 0
 294 009c 5A1C     		adds	r2, r3, #1
 295 009e A4F87420 		strh	r2, [r4, #116]	@ movhi
 296              	.LBE3:
 297              		.loc 1 249 0
 298 00a2 07B0     		add	sp, sp, #28
 299 00a4 BDE8F04F 		pop	{r4, r5, r6, r7, r8, r9, sl, fp, lr}
 300              	.LBB4:
 301              		.loc 1 127 0
 302 00a8 FFF7FEBF 		b	pbuf_free
 303              	.LVL27:
 304              	.L37:
 305              	.LBE4:
 306              		.loc 1 137 0
 307 00ac 2846     		mov	r0, r5
 308 00ae FFF7FEFF 		bl	inet_chksum_pbuf
 309              	.LVL28:
 310 00b2 0028     		cmp	r0, #0
 311 00b4 55D1     		bne	.L39
 312              		.loc 1 145 0
 313 00b6 2846     		mov	r0, r5
 314 00b8 2221     		movs	r1, #34
 315              		.loc 1 92 0
 316 00ba 1FFA87FA 		uxth	sl, r7
 317              		.loc 1 145 0
 318 00be FFF7FEFF 		bl	pbuf_header
 319              	.LVL29:
 320 00c2 0028     		cmp	r0, #0
 321 00c4 61D0     		beq	.L20
 322              	.LBB5:
 323              		.loc 1 151 0
 324 00c6 0FFA8AFA 		sxth	sl, sl
 325 00ca 2846     		mov	r0, r5
 326 00cc 5146     		mov	r1, sl
 327 00ce FFF7FEFF 		bl	pbuf_header
 328              	.LVL30:
 329 00d2 0028     		cmp	r0, #0
 330 00d4 4ED1     		bne	.L24
 331              		.loc 1 156 0
 332 00d6 0220     		movs	r0, #2
 333 00d8 2989     		ldrh	r1, [r5, #8]
 334 00da 0022     		movs	r2, #0
 335 00dc FFF7FEFF 		bl	pbuf_alloc
 336              	.LVL31:
 337              		.loc 1 157 0
 338 00e0 0346     		mov	r3, r0
 339 00e2 0028     		cmp	r0, #0
 340 00e4 48D0     		beq	.L22
ARM GAS  /tmp/ccpqBDes.s 			page 7


 341              		.loc 1 161 0
 342 00e6 4189     		ldrh	r1, [r0, #10]
 343 00e8 0837     		adds	r7, r7, #8
 344              	.LVL32:
 345 00ea B942     		cmp	r1, r7
 346 00ec 65D3     		bcc	.L40
 347              	.LVL33:
 348              	.L23:
 349              		.loc 1 164 0
 350 00ee 1846     		mov	r0, r3
 351 00f0 2946     		mov	r1, r5
 352 00f2 0593     		str	r3, [sp, #20]
 353 00f4 FFF7FEFF 		bl	pbuf_copy
 354              	.LVL34:
 355 00f8 059A     		ldr	r2, [sp, #20]
 356 00fa 0028     		cmp	r0, #0
 357 00fc 3AD1     		bne	.L24
 358              		.loc 1 170 0
 359 00fe 1046     		mov	r0, r2
 360 0100 4146     		mov	r1, r8
 361              		.loc 1 168 0
 362 0102 5668     		ldr	r6, [r2, #4]
 363              	.LVL35:
 364              		.loc 1 170 0
 365 0104 FFF7FEFF 		bl	pbuf_header
 366              	.LVL36:
 367 0108 A0BB     		cbnz	r0, .L24
 368              		.loc 1 175 0
 369 010a 2846     		mov	r0, r5
 370 010c FFF7FEFF 		bl	pbuf_free
 371              	.LVL37:
 372 0110 059D     		ldr	r5, [sp, #20]
 373              	.LVL38:
 374              	.L25:
 375              	.LBE5:
 376              		.loc 1 190 0
 377 0112 DBF80070 		ldr	r7, [fp, #0]
 378              		.loc 1 191 0
 379 0116 2C49     		ldr	r1, .L41+4
 380              		.loc 1 189 0
 381 0118 6868     		ldr	r0, [r5, #4]
 382              	.LVL39:
 383              		.loc 1 190 0
 384 011a F760     		str	r7, [r6, #12]	@ unaligned
 385              		.loc 1 191 0
 386 011c 0B68     		ldr	r3, [r1, #0]
 387 011e 3361     		str	r3, [r6, #16]	@ unaligned
 388              		.loc 1 195 0
 389 0120 4288     		ldrh	r2, [r0, #2]	@ unaligned
 390 0122 4FF6F671 		movw	r1, #65526
 391              		.loc 1 192 0
 392 0126 0027     		movs	r7, #0
 393              		.loc 1 195 0
 394 0128 8A42     		cmp	r2, r1
 395              		.loc 1 192 0
 396 012a 0770     		strb	r7, [r0, #0]
 397              		.loc 1 195 0
ARM GAS  /tmp/ccpqBDes.s 			page 8


 398 012c 42D9     		bls	.L26
 399              		.loc 1 196 0
 400 012e 0932     		adds	r2, r2, #9
 401 0130 4280     		strh	r2, [r0, #2]	@ unaligned
 402              	.L27:
 403              		.loc 1 206 0
 404 0132 0020     		movs	r0, #0
 405              	.LVL40:
 406              		.loc 1 205 0
 407 0134 FF27     		movs	r7, #255
 408              		.loc 1 208 0
 409 0136 1421     		movs	r1, #20
 410              		.loc 1 206 0
 411 0138 B072     		strb	r0, [r6, #10]
 412 013a F072     		strb	r0, [r6, #11]
 413              		.loc 1 205 0
 414 013c 3772     		strb	r7, [r6, #8]
 415              		.loc 1 208 0
 416 013e 3046     		mov	r0, r6
 417 0140 FFF7FEFF 		bl	inet_chksum
 418              	.LVL41:
 419 0144 7081     		strh	r0, [r6, #10]	@ unaligned
 420              		.loc 1 211 0
 421 0146 B4F86030 		ldrh	r3, [r4, #96]
 422              		.loc 1 217 0
 423 014a 2846     		mov	r0, r5
 424              		.loc 1 211 0
 425 014c 5A1C     		adds	r2, r3, #1
 426              		.loc 1 217 0
 427 014e 5146     		mov	r1, sl
 428              		.loc 1 211 0
 429 0150 A4F86020 		strh	r2, [r4, #96]	@ movhi
 430              		.loc 1 217 0
 431 0154 FFF7FEFF 		bl	pbuf_header
 432              	.LVL42:
 433 0158 0246     		mov	r2, r0
 434 015a 00B3     		cbz	r0, .L28
 435              		.loc 1 218 0 discriminator 1
 436 015c FFF7FEFF 		bl	port_halt
 437              	.LVL43:
 438 0160 76E7     		b	.L14
 439              	.LVL44:
 440              	.L39:
 441              		.loc 1 139 0
 442 0162 2846     		mov	r0, r5
 443 0164 FFF7FEFF 		bl	pbuf_free
 444              	.LVL45:
 445              		.loc 1 140 0
 446 0168 B4F86820 		ldrh	r2, [r4, #104]
 447 016c 511C     		adds	r1, r2, #1
 448 016e A4F86810 		strh	r1, [r4, #104]	@ movhi
 449              		.loc 1 142 0
 450 0172 83E7     		b	.L11
 451              	.LVL46:
 452              	.L24:
 453              	.LBB6:
 454              		.loc 1 152 0 discriminator 1
ARM GAS  /tmp/ccpqBDes.s 			page 9


 455 0174 FFF7FEFF 		bl	port_halt
 456              	.LVL47:
 457              	.L22:
 458              	.LBE6:
 459              		.loc 1 244 0
 460 0178 2846     		mov	r0, r5
 461 017a FFF7FEFF 		bl	pbuf_free
 462              	.LVL48:
 463              		.loc 1 245 0
 464 017e B4F87400 		ldrh	r0, [r4, #116]
 465 0182 431C     		adds	r3, r0, #1
 466 0184 A4F87430 		strh	r3, [r4, #116]	@ movhi
 467              		.loc 1 247 0
 468 0188 78E7     		b	.L11
 469              	.LVL49:
 470              	.L20:
 471              		.loc 1 180 0
 472 018a 2846     		mov	r0, r5
 473 018c 6FF02101 		mvn	r1, #33
 474 0190 FFF7FEFF 		bl	pbuf_header
 475              	.LVL50:
 476 0194 0028     		cmp	r0, #0
 477 0196 EDD1     		bne	.L24
 478 0198 0FFA8AFA 		sxth	sl, sl
 479 019c B9E7     		b	.L25
 480              	.LVL51:
 481              	.L28:
 482              	.LBB7:
 483              		.loc 1 222 0
 484 019e 0121     		movs	r1, #1
 485 01a0 0090     		str	r0, [sp, #0]
 486 01a2 0191     		str	r1, [sp, #4]
 487 01a4 CDF80890 		str	r9, [sp, #8]
 488 01a8 2846     		mov	r0, r5
 489 01aa 0849     		ldr	r1, .L41+8
 490 01ac 3B46     		mov	r3, r7
 491 01ae FFF7FEFF 		bl	ip_output_if
 492              	.LVL52:
 493 01b2 4DE7     		b	.L14
 494              	.LVL53:
 495              	.L26:
 496              	.LBE7:
 497              		.loc 1 198 0
 498 01b4 0832     		adds	r2, r2, #8
 499 01b6 4280     		strh	r2, [r0, #2]	@ unaligned
 500 01b8 BBE7     		b	.L27
 501              	.LVL54:
 502              	.L40:
 503              	.LBB8:
 504              		.loc 1 161 0 discriminator 1
 505 01ba 0590     		str	r0, [sp, #20]
 506 01bc FFF7FEFF 		bl	port_halt
 507              	.LVL55:
 508 01c0 059B     		ldr	r3, [sp, #20]
 509 01c2 94E7     		b	.L23
 510              	.L42:
 511              		.align	2
ARM GAS  /tmp/ccpqBDes.s 			page 10


 512              	.L41:
 513 01c4 00000000 		.word	lwip_stats
 514 01c8 00000000 		.word	current_iphdr_src
 515 01cc 00000000 		.word	current_iphdr_dest
 516              	.LBE8:
 517              		.cfi_endproc
 518              	.LFE7:
 519              		.size	icmp_input, .-icmp_input
 520              		.section	.text.icmp_dest_unreach,"ax",%progbits
 521              		.align	2
 522              		.p2align 4,,15
 523              		.global	icmp_dest_unreach
 524              		.thumb
 525              		.thumb_func
 526              		.type	icmp_dest_unreach, %function
 527              	icmp_dest_unreach:
 528              	.LFB8:
 529              		.loc 1 262 0
 530              		.cfi_startproc
 531              		@ args = 0, pretend = 0, frame = 0
 532              		@ frame_needed = 0, uses_anonymous_args = 0
 533              		@ link register save eliminated.
 534              	.LVL56:
 535              		.loc 1 262 0
 536 0000 0A46     		mov	r2, r1
 537              		.loc 1 263 0
 538 0002 0321     		movs	r1, #3
 539              	.LVL57:
 540              		.loc 1 264 0
 541              		.loc 1 263 0
 542 0004 FFF7FEBF 		b	icmp_send_response
 543              	.LVL58:
 544              		.cfi_endproc
 545              	.LFE8:
 546              		.size	icmp_dest_unreach, .-icmp_dest_unreach
 547 0008 AFF30080 		.section	.text.icmp_time_exceeded,"ax",%progbits
 547      AFF30080 
 548              		.align	2
 549              		.p2align 4,,15
 550              		.global	icmp_time_exceeded
 551              		.thumb
 552              		.thumb_func
 553              		.type	icmp_time_exceeded, %function
 554              	icmp_time_exceeded:
 555              	.LFB9:
 556              		.loc 1 276 0
 557              		.cfi_startproc
 558              		@ args = 0, pretend = 0, frame = 0
 559              		@ frame_needed = 0, uses_anonymous_args = 0
 560              		@ link register save eliminated.
 561              	.LVL59:
 562              		.loc 1 276 0
 563 0000 0A46     		mov	r2, r1
 564              		.loc 1 277 0
 565 0002 0B21     		movs	r1, #11
 566              	.LVL60:
 567              		.loc 1 278 0
ARM GAS  /tmp/ccpqBDes.s 			page 11


 568              		.loc 1 277 0
 569 0004 FFF7FEBF 		b	icmp_send_response
 570              	.LVL61:
 571              		.cfi_endproc
 572              	.LFE9:
 573              		.size	icmp_time_exceeded, .-icmp_time_exceeded
 574 0008 AFF30080 		.text
 574      AFF30080 
 575              	.Letext0:
 576              		.file 2 "/usr/bin/../lib/gcc/arm-none-eabi/4.7.4/../../../../arm-none-eabi/include/stdint.h"
 577              		.file 3 "../../os/various/lwip_bindings/arch/cc.h"
 578              		.file 4 "../../ext/lwip/src/include/lwip/err.h"
 579              		.file 5 "../../ext/lwip/src/include/lwip/pbuf.h"
 580              		.file 6 "../../ext/lwip/src/include/ipv4/lwip/ip_addr.h"
 581              		.file 7 "../../ext/lwip/src/include/lwip/netif.h"
 582              		.file 8 "../../ext/lwip/src/include/ipv4/lwip/icmp.h"
 583              		.file 9 "../../ext/lwip/src/include/ipv4/lwip/ip.h"
 584              		.file 10 "../../ext/lwip/src/include/lwip/mem.h"
 585              		.file 11 "../../ext/lwip/src/include/lwip/stats.h"
 586              		.file 12 "../../ext/lwip/src/include/ipv4/lwip/inet_chksum.h"
 587              		.file 13 "../../os/ports/GCC/ARMCMx/chcore_v7m.h"