ARM GAS  /tmp/ccpqBDes.s 			page 1


   1              		.syntax unified
   2              		.cpu cortex-m4
   3              		.fpu softvfp
   4              		.eabi_attribute 20, 1
   5              		.eabi_attribute 21, 1
   6              		.eabi_attribute 23, 3
   7              		.eabi_attribute 24, 1
   8              		.eabi_attribute 25, 1
   9              		.eabi_attribute 26, 1
  10              		.eabi_attribute 30, 2
  11              		.eabi_attribute 34, 1
  12              		.eabi_attribute 18, 4
  13              		.thumb
  14              		.file	"icmp.c"
  15              		.text
  16              	.Ltext0:
  17              		.cfi_sections	.debug_frame
  18              		.section	.text.icmp_send_response,"ax",%progbits
  19              		.align	2
  20              		.p2align 4,,15
  21              		.thumb
  22              		.thumb_func
  23              		.type	icmp_send_response, %function
  24              	icmp_send_response:
  25              	.LFB10:
  26              		.file 1 "../../ext/lwip/src/core/ipv4/icmp.c"
  27              		.loc 1 292 0
  28              		.cfi_startproc
  29              		@ args = 0, pretend = 0, frame = 8
  30              		@ frame_needed = 0, uses_anonymous_args = 0
  31              	.LVL0:
  32 0000 2DE9F043 		push	{r4, r5, r6, r7, r8, r9, lr}
  33              	.LCFI0:
  34              		.cfi_def_cfa_offset 28
  35              		.cfi_offset 4, -28
  36              		.cfi_offset 5, -24
  37              		.cfi_offset 6, -20
  38              		.cfi_offset 7, -16
  39              		.cfi_offset 8, -12
  40              		.cfi_offset 9, -8
  41              		.cfi_offset 14, -4
  42 0004 0746     		mov	r7, r0
  43 0006 85B0     		sub	sp, sp, #20
  44              	.LCFI1:
  45              		.cfi_def_cfa_offset 48
  46              		.loc 1 292 0
  47 0008 0D46     		mov	r5, r1
  48 000a 9046     		mov	r8, r2
  49              		.loc 1 300 0
  50 000c 0120     		movs	r0, #1
  51              	.LVL1:
  52 000e 2421     		movs	r1, #36
  53              	.LVL2:
  54 0010 0022     		movs	r2, #0
  55              	.LVL3:
  56 0012 FFF7FEFF 		bl	pbuf_alloc
  57              	.LVL4:
ARM GAS  /tmp/ccpqBDes.s 			page 2


  58              		.loc 1 302 0
  59 0016 0646     		mov	r6, r0
  60 0018 0028     		cmp	r0, #0
  61 001a 3ED0     		beq	.L1
  62              		.loc 1 306 0
  63 001c 4389     		ldrh	r3, [r0, #10]
  64 001e 232B     		cmp	r3, #35
  65 0020 01D8     		bhi	.L3
  66              		.loc 1 306 0 is_stmt 0 discriminator 1
  67 0022 FFF7FEFF 		bl	port_halt
  68              	.LVL5:
  69              	.L3:
  70              		.loc 1 316 0 is_stmt 1
  71 0026 7468     		ldr	r4, [r6, #4]
  72              		.loc 1 309 0
  73 0028 D7F80490 		ldr	r9, [r7, #4]
  74              	.LVL6:
  75              		.loc 1 317 0
  76 002c 2570     		strb	r5, [r4, #0]
  77              		.loc 1 319 0
  78 002e 0025     		movs	r5, #0
  79              		.loc 1 318 0
  80 0030 84F80180 		strb	r8, [r4, #1]
  81              		.loc 1 319 0
  82 0034 2571     		strb	r5, [r4, #4]
  83 0036 6571     		strb	r5, [r4, #5]
  84              		.loc 1 320 0
  85 0038 A571     		strb	r5, [r4, #6]
  86 003a E571     		strb	r5, [r4, #7]
  87              		.loc 1 323 0
  88 003c 7B68     		ldr	r3, [r7, #4]
  89 003e 7268     		ldr	r2, [r6, #4]
  90 0040 1868     		ldr	r0, [r3, #0]	@ unaligned
  91 0042 D3F804E0 		ldr	lr, [r3, #4]	@ unaligned
  92 0046 9F68     		ldr	r7, [r3, #8]	@ unaligned
  93              	.LVL7:
  94 0048 D968     		ldr	r1, [r3, #12]	@ unaligned
  95 004a 9060     		str	r0, [r2, #8]	@ unaligned
  96 004c C2F80CE0 		str	lr, [r2, #12]	@ unaligned
  97 0050 1761     		str	r7, [r2, #16]	@ unaligned
  98 0052 5161     		str	r1, [r2, #20]	@ unaligned
  99 0054 5969     		ldr	r1, [r3, #20]	@ unaligned
 100 0056 1F69     		ldr	r7, [r3, #16]	@ unaligned
 101 0058 9B69     		ldr	r3, [r3, #24]	@ unaligned
 102 005a 9761     		str	r7, [r2, #24]	@ unaligned
 103 005c 1362     		str	r3, [r2, #32]	@ unaligned
 104 005e D161     		str	r1, [r2, #28]	@ unaligned
 105              		.loc 1 327 0
 106 0060 A570     		strb	r5, [r4, #2]
 107 0062 E570     		strb	r5, [r4, #3]
 108              		.loc 1 328 0
 109 0064 7189     		ldrh	r1, [r6, #10]
 110 0066 2046     		mov	r0, r4
 111 0068 FFF7FEFF 		bl	inet_chksum
 112              	.LVL8:
 113              		.loc 1 329 0
 114 006c 0C49     		ldr	r1, .L9
ARM GAS  /tmp/ccpqBDes.s 			page 3


 115              		.loc 1 328 0
 116 006e 6080     		strh	r0, [r4, #2]	@ unaligned
 117              		.loc 1 329 0
 118 0070 B1F86020 		ldrh	r2, [r1, #96]
 119 0074 501C     		adds	r0, r2, #1
 120 0076 A1F86000 		strh	r0, [r1, #96]	@ movhi
 121              		.loc 1 334 0
 122 007a D9F80C30 		ldr	r3, [r9, #12]	@ unaligned
 123              		.loc 1 335 0
 124 007e 0095     		str	r5, [sp, #0]
 125              		.loc 1 334 0
 126 0080 04AA     		add	r2, sp, #16
 127              		.loc 1 335 0
 128 0082 0121     		movs	r1, #1
 129              		.loc 1 334 0
 130 0084 42F8043D 		str	r3, [r2, #-4]!
 131              		.loc 1 335 0
 132 0088 3046     		mov	r0, r6
 133 008a 0191     		str	r1, [sp, #4]
 134 008c FF23     		movs	r3, #255
 135 008e 2946     		mov	r1, r5
 136 0090 FFF7FEFF 		bl	ip_output
 137              	.LVL9:
 138              		.loc 1 336 0
 139 0094 3046     		mov	r0, r6
 140 0096 FFF7FEFF 		bl	pbuf_free
 141              	.LVL10:
 142              	.L1:
 143              		.loc 1 337 0
 144 009a 05B0     		add	sp, sp, #20
 145 009c BDE8F083 		pop	{r4, r5, r6, r7, r8, r9, pc}
 146              	.L10:
 147              		.align	2
 148              	.L9:
 149 00a0 00000000 		.word	lwip_stats
 150              		.cfi_endproc
 151              	.LFE10:
 152              		.size	icmp_send_response, .-icmp_send_response
 153 00a4 AFF30080 		.section	.text.icmp_input,"ax",%progbits
 153      AFF30080 
 153      AFF30080 
 154              		.align	2
 155              		.p2align 4,,15
 156              		.global	icmp_input
 157              		.thumb
 158              		.thumb_func
 159              		.type	icmp_input, %function
 160              	icmp_input:
 161              	.LFB7:
 162              		.loc 1 78 0
 163              		.cfi_startproc
 164              		@ args = 0, pretend = 0, frame = 8
 165              		@ frame_needed = 0, uses_anonymous_args = 0
 166              	.LVL11:
 167 0000 2DE9F04F 		push	{r4, r5, r6, r7, r8, r9, sl, fp, lr}
 168              	.LCFI2:
 169              		.cfi_def_cfa_offset 36
ARM GAS  /tmp/ccpqBDes.s 			page 4


 170              		.cfi_offset 4, -36
 171              		.cfi_offset 5, -32
 172              		.cfi_offset 6, -28
 173              		.cfi_offset 7, -24
 174              		.cfi_offset 8, -20
 175              		.cfi_offset 9, -16
 176              		.cfi_offset 10, -12
 177              		.cfi_offset 11, -8
 178              		.cfi_offset 14, -4
 179              		.loc 1 87 0
 180 0004 6F4C     		ldr	r4, .L41
 181              		.loc 1 91 0
 182 0006 4668     		ldr	r6, [r0, #4]
 183              	.LVL12:
 184              		.loc 1 87 0
 185 0008 B4F86230 		ldrh	r3, [r4, #98]
 186 000c 5A1C     		adds	r2, r3, #1
 187 000e A4F86220 		strh	r2, [r4, #98]	@ movhi
 188              		.loc 1 92 0
 189 0012 3778     		ldrb	r7, [r6, #0]	@ zero_extendqisi2
 190 0014 07F00F03 		and	r3, r7, #15
 191 0018 9F00     		lsls	r7, r3, #2
 192              	.LVL13:
 193              		.loc 1 93 0
 194 001a C7F10008 		rsb	r8, r7, #0
 195              		.loc 1 78 0
 196 001e 87B0     		sub	sp, sp, #28
 197              	.LCFI3:
 198              		.cfi_def_cfa_offset 64
 199              		.loc 1 78 0
 200 0020 8946     		mov	r9, r1
 201              		.loc 1 93 0
 202 0022 4146     		mov	r1, r8
 203              	.LVL14:
 204              		.loc 1 78 0
 205 0024 0546     		mov	r5, r0
 206              		.loc 1 93 0
 207 0026 FFF7FEFF 		bl	pbuf_header
 208              	.LVL15:
 209 002a F8B9     		cbnz	r0, .L12
 210              		.loc 1 93 0 is_stmt 0 discriminator 1
 211 002c 2889     		ldrh	r0, [r5, #8]
 212 002e 0328     		cmp	r0, #3
 213 0030 1CD9     		bls	.L12
 214              	.LVL16:
 215              		.loc 1 98 0 is_stmt 1
 216 0032 6968     		ldr	r1, [r5, #4]
 217              		.loc 1 102 0
 218 0034 0A78     		ldrb	r2, [r1, #0]	@ zero_extendqisi2
 219 0036 5AB1     		cbz	r2, .L14
 220 0038 082A     		cmp	r2, #8
 221 003a 22D0     		beq	.L36
 222              		.loc 1 232 0
 223 003c B4F87000 		ldrh	r0, [r4, #112]
 224              		.loc 1 233 0
 225 0040 B4F86630 		ldrh	r3, [r4, #102]
 226              		.loc 1 232 0
ARM GAS  /tmp/ccpqBDes.s 			page 5


 227 0044 411C     		adds	r1, r0, #1
 228              		.loc 1 233 0
 229 0046 5A1C     		adds	r2, r3, #1
 230              		.loc 1 232 0
 231 0048 A4F87010 		strh	r1, [r4, #112]	@ movhi
 232              		.loc 1 233 0
 233 004c A4F86620 		strh	r2, [r4, #102]	@ movhi
 234              	.LVL17:
 235              	.L14:
 236              		.loc 1 235 0
 237 0050 2846     		mov	r0, r5
 238              		.loc 1 249 0
 239 0052 07B0     		add	sp, sp, #28
 240 0054 BDE8F04F 		pop	{r4, r5, r6, r7, r8, r9, sl, fp, lr}
 241              		.loc 1 235 0
 242 0058 FFF7FEBF 		b	pbuf_free
 243              	.LVL18:
 244              	.L38:
 245              	.LBB2:
 246              		.loc 1 113 0
 247 005c 0AF0F00A 		and	sl, sl, #240
 248              	.LVL19:
 249              		.loc 1 124 0
 250 0060 BAF1E00F 		cmp	sl, #224
 251 0064 17D0     		beq	.L16
 252              	.LBE2:
 253              		.loc 1 133 0
 254 0066 2889     		ldrh	r0, [r5, #8]
 255 0068 0728     		cmp	r0, #7
 256 006a 1FD8     		bhi	.L37
 257              	.L12:
 258              	.LDL1:
 259              		.loc 1 238 0
 260 006c 2846     		mov	r0, r5
 261 006e FFF7FEFF 		bl	pbuf_free
 262              	.LVL20:
 263              		.loc 1 239 0
 264 0072 B4F86A00 		ldrh	r0, [r4, #106]
 265 0076 411C     		adds	r1, r0, #1
 266 0078 A4F86A10 		strh	r1, [r4, #106]	@ movhi
 267              	.LVL21:
 268              	.L11:
 269              		.loc 1 249 0
 270 007c 07B0     		add	sp, sp, #28
 271 007e BDE8F08F 		pop	{r4, r5, r6, r7, r8, r9, sl, fp, pc}
 272              	.LVL22:
 273              	.L36:
 274              	.LBB3:
 275              		.loc 1 113 0
 276 0082 DFF848B1 		ldr	fp, .L41+8
 277 0086 DBF800A0 		ldr	sl, [fp, #0]
 278              	.LVL23:
 279              		.loc 1 119 0
 280 008a 4946     		mov	r1, r9
 281              	.LVL24:
 282 008c 5046     		mov	r0, sl
 283 008e FFF7FEFF 		bl	ip4_addr_isbroadcast
ARM GAS  /tmp/ccpqBDes.s 			page 6


 284              	.LVL25:
 285 0092 0028     		cmp	r0, #0
 286 0094 E2D0     		beq	.L38
 287              	.LVL26:
 288              	.L16:
 289              		.loc 1 126 0
 290 0096 B4F87430 		ldrh	r3, [r4, #116]
 291              		.loc 1 127 0
 292 009a 2846     		mov	r0, r5
 293              		.loc 1 126 0
 294 009c 5A1C     		adds	r2, r3, #1
 295 009e A4F87420 		strh	r2, [r4, #116]	@ movhi
 296              	.LBE3:
 297              		.loc 1 249 0
 298 00a2 07B0     		add	sp, sp, #28
 299 00a4 BDE8F04F 		pop	{r4, r5, r6, r7, r8, r9, sl, fp, lr}
 300              	.LBB4:
 301              		.loc 1 127 0
 302 00a8 FFF7FEBF 		b	pbuf_free
 303              	.LVL27:
 304              	.L37:
 305              	.LBE4:
 306              		.loc 1 137 0
 307 00ac 2846     		mov	r0, r5
 308 00ae FFF7FEFF 		bl	inet_chksum_pbuf
 309              	.LVL28:
 310 00b2 0028     		cmp	r0, #0
 311 00b4 55D1     		bne	.L39
 312              		.loc 1 145 0
 313 00b6 2846     		mov	r0, r5
 314 00b8 2221     		movs	r1, #34
 315              		.loc 1 92 0
 316 00ba 1FFA87FA 		uxth	sl, r7
 317              		.loc 1 145 0
 318 00be FFF7FEFF 		bl	pbuf_header
 319              	.LVL29:
 320 00c2 0028     		cmp	r0, #0
 321 00c4 61D0     		beq	.L20
 322              	.LBB5:
 323              		.loc 1 151 0
 324 00c6 0FFA8AFA 		sxth	sl, sl
 325 00ca 2846     		mov	r0, r5
 326 00cc 5146     		mov	r1, sl
 327 00ce FFF7FEFF 		bl	pbuf_header
 328              	.LVL30:
 329 00d2 0028     		cmp	r0, #0
 330 00d4 4ED1     		bne	.L24
 331              		.loc 1 156 0
 332 00d6 0220     		movs	r0, #2
 333 00d8 2989     		ldrh	r1, [r5, #8]
 334 00da 0022     		movs	r2, #0
 335 00dc FFF7FEFF 		bl	pbuf_alloc
 336              	.LVL31:
 337              		.loc 1 157 0
 338 00e0 0346     		mov	r3, r0
 339 00e2 0028     		cmp	r0, #0
 340 00e4 48D0     		beq	.L22
ARM GAS  /tmp/ccpqBDes.s 			page 7


 341              		.loc 1 161 0
 342 00e6 4189     		ldrh	r1, [r0, #10]
 343 00e8 0837     		adds	r7, r7, #8
 344              	.LVL32:
 345 00ea B942     		cmp	r1, r7
 346 00ec 65D3     		bcc	.L40
 347              	.LVL33:
 348              	.L23:
 349              		.loc 1 164 0
 350 00ee 1846     		mov	r0, r3
 351 00f0 2946     		mov	r1, r5
 352 00f2 0593     		str	r3, [sp, #20]
 353 00f4 FFF7FEFF 		bl	pbuf_copy
 354              	.LVL34:
 355 00f8 059A     		ldr	r2, [sp, #20]
 356 00fa 0028     		cmp	r0, #0
 357 00fc 3AD1     		bne	.L24
 358              		.loc 1 170 0
 359 00fe 1046     		mov	r0, r2
 360 0100 4146     		mov	r1, r8
 361              		.loc 1 168 0
 362 0102 5668     		ldr	r6, [r2, #4]
 363              	.LVL35:
 364              		.loc 1 170 0
 365 0104 FFF7FEFF 		bl	pbuf_header
 366              	.LVL36:
 367 0108 A0BB     		cbnz	r0, .L24
 368              		.loc 1 175 0
 369 010a 2846     		mov	r0, r5
 370 010c FFF7FEFF 		bl	pbuf_free
 371              	.LVL37:
 372 0110 059D     		ldr	r5, [sp, #20]
 373              	.LVL38:
 374              	.L25:
 375              	.LBE5:
 376              		.loc 1 190 0
 377 0112 DBF80070 		ldr	r7, [fp, #0]
 378              		.loc 1 191 0
 379 0116 2C49     		ldr	r1, .L41+4
 380              		.loc 1 189 0
 381 0118 6868     		ldr	r0, [r5, #4]
 382              	.LVL39:
 383              		.loc 1 190 0
 384 011a F760     		str	r7, [r6, #12]	@ unaligned
 385              		.loc 1 191 0
 386 011c 0B68     		ldr	r3, [r1, #0]
 387 011e 3361     		str	r3, [r6, #16]	@ unaligned
 388              		.loc 1 195 0
 389 0120 4288     		ldrh	r2, [r0, #2]	@ unaligned
 390 0122 4FF6F671 		movw	r1, #65526
 391              		.loc 1 192 0
 392 0126 0027     		movs	r7, #0
 393              		.loc 1 195 0
 394 0128 8A42     		cmp	r2, r1
 395              		.loc 1 192 0
 396 012a 0770     		strb	r7, [r0, #0]
 397              		.loc 1 195 0
ARM GAS  /tmp/ccpqBDes.s 			page 8


 398 012c 42D9     		bls	.L26
 399              		.loc 1 196 0
 400 012e 0932     		adds	r2, r2, #9
 401 0130 4280     		strh	r2, [r0, #2]	@ unaligned
 402              	.L27:
 403              		.loc 1 206 0
 404 0132 0020     		movs	r0, #0
 405              	.LVL40:
 406              		.loc 1 205 0
 407 0134 FF27     		movs	r7, #255
 408              		.loc 1 208 0
 409 0136 1421     		movs	r1, #20
 410              		.loc 1 206 0
 411 0138 B072     		strb	r0, [r6, #10]
 412 013a F072     		strb	r0, [r6, #11]
 413              		.loc 1 205 0
 414 013c 3772     		strb	r7, [r6, #8]
 415              		.loc 1 208 0
 416 013e 3046     		mov	r0, r6
 417 0140 FFF7FEFF 		bl	inet_chksum
 418              	.LVL41:
 419 0144 7081     		strh	r0, [r6, #10]	@ unaligned
 420              		.loc 1 211 0
 421 0146 B4F86030 		ldrh	r3, [r4, #96]
 422              		.loc 1 217 0
 423 014a 2846     		mov	r0, r5
 424              		.loc 1 211 0
 425 014c 5A1C     		adds	r2, r3, #1
 426              		.loc 1 217 0
 427 014e 5146     		mov	r1, sl
 428              		.loc 1 211 0
 429 0150 A4F86020 		strh	r2, [r4, #96]	@ movhi
 430              		.loc 1 217 0
 431 0154 FFF7FEFF 		bl	pbuf_header
 432              	.LVL42:
 433 0158 0246     		mov	r2, r0
 434 015a 00B3     		cbz	r0, .L28
 435              		.loc 1 218 0 discriminator 1
 436 015c FFF7FEFF 		bl	port_halt
 437              	.LVL43:
 438 0160 76E7     		b	.L14
 439              	.LVL44:
 440              	.L39:
 441              		.loc 1 139 0
 442 0162 2846     		mov	r0, r5
 443 0164 FFF7FEFF 		bl	pbuf_free
 444              	.LVL45:
 445              		.loc 1 140 0
 446 0168 B4F86820 		ldrh	r2, [r4, #104]
 447 016c 511C     		adds	r1, r2, #1
 448 016e A4F86810 		strh	r1, [r4, #104]	@ movhi
 449              		.loc 1 142 0
 450 0172 83E7     		b	.L11
 451              	.LVL46:
 452              	.L24:
 453              	.LBB6:
 454              		.loc 1 152 0 discriminator 1
ARM GAS  /tmp/ccpqBDes.s 			page 9


 455 0174 FFF7FEFF 		bl	port_halt
 456              	.LVL47:
 457              	.L22:
 458              	.LBE6:
 459              		.loc 1 244 0
 460 0178 2846     		mov	r0, r5
 461 017a FFF7FEFF 		bl	pbuf_free
 462              	.LVL48:
 463              		.loc 1 245 0
 464 017e B4F87400 		ldrh	r0, [r4, #116]
 465 0182 431C     		adds	r3, r0, #1
 466 0184 A4F87430 		strh	r3, [r4, #116]	@ movhi
 467              		.loc 1 247 0
 468 0188 78E7     		b	.L11
 469              	.LVL49:
 470              	.L20:
 471              		.loc 1 180 0
 472 018a 2846     		mov	r0, r5
 473 018c 6FF02101 		mvn	r1, #33
 474 0190 FFF7FEFF 		bl	pbuf_header
 475              	.LVL50:
 476 0194 0028     		cmp	r0, #0
 477 0196 EDD1     		bne	.L24
 478 0198 0FFA8AFA 		sxth	sl, sl
 479 019c B9E7     		b	.L25
 480              	.LVL51:
 481              	.L28:
 482              	.LBB7:
 483              		.loc 1 222 0
 484 019e 0121     		movs	r1, #1
 485 01a0 0090     		str	r0, [sp, #0]
 486 01a2 0191     		str	r1, [sp, #4]
 487 01a4 CDF80890 		str	r9, [sp, #8]
 488 01a8 2846     		mov	r0, r5
 489 01aa 0849     		ldr	r1, .L41+8
 490 01ac 3B46     		mov	r3, r7
 491 01ae FFF7FEFF 		bl	ip_output_if
 492              	.LVL52:
 493 01b2 4DE7     		b	.L14
 494              	.LVL53:
 495              	.L26:
 496              	.LBE7:
 497              		.loc 1 198 0
 498 01b4 0832     		adds	r2, r2, #8
 499 01b6 4280     		strh	r2, [r0, #2]	@ unaligned
 500 01b8 BBE7     		b	.L27
 501              	.LVL54:
 502              	.L40:
 503              	.LBB8:
 504              		.loc 1 161 0 discriminator 1
 505 01ba 0590     		str	r0, [sp, #20]
 506 01bc FFF7FEFF 		bl	port_halt
 507              	.LVL55:
 508 01c0 059B     		ldr	r3, [sp, #20]
 509 01c2 94E7     		b	.L23
 510              	.L42:
 511              		.align	2
ARM GAS  /tmp/ccpqBDes.s 			page 10


 512              	.L41:
 513 01c4 00000000 		.word	lwip_stats
 514 01c8 00000000 		.word	current_iphdr_src
 515 01cc 00000000 		.word	current_iphdr_dest
 516              	.LBE8:
 517              		.cfi_endproc
 518              	.LFE7:
 519              		.size	icmp_input, .-icmp_input
 520              		.section	.text.icmp_dest_unreach,"ax",%progbits
 521              		.align	2
 522              		.p2align 4,,15
 523              		.global	icmp_dest_unreach
 524              		.thumb
 525              		.thumb_func
 526              		.type	icmp_dest_unreach, %function
 527              	icmp_dest_unreach:
 528              	.LFB8:
 529              		.loc 1 262 0
 530              		.cfi_startproc
 531              		@ args = 0, pretend = 0, frame = 0
 532              		@ frame_needed = 0, uses_anonymous_args = 0
 533              		@ link register save eliminated.
 534              	.LVL56:
 535              		.loc 1 262 0
 536 0000 0A46     		mov	r2, r1
 537              		.loc 1 263 0
 538 0002 0321     		movs	r1, #3
 539              	.LVL57:
 540              		.loc 1 264 0
 541              		.loc 1 263 0
 542 0004 FFF7FEBF 		b	icmp_send_response
 543              	.LVL58:
 544              		.cfi_endproc
 545              	.LFE8:
 546              		.size	icmp_dest_unreach, .-icmp_dest_unreach
 547 0008 AFF30080 		.section	.text.icmp_time_exceeded,"ax",%progbits
 547      AFF30080 
 548              		.align	2
 549              		.p2align 4,,15
 550              		.global	icmp_time_exceeded
 551              		.thumb
 552              		.thumb_func
 553              		.type	icmp_time_exceeded, %function
 554              	icmp_time_exceeded:
 555              	.LFB9:
 556              		.loc 1 276 0
 557              		.cfi_startproc
 558              		@ args = 0, pretend = 0, frame = 0
 559              		@ frame_needed = 0, uses_anonymous_args = 0
 560              		@ link register save eliminated.
 561              	.LVL59:
 562              		.loc 1 276 0
 563 0000 0A46     		mov	r2, r1
 564              		.loc 1 277 0
 565 0002 0B21     		movs	r1, #11
 566              	.LVL60:
 567              		.loc 1 278 0
ARM GAS  /tmp/ccpqBDes.s 			page 11


 568              		.loc 1 277 0
 569 0004 FFF7FEBF 		b	icmp_send_response
 570              	.LVL61:
 571              		.cfi_endproc
 572              	.LFE9:
 573              		.size	icmp_time_exceeded, .-icmp_time_exceeded
 574 0008 AFF30080 		.text
 574      AFF30080 
 575              	.Letext0:
 576              		.file 2 "/usr/bin/../lib/gcc/arm-none-eabi/4.7.4/../../../../arm-none-eabi/include/stdint.h"
 577              		.file 3 "../../os/various/lwip_bindings/arch/cc.h"
 578              		.file 4 "../../ext/lwip/src/include/lwip/err.h"
 579              		.file 5 "../../ext/lwip/src/include/lwip/pbuf.h"
 580              		.file 6 "../../ext/lwip/src/include/ipv4/lwip/ip_addr.h"
 581              		.file 7 "../../ext/lwip/src/include/lwip/netif.h"
 582              		.file 8 "../../ext/lwip/src/include/ipv4/lwip/icmp.h"
 583              		.file 9 "../../ext/lwip/src/include/ipv4/lwip/ip.h"
 584              		.file 10 "../../ext/lwip/src/include/lwip/mem.h"
 585              		.file 11 "../../ext/lwip/src/include/lwip/stats.h"
 586              		.file 12 "../../ext/lwip/src/include/ipv4/lwip/inet_chksum.h"
 587              		.file 13 "../../os/ports/GCC/ARMCMx/chcore_v7m.h"
 588              		.section	.debug_info,"",%progbits
 589              	.Ldebug_info0:
 590 0000 840C0000 		.4byte	0xc84
 591 0004 0200     		.2byte	0x2
 592 0006 00000000 		.4byte	.Ldebug_abbrev0
 593 000a 04       		.byte	0x4
 594 000b 01       		.uleb128 0x1
 595 000c C9040000 		.4byte	.LASF125
 596 0010 01       		.byte	0x1
 597 0011 93020000 		.4byte	.LASF126
 598 0015 B8010000 		.4byte	.LASF127
 599 0019 40000000 		.4byte	.Ldebug_ranges0+0x40
 600 001d 00000000 		.4byte	0
 601 0021 00000000 		.4byte	0
 602 0025 00000000 		.4byte	.Ldebug_line0
 603 0029 02       		.uleb128 0x2
 604 002a 04       		.byte	0x4
 605 002b 05       		.byte	0x5
 606 002c 696E7400 		.ascii	"int\000"
 607 0030 03       		.uleb128 0x3
 608 0031 04       		.byte	0x4
 609 0032 07       		.byte	0x7
 610 0033 39000000 		.4byte	.LASF0
 611 0037 04       		.uleb128 0x4
 612 0038 EF000000 		.4byte	.LASF2
 613 003c 02       		.byte	0x2
 614 003d 29       		.byte	0x29
 615 003e 42000000 		.4byte	0x42
 616 0042 03       		.uleb128 0x3
 617 0043 01       		.byte	0x1
 618 0044 06       		.byte	0x6
 619 0045 24050000 		.4byte	.LASF1
 620 0049 04       		.uleb128 0x4
 621 004a B7020000 		.4byte	.LASF3
 622 004e 02       		.byte	0x2
 623 004f 2A       		.byte	0x2a
ARM GAS  /tmp/ccpqBDes.s 			page 12


 624 0050 54000000 		.4byte	0x54
 625 0054 03       		.uleb128 0x3
 626 0055 01       		.byte	0x1
 627 0056 08       		.byte	0x8
 628 0057 66040000 		.4byte	.LASF4
 629 005b 04       		.uleb128 0x4
 630 005c 13010000 		.4byte	.LASF5
 631 0060 02       		.byte	0x2
 632 0061 35       		.byte	0x35
 633 0062 66000000 		.4byte	0x66
 634 0066 03       		.uleb128 0x3
 635 0067 02       		.byte	0x2
 636 0068 05       		.byte	0x5
 637 0069 7A030000 		.4byte	.LASF6
 638 006d 04       		.uleb128 0x4
 639 006e 54030000 		.4byte	.LASF7
 640 0072 02       		.byte	0x2
 641 0073 36       		.byte	0x36
 642 0074 78000000 		.4byte	0x78
 643 0078 03       		.uleb128 0x3
 644 0079 02       		.byte	0x2
 645 007a 07       		.byte	0x7
 646 007b 30050000 		.4byte	.LASF8
 647 007f 03       		.uleb128 0x3
 648 0080 04       		.byte	0x4
 649 0081 05       		.byte	0x5
 650 0082 89030000 		.4byte	.LASF9
 651 0086 04       		.uleb128 0x4
 652 0087 E6000000 		.4byte	.LASF10
 653 008b 02       		.byte	0x2
 654 008c 50       		.byte	0x50
 655 008d 91000000 		.4byte	0x91
 656 0091 03       		.uleb128 0x3
 657 0092 04       		.byte	0x4
 658 0093 07       		.byte	0x7
 659 0094 0D040000 		.4byte	.LASF11
 660 0098 03       		.uleb128 0x3
 661 0099 08       		.byte	0x8
 662 009a 05       		.byte	0x5
 663 009b F8020000 		.4byte	.LASF12
 664 009f 03       		.uleb128 0x3
 665 00a0 08       		.byte	0x8
 666 00a1 07       		.byte	0x7
 667 00a2 29010000 		.4byte	.LASF13
 668 00a6 03       		.uleb128 0x3
 669 00a7 01       		.byte	0x1
 670 00a8 02       		.byte	0x2
 671 00a9 27020000 		.4byte	.LASF14
 672 00ad 05       		.uleb128 0x5
 673 00ae 04       		.byte	0x4
 674 00af 03       		.uleb128 0x3
 675 00b0 04       		.byte	0x4
 676 00b1 07       		.byte	0x7
 677 00b2 04040000 		.4byte	.LASF15
 678 00b6 03       		.uleb128 0x3
 679 00b7 01       		.byte	0x1
 680 00b8 08       		.byte	0x8
ARM GAS  /tmp/ccpqBDes.s 			page 13


 681 00b9 68020000 		.4byte	.LASF16
 682 00bd 04       		.uleb128 0x4
 683 00be 06030000 		.4byte	.LASF17
 684 00c2 03       		.byte	0x3
 685 00c3 38       		.byte	0x38
 686 00c4 49000000 		.4byte	0x49
 687 00c8 04       		.uleb128 0x4
 688 00c9 3D020000 		.4byte	.LASF18
 689 00cd 03       		.byte	0x3
 690 00ce 39       		.byte	0x39
 691 00cf 37000000 		.4byte	0x37
 692 00d3 04       		.uleb128 0x4
 693 00d4 6F000000 		.4byte	.LASF19
 694 00d8 03       		.byte	0x3
 695 00d9 3A       		.byte	0x3a
 696 00da 6D000000 		.4byte	0x6d
 697 00de 04       		.uleb128 0x4
 698 00df 1F040000 		.4byte	.LASF20
 699 00e3 03       		.byte	0x3
 700 00e4 3B       		.byte	0x3b
 701 00e5 5B000000 		.4byte	0x5b
 702 00e9 04       		.uleb128 0x4
 703 00ea 74030000 		.4byte	.LASF21
 704 00ee 03       		.byte	0x3
 705 00ef 3C       		.byte	0x3c
 706 00f0 86000000 		.4byte	0x86
 707 00f4 04       		.uleb128 0x4
 708 00f5 5E000000 		.4byte	.LASF22
 709 00f9 04       		.byte	0x4
 710 00fa 2F       		.byte	0x2f
 711 00fb C8000000 		.4byte	0xc8
 712 00ff 06       		.uleb128 0x6
 713 0100 01       		.byte	0x1
 714 0101 05       		.byte	0x5
 715 0102 32       		.byte	0x32
 716 0103 20010000 		.4byte	0x120
 717 0107 07       		.uleb128 0x7
 718 0108 B4000000 		.4byte	.LASF23
 719 010c 00       		.sleb128 0
 720 010d 07       		.uleb128 0x7
 721 010e 18020000 		.4byte	.LASF24
 722 0112 01       		.sleb128 1
 723 0113 07       		.uleb128 0x7
 724 0114 3E030000 		.4byte	.LASF25
 725 0118 02       		.sleb128 2
 726 0119 07       		.uleb128 0x7
 727 011a 26000000 		.4byte	.LASF26
 728 011e 03       		.sleb128 3
 729 011f 00       		.byte	0
 730 0120 04       		.uleb128 0x4
 731 0121 36040000 		.4byte	.LASF27
 732 0125 05       		.byte	0x5
 733 0126 37       		.byte	0x37
 734 0127 FF000000 		.4byte	0xff
 735 012b 06       		.uleb128 0x6
 736 012c 01       		.byte	0x1
 737 012d 05       		.byte	0x5
ARM GAS  /tmp/ccpqBDes.s 			page 14


 738 012e 39       		.byte	0x39
 739 012f 4C010000 		.4byte	0x14c
 740 0133 07       		.uleb128 0x7
 741 0134 1D000000 		.4byte	.LASF28
 742 0138 00       		.sleb128 0
 743 0139 07       		.uleb128 0x7
 744 013a 6A050000 		.4byte	.LASF29
 745 013e 01       		.sleb128 1
 746 013f 07       		.uleb128 0x7
 747 0140 9E010000 		.4byte	.LASF30
 748 0144 02       		.sleb128 2
 749 0145 07       		.uleb128 0x7
 750 0146 2D020000 		.4byte	.LASF31
 751 014a 03       		.sleb128 3
 752 014b 00       		.byte	0
 753 014c 04       		.uleb128 0x4
 754 014d 2F000000 		.4byte	.LASF32
 755 0151 05       		.byte	0x5
 756 0152 3E       		.byte	0x3e
 757 0153 2B010000 		.4byte	0x12b
 758 0157 08       		.uleb128 0x8
 759 0158 7B040000 		.4byte	.LASF38
 760 015c 10       		.byte	0x10
 761 015d 05       		.byte	0x5
 762 015e 4F       		.byte	0x4f
 763 015f C6010000 		.4byte	0x1c6
 764 0163 09       		.uleb128 0x9
 765 0164 46000000 		.4byte	.LASF33
 766 0168 05       		.byte	0x5
 767 0169 51       		.byte	0x51
 768 016a C6010000 		.4byte	0x1c6
 769 016e 02       		.byte	0x2
 770 016f 23       		.byte	0x23
 771 0170 00       		.uleb128 0
 772 0171 09       		.uleb128 0x9
 773 0172 10020000 		.4byte	.LASF34
 774 0176 05       		.byte	0x5
 775 0177 54       		.byte	0x54
 776 0178 AD000000 		.4byte	0xad
 777 017c 02       		.byte	0x2
 778 017d 23       		.byte	0x23
 779 017e 04       		.uleb128 0x4
 780 017f 09       		.uleb128 0x9
 781 0180 08020000 		.4byte	.LASF35
 782 0184 05       		.byte	0x5
 783 0185 5D       		.byte	0x5d
 784 0186 D3000000 		.4byte	0xd3
 785 018a 02       		.byte	0x2
 786 018b 23       		.byte	0x23
 787 018c 08       		.uleb128 0x8
 788 018d 0A       		.uleb128 0xa
 789 018e 6C656E00 		.ascii	"len\000"
 790 0192 05       		.byte	0x5
 791 0193 60       		.byte	0x60
 792 0194 D3000000 		.4byte	0xd3
 793 0198 02       		.byte	0x2
 794 0199 23       		.byte	0x23
ARM GAS  /tmp/ccpqBDes.s 			page 15


 795 019a 0A       		.uleb128 0xa
 796 019b 09       		.uleb128 0x9
 797 019c 57040000 		.4byte	.LASF36
 798 01a0 05       		.byte	0x5
 799 01a1 63       		.byte	0x63
 800 01a2 BD000000 		.4byte	0xbd
 801 01a6 02       		.byte	0x2
 802 01a7 23       		.byte	0x23
 803 01a8 0C       		.uleb128 0xc
 804 01a9 09       		.uleb128 0x9
 805 01aa 37020000 		.4byte	.LASF37
 806 01ae 05       		.byte	0x5
 807 01af 66       		.byte	0x66
 808 01b0 BD000000 		.4byte	0xbd
 809 01b4 02       		.byte	0x2
 810 01b5 23       		.byte	0x23
 811 01b6 0D       		.uleb128 0xd
 812 01b7 0A       		.uleb128 0xa
 813 01b8 72656600 		.ascii	"ref\000"
 814 01bc 05       		.byte	0x5
 815 01bd 6D       		.byte	0x6d
 816 01be D3000000 		.4byte	0xd3
 817 01c2 02       		.byte	0x2
 818 01c3 23       		.byte	0x23
 819 01c4 0E       		.uleb128 0xe
 820 01c5 00       		.byte	0
 821 01c6 0B       		.uleb128 0xb
 822 01c7 04       		.byte	0x4
 823 01c8 57010000 		.4byte	0x157
 824 01cc 08       		.uleb128 0x8
 825 01cd 78050000 		.4byte	.LASF39
 826 01d1 04       		.byte	0x4
 827 01d2 06       		.byte	0x6
 828 01d3 2C       		.byte	0x2c
 829 01d4 E7010000 		.4byte	0x1e7
 830 01d8 09       		.uleb128 0x9
 831 01d9 A5040000 		.4byte	.LASF40
 832 01dd 06       		.byte	0x6
 833 01de 2D       		.byte	0x2d
 834 01df E9000000 		.4byte	0xe9
 835 01e3 02       		.byte	0x2
 836 01e4 23       		.byte	0x23
 837 01e5 00       		.uleb128 0
 838 01e6 00       		.byte	0
 839 01e7 08       		.uleb128 0x8
 840 01e8 84020000 		.4byte	.LASF41
 841 01ec 04       		.byte	0x4
 842 01ed 06       		.byte	0x6
 843 01ee 36       		.byte	0x36
 844 01ef 02020000 		.4byte	0x202
 845 01f3 09       		.uleb128 0x9
 846 01f4 A5040000 		.4byte	.LASF40
 847 01f8 06       		.byte	0x6
 848 01f9 37       		.byte	0x37
 849 01fa E9000000 		.4byte	0xe9
 850 01fe 02       		.byte	0x2
 851 01ff 23       		.byte	0x23
ARM GAS  /tmp/ccpqBDes.s 			page 16


 852 0200 00       		.uleb128 0
 853 0201 00       		.byte	0
 854 0202 04       		.uleb128 0x4
 855 0203 60050000 		.4byte	.LASF42
 856 0207 06       		.byte	0x6
 857 0208 40       		.byte	0x40
 858 0209 CC010000 		.4byte	0x1cc
 859 020d 04       		.uleb128 0x4
 860 020e 80040000 		.4byte	.LASF43
 861 0212 06       		.byte	0x6
 862 0213 41       		.byte	0x41
 863 0214 E7010000 		.4byte	0x1e7
 864 0218 0B       		.uleb128 0xb
 865 0219 04       		.byte	0x4
 866 021a 1E020000 		.4byte	0x21e
 867 021e 08       		.uleb128 0x8
 868 021f C3040000 		.4byte	.LASF44
 869 0223 30       		.byte	0x30
 870 0224 07       		.byte	0x7
 871 0225 88       		.byte	0x88
 872 0226 EE020000 		.4byte	0x2ee
 873 022a 09       		.uleb128 0x9
 874 022b 46000000 		.4byte	.LASF33
 875 022f 07       		.byte	0x7
 876 0230 8A       		.byte	0x8a
 877 0231 18020000 		.4byte	0x218
 878 0235 02       		.byte	0x2
 879 0236 23       		.byte	0x23
 880 0237 00       		.uleb128 0
 881 0238 09       		.uleb128 0x9
 882 0239 78050000 		.4byte	.LASF39
 883 023d 07       		.byte	0x7
 884 023e 8D       		.byte	0x8d
 885 023f 02020000 		.4byte	0x202
 886 0243 02       		.byte	0x2
 887 0244 23       		.byte	0x23
 888 0245 04       		.uleb128 0x4
 889 0246 09       		.uleb128 0x9
 890 0247 F0020000 		.4byte	.LASF45
 891 024b 07       		.byte	0x7
 892 024c 8E       		.byte	0x8e
 893 024d 02020000 		.4byte	0x202
 894 0251 02       		.byte	0x2
 895 0252 23       		.byte	0x23
 896 0253 08       		.uleb128 0x8
 897 0254 0A       		.uleb128 0xa
 898 0255 677700   		.ascii	"gw\000"
 899 0258 07       		.byte	0x7
 900 0259 8F       		.byte	0x8f
 901 025a 02020000 		.4byte	0x202
 902 025e 02       		.byte	0x2
 903 025f 23       		.byte	0x23
 904 0260 0C       		.uleb128 0xc
 905 0261 09       		.uleb128 0x9
 906 0262 17000000 		.4byte	.LASF46
 907 0266 07       		.byte	0x7
 908 0267 93       		.byte	0x93
ARM GAS  /tmp/ccpqBDes.s 			page 17


 909 0268 EE020000 		.4byte	0x2ee
 910 026c 02       		.byte	0x2
 911 026d 23       		.byte	0x23
 912 026e 10       		.uleb128 0x10
 913 026f 09       		.uleb128 0x9
 914 0270 20020000 		.4byte	.LASF47
 915 0274 07       		.byte	0x7
 916 0275 97       		.byte	0x97
 917 0276 14030000 		.4byte	0x314
 918 027a 02       		.byte	0x2
 919 027b 23       		.byte	0x23
 920 027c 14       		.uleb128 0x14
 921 027d 09       		.uleb128 0x9
 922 027e 64000000 		.4byte	.LASF48
 923 0282 07       		.byte	0x7
 924 0283 9B       		.byte	0x9b
 925 0284 45030000 		.4byte	0x345
 926 0288 02       		.byte	0x2
 927 0289 23       		.byte	0x23
 928 028a 18       		.uleb128 0x18
 929 028b 09       		.uleb128 0x9
 930 028c BD040000 		.4byte	.LASF49
 931 0290 07       		.byte	0x7
 932 0291 AC       		.byte	0xac
 933 0292 AD000000 		.4byte	0xad
 934 0296 02       		.byte	0x2
 935 0297 23       		.byte	0x23
 936 0298 1C       		.uleb128 0x1c
 937 0299 0A       		.uleb128 0xa
 938 029a 6D747500 		.ascii	"mtu\000"
 939 029e 07       		.byte	0x7
 940 029f BA       		.byte	0xba
 941 02a0 D3000000 		.4byte	0xd3
 942 02a4 02       		.byte	0x2
 943 02a5 23       		.byte	0x23
 944 02a6 20       		.uleb128 0x20
 945 02a7 09       		.uleb128 0x9
 946 02a8 7F010000 		.4byte	.LASF50
 947 02ac 07       		.byte	0x7
 948 02ad BC       		.byte	0xbc
 949 02ae BD000000 		.4byte	0xbd
 950 02b2 02       		.byte	0x2
 951 02b3 23       		.byte	0x23
 952 02b4 22       		.uleb128 0x22
 953 02b5 09       		.uleb128 0x9
 954 02b6 1B010000 		.4byte	.LASF51
 955 02ba 07       		.byte	0x7
 956 02bb BE       		.byte	0xbe
 957 02bc 6B030000 		.4byte	0x36b
 958 02c0 02       		.byte	0x2
 959 02c1 23       		.byte	0x23
 960 02c2 23       		.uleb128 0x23
 961 02c3 09       		.uleb128 0x9
 962 02c4 37020000 		.4byte	.LASF37
 963 02c8 07       		.byte	0x7
 964 02c9 C0       		.byte	0xc0
 965 02ca BD000000 		.4byte	0xbd
ARM GAS  /tmp/ccpqBDes.s 			page 18


 966 02ce 02       		.byte	0x2
 967 02cf 23       		.byte	0x23
 968 02d0 29       		.uleb128 0x29
 969 02d1 09       		.uleb128 0x9
 970 02d2 CC030000 		.4byte	.LASF52
 971 02d6 07       		.byte	0x7
 972 02d7 C2       		.byte	0xc2
 973 02d8 7B030000 		.4byte	0x37b
 974 02dc 02       		.byte	0x2
 975 02dd 23       		.byte	0x23
 976 02de 2A       		.uleb128 0x2a
 977 02df 0A       		.uleb128 0xa
 978 02e0 6E756D00 		.ascii	"num\000"
 979 02e4 07       		.byte	0x7
 980 02e5 C4       		.byte	0xc4
 981 02e6 BD000000 		.4byte	0xbd
 982 02ea 02       		.byte	0x2
 983 02eb 23       		.byte	0x23
 984 02ec 2C       		.uleb128 0x2c
 985 02ed 00       		.byte	0
 986 02ee 04       		.uleb128 0x4
 987 02ef D7000000 		.4byte	.LASF53
 988 02f3 07       		.byte	0x7
 989 02f4 6D       		.byte	0x6d
 990 02f5 F9020000 		.4byte	0x2f9
 991 02f9 0B       		.uleb128 0xb
 992 02fa 04       		.byte	0x4
 993 02fb FF020000 		.4byte	0x2ff
 994 02ff 0C       		.uleb128 0xc
 995 0300 01       		.byte	0x1
 996 0301 F4000000 		.4byte	0xf4
 997 0305 14030000 		.4byte	0x314
 998 0309 0D       		.uleb128 0xd
 999 030a C6010000 		.4byte	0x1c6
 1000 030e 0D       		.uleb128 0xd
 1001 030f 18020000 		.4byte	0x218
 1002 0313 00       		.byte	0
 1003 0314 04       		.uleb128 0x4
 1004 0315 8E000000 		.4byte	.LASF54
 1005 0319 07       		.byte	0x7
 1006 031a 76       		.byte	0x76
 1007 031b 1F030000 		.4byte	0x31f
 1008 031f 0B       		.uleb128 0xb
 1009 0320 04       		.byte	0x4
 1010 0321 25030000 		.4byte	0x325
 1011 0325 0C       		.uleb128 0xc
 1012 0326 01       		.byte	0x1
 1013 0327 F4000000 		.4byte	0xf4
 1014 032b 3F030000 		.4byte	0x33f
 1015 032f 0D       		.uleb128 0xd
 1016 0330 18020000 		.4byte	0x218
 1017 0334 0D       		.uleb128 0xd
 1018 0335 C6010000 		.4byte	0x1c6
 1019 0339 0D       		.uleb128 0xd
 1020 033a 3F030000 		.4byte	0x33f
 1021 033e 00       		.byte	0
 1022 033f 0B       		.uleb128 0xb
ARM GAS  /tmp/ccpqBDes.s 			page 19


 1023 0340 04       		.byte	0x4
 1024 0341 02020000 		.4byte	0x202
 1025 0345 04       		.uleb128 0x4
 1026 0346 D1030000 		.4byte	.LASF55
 1027 034a 07       		.byte	0x7
 1028 034b 7E       		.byte	0x7e
 1029 034c 50030000 		.4byte	0x350
 1030 0350 0B       		.uleb128 0xb
 1031 0351 04       		.byte	0x4
 1032 0352 56030000 		.4byte	0x356
 1033 0356 0C       		.uleb128 0xc
 1034 0357 01       		.byte	0x1
 1035 0358 F4000000 		.4byte	0xf4
 1036 035c 6B030000 		.4byte	0x36b
 1037 0360 0D       		.uleb128 0xd
 1038 0361 18020000 		.4byte	0x218
 1039 0365 0D       		.uleb128 0xd
 1040 0366 C6010000 		.4byte	0x1c6
 1041 036a 00       		.byte	0
 1042 036b 0E       		.uleb128 0xe
 1043 036c BD000000 		.4byte	0xbd
 1044 0370 7B030000 		.4byte	0x37b
 1045 0374 0F       		.uleb128 0xf
 1046 0375 AF000000 		.4byte	0xaf
 1047 0379 05       		.byte	0x5
 1048 037a 00       		.byte	0
 1049 037b 0E       		.uleb128 0xe
 1050 037c B6000000 		.4byte	0xb6
 1051 0380 8B030000 		.4byte	0x38b
 1052 0384 0F       		.uleb128 0xf
 1053 0385 AF000000 		.4byte	0xaf
 1054 0389 01       		.byte	0x1
 1055 038a 00       		.byte	0
 1056 038b 10       		.uleb128 0x10
 1057 038c E5030000 		.4byte	.LASF62
 1058 0390 01       		.byte	0x1
 1059 0391 08       		.byte	0x8
 1060 0392 38       		.byte	0x38
 1061 0393 BC030000 		.4byte	0x3bc
 1062 0397 07       		.uleb128 0x7
 1063 0398 4B000000 		.4byte	.LASF56
 1064 039c 00       		.sleb128 0
 1065 039d 07       		.uleb128 0x7
 1066 039e 09000000 		.4byte	.LASF57
 1067 03a2 01       		.sleb128 1
 1068 03a3 07       		.uleb128 0x7
 1069 03a4 8C040000 		.4byte	.LASF58
 1070 03a8 02       		.sleb128 2
 1071 03a9 07       		.uleb128 0x7
 1072 03aa 1D030000 		.4byte	.LASF59
 1073 03ae 03       		.sleb128 3
 1074 03af 07       		.uleb128 0x7
 1075 03b0 AA040000 		.4byte	.LASF60
 1076 03b4 04       		.sleb128 4
 1077 03b5 07       		.uleb128 0x7
 1078 03b6 92010000 		.4byte	.LASF61
 1079 03ba 05       		.sleb128 5
ARM GAS  /tmp/ccpqBDes.s 			page 20


 1080 03bb 00       		.byte	0
 1081 03bc 10       		.uleb128 0x10
 1082 03bd D9020000 		.4byte	.LASF63
 1083 03c1 01       		.byte	0x1
 1084 03c2 08       		.byte	0x8
 1085 03c3 41       		.byte	0x41
 1086 03c4 D5030000 		.4byte	0x3d5
 1087 03c8 07       		.uleb128 0x7
 1088 03c9 C0030000 		.4byte	.LASF64
 1089 03cd 00       		.sleb128 0
 1090 03ce 07       		.uleb128 0x7
 1091 03cf 67030000 		.4byte	.LASF65
 1092 03d3 01       		.sleb128 1
 1093 03d4 00       		.byte	0
 1094 03d5 08       		.uleb128 0x8
 1095 03d6 49040000 		.4byte	.LASF66
 1096 03da 08       		.byte	0x8
 1097 03db 08       		.byte	0x8
 1098 03dc 4F       		.byte	0x4f
 1099 03dd 27040000 		.4byte	0x427
 1100 03e1 09       		.uleb128 0x9
 1101 03e2 57040000 		.4byte	.LASF36
 1102 03e6 08       		.byte	0x8
 1103 03e7 50       		.byte	0x50
 1104 03e8 BD000000 		.4byte	0xbd
 1105 03ec 02       		.byte	0x2
 1106 03ed 23       		.byte	0x23
 1107 03ee 00       		.uleb128 0
 1108 03ef 09       		.uleb128 0x9
 1109 03f0 42020000 		.4byte	.LASF67
 1110 03f4 08       		.byte	0x8
 1111 03f5 51       		.byte	0x51
 1112 03f6 BD000000 		.4byte	0xbd
 1113 03fa 02       		.byte	0x2
 1114 03fb 23       		.byte	0x23
 1115 03fc 01       		.uleb128 0x1
 1116 03fd 09       		.uleb128 0x9
 1117 03fe 12050000 		.4byte	.LASF68
 1118 0402 08       		.byte	0x8
 1119 0403 52       		.byte	0x52
 1120 0404 D3000000 		.4byte	0xd3
 1121 0408 02       		.byte	0x2
 1122 0409 23       		.byte	0x23
 1123 040a 02       		.uleb128 0x2
 1124 040b 0A       		.uleb128 0xa
 1125 040c 696400   		.ascii	"id\000"
 1126 040f 08       		.byte	0x8
 1127 0410 53       		.byte	0x53
 1128 0411 D3000000 		.4byte	0xd3
 1129 0415 02       		.byte	0x2
 1130 0416 23       		.byte	0x23
 1131 0417 04       		.uleb128 0x4
 1132 0418 09       		.uleb128 0x9
 1133 0419 D1000000 		.4byte	.LASF69
 1134 041d 08       		.byte	0x8
 1135 041e 54       		.byte	0x54
 1136 041f D3000000 		.4byte	0xd3
ARM GAS  /tmp/ccpqBDes.s 			page 21


 1137 0423 02       		.byte	0x2
 1138 0424 23       		.byte	0x23
 1139 0425 06       		.uleb128 0x6
 1140 0426 00       		.byte	0
 1141 0427 08       		.uleb128 0x8
 1142 0428 B9030000 		.4byte	.LASF70
 1143 042c 14       		.byte	0x14
 1144 042d 09       		.byte	0x9
 1145 042e 74       		.byte	0x74
 1146 042f C0040000 		.4byte	0x4c0
 1147 0433 09       		.uleb128 0x9
 1148 0434 0B030000 		.4byte	.LASF71
 1149 0438 09       		.byte	0x9
 1150 0439 76       		.byte	0x76
 1151 043a BD000000 		.4byte	0xbd
 1152 043e 02       		.byte	0x2
 1153 043f 23       		.byte	0x23
 1154 0440 00       		.uleb128 0
 1155 0441 09       		.uleb128 0x9
 1156 0442 FF030000 		.4byte	.LASF72
 1157 0446 09       		.byte	0x9
 1158 0447 78       		.byte	0x78
 1159 0448 BD000000 		.4byte	0xbd
 1160 044c 02       		.byte	0x2
 1161 044d 23       		.byte	0x23
 1162 044e 01       		.uleb128 0x1
 1163 044f 09       		.uleb128 0x9
 1164 0450 5B050000 		.4byte	.LASF73
 1165 0454 09       		.byte	0x9
 1166 0455 7A       		.byte	0x7a
 1167 0456 D3000000 		.4byte	0xd3
 1168 045a 02       		.byte	0x2
 1169 045b 23       		.byte	0x23
 1170 045c 02       		.uleb128 0x2
 1171 045d 0A       		.uleb128 0xa
 1172 045e 5F696400 		.ascii	"_id\000"
 1173 0462 09       		.byte	0x9
 1174 0463 7C       		.byte	0x7c
 1175 0464 D3000000 		.4byte	0xd3
 1176 0468 02       		.byte	0x2
 1177 0469 23       		.byte	0x23
 1178 046a 04       		.uleb128 0x4
 1179 046b 09       		.uleb128 0x9
 1180 046c 8A010000 		.4byte	.LASF74
 1181 0470 09       		.byte	0x9
 1182 0471 7E       		.byte	0x7e
 1183 0472 D3000000 		.4byte	0xd3
 1184 0476 02       		.byte	0x2
 1185 0477 23       		.byte	0x23
 1186 0478 06       		.uleb128 0x6
 1187 0479 09       		.uleb128 0x9
 1188 047a 75000000 		.4byte	.LASF75
 1189 047e 09       		.byte	0x9
 1190 047f 84       		.byte	0x84
 1191 0480 BD000000 		.4byte	0xbd
 1192 0484 02       		.byte	0x2
 1193 0485 23       		.byte	0x23
ARM GAS  /tmp/ccpqBDes.s 			page 22


 1194 0486 08       		.uleb128 0x8
 1195 0487 09       		.uleb128 0x9
 1196 0488 BF020000 		.4byte	.LASF76
 1197 048c 09       		.byte	0x9
 1198 048d 86       		.byte	0x86
 1199 048e BD000000 		.4byte	0xbd
 1200 0492 02       		.byte	0x2
 1201 0493 23       		.byte	0x23
 1202 0494 09       		.uleb128 0x9
 1203 0495 09       		.uleb128 0x9
 1204 0496 77010000 		.4byte	.LASF77
 1205 049a 09       		.byte	0x9
 1206 049b 88       		.byte	0x88
 1207 049c D3000000 		.4byte	0xd3
 1208 04a0 02       		.byte	0x2
 1209 04a1 23       		.byte	0x23
 1210 04a2 0A       		.uleb128 0xa
 1211 04a3 0A       		.uleb128 0xa
 1212 04a4 73726300 		.ascii	"src\000"
 1213 04a8 09       		.byte	0x9
 1214 04a9 8A       		.byte	0x8a
 1215 04aa 0D020000 		.4byte	0x20d
 1216 04ae 02       		.byte	0x2
 1217 04af 23       		.byte	0x23
 1218 04b0 0C       		.uleb128 0xc
 1219 04b1 09       		.uleb128 0x9
 1220 04b2 73050000 		.4byte	.LASF78
 1221 04b6 09       		.byte	0x9
 1222 04b7 8B       		.byte	0x8b
 1223 04b8 0D020000 		.4byte	0x20d
 1224 04bc 02       		.byte	0x2
 1225 04bd 23       		.byte	0x23
 1226 04be 10       		.uleb128 0x10
 1227 04bf 00       		.byte	0
 1228 04c0 04       		.uleb128 0x4
 1229 04c1 6D020000 		.4byte	.LASF79
 1230 04c5 0A       		.byte	0xa
 1231 04c6 4C       		.byte	0x4c
 1232 04c7 D3000000 		.4byte	0xd3
 1233 04cb 08       		.uleb128 0x8
 1234 04cc 78020000 		.4byte	.LASF80
 1235 04d0 18       		.byte	0x18
 1236 04d1 0B       		.byte	0xb
 1237 04d2 3A       		.byte	0x3a
 1238 04d3 7F050000 		.4byte	0x57f
 1239 04d7 09       		.uleb128 0x9
 1240 04d8 43050000 		.4byte	.LASF81
 1241 04dc 0B       		.byte	0xb
 1242 04dd 3B       		.byte	0x3b
 1243 04de D3000000 		.4byte	0xd3
 1244 04e2 02       		.byte	0x2
 1245 04e3 23       		.byte	0x23
 1246 04e4 00       		.uleb128 0
 1247 04e5 09       		.uleb128 0x9
 1248 04e6 1F050000 		.4byte	.LASF82
 1249 04ea 0B       		.byte	0xb
 1250 04eb 3C       		.byte	0x3c
ARM GAS  /tmp/ccpqBDes.s 			page 23


 1251 04ec D3000000 		.4byte	0xd3
 1252 04f0 02       		.byte	0x2
 1253 04f1 23       		.byte	0x23
 1254 04f2 02       		.uleb128 0x2
 1255 04f3 0A       		.uleb128 0xa
 1256 04f4 667700   		.ascii	"fw\000"
 1257 04f7 0B       		.byte	0xb
 1258 04f8 3D       		.byte	0x3d
 1259 04f9 D3000000 		.4byte	0xd3
 1260 04fd 02       		.byte	0x2
 1261 04fe 23       		.byte	0x23
 1262 04ff 04       		.uleb128 0x4
 1263 0500 09       		.uleb128 0x9
 1264 0501 B8040000 		.4byte	.LASF83
 1265 0505 0B       		.byte	0xb
 1266 0506 3E       		.byte	0x3e
 1267 0507 D3000000 		.4byte	0xd3
 1268 050b 02       		.byte	0x2
 1269 050c 23       		.byte	0x23
 1270 050d 06       		.uleb128 0x6
 1271 050e 09       		.uleb128 0x9
 1272 050f 16030000 		.4byte	.LASF84
 1273 0513 0B       		.byte	0xb
 1274 0514 3F       		.byte	0x3f
 1275 0515 D3000000 		.4byte	0xd3
 1276 0519 02       		.byte	0x2
 1277 051a 23       		.byte	0x23
 1278 051b 08       		.uleb128 0x8
 1279 051c 09       		.uleb128 0x9
 1280 051d F8030000 		.4byte	.LASF85
 1281 0521 0B       		.byte	0xb
 1282 0522 40       		.byte	0x40
 1283 0523 D3000000 		.4byte	0xd3
 1284 0527 02       		.byte	0x2
 1285 0528 23       		.byte	0x23
 1286 0529 0A       		.uleb128 0xa
 1287 052a 09       		.uleb128 0x9
 1288 052b 74040000 		.4byte	.LASF86
 1289 052f 0B       		.byte	0xb
 1290 0530 41       		.byte	0x41
 1291 0531 D3000000 		.4byte	0xd3
 1292 0535 02       		.byte	0x2
 1293 0536 23       		.byte	0x23
 1294 0537 0C       		.uleb128 0xc
 1295 0538 09       		.uleb128 0x9
 1296 0539 92030000 		.4byte	.LASF87
 1297 053d 0B       		.byte	0xb
 1298 053e 42       		.byte	0x42
 1299 053f D3000000 		.4byte	0xd3
 1300 0543 02       		.byte	0x2
 1301 0544 23       		.byte	0x23
 1302 0545 0E       		.uleb128 0xe
 1303 0546 09       		.uleb128 0x9
 1304 0547 41040000 		.4byte	.LASF88
 1305 054b 0B       		.byte	0xb
 1306 054c 43       		.byte	0x43
 1307 054d D3000000 		.4byte	0xd3
ARM GAS  /tmp/ccpqBDes.s 			page 24


 1308 0551 02       		.byte	0x2
 1309 0552 23       		.byte	0x23
 1310 0553 10       		.uleb128 0x10
 1311 0554 09       		.uleb128 0x9
 1312 0555 F6000000 		.4byte	.LASF89
 1313 0559 0B       		.byte	0xb
 1314 055a 44       		.byte	0x44
 1315 055b D3000000 		.4byte	0xd3
 1316 055f 02       		.byte	0x2
 1317 0560 23       		.byte	0x23
 1318 0561 12       		.uleb128 0x12
 1319 0562 0A       		.uleb128 0xa
 1320 0563 65727200 		.ascii	"err\000"
 1321 0567 0B       		.byte	0xb
 1322 0568 45       		.byte	0x45
 1323 0569 D3000000 		.4byte	0xd3
 1324 056d 02       		.byte	0x2
 1325 056e 23       		.byte	0x23
 1326 056f 14       		.uleb128 0x14
 1327 0570 09       		.uleb128 0x9
 1328 0571 A3030000 		.4byte	.LASF90
 1329 0575 0B       		.byte	0xb
 1330 0576 46       		.byte	0x46
 1331 0577 D3000000 		.4byte	0xd3
 1332 057b 02       		.byte	0x2
 1333 057c 23       		.byte	0x23
 1334 057d 16       		.uleb128 0x16
 1335 057e 00       		.byte	0
 1336 057f 08       		.uleb128 0x8
 1337 0580 7F000000 		.4byte	.LASF91
 1338 0584 0A       		.byte	0xa
 1339 0585 0B       		.byte	0xb
 1340 0586 5A       		.byte	0x5a
 1341 0587 D2050000 		.4byte	0x5d2
 1342 058b 09       		.uleb128 0x9
 1343 058c 98030000 		.4byte	.LASF92
 1344 0590 0B       		.byte	0xb
 1345 0591 5E       		.byte	0x5e
 1346 0592 C0040000 		.4byte	0x4c0
 1347 0596 02       		.byte	0x2
 1348 0597 23       		.byte	0x23
 1349 0598 00       		.uleb128 0
 1350 0599 09       		.uleb128 0x9
 1351 059a 11030000 		.4byte	.LASF93
 1352 059e 0B       		.byte	0xb
 1353 059f 5F       		.byte	0x5f
 1354 05a0 C0040000 		.4byte	0x4c0
 1355 05a4 02       		.byte	0x2
 1356 05a5 23       		.byte	0x23
 1357 05a6 02       		.uleb128 0x2
 1358 05a7 0A       		.uleb128 0xa
 1359 05a8 6D617800 		.ascii	"max\000"
 1360 05ac 0B       		.byte	0xb
 1361 05ad 60       		.byte	0x60
 1362 05ae C0040000 		.4byte	0x4c0
 1363 05b2 02       		.byte	0x2
 1364 05b3 23       		.byte	0x23
ARM GAS  /tmp/ccpqBDes.s 			page 25


 1365 05b4 04       		.uleb128 0x4
 1366 05b5 0A       		.uleb128 0xa
 1367 05b6 65727200 		.ascii	"err\000"
 1368 05ba 0B       		.byte	0xb
 1369 05bb 61       		.byte	0x61
 1370 05bc D3000000 		.4byte	0xd3
 1371 05c0 02       		.byte	0x2
 1372 05c1 23       		.byte	0x23
 1373 05c2 06       		.uleb128 0x6
 1374 05c3 09       		.uleb128 0x9
 1375 05c4 0B010000 		.4byte	.LASF94
 1376 05c8 0B       		.byte	0xb
 1377 05c9 62       		.byte	0x62
 1378 05ca D3000000 		.4byte	0xd3
 1379 05ce 02       		.byte	0x2
 1380 05cf 23       		.byte	0x23
 1381 05d0 08       		.uleb128 0x8
 1382 05d1 00       		.byte	0
 1383 05d2 08       		.uleb128 0x8
 1384 05d3 C3000000 		.4byte	.LASF95
 1385 05d7 06       		.byte	0x6
 1386 05d8 0B       		.byte	0xb
 1387 05d9 65       		.byte	0x65
 1388 05da 09060000 		.4byte	0x609
 1389 05de 09       		.uleb128 0x9
 1390 05df 11030000 		.4byte	.LASF93
 1391 05e3 0B       		.byte	0xb
 1392 05e4 66       		.byte	0x66
 1393 05e5 D3000000 		.4byte	0xd3
 1394 05e9 02       		.byte	0x2
 1395 05ea 23       		.byte	0x23
 1396 05eb 00       		.uleb128 0
 1397 05ec 0A       		.uleb128 0xa
 1398 05ed 6D617800 		.ascii	"max\000"
 1399 05f1 0B       		.byte	0xb
 1400 05f2 67       		.byte	0x67
 1401 05f3 D3000000 		.4byte	0xd3
 1402 05f7 02       		.byte	0x2
 1403 05f8 23       		.byte	0x23
 1404 05f9 02       		.uleb128 0x2
 1405 05fa 0A       		.uleb128 0xa
 1406 05fb 65727200 		.ascii	"err\000"
 1407 05ff 0B       		.byte	0xb
 1408 0600 68       		.byte	0x68
 1409 0601 D3000000 		.4byte	0xd3
 1410 0605 02       		.byte	0x2
 1411 0606 23       		.byte	0x23
 1412 0607 04       		.uleb128 0x4
 1413 0608 00       		.byte	0
 1414 0609 08       		.uleb128 0x8
 1415 060a 5C040000 		.4byte	.LASF96
 1416 060e 12       		.byte	0x12
 1417 060f 0B       		.byte	0xb
 1418 0610 6B       		.byte	0x6b
 1419 0611 40060000 		.4byte	0x640
 1420 0615 0A       		.uleb128 0xa
 1421 0616 73656D00 		.ascii	"sem\000"
ARM GAS  /tmp/ccpqBDes.s 			page 26


 1422 061a 0B       		.byte	0xb
 1423 061b 6C       		.byte	0x6c
 1424 061c D2050000 		.4byte	0x5d2
 1425 0620 02       		.byte	0x2
 1426 0621 23       		.byte	0x23
 1427 0622 00       		.uleb128 0
 1428 0623 09       		.uleb128 0x9
 1429 0624 FD000000 		.4byte	.LASF97
 1430 0628 0B       		.byte	0xb
 1431 0629 6D       		.byte	0x6d
 1432 062a D2050000 		.4byte	0x5d2
 1433 062e 02       		.byte	0x2
 1434 062f 23       		.byte	0x23
 1435 0630 06       		.uleb128 0x6
 1436 0631 09       		.uleb128 0x9
 1437 0632 9E030000 		.4byte	.LASF98
 1438 0636 0B       		.byte	0xb
 1439 0637 6E       		.byte	0x6e
 1440 0638 D2050000 		.4byte	0x5d2
 1441 063c 02       		.byte	0x2
 1442 063d 23       		.byte	0x23
 1443 063e 0C       		.uleb128 0xc
 1444 063f 00       		.byte	0
 1445 0640 11       		.uleb128 0x11
 1446 0641 B1010000 		.4byte	.LASF99
 1447 0645 5001     		.2byte	0x150
 1448 0647 0B       		.byte	0xb
 1449 0648 71       		.byte	0x71
 1450 0649 DD060000 		.4byte	0x6dd
 1451 064d 09       		.uleb128 0x9
 1452 064e 7A000000 		.4byte	.LASF100
 1453 0652 0B       		.byte	0xb
 1454 0653 73       		.byte	0x73
 1455 0654 CB040000 		.4byte	0x4cb
 1456 0658 02       		.byte	0x2
 1457 0659 23       		.byte	0x23
 1458 065a 00       		.uleb128 0
 1459 065b 09       		.uleb128 0x9
 1460 065c 22010000 		.4byte	.LASF101
 1461 0660 0B       		.byte	0xb
 1462 0661 76       		.byte	0x76
 1463 0662 CB040000 		.4byte	0x4cb
 1464 0666 02       		.byte	0x2
 1465 0667 23       		.byte	0x23
 1466 0668 18       		.uleb128 0x18
 1467 0669 09       		.uleb128 0x9
 1468 066a 03010000 		.4byte	.LASF102
 1469 066e 0B       		.byte	0xb
 1470 066f 79       		.byte	0x79
 1471 0670 CB040000 		.4byte	0x4cb
 1472 0674 02       		.byte	0x2
 1473 0675 23       		.byte	0x23
 1474 0676 30       		.uleb128 0x30
 1475 0677 0A       		.uleb128 0xa
 1476 0678 697000   		.ascii	"ip\000"
 1477 067b 0B       		.byte	0xb
 1478 067c 7C       		.byte	0x7c
ARM GAS  /tmp/ccpqBDes.s 			page 27


 1479 067d CB040000 		.4byte	0x4cb
 1480 0681 02       		.byte	0x2
 1481 0682 23       		.byte	0x23
 1482 0683 48       		.uleb128 0x48
 1483 0684 09       		.uleb128 0x9
 1484 0685 84030000 		.4byte	.LASF103
 1485 0689 0B       		.byte	0xb
 1486 068a 7F       		.byte	0x7f
 1487 068b CB040000 		.4byte	0x4cb
 1488 068f 02       		.byte	0x2
 1489 0690 23       		.byte	0x23
 1490 0691 60       		.uleb128 0x60
 1491 0692 0A       		.uleb128 0xa
 1492 0693 75647000 		.ascii	"udp\000"
 1493 0697 0B       		.byte	0xb
 1494 0698 85       		.byte	0x85
 1495 0699 CB040000 		.4byte	0x4cb
 1496 069d 02       		.byte	0x2
 1497 069e 23       		.byte	0x23
 1498 069f 78       		.uleb128 0x78
 1499 06a0 0A       		.uleb128 0xa
 1500 06a1 74637000 		.ascii	"tcp\000"
 1501 06a5 0B       		.byte	0xb
 1502 06a6 88       		.byte	0x88
 1503 06a7 CB040000 		.4byte	0x4cb
 1504 06ab 03       		.byte	0x3
 1505 06ac 23       		.byte	0x23
 1506 06ad 9001     		.uleb128 0x90
 1507 06af 0A       		.uleb128 0xa
 1508 06b0 6D656D00 		.ascii	"mem\000"
 1509 06b4 0B       		.byte	0xb
 1510 06b5 8B       		.byte	0x8b
 1511 06b6 7F050000 		.4byte	0x57f
 1512 06ba 03       		.byte	0x3
 1513 06bb 23       		.byte	0x23
 1514 06bc A801     		.uleb128 0xa8
 1515 06be 09       		.uleb128 0x9
 1516 06bf F3030000 		.4byte	.LASF104
 1517 06c3 0B       		.byte	0xb
 1518 06c4 8E       		.byte	0x8e
 1519 06c5 DD060000 		.4byte	0x6dd
 1520 06c9 03       		.byte	0x3
 1521 06ca 23       		.byte	0x23
 1522 06cb B201     		.uleb128 0xb2
 1523 06cd 0A       		.uleb128 0xa
 1524 06ce 73797300 		.ascii	"sys\000"
 1525 06d2 0B       		.byte	0xb
 1526 06d3 91       		.byte	0x91
 1527 06d4 09060000 		.4byte	0x609
 1528 06d8 03       		.byte	0x3
 1529 06d9 23       		.byte	0x23
 1530 06da BE02     		.uleb128 0x13e
 1531 06dc 00       		.byte	0
 1532 06dd 0E       		.uleb128 0xe
 1533 06de 7F050000 		.4byte	0x57f
 1534 06e2 ED060000 		.4byte	0x6ed
 1535 06e6 0F       		.uleb128 0xf
ARM GAS  /tmp/ccpqBDes.s 			page 28


 1536 06e7 AF000000 		.4byte	0xaf
 1537 06eb 0D       		.byte	0xd
 1538 06ec 00       		.byte	0
 1539 06ed 12       		.uleb128 0x12
 1540 06ee 2B030000 		.4byte	.LASF128
 1541 06f2 01       		.byte	0x1
 1542 06f3 2301     		.2byte	0x123
 1543 06f5 01       		.byte	0x1
 1544 06f6 00000000 		.4byte	.LFB10
 1545 06fa A4000000 		.4byte	.LFE10
 1546 06fe 00000000 		.4byte	.LLST0
 1547 0702 01       		.byte	0x1
 1548 0703 EA070000 		.4byte	0x7ea
 1549 0707 13       		.uleb128 0x13
 1550 0708 7000     		.ascii	"p\000"
 1551 070a 01       		.byte	0x1
 1552 070b 2301     		.2byte	0x123
 1553 070d C6010000 		.4byte	0x1c6
 1554 0711 2C000000 		.4byte	.LLST1
 1555 0715 14       		.uleb128 0x14
 1556 0716 57040000 		.4byte	.LASF36
 1557 071a 01       		.byte	0x1
 1558 071b 2301     		.2byte	0x123
 1559 071d BD000000 		.4byte	0xbd
 1560 0721 58000000 		.4byte	.LLST2
 1561 0725 14       		.uleb128 0x14
 1562 0726 42020000 		.4byte	.LASF67
 1563 072a 01       		.byte	0x1
 1564 072b 2301     		.2byte	0x123
 1565 072d BD000000 		.4byte	0xbd
 1566 0731 79000000 		.4byte	.LLST3
 1567 0735 15       		.uleb128 0x15
 1568 0736 7100     		.ascii	"q\000"
 1569 0738 01       		.byte	0x1
 1570 0739 2501     		.2byte	0x125
 1571 073b C6010000 		.4byte	0x1c6
 1572 073f 9A000000 		.4byte	.LLST4
 1573 0743 16       		.uleb128 0x16
 1574 0744 19050000 		.4byte	.LASF105
 1575 0748 01       		.byte	0x1
 1576 0749 2601     		.2byte	0x126
 1577 074b EA070000 		.4byte	0x7ea
 1578 074f B8000000 		.4byte	.LLST5
 1579 0753 16       		.uleb128 0x16
 1580 0754 D1020000 		.4byte	.LASF106
 1581 0758 01       		.byte	0x1
 1582 0759 2801     		.2byte	0x128
 1583 075b F0070000 		.4byte	0x7f0
 1584 075f CB000000 		.4byte	.LLST6
 1585 0763 17       		.uleb128 0x17
 1586 0764 5D030000 		.4byte	.LASF107
 1587 0768 01       		.byte	0x1
 1588 0769 2901     		.2byte	0x129
 1589 076b 02020000 		.4byte	0x202
 1590 076f 02       		.byte	0x2
 1591 0770 91       		.byte	0x91
 1592 0771 5C       		.sleb128 -36
ARM GAS  /tmp/ccpqBDes.s 			page 29


 1593 0772 18       		.uleb128 0x18
 1594 0773 16000000 		.4byte	.LVL4
 1595 0777 480B0000 		.4byte	0xb48
 1596 077b 90070000 		.4byte	0x790
 1597 077f 19       		.uleb128 0x19
 1598 0780 01       		.byte	0x1
 1599 0781 52       		.byte	0x52
 1600 0782 01       		.byte	0x1
 1601 0783 30       		.byte	0x30
 1602 0784 19       		.uleb128 0x19
 1603 0785 01       		.byte	0x1
 1604 0786 51       		.byte	0x51
 1605 0787 02       		.byte	0x2
 1606 0788 08       		.byte	0x8
 1607 0789 24       		.byte	0x24
 1608 078a 19       		.uleb128 0x19
 1609 078b 01       		.byte	0x1
 1610 078c 50       		.byte	0x50
 1611 078d 01       		.byte	0x1
 1612 078e 31       		.byte	0x31
 1613 078f 00       		.byte	0
 1614 0790 1A       		.uleb128 0x1a
 1615 0791 26000000 		.4byte	.LVL5
 1616 0795 6A0B0000 		.4byte	0xb6a
 1617 0799 18       		.uleb128 0x18
 1618 079a 6C000000 		.4byte	.LVL8
 1619 079e 750B0000 		.4byte	0xb75
 1620 07a2 AD070000 		.4byte	0x7ad
 1621 07a6 19       		.uleb128 0x19
 1622 07a7 01       		.byte	0x1
 1623 07a8 50       		.byte	0x50
 1624 07a9 02       		.byte	0x2
 1625 07aa 74       		.byte	0x74
 1626 07ab 00       		.sleb128 0
 1627 07ac 00       		.byte	0
 1628 07ad 18       		.uleb128 0x18
 1629 07ae 94000000 		.4byte	.LVL9
 1630 07b2 920B0000 		.4byte	0xb92
 1631 07b6 D9070000 		.4byte	0x7d9
 1632 07ba 19       		.uleb128 0x19
 1633 07bb 01       		.byte	0x1
 1634 07bc 53       		.byte	0x53
 1635 07bd 02       		.byte	0x2
 1636 07be 09       		.byte	0x9
 1637 07bf FF       		.byte	0xff
 1638 07c0 19       		.uleb128 0x19
 1639 07c1 01       		.byte	0x1
 1640 07c2 52       		.byte	0x52
 1641 07c3 02       		.byte	0x2
 1642 07c4 91       		.byte	0x91
 1643 07c5 5C       		.sleb128 -36
 1644 07c6 19       		.uleb128 0x19
 1645 07c7 01       		.byte	0x1
 1646 07c8 51       		.byte	0x51
 1647 07c9 02       		.byte	0x2
 1648 07ca 75       		.byte	0x75
 1649 07cb 00       		.sleb128 0
ARM GAS  /tmp/ccpqBDes.s 			page 30


 1650 07cc 19       		.uleb128 0x19
 1651 07cd 01       		.byte	0x1
 1652 07ce 50       		.byte	0x50
 1653 07cf 02       		.byte	0x2
 1654 07d0 76       		.byte	0x76
 1655 07d1 00       		.sleb128 0
 1656 07d2 19       		.uleb128 0x19
 1657 07d3 02       		.byte	0x2
 1658 07d4 7D       		.byte	0x7d
 1659 07d5 04       		.sleb128 4
 1660 07d6 01       		.byte	0x1
 1661 07d7 31       		.byte	0x31
 1662 07d8 00       		.byte	0
 1663 07d9 1B       		.uleb128 0x1b
 1664 07da 9A000000 		.4byte	.LVL10
 1665 07de C30B0000 		.4byte	0xbc3
 1666 07e2 19       		.uleb128 0x19
 1667 07e3 01       		.byte	0x1
 1668 07e4 50       		.byte	0x50
 1669 07e5 02       		.byte	0x2
 1670 07e6 76       		.byte	0x76
 1671 07e7 00       		.sleb128 0
 1672 07e8 00       		.byte	0
 1673 07e9 00       		.byte	0
 1674 07ea 0B       		.uleb128 0xb
 1675 07eb 04       		.byte	0x4
 1676 07ec 27040000 		.4byte	0x427
 1677 07f0 0B       		.uleb128 0xb
 1678 07f1 04       		.byte	0x4
 1679 07f2 D5030000 		.4byte	0x3d5
 1680 07f6 1C       		.uleb128 0x1c
 1681 07f7 01       		.byte	0x1
 1682 07f8 A9000000 		.4byte	.LASF111
 1683 07fc 01       		.byte	0x1
 1684 07fd 4D       		.byte	0x4d
 1685 07fe 01       		.byte	0x1
 1686 07ff 00000000 		.4byte	.LFB7
 1687 0803 D0010000 		.4byte	.LFE7
 1688 0807 DE000000 		.4byte	.LLST7
 1689 080b 01       		.byte	0x1
 1690 080c 850A0000 		.4byte	0xa85
 1691 0810 1D       		.uleb128 0x1d
 1692 0811 7000     		.ascii	"p\000"
 1693 0813 01       		.byte	0x1
 1694 0814 4D       		.byte	0x4d
 1695 0815 C6010000 		.4byte	0x1c6
 1696 0819 0B010000 		.4byte	.LLST8
 1697 081d 1D       		.uleb128 0x1d
 1698 081e 696E7000 		.ascii	"inp\000"
 1699 0822 01       		.byte	0x1
 1700 0823 4D       		.byte	0x4d
 1701 0824 18020000 		.4byte	0x218
 1702 0828 40010000 		.4byte	.LLST9
 1703 082c 1E       		.uleb128 0x1e
 1704 082d 57040000 		.4byte	.LASF36
 1705 0831 01       		.byte	0x1
 1706 0832 4F       		.byte	0x4f
ARM GAS  /tmp/ccpqBDes.s 			page 31


 1707 0833 BD000000 		.4byte	0xbd
 1708 0837 5E010000 		.4byte	.LLST10
 1709 083b 1E       		.uleb128 0x1e
 1710 083c 58000000 		.4byte	.LASF108
 1711 0840 01       		.byte	0x1
 1712 0841 53       		.byte	0x53
 1713 0842 F0070000 		.4byte	0x7f0
 1714 0846 8C010000 		.4byte	.LLST11
 1715 084a 1F       		.uleb128 0x1f
 1716 084b 19050000 		.4byte	.LASF105
 1717 084f 01       		.byte	0x1
 1718 0850 54       		.byte	0x54
 1719 0851 EA070000 		.4byte	0x7ea
 1720 0855 01       		.byte	0x1
 1721 0856 56       		.byte	0x56
 1722 0857 1E       		.uleb128 0x1e
 1723 0858 89000000 		.4byte	.LASF109
 1724 085c 01       		.byte	0x1
 1725 085d 55       		.byte	0x55
 1726 085e DE000000 		.4byte	0xde
 1727 0862 B6010000 		.4byte	.LLST12
 1728 0866 20       		.uleb128 0x20
 1729 0867 F8030000 		.4byte	.LASF85
 1730 086b 01       		.byte	0x1
 1731 086c ED       		.byte	0xed
 1732 086d 6C000000 		.4byte	.LDL1
 1733 0871 20       		.uleb128 0x20
 1734 0872 74040000 		.4byte	.LASF86
 1735 0876 01       		.byte	0x1
 1736 0877 F3       		.byte	0xf3
 1737 0878 78010000 		.4byte	.L22
 1738 087c 21       		.uleb128 0x21
 1739 087d 00000000 		.4byte	.Ldebug_ranges0+0
 1740 0881 C0080000 		.4byte	0x8c0
 1741 0885 1E       		.uleb128 0x1e
 1742 0886 00000000 		.4byte	.LASF110
 1743 088a 01       		.byte	0x1
 1744 088b 6E       		.byte	0x6e
 1745 088c 29000000 		.4byte	0x29
 1746 0890 55020000 		.4byte	.LLST13
 1747 0894 18       		.uleb128 0x18
 1748 0895 92000000 		.4byte	.LVL25
 1749 0899 DB0B0000 		.4byte	0xbdb
 1750 089d AE080000 		.4byte	0x8ae
 1751 08a1 19       		.uleb128 0x19
 1752 08a2 01       		.byte	0x1
 1753 08a3 51       		.byte	0x51
 1754 08a4 02       		.byte	0x2
 1755 08a5 79       		.byte	0x79
 1756 08a6 00       		.sleb128 0
 1757 08a7 19       		.uleb128 0x19
 1758 08a8 01       		.byte	0x1
 1759 08a9 50       		.byte	0x50
 1760 08aa 02       		.byte	0x2
 1761 08ab 7A       		.byte	0x7a
 1762 08ac 00       		.sleb128 0
 1763 08ad 00       		.byte	0
ARM GAS  /tmp/ccpqBDes.s 			page 32


 1764 08ae 22       		.uleb128 0x22
 1765 08af AC000000 		.4byte	.LVL27
 1766 08b3 01       		.byte	0x1
 1767 08b4 C30B0000 		.4byte	0xbc3
 1768 08b8 19       		.uleb128 0x19
 1769 08b9 01       		.byte	0x1
 1770 08ba 50       		.byte	0x50
 1771 08bb 02       		.byte	0x2
 1772 08bc 75       		.byte	0x75
 1773 08bd 00       		.sleb128 0
 1774 08be 00       		.byte	0
 1775 08bf 00       		.byte	0
 1776 08c0 21       		.uleb128 0x21
 1777 08c1 20000000 		.4byte	.Ldebug_ranges0+0x20
 1778 08c5 57090000 		.4byte	0x957
 1779 08c9 23       		.uleb128 0x23
 1780 08ca 7200     		.ascii	"r\000"
 1781 08cc 01       		.byte	0x1
 1782 08cd 95       		.byte	0x95
 1783 08ce C6010000 		.4byte	0x1c6
 1784 08d2 95020000 		.4byte	.LLST14
 1785 08d6 18       		.uleb128 0x18
 1786 08d7 D2000000 		.4byte	.LVL30
 1787 08db 030C0000 		.4byte	0xc03
 1788 08df F0080000 		.4byte	0x8f0
 1789 08e3 19       		.uleb128 0x19
 1790 08e4 01       		.byte	0x1
 1791 08e5 51       		.byte	0x51
 1792 08e6 02       		.byte	0x2
 1793 08e7 7A       		.byte	0x7a
 1794 08e8 00       		.sleb128 0
 1795 08e9 19       		.uleb128 0x19
 1796 08ea 01       		.byte	0x1
 1797 08eb 50       		.byte	0x50
 1798 08ec 02       		.byte	0x2
 1799 08ed 75       		.byte	0x75
 1800 08ee 00       		.sleb128 0
 1801 08ef 00       		.byte	0
 1802 08f0 18       		.uleb128 0x18
 1803 08f1 E0000000 		.4byte	.LVL31
 1804 08f5 480B0000 		.4byte	0xb48
 1805 08f9 08090000 		.4byte	0x908
 1806 08fd 19       		.uleb128 0x19
 1807 08fe 01       		.byte	0x1
 1808 08ff 52       		.byte	0x52
 1809 0900 01       		.byte	0x1
 1810 0901 30       		.byte	0x30
 1811 0902 19       		.uleb128 0x19
 1812 0903 01       		.byte	0x1
 1813 0904 50       		.byte	0x50
 1814 0905 01       		.byte	0x1
 1815 0906 32       		.byte	0x32
 1816 0907 00       		.byte	0
 1817 0908 18       		.uleb128 0x18
 1818 0909 F8000000 		.4byte	.LVL34
 1819 090d 200C0000 		.4byte	0xc20
 1820 0911 1C090000 		.4byte	0x91c
ARM GAS  /tmp/ccpqBDes.s 			page 33


 1821 0915 19       		.uleb128 0x19
 1822 0916 01       		.byte	0x1
 1823 0917 51       		.byte	0x51
 1824 0918 02       		.byte	0x2
 1825 0919 75       		.byte	0x75
 1826 091a 00       		.sleb128 0
 1827 091b 00       		.byte	0
 1828 091c 18       		.uleb128 0x18
 1829 091d 08010000 		.4byte	.LVL36
 1830 0921 030C0000 		.4byte	0xc03
 1831 0925 30090000 		.4byte	0x930
 1832 0929 19       		.uleb128 0x19
 1833 092a 01       		.byte	0x1
 1834 092b 51       		.byte	0x51
 1835 092c 02       		.byte	0x2
 1836 092d 78       		.byte	0x78
 1837 092e 00       		.sleb128 0
 1838 092f 00       		.byte	0
 1839 0930 18       		.uleb128 0x18
 1840 0931 10010000 		.4byte	.LVL37
 1841 0935 C30B0000 		.4byte	0xbc3
 1842 0939 44090000 		.4byte	0x944
 1843 093d 19       		.uleb128 0x19
 1844 093e 01       		.byte	0x1
 1845 093f 50       		.byte	0x50
 1846 0940 02       		.byte	0x2
 1847 0941 75       		.byte	0x75
 1848 0942 00       		.sleb128 0
 1849 0943 00       		.byte	0
 1850 0944 1A       		.uleb128 0x1a
 1851 0945 78010000 		.4byte	.LVL47
 1852 0949 6A0B0000 		.4byte	0xb6a
 1853 094d 1A       		.uleb128 0x1a
 1854 094e C0010000 		.4byte	.LVL55
 1855 0952 6A0B0000 		.4byte	0xb6a
 1856 0956 00       		.byte	0
 1857 0957 24       		.uleb128 0x24
 1858 0958 9E010000 		.4byte	.LBB7
 1859 095c B4010000 		.4byte	.LBE7
 1860 0960 99090000 		.4byte	0x999
 1861 0964 25       		.uleb128 0x25
 1862 0965 72657400 		.ascii	"ret\000"
 1863 0969 01       		.byte	0x1
 1864 096a DC       		.byte	0xdc
 1865 096b F4000000 		.4byte	0xf4
 1866 096f 1B       		.uleb128 0x1b
 1867 0970 B2010000 		.4byte	.LVL52
 1868 0974 3D0C0000 		.4byte	0xc3d
 1869 0978 19       		.uleb128 0x19
 1870 0979 01       		.byte	0x1
 1871 097a 53       		.byte	0x53
 1872 097b 02       		.byte	0x2
 1873 097c 77       		.byte	0x77
 1874 097d 00       		.sleb128 0
 1875 097e 19       		.uleb128 0x19
 1876 097f 01       		.byte	0x1
 1877 0980 51       		.byte	0x51
ARM GAS  /tmp/ccpqBDes.s 			page 34


 1878 0981 02       		.byte	0x2
 1879 0982 7B       		.byte	0x7b
 1880 0983 00       		.sleb128 0
 1881 0984 19       		.uleb128 0x19
 1882 0985 01       		.byte	0x1
 1883 0986 50       		.byte	0x50
 1884 0987 02       		.byte	0x2
 1885 0988 75       		.byte	0x75
 1886 0989 00       		.sleb128 0
 1887 098a 19       		.uleb128 0x19
 1888 098b 02       		.byte	0x2
 1889 098c 7D       		.byte	0x7d
 1890 098d 08       		.sleb128 8
 1891 098e 02       		.byte	0x2
 1892 098f 79       		.byte	0x79
 1893 0990 00       		.sleb128 0
 1894 0991 19       		.uleb128 0x19
 1895 0992 02       		.byte	0x2
 1896 0993 7D       		.byte	0x7d
 1897 0994 04       		.sleb128 4
 1898 0995 01       		.byte	0x1
 1899 0996 31       		.byte	0x31
 1900 0997 00       		.byte	0
 1901 0998 00       		.byte	0
 1902 0999 18       		.uleb128 0x18
 1903 099a 2A000000 		.4byte	.LVL15
 1904 099e 030C0000 		.4byte	0xc03
 1905 09a2 B3090000 		.4byte	0x9b3
 1906 09a6 19       		.uleb128 0x19
 1907 09a7 01       		.byte	0x1
 1908 09a8 51       		.byte	0x51
 1909 09a9 02       		.byte	0x2
 1910 09aa 78       		.byte	0x78
 1911 09ab 00       		.sleb128 0
 1912 09ac 19       		.uleb128 0x19
 1913 09ad 01       		.byte	0x1
 1914 09ae 50       		.byte	0x50
 1915 09af 02       		.byte	0x2
 1916 09b0 75       		.byte	0x75
 1917 09b1 00       		.sleb128 0
 1918 09b2 00       		.byte	0
 1919 09b3 26       		.uleb128 0x26
 1920 09b4 5C000000 		.4byte	.LVL18
 1921 09b8 01       		.byte	0x1
 1922 09b9 C30B0000 		.4byte	0xbc3
 1923 09bd C8090000 		.4byte	0x9c8
 1924 09c1 19       		.uleb128 0x19
 1925 09c2 01       		.byte	0x1
 1926 09c3 50       		.byte	0x50
 1927 09c4 02       		.byte	0x2
 1928 09c5 75       		.byte	0x75
 1929 09c6 00       		.sleb128 0
 1930 09c7 00       		.byte	0
 1931 09c8 18       		.uleb128 0x18
 1932 09c9 72000000 		.4byte	.LVL20
 1933 09cd C30B0000 		.4byte	0xbc3
 1934 09d1 DC090000 		.4byte	0x9dc
ARM GAS  /tmp/ccpqBDes.s 			page 35


 1935 09d5 19       		.uleb128 0x19
 1936 09d6 01       		.byte	0x1
 1937 09d7 50       		.byte	0x50
 1938 09d8 02       		.byte	0x2
 1939 09d9 75       		.byte	0x75
 1940 09da 00       		.sleb128 0
 1941 09db 00       		.byte	0
 1942 09dc 18       		.uleb128 0x18
 1943 09dd B2000000 		.4byte	.LVL28
 1944 09e1 730C0000 		.4byte	0xc73
 1945 09e5 F0090000 		.4byte	0x9f0
 1946 09e9 19       		.uleb128 0x19
 1947 09ea 01       		.byte	0x1
 1948 09eb 50       		.byte	0x50
 1949 09ec 02       		.byte	0x2
 1950 09ed 75       		.byte	0x75
 1951 09ee 00       		.sleb128 0
 1952 09ef 00       		.byte	0
 1953 09f0 18       		.uleb128 0x18
 1954 09f1 C2000000 		.4byte	.LVL29
 1955 09f5 030C0000 		.4byte	0xc03
 1956 09f9 0A0A0000 		.4byte	0xa0a
 1957 09fd 19       		.uleb128 0x19
 1958 09fe 01       		.byte	0x1
 1959 09ff 51       		.byte	0x51
 1960 0a00 02       		.byte	0x2
 1961 0a01 08       		.byte	0x8
 1962 0a02 22       		.byte	0x22
 1963 0a03 19       		.uleb128 0x19
 1964 0a04 01       		.byte	0x1
 1965 0a05 50       		.byte	0x50
 1966 0a06 02       		.byte	0x2
 1967 0a07 75       		.byte	0x75
 1968 0a08 00       		.sleb128 0
 1969 0a09 00       		.byte	0
 1970 0a0a 18       		.uleb128 0x18
 1971 0a0b 44010000 		.4byte	.LVL41
 1972 0a0f 750B0000 		.4byte	0xb75
 1973 0a13 230A0000 		.4byte	0xa23
 1974 0a17 19       		.uleb128 0x19
 1975 0a18 01       		.byte	0x1
 1976 0a19 51       		.byte	0x51
 1977 0a1a 01       		.byte	0x1
 1978 0a1b 44       		.byte	0x44
 1979 0a1c 19       		.uleb128 0x19
 1980 0a1d 01       		.byte	0x1
 1981 0a1e 50       		.byte	0x50
 1982 0a1f 02       		.byte	0x2
 1983 0a20 76       		.byte	0x76
 1984 0a21 00       		.sleb128 0
 1985 0a22 00       		.byte	0
 1986 0a23 18       		.uleb128 0x18
 1987 0a24 58010000 		.4byte	.LVL42
 1988 0a28 030C0000 		.4byte	0xc03
 1989 0a2c 3D0A0000 		.4byte	0xa3d
 1990 0a30 19       		.uleb128 0x19
 1991 0a31 01       		.byte	0x1
ARM GAS  /tmp/ccpqBDes.s 			page 36


 1992 0a32 51       		.byte	0x51
 1993 0a33 02       		.byte	0x2
 1994 0a34 7A       		.byte	0x7a
 1995 0a35 00       		.sleb128 0
 1996 0a36 19       		.uleb128 0x19
 1997 0a37 01       		.byte	0x1
 1998 0a38 50       		.byte	0x50
 1999 0a39 02       		.byte	0x2
 2000 0a3a 75       		.byte	0x75
 2001 0a3b 00       		.sleb128 0
 2002 0a3c 00       		.byte	0
 2003 0a3d 1A       		.uleb128 0x1a
 2004 0a3e 60010000 		.4byte	.LVL43
 2005 0a42 6A0B0000 		.4byte	0xb6a
 2006 0a46 18       		.uleb128 0x18
 2007 0a47 68010000 		.4byte	.LVL45
 2008 0a4b C30B0000 		.4byte	0xbc3
 2009 0a4f 5A0A0000 		.4byte	0xa5a
 2010 0a53 19       		.uleb128 0x19
 2011 0a54 01       		.byte	0x1
 2012 0a55 50       		.byte	0x50
 2013 0a56 02       		.byte	0x2
 2014 0a57 75       		.byte	0x75
 2015 0a58 00       		.sleb128 0
 2016 0a59 00       		.byte	0
 2017 0a5a 18       		.uleb128 0x18
 2018 0a5b 7E010000 		.4byte	.LVL48
 2019 0a5f C30B0000 		.4byte	0xbc3
 2020 0a63 6E0A0000 		.4byte	0xa6e
 2021 0a67 19       		.uleb128 0x19
 2022 0a68 01       		.byte	0x1
 2023 0a69 50       		.byte	0x50
 2024 0a6a 02       		.byte	0x2
 2025 0a6b 75       		.byte	0x75
 2026 0a6c 00       		.sleb128 0
 2027 0a6d 00       		.byte	0
 2028 0a6e 1B       		.uleb128 0x1b
 2029 0a6f 94010000 		.4byte	.LVL50
 2030 0a73 030C0000 		.4byte	0xc03
 2031 0a77 19       		.uleb128 0x19
 2032 0a78 01       		.byte	0x1
 2033 0a79 51       		.byte	0x51
 2034 0a7a 02       		.byte	0x2
 2035 0a7b 09       		.byte	0x9
 2036 0a7c DE       		.byte	0xde
 2037 0a7d 19       		.uleb128 0x19
 2038 0a7e 01       		.byte	0x1
 2039 0a7f 50       		.byte	0x50
 2040 0a80 02       		.byte	0x2
 2041 0a81 75       		.byte	0x75
 2042 0a82 00       		.sleb128 0
 2043 0a83 00       		.byte	0
 2044 0a84 00       		.byte	0
 2045 0a85 27       		.uleb128 0x27
 2046 0a86 01       		.byte	0x1
 2047 0a87 53010000 		.4byte	.LASF112
 2048 0a8b 01       		.byte	0x1
ARM GAS  /tmp/ccpqBDes.s 			page 37


 2049 0a8c 0501     		.2byte	0x105
 2050 0a8e 01       		.byte	0x1
 2051 0a8f 00000000 		.4byte	.LFB8
 2052 0a93 08000000 		.4byte	.LFE8
 2053 0a97 02       		.byte	0x2
 2054 0a98 7D       		.byte	0x7d
 2055 0a99 00       		.sleb128 0
 2056 0a9a 01       		.byte	0x1
 2057 0a9b D30A0000 		.4byte	0xad3
 2058 0a9f 13       		.uleb128 0x13
 2059 0aa0 7000     		.ascii	"p\000"
 2060 0aa2 01       		.byte	0x1
 2061 0aa3 0501     		.2byte	0x105
 2062 0aa5 C6010000 		.4byte	0x1c6
 2063 0aa9 B3020000 		.4byte	.LLST15
 2064 0aad 13       		.uleb128 0x13
 2065 0aae 7400     		.ascii	"t\000"
 2066 0ab0 01       		.byte	0x1
 2067 0ab1 0501     		.2byte	0x105
 2068 0ab3 8B030000 		.4byte	0x38b
 2069 0ab7 D4020000 		.4byte	.LLST16
 2070 0abb 22       		.uleb128 0x22
 2071 0abc 08000000 		.4byte	.LVL58
 2072 0ac0 01       		.byte	0x1
 2073 0ac1 ED060000 		.4byte	0x6ed
 2074 0ac5 19       		.uleb128 0x19
 2075 0ac6 01       		.byte	0x1
 2076 0ac7 51       		.byte	0x51
 2077 0ac8 01       		.byte	0x1
 2078 0ac9 33       		.byte	0x33
 2079 0aca 19       		.uleb128 0x19
 2080 0acb 01       		.byte	0x1
 2081 0acc 50       		.byte	0x50
 2082 0acd 03       		.byte	0x3
 2083 0ace F3       		.byte	0xf3
 2084 0acf 01       		.uleb128 0x1
 2085 0ad0 50       		.byte	0x50
 2086 0ad1 00       		.byte	0
 2087 0ad2 00       		.byte	0
 2088 0ad3 27       		.uleb128 0x27
 2089 0ad4 01       		.byte	0x1
 2090 0ad5 40010000 		.4byte	.LASF113
 2091 0ad9 01       		.byte	0x1
 2092 0ada 1301     		.2byte	0x113
 2093 0adc 01       		.byte	0x1
 2094 0add 00000000 		.4byte	.LFB9
 2095 0ae1 08000000 		.4byte	.LFE9
 2096 0ae5 02       		.byte	0x2
 2097 0ae6 7D       		.byte	0x7d
 2098 0ae7 00       		.sleb128 0
 2099 0ae8 01       		.byte	0x1
 2100 0ae9 210B0000 		.4byte	0xb21
 2101 0aed 13       		.uleb128 0x13
 2102 0aee 7000     		.ascii	"p\000"
 2103 0af0 01       		.byte	0x1
 2104 0af1 1301     		.2byte	0x113
 2105 0af3 C6010000 		.4byte	0x1c6
ARM GAS  /tmp/ccpqBDes.s 			page 38


 2106 0af7 F5020000 		.4byte	.LLST17
 2107 0afb 13       		.uleb128 0x13
 2108 0afc 7400     		.ascii	"t\000"
 2109 0afe 01       		.byte	0x1
 2110 0aff 1301     		.2byte	0x113
 2111 0b01 BC030000 		.4byte	0x3bc
 2112 0b05 16030000 		.4byte	.LLST18
 2113 0b09 22       		.uleb128 0x22
 2114 0b0a 08000000 		.4byte	.LVL61
 2115 0b0e 01       		.byte	0x1
 2116 0b0f ED060000 		.4byte	0x6ed
 2117 0b13 19       		.uleb128 0x19
 2118 0b14 01       		.byte	0x1
 2119 0b15 51       		.byte	0x51
 2120 0b16 01       		.byte	0x1
 2121 0b17 3B       		.byte	0x3b
 2122 0b18 19       		.uleb128 0x19
 2123 0b19 01       		.byte	0x1
 2124 0b1a 50       		.byte	0x50
 2125 0b1b 03       		.byte	0x3
 2126 0b1c F3       		.byte	0xf3
 2127 0b1d 01       		.uleb128 0x1
 2128 0b1e 50       		.byte	0x50
 2129 0b1f 00       		.byte	0
 2130 0b20 00       		.byte	0
 2131 0b21 28       		.uleb128 0x28
 2132 0b22 65010000 		.4byte	.LASF114
 2133 0b26 09       		.byte	0x9
 2134 0b27 AA       		.byte	0xaa
 2135 0b28 02020000 		.4byte	0x202
 2136 0b2c 01       		.byte	0x1
 2137 0b2d 01       		.byte	0x1
 2138 0b2e 28       		.uleb128 0x28
 2139 0b2f 48050000 		.4byte	.LASF115
 2140 0b33 09       		.byte	0x9
 2141 0b34 AC       		.byte	0xac
 2142 0b35 02020000 		.4byte	0x202
 2143 0b39 01       		.byte	0x1
 2144 0b3a 01       		.byte	0x1
 2145 0b3b 28       		.uleb128 0x28
 2146 0b3c 9E000000 		.4byte	.LASF116
 2147 0b40 0B       		.byte	0xb
 2148 0b41 95       		.byte	0x95
 2149 0b42 40060000 		.4byte	0x640
 2150 0b46 01       		.byte	0x1
 2151 0b47 01       		.byte	0x1
 2152 0b48 29       		.uleb128 0x29
 2153 0b49 01       		.byte	0x1
 2154 0b4a C6020000 		.4byte	.LASF117
 2155 0b4e 05       		.byte	0x5
 2156 0b4f 92       		.byte	0x92
 2157 0b50 01       		.byte	0x1
 2158 0b51 C6010000 		.4byte	0x1c6
 2159 0b55 01       		.byte	0x1
 2160 0b56 6A0B0000 		.4byte	0xb6a
 2161 0b5a 0D       		.uleb128 0xd
 2162 0b5b 20010000 		.4byte	0x120
ARM GAS  /tmp/ccpqBDes.s 			page 39


 2163 0b5f 0D       		.uleb128 0xd
 2164 0b60 D3000000 		.4byte	0xd3
 2165 0b64 0D       		.uleb128 0xd
 2166 0b65 4C010000 		.4byte	0x14c
 2167 0b69 00       		.byte	0
 2168 0b6a 2A       		.uleb128 0x2a
 2169 0b6b 01       		.byte	0x1
 2170 0b6c 9B040000 		.4byte	.LASF129
 2171 0b70 0D       		.byte	0xd
 2172 0b71 FA01     		.2byte	0x1fa
 2173 0b73 01       		.byte	0x1
 2174 0b74 01       		.byte	0x1
 2175 0b75 29       		.uleb128 0x29
 2176 0b76 01       		.byte	0x1
 2177 0b77 48030000 		.4byte	.LASF118
 2178 0b7b 0C       		.byte	0xc
 2179 0b7c 49       		.byte	0x49
 2180 0b7d 01       		.byte	0x1
 2181 0b7e D3000000 		.4byte	0xd3
 2182 0b82 01       		.byte	0x1
 2183 0b83 920B0000 		.4byte	0xb92
 2184 0b87 0D       		.uleb128 0xd
 2185 0b88 AD000000 		.4byte	0xad
 2186 0b8c 0D       		.uleb128 0xd
 2187 0b8d D3000000 		.4byte	0xd3
 2188 0b91 00       		.byte	0
 2189 0b92 29       		.uleb128 0x29
 2190 0b93 01       		.byte	0x1
 2191 0b94 FE010000 		.4byte	.LASF119
 2192 0b98 09       		.byte	0x9
 2193 0b99 B1       		.byte	0xb1
 2194 0b9a 01       		.byte	0x1
 2195 0b9b F4000000 		.4byte	0xf4
 2196 0b9f 01       		.byte	0x1
 2197 0ba0 C30B0000 		.4byte	0xbc3
 2198 0ba4 0D       		.uleb128 0xd
 2199 0ba5 C6010000 		.4byte	0x1c6
 2200 0ba9 0D       		.uleb128 0xd
 2201 0baa 3F030000 		.4byte	0x33f
 2202 0bae 0D       		.uleb128 0xd
 2203 0baf 3F030000 		.4byte	0x33f
 2204 0bb3 0D       		.uleb128 0xd
 2205 0bb4 BD000000 		.4byte	0xbd
 2206 0bb8 0D       		.uleb128 0xd
 2207 0bb9 BD000000 		.4byte	0xbd
 2208 0bbd 0D       		.uleb128 0xd
 2209 0bbe BD000000 		.4byte	0xbd
 2210 0bc2 00       		.byte	0
 2211 0bc3 29       		.uleb128 0x29
 2212 0bc4 01       		.byte	0x1
 2213 0bc5 E6020000 		.4byte	.LASF120
 2214 0bc9 05       		.byte	0x5
 2215 0bca 9B       		.byte	0x9b
 2216 0bcb 01       		.byte	0x1
 2217 0bcc BD000000 		.4byte	0xbd
 2218 0bd0 01       		.byte	0x1
 2219 0bd1 DB0B0000 		.4byte	0xbdb
ARM GAS  /tmp/ccpqBDes.s 			page 40


 2220 0bd5 0D       		.uleb128 0xd
 2221 0bd6 C6010000 		.4byte	0x1c6
 2222 0bda 00       		.byte	0
 2223 0bdb 29       		.uleb128 0x29
 2224 0bdc 01       		.byte	0x1
 2225 0bdd 47020000 		.4byte	.LASF121
 2226 0be1 06       		.byte	0x6
 2227 0be2 CB       		.byte	0xcb
 2228 0be3 01       		.byte	0x1
 2229 0be4 BD000000 		.4byte	0xbd
 2230 0be8 01       		.byte	0x1
 2231 0be9 F80B0000 		.4byte	0xbf8
 2232 0bed 0D       		.uleb128 0xd
 2233 0bee E9000000 		.4byte	0xe9
 2234 0bf2 0D       		.uleb128 0xd
 2235 0bf3 F80B0000 		.4byte	0xbf8
 2236 0bf7 00       		.byte	0
 2237 0bf8 0B       		.uleb128 0xb
 2238 0bf9 04       		.byte	0x4
 2239 0bfa FE0B0000 		.4byte	0xbfe
 2240 0bfe 2B       		.uleb128 0x2b
 2241 0bff 1E020000 		.4byte	0x21e
 2242 0c03 29       		.uleb128 0x29
 2243 0c04 01       		.byte	0x1
 2244 0c05 5C020000 		.4byte	.LASF122
 2245 0c09 05       		.byte	0x5
 2246 0c0a 99       		.byte	0x99
 2247 0c0b 01       		.byte	0x1
 2248 0c0c BD000000 		.4byte	0xbd
 2249 0c10 01       		.byte	0x1
 2250 0c11 200C0000 		.4byte	0xc20
 2251 0c15 0D       		.uleb128 0xd
 2252 0c16 C6010000 		.4byte	0x1c6
 2253 0c1a 0D       		.uleb128 0xd
 2254 0c1b DE000000 		.4byte	0xde
 2255 0c1f 00       		.byte	0
 2256 0c20 29       		.uleb128 0x29
 2257 0c21 01       		.byte	0x1
 2258 0c22 A7010000 		.4byte	.LASF123
 2259 0c26 05       		.byte	0x5
 2260 0c27 A0       		.byte	0xa0
 2261 0c28 01       		.byte	0x1
 2262 0c29 F4000000 		.4byte	0xf4
 2263 0c2d 01       		.byte	0x1
 2264 0c2e 3D0C0000 		.4byte	0xc3d
 2265 0c32 0D       		.uleb128 0xd
 2266 0c33 C6010000 		.4byte	0x1c6
 2267 0c37 0D       		.uleb128 0xd
 2268 0c38 C6010000 		.4byte	0x1c6
 2269 0c3c 00       		.byte	0
 2270 0c3d 29       		.uleb128 0x29
 2271 0c3e 01       		.byte	0x1
 2272 0c3f AC030000 		.4byte	.LASF124
 2273 0c43 09       		.byte	0x9
 2274 0c44 B3       		.byte	0xb3
 2275 0c45 01       		.byte	0x1
 2276 0c46 F4000000 		.4byte	0xf4
ARM GAS  /tmp/ccpqBDes.s 			page 41


 2277 0c4a 01       		.byte	0x1
 2278 0c4b 730C0000 		.4byte	0xc73
 2279 0c4f 0D       		.uleb128 0xd
 2280 0c50 C6010000 		.4byte	0x1c6
 2281 0c54 0D       		.uleb128 0xd
 2282 0c55 3F030000 		.4byte	0x33f
 2283 0c59 0D       		.uleb128 0xd
 2284 0c5a 3F030000 		.4byte	0x33f
 2285 0c5e 0D       		.uleb128 0xd
 2286 0c5f BD000000 		.4byte	0xbd
 2287 0c63 0D       		.uleb128 0xd
 2288 0c64 BD000000 		.4byte	0xbd
 2289 0c68 0D       		.uleb128 0xd
 2290 0c69 BD000000 		.4byte	0xbd
 2291 0c6d 0D       		.uleb128 0xd
 2292 0c6e 18020000 		.4byte	0x218
 2293 0c72 00       		.byte	0
 2294 0c73 2C       		.uleb128 0x2c
 2295 0c74 01       		.byte	0x1
 2296 0c75 25040000 		.4byte	.LASF130
 2297 0c79 0C       		.byte	0xc
 2298 0c7a 4A       		.byte	0x4a
 2299 0c7b 01       		.byte	0x1
 2300 0c7c D3000000 		.4byte	0xd3
 2301 0c80 01       		.byte	0x1
 2302 0c81 0D       		.uleb128 0xd
 2303 0c82 C6010000 		.4byte	0x1c6
 2304 0c86 00       		.byte	0
 2305 0c87 00       		.byte	0
 2306              		.section	.debug_abbrev,"",%progbits
 2307              	.Ldebug_abbrev0:
 2308 0000 01       		.uleb128 0x1
 2309 0001 11       		.uleb128 0x11
 2310 0002 01       		.byte	0x1
 2311 0003 25       		.uleb128 0x25
 2312 0004 0E       		.uleb128 0xe
 2313 0005 13       		.uleb128 0x13
 2314 0006 0B       		.uleb128 0xb
 2315 0007 03       		.uleb128 0x3
 2316 0008 0E       		.uleb128 0xe
 2317 0009 1B       		.uleb128 0x1b
 2318 000a 0E       		.uleb128 0xe
 2319 000b 55       		.uleb128 0x55
 2320 000c 06       		.uleb128 0x6
 2321 000d 11       		.uleb128 0x11
 2322 000e 01       		.uleb128 0x1
 2323 000f 52       		.uleb128 0x52
 2324 0010 01       		.uleb128 0x1
 2325 0011 10       		.uleb128 0x10
 2326 0012 06       		.uleb128 0x6
 2327 0013 00       		.byte	0
 2328 0014 00       		.byte	0
 2329 0015 02       		.uleb128 0x2
 2330 0016 24       		.uleb128 0x24
 2331 0017 00       		.byte	0
 2332 0018 0B       		.uleb128 0xb
 2333 0019 0B       		.uleb128 0xb
ARM GAS  /tmp/ccpqBDes.s 			page 42


 2334 001a 3E       		.uleb128 0x3e
 2335 001b 0B       		.uleb128 0xb
 2336 001c 03       		.uleb128 0x3
 2337 001d 08       		.uleb128 0x8
 2338 001e 00       		.byte	0
 2339 001f 00       		.byte	0
 2340 0020 03       		.uleb128 0x3
 2341 0021 24       		.uleb128 0x24
 2342 0022 00       		.byte	0
 2343 0023 0B       		.uleb128 0xb
 2344 0024 0B       		.uleb128 0xb
 2345 0025 3E       		.uleb128 0x3e
 2346 0026 0B       		.uleb128 0xb
 2347 0027 03       		.uleb128 0x3
 2348 0028 0E       		.uleb128 0xe
 2349 0029 00       		.byte	0
 2350 002a 00       		.byte	0
 2351 002b 04       		.uleb128 0x4
 2352 002c 16       		.uleb128 0x16
 2353 002d 00       		.byte	0
 2354 002e 03       		.uleb128 0x3
 2355 002f 0E       		.uleb128 0xe
 2356 0030 3A       		.uleb128 0x3a
 2357 0031 0B       		.uleb128 0xb
 2358 0032 3B       		.uleb128 0x3b
 2359 0033 0B       		.uleb128 0xb
 2360 0034 49       		.uleb128 0x49
 2361 0035 13       		.uleb128 0x13
 2362 0036 00       		.byte	0
 2363 0037 00       		.byte	0
 2364 0038 05       		.uleb128 0x5
 2365 0039 0F       		.uleb128 0xf
 2366 003a 00       		.byte	0
 2367 003b 0B       		.uleb128 0xb
 2368 003c 0B       		.uleb128 0xb
 2369 003d 00       		.byte	0
 2370 003e 00       		.byte	0
 2371 003f 06       		.uleb128 0x6
 2372 0040 04       		.uleb128 0x4
 2373 0041 01       		.byte	0x1
 2374 0042 0B       		.uleb128 0xb
 2375 0043 0B       		.uleb128 0xb
 2376 0044 3A       		.uleb128 0x3a
 2377 0045 0B       		.uleb128 0xb
 2378 0046 3B       		.uleb128 0x3b
 2379 0047 0B       		.uleb128 0xb
 2380 0048 01       		.uleb128 0x1
 2381 0049 13       		.uleb128 0x13
 2382 004a 00       		.byte	0
 2383 004b 00       		.byte	0
 2384 004c 07       		.uleb128 0x7
 2385 004d 28       		.uleb128 0x28
 2386 004e 00       		.byte	0
 2387 004f 03       		.uleb128 0x3
 2388 0050 0E       		.uleb128 0xe
 2389 0051 1C       		.uleb128 0x1c
 2390 0052 0D       		.uleb128 0xd
ARM GAS  /tmp/ccpqBDes.s 			page 43


 2391 0053 00       		.byte	0
 2392 0054 00       		.byte	0
 2393 0055 08       		.uleb128 0x8
 2394 0056 13       		.uleb128 0x13
 2395 0057 01       		.byte	0x1
 2396 0058 03       		.uleb128 0x3
 2397 0059 0E       		.uleb128 0xe
 2398 005a 0B       		.uleb128 0xb
 2399 005b 0B       		.uleb128 0xb
 2400 005c 3A       		.uleb128 0x3a
 2401 005d 0B       		.uleb128 0xb
 2402 005e 3B       		.uleb128 0x3b
 2403 005f 0B       		.uleb128 0xb
 2404 0060 01       		.uleb128 0x1
 2405 0061 13       		.uleb128 0x13
 2406 0062 00       		.byte	0
 2407 0063 00       		.byte	0
 2408 0064 09       		.uleb128 0x9
 2409 0065 0D       		.uleb128 0xd
 2410 0066 00       		.byte	0
 2411 0067 03       		.uleb128 0x3
 2412 0068 0E       		.uleb128 0xe
 2413 0069 3A       		.uleb128 0x3a
 2414 006a 0B       		.uleb128 0xb
 2415 006b 3B       		.uleb128 0x3b
 2416 006c 0B       		.uleb128 0xb
 2417 006d 49       		.uleb128 0x49
 2418 006e 13       		.uleb128 0x13
 2419 006f 38       		.uleb128 0x38
 2420 0070 0A       		.uleb128 0xa
 2421 0071 00       		.byte	0
 2422 0072 00       		.byte	0
 2423 0073 0A       		.uleb128 0xa
 2424 0074 0D       		.uleb128 0xd
 2425 0075 00       		.byte	0
 2426 0076 03       		.uleb128 0x3
 2427 0077 08       		.uleb128 0x8
 2428 0078 3A       		.uleb128 0x3a
 2429 0079 0B       		.uleb128 0xb
 2430 007a 3B       		.uleb128 0x3b
 2431 007b 0B       		.uleb128 0xb
 2432 007c 49       		.uleb128 0x49
 2433 007d 13       		.uleb128 0x13
 2434 007e 38       		.uleb128 0x38
 2435 007f 0A       		.uleb128 0xa
 2436 0080 00       		.byte	0
 2437 0081 00       		.byte	0
 2438 0082 0B       		.uleb128 0xb
 2439 0083 0F       		.uleb128 0xf
 2440 0084 00       		.byte	0
 2441 0085 0B       		.uleb128 0xb
 2442 0086 0B       		.uleb128 0xb
 2443 0087 49       		.uleb128 0x49
 2444 0088 13       		.uleb128 0x13
 2445 0089 00       		.byte	0
 2446 008a 00       		.byte	0
 2447 008b 0C       		.uleb128 0xc
ARM GAS  /tmp/ccpqBDes.s 			page 44


 2448 008c 15       		.uleb128 0x15
 2449 008d 01       		.byte	0x1
 2450 008e 27       		.uleb128 0x27
 2451 008f 0C       		.uleb128 0xc
 2452 0090 49       		.uleb128 0x49
 2453 0091 13       		.uleb128 0x13
 2454 0092 01       		.uleb128 0x1
 2455 0093 13       		.uleb128 0x13
 2456 0094 00       		.byte	0
 2457 0095 00       		.byte	0
 2458 0096 0D       		.uleb128 0xd
 2459 0097 05       		.uleb128 0x5
 2460 0098 00       		.byte	0
 2461 0099 49       		.uleb128 0x49
 2462 009a 13       		.uleb128 0x13
 2463 009b 00       		.byte	0
 2464 009c 00       		.byte	0
 2465 009d 0E       		.uleb128 0xe
 2466 009e 01       		.uleb128 0x1
 2467 009f 01       		.byte	0x1
 2468 00a0 49       		.uleb128 0x49
 2469 00a1 13       		.uleb128 0x13
 2470 00a2 01       		.uleb128 0x1
 2471 00a3 13       		.uleb128 0x13
 2472 00a4 00       		.byte	0
 2473 00a5 00       		.byte	0
 2474 00a6 0F       		.uleb128 0xf
 2475 00a7 21       		.uleb128 0x21
 2476 00a8 00       		.byte	0
 2477 00a9 49       		.uleb128 0x49
 2478 00aa 13       		.uleb128 0x13
 2479 00ab 2F       		.uleb128 0x2f
 2480 00ac 0B       		.uleb128 0xb
 2481 00ad 00       		.byte	0
 2482 00ae 00       		.byte	0
 2483 00af 10       		.uleb128 0x10
 2484 00b0 04       		.uleb128 0x4
 2485 00b1 01       		.byte	0x1
 2486 00b2 03       		.uleb128 0x3
 2487 00b3 0E       		.uleb128 0xe
 2488 00b4 0B       		.uleb128 0xb
 2489 00b5 0B       		.uleb128 0xb
 2490 00b6 3A       		.uleb128 0x3a
 2491 00b7 0B       		.uleb128 0xb
 2492 00b8 3B       		.uleb128 0x3b
 2493 00b9 0B       		.uleb128 0xb
 2494 00ba 01       		.uleb128 0x1
 2495 00bb 13       		.uleb128 0x13
 2496 00bc 00       		.byte	0
 2497 00bd 00       		.byte	0
 2498 00be 11       		.uleb128 0x11
 2499 00bf 13       		.uleb128 0x13
 2500 00c0 01       		.byte	0x1
 2501 00c1 03       		.uleb128 0x3
 2502 00c2 0E       		.uleb128 0xe
 2503 00c3 0B       		.uleb128 0xb
 2504 00c4 05       		.uleb128 0x5
ARM GAS  /tmp/ccpqBDes.s 			page 45


 2505 00c5 3A       		.uleb128 0x3a
 2506 00c6 0B       		.uleb128 0xb
 2507 00c7 3B       		.uleb128 0x3b
 2508 00c8 0B       		.uleb128 0xb
 2509 00c9 01       		.uleb128 0x1
 2510 00ca 13       		.uleb128 0x13
 2511 00cb 00       		.byte	0
 2512 00cc 00       		.byte	0
 2513 00cd 12       		.uleb128 0x12
 2514 00ce 2E       		.uleb128 0x2e
 2515 00cf 01       		.byte	0x1
 2516 00d0 03       		.uleb128 0x3
 2517 00d1 0E       		.uleb128 0xe
 2518 00d2 3A       		.uleb128 0x3a
 2519 00d3 0B       		.uleb128 0xb
 2520 00d4 3B       		.uleb128 0x3b
 2521 00d5 05       		.uleb128 0x5
 2522 00d6 27       		.uleb128 0x27
 2523 00d7 0C       		.uleb128 0xc
 2524 00d8 11       		.uleb128 0x11
 2525 00d9 01       		.uleb128 0x1
 2526 00da 12       		.uleb128 0x12
 2527 00db 01       		.uleb128 0x1
 2528 00dc 40       		.uleb128 0x40
 2529 00dd 06       		.uleb128 0x6
 2530 00de 9742     		.uleb128 0x2117
 2531 00e0 0C       		.uleb128 0xc
 2532 00e1 01       		.uleb128 0x1
 2533 00e2 13       		.uleb128 0x13
 2534 00e3 00       		.byte	0
 2535 00e4 00       		.byte	0
 2536 00e5 13       		.uleb128 0x13
 2537 00e6 05       		.uleb128 0x5
 2538 00e7 00       		.byte	0
 2539 00e8 03       		.uleb128 0x3
 2540 00e9 08       		.uleb128 0x8
 2541 00ea 3A       		.uleb128 0x3a
 2542 00eb 0B       		.uleb128 0xb
 2543 00ec 3B       		.uleb128 0x3b
 2544 00ed 05       		.uleb128 0x5
 2545 00ee 49       		.uleb128 0x49
 2546 00ef 13       		.uleb128 0x13
 2547 00f0 02       		.uleb128 0x2
 2548 00f1 06       		.uleb128 0x6
 2549 00f2 00       		.byte	0
 2550 00f3 00       		.byte	0
 2551 00f4 14       		.uleb128 0x14
 2552 00f5 05       		.uleb128 0x5
 2553 00f6 00       		.byte	0
 2554 00f7 03       		.uleb128 0x3
 2555 00f8 0E       		.uleb128 0xe
 2556 00f9 3A       		.uleb128 0x3a
 2557 00fa 0B       		.uleb128 0xb
 2558 00fb 3B       		.uleb128 0x3b
 2559 00fc 05       		.uleb128 0x5
 2560 00fd 49       		.uleb128 0x49
 2561 00fe 13       		.uleb128 0x13
ARM GAS  /tmp/ccpqBDes.s 			page 46


 2562 00ff 02       		.uleb128 0x2
 2563 0100 06       		.uleb128 0x6
 2564 0101 00       		.byte	0
 2565 0102 00       		.byte	0
 2566 0103 15       		.uleb128 0x15
 2567 0104 34       		.uleb128 0x34
 2568 0105 00       		.byte	0
 2569 0106 03       		.uleb128 0x3
 2570 0107 08       		.uleb128 0x8
 2571 0108 3A       		.uleb128 0x3a
 2572 0109 0B       		.uleb128 0xb
 2573 010a 3B       		.uleb128 0x3b
 2574 010b 05       		.uleb128 0x5
 2575 010c 49       		.uleb128 0x49
 2576 010d 13       		.uleb128 0x13
 2577 010e 02       		.uleb128 0x2
 2578 010f 06       		.uleb128 0x6
 2579 0110 00       		.byte	0
 2580 0111 00       		.byte	0
 2581 0112 16       		.uleb128 0x16
 2582 0113 34       		.uleb128 0x34
 2583 0114 00       		.byte	0
 2584 0115 03       		.uleb128 0x3
 2585 0116 0E       		.uleb128 0xe
 2586 0117 3A       		.uleb128 0x3a
 2587 0118 0B       		.uleb128 0xb
 2588 0119 3B       		.uleb128 0x3b
 2589 011a 05       		.uleb128 0x5
 2590 011b 49       		.uleb128 0x49
 2591 011c 13       		.uleb128 0x13
 2592 011d 02       		.uleb128 0x2
 2593 011e 06       		.uleb128 0x6
 2594 011f 00       		.byte	0
 2595 0120 00       		.byte	0
 2596 0121 17       		.uleb128 0x17
 2597 0122 34       		.uleb128 0x34
 2598 0123 00       		.byte	0
 2599 0124 03       		.uleb128 0x3
 2600 0125 0E       		.uleb128 0xe
 2601 0126 3A       		.uleb128 0x3a
 2602 0127 0B       		.uleb128 0xb
 2603 0128 3B       		.uleb128 0x3b
 2604 0129 05       		.uleb128 0x5
 2605 012a 49       		.uleb128 0x49
 2606 012b 13       		.uleb128 0x13
 2607 012c 02       		.uleb128 0x2
 2608 012d 0A       		.uleb128 0xa
 2609 012e 00       		.byte	0
 2610 012f 00       		.byte	0
 2611 0130 18       		.uleb128 0x18
 2612 0131 898201   		.uleb128 0x4109
 2613 0134 01       		.byte	0x1
 2614 0135 11       		.uleb128 0x11
 2615 0136 01       		.uleb128 0x1
 2616 0137 31       		.uleb128 0x31
 2617 0138 13       		.uleb128 0x13
 2618 0139 01       		.uleb128 0x1
ARM GAS  /tmp/ccpqBDes.s 			page 47


 2619 013a 13       		.uleb128 0x13
 2620 013b 00       		.byte	0
 2621 013c 00       		.byte	0
 2622 013d 19       		.uleb128 0x19
 2623 013e 8A8201   		.uleb128 0x410a
 2624 0141 00       		.byte	0
 2625 0142 02       		.uleb128 0x2
 2626 0143 0A       		.uleb128 0xa
 2627 0144 9142     		.uleb128 0x2111
 2628 0146 0A       		.uleb128 0xa
 2629 0147 00       		.byte	0
 2630 0148 00       		.byte	0
 2631 0149 1A       		.uleb128 0x1a
 2632 014a 898201   		.uleb128 0x4109
 2633 014d 00       		.byte	0
 2634 014e 11       		.uleb128 0x11
 2635 014f 01       		.uleb128 0x1
 2636 0150 31       		.uleb128 0x31
 2637 0151 13       		.uleb128 0x13
 2638 0152 00       		.byte	0
 2639 0153 00       		.byte	0
 2640 0154 1B       		.uleb128 0x1b
 2641 0155 898201   		.uleb128 0x4109
 2642 0158 01       		.byte	0x1
 2643 0159 11       		.uleb128 0x11
 2644 015a 01       		.uleb128 0x1
 2645 015b 31       		.uleb128 0x31
 2646 015c 13       		.uleb128 0x13
 2647 015d 00       		.byte	0
 2648 015e 00       		.byte	0
 2649 015f 1C       		.uleb128 0x1c
 2650 0160 2E       		.uleb128 0x2e
 2651 0161 01       		.byte	0x1
 2652 0162 3F       		.uleb128 0x3f
 2653 0163 0C       		.uleb128 0xc
 2654 0164 03       		.uleb128 0x3
 2655 0165 0E       		.uleb128 0xe
 2656 0166 3A       		.uleb128 0x3a
 2657 0167 0B       		.uleb128 0xb
 2658 0168 3B       		.uleb128 0x3b
 2659 0169 0B       		.uleb128 0xb
 2660 016a 27       		.uleb128 0x27
 2661 016b 0C       		.uleb128 0xc
 2662 016c 11       		.uleb128 0x11
 2663 016d 01       		.uleb128 0x1
 2664 016e 12       		.uleb128 0x12
 2665 016f 01       		.uleb128 0x1
 2666 0170 40       		.uleb128 0x40
 2667 0171 06       		.uleb128 0x6
 2668 0172 9742     		.uleb128 0x2117
 2669 0174 0C       		.uleb128 0xc
 2670 0175 01       		.uleb128 0x1
 2671 0176 13       		.uleb128 0x13
 2672 0177 00       		.byte	0
 2673 0178 00       		.byte	0
 2674 0179 1D       		.uleb128 0x1d
 2675 017a 05       		.uleb128 0x5
ARM GAS  /tmp/ccpqBDes.s 			page 48


 2676 017b 00       		.byte	0
 2677 017c 03       		.uleb128 0x3
 2678 017d 08       		.uleb128 0x8
 2679 017e 3A       		.uleb128 0x3a
 2680 017f 0B       		.uleb128 0xb
 2681 0180 3B       		.uleb128 0x3b
 2682 0181 0B       		.uleb128 0xb
 2683 0182 49       		.uleb128 0x49
 2684 0183 13       		.uleb128 0x13
 2685 0184 02       		.uleb128 0x2
 2686 0185 06       		.uleb128 0x6
 2687 0186 00       		.byte	0
 2688 0187 00       		.byte	0
 2689 0188 1E       		.uleb128 0x1e
 2690 0189 34       		.uleb128 0x34
 2691 018a 00       		.byte	0
 2692 018b 03       		.uleb128 0x3
 2693 018c 0E       		.uleb128 0xe
 2694 018d 3A       		.uleb128 0x3a
 2695 018e 0B       		.uleb128 0xb
 2696 018f 3B       		.uleb128 0x3b
 2697 0190 0B       		.uleb128 0xb
 2698 0191 49       		.uleb128 0x49
 2699 0192 13       		.uleb128 0x13
 2700 0193 02       		.uleb128 0x2
 2701 0194 06       		.uleb128 0x6
 2702 0195 00       		.byte	0
 2703 0196 00       		.byte	0
 2704 0197 1F       		.uleb128 0x1f
 2705 0198 34       		.uleb128 0x34
 2706 0199 00       		.byte	0
 2707 019a 03       		.uleb128 0x3
 2708 019b 0E       		.uleb128 0xe
 2709 019c 3A       		.uleb128 0x3a
 2710 019d 0B       		.uleb128 0xb
 2711 019e 3B       		.uleb128 0x3b
 2712 019f 0B       		.uleb128 0xb
 2713 01a0 49       		.uleb128 0x49
 2714 01a1 13       		.uleb128 0x13
 2715 01a2 02       		.uleb128 0x2
 2716 01a3 0A       		.uleb128 0xa
 2717 01a4 00       		.byte	0
 2718 01a5 00       		.byte	0
 2719 01a6 20       		.uleb128 0x20
 2720 01a7 0A       		.uleb128 0xa
 2721 01a8 00       		.byte	0
 2722 01a9 03       		.uleb128 0x3
 2723 01aa 0E       		.uleb128 0xe
 2724 01ab 3A       		.uleb128 0x3a
 2725 01ac 0B       		.uleb128 0xb
 2726 01ad 3B       		.uleb128 0x3b
 2727 01ae 0B       		.uleb128 0xb
 2728 01af 11       		.uleb128 0x11
 2729 01b0 01       		.uleb128 0x1
 2730 01b1 00       		.byte	0
 2731 01b2 00       		.byte	0
 2732 01b3 21       		.uleb128 0x21
ARM GAS  /tmp/ccpqBDes.s 			page 49


 2733 01b4 0B       		.uleb128 0xb
 2734 01b5 01       		.byte	0x1
 2735 01b6 55       		.uleb128 0x55
 2736 01b7 06       		.uleb128 0x6
 2737 01b8 01       		.uleb128 0x1
 2738 01b9 13       		.uleb128 0x13
 2739 01ba 00       		.byte	0
 2740 01bb 00       		.byte	0
 2741 01bc 22       		.uleb128 0x22
 2742 01bd 898201   		.uleb128 0x4109
 2743 01c0 01       		.byte	0x1
 2744 01c1 11       		.uleb128 0x11
 2745 01c2 01       		.uleb128 0x1
 2746 01c3 9542     		.uleb128 0x2115
 2747 01c5 0C       		.uleb128 0xc
 2748 01c6 31       		.uleb128 0x31
 2749 01c7 13       		.uleb128 0x13
 2750 01c8 00       		.byte	0
 2751 01c9 00       		.byte	0
 2752 01ca 23       		.uleb128 0x23
 2753 01cb 34       		.uleb128 0x34
 2754 01cc 00       		.byte	0
 2755 01cd 03       		.uleb128 0x3
 2756 01ce 08       		.uleb128 0x8
 2757 01cf 3A       		.uleb128 0x3a
 2758 01d0 0B       		.uleb128 0xb
 2759 01d1 3B       		.uleb128 0x3b
 2760 01d2 0B       		.uleb128 0xb
 2761 01d3 49       		.uleb128 0x49
 2762 01d4 13       		.uleb128 0x13
 2763 01d5 02       		.uleb128 0x2
 2764 01d6 06       		.uleb128 0x6
 2765 01d7 00       		.byte	0
 2766 01d8 00       		.byte	0
 2767 01d9 24       		.uleb128 0x24
 2768 01da 0B       		.uleb128 0xb
 2769 01db 01       		.byte	0x1
 2770 01dc 11       		.uleb128 0x11
 2771 01dd 01       		.uleb128 0x1
 2772 01de 12       		.uleb128 0x12
 2773 01df 01       		.uleb128 0x1
 2774 01e0 01       		.uleb128 0x1
 2775 01e1 13       		.uleb128 0x13
 2776 01e2 00       		.byte	0
 2777 01e3 00       		.byte	0
 2778 01e4 25       		.uleb128 0x25
 2779 01e5 34       		.uleb128 0x34
 2780 01e6 00       		.byte	0
 2781 01e7 03       		.uleb128 0x3
 2782 01e8 08       		.uleb128 0x8
 2783 01e9 3A       		.uleb128 0x3a
 2784 01ea 0B       		.uleb128 0xb
 2785 01eb 3B       		.uleb128 0x3b
 2786 01ec 0B       		.uleb128 0xb
 2787 01ed 49       		.uleb128 0x49
 2788 01ee 13       		.uleb128 0x13
 2789 01ef 00       		.byte	0
ARM GAS  /tmp/ccpqBDes.s 			page 50


 2790 01f0 00       		.byte	0
 2791 01f1 26       		.uleb128 0x26
 2792 01f2 898201   		.uleb128 0x4109
 2793 01f5 01       		.byte	0x1
 2794 01f6 11       		.uleb128 0x11
 2795 01f7 01       		.uleb128 0x1
 2796 01f8 9542     		.uleb128 0x2115
 2797 01fa 0C       		.uleb128 0xc
 2798 01fb 31       		.uleb128 0x31
 2799 01fc 13       		.uleb128 0x13
 2800 01fd 01       		.uleb128 0x1
 2801 01fe 13       		.uleb128 0x13
 2802 01ff 00       		.byte	0
 2803 0200 00       		.byte	0
 2804 0201 27       		.uleb128 0x27
 2805 0202 2E       		.uleb128 0x2e
 2806 0203 01       		.byte	0x1
 2807 0204 3F       		.uleb128 0x3f
 2808 0205 0C       		.uleb128 0xc
 2809 0206 03       		.uleb128 0x3
 2810 0207 0E       		.uleb128 0xe
 2811 0208 3A       		.uleb128 0x3a
 2812 0209 0B       		.uleb128 0xb
 2813 020a 3B       		.uleb128 0x3b
 2814 020b 05       		.uleb128 0x5
 2815 020c 27       		.uleb128 0x27
 2816 020d 0C       		.uleb128 0xc
 2817 020e 11       		.uleb128 0x11
 2818 020f 01       		.uleb128 0x1
 2819 0210 12       		.uleb128 0x12
 2820 0211 01       		.uleb128 0x1
 2821 0212 40       		.uleb128 0x40
 2822 0213 0A       		.uleb128 0xa
 2823 0214 9742     		.uleb128 0x2117
 2824 0216 0C       		.uleb128 0xc
 2825 0217 01       		.uleb128 0x1
 2826 0218 13       		.uleb128 0x13
 2827 0219 00       		.byte	0
 2828 021a 00       		.byte	0
 2829 021b 28       		.uleb128 0x28
 2830 021c 34       		.uleb128 0x34
 2831 021d 00       		.byte	0
 2832 021e 03       		.uleb128 0x3
 2833 021f 0E       		.uleb128 0xe
 2834 0220 3A       		.uleb128 0x3a
 2835 0221 0B       		.uleb128 0xb
 2836 0222 3B       		.uleb128 0x3b
 2837 0223 0B       		.uleb128 0xb
 2838 0224 49       		.uleb128 0x49
 2839 0225 13       		.uleb128 0x13
 2840 0226 3F       		.uleb128 0x3f
 2841 0227 0C       		.uleb128 0xc
 2842 0228 3C       		.uleb128 0x3c
 2843 0229 0C       		.uleb128 0xc
 2844 022a 00       		.byte	0
 2845 022b 00       		.byte	0
 2846 022c 29       		.uleb128 0x29
ARM GAS  /tmp/ccpqBDes.s 			page 51


 2847 022d 2E       		.uleb128 0x2e
 2848 022e 01       		.byte	0x1
 2849 022f 3F       		.uleb128 0x3f
 2850 0230 0C       		.uleb128 0xc
 2851 0231 03       		.uleb128 0x3
 2852 0232 0E       		.uleb128 0xe
 2853 0233 3A       		.uleb128 0x3a
 2854 0234 0B       		.uleb128 0xb
 2855 0235 3B       		.uleb128 0x3b
 2856 0236 0B       		.uleb128 0xb
 2857 0237 27       		.uleb128 0x27
 2858 0238 0C       		.uleb128 0xc
 2859 0239 49       		.uleb128 0x49
 2860 023a 13       		.uleb128 0x13
 2861 023b 3C       		.uleb128 0x3c
 2862 023c 0C       		.uleb128 0xc
 2863 023d 01       		.uleb128 0x1
 2864 023e 13       		.uleb128 0x13
 2865 023f 00       		.byte	0
 2866 0240 00       		.byte	0
 2867 0241 2A       		.uleb128 0x2a
 2868 0242 2E       		.uleb128 0x2e
 2869 0243 00       		.byte	0
 2870 0244 3F       		.uleb128 0x3f
 2871 0245 0C       		.uleb128 0xc
 2872 0246 03       		.uleb128 0x3
 2873 0247 0E       		.uleb128 0xe
 2874 0248 3A       		.uleb128 0x3a
 2875 0249 0B       		.uleb128 0xb
 2876 024a 3B       		.uleb128 0x3b
 2877 024b 05       		.uleb128 0x5
 2878 024c 27       		.uleb128 0x27
 2879 024d 0C       		.uleb128 0xc
 2880 024e 3C       		.uleb128 0x3c
 2881 024f 0C       		.uleb128 0xc
 2882 0250 00       		.byte	0
 2883 0251 00       		.byte	0
 2884 0252 2B       		.uleb128 0x2b
 2885 0253 26       		.uleb128 0x26
 2886 0254 00       		.byte	0
 2887 0255 49       		.uleb128 0x49
 2888 0256 13       		.uleb128 0x13
 2889 0257 00       		.byte	0
 2890 0258 00       		.byte	0
 2891 0259 2C       		.uleb128 0x2c
 2892 025a 2E       		.uleb128 0x2e
 2893 025b 01       		.byte	0x1
 2894 025c 3F       		.uleb128 0x3f
 2895 025d 0C       		.uleb128 0xc
 2896 025e 03       		.uleb128 0x3
 2897 025f 0E       		.uleb128 0xe
 2898 0260 3A       		.uleb128 0x3a
 2899 0261 0B       		.uleb128 0xb
 2900 0262 3B       		.uleb128 0x3b
 2901 0263 0B       		.uleb128 0xb
 2902 0264 27       		.uleb128 0x27
 2903 0265 0C       		.uleb128 0xc
ARM GAS  /tmp/ccpqBDes.s 			page 52


 2904 0266 49       		.uleb128 0x49
 2905 0267 13       		.uleb128 0x13
 2906 0268 3C       		.uleb128 0x3c
 2907 0269 0C       		.uleb128 0xc
 2908 026a 00       		.byte	0
 2909 026b 00       		.byte	0
 2910 026c 00       		.byte	0
 2911              		.section	.debug_loc,"",%progbits
 2912              	.Ldebug_loc0:
 2913              	.LLST0:
 2914 0000 00000000 		.4byte	.LFB10
 2915 0004 04000000 		.4byte	.LCFI0
 2916 0008 0200     		.2byte	0x2
 2917 000a 7D       		.byte	0x7d
 2918 000b 00       		.sleb128 0
 2919 000c 04000000 		.4byte	.LCFI0
 2920 0010 08000000 		.4byte	.LCFI1
 2921 0014 0200     		.2byte	0x2
 2922 0016 7D       		.byte	0x7d
 2923 0017 1C       		.sleb128 28
 2924 0018 08000000 		.4byte	.LCFI1
 2925 001c A4000000 		.4byte	.LFE10
 2926 0020 0200     		.2byte	0x2
 2927 0022 7D       		.byte	0x7d
 2928 0023 30       		.sleb128 48
 2929 0024 00000000 		.4byte	0
 2930 0028 00000000 		.4byte	0
 2931              	.LLST1:
 2932 002c 00000000 		.4byte	.LVL0
 2933 0030 0E000000 		.4byte	.LVL1
 2934 0034 0100     		.2byte	0x1
 2935 0036 50       		.byte	0x50
 2936 0037 0E000000 		.4byte	.LVL1
 2937 003b 48000000 		.4byte	.LVL7
 2938 003f 0100     		.2byte	0x1
 2939 0041 57       		.byte	0x57
 2940 0042 48000000 		.4byte	.LVL7
 2941 0046 A4000000 		.4byte	.LFE10
 2942 004a 0400     		.2byte	0x4
 2943 004c F3       		.byte	0xf3
 2944 004d 01       		.uleb128 0x1
 2945 004e 50       		.byte	0x50
 2946 004f 9F       		.byte	0x9f
 2947 0050 00000000 		.4byte	0
 2948 0054 00000000 		.4byte	0
 2949              	.LLST2:
 2950 0058 00000000 		.4byte	.LVL0
 2951 005c 10000000 		.4byte	.LVL2
 2952 0060 0100     		.2byte	0x1
 2953 0062 51       		.byte	0x51
 2954 0063 10000000 		.4byte	.LVL2
 2955 0067 A4000000 		.4byte	.LFE10
 2956 006b 0400     		.2byte	0x4
 2957 006d F3       		.byte	0xf3
 2958 006e 01       		.uleb128 0x1
 2959 006f 51       		.byte	0x51
 2960 0070 9F       		.byte	0x9f
ARM GAS  /tmp/ccpqBDes.s 			page 53


 2961 0071 00000000 		.4byte	0
 2962 0075 00000000 		.4byte	0
 2963              	.LLST3:
 2964 0079 00000000 		.4byte	.LVL0
 2965 007d 12000000 		.4byte	.LVL3
 2966 0081 0100     		.2byte	0x1
 2967 0083 52       		.byte	0x52
 2968 0084 12000000 		.4byte	.LVL3
 2969 0088 A4000000 		.4byte	.LFE10
 2970 008c 0400     		.2byte	0x4
 2971 008e F3       		.byte	0xf3
 2972 008f 01       		.uleb128 0x1
 2973 0090 52       		.byte	0x52
 2974 0091 9F       		.byte	0x9f
 2975 0092 00000000 		.4byte	0
 2976 0096 00000000 		.4byte	0
 2977              	.LLST4:
 2978 009a 16000000 		.4byte	.LVL4
 2979 009e 25000000 		.4byte	.LVL5-1
 2980 00a2 0100     		.2byte	0x1
 2981 00a4 50       		.byte	0x50
 2982 00a5 25000000 		.4byte	.LVL5-1
 2983 00a9 A4000000 		.4byte	.LFE10
 2984 00ad 0100     		.2byte	0x1
 2985 00af 56       		.byte	0x56
 2986 00b0 00000000 		.4byte	0
 2987 00b4 00000000 		.4byte	0
 2988              	.LLST5:
 2989 00b8 2C000000 		.4byte	.LVL6
 2990 00bc 9A000000 		.4byte	.LVL10
 2991 00c0 0100     		.2byte	0x1
 2992 00c2 59       		.byte	0x59
 2993 00c3 00000000 		.4byte	0
 2994 00c7 00000000 		.4byte	0
 2995              	.LLST6:
 2996 00cb 2C000000 		.4byte	.LVL6
 2997 00cf 9A000000 		.4byte	.LVL10
 2998 00d3 0100     		.2byte	0x1
 2999 00d5 54       		.byte	0x54
 3000 00d6 00000000 		.4byte	0
 3001 00da 00000000 		.4byte	0
 3002              	.LLST7:
 3003 00de 00000000 		.4byte	.LFB7
 3004 00e2 04000000 		.4byte	.LCFI2
 3005 00e6 0200     		.2byte	0x2
 3006 00e8 7D       		.byte	0x7d
 3007 00e9 00       		.sleb128 0
 3008 00ea 04000000 		.4byte	.LCFI2
 3009 00ee 20000000 		.4byte	.LCFI3
 3010 00f2 0200     		.2byte	0x2
 3011 00f4 7D       		.byte	0x7d
 3012 00f5 24       		.sleb128 36
 3013 00f6 20000000 		.4byte	.LCFI3
 3014 00fa D0010000 		.4byte	.LFE7
 3015 00fe 0300     		.2byte	0x3
 3016 0100 7D       		.byte	0x7d
 3017 0101 C000     		.sleb128 64
ARM GAS  /tmp/ccpqBDes.s 			page 54


 3018 0103 00000000 		.4byte	0
 3019 0107 00000000 		.4byte	0
 3020              	.LLST8:
 3021 010b 00000000 		.4byte	.LVL11
 3022 010f 29000000 		.4byte	.LVL15-1
 3023 0113 0100     		.2byte	0x1
 3024 0115 50       		.byte	0x50
 3025 0116 29000000 		.4byte	.LVL15-1
 3026 011a 10010000 		.4byte	.LVL37
 3027 011e 0100     		.2byte	0x1
 3028 0120 55       		.byte	0x55
 3029 0121 10010000 		.4byte	.LVL37
 3030 0125 12010000 		.4byte	.LVL38
 3031 0129 0200     		.2byte	0x2
 3032 012b 91       		.byte	0x91
 3033 012c 54       		.sleb128 -44
 3034 012d 12010000 		.4byte	.LVL38
 3035 0131 D0010000 		.4byte	.LFE7
 3036 0135 0100     		.2byte	0x1
 3037 0137 55       		.byte	0x55
 3038 0138 00000000 		.4byte	0
 3039 013c 00000000 		.4byte	0
 3040              	.LLST9:
 3041 0140 00000000 		.4byte	.LVL11
 3042 0144 24000000 		.4byte	.LVL14
 3043 0148 0100     		.2byte	0x1
 3044 014a 51       		.byte	0x51
 3045 014b 24000000 		.4byte	.LVL14
 3046 014f D0010000 		.4byte	.LFE7
 3047 0153 0100     		.2byte	0x1
 3048 0155 59       		.byte	0x59
 3049 0156 00000000 		.4byte	0
 3050 015a 00000000 		.4byte	0
 3051              	.LLST10:
 3052 015e 32000000 		.4byte	.LVL16
 3053 0162 50000000 		.4byte	.LVL17
 3054 0166 0300     		.2byte	0x3
 3055 0168 75       		.byte	0x75
 3056 0169 04       		.sleb128 4
 3057 016a 06       		.byte	0x6
 3058 016b 82000000 		.4byte	.LVL22
 3059 016f 8C000000 		.4byte	.LVL24
 3060 0173 0200     		.2byte	0x2
 3061 0175 71       		.byte	0x71
 3062 0176 00       		.sleb128 0
 3063 0177 8C000000 		.4byte	.LVL24
 3064 017b 91000000 		.4byte	.LVL25-1
 3065 017f 0300     		.2byte	0x3
 3066 0181 75       		.byte	0x75
 3067 0182 04       		.sleb128 4
 3068 0183 06       		.byte	0x6
 3069 0184 00000000 		.4byte	0
 3070 0188 00000000 		.4byte	0
 3071              	.LLST11:
 3072 018c 1A010000 		.4byte	.LVL39
 3073 0190 34010000 		.4byte	.LVL40
 3074 0194 0100     		.2byte	0x1
ARM GAS  /tmp/ccpqBDes.s 			page 55


 3075 0196 50       		.byte	0x50
 3076 0197 34010000 		.4byte	.LVL40
 3077 019b 43010000 		.4byte	.LVL41-1
 3078 019f 0200     		.2byte	0x2
 3079 01a1 75       		.byte	0x75
 3080 01a2 04       		.sleb128 4
 3081 01a3 B4010000 		.4byte	.LVL53
 3082 01a7 BA010000 		.4byte	.LVL54
 3083 01ab 0100     		.2byte	0x1
 3084 01ad 50       		.byte	0x50
 3085 01ae 00000000 		.4byte	0
 3086 01b2 00000000 		.4byte	0
 3087              	.LLST12:
 3088 01b6 1A000000 		.4byte	.LVL13
 3089 01ba 50000000 		.4byte	.LVL17
 3090 01be 0100     		.2byte	0x1
 3091 01c0 57       		.byte	0x57
 3092 01c1 50000000 		.4byte	.LVL17
 3093 01c5 5C000000 		.4byte	.LVL18
 3094 01c9 0400     		.2byte	0x4
 3095 01cb 78       		.byte	0x78
 3096 01cc 00       		.sleb128 0
 3097 01cd 1F       		.byte	0x1f
 3098 01ce 9F       		.byte	0x9f
 3099 01cf 5C000000 		.4byte	.LVL18
 3100 01d3 7C000000 		.4byte	.LVL21
 3101 01d7 0100     		.2byte	0x1
 3102 01d9 57       		.byte	0x57
 3103 01da 7C000000 		.4byte	.LVL21
 3104 01de 82000000 		.4byte	.LVL22
 3105 01e2 0400     		.2byte	0x4
 3106 01e4 78       		.byte	0x78
 3107 01e5 00       		.sleb128 0
 3108 01e6 1F       		.byte	0x1f
 3109 01e7 9F       		.byte	0x9f
 3110 01e8 82000000 		.4byte	.LVL22
 3111 01ec EA000000 		.4byte	.LVL32
 3112 01f0 0100     		.2byte	0x1
 3113 01f2 57       		.byte	0x57
 3114 01f3 EA000000 		.4byte	.LVL32
 3115 01f7 12010000 		.4byte	.LVL38
 3116 01fb 0300     		.2byte	0x3
 3117 01fd 77       		.byte	0x77
 3118 01fe 78       		.sleb128 -8
 3119 01ff 9F       		.byte	0x9f
 3120 0200 12010000 		.4byte	.LVL38
 3121 0204 62010000 		.4byte	.LVL44
 3122 0208 0400     		.2byte	0x4
 3123 020a 78       		.byte	0x78
 3124 020b 00       		.sleb128 0
 3125 020c 1F       		.byte	0x1f
 3126 020d 9F       		.byte	0x9f
 3127 020e 62010000 		.4byte	.LVL44
 3128 0212 74010000 		.4byte	.LVL46
 3129 0216 0100     		.2byte	0x1
 3130 0218 57       		.byte	0x57
 3131 0219 74010000 		.4byte	.LVL46
ARM GAS  /tmp/ccpqBDes.s 			page 56


 3132 021d 8A010000 		.4byte	.LVL49
 3133 0221 0400     		.2byte	0x4
 3134 0223 78       		.byte	0x78
 3135 0224 00       		.sleb128 0
 3136 0225 1F       		.byte	0x1f
 3137 0226 9F       		.byte	0x9f
 3138 0227 8A010000 		.4byte	.LVL49
 3139 022b 9E010000 		.4byte	.LVL51
 3140 022f 0100     		.2byte	0x1
 3141 0231 57       		.byte	0x57
 3142 0232 9E010000 		.4byte	.LVL51
 3143 0236 BA010000 		.4byte	.LVL54
 3144 023a 0400     		.2byte	0x4
 3145 023c 78       		.byte	0x78
 3146 023d 00       		.sleb128 0
 3147 023e 1F       		.byte	0x1f
 3148 023f 9F       		.byte	0x9f
 3149 0240 BA010000 		.4byte	.LVL54
 3150 0244 D0010000 		.4byte	.LFE7
 3151 0248 0300     		.2byte	0x3
 3152 024a 77       		.byte	0x77
 3153 024b 78       		.sleb128 -8
 3154 024c 9F       		.byte	0x9f
 3155 024d 00000000 		.4byte	0
 3156 0251 00000000 		.4byte	0
 3157              	.LLST13:
 3158 0255 5C000000 		.4byte	.LVL18
 3159 0259 60000000 		.4byte	.LVL19
 3160 025d 0C00     		.2byte	0xc
 3161 025f 7A       		.byte	0x7a
 3162 0260 00       		.sleb128 0
 3163 0261 08       		.byte	0x8
 3164 0262 F0       		.byte	0xf0
 3165 0263 1A       		.byte	0x1a
 3166 0264 08       		.byte	0x8
 3167 0265 E0       		.byte	0xe0
 3168 0266 2E       		.byte	0x2e
 3169 0267 08       		.byte	0x8
 3170 0268 FF       		.byte	0xff
 3171 0269 1A       		.byte	0x1a
 3172 026a 9F       		.byte	0x9f
 3173 026b 82000000 		.4byte	.LVL22
 3174 026f 8A000000 		.4byte	.LVL23
 3175 0273 0200     		.2byte	0x2
 3176 0275 31       		.byte	0x31
 3177 0276 9F       		.byte	0x9f
 3178 0277 8A000000 		.4byte	.LVL23
 3179 027b 96000000 		.4byte	.LVL26
 3180 027f 0C00     		.2byte	0xc
 3181 0281 7A       		.byte	0x7a
 3182 0282 00       		.sleb128 0
 3183 0283 08       		.byte	0x8
 3184 0284 F0       		.byte	0xf0
 3185 0285 1A       		.byte	0x1a
 3186 0286 08       		.byte	0x8
 3187 0287 E0       		.byte	0xe0
 3188 0288 2E       		.byte	0x2e
ARM GAS  /tmp/ccpqBDes.s 			page 57


 3189 0289 08       		.byte	0x8
 3190 028a FF       		.byte	0xff
 3191 028b 1A       		.byte	0x1a
 3192 028c 9F       		.byte	0x9f
 3193 028d 00000000 		.4byte	0
 3194 0291 00000000 		.4byte	0
 3195              	.LLST14:
 3196 0295 E0000000 		.4byte	.LVL31
 3197 0299 EE000000 		.4byte	.LVL33
 3198 029d 0100     		.2byte	0x1
 3199 029f 50       		.byte	0x50
 3200 02a0 BA010000 		.4byte	.LVL54
 3201 02a4 BF010000 		.4byte	.LVL55-1
 3202 02a8 0100     		.2byte	0x1
 3203 02aa 50       		.byte	0x50
 3204 02ab 00000000 		.4byte	0
 3205 02af 00000000 		.4byte	0
 3206              	.LLST15:
 3207 02b3 00000000 		.4byte	.LVL56
 3208 02b7 07000000 		.4byte	.LVL58-1
 3209 02bb 0100     		.2byte	0x1
 3210 02bd 50       		.byte	0x50
 3211 02be 07000000 		.4byte	.LVL58-1
 3212 02c2 08000000 		.4byte	.LFE8
 3213 02c6 0400     		.2byte	0x4
 3214 02c8 F3       		.byte	0xf3
 3215 02c9 01       		.uleb128 0x1
 3216 02ca 50       		.byte	0x50
 3217 02cb 9F       		.byte	0x9f
 3218 02cc 00000000 		.4byte	0
 3219 02d0 00000000 		.4byte	0
 3220              	.LLST16:
 3221 02d4 00000000 		.4byte	.LVL56
 3222 02d8 04000000 		.4byte	.LVL57
 3223 02dc 0100     		.2byte	0x1
 3224 02de 51       		.byte	0x51
 3225 02df 04000000 		.4byte	.LVL57
 3226 02e3 08000000 		.4byte	.LFE8
 3227 02e7 0400     		.2byte	0x4
 3228 02e9 F3       		.byte	0xf3
 3229 02ea 01       		.uleb128 0x1
 3230 02eb 51       		.byte	0x51
 3231 02ec 9F       		.byte	0x9f
 3232 02ed 00000000 		.4byte	0
 3233 02f1 00000000 		.4byte	0
 3234              	.LLST17:
 3235 02f5 00000000 		.4byte	.LVL59
 3236 02f9 07000000 		.4byte	.LVL61-1
 3237 02fd 0100     		.2byte	0x1
 3238 02ff 50       		.byte	0x50
 3239 0300 07000000 		.4byte	.LVL61-1
 3240 0304 08000000 		.4byte	.LFE9
 3241 0308 0400     		.2byte	0x4
 3242 030a F3       		.byte	0xf3
 3243 030b 01       		.uleb128 0x1
 3244 030c 50       		.byte	0x50
 3245 030d 9F       		.byte	0x9f
ARM GAS  /tmp/ccpqBDes.s 			page 58


 3246 030e 00000000 		.4byte	0
 3247 0312 00000000 		.4byte	0
 3248              	.LLST18:
 3249 0316 00000000 		.4byte	.LVL59
 3250 031a 04000000 		.4byte	.LVL60
 3251 031e 0100     		.2byte	0x1
 3252 0320 51       		.byte	0x51
 3253 0321 04000000 		.4byte	.LVL60
 3254 0325 08000000 		.4byte	.LFE9
 3255 0329 0400     		.2byte	0x4
 3256 032b F3       		.byte	0xf3
 3257 032c 01       		.uleb128 0x1
 3258 032d 51       		.byte	0x51
 3259 032e 9F       		.byte	0x9f
 3260 032f 00000000 		.4byte	0
 3261 0333 00000000 		.4byte	0
 3262              		.section	.debug_aranges,"",%progbits
 3263 0000 34000000 		.4byte	0x34
 3264 0004 0200     		.2byte	0x2
 3265 0006 00000000 		.4byte	.Ldebug_info0
 3266 000a 04       		.byte	0x4
 3267 000b 00       		.byte	0
 3268 000c 0000     		.2byte	0
 3269 000e 0000     		.2byte	0
 3270 0010 00000000 		.4byte	.LFB10
 3271 0014 A4000000 		.4byte	.LFE10-.LFB10
 3272 0018 00000000 		.4byte	.LFB7
 3273 001c D0010000 		.4byte	.LFE7-.LFB7
 3274 0020 00000000 		.4byte	.LFB8
 3275 0024 08000000 		.4byte	.LFE8-.LFB8
 3276 0028 00000000 		.4byte	.LFB9
 3277 002c 08000000 		.4byte	.LFE9-.LFB9
 3278 0030 00000000 		.4byte	0
 3279 0034 00000000 		.4byte	0
 3280              		.section	.debug_ranges,"",%progbits
 3281              	.Ldebug_ranges0:
 3282 0000 5C000000 		.4byte	.LBB2
 3283 0004 66000000 		.4byte	.LBE2
 3284 0008 82000000 		.4byte	.LBB3
 3285 000c A2000000 		.4byte	.LBE3
 3286 0010 A8000000 		.4byte	.LBB4
 3287 0014 AC000000 		.4byte	.LBE4
 3288 0018 00000000 		.4byte	0
 3289 001c 00000000 		.4byte	0
 3290 0020 C6000000 		.4byte	.LBB5
 3291 0024 12010000 		.4byte	.LBE5
 3292 0028 74010000 		.4byte	.LBB6
 3293 002c 78010000 		.4byte	.LBE6
 3294 0030 BA010000 		.4byte	.LBB8
 3295 0034 D0010000 		.4byte	.LBE8
 3296 0038 00000000 		.4byte	0
 3297 003c 00000000 		.4byte	0
 3298 0040 00000000 		.4byte	.LFB10
 3299 0044 A4000000 		.4byte	.LFE10
 3300 0048 00000000 		.4byte	.LFB7
 3301 004c D0010000 		.4byte	.LFE7
 3302 0050 00000000 		.4byte	.LFB8
ARM GAS  /tmp/ccpqBDes.s 			page 59


 3303 0054 08000000 		.4byte	.LFE8
 3304 0058 00000000 		.4byte	.LFB9
 3305 005c 08000000 		.4byte	.LFE9
 3306 0060 00000000 		.4byte	0
 3307 0064 00000000 		.4byte	0
 3308              		.section	.debug_line,"",%progbits
 3309              	.Ldebug_line0:
 3310 0000 AA020000 		.section	.debug_str,"MS",%progbits,1
 3310      02008D01 
 3310      00000201 
 3310      FB0E0D00 
 3310      01010101 
 3311              	.LASF110:
 3312 0000 61636365 		.ascii	"accepted\000"
 3312      70746564 
 3312      00
 3313              	.LASF57:
 3314 0009 49434D50 		.ascii	"ICMP_DUR_HOST\000"
 3314      5F445552 
 3314      5F484F53 
 3314      5400
 3315              	.LASF46:
 3316 0017 696E7075 		.ascii	"input\000"
 3316      7400
 3317              	.LASF28:
 3318 001d 50425546 		.ascii	"PBUF_RAM\000"
 3318      5F52414D 
 3318      00
 3319              	.LASF26:
 3320 0026 50425546 		.ascii	"PBUF_RAW\000"
 3320      5F524157 
 3320      00
 3321              	.LASF32:
 3322 002f 70627566 		.ascii	"pbuf_type\000"
 3322      5F747970 
 3322      6500
 3323              	.LASF0:
 3324 0039 756E7369 		.ascii	"unsigned int\000"
 3324      676E6564 
 3324      20696E74 
 3324      00
 3325              	.LASF33:
 3326 0046 6E657874 		.ascii	"next\000"
 3326      00
 3327              	.LASF56:
 3328 004b 49434D50 		.ascii	"ICMP_DUR_NET\000"
 3328      5F445552 
 3328      5F4E4554 
 3328      00
 3329              	.LASF108:
 3330 0058 69656368 		.ascii	"iecho\000"
 3330      6F00
 3331              	.LASF22:
 3332 005e 6572725F 		.ascii	"err_t\000"
 3332      7400
 3333              	.LASF48:
 3334 0064 6C696E6B 		.ascii	"linkoutput\000"
ARM GAS  /tmp/ccpqBDes.s 			page 60


 3334      6F757470 
 3334      757400
 3335              	.LASF19:
 3336 006f 7531365F 		.ascii	"u16_t\000"
 3336      7400
 3337              	.LASF75:
 3338 0075 5F74746C 		.ascii	"_ttl\000"
 3338      00
 3339              	.LASF100:
 3340 007a 6C696E6B 		.ascii	"link\000"
 3340      00
 3341              	.LASF91:
 3342 007f 73746174 		.ascii	"stats_mem\000"
 3342      735F6D65 
 3342      6D00
 3343              	.LASF109:
 3344 0089 686C656E 		.ascii	"hlen\000"
 3344      00
 3345              	.LASF54:
 3346 008e 6E657469 		.ascii	"netif_output_fn\000"
 3346      665F6F75 
 3346      74707574 
 3346      5F666E00 
 3347              	.LASF116:
 3348 009e 6C776970 		.ascii	"lwip_stats\000"
 3348      5F737461 
 3348      747300
 3349              	.LASF111:
 3350 00a9 69636D70 		.ascii	"icmp_input\000"
 3350      5F696E70 
 3350      757400
 3351              	.LASF23:
 3352 00b4 50425546 		.ascii	"PBUF_TRANSPORT\000"
 3352      5F545241 
 3352      4E53504F 
 3352      525400
 3353              	.LASF95:
 3354 00c3 73746174 		.ascii	"stats_syselem\000"
 3354      735F7379 
 3354      73656C65 
 3354      6D00
 3355              	.LASF69:
 3356 00d1 7365716E 		.ascii	"seqno\000"
 3356      6F00
 3357              	.LASF53:
 3358 00d7 6E657469 		.ascii	"netif_input_fn\000"
 3358      665F696E 
 3358      7075745F 
 3358      666E00
 3359              	.LASF10:
 3360 00e6 75696E74 		.ascii	"uint32_t\000"
 3360      33325F74 
 3360      00
 3361              	.LASF2:
 3362 00ef 696E7438 		.ascii	"int8_t\000"
 3362      5F7400
 3363              	.LASF89:
ARM GAS  /tmp/ccpqBDes.s 			page 61


 3364 00f6 6F707465 		.ascii	"opterr\000"
 3364      727200
 3365              	.LASF97:
 3366 00fd 6D757465 		.ascii	"mutex\000"
 3366      7800
 3367              	.LASF102:
 3368 0103 69705F66 		.ascii	"ip_frag\000"
 3368      72616700 
 3369              	.LASF94:
 3370 010b 696C6C65 		.ascii	"illegal\000"
 3370      67616C00 
 3371              	.LASF5:
 3372 0113 696E7431 		.ascii	"int16_t\000"
 3372      365F7400 
 3373              	.LASF51:
 3374 011b 68776164 		.ascii	"hwaddr\000"
 3374      647200
 3375              	.LASF101:
 3376 0122 65746861 		.ascii	"etharp\000"
 3376      727000
 3377              	.LASF13:
 3378 0129 6C6F6E67 		.ascii	"long long unsigned int\000"
 3378      206C6F6E 
 3378      6720756E 
 3378      7369676E 
 3378      65642069 
 3379              	.LASF113:
 3380 0140 69636D70 		.ascii	"icmp_time_exceeded\000"
 3380      5F74696D 
 3380      655F6578 
 3380      63656564 
 3380      656400
 3381              	.LASF112:
 3382 0153 69636D70 		.ascii	"icmp_dest_unreach\000"
 3382      5F646573 
 3382      745F756E 
 3382      72656163 
 3382      6800
 3383              	.LASF114:
 3384 0165 63757272 		.ascii	"current_iphdr_src\000"
 3384      656E745F 
 3384      69706864 
 3384      725F7372 
 3384      6300
 3385              	.LASF77:
 3386 0177 5F63686B 		.ascii	"_chksum\000"
 3386      73756D00 
 3387              	.LASF50:
 3388 017f 68776164 		.ascii	"hwaddr_len\000"
 3388      64725F6C 
 3388      656E00
 3389              	.LASF74:
 3390 018a 5F6F6666 		.ascii	"_offset\000"
 3390      73657400 
 3391              	.LASF61:
 3392 0192 49434D50 		.ascii	"ICMP_DUR_SR\000"
 3392      5F445552 
ARM GAS  /tmp/ccpqBDes.s 			page 62


 3392      5F535200 
 3393              	.LASF30:
 3394 019e 50425546 		.ascii	"PBUF_REF\000"
 3394      5F524546 
 3394      00
 3395              	.LASF123:
 3396 01a7 70627566 		.ascii	"pbuf_copy\000"
 3396      5F636F70 
 3396      7900
 3397              	.LASF99:
 3398 01b1 73746174 		.ascii	"stats_\000"
 3398      735F00
 3399              	.LASF127:
 3400 01b8 2F686F6D 		.ascii	"/home/witold/Dokumenty/arm/ChibiOS-master/demos/ARM"
 3400      652F7769 
 3400      746F6C64 
 3400      2F446F6B 
 3400      756D656E 
 3401 01eb 434D342D 		.ascii	"CM4-STM32F407-LWIP\000"
 3401      53544D33 
 3401      32463430 
 3401      372D4C57 
 3401      495000
 3402              	.LASF119:
 3403 01fe 69705F6F 		.ascii	"ip_output\000"
 3403      75747075 
 3403      7400
 3404              	.LASF35:
 3405 0208 746F745F 		.ascii	"tot_len\000"
 3405      6C656E00 
 3406              	.LASF34:
 3407 0210 7061796C 		.ascii	"payload\000"
 3407      6F616400 
 3408              	.LASF24:
 3409 0218 50425546 		.ascii	"PBUF_IP\000"
 3409      5F495000 
 3410              	.LASF47:
 3411 0220 6F757470 		.ascii	"output\000"
 3411      757400
 3412              	.LASF14:
 3413 0227 5F426F6F 		.ascii	"_Bool\000"
 3413      6C00
 3414              	.LASF31:
 3415 022d 50425546 		.ascii	"PBUF_POOL\000"
 3415      5F504F4F 
 3415      4C00
 3416              	.LASF37:
 3417 0237 666C6167 		.ascii	"flags\000"
 3417      7300
 3418              	.LASF18:
 3419 023d 73385F74 		.ascii	"s8_t\000"
 3419      00
 3420              	.LASF67:
 3421 0242 636F6465 		.ascii	"code\000"
 3421      00
 3422              	.LASF121:
 3423 0247 6970345F 		.ascii	"ip4_addr_isbroadcast\000"
ARM GAS  /tmp/ccpqBDes.s 			page 63


 3423      61646472 
 3423      5F697362 
 3423      726F6164 
 3423      63617374 
 3424              	.LASF122:
 3425 025c 70627566 		.ascii	"pbuf_header\000"
 3425      5F686561 
 3425      64657200 
 3426              	.LASF16:
 3427 0268 63686172 		.ascii	"char\000"
 3427      00
 3428              	.LASF79:
 3429 026d 6D656D5F 		.ascii	"mem_size_t\000"
 3429      73697A65 
 3429      5F7400
 3430              	.LASF80:
 3431 0278 73746174 		.ascii	"stats_proto\000"
 3431      735F7072 
 3431      6F746F00 
 3432              	.LASF41:
 3433 0284 69705F61 		.ascii	"ip_addr_packed\000"
 3433      6464725F 
 3433      7061636B 
 3433      656400
 3434              	.LASF126:
 3435 0293 2E2E2F2E 		.ascii	"../../ext/lwip/src/core/ipv4/icmp.c\000"
 3435      2E2F6578 
 3435      742F6C77 
 3435      69702F73 
 3435      72632F63 
 3436              	.LASF3:
 3437 02b7 75696E74 		.ascii	"uint8_t\000"
 3437      385F7400 
 3438              	.LASF76:
 3439 02bf 5F70726F 		.ascii	"_proto\000"
 3439      746F00
 3440              	.LASF117:
 3441 02c6 70627566 		.ascii	"pbuf_alloc\000"
 3441      5F616C6C 
 3441      6F6300
 3442              	.LASF106:
 3443 02d1 69636D70 		.ascii	"icmphdr\000"
 3443      68647200 
 3444              	.LASF63:
 3445 02d9 69636D70 		.ascii	"icmp_te_type\000"
 3445      5F74655F 
 3445      74797065 
 3445      00
 3446              	.LASF120:
 3447 02e6 70627566 		.ascii	"pbuf_free\000"
 3447      5F667265 
 3447      6500
 3448              	.LASF45:
 3449 02f0 6E65746D 		.ascii	"netmask\000"
 3449      61736B00 
 3450              	.LASF12:
 3451 02f8 6C6F6E67 		.ascii	"long long int\000"
ARM GAS  /tmp/ccpqBDes.s 			page 64


 3451      206C6F6E 
 3451      6720696E 
 3451      7400
 3452              	.LASF17:
 3453 0306 75385F74 		.ascii	"u8_t\000"
 3453      00
 3454              	.LASF71:
 3455 030b 5F765F68 		.ascii	"_v_hl\000"
 3455      6C00
 3456              	.LASF93:
 3457 0311 75736564 		.ascii	"used\000"
 3457      00
 3458              	.LASF84:
 3459 0316 63686B65 		.ascii	"chkerr\000"
 3459      727200
 3460              	.LASF59:
 3461 031d 49434D50 		.ascii	"ICMP_DUR_PORT\000"
 3461      5F445552 
 3461      5F504F52 
 3461      5400
 3462              	.LASF128:
 3463 032b 69636D70 		.ascii	"icmp_send_response\000"
 3463      5F73656E 
 3463      645F7265 
 3463      73706F6E 
 3463      736500
 3464              	.LASF25:
 3465 033e 50425546 		.ascii	"PBUF_LINK\000"
 3465      5F4C494E 
 3465      4B00
 3466              	.LASF118:
 3467 0348 696E6574 		.ascii	"inet_chksum\000"
 3467      5F63686B 
 3467      73756D00 
 3468              	.LASF7:
 3469 0354 75696E74 		.ascii	"uint16_t\000"
 3469      31365F74 
 3469      00
 3470              	.LASF107:
 3471 035d 69706864 		.ascii	"iphdr_src\000"
 3471      725F7372 
 3471      6300
 3472              	.LASF65:
 3473 0367 49434D50 		.ascii	"ICMP_TE_FRAG\000"
 3473      5F54455F 
 3473      46524147 
 3473      00
 3474              	.LASF21:
 3475 0374 7533325F 		.ascii	"u32_t\000"
 3475      7400
 3476              	.LASF6:
 3477 037a 73686F72 		.ascii	"short int\000"
 3477      7420696E 
 3477      7400
 3478              	.LASF103:
 3479 0384 69636D70 		.ascii	"icmp\000"
 3479      00
ARM GAS  /tmp/ccpqBDes.s 			page 65


 3480              	.LASF9:
 3481 0389 6C6F6E67 		.ascii	"long int\000"
 3481      20696E74 
 3481      00
 3482              	.LASF87:
 3483 0392 72746572 		.ascii	"rterr\000"
 3483      7200
 3484              	.LASF92:
 3485 0398 61766169 		.ascii	"avail\000"
 3485      6C00
 3486              	.LASF98:
 3487 039e 6D626F78 		.ascii	"mbox\000"
 3487      00
 3488              	.LASF90:
 3489 03a3 63616368 		.ascii	"cachehit\000"
 3489      65686974 
 3489      00
 3490              	.LASF124:
 3491 03ac 69705F6F 		.ascii	"ip_output_if\000"
 3491      75747075 
 3491      745F6966 
 3491      00
 3492              	.LASF70:
 3493 03b9 69705F68 		.ascii	"ip_hdr\000"
 3493      647200
 3494              	.LASF64:
 3495 03c0 49434D50 		.ascii	"ICMP_TE_TTL\000"
 3495      5F54455F 
 3495      54544C00 
 3496              	.LASF52:
 3497 03cc 6E616D65 		.ascii	"name\000"
 3497      00
 3498              	.LASF55:
 3499 03d1 6E657469 		.ascii	"netif_linkoutput_fn\000"
 3499      665F6C69 
 3499      6E6B6F75 
 3499      74707574 
 3499      5F666E00 
 3500              	.LASF62:
 3501 03e5 69636D70 		.ascii	"icmp_dur_type\000"
 3501      5F647572 
 3501      5F747970 
 3501      6500
 3502              	.LASF104:
 3503 03f3 6D656D70 		.ascii	"memp\000"
 3503      00
 3504              	.LASF85:
 3505 03f8 6C656E65 		.ascii	"lenerr\000"
 3505      727200
 3506              	.LASF72:
 3507 03ff 5F746F73 		.ascii	"_tos\000"
 3507      00
 3508              	.LASF15:
 3509 0404 73697A65 		.ascii	"sizetype\000"
 3509      74797065 
 3509      00
 3510              	.LASF11:
ARM GAS  /tmp/ccpqBDes.s 			page 66


 3511 040d 6C6F6E67 		.ascii	"long unsigned int\000"
 3511      20756E73 
 3511      69676E65 
 3511      6420696E 
 3511      7400
 3512              	.LASF20:
 3513 041f 7331365F 		.ascii	"s16_t\000"
 3513      7400
 3514              	.LASF130:
 3515 0425 696E6574 		.ascii	"inet_chksum_pbuf\000"
 3515      5F63686B 
 3515      73756D5F 
 3515      70627566 
 3515      00
 3516              	.LASF27:
 3517 0436 70627566 		.ascii	"pbuf_layer\000"
 3517      5F6C6179 
 3517      657200
 3518              	.LASF88:
 3519 0441 70726F74 		.ascii	"proterr\000"
 3519      65727200 
 3520              	.LASF66:
 3521 0449 69636D70 		.ascii	"icmp_echo_hdr\000"
 3521      5F656368 
 3521      6F5F6864 
 3521      7200
 3522              	.LASF36:
 3523 0457 74797065 		.ascii	"type\000"
 3523      00
 3524              	.LASF96:
 3525 045c 73746174 		.ascii	"stats_sys\000"
 3525      735F7379 
 3525      7300
 3526              	.LASF4:
 3527 0466 756E7369 		.ascii	"unsigned char\000"
 3527      676E6564 
 3527      20636861 
 3527      7200
 3528              	.LASF86:
 3529 0474 6D656D65 		.ascii	"memerr\000"
 3529      727200
 3530              	.LASF38:
 3531 047b 70627566 		.ascii	"pbuf\000"
 3531      00
 3532              	.LASF43:
 3533 0480 69705F61 		.ascii	"ip_addr_p_t\000"
 3533      6464725F 
 3533      705F7400 
 3534              	.LASF58:
 3535 048c 49434D50 		.ascii	"ICMP_DUR_PROTO\000"
 3535      5F445552 
 3535      5F50524F 
 3535      544F00
 3536              	.LASF129:
 3537 049b 706F7274 		.ascii	"port_halt\000"
 3537      5F68616C 
 3537      7400
ARM GAS  /tmp/ccpqBDes.s 			page 67


 3538              	.LASF40:
 3539 04a5 61646472 		.ascii	"addr\000"
 3539      00
 3540              	.LASF60:
 3541 04aa 49434D50 		.ascii	"ICMP_DUR_FRAG\000"
 3541      5F445552 
 3541      5F465241 
 3541      4700
 3542              	.LASF83:
 3543 04b8 64726F70 		.ascii	"drop\000"
 3543      00
 3544              	.LASF49:
 3545 04bd 73746174 		.ascii	"state\000"
 3545      6500
 3546              	.LASF44:
 3547 04c3 6E657469 		.ascii	"netif\000"
 3547      6600
 3548              	.LASF125:
 3549 04c9 474E5520 		.ascii	"GNU C 4.7.4 20130613 (release) [ARM/embedded-4_7-br"
 3549      4320342E 
 3549      372E3420 
 3549      32303133 
 3549      30363133 
 3550 04fc 616E6368 		.ascii	"anch revision 200083]\000"
 3550      20726576 
 3550      6973696F 
 3550      6E203230 
 3550      30303833 
 3551              	.LASF68:
 3552 0512 63686B73 		.ascii	"chksum\000"
 3552      756D00
 3553              	.LASF105:
 3554 0519 69706864 		.ascii	"iphdr\000"
 3554      7200
 3555              	.LASF82:
 3556 051f 72656376 		.ascii	"recv\000"
 3556      00
 3557              	.LASF1:
 3558 0524 7369676E 		.ascii	"signed char\000"
 3558      65642063 
 3558      68617200 
 3559              	.LASF8:
 3560 0530 73686F72 		.ascii	"short unsigned int\000"
 3560      7420756E 
 3560      7369676E 
 3560      65642069 
 3560      6E7400
 3561              	.LASF81:
 3562 0543 786D6974 		.ascii	"xmit\000"
 3562      00
 3563              	.LASF115:
 3564 0548 63757272 		.ascii	"current_iphdr_dest\000"
 3564      656E745F 
 3564      69706864 
 3564      725F6465 
 3564      737400
 3565              	.LASF73:
ARM GAS  /tmp/ccpqBDes.s 			page 68


 3566 055b 5F6C656E 		.ascii	"_len\000"
 3566      00
 3567              	.LASF42:
 3568 0560 69705F61 		.ascii	"ip_addr_t\000"
 3568      6464725F 
 3568      7400
 3569              	.LASF29:
 3570 056a 50425546 		.ascii	"PBUF_ROM\000"
 3570      5F524F4D 
 3570      00
 3571              	.LASF78:
 3572 0573 64657374 		.ascii	"dest\000"
 3572      00
 3573              	.LASF39:
 3574 0578 69705F61 		.ascii	"ip_addr\000"
 3574      64647200 
 3575              		.ident	"GCC: (GNU Tools for ARM Embedded Processors) 4.7.4 20130613 (release) [ARM/embedded-4_7-br
ARM GAS  /tmp/ccpqBDes.s 			page 69


DEFINED SYMBOLS
                            *ABS*:00000000 icmp.c
     /tmp/ccpqBDes.s:19     .text.icmp_send_response:00000000 $t
     /tmp/ccpqBDes.s:24     .text.icmp_send_response:00000000 icmp_send_response
     /tmp/ccpqBDes.s:149    .text.icmp_send_response:000000a0 $d
     /tmp/ccpqBDes.s:154    .text.icmp_input:00000000 $t
     /tmp/ccpqBDes.s:160    .text.icmp_input:00000000 icmp_input
     /tmp/ccpqBDes.s:513    .text.icmp_input:000001c4 $d
     /tmp/ccpqBDes.s:521    .text.icmp_dest_unreach:00000000 $t
     /tmp/ccpqBDes.s:527    .text.icmp_dest_unreach:00000000 icmp_dest_unreach
     /tmp/ccpqBDes.s:548    .text.icmp_time_exceeded:00000000 $t
     /tmp/ccpqBDes.s:554    .text.icmp_time_exceeded:00000000 icmp_time_exceeded
                     .debug_frame:00000010 $d
     /tmp/ccpqBDes.s:153    .text.icmp_send_response:000000a4 $t

UNDEFINED SYMBOLS
pbuf_alloc
port_halt
inet_chksum
ip_output
pbuf_free
lwip_stats
pbuf_header
ip4_addr_isbroadcast
inet_chksum_pbuf
pbuf_copy
ip_output_if
current_iphdr_src
current_iphdr_dest
