ARM GAS  /tmp/ccRKR4lc.s 			page 1


   1              		.syntax unified
   2              		.cpu cortex-m4
   3              		.fpu softvfp
   4              		.eabi_attribute 20, 1
   5              		.eabi_attribute 21, 1
   6              		.eabi_attribute 23, 3
   7              		.eabi_attribute 24, 1
   8              		.eabi_attribute 25, 1
   9              		.eabi_attribute 26, 1
  10              		.eabi_attribute 30, 2
  11              		.eabi_attribute 34, 1
  12              		.eabi_attribute 18, 4
  13              		.thumb
  14              		.file	"inet_chksum.c"
  15              		.text
  16              	.Ltext0:
  17              		.cfi_sections	.debug_frame
  18              		.section	.text.lwip_standard_chksum,"ax",%progbits
  19              		.align	2
  20              		.p2align 4,,15
  21              		.thumb
  22              		.thumb_func
  23              		.type	lwip_standard_chksum, %function
  24              	lwip_standard_chksum:
  25              	.LFB7:
  26              		.file 1 "../../ext/lwip/src/core/ipv4/inet_chksum.c"
  27              		.loc 1 136 0
  28              		.cfi_startproc
  29              		@ args = 0, pretend = 0, frame = 8
  30              		@ frame_needed = 0, uses_anonymous_args = 0
  31              		@ link register save eliminated.
  32              	.LVL0:
  33 0000 F0B4     		push	{r4, r5, r6, r7}
  34              	.LCFI0:
  35              		.cfi_def_cfa_offset 16
  36              		.cfi_offset 4, -16
  37              		.cfi_offset 5, -12
  38              		.cfi_offset 6, -8
  39              		.cfi_offset 7, -4
  40 0002 82B0     		sub	sp, sp, #8
  41              	.LCFI1:
  42              		.cfi_def_cfa_offset 24
  43              		.loc 1 138 0
  44 0004 0025     		movs	r5, #0
  45              	.LVL1:
  46              		.loc 1 143 0
  47 0006 10F00107 		ands	r7, r0, #1
  48              		.loc 1 138 0
  49 000a ADF80650 		strh	r5, [sp, #6]	@ movhi
  50              	.LVL2:
  51              		.loc 1 143 0
  52 000e 06D0     		beq	.L2
  53              		.loc 1 143 0 is_stmt 0 discriminator 1
  54 0010 A942     		cmp	r1, r5
  55 0012 27DD     		ble	.L3
  56              		.loc 1 144 0 is_stmt 1
  57 0014 10F8013B 		ldrb	r3, [r0], #1	@ zero_extendqisi2
ARM GAS  /tmp/ccRKR4lc.s 			page 2


  58              	.LVL3:
  59              		.loc 1 145 0
  60 0018 0139     		subs	r1, r1, #1
  61              	.LVL4:
  62              		.loc 1 144 0
  63 001a 8DF80730 		strb	r3, [sp, #7]
  64              	.LVL5:
  65              	.L2:
  66              		.loc 1 150 0
  67 001e 0129     		cmp	r1, #1
  68 0020 38DD     		ble	.L9
  69 0022 8C1E     		subs	r4, r1, #2
  70              		.loc 1 152 0
  71 0024 2246     		mov	r2, r4
  72              		.loc 1 151 0
  73 0026 0346     		mov	r3, r0
  74              		.loc 1 150 0
  75 0028 012A     		cmp	r2, #1
  76 002a C4F34004 		ubfx	r4, r4, #1, #1
  77              		.loc 1 151 0
  78 002e 33F8025B 		ldrh	r5, [r3], #2
  79              	.LVL6:
  80              		.loc 1 150 0
  81 0032 10DD     		ble	.L20
  82 0034 2CB1     		cbz	r4, .L4
  83              		.loc 1 151 0
  84 0036 33F8024B 		ldrh	r4, [r3], #2
  85              		.loc 1 152 0
  86 003a 023A     		subs	r2, r2, #2
  87              		.loc 1 150 0
  88 003c 012A     		cmp	r2, #1
  89              		.loc 1 151 0
  90 003e 2544     		add	r5, r5, r4
  91              	.LVL7:
  92              		.loc 1 150 0
  93 0040 09DD     		ble	.L20
  94              	.L4:
  95              		.loc 1 151 0
  96 0042 1C46     		mov	r4, r3
  97 0044 5B88     		ldrh	r3, [r3, #2]
  98 0046 34F8026B 		ldrh	r6, [r4], #2
  99              		.loc 1 152 0
 100 004a 043A     		subs	r2, r2, #4
 101              		.loc 1 151 0
 102 004c AD19     		adds	r5, r5, r6
 103 004e ED18     		adds	r5, r5, r3
 104 0050 A31C     		adds	r3, r4, #2
 105              		.loc 1 150 0
 106 0052 012A     		cmp	r2, #1
 107 0054 F5DC     		bgt	.L4
 108              	.L20:
 109              		.loc 1 135 0
 110 0056 0239     		subs	r1, r1, #2
 111 0058 4B08     		lsrs	r3, r1, #1
 112 005a 5A1C     		adds	r2, r3, #1
 113 005c 00EB4200 		add	r0, r0, r2, lsl #1
 114              	.LVL8:
ARM GAS  /tmp/ccRKR4lc.s 			page 3


 115 0060 A1EB4301 		sub	r1, r1, r3, lsl #1
 116              	.L3:
 117              		.loc 1 156 0
 118 0064 0129     		cmp	r1, #1
 119              		.loc 1 157 0
 120 0066 04BF     		itt	eq
 121 0068 0378     		ldrbeq	r3, [r0, #0]	@ zero_extendqisi2
 122 006a 8DF80630 		strbeq	r3, [sp, #6]
 123              		.loc 1 161 0
 124 006e BDF80600 		ldrh	r0, [sp, #6]
 125              	.LVL9:
 126 0072 2B18     		adds	r3, r5, r0
 127              	.LVL10:
 128              		.loc 1 165 0
 129 0074 9DB2     		uxth	r5, r3
 130 0076 05EB1345 		add	r5, r5, r3, lsr #16
 131              	.LVL11:
 132              		.loc 1 166 0
 133 007a A9B2     		uxth	r1, r5
 134 007c 01EB1543 		add	r3, r1, r5, lsr #16
 135              	.LVL12:
 136              		.loc 1 169 0
 137 0080 27B1     		cbz	r7, .L6
 138              		.loc 1 170 0
 139 0082 1A06     		lsls	r2, r3, #24
 140 0084 C3F30720 		ubfx	r0, r3, #8, #8
 141              	.LVL13:
 142 0088 40EA1243 		orr	r3, r0, r2, lsr #16
 143              	.LVL14:
 144              	.L6:
 145              		.loc 1 174 0
 146 008c 98B2     		uxth	r0, r3
 147              	.LVL15:
 148 008e 02B0     		add	sp, sp, #8
 149 0090 F0BC     		pop	{r4, r5, r6, r7}
 150 0092 7047     		bx	lr
 151              	.LVL16:
 152              	.L9:
 153              		.loc 1 139 0
 154 0094 0025     		movs	r5, #0
 155 0096 E5E7     		b	.L3
 156              		.cfi_endproc
 157              	.LFE7:
 158              		.size	lwip_standard_chksum, .-lwip_standard_chksum
 159 0098 AFF30080 		.section	.text.inet_chksum_pseudo,"ax",%progbits
 159      AFF30080 
 160              		.align	2
 161              		.p2align 4,,15
 162              		.global	inet_chksum_pseudo
 163              		.thumb
 164              		.thumb_func
 165              		.type	inet_chksum_pseudo, %function
 166              	inet_chksum_pseudo:
 167              	.LFB8:
 168              		.loc 1 275 0
 169              		.cfi_startproc
 170              		@ args = 4, pretend = 0, frame = 0
ARM GAS  /tmp/ccRKR4lc.s 			page 4


 171              		@ frame_needed = 0, uses_anonymous_args = 0
 172              	.LVL17:
 173 0000 2DE9F047 		push	{r4, r5, r6, r7, r8, r9, sl, lr}
 174              	.LCFI2:
 175              		.cfi_def_cfa_offset 32
 176              		.cfi_offset 4, -32
 177              		.cfi_offset 5, -28
 178              		.cfi_offset 6, -24
 179              		.cfi_offset 7, -20
 180              		.cfi_offset 8, -16
 181              		.cfi_offset 9, -12
 182              		.cfi_offset 10, -8
 183              		.cfi_offset 14, -4
 184              		.loc 1 275 0
 185 0004 8A46     		mov	sl, r1
 186 0006 9146     		mov	r9, r2
 187 0008 9846     		mov	r8, r3
 188              		.loc 1 284 0
 189 000a 0028     		cmp	r0, #0
 190 000c 3DD0     		beq	.L26
 191 000e 0027     		movs	r7, #0
 192 0010 0446     		mov	r4, r0
 193 0012 3D46     		mov	r5, r7
 194              	.LVL18:
 195              	.L25:
 196              		.loc 1 287 0
 197 0014 6068     		ldr	r0, [r4, #4]
 198 0016 6189     		ldrh	r1, [r4, #10]
 199 0018 FFF7FEFF 		bl	lwip_standard_chksum
 200              	.LVL19:
 201              		.loc 1 292 0
 202 001c 6689     		ldrh	r6, [r4, #10]
 203              		.loc 1 287 0
 204 001e 2818     		adds	r0, r5, r0
 205              	.LVL20:
 206              		.loc 1 291 0
 207 0020 83B2     		uxth	r3, r0
 208 0022 03EB1045 		add	r5, r3, r0, lsr #16
 209              	.LVL21:
 210              		.loc 1 292 0
 211 0026 F307     		lsls	r3, r6, #31
 212 0028 07D5     		bpl	.L24
 213              		.loc 1 293 0
 214 002a C7F10107 		rsb	r7, r7, #1
 215              		.loc 1 294 0
 216 002e 2906     		lsls	r1, r5, #24
 217 0030 C5F30722 		ubfx	r2, r5, #8, #8
 218              		.loc 1 293 0
 219 0034 FFB2     		uxtb	r7, r7
 220              	.LVL22:
 221              		.loc 1 294 0
 222 0036 42EA1145 		orr	r5, r2, r1, lsr #16
 223              	.LVL23:
 224              	.L24:
 225              		.loc 1 284 0
 226 003a 2468     		ldr	r4, [r4, #0]
 227              	.LVL24:
ARM GAS  /tmp/ccRKR4lc.s 			page 5


 228 003c 002C     		cmp	r4, #0
 229 003e E9D1     		bne	.L25
 230              		.loc 1 299 0
 231 0040 27B1     		cbz	r7, .L23
 232              		.loc 1 300 0
 233 0042 2806     		lsls	r0, r5, #24
 234 0044 C5F30725 		ubfx	r5, r5, #8, #8
 235              	.LVL25:
 236 0048 45EA1045 		orr	r5, r5, r0, lsr #16
 237              	.LVL26:
 238              	.L23:
 239              		.loc 1 302 0
 240 004c DAF80020 		ldr	r2, [sl, #0]
 241              	.LVL27:
 242              		.loc 1 305 0
 243 0050 D9F80030 		ldr	r3, [r9, #0]
 244              	.LVL28:
 245              		.loc 1 303 0
 246 0054 91B2     		uxth	r1, r2
 247 0056 01EB1240 		add	r0, r1, r2, lsr #16
 248              		.loc 1 304 0
 249 005a 10FA83F2 		uxtah	r2, r0, r3
 250              	.LVL29:
 251              		.loc 1 306 0
 252 005e 02EB1343 		add	r3, r2, r3, lsr #16
 253              	.LVL30:
 254              		.loc 1 308 0
 255 0062 4046     		mov	r0, r8
 256              		.loc 1 307 0
 257 0064 5D19     		adds	r5, r3, r5
 258              	.LVL31:
 259              		.loc 1 308 0
 260 0066 FFF7FEFF 		bl	lwip_htons
 261              	.LVL32:
 262 006a 2D18     		adds	r5, r5, r0
 263              	.LVL33:
 264              		.loc 1 309 0
 265 006c BDF82000 		ldrh	r0, [sp, #32]
 266 0070 FFF7FEFF 		bl	lwip_htons
 267              	.LVL34:
 268 0074 2918     		adds	r1, r5, r0
 269              	.LVL35:
 270              		.loc 1 313 0
 271 0076 88B2     		uxth	r0, r1
 272 0078 00EB1142 		add	r2, r0, r1, lsr #16
 273              	.LVL36:
 274              		.loc 1 314 0
 275 007c 93B2     		uxth	r3, r2
 276              	.LVL37:
 277 007e 03EB1241 		add	r1, r3, r2, lsr #16
 278              	.LVL38:
 279              		.loc 1 316 0
 280 0082 C843     		mvns	r0, r1
 281              		.loc 1 317 0
 282 0084 80B2     		uxth	r0, r0
 283 0086 BDE8F087 		pop	{r4, r5, r6, r7, r8, r9, sl, pc}
 284              	.LVL39:
ARM GAS  /tmp/ccRKR4lc.s 			page 6


 285              	.L26:
 286              		.loc 1 281 0
 287 008a 0546     		mov	r5, r0
 288 008c DEE7     		b	.L23
 289              		.cfi_endproc
 290              	.LFE8:
 291              		.size	inet_chksum_pseudo, .-inet_chksum_pseudo
 292 008e 00BF     		.section	.text.inet_chksum_pseudo_partial,"ax",%progbits
 293              		.align	2
 294              		.p2align 4,,15
 295              		.global	inet_chksum_pseudo_partial
 296              		.thumb
 297              		.thumb_func
 298              		.type	inet_chksum_pseudo_partial, %function
 299              	inet_chksum_pseudo_partial:
 300              	.LFB9:
 301              		.loc 1 335 0
 302              		.cfi_startproc
 303              		@ args = 8, pretend = 0, frame = 8
 304              		@ frame_needed = 0, uses_anonymous_args = 0
 305              	.LVL40:
 306 0000 2DE9F04F 		push	{r4, r5, r6, r7, r8, r9, sl, fp, lr}
 307              	.LCFI3:
 308              		.cfi_def_cfa_offset 36
 309              		.cfi_offset 4, -36
 310              		.cfi_offset 5, -32
 311              		.cfi_offset 6, -28
 312              		.cfi_offset 7, -24
 313              		.cfi_offset 8, -20
 314              		.cfi_offset 9, -16
 315              		.cfi_offset 10, -12
 316              		.cfi_offset 11, -8
 317              		.cfi_offset 14, -4
 318 0004 83B0     		sub	sp, sp, #12
 319              	.LCFI4:
 320              		.cfi_def_cfa_offset 48
 321              		.loc 1 335 0
 322 0006 8B46     		mov	fp, r1
 323 0008 9246     		mov	sl, r2
 324 000a 0193     		str	r3, [sp, #4]
 325 000c BDF83450 		ldrh	r5, [sp, #52]
 326              		.loc 1 345 0
 327 0010 0028     		cmp	r0, #0
 328 0012 50D0     		beq	.L42
 329 0014 002D     		cmp	r5, #0
 330 0016 50D0     		beq	.L43
 331 0018 0027     		movs	r7, #0
 332 001a 0446     		mov	r4, r0
 333 001c 3E46     		mov	r6, r7
 334              		.loc 1 354 0
 335 001e 47F6FE78 		movw	r8, #32766
 336 0022 10E0     		b	.L40
 337              	.LVL41:
 338              	.L36:
 339              		.loc 1 358 0
 340 0024 6089     		ldrh	r0, [r4, #10]
 341              		.loc 1 357 0
ARM GAS  /tmp/ccRKR4lc.s 			page 7


 342 0026 B2B2     		uxth	r2, r6
 343 0028 02EB1646 		add	r6, r2, r6, lsr #16
 344              	.LVL42:
 345              		.loc 1 358 0
 346 002c C207     		lsls	r2, r0, #31
 347 002e 07D5     		bpl	.L37
 348              		.loc 1 359 0
 349 0030 C7F10107 		rsb	r7, r7, #1
 350              		.loc 1 360 0
 351 0034 3106     		lsls	r1, r6, #24
 352 0036 C6F30723 		ubfx	r3, r6, #8, #8
 353              		.loc 1 359 0
 354 003a FFB2     		uxtb	r7, r7
 355              	.LVL43:
 356              		.loc 1 360 0
 357 003c 43EA1146 		orr	r6, r3, r1, lsr #16
 358              	.LVL44:
 359              	.L37:
 360              		.loc 1 345 0
 361 0040 2468     		ldr	r4, [r4, #0]
 362              	.LVL45:
 363 0042 94B1     		cbz	r4, .L41
 364              		.loc 1 345 0 is_stmt 0 discriminator 2
 365 0044 8DB1     		cbz	r5, .L41
 366              	.LVL46:
 367              	.L40:
 368              		.loc 1 348 0 is_stmt 1
 369 0046 6389     		ldrh	r3, [r4, #10]
 370              	.LVL47:
 371              		.loc 1 352 0
 372 0048 6068     		ldr	r0, [r4, #4]
 373 004a 9D42     		cmp	r5, r3
 374 004c 34BF     		ite	cc
 375 004e A946     		movcc	r9, r5
 376 0050 9946     		movcs	r9, r3
 377              	.LVL48:
 378 0052 4946     		mov	r1, r9
 379 0054 FFF7FEFF 		bl	lwip_standard_chksum
 380              	.LVL49:
 381              		.loc 1 353 0
 382 0058 C9EB0505 		rsb	r5, r9, r5
 383 005c ADB2     		uxth	r5, r5
 384              		.loc 1 354 0
 385 005e 4545     		cmp	r5, r8
 386              		.loc 1 352 0
 387 0060 0644     		add	r6, r6, r0
 388              	.LVL50:
 389              		.loc 1 354 0
 390 0062 DFD9     		bls	.L36
 391              		.loc 1 354 0 is_stmt 0 discriminator 1
 392 0064 FFF7FEFF 		bl	port_halt
 393              	.LVL51:
 394 0068 DCE7     		b	.L36
 395              	.LVL52:
 396              	.L41:
 397              		.loc 1 365 0 is_stmt 1
 398 006a 27B1     		cbz	r7, .L35
ARM GAS  /tmp/ccRKR4lc.s 			page 8


 399              		.loc 1 366 0
 400 006c 3006     		lsls	r0, r6, #24
 401 006e C6F30726 		ubfx	r6, r6, #8, #8
 402              	.LVL53:
 403 0072 46EA1046 		orr	r6, r6, r0, lsr #16
 404              	.LVL54:
 405              	.L35:
 406              		.loc 1 368 0
 407 0076 DBF80020 		ldr	r2, [fp, #0]
 408              	.LVL55:
 409              		.loc 1 371 0
 410 007a DAF80030 		ldr	r3, [sl, #0]
 411              	.LVL56:
 412              		.loc 1 369 0
 413 007e 91B2     		uxth	r1, r2
 414 0080 01EB1240 		add	r0, r1, r2, lsr #16
 415              		.loc 1 370 0
 416 0084 10FA83F2 		uxtah	r2, r0, r3
 417              	.LVL57:
 418              		.loc 1 372 0
 419 0088 02EB1343 		add	r3, r2, r3, lsr #16
 420              	.LVL58:
 421              		.loc 1 374 0
 422 008c 0198     		ldr	r0, [sp, #4]
 423              		.loc 1 373 0
 424 008e 9E19     		adds	r6, r3, r6
 425              	.LVL59:
 426              		.loc 1 374 0
 427 0090 FFF7FEFF 		bl	lwip_htons
 428              	.LVL60:
 429 0094 3618     		adds	r6, r6, r0
 430              	.LVL61:
 431              		.loc 1 375 0
 432 0096 BDF83000 		ldrh	r0, [sp, #48]
 433 009a FFF7FEFF 		bl	lwip_htons
 434              	.LVL62:
 435 009e 3118     		adds	r1, r6, r0
 436              	.LVL63:
 437              		.loc 1 379 0
 438 00a0 88B2     		uxth	r0, r1
 439 00a2 00EB1142 		add	r2, r0, r1, lsr #16
 440              	.LVL64:
 441              		.loc 1 380 0
 442 00a6 93B2     		uxth	r3, r2
 443              	.LVL65:
 444 00a8 03EB1241 		add	r1, r3, r2, lsr #16
 445              	.LVL66:
 446              		.loc 1 382 0
 447 00ac C843     		mvns	r0, r1
 448              		.loc 1 383 0
 449 00ae 80B2     		uxth	r0, r0
 450 00b0 03B0     		add	sp, sp, #12
 451 00b2 BDE8F08F 		pop	{r4, r5, r6, r7, r8, r9, sl, fp, pc}
 452              	.LVL67:
 453              	.L42:
 454              		.loc 1 345 0
 455 00b6 0646     		mov	r6, r0
ARM GAS  /tmp/ccRKR4lc.s 			page 9


 456 00b8 DDE7     		b	.L35
 457              	.L43:
 458 00ba 2E46     		mov	r6, r5
 459 00bc DBE7     		b	.L35
 460              		.cfi_endproc
 461              	.LFE9:
 462              		.size	inet_chksum_pseudo_partial, .-inet_chksum_pseudo_partial
 463 00be 00BF     		.section	.text.inet_chksum,"ax",%progbits
 464              		.align	2
 465              		.p2align 4,,15
 466              		.global	inet_chksum
 467              		.thumb
 468              		.thumb_func
 469              		.type	inet_chksum, %function
 470              	inet_chksum:
 471              	.LFB10:
 472              		.loc 1 397 0
 473              		.cfi_startproc
 474              		@ args = 0, pretend = 0, frame = 0
 475              		@ frame_needed = 0, uses_anonymous_args = 0
 476              	.LVL68:
 477 0000 08B5     		push	{r3, lr}
 478              	.LCFI5:
 479              		.cfi_def_cfa_offset 8
 480              		.cfi_offset 3, -8
 481              		.cfi_offset 14, -4
 482              		.loc 1 398 0
 483 0002 FFF7FEFF 		bl	lwip_standard_chksum
 484              	.LVL69:
 485 0006 C043     		mvns	r0, r0
 486              		.loc 1 399 0
 487 0008 80B2     		uxth	r0, r0
 488 000a 08BD     		pop	{r3, pc}
 489              		.cfi_endproc
 490              	.LFE10:
 491              		.size	inet_chksum, .-inet_chksum
 492 000c AFF30080 		.section	.text.inet_chksum_pbuf,"ax",%progbits
 493              		.align	2
 494              		.p2align 4,,15
 495              		.global	inet_chksum_pbuf
 496              		.thumb
 497              		.thumb_func
 498              		.type	inet_chksum_pbuf, %function
 499              	inet_chksum_pbuf:
 500              	.LFB11:
 501              		.loc 1 410 0
 502              		.cfi_startproc
 503              		@ args = 0, pretend = 0, frame = 0
 504              		@ frame_needed = 0, uses_anonymous_args = 0
 505              	.LVL70:
 506 0000 70B5     		push	{r4, r5, r6, lr}
 507              	.LCFI6:
 508              		.cfi_def_cfa_offset 16
 509              		.cfi_offset 4, -16
 510              		.cfi_offset 5, -12
 511              		.cfi_offset 6, -8
 512              		.cfi_offset 14, -4
ARM GAS  /tmp/ccRKR4lc.s 			page 10


 513              		.loc 1 417 0
 514 0002 20B3     		cbz	r0, .L54
 515 0004 0026     		movs	r6, #0
 516 0006 0446     		mov	r4, r0
 517 0008 3546     		mov	r5, r6
 518              	.LVL71:
 519              	.L52:
 520              		.loc 1 418 0
 521 000a 6189     		ldrh	r1, [r4, #10]
 522 000c 6068     		ldr	r0, [r4, #4]
 523 000e FFF7FEFF 		bl	lwip_standard_chksum
 524              	.LVL72:
 525              		.loc 1 420 0
 526 0012 6389     		ldrh	r3, [r4, #10]
 527              		.loc 1 418 0
 528 0014 2818     		adds	r0, r5, r0
 529              	.LVL73:
 530              		.loc 1 419 0
 531 0016 85B2     		uxth	r5, r0
 532              		.loc 1 420 0
 533 0018 D907     		lsls	r1, r3, #31
 534              		.loc 1 419 0
 535 001a 05EB1045 		add	r5, r5, r0, lsr #16
 536              	.LVL74:
 537              		.loc 1 420 0
 538 001e 07D5     		bpl	.L51
 539              		.loc 1 421 0
 540 0020 C6F10106 		rsb	r6, r6, #1
 541              		.loc 1 422 0
 542 0024 2906     		lsls	r1, r5, #24
 543 0026 C5F30722 		ubfx	r2, r5, #8, #8
 544              		.loc 1 421 0
 545 002a F6B2     		uxtb	r6, r6
 546              	.LVL75:
 547              		.loc 1 422 0
 548 002c 42EA1145 		orr	r5, r2, r1, lsr #16
 549              	.LVL76:
 550              	.L51:
 551              		.loc 1 417 0
 552 0030 2468     		ldr	r4, [r4, #0]
 553              	.LVL77:
 554 0032 002C     		cmp	r4, #0
 555 0034 E9D1     		bne	.L52
 556              		.loc 1 426 0
 557 0036 3EB1     		cbz	r6, .L59
 558              		.loc 1 427 0
 559 0038 2806     		lsls	r0, r5, #24
 560 003a C5F30725 		ubfx	r5, r5, #8, #8
 561              	.LVL78:
 562 003e 45EA1041 		orr	r1, r5, r0, lsr #16
 563              	.LVL79:
 564 0042 CA43     		mvns	r2, r1
 565 0044 90B2     		uxth	r0, r2
 566 0046 70BD     		pop	{r4, r5, r6, pc}
 567              	.LVL80:
 568              	.L59:
 569 0048 EB43     		mvns	r3, r5
ARM GAS  /tmp/ccRKR4lc.s 			page 11


 570 004a 98B2     		uxth	r0, r3
 571 004c 70BD     		pop	{r4, r5, r6, pc}
 572              	.LVL81:
 573              	.L54:
 574              		.loc 1 417 0
 575 004e 4FF6FF70 		movw	r0, #65535
 576              	.LVL82:
 577              		.loc 1 430 0
 578 0052 70BD     		pop	{r4, r5, r6, pc}
 579              		.cfi_endproc
 580              	.LFE11:
 581              		.size	inet_chksum_pbuf, .-inet_chksum_pbuf
 582 0054 AFF30080 		.text
 582      AFF30080 
 582      AFF30080 
 583              	.Letext0:
 584              		.file 2 "/usr/bin/../lib/gcc/arm-none-eabi/4.7.4/../../../../arm-none-eabi/include/stdint.h"
 585              		.file 3 "../../os/various/lwip_bindings/arch/cc.h"
 586              		.file 4 "../../ext/lwip/src/include/lwip/pbuf.h"
 587              		.file 5 "../../ext/lwip/src/include/ipv4/lwip/ip_addr.h"
 588              		.file 6 "../../ext/lwip/src/include/lwip/def.h"
 589              		.file 7 "../../os/ports/GCC/ARMCMx/chcore_v7m.h"