ARM GAS  /tmp/ccRKR4lc.s 			page 1


   1              		.syntax unified
   2              		.cpu cortex-m4
   3              		.fpu softvfp
   4              		.eabi_attribute 20, 1
   5              		.eabi_attribute 21, 1
   6              		.eabi_attribute 23, 3
   7              		.eabi_attribute 24, 1
   8              		.eabi_attribute 25, 1
   9              		.eabi_attribute 26, 1
  10              		.eabi_attribute 30, 2
  11              		.eabi_attribute 34, 1
  12              		.eabi_attribute 18, 4
  13              		.thumb
  14              		.file	"inet_chksum.c"
  15              		.text
  16              	.Ltext0:
  17              		.cfi_sections	.debug_frame
  18              		.section	.text.lwip_standard_chksum,"ax",%progbits
  19              		.align	2
  20              		.p2align 4,,15
  21              		.thumb
  22              		.thumb_func
  23              		.type	lwip_standard_chksum, %function
  24              	lwip_standard_chksum:
  25              	.LFB7:
  26              		.file 1 "../../ext/lwip/src/core/ipv4/inet_chksum.c"
  27              		.loc 1 136 0
  28              		.cfi_startproc
  29              		@ args = 0, pretend = 0, frame = 8
  30              		@ frame_needed = 0, uses_anonymous_args = 0
  31              		@ link register save eliminated.
  32              	.LVL0:
  33 0000 F0B4     		push	{r4, r5, r6, r7}
  34              	.LCFI0:
  35              		.cfi_def_cfa_offset 16
  36              		.cfi_offset 4, -16
  37              		.cfi_offset 5, -12
  38              		.cfi_offset 6, -8
  39              		.cfi_offset 7, -4
  40 0002 82B0     		sub	sp, sp, #8
  41              	.LCFI1:
  42              		.cfi_def_cfa_offset 24
  43              		.loc 1 138 0
  44 0004 0025     		movs	r5, #0
  45              	.LVL1:
  46              		.loc 1 143 0
  47 0006 10F00107 		ands	r7, r0, #1
  48              		.loc 1 138 0
  49 000a ADF80650 		strh	r5, [sp, #6]	@ movhi
  50              	.LVL2:
  51              		.loc 1 143 0
  52 000e 06D0     		beq	.L2
  53              		.loc 1 143 0 is_stmt 0 discriminator 1
  54 0010 A942     		cmp	r1, r5
  55 0012 27DD     		ble	.L3
  56              		.loc 1 144 0 is_stmt 1
  57 0014 10F8013B 		ldrb	r3, [r0], #1	@ zero_extendqisi2
ARM GAS  /tmp/ccRKR4lc.s 			page 2


  58              	.LVL3:
  59              		.loc 1 145 0
  60 0018 0139     		subs	r1, r1, #1
  61              	.LVL4:
  62              		.loc 1 144 0
  63 001a 8DF80730 		strb	r3, [sp, #7]
  64              	.LVL5:
  65              	.L2:
  66              		.loc 1 150 0
  67 001e 0129     		cmp	r1, #1
  68 0020 38DD     		ble	.L9
  69 0022 8C1E     		subs	r4, r1, #2
  70              		.loc 1 152 0
  71 0024 2246     		mov	r2, r4
  72              		.loc 1 151 0
  73 0026 0346     		mov	r3, r0
  74              		.loc 1 150 0
  75 0028 012A     		cmp	r2, #1
  76 002a C4F34004 		ubfx	r4, r4, #1, #1
  77              		.loc 1 151 0
  78 002e 33F8025B 		ldrh	r5, [r3], #2
  79              	.LVL6:
  80              		.loc 1 150 0
  81 0032 10DD     		ble	.L20
  82 0034 2CB1     		cbz	r4, .L4
  83              		.loc 1 151 0
  84 0036 33F8024B 		ldrh	r4, [r3], #2
  85              		.loc 1 152 0
  86 003a 023A     		subs	r2, r2, #2
  87              		.loc 1 150 0
  88 003c 012A     		cmp	r2, #1
  89              		.loc 1 151 0
  90 003e 2544     		add	r5, r5, r4
  91              	.LVL7:
  92              		.loc 1 150 0
  93 0040 09DD     		ble	.L20
  94              	.L4:
  95              		.loc 1 151 0
  96 0042 1C46     		mov	r4, r3
  97 0044 5B88     		ldrh	r3, [r3, #2]
  98 0046 34F8026B 		ldrh	r6, [r4], #2
  99              		.loc 1 152 0
 100 004a 043A     		subs	r2, r2, #4
 101              		.loc 1 151 0
 102 004c AD19     		adds	r5, r5, r6
 103 004e ED18     		adds	r5, r5, r3
 104 0050 A31C     		adds	r3, r4, #2
 105              		.loc 1 150 0
 106 0052 012A     		cmp	r2, #1
 107 0054 F5DC     		bgt	.L4
 108              	.L20:
 109              		.loc 1 135 0
 110 0056 0239     		subs	r1, r1, #2
 111 0058 4B08     		lsrs	r3, r1, #1
 112 005a 5A1C     		adds	r2, r3, #1
 113 005c 00EB4200 		add	r0, r0, r2, lsl #1
 114              	.LVL8:
ARM GAS  /tmp/ccRKR4lc.s 			page 3


 115 0060 A1EB4301 		sub	r1, r1, r3, lsl #1
 116              	.L3:
 117              		.loc 1 156 0
 118 0064 0129     		cmp	r1, #1
 119              		.loc 1 157 0
 120 0066 04BF     		itt	eq
 121 0068 0378     		ldrbeq	r3, [r0, #0]	@ zero_extendqisi2
 122 006a 8DF80630 		strbeq	r3, [sp, #6]
 123              		.loc 1 161 0
 124 006e BDF80600 		ldrh	r0, [sp, #6]
 125              	.LVL9:
 126 0072 2B18     		adds	r3, r5, r0
 127              	.LVL10:
 128              		.loc 1 165 0
 129 0074 9DB2     		uxth	r5, r3
 130 0076 05EB1345 		add	r5, r5, r3, lsr #16
 131              	.LVL11:
 132              		.loc 1 166 0
 133 007a A9B2     		uxth	r1, r5
 134 007c 01EB1543 		add	r3, r1, r5, lsr #16
 135              	.LVL12:
 136              		.loc 1 169 0
 137 0080 27B1     		cbz	r7, .L6
 138              		.loc 1 170 0
 139 0082 1A06     		lsls	r2, r3, #24
 140 0084 C3F30720 		ubfx	r0, r3, #8, #8
 141              	.LVL13:
 142 0088 40EA1243 		orr	r3, r0, r2, lsr #16
 143              	.LVL14:
 144              	.L6:
 145              		.loc 1 174 0
 146 008c 98B2     		uxth	r0, r3
 147              	.LVL15:
 148 008e 02B0     		add	sp, sp, #8
 149 0090 F0BC     		pop	{r4, r5, r6, r7}
 150 0092 7047     		bx	lr
 151              	.LVL16:
 152              	.L9:
 153              		.loc 1 139 0
 154 0094 0025     		movs	r5, #0
 155 0096 E5E7     		b	.L3
 156              		.cfi_endproc
 157              	.LFE7:
 158              		.size	lwip_standard_chksum, .-lwip_standard_chksum
 159 0098 AFF30080 		.section	.text.inet_chksum_pseudo,"ax",%progbits
 159      AFF30080 
 160              		.align	2
 161              		.p2align 4,,15
 162              		.global	inet_chksum_pseudo
 163              		.thumb
 164              		.thumb_func
 165              		.type	inet_chksum_pseudo, %function
 166              	inet_chksum_pseudo:
 167              	.LFB8:
 168              		.loc 1 275 0
 169              		.cfi_startproc
 170              		@ args = 4, pretend = 0, frame = 0
ARM GAS  /tmp/ccRKR4lc.s 			page 4


 171              		@ frame_needed = 0, uses_anonymous_args = 0
 172              	.LVL17:
 173 0000 2DE9F047 		push	{r4, r5, r6, r7, r8, r9, sl, lr}
 174              	.LCFI2:
 175              		.cfi_def_cfa_offset 32
 176              		.cfi_offset 4, -32
 177              		.cfi_offset 5, -28
 178              		.cfi_offset 6, -24
 179              		.cfi_offset 7, -20
 180              		.cfi_offset 8, -16
 181              		.cfi_offset 9, -12
 182              		.cfi_offset 10, -8
 183              		.cfi_offset 14, -4
 184              		.loc 1 275 0
 185 0004 8A46     		mov	sl, r1
 186 0006 9146     		mov	r9, r2
 187 0008 9846     		mov	r8, r3
 188              		.loc 1 284 0
 189 000a 0028     		cmp	r0, #0
 190 000c 3DD0     		beq	.L26
 191 000e 0027     		movs	r7, #0
 192 0010 0446     		mov	r4, r0
 193 0012 3D46     		mov	r5, r7
 194              	.LVL18:
 195              	.L25:
 196              		.loc 1 287 0
 197 0014 6068     		ldr	r0, [r4, #4]
 198 0016 6189     		ldrh	r1, [r4, #10]
 199 0018 FFF7FEFF 		bl	lwip_standard_chksum
 200              	.LVL19:
 201              		.loc 1 292 0
 202 001c 6689     		ldrh	r6, [r4, #10]
 203              		.loc 1 287 0
 204 001e 2818     		adds	r0, r5, r0
 205              	.LVL20:
 206              		.loc 1 291 0
 207 0020 83B2     		uxth	r3, r0
 208 0022 03EB1045 		add	r5, r3, r0, lsr #16
 209              	.LVL21:
 210              		.loc 1 292 0
 211 0026 F307     		lsls	r3, r6, #31
 212 0028 07D5     		bpl	.L24
 213              		.loc 1 293 0
 214 002a C7F10107 		rsb	r7, r7, #1
 215              		.loc 1 294 0
 216 002e 2906     		lsls	r1, r5, #24
 217 0030 C5F30722 		ubfx	r2, r5, #8, #8
 218              		.loc 1 293 0
 219 0034 FFB2     		uxtb	r7, r7
 220              	.LVL22:
 221              		.loc 1 294 0
 222 0036 42EA1145 		orr	r5, r2, r1, lsr #16
 223              	.LVL23:
 224              	.L24:
 225              		.loc 1 284 0
 226 003a 2468     		ldr	r4, [r4, #0]
 227              	.LVL24:
ARM GAS  /tmp/ccRKR4lc.s 			page 5


 228 003c 002C     		cmp	r4, #0
 229 003e E9D1     		bne	.L25
 230              		.loc 1 299 0
 231 0040 27B1     		cbz	r7, .L23
 232              		.loc 1 300 0
 233 0042 2806     		lsls	r0, r5, #24
 234 0044 C5F30725 		ubfx	r5, r5, #8, #8
 235              	.LVL25:
 236 0048 45EA1045 		orr	r5, r5, r0, lsr #16
 237              	.LVL26:
 238              	.L23:
 239              		.loc 1 302 0
 240 004c DAF80020 		ldr	r2, [sl, #0]
 241              	.LVL27:
 242              		.loc 1 305 0
 243 0050 D9F80030 		ldr	r3, [r9, #0]
 244              	.LVL28:
 245              		.loc 1 303 0
 246 0054 91B2     		uxth	r1, r2
 247 0056 01EB1240 		add	r0, r1, r2, lsr #16
 248              		.loc 1 304 0
 249 005a 10FA83F2 		uxtah	r2, r0, r3
 250              	.LVL29:
 251              		.loc 1 306 0
 252 005e 02EB1343 		add	r3, r2, r3, lsr #16
 253              	.LVL30:
 254              		.loc 1 308 0
 255 0062 4046     		mov	r0, r8
 256              		.loc 1 307 0
 257 0064 5D19     		adds	r5, r3, r5
 258              	.LVL31:
 259              		.loc 1 308 0
 260 0066 FFF7FEFF 		bl	lwip_htons
 261              	.LVL32:
 262 006a 2D18     		adds	r5, r5, r0
 263              	.LVL33:
 264              		.loc 1 309 0
 265 006c BDF82000 		ldrh	r0, [sp, #32]
 266 0070 FFF7FEFF 		bl	lwip_htons
 267              	.LVL34:
 268 0074 2918     		adds	r1, r5, r0
 269              	.LVL35:
 270              		.loc 1 313 0
 271 0076 88B2     		uxth	r0, r1
 272 0078 00EB1142 		add	r2, r0, r1, lsr #16
 273              	.LVL36:
 274              		.loc 1 314 0
 275 007c 93B2     		uxth	r3, r2
 276              	.LVL37:
 277 007e 03EB1241 		add	r1, r3, r2, lsr #16
 278              	.LVL38:
 279              		.loc 1 316 0
 280 0082 C843     		mvns	r0, r1
 281              		.loc 1 317 0
 282 0084 80B2     		uxth	r0, r0
 283 0086 BDE8F087 		pop	{r4, r5, r6, r7, r8, r9, sl, pc}
 284              	.LVL39:
ARM GAS  /tmp/ccRKR4lc.s 			page 6


 285              	.L26:
 286              		.loc 1 281 0
 287 008a 0546     		mov	r5, r0
 288 008c DEE7     		b	.L23
 289              		.cfi_endproc
 290              	.LFE8:
 291              		.size	inet_chksum_pseudo, .-inet_chksum_pseudo
 292 008e 00BF     		.section	.text.inet_chksum_pseudo_partial,"ax",%progbits
 293              		.align	2
 294              		.p2align 4,,15
 295              		.global	inet_chksum_pseudo_partial
 296              		.thumb
 297              		.thumb_func
 298              		.type	inet_chksum_pseudo_partial, %function
 299              	inet_chksum_pseudo_partial:
 300              	.LFB9:
 301              		.loc 1 335 0
 302              		.cfi_startproc
 303              		@ args = 8, pretend = 0, frame = 8
 304              		@ frame_needed = 0, uses_anonymous_args = 0
 305              	.LVL40:
 306 0000 2DE9F04F 		push	{r4, r5, r6, r7, r8, r9, sl, fp, lr}
 307              	.LCFI3:
 308              		.cfi_def_cfa_offset 36
 309              		.cfi_offset 4, -36
 310              		.cfi_offset 5, -32
 311              		.cfi_offset 6, -28
 312              		.cfi_offset 7, -24
 313              		.cfi_offset 8, -20
 314              		.cfi_offset 9, -16
 315              		.cfi_offset 10, -12
 316              		.cfi_offset 11, -8
 317              		.cfi_offset 14, -4
 318 0004 83B0     		sub	sp, sp, #12
 319              	.LCFI4:
 320              		.cfi_def_cfa_offset 48
 321              		.loc 1 335 0
 322 0006 8B46     		mov	fp, r1
 323 0008 9246     		mov	sl, r2
 324 000a 0193     		str	r3, [sp, #4]
 325 000c BDF83450 		ldrh	r5, [sp, #52]
 326              		.loc 1 345 0
 327 0010 0028     		cmp	r0, #0
 328 0012 50D0     		beq	.L42
 329 0014 002D     		cmp	r5, #0
 330 0016 50D0     		beq	.L43
 331 0018 0027     		movs	r7, #0
 332 001a 0446     		mov	r4, r0
 333 001c 3E46     		mov	r6, r7
 334              		.loc 1 354 0
 335 001e 47F6FE78 		movw	r8, #32766
 336 0022 10E0     		b	.L40
 337              	.LVL41:
 338              	.L36:
 339              		.loc 1 358 0
 340 0024 6089     		ldrh	r0, [r4, #10]
 341              		.loc 1 357 0
ARM GAS  /tmp/ccRKR4lc.s 			page 7


 342 0026 B2B2     		uxth	r2, r6
 343 0028 02EB1646 		add	r6, r2, r6, lsr #16
 344              	.LVL42:
 345              		.loc 1 358 0
 346 002c C207     		lsls	r2, r0, #31
 347 002e 07D5     		bpl	.L37
 348              		.loc 1 359 0
 349 0030 C7F10107 		rsb	r7, r7, #1
 350              		.loc 1 360 0
 351 0034 3106     		lsls	r1, r6, #24
 352 0036 C6F30723 		ubfx	r3, r6, #8, #8
 353              		.loc 1 359 0
 354 003a FFB2     		uxtb	r7, r7
 355              	.LVL43:
 356              		.loc 1 360 0
 357 003c 43EA1146 		orr	r6, r3, r1, lsr #16
 358              	.LVL44:
 359              	.L37:
 360              		.loc 1 345 0
 361 0040 2468     		ldr	r4, [r4, #0]
 362              	.LVL45:
 363 0042 94B1     		cbz	r4, .L41
 364              		.loc 1 345 0 is_stmt 0 discriminator 2
 365 0044 8DB1     		cbz	r5, .L41
 366              	.LVL46:
 367              	.L40:
 368              		.loc 1 348 0 is_stmt 1
 369 0046 6389     		ldrh	r3, [r4, #10]
 370              	.LVL47:
 371              		.loc 1 352 0
 372 0048 6068     		ldr	r0, [r4, #4]
 373 004a 9D42     		cmp	r5, r3
 374 004c 34BF     		ite	cc
 375 004e A946     		movcc	r9, r5
 376 0050 9946     		movcs	r9, r3
 377              	.LVL48:
 378 0052 4946     		mov	r1, r9
 379 0054 FFF7FEFF 		bl	lwip_standard_chksum
 380              	.LVL49:
 381              		.loc 1 353 0
 382 0058 C9EB0505 		rsb	r5, r9, r5
 383 005c ADB2     		uxth	r5, r5
 384              		.loc 1 354 0
 385 005e 4545     		cmp	r5, r8
 386              		.loc 1 352 0
 387 0060 0644     		add	r6, r6, r0
 388              	.LVL50:
 389              		.loc 1 354 0
 390 0062 DFD9     		bls	.L36
 391              		.loc 1 354 0 is_stmt 0 discriminator 1
 392 0064 FFF7FEFF 		bl	port_halt
 393              	.LVL51:
 394 0068 DCE7     		b	.L36
 395              	.LVL52:
 396              	.L41:
 397              		.loc 1 365 0 is_stmt 1
 398 006a 27B1     		cbz	r7, .L35
ARM GAS  /tmp/ccRKR4lc.s 			page 8


 399              		.loc 1 366 0
 400 006c 3006     		lsls	r0, r6, #24
 401 006e C6F30726 		ubfx	r6, r6, #8, #8
 402              	.LVL53:
 403 0072 46EA1046 		orr	r6, r6, r0, lsr #16
 404              	.LVL54:
 405              	.L35:
 406              		.loc 1 368 0
 407 0076 DBF80020 		ldr	r2, [fp, #0]
 408              	.LVL55:
 409              		.loc 1 371 0
 410 007a DAF80030 		ldr	r3, [sl, #0]
 411              	.LVL56:
 412              		.loc 1 369 0
 413 007e 91B2     		uxth	r1, r2
 414 0080 01EB1240 		add	r0, r1, r2, lsr #16
 415              		.loc 1 370 0
 416 0084 10FA83F2 		uxtah	r2, r0, r3
 417              	.LVL57:
 418              		.loc 1 372 0
 419 0088 02EB1343 		add	r3, r2, r3, lsr #16
 420              	.LVL58:
 421              		.loc 1 374 0
 422 008c 0198     		ldr	r0, [sp, #4]
 423              		.loc 1 373 0
 424 008e 9E19     		adds	r6, r3, r6
 425              	.LVL59:
 426              		.loc 1 374 0
 427 0090 FFF7FEFF 		bl	lwip_htons
 428              	.LVL60:
 429 0094 3618     		adds	r6, r6, r0
 430              	.LVL61:
 431              		.loc 1 375 0
 432 0096 BDF83000 		ldrh	r0, [sp, #48]
 433 009a FFF7FEFF 		bl	lwip_htons
 434              	.LVL62:
 435 009e 3118     		adds	r1, r6, r0
 436              	.LVL63:
 437              		.loc 1 379 0
 438 00a0 88B2     		uxth	r0, r1
 439 00a2 00EB1142 		add	r2, r0, r1, lsr #16
 440              	.LVL64:
 441              		.loc 1 380 0
 442 00a6 93B2     		uxth	r3, r2
 443              	.LVL65:
 444 00a8 03EB1241 		add	r1, r3, r2, lsr #16
 445              	.LVL66:
 446              		.loc 1 382 0
 447 00ac C843     		mvns	r0, r1
 448              		.loc 1 383 0
 449 00ae 80B2     		uxth	r0, r0
 450 00b0 03B0     		add	sp, sp, #12
 451 00b2 BDE8F08F 		pop	{r4, r5, r6, r7, r8, r9, sl, fp, pc}
 452              	.LVL67:
 453              	.L42:
 454              		.loc 1 345 0
 455 00b6 0646     		mov	r6, r0
ARM GAS  /tmp/ccRKR4lc.s 			page 9


 456 00b8 DDE7     		b	.L35
 457              	.L43:
 458 00ba 2E46     		mov	r6, r5
 459 00bc DBE7     		b	.L35
 460              		.cfi_endproc
 461              	.LFE9:
 462              		.size	inet_chksum_pseudo_partial, .-inet_chksum_pseudo_partial
 463 00be 00BF     		.section	.text.inet_chksum,"ax",%progbits
 464              		.align	2
 465              		.p2align 4,,15
 466              		.global	inet_chksum
 467              		.thumb
 468              		.thumb_func
 469              		.type	inet_chksum, %function
 470              	inet_chksum:
 471              	.LFB10:
 472              		.loc 1 397 0
 473              		.cfi_startproc
 474              		@ args = 0, pretend = 0, frame = 0
 475              		@ frame_needed = 0, uses_anonymous_args = 0
 476              	.LVL68:
 477 0000 08B5     		push	{r3, lr}
 478              	.LCFI5:
 479              		.cfi_def_cfa_offset 8
 480              		.cfi_offset 3, -8
 481              		.cfi_offset 14, -4
 482              		.loc 1 398 0
 483 0002 FFF7FEFF 		bl	lwip_standard_chksum
 484              	.LVL69:
 485 0006 C043     		mvns	r0, r0
 486              		.loc 1 399 0
 487 0008 80B2     		uxth	r0, r0
 488 000a 08BD     		pop	{r3, pc}
 489              		.cfi_endproc
 490              	.LFE10:
 491              		.size	inet_chksum, .-inet_chksum
 492 000c AFF30080 		.section	.text.inet_chksum_pbuf,"ax",%progbits
 493              		.align	2
 494              		.p2align 4,,15
 495              		.global	inet_chksum_pbuf
 496              		.thumb
 497              		.thumb_func
 498              		.type	inet_chksum_pbuf, %function
 499              	inet_chksum_pbuf:
 500              	.LFB11:
 501              		.loc 1 410 0
 502              		.cfi_startproc
 503              		@ args = 0, pretend = 0, frame = 0
 504              		@ frame_needed = 0, uses_anonymous_args = 0
 505              	.LVL70:
 506 0000 70B5     		push	{r4, r5, r6, lr}
 507              	.LCFI6:
 508              		.cfi_def_cfa_offset 16
 509              		.cfi_offset 4, -16
 510              		.cfi_offset 5, -12
 511              		.cfi_offset 6, -8
 512              		.cfi_offset 14, -4
ARM GAS  /tmp/ccRKR4lc.s 			page 10


 513              		.loc 1 417 0
 514 0002 20B3     		cbz	r0, .L54
 515 0004 0026     		movs	r6, #0
 516 0006 0446     		mov	r4, r0
 517 0008 3546     		mov	r5, r6
 518              	.LVL71:
 519              	.L52:
 520              		.loc 1 418 0
 521 000a 6189     		ldrh	r1, [r4, #10]
 522 000c 6068     		ldr	r0, [r4, #4]
 523 000e FFF7FEFF 		bl	lwip_standard_chksum
 524              	.LVL72:
 525              		.loc 1 420 0
 526 0012 6389     		ldrh	r3, [r4, #10]
 527              		.loc 1 418 0
 528 0014 2818     		adds	r0, r5, r0
 529              	.LVL73:
 530              		.loc 1 419 0
 531 0016 85B2     		uxth	r5, r0
 532              		.loc 1 420 0
 533 0018 D907     		lsls	r1, r3, #31
 534              		.loc 1 419 0
 535 001a 05EB1045 		add	r5, r5, r0, lsr #16
 536              	.LVL74:
 537              		.loc 1 420 0
 538 001e 07D5     		bpl	.L51
 539              		.loc 1 421 0
 540 0020 C6F10106 		rsb	r6, r6, #1
 541              		.loc 1 422 0
 542 0024 2906     		lsls	r1, r5, #24
 543 0026 C5F30722 		ubfx	r2, r5, #8, #8
 544              		.loc 1 421 0
 545 002a F6B2     		uxtb	r6, r6
 546              	.LVL75:
 547              		.loc 1 422 0
 548 002c 42EA1145 		orr	r5, r2, r1, lsr #16
 549              	.LVL76:
 550              	.L51:
 551              		.loc 1 417 0
 552 0030 2468     		ldr	r4, [r4, #0]
 553              	.LVL77:
 554 0032 002C     		cmp	r4, #0
 555 0034 E9D1     		bne	.L52
 556              		.loc 1 426 0
 557 0036 3EB1     		cbz	r6, .L59
 558              		.loc 1 427 0
 559 0038 2806     		lsls	r0, r5, #24
 560 003a C5F30725 		ubfx	r5, r5, #8, #8
 561              	.LVL78:
 562 003e 45EA1041 		orr	r1, r5, r0, lsr #16
 563              	.LVL79:
 564 0042 CA43     		mvns	r2, r1
 565 0044 90B2     		uxth	r0, r2
 566 0046 70BD     		pop	{r4, r5, r6, pc}
 567              	.LVL80:
 568              	.L59:
 569 0048 EB43     		mvns	r3, r5
ARM GAS  /tmp/ccRKR4lc.s 			page 11


 570 004a 98B2     		uxth	r0, r3
 571 004c 70BD     		pop	{r4, r5, r6, pc}
 572              	.LVL81:
 573              	.L54:
 574              		.loc 1 417 0
 575 004e 4FF6FF70 		movw	r0, #65535
 576              	.LVL82:
 577              		.loc 1 430 0
 578 0052 70BD     		pop	{r4, r5, r6, pc}
 579              		.cfi_endproc
 580              	.LFE11:
 581              		.size	inet_chksum_pbuf, .-inet_chksum_pbuf
 582 0054 AFF30080 		.text
 582      AFF30080 
 582      AFF30080 
 583              	.Letext0:
 584              		.file 2 "/usr/bin/../lib/gcc/arm-none-eabi/4.7.4/../../../../arm-none-eabi/include/stdint.h"
 585              		.file 3 "../../os/various/lwip_bindings/arch/cc.h"
 586              		.file 4 "../../ext/lwip/src/include/lwip/pbuf.h"
 587              		.file 5 "../../ext/lwip/src/include/ipv4/lwip/ip_addr.h"
 588              		.file 6 "../../ext/lwip/src/include/lwip/def.h"
 589              		.file 7 "../../os/ports/GCC/ARMCMx/chcore_v7m.h"
 590              		.section	.debug_info,"",%progbits
 591              	.Ldebug_info0:
 592 0000 C1040000 		.4byte	0x4c1
 593 0004 0200     		.2byte	0x2
 594 0006 00000000 		.4byte	.Ldebug_abbrev0
 595 000a 04       		.byte	0x4
 596 000b 01       		.uleb128 0x1
 597 000c 36010000 		.4byte	.LASF39
 598 0010 01       		.byte	0x1
 599 0011 3B000000 		.4byte	.LASF40
 600 0015 D1010000 		.4byte	.LASF41
 601 0019 00000000 		.4byte	.Ldebug_ranges0+0
 602 001d 00000000 		.4byte	0
 603 0021 00000000 		.4byte	0
 604 0025 00000000 		.4byte	.Ldebug_line0
 605 0029 02       		.uleb128 0x2
 606 002a 04       		.byte	0x4
 607 002b 05       		.byte	0x5
 608 002c 696E7400 		.ascii	"int\000"
 609 0030 03       		.uleb128 0x3
 610 0031 04       		.byte	0x4
 611 0032 07       		.byte	0x7
 612 0033 08010000 		.4byte	.LASF0
 613 0037 03       		.uleb128 0x3
 614 0038 01       		.byte	0x1
 615 0039 06       		.byte	0x6
 616 003a A4000000 		.4byte	.LASF1
 617 003e 04       		.uleb128 0x4
 618 003f 96010000 		.4byte	.LASF4
 619 0043 02       		.byte	0x2
 620 0044 2A       		.byte	0x2a
 621 0045 49000000 		.4byte	0x49
 622 0049 03       		.uleb128 0x3
 623 004a 01       		.byte	0x1
 624 004b 08       		.byte	0x8
ARM GAS  /tmp/ccRKR4lc.s 			page 12


 625 004c B8000000 		.4byte	.LASF2
 626 0050 03       		.uleb128 0x3
 627 0051 02       		.byte	0x2
 628 0052 05       		.byte	0x5
 629 0053 2F020000 		.4byte	.LASF3
 630 0057 04       		.uleb128 0x4
 631 0058 39020000 		.4byte	.LASF5
 632 005c 02       		.byte	0x2
 633 005d 36       		.byte	0x36
 634 005e 62000000 		.4byte	0x62
 635 0062 03       		.uleb128 0x3
 636 0063 02       		.byte	0x2
 637 0064 07       		.byte	0x7
 638 0065 66000000 		.4byte	.LASF6
 639 0069 03       		.uleb128 0x3
 640 006a 04       		.byte	0x4
 641 006b 05       		.byte	0x5
 642 006c 4B020000 		.4byte	.LASF7
 643 0070 04       		.uleb128 0x4
 644 0071 42020000 		.4byte	.LASF8
 645 0075 02       		.byte	0x2
 646 0076 50       		.byte	0x50
 647 0077 7B000000 		.4byte	0x7b
 648 007b 03       		.uleb128 0x3
 649 007c 04       		.byte	0x4
 650 007d 07       		.byte	0x7
 651 007e C6000000 		.4byte	.LASF9
 652 0082 03       		.uleb128 0x3
 653 0083 08       		.byte	0x8
 654 0084 05       		.byte	0x5
 655 0085 17020000 		.4byte	.LASF10
 656 0089 03       		.uleb128 0x3
 657 008a 08       		.byte	0x8
 658 008b 07       		.byte	0x7
 659 008c 7F010000 		.4byte	.LASF11
 660 0090 03       		.uleb128 0x3
 661 0091 01       		.byte	0x1
 662 0092 02       		.byte	0x2
 663 0093 5E020000 		.4byte	.LASF12
 664 0097 05       		.uleb128 0x5
 665 0098 04       		.byte	0x4
 666 0099 03       		.uleb128 0x3
 667 009a 04       		.byte	0x4
 668 009b 07       		.byte	0x7
 669 009c C8010000 		.4byte	.LASF13
 670 00a0 03       		.uleb128 0x3
 671 00a1 01       		.byte	0x1
 672 00a2 08       		.byte	0x8
 673 00a3 25020000 		.4byte	.LASF14
 674 00a7 04       		.uleb128 0x4
 675 00a8 9E010000 		.4byte	.LASF15
 676 00ac 03       		.byte	0x3
 677 00ad 38       		.byte	0x38
 678 00ae 3E000000 		.4byte	0x3e
 679 00b2 04       		.uleb128 0x4
 680 00b3 EA000000 		.4byte	.LASF16
 681 00b7 03       		.byte	0x3
ARM GAS  /tmp/ccRKR4lc.s 			page 13


 682 00b8 3A       		.byte	0x3a
 683 00b9 57000000 		.4byte	0x57
 684 00bd 04       		.uleb128 0x4
 685 00be F0000000 		.4byte	.LASF17
 686 00c2 03       		.byte	0x3
 687 00c3 3C       		.byte	0x3c
 688 00c4 70000000 		.4byte	0x70
 689 00c8 04       		.uleb128 0x4
 690 00c9 16000000 		.4byte	.LASF18
 691 00cd 03       		.byte	0x3
 692 00ce 3E       		.byte	0x3e
 693 00cf 70000000 		.4byte	0x70
 694 00d3 06       		.uleb128 0x6
 695 00d4 DD000000 		.4byte	.LASF24
 696 00d8 10       		.byte	0x10
 697 00d9 04       		.byte	0x4
 698 00da 4F       		.byte	0x4f
 699 00db 42010000 		.4byte	0x142
 700 00df 07       		.uleb128 0x7
 701 00e0 11000000 		.4byte	.LASF19
 702 00e4 04       		.byte	0x4
 703 00e5 51       		.byte	0x51
 704 00e6 42010000 		.4byte	0x142
 705 00ea 02       		.byte	0x2
 706 00eb 23       		.byte	0x23
 707 00ec 00       		.uleb128 0
 708 00ed 07       		.uleb128 0x7
 709 00ee B6010000 		.4byte	.LASF20
 710 00f2 04       		.byte	0x4
 711 00f3 54       		.byte	0x54
 712 00f4 97000000 		.4byte	0x97
 713 00f8 02       		.byte	0x2
 714 00f9 23       		.byte	0x23
 715 00fa 04       		.uleb128 0x4
 716 00fb 07       		.uleb128 0x7
 717 00fc F6000000 		.4byte	.LASF21
 718 0100 04       		.byte	0x4
 719 0101 5D       		.byte	0x5d
 720 0102 B2000000 		.4byte	0xb2
 721 0106 02       		.byte	0x2
 722 0107 23       		.byte	0x23
 723 0108 08       		.uleb128 0x8
 724 0109 08       		.uleb128 0x8
 725 010a 6C656E00 		.ascii	"len\000"
 726 010e 04       		.byte	0x4
 727 010f 60       		.byte	0x60
 728 0110 B2000000 		.4byte	0xb2
 729 0114 02       		.byte	0x2
 730 0115 23       		.byte	0x23
 731 0116 0A       		.uleb128 0xa
 732 0117 07       		.uleb128 0x7
 733 0118 2A020000 		.4byte	.LASF22
 734 011c 04       		.byte	0x4
 735 011d 63       		.byte	0x63
 736 011e A7000000 		.4byte	0xa7
 737 0122 02       		.byte	0x2
 738 0123 23       		.byte	0x23
ARM GAS  /tmp/ccRKR4lc.s 			page 14


 739 0124 0C       		.uleb128 0xc
 740 0125 07       		.uleb128 0x7
 741 0126 15010000 		.4byte	.LASF23
 742 012a 04       		.byte	0x4
 743 012b 66       		.byte	0x66
 744 012c A7000000 		.4byte	0xa7
 745 0130 02       		.byte	0x2
 746 0131 23       		.byte	0x23
 747 0132 0D       		.uleb128 0xd
 748 0133 08       		.uleb128 0x8
 749 0134 72656600 		.ascii	"ref\000"
 750 0138 04       		.byte	0x4
 751 0139 6D       		.byte	0x6d
 752 013a B2000000 		.4byte	0xb2
 753 013e 02       		.byte	0x2
 754 013f 23       		.byte	0x23
 755 0140 0E       		.uleb128 0xe
 756 0141 00       		.byte	0
 757 0142 09       		.uleb128 0x9
 758 0143 04       		.byte	0x4
 759 0144 D3000000 		.4byte	0xd3
 760 0148 06       		.uleb128 0x6
 761 0149 2C000000 		.4byte	.LASF25
 762 014d 04       		.byte	0x4
 763 014e 05       		.byte	0x5
 764 014f 2C       		.byte	0x2c
 765 0150 63010000 		.4byte	0x163
 766 0154 07       		.uleb128 0x7
 767 0155 D8000000 		.4byte	.LASF26
 768 0159 05       		.byte	0x5
 769 015a 2D       		.byte	0x2d
 770 015b BD000000 		.4byte	0xbd
 771 015f 02       		.byte	0x2
 772 0160 23       		.byte	0x23
 773 0161 00       		.uleb128 0
 774 0162 00       		.byte	0
 775 0163 04       		.uleb128 0x4
 776 0164 FE000000 		.4byte	.LASF27
 777 0168 05       		.byte	0x5
 778 0169 40       		.byte	0x40
 779 016a 48010000 		.4byte	0x148
 780 016e 0A       		.uleb128 0xa
 781 016f 79000000 		.4byte	.LASF42
 782 0173 01       		.byte	0x1
 783 0174 87       		.byte	0x87
 784 0175 01       		.byte	0x1
 785 0176 B2000000 		.4byte	0xb2
 786 017a 00000000 		.4byte	.LFB7
 787 017e 98000000 		.4byte	.LFE7
 788 0182 00000000 		.4byte	.LLST0
 789 0186 01       		.byte	0x1
 790 0187 EF010000 		.4byte	0x1ef
 791 018b 0B       		.uleb128 0xb
 792 018c E2000000 		.4byte	.LASF28
 793 0190 01       		.byte	0x1
 794 0191 87       		.byte	0x87
 795 0192 97000000 		.4byte	0x97
ARM GAS  /tmp/ccRKR4lc.s 			page 15


 796 0196 2C000000 		.4byte	.LLST1
 797 019a 0C       		.uleb128 0xc
 798 019b 6C656E00 		.ascii	"len\000"
 799 019f 01       		.byte	0x1
 800 01a0 87       		.byte	0x87
 801 01a1 29000000 		.4byte	0x29
 802 01a5 5A000000 		.4byte	.LLST2
 803 01a9 0D       		.uleb128 0xd
 804 01aa 706200   		.ascii	"pb\000"
 805 01ad 01       		.byte	0x1
 806 01ae 89       		.byte	0x89
 807 01af EF010000 		.4byte	0x1ef
 808 01b3 90000000 		.4byte	.LLST3
 809 01b7 0D       		.uleb128 0xd
 810 01b8 707300   		.ascii	"ps\000"
 811 01bb 01       		.byte	0x1
 812 01bc 8A       		.byte	0x8a
 813 01bd F5010000 		.4byte	0x1f5
 814 01c1 C6000000 		.4byte	.LLST4
 815 01c5 0D       		.uleb128 0xd
 816 01c6 7400     		.ascii	"t\000"
 817 01c8 01       		.byte	0x1
 818 01c9 8A       		.byte	0x8a
 819 01ca B2000000 		.4byte	0xb2
 820 01ce E4000000 		.4byte	.LLST5
 821 01d2 0D       		.uleb128 0xd
 822 01d3 73756D00 		.ascii	"sum\000"
 823 01d7 01       		.byte	0x1
 824 01d8 8B       		.byte	0x8b
 825 01d9 BD000000 		.4byte	0xbd
 826 01dd 1A010000 		.4byte	.LLST6
 827 01e1 0E       		.uleb128 0xe
 828 01e2 6F646400 		.ascii	"odd\000"
 829 01e6 01       		.byte	0x1
 830 01e7 8C       		.byte	0x8c
 831 01e8 29000000 		.4byte	0x29
 832 01ec 01       		.byte	0x1
 833 01ed 57       		.byte	0x57
 834 01ee 00       		.byte	0
 835 01ef 09       		.uleb128 0x9
 836 01f0 04       		.byte	0x4
 837 01f1 A7000000 		.4byte	0xa7
 838 01f5 09       		.uleb128 0x9
 839 01f6 04       		.byte	0x4
 840 01f7 B2000000 		.4byte	0xb2
 841 01fb 0F       		.uleb128 0xf
 842 01fc 01       		.byte	0x1
 843 01fd A3010000 		.4byte	.LASF33
 844 0201 01       		.byte	0x1
 845 0202 1001     		.2byte	0x110
 846 0204 01       		.byte	0x1
 847 0205 B2000000 		.4byte	0xb2
 848 0209 00000000 		.4byte	.LFB8
 849 020d 8E000000 		.4byte	.LFE8
 850 0211 5B010000 		.4byte	.LLST7
 851 0215 01       		.byte	0x1
 852 0216 D5020000 		.4byte	0x2d5
ARM GAS  /tmp/ccRKR4lc.s 			page 16


 853 021a 10       		.uleb128 0x10
 854 021b 7000     		.ascii	"p\000"
 855 021d 01       		.byte	0x1
 856 021e 1001     		.2byte	0x110
 857 0220 42010000 		.4byte	0x142
 858 0224 7B010000 		.4byte	.LLST8
 859 0228 10       		.uleb128 0x10
 860 0229 73726300 		.ascii	"src\000"
 861 022d 01       		.byte	0x1
 862 022e 1101     		.2byte	0x111
 863 0230 D5020000 		.4byte	0x2d5
 864 0234 A7010000 		.4byte	.LLST9
 865 0238 11       		.uleb128 0x11
 866 0239 6A020000 		.4byte	.LASF29
 867 023d 01       		.byte	0x1
 868 023e 1101     		.2byte	0x111
 869 0240 D5020000 		.4byte	0x2d5
 870 0244 D0010000 		.4byte	.LLST10
 871 0248 11       		.uleb128 0x11
 872 0249 64020000 		.4byte	.LASF30
 873 024d 01       		.byte	0x1
 874 024e 1201     		.2byte	0x112
 875 0250 A7000000 		.4byte	0xa7
 876 0254 F9010000 		.4byte	.LLST11
 877 0258 12       		.uleb128 0x12
 878 0259 54020000 		.4byte	.LASF31
 879 025d 01       		.byte	0x1
 880 025e 1201     		.2byte	0x112
 881 0260 B2000000 		.4byte	0xb2
 882 0264 02       		.byte	0x2
 883 0265 91       		.byte	0x91
 884 0266 00       		.sleb128 0
 885 0267 13       		.uleb128 0x13
 886 0268 61636300 		.ascii	"acc\000"
 887 026c 01       		.byte	0x1
 888 026d 1401     		.2byte	0x114
 889 026f BD000000 		.4byte	0xbd
 890 0273 25020000 		.4byte	.LLST12
 891 0277 14       		.uleb128 0x14
 892 0278 D8000000 		.4byte	.LASF26
 893 027c 01       		.byte	0x1
 894 027d 1501     		.2byte	0x115
 895 027f BD000000 		.4byte	0xbd
 896 0283 22030000 		.4byte	.LLST13
 897 0287 13       		.uleb128 0x13
 898 0288 7100     		.ascii	"q\000"
 899 028a 01       		.byte	0x1
 900 028b 1601     		.2byte	0x116
 901 028d 42010000 		.4byte	0x142
 902 0291 4C030000 		.4byte	.LLST14
 903 0295 14       		.uleb128 0x14
 904 0296 B0000000 		.4byte	.LASF32
 905 029a 01       		.byte	0x1
 906 029b 1701     		.2byte	0x117
 907 029d A7000000 		.4byte	0xa7
 908 02a1 75030000 		.4byte	.LLST15
 909 02a5 15       		.uleb128 0x15
ARM GAS  /tmp/ccRKR4lc.s 			page 17


 910 02a6 1C000000 		.4byte	.LVL19
 911 02aa 6E010000 		.4byte	0x16e
 912 02ae 16       		.uleb128 0x16
 913 02af 6A000000 		.4byte	.LVL32
 914 02b3 A1040000 		.4byte	0x4a1
 915 02b7 C2020000 		.4byte	0x2c2
 916 02bb 17       		.uleb128 0x17
 917 02bc 01       		.byte	0x1
 918 02bd 50       		.byte	0x50
 919 02be 02       		.byte	0x2
 920 02bf 78       		.byte	0x78
 921 02c0 00       		.sleb128 0
 922 02c1 00       		.byte	0
 923 02c2 18       		.uleb128 0x18
 924 02c3 74000000 		.4byte	.LVL34
 925 02c7 A1040000 		.4byte	0x4a1
 926 02cb 17       		.uleb128 0x17
 927 02cc 01       		.byte	0x1
 928 02cd 50       		.byte	0x50
 929 02ce 04       		.byte	0x4
 930 02cf 91       		.byte	0x91
 931 02d0 00       		.sleb128 0
 932 02d1 94       		.byte	0x94
 933 02d2 02       		.byte	0x2
 934 02d3 00       		.byte	0
 935 02d4 00       		.byte	0
 936 02d5 09       		.uleb128 0x9
 937 02d6 04       		.byte	0x4
 938 02d7 63010000 		.4byte	0x163
 939 02db 0F       		.uleb128 0xf
 940 02dc 01       		.byte	0x1
 941 02dd 1B010000 		.4byte	.LASF34
 942 02e1 01       		.byte	0x1
 943 02e2 4C01     		.2byte	0x14c
 944 02e4 01       		.byte	0x1
 945 02e5 B2000000 		.4byte	0xb2
 946 02e9 00000000 		.4byte	.LFB9
 947 02ed BE000000 		.4byte	.LFE9
 948 02f1 A0030000 		.4byte	.LLST16
 949 02f5 01       		.byte	0x1
 950 02f6 EB030000 		.4byte	0x3eb
 951 02fa 10       		.uleb128 0x10
 952 02fb 7000     		.ascii	"p\000"
 953 02fd 01       		.byte	0x1
 954 02fe 4C01     		.2byte	0x14c
 955 0300 42010000 		.4byte	0x142
 956 0304 CC030000 		.4byte	.LLST17
 957 0308 10       		.uleb128 0x10
 958 0309 73726300 		.ascii	"src\000"
 959 030d 01       		.byte	0x1
 960 030e 4D01     		.2byte	0x14d
 961 0310 D5020000 		.4byte	0x2d5
 962 0314 F8030000 		.4byte	.LLST18
 963 0318 11       		.uleb128 0x11
 964 0319 6A020000 		.4byte	.LASF29
 965 031d 01       		.byte	0x1
 966 031e 4D01     		.2byte	0x14d
ARM GAS  /tmp/ccRKR4lc.s 			page 18


 967 0320 D5020000 		.4byte	0x2d5
 968 0324 21040000 		.4byte	.LLST19
 969 0328 11       		.uleb128 0x11
 970 0329 64020000 		.4byte	.LASF30
 971 032d 01       		.byte	0x1
 972 032e 4E01     		.2byte	0x14e
 973 0330 A7000000 		.4byte	0xa7
 974 0334 4A040000 		.4byte	.LLST20
 975 0338 12       		.uleb128 0x12
 976 0339 54020000 		.4byte	.LASF31
 977 033d 01       		.byte	0x1
 978 033e 4E01     		.2byte	0x14e
 979 0340 B2000000 		.4byte	0xb2
 980 0344 02       		.byte	0x2
 981 0345 91       		.byte	0x91
 982 0346 00       		.sleb128 0
 983 0347 11       		.uleb128 0x11
 984 0348 99000000 		.4byte	.LASF35
 985 034c 01       		.byte	0x1
 986 034d 4E01     		.2byte	0x14e
 987 034f B2000000 		.4byte	0xb2
 988 0353 76040000 		.4byte	.LLST21
 989 0357 13       		.uleb128 0x13
 990 0358 61636300 		.ascii	"acc\000"
 991 035c 01       		.byte	0x1
 992 035d 5001     		.2byte	0x150
 993 035f BD000000 		.4byte	0xbd
 994 0363 AC040000 		.4byte	.LLST22
 995 0367 14       		.uleb128 0x14
 996 0368 D8000000 		.4byte	.LASF26
 997 036c 01       		.byte	0x1
 998 036d 5101     		.2byte	0x151
 999 036f BD000000 		.4byte	0xbd
 1000 0373 A9050000 		.4byte	.LLST23
 1001 0377 13       		.uleb128 0x13
 1002 0378 7100     		.ascii	"q\000"
 1003 037a 01       		.byte	0x1
 1004 037b 5201     		.2byte	0x152
 1005 037d 42010000 		.4byte	0x142
 1006 0381 D3050000 		.4byte	.LLST24
 1007 0385 14       		.uleb128 0x14
 1008 0386 B0000000 		.4byte	.LASF32
 1009 038a 01       		.byte	0x1
 1010 038b 5301     		.2byte	0x153
 1011 038d A7000000 		.4byte	0xa7
 1012 0391 FC050000 		.4byte	.LLST25
 1013 0395 14       		.uleb128 0x14
 1014 0396 34000000 		.4byte	.LASF36
 1015 039a 01       		.byte	0x1
 1016 039b 5401     		.2byte	0x154
 1017 039d B2000000 		.4byte	0xb2
 1018 03a1 32060000 		.4byte	.LLST26
 1019 03a5 16       		.uleb128 0x16
 1020 03a6 58000000 		.4byte	.LVL49
 1021 03aa 6E010000 		.4byte	0x16e
 1022 03ae B9030000 		.4byte	0x3b9
 1023 03b2 17       		.uleb128 0x17
ARM GAS  /tmp/ccRKR4lc.s 			page 19


 1024 03b3 01       		.byte	0x1
 1025 03b4 51       		.byte	0x51
 1026 03b5 02       		.byte	0x2
 1027 03b6 79       		.byte	0x79
 1028 03b7 00       		.sleb128 0
 1029 03b8 00       		.byte	0
 1030 03b9 15       		.uleb128 0x15
 1031 03ba 68000000 		.4byte	.LVL51
 1032 03be B9040000 		.4byte	0x4b9
 1033 03c2 16       		.uleb128 0x16
 1034 03c3 94000000 		.4byte	.LVL60
 1035 03c7 A1040000 		.4byte	0x4a1
 1036 03cb D8030000 		.4byte	0x3d8
 1037 03cf 17       		.uleb128 0x17
 1038 03d0 01       		.byte	0x1
 1039 03d1 50       		.byte	0x50
 1040 03d2 04       		.byte	0x4
 1041 03d3 91       		.byte	0x91
 1042 03d4 54       		.sleb128 -44
 1043 03d5 94       		.byte	0x94
 1044 03d6 02       		.byte	0x2
 1045 03d7 00       		.byte	0
 1046 03d8 18       		.uleb128 0x18
 1047 03d9 9E000000 		.4byte	.LVL62
 1048 03dd A1040000 		.4byte	0x4a1
 1049 03e1 17       		.uleb128 0x17
 1050 03e2 01       		.byte	0x1
 1051 03e3 50       		.byte	0x50
 1052 03e4 04       		.byte	0x4
 1053 03e5 91       		.byte	0x91
 1054 03e6 00       		.sleb128 0
 1055 03e7 94       		.byte	0x94
 1056 03e8 02       		.byte	0x2
 1057 03e9 00       		.byte	0
 1058 03ea 00       		.byte	0
 1059 03eb 0F       		.uleb128 0xf
 1060 03ec 01       		.byte	0x1
 1061 03ed 20000000 		.4byte	.LASF37
 1062 03f1 01       		.byte	0x1
 1063 03f2 8C01     		.2byte	0x18c
 1064 03f4 01       		.byte	0x1
 1065 03f5 B2000000 		.4byte	0xb2
 1066 03f9 00000000 		.4byte	.LFB10
 1067 03fd 0C000000 		.4byte	.LFE10
 1068 0401 5C060000 		.4byte	.LLST27
 1069 0405 01       		.byte	0x1
 1070 0406 3C040000 		.4byte	0x43c
 1071 040a 11       		.uleb128 0x11
 1072 040b E2000000 		.4byte	.LASF28
 1073 040f 01       		.byte	0x1
 1074 0410 8C01     		.2byte	0x18c
 1075 0412 97000000 		.4byte	0x97
 1076 0416 7C060000 		.4byte	.LLST28
 1077 041a 10       		.uleb128 0x10
 1078 041b 6C656E00 		.ascii	"len\000"
 1079 041f 01       		.byte	0x1
 1080 0420 8C01     		.2byte	0x18c
ARM GAS  /tmp/ccRKR4lc.s 			page 20


 1081 0422 B2000000 		.4byte	0xb2
 1082 0426 9D060000 		.4byte	.LLST29
 1083 042a 18       		.uleb128 0x18
 1084 042b 06000000 		.4byte	.LVL69
 1085 042f 6E010000 		.4byte	0x16e
 1086 0433 17       		.uleb128 0x17
 1087 0434 01       		.byte	0x1
 1088 0435 50       		.byte	0x50
 1089 0436 03       		.byte	0x3
 1090 0437 F3       		.byte	0xf3
 1091 0438 01       		.uleb128 0x1
 1092 0439 50       		.byte	0x50
 1093 043a 00       		.byte	0
 1094 043b 00       		.byte	0
 1095 043c 0F       		.uleb128 0xf
 1096 043d 01       		.byte	0x1
 1097 043e 00000000 		.4byte	.LASF38
 1098 0442 01       		.byte	0x1
 1099 0443 9901     		.2byte	0x199
 1100 0445 01       		.byte	0x1
 1101 0446 B2000000 		.4byte	0xb2
 1102 044a 00000000 		.4byte	.LFB11
 1103 044e 54000000 		.4byte	.LFE11
 1104 0452 BE060000 		.4byte	.LLST30
 1105 0456 01       		.byte	0x1
 1106 0457 A1040000 		.4byte	0x4a1
 1107 045b 10       		.uleb128 0x10
 1108 045c 7000     		.ascii	"p\000"
 1109 045e 01       		.byte	0x1
 1110 045f 9901     		.2byte	0x199
 1111 0461 42010000 		.4byte	0x142
 1112 0465 DE060000 		.4byte	.LLST31
 1113 0469 13       		.uleb128 0x13
 1114 046a 61636300 		.ascii	"acc\000"
 1115 046e 01       		.byte	0x1
 1116 046f 9B01     		.2byte	0x19b
 1117 0471 BD000000 		.4byte	0xbd
 1118 0475 18070000 		.4byte	.LLST32
 1119 0479 13       		.uleb128 0x13
 1120 047a 7100     		.ascii	"q\000"
 1121 047c 01       		.byte	0x1
 1122 047d 9C01     		.2byte	0x19c
 1123 047f 42010000 		.4byte	0x142
 1124 0483 76070000 		.4byte	.LLST33
 1125 0487 14       		.uleb128 0x14
 1126 0488 B0000000 		.4byte	.LASF32
 1127 048c 01       		.byte	0x1
 1128 048d 9D01     		.2byte	0x19d
 1129 048f A7000000 		.4byte	0xa7
 1130 0493 AD070000 		.4byte	.LLST34
 1131 0497 15       		.uleb128 0x15
 1132 0498 12000000 		.4byte	.LVL72
 1133 049c 6E010000 		.4byte	0x16e
 1134 04a0 00       		.byte	0
 1135 04a1 19       		.uleb128 0x19
 1136 04a2 01       		.byte	0x1
 1137 04a3 8E000000 		.4byte	.LASF43
ARM GAS  /tmp/ccRKR4lc.s 			page 21


 1138 04a7 06       		.byte	0x6
 1139 04a8 63       		.byte	0x63
 1140 04a9 01       		.byte	0x1
 1141 04aa B2000000 		.4byte	0xb2
 1142 04ae 01       		.byte	0x1
 1143 04af B9040000 		.4byte	0x4b9
 1144 04b3 1A       		.uleb128 0x1a
 1145 04b4 B2000000 		.4byte	0xb2
 1146 04b8 00       		.byte	0
 1147 04b9 1B       		.uleb128 0x1b
 1148 04ba 01       		.byte	0x1
 1149 04bb BE010000 		.4byte	.LASF44
 1150 04bf 07       		.byte	0x7
 1151 04c0 FA01     		.2byte	0x1fa
 1152 04c2 01       		.byte	0x1
 1153 04c3 01       		.byte	0x1
 1154 04c4 00       		.byte	0
 1155              		.section	.debug_abbrev,"",%progbits
 1156              	.Ldebug_abbrev0:
 1157 0000 01       		.uleb128 0x1
 1158 0001 11       		.uleb128 0x11
 1159 0002 01       		.byte	0x1
 1160 0003 25       		.uleb128 0x25
 1161 0004 0E       		.uleb128 0xe
 1162 0005 13       		.uleb128 0x13
 1163 0006 0B       		.uleb128 0xb
 1164 0007 03       		.uleb128 0x3
 1165 0008 0E       		.uleb128 0xe
 1166 0009 1B       		.uleb128 0x1b
 1167 000a 0E       		.uleb128 0xe
 1168 000b 55       		.uleb128 0x55
 1169 000c 06       		.uleb128 0x6
 1170 000d 11       		.uleb128 0x11
 1171 000e 01       		.uleb128 0x1
 1172 000f 52       		.uleb128 0x52
 1173 0010 01       		.uleb128 0x1
 1174 0011 10       		.uleb128 0x10
 1175 0012 06       		.uleb128 0x6
 1176 0013 00       		.byte	0
 1177 0014 00       		.byte	0
 1178 0015 02       		.uleb128 0x2
 1179 0016 24       		.uleb128 0x24
 1180 0017 00       		.byte	0
 1181 0018 0B       		.uleb128 0xb
 1182 0019 0B       		.uleb128 0xb
 1183 001a 3E       		.uleb128 0x3e
 1184 001b 0B       		.uleb128 0xb
 1185 001c 03       		.uleb128 0x3
 1186 001d 08       		.uleb128 0x8
 1187 001e 00       		.byte	0
 1188 001f 00       		.byte	0
 1189 0020 03       		.uleb128 0x3
 1190 0021 24       		.uleb128 0x24
 1191 0022 00       		.byte	0
 1192 0023 0B       		.uleb128 0xb
 1193 0024 0B       		.uleb128 0xb
 1194 0025 3E       		.uleb128 0x3e
ARM GAS  /tmp/ccRKR4lc.s 			page 22


 1195 0026 0B       		.uleb128 0xb
 1196 0027 03       		.uleb128 0x3
 1197 0028 0E       		.uleb128 0xe
 1198 0029 00       		.byte	0
 1199 002a 00       		.byte	0
 1200 002b 04       		.uleb128 0x4
 1201 002c 16       		.uleb128 0x16
 1202 002d 00       		.byte	0
 1203 002e 03       		.uleb128 0x3
 1204 002f 0E       		.uleb128 0xe
 1205 0030 3A       		.uleb128 0x3a
 1206 0031 0B       		.uleb128 0xb
 1207 0032 3B       		.uleb128 0x3b
 1208 0033 0B       		.uleb128 0xb
 1209 0034 49       		.uleb128 0x49
 1210 0035 13       		.uleb128 0x13
 1211 0036 00       		.byte	0
 1212 0037 00       		.byte	0
 1213 0038 05       		.uleb128 0x5
 1214 0039 0F       		.uleb128 0xf
 1215 003a 00       		.byte	0
 1216 003b 0B       		.uleb128 0xb
 1217 003c 0B       		.uleb128 0xb
 1218 003d 00       		.byte	0
 1219 003e 00       		.byte	0
 1220 003f 06       		.uleb128 0x6
 1221 0040 13       		.uleb128 0x13
 1222 0041 01       		.byte	0x1
 1223 0042 03       		.uleb128 0x3
 1224 0043 0E       		.uleb128 0xe
 1225 0044 0B       		.uleb128 0xb
 1226 0045 0B       		.uleb128 0xb
 1227 0046 3A       		.uleb128 0x3a
 1228 0047 0B       		.uleb128 0xb
 1229 0048 3B       		.uleb128 0x3b
 1230 0049 0B       		.uleb128 0xb
 1231 004a 01       		.uleb128 0x1
 1232 004b 13       		.uleb128 0x13
 1233 004c 00       		.byte	0
 1234 004d 00       		.byte	0
 1235 004e 07       		.uleb128 0x7
 1236 004f 0D       		.uleb128 0xd
 1237 0050 00       		.byte	0
 1238 0051 03       		.uleb128 0x3
 1239 0052 0E       		.uleb128 0xe
 1240 0053 3A       		.uleb128 0x3a
 1241 0054 0B       		.uleb128 0xb
 1242 0055 3B       		.uleb128 0x3b
 1243 0056 0B       		.uleb128 0xb
 1244 0057 49       		.uleb128 0x49
 1245 0058 13       		.uleb128 0x13
 1246 0059 38       		.uleb128 0x38
 1247 005a 0A       		.uleb128 0xa
 1248 005b 00       		.byte	0
 1249 005c 00       		.byte	0
 1250 005d 08       		.uleb128 0x8
 1251 005e 0D       		.uleb128 0xd
ARM GAS  /tmp/ccRKR4lc.s 			page 23


 1252 005f 00       		.byte	0
 1253 0060 03       		.uleb128 0x3
 1254 0061 08       		.uleb128 0x8
 1255 0062 3A       		.uleb128 0x3a
 1256 0063 0B       		.uleb128 0xb
 1257 0064 3B       		.uleb128 0x3b
 1258 0065 0B       		.uleb128 0xb
 1259 0066 49       		.uleb128 0x49
 1260 0067 13       		.uleb128 0x13
 1261 0068 38       		.uleb128 0x38
 1262 0069 0A       		.uleb128 0xa
 1263 006a 00       		.byte	0
 1264 006b 00       		.byte	0
 1265 006c 09       		.uleb128 0x9
 1266 006d 0F       		.uleb128 0xf
 1267 006e 00       		.byte	0
 1268 006f 0B       		.uleb128 0xb
 1269 0070 0B       		.uleb128 0xb
 1270 0071 49       		.uleb128 0x49
 1271 0072 13       		.uleb128 0x13
 1272 0073 00       		.byte	0
 1273 0074 00       		.byte	0
 1274 0075 0A       		.uleb128 0xa
 1275 0076 2E       		.uleb128 0x2e
 1276 0077 01       		.byte	0x1
 1277 0078 03       		.uleb128 0x3
 1278 0079 0E       		.uleb128 0xe
 1279 007a 3A       		.uleb128 0x3a
 1280 007b 0B       		.uleb128 0xb
 1281 007c 3B       		.uleb128 0x3b
 1282 007d 0B       		.uleb128 0xb
 1283 007e 27       		.uleb128 0x27
 1284 007f 0C       		.uleb128 0xc
 1285 0080 49       		.uleb128 0x49
 1286 0081 13       		.uleb128 0x13
 1287 0082 11       		.uleb128 0x11
 1288 0083 01       		.uleb128 0x1
 1289 0084 12       		.uleb128 0x12
 1290 0085 01       		.uleb128 0x1
 1291 0086 40       		.uleb128 0x40
 1292 0087 06       		.uleb128 0x6
 1293 0088 9742     		.uleb128 0x2117
 1294 008a 0C       		.uleb128 0xc
 1295 008b 01       		.uleb128 0x1
 1296 008c 13       		.uleb128 0x13
 1297 008d 00       		.byte	0
 1298 008e 00       		.byte	0
 1299 008f 0B       		.uleb128 0xb
 1300 0090 05       		.uleb128 0x5
 1301 0091 00       		.byte	0
 1302 0092 03       		.uleb128 0x3
 1303 0093 0E       		.uleb128 0xe
 1304 0094 3A       		.uleb128 0x3a
 1305 0095 0B       		.uleb128 0xb
 1306 0096 3B       		.uleb128 0x3b
 1307 0097 0B       		.uleb128 0xb
 1308 0098 49       		.uleb128 0x49
ARM GAS  /tmp/ccRKR4lc.s 			page 24


 1309 0099 13       		.uleb128 0x13
 1310 009a 02       		.uleb128 0x2
 1311 009b 06       		.uleb128 0x6
 1312 009c 00       		.byte	0
 1313 009d 00       		.byte	0
 1314 009e 0C       		.uleb128 0xc
 1315 009f 05       		.uleb128 0x5
 1316 00a0 00       		.byte	0
 1317 00a1 03       		.uleb128 0x3
 1318 00a2 08       		.uleb128 0x8
 1319 00a3 3A       		.uleb128 0x3a
 1320 00a4 0B       		.uleb128 0xb
 1321 00a5 3B       		.uleb128 0x3b
 1322 00a6 0B       		.uleb128 0xb
 1323 00a7 49       		.uleb128 0x49
 1324 00a8 13       		.uleb128 0x13
 1325 00a9 02       		.uleb128 0x2
 1326 00aa 06       		.uleb128 0x6
 1327 00ab 00       		.byte	0
 1328 00ac 00       		.byte	0
 1329 00ad 0D       		.uleb128 0xd
 1330 00ae 34       		.uleb128 0x34
 1331 00af 00       		.byte	0
 1332 00b0 03       		.uleb128 0x3
 1333 00b1 08       		.uleb128 0x8
 1334 00b2 3A       		.uleb128 0x3a
 1335 00b3 0B       		.uleb128 0xb
 1336 00b4 3B       		.uleb128 0x3b
 1337 00b5 0B       		.uleb128 0xb
 1338 00b6 49       		.uleb128 0x49
 1339 00b7 13       		.uleb128 0x13
 1340 00b8 02       		.uleb128 0x2
 1341 00b9 06       		.uleb128 0x6
 1342 00ba 00       		.byte	0
 1343 00bb 00       		.byte	0
 1344 00bc 0E       		.uleb128 0xe
 1345 00bd 34       		.uleb128 0x34
 1346 00be 00       		.byte	0
 1347 00bf 03       		.uleb128 0x3
 1348 00c0 08       		.uleb128 0x8
 1349 00c1 3A       		.uleb128 0x3a
 1350 00c2 0B       		.uleb128 0xb
 1351 00c3 3B       		.uleb128 0x3b
 1352 00c4 0B       		.uleb128 0xb
 1353 00c5 49       		.uleb128 0x49
 1354 00c6 13       		.uleb128 0x13
 1355 00c7 02       		.uleb128 0x2
 1356 00c8 0A       		.uleb128 0xa
 1357 00c9 00       		.byte	0
 1358 00ca 00       		.byte	0
 1359 00cb 0F       		.uleb128 0xf
 1360 00cc 2E       		.uleb128 0x2e
 1361 00cd 01       		.byte	0x1
 1362 00ce 3F       		.uleb128 0x3f
 1363 00cf 0C       		.uleb128 0xc
 1364 00d0 03       		.uleb128 0x3
 1365 00d1 0E       		.uleb128 0xe
ARM GAS  /tmp/ccRKR4lc.s 			page 25


 1366 00d2 3A       		.uleb128 0x3a
 1367 00d3 0B       		.uleb128 0xb
 1368 00d4 3B       		.uleb128 0x3b
 1369 00d5 05       		.uleb128 0x5
 1370 00d6 27       		.uleb128 0x27
 1371 00d7 0C       		.uleb128 0xc
 1372 00d8 49       		.uleb128 0x49
 1373 00d9 13       		.uleb128 0x13
 1374 00da 11       		.uleb128 0x11
 1375 00db 01       		.uleb128 0x1
 1376 00dc 12       		.uleb128 0x12
 1377 00dd 01       		.uleb128 0x1
 1378 00de 40       		.uleb128 0x40
 1379 00df 06       		.uleb128 0x6
 1380 00e0 9742     		.uleb128 0x2117
 1381 00e2 0C       		.uleb128 0xc
 1382 00e3 01       		.uleb128 0x1
 1383 00e4 13       		.uleb128 0x13
 1384 00e5 00       		.byte	0
 1385 00e6 00       		.byte	0
 1386 00e7 10       		.uleb128 0x10
 1387 00e8 05       		.uleb128 0x5
 1388 00e9 00       		.byte	0
 1389 00ea 03       		.uleb128 0x3
 1390 00eb 08       		.uleb128 0x8
 1391 00ec 3A       		.uleb128 0x3a
 1392 00ed 0B       		.uleb128 0xb
 1393 00ee 3B       		.uleb128 0x3b
 1394 00ef 05       		.uleb128 0x5
 1395 00f0 49       		.uleb128 0x49
 1396 00f1 13       		.uleb128 0x13
 1397 00f2 02       		.uleb128 0x2
 1398 00f3 06       		.uleb128 0x6
 1399 00f4 00       		.byte	0
 1400 00f5 00       		.byte	0
 1401 00f6 11       		.uleb128 0x11
 1402 00f7 05       		.uleb128 0x5
 1403 00f8 00       		.byte	0
 1404 00f9 03       		.uleb128 0x3
 1405 00fa 0E       		.uleb128 0xe
 1406 00fb 3A       		.uleb128 0x3a
 1407 00fc 0B       		.uleb128 0xb
 1408 00fd 3B       		.uleb128 0x3b
 1409 00fe 05       		.uleb128 0x5
 1410 00ff 49       		.uleb128 0x49
 1411 0100 13       		.uleb128 0x13
 1412 0101 02       		.uleb128 0x2
 1413 0102 06       		.uleb128 0x6
 1414 0103 00       		.byte	0
 1415 0104 00       		.byte	0
 1416 0105 12       		.uleb128 0x12
 1417 0106 05       		.uleb128 0x5
 1418 0107 00       		.byte	0
 1419 0108 03       		.uleb128 0x3
 1420 0109 0E       		.uleb128 0xe
 1421 010a 3A       		.uleb128 0x3a
 1422 010b 0B       		.uleb128 0xb
ARM GAS  /tmp/ccRKR4lc.s 			page 26


 1423 010c 3B       		.uleb128 0x3b
 1424 010d 05       		.uleb128 0x5
 1425 010e 49       		.uleb128 0x49
 1426 010f 13       		.uleb128 0x13
 1427 0110 02       		.uleb128 0x2
 1428 0111 0A       		.uleb128 0xa
 1429 0112 00       		.byte	0
 1430 0113 00       		.byte	0
 1431 0114 13       		.uleb128 0x13
 1432 0115 34       		.uleb128 0x34
 1433 0116 00       		.byte	0
 1434 0117 03       		.uleb128 0x3
 1435 0118 08       		.uleb128 0x8
 1436 0119 3A       		.uleb128 0x3a
 1437 011a 0B       		.uleb128 0xb
 1438 011b 3B       		.uleb128 0x3b
 1439 011c 05       		.uleb128 0x5
 1440 011d 49       		.uleb128 0x49
 1441 011e 13       		.uleb128 0x13
 1442 011f 02       		.uleb128 0x2
 1443 0120 06       		.uleb128 0x6
 1444 0121 00       		.byte	0
 1445 0122 00       		.byte	0
 1446 0123 14       		.uleb128 0x14
 1447 0124 34       		.uleb128 0x34
 1448 0125 00       		.byte	0
 1449 0126 03       		.uleb128 0x3
 1450 0127 0E       		.uleb128 0xe
 1451 0128 3A       		.uleb128 0x3a
 1452 0129 0B       		.uleb128 0xb
 1453 012a 3B       		.uleb128 0x3b
 1454 012b 05       		.uleb128 0x5
 1455 012c 49       		.uleb128 0x49
 1456 012d 13       		.uleb128 0x13
 1457 012e 02       		.uleb128 0x2
 1458 012f 06       		.uleb128 0x6
 1459 0130 00       		.byte	0
 1460 0131 00       		.byte	0
 1461 0132 15       		.uleb128 0x15
 1462 0133 898201   		.uleb128 0x4109
 1463 0136 00       		.byte	0
 1464 0137 11       		.uleb128 0x11
 1465 0138 01       		.uleb128 0x1
 1466 0139 31       		.uleb128 0x31
 1467 013a 13       		.uleb128 0x13
 1468 013b 00       		.byte	0
 1469 013c 00       		.byte	0
 1470 013d 16       		.uleb128 0x16
 1471 013e 898201   		.uleb128 0x4109
 1472 0141 01       		.byte	0x1
 1473 0142 11       		.uleb128 0x11
 1474 0143 01       		.uleb128 0x1
 1475 0144 31       		.uleb128 0x31
 1476 0145 13       		.uleb128 0x13
 1477 0146 01       		.uleb128 0x1
 1478 0147 13       		.uleb128 0x13
 1479 0148 00       		.byte	0
ARM GAS  /tmp/ccRKR4lc.s 			page 27


 1480 0149 00       		.byte	0
 1481 014a 17       		.uleb128 0x17
 1482 014b 8A8201   		.uleb128 0x410a
 1483 014e 00       		.byte	0
 1484 014f 02       		.uleb128 0x2
 1485 0150 0A       		.uleb128 0xa
 1486 0151 9142     		.uleb128 0x2111
 1487 0153 0A       		.uleb128 0xa
 1488 0154 00       		.byte	0
 1489 0155 00       		.byte	0
 1490 0156 18       		.uleb128 0x18
 1491 0157 898201   		.uleb128 0x4109
 1492 015a 01       		.byte	0x1
 1493 015b 11       		.uleb128 0x11
 1494 015c 01       		.uleb128 0x1
 1495 015d 31       		.uleb128 0x31
 1496 015e 13       		.uleb128 0x13
 1497 015f 00       		.byte	0
 1498 0160 00       		.byte	0
 1499 0161 19       		.uleb128 0x19
 1500 0162 2E       		.uleb128 0x2e
 1501 0163 01       		.byte	0x1
 1502 0164 3F       		.uleb128 0x3f
 1503 0165 0C       		.uleb128 0xc
 1504 0166 03       		.uleb128 0x3
 1505 0167 0E       		.uleb128 0xe
 1506 0168 3A       		.uleb128 0x3a
 1507 0169 0B       		.uleb128 0xb
 1508 016a 3B       		.uleb128 0x3b
 1509 016b 0B       		.uleb128 0xb
 1510 016c 27       		.uleb128 0x27
 1511 016d 0C       		.uleb128 0xc
 1512 016e 49       		.uleb128 0x49
 1513 016f 13       		.uleb128 0x13
 1514 0170 3C       		.uleb128 0x3c
 1515 0171 0C       		.uleb128 0xc
 1516 0172 01       		.uleb128 0x1
 1517 0173 13       		.uleb128 0x13
 1518 0174 00       		.byte	0
 1519 0175 00       		.byte	0
 1520 0176 1A       		.uleb128 0x1a
 1521 0177 05       		.uleb128 0x5
 1522 0178 00       		.byte	0
 1523 0179 49       		.uleb128 0x49
 1524 017a 13       		.uleb128 0x13
 1525 017b 00       		.byte	0
 1526 017c 00       		.byte	0
 1527 017d 1B       		.uleb128 0x1b
 1528 017e 2E       		.uleb128 0x2e
 1529 017f 00       		.byte	0
 1530 0180 3F       		.uleb128 0x3f
 1531 0181 0C       		.uleb128 0xc
 1532 0182 03       		.uleb128 0x3
 1533 0183 0E       		.uleb128 0xe
 1534 0184 3A       		.uleb128 0x3a
 1535 0185 0B       		.uleb128 0xb
 1536 0186 3B       		.uleb128 0x3b
ARM GAS  /tmp/ccRKR4lc.s 			page 28


 1537 0187 05       		.uleb128 0x5
 1538 0188 27       		.uleb128 0x27
 1539 0189 0C       		.uleb128 0xc
 1540 018a 3C       		.uleb128 0x3c
 1541 018b 0C       		.uleb128 0xc
 1542 018c 00       		.byte	0
 1543 018d 00       		.byte	0
 1544 018e 00       		.byte	0
 1545              		.section	.debug_loc,"",%progbits
 1546              	.Ldebug_loc0:
 1547              	.LLST0:
 1548 0000 00000000 		.4byte	.LFB7
 1549 0004 02000000 		.4byte	.LCFI0
 1550 0008 0200     		.2byte	0x2
 1551 000a 7D       		.byte	0x7d
 1552 000b 00       		.sleb128 0
 1553 000c 02000000 		.4byte	.LCFI0
 1554 0010 04000000 		.4byte	.LCFI1
 1555 0014 0200     		.2byte	0x2
 1556 0016 7D       		.byte	0x7d
 1557 0017 10       		.sleb128 16
 1558 0018 04000000 		.4byte	.LCFI1
 1559 001c 98000000 		.4byte	.LFE7
 1560 0020 0200     		.2byte	0x2
 1561 0022 7D       		.byte	0x7d
 1562 0023 18       		.sleb128 24
 1563 0024 00000000 		.4byte	0
 1564 0028 00000000 		.4byte	0
 1565              	.LLST1:
 1566 002c 00000000 		.4byte	.LVL0
 1567 0030 18000000 		.4byte	.LVL3
 1568 0034 0100     		.2byte	0x1
 1569 0036 50       		.byte	0x50
 1570 0037 18000000 		.4byte	.LVL3
 1571 003b 1E000000 		.4byte	.LVL5
 1572 003f 0300     		.2byte	0x3
 1573 0041 70       		.byte	0x70
 1574 0042 7F       		.sleb128 -1
 1575 0043 9F       		.byte	0x9f
 1576 0044 1E000000 		.4byte	.LVL5
 1577 0048 98000000 		.4byte	.LFE7
 1578 004c 0400     		.2byte	0x4
 1579 004e F3       		.byte	0xf3
 1580 004f 01       		.uleb128 0x1
 1581 0050 50       		.byte	0x50
 1582 0051 9F       		.byte	0x9f
 1583 0052 00000000 		.4byte	0
 1584 0056 00000000 		.4byte	0
 1585              	.LLST2:
 1586 005a 00000000 		.4byte	.LVL0
 1587 005e 1A000000 		.4byte	.LVL4
 1588 0062 0100     		.2byte	0x1
 1589 0064 51       		.byte	0x51
 1590 0065 1A000000 		.4byte	.LVL4
 1591 0069 1E000000 		.4byte	.LVL5
 1592 006d 0300     		.2byte	0x3
 1593 006f 71       		.byte	0x71
ARM GAS  /tmp/ccRKR4lc.s 			page 29


 1594 0070 01       		.sleb128 1
 1595 0071 9F       		.byte	0x9f
 1596 0072 1E000000 		.4byte	.LVL5
 1597 0076 40000000 		.4byte	.LVL7
 1598 007a 0100     		.2byte	0x1
 1599 007c 51       		.byte	0x51
 1600 007d 94000000 		.4byte	.LVL16
 1601 0081 98000000 		.4byte	.LFE7
 1602 0085 0100     		.2byte	0x1
 1603 0087 51       		.byte	0x51
 1604 0088 00000000 		.4byte	0
 1605 008c 00000000 		.4byte	0
 1606              	.LLST3:
 1607 0090 06000000 		.4byte	.LVL1
 1608 0094 18000000 		.4byte	.LVL3
 1609 0098 0100     		.2byte	0x1
 1610 009a 50       		.byte	0x50
 1611 009b 18000000 		.4byte	.LVL3
 1612 009f 1E000000 		.4byte	.LVL5
 1613 00a3 0300     		.2byte	0x3
 1614 00a5 70       		.byte	0x70
 1615 00a6 7F       		.sleb128 -1
 1616 00a7 9F       		.byte	0x9f
 1617 00a8 1E000000 		.4byte	.LVL5
 1618 00ac 60000000 		.4byte	.LVL8
 1619 00b0 0100     		.2byte	0x1
 1620 00b2 50       		.byte	0x50
 1621 00b3 94000000 		.4byte	.LVL16
 1622 00b7 98000000 		.4byte	.LFE7
 1623 00bb 0100     		.2byte	0x1
 1624 00bd 50       		.byte	0x50
 1625 00be 00000000 		.4byte	0
 1626 00c2 00000000 		.4byte	0
 1627              	.LLST4:
 1628 00c6 1E000000 		.4byte	.LVL5
 1629 00ca 40000000 		.4byte	.LVL7
 1630 00ce 0100     		.2byte	0x1
 1631 00d0 50       		.byte	0x50
 1632 00d1 94000000 		.4byte	.LVL16
 1633 00d5 98000000 		.4byte	.LFE7
 1634 00d9 0100     		.2byte	0x1
 1635 00db 50       		.byte	0x50
 1636 00dc 00000000 		.4byte	0
 1637 00e0 00000000 		.4byte	0
 1638              	.LLST5:
 1639 00e4 0E000000 		.4byte	.LVL2
 1640 00e8 72000000 		.4byte	.LVL9
 1641 00ec 0200     		.2byte	0x2
 1642 00ee 91       		.byte	0x91
 1643 00ef 6E       		.sleb128 -18
 1644 00f0 74000000 		.4byte	.LVL10
 1645 00f4 88000000 		.4byte	.LVL13
 1646 00f8 0100     		.2byte	0x1
 1647 00fa 50       		.byte	0x50
 1648 00fb 8C000000 		.4byte	.LVL14
 1649 00ff 8E000000 		.4byte	.LVL15
 1650 0103 0100     		.2byte	0x1
ARM GAS  /tmp/ccRKR4lc.s 			page 30


 1651 0105 50       		.byte	0x50
 1652 0106 94000000 		.4byte	.LVL16
 1653 010a 98000000 		.4byte	.LFE7
 1654 010e 0200     		.2byte	0x2
 1655 0110 91       		.byte	0x91
 1656 0111 6E       		.sleb128 -18
 1657 0112 00000000 		.4byte	0
 1658 0116 00000000 		.4byte	0
 1659              	.LLST6:
 1660 011a 0E000000 		.4byte	.LVL2
 1661 011e 32000000 		.4byte	.LVL6
 1662 0122 0200     		.2byte	0x2
 1663 0124 30       		.byte	0x30
 1664 0125 9F       		.byte	0x9f
 1665 0126 74000000 		.4byte	.LVL10
 1666 012a 7A000000 		.4byte	.LVL11
 1667 012e 0100     		.2byte	0x1
 1668 0130 53       		.byte	0x53
 1669 0131 7A000000 		.4byte	.LVL11
 1670 0135 80000000 		.4byte	.LVL12
 1671 0139 0100     		.2byte	0x1
 1672 013b 55       		.byte	0x55
 1673 013c 80000000 		.4byte	.LVL12
 1674 0140 94000000 		.4byte	.LVL16
 1675 0144 0100     		.2byte	0x1
 1676 0146 53       		.byte	0x53
 1677 0147 94000000 		.4byte	.LVL16
 1678 014b 98000000 		.4byte	.LFE7
 1679 014f 0200     		.2byte	0x2
 1680 0151 30       		.byte	0x30
 1681 0152 9F       		.byte	0x9f
 1682 0153 00000000 		.4byte	0
 1683 0157 00000000 		.4byte	0
 1684              	.LLST7:
 1685 015b 00000000 		.4byte	.LFB8
 1686 015f 04000000 		.4byte	.LCFI2
 1687 0163 0200     		.2byte	0x2
 1688 0165 7D       		.byte	0x7d
 1689 0166 00       		.sleb128 0
 1690 0167 04000000 		.4byte	.LCFI2
 1691 016b 8E000000 		.4byte	.LFE8
 1692 016f 0200     		.2byte	0x2
 1693 0171 7D       		.byte	0x7d
 1694 0172 20       		.sleb128 32
 1695 0173 00000000 		.4byte	0
 1696 0177 00000000 		.4byte	0
 1697              	.LLST8:
 1698 017b 00000000 		.4byte	.LVL17
 1699 017f 14000000 		.4byte	.LVL18
 1700 0183 0100     		.2byte	0x1
 1701 0185 50       		.byte	0x50
 1702 0186 14000000 		.4byte	.LVL18
 1703 018a 8A000000 		.4byte	.LVL39
 1704 018e 0400     		.2byte	0x4
 1705 0190 F3       		.byte	0xf3
 1706 0191 01       		.uleb128 0x1
 1707 0192 50       		.byte	0x50
ARM GAS  /tmp/ccRKR4lc.s 			page 31


 1708 0193 9F       		.byte	0x9f
 1709 0194 8A000000 		.4byte	.LVL39
 1710 0198 8E000000 		.4byte	.LFE8
 1711 019c 0100     		.2byte	0x1
 1712 019e 50       		.byte	0x50
 1713 019f 00000000 		.4byte	0
 1714 01a3 00000000 		.4byte	0
 1715              	.LLST9:
 1716 01a7 00000000 		.4byte	.LVL17
 1717 01ab 14000000 		.4byte	.LVL18
 1718 01af 0100     		.2byte	0x1
 1719 01b1 51       		.byte	0x51
 1720 01b2 14000000 		.4byte	.LVL18
 1721 01b6 8A000000 		.4byte	.LVL39
 1722 01ba 0100     		.2byte	0x1
 1723 01bc 5A       		.byte	0x5a
 1724 01bd 8A000000 		.4byte	.LVL39
 1725 01c1 8E000000 		.4byte	.LFE8
 1726 01c5 0100     		.2byte	0x1
 1727 01c7 51       		.byte	0x51
 1728 01c8 00000000 		.4byte	0
 1729 01cc 00000000 		.4byte	0
 1730              	.LLST10:
 1731 01d0 00000000 		.4byte	.LVL17
 1732 01d4 14000000 		.4byte	.LVL18
 1733 01d8 0100     		.2byte	0x1
 1734 01da 52       		.byte	0x52
 1735 01db 14000000 		.4byte	.LVL18
 1736 01df 8A000000 		.4byte	.LVL39
 1737 01e3 0100     		.2byte	0x1
 1738 01e5 59       		.byte	0x59
 1739 01e6 8A000000 		.4byte	.LVL39
 1740 01ea 8E000000 		.4byte	.LFE8
 1741 01ee 0100     		.2byte	0x1
 1742 01f0 52       		.byte	0x52
 1743 01f1 00000000 		.4byte	0
 1744 01f5 00000000 		.4byte	0
 1745              	.LLST11:
 1746 01f9 00000000 		.4byte	.LVL17
 1747 01fd 14000000 		.4byte	.LVL18
 1748 0201 0100     		.2byte	0x1
 1749 0203 53       		.byte	0x53
 1750 0204 14000000 		.4byte	.LVL18
 1751 0208 8A000000 		.4byte	.LVL39
 1752 020c 0400     		.2byte	0x4
 1753 020e F3       		.byte	0xf3
 1754 020f 01       		.uleb128 0x1
 1755 0210 53       		.byte	0x53
 1756 0211 9F       		.byte	0x9f
 1757 0212 8A000000 		.4byte	.LVL39
 1758 0216 8E000000 		.4byte	.LFE8
 1759 021a 0100     		.2byte	0x1
 1760 021c 53       		.byte	0x53
 1761 021d 00000000 		.4byte	0
 1762 0221 00000000 		.4byte	0
 1763              	.LLST12:
 1764 0225 00000000 		.4byte	.LVL17
ARM GAS  /tmp/ccRKR4lc.s 			page 32


 1765 0229 14000000 		.4byte	.LVL18
 1766 022d 0200     		.2byte	0x2
 1767 022f 30       		.byte	0x30
 1768 0230 9F       		.byte	0x9f
 1769 0231 20000000 		.4byte	.LVL20
 1770 0235 26000000 		.4byte	.LVL21
 1771 0239 0100     		.2byte	0x1
 1772 023b 50       		.byte	0x50
 1773 023c 26000000 		.4byte	.LVL21
 1774 0240 48000000 		.4byte	.LVL25
 1775 0244 0100     		.2byte	0x1
 1776 0246 55       		.byte	0x55
 1777 0247 4C000000 		.4byte	.LVL26
 1778 024b 50000000 		.4byte	.LVL27
 1779 024f 0100     		.2byte	0x1
 1780 0251 55       		.byte	0x55
 1781 0252 50000000 		.4byte	.LVL27
 1782 0256 54000000 		.4byte	.LVL28
 1783 025a 0F00     		.2byte	0xf
 1784 025c 72       		.byte	0x72
 1785 025d 00       		.sleb128 0
 1786 025e 0A       		.byte	0xa
 1787 025f FFFF     		.2byte	0xffff
 1788 0261 1A       		.byte	0x1a
 1789 0262 75       		.byte	0x75
 1790 0263 00       		.sleb128 0
 1791 0264 22       		.byte	0x22
 1792 0265 72       		.byte	0x72
 1793 0266 00       		.sleb128 0
 1794 0267 40       		.byte	0x40
 1795 0268 25       		.byte	0x25
 1796 0269 22       		.byte	0x22
 1797 026a 9F       		.byte	0x9f
 1798 026b 54000000 		.4byte	.LVL28
 1799 026f 5E000000 		.4byte	.LVL29
 1800 0273 1600     		.2byte	0x16
 1801 0275 73       		.byte	0x73
 1802 0276 00       		.sleb128 0
 1803 0277 0A       		.byte	0xa
 1804 0278 FFFF     		.2byte	0xffff
 1805 027a 1A       		.byte	0x1a
 1806 027b 72       		.byte	0x72
 1807 027c 00       		.sleb128 0
 1808 027d 0A       		.byte	0xa
 1809 027e FFFF     		.2byte	0xffff
 1810 0280 1A       		.byte	0x1a
 1811 0281 75       		.byte	0x75
 1812 0282 00       		.sleb128 0
 1813 0283 22       		.byte	0x22
 1814 0284 72       		.byte	0x72
 1815 0285 00       		.sleb128 0
 1816 0286 40       		.byte	0x40
 1817 0287 25       		.byte	0x25
 1818 0288 22       		.byte	0x22
 1819 0289 22       		.byte	0x22
 1820 028a 9F       		.byte	0x9f
 1821 028b 5E000000 		.4byte	.LVL29
ARM GAS  /tmp/ccRKR4lc.s 			page 33


 1822 028f 62000000 		.4byte	.LVL30
 1823 0293 1800     		.2byte	0x18
 1824 0295 73       		.byte	0x73
 1825 0296 00       		.sleb128 0
 1826 0297 0A       		.byte	0xa
 1827 0298 FFFF     		.2byte	0xffff
 1828 029a 1A       		.byte	0x1a
 1829 029b 7A       		.byte	0x7a
 1830 029c 00       		.sleb128 0
 1831 029d 06       		.byte	0x6
 1832 029e 0A       		.byte	0xa
 1833 029f FFFF     		.2byte	0xffff
 1834 02a1 1A       		.byte	0x1a
 1835 02a2 75       		.byte	0x75
 1836 02a3 00       		.sleb128 0
 1837 02a4 22       		.byte	0x22
 1838 02a5 7A       		.byte	0x7a
 1839 02a6 00       		.sleb128 0
 1840 02a7 06       		.byte	0x6
 1841 02a8 40       		.byte	0x40
 1842 02a9 25       		.byte	0x25
 1843 02aa 22       		.byte	0x22
 1844 02ab 22       		.byte	0x22
 1845 02ac 9F       		.byte	0x9f
 1846 02ad 62000000 		.4byte	.LVL30
 1847 02b1 66000000 		.4byte	.LVL31
 1848 02b5 1900     		.2byte	0x19
 1849 02b7 79       		.byte	0x79
 1850 02b8 00       		.sleb128 0
 1851 02b9 06       		.byte	0x6
 1852 02ba 0A       		.byte	0xa
 1853 02bb FFFF     		.2byte	0xffff
 1854 02bd 1A       		.byte	0x1a
 1855 02be 7A       		.byte	0x7a
 1856 02bf 00       		.sleb128 0
 1857 02c0 06       		.byte	0x6
 1858 02c1 0A       		.byte	0xa
 1859 02c2 FFFF     		.2byte	0xffff
 1860 02c4 1A       		.byte	0x1a
 1861 02c5 75       		.byte	0x75
 1862 02c6 00       		.sleb128 0
 1863 02c7 22       		.byte	0x22
 1864 02c8 7A       		.byte	0x7a
 1865 02c9 00       		.sleb128 0
 1866 02ca 06       		.byte	0x6
 1867 02cb 40       		.byte	0x40
 1868 02cc 25       		.byte	0x25
 1869 02cd 22       		.byte	0x22
 1870 02ce 22       		.byte	0x22
 1871 02cf 9F       		.byte	0x9f
 1872 02d0 66000000 		.4byte	.LVL31
 1873 02d4 76000000 		.4byte	.LVL35
 1874 02d8 0100     		.2byte	0x1
 1875 02da 55       		.byte	0x55
 1876 02db 76000000 		.4byte	.LVL35
 1877 02df 7C000000 		.4byte	.LVL36
 1878 02e3 0100     		.2byte	0x1
ARM GAS  /tmp/ccRKR4lc.s 			page 34


 1879 02e5 51       		.byte	0x51
 1880 02e6 7C000000 		.4byte	.LVL36
 1881 02ea 7E000000 		.4byte	.LVL37
 1882 02ee 0100     		.2byte	0x1
 1883 02f0 52       		.byte	0x52
 1884 02f1 7E000000 		.4byte	.LVL37
 1885 02f5 82000000 		.4byte	.LVL38
 1886 02f9 0800     		.2byte	0x8
 1887 02fb 72       		.byte	0x72
 1888 02fc 00       		.sleb128 0
 1889 02fd 40       		.byte	0x40
 1890 02fe 25       		.byte	0x25
 1891 02ff 73       		.byte	0x73
 1892 0300 00       		.sleb128 0
 1893 0301 22       		.byte	0x22
 1894 0302 9F       		.byte	0x9f
 1895 0303 82000000 		.4byte	.LVL38
 1896 0307 8A000000 		.4byte	.LVL39
 1897 030b 0100     		.2byte	0x1
 1898 030d 51       		.byte	0x51
 1899 030e 8A000000 		.4byte	.LVL39
 1900 0312 8E000000 		.4byte	.LFE8
 1901 0316 0200     		.2byte	0x2
 1902 0318 30       		.byte	0x30
 1903 0319 9F       		.byte	0x9f
 1904 031a 00000000 		.4byte	0
 1905 031e 00000000 		.4byte	0
 1906              	.LLST13:
 1907 0322 50000000 		.4byte	.LVL27
 1908 0326 54000000 		.4byte	.LVL28
 1909 032a 0100     		.2byte	0x1
 1910 032c 52       		.byte	0x52
 1911 032d 54000000 		.4byte	.LVL28
 1912 0331 62000000 		.4byte	.LVL30
 1913 0335 0100     		.2byte	0x1
 1914 0337 53       		.byte	0x53
 1915 0338 62000000 		.4byte	.LVL30
 1916 033c 69000000 		.4byte	.LVL32-1
 1917 0340 0200     		.2byte	0x2
 1918 0342 79       		.byte	0x79
 1919 0343 00       		.sleb128 0
 1920 0344 00000000 		.4byte	0
 1921 0348 00000000 		.4byte	0
 1922              	.LLST14:
 1923 034c 00000000 		.4byte	.LVL17
 1924 0350 14000000 		.4byte	.LVL18
 1925 0354 0100     		.2byte	0x1
 1926 0356 50       		.byte	0x50
 1927 0357 14000000 		.4byte	.LVL18
 1928 035b 4C000000 		.4byte	.LVL26
 1929 035f 0100     		.2byte	0x1
 1930 0361 54       		.byte	0x54
 1931 0362 8A000000 		.4byte	.LVL39
 1932 0366 8E000000 		.4byte	.LFE8
 1933 036a 0100     		.2byte	0x1
 1934 036c 50       		.byte	0x50
 1935 036d 00000000 		.4byte	0
ARM GAS  /tmp/ccRKR4lc.s 			page 35


 1936 0371 00000000 		.4byte	0
 1937              	.LLST15:
 1938 0375 00000000 		.4byte	.LVL17
 1939 0379 14000000 		.4byte	.LVL18
 1940 037d 0200     		.2byte	0x2
 1941 037f 30       		.byte	0x30
 1942 0380 9F       		.byte	0x9f
 1943 0381 36000000 		.4byte	.LVL22
 1944 0385 4C000000 		.4byte	.LVL26
 1945 0389 0100     		.2byte	0x1
 1946 038b 57       		.byte	0x57
 1947 038c 8A000000 		.4byte	.LVL39
 1948 0390 8E000000 		.4byte	.LFE8
 1949 0394 0200     		.2byte	0x2
 1950 0396 30       		.byte	0x30
 1951 0397 9F       		.byte	0x9f
 1952 0398 00000000 		.4byte	0
 1953 039c 00000000 		.4byte	0
 1954              	.LLST16:
 1955 03a0 00000000 		.4byte	.LFB9
 1956 03a4 04000000 		.4byte	.LCFI3
 1957 03a8 0200     		.2byte	0x2
 1958 03aa 7D       		.byte	0x7d
 1959 03ab 00       		.sleb128 0
 1960 03ac 04000000 		.4byte	.LCFI3
 1961 03b0 06000000 		.4byte	.LCFI4
 1962 03b4 0200     		.2byte	0x2
 1963 03b6 7D       		.byte	0x7d
 1964 03b7 24       		.sleb128 36
 1965 03b8 06000000 		.4byte	.LCFI4
 1966 03bc BE000000 		.4byte	.LFE9
 1967 03c0 0200     		.2byte	0x2
 1968 03c2 7D       		.byte	0x7d
 1969 03c3 30       		.sleb128 48
 1970 03c4 00000000 		.4byte	0
 1971 03c8 00000000 		.4byte	0
 1972              	.LLST17:
 1973 03cc 00000000 		.4byte	.LVL40
 1974 03d0 24000000 		.4byte	.LVL41
 1975 03d4 0100     		.2byte	0x1
 1976 03d6 50       		.byte	0x50
 1977 03d7 24000000 		.4byte	.LVL41
 1978 03db B6000000 		.4byte	.LVL67
 1979 03df 0400     		.2byte	0x4
 1980 03e1 F3       		.byte	0xf3
 1981 03e2 01       		.uleb128 0x1
 1982 03e3 50       		.byte	0x50
 1983 03e4 9F       		.byte	0x9f
 1984 03e5 B6000000 		.4byte	.LVL67
 1985 03e9 BE000000 		.4byte	.LFE9
 1986 03ed 0100     		.2byte	0x1
 1987 03ef 50       		.byte	0x50
 1988 03f0 00000000 		.4byte	0
 1989 03f4 00000000 		.4byte	0
 1990              	.LLST18:
 1991 03f8 00000000 		.4byte	.LVL40
 1992 03fc 24000000 		.4byte	.LVL41
ARM GAS  /tmp/ccRKR4lc.s 			page 36


 1993 0400 0100     		.2byte	0x1
 1994 0402 51       		.byte	0x51
 1995 0403 24000000 		.4byte	.LVL41
 1996 0407 B6000000 		.4byte	.LVL67
 1997 040b 0100     		.2byte	0x1
 1998 040d 5B       		.byte	0x5b
 1999 040e B6000000 		.4byte	.LVL67
 2000 0412 BE000000 		.4byte	.LFE9
 2001 0416 0100     		.2byte	0x1
 2002 0418 51       		.byte	0x51
 2003 0419 00000000 		.4byte	0
 2004 041d 00000000 		.4byte	0
 2005              	.LLST19:
 2006 0421 00000000 		.4byte	.LVL40
 2007 0425 24000000 		.4byte	.LVL41
 2008 0429 0100     		.2byte	0x1
 2009 042b 52       		.byte	0x52
 2010 042c 24000000 		.4byte	.LVL41
 2011 0430 B6000000 		.4byte	.LVL67
 2012 0434 0100     		.2byte	0x1
 2013 0436 5A       		.byte	0x5a
 2014 0437 B6000000 		.4byte	.LVL67
 2015 043b BE000000 		.4byte	.LFE9
 2016 043f 0100     		.2byte	0x1
 2017 0441 52       		.byte	0x52
 2018 0442 00000000 		.4byte	0
 2019 0446 00000000 		.4byte	0
 2020              	.LLST20:
 2021 044a 00000000 		.4byte	.LVL40
 2022 044e 24000000 		.4byte	.LVL41
 2023 0452 0100     		.2byte	0x1
 2024 0454 53       		.byte	0x53
 2025 0455 24000000 		.4byte	.LVL41
 2026 0459 B6000000 		.4byte	.LVL67
 2027 045d 0400     		.2byte	0x4
 2028 045f F3       		.byte	0xf3
 2029 0460 01       		.uleb128 0x1
 2030 0461 53       		.byte	0x53
 2031 0462 9F       		.byte	0x9f
 2032 0463 B6000000 		.4byte	.LVL67
 2033 0467 BE000000 		.4byte	.LFE9
 2034 046b 0100     		.2byte	0x1
 2035 046d 53       		.byte	0x53
 2036 046e 00000000 		.4byte	0
 2037 0472 00000000 		.4byte	0
 2038              	.LLST21:
 2039 0476 00000000 		.4byte	.LVL40
 2040 047a 24000000 		.4byte	.LVL41
 2041 047e 0200     		.2byte	0x2
 2042 0480 91       		.byte	0x91
 2043 0481 04       		.sleb128 4
 2044 0482 24000000 		.4byte	.LVL41
 2045 0486 46000000 		.4byte	.LVL46
 2046 048a 0100     		.2byte	0x1
 2047 048c 55       		.byte	0x55
 2048 048d 62000000 		.4byte	.LVL50
 2049 0491 76000000 		.4byte	.LVL54
ARM GAS  /tmp/ccRKR4lc.s 			page 37


 2050 0495 0100     		.2byte	0x1
 2051 0497 55       		.byte	0x55
 2052 0498 B6000000 		.4byte	.LVL67
 2053 049c BE000000 		.4byte	.LFE9
 2054 04a0 0200     		.2byte	0x2
 2055 04a2 91       		.byte	0x91
 2056 04a3 04       		.sleb128 4
 2057 04a4 00000000 		.4byte	0
 2058 04a8 00000000 		.4byte	0
 2059              	.LLST22:
 2060 04ac 00000000 		.4byte	.LVL40
 2061 04b0 24000000 		.4byte	.LVL41
 2062 04b4 0200     		.2byte	0x2
 2063 04b6 30       		.byte	0x30
 2064 04b7 9F       		.byte	0x9f
 2065 04b8 24000000 		.4byte	.LVL41
 2066 04bc 46000000 		.4byte	.LVL46
 2067 04c0 0100     		.2byte	0x1
 2068 04c2 56       		.byte	0x56
 2069 04c3 62000000 		.4byte	.LVL50
 2070 04c7 72000000 		.4byte	.LVL53
 2071 04cb 0100     		.2byte	0x1
 2072 04cd 56       		.byte	0x56
 2073 04ce 76000000 		.4byte	.LVL54
 2074 04d2 7A000000 		.4byte	.LVL55
 2075 04d6 0100     		.2byte	0x1
 2076 04d8 56       		.byte	0x56
 2077 04d9 7A000000 		.4byte	.LVL55
 2078 04dd 7E000000 		.4byte	.LVL56
 2079 04e1 0F00     		.2byte	0xf
 2080 04e3 72       		.byte	0x72
 2081 04e4 00       		.sleb128 0
 2082 04e5 0A       		.byte	0xa
 2083 04e6 FFFF     		.2byte	0xffff
 2084 04e8 1A       		.byte	0x1a
 2085 04e9 76       		.byte	0x76
 2086 04ea 00       		.sleb128 0
 2087 04eb 22       		.byte	0x22
 2088 04ec 72       		.byte	0x72
 2089 04ed 00       		.sleb128 0
 2090 04ee 40       		.byte	0x40
 2091 04ef 25       		.byte	0x25
 2092 04f0 22       		.byte	0x22
 2093 04f1 9F       		.byte	0x9f
 2094 04f2 7E000000 		.4byte	.LVL56
 2095 04f6 88000000 		.4byte	.LVL57
 2096 04fa 1600     		.2byte	0x16
 2097 04fc 73       		.byte	0x73
 2098 04fd 00       		.sleb128 0
 2099 04fe 0A       		.byte	0xa
 2100 04ff FFFF     		.2byte	0xffff
 2101 0501 1A       		.byte	0x1a
 2102 0502 72       		.byte	0x72
 2103 0503 00       		.sleb128 0
 2104 0504 0A       		.byte	0xa
 2105 0505 FFFF     		.2byte	0xffff
 2106 0507 1A       		.byte	0x1a
ARM GAS  /tmp/ccRKR4lc.s 			page 38


 2107 0508 76       		.byte	0x76
 2108 0509 00       		.sleb128 0
 2109 050a 22       		.byte	0x22
 2110 050b 72       		.byte	0x72
 2111 050c 00       		.sleb128 0
 2112 050d 40       		.byte	0x40
 2113 050e 25       		.byte	0x25
 2114 050f 22       		.byte	0x22
 2115 0510 22       		.byte	0x22
 2116 0511 9F       		.byte	0x9f
 2117 0512 88000000 		.4byte	.LVL57
 2118 0516 8C000000 		.4byte	.LVL58
 2119 051a 1800     		.2byte	0x18
 2120 051c 73       		.byte	0x73
 2121 051d 00       		.sleb128 0
 2122 051e 0A       		.byte	0xa
 2123 051f FFFF     		.2byte	0xffff
 2124 0521 1A       		.byte	0x1a
 2125 0522 7B       		.byte	0x7b
 2126 0523 00       		.sleb128 0
 2127 0524 06       		.byte	0x6
 2128 0525 0A       		.byte	0xa
 2129 0526 FFFF     		.2byte	0xffff
 2130 0528 1A       		.byte	0x1a
 2131 0529 76       		.byte	0x76
 2132 052a 00       		.sleb128 0
 2133 052b 22       		.byte	0x22
 2134 052c 7B       		.byte	0x7b
 2135 052d 00       		.sleb128 0
 2136 052e 06       		.byte	0x6
 2137 052f 40       		.byte	0x40
 2138 0530 25       		.byte	0x25
 2139 0531 22       		.byte	0x22
 2140 0532 22       		.byte	0x22
 2141 0533 9F       		.byte	0x9f
 2142 0534 8C000000 		.4byte	.LVL58
 2143 0538 90000000 		.4byte	.LVL59
 2144 053c 1900     		.2byte	0x19
 2145 053e 7A       		.byte	0x7a
 2146 053f 00       		.sleb128 0
 2147 0540 06       		.byte	0x6
 2148 0541 0A       		.byte	0xa
 2149 0542 FFFF     		.2byte	0xffff
 2150 0544 1A       		.byte	0x1a
 2151 0545 7B       		.byte	0x7b
 2152 0546 00       		.sleb128 0
 2153 0547 06       		.byte	0x6
 2154 0548 0A       		.byte	0xa
 2155 0549 FFFF     		.2byte	0xffff
 2156 054b 1A       		.byte	0x1a
 2157 054c 76       		.byte	0x76
 2158 054d 00       		.sleb128 0
 2159 054e 22       		.byte	0x22
 2160 054f 7B       		.byte	0x7b
 2161 0550 00       		.sleb128 0
 2162 0551 06       		.byte	0x6
 2163 0552 40       		.byte	0x40
ARM GAS  /tmp/ccRKR4lc.s 			page 39


 2164 0553 25       		.byte	0x25
 2165 0554 22       		.byte	0x22
 2166 0555 22       		.byte	0x22
 2167 0556 9F       		.byte	0x9f
 2168 0557 90000000 		.4byte	.LVL59
 2169 055b A0000000 		.4byte	.LVL63
 2170 055f 0100     		.2byte	0x1
 2171 0561 56       		.byte	0x56
 2172 0562 A0000000 		.4byte	.LVL63
 2173 0566 A6000000 		.4byte	.LVL64
 2174 056a 0100     		.2byte	0x1
 2175 056c 51       		.byte	0x51
 2176 056d A6000000 		.4byte	.LVL64
 2177 0571 A8000000 		.4byte	.LVL65
 2178 0575 0100     		.2byte	0x1
 2179 0577 52       		.byte	0x52
 2180 0578 A8000000 		.4byte	.LVL65
 2181 057c AC000000 		.4byte	.LVL66
 2182 0580 0800     		.2byte	0x8
 2183 0582 72       		.byte	0x72
 2184 0583 00       		.sleb128 0
 2185 0584 40       		.byte	0x40
 2186 0585 25       		.byte	0x25
 2187 0586 73       		.byte	0x73
 2188 0587 00       		.sleb128 0
 2189 0588 22       		.byte	0x22
 2190 0589 9F       		.byte	0x9f
 2191 058a AC000000 		.4byte	.LVL66
 2192 058e B6000000 		.4byte	.LVL67
 2193 0592 0100     		.2byte	0x1
 2194 0594 51       		.byte	0x51
 2195 0595 B6000000 		.4byte	.LVL67
 2196 0599 BE000000 		.4byte	.LFE9
 2197 059d 0200     		.2byte	0x2
 2198 059f 30       		.byte	0x30
 2199 05a0 9F       		.byte	0x9f
 2200 05a1 00000000 		.4byte	0
 2201 05a5 00000000 		.4byte	0
 2202              	.LLST23:
 2203 05a9 7A000000 		.4byte	.LVL55
 2204 05ad 7E000000 		.4byte	.LVL56
 2205 05b1 0100     		.2byte	0x1
 2206 05b3 52       		.byte	0x52
 2207 05b4 7E000000 		.4byte	.LVL56
 2208 05b8 8C000000 		.4byte	.LVL58
 2209 05bc 0100     		.2byte	0x1
 2210 05be 53       		.byte	0x53
 2211 05bf 8C000000 		.4byte	.LVL58
 2212 05c3 93000000 		.4byte	.LVL60-1
 2213 05c7 0200     		.2byte	0x2
 2214 05c9 7A       		.byte	0x7a
 2215 05ca 00       		.sleb128 0
 2216 05cb 00000000 		.4byte	0
 2217 05cf 00000000 		.4byte	0
 2218              	.LLST24:
 2219 05d3 00000000 		.4byte	.LVL40
 2220 05d7 24000000 		.4byte	.LVL41
ARM GAS  /tmp/ccRKR4lc.s 			page 40


 2221 05db 0100     		.2byte	0x1
 2222 05dd 50       		.byte	0x50
 2223 05de 24000000 		.4byte	.LVL41
 2224 05e2 76000000 		.4byte	.LVL54
 2225 05e6 0100     		.2byte	0x1
 2226 05e8 54       		.byte	0x54
 2227 05e9 B6000000 		.4byte	.LVL67
 2228 05ed BE000000 		.4byte	.LFE9
 2229 05f1 0100     		.2byte	0x1
 2230 05f3 50       		.byte	0x50
 2231 05f4 00000000 		.4byte	0
 2232 05f8 00000000 		.4byte	0
 2233              	.LLST25:
 2234 05fc 00000000 		.4byte	.LVL40
 2235 0600 24000000 		.4byte	.LVL41
 2236 0604 0200     		.2byte	0x2
 2237 0606 30       		.byte	0x30
 2238 0607 9F       		.byte	0x9f
 2239 0608 3C000000 		.4byte	.LVL43
 2240 060c 46000000 		.4byte	.LVL46
 2241 0610 0100     		.2byte	0x1
 2242 0612 57       		.byte	0x57
 2243 0613 6A000000 		.4byte	.LVL52
 2244 0617 76000000 		.4byte	.LVL54
 2245 061b 0100     		.2byte	0x1
 2246 061d 57       		.byte	0x57
 2247 061e B6000000 		.4byte	.LVL67
 2248 0622 BE000000 		.4byte	.LFE9
 2249 0626 0200     		.2byte	0x2
 2250 0628 30       		.byte	0x30
 2251 0629 9F       		.byte	0x9f
 2252 062a 00000000 		.4byte	0
 2253 062e 00000000 		.4byte	0
 2254              	.LLST26:
 2255 0632 24000000 		.4byte	.LVL41
 2256 0636 46000000 		.4byte	.LVL46
 2257 063a 0100     		.2byte	0x1
 2258 063c 59       		.byte	0x59
 2259 063d 48000000 		.4byte	.LVL47
 2260 0641 52000000 		.4byte	.LVL48
 2261 0645 0200     		.2byte	0x2
 2262 0647 74       		.byte	0x74
 2263 0648 0A       		.sleb128 10
 2264 0649 52000000 		.4byte	.LVL48
 2265 064d 76000000 		.4byte	.LVL54
 2266 0651 0100     		.2byte	0x1
 2267 0653 59       		.byte	0x59
 2268 0654 00000000 		.4byte	0
 2269 0658 00000000 		.4byte	0
 2270              	.LLST27:
 2271 065c 00000000 		.4byte	.LFB10
 2272 0660 02000000 		.4byte	.LCFI5
 2273 0664 0200     		.2byte	0x2
 2274 0666 7D       		.byte	0x7d
 2275 0667 00       		.sleb128 0
 2276 0668 02000000 		.4byte	.LCFI5
 2277 066c 0C000000 		.4byte	.LFE10
ARM GAS  /tmp/ccRKR4lc.s 			page 41


 2278 0670 0200     		.2byte	0x2
 2279 0672 7D       		.byte	0x7d
 2280 0673 08       		.sleb128 8
 2281 0674 00000000 		.4byte	0
 2282 0678 00000000 		.4byte	0
 2283              	.LLST28:
 2284 067c 00000000 		.4byte	.LVL68
 2285 0680 05000000 		.4byte	.LVL69-1
 2286 0684 0100     		.2byte	0x1
 2287 0686 50       		.byte	0x50
 2288 0687 05000000 		.4byte	.LVL69-1
 2289 068b 0C000000 		.4byte	.LFE10
 2290 068f 0400     		.2byte	0x4
 2291 0691 F3       		.byte	0xf3
 2292 0692 01       		.uleb128 0x1
 2293 0693 50       		.byte	0x50
 2294 0694 9F       		.byte	0x9f
 2295 0695 00000000 		.4byte	0
 2296 0699 00000000 		.4byte	0
 2297              	.LLST29:
 2298 069d 00000000 		.4byte	.LVL68
 2299 06a1 05000000 		.4byte	.LVL69-1
 2300 06a5 0100     		.2byte	0x1
 2301 06a7 51       		.byte	0x51
 2302 06a8 05000000 		.4byte	.LVL69-1
 2303 06ac 0C000000 		.4byte	.LFE10
 2304 06b0 0400     		.2byte	0x4
 2305 06b2 F3       		.byte	0xf3
 2306 06b3 01       		.uleb128 0x1
 2307 06b4 51       		.byte	0x51
 2308 06b5 9F       		.byte	0x9f
 2309 06b6 00000000 		.4byte	0
 2310 06ba 00000000 		.4byte	0
 2311              	.LLST30:
 2312 06be 00000000 		.4byte	.LFB11
 2313 06c2 02000000 		.4byte	.LCFI6
 2314 06c6 0200     		.2byte	0x2
 2315 06c8 7D       		.byte	0x7d
 2316 06c9 00       		.sleb128 0
 2317 06ca 02000000 		.4byte	.LCFI6
 2318 06ce 54000000 		.4byte	.LFE11
 2319 06d2 0200     		.2byte	0x2
 2320 06d4 7D       		.byte	0x7d
 2321 06d5 10       		.sleb128 16
 2322 06d6 00000000 		.4byte	0
 2323 06da 00000000 		.4byte	0
 2324              	.LLST31:
 2325 06de 00000000 		.4byte	.LVL70
 2326 06e2 0A000000 		.4byte	.LVL71
 2327 06e6 0100     		.2byte	0x1
 2328 06e8 50       		.byte	0x50
 2329 06e9 0A000000 		.4byte	.LVL71
 2330 06ed 4E000000 		.4byte	.LVL81
 2331 06f1 0400     		.2byte	0x4
 2332 06f3 F3       		.byte	0xf3
 2333 06f4 01       		.uleb128 0x1
 2334 06f5 50       		.byte	0x50
ARM GAS  /tmp/ccRKR4lc.s 			page 42


 2335 06f6 9F       		.byte	0x9f
 2336 06f7 4E000000 		.4byte	.LVL81
 2337 06fb 52000000 		.4byte	.LVL82
 2338 06ff 0100     		.2byte	0x1
 2339 0701 50       		.byte	0x50
 2340 0702 52000000 		.4byte	.LVL82
 2341 0706 54000000 		.4byte	.LFE11
 2342 070a 0400     		.2byte	0x4
 2343 070c F3       		.byte	0xf3
 2344 070d 01       		.uleb128 0x1
 2345 070e 50       		.byte	0x50
 2346 070f 9F       		.byte	0x9f
 2347 0710 00000000 		.4byte	0
 2348 0714 00000000 		.4byte	0
 2349              	.LLST32:
 2350 0718 00000000 		.4byte	.LVL70
 2351 071c 0A000000 		.4byte	.LVL71
 2352 0720 0200     		.2byte	0x2
 2353 0722 30       		.byte	0x30
 2354 0723 9F       		.byte	0x9f
 2355 0724 16000000 		.4byte	.LVL73
 2356 0728 1E000000 		.4byte	.LVL74
 2357 072c 0100     		.2byte	0x1
 2358 072e 50       		.byte	0x50
 2359 072f 1E000000 		.4byte	.LVL74
 2360 0733 3E000000 		.4byte	.LVL78
 2361 0737 0100     		.2byte	0x1
 2362 0739 55       		.byte	0x55
 2363 073a 3E000000 		.4byte	.LVL78
 2364 073e 42000000 		.4byte	.LVL79
 2365 0742 0800     		.2byte	0x8
 2366 0744 70       		.byte	0x70
 2367 0745 00       		.sleb128 0
 2368 0746 40       		.byte	0x40
 2369 0747 25       		.byte	0x25
 2370 0748 75       		.byte	0x75
 2371 0749 00       		.sleb128 0
 2372 074a 21       		.byte	0x21
 2373 074b 9F       		.byte	0x9f
 2374 074c 42000000 		.4byte	.LVL79
 2375 0750 48000000 		.4byte	.LVL80
 2376 0754 0100     		.2byte	0x1
 2377 0756 51       		.byte	0x51
 2378 0757 48000000 		.4byte	.LVL80
 2379 075b 4E000000 		.4byte	.LVL81
 2380 075f 0100     		.2byte	0x1
 2381 0761 55       		.byte	0x55
 2382 0762 4E000000 		.4byte	.LVL81
 2383 0766 52000000 		.4byte	.LVL82
 2384 076a 0200     		.2byte	0x2
 2385 076c 30       		.byte	0x30
 2386 076d 9F       		.byte	0x9f
 2387 076e 00000000 		.4byte	0
 2388 0772 00000000 		.4byte	0
 2389              	.LLST33:
 2390 0776 00000000 		.4byte	.LVL70
 2391 077a 0A000000 		.4byte	.LVL71
ARM GAS  /tmp/ccRKR4lc.s 			page 43


 2392 077e 0100     		.2byte	0x1
 2393 0780 50       		.byte	0x50
 2394 0781 0A000000 		.4byte	.LVL71
 2395 0785 4E000000 		.4byte	.LVL81
 2396 0789 0100     		.2byte	0x1
 2397 078b 54       		.byte	0x54
 2398 078c 4E000000 		.4byte	.LVL81
 2399 0790 52000000 		.4byte	.LVL82
 2400 0794 0100     		.2byte	0x1
 2401 0796 50       		.byte	0x50
 2402 0797 52000000 		.4byte	.LVL82
 2403 079b 54000000 		.4byte	.LFE11
 2404 079f 0400     		.2byte	0x4
 2405 07a1 F3       		.byte	0xf3
 2406 07a2 01       		.uleb128 0x1
 2407 07a3 50       		.byte	0x50
 2408 07a4 9F       		.byte	0x9f
 2409 07a5 00000000 		.4byte	0
 2410 07a9 00000000 		.4byte	0
 2411              	.LLST34:
 2412 07ad 00000000 		.4byte	.LVL70
 2413 07b1 0A000000 		.4byte	.LVL71
 2414 07b5 0200     		.2byte	0x2
 2415 07b7 30       		.byte	0x30
 2416 07b8 9F       		.byte	0x9f
 2417 07b9 2C000000 		.4byte	.LVL75
 2418 07bd 4E000000 		.4byte	.LVL81
 2419 07c1 0100     		.2byte	0x1
 2420 07c3 56       		.byte	0x56
 2421 07c4 4E000000 		.4byte	.LVL81
 2422 07c8 54000000 		.4byte	.LFE11
 2423 07cc 0200     		.2byte	0x2
 2424 07ce 30       		.byte	0x30
 2425 07cf 9F       		.byte	0x9f
 2426 07d0 00000000 		.4byte	0
 2427 07d4 00000000 		.4byte	0
 2428              		.section	.debug_aranges,"",%progbits
 2429 0000 3C000000 		.4byte	0x3c
 2430 0004 0200     		.2byte	0x2
 2431 0006 00000000 		.4byte	.Ldebug_info0
 2432 000a 04       		.byte	0x4
 2433 000b 00       		.byte	0
 2434 000c 0000     		.2byte	0
 2435 000e 0000     		.2byte	0
 2436 0010 00000000 		.4byte	.LFB7
 2437 0014 98000000 		.4byte	.LFE7-.LFB7
 2438 0018 00000000 		.4byte	.LFB8
 2439 001c 8E000000 		.4byte	.LFE8-.LFB8
 2440 0020 00000000 		.4byte	.LFB9
 2441 0024 BE000000 		.4byte	.LFE9-.LFB9
 2442 0028 00000000 		.4byte	.LFB10
 2443 002c 0C000000 		.4byte	.LFE10-.LFB10
 2444 0030 00000000 		.4byte	.LFB11
 2445 0034 54000000 		.4byte	.LFE11-.LFB11
 2446 0038 00000000 		.4byte	0
 2447 003c 00000000 		.4byte	0
 2448              		.section	.debug_ranges,"",%progbits
ARM GAS  /tmp/ccRKR4lc.s 			page 44


 2449              	.Ldebug_ranges0:
 2450 0000 00000000 		.4byte	.LFB7
 2451 0004 98000000 		.4byte	.LFE7
 2452 0008 00000000 		.4byte	.LFB8
 2453 000c 8E000000 		.4byte	.LFE8
 2454 0010 00000000 		.4byte	.LFB9
 2455 0014 BE000000 		.4byte	.LFE9
 2456 0018 00000000 		.4byte	.LFB10
 2457 001c 0C000000 		.4byte	.LFE10
 2458 0020 00000000 		.4byte	.LFB11
 2459 0024 54000000 		.4byte	.LFE11
 2460 0028 00000000 		.4byte	0
 2461 002c 00000000 		.4byte	0
 2462              		.section	.debug_line,"",%progbits
 2463              	.Ldebug_line0:
 2464 0000 4B020000 		.section	.debug_str,"MS",%progbits,1
 2464      02005201 
 2464      00000201 
 2464      FB0E0D00 
 2464      01010101 
 2465              	.LASF38:
 2466 0000 696E6574 		.ascii	"inet_chksum_pbuf\000"
 2466      5F63686B 
 2466      73756D5F 
 2466      70627566 
 2466      00
 2467              	.LASF19:
 2468 0011 6E657874 		.ascii	"next\000"
 2468      00
 2469              	.LASF18:
 2470 0016 6D656D5F 		.ascii	"mem_ptr_t\000"
 2470      7074725F 
 2470      7400
 2471              	.LASF37:
 2472 0020 696E6574 		.ascii	"inet_chksum\000"
 2472      5F63686B 
 2472      73756D00 
 2473              	.LASF25:
 2474 002c 69705F61 		.ascii	"ip_addr\000"
 2474      64647200 
 2475              	.LASF36:
 2476 0034 63686B6C 		.ascii	"chklen\000"
 2476      656E00
 2477              	.LASF40:
 2478 003b 2E2E2F2E 		.ascii	"../../ext/lwip/src/core/ipv4/inet_chksum.c\000"
 2478      2E2F6578 
 2478      742F6C77 
 2478      69702F73 
 2478      72632F63 
 2479              	.LASF6:
 2480 0066 73686F72 		.ascii	"short unsigned int\000"
 2480      7420756E 
 2480      7369676E 
 2480      65642069 
 2480      6E7400
 2481              	.LASF42:
 2482 0079 6C776970 		.ascii	"lwip_standard_chksum\000"
ARM GAS  /tmp/ccRKR4lc.s 			page 45


 2482      5F737461 
 2482      6E646172 
 2482      645F6368 
 2482      6B73756D 
 2483              	.LASF43:
 2484 008e 6C776970 		.ascii	"lwip_htons\000"
 2484      5F68746F 
 2484      6E7300
 2485              	.LASF35:
 2486 0099 63686B73 		.ascii	"chksum_len\000"
 2486      756D5F6C 
 2486      656E00
 2487              	.LASF1:
 2488 00a4 7369676E 		.ascii	"signed char\000"
 2488      65642063 
 2488      68617200 
 2489              	.LASF32:
 2490 00b0 73776170 		.ascii	"swapped\000"
 2490      70656400 
 2491              	.LASF2:
 2492 00b8 756E7369 		.ascii	"unsigned char\000"
 2492      676E6564 
 2492      20636861 
 2492      7200
 2493              	.LASF9:
 2494 00c6 6C6F6E67 		.ascii	"long unsigned int\000"
 2494      20756E73 
 2494      69676E65 
 2494      6420696E 
 2494      7400
 2495              	.LASF26:
 2496 00d8 61646472 		.ascii	"addr\000"
 2496      00
 2497              	.LASF24:
 2498 00dd 70627566 		.ascii	"pbuf\000"
 2498      00
 2499              	.LASF28:
 2500 00e2 64617461 		.ascii	"dataptr\000"
 2500      70747200 
 2501              	.LASF16:
 2502 00ea 7531365F 		.ascii	"u16_t\000"
 2502      7400
 2503              	.LASF17:
 2504 00f0 7533325F 		.ascii	"u32_t\000"
 2504      7400
 2505              	.LASF21:
 2506 00f6 746F745F 		.ascii	"tot_len\000"
 2506      6C656E00 
 2507              	.LASF27:
 2508 00fe 69705F61 		.ascii	"ip_addr_t\000"
 2508      6464725F 
 2508      7400
 2509              	.LASF0:
 2510 0108 756E7369 		.ascii	"unsigned int\000"
 2510      676E6564 
 2510      20696E74 
 2510      00
ARM GAS  /tmp/ccRKR4lc.s 			page 46


 2511              	.LASF23:
 2512 0115 666C6167 		.ascii	"flags\000"
 2512      7300
 2513              	.LASF34:
 2514 011b 696E6574 		.ascii	"inet_chksum_pseudo_partial\000"
 2514      5F63686B 
 2514      73756D5F 
 2514      70736575 
 2514      646F5F70 
 2515              	.LASF39:
 2516 0136 474E5520 		.ascii	"GNU C 4.7.4 20130613 (release) [ARM/embedded-4_7-br"
 2516      4320342E 
 2516      372E3420 
 2516      32303133 
 2516      30363133 
 2517 0169 616E6368 		.ascii	"anch revision 200083]\000"
 2517      20726576 
 2517      6973696F 
 2517      6E203230 
 2517      30303833 
 2518              	.LASF11:
 2519 017f 6C6F6E67 		.ascii	"long long unsigned int\000"
 2519      206C6F6E 
 2519      6720756E 
 2519      7369676E 
 2519      65642069 
 2520              	.LASF4:
 2521 0196 75696E74 		.ascii	"uint8_t\000"
 2521      385F7400 
 2522              	.LASF15:
 2523 019e 75385F74 		.ascii	"u8_t\000"
 2523      00
 2524              	.LASF33:
 2525 01a3 696E6574 		.ascii	"inet_chksum_pseudo\000"
 2525      5F63686B 
 2525      73756D5F 
 2525      70736575 
 2525      646F00
 2526              	.LASF20:
 2527 01b6 7061796C 		.ascii	"payload\000"
 2527      6F616400 
 2528              	.LASF44:
 2529 01be 706F7274 		.ascii	"port_halt\000"
 2529      5F68616C 
 2529      7400
 2530              	.LASF13:
 2531 01c8 73697A65 		.ascii	"sizetype\000"
 2531      74797065 
 2531      00
 2532              	.LASF41:
 2533 01d1 2F686F6D 		.ascii	"/home/witold/Dokumenty/arm/ChibiOS-master/demos/ARM"
 2533      652F7769 
 2533      746F6C64 
 2533      2F446F6B 
 2533      756D656E 
 2534 0204 434D342D 		.ascii	"CM4-STM32F407-LWIP\000"
 2534      53544D33 
ARM GAS  /tmp/ccRKR4lc.s 			page 47


 2534      32463430 
 2534      372D4C57 
 2534      495000
 2535              	.LASF10:
 2536 0217 6C6F6E67 		.ascii	"long long int\000"
 2536      206C6F6E 
 2536      6720696E 
 2536      7400
 2537              	.LASF14:
 2538 0225 63686172 		.ascii	"char\000"
 2538      00
 2539              	.LASF22:
 2540 022a 74797065 		.ascii	"type\000"
 2540      00
 2541              	.LASF3:
 2542 022f 73686F72 		.ascii	"short int\000"
 2542      7420696E 
 2542      7400
 2543              	.LASF5:
 2544 0239 75696E74 		.ascii	"uint16_t\000"
 2544      31365F74 
 2544      00
 2545              	.LASF8:
 2546 0242 75696E74 		.ascii	"uint32_t\000"
 2546      33325F74 
 2546      00
 2547              	.LASF7:
 2548 024b 6C6F6E67 		.ascii	"long int\000"
 2548      20696E74 
 2548      00
 2549              	.LASF31:
 2550 0254 70726F74 		.ascii	"proto_len\000"
 2550      6F5F6C65 
 2550      6E00
 2551              	.LASF12:
 2552 025e 5F426F6F 		.ascii	"_Bool\000"
 2552      6C00
 2553              	.LASF30:
 2554 0264 70726F74 		.ascii	"proto\000"
 2554      6F00
 2555              	.LASF29:
 2556 026a 64657374 		.ascii	"dest\000"
 2556      00
 2557              		.ident	"GCC: (GNU Tools for ARM Embedded Processors) 4.7.4 20130613 (release) [ARM/embedded-4_7-br
ARM GAS  /tmp/ccRKR4lc.s 			page 48


DEFINED SYMBOLS
                            *ABS*:00000000 inet_chksum.c
     /tmp/ccRKR4lc.s:19     .text.lwip_standard_chksum:00000000 $t
     /tmp/ccRKR4lc.s:24     .text.lwip_standard_chksum:00000000 lwip_standard_chksum
     /tmp/ccRKR4lc.s:160    .text.inet_chksum_pseudo:00000000 $t
     /tmp/ccRKR4lc.s:166    .text.inet_chksum_pseudo:00000000 inet_chksum_pseudo
     /tmp/ccRKR4lc.s:293    .text.inet_chksum_pseudo_partial:00000000 $t
     /tmp/ccRKR4lc.s:299    .text.inet_chksum_pseudo_partial:00000000 inet_chksum_pseudo_partial
     /tmp/ccRKR4lc.s:464    .text.inet_chksum:00000000 $t
     /tmp/ccRKR4lc.s:470    .text.inet_chksum:00000000 inet_chksum
     /tmp/ccRKR4lc.s:493    .text.inet_chksum_pbuf:00000000 $t
     /tmp/ccRKR4lc.s:499    .text.inet_chksum_pbuf:00000000 inet_chksum_pbuf
                     .debug_frame:00000010 $d

UNDEFINED SYMBOLS
lwip_htons
port_halt
