ARM GAS  /tmp/ccHuglTl.s 			page 1


   1              		.syntax unified
   2              		.cpu cortex-m4
   3              		.fpu softvfp
   4              		.eabi_attribute 20, 1
   5              		.eabi_attribute 21, 1
   6              		.eabi_attribute 23, 3
   7              		.eabi_attribute 24, 1
   8              		.eabi_attribute 25, 1
   9              		.eabi_attribute 26, 1
  10              		.eabi_attribute 30, 2
  11              		.eabi_attribute 34, 1
  12              		.eabi_attribute 18, 4
  13              		.thumb
  14              		.file	"init.c"
  15              		.text
  16              	.Ltext0:
  17              		.cfi_sections	.debug_frame
  18              		.section	.text.lwip_init,"ax",%progbits
  19              		.align	2
  20              		.p2align 4,,15
  21              		.global	lwip_init
  22              		.thumb
  23              		.thumb_func
  24              		.type	lwip_init, %function
  25              	lwip_init:
  26              	.LFB7:
  27              		.file 1 "../../ext/lwip/src/core/init.c"
  28              		.loc 1 290 0
  29              		.cfi_startproc
  30              		@ args = 0, pretend = 0, frame = 0
  31              		@ frame_needed = 0, uses_anonymous_args = 0
  32 0000 08B5     		push	{r3, lr}
  33              	.LCFI0:
  34              		.cfi_def_cfa_offset 8
  35              		.cfi_offset 3, -8
  36              		.cfi_offset 14, -4
  37              		.loc 1 292 0
  38 0002 FFF7FEFF 		bl	stats_init
  39              	.LVL0:
  40              		.loc 1 294 0
  41 0006 FFF7FEFF 		bl	sys_init
  42              	.LVL1:
  43              		.loc 1 296 0
  44 000a FFF7FEFF 		bl	mem_init
  45              	.LVL2:
  46              		.loc 1 297 0
  47 000e FFF7FEFF 		bl	memp_init
  48              	.LVL3:
  49              		.loc 1 299 0
  50 0012 FFF7FEFF 		bl	netif_init
  51              	.LVL4:
  52              		.loc 1 301 0
  53 0016 FFF7FEFF 		bl	lwip_socket_init
  54              	.LVL5:
  55              		.loc 1 311 0
  56 001a FFF7FEFF 		bl	udp_init
  57              	.LVL6:
ARM GAS  /tmp/ccHuglTl.s 			page 2


  58              		.loc 1 314 0
  59 001e FFF7FEFF 		bl	tcp_init
  60              	.LVL7:
  61              		.loc 1 332 0
  62 0022 BDE80840 		pop	{r3, lr}
  63              		.loc 1 330 0
  64 0026 FFF7FEBF 		b	sys_timeouts_init
  65              	.LVL8:
  66              		.cfi_endproc
  67              	.LFE7:
  68              		.size	lwip_init, .-lwip_init
  69 002a 00BFAFF3 		.text
  69      0080
  70              	.Letext0:
  71              		.file 2 "../../ext/lwip/src/include/lwip/stats.h"
  72              		.file 3 "../../ext/lwip/src/include/lwip/sys.h"
  73              		.file 4 "../../ext/lwip/src/include/lwip/mem.h"
  74              		.file 5 "../../ext/lwip/src/include/lwip/memp.h"
  75              		.file 6 "../../ext/lwip/src/include/lwip/netif.h"
  76              		.file 7 "../../ext/lwip/src/include/lwip/sockets.h"
  77              		.file 8 "../../ext/lwip/src/include/lwip/udp.h"
  78              		.file 9 "../../ext/lwip/src/include/lwip/tcp_impl.h"
  79              		.file 10 "../../ext/lwip/src/include/lwip/timers.h"
  80              		.section	.debug_info,"",%progbits
  81              	.Ldebug_info0:
  82 0000 4B010000 		.4byte	0x14b
  83 0004 0200     		.2byte	0x2
  84 0006 00000000 		.4byte	.Ldebug_abbrev0
  85 000a 04       		.byte	0x4
  86 000b 01       		.uleb128 0x1
  87 000c 08010000 		.4byte	.LASF21
  88 0010 01       		.byte	0x1
  89 0011 68010000 		.4byte	.LASF22
  90 0015 4A000000 		.4byte	.LASF23
  91 0019 00000000 		.4byte	.Ldebug_ranges0+0
  92 001d 00000000 		.4byte	0
  93 0021 00000000 		.4byte	0
  94 0025 00000000 		.4byte	.Ldebug_line0
  95 0029 02       		.uleb128 0x2
  96 002a 04       		.byte	0x4
  97 002b 05       		.byte	0x5
  98 002c 696E7400 		.ascii	"int\000"
  99 0030 03       		.uleb128 0x3
 100 0031 04       		.byte	0x4
 101 0032 07       		.byte	0x7
 102 0033 2B000000 		.4byte	.LASF0
 103 0037 03       		.uleb128 0x3
 104 0038 01       		.byte	0x1
 105 0039 06       		.byte	0x6
 106 003a 87010000 		.4byte	.LASF1
 107 003e 03       		.uleb128 0x3
 108 003f 01       		.byte	0x1
 109 0040 08       		.byte	0x8
 110 0041 D7000000 		.4byte	.LASF2
 111 0045 03       		.uleb128 0x3
 112 0046 02       		.byte	0x2
 113 0047 05       		.byte	0x5
ARM GAS  /tmp/ccHuglTl.s 			page 3


 114 0048 FE000000 		.4byte	.LASF3
 115 004c 03       		.uleb128 0x3
 116 004d 02       		.byte	0x2
 117 004e 07       		.byte	0x7
 118 004f 0E000000 		.4byte	.LASF4
 119 0053 03       		.uleb128 0x3
 120 0054 04       		.byte	0x4
 121 0055 05       		.byte	0x5
 122 0056 F5000000 		.4byte	.LASF5
 123 005a 03       		.uleb128 0x3
 124 005b 04       		.byte	0x4
 125 005c 07       		.byte	0x7
 126 005d 38000000 		.4byte	.LASF6
 127 0061 03       		.uleb128 0x3
 128 0062 08       		.byte	0x8
 129 0063 05       		.byte	0x5
 130 0064 00000000 		.4byte	.LASF7
 131 0068 03       		.uleb128 0x3
 132 0069 08       		.byte	0x8
 133 006a 07       		.byte	0x7
 134 006b 90000000 		.4byte	.LASF8
 135 006f 03       		.uleb128 0x3
 136 0070 01       		.byte	0x1
 137 0071 02       		.byte	0x2
 138 0072 62010000 		.4byte	.LASF9
 139 0076 03       		.uleb128 0x3
 140 0077 04       		.byte	0x4
 141 0078 07       		.byte	0x7
 142 0079 AE010000 		.4byte	.LASF10
 143 007d 03       		.uleb128 0x3
 144 007e 01       		.byte	0x1
 145 007f 08       		.byte	0x8
 146 0080 E5000000 		.4byte	.LASF11
 147 0084 04       		.uleb128 0x4
 148 0085 01       		.byte	0x1
 149 0086 B0000000 		.4byte	.LASF24
 150 008a 01       		.byte	0x1
 151 008b 2101     		.2byte	0x121
 152 008d 01       		.byte	0x1
 153 008e 00000000 		.4byte	.LFB7
 154 0092 2A000000 		.4byte	.LFE7
 155 0096 00000000 		.4byte	.LLST0
 156 009a 01       		.byte	0x1
 157 009b F2000000 		.4byte	0xf2
 158 009f 05       		.uleb128 0x5
 159 00a0 06000000 		.4byte	.LVL0
 160 00a4 F2000000 		.4byte	0xf2
 161 00a8 05       		.uleb128 0x5
 162 00a9 0A000000 		.4byte	.LVL1
 163 00ad FC000000 		.4byte	0xfc
 164 00b1 05       		.uleb128 0x5
 165 00b2 0E000000 		.4byte	.LVL2
 166 00b6 06010000 		.4byte	0x106
 167 00ba 05       		.uleb128 0x5
 168 00bb 12000000 		.4byte	.LVL3
 169 00bf 10010000 		.4byte	0x110
 170 00c3 05       		.uleb128 0x5
ARM GAS  /tmp/ccHuglTl.s 			page 4


 171 00c4 16000000 		.4byte	.LVL4
 172 00c8 1A010000 		.4byte	0x11a
 173 00cc 05       		.uleb128 0x5
 174 00cd 1A000000 		.4byte	.LVL5
 175 00d1 25010000 		.4byte	0x125
 176 00d5 05       		.uleb128 0x5
 177 00d6 1E000000 		.4byte	.LVL6
 178 00da 30010000 		.4byte	0x130
 179 00de 05       		.uleb128 0x5
 180 00df 22000000 		.4byte	.LVL7
 181 00e3 3A010000 		.4byte	0x13a
 182 00e7 06       		.uleb128 0x6
 183 00e8 2A000000 		.4byte	.LVL8
 184 00ec 01       		.byte	0x1
 185 00ed 44010000 		.4byte	0x144
 186 00f1 00       		.byte	0
 187 00f2 07       		.uleb128 0x7
 188 00f3 01       		.byte	0x1
 189 00f4 BA000000 		.4byte	.LASF12
 190 00f8 02       		.byte	0x2
 191 00f9 97       		.byte	0x97
 192 00fa 01       		.byte	0x1
 193 00fb 01       		.byte	0x1
 194 00fc 07       		.uleb128 0x7
 195 00fd 01       		.byte	0x1
 196 00fe 9C010000 		.4byte	.LASF13
 197 0102 03       		.byte	0x3
 198 0103 E8       		.byte	0xe8
 199 0104 01       		.byte	0x1
 200 0105 01       		.byte	0x1
 201 0106 07       		.uleb128 0x7
 202 0107 01       		.byte	0x1
 203 0108 A7000000 		.4byte	.LASF14
 204 010c 04       		.byte	0x4
 205 010d 58       		.byte	0x58
 206 010e 01       		.byte	0x1
 207 010f 01       		.byte	0x1
 208 0110 07       		.uleb128 0x7
 209 0111 01       		.byte	0x1
 210 0112 21000000 		.4byte	.LASF15
 211 0116 05       		.byte	0x5
 212 0117 64       		.byte	0x64
 213 0118 01       		.byte	0x1
 214 0119 01       		.byte	0x1
 215 011a 08       		.uleb128 0x8
 216 011b 01       		.byte	0x1
 217 011c EA000000 		.4byte	.LASF16
 218 0120 06       		.byte	0x6
 219 0121 0101     		.2byte	0x101
 220 0123 01       		.byte	0x1
 221 0124 01       		.byte	0x1
 222 0125 08       		.uleb128 0x8
 223 0126 01       		.byte	0x1
 224 0127 51010000 		.4byte	.LASF17
 225 012b 07       		.byte	0x7
 226 012c 3F01     		.2byte	0x13f
 227 012e 01       		.byte	0x1
ARM GAS  /tmp/ccHuglTl.s 			page 5


 228 012f 01       		.byte	0x1
 229 0130 07       		.uleb128 0x7
 230 0131 01       		.byte	0x1
 231 0132 93010000 		.4byte	.LASF18
 232 0136 08       		.byte	0x8
 233 0137 9D       		.byte	0x9d
 234 0138 01       		.byte	0x1
 235 0139 01       		.byte	0x1
 236 013a 07       		.uleb128 0x7
 237 013b 01       		.byte	0x1
 238 013c A5010000 		.4byte	.LASF19
 239 0140 09       		.byte	0x9
 240 0141 35       		.byte	0x35
 241 0142 01       		.byte	0x1
 242 0143 01       		.byte	0x1
 243 0144 07       		.uleb128 0x7
 244 0145 01       		.byte	0x1
 245 0146 C5000000 		.4byte	.LASF20
 246 014a 0A       		.byte	0xa
 247 014b 4D       		.byte	0x4d
 248 014c 01       		.byte	0x1
 249 014d 01       		.byte	0x1
 250 014e 00       		.byte	0
 251              		.section	.debug_abbrev,"",%progbits
 252              	.Ldebug_abbrev0:
 253 0000 01       		.uleb128 0x1
 254 0001 11       		.uleb128 0x11
 255 0002 01       		.byte	0x1
 256 0003 25       		.uleb128 0x25
 257 0004 0E       		.uleb128 0xe
 258 0005 13       		.uleb128 0x13
 259 0006 0B       		.uleb128 0xb
 260 0007 03       		.uleb128 0x3
 261 0008 0E       		.uleb128 0xe
 262 0009 1B       		.uleb128 0x1b
 263 000a 0E       		.uleb128 0xe
 264 000b 55       		.uleb128 0x55
 265 000c 06       		.uleb128 0x6
 266 000d 11       		.uleb128 0x11
 267 000e 01       		.uleb128 0x1
 268 000f 52       		.uleb128 0x52
 269 0010 01       		.uleb128 0x1
 270 0011 10       		.uleb128 0x10
 271 0012 06       		.uleb128 0x6
 272 0013 00       		.byte	0
 273 0014 00       		.byte	0
 274 0015 02       		.uleb128 0x2
 275 0016 24       		.uleb128 0x24
 276 0017 00       		.byte	0
 277 0018 0B       		.uleb128 0xb
 278 0019 0B       		.uleb128 0xb
 279 001a 3E       		.uleb128 0x3e
 280 001b 0B       		.uleb128 0xb
 281 001c 03       		.uleb128 0x3
 282 001d 08       		.uleb128 0x8
 283 001e 00       		.byte	0
 284 001f 00       		.byte	0
ARM GAS  /tmp/ccHuglTl.s 			page 6


 285 0020 03       		.uleb128 0x3
 286 0021 24       		.uleb128 0x24
 287 0022 00       		.byte	0
 288 0023 0B       		.uleb128 0xb
 289 0024 0B       		.uleb128 0xb
 290 0025 3E       		.uleb128 0x3e
 291 0026 0B       		.uleb128 0xb
 292 0027 03       		.uleb128 0x3
 293 0028 0E       		.uleb128 0xe
 294 0029 00       		.byte	0
 295 002a 00       		.byte	0
 296 002b 04       		.uleb128 0x4
 297 002c 2E       		.uleb128 0x2e
 298 002d 01       		.byte	0x1
 299 002e 3F       		.uleb128 0x3f
 300 002f 0C       		.uleb128 0xc
 301 0030 03       		.uleb128 0x3
 302 0031 0E       		.uleb128 0xe
 303 0032 3A       		.uleb128 0x3a
 304 0033 0B       		.uleb128 0xb
 305 0034 3B       		.uleb128 0x3b
 306 0035 05       		.uleb128 0x5
 307 0036 27       		.uleb128 0x27
 308 0037 0C       		.uleb128 0xc
 309 0038 11       		.uleb128 0x11
 310 0039 01       		.uleb128 0x1
 311 003a 12       		.uleb128 0x12
 312 003b 01       		.uleb128 0x1
 313 003c 40       		.uleb128 0x40
 314 003d 06       		.uleb128 0x6
 315 003e 9742     		.uleb128 0x2117
 316 0040 0C       		.uleb128 0xc
 317 0041 01       		.uleb128 0x1
 318 0042 13       		.uleb128 0x13
 319 0043 00       		.byte	0
 320 0044 00       		.byte	0
 321 0045 05       		.uleb128 0x5
 322 0046 898201   		.uleb128 0x4109
 323 0049 00       		.byte	0
 324 004a 11       		.uleb128 0x11
 325 004b 01       		.uleb128 0x1
 326 004c 31       		.uleb128 0x31
 327 004d 13       		.uleb128 0x13
 328 004e 00       		.byte	0
 329 004f 00       		.byte	0
 330 0050 06       		.uleb128 0x6
 331 0051 898201   		.uleb128 0x4109
 332 0054 00       		.byte	0
 333 0055 11       		.uleb128 0x11
 334 0056 01       		.uleb128 0x1
 335 0057 9542     		.uleb128 0x2115
 336 0059 0C       		.uleb128 0xc
 337 005a 31       		.uleb128 0x31
 338 005b 13       		.uleb128 0x13
 339 005c 00       		.byte	0
 340 005d 00       		.byte	0
 341 005e 07       		.uleb128 0x7
ARM GAS  /tmp/ccHuglTl.s 			page 7


 342 005f 2E       		.uleb128 0x2e
 343 0060 00       		.byte	0
 344 0061 3F       		.uleb128 0x3f
 345 0062 0C       		.uleb128 0xc
 346 0063 03       		.uleb128 0x3
 347 0064 0E       		.uleb128 0xe
 348 0065 3A       		.uleb128 0x3a
 349 0066 0B       		.uleb128 0xb
 350 0067 3B       		.uleb128 0x3b
 351 0068 0B       		.uleb128 0xb
 352 0069 27       		.uleb128 0x27
 353 006a 0C       		.uleb128 0xc
 354 006b 3C       		.uleb128 0x3c
 355 006c 0C       		.uleb128 0xc
 356 006d 00       		.byte	0
 357 006e 00       		.byte	0
 358 006f 08       		.uleb128 0x8
 359 0070 2E       		.uleb128 0x2e
 360 0071 00       		.byte	0
 361 0072 3F       		.uleb128 0x3f
 362 0073 0C       		.uleb128 0xc
 363 0074 03       		.uleb128 0x3
 364 0075 0E       		.uleb128 0xe
 365 0076 3A       		.uleb128 0x3a
 366 0077 0B       		.uleb128 0xb
 367 0078 3B       		.uleb128 0x3b
 368 0079 05       		.uleb128 0x5
 369 007a 27       		.uleb128 0x27
 370 007b 0C       		.uleb128 0xc
 371 007c 3C       		.uleb128 0x3c
 372 007d 0C       		.uleb128 0xc
 373 007e 00       		.byte	0
 374 007f 00       		.byte	0
 375 0080 00       		.byte	0
 376              		.section	.debug_loc,"",%progbits
 377              	.Ldebug_loc0:
 378              	.LLST0:
 379 0000 00000000 		.4byte	.LFB7
 380 0004 02000000 		.4byte	.LCFI0
 381 0008 0200     		.2byte	0x2
 382 000a 7D       		.byte	0x7d
 383 000b 00       		.sleb128 0
 384 000c 02000000 		.4byte	.LCFI0
 385 0010 2A000000 		.4byte	.LFE7
 386 0014 0200     		.2byte	0x2
 387 0016 7D       		.byte	0x7d
 388 0017 08       		.sleb128 8
 389 0018 00000000 		.4byte	0
 390 001c 00000000 		.4byte	0
 391              		.section	.debug_aranges,"",%progbits
 392 0000 1C000000 		.4byte	0x1c
 393 0004 0200     		.2byte	0x2
 394 0006 00000000 		.4byte	.Ldebug_info0
 395 000a 04       		.byte	0x4
 396 000b 00       		.byte	0
 397 000c 0000     		.2byte	0
 398 000e 0000     		.2byte	0
ARM GAS  /tmp/ccHuglTl.s 			page 8


 399 0010 00000000 		.4byte	.LFB7
 400 0014 2A000000 		.4byte	.LFE7-.LFB7
 401 0018 00000000 		.4byte	0
 402 001c 00000000 		.4byte	0
 403              		.section	.debug_ranges,"",%progbits
 404              	.Ldebug_ranges0:
 405 0000 00000000 		.4byte	.LFB7
 406 0004 2A000000 		.4byte	.LFE7
 407 0008 00000000 		.4byte	0
 408 000c 00000000 		.4byte	0
 409              		.section	.debug_line,"",%progbits
 410              	.Ldebug_line0:
 411 0000 DB000000 		.section	.debug_str,"MS",%progbits,1
 411      0200B700 
 411      00000201 
 411      FB0E0D00 
 411      01010101 
 412              	.LASF7:
 413 0000 6C6F6E67 		.ascii	"long long int\000"
 413      206C6F6E 
 413      6720696E 
 413      7400
 414              	.LASF4:
 415 000e 73686F72 		.ascii	"short unsigned int\000"
 415      7420756E 
 415      7369676E 
 415      65642069 
 415      6E7400
 416              	.LASF15:
 417 0021 6D656D70 		.ascii	"memp_init\000"
 417      5F696E69 
 417      7400
 418              	.LASF0:
 419 002b 756E7369 		.ascii	"unsigned int\000"
 419      676E6564 
 419      20696E74 
 419      00
 420              	.LASF6:
 421 0038 6C6F6E67 		.ascii	"long unsigned int\000"
 421      20756E73 
 421      69676E65 
 421      6420696E 
 421      7400
 422              	.LASF23:
 423 004a 2F686F6D 		.ascii	"/home/witold/Dokumenty/arm/ChibiOS-master/demos/ARM"
 423      652F7769 
 423      746F6C64 
 423      2F446F6B 
 423      756D656E 
 424 007d 434D342D 		.ascii	"CM4-STM32F407-LWIP\000"
 424      53544D33 
 424      32463430 
 424      372D4C57 
 424      495000
 425              	.LASF8:
 426 0090 6C6F6E67 		.ascii	"long long unsigned int\000"
 426      206C6F6E 
ARM GAS  /tmp/ccHuglTl.s 			page 9


 426      6720756E 
 426      7369676E 
 426      65642069 
 427              	.LASF14:
 428 00a7 6D656D5F 		.ascii	"mem_init\000"
 428      696E6974 
 428      00
 429              	.LASF24:
 430 00b0 6C776970 		.ascii	"lwip_init\000"
 430      5F696E69 
 430      7400
 431              	.LASF12:
 432 00ba 73746174 		.ascii	"stats_init\000"
 432      735F696E 
 432      697400
 433              	.LASF20:
 434 00c5 7379735F 		.ascii	"sys_timeouts_init\000"
 434      74696D65 
 434      6F757473 
 434      5F696E69 
 434      7400
 435              	.LASF2:
 436 00d7 756E7369 		.ascii	"unsigned char\000"
 436      676E6564 
 436      20636861 
 436      7200
 437              	.LASF11:
 438 00e5 63686172 		.ascii	"char\000"
 438      00
 439              	.LASF16:
 440 00ea 6E657469 		.ascii	"netif_init\000"
 440      665F696E 
 440      697400
 441              	.LASF5:
 442 00f5 6C6F6E67 		.ascii	"long int\000"
 442      20696E74 
 442      00
 443              	.LASF3:
 444 00fe 73686F72 		.ascii	"short int\000"
 444      7420696E 
 444      7400
 445              	.LASF21:
 446 0108 474E5520 		.ascii	"GNU C 4.7.4 20130613 (release) [ARM/embedded-4_7-br"
 446      4320342E 
 446      372E3420 
 446      32303133 
 446      30363133 
 447 013b 616E6368 		.ascii	"anch revision 200083]\000"
 447      20726576 
 447      6973696F 
 447      6E203230 
 447      30303833 
 448              	.LASF17:
 449 0151 6C776970 		.ascii	"lwip_socket_init\000"
 449      5F736F63 
 449      6B65745F 
 449      696E6974 
ARM GAS  /tmp/ccHuglTl.s 			page 10


 449      00
 450              	.LASF9:
 451 0162 5F426F6F 		.ascii	"_Bool\000"
 451      6C00
 452              	.LASF22:
 453 0168 2E2E2F2E 		.ascii	"../../ext/lwip/src/core/init.c\000"
 453      2E2F6578 
 453      742F6C77 
 453      69702F73 
 453      72632F63 
 454              	.LASF1:
 455 0187 7369676E 		.ascii	"signed char\000"
 455      65642063 
 455      68617200 
 456              	.LASF18:
 457 0193 7564705F 		.ascii	"udp_init\000"
 457      696E6974 
 457      00
 458              	.LASF13:
 459 019c 7379735F 		.ascii	"sys_init\000"
 459      696E6974 
 459      00
 460              	.LASF19:
 461 01a5 7463705F 		.ascii	"tcp_init\000"
 461      696E6974 
 461      00
 462              	.LASF10:
 463 01ae 73697A65 		.ascii	"sizetype\000"
 463      74797065 
 463      00
 464              		.ident	"GCC: (GNU Tools for ARM Embedded Processors) 4.7.4 20130613 (release) [ARM/embedded-4_7-br
ARM GAS  /tmp/ccHuglTl.s 			page 11


DEFINED SYMBOLS
                            *ABS*:00000000 init.c
     /tmp/ccHuglTl.s:19     .text.lwip_init:00000000 $t
     /tmp/ccHuglTl.s:25     .text.lwip_init:00000000 lwip_init
                     .debug_frame:00000010 $d

UNDEFINED SYMBOLS
stats_init
sys_init
mem_init
memp_init
netif_init
lwip_socket_init
udp_init
tcp_init
sys_timeouts_init
