ARM GAS  /tmp/ccspbRIz.s 			page 1


   1              		.syntax unified
   2              		.cpu cortex-m4
   3              		.fpu softvfp
   4              		.eabi_attribute 20, 1
   5              		.eabi_attribute 21, 1
   6              		.eabi_attribute 23, 3
   7              		.eabi_attribute 24, 1
   8              		.eabi_attribute 25, 1
   9              		.eabi_attribute 26, 1
  10              		.eabi_attribute 30, 2
  11              		.eabi_attribute 34, 1
  12              		.eabi_attribute 18, 4
  13              		.thumb
  14              		.file	"ip.c"
  15              		.text
  16              	.Ltext0:
  17              		.cfi_sections	.debug_frame
  18              		.section	.text.ip_route,"ax",%progbits
  19              		.align	2
  20              		.p2align 4,,15
  21              		.global	ip_route
  22              		.thumb
  23              		.thumb_func
  24              		.type	ip_route, %function
  25              	ip_route:
  26              	.LFB7:
  27              		.file 1 "../../ext/lwip/src/core/ipv4/ip.c"
  28              		.loc 1 125 0
  29              		.cfi_startproc
  30              		@ args = 0, pretend = 0, frame = 0
  31              		@ frame_needed = 0, uses_anonymous_args = 0
  32              		@ link register save eliminated.
  33              	.LVL0:
  34 0000 10B4     		push	{r4}
  35              	.LCFI0:
  36              		.cfi_def_cfa_offset 4
  37              		.cfi_offset 4, -4
  38              		.loc 1 136 0
  39 0002 0F4B     		ldr	r3, .L23
  40              	.L21:
  41 0004 1B68     		ldr	r3, [r3, #0]
  42              	.LVL1:
  43 0006 63B1     		cbz	r3, .L2
  44              		.loc 1 138 0
  45 0008 93F82920 		ldrb	r2, [r3, #41]	@ zero_extendqisi2
  46 000c D107     		lsls	r1, r2, #31
  47 000e F9D5     		bpl	.L21
  48              		.loc 1 139 0
  49 0010 5C68     		ldr	r4, [r3, #4]
  50 0012 0168     		ldr	r1, [r0, #0]
  51 0014 9A68     		ldr	r2, [r3, #8]
  52 0016 6140     		eors	r1, r1, r4
  53 0018 1142     		tst	r1, r2
  54 001a F3D1     		bne	.L21
  55              	.LVL2:
  56              	.L4:
  57              		.loc 1 154 0
ARM GAS  /tmp/ccspbRIz.s 			page 2


  58 001c 1846     		mov	r0, r3
  59 001e 10BC     		pop	{r4}
  60 0020 7047     		bx	lr
  61              	.LVL3:
  62              	.L2:
  63              		.loc 1 145 0
  64 0022 084B     		ldr	r3, .L23+4
  65              	.LVL4:
  66 0024 1B68     		ldr	r3, [r3, #0]
  67 0026 1BB1     		cbz	r3, .L6
  68              		.loc 1 145 0 is_stmt 0 discriminator 1
  69 0028 93F82920 		ldrb	r2, [r3, #41]	@ zero_extendqisi2
  70 002c D207     		lsls	r2, r2, #31
  71 002e F5D4     		bmi	.L4
  72              	.L6:
  73              		.loc 1 148 0 is_stmt 1
  74 0030 0548     		ldr	r0, .L23+8
  75              	.LVL5:
  76 0032 B0F85610 		ldrh	r1, [r0, #86]
  77 0036 4B1C     		adds	r3, r1, #1
  78 0038 A0F85630 		strh	r3, [r0, #86]	@ movhi
  79              		.loc 1 150 0
  80 003c 0023     		movs	r3, #0
  81 003e EDE7     		b	.L4
  82              	.L24:
  83              		.align	2
  84              	.L23:
  85 0040 00000000 		.word	netif_list
  86 0044 00000000 		.word	netif_default
  87 0048 00000000 		.word	lwip_stats
  88              		.cfi_endproc
  89              	.LFE7:
  90              		.size	ip_route, .-ip_route
  91 004c AFF30080 		.section	.text.ip_input,"ax",%progbits
  92              		.align	2
  93              		.p2align 4,,15
  94              		.global	ip_input
  95              		.thumb
  96              		.thumb_func
  97              		.type	ip_input, %function
  98              	ip_input:
  99              	.LFB8:
 100              		.loc 1 306 0
 101              		.cfi_startproc
 102              		@ args = 0, pretend = 0, frame = 8
 103              		@ frame_needed = 0, uses_anonymous_args = 0
 104              	.LVL6:
 105 0000 2DE9F04F 		push	{r4, r5, r6, r7, r8, r9, sl, fp, lr}
 106              	.LCFI1:
 107              		.cfi_def_cfa_offset 36
 108              		.cfi_offset 4, -36
 109              		.cfi_offset 5, -32
 110              		.cfi_offset 6, -28
 111              		.cfi_offset 7, -24
 112              		.cfi_offset 8, -20
 113              		.cfi_offset 9, -16
 114              		.cfi_offset 10, -12
ARM GAS  /tmp/ccspbRIz.s 			page 3


 115              		.cfi_offset 11, -8
 116              		.cfi_offset 14, -4
 117              		.loc 1 315 0
 118 0004 764C     		ldr	r4, .L68
 119              		.loc 1 319 0
 120 0006 4668     		ldr	r6, [r0, #4]
 121              	.LVL7:
 122              		.loc 1 315 0
 123 0008 B4F84A30 		ldrh	r3, [r4, #74]
 124 000c 5A1C     		adds	r2, r3, #1
 125 000e A4F84A20 		strh	r2, [r4, #74]	@ movhi
 126              		.loc 1 320 0
 127 0012 3378     		ldrb	r3, [r6, #0]	@ zero_extendqisi2
 128 0014 1A09     		lsrs	r2, r3, #4
 129 0016 042A     		cmp	r2, #4
 130              		.loc 1 306 0
 131 0018 83B0     		sub	sp, sp, #12
 132              	.LCFI2:
 133              		.cfi_def_cfa_offset 48
 134              		.loc 1 306 0
 135 001a 0546     		mov	r5, r0
 136 001c 8846     		mov	r8, r1
 137              		.loc 1 320 0
 138 001e 0FD0     		beq	.L26
 139              		.loc 1 323 0
 140 0020 FFF7FEFF 		bl	pbuf_free
 141              	.LVL8:
 142              		.loc 1 324 0
 143 0024 B4F85C10 		ldrh	r1, [r4, #92]
 144              		.loc 1 325 0
 145 0028 B4F84E00 		ldrh	r0, [r4, #78]
 146              		.loc 1 324 0
 147 002c 4A1C     		adds	r2, r1, #1
 148              		.loc 1 325 0
 149 002e 431C     		adds	r3, r0, #1
 150              		.loc 1 324 0
 151 0030 A4F85C20 		strh	r2, [r4, #92]	@ movhi
 152              		.loc 1 325 0
 153 0034 A4F84E30 		strh	r3, [r4, #78]	@ movhi
 154              	.L27:
 155              		.loc 1 613 0
 156 0038 0020     		movs	r0, #0
 157 003a 03B0     		add	sp, sp, #12
 158 003c BDE8F08F 		pop	{r4, r5, r6, r7, r8, r9, sl, fp, pc}
 159              	.LVL9:
 160              	.L26:
 161              		.loc 1 338 0
 162 0040 03F00F01 		and	r1, r3, #15
 163              	.LVL10:
 164              		.loc 1 342 0
 165 0044 7088     		ldrh	r0, [r6, #2]	@ unaligned
 166              	.LVL11:
 167              		.loc 1 340 0
 168 0046 8F00     		lsls	r7, r1, #2
 169              	.LVL12:
 170              		.loc 1 342 0
 171 0048 FFF7FEFF 		bl	lwip_ntohs
ARM GAS  /tmp/ccspbRIz.s 			page 4


 172              	.LVL13:
 173 004c 8146     		mov	r9, r0
 174              	.LVL14:
 175              		.loc 1 345 0
 176 004e 6889     		ldrh	r0, [r5, #10]
 177              	.LVL15:
 178 0050 B842     		cmp	r0, r7
 179 0052 02D3     		bcc	.L28
 180              		.loc 1 345 0 is_stmt 0 discriminator 1
 181 0054 2B89     		ldrh	r3, [r5, #8]
 182 0056 4B45     		cmp	r3, r9
 183 0058 0DD2     		bcs	.L29
 184              	.L28:
 185              		.loc 1 357 0 is_stmt 1
 186 005a 2846     		mov	r0, r5
 187 005c FFF7FEFF 		bl	pbuf_free
 188              	.LVL16:
 189              		.loc 1 358 0
 190 0060 B4F85210 		ldrh	r1, [r4, #82]
 191              		.loc 1 359 0
 192 0064 B4F84E00 		ldrh	r0, [r4, #78]
 193              		.loc 1 358 0
 194 0068 4A1C     		adds	r2, r1, #1
 195              		.loc 1 359 0
 196 006a 431C     		adds	r3, r0, #1
 197              		.loc 1 358 0
 198 006c A4F85220 		strh	r2, [r4, #82]	@ movhi
 199              		.loc 1 359 0
 200 0070 A4F84E30 		strh	r3, [r4, #78]	@ movhi
 201              		.loc 1 361 0
 202 0074 E0E7     		b	.L27
 203              	.L29:
 204              		.loc 1 366 0
 205 0076 3046     		mov	r0, r6
 206 0078 3946     		mov	r1, r7
 207 007a FFF7FEFF 		bl	inet_chksum
 208              	.LVL17:
 209 007e 0028     		cmp	r0, #0
 210 0080 40F08C80 		bne	.L64
 211              		.loc 1 381 0
 212 0084 4946     		mov	r1, r9
 213 0086 2846     		mov	r0, r5
 214 0088 FFF7FEFF 		bl	pbuf_realloc
 215              	.LVL18:
 216              		.loc 1 384 0
 217 008c DFF860A1 		ldr	sl, .L68+16
 218 0090 3769     		ldr	r7, [r6, #16]	@ unaligned
 219              	.LVL19:
 220              		.loc 1 385 0
 221 0092 DFF854B1 		ldr	fp, .L68+8
 222              		.loc 1 384 0
 223 0096 CAF80070 		str	r7, [sl, #0]
 224              		.loc 1 385 0
 225 009a F168     		ldr	r1, [r6, #12]	@ unaligned
 226              	.LBB2:
 227              		.loc 1 435 0
 228 009c 514A     		ldr	r2, .L68+4
ARM GAS  /tmp/ccspbRIz.s 			page 5


 229              	.LBE2:
 230              		.loc 1 385 0
 231 009e CBF80010 		str	r1, [fp, #0]
 232              	.LVL20:
 233 00a2 4746     		mov	r7, r8
 234              		.loc 1 401 0
 235 00a4 4FF00109 		mov	r9, #1
 236              	.LVL21:
 237              	.L38:
 238              	.LBB3:
 239              		.loc 1 411 0
 240 00a8 97F82900 		ldrb	r0, [r7, #41]	@ zero_extendqisi2
 241 00ac C007     		lsls	r0, r0, #31
 242 00ae 0BD5     		bpl	.L34
 243              		.loc 1 411 0 is_stmt 0 discriminator 1
 244 00b0 7B68     		ldr	r3, [r7, #4]
 245 00b2 4BB1     		cbz	r3, .L34
 246              		.loc 1 413 0 is_stmt 1
 247 00b4 DAF80000 		ldr	r0, [sl, #0]
 248 00b8 8342     		cmp	r3, r0
 249 00ba 10D0     		beq	.L35
 250              		.loc 1 415 0 discriminator 1
 251 00bc 3946     		mov	r1, r7
 252 00be 0192     		str	r2, [sp, #4]
 253 00c0 FFF7FEFF 		bl	ip4_addr_isbroadcast
 254              	.LVL22:
 255              		.loc 1 413 0 discriminator 1
 256 00c4 019A     		ldr	r2, [sp, #4]
 257 00c6 50B9     		cbnz	r0, .L35
 258              	.L34:
 259              		.loc 1 433 0
 260 00c8 B9F1000F 		cmp	r9, #0
 261 00cc 5BD0     		beq	.L65
 262              	.LVL23:
 263              		.loc 1 435 0
 264 00ce 1768     		ldr	r7, [r2, #0]
 265              	.LVL24:
 266              	.L36:
 267              		.loc 1 439 0
 268 00d0 4745     		cmp	r7, r8
 269              		.loc 1 440 0
 270 00d2 08BF     		it	eq
 271 00d4 3F68     		ldreq	r7, [r7, #0]
 272              	.LVL25:
 273 00d6 4FF00009 		mov	r9, #0
 274              		.loc 1 442 0
 275 00da 002F     		cmp	r7, #0
 276 00dc E4D1     		bne	.L38
 277              	.LVL26:
 278              	.L35:
 279              	.LBE3:
 280              		.loc 1 475 0
 281 00de DBF80000 		ldr	r0, [fp, #0]
 282 00e2 4146     		mov	r1, r8
 283 00e4 FFF7FEFF 		bl	ip4_addr_isbroadcast
 284              	.LVL27:
 285 00e8 0028     		cmp	r0, #0
ARM GAS  /tmp/ccspbRIz.s 			page 6


 286 00ea 4ED1     		bne	.L39
 287              		.loc 1 476 0 discriminator 1
 288 00ec 3E49     		ldr	r1, .L68+8
 289 00ee 0868     		ldr	r0, [r1, #0]
 290 00f0 00F0F003 		and	r3, r0, #240
 291              		.loc 1 475 0 discriminator 1
 292 00f4 E02B     		cmp	r3, #224
 293 00f6 48D0     		beq	.L39
 294              		.loc 1 489 0
 295 00f8 002F     		cmp	r7, #0
 296 00fa 6CD0     		beq	.L66
 297              		.loc 1 507 0
 298 00fc F288     		ldrh	r2, [r6, #6]	@ unaligned
 299 00fe 4FF63F71 		movw	r1, #65343
 300 0102 1140     		ands	r1, r1, r2
 301 0104 31B1     		cbz	r1, .L42
 302              		.loc 1 512 0
 303 0106 2846     		mov	r0, r5
 304 0108 FFF7FEFF 		bl	ip_reass
 305              	.LVL28:
 306              		.loc 1 514 0
 307 010c 0546     		mov	r5, r0
 308 010e 0028     		cmp	r0, #0
 309 0110 92D0     		beq	.L27
 310              		.loc 1 517 0
 311 0112 4668     		ldr	r6, [r0, #4]
 312              	.LVL29:
 313              	.L42:
 314              		.loc 1 553 0
 315 0114 DFF8DC90 		ldr	r9, .L68+20
 316              		.loc 1 554 0
 317 0118 344F     		ldr	r7, .L68+12
 318              	.LVL30:
 319              		.loc 1 553 0
 320 011a C9F80080 		str	r8, [r9, #0]
 321              		.loc 1 558 0
 322 011e 2846     		mov	r0, r5
 323 0120 4146     		mov	r1, r8
 324              		.loc 1 554 0
 325 0122 3E60     		str	r6, [r7, #0]
 326              		.loc 1 558 0
 327 0124 FFF7FEFF 		bl	raw_input
 328              	.LVL31:
 329 0128 20BB     		cbnz	r0, .L43
 330              		.loc 1 561 0
 331 012a 707A     		ldrb	r0, [r6, #9]	@ zero_extendqisi2
 332 012c 0628     		cmp	r0, #6
 333 012e 48D0     		beq	.L46
 334 0130 1128     		cmp	r0, #17
 335 0132 41D0     		beq	.L47
 336 0134 0128     		cmp	r0, #1
 337 0136 49D0     		beq	.L67
 338              		.loc 1 591 0
 339 0138 DAF80000 		ldr	r0, [sl, #0]
 340 013c 4146     		mov	r1, r8
 341 013e FFF7FEFF 		bl	ip4_addr_isbroadcast
 342              	.LVL32:
ARM GAS  /tmp/ccspbRIz.s 			page 7


 343 0142 50B9     		cbnz	r0, .L48
 344              		.loc 1 592 0 discriminator 1
 345 0144 2A4B     		ldr	r3, .L68+16
 346 0146 1A68     		ldr	r2, [r3, #0]
 347 0148 02F0F001 		and	r1, r2, #240
 348              		.loc 1 591 0 discriminator 1
 349 014c E029     		cmp	r1, #224
 350 014e 04D0     		beq	.L48
 351              		.loc 1 593 0
 352 0150 6E60     		str	r6, [r5, #4]
 353              		.loc 1 594 0
 354 0152 2846     		mov	r0, r5
 355 0154 0221     		movs	r1, #2
 356 0156 FFF7FEFF 		bl	icmp_dest_unreach
 357              	.LVL33:
 358              	.L48:
 359              		.loc 1 597 0
 360 015a 2846     		mov	r0, r5
 361 015c FFF7FEFF 		bl	pbuf_free
 362              	.LVL34:
 363              		.loc 1 601 0
 364 0160 B4F85800 		ldrh	r0, [r4, #88]
 365              		.loc 1 602 0
 366 0164 B4F84E30 		ldrh	r3, [r4, #78]
 367              		.loc 1 601 0
 368 0168 421C     		adds	r2, r0, #1
 369              		.loc 1 602 0
 370 016a 591C     		adds	r1, r3, #1
 371              		.loc 1 601 0
 372 016c A4F85820 		strh	r2, [r4, #88]	@ movhi
 373              		.loc 1 602 0
 374 0170 A4F84E10 		strh	r1, [r4, #78]	@ movhi
 375              	.L43:
 376              		.loc 1 607 0
 377 0174 0020     		movs	r0, #0
 378 0176 C9F80000 		str	r0, [r9, #0]
 379              		.loc 1 608 0
 380 017a 3860     		str	r0, [r7, #0]
 381              		.loc 1 609 0
 382 017c CBF80000 		str	r0, [fp, #0]
 383              		.loc 1 610 0
 384 0180 CAF80000 		str	r0, [sl, #0]
 385              		.loc 1 612 0
 386 0184 58E7     		b	.L27
 387              	.LVL35:
 388              	.L65:
 389              	.LBB4:
 390              		.loc 1 437 0
 391 0186 3F68     		ldr	r7, [r7, #0]
 392              	.LVL36:
 393 0188 A2E7     		b	.L36
 394              	.LVL37:
 395              	.L39:
 396              	.LBE4:
 397              		.loc 1 480 0
 398 018a 2846     		mov	r0, r5
 399 018c FFF7FEFF 		bl	pbuf_free
ARM GAS  /tmp/ccspbRIz.s 			page 8


 400              	.LVL38:
 401              		.loc 1 481 0
 402 0190 B4F84E30 		ldrh	r3, [r4, #78]
 403 0194 5A1C     		adds	r2, r3, #1
 404 0196 A4F84E20 		strh	r2, [r4, #78]	@ movhi
 405              		.loc 1 484 0
 406 019a 4DE7     		b	.L27
 407              	.LVL39:
 408              	.L64:
 409              		.loc 1 371 0
 410 019c 2846     		mov	r0, r5
 411 019e FFF7FEFF 		bl	pbuf_free
 412              	.LVL40:
 413              		.loc 1 372 0
 414 01a2 B4F85010 		ldrh	r1, [r4, #80]
 415              		.loc 1 373 0
 416 01a6 B4F84E00 		ldrh	r0, [r4, #78]
 417              		.loc 1 372 0
 418 01aa 4A1C     		adds	r2, r1, #1
 419              		.loc 1 373 0
 420 01ac 431C     		adds	r3, r0, #1
 421              		.loc 1 372 0
 422 01ae A4F85020 		strh	r2, [r4, #80]	@ movhi
 423              		.loc 1 373 0
 424 01b2 A4F84E30 		strh	r3, [r4, #78]	@ movhi
 425              		.loc 1 375 0
 426 01b6 3FE7     		b	.L27
 427              	.LVL41:
 428              	.L47:
 429              		.loc 1 568 0
 430 01b8 2846     		mov	r0, r5
 431 01ba 4146     		mov	r1, r8
 432 01bc FFF7FEFF 		bl	udp_input
 433              	.LVL42:
 434              		.loc 1 569 0
 435 01c0 D8E7     		b	.L43
 436              	.L46:
 437              		.loc 1 574 0
 438 01c2 2846     		mov	r0, r5
 439 01c4 4146     		mov	r1, r8
 440 01c6 FFF7FEFF 		bl	tcp_input
 441              	.LVL43:
 442              		.loc 1 575 0
 443 01ca D3E7     		b	.L43
 444              	.L67:
 445              		.loc 1 580 0
 446 01cc 2846     		mov	r0, r5
 447 01ce 4146     		mov	r1, r8
 448 01d0 FFF7FEFF 		bl	icmp_input
 449              	.LVL44:
 450              		.loc 1 581 0
 451 01d4 CEE7     		b	.L43
 452              	.LVL45:
 453              	.L66:
 454              		.loc 1 503 0
 455 01d6 2846     		mov	r0, r5
 456 01d8 FFF7FEFF 		bl	pbuf_free
ARM GAS  /tmp/ccspbRIz.s 			page 9


 457              	.LVL46:
 458              		.loc 1 504 0
 459 01dc 2CE7     		b	.L27
 460              	.L69:
 461 01de 00BF     		.align	2
 462              	.L68:
 463 01e0 00000000 		.word	lwip_stats
 464 01e4 00000000 		.word	netif_list
 465 01e8 00000000 		.word	.LANCHOR1
 466 01ec 00000000 		.word	.LANCHOR3
 467 01f0 00000000 		.word	.LANCHOR0
 468 01f4 00000000 		.word	.LANCHOR2
 469              		.cfi_endproc
 470              	.LFE8:
 471              		.size	ip_input, .-ip_input
 472 01f8 AFF30080 		.section	.text.ip_output_if,"ax",%progbits
 472      AFF30080 
 473              		.align	2
 474              		.p2align 4,,15
 475              		.global	ip_output_if
 476              		.thumb
 477              		.thumb_func
 478              		.type	ip_output_if, %function
 479              	ip_output_if:
 480              	.LFB9:
 481              		.loc 1 644 0
 482              		.cfi_startproc
 483              		@ args = 12, pretend = 0, frame = 24
 484              		@ frame_needed = 0, uses_anonymous_args = 0
 485              	.LVL47:
 486 0000 2DE9F04F 		push	{r4, r5, r6, r7, r8, r9, sl, fp, lr}
 487              	.LCFI3:
 488              		.cfi_def_cfa_offset 36
 489              		.cfi_offset 4, -36
 490              		.cfi_offset 5, -32
 491              		.cfi_offset 6, -28
 492              		.cfi_offset 7, -24
 493              		.cfi_offset 8, -20
 494              		.cfi_offset 9, -16
 495              		.cfi_offset 10, -12
 496              		.cfi_offset 11, -8
 497              		.cfi_offset 14, -4
 498 0004 8A46     		mov	sl, r1
 499              		.loc 1 668 0
 500 0006 C189     		ldrh	r1, [r0, #14]
 501              	.LVL48:
 502              		.loc 1 644 0
 503 0008 87B0     		sub	sp, sp, #28
 504              	.LCFI4:
 505              		.cfi_def_cfa_offset 64
 506              		.loc 1 668 0
 507 000a 0129     		cmp	r1, #1
 508              		.loc 1 644 0
 509 000c 0546     		mov	r5, r0
 510 000e 9DF840B0 		ldrb	fp, [sp, #64]	@ zero_extendqisi2
 511 0012 9DF84490 		ldrb	r9, [sp, #68]	@ zero_extendqisi2
 512 0016 1646     		mov	r6, r2
ARM GAS  /tmp/ccspbRIz.s 			page 10


 513 0018 9846     		mov	r8, r3
 514              		.loc 1 668 0
 515 001a 01D0     		beq	.L71
 516              		.loc 1 668 0 is_stmt 0 discriminator 1
 517 001c FFF7FEFF 		bl	port_halt
 518              	.LVL49:
 519              	.L71:
 520              		.loc 1 673 0 is_stmt 1
 521 0020 002E     		cmp	r6, #0
 522 0022 6AD0     		beq	.L72
 523              	.LVL50:
 524              	.LBB5:
 525              		.loc 1 704 0
 526 0024 2846     		mov	r0, r5
 527 0026 1421     		movs	r1, #20
 528 0028 FFF7FEFF 		bl	pbuf_header
 529              	.LVL51:
 530 002c 0028     		cmp	r0, #0
 531 002e 73D1     		bne	.L90
 532              		.loc 1 713 0
 533 0030 6A89     		ldrh	r2, [r5, #10]
 534              		.loc 1 712 0
 535 0032 6C68     		ldr	r4, [r5, #4]
 536              	.LVL52:
 537              		.loc 1 713 0
 538 0034 132A     		cmp	r2, #19
 539 0036 66D9     		bls	.L91
 540              	.L75:
 541              		.loc 1 716 0
 542 0038 84F80880 		strb	r8, [r4, #8]
 543              		.loc 1 717 0
 544 003c 84F80990 		strb	r9, [r4, #9]
 545              		.loc 1 723 0
 546 0040 3368     		ldr	r3, [r6, #0]
 547              		.loc 1 730 0
 548 0042 84F801B0 		strb	fp, [r4, #1]
 549              		.loc 1 729 0
 550 0046 4522     		movs	r2, #69
 551 0048 2270     		strb	r2, [r4, #0]
 552              		.loc 1 723 0
 553 004a 2361     		str	r3, [r4, #16]	@ unaligned
 554              		.loc 1 732 0
 555 004c 4FEA0B2B 		lsl	fp, fp, #8
 556              		.loc 1 725 0
 557 0050 99B2     		uxth	r1, r3
 558              		.loc 1 726 0
 559 0052 4FEA134C 		lsr	ip, r3, #16
 560              		.loc 1 734 0
 561 0056 2889     		ldrh	r0, [r5, #8]
 562 0058 0391     		str	r1, [sp, #12]
 563              		.loc 1 732 0
 564 005a 4BEA0203 		orr	r3, fp, r2
 565              		.loc 1 734 0
 566 005e 0193     		str	r3, [sp, #4]
 567 0060 CDF808C0 		str	ip, [sp, #8]
 568 0064 FFF7FEFF 		bl	lwip_htons
 569              	.LVL53:
ARM GAS  /tmp/ccspbRIz.s 			page 11


 570              		.loc 1 739 0
 571 0068 2F4F     		ldr	r7, .L93
 572              		.loc 1 734 0
 573 006a 8346     		mov	fp, r0
 574              		.loc 1 738 0
 575 006c 0020     		movs	r0, #0
 576              		.loc 1 734 0
 577 006e A4F802B0 		strh	fp, [r4, #2]	@ unaligned
 578              		.loc 1 738 0
 579 0072 A071     		strb	r0, [r4, #6]
 580 0074 E071     		strb	r0, [r4, #7]
 581              		.loc 1 739 0
 582 0076 3888     		ldrh	r0, [r7, #0]
 583 0078 FFF7FEFF 		bl	lwip_htons
 584              	.LVL54:
 585 007c A080     		strh	r0, [r4, #4]	@ unaligned
 586              		.loc 1 743 0
 587 007e B7F800E0 		ldrh	lr, [r7, #0]
 588              		.loc 1 745 0
 589 0082 0399     		ldr	r1, [sp, #12]
 590 0084 019B     		ldr	r3, [sp, #4]
 591 0086 DDF808C0 		ldr	ip, [sp, #8]
 592              		.loc 1 743 0
 593 008a 0EF10102 		add	r2, lr, #1
 594              		.loc 1 719 0
 595 008e 48EA0928 		orr	r8, r8, r9, lsl #8
 596              	.LVL55:
 597              		.loc 1 743 0
 598 0092 3A80     		strh	r2, [r7, #0]	@ movhi
 599              		.loc 1 745 0
 600 0094 BAF1000F 		cmp	sl, #0
 601 0098 03D0     		beq	.L76
 602              		.loc 1 745 0 is_stmt 0 discriminator 1
 603 009a DAF80070 		ldr	r7, [sl, #0]
 604 009e 002F     		cmp	r7, #0
 605 00a0 29D1     		bne	.L77
 606              	.L76:
 607              		.loc 1 746 0 is_stmt 1
 608 00a2 129A     		ldr	r2, [sp, #72]
 609 00a4 5768     		ldr	r7, [r2, #4]
 610 00a6 E760     		str	r7, [r4, #12]	@ unaligned
 611              	.L78:
 612              	.LVL56:
 613              		.loc 1 725 0
 614 00a8 6144     		add	r1, ip, r1
 615              	.LVL57:
 616              		.loc 1 726 0
 617 00aa CB18     		adds	r3, r1, r3
 618              	.LVL58:
 619              		.loc 1 732 0
 620 00ac 03EB0802 		add	r2, r3, r8
 621              		.loc 1 736 0
 622 00b0 9344     		add	fp, r2, fp
 623              	.LVL59:
 624              		.loc 1 741 0
 625 00b2 5844     		add	r0, fp, r0
 626              		.loc 1 753 0
ARM GAS  /tmp/ccspbRIz.s 			page 12


 627 00b4 10FA87F1 		uxtah	r1, r0, r7
 628              		.loc 1 754 0
 629 00b8 01EB1747 		add	r7, r1, r7, lsr #16
 630              	.LVL60:
 631              		.loc 1 755 0
 632 00bc BBB2     		uxth	r3, r7
 633 00be 03EB1742 		add	r2, r3, r7, lsr #16
 634              	.LVL61:
 635              		.loc 1 756 0
 636 00c2 02EB1240 		add	r0, r2, r2, lsr #16
 637              	.LVL62:
 638              		.loc 1 758 0
 639 00c6 C143     		mvns	r1, r0
 640              	.LVL63:
 641 00c8 6181     		strh	r1, [r4, #10]	@ unaligned
 642              	.LVL64:
 643              	.L79:
 644              	.LBE5:
 645              		.loc 1 772 0
 646 00ca 184B     		ldr	r3, .L93+4
 647              		.loc 1 791 0
 648 00cc 129F     		ldr	r7, [sp, #72]
 649              		.loc 1 772 0
 650 00ce B3F84800 		ldrh	r0, [r3, #72]
 651              		.loc 1 791 0
 652 00d2 3A8C     		ldrh	r2, [r7, #32]
 653              		.loc 1 772 0
 654 00d4 411C     		adds	r1, r0, #1
 655 00d6 A3F84810 		strh	r1, [r3, #72]	@ movhi
 656              		.loc 1 791 0
 657 00da 12B1     		cbz	r2, .L80
 658              		.loc 1 791 0 is_stmt 0 discriminator 1
 659 00dc 2B89     		ldrh	r3, [r5, #8]
 660 00de 9342     		cmp	r3, r2
 661 00e0 14D8     		bhi	.L92
 662              	.L80:
 663              		.loc 1 797 0 is_stmt 1
 664 00e2 129F     		ldr	r7, [sp, #72]
 665 00e4 2946     		mov	r1, r5
 666 00e6 7B69     		ldr	r3, [r7, #20]
 667 00e8 3846     		mov	r0, r7
 668 00ea 3246     		mov	r2, r6
 669 00ec 9847     		blx	r3
 670              	.LVL65:
 671              	.L74:
 672              		.loc 1 798 0
 673 00ee 40B2     		sxtb	r0, r0
 674 00f0 07B0     		add	sp, sp, #28
 675 00f2 BDE8F08F 		pop	{r4, r5, r6, r7, r8, r9, sl, fp, pc}
 676              	.LVL66:
 677              	.L77:
 678              	.LBB6:
 679              		.loc 1 749 0
 680 00f6 E760     		str	r7, [r4, #12]	@ unaligned
 681 00f8 D6E7     		b	.L78
 682              	.LVL67:
 683              	.L72:
ARM GAS  /tmp/ccspbRIz.s 			page 13


 684              	.LBE6:
 685              		.loc 1 768 0
 686 00fa 6B68     		ldr	r3, [r5, #4]
 687 00fc 06AE     		add	r6, sp, #24
 688              	.LVL68:
 689 00fe 1869     		ldr	r0, [r3, #16]	@ unaligned
 690 0100 46F8040D 		str	r0, [r6, #-4]!
 691              	.LVL69:
 692 0104 E1E7     		b	.L79
 693              	.LVL70:
 694              	.L91:
 695              	.LBB7:
 696              		.loc 1 713 0 discriminator 1
 697 0106 FFF7FEFF 		bl	port_halt
 698              	.LVL71:
 699 010a 95E7     		b	.L75
 700              	.LVL72:
 701              	.L92:
 702              	.LBE7:
 703              		.loc 1 792 0
 704 010c 2846     		mov	r0, r5
 705 010e 3946     		mov	r1, r7
 706 0110 3246     		mov	r2, r6
 707 0112 FFF7FEFF 		bl	ip_frag
 708              	.LVL73:
 709 0116 EAE7     		b	.L74
 710              	.LVL74:
 711              	.L90:
 712              	.LBB8:
 713              		.loc 1 707 0
 714 0118 0448     		ldr	r0, .L93+4
 715 011a B0F85C20 		ldrh	r2, [r0, #92]
 716 011e 511C     		adds	r1, r2, #1
 717 0120 A0F85C10 		strh	r1, [r0, #92]	@ movhi
 718              		.loc 1 709 0
 719 0124 FE20     		movs	r0, #254
 720 0126 E2E7     		b	.L74
 721              	.L94:
 722              		.align	2
 723              	.L93:
 724 0128 00000000 		.word	.LANCHOR4
 725 012c 00000000 		.word	lwip_stats
 726              	.LBE8:
 727              		.cfi_endproc
 728              	.LFE9:
 729              		.size	ip_output_if, .-ip_output_if
 730              		.section	.text.ip_output,"ax",%progbits
 731              		.align	2
 732              		.p2align 4,,15
 733              		.global	ip_output
 734              		.thumb
 735              		.thumb_func
 736              		.type	ip_output, %function
 737              	ip_output:
 738              	.LFB10:
 739              		.loc 1 820 0
 740              		.cfi_startproc
ARM GAS  /tmp/ccspbRIz.s 			page 14


 741              		@ args = 8, pretend = 0, frame = 0
 742              		@ frame_needed = 0, uses_anonymous_args = 0
 743              	.LVL75:
 744 0000 F0B5     		push	{r4, r5, r6, r7, lr}
 745              	.LCFI5:
 746              		.cfi_def_cfa_offset 20
 747              		.cfi_offset 4, -20
 748              		.cfi_offset 5, -16
 749              		.cfi_offset 6, -12
 750              		.cfi_offset 7, -8
 751              		.cfi_offset 14, -4
 752 0002 0446     		mov	r4, r0
 753              		.loc 1 825 0
 754 0004 C089     		ldrh	r0, [r0, #14]
 755              	.LVL76:
 756 0006 0128     		cmp	r0, #1
 757              		.loc 1 820 0
 758 0008 85B0     		sub	sp, sp, #20
 759              	.LCFI6:
 760              		.cfi_def_cfa_offset 40
 761              		.loc 1 820 0
 762 000a 0F46     		mov	r7, r1
 763 000c 1546     		mov	r5, r2
 764 000e 1E46     		mov	r6, r3
 765              		.loc 1 825 0
 766 0010 01D0     		beq	.L96
 767              		.loc 1 825 0 is_stmt 0 discriminator 1
 768 0012 FFF7FEFF 		bl	port_halt
 769              	.LVL77:
 770              	.L96:
 771              		.loc 1 827 0 is_stmt 1
 772 0016 2846     		mov	r0, r5
 773 0018 FFF7FEFF 		bl	ip_route
 774              	.LVL78:
 775 001c 78B1     		cbz	r0, .L102
 776              		.loc 1 834 0
 777 001e 9DF82830 		ldrb	r3, [sp, #40]	@ zero_extendqisi2
 778 0022 9DF82C10 		ldrb	r1, [sp, #44]	@ zero_extendqisi2
 779 0026 0093     		str	r3, [sp, #0]
 780 0028 0191     		str	r1, [sp, #4]
 781 002a 0290     		str	r0, [sp, #8]
 782 002c 3946     		mov	r1, r7
 783 002e 2046     		mov	r0, r4
 784              	.LVL79:
 785 0030 2A46     		mov	r2, r5
 786 0032 3346     		mov	r3, r6
 787 0034 FFF7FEFF 		bl	ip_output_if
 788              	.LVL80:
 789              	.L98:
 790              		.loc 1 835 0
 791 0038 40B2     		sxtb	r0, r0
 792 003a 05B0     		add	sp, sp, #20
 793 003c F0BD     		pop	{r4, r5, r6, r7, pc}
 794              	.LVL81:
 795              	.L102:
 796              		.loc 1 830 0
 797 003e 0448     		ldr	r0, .L103
ARM GAS  /tmp/ccspbRIz.s 			page 15


 798              	.LVL82:
 799 0040 B0F85620 		ldrh	r2, [r0, #86]
 800 0044 531C     		adds	r3, r2, #1
 801 0046 A0F85630 		strh	r3, [r0, #86]	@ movhi
 802              		.loc 1 831 0
 803 004a FC20     		movs	r0, #252
 804 004c F4E7     		b	.L98
 805              	.L104:
 806 004e 00BF     		.align	2
 807              	.L103:
 808 0050 00000000 		.word	lwip_stats
 809              		.cfi_endproc
 810              	.LFE10:
 811              		.size	ip_output, .-ip_output
 812              		.global	current_iphdr_dest
 813              		.global	current_iphdr_src
 814              		.global	current_header
 815              		.global	current_netif
 816 0054 AFF30080 		.section	.bss.current_header,"aw",%nobits
 816      AFF30080 
 816      AFF30080 
 817              		.align	2
 818              		.set	.LANCHOR3,. + 0
 819              		.type	current_header, %object
 820              		.size	current_header, 4
 821              	current_header:
 822 0000 00000000 		.space	4
 823              		.section	.bss.ip_id,"aw",%nobits
 824              		.align	1
 825              		.set	.LANCHOR4,. + 0
 826              		.type	ip_id, %object
 827              		.size	ip_id, 2
 828              	ip_id:
 829 0000 0000     		.space	2
 830              		.section	.bss.current_iphdr_src,"aw",%nobits
 831              		.align	2
 832              		.set	.LANCHOR1,. + 0
 833              		.type	current_iphdr_src, %object
 834              		.size	current_iphdr_src, 4
 835              	current_iphdr_src:
 836 0000 00000000 		.space	4
 837              		.section	.bss.current_iphdr_dest,"aw",%nobits
 838              		.align	2
 839              		.set	.LANCHOR0,. + 0
 840              		.type	current_iphdr_dest, %object
 841              		.size	current_iphdr_dest, 4
 842              	current_iphdr_dest:
 843 0000 00000000 		.space	4
 844              		.section	.bss.current_netif,"aw",%nobits
 845              		.align	2
 846              		.set	.LANCHOR2,. + 0
 847              		.type	current_netif, %object
 848              		.size	current_netif, 4
 849              	current_netif:
 850 0000 00000000 		.space	4
 851              		.text
 852              	.Letext0:
ARM GAS  /tmp/ccspbRIz.s 			page 16


 853              		.file 2 "/usr/bin/../lib/gcc/arm-none-eabi/4.7.4/../../../../arm-none-eabi/include/stdint.h"
 854              		.file 3 "../../os/various/lwip_bindings/arch/cc.h"
 855              		.file 4 "../../ext/lwip/src/include/lwip/err.h"
 856              		.file 5 "../../ext/lwip/src/include/lwip/pbuf.h"
 857              		.file 6 "../../ext/lwip/src/include/ipv4/lwip/ip_addr.h"
 858              		.file 7 "../../ext/lwip/src/include/lwip/netif.h"
 859              		.file 8 "../../ext/lwip/src/include/ipv4/lwip/ip.h"
 860              		.file 9 "../../ext/lwip/src/include/lwip/mem.h"
 861              		.file 10 "../../ext/lwip/src/include/lwip/stats.h"
 862              		.file 11 "../../ext/lwip/src/include/lwip/def.h"
 863              		.file 12 "../../ext/lwip/src/include/ipv4/lwip/inet_chksum.h"
 864              		.file 13 "../../ext/lwip/src/include/ipv4/lwip/ip_frag.h"
 865              		.file 14 "../../ext/lwip/src/include/lwip/raw.h"
 866              		.file 15 "../../ext/lwip/src/include/ipv4/lwip/icmp.h"
 867              		.file 16 "../../ext/lwip/src/include/lwip/udp.h"
 868              		.file 17 "../../ext/lwip/src/include/lwip/tcp_impl.h"
 869              		.file 18 "../../ext/lwip/src/include/lwip/memp.h"
 870              		.file 19 "../../os/ports/GCC/ARMCMx/chcore_v7m.h"