ARM GAS  /tmp/ccNlOfGx.s 			page 1


   1              		.syntax unified
   2              		.cpu cortex-m4
   3              		.fpu softvfp
   4              		.eabi_attribute 20, 1
   5              		.eabi_attribute 21, 1
   6              		.eabi_attribute 23, 3
   7              		.eabi_attribute 24, 1
   8              		.eabi_attribute 25, 1
   9              		.eabi_attribute 26, 1
  10              		.eabi_attribute 30, 2
  11              		.eabi_attribute 34, 1
  12              		.eabi_attribute 18, 4
  13              		.thumb
  14              		.file	"ip_frag.c"
  15              		.text
  16              	.Ltext0:
  17              		.cfi_sections	.debug_frame
  18              		.section	.text.ip_reass_dequeue_datagram,"ax",%progbits
  19              		.align	2
  20              		.p2align 4,,15
  21              		.thumb
  22              		.thumb_func
  23              		.type	ip_reass_dequeue_datagram, %function
  24              	ip_reass_dequeue_datagram:
  25              	.LFB11:
  26              		.file 1 "../../ext/lwip/src/core/ipv4/ip_frag.c"
  27              		.loc 1 305 0
  28              		.cfi_startproc
  29              		@ args = 0, pretend = 0, frame = 8
  30              		@ frame_needed = 0, uses_anonymous_args = 0
  31              	.LVL0:
  32 0000 10B5     		push	{r4, lr}
  33              	.LCFI0:
  34              		.cfi_def_cfa_offset 8
  35              		.cfi_offset 4, -8
  36              		.cfi_offset 14, -4
  37              		.loc 1 308 0
  38 0002 0C4B     		ldr	r3, .L8
  39 0004 1A68     		ldr	r2, [r3, #0]
  40 0006 8242     		cmp	r2, r0
  41              		.loc 1 305 0
  42 0008 82B0     		sub	sp, sp, #8
  43              	.LCFI1:
  44              		.cfi_def_cfa_offset 16
  45              		.loc 1 305 0
  46 000a 0446     		mov	r4, r0
  47              		.loc 1 308 0
  48 000c 09D0     		beq	.L6
  49              		.loc 1 313 0
  50 000e 59B1     		cbz	r1, .L7
  51              	.LVL1:
  52              	.L4:
  53              		.loc 1 314 0
  54 0010 2068     		ldr	r0, [r4, #0]
  55 0012 0860     		str	r0, [r1, #0]
  56              	.L3:
  57              		.loc 1 318 0
ARM GAS  /tmp/ccNlOfGx.s 			page 2


  58 0014 0520     		movs	r0, #5
  59 0016 2146     		mov	r1, r4
  60              		.loc 1 319 0
  61 0018 02B0     		add	sp, sp, #8
  62 001a BDE81040 		pop	{r4, lr}
  63              		.loc 1 318 0
  64 001e FFF7FEBF 		b	memp_free
  65              	.LVL2:
  66              	.L6:
  67              		.loc 1 310 0
  68 0022 0168     		ldr	r1, [r0, #0]
  69              	.LVL3:
  70 0024 1960     		str	r1, [r3, #0]
  71 0026 F5E7     		b	.L3
  72              	.LVL4:
  73              	.L7:
  74              		.loc 1 313 0 discriminator 1
  75 0028 0191     		str	r1, [sp, #4]
  76 002a FFF7FEFF 		bl	port_halt
  77              	.LVL5:
  78 002e 0199     		ldr	r1, [sp, #4]
  79 0030 EEE7     		b	.L4
  80              	.L9:
  81 0032 00BF     		.align	2
  82              	.L8:
  83 0034 00000000 		.word	.LANCHOR0
  84              		.cfi_endproc
  85              	.LFE11:
  86              		.size	ip_reass_dequeue_datagram, .-ip_reass_dequeue_datagram
  87 0038 AFF30080 		.section	.text.ip_reass_free_complete_datagram,"ax",%progbits
  87      AFF30080 
  88              		.align	2
  89              		.p2align 4,,15
  90              		.thumb
  91              		.thumb_func
  92              		.type	ip_reass_free_complete_datagram, %function
  93              	ip_reass_free_complete_datagram:
  94              	.LFB8:
  95              		.loc 1 159 0
  96              		.cfi_startproc
  97              		@ args = 0, pretend = 0, frame = 0
  98              		@ frame_needed = 0, uses_anonymous_args = 0
  99              	.LVL6:
 100              		.loc 1 165 0
 101 0000 8142     		cmp	r1, r0
 102              		.loc 1 159 0
 103 0002 2DE9F843 		push	{r3, r4, r5, r6, r7, r8, r9, lr}
 104              	.LCFI2:
 105              		.cfi_def_cfa_offset 32
 106              		.cfi_offset 3, -32
 107              		.cfi_offset 4, -28
 108              		.cfi_offset 5, -24
 109              		.cfi_offset 6, -20
 110              		.cfi_offset 7, -16
 111              		.cfi_offset 8, -12
 112              		.cfi_offset 9, -8
 113              		.cfi_offset 14, -4
ARM GAS  /tmp/ccNlOfGx.s 			page 3


 114              		.loc 1 159 0
 115 0006 8046     		mov	r8, r0
 116 0008 8946     		mov	r9, r1
 117              		.loc 1 165 0
 118 000a 50D0     		beq	.L27
 119              	.LVL7:
 120              	.L11:
 121              		.loc 1 166 0
 122 000c B9F1000F 		cmp	r9, #0
 123 0010 05D0     		beq	.L12
 124              		.loc 1 167 0
 125 0012 D9F80030 		ldr	r3, [r9, #0]
 126 0016 4345     		cmp	r3, r8
 127 0018 01D0     		beq	.L12
 128              		.loc 1 167 0 is_stmt 0 discriminator 1
 129 001a FFF7FEFF 		bl	port_halt
 130              	.LVL8:
 131              	.L12:
 132              		.loc 1 172 0 is_stmt 1
 133 001e D8F80440 		ldr	r4, [r8, #4]
 134 0022 6368     		ldr	r3, [r4, #4]
 135              	.LVL9:
 136              		.loc 1 173 0
 137 0024 9A88     		ldrh	r2, [r3, #4]	@ unaligned
 138 0026 A2B1     		cbz	r2, .L28
 139              		.loc 1 160 0
 140 0028 0025     		movs	r5, #0
 141              	.LVL10:
 142              	.L16:
 143              	.LBB2:
 144              		.loc 1 198 0
 145 002a 4FF6FF77 		movw	r7, #65535
 146 002e 05E0     		b	.L23
 147              	.LVL11:
 148              	.L15:
 149              		.loc 1 200 0
 150 0030 2046     		mov	r0, r4
 151              		.loc 1 199 0
 152 0032 ADB2     		uxth	r5, r5
 153              	.LVL12:
 154              		.loc 1 196 0
 155 0034 3446     		mov	r4, r6
 156              	.LVL13:
 157              		.loc 1 200 0
 158 0036 FFF7FEFF 		bl	pbuf_free
 159              	.LVL14:
 160              	.LBE2:
 161              		.loc 1 191 0
 162 003a 46B3     		cbz	r6, .L14
 163              	.LVL15:
 164              	.L23:
 165              	.LBB3:
 166              		.loc 1 193 0
 167 003c 6668     		ldr	r6, [r4, #4]
 168              	.LVL16:
 169              		.loc 1 197 0
 170 003e 2046     		mov	r0, r4
ARM GAS  /tmp/ccNlOfGx.s 			page 4


 171              		.loc 1 196 0
 172 0040 3668     		ldr	r6, [r6, #0]	@ unaligned
 173              	.LVL17:
 174              		.loc 1 197 0
 175 0042 FFF7FEFF 		bl	pbuf_clen
 176              	.LVL18:
 177              		.loc 1 198 0
 178 0046 2D18     		adds	r5, r5, r0
 179 0048 BD42     		cmp	r5, r7
 180 004a F1DD     		ble	.L15
 181              		.loc 1 198 0 is_stmt 0 discriminator 1
 182 004c FFF7FEFF 		bl	port_halt
 183              	.LVL19:
 184 0050 EEE7     		b	.L15
 185              	.LVL20:
 186              	.L28:
 187              	.LBE3:
 188              		.loc 1 179 0 is_stmt 1
 189 0052 4246     		mov	r2, r8
 190              		.loc 1 177 0
 191 0054 1968     		ldr	r1, [r3, #0]	@ unaligned
 192              		.loc 1 179 0
 193 0056 52F8086F 		ldr	r6, [r2, #8]!	@ unaligned
 194              		.loc 1 177 0
 195 005a C8F80410 		str	r1, [r8, #4]
 196              		.loc 1 179 0
 197 005e 5568     		ldr	r5, [r2, #4]	@ unaligned
 198 0060 9068     		ldr	r0, [r2, #8]	@ unaligned
 199 0062 D168     		ldr	r1, [r2, #12]	@ unaligned
 200 0064 5D60     		str	r5, [r3, #4]	@ unaligned
 201 0066 9860     		str	r0, [r3, #8]	@ unaligned
 202 0068 D960     		str	r1, [r3, #12]	@ unaligned
 203 006a 1E60     		str	r6, [r3, #0]	@ unaligned
 204 006c 1269     		ldr	r2, [r2, #16]	@ unaligned
 205              		.loc 1 180 0
 206 006e 0121     		movs	r1, #1
 207 0070 2046     		mov	r0, r4
 208              		.loc 1 179 0
 209 0072 1A61     		str	r2, [r3, #16]	@ unaligned
 210              		.loc 1 180 0
 211 0074 FFF7FEFF 		bl	icmp_time_exceeded
 212              	.LVL21:
 213              		.loc 1 181 0
 214 0078 2046     		mov	r0, r4
 215 007a FFF7FEFF 		bl	pbuf_clen
 216              	.LVL22:
 217 007e 0546     		mov	r5, r0
 218              	.LVL23:
 219              		.loc 1 184 0
 220 0080 2046     		mov	r0, r4
 221              	.LVL24:
 222 0082 FFF7FEFF 		bl	pbuf_free
 223              	.LVL25:
 224 0086 D8F80440 		ldr	r4, [r8, #4]
 225              	.LVL26:
 226              		.loc 1 191 0
 227 008a 002C     		cmp	r4, #0
ARM GAS  /tmp/ccNlOfGx.s 			page 5


 228 008c CDD1     		bne	.L16
 229              	.LVL27:
 230              	.L14:
 231              		.loc 1 204 0
 232 008e 094C     		ldr	r4, .L29
 233              		.loc 1 203 0
 234 0090 4046     		mov	r0, r8
 235 0092 4946     		mov	r1, r9
 236 0094 FFF7FEFF 		bl	ip_reass_dequeue_datagram
 237              	.LVL28:
 238              		.loc 1 204 0
 239 0098 2388     		ldrh	r3, [r4, #0]
 240 009a 9D42     		cmp	r5, r3
 241 009c 02D9     		bls	.L17
 242              		.loc 1 204 0 is_stmt 0 discriminator 1
 243 009e FFF7FEFF 		bl	port_halt
 244              	.LVL29:
 245 00a2 2388     		ldrh	r3, [r4, #0]
 246              	.L17:
 247              		.loc 1 205 0 is_stmt 1
 248 00a4 581B     		subs	r0, r3, r5
 249 00a6 2080     		strh	r0, [r4, #0]	@ movhi
 250              		.loc 1 208 0
 251 00a8 2846     		mov	r0, r5
 252 00aa BDE8F883 		pop	{r3, r4, r5, r6, r7, r8, r9, pc}
 253              	.LVL30:
 254              	.L27:
 255              		.loc 1 165 0 discriminator 1
 256 00ae FFF7FEFF 		bl	port_halt
 257              	.LVL31:
 258 00b2 ABE7     		b	.L11
 259              	.L30:
 260              		.align	2
 261              	.L29:
 262 00b4 00000000 		.word	.LANCHOR1
 263              		.cfi_endproc
 264              	.LFE8:
 265              		.size	ip_reass_free_complete_datagram, .-ip_reass_free_complete_datagram
 266 00b8 AFF30080 		.section	.text.ip_reass_remove_oldest_datagram,"ax",%progbits
 266      AFF30080 
 267              		.align	2
 268              		.p2align 4,,15
 269              		.thumb
 270              		.thumb_func
 271              		.type	ip_reass_remove_oldest_datagram, %function
 272              	ip_reass_remove_oldest_datagram:
 273              	.LFB9:
 274              		.loc 1 222 0
 275              		.cfi_startproc
 276              		@ args = 0, pretend = 0, frame = 0
 277              		@ frame_needed = 0, uses_anonymous_args = 0
 278              	.LVL32:
 279 0000 2DE9F843 		push	{r3, r4, r5, r6, r7, r8, r9, lr}
 280              	.LCFI3:
 281              		.cfi_def_cfa_offset 32
 282              		.cfi_offset 3, -32
 283              		.cfi_offset 4, -28
ARM GAS  /tmp/ccNlOfGx.s 			page 6


 284              		.cfi_offset 5, -24
 285              		.cfi_offset 6, -20
 286              		.cfi_offset 7, -16
 287              		.cfi_offset 8, -12
 288              		.cfi_offset 9, -8
 289              		.cfi_offset 14, -4
 290 0004 1B4E     		ldr	r6, .L50
 291              		.loc 1 222 0
 292 0006 0746     		mov	r7, r0
 293 0008 0D46     		mov	r5, r1
 294              		.loc 1 227 0
 295 000a 4FF00008 		mov	r8, #0
 296              	.LVL33:
 297              	.L37:
 298              		.loc 1 236 0
 299 000e 3368     		ldr	r3, [r6, #0]
 300              	.LVL34:
 301              		.loc 1 237 0
 302 0010 6BB3     		cbz	r3, .L32
 303              		.loc 1 235 0
 304 0012 0024     		movs	r4, #0
 305 0014 D7F80CC0 		ldr	ip, [r7, #12]	@ unaligned
 306              		.loc 1 234 0
 307 0018 2146     		mov	r1, r4
 308              		.loc 1 233 0
 309 001a 2046     		mov	r0, r4
 310 001c 0BE0     		b	.L35
 311              	.LVL35:
 312              	.L33:
 313              		.loc 1 240 0
 314 001e 0134     		adds	r4, r4, #1
 315              	.LVL36:
 316              		.loc 1 241 0
 317 0020 C8B1     		cbz	r0, .L38
 318              	.L49:
 319              		.loc 1 243 0
 320 0022 93F81F90 		ldrb	r9, [r3, #31]	@ zero_extendqisi2
 321 0026 C27F     		ldrb	r2, [r0, #31]	@ zero_extendqisi2
 322 0028 9145     		cmp	r9, r2
 323 002a 98BF     		it	ls
 324 002c 1846     		movls	r0, r3
 325              	.LVL37:
 326              	.L34:
 327              		.loc 1 248 0
 328 002e 1A68     		ldr	r2, [r3, #0]
 329 0030 AAB1     		cbz	r2, .L48
 330              	.L40:
 331 0032 1946     		mov	r1, r3
 332 0034 1346     		mov	r3, r2
 333              	.LVL38:
 334              	.L35:
 335              		.loc 1 238 0
 336 0036 5A69     		ldr	r2, [r3, #20]
 337 0038 6245     		cmp	r2, ip
 338 003a F0D1     		bne	.L33
 339              		.loc 1 238 0 is_stmt 0 discriminator 1
 340 003c 9A69     		ldr	r2, [r3, #24]
ARM GAS  /tmp/ccNlOfGx.s 			page 7


 341 003e D7F81090 		ldr	r9, [r7, #16]	@ unaligned
 342 0042 4A45     		cmp	r2, r9
 343 0044 EBD1     		bne	.L33
 344 0046 B3F80C90 		ldrh	r9, [r3, #12]
 345 004a BA88     		ldrh	r2, [r7, #4]	@ unaligned
 346 004c 9145     		cmp	r9, r2
 347 004e EED0     		beq	.L34
 348              		.loc 1 240 0 is_stmt 1
 349 0050 0134     		adds	r4, r4, #1
 350              	.LVL39:
 351              		.loc 1 241 0
 352 0052 0028     		cmp	r0, #0
 353 0054 E5D1     		bne	.L49
 354              	.L38:
 355              		.loc 1 248 0
 356 0056 1A68     		ldr	r2, [r3, #0]
 357              		.loc 1 241 0
 358 0058 1846     		mov	r0, r3
 359              	.LVL40:
 360              		.loc 1 248 0
 361 005a 002A     		cmp	r2, #0
 362 005c E9D1     		bne	.L40
 363              	.L48:
 364              	.LVL41:
 365              		.loc 1 253 0
 366 005e 10B1     		cbz	r0, .L36
 367              		.loc 1 254 0
 368 0060 FFF7FEFF 		bl	ip_reass_free_complete_datagram
 369              	.LVL42:
 370              		.loc 1 255 0
 371 0064 8044     		add	r8, r8, r0
 372              	.LVL43:
 373              	.L36:
 374              		.loc 1 257 0
 375 0066 A845     		cmp	r8, r5
 376 0068 01DA     		bge	.L32
 377              		.loc 1 257 0 is_stmt 0 discriminator 1
 378 006a 012C     		cmp	r4, #1
 379 006c CFDC     		bgt	.L37
 380              	.LVL44:
 381              	.L32:
 382              		.loc 1 259 0 is_stmt 1
 383 006e 4046     		mov	r0, r8
 384 0070 BDE8F883 		pop	{r3, r4, r5, r6, r7, r8, r9, pc}
 385              	.L51:
 386              		.align	2
 387              	.L50:
 388 0074 00000000 		.word	.LANCHOR0
 389              		.cfi_endproc
 390              	.LFE9:
 391              		.size	ip_reass_remove_oldest_datagram, .-ip_reass_remove_oldest_datagram
 392 0078 AFF30080 		.section	.text.ipfrag_free_pbuf_custom,"ax",%progbits
 392      AFF30080 
 393              		.align	2
 394              		.p2align 4,,15
 395              		.thumb
 396              		.thumb_func
ARM GAS  /tmp/ccNlOfGx.s 			page 8


 397              		.type	ipfrag_free_pbuf_custom, %function
 398              	ipfrag_free_pbuf_custom:
 399              	.LFB16:
 400              		.loc 1 641 0
 401              		.cfi_startproc
 402              		@ args = 0, pretend = 0, frame = 0
 403              		@ frame_needed = 0, uses_anonymous_args = 0
 404              	.LVL45:
 405 0000 10B5     		push	{r4, lr}
 406              	.LCFI4:
 407              		.cfi_def_cfa_offset 8
 408              		.cfi_offset 4, -8
 409              		.cfi_offset 14, -4
 410              		.loc 1 643 0
 411 0002 0446     		mov	r4, r0
 412 0004 48B1     		cbz	r0, .L58
 413              	.LVL46:
 414              	.L53:
 415              		.loc 1 645 0
 416 0006 6069     		ldr	r0, [r4, #20]
 417 0008 08B1     		cbz	r0, .L54
 418              		.loc 1 646 0
 419 000a FFF7FEFF 		bl	pbuf_free
 420              	.LVL47:
 421              	.L54:
 422              	.LBB6:
 423              	.LBB7:
 424              		.loc 1 634 0
 425 000e 0620     		movs	r0, #6
 426 0010 2146     		mov	r1, r4
 427              	.LBE7:
 428              	.LBE6:
 429              		.loc 1 649 0
 430 0012 BDE81040 		pop	{r4, lr}
 431              	.LBB9:
 432              	.LBB8:
 433              		.loc 1 634 0
 434 0016 FFF7FEBF 		b	memp_free
 435              	.LVL48:
 436              	.L58:
 437              	.LBE8:
 438              	.LBE9:
 439              		.loc 1 643 0 discriminator 1
 440 001a FFF7FEFF 		bl	port_halt
 441              	.LVL49:
 442 001e F2E7     		b	.L53
 443              		.cfi_endproc
 444              	.LFE16:
 445              		.size	ipfrag_free_pbuf_custom, .-ipfrag_free_pbuf_custom
 446              		.section	.text.ip_reass_tmr,"ax",%progbits
 447              		.align	2
 448              		.p2align 4,,15
 449              		.global	ip_reass_tmr
 450              		.thumb
 451              		.thumb_func
 452              		.type	ip_reass_tmr, %function
 453              	ip_reass_tmr:
ARM GAS  /tmp/ccNlOfGx.s 			page 9


 454              	.LFB7:
 455              		.loc 1 123 0
 456              		.cfi_startproc
 457              		@ args = 0, pretend = 0, frame = 0
 458              		@ frame_needed = 0, uses_anonymous_args = 0
 459              	.LVL50:
 460 0000 38B5     		push	{r3, r4, r5, lr}
 461              	.LCFI5:
 462              		.cfi_def_cfa_offset 16
 463              		.cfi_offset 3, -16
 464              		.cfi_offset 4, -12
 465              		.cfi_offset 5, -8
 466              		.cfi_offset 14, -4
 467              		.loc 1 126 0
 468 0002 0A4B     		ldr	r3, .L66
 469 0004 1868     		ldr	r0, [r3, #0]
 470              	.LVL51:
 471              		.loc 1 127 0
 472 0006 40B1     		cbz	r0, .L59
 473 0008 0024     		movs	r4, #0
 474              	.LVL52:
 475              	.L60:
 476              		.loc 1 130 0
 477 000a C17F     		ldrb	r1, [r0, #31]	@ zero_extendqisi2
 478              		.loc 1 131 0
 479 000c 4A1E     		subs	r2, r1, #1
 480              		.loc 1 130 0
 481 000e 29B1     		cbz	r1, .L61
 482              		.loc 1 131 0
 483 0010 C277     		strb	r2, [r0, #31]
 484              	.LVL53:
 485              		.loc 1 134 0
 486 0012 0446     		mov	r4, r0
 487 0014 0068     		ldr	r0, [r0, #0]
 488              	.LVL54:
 489              		.loc 1 127 0
 490 0016 0028     		cmp	r0, #0
 491 0018 F7D1     		bne	.L60
 492              	.LVL55:
 493              	.L59:
 494 001a 38BD     		pop	{r3, r4, r5, pc}
 495              	.L61:
 496              	.LVL56:
 497              	.LBB10:
 498              		.loc 1 141 0
 499 001c 0568     		ldr	r5, [r0, #0]
 500              	.LVL57:
 501              		.loc 1 143 0
 502 001e 2146     		mov	r1, r4
 503 0020 FFF7FEFF 		bl	ip_reass_free_complete_datagram
 504              	.LVL58:
 505              		.loc 1 141 0
 506 0024 2846     		mov	r0, r5
 507              	.LVL59:
 508              	.LBE10:
 509              		.loc 1 127 0
 510 0026 0028     		cmp	r0, #0
ARM GAS  /tmp/ccNlOfGx.s 			page 10


 511 0028 EFD1     		bne	.L60
 512 002a F6E7     		b	.L59
 513              	.L67:
 514              		.align	2
 515              	.L66:
 516 002c 00000000 		.word	.LANCHOR0
 517              		.cfi_endproc
 518              	.LFE7:
 519              		.size	ip_reass_tmr, .-ip_reass_tmr
 520              		.section	.text.ip_reass,"ax",%progbits
 521              		.align	2
 522              		.p2align 4,,15
 523              		.global	ip_reass
 524              		.thumb
 525              		.thumb_func
 526              		.type	ip_reass, %function
 527              	ip_reass:
 528              	.LFB13:
 529              		.loc 1 477 0
 530              		.cfi_startproc
 531              		@ args = 0, pretend = 0, frame = 16
 532              		@ frame_needed = 0, uses_anonymous_args = 0
 533              	.LVL60:
 534 0000 2DE9F04F 		push	{r4, r5, r6, r7, r8, r9, sl, fp, lr}
 535              	.LCFI6:
 536              		.cfi_def_cfa_offset 36
 537              		.cfi_offset 4, -36
 538              		.cfi_offset 5, -32
 539              		.cfi_offset 6, -28
 540              		.cfi_offset 7, -24
 541              		.cfi_offset 8, -20
 542              		.cfi_offset 9, -16
 543              		.cfi_offset 10, -12
 544              		.cfi_offset 11, -8
 545              		.cfi_offset 14, -4
 546              		.loc 1 486 0
 547 0004 DFF858B3 		ldr	fp, .L143
 548              		.loc 1 489 0
 549 0008 4668     		ldr	r6, [r0, #4]
 550              	.LVL61:
 551              		.loc 1 486 0
 552 000a BBF83230 		ldrh	r3, [fp, #50]
 553              		.loc 1 477 0
 554 000e 0746     		mov	r7, r0
 555              		.loc 1 486 0
 556 0010 581C     		adds	r0, r3, #1
 557              	.LVL62:
 558 0012 ABF83200 		strh	r0, [fp, #50]	@ movhi
 559              		.loc 1 491 0
 560 0016 3178     		ldrb	r1, [r6, #0]	@ zero_extendqisi2
 561 0018 01F00F02 		and	r2, r1, #15
 562 001c 052A     		cmp	r2, #5
 563              		.loc 1 477 0
 564 001e 85B0     		sub	sp, sp, #20
 565              	.LCFI7:
 566              		.cfi_def_cfa_offset 56
 567              		.loc 1 491 0
ARM GAS  /tmp/ccNlOfGx.s 			page 11


 568 0020 40F0CE80 		bne	.L137
 569              		.loc 1 497 0
 570 0024 F088     		ldrh	r0, [r6, #6]	@ unaligned
 571              		.loc 1 502 0
 572 0026 DFF83C83 		ldr	r8, .L143+4
 573              		.loc 1 497 0
 574 002a FFF7FEFF 		bl	lwip_ntohs
 575              	.LVL63:
 576 002e 0190     		str	r0, [sp, #4]
 577              	.LVL64:
 578              		.loc 1 498 0
 579 0030 7088     		ldrh	r0, [r6, #2]	@ unaligned
 580 0032 FFF7FEFF 		bl	lwip_ntohs
 581              	.LVL65:
 582 0036 3378     		ldrb	r3, [r6, #0]	@ zero_extendqisi2
 583 0038 0290     		str	r0, [sp, #8]
 584              		.loc 1 501 0
 585 003a 3846     		mov	r0, r7
 586              		.loc 1 498 0
 587 003c 0393     		str	r3, [sp, #12]
 588              	.LVL66:
 589              		.loc 1 501 0
 590 003e FFF7FEFF 		bl	pbuf_clen
 591              	.LVL67:
 592 0042 8146     		mov	r9, r0
 593              	.LVL68:
 594              		.loc 1 502 0
 595 0044 B8F80000 		ldrh	r0, [r8, #0]
 596              	.LVL69:
 597 0048 00EB0901 		add	r1, r0, r9
 598 004c 0A29     		cmp	r1, #10
 599 004e 00F3CA80 		bgt	.L138
 600              	.L71:
 601              		.loc 1 520 0
 602 0052 DFF814A3 		ldr	sl, .L143+8
 603 0056 DAF80040 		ldr	r4, [sl, #0]
 604              	.LVL70:
 605 005a 24B3     		cbz	r4, .L112
 606 005c F068     		ldr	r0, [r6, #12]	@ unaligned
 607              		.loc 1 484 0
 608 005e 0025     		movs	r5, #0
 609 0060 03E0     		b	.L77
 610              	.LVL71:
 611              	.L74:
 612              		.loc 1 520 0
 613 0062 2268     		ldr	r2, [r4, #0]
 614              	.LVL72:
 615 0064 2546     		mov	r5, r4
 616 0066 FAB1     		cbz	r2, .L73
 617 0068 1446     		mov	r4, r2
 618              	.LVL73:
 619              	.L77:
 620              		.loc 1 524 0
 621 006a 6169     		ldr	r1, [r4, #20]
 622 006c 8142     		cmp	r1, r0
 623 006e F8D1     		bne	.L74
 624              		.loc 1 524 0 is_stmt 0 discriminator 1
ARM GAS  /tmp/ccNlOfGx.s 			page 12


 625 0070 A269     		ldr	r2, [r4, #24]
 626 0072 D6F810E0 		ldr	lr, [r6, #16]	@ unaligned
 627 0076 7245     		cmp	r2, lr
 628 0078 F3D1     		bne	.L74
 629 007a A389     		ldrh	r3, [r4, #12]
 630 007c B188     		ldrh	r1, [r6, #4]	@ unaligned
 631 007e 8B42     		cmp	r3, r1
 632 0080 EFD1     		bne	.L74
 633              		.loc 1 527 0 is_stmt 1
 634 0082 BBF84610 		ldrh	r1, [fp, #70]
 635 0086 4A1C     		adds	r2, r1, #1
 636 0088 ABF84620 		strh	r2, [fp, #70]	@ movhi
 637              		.loc 1 541 0
 638 008c F088     		ldrh	r0, [r6, #6]	@ unaligned
 639 008e FFF7FEFF 		bl	lwip_ntohs
 640              	.LVL74:
 641 0092 C304     		lsls	r3, r0, #19
 642 0094 D80C     		lsrs	r0, r3, #19
 643 0096 20BB     		cbnz	r0, .L76
 644              		.loc 1 542 0 discriminator 1
 645 0098 E089     		ldrh	r0, [r4, #14]
 646 009a FFF7FEFF 		bl	lwip_ntohs
 647              	.LVL75:
 648              		.loc 1 541 0 discriminator 1
 649 009e C104     		lsls	r1, r0, #19
 650 00a0 CA0C     		lsrs	r2, r1, #19
 651 00a2 F2B1     		cbz	r2, .L76
 652 00a4 13E0     		b	.L136
 653              	.LVL76:
 654              	.L112:
 655              		.loc 1 484 0
 656 00a6 2546     		mov	r5, r4
 657              	.LVL77:
 658              	.L73:
 659              	.LBB15:
 660              	.LBB16:
 661              		.loc 1 273 0
 662 00a8 0520     		movs	r0, #5
 663 00aa FFF7FEFF 		bl	memp_malloc
 664              	.LVL78:
 665              		.loc 1 274 0
 666 00ae 0446     		mov	r4, r0
 667 00b0 0028     		cmp	r0, #0
 668 00b2 00F02981 		beq	.L139
 669              	.L103:
 670              		.loc 1 287 0
 671 00b6 2046     		mov	r0, r4
 672 00b8 0021     		movs	r1, #0
 673 00ba 2022     		movs	r2, #32
 674 00bc FFF7FEFF 		bl	memset
 675              	.LVL79:
 676              		.loc 1 291 0
 677 00c0 DAF80000 		ldr	r0, [sl, #0]
 678              		.loc 1 292 0
 679 00c4 CAF80040 		str	r4, [sl, #0]
 680              		.loc 1 288 0
 681 00c8 0323     		movs	r3, #3
ARM GAS  /tmp/ccNlOfGx.s 			page 13


 682 00ca E377     		strb	r3, [r4, #31]
 683              		.loc 1 291 0
 684 00cc 2060     		str	r0, [r4, #0]
 685              	.LVL80:
 686              	.L136:
 687              	.LBE16:
 688              	.LBE15:
 689              		.loc 1 547 0
 690 00ce 3368     		ldr	r3, [r6, #0]	@ unaligned
 691 00d0 7068     		ldr	r0, [r6, #4]	@ unaligned
 692 00d2 B168     		ldr	r1, [r6, #8]	@ unaligned
 693 00d4 F268     		ldr	r2, [r6, #12]	@ unaligned
 694 00d6 A360     		str	r3, [r4, #8]	@ unaligned
 695 00d8 E060     		str	r0, [r4, #12]	@ unaligned
 696 00da 2161     		str	r1, [r4, #16]	@ unaligned
 697 00dc 6261     		str	r2, [r4, #20]	@ unaligned
 698 00de 3369     		ldr	r3, [r6, #16]	@ unaligned
 699 00e0 A361     		str	r3, [r4, #24]	@ unaligned
 700              	.L76:
 701              	.LVL81:
 702              		.loc 1 552 0
 703 00e2 B8F80000 		ldrh	r0, [r8, #0]
 704 00e6 09EB000C 		add	ip, r9, r0
 705 00ea A8F800C0 		strh	ip, [r8, #0]	@ movhi
 706              		.loc 1 558 0
 707 00ee F688     		ldrh	r6, [r6, #6]	@ unaligned
 708              	.LVL82:
 709 00f0 06F02001 		and	r1, r6, #32
 710 00f4 8AB2     		uxth	r2, r1
 711 00f6 82B9     		cbnz	r2, .L80
 712              		.loc 1 498 0
 713 00f8 039B     		ldr	r3, [sp, #12]
 714 00fa 029E     		ldr	r6, [sp, #8]
 715              		.loc 1 559 0
 716 00fc A07F     		ldrb	r0, [r4, #30]	@ zero_extendqisi2
 717              		.loc 1 560 0
 718 00fe 019A     		ldr	r2, [sp, #4]
 719              		.loc 1 498 0
 720 0100 03F00F0B 		and	fp, r3, #15
 721 0104 CBEB8B3B 		rsb	fp, fp, fp, lsl #14
 722 0108 06EB8B0A 		add	sl, r6, fp, lsl #2
 723              		.loc 1 559 0
 724 010c 40F00101 		orr	r1, r0, #1
 725              		.loc 1 560 0
 726 0110 0AEBC20E 		add	lr, sl, r2, lsl #3
 727              		.loc 1 559 0
 728 0114 A177     		strb	r1, [r4, #30]
 729              		.loc 1 560 0
 730 0116 A4F81CE0 		strh	lr, [r4, #28]	@ movhi
 731              	.L80:
 732              	.LVL83:
 733              	.LBB19:
 734              	.LBB20:
 735              		.loc 1 340 0
 736 011a 7E68     		ldr	r6, [r7, #4]
 737              	.LVL84:
 738              		.loc 1 341 0
ARM GAS  /tmp/ccNlOfGx.s 			page 14


 739 011c 7088     		ldrh	r0, [r6, #2]	@ unaligned
 740 011e FFF7FEFF 		bl	lwip_ntohs
 741              	.LVL85:
 742              	.LBE20:
 743 0122 3378     		ldrb	r3, [r6, #0]	@ zero_extendqisi2
 744              	.LBB21:
 745 0124 03F00F01 		and	r1, r3, #15
 746 0128 C1EB8132 		rsb	r2, r1, r1, lsl #14
 747 012c 00EB8203 		add	r3, r0, r2, lsl #2
 748              		.loc 1 342 0
 749 0130 F088     		ldrh	r0, [r6, #6]	@ unaligned
 750              		.loc 1 341 0
 751 0132 9EB2     		uxth	r6, r3
 752              	.LVL86:
 753              		.loc 1 342 0
 754 0134 FFF7FEFF 		bl	lwip_ntohs
 755              	.LVL87:
 756 0138 C004     		lsls	r0, r0, #19
 757 013a C10C     		lsrs	r1, r0, #19
 758 013c C800     		lsls	r0, r1, #3
 759              	.LVL88:
 760              		.loc 1 349 0
 761 013e D7F804A0 		ldr	sl, [r7, #4]
 762              	.LVL89:
 763              		.loc 1 352 0
 764 0142 3618     		adds	r6, r6, r0
 765              	.LVL90:
 766              		.loc 1 350 0
 767 0144 0022     		movs	r2, #0
 768              		.loc 1 352 0
 769 0146 1FFA86FC 		uxth	ip, r6
 770              		.loc 1 350 0
 771 014a 8AF80020 		strb	r2, [sl, #0]
 772 014e 8AF80120 		strb	r2, [sl, #1]
 773 0152 8AF80220 		strb	r2, [sl, #2]
 774 0156 8AF80320 		strb	r2, [sl, #3]
 775              		.loc 1 351 0
 776 015a AAF80400 		strh	r0, [sl, #4]	@ unaligned
 777              		.loc 1 352 0
 778 015e AAF806C0 		strh	ip, [sl, #6]	@ unaligned
 779              		.loc 1 356 0
 780 0162 6368     		ldr	r3, [r4, #4]
 781              	.LVL91:
 782 0164 002B     		cmp	r3, #0
 783 0166 00F0E180 		beq	.L81
 784              		.loc 1 357 0
 785 016a 5E68     		ldr	r6, [r3, #4]
 786              	.LVL92:
 787              		.loc 1 358 0
 788 016c B188     		ldrh	r1, [r6, #4]	@ unaligned
 789 016e 8842     		cmp	r0, r1
 790 0170 C0F0D680 		bcc	.L82
 791              		.loc 1 375 0
 792 0174 00F0BA80 		beq	.L83
 793              		.loc 1 379 0
 794 0178 F288     		ldrh	r2, [r6, #6]	@ unaligned
 795 017a 8242     		cmp	r2, r0
ARM GAS  /tmp/ccNlOfGx.s 			page 15


 796 017c 00F2B680 		bhi	.L83
 797 0180 4FF00109 		mov	r9, #1
 798              	.LVL93:
 799 0184 0FE0     		b	.L84
 800              	.LVL94:
 801              	.L88:
 802              		.loc 1 357 0
 803 0186 5368     		ldr	r3, [r2, #4]
 804              	.LVL95:
 805              		.loc 1 358 0
 806 0188 9988     		ldrh	r1, [r3, #4]	@ unaligned
 807 018a 8842     		cmp	r0, r1
 808 018c 3AD3     		bcc	.L140
 809              		.loc 1 375 0
 810 018e 00F0AD80 		beq	.L83
 811              		.loc 1 379 0
 812 0192 DA88     		ldrh	r2, [r3, #6]	@ unaligned
 813              	.LVL96:
 814 0194 8242     		cmp	r2, r0
 815 0196 00F2A980 		bhi	.L83
 816              		.loc 1 386 0
 817 019a F288     		ldrh	r2, [r6, #6]	@ unaligned
 818              		.loc 1 379 0
 819 019c 1E46     		mov	r6, r3
 820              	.LVL97:
 821              		.loc 1 389 0
 822 019e 8A42     		cmp	r2, r1
 823 01a0 18BF     		it	ne
 824 01a2 4FF00009 		movne	r9, #0
 825              	.LVL98:
 826              	.L84:
 827              		.loc 1 393 0
 828 01a6 3268     		ldr	r2, [r6, #0]	@ unaligned
 829              	.LVL99:
 830              		.loc 1 356 0
 831 01a8 002A     		cmp	r2, #0
 832 01aa ECD1     		bne	.L88
 833              		.loc 1 403 0
 834 01ac F388     		ldrh	r3, [r6, #6]	@ unaligned
 835 01ae 9842     		cmp	r0, r3
 836 01b0 C0F0C280 		bcc	.L141
 837              	.LVL100:
 838              	.L105:
 839              		.loc 1 406 0
 840 01b4 9842     		cmp	r0, r3
 841              		.loc 1 405 0
 842 01b6 3760     		str	r7, [r6, #0]	@ unaligned
 843              		.loc 1 406 0
 844 01b8 2CD0     		beq	.L106
 845              	.LVL101:
 846              	.L92:
 847              	.LBE21:
 848              	.LBE19:
 849              		.loc 1 606 0
 850 01ba 4FF00009 		mov	r9, #0
 851 01be 0EE0     		b	.L135
 852              	.LVL102:
ARM GAS  /tmp/ccNlOfGx.s 			page 16


 853              	.L137:
 854              		.loc 1 493 0
 855 01c0 BBF84410 		ldrh	r1, [fp, #68]
 856 01c4 4A1C     		adds	r2, r1, #1
 857 01c6 ABF84420 		strh	r2, [fp, #68]	@ movhi
 858              	.LVL103:
 859              	.L70:
 860              		.loc 1 610 0
 861 01ca BBF83630 		ldrh	r3, [fp, #54]
 862              		.loc 1 611 0
 863 01ce 3846     		mov	r0, r7
 864              		.loc 1 610 0
 865 01d0 591C     		adds	r1, r3, #1
 866 01d2 ABF83610 		strh	r1, [fp, #54]	@ movhi
 867              		.loc 1 612 0
 868 01d6 4FF00009 		mov	r9, #0
 869              		.loc 1 611 0
 870 01da FFF7FEFF 		bl	pbuf_free
 871              	.LVL104:
 872              	.L135:
 873              		.loc 1 613 0
 874 01de 4846     		mov	r0, r9
 875 01e0 05B0     		add	sp, sp, #20
 876 01e2 BDE8F08F 		pop	{r4, r5, r6, r7, r8, r9, sl, fp, pc}
 877              	.LVL105:
 878              	.L138:
 879              		.loc 1 504 0
 880 01e6 3046     		mov	r0, r6
 881 01e8 4946     		mov	r1, r9
 882 01ea FFF7FEFF 		bl	ip_reass_remove_oldest_datagram
 883              	.LVL106:
 884 01ee 0028     		cmp	r0, #0
 885 01f0 00F09080 		beq	.L79
 886              		.loc 1 505 0 discriminator 1
 887 01f4 B8F80020 		ldrh	r2, [r8, #0]
 888 01f8 09EB0203 		add	r3, r9, r2
 889              		.loc 1 504 0 discriminator 1
 890 01fc 0A2B     		cmp	r3, #10
 891 01fe 7FF728AF 		ble	.L71
 892 0202 87E0     		b	.L79
 893              	.LVL107:
 894              	.L140:
 895              	.LBB29:
 896              	.LBB22:
 897              		.loc 1 360 0
 898 0204 CAF80020 		str	r2, [sl, #0]	@ unaligned
 899              		.loc 1 364 0
 900 0208 F388     		ldrh	r3, [r6, #6]	@ unaligned
 901              	.LVL108:
 902 020a 8342     		cmp	r3, r0
 903 020c 6ED8     		bhi	.L83
 904 020e 8C45     		cmp	ip, r1
 905 0210 6CD8     		bhi	.L83
 906              		.loc 1 369 0
 907 0212 3760     		str	r7, [r6, #0]	@ unaligned
 908              	.LVL109:
 909              	.L106:
ARM GAS  /tmp/ccNlOfGx.s 			page 17


 910              	.LBE22:
 911              		.loc 1 421 0
 912 0214 A07F     		ldrb	r0, [r4, #30]	@ zero_extendqisi2
 913              	.LBB23:
 914 0216 C207     		lsls	r2, r0, #31
 915 0218 CFD5     		bpl	.L92
 916              		.loc 1 423 0
 917 021a B9F1000F 		cmp	r9, #0
 918 021e CCD0     		beq	.L92
 919              	.LVL110:
 920              	.L111:
 921              		.loc 1 426 0
 922 0220 6168     		ldr	r1, [r4, #4]
 923 0222 4868     		ldr	r0, [r1, #4]
 924 0224 8288     		ldrh	r2, [r0, #4]	@ unaligned
 925 0226 002A     		cmp	r2, #0
 926 0228 C7D1     		bne	.L92
 927              	.LVL111:
 928              		.loc 1 431 0
 929 022a DAF80060 		ldr	r6, [sl, #0]	@ unaligned
 930              	.LVL112:
 931              		.loc 1 432 0
 932 022e 002E     		cmp	r6, #0
 933 0230 00F09380 		beq	.L115
 934              		.loc 1 433 0
 935 0234 7668     		ldr	r6, [r6, #4]
 936              	.LVL113:
 937              		.loc 1 434 0
 938 0236 BAF80610 		ldrh	r1, [sl, #6]	@ unaligned
 939 023a B388     		ldrh	r3, [r6, #4]	@ unaligned
 940 023c 9942     		cmp	r1, r3
 941 023e 06D0     		beq	.L134
 942 0240 BBE7     		b	.L92
 943              	.LVL114:
 944              	.L97:
 945              		.loc 1 433 0
 946 0242 5368     		ldr	r3, [r2, #4]
 947              	.LVL115:
 948              		.loc 1 434 0
 949 0244 F188     		ldrh	r1, [r6, #6]	@ unaligned
 950 0246 9A88     		ldrh	r2, [r3, #4]	@ unaligned
 951              	.LVL116:
 952 0248 9142     		cmp	r1, r2
 953 024a B6D1     		bne	.L92
 954 024c 1E46     		mov	r6, r3
 955              	.LVL117:
 956              	.L134:
 957              		.loc 1 439 0
 958 024e 3268     		ldr	r2, [r6, #0]	@ unaligned
 959              	.LVL118:
 960              		.loc 1 432 0
 961 0250 002A     		cmp	r2, #0
 962 0252 F6D1     		bne	.L97
 963              	.LVL119:
 964              	.L94:
 965              		.loc 1 445 0
 966 0254 B042     		cmp	r0, r6
ARM GAS  /tmp/ccNlOfGx.s 			page 18


 967 0256 7DD0     		beq	.L142
 968              	.L108:
 969              		.loc 1 447 0
 970 0258 3768     		ldr	r7, [r6, #0]	@ unaligned
 971              	.LVL120:
 972 025a 0FB1     		cbz	r7, .L98
 973 025c FFF7FEFF 		bl	port_halt
 974              	.LVL121:
 975              	.L98:
 976              		.loc 1 449 0
 977 0260 A28B     		ldrh	r2, [r4, #28]
 978 0262 F088     		ldrh	r0, [r6, #6]	@ unaligned
 979 0264 9042     		cmp	r0, r2
 980 0266 02D0     		beq	.L99
 981 0268 FFF7FEFF 		bl	port_halt
 982              	.LVL122:
 983 026c A28B     		ldrh	r2, [r4, #28]
 984              	.L99:
 985              	.LBE23:
 986              	.LBE29:
 987              		.loc 1 577 0
 988 026e 2346     		mov	r3, r4
 989              		.loc 1 573 0
 990 0270 6668     		ldr	r6, [r4, #4]
 991              	.LVL123:
 992              		.loc 1 577 0
 993 0272 53F808EF 		ldr	lr, [r3, #8]!	@ unaligned
 994              		.loc 1 573 0
 995 0276 7768     		ldr	r7, [r6, #4]
 996              		.loc 1 577 0
 997 0278 D3F804C0 		ldr	ip, [r3, #4]	@ unaligned
 998 027c 9868     		ldr	r0, [r3, #8]	@ unaligned
 999 027e D968     		ldr	r1, [r3, #12]	@ unaligned
 1000              		.loc 1 570 0
 1001 0280 1432     		adds	r2, r2, #20
 1002 0282 A283     		strh	r2, [r4, #28]	@ movhi
 1003              		.loc 1 573 0
 1004 0284 3E68     		ldr	r6, [r7, #0]	@ unaligned
 1005              	.LVL124:
 1006              		.loc 1 577 0
 1007 0286 C7F804C0 		str	ip, [r7, #4]	@ unaligned
 1008 028a C7F800E0 		str	lr, [r7, #0]	@ unaligned
 1009 028e F960     		str	r1, [r7, #12]	@ unaligned
 1010 0290 B860     		str	r0, [r7, #8]	@ unaligned
 1011 0292 1A69     		ldr	r2, [r3, #16]	@ unaligned
 1012 0294 3A61     		str	r2, [r7, #16]	@ unaligned
 1013              		.loc 1 578 0
 1014 0296 A08B     		ldrh	r0, [r4, #28]
 1015 0298 FFF7FEFF 		bl	lwip_htons
 1016              	.LVL125:
 1017              		.loc 1 579 0
 1018 029c 0023     		movs	r3, #0
 1019              		.loc 1 578 0
 1020 029e 7880     		strh	r0, [r7, #2]	@ unaligned
 1021              		.loc 1 579 0
 1022 02a0 BB71     		strb	r3, [r7, #6]
 1023 02a2 FB71     		strb	r3, [r7, #7]
ARM GAS  /tmp/ccNlOfGx.s 			page 19


 1024              		.loc 1 580 0
 1025 02a4 BB72     		strb	r3, [r7, #10]
 1026 02a6 FB72     		strb	r3, [r7, #11]
 1027              		.loc 1 582 0
 1028 02a8 3846     		mov	r0, r7
 1029 02aa 1421     		movs	r1, #20
 1030 02ac FFF7FEFF 		bl	inet_chksum
 1031              	.LVL126:
 1032 02b0 7881     		strh	r0, [r7, #10]	@ unaligned
 1033              		.loc 1 584 0
 1034 02b2 D4F80490 		ldr	r9, [r4, #4]
 1035              	.LVL127:
 1036              		.loc 1 587 0
 1037 02b6 66B1     		cbz	r6, .L110
 1038              	.LVL128:
 1039              	.L126:
 1040              		.loc 1 588 0
 1041 02b8 7768     		ldr	r7, [r6, #4]
 1042              	.LVL129:
 1043              		.loc 1 591 0
 1044 02ba 3046     		mov	r0, r6
 1045 02bc 6FF01301 		mvn	r1, #19
 1046 02c0 FFF7FEFF 		bl	pbuf_header
 1047              	.LVL130:
 1048              		.loc 1 592 0
 1049 02c4 3146     		mov	r1, r6
 1050 02c6 4846     		mov	r0, r9
 1051 02c8 FFF7FEFF 		bl	pbuf_cat
 1052              	.LVL131:
 1053              		.loc 1 593 0
 1054 02cc 3E68     		ldr	r6, [r7, #0]	@ unaligned
 1055              	.LVL132:
 1056              		.loc 1 587 0
 1057 02ce 002E     		cmp	r6, #0
 1058 02d0 F2D1     		bne	.L126
 1059              	.LVL133:
 1060              	.L110:
 1061              		.loc 1 596 0
 1062 02d2 2046     		mov	r0, r4
 1063 02d4 2946     		mov	r1, r5
 1064 02d6 FFF7FEFF 		bl	ip_reass_dequeue_datagram
 1065              	.LVL134:
 1066              		.loc 1 599 0
 1067 02da 4846     		mov	r0, r9
 1068 02dc B8F80040 		ldrh	r4, [r8, #0]
 1069              	.LVL135:
 1070 02e0 FFF7FEFF 		bl	pbuf_clen
 1071              	.LVL136:
 1072 02e4 201A     		subs	r0, r4, r0
 1073 02e6 A8F80000 		strh	r0, [r8, #0]	@ movhi
 1074              		.loc 1 602 0
 1075 02ea 78E7     		b	.L135
 1076              	.LVL137:
 1077              	.L83:
 1078              	.LDL1:
 1079              	.LBB30:
 1080              	.LBB24:
ARM GAS  /tmp/ccNlOfGx.s 			page 20


 1081              		.loc 1 463 0
 1082 02ec 3846     		mov	r0, r7
 1083              	.LVL138:
 1084 02ee B8F80040 		ldrh	r4, [r8, #0]
 1085              	.LVL139:
 1086 02f2 FFF7FEFF 		bl	pbuf_clen
 1087              	.LVL140:
 1088 02f6 241A     		subs	r4, r4, r0
 1089              		.loc 1 464 0
 1090 02f8 3846     		mov	r0, r7
 1091              		.loc 1 463 0
 1092 02fa A8F80040 		strh	r4, [r8, #0]	@ movhi
 1093              	.LBE24:
 1094              	.LBE30:
 1095              		.loc 1 606 0
 1096 02fe 4FF00009 		mov	r9, #0
 1097              	.LBB31:
 1098              	.LBB25:
 1099              		.loc 1 464 0
 1100 0302 FFF7FEFF 		bl	pbuf_free
 1101              	.LVL141:
 1102 0306 6AE7     		b	.L135
 1103              	.LVL142:
 1104              	.L139:
 1105              	.LBE25:
 1106              	.LBE31:
 1107              	.LBB32:
 1108              	.LBB17:
 1109              		.loc 1 276 0
 1110 0308 3046     		mov	r0, r6
 1111              	.LVL143:
 1112 030a 4946     		mov	r1, r9
 1113 030c FFF7FEFF 		bl	ip_reass_remove_oldest_datagram
 1114              	.LVL144:
 1115 0310 8145     		cmp	r9, r0
 1116 0312 17DD     		ble	.L78
 1117              	.LVL145:
 1118              	.L79:
 1119              		.loc 1 282 0
 1120 0314 BBF83C00 		ldrh	r0, [fp, #60]
 1121 0318 431C     		adds	r3, r0, #1
 1122 031a ABF83C30 		strh	r3, [fp, #60]	@ movhi
 1123 031e 54E7     		b	.L70
 1124              	.LVL146:
 1125              	.L82:
 1126              	.LBE17:
 1127              	.LBE32:
 1128              	.LBB33:
 1129              	.LBB26:
 1130              		.loc 1 360 0
 1131 0320 CAF80030 		str	r3, [sl, #0]	@ unaligned
 1132              		.loc 1 372 0
 1133 0324 4FF00109 		mov	r9, #1
 1134              	.LVL147:
 1135 0328 6760     		str	r7, [r4, #4]
 1136 032a 73E7     		b	.L106
 1137              	.LVL148:
ARM GAS  /tmp/ccNlOfGx.s 			page 21


 1138              	.L81:
 1139              	.LBE26:
 1140              		.loc 1 421 0
 1141 032c A07F     		ldrb	r0, [r4, #30]	@ zero_extendqisi2
 1142              	.LVL149:
 1143              	.LBB27:
 1144              		.loc 1 415 0
 1145 032e 6760     		str	r7, [r4, #4]
 1146              		.loc 1 421 0
 1147 0330 C307     		lsls	r3, r0, #31
 1148              	.LVL150:
 1149 0332 3FF575AF 		bmi	.L111
 1150 0336 40E7     		b	.L92
 1151              	.LVL151:
 1152              	.L141:
 1153              		.loc 1 403 0
 1154 0338 FFF7FEFF 		bl	port_halt
 1155              	.LVL152:
 1156 033c F388     		ldrh	r3, [r6, #6]	@ unaligned
 1157 033e BAF80400 		ldrh	r0, [sl, #4]	@ unaligned
 1158 0342 37E7     		b	.L105
 1159              	.LVL153:
 1160              	.L78:
 1161              	.LBE27:
 1162              	.LBE33:
 1163              	.LBB34:
 1164              	.LBB18:
 1165              		.loc 1 277 0
 1166 0344 0520     		movs	r0, #5
 1167 0346 FFF7FEFF 		bl	memp_malloc
 1168              	.LVL154:
 1169              		.loc 1 279 0
 1170 034a 0446     		mov	r4, r0
 1171 034c 0028     		cmp	r0, #0
 1172 034e 7FF4B2AE 		bne	.L103
 1173 0352 DFE7     		b	.L79
 1174              	.LVL155:
 1175              	.L142:
 1176              	.LBE18:
 1177              	.LBE34:
 1178              	.LBB35:
 1179              	.LBB28:
 1180              		.loc 1 445 0
 1181 0354 FFF7FEFF 		bl	port_halt
 1182              	.LVL156:
 1183 0358 7EE7     		b	.L108
 1184              	.LVL157:
 1185              	.L115:
 1186              		.loc 1 432 0
 1187 035a 5646     		mov	r6, sl
 1188              	.LVL158:
 1189 035c 7AE7     		b	.L94
 1190              	.L144:
 1191 035e 00BF     		.align	2
 1192              	.L143:
 1193 0360 00000000 		.word	lwip_stats
 1194 0364 00000000 		.word	.LANCHOR1
ARM GAS  /tmp/ccNlOfGx.s 			page 22


 1195 0368 00000000 		.word	.LANCHOR0
 1196              	.LBE28:
 1197              	.LBE35:
 1198              		.cfi_endproc
 1199              	.LFE13:
 1200              		.size	ip_reass, .-ip_reass
 1201 036c AFF30080 		.section	.text.ip_frag,"ax",%progbits
 1202              		.align	2
 1203              		.p2align 4,,15
 1204              		.global	ip_frag
 1205              		.thumb
 1206              		.thumb_func
 1207              		.type	ip_frag, %function
 1208              	ip_frag:
 1209              	.LFB17:
 1210              		.loc 1 668 0
 1211              		.cfi_startproc
 1212              		@ args = 0, pretend = 0, frame = 48
 1213              		@ frame_needed = 0, uses_anonymous_args = 0
 1214              	.LVL159:
 1215 0000 2DE9F04F 		push	{r4, r5, r6, r7, r8, r9, sl, fp, lr}
 1216              	.LCFI8:
 1217              		.cfi_def_cfa_offset 36
 1218              		.cfi_offset 4, -36
 1219              		.cfi_offset 5, -32
 1220              		.cfi_offset 6, -28
 1221              		.cfi_offset 7, -24
 1222              		.cfi_offset 8, -20
 1223              		.cfi_offset 9, -16
 1224              		.cfi_offset 10, -12
 1225              		.cfi_offset 11, -8
 1226              		.cfi_offset 14, -4
 1227 0004 8FB0     		sub	sp, sp, #60
 1228              	.LCFI9:
 1229              		.cfi_def_cfa_offset 96
 1230              		.loc 1 709 0
 1231 0006 D0F80490 		ldr	r9, [r0, #4]
 1232              		.loc 1 668 0
 1233 000a 0891     		str	r1, [sp, #32]
 1234 000c 0446     		mov	r4, r0
 1235              		.loc 1 714 0
 1236 000e B9F80600 		ldrh	r0, [r9, #6]	@ unaligned
 1237              	.LVL160:
 1238              		.loc 1 681 0
 1239 0012 0E8C     		ldrh	r6, [r1, #32]
 1240              	.LVL161:
 1241              		.loc 1 668 0
 1242 0014 0C92     		str	r2, [sp, #48]
 1243              		.loc 1 714 0
 1244 0016 FFF7FEFF 		bl	lwip_ntohs
 1245              	.LVL162:
 1246              		.loc 1 718 0
 1247 001a 2389     		ldrh	r3, [r4, #8]
 1248              		.loc 1 715 0
 1249 001c C704     		lsls	r7, r0, #19
 1250              		.loc 1 718 0
 1251 001e 143B     		subs	r3, r3, #20
ARM GAS  /tmp/ccNlOfGx.s 			page 23


 1252              		.loc 1 715 0
 1253 0020 F90C     		lsrs	r1, r7, #19
 1254              		.loc 1 718 0
 1255 0022 9BB2     		uxth	r3, r3
 1256              		.loc 1 720 0
 1257 0024 B6F11407 		subs	r7, r6, #20
 1258              		.loc 1 716 0
 1259 0028 00F40050 		and	r0, r0, #8192
 1260              	.LVL163:
 1261              		.loc 1 720 0
 1262 002c 48BF     		it	mi
 1263 002e A6F10D07 		submi	r7, r6, #13
 1264              		.loc 1 718 0
 1265 0032 0593     		str	r3, [sp, #20]
 1266              		.loc 1 716 0
 1267 0034 82B2     		uxth	r2, r0
 1268              		.loc 1 720 0
 1269 0036 C7F3CF00 		ubfx	r0, r7, #3, #16
 1270              		.loc 1 722 0
 1271 003a 059F     		ldr	r7, [sp, #20]
 1272              		.loc 1 715 0
 1273 003c 0691     		str	r1, [sp, #24]
 1274              	.LVL164:
 1275              		.loc 1 716 0
 1276 003e 0A92     		str	r2, [sp, #40]
 1277              	.LVL165:
 1278              		.loc 1 720 0
 1279 0040 0990     		str	r0, [sp, #36]
 1280              	.LVL166:
 1281              		.loc 1 722 0
 1282 0042 002F     		cmp	r7, #0
 1283 0044 00F0A980 		beq	.L158
 1284              		.loc 1 732 0
 1285 0048 099D     		ldr	r5, [sp, #36]
 1286              	.LBB41:
 1287              		.loc 1 795 0
 1288 004a DFF88881 		ldr	r8, .L173
 1289              	.LBE41:
 1290              		.loc 1 732 0
 1291 004e E900     		lsls	r1, r5, #3
 1292 0050 133E     		subs	r6, r6, #19
 1293              	.LVL167:
 1294 0052 0B96     		str	r6, [sp, #44]
 1295 0054 8EB2     		uxth	r6, r1
 1296              	.LVL168:
 1297 0056 0D96     		str	r6, [sp, #52]
 1298              		.loc 1 687 0
 1299 0058 0025     		movs	r5, #0
 1300              		.loc 1 684 0
 1301 005a 1426     		movs	r6, #20
 1302              	.LVL169:
 1303              	.L157:
 1304              		.loc 1 726 0
 1305 005c 069A     		ldr	r2, [sp, #24]
 1306 005e 0A9F     		ldr	r7, [sp, #40]
 1307              		.loc 1 727 0
 1308 0060 0599     		ldr	r1, [sp, #20]
ARM GAS  /tmp/ccNlOfGx.s 			page 24


 1309              		.loc 1 726 0
 1310 0062 D304     		lsls	r3, r2, #19
 1311              		.loc 1 727 0
 1312 0064 0B9A     		ldr	r2, [sp, #44]
 1313              		.loc 1 726 0
 1314 0066 D80C     		lsrs	r0, r3, #19
 1315 0068 0743     		orrs	r7, r7, r0
 1316              		.loc 1 727 0
 1317 006a 9142     		cmp	r1, r2
 1318              		.loc 1 726 0
 1319 006c 0797     		str	r7, [sp, #28]
 1320              	.LVL170:
 1321              		.loc 1 727 0
 1322 006e C0F29680 		blt	.L159
 1323              		.loc 1 728 0
 1324 0072 0798     		ldr	r0, [sp, #28]
 1325              		.loc 1 732 0
 1326 0074 0D99     		ldr	r1, [sp, #52]
 1327              		.loc 1 728 0
 1328 0076 40F40057 		orr	r7, r0, #8192
 1329 007a 0797     		str	r7, [sp, #28]
 1330              		.loc 1 732 0
 1331 007c 0491     		str	r1, [sp, #16]
 1332              	.L149:
 1333              	.LVL171:
 1334              		.loc 1 759 0 discriminator 3
 1335 007e 0220     		movs	r0, #2
 1336 0080 1421     		movs	r1, #20
 1337 0082 0022     		movs	r2, #0
 1338 0084 FFF7FEFF 		bl	pbuf_alloc
 1339              	.LVL172:
 1340              		.loc 1 760 0 discriminator 3
 1341 0088 0746     		mov	r7, r0
 1342 008a 0028     		cmp	r0, #0
 1343 008c 00F0A080 		beq	.L160
 1344              		.loc 1 763 0
 1345 0090 6289     		ldrh	r2, [r4, #10]
 1346 0092 132A     		cmp	r2, #19
 1347 0094 40F28680 		bls	.L170
 1348              	.LVL173:
 1349              	.L150:
 1350              		.loc 1 765 0
 1351 0098 D9F80400 		ldr	r0, [r9, #4]	@ unaligned
 1352 009c D9F80810 		ldr	r1, [r9, #8]	@ unaligned
 1353 00a0 D9F80C20 		ldr	r2, [r9, #12]	@ unaligned
 1354 00a4 D9F800E0 		ldr	lr, [r9, #0]	@ unaligned
 1355 00a8 7B68     		ldr	r3, [r7, #4]
 1356 00aa C3F800E0 		str	lr, [r3, #0]	@ unaligned
 1357 00ae 5860     		str	r0, [r3, #4]	@ unaligned
 1358 00b0 9960     		str	r1, [r3, #8]	@ unaligned
 1359 00b2 DA60     		str	r2, [r3, #12]	@ unaligned
 1360 00b4 D9F81000 		ldr	r0, [r9, #16]	@ unaligned
 1361 00b8 1861     		str	r0, [r3, #16]	@ unaligned
 1362              		.loc 1 770 0
 1363 00ba 6189     		ldrh	r1, [r4, #10]
 1364              		.loc 1 769 0
 1365 00bc 6268     		ldr	r2, [r4, #4]
ARM GAS  /tmp/ccNlOfGx.s 			page 25


 1366              		.loc 1 766 0
 1367 00be 7B68     		ldr	r3, [r7, #4]
 1368              		.loc 1 770 0
 1369 00c0 881B     		subs	r0, r1, r6
 1370              		.loc 1 773 0
 1371 00c2 0499     		ldr	r1, [sp, #16]
 1372              		.loc 1 766 0
 1373 00c4 0393     		str	r3, [sp, #12]
 1374              	.LVL174:
 1375              		.loc 1 769 0
 1376 00c6 9619     		adds	r6, r2, r6
 1377              		.loc 1 770 0
 1378 00c8 82B2     		uxth	r2, r0
 1379              		.loc 1 769 0
 1380 00ca 6660     		str	r6, [r4, #4]
 1381              		.loc 1 770 0
 1382 00cc 6281     		strh	r2, [r4, #10]	@ movhi
 1383              	.LVL175:
 1384              		.loc 1 773 0
 1385 00ce 0029     		cmp	r1, #0
 1386 00d0 2FD0     		beq	.L151
 1387 00d2 0E46     		mov	r6, r1
 1388 00d4 1546     		mov	r5, r2
 1389              	.LVL176:
 1390 00d6 0297     		str	r7, [sp, #8]
 1391 00d8 01E0     		b	.L152
 1392              	.LVL177:
 1393              	.L169:
 1394              	.LBB46:
 1395              		.loc 1 803 0
 1396 00da 2468     		ldr	r4, [r4, #0]
 1397              	.LVL178:
 1398 00dc 6589     		ldrh	r5, [r4, #10]
 1399              	.LVL179:
 1400              	.L152:
 1401              		.loc 1 775 0
 1402 00de B542     		cmp	r5, r6
 1403 00e0 28BF     		it	cs
 1404 00e2 3546     		movcs	r5, r6
 1405 00e4 ADB2     		uxth	r5, r5
 1406              	.LVL180:
 1407              		.loc 1 777 0
 1408 00e6 002D     		cmp	r5, #0
 1409 00e8 F7D0     		beq	.L169
 1410              	.LBB42:
 1411              	.LBB43:
 1412              		.loc 1 626 0
 1413 00ea 0620     		movs	r0, #6
 1414 00ec FFF7FEFF 		bl	memp_malloc
 1415              	.LVL181:
 1416              	.LBE43:
 1417              	.LBE42:
 1418              		.loc 1 782 0
 1419 00f0 8346     		mov	fp, r0
 1420              		.loc 1 787 0
 1421 00f2 0346     		mov	r3, r0
 1422 00f4 2946     		mov	r1, r5
ARM GAS  /tmp/ccNlOfGx.s 			page 26


 1423 00f6 0222     		movs	r2, #2
 1424 00f8 0320     		movs	r0, #3
 1425              		.loc 1 782 0
 1426 00fa BBF1000F 		cmp	fp, #0
 1427 00fe 54D0     		beq	.L171
 1428              		.loc 1 787 0
 1429 0100 6768     		ldr	r7, [r4, #4]
 1430 0102 0195     		str	r5, [sp, #4]
 1431 0104 0097     		str	r7, [sp, #0]
 1432 0106 FFF7FEFF 		bl	pbuf_alloced_custom
 1433              	.LVL182:
 1434              		.loc 1 788 0
 1435 010a 8246     		mov	sl, r0
 1436              		.loc 1 793 0
 1437 010c 2046     		mov	r0, r4
 1438              	.LVL183:
 1439              		.loc 1 788 0
 1440 010e BAF1000F 		cmp	sl, #0
 1441 0112 53D0     		beq	.L172
 1442              	.LVL184:
 1443              		.loc 1 793 0
 1444 0114 FFF7FEFF 		bl	pbuf_ref
 1445              	.LVL185:
 1446              		.loc 1 794 0
 1447 0118 CBF81440 		str	r4, [fp, #20]
 1448              		.loc 1 795 0
 1449 011c CBF81080 		str	r8, [fp, #16]
 1450              		.loc 1 800 0
 1451 0120 0298     		ldr	r0, [sp, #8]
 1452 0122 5146     		mov	r1, sl
 1453 0124 FFF7FEFF 		bl	pbuf_cat
 1454              	.LVL186:
 1455              		.loc 1 801 0
 1456 0128 731B     		subs	r3, r6, r5
 1457 012a 9EB2     		uxth	r6, r3
 1458              	.LVL187:
 1459              		.loc 1 802 0
 1460 012c 002E     		cmp	r6, #0
 1461 012e D4D1     		bne	.L169
 1462 0130 029F     		ldr	r7, [sp, #8]
 1463              	.LVL188:
 1464              	.L151:
 1465              	.LBE46:
 1466              		.loc 1 811 0
 1467 0132 0798     		ldr	r0, [sp, #28]
 1468 0134 FFF7FEFF 		bl	lwip_htons
 1469              	.LVL189:
 1470              		.loc 1 812 0
 1471 0138 049E     		ldr	r6, [sp, #16]
 1472              		.loc 1 811 0
 1473 013a 039A     		ldr	r2, [sp, #12]
 1474              		.loc 1 812 0
 1475 013c 1436     		adds	r6, r6, #20
 1476              		.loc 1 811 0
 1477 013e D080     		strh	r0, [r2, #6]	@ unaligned
 1478              		.loc 1 812 0
 1479 0140 B0B2     		uxth	r0, r6
ARM GAS  /tmp/ccNlOfGx.s 			page 27


 1480 0142 FFF7FEFF 		bl	lwip_htons
 1481              	.LVL190:
 1482 0146 039E     		ldr	r6, [sp, #12]
 1483 0148 7080     		strh	r0, [r6, #2]	@ unaligned
 1484              		.loc 1 813 0
 1485 014a 0020     		movs	r0, #0
 1486 014c B072     		strb	r0, [r6, #10]
 1487 014e F072     		strb	r0, [r6, #11]
 1488              		.loc 1 814 0
 1489 0150 1421     		movs	r1, #20
 1490 0152 0398     		ldr	r0, [sp, #12]
 1491 0154 FFF7FEFF 		bl	inet_chksum
 1492              	.LVL191:
 1493 0158 0399     		ldr	r1, [sp, #12]
 1494 015a 4881     		strh	r0, [r1, #10]	@ unaligned
 1495              		.loc 1 842 0
 1496 015c 0898     		ldr	r0, [sp, #32]
 1497 015e 0C9A     		ldr	r2, [sp, #48]
 1498 0160 4369     		ldr	r3, [r0, #20]
 1499 0162 3946     		mov	r1, r7
 1500 0164 9847     		blx	r3
 1501              	.LVL192:
 1502              		.loc 1 843 0
 1503 0166 40F20002 		movw	r2, #:lower16:lwip_stats
 1504 016a C0F20002 		movt	r2, #:upper16:lwip_stats
 1505              		.loc 1 852 0
 1506 016e 3846     		mov	r0, r7
 1507              		.loc 1 843 0
 1508 0170 168E     		ldrh	r6, [r2, #48]
 1509 0172 771C     		adds	r7, r6, #1
 1510 0174 1786     		strh	r7, [r2, #48]	@ movhi
 1511              		.loc 1 852 0
 1512 0176 FFF7FEFF 		bl	pbuf_free
 1513              	.LVL193:
 1514              		.loc 1 854 0
 1515 017a 0599     		ldr	r1, [sp, #20]
 1516              		.loc 1 855 0
 1517 017c 069B     		ldr	r3, [sp, #24]
 1518              		.loc 1 854 0
 1519 017e 0498     		ldr	r0, [sp, #16]
 1520              		.loc 1 855 0
 1521 0180 099A     		ldr	r2, [sp, #36]
 1522              		.loc 1 854 0
 1523 0182 C0EB010B 		rsb	fp, r0, r1
 1524              		.loc 1 855 0
 1525 0186 9E18     		adds	r6, r3, r2
 1526 0188 B1B2     		uxth	r1, r6
 1527              		.loc 1 854 0
 1528 018a 1FFA8BF7 		uxth	r7, fp
 1529 018e 0597     		str	r7, [sp, #20]
 1530              		.loc 1 855 0
 1531 0190 0691     		str	r1, [sp, #24]
 1532              	.LVL194:
 1533 0192 2E46     		mov	r6, r5
 1534              		.loc 1 722 0
 1535 0194 002F     		cmp	r7, #0
 1536 0196 7FF461AF 		bne	.L157
ARM GAS  /tmp/ccNlOfGx.s 			page 28


 1537              	.LVL195:
 1538              	.L158:
 1539              	.LBB47:
 1540              		.loc 1 861 0
 1541 019a 0020     		movs	r0, #0
 1542 019c 0AE0     		b	.L148
 1543              	.LVL196:
 1544              	.L159:
 1545              	.LBE47:
 1546              		.loc 1 727 0
 1547 019e 059B     		ldr	r3, [sp, #20]
 1548 01a0 0493     		str	r3, [sp, #16]
 1549 01a2 6CE7     		b	.L149
 1550              	.LVL197:
 1551              	.L170:
 1552              		.loc 1 763 0 discriminator 1
 1553 01a4 FFF7FEFF 		bl	port_halt
 1554              	.LVL198:
 1555 01a8 76E7     		b	.L150
 1556              	.LVL199:
 1557              	.L171:
 1558 01aa 029F     		ldr	r7, [sp, #8]
 1559              	.LBB48:
 1560              		.loc 1 783 0
 1561 01ac 3846     		mov	r0, r7
 1562 01ae FFF7FEFF 		bl	pbuf_free
 1563              	.LVL200:
 1564              		.loc 1 784 0
 1565 01b2 FF20     		movs	r0, #255
 1566              	.LVL201:
 1567              	.L148:
 1568              	.LBE48:
 1569              		.loc 1 862 0
 1570 01b4 40B2     		sxtb	r0, r0
 1571 01b6 0FB0     		add	sp, sp, #60
 1572 01b8 BDE8F08F 		pop	{r4, r5, r6, r7, r8, r9, sl, fp, pc}
 1573              	.LVL202:
 1574              	.L172:
 1575 01bc 029F     		ldr	r7, [sp, #8]
 1576              	.LVL203:
 1577              	.LBB49:
 1578              	.LBB44:
 1579              	.LBB45:
 1580              		.loc 1 634 0
 1581 01be 5946     		mov	r1, fp
 1582 01c0 0620     		movs	r0, #6
 1583              	.LVL204:
 1584 01c2 FFF7FEFF 		bl	memp_free
 1585              	.LVL205:
 1586              	.LBE45:
 1587              	.LBE44:
 1588              		.loc 1 790 0
 1589 01c6 3846     		mov	r0, r7
 1590 01c8 FFF7FEFF 		bl	pbuf_free
 1591              	.LVL206:
 1592              		.loc 1 791 0
 1593 01cc FF20     		movs	r0, #255
ARM GAS  /tmp/ccNlOfGx.s 			page 29


 1594 01ce F1E7     		b	.L148
 1595              	.LVL207:
 1596              	.L160:
 1597              	.LBE49:
 1598              		.loc 1 761 0
 1599 01d0 FF20     		movs	r0, #255
 1600              	.LVL208:
 1601 01d2 EFE7     		b	.L148
 1602              	.L174:
 1603              		.align	2
 1604              	.L173:
 1605 01d4 00000000 		.word	ipfrag_free_pbuf_custom
 1606              		.cfi_endproc
 1607              	.LFE17:
 1608              		.size	ip_frag, .-ip_frag
 1609 01d8 AFF30080 		.section	.bss.reassdatagrams,"aw",%nobits
 1609      AFF30080 
 1610              		.align	2
 1611              		.set	.LANCHOR0,. + 0
 1612              		.type	reassdatagrams, %object
 1613              		.size	reassdatagrams, 4
 1614              	reassdatagrams:
 1615 0000 00000000 		.space	4
 1616              		.section	.bss.ip_reass_pbufcount,"aw",%nobits
 1617              		.align	1
 1618              		.set	.LANCHOR1,. + 0
 1619              		.type	ip_reass_pbufcount, %object
 1620              		.size	ip_reass_pbufcount, 2
 1621              	ip_reass_pbufcount:
 1622 0000 0000     		.space	2
 1623              		.text
 1624              	.Letext0:
 1625              		.file 2 "/usr/bin/../lib/gcc/arm-none-eabi/4.7.4/../../../../arm-none-eabi/include/stdint.h"
 1626              		.file 3 "../../os/various/lwip_bindings/arch/cc.h"
 1627              		.file 4 "../../ext/lwip/src/include/lwip/err.h"
 1628              		.file 5 "../../ext/lwip/src/include/lwip/pbuf.h"
 1629              		.file 6 "../../ext/lwip/src/include/ipv4/lwip/ip_addr.h"
 1630              		.file 7 "../../ext/lwip/src/include/lwip/netif.h"
 1631              		.file 8 "../../ext/lwip/src/include/ipv4/lwip/ip.h"
 1632              		.file 9 "../../ext/lwip/src/include/ipv4/lwip/ip_frag.h"
 1633              		.file 10 "../../ext/lwip/src/include/lwip/mem.h"
 1634              		.file 11 "../../ext/lwip/src/include/lwip/memp.h"
 1635              		.file 12 "../../ext/lwip/src/include/lwip/stats.h"
 1636              		.file 13 "../../ext/lwip/src/include/ipv4/lwip/icmp.h"
 1637              		.file 14 "../../ext/lwip/src/include/lwip/def.h"
 1638              		.file 15 "../../ext/lwip/src/include/ipv4/lwip/inet_chksum.h"
 1639              		.file 16 "../../os/ports/GCC/ARMCMx/chcore_v7m.h"