ARM GAS  /tmp/ccQSlWks.s 			page 1


   1              		.syntax unified
   2              		.cpu cortex-m4
   3              		.fpu softvfp
   4              		.eabi_attribute 20, 1
   5              		.eabi_attribute 21, 1
   6              		.eabi_attribute 23, 3
   7              		.eabi_attribute 24, 1
   8              		.eabi_attribute 25, 1
   9              		.eabi_attribute 26, 1
  10              		.eabi_attribute 30, 2
  11              		.eabi_attribute 34, 1
  12              		.eabi_attribute 18, 4
  13              		.thumb
  14              		.file	"lwipthread.c"
  15              		.text
  16              	.Ltext0:
  17              		.cfi_sections	.debug_frame
  18              		.section	.text.ethernetif_init,"ax",%progbits
  19              		.align	2
  20              		.p2align 4,,15
  21              		.thumb
  22              		.thumb_func
  23              		.type	ethernetif_init, %function
  24              	ethernetif_init:
  25              	.LFB121:
  26              		.file 1 "../../os/various/lwip_bindings/lwipthread.c"
  27              		.loc 1 179 0
  28              		.cfi_startproc
  29              		@ args = 0, pretend = 0, frame = 0
  30              		@ frame_needed = 0, uses_anonymous_args = 0
  31              		@ link register save eliminated.
  32              	.LVL0:
  33              		.loc 1 179 0
  34 0000 0346     		mov	r3, r0
  35              		.loc 1 193 0
  36 0002 6D22     		movs	r2, #109
  37              		.loc 1 194 0
  38 0004 7321     		movs	r1, #115
  39              		.loc 1 193 0
  40 0006 83F82A20 		strb	r2, [r3, #42]
  41              		.loc 1 199 0
  42 000a 40F20002 		movw	r2, #:lower16:etharp_output
  43              		.loc 1 194 0
  44 000e 83F82B10 		strb	r1, [r3, #43]
  45              		.loc 1 199 0
  46 0012 C0F20002 		movt	r2, #:upper16:etharp_output
  47              		.loc 1 200 0
  48 0016 40F20001 		movw	r1, #:lower16:low_level_output
  49              		.loc 1 199 0
  50 001a 5A61     		str	r2, [r3, #20]
  51              		.loc 1 200 0
  52 001c C0F20001 		movt	r1, #:upper16:low_level_output
  53              	.LBB4:
  54              	.LBB5:
  55              		.loc 1 89 0
  56 0020 0622     		movs	r2, #6
  57              	.LBE5:
ARM GAS  /tmp/ccQSlWks.s 			page 2


  58              	.LBE4:
  59              		.loc 1 192 0
  60 0022 0020     		movs	r0, #0
  61              	.LVL1:
  62              		.loc 1 200 0
  63 0024 9961     		str	r1, [r3, #24]
  64              	.LVL2:
  65              	.LBB8:
  66              	.LBB6:
  67              		.loc 1 89 0
  68 0026 83F82220 		strb	r2, [r3, #34]
  69              		.loc 1 92 0
  70 002a 40F2DC51 		movw	r1, #1500
  71              		.loc 1 96 0
  72 002e 3222     		movs	r2, #50
  73              	.LBE6:
  74              	.LBE8:
  75              		.loc 1 192 0
  76 0030 D861     		str	r0, [r3, #28]
  77              	.LBB9:
  78              	.LBB7:
  79              		.loc 1 92 0
  80 0032 1984     		strh	r1, [r3, #32]	@ movhi
  81              		.loc 1 96 0
  82 0034 83F82920 		strb	r2, [r3, #41]
  83              	.LBE7:
  84              	.LBE9:
  85              		.loc 1 206 0
  86 0038 7047     		bx	lr
  87              		.cfi_endproc
  88              	.LFE121:
  89              		.size	ethernetif_init, .-ethernetif_init
  90 003a 00BFAFF3 		.section	.text.low_level_output,"ax",%progbits
  90      0080
  91              		.align	2
  92              		.p2align 4,,15
  93              		.thumb
  94              		.thumb_func
  95              		.type	low_level_output, %function
  96              	low_level_output:
  97              	.LFB119:
  98              		.loc 1 104 0
  99              		.cfi_startproc
 100              		@ args = 0, pretend = 0, frame = 16
 101              		@ frame_needed = 0, uses_anonymous_args = 0
 102              	.LVL3:
 103 0000 10B5     		push	{r4, lr}
 104              	.LCFI0:
 105              		.cfi_def_cfa_offset 8
 106              		.cfi_offset 4, -8
 107              		.cfi_offset 14, -4
 108 0002 84B0     		sub	sp, sp, #16
 109              	.LCFI1:
 110              		.cfi_def_cfa_offset 24
 111              		.loc 1 104 0
 112 0004 0C46     		mov	r4, r1
 113              		.loc 1 109 0
ARM GAS  /tmp/ccQSlWks.s 			page 3


 114 0006 0E48     		ldr	r0, .L12
 115              	.LVL4:
 116 0008 01A9     		add	r1, sp, #4
 117              	.LVL5:
 118 000a 3222     		movs	r2, #50
 119 000c FFF7FEFF 		bl	macWaitTransmitDescriptor
 120              	.LVL6:
 121 0010 98B9     		cbnz	r0, .L7
 122              	.LVL7:
 123              		.loc 1 117 0 discriminator 2
 124 0012 3CB1     		cbz	r4, .L11
 125              	.LVL8:
 126              	.L5:
 127              		.loc 1 118 0 discriminator 2
 128 0014 6168     		ldr	r1, [r4, #4]
 129 0016 6289     		ldrh	r2, [r4, #10]
 130 0018 01A8     		add	r0, sp, #4
 131 001a FFF7FEFF 		bl	mac_lld_write_transmit_descriptor
 132              	.LVL9:
 133              		.loc 1 117 0 discriminator 2
 134 001e 2468     		ldr	r4, [r4, #0]
 135              	.LVL10:
 136 0020 002C     		cmp	r4, #0
 137 0022 F7D1     		bne	.L5
 138              	.L11:
 139              		.loc 1 119 0
 140 0024 01A8     		add	r0, sp, #4
 141 0026 FFF7FEFF 		bl	macReleaseTransmitDescriptor
 142              	.LVL11:
 143              		.loc 1 125 0
 144 002a 064B     		ldr	r3, .L12+4
 145 002c 1A88     		ldrh	r2, [r3, #0]
 146 002e 501C     		adds	r0, r2, #1
 147 0030 1880     		strh	r0, [r3, #0]	@ movhi
 148              		.loc 1 127 0
 149 0032 0021     		movs	r1, #0
 150              	.LVL12:
 151              	.L3:
 152              		.loc 1 128 0
 153 0034 48B2     		sxtb	r0, r1
 154 0036 04B0     		add	sp, sp, #16
 155 0038 10BD     		pop	{r4, pc}
 156              	.LVL13:
 157              	.L7:
 158              		.loc 1 110 0
 159 003a FD21     		movs	r1, #253
 160 003c FAE7     		b	.L3
 161              	.L13:
 162 003e 00BF     		.align	2
 163              	.L12:
 164 0040 00000000 		.word	ETHD1
 165 0044 00000000 		.word	lwip_stats
 166              		.cfi_endproc
 167              	.LFE119:
 168              		.size	low_level_output, .-low_level_output
 169 0048 AFF30080 		.section	.text.lwip_thread,"ax",%progbits
 169      AFF30080 
ARM GAS  /tmp/ccQSlWks.s 			page 4


 170              		.align	2
 171              		.p2align 4,,15
 172              		.global	lwip_thread
 173              		.thumb
 174              		.thumb_func
 175              		.type	lwip_thread, %function
 176              	lwip_thread:
 177              	.LFB122:
 178              		.loc 1 214 0
 179              		.cfi_startproc
 180              		@ args = 0, pretend = 0, frame = 88
 181              		@ frame_needed = 0, uses_anonymous_args = 0
 182              	.LVL14:
 183 0000 2DE9F041 		push	{r4, r5, r6, r7, r8, lr}
 184              	.LCFI2:
 185              		.cfi_def_cfa_offset 24
 186              		.cfi_offset 4, -24
 187              		.cfi_offset 5, -20
 188              		.cfi_offset 6, -16
 189              		.cfi_offset 7, -12
 190              		.cfi_offset 8, -8
 191              		.cfi_offset 14, -4
 192              		.loc 1 221 0
 193 0004 6D4B     		ldr	r3, .L45
 194 0006 6E4A     		ldr	r2, .L45+4
 195 0008 9969     		ldr	r1, [r3, #24]
 196              		.loc 1 214 0
 197 000a 0446     		mov	r4, r0
 198              		.loc 1 224 0
 199 000c 0020     		movs	r0, #0
 200              	.LVL15:
 201              		.loc 1 214 0
 202 000e 9AB0     		sub	sp, sp, #104
 203              	.LCFI3:
 204              		.cfi_def_cfa_offset 128
 205              		.loc 1 221 0
 206 0010 8A61     		str	r2, [r1, #24]
 207              		.loc 1 224 0
 208 0012 0146     		mov	r1, r0
 209 0014 FFF7FEFF 		bl	tcpip_init
 210              	.LVL16:
 211              		.loc 1 227 0
 212 0018 002C     		cmp	r4, #0
 213 001a 00F0AF80 		beq	.L15
 214              	.LBB17:
 215              		.loc 1 232 0
 216 001e 2568     		ldr	r5, [r4, #0]
 217 0020 684E     		ldr	r6, .L45+8
 218 0022 2B78     		ldrb	r3, [r5, #0]	@ zero_extendqisi2
 219 0024 86F82330 		strb	r3, [r6, #35]
 220              	.LVL17:
 221 0028 2168     		ldr	r1, [r4, #0]
 222 002a 4A78     		ldrb	r2, [r1, #1]	@ zero_extendqisi2
 223 002c 86F82420 		strb	r2, [r6, #36]
 224              	.LVL18:
 225 0030 2768     		ldr	r7, [r4, #0]
 226 0032 B878     		ldrb	r0, [r7, #2]	@ zero_extendqisi2
ARM GAS  /tmp/ccQSlWks.s 			page 5


 227 0034 86F82500 		strb	r0, [r6, #37]
 228              	.LVL19:
 229 0038 2568     		ldr	r5, [r4, #0]
 230 003a EB78     		ldrb	r3, [r5, #3]	@ zero_extendqisi2
 231 003c 86F82630 		strb	r3, [r6, #38]
 232              	.LVL20:
 233 0040 2168     		ldr	r1, [r4, #0]
 234 0042 0A79     		ldrb	r2, [r1, #4]	@ zero_extendqisi2
 235 0044 86F82720 		strb	r2, [r6, #39]
 236              	.LVL21:
 237 0048 2768     		ldr	r7, [r4, #0]
 238 004a 7879     		ldrb	r0, [r7, #5]	@ zero_extendqisi2
 239 004c 86F82800 		strb	r0, [r6, #40]
 240              	.LVL22:
 241              		.loc 1 233 0
 242 0050 6568     		ldr	r5, [r4, #4]
 243              		.loc 1 234 0
 244 0052 E168     		ldr	r1, [r4, #12]
 245              		.loc 1 235 0
 246 0054 A468     		ldr	r4, [r4, #8]
 247              	.LVL23:
 248              		.loc 1 233 0
 249 0056 0595     		str	r5, [sp, #20]
 250              		.loc 1 234 0
 251 0058 0691     		str	r1, [sp, #24]
 252              		.loc 1 235 0
 253 005a 0794     		str	r4, [sp, #28]
 254              	.LVL24:
 255              	.L16:
 256              	.LBE17:
 257              		.loc 1 248 0
 258 005c 5A48     		ldr	r0, .L45+12
 259 005e 5B49     		ldr	r1, .L45+16
 260 0060 5B4F     		ldr	r7, .L45+20
 261 0062 FFF7FEFF 		bl	macStart
 262              	.LVL25:
 263              		.loc 1 249 0
 264 0066 5B4B     		ldr	r3, .L45+24
 265 0068 5B48     		ldr	r0, .L45+28
 266 006a 0193     		str	r3, [sp, #4]
 267 006c 0024     		movs	r4, #0
 268 006e 06AB     		add	r3, sp, #24
 269 0070 05A9     		add	r1, sp, #20
 270 0072 07AA     		add	r2, sp, #28
 271 0074 0290     		str	r0, [sp, #8]
 272 0076 0094     		str	r4, [sp, #0]
 273 0078 5248     		ldr	r0, .L45+8
 274 007a FFF7FEFF 		bl	netif_add
 275              	.LVL26:
 276              		.loc 1 251 0
 277 007e 5148     		ldr	r0, .L45+8
 278 0080 FFF7FEFF 		bl	netif_set_default
 279              	.LVL27:
 280              		.loc 1 252 0
 281 0084 4F48     		ldr	r0, .L45+8
 282 0086 FFF7FEFF 		bl	netif_set_up
 283              	.LVL28:
ARM GAS  /tmp/ccQSlWks.s 			page 6


 284              		.loc 1 255 0
 285 008a 18AD     		add	r5, sp, #96
 286              		.loc 1 256 0
 287 008c 13A8     		add	r0, sp, #76
 288              		.loc 1 255 0
 289 008e 41F28832 		movw	r2, #5000
 290 0092 1992     		str	r2, [sp, #100]
 291 0094 1895     		str	r5, [sp, #96]
 292 0096 1694     		str	r4, [sp, #88]
 293              		.loc 1 256 0
 294 0098 FFF7FEFF 		bl	evtStart
 295              	.LVL29:
 296              		.loc 1 257 0
 297 009c 2846     		mov	r0, r5
 298 009e 0BA9     		add	r1, sp, #44
 299 00a0 0122     		movs	r2, #1
 300 00a2 FFF7FEFF 		bl	chEvtRegisterMask
 301              	.LVL30:
 302              		.loc 1 258 0
 303 00a6 0FA9     		add	r1, sp, #60
 304 00a8 0222     		movs	r2, #2
 305 00aa 4C48     		ldr	r0, .L45+32
 306 00ac FFF7FEFF 		bl	chEvtRegisterMask
 307              	.LVL31:
 308              		.loc 1 259 0
 309 00b0 0320     		movs	r0, #3
 310 00b2 FFF7FEFF 		bl	chEvtAddEvents
 311              	.LVL32:
 312              		.loc 1 262 0
 313 00b6 0220     		movs	r0, #2
 314 00b8 FFF7FEFF 		bl	chThdSetPriority
 315              	.LVL33:
 316 00bc 01E0     		b	.L43
 317              	.LVL34:
 318              	.L18:
 319              	.LBB18:
 320              		.loc 1 277 0
 321 00be A307     		lsls	r3, r4, #30
 322 00c0 19D4     		bmi	.L44
 323              	.LVL35:
 324              	.L43:
 325              		.loc 1 265 0
 326 00c2 4FF0FF30 		mov	r0, #-1
 327 00c6 FFF7FEFF 		bl	chEvtWaitAny
 328              	.LVL36:
 329              		.loc 1 266 0
 330 00ca C207     		lsls	r2, r0, #31
 331              		.loc 1 265 0
 332 00cc 0446     		mov	r4, r0
 333              	.LVL37:
 334              		.loc 1 266 0
 335 00ce F6D5     		bpl	.L18
 336              	.LBB19:
 337              		.loc 1 267 0
 338 00d0 3D48     		ldr	r0, .L45+12
 339              	.LVL38:
 340 00d2 FFF7FEFF 		bl	macPollLinkStatus
ARM GAS  /tmp/ccQSlWks.s 			page 7


 341              	.LVL39:
 342              		.loc 1 268 0
 343 00d6 96F82910 		ldrb	r1, [r6, #41]	@ zero_extendqisi2
 344 00da C1F30013 		ubfx	r3, r1, #4, #1
 345 00de 9842     		cmp	r0, r3
 346              		.loc 1 267 0
 347 00e0 0246     		mov	r2, r0
 348              	.LVL40:
 349              		.loc 1 268 0
 350 00e2 ECD0     		beq	.L18
 351              		.loc 1 269 0
 352 00e4 0028     		cmp	r0, #0
 353 00e6 33D0     		beq	.L20
 354              		.loc 1 270 0
 355 00e8 0022     		movs	r2, #0
 356 00ea 3649     		ldr	r1, .L45+8
 357 00ec 3C48     		ldr	r0, .L45+36
 358              	.LVL41:
 359 00ee FFF7FEFF 		bl	tcpip_callback_with_block
 360              	.LVL42:
 361              	.LBE19:
 362              		.loc 1 277 0
 363 00f2 A307     		lsls	r3, r4, #30
 364 00f4 E5D5     		bpl	.L43
 365              	.L44:
 366              	.LBB20:
 367              	.LBB21:
 368              		.loc 1 281 0 discriminator 1
 369 00f6 40F60608 		movw	r8, #2054
 370              	.LVL43:
 371              	.L42:
 372              	.LBE21:
 373              	.LBB22:
 374              	.LBB23:
 375              		.loc 1 139 0 discriminator 1
 376 00fa 3348     		ldr	r0, .L45+12
 377 00fc 08A9     		add	r1, sp, #32
 378 00fe 0022     		movs	r2, #0
 379 0100 FFF7FEFF 		bl	macWaitReceiveDescriptor
 380              	.LVL44:
 381 0104 0028     		cmp	r0, #0
 382 0106 DCD1     		bne	.L43
 383              	.LVL45:
 384              		.loc 1 147 0
 385 0108 0320     		movs	r0, #3
 386 010a BDF82410 		ldrh	r1, [sp, #36]
 387 010e 0246     		mov	r2, r0
 388 0110 FFF7FEFF 		bl	pbuf_alloc
 389              	.LVL46:
 390              		.loc 1 149 0
 391 0114 0546     		mov	r5, r0
 392 0116 38B3     		cbz	r0, .L27
 393 0118 0446     		mov	r4, r0
 394              	.LVL47:
 395              	.L28:
 396              		.loc 1 157 0
 397 011a 6168     		ldr	r1, [r4, #4]
ARM GAS  /tmp/ccQSlWks.s 			page 8


 398 011c 6289     		ldrh	r2, [r4, #10]
 399 011e 08A8     		add	r0, sp, #32
 400 0120 FFF7FEFF 		bl	mac_lld_read_receive_descriptor
 401              	.LVL48:
 402              		.loc 1 156 0
 403 0124 2468     		ldr	r4, [r4, #0]
 404              	.LVL49:
 405 0126 002C     		cmp	r4, #0
 406 0128 F7D1     		bne	.L28
 407              		.loc 1 158 0
 408 012a 08A8     		add	r0, sp, #32
 409 012c FFF7FEFF 		bl	macReleaseReceiveDescriptor
 410              	.LVL50:
 411              		.loc 1 164 0
 412 0130 7888     		ldrh	r0, [r7, #2]
 413              	.LBE23:
 414              	.LBE22:
 415              	.LBB26:
 416              		.loc 1 281 0
 417 0132 6B68     		ldr	r3, [r5, #4]
 418              	.LBE26:
 419              	.LBB27:
 420              	.LBB24:
 421              		.loc 1 164 0
 422 0134 421C     		adds	r2, r0, #1
 423 0136 7A80     		strh	r2, [r7, #2]	@ movhi
 424              	.LVL51:
 425              	.LBE24:
 426              	.LBE27:
 427              	.LBB28:
 428              		.loc 1 281 0
 429 0138 9889     		ldrh	r0, [r3, #12]	@ unaligned
 430 013a FFF7FEFF 		bl	lwip_htons
 431              	.LVL52:
 432 013e B0F5006F 		cmp	r0, #2048
 433 0142 0AD0     		beq	.L23
 434 0144 4045     		cmp	r0, r8
 435 0146 08D0     		beq	.L23
 436              	.LVL53:
 437              	.L25:
 438              		.loc 1 295 0
 439 0148 2846     		mov	r0, r5
 440 014a FFF7FEFF 		bl	pbuf_free
 441              	.LVL54:
 442 014e D4E7     		b	.L42
 443              	.LVL55:
 444              	.L20:
 445              	.LBE28:
 446              	.LBE20:
 447              	.LBB31:
 448              		.loc 1 273 0
 449 0150 1C49     		ldr	r1, .L45+8
 450 0152 2448     		ldr	r0, .L45+40
 451              	.LVL56:
 452 0154 FFF7FEFF 		bl	tcpip_callback_with_block
 453              	.LVL57:
 454 0158 B1E7     		b	.L18
ARM GAS  /tmp/ccQSlWks.s 			page 9


 455              	.LVL58:
 456              	.L23:
 457              	.LBE31:
 458              	.LBB32:
 459              	.LBB29:
 460              		.loc 1 291 0
 461 015a 3469     		ldr	r4, [r6, #16]
 462              	.LVL59:
 463 015c 1949     		ldr	r1, .L45+8
 464 015e 2846     		mov	r0, r5
 465 0160 A047     		blx	r4
 466              	.LVL60:
 467 0162 0028     		cmp	r0, #0
 468 0164 C9D0     		beq	.L42
 469 0166 EFE7     		b	.L25
 470              	.LVL61:
 471              	.L27:
 472              	.LBE29:
 473              	.LBB30:
 474              	.LBB25:
 475              		.loc 1 167 0
 476 0168 08A8     		add	r0, sp, #32
 477              	.LVL62:
 478 016a FFF7FEFF 		bl	macReleaseReceiveDescriptor
 479              	.LVL63:
 480              		.loc 1 168 0
 481 016e B889     		ldrh	r0, [r7, #12]
 482              		.loc 1 169 0
 483 0170 FC88     		ldrh	r4, [r7, #6]
 484              		.loc 1 168 0
 485 0172 421C     		adds	r2, r0, #1
 486              		.loc 1 169 0
 487 0174 611C     		adds	r1, r4, #1
 488              		.loc 1 168 0
 489 0176 BA81     		strh	r2, [r7, #12]	@ movhi
 490              		.loc 1 169 0
 491 0178 F980     		strh	r1, [r7, #6]	@ movhi
 492 017a A2E7     		b	.L43
 493              	.LVL64:
 494              	.L15:
 495              	.LBE25:
 496              	.LBE30:
 497              	.LBE32:
 498              	.LBE18:
 499              		.loc 1 238 0
 500 017c 114E     		ldr	r6, .L45+8
 501              		.loc 1 244 0
 502 017e 4AF6C000 		movw	r0, #43200
 503              		.loc 1 245 0
 504 0182 0546     		mov	r5, r0
 505              		.loc 1 238 0
 506 0184 C227     		movs	r7, #194
 507              		.loc 1 244 0
 508 0186 C1F20140 		movt	r0, 5121
 509              		.loc 1 245 0
 510 018a C0F20115 		movt	r5, 257
 511              		.loc 1 238 0
ARM GAS  /tmp/ccQSlWks.s 			page 10


 512 018e 86F82370 		strb	r7, [r6, #35]
 513              		.loc 1 239 0
 514 0192 AF23     		movs	r3, #175
 515              		.loc 1 240 0
 516 0194 5121     		movs	r1, #81
 517              		.loc 1 241 0
 518 0196 0324     		movs	r4, #3
 519              	.LVL65:
 520              		.loc 1 242 0
 521 0198 CF22     		movs	r2, #207
 522              		.loc 1 243 0
 523 019a 4627     		movs	r7, #70
 524              		.loc 1 244 0
 525 019c 0590     		str	r0, [sp, #20]
 526              		.loc 1 246 0
 527 019e 6FF07F40 		mvn	r0, #-16777216
 528              		.loc 1 239 0
 529 01a2 86F82430 		strb	r3, [r6, #36]
 530              		.loc 1 240 0
 531 01a6 86F82510 		strb	r1, [r6, #37]
 532              		.loc 1 241 0
 533 01aa 86F82640 		strb	r4, [r6, #38]
 534              		.loc 1 242 0
 535 01ae 86F82720 		strb	r2, [r6, #39]
 536              		.loc 1 243 0
 537 01b2 86F82870 		strb	r7, [r6, #40]
 538              		.loc 1 245 0
 539 01b6 0695     		str	r5, [sp, #24]
 540              		.loc 1 246 0
 541 01b8 0790     		str	r0, [sp, #28]
 542 01ba 4FE7     		b	.L16
 543              	.L46:
 544              		.align	2
 545              	.L45:
 546 01bc 00000000 		.word	rlist
 547 01c0 00000000 		.word	.LC0
 548 01c4 00000000 		.word	.LANCHOR0
 549 01c8 00000000 		.word	ETHD1
 550 01cc 00000000 		.word	.LANCHOR1
 551 01d0 00000000 		.word	lwip_stats
 552 01d4 00000000 		.word	ethernetif_init
 553 01d8 00000000 		.word	tcpip_input
 554 01dc 20000000 		.word	ETHD1+32
 555 01e0 00000000 		.word	netif_set_link_up
 556 01e4 00000000 		.word	netif_set_link_down
 557              		.cfi_endproc
 558              	.LFE122:
 559              		.size	lwip_thread, .-lwip_thread
 560              		.global	wa_lwip_thread
 561 01e8 AFF30080 		.section	.bss.wa_lwip_thread,"aw",%nobits
 561      AFF30080 
 562              		.align	3
 563              		.type	wa_lwip_thread, %object
 564              		.size	wa_lwip_thread, 688
 565              	wa_lwip_thread:
 566 0000 00000000 		.space	688
 566      00000000 
ARM GAS  /tmp/ccQSlWks.s 			page 11


 566      00000000 
 566      00000000 
 566      00000000 
 567              		.section	.rodata.mac_config.7296,"a",%progbits
 568              		.align	2
 569              		.set	.LANCHOR1,. + 0
 570              		.type	mac_config.7296, %object
 571              		.size	mac_config.7296, 4
 572              	mac_config.7296:
 573 0000 23000000 		.word	thisif.7295+35
 574              		.section	.rodata.str1.4,"aMS",%progbits,1
 575              		.align	2
 576              	.LC0:
 577 0000 6C776970 		.ascii	"lwipthread\000"
 577      74687265 
 577      616400
 578 000b 00       		.section	.bss.thisif.7295,"aw",%nobits
 579              		.align	2
 580              		.set	.LANCHOR0,. + 0
 581              		.type	thisif.7295, %object
 582              		.size	thisif.7295, 48
 583              	thisif.7295:
 584 0000 00000000 		.space	48
 584      00000000 
 584      00000000 
 584      00000000 
 584      00000000 
 585              		.text
 586              	.Letext0:
 587              		.file 2 "/usr/bin/../lib/gcc/arm-none-eabi/4.7.4/include/stddef.h"
 588              		.file 3 "/usr/bin/../lib/gcc/arm-none-eabi/4.7.4/../../../../arm-none-eabi/include/stdint.h"
 589              		.file 4 "../../os/ports/GCC/ARMCMx/chtypes.h"
 590              		.file 5 "../../os/kernel/include/chlists.h"
 591              		.file 6 "../../os/kernel/include/chthreads.h"
 592              		.file 7 "../../os/ports/GCC/ARMCMx/chcore_v7m.h"
 593              		.file 8 "../../os/kernel/include/chvt.h"
 594              		.file 9 "../../os/kernel/include/chschd.h"
 595              		.file 10 "../../os/kernel/include/chsem.h"
 596              		.file 11 "../../os/kernel/include/chmtx.h"
 597              		.file 12 "../../os/kernel/include/chevents.h"
 598              		.file 13 "../../os/hal/include/mac.h"
 599              		.file 14 "../../os/hal/platforms/STM32/mac_lld.h"
 600              		.file 15 "../../os/various/evtimer.h"
 601              		.file 16 "../../os/various/lwip_bindings/arch/cc.h"
 602              		.file 17 "../../os/various/lwip_bindings/lwipthread.h"
 603              		.file 18 "../../ext/lwip/src/include/lwip/mem.h"
 604              		.file 19 "../../ext/lwip/src/include/lwip/err.h"
 605              		.file 20 "../../ext/lwip/src/include/lwip/pbuf.h"
 606              		.file 21 "../../ext/lwip/src/include/lwip/memp.h"
 607              		.file 22 "../../ext/lwip/src/include/lwip/stats.h"
 608              		.file 23 "../../ext/lwip/src/include/ipv4/lwip/ip_addr.h"
 609              		.file 24 "../../ext/lwip/src/include/lwip/netif.h"
 610              		.file 25 "../../ext/lwip/src/include/lwip/tcpip.h"
 611              		.file 26 "../../ext/lwip/src/include/netif/etharp.h"
 612              		.file 27 "../../os/ports/common/ARMCMx/CMSIS/include/core_cm4.h"
 613              		.file 28 "../../ext/lwip/src/include/lwip/def.h"
 614              		.section	.debug_info,"",%progbits
ARM GAS  /tmp/ccQSlWks.s 			page 12


 615              	.Ldebug_info0:
 616 0000 75150000 		.4byte	0x1575
 617 0004 0200     		.2byte	0x2
 618 0006 00000000 		.4byte	.Ldebug_abbrev0
 619 000a 04       		.byte	0x4
 620 000b 01       		.uleb128 0x1
 621 000c 9C000000 		.4byte	.LASF243
 622 0010 01       		.byte	0x1
 623 0011 5C020000 		.4byte	.LASF244
 624 0015 71030000 		.4byte	.LASF245
 625 0019 B8000000 		.4byte	.Ldebug_ranges0+0xb8
 626 001d 00000000 		.4byte	0
 627 0021 00000000 		.4byte	0
 628 0025 00000000 		.4byte	.Ldebug_line0
 629 0029 02       		.uleb128 0x2
 630 002a 04       		.byte	0x4
 631 002b 05       		.byte	0x5
 632 002c 696E7400 		.ascii	"int\000"
 633 0030 03       		.uleb128 0x3
 634 0031 0F000000 		.4byte	.LASF1
 635 0035 02       		.byte	0x2
 636 0036 D5       		.byte	0xd5
 637 0037 3B000000 		.4byte	0x3b
 638 003b 04       		.uleb128 0x4
 639 003c 04       		.byte	0x4
 640 003d 07       		.byte	0x7
 641 003e FF050000 		.4byte	.LASF0
 642 0042 03       		.uleb128 0x3
 643 0043 00000000 		.4byte	.LASF2
 644 0047 03       		.byte	0x3
 645 0048 29       		.byte	0x29
 646 0049 4D000000 		.4byte	0x4d
 647 004d 04       		.uleb128 0x4
 648 004e 01       		.byte	0x1
 649 004f 06       		.byte	0x6
 650 0050 E8010000 		.4byte	.LASF3
 651 0054 03       		.uleb128 0x3
 652 0055 FE010000 		.4byte	.LASF4
 653 0059 03       		.byte	0x3
 654 005a 2A       		.byte	0x2a
 655 005b 5F000000 		.4byte	0x5f
 656 005f 04       		.uleb128 0x4
 657 0060 01       		.byte	0x1
 658 0061 08       		.byte	0x8
 659 0062 88020000 		.4byte	.LASF5
 660 0066 04       		.uleb128 0x4
 661 0067 02       		.byte	0x2
 662 0068 05       		.byte	0x5
 663 0069 87080000 		.4byte	.LASF6
 664 006d 03       		.uleb128 0x3
 665 006e 91070000 		.4byte	.LASF7
 666 0072 03       		.byte	0x3
 667 0073 36       		.byte	0x36
 668 0074 78000000 		.4byte	0x78
 669 0078 04       		.uleb128 0x4
 670 0079 02       		.byte	0x2
 671 007a 07       		.byte	0x7
ARM GAS  /tmp/ccQSlWks.s 			page 13


 672 007b A9090000 		.4byte	.LASF8
 673 007f 03       		.uleb128 0x3
 674 0080 74000000 		.4byte	.LASF9
 675 0084 03       		.byte	0x3
 676 0085 4F       		.byte	0x4f
 677 0086 8A000000 		.4byte	0x8a
 678 008a 04       		.uleb128 0x4
 679 008b 04       		.byte	0x4
 680 008c 05       		.byte	0x5
 681 008d 5C010000 		.4byte	.LASF10
 682 0091 03       		.uleb128 0x3
 683 0092 22090000 		.4byte	.LASF11
 684 0096 03       		.byte	0x3
 685 0097 50       		.byte	0x50
 686 0098 9C000000 		.4byte	0x9c
 687 009c 04       		.uleb128 0x4
 688 009d 04       		.byte	0x4
 689 009e 07       		.byte	0x7
 690 009f C6040000 		.4byte	.LASF12
 691 00a3 04       		.uleb128 0x4
 692 00a4 08       		.byte	0x8
 693 00a5 05       		.byte	0x5
 694 00a6 3B050000 		.4byte	.LASF13
 695 00aa 03       		.uleb128 0x3
 696 00ab 91080000 		.4byte	.LASF14
 697 00af 03       		.byte	0x3
 698 00b0 78       		.byte	0x78
 699 00b1 B5000000 		.4byte	0xb5
 700 00b5 04       		.uleb128 0x4
 701 00b6 08       		.byte	0x8
 702 00b7 07       		.byte	0x7
 703 00b8 42070000 		.4byte	.LASF15
 704 00bc 03       		.uleb128 0x3
 705 00bd AC080000 		.4byte	.LASF16
 706 00c1 04       		.byte	0x4
 707 00c2 24       		.byte	0x24
 708 00c3 C7000000 		.4byte	0xc7
 709 00c7 04       		.uleb128 0x4
 710 00c8 01       		.byte	0x1
 711 00c9 02       		.byte	0x2
 712 00ca E6020000 		.4byte	.LASF17
 713 00ce 03       		.uleb128 0x3
 714 00cf 4D080000 		.4byte	.LASF18
 715 00d3 04       		.byte	0x4
 716 00d4 25       		.byte	0x25
 717 00d5 54000000 		.4byte	0x54
 718 00d9 03       		.uleb128 0x3
 719 00da 8F010000 		.4byte	.LASF19
 720 00de 04       		.byte	0x4
 721 00df 26       		.byte	0x26
 722 00e0 54000000 		.4byte	0x54
 723 00e4 03       		.uleb128 0x3
 724 00e5 E9080000 		.4byte	.LASF20
 725 00e9 04       		.byte	0x4
 726 00ea 27       		.byte	0x27
 727 00eb 54000000 		.4byte	0x54
 728 00ef 03       		.uleb128 0x3
ARM GAS  /tmp/ccQSlWks.s 			page 14


 729 00f0 C0070000 		.4byte	.LASF21
 730 00f4 04       		.byte	0x4
 731 00f5 28       		.byte	0x28
 732 00f6 54000000 		.4byte	0x54
 733 00fa 03       		.uleb128 0x3
 734 00fb 38000000 		.4byte	.LASF22
 735 00ff 04       		.byte	0x4
 736 0100 29       		.byte	0x29
 737 0101 91000000 		.4byte	0x91
 738 0105 03       		.uleb128 0x3
 739 0106 9A070000 		.4byte	.LASF23
 740 010a 04       		.byte	0x4
 741 010b 2A       		.byte	0x2a
 742 010c 7F000000 		.4byte	0x7f
 743 0110 03       		.uleb128 0x3
 744 0111 48020000 		.4byte	.LASF24
 745 0115 04       		.byte	0x4
 746 0116 2C       		.byte	0x2c
 747 0117 91000000 		.4byte	0x91
 748 011b 03       		.uleb128 0x3
 749 011c 99060000 		.4byte	.LASF25
 750 0120 04       		.byte	0x4
 751 0121 2D       		.byte	0x2d
 752 0122 91000000 		.4byte	0x91
 753 0126 03       		.uleb128 0x3
 754 0127 1F000000 		.4byte	.LASF26
 755 012b 04       		.byte	0x4
 756 012c 2E       		.byte	0x2e
 757 012d 91000000 		.4byte	0x91
 758 0131 03       		.uleb128 0x3
 759 0132 01040000 		.4byte	.LASF27
 760 0136 04       		.byte	0x4
 761 0137 2F       		.byte	0x2f
 762 0138 7F000000 		.4byte	0x7f
 763 013c 03       		.uleb128 0x3
 764 013d B3080000 		.4byte	.LASF28
 765 0141 05       		.byte	0x5
 766 0142 23       		.byte	0x23
 767 0143 47010000 		.4byte	0x147
 768 0147 05       		.uleb128 0x5
 769 0148 B3080000 		.4byte	.LASF28
 770 014c 48       		.byte	0x48
 771 014d 06       		.byte	0x6
 772 014e 57       		.byte	0x57
 773 014f 6C020000 		.4byte	0x26c
 774 0153 06       		.uleb128 0x6
 775 0154 65010000 		.4byte	.LASF29
 776 0158 06       		.byte	0x6
 777 0159 58       		.byte	0x58
 778 015a 91020000 		.4byte	0x291
 779 015e 02       		.byte	0x2
 780 015f 23       		.byte	0x23
 781 0160 00       		.uleb128 0
 782 0161 06       		.uleb128 0x6
 783 0162 77010000 		.4byte	.LASF30
 784 0166 06       		.byte	0x6
 785 0167 5A       		.byte	0x5a
ARM GAS  /tmp/ccQSlWks.s 			page 15


 786 0168 91020000 		.4byte	0x291
 787 016c 02       		.byte	0x2
 788 016d 23       		.byte	0x23
 789 016e 04       		.uleb128 0x4
 790 016f 06       		.uleb128 0x6
 791 0170 29030000 		.4byte	.LASF31
 792 0174 06       		.byte	0x6
 793 0175 5C       		.byte	0x5c
 794 0176 FA000000 		.4byte	0xfa
 795 017a 02       		.byte	0x2
 796 017b 23       		.byte	0x23
 797 017c 08       		.uleb128 0x8
 798 017d 06       		.uleb128 0x6
 799 017e 32000000 		.4byte	.LASF32
 800 0182 06       		.byte	0x6
 801 0183 5D       		.byte	0x5d
 802 0184 6A030000 		.4byte	0x36a
 803 0188 02       		.byte	0x2
 804 0189 23       		.byte	0x23
 805 018a 0C       		.uleb128 0xc
 806 018b 06       		.uleb128 0x6
 807 018c 54010000 		.4byte	.LASF33
 808 0190 06       		.byte	0x6
 809 0191 5F       		.byte	0x5f
 810 0192 91020000 		.4byte	0x291
 811 0196 02       		.byte	0x2
 812 0197 23       		.byte	0x23
 813 0198 10       		.uleb128 0x10
 814 0199 06       		.uleb128 0x6
 815 019a 7C070000 		.4byte	.LASF34
 816 019e 06       		.byte	0x6
 817 019f 60       		.byte	0x60
 818 01a0 91020000 		.4byte	0x291
 819 01a4 02       		.byte	0x2
 820 01a5 23       		.byte	0x23
 821 01a6 14       		.uleb128 0x14
 822 01a7 06       		.uleb128 0x6
 823 01a8 370A0000 		.4byte	.LASF35
 824 01ac 06       		.byte	0x6
 825 01ad 67       		.byte	0x67
 826 01ae B4050000 		.4byte	0x5b4
 827 01b2 02       		.byte	0x2
 828 01b3 23       		.byte	0x23
 829 01b4 18       		.uleb128 0x18
 830 01b5 06       		.uleb128 0x6
 831 01b6 8C0A0000 		.4byte	.LASF36
 832 01ba 06       		.byte	0x6
 833 01bb 72       		.byte	0x72
 834 01bc D9000000 		.4byte	0xd9
 835 01c0 02       		.byte	0x2
 836 01c1 23       		.byte	0x23
 837 01c2 1C       		.uleb128 0x1c
 838 01c3 06       		.uleb128 0x6
 839 01c4 EB050000 		.4byte	.LASF37
 840 01c8 06       		.byte	0x6
 841 01c9 76       		.byte	0x76
 842 01ca CE000000 		.4byte	0xce
ARM GAS  /tmp/ccQSlWks.s 			page 16


 843 01ce 02       		.byte	0x2
 844 01cf 23       		.byte	0x23
 845 01d0 1D       		.uleb128 0x1d
 846 01d1 06       		.uleb128 0x6
 847 01d2 34060000 		.4byte	.LASF38
 848 01d6 06       		.byte	0x6
 849 01d7 7B       		.byte	0x7b
 850 01d8 E4000000 		.4byte	0xe4
 851 01dc 02       		.byte	0x2
 852 01dd 23       		.byte	0x23
 853 01de 1E       		.uleb128 0x1e
 854 01df 06       		.uleb128 0x6
 855 01e0 F4010000 		.4byte	.LASF39
 856 01e4 06       		.byte	0x6
 857 01e5 81       		.byte	0x81
 858 01e6 EF000000 		.4byte	0xef
 859 01ea 02       		.byte	0x2
 860 01eb 23       		.byte	0x23
 861 01ec 1F       		.uleb128 0x1f
 862 01ed 06       		.uleb128 0x6
 863 01ee B7060000 		.4byte	.LASF40
 864 01f2 06       		.byte	0x6
 865 01f3 88       		.byte	0x88
 866 01f4 1A040000 		.4byte	0x41a
 867 01f8 02       		.byte	0x2
 868 01f9 23       		.byte	0x23
 869 01fa 20       		.uleb128 0x20
 870 01fb 07       		.uleb128 0x7
 871 01fc 705F7500 		.ascii	"p_u\000"
 872 0200 06       		.byte	0x6
 873 0201 AD       		.byte	0xad
 874 0202 7F050000 		.4byte	0x57f
 875 0206 02       		.byte	0x2
 876 0207 23       		.byte	0x23
 877 0208 24       		.uleb128 0x24
 878 0209 06       		.uleb128 0x6
 879 020a DC050000 		.4byte	.LASF41
 880 020e 06       		.byte	0x6
 881 020f B2       		.byte	0xb2
 882 0210 B9020000 		.4byte	0x2b9
 883 0214 02       		.byte	0x2
 884 0215 23       		.byte	0x23
 885 0216 28       		.uleb128 0x28
 886 0217 06       		.uleb128 0x6
 887 0218 63000000 		.4byte	.LASF42
 888 021c 06       		.byte	0x6
 889 021d B8       		.byte	0xb8
 890 021e 97020000 		.4byte	0x297
 891 0222 02       		.byte	0x2
 892 0223 23       		.byte	0x23
 893 0224 2C       		.uleb128 0x2c
 894 0225 06       		.uleb128 0x6
 895 0226 7A0A0000 		.4byte	.LASF43
 896 022a 06       		.byte	0x6
 897 022b BC       		.byte	0xbc
 898 022c 05010000 		.4byte	0x105
 899 0230 02       		.byte	0x2
ARM GAS  /tmp/ccQSlWks.s 			page 17


 900 0231 23       		.byte	0x23
 901 0232 34       		.uleb128 0x34
 902 0233 06       		.uleb128 0x6
 903 0234 60040000 		.4byte	.LASF44
 904 0238 06       		.byte	0x6
 905 0239 C2       		.byte	0xc2
 906 023a 10010000 		.4byte	0x110
 907 023e 02       		.byte	0x2
 908 023f 23       		.byte	0x23
 909 0240 38       		.uleb128 0x38
 910 0241 06       		.uleb128 0x6
 911 0242 9E010000 		.4byte	.LASF45
 912 0246 06       		.byte	0x6
 913 0247 C9       		.byte	0xc9
 914 0248 C6050000 		.4byte	0x5c6
 915 024c 02       		.byte	0x2
 916 024d 23       		.byte	0x23
 917 024e 3C       		.uleb128 0x3c
 918 024f 06       		.uleb128 0x6
 919 0250 F9060000 		.4byte	.LASF46
 920 0254 06       		.byte	0x6
 921 0255 CD       		.byte	0xcd
 922 0256 FA000000 		.4byte	0xfa
 923 025a 02       		.byte	0x2
 924 025b 23       		.byte	0x23
 925 025c 40       		.uleb128 0x40
 926 025d 06       		.uleb128 0x6
 927 025e 1F060000 		.4byte	.LASF47
 928 0262 06       		.byte	0x6
 929 0263 D3       		.byte	0xd3
 930 0264 CF020000 		.4byte	0x2cf
 931 0268 02       		.byte	0x2
 932 0269 23       		.byte	0x23
 933 026a 44       		.uleb128 0x44
 934 026b 00       		.byte	0
 935 026c 08       		.uleb128 0x8
 936 026d 08       		.byte	0x8
 937 026e 05       		.byte	0x5
 938 026f 5A       		.byte	0x5a
 939 0270 91020000 		.4byte	0x291
 940 0274 06       		.uleb128 0x6
 941 0275 65010000 		.4byte	.LASF29
 942 0279 05       		.byte	0x5
 943 027a 5B       		.byte	0x5b
 944 027b 91020000 		.4byte	0x291
 945 027f 02       		.byte	0x2
 946 0280 23       		.byte	0x23
 947 0281 00       		.uleb128 0
 948 0282 06       		.uleb128 0x6
 949 0283 77010000 		.4byte	.LASF30
 950 0287 05       		.byte	0x5
 951 0288 5D       		.byte	0x5d
 952 0289 91020000 		.4byte	0x291
 953 028d 02       		.byte	0x2
 954 028e 23       		.byte	0x23
 955 028f 04       		.uleb128 0x4
 956 0290 00       		.byte	0
ARM GAS  /tmp/ccQSlWks.s 			page 18


 957 0291 09       		.uleb128 0x9
 958 0292 04       		.byte	0x4
 959 0293 3C010000 		.4byte	0x13c
 960 0297 03       		.uleb128 0x3
 961 0298 52090000 		.4byte	.LASF48
 962 029c 05       		.byte	0x5
 963 029d 5F       		.byte	0x5f
 964 029e 6C020000 		.4byte	0x26c
 965 02a2 08       		.uleb128 0x8
 966 02a3 04       		.byte	0x4
 967 02a4 05       		.byte	0x5
 968 02a5 64       		.byte	0x64
 969 02a6 B9020000 		.4byte	0x2b9
 970 02aa 06       		.uleb128 0x6
 971 02ab 65010000 		.4byte	.LASF29
 972 02af 05       		.byte	0x5
 973 02b0 66       		.byte	0x66
 974 02b1 91020000 		.4byte	0x291
 975 02b5 02       		.byte	0x2
 976 02b6 23       		.byte	0x23
 977 02b7 00       		.uleb128 0
 978 02b8 00       		.byte	0
 979 02b9 03       		.uleb128 0x3
 980 02ba 68060000 		.4byte	.LASF49
 981 02be 05       		.byte	0x5
 982 02bf 69       		.byte	0x69
 983 02c0 A2020000 		.4byte	0x2a2
 984 02c4 03       		.uleb128 0x3
 985 02c5 A8010000 		.4byte	.LASF50
 986 02c9 07       		.byte	0x7
 987 02ca DE       		.byte	0xde
 988 02cb CF020000 		.4byte	0x2cf
 989 02cf 0A       		.uleb128 0xa
 990 02d0 04       		.byte	0x4
 991 02d1 03       		.uleb128 0x3
 992 02d2 B7030000 		.4byte	.LASF51
 993 02d6 07       		.byte	0x7
 994 02d7 E4       		.byte	0xe4
 995 02d8 AA000000 		.4byte	0xaa
 996 02dc 0B       		.uleb128 0xb
 997 02dd 59040000 		.4byte	.LASF52
 998 02e1 24       		.byte	0x24
 999 02e2 07       		.byte	0x7
 1000 02e3 0501     		.2byte	0x105
 1001 02e5 6A030000 		.4byte	0x36a
 1002 02e9 0C       		.uleb128 0xc
 1003 02ea 723400   		.ascii	"r4\000"
 1004 02ed 07       		.byte	0x7
 1005 02ee 1801     		.2byte	0x118
 1006 02f0 C4020000 		.4byte	0x2c4
 1007 02f4 02       		.byte	0x2
 1008 02f5 23       		.byte	0x23
 1009 02f6 00       		.uleb128 0
 1010 02f7 0C       		.uleb128 0xc
 1011 02f8 723500   		.ascii	"r5\000"
 1012 02fb 07       		.byte	0x7
 1013 02fc 1901     		.2byte	0x119
ARM GAS  /tmp/ccQSlWks.s 			page 19


 1014 02fe C4020000 		.4byte	0x2c4
 1015 0302 02       		.byte	0x2
 1016 0303 23       		.byte	0x23
 1017 0304 04       		.uleb128 0x4
 1018 0305 0C       		.uleb128 0xc
 1019 0306 723600   		.ascii	"r6\000"
 1020 0309 07       		.byte	0x7
 1021 030a 1A01     		.2byte	0x11a
 1022 030c C4020000 		.4byte	0x2c4
 1023 0310 02       		.byte	0x2
 1024 0311 23       		.byte	0x23
 1025 0312 08       		.uleb128 0x8
 1026 0313 0C       		.uleb128 0xc
 1027 0314 723700   		.ascii	"r7\000"
 1028 0317 07       		.byte	0x7
 1029 0318 1B01     		.2byte	0x11b
 1030 031a C4020000 		.4byte	0x2c4
 1031 031e 02       		.byte	0x2
 1032 031f 23       		.byte	0x23
 1033 0320 0C       		.uleb128 0xc
 1034 0321 0C       		.uleb128 0xc
 1035 0322 723800   		.ascii	"r8\000"
 1036 0325 07       		.byte	0x7
 1037 0326 1C01     		.2byte	0x11c
 1038 0328 C4020000 		.4byte	0x2c4
 1039 032c 02       		.byte	0x2
 1040 032d 23       		.byte	0x23
 1041 032e 10       		.uleb128 0x10
 1042 032f 0C       		.uleb128 0xc
 1043 0330 723900   		.ascii	"r9\000"
 1044 0333 07       		.byte	0x7
 1045 0334 1D01     		.2byte	0x11d
 1046 0336 C4020000 		.4byte	0x2c4
 1047 033a 02       		.byte	0x2
 1048 033b 23       		.byte	0x23
 1049 033c 14       		.uleb128 0x14
 1050 033d 0C       		.uleb128 0xc
 1051 033e 72313000 		.ascii	"r10\000"
 1052 0342 07       		.byte	0x7
 1053 0343 1E01     		.2byte	0x11e
 1054 0345 C4020000 		.4byte	0x2c4
 1055 0349 02       		.byte	0x2
 1056 034a 23       		.byte	0x23
 1057 034b 18       		.uleb128 0x18
 1058 034c 0C       		.uleb128 0xc
 1059 034d 72313100 		.ascii	"r11\000"
 1060 0351 07       		.byte	0x7
 1061 0352 1F01     		.2byte	0x11f
 1062 0354 C4020000 		.4byte	0x2c4
 1063 0358 02       		.byte	0x2
 1064 0359 23       		.byte	0x23
 1065 035a 1C       		.uleb128 0x1c
 1066 035b 0C       		.uleb128 0xc
 1067 035c 6C7200   		.ascii	"lr\000"
 1068 035f 07       		.byte	0x7
 1069 0360 2001     		.2byte	0x120
 1070 0362 C4020000 		.4byte	0x2c4
ARM GAS  /tmp/ccQSlWks.s 			page 20


 1071 0366 02       		.byte	0x2
 1072 0367 23       		.byte	0x23
 1073 0368 20       		.uleb128 0x20
 1074 0369 00       		.byte	0
 1075 036a 0B       		.uleb128 0xb
 1076 036b 54020000 		.4byte	.LASF53
 1077 036f 04       		.byte	0x4
 1078 0370 07       		.byte	0x7
 1079 0371 2A01     		.2byte	0x12a
 1080 0373 87030000 		.4byte	0x387
 1081 0377 0C       		.uleb128 0xc
 1082 0378 72313300 		.ascii	"r13\000"
 1083 037c 07       		.byte	0x7
 1084 037d 2B01     		.2byte	0x12b
 1085 037f 87030000 		.4byte	0x387
 1086 0383 02       		.byte	0x2
 1087 0384 23       		.byte	0x23
 1088 0385 00       		.uleb128 0
 1089 0386 00       		.byte	0
 1090 0387 09       		.uleb128 0x9
 1091 0388 04       		.byte	0x4
 1092 0389 DC020000 		.4byte	0x2dc
 1093 038d 0D       		.uleb128 0xd
 1094 038e 91000000 		.4byte	0x91
 1095 0392 04       		.uleb128 0x4
 1096 0393 04       		.byte	0x4
 1097 0394 07       		.byte	0x7
 1098 0395 16000000 		.4byte	.LASF54
 1099 0399 03       		.uleb128 0x3
 1100 039a 7C000000 		.4byte	.LASF55
 1101 039e 08       		.byte	0x8
 1102 039f 51       		.byte	0x51
 1103 03a0 A4030000 		.4byte	0x3a4
 1104 03a4 09       		.uleb128 0x9
 1105 03a5 04       		.byte	0x4
 1106 03a6 AA030000 		.4byte	0x3aa
 1107 03aa 0E       		.uleb128 0xe
 1108 03ab 01       		.byte	0x1
 1109 03ac B6030000 		.4byte	0x3b6
 1110 03b0 0F       		.uleb128 0xf
 1111 03b1 CF020000 		.4byte	0x2cf
 1112 03b5 00       		.byte	0
 1113 03b6 03       		.uleb128 0x3
 1114 03b7 2B090000 		.4byte	.LASF56
 1115 03bb 08       		.byte	0x8
 1116 03bc 56       		.byte	0x56
 1117 03bd C1030000 		.4byte	0x3c1
 1118 03c1 05       		.uleb128 0x5
 1119 03c2 2B090000 		.4byte	.LASF56
 1120 03c6 14       		.byte	0x14
 1121 03c7 08       		.byte	0x8
 1122 03c8 5D       		.byte	0x5d
 1123 03c9 14040000 		.4byte	0x414
 1124 03cd 06       		.uleb128 0x6
 1125 03ce 51050000 		.4byte	.LASF57
 1126 03d2 08       		.byte	0x8
 1127 03d3 5E       		.byte	0x5e
ARM GAS  /tmp/ccQSlWks.s 			page 21


 1128 03d4 14040000 		.4byte	0x414
 1129 03d8 02       		.byte	0x2
 1130 03d9 23       		.byte	0x23
 1131 03da 00       		.uleb128 0
 1132 03db 06       		.uleb128 0x6
 1133 03dc B0020000 		.4byte	.LASF58
 1134 03e0 08       		.byte	0x8
 1135 03e1 60       		.byte	0x60
 1136 03e2 14040000 		.4byte	0x414
 1137 03e6 02       		.byte	0x2
 1138 03e7 23       		.byte	0x23
 1139 03e8 04       		.uleb128 0x4
 1140 03e9 06       		.uleb128 0x6
 1141 03ea 440A0000 		.4byte	.LASF59
 1142 03ee 08       		.byte	0x8
 1143 03ef 62       		.byte	0x62
 1144 03f0 26010000 		.4byte	0x126
 1145 03f4 02       		.byte	0x2
 1146 03f5 23       		.byte	0x23
 1147 03f6 08       		.uleb128 0x8
 1148 03f7 06       		.uleb128 0x6
 1149 03f8 31040000 		.4byte	.LASF60
 1150 03fc 08       		.byte	0x8
 1151 03fd 63       		.byte	0x63
 1152 03fe 99030000 		.4byte	0x399
 1153 0402 02       		.byte	0x2
 1154 0403 23       		.byte	0x23
 1155 0404 0C       		.uleb128 0xc
 1156 0405 06       		.uleb128 0x6
 1157 0406 3D010000 		.4byte	.LASF61
 1158 040a 08       		.byte	0x8
 1159 040b 65       		.byte	0x65
 1160 040c CF020000 		.4byte	0x2cf
 1161 0410 02       		.byte	0x2
 1162 0411 23       		.byte	0x23
 1163 0412 10       		.uleb128 0x10
 1164 0413 00       		.byte	0
 1165 0414 09       		.uleb128 0x9
 1166 0415 04       		.byte	0x4
 1167 0416 B6030000 		.4byte	0x3b6
 1168 041a 0D       		.uleb128 0xd
 1169 041b 26010000 		.4byte	0x126
 1170 041f 08       		.uleb128 0x8
 1171 0420 1C       		.byte	0x1c
 1172 0421 09       		.byte	0x9
 1173 0422 57       		.byte	0x57
 1174 0423 7C040000 		.4byte	0x47c
 1175 0427 06       		.uleb128 0x6
 1176 0428 21080000 		.4byte	.LASF62
 1177 042c 09       		.byte	0x9
 1178 042d 58       		.byte	0x58
 1179 042e 97020000 		.4byte	0x297
 1180 0432 02       		.byte	0x2
 1181 0433 23       		.byte	0x23
 1182 0434 00       		.uleb128 0
 1183 0435 06       		.uleb128 0x6
 1184 0436 A5080000 		.4byte	.LASF63
ARM GAS  /tmp/ccQSlWks.s 			page 22


 1185 043a 09       		.byte	0x9
 1186 043b 59       		.byte	0x59
 1187 043c FA000000 		.4byte	0xfa
 1188 0440 02       		.byte	0x2
 1189 0441 23       		.byte	0x23
 1190 0442 08       		.uleb128 0x8
 1191 0443 06       		.uleb128 0x6
 1192 0444 6E000000 		.4byte	.LASF64
 1193 0448 09       		.byte	0x9
 1194 0449 5B       		.byte	0x5b
 1195 044a 6A030000 		.4byte	0x36a
 1196 044e 02       		.byte	0x2
 1197 044f 23       		.byte	0x23
 1198 0450 0C       		.uleb128 0xc
 1199 0451 06       		.uleb128 0x6
 1200 0452 BF020000 		.4byte	.LASF65
 1201 0456 09       		.byte	0x9
 1202 0457 5E       		.byte	0x5e
 1203 0458 91020000 		.4byte	0x291
 1204 045c 02       		.byte	0x2
 1205 045d 23       		.byte	0x23
 1206 045e 10       		.uleb128 0x10
 1207 045f 06       		.uleb128 0x6
 1208 0460 5D080000 		.4byte	.LASF66
 1209 0464 09       		.byte	0x9
 1210 0465 5F       		.byte	0x5f
 1211 0466 91020000 		.4byte	0x291
 1212 046a 02       		.byte	0x2
 1213 046b 23       		.byte	0x23
 1214 046c 14       		.uleb128 0x14
 1215 046d 06       		.uleb128 0x6
 1216 046e D4070000 		.4byte	.LASF67
 1217 0472 09       		.byte	0x9
 1218 0473 62       		.byte	0x62
 1219 0474 91020000 		.4byte	0x291
 1220 0478 02       		.byte	0x2
 1221 0479 23       		.byte	0x23
 1222 047a 18       		.uleb128 0x18
 1223 047b 00       		.byte	0
 1224 047c 03       		.uleb128 0x3
 1225 047d 150A0000 		.4byte	.LASF68
 1226 0481 09       		.byte	0x9
 1227 0482 64       		.byte	0x64
 1228 0483 1F040000 		.4byte	0x41f
 1229 0487 05       		.uleb128 0x5
 1230 0488 EF060000 		.4byte	.LASF69
 1231 048c 0C       		.byte	0xc
 1232 048d 0A       		.byte	0xa
 1233 048e 25       		.byte	0x25
 1234 048f B0040000 		.4byte	0x4b0
 1235 0493 06       		.uleb128 0x6
 1236 0494 75080000 		.4byte	.LASF70
 1237 0498 0A       		.byte	0xa
 1238 0499 26       		.byte	0x26
 1239 049a 97020000 		.4byte	0x297
 1240 049e 02       		.byte	0x2
 1241 049f 23       		.byte	0x23
ARM GAS  /tmp/ccQSlWks.s 			page 23


 1242 04a0 00       		.uleb128 0
 1243 04a1 06       		.uleb128 0x6
 1244 04a2 23070000 		.4byte	.LASF71
 1245 04a6 0A       		.byte	0xa
 1246 04a7 28       		.byte	0x28
 1247 04a8 31010000 		.4byte	0x131
 1248 04ac 02       		.byte	0x2
 1249 04ad 23       		.byte	0x23
 1250 04ae 08       		.uleb128 0x8
 1251 04af 00       		.byte	0
 1252 04b0 03       		.uleb128 0x3
 1253 04b1 EF060000 		.4byte	.LASF69
 1254 04b5 0A       		.byte	0xa
 1255 04b6 29       		.byte	0x29
 1256 04b7 87040000 		.4byte	0x487
 1257 04bb 05       		.uleb128 0x5
 1258 04bc 35050000 		.4byte	.LASF72
 1259 04c0 10       		.byte	0x10
 1260 04c1 0B       		.byte	0xb
 1261 04c2 25       		.byte	0x25
 1262 04c3 F2040000 		.4byte	0x4f2
 1263 04c7 06       		.uleb128 0x6
 1264 04c8 49050000 		.4byte	.LASF73
 1265 04cc 0B       		.byte	0xb
 1266 04cd 26       		.byte	0x26
 1267 04ce 97020000 		.4byte	0x297
 1268 04d2 02       		.byte	0x2
 1269 04d3 23       		.byte	0x23
 1270 04d4 00       		.uleb128 0
 1271 04d5 06       		.uleb128 0x6
 1272 04d6 35010000 		.4byte	.LASF74
 1273 04da 0B       		.byte	0xb
 1274 04db 28       		.byte	0x28
 1275 04dc 91020000 		.4byte	0x291
 1276 04e0 02       		.byte	0x2
 1277 04e1 23       		.byte	0x23
 1278 04e2 08       		.uleb128 0x8
 1279 04e3 06       		.uleb128 0x6
 1280 04e4 4C0A0000 		.4byte	.LASF75
 1281 04e8 0B       		.byte	0xb
 1282 04e9 2A       		.byte	0x2a
 1283 04ea F2040000 		.4byte	0x4f2
 1284 04ee 02       		.byte	0x2
 1285 04ef 23       		.byte	0x23
 1286 04f0 0C       		.uleb128 0xc
 1287 04f1 00       		.byte	0
 1288 04f2 09       		.uleb128 0x9
 1289 04f3 04       		.byte	0x4
 1290 04f4 BB040000 		.4byte	0x4bb
 1291 04f8 03       		.uleb128 0x3
 1292 04f9 35050000 		.4byte	.LASF72
 1293 04fd 0B       		.byte	0xb
 1294 04fe 2C       		.byte	0x2c
 1295 04ff BB040000 		.4byte	0x4bb
 1296 0503 03       		.uleb128 0x3
 1297 0504 FC080000 		.4byte	.LASF76
 1298 0508 0C       		.byte	0xc
ARM GAS  /tmp/ccQSlWks.s 			page 24


 1299 0509 25       		.byte	0x25
 1300 050a 0E050000 		.4byte	0x50e
 1301 050e 05       		.uleb128 0x5
 1302 050f FC080000 		.4byte	.LASF76
 1303 0513 10       		.byte	0x10
 1304 0514 0C       		.byte	0xc
 1305 0515 2A       		.byte	0x2a
 1306 0516 53050000 		.4byte	0x553
 1307 051a 06       		.uleb128 0x6
 1308 051b FB040000 		.4byte	.LASF77
 1309 051f 0C       		.byte	0xc
 1310 0520 2B       		.byte	0x2b
 1311 0521 53050000 		.4byte	0x553
 1312 0525 02       		.byte	0x2
 1313 0526 23       		.byte	0x23
 1314 0527 00       		.uleb128 0
 1315 0528 06       		.uleb128 0x6
 1316 0529 800A0000 		.4byte	.LASF78
 1317 052d 0C       		.byte	0xc
 1318 052e 2E       		.byte	0x2e
 1319 052f 91020000 		.4byte	0x291
 1320 0533 02       		.byte	0x2
 1321 0534 23       		.byte	0x23
 1322 0535 04       		.uleb128 0x4
 1323 0536 06       		.uleb128 0x6
 1324 0537 0D0A0000 		.4byte	.LASF79
 1325 053b 0C       		.byte	0xc
 1326 053c 30       		.byte	0x30
 1327 053d 10010000 		.4byte	0x110
 1328 0541 02       		.byte	0x2
 1329 0542 23       		.byte	0x23
 1330 0543 08       		.uleb128 0x8
 1331 0544 06       		.uleb128 0x6
 1332 0545 F4000000 		.4byte	.LASF80
 1333 0549 0C       		.byte	0xc
 1334 054a 33       		.byte	0x33
 1335 054b 1B010000 		.4byte	0x11b
 1336 054f 02       		.byte	0x2
 1337 0550 23       		.byte	0x23
 1338 0551 0C       		.uleb128 0xc
 1339 0552 00       		.byte	0
 1340 0553 09       		.uleb128 0x9
 1341 0554 04       		.byte	0x4
 1342 0555 03050000 		.4byte	0x503
 1343 0559 05       		.uleb128 0x5
 1344 055a BA040000 		.4byte	.LASF81
 1345 055e 04       		.byte	0x4
 1346 055f 0C       		.byte	0xc
 1347 0560 3A       		.byte	0x3a
 1348 0561 74050000 		.4byte	0x574
 1349 0565 06       		.uleb128 0x6
 1350 0566 A0040000 		.4byte	.LASF82
 1351 056a 0C       		.byte	0xc
 1352 056b 3B       		.byte	0x3b
 1353 056c 53050000 		.4byte	0x553
 1354 0570 02       		.byte	0x2
 1355 0571 23       		.byte	0x23
ARM GAS  /tmp/ccQSlWks.s 			page 25


 1356 0572 00       		.uleb128 0
 1357 0573 00       		.byte	0
 1358 0574 03       		.uleb128 0x3
 1359 0575 BA040000 		.4byte	.LASF81
 1360 0579 0C       		.byte	0xc
 1361 057a 3E       		.byte	0x3e
 1362 057b 59050000 		.4byte	0x559
 1363 057f 10       		.uleb128 0x10
 1364 0580 04       		.byte	0x4
 1365 0581 06       		.byte	0x6
 1366 0582 8F       		.byte	0x8f
 1367 0583 B4050000 		.4byte	0x5b4
 1368 0587 11       		.uleb128 0x11
 1369 0588 87090000 		.4byte	.LASF83
 1370 058c 06       		.byte	0x6
 1371 058d 96       		.byte	0x96
 1372 058e 05010000 		.4byte	0x105
 1373 0592 11       		.uleb128 0x11
 1374 0593 44010000 		.4byte	.LASF84
 1375 0597 06       		.byte	0x6
 1376 0598 9D       		.byte	0x9d
 1377 0599 05010000 		.4byte	0x105
 1378 059d 11       		.uleb128 0x11
 1379 059e 43030000 		.4byte	.LASF85
 1380 05a2 06       		.byte	0x6
 1381 05a3 A4       		.byte	0xa4
 1382 05a4 CF020000 		.4byte	0x2cf
 1383 05a8 11       		.uleb128 0x11
 1384 05a9 4D010000 		.4byte	.LASF86
 1385 05ad 06       		.byte	0x6
 1386 05ae AB       		.byte	0xab
 1387 05af 10010000 		.4byte	0x110
 1388 05b3 00       		.byte	0
 1389 05b4 09       		.uleb128 0x9
 1390 05b5 04       		.byte	0x4
 1391 05b6 BA050000 		.4byte	0x5ba
 1392 05ba 12       		.uleb128 0x12
 1393 05bb BF050000 		.4byte	0x5bf
 1394 05bf 04       		.uleb128 0x4
 1395 05c0 01       		.byte	0x1
 1396 05c1 08       		.byte	0x8
 1397 05c2 12030000 		.4byte	.LASF87
 1398 05c6 09       		.uleb128 0x9
 1399 05c7 04       		.byte	0x4
 1400 05c8 F8040000 		.4byte	0x4f8
 1401 05cc 09       		.uleb128 0x9
 1402 05cd 04       		.byte	0x4
 1403 05ce 54000000 		.4byte	0x54
 1404 05d2 0D       		.uleb128 0xd
 1405 05d3 7F000000 		.4byte	0x7f
 1406 05d7 13       		.uleb128 0x13
 1407 05d8 01       		.byte	0x1
 1408 05d9 0D       		.byte	0xd
 1409 05da 4F       		.byte	0x4f
 1410 05db F2050000 		.4byte	0x5f2
 1411 05df 14       		.uleb128 0x14
 1412 05e0 15010000 		.4byte	.LASF88
ARM GAS  /tmp/ccQSlWks.s 			page 26


 1413 05e4 00       		.sleb128 0
 1414 05e5 14       		.uleb128 0x14
 1415 05e6 6C090000 		.4byte	.LASF89
 1416 05ea 01       		.sleb128 1
 1417 05eb 14       		.uleb128 0x14
 1418 05ec 59050000 		.4byte	.LASF90
 1419 05f0 02       		.sleb128 2
 1420 05f1 00       		.byte	0
 1421 05f2 03       		.uleb128 0x3
 1422 05f3 F1080000 		.4byte	.LASF91
 1423 05f7 0D       		.byte	0xd
 1424 05f8 53       		.byte	0x53
 1425 05f9 D7050000 		.4byte	0x5d7
 1426 05fd 03       		.uleb128 0x3
 1427 05fe 1E050000 		.4byte	.LASF92
 1428 0602 0D       		.byte	0xd
 1429 0603 58       		.byte	0x58
 1430 0604 08060000 		.4byte	0x608
 1431 0608 05       		.uleb128 0x5
 1432 0609 1E050000 		.4byte	.LASF92
 1433 060d 34       		.byte	0x34
 1434 060e 0E       		.byte	0xe
 1435 060f EC       		.byte	0xec
 1436 0610 98060000 		.4byte	0x698
 1437 0614 06       		.uleb128 0x6
 1438 0615 04010000 		.4byte	.LASF93
 1439 0619 0E       		.byte	0xe
 1440 061a F0       		.byte	0xf0
 1441 061b F2050000 		.4byte	0x5f2
 1442 061f 02       		.byte	0x2
 1443 0620 23       		.byte	0x23
 1444 0621 00       		.uleb128 0
 1445 0622 06       		.uleb128 0x6
 1446 0623 FD000000 		.4byte	.LASF94
 1447 0627 0E       		.byte	0xe
 1448 0628 F4       		.byte	0xf4
 1449 0629 52070000 		.4byte	0x752
 1450 062d 02       		.byte	0x2
 1451 062e 23       		.byte	0x23
 1452 062f 04       		.uleb128 0x4
 1453 0630 06       		.uleb128 0x6
 1454 0631 3E0A0000 		.4byte	.LASF95
 1455 0635 0E       		.byte	0xe
 1456 0636 F8       		.byte	0xf8
 1457 0637 B0040000 		.4byte	0x4b0
 1458 063b 02       		.byte	0x2
 1459 063c 23       		.byte	0x23
 1460 063d 08       		.uleb128 0x8
 1461 063e 06       		.uleb128 0x6
 1462 063f 30030000 		.4byte	.LASF96
 1463 0643 0E       		.byte	0xe
 1464 0644 FC       		.byte	0xfc
 1465 0645 B0040000 		.4byte	0x4b0
 1466 0649 02       		.byte	0x2
 1467 064a 23       		.byte	0x23
 1468 064b 14       		.uleb128 0x14
 1469 064c 15       		.uleb128 0x15
ARM GAS  /tmp/ccQSlWks.s 			page 27


 1470 064d 63030000 		.4byte	.LASF97
 1471 0651 0E       		.byte	0xe
 1472 0652 0101     		.2byte	0x101
 1473 0654 74050000 		.4byte	0x574
 1474 0658 02       		.byte	0x2
 1475 0659 23       		.byte	0x23
 1476 065a 20       		.uleb128 0x20
 1477 065b 15       		.uleb128 0x15
 1478 065c 55080000 		.4byte	.LASF98
 1479 0660 0E       		.byte	0xe
 1480 0661 0701     		.2byte	0x107
 1481 0663 BC000000 		.4byte	0xbc
 1482 0667 02       		.byte	0x2
 1483 0668 23       		.byte	0x23
 1484 0669 24       		.uleb128 0x24
 1485 066a 15       		.uleb128 0x15
 1486 066b EC000000 		.4byte	.LASF99
 1487 066f 0E       		.byte	0xe
 1488 0670 0B01     		.2byte	0x10b
 1489 0672 91000000 		.4byte	0x91
 1490 0676 02       		.byte	0x2
 1491 0677 23       		.byte	0x23
 1492 0678 28       		.uleb128 0x28
 1493 0679 15       		.uleb128 0x15
 1494 067a 23030000 		.4byte	.LASF100
 1495 067e 0E       		.byte	0xe
 1496 067f 0F01     		.2byte	0x10f
 1497 0681 5D070000 		.4byte	0x75d
 1498 0685 02       		.byte	0x2
 1499 0686 23       		.byte	0x23
 1500 0687 2C       		.uleb128 0x2c
 1501 0688 15       		.uleb128 0x15
 1502 0689 280A0000 		.4byte	.LASF101
 1503 068d 0E       		.byte	0xe
 1504 068e 1301     		.2byte	0x113
 1505 0690 63070000 		.4byte	0x763
 1506 0694 02       		.byte	0x2
 1507 0695 23       		.byte	0x23
 1508 0696 30       		.uleb128 0x30
 1509 0697 00       		.byte	0
 1510 0698 08       		.uleb128 0x8
 1511 0699 10       		.byte	0x10
 1512 069a 0E       		.byte	0xe
 1513 069b CD       		.byte	0xcd
 1514 069c D9060000 		.4byte	0x6d9
 1515 06a0 06       		.uleb128 0x6
 1516 06a1 0A090000 		.4byte	.LASF102
 1517 06a5 0E       		.byte	0xe
 1518 06a6 CE       		.byte	0xce
 1519 06a7 8D030000 		.4byte	0x38d
 1520 06ab 02       		.byte	0x2
 1521 06ac 23       		.byte	0x23
 1522 06ad 00       		.uleb128 0
 1523 06ae 06       		.uleb128 0x6
 1524 06af 10090000 		.4byte	.LASF103
 1525 06b3 0E       		.byte	0xe
 1526 06b4 CF       		.byte	0xcf
ARM GAS  /tmp/ccQSlWks.s 			page 28


 1527 06b5 8D030000 		.4byte	0x38d
 1528 06b9 02       		.byte	0x2
 1529 06ba 23       		.byte	0x23
 1530 06bb 04       		.uleb128 0x4
 1531 06bc 06       		.uleb128 0x6
 1532 06bd 16090000 		.4byte	.LASF104
 1533 06c1 0E       		.byte	0xe
 1534 06c2 D0       		.byte	0xd0
 1535 06c3 8D030000 		.4byte	0x38d
 1536 06c7 02       		.byte	0x2
 1537 06c8 23       		.byte	0x23
 1538 06c9 08       		.uleb128 0x8
 1539 06ca 06       		.uleb128 0x6
 1540 06cb 1C090000 		.4byte	.LASF105
 1541 06cf 0E       		.byte	0xe
 1542 06d0 D1       		.byte	0xd1
 1543 06d1 8D030000 		.4byte	0x38d
 1544 06d5 02       		.byte	0x2
 1545 06d6 23       		.byte	0x23
 1546 06d7 0C       		.uleb128 0xc
 1547 06d8 00       		.byte	0
 1548 06d9 03       		.uleb128 0x3
 1549 06da 96020000 		.4byte	.LASF106
 1550 06de 0E       		.byte	0xe
 1551 06df D2       		.byte	0xd2
 1552 06e0 98060000 		.4byte	0x698
 1553 06e4 08       		.uleb128 0x8
 1554 06e5 10       		.byte	0x10
 1555 06e6 0E       		.byte	0xe
 1556 06e7 D7       		.byte	0xd7
 1557 06e8 25070000 		.4byte	0x725
 1558 06ec 06       		.uleb128 0x6
 1559 06ed 3B060000 		.4byte	.LASF107
 1560 06f1 0E       		.byte	0xe
 1561 06f2 D8       		.byte	0xd8
 1562 06f3 8D030000 		.4byte	0x38d
 1563 06f7 02       		.byte	0x2
 1564 06f8 23       		.byte	0x23
 1565 06f9 00       		.uleb128 0
 1566 06fa 06       		.uleb128 0x6
 1567 06fb 41060000 		.4byte	.LASF108
 1568 06ff 0E       		.byte	0xe
 1569 0700 D9       		.byte	0xd9
 1570 0701 8D030000 		.4byte	0x38d
 1571 0705 02       		.byte	0x2
 1572 0706 23       		.byte	0x23
 1573 0707 04       		.uleb128 0x4
 1574 0708 06       		.uleb128 0x6
 1575 0709 47060000 		.4byte	.LASF109
 1576 070d 0E       		.byte	0xe
 1577 070e DA       		.byte	0xda
 1578 070f 8D030000 		.4byte	0x38d
 1579 0713 02       		.byte	0x2
 1580 0714 23       		.byte	0x23
 1581 0715 08       		.uleb128 0x8
 1582 0716 06       		.uleb128 0x6
 1583 0717 4D060000 		.4byte	.LASF110
ARM GAS  /tmp/ccQSlWks.s 			page 29


 1584 071b 0E       		.byte	0xe
 1585 071c DB       		.byte	0xdb
 1586 071d 8D030000 		.4byte	0x38d
 1587 0721 02       		.byte	0x2
 1588 0722 23       		.byte	0x23
 1589 0723 0C       		.uleb128 0xc
 1590 0724 00       		.byte	0
 1591 0725 03       		.uleb128 0x3
 1592 0726 BC090000 		.4byte	.LASF111
 1593 072a 0E       		.byte	0xe
 1594 072b DC       		.byte	0xdc
 1595 072c E4060000 		.4byte	0x6e4
 1596 0730 08       		.uleb128 0x8
 1597 0731 04       		.byte	0x4
 1598 0732 0E       		.byte	0xe
 1599 0733 E1       		.byte	0xe1
 1600 0734 47070000 		.4byte	0x747
 1601 0738 06       		.uleb128 0x6
 1602 0739 B7010000 		.4byte	.LASF112
 1603 073d 0E       		.byte	0xe
 1604 073e E5       		.byte	0xe5
 1605 073f CC050000 		.4byte	0x5cc
 1606 0743 02       		.byte	0x2
 1607 0744 23       		.byte	0x23
 1608 0745 00       		.uleb128 0
 1609 0746 00       		.byte	0
 1610 0747 03       		.uleb128 0x3
 1611 0748 03080000 		.4byte	.LASF113
 1612 074c 0E       		.byte	0xe
 1613 074d E7       		.byte	0xe7
 1614 074e 30070000 		.4byte	0x730
 1615 0752 09       		.uleb128 0x9
 1616 0753 04       		.byte	0x4
 1617 0754 58070000 		.4byte	0x758
 1618 0758 12       		.uleb128 0x12
 1619 0759 47070000 		.4byte	0x747
 1620 075d 09       		.uleb128 0x9
 1621 075e 04       		.byte	0x4
 1622 075f D9060000 		.4byte	0x6d9
 1623 0763 09       		.uleb128 0x9
 1624 0764 04       		.byte	0x4
 1625 0765 25070000 		.4byte	0x725
 1626 0769 16       		.uleb128 0x16
 1627 076a 0C       		.byte	0xc
 1628 076b 0E       		.byte	0xe
 1629 076c 1901     		.2byte	0x119
 1630 076e A0070000 		.4byte	0x7a0
 1631 0772 15       		.uleb128 0x15
 1632 0773 7E060000 		.4byte	.LASF114
 1633 0777 0E       		.byte	0xe
 1634 0778 1D01     		.2byte	0x11d
 1635 077a 30000000 		.4byte	0x30
 1636 077e 02       		.byte	0x2
 1637 077f 23       		.byte	0x23
 1638 0780 00       		.uleb128 0
 1639 0781 15       		.uleb128 0x15
 1640 0782 3D070000 		.4byte	.LASF115
ARM GAS  /tmp/ccQSlWks.s 			page 30


 1641 0786 0E       		.byte	0xe
 1642 0787 2101     		.2byte	0x121
 1643 0789 30000000 		.4byte	0x30
 1644 078d 02       		.byte	0x2
 1645 078e 23       		.byte	0x23
 1646 078f 04       		.uleb128 0x4
 1647 0790 15       		.uleb128 0x15
 1648 0791 A0090000 		.4byte	.LASF116
 1649 0795 0E       		.byte	0xe
 1650 0796 2601     		.2byte	0x126
 1651 0798 63070000 		.4byte	0x763
 1652 079c 02       		.byte	0x2
 1653 079d 23       		.byte	0x23
 1654 079e 08       		.uleb128 0x8
 1655 079f 00       		.byte	0
 1656 07a0 17       		.uleb128 0x17
 1657 07a1 59070000 		.4byte	.LASF117
 1658 07a5 0E       		.byte	0xe
 1659 07a6 2701     		.2byte	0x127
 1660 07a8 69070000 		.4byte	0x769
 1661 07ac 16       		.uleb128 0x16
 1662 07ad 0C       		.byte	0xc
 1663 07ae 0E       		.byte	0xe
 1664 07af 2C01     		.2byte	0x12c
 1665 07b1 E3070000 		.4byte	0x7e3
 1666 07b5 15       		.uleb128 0x15
 1667 07b6 7E060000 		.4byte	.LASF114
 1668 07ba 0E       		.byte	0xe
 1669 07bb 3001     		.2byte	0x130
 1670 07bd 30000000 		.4byte	0x30
 1671 07c1 02       		.byte	0x2
 1672 07c2 23       		.byte	0x23
 1673 07c3 00       		.uleb128 0
 1674 07c4 15       		.uleb128 0x15
 1675 07c5 3D070000 		.4byte	.LASF115
 1676 07c9 0E       		.byte	0xe
 1677 07ca 3401     		.2byte	0x134
 1678 07cc 30000000 		.4byte	0x30
 1679 07d0 02       		.byte	0x2
 1680 07d1 23       		.byte	0x23
 1681 07d2 04       		.uleb128 0x4
 1682 07d3 15       		.uleb128 0x15
 1683 07d4 A0090000 		.4byte	.LASF116
 1684 07d8 0E       		.byte	0xe
 1685 07d9 3901     		.2byte	0x139
 1686 07db 5D070000 		.4byte	0x75d
 1687 07df 02       		.byte	0x2
 1688 07e0 23       		.byte	0x23
 1689 07e1 08       		.uleb128 0x8
 1690 07e2 00       		.byte	0
 1691 07e3 17       		.uleb128 0x17
 1692 07e4 F8090000 		.4byte	.LASF118
 1693 07e8 0E       		.byte	0xe
 1694 07e9 3A01     		.2byte	0x13a
 1695 07eb AC070000 		.4byte	0x7ac
 1696 07ef 08       		.uleb128 0x8
 1697 07f0 1C       		.byte	0x1c
ARM GAS  /tmp/ccQSlWks.s 			page 31


 1698 07f1 0F       		.byte	0xf
 1699 07f2 27       		.byte	0x27
 1700 07f3 22080000 		.4byte	0x822
 1701 07f7 06       		.uleb128 0x6
 1702 07f8 62060000 		.4byte	.LASF119
 1703 07fc 0F       		.byte	0xf
 1704 07fd 28       		.byte	0x28
 1705 07fe B6030000 		.4byte	0x3b6
 1706 0802 02       		.byte	0x2
 1707 0803 23       		.byte	0x23
 1708 0804 00       		.uleb128 0
 1709 0805 06       		.uleb128 0x6
 1710 0806 98010000 		.4byte	.LASF120
 1711 080a 0F       		.byte	0xf
 1712 080b 29       		.byte	0x29
 1713 080c 74050000 		.4byte	0x574
 1714 0810 02       		.byte	0x2
 1715 0811 23       		.byte	0x23
 1716 0812 14       		.uleb128 0x14
 1717 0813 06       		.uleb128 0x6
 1718 0814 F3050000 		.4byte	.LASF121
 1719 0818 0F       		.byte	0xf
 1720 0819 2A       		.byte	0x2a
 1721 081a 26010000 		.4byte	0x126
 1722 081e 02       		.byte	0x2
 1723 081f 23       		.byte	0x23
 1724 0820 18       		.uleb128 0x18
 1725 0821 00       		.byte	0
 1726 0822 03       		.uleb128 0x3
 1727 0823 2D050000 		.4byte	.LASF122
 1728 0827 0F       		.byte	0xf
 1729 0828 2B       		.byte	0x2b
 1730 0829 EF070000 		.4byte	0x7ef
 1731 082d 03       		.uleb128 0x3
 1732 082e E6090000 		.4byte	.LASF123
 1733 0832 10       		.byte	0x10
 1734 0833 38       		.byte	0x38
 1735 0834 54000000 		.4byte	0x54
 1736 0838 03       		.uleb128 0x3
 1737 0839 5E000000 		.4byte	.LASF124
 1738 083d 10       		.byte	0x10
 1739 083e 39       		.byte	0x39
 1740 083f 42000000 		.4byte	0x42
 1741 0843 03       		.uleb128 0x3
 1742 0844 19060000 		.4byte	.LASF125
 1743 0848 10       		.byte	0x10
 1744 0849 3A       		.byte	0x3a
 1745 084a 6D000000 		.4byte	0x6d
 1746 084e 03       		.uleb128 0x3
 1747 084f 41080000 		.4byte	.LASF126
 1748 0853 10       		.byte	0x10
 1749 0854 3C       		.byte	0x3c
 1750 0855 91000000 		.4byte	0x91
 1751 0859 05       		.uleb128 0x5
 1752 085a 6B040000 		.4byte	.LASF127
 1753 085e 10       		.byte	0x10
 1754 085f 11       		.byte	0x11
ARM GAS  /tmp/ccQSlWks.s 			page 32


 1755 0860 70       		.byte	0x70
 1756 0861 9E080000 		.4byte	0x89e
 1757 0865 06       		.uleb128 0x6
 1758 0866 95040000 		.4byte	.LASF128
 1759 086a 11       		.byte	0x11
 1760 086b 71       		.byte	0x71
 1761 086c CC050000 		.4byte	0x5cc
 1762 0870 02       		.byte	0x2
 1763 0871 23       		.byte	0x23
 1764 0872 00       		.uleb128 0
 1765 0873 06       		.uleb128 0x6
 1766 0874 DE040000 		.4byte	.LASF129
 1767 0878 11       		.byte	0x11
 1768 0879 72       		.byte	0x72
 1769 087a 91000000 		.4byte	0x91
 1770 087e 02       		.byte	0x2
 1771 087f 23       		.byte	0x23
 1772 0880 04       		.uleb128 0x4
 1773 0881 06       		.uleb128 0x6
 1774 0882 64050000 		.4byte	.LASF130
 1775 0886 11       		.byte	0x11
 1776 0887 73       		.byte	0x73
 1777 0888 91000000 		.4byte	0x91
 1778 088c 02       		.byte	0x2
 1779 088d 23       		.byte	0x23
 1780 088e 08       		.uleb128 0x8
 1781 088f 06       		.uleb128 0x6
 1782 0890 BA080000 		.4byte	.LASF131
 1783 0894 11       		.byte	0x11
 1784 0895 74       		.byte	0x74
 1785 0896 91000000 		.4byte	0x91
 1786 089a 02       		.byte	0x2
 1787 089b 23       		.byte	0x23
 1788 089c 0C       		.uleb128 0xc
 1789 089d 00       		.byte	0
 1790 089e 03       		.uleb128 0x3
 1791 089f C2030000 		.4byte	.LASF132
 1792 08a3 12       		.byte	0x12
 1793 08a4 4C       		.byte	0x4c
 1794 08a5 43080000 		.4byte	0x843
 1795 08a9 03       		.uleb128 0x3
 1796 08aa 04070000 		.4byte	.LASF133
 1797 08ae 13       		.byte	0x13
 1798 08af 2F       		.byte	0x2f
 1799 08b0 38080000 		.4byte	0x838
 1800 08b4 13       		.uleb128 0x13
 1801 08b5 01       		.byte	0x1
 1802 08b6 14       		.byte	0x14
 1803 08b7 32       		.byte	0x32
 1804 08b8 D5080000 		.4byte	0x8d5
 1805 08bc 14       		.uleb128 0x14
 1806 08bd 43090000 		.4byte	.LASF134
 1807 08c1 00       		.sleb128 0
 1808 08c2 14       		.uleb128 0x14
 1809 08c3 2C060000 		.4byte	.LASF135
 1810 08c7 01       		.sleb128 1
 1811 08c8 14       		.uleb128 0x14
ARM GAS  /tmp/ccQSlWks.s 			page 33


 1812 08c9 700A0000 		.4byte	.LASF136
 1813 08cd 02       		.sleb128 2
 1814 08ce 14       		.uleb128 0x14
 1815 08cf 2E0A0000 		.4byte	.LASF137
 1816 08d3 03       		.sleb128 3
 1817 08d4 00       		.byte	0
 1818 08d5 03       		.uleb128 0x3
 1819 08d6 0D080000 		.4byte	.LASF138
 1820 08da 14       		.byte	0x14
 1821 08db 37       		.byte	0x37
 1822 08dc B4080000 		.4byte	0x8b4
 1823 08e0 13       		.uleb128 0x13
 1824 08e1 01       		.byte	0x1
 1825 08e2 14       		.byte	0x14
 1826 08e3 39       		.byte	0x39
 1827 08e4 01090000 		.4byte	0x901
 1828 08e8 14       		.uleb128 0x14
 1829 08e9 1F0A0000 		.4byte	.LASF139
 1830 08ed 00       		.sleb128 0
 1831 08ee 14       		.uleb128 0x14
 1832 08ef E6040000 		.4byte	.LASF140
 1833 08f3 01       		.sleb128 1
 1834 08f4 14       		.uleb128 0x14
 1835 08f5 20010000 		.4byte	.LASF141
 1836 08f9 02       		.sleb128 2
 1837 08fa 14       		.uleb128 0x14
 1838 08fb EC020000 		.4byte	.LASF142
 1839 08ff 03       		.sleb128 3
 1840 0900 00       		.byte	0
 1841 0901 03       		.uleb128 0x3
 1842 0902 74060000 		.4byte	.LASF143
 1843 0906 14       		.byte	0x14
 1844 0907 3E       		.byte	0x3e
 1845 0908 E0080000 		.4byte	0x8e0
 1846 090c 05       		.uleb128 0x5
 1847 090d 1E030000 		.4byte	.LASF144
 1848 0911 10       		.byte	0x10
 1849 0912 14       		.byte	0x14
 1850 0913 4F       		.byte	0x4f
 1851 0914 7B090000 		.4byte	0x97b
 1852 0918 06       		.uleb128 0x6
 1853 0919 E0060000 		.4byte	.LASF145
 1854 091d 14       		.byte	0x14
 1855 091e 51       		.byte	0x51
 1856 091f 7B090000 		.4byte	0x97b
 1857 0923 02       		.byte	0x2
 1858 0924 23       		.byte	0x23
 1859 0925 00       		.uleb128 0
 1860 0926 06       		.uleb128 0x6
 1861 0927 03050000 		.4byte	.LASF146
 1862 092b 14       		.byte	0x14
 1863 092c 54       		.byte	0x54
 1864 092d CF020000 		.4byte	0x2cf
 1865 0931 02       		.byte	0x2
 1866 0932 23       		.byte	0x23
 1867 0933 04       		.uleb128 0x4
 1868 0934 06       		.uleb128 0x6
ARM GAS  /tmp/ccQSlWks.s 			page 34


 1869 0935 D8060000 		.4byte	.LASF147
 1870 0939 14       		.byte	0x14
 1871 093a 5D       		.byte	0x5d
 1872 093b 43080000 		.4byte	0x843
 1873 093f 02       		.byte	0x2
 1874 0940 23       		.byte	0x23
 1875 0941 08       		.uleb128 0x8
 1876 0942 07       		.uleb128 0x7
 1877 0943 6C656E00 		.ascii	"len\000"
 1878 0947 14       		.byte	0x14
 1879 0948 60       		.byte	0x60
 1880 0949 43080000 		.4byte	0x843
 1881 094d 02       		.byte	0x2
 1882 094e 23       		.byte	0x23
 1883 094f 0A       		.uleb128 0xa
 1884 0950 06       		.uleb128 0x6
 1885 0951 10010000 		.4byte	.LASF148
 1886 0955 14       		.byte	0x14
 1887 0956 63       		.byte	0x63
 1888 0957 2D080000 		.4byte	0x82d
 1889 095b 02       		.byte	0x2
 1890 095c 23       		.byte	0x23
 1891 095d 0C       		.uleb128 0xc
 1892 095e 06       		.uleb128 0x6
 1893 095f 6B030000 		.4byte	.LASF149
 1894 0963 14       		.byte	0x14
 1895 0964 66       		.byte	0x66
 1896 0965 2D080000 		.4byte	0x82d
 1897 0969 02       		.byte	0x2
 1898 096a 23       		.byte	0x23
 1899 096b 0D       		.uleb128 0xd
 1900 096c 07       		.uleb128 0x7
 1901 096d 72656600 		.ascii	"ref\000"
 1902 0971 14       		.byte	0x14
 1903 0972 6D       		.byte	0x6d
 1904 0973 43080000 		.4byte	0x843
 1905 0977 02       		.byte	0x2
 1906 0978 23       		.byte	0x23
 1907 0979 0E       		.uleb128 0xe
 1908 097a 00       		.byte	0
 1909 097b 09       		.uleb128 0x9
 1910 097c 04       		.byte	0x4
 1911 097d 0C090000 		.4byte	0x90c
 1912 0981 13       		.uleb128 0x13
 1913 0982 01       		.byte	0x1
 1914 0983 15       		.byte	0x15
 1915 0984 2B       		.byte	0x2b
 1916 0985 E4090000 		.4byte	0x9e4
 1917 0989 14       		.uleb128 0x14
 1918 098a 36030000 		.4byte	.LASF150
 1919 098e 00       		.sleb128 0
 1920 098f 14       		.uleb128 0x14
 1921 0990 6F070000 		.4byte	.LASF151
 1922 0994 01       		.sleb128 1
 1923 0995 14       		.uleb128 0x14
 1924 0996 40000000 		.4byte	.LASF152
 1925 099a 02       		.sleb128 2
ARM GAS  /tmp/ccQSlWks.s 			page 35


 1926 099b 14       		.uleb128 0x14
 1927 099c 5C0A0000 		.4byte	.LASF153
 1928 09a0 03       		.sleb128 3
 1929 09a1 14       		.uleb128 0x14
 1930 09a2 84070000 		.4byte	.LASF154
 1931 09a6 04       		.sleb128 4
 1932 09a7 14       		.uleb128 0x14
 1933 09a8 14070000 		.4byte	.LASF155
 1934 09ac 05       		.sleb128 5
 1935 09ad 14       		.uleb128 0x14
 1936 09ae 2E070000 		.4byte	.LASF156
 1937 09b2 06       		.sleb128 6
 1938 09b3 14       		.uleb128 0x14
 1939 09b4 C7020000 		.4byte	.LASF157
 1940 09b8 07       		.sleb128 7
 1941 09b9 14       		.uleb128 0x14
 1942 09ba 4C040000 		.4byte	.LASF158
 1943 09be 08       		.sleb128 8
 1944 09bf 14       		.uleb128 0x14
 1945 09c0 39040000 		.4byte	.LASF159
 1946 09c4 09       		.sleb128 9
 1947 09c5 14       		.uleb128 0x14
 1948 09c6 A0070000 		.4byte	.LASF160
 1949 09ca 0A       		.sleb128 10
 1950 09cb 14       		.uleb128 0x14
 1951 09cc 85000000 		.4byte	.LASF161
 1952 09d0 0B       		.sleb128 11
 1953 09d1 14       		.uleb128 0x14
 1954 09d2 7D080000 		.4byte	.LASF162
 1955 09d6 0C       		.sleb128 12
 1956 09d7 14       		.uleb128 0x14
 1957 09d8 D9010000 		.4byte	.LASF163
 1958 09dc 0D       		.sleb128 13
 1959 09dd 14       		.uleb128 0x14
 1960 09de 38080000 		.4byte	.LASF164
 1961 09e2 0E       		.sleb128 14
 1962 09e3 00       		.byte	0
 1963 09e4 05       		.uleb128 0x5
 1964 09e5 92050000 		.4byte	.LASF165
 1965 09e9 18       		.byte	0x18
 1966 09ea 16       		.byte	0x16
 1967 09eb 3A       		.byte	0x3a
 1968 09ec 980A0000 		.4byte	0xa98
 1969 09f0 06       		.uleb128 0x6
 1970 09f1 28050000 		.4byte	.LASF166
 1971 09f5 16       		.byte	0x16
 1972 09f6 3B       		.byte	0x3b
 1973 09f7 43080000 		.4byte	0x843
 1974 09fb 02       		.byte	0x2
 1975 09fc 23       		.byte	0x23
 1976 09fd 00       		.uleb128 0
 1977 09fe 06       		.uleb128 0x6
 1978 09ff CE060000 		.4byte	.LASF167
 1979 0a03 16       		.byte	0x16
 1980 0a04 3C       		.byte	0x3c
 1981 0a05 43080000 		.4byte	0x843
 1982 0a09 02       		.byte	0x2
ARM GAS  /tmp/ccQSlWks.s 			page 36


 1983 0a0a 23       		.byte	0x23
 1984 0a0b 02       		.uleb128 0x2
 1985 0a0c 07       		.uleb128 0x7
 1986 0a0d 667700   		.ascii	"fw\000"
 1987 0a10 16       		.byte	0x16
 1988 0a11 3D       		.byte	0x3d
 1989 0a12 43080000 		.4byte	0x843
 1990 0a16 02       		.byte	0x2
 1991 0a17 23       		.byte	0x23
 1992 0a18 04       		.uleb128 0x4
 1993 0a19 06       		.uleb128 0x6
 1994 0a1a D3020000 		.4byte	.LASF168
 1995 0a1e 16       		.byte	0x16
 1996 0a1f 3E       		.byte	0x3e
 1997 0a20 43080000 		.4byte	0x843
 1998 0a24 02       		.byte	0x2
 1999 0a25 23       		.byte	0x23
 2000 0a26 06       		.uleb128 0x6
 2001 0a27 06       		.uleb128 0x6
 2002 0a28 FC070000 		.4byte	.LASF169
 2003 0a2c 16       		.byte	0x16
 2004 0a2d 3F       		.byte	0x3f
 2005 0a2e 43080000 		.4byte	0x843
 2006 0a32 02       		.byte	0x2
 2007 0a33 23       		.byte	0x23
 2008 0a34 08       		.uleb128 0x8
 2009 0a35 06       		.uleb128 0x6
 2010 0a36 B8020000 		.4byte	.LASF170
 2011 0a3a 16       		.byte	0x16
 2012 0a3b 40       		.byte	0x40
 2013 0a3c 43080000 		.4byte	0x843
 2014 0a40 02       		.byte	0x2
 2015 0a41 23       		.byte	0x23
 2016 0a42 0A       		.uleb128 0xa
 2017 0a43 06       		.uleb128 0x6
 2018 0a44 F3030000 		.4byte	.LASF171
 2019 0a48 16       		.byte	0x16
 2020 0a49 41       		.byte	0x41
 2021 0a4a 43080000 		.4byte	0x843
 2022 0a4e 02       		.byte	0x2
 2023 0a4f 23       		.byte	0x23
 2024 0a50 0C       		.uleb128 0xc
 2025 0a51 06       		.uleb128 0x6
 2026 0a52 96000000 		.4byte	.LASF172
 2027 0a56 16       		.byte	0x16
 2028 0a57 42       		.byte	0x42
 2029 0a58 43080000 		.4byte	0x843
 2030 0a5c 02       		.byte	0x2
 2031 0a5d 23       		.byte	0x23
 2032 0a5e 0E       		.uleb128 0xe
 2033 0a5f 06       		.uleb128 0x6
 2034 0a60 07000000 		.4byte	.LASF173
 2035 0a64 16       		.byte	0x16
 2036 0a65 43       		.byte	0x43
 2037 0a66 43080000 		.4byte	0x843
 2038 0a6a 02       		.byte	0x2
 2039 0a6b 23       		.byte	0x23
ARM GAS  /tmp/ccQSlWks.s 			page 37


 2040 0a6c 10       		.uleb128 0x10
 2041 0a6d 06       		.uleb128 0x6
 2042 0a6e E6070000 		.4byte	.LASF174
 2043 0a72 16       		.byte	0x16
 2044 0a73 44       		.byte	0x44
 2045 0a74 43080000 		.4byte	0x843
 2046 0a78 02       		.byte	0x2
 2047 0a79 23       		.byte	0x23
 2048 0a7a 12       		.uleb128 0x12
 2049 0a7b 07       		.uleb128 0x7
 2050 0a7c 65727200 		.ascii	"err\000"
 2051 0a80 16       		.byte	0x16
 2052 0a81 45       		.byte	0x45
 2053 0a82 43080000 		.4byte	0x843
 2054 0a86 02       		.byte	0x2
 2055 0a87 23       		.byte	0x23
 2056 0a88 14       		.uleb128 0x14
 2057 0a89 06       		.uleb128 0x6
 2058 0a8a EA030000 		.4byte	.LASF175
 2059 0a8e 16       		.byte	0x16
 2060 0a8f 46       		.byte	0x46
 2061 0a90 43080000 		.4byte	0x843
 2062 0a94 02       		.byte	0x2
 2063 0a95 23       		.byte	0x23
 2064 0a96 16       		.uleb128 0x16
 2065 0a97 00       		.byte	0
 2066 0a98 05       		.uleb128 0x5
 2067 0a99 CA070000 		.4byte	.LASF176
 2068 0a9d 0A       		.byte	0xa
 2069 0a9e 16       		.byte	0x16
 2070 0a9f 5A       		.byte	0x5a
 2071 0aa0 EB0A0000 		.4byte	0xaeb
 2072 0aa4 06       		.uleb128 0x6
 2073 0aa5 B1010000 		.4byte	.LASF177
 2074 0aa9 16       		.byte	0x16
 2075 0aaa 5E       		.byte	0x5e
 2076 0aab 9E080000 		.4byte	0x89e
 2077 0aaf 02       		.byte	0x2
 2078 0ab0 23       		.byte	0x23
 2079 0ab1 00       		.uleb128 0
 2080 0ab2 06       		.uleb128 0x6
 2081 0ab3 D3060000 		.4byte	.LASF178
 2082 0ab7 16       		.byte	0x16
 2083 0ab8 5F       		.byte	0x5f
 2084 0ab9 9E080000 		.4byte	0x89e
 2085 0abd 02       		.byte	0x2
 2086 0abe 23       		.byte	0x23
 2087 0abf 02       		.uleb128 0x2
 2088 0ac0 07       		.uleb128 0x7
 2089 0ac1 6D617800 		.ascii	"max\000"
 2090 0ac5 16       		.byte	0x16
 2091 0ac6 60       		.byte	0x60
 2092 0ac7 9E080000 		.4byte	0x89e
 2093 0acb 02       		.byte	0x2
 2094 0acc 23       		.byte	0x23
 2095 0acd 04       		.uleb128 0x4
 2096 0ace 07       		.uleb128 0x7
ARM GAS  /tmp/ccQSlWks.s 			page 38


 2097 0acf 65727200 		.ascii	"err\000"
 2098 0ad3 16       		.byte	0x16
 2099 0ad4 61       		.byte	0x61
 2100 0ad5 43080000 		.4byte	0x843
 2101 0ad9 02       		.byte	0x2
 2102 0ada 23       		.byte	0x23
 2103 0adb 06       		.uleb128 0x6
 2104 0adc 06       		.uleb128 0x6
 2105 0add DE070000 		.4byte	.LASF179
 2106 0ae1 16       		.byte	0x16
 2107 0ae2 62       		.byte	0x62
 2108 0ae3 43080000 		.4byte	0x843
 2109 0ae7 02       		.byte	0x2
 2110 0ae8 23       		.byte	0x23
 2111 0ae9 08       		.uleb128 0x8
 2112 0aea 00       		.byte	0
 2113 0aeb 05       		.uleb128 0x5
 2114 0aec 84050000 		.4byte	.LASF180
 2115 0af0 06       		.byte	0x6
 2116 0af1 16       		.byte	0x16
 2117 0af2 65       		.byte	0x65
 2118 0af3 220B0000 		.4byte	0xb22
 2119 0af7 06       		.uleb128 0x6
 2120 0af8 D3060000 		.4byte	.LASF178
 2121 0afc 16       		.byte	0x16
 2122 0afd 66       		.byte	0x66
 2123 0afe 43080000 		.4byte	0x843
 2124 0b02 02       		.byte	0x2
 2125 0b03 23       		.byte	0x23
 2126 0b04 00       		.uleb128 0
 2127 0b05 07       		.uleb128 0x7
 2128 0b06 6D617800 		.ascii	"max\000"
 2129 0b0a 16       		.byte	0x16
 2130 0b0b 67       		.byte	0x67
 2131 0b0c 43080000 		.4byte	0x843
 2132 0b10 02       		.byte	0x2
 2133 0b11 23       		.byte	0x23
 2134 0b12 02       		.uleb128 0x2
 2135 0b13 07       		.uleb128 0x7
 2136 0b14 65727200 		.ascii	"err\000"
 2137 0b18 16       		.byte	0x16
 2138 0b19 68       		.byte	0x68
 2139 0b1a 43080000 		.4byte	0x843
 2140 0b1e 02       		.byte	0x2
 2141 0b1f 23       		.byte	0x23
 2142 0b20 04       		.uleb128 0x4
 2143 0b21 00       		.byte	0
 2144 0b22 05       		.uleb128 0x5
 2145 0b23 0A070000 		.4byte	.LASF181
 2146 0b27 12       		.byte	0x12
 2147 0b28 16       		.byte	0x16
 2148 0b29 6B       		.byte	0x6b
 2149 0b2a 590B0000 		.4byte	0xb59
 2150 0b2e 07       		.uleb128 0x7
 2151 0b2f 73656D00 		.ascii	"sem\000"
 2152 0b33 16       		.byte	0x16
 2153 0b34 6C       		.byte	0x6c
ARM GAS  /tmp/ccQSlWks.s 			page 39


 2154 0b35 EB0A0000 		.4byte	0xaeb
 2155 0b39 02       		.byte	0x2
 2156 0b3a 23       		.byte	0x23
 2157 0b3b 00       		.uleb128 0
 2158 0b3c 06       		.uleb128 0x6
 2159 0b3d 71050000 		.4byte	.LASF182
 2160 0b41 16       		.byte	0x16
 2161 0b42 6D       		.byte	0x6d
 2162 0b43 EB0A0000 		.4byte	0xaeb
 2163 0b47 02       		.byte	0x2
 2164 0b48 23       		.byte	0x23
 2165 0b49 06       		.uleb128 0x6
 2166 0b4a 06       		.uleb128 0x6
 2167 0b4b 27060000 		.4byte	.LASF183
 2168 0b4f 16       		.byte	0x16
 2169 0b50 6E       		.byte	0x6e
 2170 0b51 EB0A0000 		.4byte	0xaeb
 2171 0b55 02       		.byte	0x2
 2172 0b56 23       		.byte	0x23
 2173 0b57 0C       		.uleb128 0xc
 2174 0b58 00       		.byte	0
 2175 0b59 18       		.uleb128 0x18
 2176 0b5a FA030000 		.4byte	.LASF184
 2177 0b5e 5001     		.2byte	0x150
 2178 0b60 16       		.byte	0x16
 2179 0b61 71       		.byte	0x71
 2180 0b62 F60B0000 		.4byte	0xbf6
 2181 0b66 06       		.uleb128 0x6
 2182 0b67 F6040000 		.4byte	.LASF185
 2183 0b6b 16       		.byte	0x16
 2184 0b6c 73       		.byte	0x73
 2185 0b6d E4090000 		.4byte	0x9e4
 2186 0b71 02       		.byte	0x2
 2187 0b72 23       		.byte	0x23
 2188 0b73 00       		.uleb128 0
 2189 0b74 06       		.uleb128 0x6
 2190 0b75 2E010000 		.4byte	.LASF186
 2191 0b79 16       		.byte	0x16
 2192 0b7a 76       		.byte	0x76
 2193 0b7b E4090000 		.4byte	0x9e4
 2194 0b7f 02       		.byte	0x2
 2195 0b80 23       		.byte	0x23
 2196 0b81 18       		.uleb128 0x18
 2197 0b82 06       		.uleb128 0x6
 2198 0b83 0C060000 		.4byte	.LASF187
 2199 0b87 16       		.byte	0x16
 2200 0b88 79       		.byte	0x79
 2201 0b89 E4090000 		.4byte	0x9e4
 2202 0b8d 02       		.byte	0x2
 2203 0b8e 23       		.byte	0x23
 2204 0b8f 30       		.uleb128 0x30
 2205 0b90 07       		.uleb128 0x7
 2206 0b91 697000   		.ascii	"ip\000"
 2207 0b94 16       		.byte	0x16
 2208 0b95 7C       		.byte	0x7c
 2209 0b96 E4090000 		.4byte	0x9e4
 2210 0b9a 02       		.byte	0x2
ARM GAS  /tmp/ccQSlWks.s 			page 40


 2211 0b9b 23       		.byte	0x23
 2212 0b9c 48       		.uleb128 0x48
 2213 0b9d 06       		.uleb128 0x6
 2214 0b9e 29070000 		.4byte	.LASF188
 2215 0ba2 16       		.byte	0x16
 2216 0ba3 7F       		.byte	0x7f
 2217 0ba4 E4090000 		.4byte	0x9e4
 2218 0ba8 02       		.byte	0x2
 2219 0ba9 23       		.byte	0x23
 2220 0baa 60       		.uleb128 0x60
 2221 0bab 07       		.uleb128 0x7
 2222 0bac 75647000 		.ascii	"udp\000"
 2223 0bb0 16       		.byte	0x16
 2224 0bb1 85       		.byte	0x85
 2225 0bb2 E4090000 		.4byte	0x9e4
 2226 0bb6 02       		.byte	0x2
 2227 0bb7 23       		.byte	0x23
 2228 0bb8 78       		.uleb128 0x78
 2229 0bb9 07       		.uleb128 0x7
 2230 0bba 74637000 		.ascii	"tcp\000"
 2231 0bbe 16       		.byte	0x16
 2232 0bbf 88       		.byte	0x88
 2233 0bc0 E4090000 		.4byte	0x9e4
 2234 0bc4 03       		.byte	0x3
 2235 0bc5 23       		.byte	0x23
 2236 0bc6 9001     		.uleb128 0x90
 2237 0bc8 07       		.uleb128 0x7
 2238 0bc9 6D656D00 		.ascii	"mem\000"
 2239 0bcd 16       		.byte	0x16
 2240 0bce 8B       		.byte	0x8b
 2241 0bcf 980A0000 		.4byte	0xa98
 2242 0bd3 03       		.byte	0x3
 2243 0bd4 23       		.byte	0x23
 2244 0bd5 A801     		.uleb128 0xa8
 2245 0bd7 06       		.uleb128 0x6
 2246 0bd8 29010000 		.4byte	.LASF189
 2247 0bdc 16       		.byte	0x16
 2248 0bdd 8E       		.byte	0x8e
 2249 0bde F60B0000 		.4byte	0xbf6
 2250 0be2 03       		.byte	0x3
 2251 0be3 23       		.byte	0x23
 2252 0be4 B201     		.uleb128 0xb2
 2253 0be6 07       		.uleb128 0x7
 2254 0be7 73797300 		.ascii	"sys\000"
 2255 0beb 16       		.byte	0x16
 2256 0bec 91       		.byte	0x91
 2257 0bed 220B0000 		.4byte	0xb22
 2258 0bf1 03       		.byte	0x3
 2259 0bf2 23       		.byte	0x23
 2260 0bf3 BE02     		.uleb128 0x13e
 2261 0bf5 00       		.byte	0
 2262 0bf6 19       		.uleb128 0x19
 2263 0bf7 980A0000 		.4byte	0xa98
 2264 0bfb 060C0000 		.4byte	0xc06
 2265 0bff 1A       		.uleb128 0x1a
 2266 0c00 92030000 		.4byte	0x392
 2267 0c04 0D       		.byte	0xd
ARM GAS  /tmp/ccQSlWks.s 			page 41


 2268 0c05 00       		.byte	0
 2269 0c06 05       		.uleb128 0x5
 2270 0c07 D5030000 		.4byte	.LASF190
 2271 0c0b 04       		.byte	0x4
 2272 0c0c 17       		.byte	0x17
 2273 0c0d 2C       		.byte	0x2c
 2274 0c0e 210C0000 		.4byte	0xc21
 2275 0c12 06       		.uleb128 0x6
 2276 0c13 E6050000 		.4byte	.LASF191
 2277 0c17 17       		.byte	0x17
 2278 0c18 2D       		.byte	0x2d
 2279 0c19 4E080000 		.4byte	0x84e
 2280 0c1d 02       		.byte	0x2
 2281 0c1e 23       		.byte	0x23
 2282 0c1f 00       		.uleb128 0
 2283 0c20 00       		.byte	0
 2284 0c21 03       		.uleb128 0x3
 2285 0c22 E5060000 		.4byte	.LASF192
 2286 0c26 17       		.byte	0x17
 2287 0c27 40       		.byte	0x40
 2288 0c28 060C0000 		.4byte	0xc06
 2289 0c2c 03       		.uleb128 0x3
 2290 0c2d D8020000 		.4byte	.LASF193
 2291 0c31 18       		.byte	0x18
 2292 0c32 66       		.byte	0x66
 2293 0c33 370C0000 		.4byte	0xc37
 2294 0c37 09       		.uleb128 0x9
 2295 0c38 04       		.byte	0x4
 2296 0c39 3D0C0000 		.4byte	0xc3d
 2297 0c3d 1B       		.uleb128 0x1b
 2298 0c3e 01       		.byte	0x1
 2299 0c3f A9080000 		.4byte	0x8a9
 2300 0c43 4D0C0000 		.4byte	0xc4d
 2301 0c47 0F       		.uleb128 0xf
 2302 0c48 4D0C0000 		.4byte	0xc4d
 2303 0c4c 00       		.byte	0
 2304 0c4d 09       		.uleb128 0x9
 2305 0c4e 04       		.byte	0x4
 2306 0c4f 530C0000 		.4byte	0xc53
 2307 0c53 05       		.uleb128 0x5
 2308 0c54 D8040000 		.4byte	.LASF194
 2309 0c58 30       		.byte	0x30
 2310 0c59 18       		.byte	0x18
 2311 0c5a 88       		.byte	0x88
 2312 0c5b 230D0000 		.4byte	0xd23
 2313 0c5f 06       		.uleb128 0x6
 2314 0c60 E0060000 		.4byte	.LASF145
 2315 0c64 18       		.byte	0x18
 2316 0c65 8A       		.byte	0x8a
 2317 0c66 4D0C0000 		.4byte	0xc4d
 2318 0c6a 02       		.byte	0x2
 2319 0c6b 23       		.byte	0x23
 2320 0c6c 00       		.uleb128 0
 2321 0c6d 06       		.uleb128 0x6
 2322 0c6e D5030000 		.4byte	.LASF190
 2323 0c72 18       		.byte	0x18
 2324 0c73 8D       		.byte	0x8d
ARM GAS  /tmp/ccQSlWks.s 			page 42


 2325 0c74 210C0000 		.4byte	0xc21
 2326 0c78 02       		.byte	0x2
 2327 0c79 23       		.byte	0x23
 2328 0c7a 04       		.uleb128 0x4
 2329 0c7b 06       		.uleb128 0x6
 2330 0c7c 64050000 		.4byte	.LASF130
 2331 0c80 18       		.byte	0x18
 2332 0c81 8E       		.byte	0x8e
 2333 0c82 210C0000 		.4byte	0xc21
 2334 0c86 02       		.byte	0x2
 2335 0c87 23       		.byte	0x23
 2336 0c88 08       		.uleb128 0x8
 2337 0c89 07       		.uleb128 0x7
 2338 0c8a 677700   		.ascii	"gw\000"
 2339 0c8d 18       		.byte	0x18
 2340 0c8e 8F       		.byte	0x8f
 2341 0c8f 210C0000 		.4byte	0xc21
 2342 0c93 02       		.byte	0x2
 2343 0c94 23       		.byte	0x23
 2344 0c95 0C       		.uleb128 0xc
 2345 0c96 06       		.uleb128 0x6
 2346 0c97 DD030000 		.4byte	.LASF195
 2347 0c9b 18       		.byte	0x18
 2348 0c9c 93       		.byte	0x93
 2349 0c9d 230D0000 		.4byte	0xd23
 2350 0ca1 02       		.byte	0x2
 2351 0ca2 23       		.byte	0x23
 2352 0ca3 10       		.uleb128 0x10
 2353 0ca4 06       		.uleb128 0x6
 2354 0ca5 17030000 		.4byte	.LASF196
 2355 0ca9 18       		.byte	0x18
 2356 0caa 97       		.byte	0x97
 2357 0cab 490D0000 		.4byte	0xd49
 2358 0caf 02       		.byte	0x2
 2359 0cb0 23       		.byte	0x23
 2360 0cb1 14       		.uleb128 0x14
 2361 0cb2 06       		.uleb128 0x6
 2362 0cb3 C3010000 		.4byte	.LASF197
 2363 0cb7 18       		.byte	0x18
 2364 0cb8 9B       		.byte	0x9b
 2365 0cb9 7A0D0000 		.4byte	0xd7a
 2366 0cbd 02       		.byte	0x2
 2367 0cbe 23       		.byte	0x23
 2368 0cbf 18       		.uleb128 0x18
 2369 0cc0 06       		.uleb128 0x6
 2370 0cc1 04010000 		.4byte	.LASF93
 2371 0cc5 18       		.byte	0x18
 2372 0cc6 AC       		.byte	0xac
 2373 0cc7 CF020000 		.4byte	0x2cf
 2374 0ccb 02       		.byte	0x2
 2375 0ccc 23       		.byte	0x23
 2376 0ccd 1C       		.uleb128 0x1c
 2377 0cce 07       		.uleb128 0x7
 2378 0ccf 6D747500 		.ascii	"mtu\000"
 2379 0cd3 18       		.byte	0x18
 2380 0cd4 BA       		.byte	0xba
 2381 0cd5 43080000 		.4byte	0x843
ARM GAS  /tmp/ccQSlWks.s 			page 43


 2382 0cd9 02       		.byte	0x2
 2383 0cda 23       		.byte	0x23
 2384 0cdb 20       		.uleb128 0x20
 2385 0cdc 06       		.uleb128 0x6
 2386 0cdd CE010000 		.4byte	.LASF198
 2387 0ce1 18       		.byte	0x18
 2388 0ce2 BC       		.byte	0xbc
 2389 0ce3 2D080000 		.4byte	0x82d
 2390 0ce7 02       		.byte	0x2
 2391 0ce8 23       		.byte	0x23
 2392 0ce9 22       		.uleb128 0x22
 2393 0cea 06       		.uleb128 0x6
 2394 0ceb EF040000 		.4byte	.LASF199
 2395 0cef 18       		.byte	0x18
 2396 0cf0 BE       		.byte	0xbe
 2397 0cf1 A00D0000 		.4byte	0xda0
 2398 0cf5 02       		.byte	0x2
 2399 0cf6 23       		.byte	0x23
 2400 0cf7 23       		.uleb128 0x23
 2401 0cf8 06       		.uleb128 0x6
 2402 0cf9 6B030000 		.4byte	.LASF149
 2403 0cfd 18       		.byte	0x18
 2404 0cfe C0       		.byte	0xc0
 2405 0cff 2D080000 		.4byte	0x82d
 2406 0d03 02       		.byte	0x2
 2407 0d04 23       		.byte	0x23
 2408 0d05 29       		.uleb128 0x29
 2409 0d06 06       		.uleb128 0x6
 2410 0d07 70080000 		.4byte	.LASF200
 2411 0d0b 18       		.byte	0x18
 2412 0d0c C2       		.byte	0xc2
 2413 0d0d B00D0000 		.4byte	0xdb0
 2414 0d11 02       		.byte	0x2
 2415 0d12 23       		.byte	0x23
 2416 0d13 2A       		.uleb128 0x2a
 2417 0d14 07       		.uleb128 0x7
 2418 0d15 6E756D00 		.ascii	"num\000"
 2419 0d19 18       		.byte	0x18
 2420 0d1a C4       		.byte	0xc4
 2421 0d1b 2D080000 		.4byte	0x82d
 2422 0d1f 02       		.byte	0x2
 2423 0d20 23       		.byte	0x23
 2424 0d21 2C       		.uleb128 0x2c
 2425 0d22 00       		.byte	0
 2426 0d23 03       		.uleb128 0x3
 2427 0d24 53060000 		.4byte	.LASF201
 2428 0d28 18       		.byte	0x18
 2429 0d29 6D       		.byte	0x6d
 2430 0d2a 2E0D0000 		.4byte	0xd2e
 2431 0d2e 09       		.uleb128 0x9
 2432 0d2f 04       		.byte	0x4
 2433 0d30 340D0000 		.4byte	0xd34
 2434 0d34 1B       		.uleb128 0x1b
 2435 0d35 01       		.byte	0x1
 2436 0d36 A9080000 		.4byte	0x8a9
 2437 0d3a 490D0000 		.4byte	0xd49
 2438 0d3e 0F       		.uleb128 0xf
ARM GAS  /tmp/ccQSlWks.s 			page 44


 2439 0d3f 7B090000 		.4byte	0x97b
 2440 0d43 0F       		.uleb128 0xf
 2441 0d44 4D0C0000 		.4byte	0xc4d
 2442 0d48 00       		.byte	0
 2443 0d49 03       		.uleb128 0x3
 2444 0d4a BE060000 		.4byte	.LASF202
 2445 0d4e 18       		.byte	0x18
 2446 0d4f 76       		.byte	0x76
 2447 0d50 540D0000 		.4byte	0xd54
 2448 0d54 09       		.uleb128 0x9
 2449 0d55 04       		.byte	0x4
 2450 0d56 5A0D0000 		.4byte	0xd5a
 2451 0d5a 1B       		.uleb128 0x1b
 2452 0d5b 01       		.byte	0x1
 2453 0d5c A9080000 		.4byte	0x8a9
 2454 0d60 740D0000 		.4byte	0xd74
 2455 0d64 0F       		.uleb128 0xf
 2456 0d65 4D0C0000 		.4byte	0xc4d
 2457 0d69 0F       		.uleb128 0xf
 2458 0d6a 7B090000 		.4byte	0x97b
 2459 0d6e 0F       		.uleb128 0xf
 2460 0d6f 740D0000 		.4byte	0xd74
 2461 0d73 00       		.byte	0
 2462 0d74 09       		.uleb128 0x9
 2463 0d75 04       		.byte	0x4
 2464 0d76 210C0000 		.4byte	0xc21
 2465 0d7a 03       		.uleb128 0x3
 2466 0d7b 85060000 		.4byte	.LASF203
 2467 0d7f 18       		.byte	0x18
 2468 0d80 7E       		.byte	0x7e
 2469 0d81 850D0000 		.4byte	0xd85
 2470 0d85 09       		.uleb128 0x9
 2471 0d86 04       		.byte	0x4
 2472 0d87 8B0D0000 		.4byte	0xd8b
 2473 0d8b 1B       		.uleb128 0x1b
 2474 0d8c 01       		.byte	0x1
 2475 0d8d A9080000 		.4byte	0x8a9
 2476 0d91 A00D0000 		.4byte	0xda0
 2477 0d95 0F       		.uleb128 0xf
 2478 0d96 4D0C0000 		.4byte	0xc4d
 2479 0d9a 0F       		.uleb128 0xf
 2480 0d9b 7B090000 		.4byte	0x97b
 2481 0d9f 00       		.byte	0
 2482 0da0 19       		.uleb128 0x19
 2483 0da1 2D080000 		.4byte	0x82d
 2484 0da5 B00D0000 		.4byte	0xdb0
 2485 0da9 1A       		.uleb128 0x1a
 2486 0daa 92030000 		.4byte	0x392
 2487 0dae 05       		.byte	0x5
 2488 0daf 00       		.byte	0
 2489 0db0 19       		.uleb128 0x19
 2490 0db1 BF050000 		.4byte	0x5bf
 2491 0db5 C00D0000 		.4byte	0xdc0
 2492 0db9 1A       		.uleb128 0x1a
 2493 0dba 92030000 		.4byte	0x392
 2494 0dbe 01       		.byte	0x1
 2495 0dbf 00       		.byte	0
ARM GAS  /tmp/ccQSlWks.s 			page 45


 2496 0dc0 03       		.uleb128 0x3
 2497 0dc1 0B050000 		.4byte	.LASF204
 2498 0dc5 19       		.byte	0x19
 2499 0dc6 4C       		.byte	0x4c
 2500 0dc7 A4030000 		.4byte	0x3a4
 2501 0dcb 03       		.uleb128 0x3
 2502 0dcc A5060000 		.4byte	.LASF205
 2503 0dd0 19       		.byte	0x19
 2504 0dd1 4E       		.byte	0x4e
 2505 0dd2 A4030000 		.4byte	0x3a4
 2506 0dd6 05       		.uleb128 0x5
 2507 0dd7 29000000 		.4byte	.LASF206
 2508 0ddb 06       		.byte	0x6
 2509 0ddc 1A       		.byte	0x1a
 2510 0ddd 3B       		.byte	0x3b
 2511 0dde F10D0000 		.4byte	0xdf1
 2512 0de2 06       		.uleb128 0x6
 2513 0de3 E6050000 		.4byte	.LASF191
 2514 0de7 1A       		.byte	0x1a
 2515 0de8 3C       		.byte	0x3c
 2516 0de9 A00D0000 		.4byte	0xda0
 2517 0ded 02       		.byte	0x2
 2518 0dee 23       		.byte	0x23
 2519 0def 00       		.uleb128 0
 2520 0df0 00       		.byte	0
 2521 0df1 05       		.uleb128 0x5
 2522 0df2 CD030000 		.4byte	.LASF207
 2523 0df6 0E       		.byte	0xe
 2524 0df7 1A       		.byte	0x1a
 2525 0df8 48       		.byte	0x48
 2526 0df9 280E0000 		.4byte	0xe28
 2527 0dfd 06       		.uleb128 0x6
 2528 0dfe 33080000 		.4byte	.LASF208
 2529 0e02 1A       		.byte	0x1a
 2530 0e03 4C       		.byte	0x4c
 2531 0e04 D60D0000 		.4byte	0xdd6
 2532 0e08 02       		.byte	0x2
 2533 0e09 23       		.byte	0x23
 2534 0e0a 00       		.uleb128 0
 2535 0e0b 07       		.uleb128 0x7
 2536 0e0c 73726300 		.ascii	"src\000"
 2537 0e10 1A       		.byte	0x1a
 2538 0e11 4D       		.byte	0x4d
 2539 0e12 D60D0000 		.4byte	0xdd6
 2540 0e16 02       		.byte	0x2
 2541 0e17 23       		.byte	0x23
 2542 0e18 06       		.uleb128 0x6
 2543 0e19 06       		.uleb128 0x6
 2544 0e1a 10010000 		.4byte	.LASF148
 2545 0e1e 1A       		.byte	0x1a
 2546 0e1f 4E       		.byte	0x4e
 2547 0e20 43080000 		.4byte	0x843
 2548 0e24 02       		.byte	0x2
 2549 0e25 23       		.byte	0x23
 2550 0e26 0C       		.uleb128 0xc
 2551 0e27 00       		.byte	0
 2552 0e28 1C       		.uleb128 0x1c
ARM GAS  /tmp/ccQSlWks.s 			page 46


 2553 0e29 B9050000 		.4byte	.LASF246
 2554 0e2d 01       		.byte	0x1
 2555 0e2e 57       		.byte	0x57
 2556 0e2f 01       		.byte	0x1
 2557 0e30 01       		.byte	0x1
 2558 0e31 410E0000 		.4byte	0xe41
 2559 0e35 1D       		.uleb128 0x1d
 2560 0e36 D8040000 		.4byte	.LASF194
 2561 0e3a 01       		.byte	0x1
 2562 0e3b 57       		.byte	0x57
 2563 0e3c 4D0C0000 		.4byte	0xc4d
 2564 0e40 00       		.byte	0
 2565 0e41 1E       		.uleb128 0x1e
 2566 0e42 D6090000 		.4byte	.LASF247
 2567 0e46 01       		.byte	0x1
 2568 0e47 85       		.byte	0x85
 2569 0e48 01       		.byte	0x1
 2570 0e49 7B090000 		.4byte	0x97b
 2571 0e4d 01       		.byte	0x1
 2572 0e4e 850E0000 		.4byte	0xe85
 2573 0e52 1D       		.uleb128 0x1d
 2574 0e53 D8040000 		.4byte	.LASF194
 2575 0e57 01       		.byte	0x1
 2576 0e58 85       		.byte	0x85
 2577 0e59 4D0C0000 		.4byte	0xc4d
 2578 0e5d 1F       		.uleb128 0x1f
 2579 0e5e 726400   		.ascii	"rd\000"
 2580 0e61 01       		.byte	0x1
 2581 0e62 86       		.byte	0x86
 2582 0e63 E3070000 		.4byte	0x7e3
 2583 0e67 1F       		.uleb128 0x1f
 2584 0e68 7000     		.ascii	"p\000"
 2585 0e6a 01       		.byte	0x1
 2586 0e6b 87       		.byte	0x87
 2587 0e6c 7B090000 		.4byte	0x97b
 2588 0e70 1F       		.uleb128 0x1f
 2589 0e71 7100     		.ascii	"q\000"
 2590 0e73 01       		.byte	0x1
 2591 0e74 87       		.byte	0x87
 2592 0e75 7B090000 		.4byte	0x97b
 2593 0e79 1F       		.uleb128 0x1f
 2594 0e7a 6C656E00 		.ascii	"len\000"
 2595 0e7e 01       		.byte	0x1
 2596 0e7f 88       		.byte	0x88
 2597 0e80 43080000 		.4byte	0x843
 2598 0e84 00       		.byte	0
 2599 0e85 20       		.uleb128 0x20
 2600 0e86 07040000 		.4byte	.LASF209
 2601 0e8a 01       		.byte	0x1
 2602 0e8b B3       		.byte	0xb3
 2603 0e8c 01       		.byte	0x1
 2604 0e8d A9080000 		.4byte	0x8a9
 2605 0e91 00000000 		.4byte	.LFB121
 2606 0e95 3A000000 		.4byte	.LFE121
 2607 0e99 02       		.byte	0x2
 2608 0e9a 7D       		.byte	0x7d
 2609 0e9b 00       		.sleb128 0
ARM GAS  /tmp/ccQSlWks.s 			page 47


 2610 0e9c 01       		.byte	0x1
 2611 0e9d C80E0000 		.4byte	0xec8
 2612 0ea1 21       		.uleb128 0x21
 2613 0ea2 D8040000 		.4byte	.LASF194
 2614 0ea6 01       		.byte	0x1
 2615 0ea7 B3       		.byte	0xb3
 2616 0ea8 4D0C0000 		.4byte	0xc4d
 2617 0eac 00000000 		.4byte	.LLST0
 2618 0eb0 22       		.uleb128 0x22
 2619 0eb1 280E0000 		.4byte	0xe28
 2620 0eb5 20000000 		.4byte	.LBB4
 2621 0eb9 00000000 		.4byte	.Ldebug_ranges0+0
 2622 0ebd 01       		.byte	0x1
 2623 0ebe CB       		.byte	0xcb
 2624 0ebf 23       		.uleb128 0x23
 2625 0ec0 350E0000 		.4byte	0xe35
 2626 0ec4 01       		.byte	0x1
 2627 0ec5 53       		.byte	0x53
 2628 0ec6 00       		.byte	0
 2629 0ec7 00       		.byte	0
 2630 0ec8 24       		.uleb128 0x24
 2631 0ec9 7E010000 		.4byte	.LASF210
 2632 0ecd 01       		.byte	0x1
 2633 0ece 68       		.byte	0x68
 2634 0ecf 01       		.byte	0x1
 2635 0ed0 A9080000 		.4byte	0x8a9
 2636 0ed4 00000000 		.4byte	.LFB119
 2637 0ed8 48000000 		.4byte	.LFE119
 2638 0edc 1E000000 		.4byte	.LLST1
 2639 0ee0 01       		.byte	0x1
 2640 0ee1 5A0F0000 		.4byte	0xf5a
 2641 0ee5 21       		.uleb128 0x21
 2642 0ee6 D8040000 		.4byte	.LASF194
 2643 0eea 01       		.byte	0x1
 2644 0eeb 68       		.byte	0x68
 2645 0eec 4D0C0000 		.4byte	0xc4d
 2646 0ef0 4A000000 		.4byte	.LLST2
 2647 0ef4 25       		.uleb128 0x25
 2648 0ef5 7000     		.ascii	"p\000"
 2649 0ef7 01       		.byte	0x1
 2650 0ef8 68       		.byte	0x68
 2651 0ef9 7B090000 		.4byte	0x97b
 2652 0efd 6B000000 		.4byte	.LLST3
 2653 0f01 26       		.uleb128 0x26
 2654 0f02 7100     		.ascii	"q\000"
 2655 0f04 01       		.byte	0x1
 2656 0f05 69       		.byte	0x69
 2657 0f06 7B090000 		.4byte	0x97b
 2658 0f0a A2000000 		.4byte	.LLST4
 2659 0f0e 27       		.uleb128 0x27
 2660 0f0f 746400   		.ascii	"td\000"
 2661 0f12 01       		.byte	0x1
 2662 0f13 6A       		.byte	0x6a
 2663 0f14 A0070000 		.4byte	0x7a0
 2664 0f18 02       		.byte	0x2
 2665 0f19 91       		.byte	0x91
 2666 0f1a 6C       		.sleb128 -20
ARM GAS  /tmp/ccQSlWks.s 			page 48


 2667 0f1b 28       		.uleb128 0x28
 2668 0f1c 10000000 		.4byte	.LVL6
 2669 0f20 12130000 		.4byte	0x1312
 2670 0f24 350F0000 		.4byte	0xf35
 2671 0f28 29       		.uleb128 0x29
 2672 0f29 01       		.byte	0x1
 2673 0f2a 52       		.byte	0x52
 2674 0f2b 02       		.byte	0x2
 2675 0f2c 08       		.byte	0x8
 2676 0f2d 32       		.byte	0x32
 2677 0f2e 29       		.uleb128 0x29
 2678 0f2f 01       		.byte	0x1
 2679 0f30 51       		.byte	0x51
 2680 0f31 02       		.byte	0x2
 2681 0f32 91       		.byte	0x91
 2682 0f33 6C       		.sleb128 -20
 2683 0f34 00       		.byte	0
 2684 0f35 28       		.uleb128 0x28
 2685 0f36 1E000000 		.4byte	.LVL9
 2686 0f3a 40130000 		.4byte	0x1340
 2687 0f3e 490F0000 		.4byte	0xf49
 2688 0f42 29       		.uleb128 0x29
 2689 0f43 01       		.byte	0x1
 2690 0f44 50       		.byte	0x50
 2691 0f45 02       		.byte	0x2
 2692 0f46 91       		.byte	0x91
 2693 0f47 6C       		.sleb128 -20
 2694 0f48 00       		.byte	0
 2695 0f49 2A       		.uleb128 0x2a
 2696 0f4a 2A000000 		.4byte	.LVL11
 2697 0f4e 63130000 		.4byte	0x1363
 2698 0f52 29       		.uleb128 0x29
 2699 0f53 01       		.byte	0x1
 2700 0f54 50       		.byte	0x50
 2701 0f55 02       		.byte	0x2
 2702 0f56 91       		.byte	0x91
 2703 0f57 6C       		.sleb128 -20
 2704 0f58 00       		.byte	0
 2705 0f59 00       		.byte	0
 2706 0f5a 2B       		.uleb128 0x2b
 2707 0f5b 01       		.byte	0x1
 2708 0f5c AD050000 		.4byte	.LASF248
 2709 0f60 01       		.byte	0x1
 2710 0f61 D6       		.byte	0xd6
 2711 0f62 01       		.byte	0x1
 2712 0f63 05010000 		.4byte	0x105
 2713 0f67 00000000 		.4byte	.LFB122
 2714 0f6b E8010000 		.4byte	.LFE122
 2715 0f6f B5000000 		.4byte	.LLST5
 2716 0f73 01       		.byte	0x1
 2717 0f74 AE120000 		.4byte	0x12ae
 2718 0f78 25       		.uleb128 0x25
 2719 0f79 7000     		.ascii	"p\000"
 2720 0f7b 01       		.byte	0x1
 2721 0f7c D6       		.byte	0xd6
 2722 0f7d CF020000 		.4byte	0x2cf
 2723 0f81 E2000000 		.4byte	.LLST6
ARM GAS  /tmp/ccQSlWks.s 			page 49


 2724 0f85 27       		.uleb128 0x27
 2725 0f86 65767400 		.ascii	"evt\000"
 2726 0f8a 01       		.byte	0x1
 2727 0f8b D7       		.byte	0xd7
 2728 0f8c 22080000 		.4byte	0x822
 2729 0f90 02       		.byte	0x2
 2730 0f91 91       		.byte	0x91
 2731 0f92 4C       		.sleb128 -52
 2732 0f93 27       		.uleb128 0x27
 2733 0f94 656C3000 		.ascii	"el0\000"
 2734 0f98 01       		.byte	0x1
 2735 0f99 D8       		.byte	0xd8
 2736 0f9a 03050000 		.4byte	0x503
 2737 0f9e 03       		.byte	0x3
 2738 0f9f 91       		.byte	0x91
 2739 0fa0 AC7F     		.sleb128 -84
 2740 0fa2 27       		.uleb128 0x27
 2741 0fa3 656C3100 		.ascii	"el1\000"
 2742 0fa7 01       		.byte	0x1
 2743 0fa8 D8       		.byte	0xd8
 2744 0fa9 03050000 		.4byte	0x503
 2745 0fad 03       		.byte	0x3
 2746 0fae 91       		.byte	0x91
 2747 0faf BC7F     		.sleb128 -68
 2748 0fb1 27       		.uleb128 0x27
 2749 0fb2 697000   		.ascii	"ip\000"
 2750 0fb5 01       		.byte	0x1
 2751 0fb6 D9       		.byte	0xd9
 2752 0fb7 060C0000 		.4byte	0xc06
 2753 0fbb 03       		.byte	0x3
 2754 0fbc 91       		.byte	0x91
 2755 0fbd 947F     		.sleb128 -108
 2756 0fbf 2C       		.uleb128 0x2c
 2757 0fc0 BA080000 		.4byte	.LASF131
 2758 0fc4 01       		.byte	0x1
 2759 0fc5 D9       		.byte	0xd9
 2760 0fc6 060C0000 		.4byte	0xc06
 2761 0fca 03       		.byte	0x3
 2762 0fcb 91       		.byte	0x91
 2763 0fcc 987F     		.sleb128 -104
 2764 0fce 2C       		.uleb128 0x2c
 2765 0fcf 64050000 		.4byte	.LASF130
 2766 0fd3 01       		.byte	0x1
 2767 0fd4 D9       		.byte	0xd9
 2768 0fd5 060C0000 		.4byte	0xc06
 2769 0fd9 03       		.byte	0x3
 2770 0fda 91       		.byte	0x91
 2771 0fdb 9C7F     		.sleb128 -100
 2772 0fdd 2C       		.uleb128 0x2c
 2773 0fde E3030000 		.4byte	.LASF211
 2774 0fe2 01       		.byte	0x1
 2775 0fe3 DA       		.byte	0xda
 2776 0fe4 530C0000 		.4byte	0xc53
 2777 0fe8 05       		.byte	0x5
 2778 0fe9 03       		.byte	0x3
 2779 0fea 00000000 		.4byte	thisif.7295
 2780 0fee 2C       		.uleb128 0x2c
ARM GAS  /tmp/ccQSlWks.s 			page 50


 2781 0fef 65080000 		.4byte	.LASF212
 2782 0ff3 01       		.byte	0x1
 2783 0ff4 DB       		.byte	0xdb
 2784 0ff5 58070000 		.4byte	0x758
 2785 0ff9 05       		.byte	0x5
 2786 0ffa 03       		.byte	0x3
 2787 0ffb 00000000 		.4byte	mac_config.7296
 2788 0fff 2D       		.uleb128 0x2d
 2789 1000 1E000000 		.4byte	.LBB17
 2790 1004 5C000000 		.4byte	.LBE17
 2791 1008 25100000 		.4byte	0x1025
 2792 100c 2E       		.uleb128 0x2e
 2793 100d 14060000 		.4byte	.LASF213
 2794 1011 01       		.byte	0x1
 2795 1012 E4       		.byte	0xe4
 2796 1013 AE120000 		.4byte	0x12ae
 2797 1017 26       		.uleb128 0x26
 2798 1018 6900     		.ascii	"i\000"
 2799 101a 01       		.byte	0x1
 2800 101b E5       		.byte	0xe5
 2801 101c 3B000000 		.4byte	0x3b
 2802 1020 27010000 		.4byte	.LLST7
 2803 1024 00       		.byte	0
 2804 1025 2D       		.uleb128 0x2d
 2805 1026 BE000000 		.4byte	.LBB18
 2806 102a 7C010000 		.4byte	.LBE18
 2807 102e AC110000 		.4byte	0x11ac
 2808 1032 2F       		.uleb128 0x2f
 2809 1033 6C050000 		.4byte	.LASF214
 2810 1037 01       		.byte	0x1
 2811 1038 0901     		.2byte	0x109
 2812 103a 10010000 		.4byte	0x110
 2813 103e 77010000 		.4byte	.LLST8
 2814 1042 30       		.uleb128 0x30
 2815 1043 20000000 		.4byte	.Ldebug_ranges0+0x20
 2816 1047 8E100000 		.4byte	0x108e
 2817 104b 2F       		.uleb128 0x2f
 2818 104c C8050000 		.4byte	.LASF215
 2819 1050 01       		.byte	0x1
 2820 1051 0B01     		.2byte	0x10b
 2821 1053 BC000000 		.4byte	0xbc
 2822 1057 AB010000 		.4byte	.LLST9
 2823 105b 31       		.uleb128 0x31
 2824 105c D6000000 		.4byte	.LVL39
 2825 1060 77130000 		.4byte	0x1377
 2826 1064 28       		.uleb128 0x28
 2827 1065 F2000000 		.4byte	.LVL42
 2828 1069 8F130000 		.4byte	0x138f
 2829 106d 7D100000 		.4byte	0x107d
 2830 1071 29       		.uleb128 0x29
 2831 1072 01       		.byte	0x1
 2832 1073 52       		.byte	0x52
 2833 1074 01       		.byte	0x1
 2834 1075 30       		.byte	0x30
 2835 1076 29       		.uleb128 0x29
 2836 1077 01       		.byte	0x1
 2837 1078 51       		.byte	0x51
ARM GAS  /tmp/ccQSlWks.s 			page 51


 2838 1079 02       		.byte	0x2
 2839 107a 76       		.byte	0x76
 2840 107b 00       		.sleb128 0
 2841 107c 00       		.byte	0
 2842 107d 2A       		.uleb128 0x2a
 2843 107e 58010000 		.4byte	.LVL57
 2844 1082 8F130000 		.4byte	0x138f
 2845 1086 29       		.uleb128 0x29
 2846 1087 01       		.byte	0x1
 2847 1088 51       		.byte	0x51
 2848 1089 02       		.byte	0x2
 2849 108a 76       		.byte	0x76
 2850 108b 00       		.sleb128 0
 2851 108c 00       		.byte	0
 2852 108d 00       		.byte	0
 2853 108e 30       		.uleb128 0x30
 2854 108f 38000000 		.4byte	.Ldebug_ranges0+0x38
 2855 1093 9B110000 		.4byte	0x119b
 2856 1097 32       		.uleb128 0x32
 2857 1098 7000     		.ascii	"p\000"
 2858 109a 01       		.byte	0x1
 2859 109b 1601     		.2byte	0x116
 2860 109d 7B090000 		.4byte	0x97b
 2861 10a1 30       		.uleb128 0x30
 2862 10a2 50000000 		.4byte	.Ldebug_ranges0+0x50
 2863 10a6 ED100000 		.4byte	0x10ed
 2864 10aa 2F       		.uleb128 0x2f
 2865 10ab E5000000 		.4byte	.LASF216
 2866 10af 01       		.byte	0x1
 2867 10b0 1801     		.2byte	0x118
 2868 10b2 B4120000 		.4byte	0x12b4
 2869 10b6 D4010000 		.4byte	.LLST10
 2870 10ba 31       		.uleb128 0x31
 2871 10bb 3E010000 		.4byte	.LVL52
 2872 10bf B1130000 		.4byte	0x13b1
 2873 10c3 28       		.uleb128 0x28
 2874 10c4 4E010000 		.4byte	.LVL54
 2875 10c8 C9130000 		.4byte	0x13c9
 2876 10cc D7100000 		.4byte	0x10d7
 2877 10d0 29       		.uleb128 0x29
 2878 10d1 01       		.byte	0x1
 2879 10d2 50       		.byte	0x50
 2880 10d3 02       		.byte	0x2
 2881 10d4 75       		.byte	0x75
 2882 10d5 00       		.sleb128 0
 2883 10d6 00       		.byte	0
 2884 10d7 33       		.uleb128 0x33
 2885 10d8 62010000 		.4byte	.LVL60
 2886 10dc 02       		.byte	0x2
 2887 10dd 74       		.byte	0x74
 2888 10de 00       		.sleb128 0
 2889 10df 29       		.uleb128 0x29
 2890 10e0 01       		.byte	0x1
 2891 10e1 51       		.byte	0x51
 2892 10e2 02       		.byte	0x2
 2893 10e3 76       		.byte	0x76
 2894 10e4 00       		.sleb128 0
ARM GAS  /tmp/ccQSlWks.s 			page 52


 2895 10e5 29       		.uleb128 0x29
 2896 10e6 01       		.byte	0x1
 2897 10e7 50       		.byte	0x50
 2898 10e8 02       		.byte	0x2
 2899 10e9 75       		.byte	0x75
 2900 10ea 00       		.sleb128 0
 2901 10eb 00       		.byte	0
 2902 10ec 00       		.byte	0
 2903 10ed 34       		.uleb128 0x34
 2904 10ee 410E0000 		.4byte	0xe41
 2905 10f2 FA000000 		.4byte	.LBB22
 2906 10f6 78000000 		.4byte	.Ldebug_ranges0+0x78
 2907 10fa 01       		.byte	0x1
 2908 10fb 1701     		.2byte	0x117
 2909 10fd 35       		.uleb128 0x35
 2910 10fe 98000000 		.4byte	.Ldebug_ranges0+0x98
 2911 1102 36       		.uleb128 0x36
 2912 1103 520E0000 		.4byte	0xe52
 2913 1107 37       		.uleb128 0x37
 2914 1108 5D0E0000 		.4byte	0xe5d
 2915 110c 03       		.byte	0x3
 2916 110d 91       		.byte	0x91
 2917 110e A07F     		.sleb128 -96
 2918 1110 38       		.uleb128 0x38
 2919 1111 670E0000 		.4byte	0xe67
 2920 1115 E7010000 		.4byte	.LLST11
 2921 1119 38       		.uleb128 0x38
 2922 111a 700E0000 		.4byte	0xe70
 2923 111e 26020000 		.4byte	.LLST12
 2924 1122 38       		.uleb128 0x38
 2925 1123 790E0000 		.4byte	0xe79
 2926 1127 44020000 		.4byte	.LLST13
 2927 112b 28       		.uleb128 0x28
 2928 112c 04010000 		.4byte	.LVL44
 2929 1130 E1130000 		.4byte	0x13e1
 2930 1134 45110000 		.4byte	0x1145
 2931 1138 29       		.uleb128 0x29
 2932 1139 01       		.byte	0x1
 2933 113a 52       		.byte	0x52
 2934 113b 01       		.byte	0x1
 2935 113c 30       		.byte	0x30
 2936 113d 29       		.uleb128 0x29
 2937 113e 01       		.byte	0x1
 2938 113f 51       		.byte	0x51
 2939 1140 03       		.byte	0x3
 2940 1141 91       		.byte	0x91
 2941 1142 A07F     		.sleb128 -96
 2942 1144 00       		.byte	0
 2943 1145 28       		.uleb128 0x28
 2944 1146 14010000 		.4byte	.LVL46
 2945 114a 09140000 		.4byte	0x1409
 2946 114e 5D110000 		.4byte	0x115d
 2947 1152 29       		.uleb128 0x29
 2948 1153 01       		.byte	0x1
 2949 1154 52       		.byte	0x52
 2950 1155 01       		.byte	0x1
 2951 1156 33       		.byte	0x33
ARM GAS  /tmp/ccQSlWks.s 			page 53


 2952 1157 29       		.uleb128 0x29
 2953 1158 01       		.byte	0x1
 2954 1159 50       		.byte	0x50
 2955 115a 01       		.byte	0x1
 2956 115b 33       		.byte	0x33
 2957 115c 00       		.byte	0
 2958 115d 28       		.uleb128 0x28
 2959 115e 24010000 		.4byte	.LVL48
 2960 1162 2B140000 		.4byte	0x142b
 2961 1166 72110000 		.4byte	0x1172
 2962 116a 29       		.uleb128 0x29
 2963 116b 01       		.byte	0x1
 2964 116c 50       		.byte	0x50
 2965 116d 03       		.byte	0x3
 2966 116e 91       		.byte	0x91
 2967 116f A07F     		.sleb128 -96
 2968 1171 00       		.byte	0
 2969 1172 28       		.uleb128 0x28
 2970 1173 30010000 		.4byte	.LVL50
 2971 1177 4E140000 		.4byte	0x144e
 2972 117b 87110000 		.4byte	0x1187
 2973 117f 29       		.uleb128 0x29
 2974 1180 01       		.byte	0x1
 2975 1181 50       		.byte	0x50
 2976 1182 03       		.byte	0x3
 2977 1183 91       		.byte	0x91
 2978 1184 A07F     		.sleb128 -96
 2979 1186 00       		.byte	0
 2980 1187 2A       		.uleb128 0x2a
 2981 1188 6E010000 		.4byte	.LVL63
 2982 118c 4E140000 		.4byte	0x144e
 2983 1190 29       		.uleb128 0x29
 2984 1191 01       		.byte	0x1
 2985 1192 50       		.byte	0x50
 2986 1193 03       		.byte	0x3
 2987 1194 91       		.byte	0x91
 2988 1195 A07F     		.sleb128 -96
 2989 1197 00       		.byte	0
 2990 1198 00       		.byte	0
 2991 1199 00       		.byte	0
 2992 119a 00       		.byte	0
 2993 119b 2A       		.uleb128 0x2a
 2994 119c CA000000 		.4byte	.LVL36
 2995 11a0 62140000 		.4byte	0x1462
 2996 11a4 29       		.uleb128 0x29
 2997 11a5 01       		.byte	0x1
 2998 11a6 50       		.byte	0x50
 2999 11a7 02       		.byte	0x2
 3000 11a8 09       		.byte	0x9
 3001 11a9 FF       		.byte	0xff
 3002 11aa 00       		.byte	0
 3003 11ab 00       		.byte	0
 3004 11ac 28       		.uleb128 0x28
 3005 11ad 18000000 		.4byte	.LVL16
 3006 11b1 7A140000 		.4byte	0x147a
 3007 11b5 C4110000 		.4byte	0x11c4
 3008 11b9 29       		.uleb128 0x29
ARM GAS  /tmp/ccQSlWks.s 			page 54


 3009 11ba 01       		.byte	0x1
 3010 11bb 51       		.byte	0x51
 3011 11bc 01       		.byte	0x1
 3012 11bd 30       		.byte	0x30
 3013 11be 29       		.uleb128 0x29
 3014 11bf 01       		.byte	0x1
 3015 11c0 50       		.byte	0x50
 3016 11c1 01       		.byte	0x1
 3017 11c2 30       		.byte	0x30
 3018 11c3 00       		.byte	0
 3019 11c4 28       		.uleb128 0x28
 3020 11c5 66000000 		.4byte	.LVL25
 3021 11c9 93140000 		.4byte	0x1493
 3022 11cd DB110000 		.4byte	0x11db
 3023 11d1 29       		.uleb128 0x29
 3024 11d2 01       		.byte	0x1
 3025 11d3 51       		.byte	0x51
 3026 11d4 05       		.byte	0x5
 3027 11d5 03       		.byte	0x3
 3028 11d6 00000000 		.4byte	.LANCHOR1
 3029 11da 00       		.byte	0
 3030 11db 28       		.uleb128 0x28
 3031 11dc 7E000000 		.4byte	.LVL26
 3032 11e0 AC140000 		.4byte	0x14ac
 3033 11e4 15120000 		.4byte	0x1215
 3034 11e8 29       		.uleb128 0x29
 3035 11e9 01       		.byte	0x1
 3036 11ea 53       		.byte	0x53
 3037 11eb 03       		.byte	0x3
 3038 11ec 91       		.byte	0x91
 3039 11ed 987F     		.sleb128 -104
 3040 11ef 29       		.uleb128 0x29
 3041 11f0 01       		.byte	0x1
 3042 11f1 52       		.byte	0x52
 3043 11f2 03       		.byte	0x3
 3044 11f3 91       		.byte	0x91
 3045 11f4 9C7F     		.sleb128 -100
 3046 11f6 29       		.uleb128 0x29
 3047 11f7 01       		.byte	0x1
 3048 11f8 51       		.byte	0x51
 3049 11f9 03       		.byte	0x3
 3050 11fa 91       		.byte	0x91
 3051 11fb 947F     		.sleb128 -108
 3052 11fd 29       		.uleb128 0x29
 3053 11fe 01       		.byte	0x1
 3054 11ff 50       		.byte	0x50
 3055 1200 02       		.byte	0x2
 3056 1201 76       		.byte	0x76
 3057 1202 00       		.sleb128 0
 3058 1203 29       		.uleb128 0x29
 3059 1204 02       		.byte	0x2
 3060 1205 7D       		.byte	0x7d
 3061 1206 04       		.sleb128 4
 3062 1207 05       		.byte	0x5
 3063 1208 03       		.byte	0x3
 3064 1209 00000000 		.4byte	ethernetif_init
 3065 120d 29       		.uleb128 0x29
ARM GAS  /tmp/ccQSlWks.s 			page 55


 3066 120e 02       		.byte	0x2
 3067 120f 7D       		.byte	0x7d
 3068 1210 00       		.sleb128 0
 3069 1211 02       		.byte	0x2
 3070 1212 74       		.byte	0x74
 3071 1213 00       		.sleb128 0
 3072 1214 00       		.byte	0
 3073 1215 28       		.uleb128 0x28
 3074 1216 84000000 		.4byte	.LVL27
 3075 121a E3140000 		.4byte	0x14e3
 3076 121e 29120000 		.4byte	0x1229
 3077 1222 29       		.uleb128 0x29
 3078 1223 01       		.byte	0x1
 3079 1224 50       		.byte	0x50
 3080 1225 02       		.byte	0x2
 3081 1226 76       		.byte	0x76
 3082 1227 00       		.sleb128 0
 3083 1228 00       		.byte	0
 3084 1229 28       		.uleb128 0x28
 3085 122a 8A000000 		.4byte	.LVL28
 3086 122e F8140000 		.4byte	0x14f8
 3087 1232 3D120000 		.4byte	0x123d
 3088 1236 29       		.uleb128 0x29
 3089 1237 01       		.byte	0x1
 3090 1238 50       		.byte	0x50
 3091 1239 02       		.byte	0x2
 3092 123a 76       		.byte	0x76
 3093 123b 00       		.sleb128 0
 3094 123c 00       		.byte	0
 3095 123d 28       		.uleb128 0x28
 3096 123e 9C000000 		.4byte	.LVL29
 3097 1242 0D150000 		.4byte	0x150d
 3098 1246 51120000 		.4byte	0x1251
 3099 124a 29       		.uleb128 0x29
 3100 124b 01       		.byte	0x1
 3101 124c 50       		.byte	0x50
 3102 124d 02       		.byte	0x2
 3103 124e 91       		.byte	0x91
 3104 124f 4C       		.sleb128 -52
 3105 1250 00       		.byte	0
 3106 1251 28       		.uleb128 0x28
 3107 1252 A6000000 		.4byte	.LVL30
 3108 1256 27150000 		.4byte	0x1527
 3109 125a 71120000 		.4byte	0x1271
 3110 125e 29       		.uleb128 0x29
 3111 125f 01       		.byte	0x1
 3112 1260 52       		.byte	0x52
 3113 1261 01       		.byte	0x1
 3114 1262 31       		.byte	0x31
 3115 1263 29       		.uleb128 0x29
 3116 1264 01       		.byte	0x1
 3117 1265 51       		.byte	0x51
 3118 1266 03       		.byte	0x3
 3119 1267 91       		.byte	0x91
 3120 1268 AC7F     		.sleb128 -84
 3121 126a 29       		.uleb128 0x29
 3122 126b 01       		.byte	0x1
ARM GAS  /tmp/ccQSlWks.s 			page 56


 3123 126c 50       		.byte	0x50
 3124 126d 02       		.byte	0x2
 3125 126e 75       		.byte	0x75
 3126 126f 00       		.sleb128 0
 3127 1270 00       		.byte	0
 3128 1271 28       		.uleb128 0x28
 3129 1272 B0000000 		.4byte	.LVL31
 3130 1276 27150000 		.4byte	0x1527
 3131 127a 8B120000 		.4byte	0x128b
 3132 127e 29       		.uleb128 0x29
 3133 127f 01       		.byte	0x1
 3134 1280 52       		.byte	0x52
 3135 1281 01       		.byte	0x1
 3136 1282 32       		.byte	0x32
 3137 1283 29       		.uleb128 0x29
 3138 1284 01       		.byte	0x1
 3139 1285 51       		.byte	0x51
 3140 1286 03       		.byte	0x3
 3141 1287 91       		.byte	0x91
 3142 1288 BC7F     		.sleb128 -68
 3143 128a 00       		.byte	0
 3144 128b 28       		.uleb128 0x28
 3145 128c B6000000 		.4byte	.LVL32
 3146 1290 4B150000 		.4byte	0x154b
 3147 1294 9E120000 		.4byte	0x129e
 3148 1298 29       		.uleb128 0x29
 3149 1299 01       		.byte	0x1
 3150 129a 50       		.byte	0x50
 3151 129b 01       		.byte	0x1
 3152 129c 33       		.byte	0x33
 3153 129d 00       		.byte	0
 3154 129e 2A       		.uleb128 0x2a
 3155 129f BC000000 		.4byte	.LVL33
 3156 12a3 63150000 		.4byte	0x1563
 3157 12a7 29       		.uleb128 0x29
 3158 12a8 01       		.byte	0x1
 3159 12a9 50       		.byte	0x50
 3160 12aa 01       		.byte	0x1
 3161 12ab 32       		.byte	0x32
 3162 12ac 00       		.byte	0
 3163 12ad 00       		.byte	0
 3164 12ae 09       		.uleb128 0x9
 3165 12af 04       		.byte	0x4
 3166 12b0 59080000 		.4byte	0x859
 3167 12b4 09       		.uleb128 0x9
 3168 12b5 04       		.byte	0x4
 3169 12b6 F10D0000 		.4byte	0xdf1
 3170 12ba 39       		.uleb128 0x39
 3171 12bb 47080000 		.4byte	.LASF217
 3172 12bf 09       		.byte	0x9
 3173 12c0 68       		.byte	0x68
 3174 12c1 7C040000 		.4byte	0x47c
 3175 12c5 01       		.byte	0x1
 3176 12c6 01       		.byte	0x1
 3177 12c7 3A       		.uleb128 0x3a
 3178 12c8 77050000 		.4byte	.LASF218
 3179 12cc 1B       		.byte	0x1b
ARM GAS  /tmp/ccQSlWks.s 			page 57


 3180 12cd 9806     		.2byte	0x698
 3181 12cf D2050000 		.4byte	0x5d2
 3182 12d3 01       		.byte	0x1
 3183 12d4 01       		.byte	0x1
 3184 12d5 3A       		.uleb128 0x3a
 3185 12d6 0A010000 		.4byte	.LASF219
 3186 12da 0E       		.byte	0xe
 3187 12db 4501     		.2byte	0x145
 3188 12dd FD050000 		.4byte	0x5fd
 3189 12e1 01       		.byte	0x1
 3190 12e2 01       		.byte	0x1
 3191 12e3 19       		.uleb128 0x19
 3192 12e4 D1020000 		.4byte	0x2d1
 3193 12e8 F3120000 		.4byte	0x12f3
 3194 12ec 1A       		.uleb128 0x1a
 3195 12ed 92030000 		.4byte	0x392
 3196 12f1 55       		.byte	0x55
 3197 12f2 00       		.byte	0
 3198 12f3 3B       		.uleb128 0x3b
 3199 12f4 ED070000 		.4byte	.LASF220
 3200 12f8 01       		.byte	0x1
 3201 12f9 52       		.byte	0x52
 3202 12fa E3120000 		.4byte	0x12e3
 3203 12fe 01       		.byte	0x1
 3204 12ff 05       		.byte	0x5
 3205 1300 03       		.byte	0x3
 3206 1301 00000000 		.4byte	wa_lwip_thread
 3207 1305 39       		.uleb128 0x39
 3208 1306 9A080000 		.4byte	.LASF221
 3209 130a 16       		.byte	0x16
 3210 130b 95       		.byte	0x95
 3211 130c 590B0000 		.4byte	0xb59
 3212 1310 01       		.byte	0x1
 3213 1311 01       		.byte	0x1
 3214 1312 3C       		.uleb128 0x3c
 3215 1313 01       		.byte	0x1
 3216 1314 7B040000 		.4byte	.LASF222
 3217 1318 0D       		.byte	0xd
 3218 1319 C5       		.byte	0xc5
 3219 131a 01       		.byte	0x1
 3220 131b 05010000 		.4byte	0x105
 3221 131f 01       		.byte	0x1
 3222 1320 34130000 		.4byte	0x1334
 3223 1324 0F       		.uleb128 0xf
 3224 1325 34130000 		.4byte	0x1334
 3225 1329 0F       		.uleb128 0xf
 3226 132a 3A130000 		.4byte	0x133a
 3227 132e 0F       		.uleb128 0xf
 3228 132f 26010000 		.4byte	0x126
 3229 1333 00       		.byte	0
 3230 1334 09       		.uleb128 0x9
 3231 1335 04       		.byte	0x4
 3232 1336 FD050000 		.4byte	0x5fd
 3233 133a 09       		.uleb128 0x9
 3234 133b 04       		.byte	0x4
 3235 133c A0070000 		.4byte	0x7a0
 3236 1340 3D       		.uleb128 0x3d
ARM GAS  /tmp/ccQSlWks.s 			page 58


 3237 1341 01       		.byte	0x1
 3238 1342 06020000 		.4byte	.LASF223
 3239 1346 0E       		.byte	0xe
 3240 1347 5501     		.2byte	0x155
 3241 1349 01       		.byte	0x1
 3242 134a 30000000 		.4byte	0x30
 3243 134e 01       		.byte	0x1
 3244 134f 63130000 		.4byte	0x1363
 3245 1353 0F       		.uleb128 0xf
 3246 1354 3A130000 		.4byte	0x133a
 3247 1358 0F       		.uleb128 0xf
 3248 1359 CC050000 		.4byte	0x5cc
 3249 135d 0F       		.uleb128 0xf
 3250 135e 30000000 		.4byte	0x30
 3251 1362 00       		.byte	0
 3252 1363 3E       		.uleb128 0x3e
 3253 1364 01       		.byte	0x1
 3254 1365 C2080000 		.4byte	.LASF231
 3255 1369 0D       		.byte	0xd
 3256 136a C8       		.byte	0xc8
 3257 136b 01       		.byte	0x1
 3258 136c 01       		.byte	0x1
 3259 136d 77130000 		.4byte	0x1377
 3260 1371 0F       		.uleb128 0xf
 3261 1372 3A130000 		.4byte	0x133a
 3262 1376 00       		.byte	0
 3263 1377 3C       		.uleb128 0x3c
 3264 1378 01       		.byte	0x1
 3265 1379 75090000 		.4byte	.LASF224
 3266 137d 0D       		.byte	0xd
 3267 137e CD       		.byte	0xcd
 3268 137f 01       		.byte	0x1
 3269 1380 BC000000 		.4byte	0xbc
 3270 1384 01       		.byte	0x1
 3271 1385 8F130000 		.4byte	0x138f
 3272 1389 0F       		.uleb128 0xf
 3273 138a 34130000 		.4byte	0x1334
 3274 138e 00       		.byte	0
 3275 138f 3C       		.uleb128 0x3c
 3276 1390 01       		.byte	0x1
 3277 1391 17040000 		.4byte	.LASF225
 3278 1395 19       		.byte	0x19
 3279 1396 65       		.byte	0x65
 3280 1397 01       		.byte	0x1
 3281 1398 A9080000 		.4byte	0x8a9
 3282 139c 01       		.byte	0x1
 3283 139d B1130000 		.4byte	0x13b1
 3284 13a1 0F       		.uleb128 0xf
 3285 13a2 CB0D0000 		.4byte	0xdcb
 3286 13a6 0F       		.uleb128 0xf
 3287 13a7 CF020000 		.4byte	0x2cf
 3288 13ab 0F       		.uleb128 0xf
 3289 13ac 2D080000 		.4byte	0x82d
 3290 13b0 00       		.byte	0
 3291 13b1 3C       		.uleb128 0x3c
 3292 13b2 01       		.byte	0x1
 3293 13b3 6C010000 		.4byte	.LASF226
ARM GAS  /tmp/ccQSlWks.s 			page 59


 3294 13b7 1C       		.byte	0x1c
 3295 13b8 63       		.byte	0x63
 3296 13b9 01       		.byte	0x1
 3297 13ba 43080000 		.4byte	0x843
 3298 13be 01       		.byte	0x1
 3299 13bf C9130000 		.4byte	0x13c9
 3300 13c3 0F       		.uleb128 0xf
 3301 13c4 43080000 		.4byte	0x843
 3302 13c8 00       		.byte	0
 3303 13c9 3C       		.uleb128 0x3c
 3304 13ca 01       		.byte	0x1
 3305 13cb 29080000 		.4byte	.LASF227
 3306 13cf 14       		.byte	0x14
 3307 13d0 9B       		.byte	0x9b
 3308 13d1 01       		.byte	0x1
 3309 13d2 2D080000 		.4byte	0x82d
 3310 13d6 01       		.byte	0x1
 3311 13d7 E1130000 		.4byte	0x13e1
 3312 13db 0F       		.uleb128 0xf
 3313 13dc 7B090000 		.4byte	0x97b
 3314 13e0 00       		.byte	0
 3315 13e1 3C       		.uleb128 0x3c
 3316 13e2 01       		.byte	0x1
 3317 13e3 4A030000 		.4byte	.LASF228
 3318 13e7 0D       		.byte	0xd
 3319 13e8 C9       		.byte	0xc9
 3320 13e9 01       		.byte	0x1
 3321 13ea 05010000 		.4byte	0x105
 3322 13ee 01       		.byte	0x1
 3323 13ef 03140000 		.4byte	0x1403
 3324 13f3 0F       		.uleb128 0xf
 3325 13f4 34130000 		.4byte	0x1334
 3326 13f8 0F       		.uleb128 0xf
 3327 13f9 03140000 		.4byte	0x1403
 3328 13fd 0F       		.uleb128 0xf
 3329 13fe 26010000 		.4byte	0x126
 3330 1402 00       		.byte	0
 3331 1403 09       		.uleb128 0x9
 3332 1404 04       		.byte	0x4
 3333 1405 E3070000 		.4byte	0x7e3
 3334 1409 3C       		.uleb128 0x3c
 3335 140a 01       		.byte	0x1
 3336 140b B5070000 		.4byte	.LASF229
 3337 140f 14       		.byte	0x14
 3338 1410 92       		.byte	0x92
 3339 1411 01       		.byte	0x1
 3340 1412 7B090000 		.4byte	0x97b
 3341 1416 01       		.byte	0x1
 3342 1417 2B140000 		.4byte	0x142b
 3343 141b 0F       		.uleb128 0xf
 3344 141c D5080000 		.4byte	0x8d5
 3345 1420 0F       		.uleb128 0xf
 3346 1421 43080000 		.4byte	0x843
 3347 1425 0F       		.uleb128 0xf
 3348 1426 01090000 		.4byte	0x901
 3349 142a 00       		.byte	0
 3350 142b 3D       		.uleb128 0x3d
ARM GAS  /tmp/ccQSlWks.s 			page 60


 3351 142c 01       		.byte	0x1
 3352 142d 28020000 		.4byte	.LASF230
 3353 1431 0E       		.byte	0xe
 3354 1432 5801     		.2byte	0x158
 3355 1434 01       		.byte	0x1
 3356 1435 30000000 		.4byte	0x30
 3357 1439 01       		.byte	0x1
 3358 143a 4E140000 		.4byte	0x144e
 3359 143e 0F       		.uleb128 0xf
 3360 143f 03140000 		.4byte	0x1403
 3361 1443 0F       		.uleb128 0xf
 3362 1444 CC050000 		.4byte	0x5cc
 3363 1448 0F       		.uleb128 0xf
 3364 1449 30000000 		.4byte	0x30
 3365 144d 00       		.byte	0
 3366 144e 3E       		.uleb128 0x3e
 3367 144f 01       		.byte	0x1
 3368 1450 F6020000 		.4byte	.LASF232
 3369 1454 0D       		.byte	0xd
 3370 1455 CC       		.byte	0xcc
 3371 1456 01       		.byte	0x1
 3372 1457 01       		.byte	0x1
 3373 1458 62140000 		.4byte	0x1462
 3374 145c 0F       		.uleb128 0xf
 3375 145d 03140000 		.4byte	0x1403
 3376 1461 00       		.byte	0
 3377 1462 3C       		.uleb128 0x3c
 3378 1463 01       		.byte	0x1
 3379 1464 EB090000 		.4byte	.LASF233
 3380 1468 0C       		.byte	0xc
 3381 1469 B7       		.byte	0xb7
 3382 146a 01       		.byte	0x1
 3383 146b 10010000 		.4byte	0x110
 3384 146f 01       		.byte	0x1
 3385 1470 7A140000 		.4byte	0x147a
 3386 1474 0F       		.uleb128 0xf
 3387 1475 10010000 		.4byte	0x110
 3388 1479 00       		.byte	0
 3389 147a 3E       		.uleb128 0x3e
 3390 147b 01       		.byte	0x1
 3391 147c 38090000 		.4byte	.LASF234
 3392 1480 19       		.byte	0x19
 3393 1481 53       		.byte	0x53
 3394 1482 01       		.byte	0x1
 3395 1483 01       		.byte	0x1
 3396 1484 93140000 		.4byte	0x1493
 3397 1488 0F       		.uleb128 0xf
 3398 1489 C00D0000 		.4byte	0xdc0
 3399 148d 0F       		.uleb128 0xf
 3400 148e CF020000 		.4byte	0x2cf
 3401 1492 00       		.byte	0
 3402 1493 3E       		.uleb128 0x3e
 3403 1494 01       		.byte	0x1
 3404 1495 18080000 		.4byte	.LASF235
 3405 1499 0D       		.byte	0xd
 3406 149a C2       		.byte	0xc2
 3407 149b 01       		.byte	0x1
ARM GAS  /tmp/ccQSlWks.s 			page 61


 3408 149c 01       		.byte	0x1
 3409 149d AC140000 		.4byte	0x14ac
 3410 14a1 0F       		.uleb128 0xf
 3411 14a2 34130000 		.4byte	0x1334
 3412 14a6 0F       		.uleb128 0xf
 3413 14a7 52070000 		.4byte	0x752
 3414 14ab 00       		.byte	0
 3415 14ac 3D       		.uleb128 0x3d
 3416 14ad 01       		.byte	0x1
 3417 14ae DF080000 		.4byte	.LASF236
 3418 14b2 18       		.byte	0x18
 3419 14b3 0301     		.2byte	0x103
 3420 14b5 01       		.byte	0x1
 3421 14b6 4D0C0000 		.4byte	0xc4d
 3422 14ba 01       		.byte	0x1
 3423 14bb E3140000 		.4byte	0x14e3
 3424 14bf 0F       		.uleb128 0xf
 3425 14c0 4D0C0000 		.4byte	0xc4d
 3426 14c4 0F       		.uleb128 0xf
 3427 14c5 740D0000 		.4byte	0xd74
 3428 14c9 0F       		.uleb128 0xf
 3429 14ca 740D0000 		.4byte	0xd74
 3430 14ce 0F       		.uleb128 0xf
 3431 14cf 740D0000 		.4byte	0xd74
 3432 14d3 0F       		.uleb128 0xf
 3433 14d4 CF020000 		.4byte	0x2cf
 3434 14d8 0F       		.uleb128 0xf
 3435 14d9 2C0C0000 		.4byte	0xc2c
 3436 14dd 0F       		.uleb128 0xf
 3437 14de 230D0000 		.4byte	0xd23
 3438 14e2 00       		.byte	0
 3439 14e3 3F       		.uleb128 0x3f
 3440 14e4 01       		.byte	0x1
 3441 14e5 A8040000 		.4byte	.LASF237
 3442 14e9 18       		.byte	0x18
 3443 14ea 1101     		.2byte	0x111
 3444 14ec 01       		.byte	0x1
 3445 14ed 01       		.byte	0x1
 3446 14ee F8140000 		.4byte	0x14f8
 3447 14f2 0F       		.uleb128 0xf
 3448 14f3 4D0C0000 		.4byte	0xc4d
 3449 14f7 00       		.byte	0
 3450 14f8 3F       		.uleb128 0x3f
 3451 14f9 01       		.byte	0x1
 3452 14fa 5F090000 		.4byte	.LASF238
 3453 14fe 18       		.byte	0x18
 3454 14ff 1701     		.2byte	0x117
 3455 1501 01       		.byte	0x1
 3456 1502 01       		.byte	0x1
 3457 1503 0D150000 		.4byte	0x150d
 3458 1507 0F       		.uleb128 0xf
 3459 1508 4D0C0000 		.4byte	0xc4d
 3460 150c 00       		.byte	0
 3461 150d 3E       		.uleb128 0x3e
 3462 150e 01       		.byte	0x1
 3463 150f 530A0000 		.4byte	.LASF239
 3464 1513 0F       		.byte	0xf
ARM GAS  /tmp/ccQSlWks.s 			page 62


 3465 1514 30       		.byte	0x30
 3466 1515 01       		.byte	0x1
 3467 1516 01       		.byte	0x1
 3468 1517 21150000 		.4byte	0x1521
 3469 151b 0F       		.uleb128 0xf
 3470 151c 21150000 		.4byte	0x1521
 3471 1520 00       		.byte	0
 3472 1521 09       		.uleb128 0x9
 3473 1522 04       		.byte	0x4
 3474 1523 22080000 		.4byte	0x822
 3475 1527 3E       		.uleb128 0x3e
 3476 1528 01       		.byte	0x1
 3477 1529 8E090000 		.4byte	.LASF240
 3478 152d 0C       		.byte	0xc
 3479 152e A8       		.byte	0xa8
 3480 152f 01       		.byte	0x1
 3481 1530 01       		.byte	0x1
 3482 1531 45150000 		.4byte	0x1545
 3483 1535 0F       		.uleb128 0xf
 3484 1536 45150000 		.4byte	0x1545
 3485 153a 0F       		.uleb128 0xf
 3486 153b 53050000 		.4byte	0x553
 3487 153f 0F       		.uleb128 0xf
 3488 1540 10010000 		.4byte	0x110
 3489 1544 00       		.byte	0
 3490 1545 09       		.uleb128 0x9
 3491 1546 04       		.byte	0x4
 3492 1547 74050000 		.4byte	0x574
 3493 154b 3C       		.uleb128 0x3c
 3494 154c 01       		.byte	0x1
 3495 154d 9E050000 		.4byte	.LASF241
 3496 1551 0C       		.byte	0xc
 3497 1552 AD       		.byte	0xad
 3498 1553 01       		.byte	0x1
 3499 1554 10010000 		.4byte	0x110
 3500 1558 01       		.byte	0x1
 3501 1559 63150000 		.4byte	0x1563
 3502 155d 0F       		.uleb128 0xf
 3503 155e 10010000 		.4byte	0x110
 3504 1562 00       		.byte	0
 3505 1563 40       		.uleb128 0x40
 3506 1564 01       		.byte	0x1
 3507 1565 4D000000 		.4byte	.LASF242
 3508 1569 06       		.byte	0x6
 3509 156a 6B01     		.2byte	0x16b
 3510 156c 01       		.byte	0x1
 3511 156d FA000000 		.4byte	0xfa
 3512 1571 01       		.byte	0x1
 3513 1572 0F       		.uleb128 0xf
 3514 1573 FA000000 		.4byte	0xfa
 3515 1577 00       		.byte	0
 3516 1578 00       		.byte	0
 3517              		.section	.debug_abbrev,"",%progbits
 3518              	.Ldebug_abbrev0:
 3519 0000 01       		.uleb128 0x1
 3520 0001 11       		.uleb128 0x11
 3521 0002 01       		.byte	0x1
ARM GAS  /tmp/ccQSlWks.s 			page 63


 3522 0003 25       		.uleb128 0x25
 3523 0004 0E       		.uleb128 0xe
 3524 0005 13       		.uleb128 0x13
 3525 0006 0B       		.uleb128 0xb
 3526 0007 03       		.uleb128 0x3
 3527 0008 0E       		.uleb128 0xe
 3528 0009 1B       		.uleb128 0x1b
 3529 000a 0E       		.uleb128 0xe
 3530 000b 55       		.uleb128 0x55
 3531 000c 06       		.uleb128 0x6
 3532 000d 11       		.uleb128 0x11
 3533 000e 01       		.uleb128 0x1
 3534 000f 52       		.uleb128 0x52
 3535 0010 01       		.uleb128 0x1
 3536 0011 10       		.uleb128 0x10
 3537 0012 06       		.uleb128 0x6
 3538 0013 00       		.byte	0
 3539 0014 00       		.byte	0
 3540 0015 02       		.uleb128 0x2
 3541 0016 24       		.uleb128 0x24
 3542 0017 00       		.byte	0
 3543 0018 0B       		.uleb128 0xb
 3544 0019 0B       		.uleb128 0xb
 3545 001a 3E       		.uleb128 0x3e
 3546 001b 0B       		.uleb128 0xb
 3547 001c 03       		.uleb128 0x3
 3548 001d 08       		.uleb128 0x8
 3549 001e 00       		.byte	0
 3550 001f 00       		.byte	0
 3551 0020 03       		.uleb128 0x3
 3552 0021 16       		.uleb128 0x16
 3553 0022 00       		.byte	0
 3554 0023 03       		.uleb128 0x3
 3555 0024 0E       		.uleb128 0xe
 3556 0025 3A       		.uleb128 0x3a
 3557 0026 0B       		.uleb128 0xb
 3558 0027 3B       		.uleb128 0x3b
 3559 0028 0B       		.uleb128 0xb
 3560 0029 49       		.uleb128 0x49
 3561 002a 13       		.uleb128 0x13
 3562 002b 00       		.byte	0
 3563 002c 00       		.byte	0
 3564 002d 04       		.uleb128 0x4
 3565 002e 24       		.uleb128 0x24
 3566 002f 00       		.byte	0
 3567 0030 0B       		.uleb128 0xb
 3568 0031 0B       		.uleb128 0xb
 3569 0032 3E       		.uleb128 0x3e
 3570 0033 0B       		.uleb128 0xb
 3571 0034 03       		.uleb128 0x3
 3572 0035 0E       		.uleb128 0xe
 3573 0036 00       		.byte	0
 3574 0037 00       		.byte	0
 3575 0038 05       		.uleb128 0x5
 3576 0039 13       		.uleb128 0x13
 3577 003a 01       		.byte	0x1
 3578 003b 03       		.uleb128 0x3
ARM GAS  /tmp/ccQSlWks.s 			page 64


 3579 003c 0E       		.uleb128 0xe
 3580 003d 0B       		.uleb128 0xb
 3581 003e 0B       		.uleb128 0xb
 3582 003f 3A       		.uleb128 0x3a
 3583 0040 0B       		.uleb128 0xb
 3584 0041 3B       		.uleb128 0x3b
 3585 0042 0B       		.uleb128 0xb
 3586 0043 01       		.uleb128 0x1
 3587 0044 13       		.uleb128 0x13
 3588 0045 00       		.byte	0
 3589 0046 00       		.byte	0
 3590 0047 06       		.uleb128 0x6
 3591 0048 0D       		.uleb128 0xd
 3592 0049 00       		.byte	0
 3593 004a 03       		.uleb128 0x3
 3594 004b 0E       		.uleb128 0xe
 3595 004c 3A       		.uleb128 0x3a
 3596 004d 0B       		.uleb128 0xb
 3597 004e 3B       		.uleb128 0x3b
 3598 004f 0B       		.uleb128 0xb
 3599 0050 49       		.uleb128 0x49
 3600 0051 13       		.uleb128 0x13
 3601 0052 38       		.uleb128 0x38
 3602 0053 0A       		.uleb128 0xa
 3603 0054 00       		.byte	0
 3604 0055 00       		.byte	0
 3605 0056 07       		.uleb128 0x7
 3606 0057 0D       		.uleb128 0xd
 3607 0058 00       		.byte	0
 3608 0059 03       		.uleb128 0x3
 3609 005a 08       		.uleb128 0x8
 3610 005b 3A       		.uleb128 0x3a
 3611 005c 0B       		.uleb128 0xb
 3612 005d 3B       		.uleb128 0x3b
 3613 005e 0B       		.uleb128 0xb
 3614 005f 49       		.uleb128 0x49
 3615 0060 13       		.uleb128 0x13
 3616 0061 38       		.uleb128 0x38
 3617 0062 0A       		.uleb128 0xa
 3618 0063 00       		.byte	0
 3619 0064 00       		.byte	0
 3620 0065 08       		.uleb128 0x8
 3621 0066 13       		.uleb128 0x13
 3622 0067 01       		.byte	0x1
 3623 0068 0B       		.uleb128 0xb
 3624 0069 0B       		.uleb128 0xb
 3625 006a 3A       		.uleb128 0x3a
 3626 006b 0B       		.uleb128 0xb
 3627 006c 3B       		.uleb128 0x3b
 3628 006d 0B       		.uleb128 0xb
 3629 006e 01       		.uleb128 0x1
 3630 006f 13       		.uleb128 0x13
 3631 0070 00       		.byte	0
 3632 0071 00       		.byte	0
 3633 0072 09       		.uleb128 0x9
 3634 0073 0F       		.uleb128 0xf
 3635 0074 00       		.byte	0
ARM GAS  /tmp/ccQSlWks.s 			page 65


 3636 0075 0B       		.uleb128 0xb
 3637 0076 0B       		.uleb128 0xb
 3638 0077 49       		.uleb128 0x49
 3639 0078 13       		.uleb128 0x13
 3640 0079 00       		.byte	0
 3641 007a 00       		.byte	0
 3642 007b 0A       		.uleb128 0xa
 3643 007c 0F       		.uleb128 0xf
 3644 007d 00       		.byte	0
 3645 007e 0B       		.uleb128 0xb
 3646 007f 0B       		.uleb128 0xb
 3647 0080 00       		.byte	0
 3648 0081 00       		.byte	0
 3649 0082 0B       		.uleb128 0xb
 3650 0083 13       		.uleb128 0x13
 3651 0084 01       		.byte	0x1
 3652 0085 03       		.uleb128 0x3
 3653 0086 0E       		.uleb128 0xe
 3654 0087 0B       		.uleb128 0xb
 3655 0088 0B       		.uleb128 0xb
 3656 0089 3A       		.uleb128 0x3a
 3657 008a 0B       		.uleb128 0xb
 3658 008b 3B       		.uleb128 0x3b
 3659 008c 05       		.uleb128 0x5
 3660 008d 01       		.uleb128 0x1
 3661 008e 13       		.uleb128 0x13
 3662 008f 00       		.byte	0
 3663 0090 00       		.byte	0
 3664 0091 0C       		.uleb128 0xc
 3665 0092 0D       		.uleb128 0xd
 3666 0093 00       		.byte	0
 3667 0094 03       		.uleb128 0x3
 3668 0095 08       		.uleb128 0x8
 3669 0096 3A       		.uleb128 0x3a
 3670 0097 0B       		.uleb128 0xb
 3671 0098 3B       		.uleb128 0x3b
 3672 0099 05       		.uleb128 0x5
 3673 009a 49       		.uleb128 0x49
 3674 009b 13       		.uleb128 0x13
 3675 009c 38       		.uleb128 0x38
 3676 009d 0A       		.uleb128 0xa
 3677 009e 00       		.byte	0
 3678 009f 00       		.byte	0
 3679 00a0 0D       		.uleb128 0xd
 3680 00a1 35       		.uleb128 0x35
 3681 00a2 00       		.byte	0
 3682 00a3 49       		.uleb128 0x49
 3683 00a4 13       		.uleb128 0x13
 3684 00a5 00       		.byte	0
 3685 00a6 00       		.byte	0
 3686 00a7 0E       		.uleb128 0xe
 3687 00a8 15       		.uleb128 0x15
 3688 00a9 01       		.byte	0x1
 3689 00aa 27       		.uleb128 0x27
 3690 00ab 0C       		.uleb128 0xc
 3691 00ac 01       		.uleb128 0x1
 3692 00ad 13       		.uleb128 0x13
ARM GAS  /tmp/ccQSlWks.s 			page 66


 3693 00ae 00       		.byte	0
 3694 00af 00       		.byte	0
 3695 00b0 0F       		.uleb128 0xf
 3696 00b1 05       		.uleb128 0x5
 3697 00b2 00       		.byte	0
 3698 00b3 49       		.uleb128 0x49
 3699 00b4 13       		.uleb128 0x13
 3700 00b5 00       		.byte	0
 3701 00b6 00       		.byte	0
 3702 00b7 10       		.uleb128 0x10
 3703 00b8 17       		.uleb128 0x17
 3704 00b9 01       		.byte	0x1
 3705 00ba 0B       		.uleb128 0xb
 3706 00bb 0B       		.uleb128 0xb
 3707 00bc 3A       		.uleb128 0x3a
 3708 00bd 0B       		.uleb128 0xb
 3709 00be 3B       		.uleb128 0x3b
 3710 00bf 0B       		.uleb128 0xb
 3711 00c0 01       		.uleb128 0x1
 3712 00c1 13       		.uleb128 0x13
 3713 00c2 00       		.byte	0
 3714 00c3 00       		.byte	0
 3715 00c4 11       		.uleb128 0x11
 3716 00c5 0D       		.uleb128 0xd
 3717 00c6 00       		.byte	0
 3718 00c7 03       		.uleb128 0x3
 3719 00c8 0E       		.uleb128 0xe
 3720 00c9 3A       		.uleb128 0x3a
 3721 00ca 0B       		.uleb128 0xb
 3722 00cb 3B       		.uleb128 0x3b
 3723 00cc 0B       		.uleb128 0xb
 3724 00cd 49       		.uleb128 0x49
 3725 00ce 13       		.uleb128 0x13
 3726 00cf 00       		.byte	0
 3727 00d0 00       		.byte	0
 3728 00d1 12       		.uleb128 0x12
 3729 00d2 26       		.uleb128 0x26
 3730 00d3 00       		.byte	0
 3731 00d4 49       		.uleb128 0x49
 3732 00d5 13       		.uleb128 0x13
 3733 00d6 00       		.byte	0
 3734 00d7 00       		.byte	0
 3735 00d8 13       		.uleb128 0x13
 3736 00d9 04       		.uleb128 0x4
 3737 00da 01       		.byte	0x1
 3738 00db 0B       		.uleb128 0xb
 3739 00dc 0B       		.uleb128 0xb
 3740 00dd 3A       		.uleb128 0x3a
 3741 00de 0B       		.uleb128 0xb
 3742 00df 3B       		.uleb128 0x3b
 3743 00e0 0B       		.uleb128 0xb
 3744 00e1 01       		.uleb128 0x1
 3745 00e2 13       		.uleb128 0x13
 3746 00e3 00       		.byte	0
 3747 00e4 00       		.byte	0
 3748 00e5 14       		.uleb128 0x14
 3749 00e6 28       		.uleb128 0x28
ARM GAS  /tmp/ccQSlWks.s 			page 67


 3750 00e7 00       		.byte	0
 3751 00e8 03       		.uleb128 0x3
 3752 00e9 0E       		.uleb128 0xe
 3753 00ea 1C       		.uleb128 0x1c
 3754 00eb 0D       		.uleb128 0xd
 3755 00ec 00       		.byte	0
 3756 00ed 00       		.byte	0
 3757 00ee 15       		.uleb128 0x15
 3758 00ef 0D       		.uleb128 0xd
 3759 00f0 00       		.byte	0
 3760 00f1 03       		.uleb128 0x3
 3761 00f2 0E       		.uleb128 0xe
 3762 00f3 3A       		.uleb128 0x3a
 3763 00f4 0B       		.uleb128 0xb
 3764 00f5 3B       		.uleb128 0x3b
 3765 00f6 05       		.uleb128 0x5
 3766 00f7 49       		.uleb128 0x49
 3767 00f8 13       		.uleb128 0x13
 3768 00f9 38       		.uleb128 0x38
 3769 00fa 0A       		.uleb128 0xa
 3770 00fb 00       		.byte	0
 3771 00fc 00       		.byte	0
 3772 00fd 16       		.uleb128 0x16
 3773 00fe 13       		.uleb128 0x13
 3774 00ff 01       		.byte	0x1
 3775 0100 0B       		.uleb128 0xb
 3776 0101 0B       		.uleb128 0xb
 3777 0102 3A       		.uleb128 0x3a
 3778 0103 0B       		.uleb128 0xb
 3779 0104 3B       		.uleb128 0x3b
 3780 0105 05       		.uleb128 0x5
 3781 0106 01       		.uleb128 0x1
 3782 0107 13       		.uleb128 0x13
 3783 0108 00       		.byte	0
 3784 0109 00       		.byte	0
 3785 010a 17       		.uleb128 0x17
 3786 010b 16       		.uleb128 0x16
 3787 010c 00       		.byte	0
 3788 010d 03       		.uleb128 0x3
 3789 010e 0E       		.uleb128 0xe
 3790 010f 3A       		.uleb128 0x3a
 3791 0110 0B       		.uleb128 0xb
 3792 0111 3B       		.uleb128 0x3b
 3793 0112 05       		.uleb128 0x5
 3794 0113 49       		.uleb128 0x49
 3795 0114 13       		.uleb128 0x13
 3796 0115 00       		.byte	0
 3797 0116 00       		.byte	0
 3798 0117 18       		.uleb128 0x18
 3799 0118 13       		.uleb128 0x13
 3800 0119 01       		.byte	0x1
 3801 011a 03       		.uleb128 0x3
 3802 011b 0E       		.uleb128 0xe
 3803 011c 0B       		.uleb128 0xb
 3804 011d 05       		.uleb128 0x5
 3805 011e 3A       		.uleb128 0x3a
 3806 011f 0B       		.uleb128 0xb
ARM GAS  /tmp/ccQSlWks.s 			page 68


 3807 0120 3B       		.uleb128 0x3b
 3808 0121 0B       		.uleb128 0xb
 3809 0122 01       		.uleb128 0x1
 3810 0123 13       		.uleb128 0x13
 3811 0124 00       		.byte	0
 3812 0125 00       		.byte	0
 3813 0126 19       		.uleb128 0x19
 3814 0127 01       		.uleb128 0x1
 3815 0128 01       		.byte	0x1
 3816 0129 49       		.uleb128 0x49
 3817 012a 13       		.uleb128 0x13
 3818 012b 01       		.uleb128 0x1
 3819 012c 13       		.uleb128 0x13
 3820 012d 00       		.byte	0
 3821 012e 00       		.byte	0
 3822 012f 1A       		.uleb128 0x1a
 3823 0130 21       		.uleb128 0x21
 3824 0131 00       		.byte	0
 3825 0132 49       		.uleb128 0x49
 3826 0133 13       		.uleb128 0x13
 3827 0134 2F       		.uleb128 0x2f
 3828 0135 0B       		.uleb128 0xb
 3829 0136 00       		.byte	0
 3830 0137 00       		.byte	0
 3831 0138 1B       		.uleb128 0x1b
 3832 0139 15       		.uleb128 0x15
 3833 013a 01       		.byte	0x1
 3834 013b 27       		.uleb128 0x27
 3835 013c 0C       		.uleb128 0xc
 3836 013d 49       		.uleb128 0x49
 3837 013e 13       		.uleb128 0x13
 3838 013f 01       		.uleb128 0x1
 3839 0140 13       		.uleb128 0x13
 3840 0141 00       		.byte	0
 3841 0142 00       		.byte	0
 3842 0143 1C       		.uleb128 0x1c
 3843 0144 2E       		.uleb128 0x2e
 3844 0145 01       		.byte	0x1
 3845 0146 03       		.uleb128 0x3
 3846 0147 0E       		.uleb128 0xe
 3847 0148 3A       		.uleb128 0x3a
 3848 0149 0B       		.uleb128 0xb
 3849 014a 3B       		.uleb128 0x3b
 3850 014b 0B       		.uleb128 0xb
 3851 014c 27       		.uleb128 0x27
 3852 014d 0C       		.uleb128 0xc
 3853 014e 20       		.uleb128 0x20
 3854 014f 0B       		.uleb128 0xb
 3855 0150 01       		.uleb128 0x1
 3856 0151 13       		.uleb128 0x13
 3857 0152 00       		.byte	0
 3858 0153 00       		.byte	0
 3859 0154 1D       		.uleb128 0x1d
 3860 0155 05       		.uleb128 0x5
 3861 0156 00       		.byte	0
 3862 0157 03       		.uleb128 0x3
 3863 0158 0E       		.uleb128 0xe
ARM GAS  /tmp/ccQSlWks.s 			page 69


 3864 0159 3A       		.uleb128 0x3a
 3865 015a 0B       		.uleb128 0xb
 3866 015b 3B       		.uleb128 0x3b
 3867 015c 0B       		.uleb128 0xb
 3868 015d 49       		.uleb128 0x49
 3869 015e 13       		.uleb128 0x13
 3870 015f 00       		.byte	0
 3871 0160 00       		.byte	0
 3872 0161 1E       		.uleb128 0x1e
 3873 0162 2E       		.uleb128 0x2e
 3874 0163 01       		.byte	0x1
 3875 0164 03       		.uleb128 0x3
 3876 0165 0E       		.uleb128 0xe
 3877 0166 3A       		.uleb128 0x3a
 3878 0167 0B       		.uleb128 0xb
 3879 0168 3B       		.uleb128 0x3b
 3880 0169 0B       		.uleb128 0xb
 3881 016a 27       		.uleb128 0x27
 3882 016b 0C       		.uleb128 0xc
 3883 016c 49       		.uleb128 0x49
 3884 016d 13       		.uleb128 0x13
 3885 016e 20       		.uleb128 0x20
 3886 016f 0B       		.uleb128 0xb
 3887 0170 01       		.uleb128 0x1
 3888 0171 13       		.uleb128 0x13
 3889 0172 00       		.byte	0
 3890 0173 00       		.byte	0
 3891 0174 1F       		.uleb128 0x1f
 3892 0175 34       		.uleb128 0x34
 3893 0176 00       		.byte	0
 3894 0177 03       		.uleb128 0x3
 3895 0178 08       		.uleb128 0x8
 3896 0179 3A       		.uleb128 0x3a
 3897 017a 0B       		.uleb128 0xb
 3898 017b 3B       		.uleb128 0x3b
 3899 017c 0B       		.uleb128 0xb
 3900 017d 49       		.uleb128 0x49
 3901 017e 13       		.uleb128 0x13
 3902 017f 00       		.byte	0
 3903 0180 00       		.byte	0
 3904 0181 20       		.uleb128 0x20
 3905 0182 2E       		.uleb128 0x2e
 3906 0183 01       		.byte	0x1
 3907 0184 03       		.uleb128 0x3
 3908 0185 0E       		.uleb128 0xe
 3909 0186 3A       		.uleb128 0x3a
 3910 0187 0B       		.uleb128 0xb
 3911 0188 3B       		.uleb128 0x3b
 3912 0189 0B       		.uleb128 0xb
 3913 018a 27       		.uleb128 0x27
 3914 018b 0C       		.uleb128 0xc
 3915 018c 49       		.uleb128 0x49
 3916 018d 13       		.uleb128 0x13
 3917 018e 11       		.uleb128 0x11
 3918 018f 01       		.uleb128 0x1
 3919 0190 12       		.uleb128 0x12
 3920 0191 01       		.uleb128 0x1
ARM GAS  /tmp/ccQSlWks.s 			page 70


 3921 0192 40       		.uleb128 0x40
 3922 0193 0A       		.uleb128 0xa
 3923 0194 9742     		.uleb128 0x2117
 3924 0196 0C       		.uleb128 0xc
 3925 0197 01       		.uleb128 0x1
 3926 0198 13       		.uleb128 0x13
 3927 0199 00       		.byte	0
 3928 019a 00       		.byte	0
 3929 019b 21       		.uleb128 0x21
 3930 019c 05       		.uleb128 0x5
 3931 019d 00       		.byte	0
 3932 019e 03       		.uleb128 0x3
 3933 019f 0E       		.uleb128 0xe
 3934 01a0 3A       		.uleb128 0x3a
 3935 01a1 0B       		.uleb128 0xb
 3936 01a2 3B       		.uleb128 0x3b
 3937 01a3 0B       		.uleb128 0xb
 3938 01a4 49       		.uleb128 0x49
 3939 01a5 13       		.uleb128 0x13
 3940 01a6 02       		.uleb128 0x2
 3941 01a7 06       		.uleb128 0x6
 3942 01a8 00       		.byte	0
 3943 01a9 00       		.byte	0
 3944 01aa 22       		.uleb128 0x22
 3945 01ab 1D       		.uleb128 0x1d
 3946 01ac 01       		.byte	0x1
 3947 01ad 31       		.uleb128 0x31
 3948 01ae 13       		.uleb128 0x13
 3949 01af 52       		.uleb128 0x52
 3950 01b0 01       		.uleb128 0x1
 3951 01b1 55       		.uleb128 0x55
 3952 01b2 06       		.uleb128 0x6
 3953 01b3 58       		.uleb128 0x58
 3954 01b4 0B       		.uleb128 0xb
 3955 01b5 59       		.uleb128 0x59
 3956 01b6 0B       		.uleb128 0xb
 3957 01b7 00       		.byte	0
 3958 01b8 00       		.byte	0
 3959 01b9 23       		.uleb128 0x23
 3960 01ba 05       		.uleb128 0x5
 3961 01bb 00       		.byte	0
 3962 01bc 31       		.uleb128 0x31
 3963 01bd 13       		.uleb128 0x13
 3964 01be 02       		.uleb128 0x2
 3965 01bf 0A       		.uleb128 0xa
 3966 01c0 00       		.byte	0
 3967 01c1 00       		.byte	0
 3968 01c2 24       		.uleb128 0x24
 3969 01c3 2E       		.uleb128 0x2e
 3970 01c4 01       		.byte	0x1
 3971 01c5 03       		.uleb128 0x3
 3972 01c6 0E       		.uleb128 0xe
 3973 01c7 3A       		.uleb128 0x3a
 3974 01c8 0B       		.uleb128 0xb
 3975 01c9 3B       		.uleb128 0x3b
 3976 01ca 0B       		.uleb128 0xb
 3977 01cb 27       		.uleb128 0x27
ARM GAS  /tmp/ccQSlWks.s 			page 71


 3978 01cc 0C       		.uleb128 0xc
 3979 01cd 49       		.uleb128 0x49
 3980 01ce 13       		.uleb128 0x13
 3981 01cf 11       		.uleb128 0x11
 3982 01d0 01       		.uleb128 0x1
 3983 01d1 12       		.uleb128 0x12
 3984 01d2 01       		.uleb128 0x1
 3985 01d3 40       		.uleb128 0x40
 3986 01d4 06       		.uleb128 0x6
 3987 01d5 9742     		.uleb128 0x2117
 3988 01d7 0C       		.uleb128 0xc
 3989 01d8 01       		.uleb128 0x1
 3990 01d9 13       		.uleb128 0x13
 3991 01da 00       		.byte	0
 3992 01db 00       		.byte	0
 3993 01dc 25       		.uleb128 0x25
 3994 01dd 05       		.uleb128 0x5
 3995 01de 00       		.byte	0
 3996 01df 03       		.uleb128 0x3
 3997 01e0 08       		.uleb128 0x8
 3998 01e1 3A       		.uleb128 0x3a
 3999 01e2 0B       		.uleb128 0xb
 4000 01e3 3B       		.uleb128 0x3b
 4001 01e4 0B       		.uleb128 0xb
 4002 01e5 49       		.uleb128 0x49
 4003 01e6 13       		.uleb128 0x13
 4004 01e7 02       		.uleb128 0x2
 4005 01e8 06       		.uleb128 0x6
 4006 01e9 00       		.byte	0
 4007 01ea 00       		.byte	0
 4008 01eb 26       		.uleb128 0x26
 4009 01ec 34       		.uleb128 0x34
 4010 01ed 00       		.byte	0
 4011 01ee 03       		.uleb128 0x3
 4012 01ef 08       		.uleb128 0x8
 4013 01f0 3A       		.uleb128 0x3a
 4014 01f1 0B       		.uleb128 0xb
 4015 01f2 3B       		.uleb128 0x3b
 4016 01f3 0B       		.uleb128 0xb
 4017 01f4 49       		.uleb128 0x49
 4018 01f5 13       		.uleb128 0x13
 4019 01f6 02       		.uleb128 0x2
 4020 01f7 06       		.uleb128 0x6
 4021 01f8 00       		.byte	0
 4022 01f9 00       		.byte	0
 4023 01fa 27       		.uleb128 0x27
 4024 01fb 34       		.uleb128 0x34
 4025 01fc 00       		.byte	0
 4026 01fd 03       		.uleb128 0x3
 4027 01fe 08       		.uleb128 0x8
 4028 01ff 3A       		.uleb128 0x3a
 4029 0200 0B       		.uleb128 0xb
 4030 0201 3B       		.uleb128 0x3b
 4031 0202 0B       		.uleb128 0xb
 4032 0203 49       		.uleb128 0x49
 4033 0204 13       		.uleb128 0x13
 4034 0205 02       		.uleb128 0x2
ARM GAS  /tmp/ccQSlWks.s 			page 72


 4035 0206 0A       		.uleb128 0xa
 4036 0207 00       		.byte	0
 4037 0208 00       		.byte	0
 4038 0209 28       		.uleb128 0x28
 4039 020a 898201   		.uleb128 0x4109
 4040 020d 01       		.byte	0x1
 4041 020e 11       		.uleb128 0x11
 4042 020f 01       		.uleb128 0x1
 4043 0210 31       		.uleb128 0x31
 4044 0211 13       		.uleb128 0x13
 4045 0212 01       		.uleb128 0x1
 4046 0213 13       		.uleb128 0x13
 4047 0214 00       		.byte	0
 4048 0215 00       		.byte	0
 4049 0216 29       		.uleb128 0x29
 4050 0217 8A8201   		.uleb128 0x410a
 4051 021a 00       		.byte	0
 4052 021b 02       		.uleb128 0x2
 4053 021c 0A       		.uleb128 0xa
 4054 021d 9142     		.uleb128 0x2111
 4055 021f 0A       		.uleb128 0xa
 4056 0220 00       		.byte	0
 4057 0221 00       		.byte	0
 4058 0222 2A       		.uleb128 0x2a
 4059 0223 898201   		.uleb128 0x4109
 4060 0226 01       		.byte	0x1
 4061 0227 11       		.uleb128 0x11
 4062 0228 01       		.uleb128 0x1
 4063 0229 31       		.uleb128 0x31
 4064 022a 13       		.uleb128 0x13
 4065 022b 00       		.byte	0
 4066 022c 00       		.byte	0
 4067 022d 2B       		.uleb128 0x2b
 4068 022e 2E       		.uleb128 0x2e
 4069 022f 01       		.byte	0x1
 4070 0230 3F       		.uleb128 0x3f
 4071 0231 0C       		.uleb128 0xc
 4072 0232 03       		.uleb128 0x3
 4073 0233 0E       		.uleb128 0xe
 4074 0234 3A       		.uleb128 0x3a
 4075 0235 0B       		.uleb128 0xb
 4076 0236 3B       		.uleb128 0x3b
 4077 0237 0B       		.uleb128 0xb
 4078 0238 27       		.uleb128 0x27
 4079 0239 0C       		.uleb128 0xc
 4080 023a 49       		.uleb128 0x49
 4081 023b 13       		.uleb128 0x13
 4082 023c 11       		.uleb128 0x11
 4083 023d 01       		.uleb128 0x1
 4084 023e 12       		.uleb128 0x12
 4085 023f 01       		.uleb128 0x1
 4086 0240 40       		.uleb128 0x40
 4087 0241 06       		.uleb128 0x6
 4088 0242 9742     		.uleb128 0x2117
 4089 0244 0C       		.uleb128 0xc
 4090 0245 01       		.uleb128 0x1
 4091 0246 13       		.uleb128 0x13
ARM GAS  /tmp/ccQSlWks.s 			page 73


 4092 0247 00       		.byte	0
 4093 0248 00       		.byte	0
 4094 0249 2C       		.uleb128 0x2c
 4095 024a 34       		.uleb128 0x34
 4096 024b 00       		.byte	0
 4097 024c 03       		.uleb128 0x3
 4098 024d 0E       		.uleb128 0xe
 4099 024e 3A       		.uleb128 0x3a
 4100 024f 0B       		.uleb128 0xb
 4101 0250 3B       		.uleb128 0x3b
 4102 0251 0B       		.uleb128 0xb
 4103 0252 49       		.uleb128 0x49
 4104 0253 13       		.uleb128 0x13
 4105 0254 02       		.uleb128 0x2
 4106 0255 0A       		.uleb128 0xa
 4107 0256 00       		.byte	0
 4108 0257 00       		.byte	0
 4109 0258 2D       		.uleb128 0x2d
 4110 0259 0B       		.uleb128 0xb
 4111 025a 01       		.byte	0x1
 4112 025b 11       		.uleb128 0x11
 4113 025c 01       		.uleb128 0x1
 4114 025d 12       		.uleb128 0x12
 4115 025e 01       		.uleb128 0x1
 4116 025f 01       		.uleb128 0x1
 4117 0260 13       		.uleb128 0x13
 4118 0261 00       		.byte	0
 4119 0262 00       		.byte	0
 4120 0263 2E       		.uleb128 0x2e
 4121 0264 34       		.uleb128 0x34
 4122 0265 00       		.byte	0
 4123 0266 03       		.uleb128 0x3
 4124 0267 0E       		.uleb128 0xe
 4125 0268 3A       		.uleb128 0x3a
 4126 0269 0B       		.uleb128 0xb
 4127 026a 3B       		.uleb128 0x3b
 4128 026b 0B       		.uleb128 0xb
 4129 026c 49       		.uleb128 0x49
 4130 026d 13       		.uleb128 0x13
 4131 026e 00       		.byte	0
 4132 026f 00       		.byte	0
 4133 0270 2F       		.uleb128 0x2f
 4134 0271 34       		.uleb128 0x34
 4135 0272 00       		.byte	0
 4136 0273 03       		.uleb128 0x3
 4137 0274 0E       		.uleb128 0xe
 4138 0275 3A       		.uleb128 0x3a
 4139 0276 0B       		.uleb128 0xb
 4140 0277 3B       		.uleb128 0x3b
 4141 0278 05       		.uleb128 0x5
 4142 0279 49       		.uleb128 0x49
 4143 027a 13       		.uleb128 0x13
 4144 027b 02       		.uleb128 0x2
 4145 027c 06       		.uleb128 0x6
 4146 027d 00       		.byte	0
 4147 027e 00       		.byte	0
 4148 027f 30       		.uleb128 0x30
ARM GAS  /tmp/ccQSlWks.s 			page 74


 4149 0280 0B       		.uleb128 0xb
 4150 0281 01       		.byte	0x1
 4151 0282 55       		.uleb128 0x55
 4152 0283 06       		.uleb128 0x6
 4153 0284 01       		.uleb128 0x1
 4154 0285 13       		.uleb128 0x13
 4155 0286 00       		.byte	0
 4156 0287 00       		.byte	0
 4157 0288 31       		.uleb128 0x31
 4158 0289 898201   		.uleb128 0x4109
 4159 028c 00       		.byte	0
 4160 028d 11       		.uleb128 0x11
 4161 028e 01       		.uleb128 0x1
 4162 028f 31       		.uleb128 0x31
 4163 0290 13       		.uleb128 0x13
 4164 0291 00       		.byte	0
 4165 0292 00       		.byte	0
 4166 0293 32       		.uleb128 0x32
 4167 0294 34       		.uleb128 0x34
 4168 0295 00       		.byte	0
 4169 0296 03       		.uleb128 0x3
 4170 0297 08       		.uleb128 0x8
 4171 0298 3A       		.uleb128 0x3a
 4172 0299 0B       		.uleb128 0xb
 4173 029a 3B       		.uleb128 0x3b
 4174 029b 05       		.uleb128 0x5
 4175 029c 49       		.uleb128 0x49
 4176 029d 13       		.uleb128 0x13
 4177 029e 00       		.byte	0
 4178 029f 00       		.byte	0
 4179 02a0 33       		.uleb128 0x33
 4180 02a1 898201   		.uleb128 0x4109
 4181 02a4 01       		.byte	0x1
 4182 02a5 11       		.uleb128 0x11
 4183 02a6 01       		.uleb128 0x1
 4184 02a7 9342     		.uleb128 0x2113
 4185 02a9 0A       		.uleb128 0xa
 4186 02aa 00       		.byte	0
 4187 02ab 00       		.byte	0
 4188 02ac 34       		.uleb128 0x34
 4189 02ad 1D       		.uleb128 0x1d
 4190 02ae 01       		.byte	0x1
 4191 02af 31       		.uleb128 0x31
 4192 02b0 13       		.uleb128 0x13
 4193 02b1 52       		.uleb128 0x52
 4194 02b2 01       		.uleb128 0x1
 4195 02b3 55       		.uleb128 0x55
 4196 02b4 06       		.uleb128 0x6
 4197 02b5 58       		.uleb128 0x58
 4198 02b6 0B       		.uleb128 0xb
 4199 02b7 59       		.uleb128 0x59
 4200 02b8 05       		.uleb128 0x5
 4201 02b9 00       		.byte	0
 4202 02ba 00       		.byte	0
 4203 02bb 35       		.uleb128 0x35
 4204 02bc 0B       		.uleb128 0xb
 4205 02bd 01       		.byte	0x1
ARM GAS  /tmp/ccQSlWks.s 			page 75


 4206 02be 55       		.uleb128 0x55
 4207 02bf 06       		.uleb128 0x6
 4208 02c0 00       		.byte	0
 4209 02c1 00       		.byte	0
 4210 02c2 36       		.uleb128 0x36
 4211 02c3 05       		.uleb128 0x5
 4212 02c4 00       		.byte	0
 4213 02c5 31       		.uleb128 0x31
 4214 02c6 13       		.uleb128 0x13
 4215 02c7 00       		.byte	0
 4216 02c8 00       		.byte	0
 4217 02c9 37       		.uleb128 0x37
 4218 02ca 34       		.uleb128 0x34
 4219 02cb 00       		.byte	0
 4220 02cc 31       		.uleb128 0x31
 4221 02cd 13       		.uleb128 0x13
 4222 02ce 02       		.uleb128 0x2
 4223 02cf 0A       		.uleb128 0xa
 4224 02d0 00       		.byte	0
 4225 02d1 00       		.byte	0
 4226 02d2 38       		.uleb128 0x38
 4227 02d3 34       		.uleb128 0x34
 4228 02d4 00       		.byte	0
 4229 02d5 31       		.uleb128 0x31
 4230 02d6 13       		.uleb128 0x13
 4231 02d7 02       		.uleb128 0x2
 4232 02d8 06       		.uleb128 0x6
 4233 02d9 00       		.byte	0
 4234 02da 00       		.byte	0
 4235 02db 39       		.uleb128 0x39
 4236 02dc 34       		.uleb128 0x34
 4237 02dd 00       		.byte	0
 4238 02de 03       		.uleb128 0x3
 4239 02df 0E       		.uleb128 0xe
 4240 02e0 3A       		.uleb128 0x3a
 4241 02e1 0B       		.uleb128 0xb
 4242 02e2 3B       		.uleb128 0x3b
 4243 02e3 0B       		.uleb128 0xb
 4244 02e4 49       		.uleb128 0x49
 4245 02e5 13       		.uleb128 0x13
 4246 02e6 3F       		.uleb128 0x3f
 4247 02e7 0C       		.uleb128 0xc
 4248 02e8 3C       		.uleb128 0x3c
 4249 02e9 0C       		.uleb128 0xc
 4250 02ea 00       		.byte	0
 4251 02eb 00       		.byte	0
 4252 02ec 3A       		.uleb128 0x3a
 4253 02ed 34       		.uleb128 0x34
 4254 02ee 00       		.byte	0
 4255 02ef 03       		.uleb128 0x3
 4256 02f0 0E       		.uleb128 0xe
 4257 02f1 3A       		.uleb128 0x3a
 4258 02f2 0B       		.uleb128 0xb
 4259 02f3 3B       		.uleb128 0x3b
 4260 02f4 05       		.uleb128 0x5
 4261 02f5 49       		.uleb128 0x49
 4262 02f6 13       		.uleb128 0x13
ARM GAS  /tmp/ccQSlWks.s 			page 76


 4263 02f7 3F       		.uleb128 0x3f
 4264 02f8 0C       		.uleb128 0xc
 4265 02f9 3C       		.uleb128 0x3c
 4266 02fa 0C       		.uleb128 0xc
 4267 02fb 00       		.byte	0
 4268 02fc 00       		.byte	0
 4269 02fd 3B       		.uleb128 0x3b
 4270 02fe 34       		.uleb128 0x34
 4271 02ff 00       		.byte	0
 4272 0300 03       		.uleb128 0x3
 4273 0301 0E       		.uleb128 0xe
 4274 0302 3A       		.uleb128 0x3a
 4275 0303 0B       		.uleb128 0xb
 4276 0304 3B       		.uleb128 0x3b
 4277 0305 0B       		.uleb128 0xb
 4278 0306 49       		.uleb128 0x49
 4279 0307 13       		.uleb128 0x13
 4280 0308 3F       		.uleb128 0x3f
 4281 0309 0C       		.uleb128 0xc
 4282 030a 02       		.uleb128 0x2
 4283 030b 0A       		.uleb128 0xa
 4284 030c 00       		.byte	0
 4285 030d 00       		.byte	0
 4286 030e 3C       		.uleb128 0x3c
 4287 030f 2E       		.uleb128 0x2e
 4288 0310 01       		.byte	0x1
 4289 0311 3F       		.uleb128 0x3f
 4290 0312 0C       		.uleb128 0xc
 4291 0313 03       		.uleb128 0x3
 4292 0314 0E       		.uleb128 0xe
 4293 0315 3A       		.uleb128 0x3a
 4294 0316 0B       		.uleb128 0xb
 4295 0317 3B       		.uleb128 0x3b
 4296 0318 0B       		.uleb128 0xb
 4297 0319 27       		.uleb128 0x27
 4298 031a 0C       		.uleb128 0xc
 4299 031b 49       		.uleb128 0x49
 4300 031c 13       		.uleb128 0x13
 4301 031d 3C       		.uleb128 0x3c
 4302 031e 0C       		.uleb128 0xc
 4303 031f 01       		.uleb128 0x1
 4304 0320 13       		.uleb128 0x13
 4305 0321 00       		.byte	0
 4306 0322 00       		.byte	0
 4307 0323 3D       		.uleb128 0x3d
 4308 0324 2E       		.uleb128 0x2e
 4309 0325 01       		.byte	0x1
 4310 0326 3F       		.uleb128 0x3f
 4311 0327 0C       		.uleb128 0xc
 4312 0328 03       		.uleb128 0x3
 4313 0329 0E       		.uleb128 0xe
 4314 032a 3A       		.uleb128 0x3a
 4315 032b 0B       		.uleb128 0xb
 4316 032c 3B       		.uleb128 0x3b
 4317 032d 05       		.uleb128 0x5
 4318 032e 27       		.uleb128 0x27
 4319 032f 0C       		.uleb128 0xc
ARM GAS  /tmp/ccQSlWks.s 			page 77


 4320 0330 49       		.uleb128 0x49
 4321 0331 13       		.uleb128 0x13
 4322 0332 3C       		.uleb128 0x3c
 4323 0333 0C       		.uleb128 0xc
 4324 0334 01       		.uleb128 0x1
 4325 0335 13       		.uleb128 0x13
 4326 0336 00       		.byte	0
 4327 0337 00       		.byte	0
 4328 0338 3E       		.uleb128 0x3e
 4329 0339 2E       		.uleb128 0x2e
 4330 033a 01       		.byte	0x1
 4331 033b 3F       		.uleb128 0x3f
 4332 033c 0C       		.uleb128 0xc
 4333 033d 03       		.uleb128 0x3
 4334 033e 0E       		.uleb128 0xe
 4335 033f 3A       		.uleb128 0x3a
 4336 0340 0B       		.uleb128 0xb
 4337 0341 3B       		.uleb128 0x3b
 4338 0342 0B       		.uleb128 0xb
 4339 0343 27       		.uleb128 0x27
 4340 0344 0C       		.uleb128 0xc
 4341 0345 3C       		.uleb128 0x3c
 4342 0346 0C       		.uleb128 0xc
 4343 0347 01       		.uleb128 0x1
 4344 0348 13       		.uleb128 0x13
 4345 0349 00       		.byte	0
 4346 034a 00       		.byte	0
 4347 034b 3F       		.uleb128 0x3f
 4348 034c 2E       		.uleb128 0x2e
 4349 034d 01       		.byte	0x1
 4350 034e 3F       		.uleb128 0x3f
 4351 034f 0C       		.uleb128 0xc
 4352 0350 03       		.uleb128 0x3
 4353 0351 0E       		.uleb128 0xe
 4354 0352 3A       		.uleb128 0x3a
 4355 0353 0B       		.uleb128 0xb
 4356 0354 3B       		.uleb128 0x3b
 4357 0355 05       		.uleb128 0x5
 4358 0356 27       		.uleb128 0x27
 4359 0357 0C       		.uleb128 0xc
 4360 0358 3C       		.uleb128 0x3c
 4361 0359 0C       		.uleb128 0xc
 4362 035a 01       		.uleb128 0x1
 4363 035b 13       		.uleb128 0x13
 4364 035c 00       		.byte	0
 4365 035d 00       		.byte	0
 4366 035e 40       		.uleb128 0x40
 4367 035f 2E       		.uleb128 0x2e
 4368 0360 01       		.byte	0x1
 4369 0361 3F       		.uleb128 0x3f
 4370 0362 0C       		.uleb128 0xc
 4371 0363 03       		.uleb128 0x3
 4372 0364 0E       		.uleb128 0xe
 4373 0365 3A       		.uleb128 0x3a
 4374 0366 0B       		.uleb128 0xb
 4375 0367 3B       		.uleb128 0x3b
 4376 0368 05       		.uleb128 0x5
ARM GAS  /tmp/ccQSlWks.s 			page 78


 4377 0369 27       		.uleb128 0x27
 4378 036a 0C       		.uleb128 0xc
 4379 036b 49       		.uleb128 0x49
 4380 036c 13       		.uleb128 0x13
 4381 036d 3C       		.uleb128 0x3c
 4382 036e 0C       		.uleb128 0xc
 4383 036f 00       		.byte	0
 4384 0370 00       		.byte	0
 4385 0371 00       		.byte	0
 4386              		.section	.debug_loc,"",%progbits
 4387              	.Ldebug_loc0:
 4388              	.LLST0:
 4389 0000 00000000 		.4byte	.LVL0
 4390 0004 24000000 		.4byte	.LVL1
 4391 0008 0100     		.2byte	0x1
 4392 000a 50       		.byte	0x50
 4393 000b 24000000 		.4byte	.LVL1
 4394 000f 3A000000 		.4byte	.LFE121
 4395 0013 0100     		.2byte	0x1
 4396 0015 53       		.byte	0x53
 4397 0016 00000000 		.4byte	0
 4398 001a 00000000 		.4byte	0
 4399              	.LLST1:
 4400 001e 00000000 		.4byte	.LFB119
 4401 0022 02000000 		.4byte	.LCFI0
 4402 0026 0200     		.2byte	0x2
 4403 0028 7D       		.byte	0x7d
 4404 0029 00       		.sleb128 0
 4405 002a 02000000 		.4byte	.LCFI0
 4406 002e 04000000 		.4byte	.LCFI1
 4407 0032 0200     		.2byte	0x2
 4408 0034 7D       		.byte	0x7d
 4409 0035 08       		.sleb128 8
 4410 0036 04000000 		.4byte	.LCFI1
 4411 003a 48000000 		.4byte	.LFE119
 4412 003e 0200     		.2byte	0x2
 4413 0040 7D       		.byte	0x7d
 4414 0041 18       		.sleb128 24
 4415 0042 00000000 		.4byte	0
 4416 0046 00000000 		.4byte	0
 4417              	.LLST2:
 4418 004a 00000000 		.4byte	.LVL3
 4419 004e 08000000 		.4byte	.LVL4
 4420 0052 0100     		.2byte	0x1
 4421 0054 50       		.byte	0x50
 4422 0055 08000000 		.4byte	.LVL4
 4423 0059 48000000 		.4byte	.LFE119
 4424 005d 0400     		.2byte	0x4
 4425 005f F3       		.byte	0xf3
 4426 0060 01       		.uleb128 0x1
 4427 0061 50       		.byte	0x50
 4428 0062 9F       		.byte	0x9f
 4429 0063 00000000 		.4byte	0
 4430 0067 00000000 		.4byte	0
 4431              	.LLST3:
 4432 006b 00000000 		.4byte	.LVL3
 4433 006f 0A000000 		.4byte	.LVL5
ARM GAS  /tmp/ccQSlWks.s 			page 79


 4434 0073 0100     		.2byte	0x1
 4435 0075 51       		.byte	0x51
 4436 0076 0A000000 		.4byte	.LVL5
 4437 007a 14000000 		.4byte	.LVL8
 4438 007e 0100     		.2byte	0x1
 4439 0080 54       		.byte	0x54
 4440 0081 14000000 		.4byte	.LVL8
 4441 0085 3A000000 		.4byte	.LVL13
 4442 0089 0400     		.2byte	0x4
 4443 008b F3       		.byte	0xf3
 4444 008c 01       		.uleb128 0x1
 4445 008d 51       		.byte	0x51
 4446 008e 9F       		.byte	0x9f
 4447 008f 3A000000 		.4byte	.LVL13
 4448 0093 48000000 		.4byte	.LFE119
 4449 0097 0100     		.2byte	0x1
 4450 0099 54       		.byte	0x54
 4451 009a 00000000 		.4byte	0
 4452 009e 00000000 		.4byte	0
 4453              	.LLST4:
 4454 00a2 12000000 		.4byte	.LVL7
 4455 00a6 34000000 		.4byte	.LVL12
 4456 00aa 0100     		.2byte	0x1
 4457 00ac 54       		.byte	0x54
 4458 00ad 00000000 		.4byte	0
 4459 00b1 00000000 		.4byte	0
 4460              	.LLST5:
 4461 00b5 00000000 		.4byte	.LFB122
 4462 00b9 04000000 		.4byte	.LCFI2
 4463 00bd 0200     		.2byte	0x2
 4464 00bf 7D       		.byte	0x7d
 4465 00c0 00       		.sleb128 0
 4466 00c1 04000000 		.4byte	.LCFI2
 4467 00c5 10000000 		.4byte	.LCFI3
 4468 00c9 0200     		.2byte	0x2
 4469 00cb 7D       		.byte	0x7d
 4470 00cc 18       		.sleb128 24
 4471 00cd 10000000 		.4byte	.LCFI3
 4472 00d1 E8010000 		.4byte	.LFE122
 4473 00d5 0300     		.2byte	0x3
 4474 00d7 7D       		.byte	0x7d
 4475 00d8 8001     		.sleb128 128
 4476 00da 00000000 		.4byte	0
 4477 00de 00000000 		.4byte	0
 4478              	.LLST6:
 4479 00e2 00000000 		.4byte	.LVL14
 4480 00e6 0E000000 		.4byte	.LVL15
 4481 00ea 0100     		.2byte	0x1
 4482 00ec 50       		.byte	0x50
 4483 00ed 0E000000 		.4byte	.LVL15
 4484 00f1 56000000 		.4byte	.LVL23
 4485 00f5 0100     		.2byte	0x1
 4486 00f7 54       		.byte	0x54
 4487 00f8 56000000 		.4byte	.LVL23
 4488 00fc 7C010000 		.4byte	.LVL64
 4489 0100 0400     		.2byte	0x4
 4490 0102 F3       		.byte	0xf3
ARM GAS  /tmp/ccQSlWks.s 			page 80


 4491 0103 01       		.uleb128 0x1
 4492 0104 50       		.byte	0x50
 4493 0105 9F       		.byte	0x9f
 4494 0106 7C010000 		.4byte	.LVL64
 4495 010a 98010000 		.4byte	.LVL65
 4496 010e 0100     		.2byte	0x1
 4497 0110 54       		.byte	0x54
 4498 0111 98010000 		.4byte	.LVL65
 4499 0115 E8010000 		.4byte	.LFE122
 4500 0119 0400     		.2byte	0x4
 4501 011b F3       		.byte	0xf3
 4502 011c 01       		.uleb128 0x1
 4503 011d 50       		.byte	0x50
 4504 011e 9F       		.byte	0x9f
 4505 011f 00000000 		.4byte	0
 4506 0123 00000000 		.4byte	0
 4507              	.LLST7:
 4508 0127 28000000 		.4byte	.LVL17
 4509 012b 30000000 		.4byte	.LVL18
 4510 012f 0200     		.2byte	0x2
 4511 0131 31       		.byte	0x31
 4512 0132 9F       		.byte	0x9f
 4513 0133 30000000 		.4byte	.LVL18
 4514 0137 38000000 		.4byte	.LVL19
 4515 013b 0200     		.2byte	0x2
 4516 013d 32       		.byte	0x32
 4517 013e 9F       		.byte	0x9f
 4518 013f 38000000 		.4byte	.LVL19
 4519 0143 40000000 		.4byte	.LVL20
 4520 0147 0200     		.2byte	0x2
 4521 0149 33       		.byte	0x33
 4522 014a 9F       		.byte	0x9f
 4523 014b 40000000 		.4byte	.LVL20
 4524 014f 48000000 		.4byte	.LVL21
 4525 0153 0200     		.2byte	0x2
 4526 0155 34       		.byte	0x34
 4527 0156 9F       		.byte	0x9f
 4528 0157 48000000 		.4byte	.LVL21
 4529 015b 50000000 		.4byte	.LVL22
 4530 015f 0200     		.2byte	0x2
 4531 0161 35       		.byte	0x35
 4532 0162 9F       		.byte	0x9f
 4533 0163 50000000 		.4byte	.LVL22
 4534 0167 5C000000 		.4byte	.LVL24
 4535 016b 0200     		.2byte	0x2
 4536 016d 36       		.byte	0x36
 4537 016e 9F       		.byte	0x9f
 4538 016f 00000000 		.4byte	0
 4539 0173 00000000 		.4byte	0
 4540              	.LLST8:
 4541 0177 BE000000 		.4byte	.LVL34
 4542 017b C2000000 		.4byte	.LVL35
 4543 017f 0100     		.2byte	0x1
 4544 0181 54       		.byte	0x54
 4545 0182 CE000000 		.4byte	.LVL37
 4546 0186 D2000000 		.4byte	.LVL38
 4547 018a 0100     		.2byte	0x1
ARM GAS  /tmp/ccQSlWks.s 			page 81


 4548 018c 50       		.byte	0x50
 4549 018d D2000000 		.4byte	.LVL38
 4550 0191 FA000000 		.4byte	.LVL43
 4551 0195 0100     		.2byte	0x1
 4552 0197 54       		.byte	0x54
 4553 0198 50010000 		.4byte	.LVL55
 4554 019c 5A010000 		.4byte	.LVL58
 4555 01a0 0100     		.2byte	0x1
 4556 01a2 54       		.byte	0x54
 4557 01a3 00000000 		.4byte	0
 4558 01a7 00000000 		.4byte	0
 4559              	.LLST9:
 4560 01ab E2000000 		.4byte	.LVL40
 4561 01af EE000000 		.4byte	.LVL41
 4562 01b3 0100     		.2byte	0x1
 4563 01b5 50       		.byte	0x50
 4564 01b6 50010000 		.4byte	.LVL55
 4565 01ba 54010000 		.4byte	.LVL56
 4566 01be 0100     		.2byte	0x1
 4567 01c0 50       		.byte	0x50
 4568 01c1 54010000 		.4byte	.LVL56
 4569 01c5 57010000 		.4byte	.LVL57-1
 4570 01c9 0100     		.2byte	0x1
 4571 01cb 52       		.byte	0x52
 4572 01cc 00000000 		.4byte	0
 4573 01d0 00000000 		.4byte	0
 4574              	.LLST10:
 4575 01d4 38010000 		.4byte	.LVL51
 4576 01d8 3D010000 		.4byte	.LVL52-1
 4577 01dc 0100     		.2byte	0x1
 4578 01de 53       		.byte	0x53
 4579 01df 00000000 		.4byte	0
 4580 01e3 00000000 		.4byte	0
 4581              	.LLST11:
 4582 01e7 14010000 		.4byte	.LVL46
 4583 01eb 1A010000 		.4byte	.LVL47
 4584 01ef 0100     		.2byte	0x1
 4585 01f1 50       		.byte	0x50
 4586 01f2 1A010000 		.4byte	.LVL47
 4587 01f6 50010000 		.4byte	.LVL55
 4588 01fa 0100     		.2byte	0x1
 4589 01fc 55       		.byte	0x55
 4590 01fd 5A010000 		.4byte	.LVL58
 4591 0201 68010000 		.4byte	.LVL61
 4592 0205 0100     		.2byte	0x1
 4593 0207 55       		.byte	0x55
 4594 0208 68010000 		.4byte	.LVL61
 4595 020c 6A010000 		.4byte	.LVL62
 4596 0210 0100     		.2byte	0x1
 4597 0212 50       		.byte	0x50
 4598 0213 6A010000 		.4byte	.LVL62
 4599 0217 7C010000 		.4byte	.LVL64
 4600 021b 0100     		.2byte	0x1
 4601 021d 55       		.byte	0x55
 4602 021e 00000000 		.4byte	0
 4603 0222 00000000 		.4byte	0
 4604              	.LLST12:
ARM GAS  /tmp/ccQSlWks.s 			page 82


 4605 0226 26010000 		.4byte	.LVL49
 4606 022a 48010000 		.4byte	.LVL53
 4607 022e 0100     		.2byte	0x1
 4608 0230 54       		.byte	0x54
 4609 0231 5A010000 		.4byte	.LVL58
 4610 0235 5C010000 		.4byte	.LVL59
 4611 0239 0100     		.2byte	0x1
 4612 023b 54       		.byte	0x54
 4613 023c 00000000 		.4byte	0
 4614 0240 00000000 		.4byte	0
 4615              	.LLST13:
 4616 0244 08010000 		.4byte	.LVL45
 4617 0248 13010000 		.4byte	.LVL46-1
 4618 024c 0300     		.2byte	0x3
 4619 024e 91       		.byte	0x91
 4620 024f A47F     		.sleb128 -92
 4621 0251 00000000 		.4byte	0
 4622 0255 00000000 		.4byte	0
 4623              		.section	.debug_aranges,"",%progbits
 4624 0000 2C000000 		.4byte	0x2c
 4625 0004 0200     		.2byte	0x2
 4626 0006 00000000 		.4byte	.Ldebug_info0
 4627 000a 04       		.byte	0x4
 4628 000b 00       		.byte	0
 4629 000c 0000     		.2byte	0
 4630 000e 0000     		.2byte	0
 4631 0010 00000000 		.4byte	.LFB121
 4632 0014 3A000000 		.4byte	.LFE121-.LFB121
 4633 0018 00000000 		.4byte	.LFB119
 4634 001c 48000000 		.4byte	.LFE119-.LFB119
 4635 0020 00000000 		.4byte	.LFB122
 4636 0024 E8010000 		.4byte	.LFE122-.LFB122
 4637 0028 00000000 		.4byte	0
 4638 002c 00000000 		.4byte	0
 4639              		.section	.debug_ranges,"",%progbits
 4640              	.Ldebug_ranges0:
 4641 0000 20000000 		.4byte	.LBB4
 4642 0004 22000000 		.4byte	.LBE4
 4643 0008 26000000 		.4byte	.LBB8
 4644 000c 30000000 		.4byte	.LBE8
 4645 0010 32000000 		.4byte	.LBB9
 4646 0014 38000000 		.4byte	.LBE9
 4647 0018 00000000 		.4byte	0
 4648 001c 00000000 		.4byte	0
 4649 0020 D0000000 		.4byte	.LBB19
 4650 0024 F2000000 		.4byte	.LBE19
 4651 0028 50010000 		.4byte	.LBB31
 4652 002c 5A010000 		.4byte	.LBE31
 4653 0030 00000000 		.4byte	0
 4654 0034 00000000 		.4byte	0
 4655 0038 F6000000 		.4byte	.LBB20
 4656 003c 50010000 		.4byte	.LBE20
 4657 0040 5A010000 		.4byte	.LBB32
 4658 0044 7C010000 		.4byte	.LBE32
 4659 0048 00000000 		.4byte	0
 4660 004c 00000000 		.4byte	0
 4661 0050 F6000000 		.4byte	.LBB21
ARM GAS  /tmp/ccQSlWks.s 			page 83


 4662 0054 FA000000 		.4byte	.LBE21
 4663 0058 32010000 		.4byte	.LBB26
 4664 005c 34010000 		.4byte	.LBE26
 4665 0060 38010000 		.4byte	.LBB28
 4666 0064 50010000 		.4byte	.LBE28
 4667 0068 5A010000 		.4byte	.LBB29
 4668 006c 68010000 		.4byte	.LBE29
 4669 0070 00000000 		.4byte	0
 4670 0074 00000000 		.4byte	0
 4671 0078 FA000000 		.4byte	.LBB22
 4672 007c 32010000 		.4byte	.LBE22
 4673 0080 34010000 		.4byte	.LBB27
 4674 0084 38010000 		.4byte	.LBE27
 4675 0088 68010000 		.4byte	.LBB30
 4676 008c 7C010000 		.4byte	.LBE30
 4677 0090 00000000 		.4byte	0
 4678 0094 00000000 		.4byte	0
 4679 0098 FA000000 		.4byte	.LBB23
 4680 009c 32010000 		.4byte	.LBE23
 4681 00a0 34010000 		.4byte	.LBB24
 4682 00a4 38010000 		.4byte	.LBE24
 4683 00a8 68010000 		.4byte	.LBB25
 4684 00ac 7C010000 		.4byte	.LBE25
 4685 00b0 00000000 		.4byte	0
 4686 00b4 00000000 		.4byte	0
 4687 00b8 00000000 		.4byte	.LFB121
 4688 00bc 3A000000 		.4byte	.LFE121
 4689 00c0 00000000 		.4byte	.LFB119
 4690 00c4 48000000 		.4byte	.LFE119
 4691 00c8 00000000 		.4byte	.LFB122
 4692 00cc E8010000 		.4byte	.LFE122
 4693 00d0 00000000 		.4byte	0
 4694 00d4 00000000 		.4byte	0
 4695              		.section	.debug_line,"",%progbits
 4696              	.Ldebug_line0:
 4697 0000 1C040000 		.section	.debug_str,"MS",%progbits,1
 4697      02002303 
 4697      00000201 
 4697      FB0E0D00 
 4697      01010101 
 4698              	.LASF2:
 4699 0000 696E7438 		.ascii	"int8_t\000"
 4699      5F7400
 4700              	.LASF173:
 4701 0007 70726F74 		.ascii	"proterr\000"
 4701      65727200 
 4702              	.LASF1:
 4703 000f 73697A65 		.ascii	"size_t\000"
 4703      5F7400
 4704              	.LASF54:
 4705 0016 73697A65 		.ascii	"sizetype\000"
 4705      74797065 
 4705      00
 4706              	.LASF26:
 4707 001f 73797374 		.ascii	"systime_t\000"
 4707      696D655F 
 4707      7400
ARM GAS  /tmp/ccQSlWks.s 			page 84


 4708              	.LASF206:
 4709 0029 6574685F 		.ascii	"eth_addr\000"
 4709      61646472 
 4709      00
 4710              	.LASF32:
 4711 0032 705F6374 		.ascii	"p_ctx\000"
 4711      7800
 4712              	.LASF22:
 4713 0038 74707269 		.ascii	"tprio_t\000"
 4713      6F5F7400 
 4714              	.LASF152:
 4715 0040 4D454D50 		.ascii	"MEMP_TCP_PCB\000"
 4715      5F544350 
 4715      5F504342 
 4715      00
 4716              	.LASF242:
 4717 004d 63685468 		.ascii	"chThdSetPriority\000"
 4717      64536574 
 4717      5072696F 
 4717      72697479 
 4717      00
 4718              	.LASF124:
 4719 005e 73385F74 		.ascii	"s8_t\000"
 4719      00
 4720              	.LASF42:
 4721 0063 705F6D73 		.ascii	"p_msgqueue\000"
 4721      67717565 
 4721      756500
 4722              	.LASF64:
 4723 006e 725F6374 		.ascii	"r_ctx\000"
 4723      7800
 4724              	.LASF9:
 4725 0074 696E7433 		.ascii	"int32_t\000"
 4725      325F7400 
 4726              	.LASF55:
 4727 007c 76746675 		.ascii	"vtfunc_t\000"
 4727      6E635F74 
 4727      00
 4728              	.LASF161:
 4729 0085 4D454D50 		.ascii	"MEMP_SYS_TIMEOUT\000"
 4729      5F535953 
 4729      5F54494D 
 4729      454F5554 
 4729      00
 4730              	.LASF172:
 4731 0096 72746572 		.ascii	"rterr\000"
 4731      7200
 4732              	.LASF243:
 4733 009c 474E5520 		.ascii	"GNU C 4.7.4 20130613 (release) [ARM/embedded-4_7-br"
 4733      4320342E 
 4733      372E3420 
 4733      32303133 
 4733      30363133 
 4734 00cf 616E6368 		.ascii	"anch revision 200083]\000"
 4734      20726576 
 4734      6973696F 
 4734      6E203230 
ARM GAS  /tmp/ccQSlWks.s 			page 85


 4734      30303833 
 4735              	.LASF216:
 4736 00e5 65746868 		.ascii	"ethhdr\000"
 4736      647200
 4737              	.LASF99:
 4738 00ec 70687961 		.ascii	"phyaddr\000"
 4738      64647200 
 4739              	.LASF80:
 4740 00f4 656C5F66 		.ascii	"el_flags\000"
 4740      6C616773 
 4740      00
 4741              	.LASF94:
 4742 00fd 636F6E66 		.ascii	"config\000"
 4742      696700
 4743              	.LASF93:
 4744 0104 73746174 		.ascii	"state\000"
 4744      6500
 4745              	.LASF219:
 4746 010a 45544844 		.ascii	"ETHD1\000"
 4746      3100
 4747              	.LASF148:
 4748 0110 74797065 		.ascii	"type\000"
 4748      00
 4749              	.LASF88:
 4750 0115 4D41435F 		.ascii	"MAC_UNINIT\000"
 4750      554E494E 
 4750      495400
 4751              	.LASF141:
 4752 0120 50425546 		.ascii	"PBUF_REF\000"
 4752      5F524546 
 4752      00
 4753              	.LASF189:
 4754 0129 6D656D70 		.ascii	"memp\000"
 4754      00
 4755              	.LASF186:
 4756 012e 65746861 		.ascii	"etharp\000"
 4756      727000
 4757              	.LASF74:
 4758 0135 6D5F6F77 		.ascii	"m_owner\000"
 4758      6E657200 
 4759              	.LASF61:
 4760 013d 76745F70 		.ascii	"vt_par\000"
 4760      617200
 4761              	.LASF84:
 4762 0144 65786974 		.ascii	"exitcode\000"
 4762      636F6465 
 4762      00
 4763              	.LASF86:
 4764 014d 65776D61 		.ascii	"ewmask\000"
 4764      736B00
 4765              	.LASF33:
 4766 0154 705F6E65 		.ascii	"p_newer\000"
 4766      77657200 
 4767              	.LASF10:
 4768 015c 6C6F6E67 		.ascii	"long int\000"
 4768      20696E74 
 4768      00
ARM GAS  /tmp/ccQSlWks.s 			page 86


 4769              	.LASF29:
 4770 0165 705F6E65 		.ascii	"p_next\000"
 4770      787400
 4771              	.LASF226:
 4772 016c 6C776970 		.ascii	"lwip_htons\000"
 4772      5F68746F 
 4772      6E7300
 4773              	.LASF30:
 4774 0177 705F7072 		.ascii	"p_prev\000"
 4774      657600
 4775              	.LASF210:
 4776 017e 6C6F775F 		.ascii	"low_level_output\000"
 4776      6C657665 
 4776      6C5F6F75 
 4776      74707574 
 4776      00
 4777              	.LASF19:
 4778 018f 74737461 		.ascii	"tstate_t\000"
 4778      74655F74 
 4778      00
 4779              	.LASF120:
 4780 0198 65745F65 		.ascii	"et_es\000"
 4780      7300
 4781              	.LASF45:
 4782 019e 705F6D74 		.ascii	"p_mtxlist\000"
 4782      786C6973 
 4782      7400
 4783              	.LASF50:
 4784 01a8 72656761 		.ascii	"regarm_t\000"
 4784      726D5F74 
 4784      00
 4785              	.LASF177:
 4786 01b1 61766169 		.ascii	"avail\000"
 4786      6C00
 4787              	.LASF112:
 4788 01b7 6D61635F 		.ascii	"mac_address\000"
 4788      61646472 
 4788      65737300 
 4789              	.LASF197:
 4790 01c3 6C696E6B 		.ascii	"linkoutput\000"
 4790      6F757470 
 4790      757400
 4791              	.LASF198:
 4792 01ce 68776164 		.ascii	"hwaddr_len\000"
 4792      64725F6C 
 4792      656E00
 4793              	.LASF163:
 4794 01d9 4D454D50 		.ascii	"MEMP_PBUF_POOL\000"
 4794      5F504255 
 4794      465F504F 
 4794      4F4C00
 4795              	.LASF3:
 4796 01e8 7369676E 		.ascii	"signed char\000"
 4796      65642063 
 4796      68617200 
 4797              	.LASF39:
 4798 01f4 705F7072 		.ascii	"p_preempt\000"
ARM GAS  /tmp/ccQSlWks.s 			page 87


 4798      65656D70 
 4798      7400
 4799              	.LASF4:
 4800 01fe 75696E74 		.ascii	"uint8_t\000"
 4800      385F7400 
 4801              	.LASF223:
 4802 0206 6D61635F 		.ascii	"mac_lld_write_transmit_descriptor\000"
 4802      6C6C645F 
 4802      77726974 
 4802      655F7472 
 4802      616E736D 
 4803              	.LASF230:
 4804 0228 6D61635F 		.ascii	"mac_lld_read_receive_descriptor\000"
 4804      6C6C645F 
 4804      72656164 
 4804      5F726563 
 4804      65697665 
 4805              	.LASF24:
 4806 0248 6576656E 		.ascii	"eventmask_t\000"
 4806      746D6173 
 4806      6B5F7400 
 4807              	.LASF53:
 4808 0254 636F6E74 		.ascii	"context\000"
 4808      65787400 
 4809              	.LASF244:
 4810 025c 2E2E2F2E 		.ascii	"../../os/various/lwip_bindings/lwipthread.c\000"
 4810      2E2F6F73 
 4810      2F766172 
 4810      696F7573 
 4810      2F6C7769 
 4811              	.LASF5:
 4812 0288 756E7369 		.ascii	"unsigned char\000"
 4812      676E6564 
 4812      20636861 
 4812      7200
 4813              	.LASF106:
 4814 0296 73746D33 		.ascii	"stm32_eth_rx_descriptor_t\000"
 4814      325F6574 
 4814      685F7278 
 4814      5F646573 
 4814      63726970 
 4815              	.LASF58:
 4816 02b0 76745F70 		.ascii	"vt_prev\000"
 4816      72657600 
 4817              	.LASF170:
 4818 02b8 6C656E65 		.ascii	"lenerr\000"
 4818      727200
 4819              	.LASF65:
 4820 02bf 725F6E65 		.ascii	"r_newer\000"
 4820      77657200 
 4821              	.LASF157:
 4822 02c7 4D454D50 		.ascii	"MEMP_NETBUF\000"
 4822      5F4E4554 
 4822      42554600 
 4823              	.LASF168:
 4824 02d3 64726F70 		.ascii	"drop\000"
 4824      00
ARM GAS  /tmp/ccQSlWks.s 			page 88


 4825              	.LASF193:
 4826 02d8 6E657469 		.ascii	"netif_init_fn\000"
 4826      665F696E 
 4826      69745F66 
 4826      6E00
 4827              	.LASF17:
 4828 02e6 5F426F6F 		.ascii	"_Bool\000"
 4828      6C00
 4829              	.LASF142:
 4830 02ec 50425546 		.ascii	"PBUF_POOL\000"
 4830      5F504F4F 
 4830      4C00
 4831              	.LASF232:
 4832 02f6 6D616352 		.ascii	"macReleaseReceiveDescriptor\000"
 4832      656C6561 
 4832      73655265 
 4832      63656976 
 4832      65446573 
 4833              	.LASF87:
 4834 0312 63686172 		.ascii	"char\000"
 4834      00
 4835              	.LASF196:
 4836 0317 6F757470 		.ascii	"output\000"
 4836      757400
 4837              	.LASF144:
 4838 031e 70627566 		.ascii	"pbuf\000"
 4838      00
 4839              	.LASF100:
 4840 0323 72787074 		.ascii	"rxptr\000"
 4840      7200
 4841              	.LASF31:
 4842 0329 705F7072 		.ascii	"p_prio\000"
 4842      696F00
 4843              	.LASF96:
 4844 0330 72647365 		.ascii	"rdsem\000"
 4844      6D00
 4845              	.LASF150:
 4846 0336 4D454D50 		.ascii	"MEMP_RAW_PCB\000"
 4846      5F524157 
 4846      5F504342 
 4846      00
 4847              	.LASF85:
 4848 0343 77746F62 		.ascii	"wtobjp\000"
 4848      6A7000
 4849              	.LASF228:
 4850 034a 6D616357 		.ascii	"macWaitReceiveDescriptor\000"
 4850      61697452 
 4850      65636569 
 4850      76654465 
 4850      73637269 
 4851              	.LASF97:
 4852 0363 72646576 		.ascii	"rdevent\000"
 4852      656E7400 
 4853              	.LASF149:
 4854 036b 666C6167 		.ascii	"flags\000"
 4854      7300
 4855              	.LASF245:
ARM GAS  /tmp/ccQSlWks.s 			page 89


 4856 0371 2F686F6D 		.ascii	"/home/witold/Dokumenty/arm/ChibiOS-master/demos/ARM"
 4856      652F7769 
 4856      746F6C64 
 4856      2F446F6B 
 4856      756D656E 
 4857 03a4 434D342D 		.ascii	"CM4-STM32F407-LWIP\000"
 4857      53544D33 
 4857      32463430 
 4857      372D4C57 
 4857      495000
 4858              	.LASF51:
 4859 03b7 73746B61 		.ascii	"stkalign_t\000"
 4859      6C69676E 
 4859      5F7400
 4860              	.LASF132:
 4861 03c2 6D656D5F 		.ascii	"mem_size_t\000"
 4861      73697A65 
 4861      5F7400
 4862              	.LASF207:
 4863 03cd 6574685F 		.ascii	"eth_hdr\000"
 4863      68647200 
 4864              	.LASF190:
 4865 03d5 69705F61 		.ascii	"ip_addr\000"
 4865      64647200 
 4866              	.LASF195:
 4867 03dd 696E7075 		.ascii	"input\000"
 4867      7400
 4868              	.LASF211:
 4869 03e3 74686973 		.ascii	"thisif\000"
 4869      696600
 4870              	.LASF175:
 4871 03ea 63616368 		.ascii	"cachehit\000"
 4871      65686974 
 4871      00
 4872              	.LASF171:
 4873 03f3 6D656D65 		.ascii	"memerr\000"
 4873      727200
 4874              	.LASF184:
 4875 03fa 73746174 		.ascii	"stats_\000"
 4875      735F00
 4876              	.LASF27:
 4877 0401 636E745F 		.ascii	"cnt_t\000"
 4877      7400
 4878              	.LASF209:
 4879 0407 65746865 		.ascii	"ethernetif_init\000"
 4879      726E6574 
 4879      69665F69 
 4879      6E697400 
 4880              	.LASF225:
 4881 0417 74637069 		.ascii	"tcpip_callback_with_block\000"
 4881      705F6361 
 4881      6C6C6261 
 4881      636B5F77 
 4881      6974685F 
 4882              	.LASF60:
 4883 0431 76745F66 		.ascii	"vt_func\000"
 4883      756E6300 
ARM GAS  /tmp/ccQSlWks.s 			page 90


 4884              	.LASF159:
 4885 0439 4D454D50 		.ascii	"MEMP_TCPIP_MSG_API\000"
 4885      5F544350 
 4885      49505F4D 
 4885      53475F41 
 4885      504900
 4886              	.LASF158:
 4887 044c 4D454D50 		.ascii	"MEMP_NETCONN\000"
 4887      5F4E4554 
 4887      434F4E4E 
 4887      00
 4888              	.LASF52:
 4889 0459 696E7463 		.ascii	"intctx\000"
 4889      747800
 4890              	.LASF44:
 4891 0460 705F6570 		.ascii	"p_epending\000"
 4891      656E6469 
 4891      6E6700
 4892              	.LASF127:
 4893 046b 6C776970 		.ascii	"lwipthread_opts\000"
 4893      74687265 
 4893      61645F6F 
 4893      70747300 
 4894              	.LASF222:
 4895 047b 6D616357 		.ascii	"macWaitTransmitDescriptor\000"
 4895      61697454 
 4895      72616E73 
 4895      6D697444 
 4895      65736372 
 4896              	.LASF128:
 4897 0495 6D616361 		.ascii	"macaddress\000"
 4897      64647265 
 4897      737300
 4898              	.LASF82:
 4899 04a0 65735F6E 		.ascii	"es_next\000"
 4899      65787400 
 4900              	.LASF237:
 4901 04a8 6E657469 		.ascii	"netif_set_default\000"
 4901      665F7365 
 4901      745F6465 
 4901      6661756C 
 4901      7400
 4902              	.LASF81:
 4903 04ba 4576656E 		.ascii	"EventSource\000"
 4903      74536F75 
 4903      72636500 
 4904              	.LASF12:
 4905 04c6 6C6F6E67 		.ascii	"long unsigned int\000"
 4905      20756E73 
 4905      69676E65 
 4905      6420696E 
 4905      7400
 4906              	.LASF194:
 4907 04d8 6E657469 		.ascii	"netif\000"
 4907      6600
 4908              	.LASF129:
 4909 04de 61646472 		.ascii	"address\000"
ARM GAS  /tmp/ccQSlWks.s 			page 91


 4909      65737300 
 4910              	.LASF140:
 4911 04e6 50425546 		.ascii	"PBUF_ROM\000"
 4911      5F524F4D 
 4911      00
 4912              	.LASF199:
 4913 04ef 68776164 		.ascii	"hwaddr\000"
 4913      647200
 4914              	.LASF185:
 4915 04f6 6C696E6B 		.ascii	"link\000"
 4915      00
 4916              	.LASF77:
 4917 04fb 656C5F6E 		.ascii	"el_next\000"
 4917      65787400 
 4918              	.LASF146:
 4919 0503 7061796C 		.ascii	"payload\000"
 4919      6F616400 
 4920              	.LASF204:
 4921 050b 74637069 		.ascii	"tcpip_init_done_fn\000"
 4921      705F696E 
 4921      69745F64 
 4921      6F6E655F 
 4921      666E00
 4922              	.LASF92:
 4923 051e 4D414344 		.ascii	"MACDriver\000"
 4923      72697665 
 4923      7200
 4924              	.LASF166:
 4925 0528 786D6974 		.ascii	"xmit\000"
 4925      00
 4926              	.LASF122:
 4927 052d 45765469 		.ascii	"EvTimer\000"
 4927      6D657200 
 4928              	.LASF72:
 4929 0535 4D757465 		.ascii	"Mutex\000"
 4929      7800
 4930              	.LASF13:
 4931 053b 6C6F6E67 		.ascii	"long long int\000"
 4931      206C6F6E 
 4931      6720696E 
 4931      7400
 4932              	.LASF73:
 4933 0549 6D5F7175 		.ascii	"m_queue\000"
 4933      65756500 
 4934              	.LASF57:
 4935 0551 76745F6E 		.ascii	"vt_next\000"
 4935      65787400 
 4936              	.LASF90:
 4937 0559 4D41435F 		.ascii	"MAC_ACTIVE\000"
 4937      41435449 
 4937      564500
 4938              	.LASF130:
 4939 0564 6E65746D 		.ascii	"netmask\000"
 4939      61736B00 
 4940              	.LASF214:
 4941 056c 6D61736B 		.ascii	"mask\000"
 4941      00
ARM GAS  /tmp/ccQSlWks.s 			page 92


 4942              	.LASF182:
 4943 0571 6D757465 		.ascii	"mutex\000"
 4943      7800
 4944              	.LASF218:
 4945 0577 49544D5F 		.ascii	"ITM_RxBuffer\000"
 4945      52784275 
 4945      66666572 
 4945      00
 4946              	.LASF180:
 4947 0584 73746174 		.ascii	"stats_syselem\000"
 4947      735F7379 
 4947      73656C65 
 4947      6D00
 4948              	.LASF165:
 4949 0592 73746174 		.ascii	"stats_proto\000"
 4949      735F7072 
 4949      6F746F00 
 4950              	.LASF241:
 4951 059e 63684576 		.ascii	"chEvtAddEvents\000"
 4951      74416464 
 4951      4576656E 
 4951      747300
 4952              	.LASF248:
 4953 05ad 6C776970 		.ascii	"lwip_thread\000"
 4953      5F746872 
 4953      65616400 
 4954              	.LASF246:
 4955 05b9 6C6F775F 		.ascii	"low_level_init\000"
 4955      6C657665 
 4955      6C5F696E 
 4955      697400
 4956              	.LASF215:
 4957 05c8 63757272 		.ascii	"current_link_status\000"
 4957      656E745F 
 4957      6C696E6B 
 4957      5F737461 
 4957      74757300 
 4958              	.LASF41:
 4959 05dc 705F7761 		.ascii	"p_waiting\000"
 4959      6974696E 
 4959      6700
 4960              	.LASF191:
 4961 05e6 61646472 		.ascii	"addr\000"
 4961      00
 4962              	.LASF37:
 4963 05eb 705F666C 		.ascii	"p_flags\000"
 4963      61677300 
 4964              	.LASF121:
 4965 05f3 65745F69 		.ascii	"et_interval\000"
 4965      6E746572 
 4965      76616C00 
 4966              	.LASF0:
 4967 05ff 756E7369 		.ascii	"unsigned int\000"
 4967      676E6564 
 4967      20696E74 
 4967      00
 4968              	.LASF187:
ARM GAS  /tmp/ccQSlWks.s 			page 93


 4969 060c 69705F66 		.ascii	"ip_frag\000"
 4969      72616700 
 4970              	.LASF213:
 4971 0614 6F707473 		.ascii	"opts\000"
 4971      00
 4972              	.LASF125:
 4973 0619 7531365F 		.ascii	"u16_t\000"
 4973      7400
 4974              	.LASF47:
 4975 061f 705F6D70 		.ascii	"p_mpool\000"
 4975      6F6F6C00 
 4976              	.LASF183:
 4977 0627 6D626F78 		.ascii	"mbox\000"
 4977      00
 4978              	.LASF135:
 4979 062c 50425546 		.ascii	"PBUF_IP\000"
 4979      5F495000 
 4980              	.LASF38:
 4981 0634 705F7265 		.ascii	"p_refs\000"
 4981      667300
 4982              	.LASF107:
 4983 063b 74646573 		.ascii	"tdes0\000"
 4983      3000
 4984              	.LASF108:
 4985 0641 74646573 		.ascii	"tdes1\000"
 4985      3100
 4986              	.LASF109:
 4987 0647 74646573 		.ascii	"tdes2\000"
 4987      3200
 4988              	.LASF110:
 4989 064d 74646573 		.ascii	"tdes3\000"
 4989      3300
 4990              	.LASF201:
 4991 0653 6E657469 		.ascii	"netif_input_fn\000"
 4991      665F696E 
 4991      7075745F 
 4991      666E00
 4992              	.LASF119:
 4993 0662 65745F76 		.ascii	"et_vt\000"
 4993      7400
 4994              	.LASF49:
 4995 0668 54687265 		.ascii	"ThreadsList\000"
 4995      6164734C 
 4995      69737400 
 4996              	.LASF143:
 4997 0674 70627566 		.ascii	"pbuf_type\000"
 4997      5F747970 
 4997      6500
 4998              	.LASF114:
 4999 067e 6F666673 		.ascii	"offset\000"
 4999      657400
 5000              	.LASF203:
 5001 0685 6E657469 		.ascii	"netif_linkoutput_fn\000"
 5001      665F6C69 
 5001      6E6B6F75 
 5001      74707574 
 5001      5F666E00 
ARM GAS  /tmp/ccQSlWks.s 			page 94


 5002              	.LASF25:
 5003 0699 666C6167 		.ascii	"flagsmask_t\000"
 5003      736D6173 
 5003      6B5F7400 
 5004              	.LASF205:
 5005 06a5 74637069 		.ascii	"tcpip_callback_fn\000"
 5005      705F6361 
 5005      6C6C6261 
 5005      636B5F66 
 5005      6E00
 5006              	.LASF40:
 5007 06b7 705F7469 		.ascii	"p_time\000"
 5007      6D6500
 5008              	.LASF202:
 5009 06be 6E657469 		.ascii	"netif_output_fn\000"
 5009      665F6F75 
 5009      74707574 
 5009      5F666E00 
 5010              	.LASF167:
 5011 06ce 72656376 		.ascii	"recv\000"
 5011      00
 5012              	.LASF178:
 5013 06d3 75736564 		.ascii	"used\000"
 5013      00
 5014              	.LASF147:
 5015 06d8 746F745F 		.ascii	"tot_len\000"
 5015      6C656E00 
 5016              	.LASF145:
 5017 06e0 6E657874 		.ascii	"next\000"
 5017      00
 5018              	.LASF192:
 5019 06e5 69705F61 		.ascii	"ip_addr_t\000"
 5019      6464725F 
 5019      7400
 5020              	.LASF69:
 5021 06ef 53656D61 		.ascii	"Semaphore\000"
 5021      70686F72 
 5021      6500
 5022              	.LASF46:
 5023 06f9 705F7265 		.ascii	"p_realprio\000"
 5023      616C7072 
 5023      696F00
 5024              	.LASF133:
 5025 0704 6572725F 		.ascii	"err_t\000"
 5025      7400
 5026              	.LASF181:
 5027 070a 73746174 		.ascii	"stats_sys\000"
 5027      735F7379 
 5027      7300
 5028              	.LASF155:
 5029 0714 4D454D50 		.ascii	"MEMP_REASSDATA\000"
 5029      5F524541 
 5029      53534441 
 5029      544100
 5030              	.LASF71:
 5031 0723 735F636E 		.ascii	"s_cnt\000"
 5031      7400
ARM GAS  /tmp/ccQSlWks.s 			page 95


 5032              	.LASF188:
 5033 0729 69636D70 		.ascii	"icmp\000"
 5033      00
 5034              	.LASF156:
 5035 072e 4D454D50 		.ascii	"MEMP_FRAG_PBUF\000"
 5035      5F465241 
 5035      475F5042 
 5035      554600
 5036              	.LASF115:
 5037 073d 73697A65 		.ascii	"size\000"
 5037      00
 5038              	.LASF15:
 5039 0742 6C6F6E67 		.ascii	"long long unsigned int\000"
 5039      206C6F6E 
 5039      6720756E 
 5039      7369676E 
 5039      65642069 
 5040              	.LASF117:
 5041 0759 4D414354 		.ascii	"MACTransmitDescriptor\000"
 5041      72616E73 
 5041      6D697444 
 5041      65736372 
 5041      6970746F 
 5042              	.LASF151:
 5043 076f 4D454D50 		.ascii	"MEMP_UDP_PCB\000"
 5043      5F554450 
 5043      5F504342 
 5043      00
 5044              	.LASF34:
 5045 077c 705F6F6C 		.ascii	"p_older\000"
 5045      64657200 
 5046              	.LASF154:
 5047 0784 4D454D50 		.ascii	"MEMP_TCP_SEG\000"
 5047      5F544350 
 5047      5F534547 
 5047      00
 5048              	.LASF7:
 5049 0791 75696E74 		.ascii	"uint16_t\000"
 5049      31365F74 
 5049      00
 5050              	.LASF23:
 5051 079a 6D73675F 		.ascii	"msg_t\000"
 5051      7400
 5052              	.LASF160:
 5053 07a0 4D454D50 		.ascii	"MEMP_TCPIP_MSG_INPKT\000"
 5053      5F544350 
 5053      49505F4D 
 5053      53475F49 
 5053      4E504B54 
 5054              	.LASF229:
 5055 07b5 70627566 		.ascii	"pbuf_alloc\000"
 5055      5F616C6C 
 5055      6F6300
 5056              	.LASF21:
 5057 07c0 74736C69 		.ascii	"tslices_t\000"
 5057      6365735F 
 5057      7400
ARM GAS  /tmp/ccQSlWks.s 			page 96


 5058              	.LASF176:
 5059 07ca 73746174 		.ascii	"stats_mem\000"
 5059      735F6D65 
 5059      6D00
 5060              	.LASF67:
 5061 07d4 725F6375 		.ascii	"r_current\000"
 5061      7272656E 
 5061      7400
 5062              	.LASF179:
 5063 07de 696C6C65 		.ascii	"illegal\000"
 5063      67616C00 
 5064              	.LASF174:
 5065 07e6 6F707465 		.ascii	"opterr\000"
 5065      727200
 5066              	.LASF220:
 5067 07ed 77615F6C 		.ascii	"wa_lwip_thread\000"
 5067      7769705F 
 5067      74687265 
 5067      616400
 5068              	.LASF169:
 5069 07fc 63686B65 		.ascii	"chkerr\000"
 5069      727200
 5070              	.LASF113:
 5071 0803 4D414343 		.ascii	"MACConfig\000"
 5071      6F6E6669 
 5071      6700
 5072              	.LASF138:
 5073 080d 70627566 		.ascii	"pbuf_layer\000"
 5073      5F6C6179 
 5073      657200
 5074              	.LASF235:
 5075 0818 6D616353 		.ascii	"macStart\000"
 5075      74617274 
 5075      00
 5076              	.LASF62:
 5077 0821 725F7175 		.ascii	"r_queue\000"
 5077      65756500 
 5078              	.LASF227:
 5079 0829 70627566 		.ascii	"pbuf_free\000"
 5079      5F667265 
 5079      6500
 5080              	.LASF208:
 5081 0833 64657374 		.ascii	"dest\000"
 5081      00
 5082              	.LASF164:
 5083 0838 4D454D50 		.ascii	"MEMP_MAX\000"
 5083      5F4D4158 
 5083      00
 5084              	.LASF126:
 5085 0841 7533325F 		.ascii	"u32_t\000"
 5085      7400
 5086              	.LASF217:
 5087 0847 726C6973 		.ascii	"rlist\000"
 5087      7400
 5088              	.LASF18:
 5089 084d 746D6F64 		.ascii	"tmode_t\000"
 5089      655F7400 
ARM GAS  /tmp/ccQSlWks.s 			page 97


 5090              	.LASF98:
 5091 0855 6C696E6B 		.ascii	"link_up\000"
 5091      5F757000 
 5092              	.LASF66:
 5093 085d 725F6F6C 		.ascii	"r_older\000"
 5093      64657200 
 5094              	.LASF212:
 5095 0865 6D61635F 		.ascii	"mac_config\000"
 5095      636F6E66 
 5095      696700
 5096              	.LASF200:
 5097 0870 6E616D65 		.ascii	"name\000"
 5097      00
 5098              	.LASF70:
 5099 0875 735F7175 		.ascii	"s_queue\000"
 5099      65756500 
 5100              	.LASF162:
 5101 087d 4D454D50 		.ascii	"MEMP_PBUF\000"
 5101      5F504255 
 5101      4600
 5102              	.LASF6:
 5103 0887 73686F72 		.ascii	"short int\000"
 5103      7420696E 
 5103      7400
 5104              	.LASF14:
 5105 0891 75696E74 		.ascii	"uint64_t\000"
 5105      36345F74 
 5105      00
 5106              	.LASF221:
 5107 089a 6C776970 		.ascii	"lwip_stats\000"
 5107      5F737461 
 5107      747300
 5108              	.LASF63:
 5109 08a5 725F7072 		.ascii	"r_prio\000"
 5109      696F00
 5110              	.LASF16:
 5111 08ac 626F6F6C 		.ascii	"bool_t\000"
 5111      5F7400
 5112              	.LASF28:
 5113 08b3 54687265 		.ascii	"Thread\000"
 5113      616400
 5114              	.LASF131:
 5115 08ba 67617465 		.ascii	"gateway\000"
 5115      77617900 
 5116              	.LASF231:
 5117 08c2 6D616352 		.ascii	"macReleaseTransmitDescriptor\000"
 5117      656C6561 
 5117      73655472 
 5117      616E736D 
 5117      69744465 
 5118              	.LASF236:
 5119 08df 6E657469 		.ascii	"netif_add\000"
 5119      665F6164 
 5119      6400
 5120              	.LASF20:
 5121 08e9 74726566 		.ascii	"trefs_t\000"
 5121      735F7400 
ARM GAS  /tmp/ccQSlWks.s 			page 98


 5122              	.LASF91:
 5123 08f1 6D616373 		.ascii	"macstate_t\000"
 5123      74617465 
 5123      5F7400
 5124              	.LASF76:
 5125 08fc 4576656E 		.ascii	"EventListener\000"
 5125      744C6973 
 5125      74656E65 
 5125      7200
 5126              	.LASF102:
 5127 090a 72646573 		.ascii	"rdes0\000"
 5127      3000
 5128              	.LASF103:
 5129 0910 72646573 		.ascii	"rdes1\000"
 5129      3100
 5130              	.LASF104:
 5131 0916 72646573 		.ascii	"rdes2\000"
 5131      3200
 5132              	.LASF105:
 5133 091c 72646573 		.ascii	"rdes3\000"
 5133      3300
 5134              	.LASF11:
 5135 0922 75696E74 		.ascii	"uint32_t\000"
 5135      33325F74 
 5135      00
 5136              	.LASF56:
 5137 092b 56697274 		.ascii	"VirtualTimer\000"
 5137      75616C54 
 5137      696D6572 
 5137      00
 5138              	.LASF234:
 5139 0938 74637069 		.ascii	"tcpip_init\000"
 5139      705F696E 
 5139      697400
 5140              	.LASF134:
 5141 0943 50425546 		.ascii	"PBUF_TRANSPORT\000"
 5141      5F545241 
 5141      4E53504F 
 5141      525400
 5142              	.LASF48:
 5143 0952 54687265 		.ascii	"ThreadsQueue\000"
 5143      61647351 
 5143      75657565 
 5143      00
 5144              	.LASF238:
 5145 095f 6E657469 		.ascii	"netif_set_up\000"
 5145      665F7365 
 5145      745F7570 
 5145      00
 5146              	.LASF89:
 5147 096c 4D41435F 		.ascii	"MAC_STOP\000"
 5147      53544F50 
 5147      00
 5148              	.LASF224:
 5149 0975 6D616350 		.ascii	"macPollLinkStatus\000"
 5149      6F6C6C4C 
 5149      696E6B53 
ARM GAS  /tmp/ccQSlWks.s 			page 99


 5149      74617475 
 5149      7300
 5150              	.LASF83:
 5151 0987 7264796D 		.ascii	"rdymsg\000"
 5151      736700
 5152              	.LASF240:
 5153 098e 63684576 		.ascii	"chEvtRegisterMask\000"
 5153      74526567 
 5153      69737465 
 5153      724D6173 
 5153      6B00
 5154              	.LASF116:
 5155 09a0 70687973 		.ascii	"physdesc\000"
 5155      64657363 
 5155      00
 5156              	.LASF8:
 5157 09a9 73686F72 		.ascii	"short unsigned int\000"
 5157      7420756E 
 5157      7369676E 
 5157      65642069 
 5157      6E7400
 5158              	.LASF111:
 5159 09bc 73746D33 		.ascii	"stm32_eth_tx_descriptor_t\000"
 5159      325F6574 
 5159      685F7478 
 5159      5F646573 
 5159      63726970 
 5160              	.LASF247:
 5161 09d6 6C6F775F 		.ascii	"low_level_input\000"
 5161      6C657665 
 5161      6C5F696E 
 5161      70757400 
 5162              	.LASF123:
 5163 09e6 75385F74 		.ascii	"u8_t\000"
 5163      00
 5164              	.LASF233:
 5165 09eb 63684576 		.ascii	"chEvtWaitAny\000"
 5165      74576169 
 5165      74416E79 
 5165      00
 5166              	.LASF118:
 5167 09f8 4D414352 		.ascii	"MACReceiveDescriptor\000"
 5167      65636569 
 5167      76654465 
 5167      73637269 
 5167      70746F72 
 5168              	.LASF79:
 5169 0a0d 656C5F6D 		.ascii	"el_mask\000"
 5169      61736B00 
 5170              	.LASF68:
 5171 0a15 52656164 		.ascii	"ReadyList\000"
 5171      794C6973 
 5171      7400
 5172              	.LASF139:
 5173 0a1f 50425546 		.ascii	"PBUF_RAM\000"
 5173      5F52414D 
 5173      00
ARM GAS  /tmp/ccQSlWks.s 			page 100


 5174              	.LASF101:
 5175 0a28 74787074 		.ascii	"txptr\000"
 5175      7200
 5176              	.LASF137:
 5177 0a2e 50425546 		.ascii	"PBUF_RAW\000"
 5177      5F524157 
 5177      00
 5178              	.LASF35:
 5179 0a37 705F6E61 		.ascii	"p_name\000"
 5179      6D6500
 5180              	.LASF95:
 5181 0a3e 74647365 		.ascii	"tdsem\000"
 5181      6D00
 5182              	.LASF59:
 5183 0a44 76745F74 		.ascii	"vt_time\000"
 5183      696D6500 
 5184              	.LASF75:
 5185 0a4c 6D5F6E65 		.ascii	"m_next\000"
 5185      787400
 5186              	.LASF239:
 5187 0a53 65767453 		.ascii	"evtStart\000"
 5187      74617274 
 5187      00
 5188              	.LASF153:
 5189 0a5c 4D454D50 		.ascii	"MEMP_TCP_PCB_LISTEN\000"
 5189      5F544350 
 5189      5F504342 
 5189      5F4C4953 
 5189      54454E00 
 5190              	.LASF136:
 5191 0a70 50425546 		.ascii	"PBUF_LINK\000"
 5191      5F4C494E 
 5191      4B00
 5192              	.LASF43:
 5193 0a7a 705F6D73 		.ascii	"p_msg\000"
 5193      6700
 5194              	.LASF78:
 5195 0a80 656C5F6C 		.ascii	"el_listener\000"
 5195      69737465 
 5195      6E657200 
 5196              	.LASF36:
 5197 0a8c 705F7374 		.ascii	"p_state\000"
 5197      61746500 
 5198              		.ident	"GCC: (GNU Tools for ARM Embedded Processors) 4.7.4 20130613 (release) [ARM/embedded-4_7-br
ARM GAS  /tmp/ccQSlWks.s 			page 101


DEFINED SYMBOLS
                            *ABS*:00000000 lwipthread.c
     /tmp/ccQSlWks.s:19     .text.ethernetif_init:00000000 $t
     /tmp/ccQSlWks.s:24     .text.ethernetif_init:00000000 ethernetif_init
     /tmp/ccQSlWks.s:96     .text.low_level_output:00000000 low_level_output
     /tmp/ccQSlWks.s:91     .text.low_level_output:00000000 $t
     /tmp/ccQSlWks.s:164    .text.low_level_output:00000040 $d
     /tmp/ccQSlWks.s:170    .text.lwip_thread:00000000 $t
     /tmp/ccQSlWks.s:176    .text.lwip_thread:00000000 lwip_thread
     /tmp/ccQSlWks.s:546    .text.lwip_thread:000001bc $d
     /tmp/ccQSlWks.s:565    .bss.wa_lwip_thread:00000000 wa_lwip_thread
     /tmp/ccQSlWks.s:562    .bss.wa_lwip_thread:00000000 $d
     /tmp/ccQSlWks.s:568    .rodata.mac_config.7296:00000000 $d
     /tmp/ccQSlWks.s:572    .rodata.mac_config.7296:00000000 mac_config.7296
     /tmp/ccQSlWks.s:583    .bss.thisif.7295:00000000 thisif.7295
     /tmp/ccQSlWks.s:575    .rodata.str1.4:00000000 $d
     /tmp/ccQSlWks.s:579    .bss.thisif.7295:00000000 $d
                     .debug_frame:00000010 $d
     /tmp/ccQSlWks.s:169    .text.low_level_output:00000048 $t
     /tmp/ccQSlWks.s:561    .text.lwip_thread:000001e8 $t

UNDEFINED SYMBOLS
etharp_output
macWaitTransmitDescriptor
mac_lld_write_transmit_descriptor
macReleaseTransmitDescriptor
ETHD1
lwip_stats
tcpip_init
macStart
netif_add
netif_set_default
netif_set_up
evtStart
chEvtRegisterMask
chEvtAddEvents
chThdSetPriority
chEvtWaitAny
macPollLinkStatus
tcpip_callback_with_block
macWaitReceiveDescriptor
pbuf_alloc
mac_lld_read_receive_descriptor
macReleaseReceiveDescriptor
lwip_htons
pbuf_free
rlist
tcpip_input
netif_set_link_up
netif_set_link_down
