ARM GAS  /tmp/ccQSlWks.s 			page 1


   1              		.syntax unified
   2              		.cpu cortex-m4
   3              		.fpu softvfp
   4              		.eabi_attribute 20, 1
   5              		.eabi_attribute 21, 1
   6              		.eabi_attribute 23, 3
   7              		.eabi_attribute 24, 1
   8              		.eabi_attribute 25, 1
   9              		.eabi_attribute 26, 1
  10              		.eabi_attribute 30, 2
  11              		.eabi_attribute 34, 1
  12              		.eabi_attribute 18, 4
  13              		.thumb
  14              		.file	"lwipthread.c"
  15              		.text
  16              	.Ltext0:
  17              		.cfi_sections	.debug_frame
  18              		.section	.text.ethernetif_init,"ax",%progbits
  19              		.align	2
  20              		.p2align 4,,15
  21              		.thumb
  22              		.thumb_func
  23              		.type	ethernetif_init, %function
  24              	ethernetif_init:
  25              	.LFB121:
  26              		.file 1 "../../os/various/lwip_bindings/lwipthread.c"
  27              		.loc 1 179 0
  28              		.cfi_startproc
  29              		@ args = 0, pretend = 0, frame = 0
  30              		@ frame_needed = 0, uses_anonymous_args = 0
  31              		@ link register save eliminated.
  32              	.LVL0:
  33              		.loc 1 179 0
  34 0000 0346     		mov	r3, r0
  35              		.loc 1 193 0
  36 0002 6D22     		movs	r2, #109
  37              		.loc 1 194 0
  38 0004 7321     		movs	r1, #115
  39              		.loc 1 193 0
  40 0006 83F82A20 		strb	r2, [r3, #42]
  41              		.loc 1 199 0
  42 000a 40F20002 		movw	r2, #:lower16:etharp_output
  43              		.loc 1 194 0
  44 000e 83F82B10 		strb	r1, [r3, #43]
  45              		.loc 1 199 0
  46 0012 C0F20002 		movt	r2, #:upper16:etharp_output
  47              		.loc 1 200 0
  48 0016 40F20001 		movw	r1, #:lower16:low_level_output
  49              		.loc 1 199 0
  50 001a 5A61     		str	r2, [r3, #20]
  51              		.loc 1 200 0
  52 001c C0F20001 		movt	r1, #:upper16:low_level_output
  53              	.LBB4:
  54              	.LBB5:
  55              		.loc 1 89 0
  56 0020 0622     		movs	r2, #6
  57              	.LBE5:
ARM GAS  /tmp/ccQSlWks.s 			page 2


  58              	.LBE4:
  59              		.loc 1 192 0
  60 0022 0020     		movs	r0, #0
  61              	.LVL1:
  62              		.loc 1 200 0
  63 0024 9961     		str	r1, [r3, #24]
  64              	.LVL2:
  65              	.LBB8:
  66              	.LBB6:
  67              		.loc 1 89 0
  68 0026 83F82220 		strb	r2, [r3, #34]
  69              		.loc 1 92 0
  70 002a 40F2DC51 		movw	r1, #1500
  71              		.loc 1 96 0
  72 002e 3222     		movs	r2, #50
  73              	.LBE6:
  74              	.LBE8:
  75              		.loc 1 192 0
  76 0030 D861     		str	r0, [r3, #28]
  77              	.LBB9:
  78              	.LBB7:
  79              		.loc 1 92 0
  80 0032 1984     		strh	r1, [r3, #32]	@ movhi
  81              		.loc 1 96 0
  82 0034 83F82920 		strb	r2, [r3, #41]
  83              	.LBE7:
  84              	.LBE9:
  85              		.loc 1 206 0
  86 0038 7047     		bx	lr
  87              		.cfi_endproc
  88              	.LFE121:
  89              		.size	ethernetif_init, .-ethernetif_init
  90 003a 00BFAFF3 		.section	.text.low_level_output,"ax",%progbits
  90      0080
  91              		.align	2
  92              		.p2align 4,,15
  93              		.thumb
  94              		.thumb_func
  95              		.type	low_level_output, %function
  96              	low_level_output:
  97              	.LFB119:
  98              		.loc 1 104 0
  99              		.cfi_startproc
 100              		@ args = 0, pretend = 0, frame = 16
 101              		@ frame_needed = 0, uses_anonymous_args = 0
 102              	.LVL3:
 103 0000 10B5     		push	{r4, lr}
 104              	.LCFI0:
 105              		.cfi_def_cfa_offset 8
 106              		.cfi_offset 4, -8
 107              		.cfi_offset 14, -4
 108 0002 84B0     		sub	sp, sp, #16
 109              	.LCFI1:
 110              		.cfi_def_cfa_offset 24
 111              		.loc 1 104 0
 112 0004 0C46     		mov	r4, r1
 113              		.loc 1 109 0
ARM GAS  /tmp/ccQSlWks.s 			page 3


 114 0006 0E48     		ldr	r0, .L12
 115              	.LVL4:
 116 0008 01A9     		add	r1, sp, #4
 117              	.LVL5:
 118 000a 3222     		movs	r2, #50
 119 000c FFF7FEFF 		bl	macWaitTransmitDescriptor
 120              	.LVL6:
 121 0010 98B9     		cbnz	r0, .L7
 122              	.LVL7:
 123              		.loc 1 117 0 discriminator 2
 124 0012 3CB1     		cbz	r4, .L11
 125              	.LVL8:
 126              	.L5:
 127              		.loc 1 118 0 discriminator 2
 128 0014 6168     		ldr	r1, [r4, #4]
 129 0016 6289     		ldrh	r2, [r4, #10]
 130 0018 01A8     		add	r0, sp, #4
 131 001a FFF7FEFF 		bl	mac_lld_write_transmit_descriptor
 132              	.LVL9:
 133              		.loc 1 117 0 discriminator 2
 134 001e 2468     		ldr	r4, [r4, #0]
 135              	.LVL10:
 136 0020 002C     		cmp	r4, #0
 137 0022 F7D1     		bne	.L5
 138              	.L11:
 139              		.loc 1 119 0
 140 0024 01A8     		add	r0, sp, #4
 141 0026 FFF7FEFF 		bl	macReleaseTransmitDescriptor
 142              	.LVL11:
 143              		.loc 1 125 0
 144 002a 064B     		ldr	r3, .L12+4
 145 002c 1A88     		ldrh	r2, [r3, #0]
 146 002e 501C     		adds	r0, r2, #1
 147 0030 1880     		strh	r0, [r3, #0]	@ movhi
 148              		.loc 1 127 0
 149 0032 0021     		movs	r1, #0
 150              	.LVL12:
 151              	.L3:
 152              		.loc 1 128 0
 153 0034 48B2     		sxtb	r0, r1
 154 0036 04B0     		add	sp, sp, #16
 155 0038 10BD     		pop	{r4, pc}
 156              	.LVL13:
 157              	.L7:
 158              		.loc 1 110 0
 159 003a FD21     		movs	r1, #253
 160 003c FAE7     		b	.L3
 161              	.L13:
 162 003e 00BF     		.align	2
 163              	.L12:
 164 0040 00000000 		.word	ETHD1
 165 0044 00000000 		.word	lwip_stats
 166              		.cfi_endproc
 167              	.LFE119:
 168              		.size	low_level_output, .-low_level_output
 169 0048 AFF30080 		.section	.text.lwip_thread,"ax",%progbits
 169      AFF30080 
ARM GAS  /tmp/ccQSlWks.s 			page 4


 170              		.align	2
 171              		.p2align 4,,15
 172              		.global	lwip_thread
 173              		.thumb
 174              		.thumb_func
 175              		.type	lwip_thread, %function
 176              	lwip_thread:
 177              	.LFB122:
 178              		.loc 1 214 0
 179              		.cfi_startproc
 180              		@ args = 0, pretend = 0, frame = 88
 181              		@ frame_needed = 0, uses_anonymous_args = 0
 182              	.LVL14:
 183 0000 2DE9F041 		push	{r4, r5, r6, r7, r8, lr}
 184              	.LCFI2:
 185              		.cfi_def_cfa_offset 24
 186              		.cfi_offset 4, -24
 187              		.cfi_offset 5, -20
 188              		.cfi_offset 6, -16
 189              		.cfi_offset 7, -12
 190              		.cfi_offset 8, -8
 191              		.cfi_offset 14, -4
 192              		.loc 1 221 0
 193 0004 6D4B     		ldr	r3, .L45
 194 0006 6E4A     		ldr	r2, .L45+4
 195 0008 9969     		ldr	r1, [r3, #24]
 196              		.loc 1 214 0
 197 000a 0446     		mov	r4, r0
 198              		.loc 1 224 0
 199 000c 0020     		movs	r0, #0
 200              	.LVL15:
 201              		.loc 1 214 0
 202 000e 9AB0     		sub	sp, sp, #104
 203              	.LCFI3:
 204              		.cfi_def_cfa_offset 128
 205              		.loc 1 221 0
 206 0010 8A61     		str	r2, [r1, #24]
 207              		.loc 1 224 0
 208 0012 0146     		mov	r1, r0
 209 0014 FFF7FEFF 		bl	tcpip_init
 210              	.LVL16:
 211              		.loc 1 227 0
 212 0018 002C     		cmp	r4, #0
 213 001a 00F0AF80 		beq	.L15
 214              	.LBB17:
 215              		.loc 1 232 0
 216 001e 2568     		ldr	r5, [r4, #0]
 217 0020 684E     		ldr	r6, .L45+8
 218 0022 2B78     		ldrb	r3, [r5, #0]	@ zero_extendqisi2
 219 0024 86F82330 		strb	r3, [r6, #35]
 220              	.LVL17:
 221 0028 2168     		ldr	r1, [r4, #0]
 222 002a 4A78     		ldrb	r2, [r1, #1]	@ zero_extendqisi2
 223 002c 86F82420 		strb	r2, [r6, #36]
 224              	.LVL18:
 225 0030 2768     		ldr	r7, [r4, #0]
 226 0032 B878     		ldrb	r0, [r7, #2]	@ zero_extendqisi2
ARM GAS  /tmp/ccQSlWks.s 			page 5


 227 0034 86F82500 		strb	r0, [r6, #37]
 228              	.LVL19:
 229 0038 2568     		ldr	r5, [r4, #0]
 230 003a EB78     		ldrb	r3, [r5, #3]	@ zero_extendqisi2
 231 003c 86F82630 		strb	r3, [r6, #38]
 232              	.LVL20:
 233 0040 2168     		ldr	r1, [r4, #0]
 234 0042 0A79     		ldrb	r2, [r1, #4]	@ zero_extendqisi2
 235 0044 86F82720 		strb	r2, [r6, #39]
 236              	.LVL21:
 237 0048 2768     		ldr	r7, [r4, #0]
 238 004a 7879     		ldrb	r0, [r7, #5]	@ zero_extendqisi2
 239 004c 86F82800 		strb	r0, [r6, #40]
 240              	.LVL22:
 241              		.loc 1 233 0
 242 0050 6568     		ldr	r5, [r4, #4]
 243              		.loc 1 234 0
 244 0052 E168     		ldr	r1, [r4, #12]
 245              		.loc 1 235 0
 246 0054 A468     		ldr	r4, [r4, #8]
 247              	.LVL23:
 248              		.loc 1 233 0
 249 0056 0595     		str	r5, [sp, #20]
 250              		.loc 1 234 0
 251 0058 0691     		str	r1, [sp, #24]
 252              		.loc 1 235 0
 253 005a 0794     		str	r4, [sp, #28]
 254              	.LVL24:
 255              	.L16:
 256              	.LBE17:
 257              		.loc 1 248 0
 258 005c 5A48     		ldr	r0, .L45+12
 259 005e 5B49     		ldr	r1, .L45+16
 260 0060 5B4F     		ldr	r7, .L45+20
 261 0062 FFF7FEFF 		bl	macStart
 262              	.LVL25:
 263              		.loc 1 249 0
 264 0066 5B4B     		ldr	r3, .L45+24
 265 0068 5B48     		ldr	r0, .L45+28
 266 006a 0193     		str	r3, [sp, #4]
 267 006c 0024     		movs	r4, #0
 268 006e 06AB     		add	r3, sp, #24
 269 0070 05A9     		add	r1, sp, #20
 270 0072 07AA     		add	r2, sp, #28
 271 0074 0290     		str	r0, [sp, #8]
 272 0076 0094     		str	r4, [sp, #0]
 273 0078 5248     		ldr	r0, .L45+8
 274 007a FFF7FEFF 		bl	netif_add
 275              	.LVL26:
 276              		.loc 1 251 0
 277 007e 5148     		ldr	r0, .L45+8
 278 0080 FFF7FEFF 		bl	netif_set_default
 279              	.LVL27:
 280              		.loc 1 252 0
 281 0084 4F48     		ldr	r0, .L45+8
 282 0086 FFF7FEFF 		bl	netif_set_up
 283              	.LVL28:
ARM GAS  /tmp/ccQSlWks.s 			page 6


 284              		.loc 1 255 0
 285 008a 18AD     		add	r5, sp, #96
 286              		.loc 1 256 0
 287 008c 13A8     		add	r0, sp, #76
 288              		.loc 1 255 0
 289 008e 41F28832 		movw	r2, #5000
 290 0092 1992     		str	r2, [sp, #100]
 291 0094 1895     		str	r5, [sp, #96]
 292 0096 1694     		str	r4, [sp, #88]
 293              		.loc 1 256 0
 294 0098 FFF7FEFF 		bl	evtStart
 295              	.LVL29:
 296              		.loc 1 257 0
 297 009c 2846     		mov	r0, r5
 298 009e 0BA9     		add	r1, sp, #44
 299 00a0 0122     		movs	r2, #1
 300 00a2 FFF7FEFF 		bl	chEvtRegisterMask
 301              	.LVL30:
 302              		.loc 1 258 0
 303 00a6 0FA9     		add	r1, sp, #60
 304 00a8 0222     		movs	r2, #2
 305 00aa 4C48     		ldr	r0, .L45+32
 306 00ac FFF7FEFF 		bl	chEvtRegisterMask
 307              	.LVL31:
 308              		.loc 1 259 0
 309 00b0 0320     		movs	r0, #3
 310 00b2 FFF7FEFF 		bl	chEvtAddEvents
 311              	.LVL32:
 312              		.loc 1 262 0
 313 00b6 0220     		movs	r0, #2
 314 00b8 FFF7FEFF 		bl	chThdSetPriority
 315              	.LVL33:
 316 00bc 01E0     		b	.L43
 317              	.LVL34:
 318              	.L18:
 319              	.LBB18:
 320              		.loc 1 277 0
 321 00be A307     		lsls	r3, r4, #30
 322 00c0 19D4     		bmi	.L44
 323              	.LVL35:
 324              	.L43:
 325              		.loc 1 265 0
 326 00c2 4FF0FF30 		mov	r0, #-1
 327 00c6 FFF7FEFF 		bl	chEvtWaitAny
 328              	.LVL36:
 329              		.loc 1 266 0
 330 00ca C207     		lsls	r2, r0, #31
 331              		.loc 1 265 0
 332 00cc 0446     		mov	r4, r0
 333              	.LVL37:
 334              		.loc 1 266 0
 335 00ce F6D5     		bpl	.L18
 336              	.LBB19:
 337              		.loc 1 267 0
 338 00d0 3D48     		ldr	r0, .L45+12
 339              	.LVL38:
 340 00d2 FFF7FEFF 		bl	macPollLinkStatus
ARM GAS  /tmp/ccQSlWks.s 			page 7


 341              	.LVL39:
 342              		.loc 1 268 0
 343 00d6 96F82910 		ldrb	r1, [r6, #41]	@ zero_extendqisi2
 344 00da C1F30013 		ubfx	r3, r1, #4, #1
 345 00de 9842     		cmp	r0, r3
 346              		.loc 1 267 0
 347 00e0 0246     		mov	r2, r0
 348              	.LVL40:
 349              		.loc 1 268 0
 350 00e2 ECD0     		beq	.L18
 351              		.loc 1 269 0
 352 00e4 0028     		cmp	r0, #0
 353 00e6 33D0     		beq	.L20
 354              		.loc 1 270 0
 355 00e8 0022     		movs	r2, #0
 356 00ea 3649     		ldr	r1, .L45+8
 357 00ec 3C48     		ldr	r0, .L45+36
 358              	.LVL41:
 359 00ee FFF7FEFF 		bl	tcpip_callback_with_block
 360              	.LVL42:
 361              	.LBE19:
 362              		.loc 1 277 0
 363 00f2 A307     		lsls	r3, r4, #30
 364 00f4 E5D5     		bpl	.L43
 365              	.L44:
 366              	.LBB20:
 367              	.LBB21:
 368              		.loc 1 281 0 discriminator 1
 369 00f6 40F60608 		movw	r8, #2054
 370              	.LVL43:
 371              	.L42:
 372              	.LBE21:
 373              	.LBB22:
 374              	.LBB23:
 375              		.loc 1 139 0 discriminator 1
 376 00fa 3348     		ldr	r0, .L45+12
 377 00fc 08A9     		add	r1, sp, #32
 378 00fe 0022     		movs	r2, #0
 379 0100 FFF7FEFF 		bl	macWaitReceiveDescriptor
 380              	.LVL44:
 381 0104 0028     		cmp	r0, #0
 382 0106 DCD1     		bne	.L43
 383              	.LVL45:
 384              		.loc 1 147 0
 385 0108 0320     		movs	r0, #3
 386 010a BDF82410 		ldrh	r1, [sp, #36]
 387 010e 0246     		mov	r2, r0
 388 0110 FFF7FEFF 		bl	pbuf_alloc
 389              	.LVL46:
 390              		.loc 1 149 0
 391 0114 0546     		mov	r5, r0
 392 0116 38B3     		cbz	r0, .L27
 393 0118 0446     		mov	r4, r0
 394              	.LVL47:
 395              	.L28:
 396              		.loc 1 157 0
 397 011a 6168     		ldr	r1, [r4, #4]
ARM GAS  /tmp/ccQSlWks.s 			page 8


 398 011c 6289     		ldrh	r2, [r4, #10]
 399 011e 08A8     		add	r0, sp, #32
 400 0120 FFF7FEFF 		bl	mac_lld_read_receive_descriptor
 401              	.LVL48:
 402              		.loc 1 156 0
 403 0124 2468     		ldr	r4, [r4, #0]
 404              	.LVL49:
 405 0126 002C     		cmp	r4, #0
 406 0128 F7D1     		bne	.L28
 407              		.loc 1 158 0
 408 012a 08A8     		add	r0, sp, #32
 409 012c FFF7FEFF 		bl	macReleaseReceiveDescriptor
 410              	.LVL50:
 411              		.loc 1 164 0
 412 0130 7888     		ldrh	r0, [r7, #2]
 413              	.LBE23:
 414              	.LBE22:
 415              	.LBB26:
 416              		.loc 1 281 0
 417 0132 6B68     		ldr	r3, [r5, #4]
 418              	.LBE26:
 419              	.LBB27:
 420              	.LBB24:
 421              		.loc 1 164 0
 422 0134 421C     		adds	r2, r0, #1
 423 0136 7A80     		strh	r2, [r7, #2]	@ movhi
 424              	.LVL51:
 425              	.LBE24:
 426              	.LBE27:
 427              	.LBB28:
 428              		.loc 1 281 0
 429 0138 9889     		ldrh	r0, [r3, #12]	@ unaligned
 430 013a FFF7FEFF 		bl	lwip_htons
 431              	.LVL52:
 432 013e B0F5006F 		cmp	r0, #2048
 433 0142 0AD0     		beq	.L23
 434 0144 4045     		cmp	r0, r8
 435 0146 08D0     		beq	.L23
 436              	.LVL53:
 437              	.L25:
 438              		.loc 1 295 0
 439 0148 2846     		mov	r0, r5
 440 014a FFF7FEFF 		bl	pbuf_free
 441              	.LVL54:
 442 014e D4E7     		b	.L42
 443              	.LVL55:
 444              	.L20:
 445              	.LBE28:
 446              	.LBE20:
 447              	.LBB31:
 448              		.loc 1 273 0
 449 0150 1C49     		ldr	r1, .L45+8
 450 0152 2448     		ldr	r0, .L45+40
 451              	.LVL56:
 452 0154 FFF7FEFF 		bl	tcpip_callback_with_block
 453              	.LVL57:
 454 0158 B1E7     		b	.L18
ARM GAS  /tmp/ccQSlWks.s 			page 9


 455              	.LVL58:
 456              	.L23:
 457              	.LBE31:
 458              	.LBB32:
 459              	.LBB29:
 460              		.loc 1 291 0
 461 015a 3469     		ldr	r4, [r6, #16]
 462              	.LVL59:
 463 015c 1949     		ldr	r1, .L45+8
 464 015e 2846     		mov	r0, r5
 465 0160 A047     		blx	r4
 466              	.LVL60:
 467 0162 0028     		cmp	r0, #0
 468 0164 C9D0     		beq	.L42
 469 0166 EFE7     		b	.L25
 470              	.LVL61:
 471              	.L27:
 472              	.LBE29:
 473              	.LBB30:
 474              	.LBB25:
 475              		.loc 1 167 0
 476 0168 08A8     		add	r0, sp, #32
 477              	.LVL62:
 478 016a FFF7FEFF 		bl	macReleaseReceiveDescriptor
 479              	.LVL63:
 480              		.loc 1 168 0
 481 016e B889     		ldrh	r0, [r7, #12]
 482              		.loc 1 169 0
 483 0170 FC88     		ldrh	r4, [r7, #6]
 484              		.loc 1 168 0
 485 0172 421C     		adds	r2, r0, #1
 486              		.loc 1 169 0
 487 0174 611C     		adds	r1, r4, #1
 488              		.loc 1 168 0
 489 0176 BA81     		strh	r2, [r7, #12]	@ movhi
 490              		.loc 1 169 0
 491 0178 F980     		strh	r1, [r7, #6]	@ movhi
 492 017a A2E7     		b	.L43
 493              	.LVL64:
 494              	.L15:
 495              	.LBE25:
 496              	.LBE30:
 497              	.LBE32:
 498              	.LBE18:
 499              		.loc 1 238 0
 500 017c 114E     		ldr	r6, .L45+8
 501              		.loc 1 244 0
 502 017e 4AF6C000 		movw	r0, #43200
 503              		.loc 1 245 0
 504 0182 0546     		mov	r5, r0
 505              		.loc 1 238 0
 506 0184 C227     		movs	r7, #194
 507              		.loc 1 244 0
 508 0186 C1F20140 		movt	r0, 5121
 509              		.loc 1 245 0
 510 018a C0F20115 		movt	r5, 257
 511              		.loc 1 238 0
ARM GAS  /tmp/ccQSlWks.s 			page 10


 512 018e 86F82370 		strb	r7, [r6, #35]
 513              		.loc 1 239 0
 514 0192 AF23     		movs	r3, #175
 515              		.loc 1 240 0
 516 0194 5121     		movs	r1, #81
 517              		.loc 1 241 0
 518 0196 0324     		movs	r4, #3
 519              	.LVL65:
 520              		.loc 1 242 0
 521 0198 CF22     		movs	r2, #207
 522              		.loc 1 243 0
 523 019a 4627     		movs	r7, #70
 524              		.loc 1 244 0
 525 019c 0590     		str	r0, [sp, #20]
 526              		.loc 1 246 0
 527 019e 6FF07F40 		mvn	r0, #-16777216
 528              		.loc 1 239 0
 529 01a2 86F82430 		strb	r3, [r6, #36]
 530              		.loc 1 240 0
 531 01a6 86F82510 		strb	r1, [r6, #37]
 532              		.loc 1 241 0
 533 01aa 86F82640 		strb	r4, [r6, #38]
 534              		.loc 1 242 0
 535 01ae 86F82720 		strb	r2, [r6, #39]
 536              		.loc 1 243 0
 537 01b2 86F82870 		strb	r7, [r6, #40]
 538              		.loc 1 245 0
 539 01b6 0695     		str	r5, [sp, #24]
 540              		.loc 1 246 0
 541 01b8 0790     		str	r0, [sp, #28]
 542 01ba 4FE7     		b	.L16
 543              	.L46:
 544              		.align	2
 545              	.L45:
 546 01bc 00000000 		.word	rlist
 547 01c0 00000000 		.word	.LC0
 548 01c4 00000000 		.word	.LANCHOR0
 549 01c8 00000000 		.word	ETHD1
 550 01cc 00000000 		.word	.LANCHOR1
 551 01d0 00000000 		.word	lwip_stats
 552 01d4 00000000 		.word	ethernetif_init
 553 01d8 00000000 		.word	tcpip_input
 554 01dc 20000000 		.word	ETHD1+32
 555 01e0 00000000 		.word	netif_set_link_up
 556 01e4 00000000 		.word	netif_set_link_down
 557              		.cfi_endproc
 558              	.LFE122:
 559              		.size	lwip_thread, .-lwip_thread
 560              		.global	wa_lwip_thread
 561 01e8 AFF30080 		.section	.bss.wa_lwip_thread,"aw",%nobits
 561      AFF30080 
 562              		.align	3
 563              		.type	wa_lwip_thread, %object
 564              		.size	wa_lwip_thread, 688
 565              	wa_lwip_thread:
 566 0000 00000000 		.space	688
 566      00000000 
ARM GAS  /tmp/ccQSlWks.s 			page 11


 566      00000000 
 566      00000000 
 566      00000000 
 567              		.section	.rodata.mac_config.7296,"a",%progbits
 568              		.align	2
 569              		.set	.LANCHOR1,. + 0
 570              		.type	mac_config.7296, %object
 571              		.size	mac_config.7296, 4
 572              	mac_config.7296:
 573 0000 23000000 		.word	thisif.7295+35
 574              		.section	.rodata.str1.4,"aMS",%progbits,1
 575              		.align	2
 576              	.LC0:
 577 0000 6C776970 		.ascii	"lwipthread\000"
 577      74687265 
 577      616400
 578 000b 00       		.section	.bss.thisif.7295,"aw",%nobits
 579              		.align	2
 580              		.set	.LANCHOR0,. + 0
 581              		.type	thisif.7295, %object
 582              		.size	thisif.7295, 48
 583              	thisif.7295:
 584 0000 00000000 		.space	48
 584      00000000 
 584      00000000 
 584      00000000 
 584      00000000 
 585              		.text
 586              	.Letext0:
 587              		.file 2 "/usr/bin/../lib/gcc/arm-none-eabi/4.7.4/include/stddef.h"
 588              		.file 3 "/usr/bin/../lib/gcc/arm-none-eabi/4.7.4/../../../../arm-none-eabi/include/stdint.h"
 589              		.file 4 "../../os/ports/GCC/ARMCMx/chtypes.h"
 590              		.file 5 "../../os/kernel/include/chlists.h"
 591              		.file 6 "../../os/kernel/include/chthreads.h"
 592              		.file 7 "../../os/ports/GCC/ARMCMx/chcore_v7m.h"
 593              		.file 8 "../../os/kernel/include/chvt.h"
 594              		.file 9 "../../os/kernel/include/chschd.h"
 595              		.file 10 "../../os/kernel/include/chsem.h"
 596              		.file 11 "../../os/kernel/include/chmtx.h"
 597              		.file 12 "../../os/kernel/include/chevents.h"
 598              		.file 13 "../../os/hal/include/mac.h"
 599              		.file 14 "../../os/hal/platforms/STM32/mac_lld.h"
 600              		.file 15 "../../os/various/evtimer.h"
 601              		.file 16 "../../os/various/lwip_bindings/arch/cc.h"
 602              		.file 17 "../../os/various/lwip_bindings/lwipthread.h"
 603              		.file 18 "../../ext/lwip/src/include/lwip/mem.h"
 604              		.file 19 "../../ext/lwip/src/include/lwip/err.h"
 605              		.file 20 "../../ext/lwip/src/include/lwip/pbuf.h"
 606              		.file 21 "../../ext/lwip/src/include/lwip/memp.h"
 607              		.file 22 "../../ext/lwip/src/include/lwip/stats.h"
 608              		.file 23 "../../ext/lwip/src/include/ipv4/lwip/ip_addr.h"
 609              		.file 24 "../../ext/lwip/src/include/lwip/netif.h"
 610              		.file 25 "../../ext/lwip/src/include/lwip/tcpip.h"
 611              		.file 26 "../../ext/lwip/src/include/netif/etharp.h"
 612              		.file 27 "../../os/ports/common/ARMCMx/CMSIS/include/core_cm4.h"
 613              		.file 28 "../../ext/lwip/src/include/lwip/def.h"