ARM GAS  /tmp/cc3n5Kbk.s 			page 1


   1              		.syntax unified
   2              		.cpu cortex-m4
   3              		.fpu softvfp
   4              		.eabi_attribute 20, 1
   5              		.eabi_attribute 21, 1
   6              		.eabi_attribute 23, 3
   7              		.eabi_attribute 24, 1
   8              		.eabi_attribute 25, 1
   9              		.eabi_attribute 26, 1
  10              		.eabi_attribute 30, 2
  11              		.eabi_attribute 34, 1
  12              		.eabi_attribute 18, 4
  13              		.thumb
  14              		.file	"memp.c"
  15              		.text
  16              	.Ltext0:
  17              		.cfi_sections	.debug_frame
  18              		.section	.text.memp_init,"ax",%progbits
  19              		.align	2
  20              		.p2align 4,,15
  21              		.global	memp_init
  22              		.thumb
  23              		.thumb_func
  24              		.type	memp_init, %function
  25              	memp_init:
  26              	.LFB7:
  27              		.file 1 "../../ext/lwip/src/core/memp.c"
  28              		.loc 1 339 0
  29              		.cfi_startproc
  30              		@ args = 0, pretend = 0, frame = 0
  31              		@ frame_needed = 0, uses_anonymous_args = 0
  32              		@ link register save eliminated.
  33              	.LVL0:
  34              		.loc 1 344 0
  35 0000 594B     		ldr	r3, .L16
  36              		.loc 1 339 0
  37 0002 2DE9F007 		push	{r4, r5, r6, r7, r8, r9, sl}
  38              	.LCFI0:
  39              		.cfi_def_cfa_offset 28
  40              		.cfi_offset 4, -28
  41              		.cfi_offset 5, -24
  42              		.cfi_offset 6, -20
  43              		.cfi_offset 7, -16
  44              		.cfi_offset 8, -12
  45              		.cfi_offset 9, -8
  46              		.cfi_offset 10, -4
  47              		.loc 1 347 0
  48 0006 0525     		movs	r5, #5
  49 0008 A3F8C650 		strh	r5, [r3, #198]	@ movhi
  50 000c A3F8E450 		strh	r5, [r3, #228]	@ movhi
  51 0010 0F25     		movs	r5, #15
  52 0012 A3F8EE50 		strh	r5, [r3, #238]	@ movhi
  53 0016 0225     		movs	r5, #2
  54              		.loc 1 344 0
  55 0018 0022     		movs	r2, #0
  56              		.loc 1 347 0
  57 001a 0424     		movs	r4, #4
ARM GAS  /tmp/cc3n5Kbk.s 			page 2


  58 001c 0820     		movs	r0, #8
  59 001e 1021     		movs	r1, #16
  60 0020 A3F8F850 		strh	r5, [r3, #248]	@ movhi
  61 0024 514F     		ldr	r7, .L16+4
  62              		.loc 1 351 0
  63 0026 524D     		ldr	r5, .L16+8
  64              		.loc 1 347 0
  65 0028 A3F8B240 		strh	r4, [r3, #178]	@ movhi
  66              	.LVL1:
  67 002c A3F8BC40 		strh	r4, [r3, #188]	@ movhi
  68              	.LVL2:
  69              		.loc 1 344 0
  70 0030 A3F8B420 		strh	r2, [r3, #180]	@ movhi
  71              		.loc 1 345 0
  72 0034 A3F8B620 		strh	r2, [r3, #182]	@ movhi
  73              		.loc 1 346 0
  74 0038 A3F8B820 		strh	r2, [r3, #184]	@ movhi
  75              		.loc 1 344 0
  76 003c A3F8BE20 		strh	r2, [r3, #190]	@ movhi
  77              		.loc 1 345 0
  78 0040 A3F8C020 		strh	r2, [r3, #192]	@ movhi
  79              		.loc 1 346 0
  80 0044 A3F8C220 		strh	r2, [r3, #194]	@ movhi
  81              		.loc 1 344 0
  82 0048 A3F8C820 		strh	r2, [r3, #200]	@ movhi
  83              		.loc 1 345 0
  84 004c A3F8CA20 		strh	r2, [r3, #202]	@ movhi
  85              		.loc 1 346 0
  86 0050 A3F8CC20 		strh	r2, [r3, #204]	@ movhi
  87              		.loc 1 344 0
  88 0054 A3F8D220 		strh	r2, [r3, #210]	@ movhi
  89              		.loc 1 345 0
  90 0058 A3F8D420 		strh	r2, [r3, #212]	@ movhi
  91              		.loc 1 346 0
  92 005c A3F8D620 		strh	r2, [r3, #214]	@ movhi
  93              		.loc 1 347 0
  94 0060 A3F8D000 		strh	r0, [r3, #208]	@ movhi
  95              	.LVL3:
  96              		.loc 1 344 0
  97 0064 A3F8DC20 		strh	r2, [r3, #220]	@ movhi
  98              		.loc 1 345 0
  99 0068 A3F8DE20 		strh	r2, [r3, #222]	@ movhi
 100              		.loc 1 346 0
 101 006c A3F8E020 		strh	r2, [r3, #224]	@ movhi
 102              		.loc 1 347 0
 103 0070 A3F8DA10 		strh	r1, [r3, #218]	@ movhi
 104              	.LVL4:
 105              		.loc 1 344 0
 106 0074 A3F8E620 		strh	r2, [r3, #230]	@ movhi
 107              		.loc 1 345 0
 108 0078 A3F8E820 		strh	r2, [r3, #232]	@ movhi
 109              		.loc 1 346 0
 110 007c A3F8EA20 		strh	r2, [r3, #234]	@ movhi
 111              		.loc 1 344 0
 112 0080 A3F8F020 		strh	r2, [r3, #240]	@ movhi
 113              		.loc 1 345 0
 114 0084 A3F8F220 		strh	r2, [r3, #242]	@ movhi
ARM GAS  /tmp/cc3n5Kbk.s 			page 3


 115              		.loc 1 346 0
 116 0088 A3F8F420 		strh	r2, [r3, #244]	@ movhi
 117              		.loc 1 344 0
 118 008c A3F8FA20 		strh	r2, [r3, #250]	@ movhi
 119              		.loc 1 345 0
 120 0090 A3F8FC20 		strh	r2, [r3, #252]	@ movhi
 121              		.loc 1 346 0
 122 0094 A3F8FE20 		strh	r2, [r3, #254]	@ movhi
 123 0098 DFF8D890 		ldr	r9, .L16+12
 124              		.loc 1 344 0
 125 009c A3F80421 		strh	r2, [r3, #260]	@ movhi
 126 00a0 DFF8D4A0 		ldr	sl, .L16+16
 127              		.loc 1 347 0
 128 00a4 A3F80241 		strh	r4, [r3, #258]	@ movhi
 129              	.LVL5:
 130 00a8 0324     		movs	r4, #3
 131              		.loc 1 338 0
 132 00aa 1646     		mov	r6, r2
 133              		.loc 1 351 0
 134 00ac 25F00305 		bic	r5, r5, #3
 135              		.loc 1 345 0
 136 00b0 A3F80621 		strh	r2, [r3, #262]	@ movhi
 137              		.loc 1 338 0
 138 00b4 07F13808 		add	r8, r7, #56
 139              		.loc 1 346 0
 140 00b8 A3F80821 		strh	r2, [r3, #264]	@ movhi
 141              		.loc 1 344 0
 142 00bc A3F80E21 		strh	r2, [r3, #270]	@ movhi
 143              		.loc 1 345 0
 144 00c0 A3F81021 		strh	r2, [r3, #272]	@ movhi
 145              		.loc 1 346 0
 146 00c4 A3F81221 		strh	r2, [r3, #274]	@ movhi
 147              		.loc 1 347 0
 148 00c8 A3F80C01 		strh	r0, [r3, #268]	@ movhi
 149              	.LVL6:
 150              		.loc 1 344 0
 151 00cc A3F81821 		strh	r2, [r3, #280]	@ movhi
 152              		.loc 1 345 0
 153 00d0 A3F81A21 		strh	r2, [r3, #282]	@ movhi
 154              		.loc 1 346 0
 155 00d4 A3F81C21 		strh	r2, [r3, #284]	@ movhi
 156              		.loc 1 347 0
 157 00d8 A3F81601 		strh	r0, [r3, #278]	@ movhi
 158              	.LVL7:
 159              		.loc 1 344 0
 160 00dc A3F82221 		strh	r2, [r3, #290]	@ movhi
 161              		.loc 1 345 0
 162 00e0 A3F82421 		strh	r2, [r3, #292]	@ movhi
 163              		.loc 1 346 0
 164 00e4 A3F82621 		strh	r2, [r3, #294]	@ movhi
 165              		.loc 1 347 0
 166 00e8 A3F82041 		strh	r4, [r3, #288]	@ movhi
 167              	.LVL8:
 168              		.loc 1 344 0
 169 00ec A3F82C21 		strh	r2, [r3, #300]	@ movhi
 170              		.loc 1 345 0
 171 00f0 A3F82E21 		strh	r2, [r3, #302]	@ movhi
ARM GAS  /tmp/cc3n5Kbk.s 			page 4


 172              		.loc 1 346 0
 173 00f4 A3F83021 		strh	r2, [r3, #304]	@ movhi
 174              		.loc 1 347 0
 175 00f8 A3F82A11 		strh	r1, [r3, #298]	@ movhi
 176              	.LVL9:
 177              		.loc 1 344 0
 178 00fc A3F83621 		strh	r2, [r3, #310]	@ movhi
 179              		.loc 1 345 0
 180 0100 A3F83821 		strh	r2, [r3, #312]	@ movhi
 181              		.loc 1 346 0
 182 0104 A3F83A21 		strh	r2, [r3, #314]	@ movhi
 183              		.loc 1 347 0
 184 0108 A3F83411 		strh	r1, [r3, #308]	@ movhi
 185              	.LVL10:
 186              		.loc 1 355 0
 187 010c 9446     		mov	ip, r2
 188              	.LVL11:
 189              	.L4:
 190              		.loc 1 360 0
 191 010e 39F80640 		ldrh	r4, [r9, r6]
 192              		.loc 1 355 0
 193 0112 47F804CB 		str	ip, [r7], #4
 194              	.LVL12:
 195              		.loc 1 360 0
 196 0116 04B3     		cbz	r4, .L2
 197 0118 0021     		movs	r1, #0
 198 011a 14F0010F 		tst	r4, #1
 199 011e 36F80A20 		ldrh	r2, [r6, sl]
 200 0122 2B46     		mov	r3, r5
 201 0124 0846     		mov	r0, r1
 202 0126 08D1     		bne	.L3
 203              	.LVL13:
 204              		.loc 1 361 0
 205 0128 2960     		str	r1, [r5, #0]
 206              		.loc 1 360 0
 207 012a 0120     		movs	r0, #1
 208              	.LVL14:
 209 012c 2946     		mov	r1, r5
 210              		.loc 1 363 0
 211 012e AB18     		adds	r3, r5, r2
 212 0130 03E0     		b	.L3
 213              	.LVL15:
 214              	.L5:
 215              		.loc 1 360 0
 216 0132 0130     		adds	r0, r0, #1
 217              		.loc 1 361 0
 218 0134 9B50     		str	r3, [r3, r2]
 219              		.loc 1 360 0
 220 0136 80B2     		uxth	r0, r0
 221              	.LVL16:
 222              		.loc 1 363 0
 223 0138 8B18     		adds	r3, r1, r2
 224              	.LVL17:
 225              	.L3:
 226              		.loc 1 360 0 discriminator 2
 227 013a 0130     		adds	r0, r0, #1
 228 013c 80B2     		uxth	r0, r0
ARM GAS  /tmp/cc3n5Kbk.s 			page 5


 229 013e A042     		cmp	r0, r4
 230              		.loc 1 361 0 discriminator 2
 231 0140 1960     		str	r1, [r3, #0]
 232              		.loc 1 363 0 discriminator 2
 233 0142 03EB0201 		add	r1, r3, r2
 234              	.LVL18:
 235              		.loc 1 360 0 discriminator 2
 236 0146 F4D1     		bne	.L5
 237              		.loc 1 338 0
 238 0148 013C     		subs	r4, r4, #1
 239 014a A4B2     		uxth	r4, r4
 240 014c 02FB0451 		mla	r1, r2, r4, r5
 241              	.LVL19:
 242 0150 04FB0222 		mla	r2, r4, r2, r2
 243              	.LVL20:
 244 0154 47F8041C 		str	r1, [r7, #-4]
 245              		.loc 1 363 0
 246 0158 AD18     		adds	r5, r5, r2
 247              	.LVL21:
 248              	.L2:
 249 015a 0236     		adds	r6, r6, #2
 250              		.loc 1 354 0
 251 015c 4745     		cmp	r7, r8
 252 015e D6D1     		bne	.L4
 253              		.loc 1 375 0
 254 0160 BDE8F007 		pop	{r4, r5, r6, r7, r8, r9, sl}
 255 0164 7047     		bx	lr
 256              	.L17:
 257 0166 00BF     		.align	2
 258              	.L16:
 259 0168 00000000 		.word	lwip_stats
 260 016c 00000000 		.word	.LANCHOR1
 261 0170 03000000 		.word	.LANCHOR0+3
 262 0174 00000000 		.word	.LANCHOR2
 263 0178 00000000 		.word	.LANCHOR3
 264              		.cfi_endproc
 265              	.LFE7:
 266              		.size	memp_init, .-memp_init
 267 017c AFF30080 		.section	.text.memp_malloc,"ax",%progbits
 268              		.align	2
 269              		.p2align 4,,15
 270              		.global	memp_malloc
 271              		.thumb
 272              		.thumb_func
 273              		.type	memp_malloc, %function
 274              	memp_malloc:
 275              	.LFB8:
 276              		.loc 1 394 0
 277              		.cfi_startproc
 278              		@ args = 0, pretend = 0, frame = 0
 279              		@ frame_needed = 0, uses_anonymous_args = 0
 280              	.LVL22:
 281              		.loc 1 398 0
 282 0000 0D28     		cmp	r0, #13
 283              		.loc 1 394 0
 284 0002 38B5     		push	{r3, r4, r5, lr}
 285              	.LCFI1:
ARM GAS  /tmp/cc3n5Kbk.s 			page 6


 286              		.cfi_def_cfa_offset 16
 287              		.cfi_offset 3, -16
 288              		.cfi_offset 4, -12
 289              		.cfi_offset 5, -8
 290              		.cfi_offset 14, -4
 291              		.loc 1 398 0
 292 0004 2BD8     		bhi	.L26
 293              		.loc 1 405 0
 294 0006 184A     		ldr	r2, .L28
 295 0008 52F82040 		ldr	r4, [r2, r0, lsl #2]
 296              	.LVL23:
 297              		.loc 1 407 0
 298 000c DCB1     		cbz	r4, .L21
 299              		.loc 1 414 0
 300 000e 174B     		ldr	r3, .L28+4
 301              		.loc 1 408 0
 302 0010 2168     		ldr	r1, [r4, #0]
 303              		.loc 1 414 0
 304 0012 00EB8005 		add	r5, r0, r0, lsl #2
 305 0016 03EB4503 		add	r3, r3, r5, lsl #1
 306              		.loc 1 408 0
 307 001a 42F82010 		str	r1, [r2, r0, lsl #2]
 308              		.loc 1 414 0
 309 001e B3F8B420 		ldrh	r2, [r3, #180]
 310 0022 B3F8B600 		ldrh	r0, [r3, #182]
 311              	.LVL24:
 312 0026 511C     		adds	r1, r2, #1
 313 0028 8AB2     		uxth	r2, r1
 314 002a 9042     		cmp	r0, r2
 315 002c A3F8B420 		strh	r2, [r3, #180]	@ movhi
 316 0030 38BF     		it	cc
 317 0032 A3F8B620 		strhcc	r2, [r3, #182]	@ movhi
 318              		.loc 1 415 0
 319 0036 A307     		lsls	r3, r4, #30
 320 0038 01D1     		bne	.L27
 321              	.LVL25:
 322              	.L20:
 323              		.loc 1 426 0
 324 003a 2046     		mov	r0, r4
 325 003c 38BD     		pop	{r3, r4, r5, pc}
 326              	.LVL26:
 327              	.L27:
 328              		.loc 1 415 0 discriminator 1
 329 003e FFF7FEFF 		bl	port_halt
 330              	.LVL27:
 331              		.loc 1 426 0 discriminator 1
 332 0042 2046     		mov	r0, r4
 333 0044 38BD     		pop	{r3, r4, r5, pc}
 334              	.LVL28:
 335              	.L21:
 336              		.loc 1 420 0
 337 0046 094B     		ldr	r3, .L28+4
 338 0048 00EB8000 		add	r0, r0, r0, lsl #2
 339              	.LVL29:
 340 004c 03EB4001 		add	r1, r3, r0, lsl #1
 341 0050 B1F8B820 		ldrh	r2, [r1, #184]
 342 0054 501C     		adds	r0, r2, #1
ARM GAS  /tmp/cc3n5Kbk.s 			page 7


 343 0056 A1F8B800 		strh	r0, [r1, #184]	@ movhi
 344              		.loc 1 426 0
 345 005a 2046     		mov	r0, r4
 346 005c 38BD     		pop	{r3, r4, r5, pc}
 347              	.LVL30:
 348              	.L26:
 349              		.loc 1 398 0 discriminator 1
 350 005e FFF7FEFF 		bl	port_halt
 351              	.LVL31:
 352 0062 0024     		movs	r4, #0
 353 0064 E9E7     		b	.L20
 354              	.L29:
 355 0066 00BF     		.align	2
 356              	.L28:
 357 0068 00000000 		.word	.LANCHOR1
 358 006c 00000000 		.word	lwip_stats
 359              		.cfi_endproc
 360              	.LFE8:
 361              		.size	memp_malloc, .-memp_malloc
 362              		.section	.text.memp_free,"ax",%progbits
 363              		.align	2
 364              		.p2align 4,,15
 365              		.global	memp_free
 366              		.thumb
 367              		.thumb_func
 368              		.type	memp_free, %function
 369              	memp_free:
 370              	.LFB9:
 371              		.loc 1 436 0
 372              		.cfi_startproc
 373              		@ args = 0, pretend = 0, frame = 0
 374              		@ frame_needed = 0, uses_anonymous_args = 0
 375              	.LVL32:
 376 0000 38B5     		push	{r3, r4, r5, lr}
 377              	.LCFI2:
 378              		.cfi_def_cfa_offset 16
 379              		.cfi_offset 3, -16
 380              		.cfi_offset 4, -12
 381              		.cfi_offset 5, -8
 382              		.cfi_offset 14, -4
 383              		.loc 1 440 0
 384 0002 0C46     		mov	r4, r1
 385              		.loc 1 436 0
 386 0004 0546     		mov	r5, r0
 387              		.loc 1 440 0
 388 0006 89B1     		cbz	r1, .L30
 389              		.loc 1 443 0
 390 0008 8A07     		lsls	r2, r1, #30
 391 000a 10D1     		bne	.L39
 392              	.LVL33:
 393              	.L32:
 394              		.loc 1 458 0
 395 000c 094A     		ldr	r2, .L40
 396              		.loc 1 460 0
 397 000e 0A4B     		ldr	r3, .L40+4
 398              		.loc 1 458 0
 399 0010 05EB8501 		add	r1, r5, r5, lsl #2
ARM GAS  /tmp/cc3n5Kbk.s 			page 8


 400 0014 02EB4102 		add	r2, r2, r1, lsl #1
 401              		.loc 1 460 0
 402 0018 53F82510 		ldr	r1, [r3, r5, lsl #2]
 403              		.loc 1 458 0
 404 001c B2F8B400 		ldrh	r0, [r2, #180]
 405 0020 0138     		subs	r0, r0, #1
 406 0022 A2F8B400 		strh	r0, [r2, #180]	@ movhi
 407              		.loc 1 460 0
 408 0026 2160     		str	r1, [r4, #0]
 409              		.loc 1 461 0
 410 0028 43F82540 		str	r4, [r3, r5, lsl #2]
 411              	.LVL34:
 412              	.L30:
 413 002c 38BD     		pop	{r3, r4, r5, pc}
 414              	.LVL35:
 415              	.L39:
 416              		.loc 1 443 0 discriminator 1
 417 002e FFF7FEFF 		bl	port_halt
 418              	.LVL36:
 419 0032 EBE7     		b	.L32
 420              	.L41:
 421              		.align	2
 422              	.L40:
 423 0034 00000000 		.word	lwip_stats
 424 0038 00000000 		.word	.LANCHOR1
 425              		.cfi_endproc
 426              	.LFE9:
 427              		.size	memp_free, .-memp_free
 428 003c AFF30080 		.section	.rodata.memp_num,"a",%progbits
 429              		.align	2
 430              		.set	.LANCHOR2,. + 0
 431              		.type	memp_num, %object
 432              		.size	memp_num, 28
 433              	memp_num:
 434 0000 0400     		.short	4
 435 0002 0400     		.short	4
 436 0004 0500     		.short	5
 437 0006 0800     		.short	8
 438 0008 1000     		.short	16
 439 000a 0500     		.short	5
 440 000c 0F00     		.short	15
 441 000e 0200     		.short	2
 442 0010 0400     		.short	4
 443 0012 0800     		.short	8
 444 0014 0800     		.short	8
 445 0016 0300     		.short	3
 446 0018 1000     		.short	16
 447 001a 1000     		.short	16
 448              		.section	.bss.memp_memory,"aw",%nobits
 449              		.align	2
 450              		.set	.LANCHOR0,. + 0
 451              		.type	memp_memory, %object
 452              		.size	memp_memory, 12563
 453              	memp_memory:
 454 0000 00000000 		.space	12563
 454      00000000 
 454      00000000 
ARM GAS  /tmp/cc3n5Kbk.s 			page 9


 454      00000000 
 454      00000000 
 455 3113 00       		.section	.bss.memp_tab,"aw",%nobits
 456              		.align	2
 457              		.set	.LANCHOR1,. + 0
 458              		.type	memp_tab, %object
 459              		.size	memp_tab, 56
 460              	memp_tab:
 461 0000 00000000 		.space	56
 461      00000000 
 461      00000000 
 461      00000000 
 461      00000000 
 462              		.section	.rodata.memp_sizes,"a",%progbits
 463              		.align	2
 464              		.set	.LANCHOR3,. + 0
 465              		.type	memp_sizes, %object
 466              		.size	memp_sizes, 28
 467              	memp_sizes:
 468 0000 1C00     		.short	28
 469 0002 2000     		.short	32
 470 0004 9800     		.short	152
 471 0006 1C00     		.short	28
 472 0008 1000     		.short	16
 473 000a 2000     		.short	32
 474 000c 1800     		.short	24
 475 000e 1000     		.short	16
 476 0010 2C00     		.short	44
 477 0012 1400     		.short	20
 478 0014 1400     		.short	20
 479 0016 1000     		.short	16
 480 0018 1000     		.short	16
 481 001a 6002     		.short	608
 482              		.text
 483              	.Letext0:
 484              		.file 2 "/usr/bin/../lib/gcc/arm-none-eabi/4.7.4/../../../../arm-none-eabi/include/stdint.h"
 485              		.file 3 "../../os/various/lwip_bindings/arch/cc.h"
 486              		.file 4 "../../ext/lwip/src/include/lwip/memp.h"
 487              		.file 5 "../../ext/lwip/src/include/lwip/mem.h"
 488              		.file 6 "../../ext/lwip/src/include/lwip/stats.h"
 489              		.file 7 "../../os/ports/GCC/ARMCMx/chcore_v7m.h"
 490              		.section	.debug_info,"",%progbits
 491              	.Ldebug_info0:
 492 0000 07050000 		.4byte	0x507
 493 0004 0200     		.2byte	0x2
 494 0006 00000000 		.4byte	.Ldebug_abbrev0
 495 000a 04       		.byte	0x4
 496 000b 01       		.uleb128 0x1
 497 000c D9000000 		.4byte	.LASF68
 498 0010 01       		.byte	0x1
 499 0011 C2020000 		.4byte	.LASF69
 500 0015 7A000000 		.4byte	.LASF70
 501 0019 00000000 		.4byte	.Ldebug_ranges0+0
 502 001d 00000000 		.4byte	0
 503 0021 00000000 		.4byte	0
 504 0025 00000000 		.4byte	.Ldebug_line0
 505 0029 02       		.uleb128 0x2
ARM GAS  /tmp/cc3n5Kbk.s 			page 10


 506 002a 04       		.byte	0x4
 507 002b 05       		.byte	0x5
 508 002c 696E7400 		.ascii	"int\000"
 509 0030 03       		.uleb128 0x3
 510 0031 04       		.byte	0x4
 511 0032 07       		.byte	0x7
 512 0033 50030000 		.4byte	.LASF0
 513 0037 03       		.uleb128 0x3
 514 0038 01       		.byte	0x1
 515 0039 06       		.byte	0x6
 516 003a EA010000 		.4byte	.LASF1
 517 003e 04       		.uleb128 0x4
 518 003f 53010000 		.4byte	.LASF4
 519 0043 02       		.byte	0x2
 520 0044 2A       		.byte	0x2a
 521 0045 49000000 		.4byte	0x49
 522 0049 03       		.uleb128 0x3
 523 004a 01       		.byte	0x1
 524 004b 08       		.byte	0x8
 525 004c D3010000 		.4byte	.LASF2
 526 0050 03       		.uleb128 0x3
 527 0051 02       		.byte	0x2
 528 0052 05       		.byte	0x5
 529 0053 2E000000 		.4byte	.LASF3
 530 0057 04       		.uleb128 0x4
 531 0058 1C020000 		.4byte	.LASF5
 532 005c 02       		.byte	0x2
 533 005d 36       		.byte	0x36
 534 005e 62000000 		.4byte	0x62
 535 0062 03       		.uleb128 0x3
 536 0063 02       		.byte	0x2
 537 0064 07       		.byte	0x7
 538 0065 3D020000 		.4byte	.LASF6
 539 0069 03       		.uleb128 0x3
 540 006a 04       		.byte	0x4
 541 006b 05       		.byte	0x5
 542 006c 94010000 		.4byte	.LASF7
 543 0070 04       		.uleb128 0x4
 544 0071 78010000 		.4byte	.LASF8
 545 0075 02       		.byte	0x2
 546 0076 50       		.byte	0x50
 547 0077 7B000000 		.4byte	0x7b
 548 007b 03       		.uleb128 0x3
 549 007c 04       		.byte	0x4
 550 007d 07       		.byte	0x7
 551 007e B0020000 		.4byte	.LASF9
 552 0082 03       		.uleb128 0x3
 553 0083 08       		.byte	0x8
 554 0084 05       		.byte	0x5
 555 0085 86010000 		.4byte	.LASF10
 556 0089 03       		.uleb128 0x3
 557 008a 08       		.byte	0x8
 558 008b 07       		.byte	0x7
 559 008c 00020000 		.4byte	.LASF11
 560 0090 03       		.uleb128 0x3
 561 0091 01       		.byte	0x1
 562 0092 02       		.byte	0x2
ARM GAS  /tmp/cc3n5Kbk.s 			page 11


 563 0093 8A020000 		.4byte	.LASF12
 564 0097 05       		.uleb128 0x5
 565 0098 04       		.byte	0x4
 566 0099 03       		.uleb128 0x3
 567 009a 04       		.byte	0x4
 568 009b 07       		.byte	0x7
 569 009c 58000000 		.4byte	.LASF13
 570 00a0 03       		.uleb128 0x3
 571 00a1 01       		.byte	0x1
 572 00a2 08       		.byte	0x8
 573 00a3 5F020000 		.4byte	.LASF14
 574 00a7 04       		.uleb128 0x4
 575 00a8 F9020000 		.4byte	.LASF15
 576 00ac 03       		.byte	0x3
 577 00ad 38       		.byte	0x38
 578 00ae 3E000000 		.4byte	0x3e
 579 00b2 04       		.uleb128 0x4
 580 00b3 FE020000 		.4byte	.LASF16
 581 00b7 03       		.byte	0x3
 582 00b8 3A       		.byte	0x3a
 583 00b9 57000000 		.4byte	0x57
 584 00bd 04       		.uleb128 0x4
 585 00be 22010000 		.4byte	.LASF17
 586 00c2 03       		.byte	0x3
 587 00c3 3E       		.byte	0x3e
 588 00c4 70000000 		.4byte	0x70
 589 00c8 06       		.uleb128 0x6
 590 00c9 01       		.byte	0x1
 591 00ca 04       		.byte	0x4
 592 00cb 2B       		.byte	0x2b
 593 00cc 2B010000 		.4byte	0x12b
 594 00d0 07       		.uleb128 0x7
 595 00d1 E6020000 		.4byte	.LASF18
 596 00d5 00       		.sleb128 0
 597 00d6 07       		.uleb128 0x7
 598 00d7 61000000 		.4byte	.LASF19
 599 00db 01       		.sleb128 1
 600 00dc 07       		.uleb128 0x7
 601 00dd 2B030000 		.4byte	.LASF20
 602 00e1 02       		.sleb128 2
 603 00e2 07       		.uleb128 0x7
 604 00e3 64010000 		.4byte	.LASF21
 605 00e7 03       		.sleb128 3
 606 00e8 07       		.uleb128 0x7
 607 00e9 3F000000 		.4byte	.LASF22
 608 00ed 04       		.sleb128 4
 609 00ee 07       		.uleb128 0x7
 610 00ef 50020000 		.4byte	.LASF23
 611 00f3 05       		.sleb128 5
 612 00f4 07       		.uleb128 0x7
 613 00f5 44010000 		.4byte	.LASF24
 614 00f9 06       		.sleb128 6
 615 00fa 07       		.uleb128 0x7
 616 00fb 70030000 		.4byte	.LASF25
 617 00ff 07       		.sleb128 7
 618 0100 07       		.uleb128 0x7
 619 0101 1E030000 		.4byte	.LASF26
ARM GAS  /tmp/cc3n5Kbk.s 			page 12


 620 0105 08       		.sleb128 8
 621 0106 07       		.uleb128 0x7
 622 0107 64020000 		.4byte	.LASF27
 623 010b 09       		.sleb128 9
 624 010c 07       		.uleb128 0x7
 625 010d BE010000 		.4byte	.LASF28
 626 0111 0A       		.sleb128 10
 627 0112 07       		.uleb128 0x7
 628 0113 33010000 		.4byte	.LASF29
 629 0117 0B       		.sleb128 11
 630 0118 07       		.uleb128 0x7
 631 0119 98020000 		.4byte	.LASF30
 632 011d 0C       		.sleb128 12
 633 011e 07       		.uleb128 0x7
 634 011f 04030000 		.4byte	.LASF31
 635 0123 0D       		.sleb128 13
 636 0124 07       		.uleb128 0x7
 637 0125 E1010000 		.4byte	.LASF32
 638 0129 0E       		.sleb128 14
 639 012a 00       		.byte	0
 640 012b 04       		.uleb128 0x4
 641 012c 38000000 		.4byte	.LASF33
 642 0130 04       		.byte	0x4
 643 0131 2F       		.byte	0x2f
 644 0132 C8000000 		.4byte	0xc8
 645 0136 04       		.uleb128 0x4
 646 0137 A7010000 		.4byte	.LASF34
 647 013b 05       		.byte	0x5
 648 013c 4C       		.byte	0x4c
 649 013d B2000000 		.4byte	0xb2
 650 0141 08       		.uleb128 0x8
 651 0142 4C000000 		.4byte	.LASF45
 652 0146 18       		.byte	0x18
 653 0147 06       		.byte	0x6
 654 0148 3A       		.byte	0x3a
 655 0149 F5010000 		.4byte	0x1f5
 656 014d 09       		.uleb128 0x9
 657 014e C0000000 		.4byte	.LASF35
 658 0152 06       		.byte	0x6
 659 0153 3B       		.byte	0x3b
 660 0154 B2000000 		.4byte	0xb2
 661 0158 02       		.byte	0x2
 662 0159 23       		.byte	0x23
 663 015a 00       		.uleb128 0
 664 015b 09       		.uleb128 0x9
 665 015c 4B030000 		.4byte	.LASF36
 666 0160 06       		.byte	0x6
 667 0161 3C       		.byte	0x3c
 668 0162 B2000000 		.4byte	0xb2
 669 0166 02       		.byte	0x2
 670 0167 23       		.byte	0x23
 671 0168 02       		.uleb128 0x2
 672 0169 0A       		.uleb128 0xa
 673 016a 667700   		.ascii	"fw\000"
 674 016d 06       		.byte	0x6
 675 016e 3D       		.byte	0x3d
 676 016f B2000000 		.4byte	0xb2
ARM GAS  /tmp/cc3n5Kbk.s 			page 13


 677 0173 02       		.byte	0x2
 678 0174 23       		.byte	0x23
 679 0175 04       		.uleb128 0x4
 680 0176 09       		.uleb128 0x9
 681 0177 B9010000 		.4byte	.LASF37
 682 017b 06       		.byte	0x6
 683 017c 3E       		.byte	0x3e
 684 017d B2000000 		.4byte	0xb2
 685 0181 02       		.byte	0x2
 686 0182 23       		.byte	0x23
 687 0183 06       		.uleb128 0x6
 688 0184 09       		.uleb128 0x9
 689 0185 10000000 		.4byte	.LASF38
 690 0189 06       		.byte	0x6
 691 018a 3F       		.byte	0x3f
 692 018b B2000000 		.4byte	0xb2
 693 018f 02       		.byte	0x2
 694 0190 23       		.byte	0x23
 695 0191 08       		.uleb128 0x8
 696 0192 09       		.uleb128 0x9
 697 0193 2C010000 		.4byte	.LASF39
 698 0197 06       		.byte	0x6
 699 0198 40       		.byte	0x40
 700 0199 B2000000 		.4byte	0xb2
 701 019d 02       		.byte	0x2
 702 019e 23       		.byte	0x23
 703 019f 0A       		.uleb128 0xa
 704 01a0 09       		.uleb128 0x9
 705 01a1 B2010000 		.4byte	.LASF40
 706 01a5 06       		.byte	0x6
 707 01a6 41       		.byte	0x41
 708 01a7 B2000000 		.4byte	0xb2
 709 01ab 02       		.byte	0x2
 710 01ac 23       		.byte	0x23
 711 01ad 0C       		.uleb128 0xc
 712 01ae 09       		.uleb128 0x9
 713 01af F3020000 		.4byte	.LASF41
 714 01b3 06       		.byte	0x6
 715 01b4 42       		.byte	0x42
 716 01b5 B2000000 		.4byte	0xb2
 717 01b9 02       		.byte	0x2
 718 01ba 23       		.byte	0x23
 719 01bb 0E       		.uleb128 0xe
 720 01bc 09       		.uleb128 0x9
 721 01bd 82020000 		.4byte	.LASF42
 722 01c1 06       		.byte	0x6
 723 01c2 43       		.byte	0x43
 724 01c3 B2000000 		.4byte	0xb2
 725 01c7 02       		.byte	0x2
 726 01c8 23       		.byte	0x23
 727 01c9 10       		.uleb128 0x10
 728 01ca 09       		.uleb128 0x9
 729 01cb 30020000 		.4byte	.LASF43
 730 01cf 06       		.byte	0x6
 731 01d0 44       		.byte	0x44
 732 01d1 B2000000 		.4byte	0xb2
 733 01d5 02       		.byte	0x2
ARM GAS  /tmp/cc3n5Kbk.s 			page 14


 734 01d6 23       		.byte	0x23
 735 01d7 12       		.uleb128 0x12
 736 01d8 0A       		.uleb128 0xa
 737 01d9 65727200 		.ascii	"err\000"
 738 01dd 06       		.byte	0x6
 739 01de 45       		.byte	0x45
 740 01df B2000000 		.4byte	0xb2
 741 01e3 02       		.byte	0x2
 742 01e4 23       		.byte	0x23
 743 01e5 14       		.uleb128 0x14
 744 01e6 09       		.uleb128 0x9
 745 01e7 5B010000 		.4byte	.LASF44
 746 01eb 06       		.byte	0x6
 747 01ec 46       		.byte	0x46
 748 01ed B2000000 		.4byte	0xb2
 749 01f1 02       		.byte	0x2
 750 01f2 23       		.byte	0x23
 751 01f3 16       		.uleb128 0x16
 752 01f4 00       		.byte	0
 753 01f5 08       		.uleb128 0x8
 754 01f6 CF000000 		.4byte	.LASF46
 755 01fa 0A       		.byte	0xa
 756 01fb 06       		.byte	0x6
 757 01fc 5A       		.byte	0x5a
 758 01fd 48020000 		.4byte	0x248
 759 0201 09       		.uleb128 0x9
 760 0202 18030000 		.4byte	.LASF47
 761 0206 06       		.byte	0x6
 762 0207 5E       		.byte	0x5e
 763 0208 36010000 		.4byte	0x136
 764 020c 02       		.byte	0x2
 765 020d 23       		.byte	0x23
 766 020e 00       		.uleb128 0
 767 020f 09       		.uleb128 0x9
 768 0210 13030000 		.4byte	.LASF48
 769 0214 06       		.byte	0x6
 770 0215 5F       		.byte	0x5f
 771 0216 36010000 		.4byte	0x136
 772 021a 02       		.byte	0x2
 773 021b 23       		.byte	0x23
 774 021c 02       		.uleb128 0x2
 775 021d 0A       		.uleb128 0xa
 776 021e 6D617800 		.ascii	"max\000"
 777 0222 06       		.byte	0x6
 778 0223 60       		.byte	0x60
 779 0224 36010000 		.4byte	0x136
 780 0228 02       		.byte	0x2
 781 0229 23       		.byte	0x23
 782 022a 04       		.uleb128 0x4
 783 022b 0A       		.uleb128 0xa
 784 022c 65727200 		.ascii	"err\000"
 785 0230 06       		.byte	0x6
 786 0231 61       		.byte	0x61
 787 0232 B2000000 		.4byte	0xb2
 788 0236 02       		.byte	0x2
 789 0237 23       		.byte	0x23
 790 0238 06       		.uleb128 0x6
ARM GAS  /tmp/cc3n5Kbk.s 			page 15


 791 0239 09       		.uleb128 0x9
 792 023a 90020000 		.4byte	.LASF49
 793 023e 06       		.byte	0x6
 794 023f 62       		.byte	0x62
 795 0240 B2000000 		.4byte	0xb2
 796 0244 02       		.byte	0x2
 797 0245 23       		.byte	0x23
 798 0246 08       		.uleb128 0x8
 799 0247 00       		.byte	0
 800 0248 08       		.uleb128 0x8
 801 0249 A2020000 		.4byte	.LASF50
 802 024d 06       		.byte	0x6
 803 024e 06       		.byte	0x6
 804 024f 65       		.byte	0x65
 805 0250 7F020000 		.4byte	0x27f
 806 0254 09       		.uleb128 0x9
 807 0255 13030000 		.4byte	.LASF48
 808 0259 06       		.byte	0x6
 809 025a 66       		.byte	0x66
 810 025b B2000000 		.4byte	0xb2
 811 025f 02       		.byte	0x2
 812 0260 23       		.byte	0x23
 813 0261 00       		.uleb128 0
 814 0262 0A       		.uleb128 0xa
 815 0263 6D617800 		.ascii	"max\000"
 816 0267 06       		.byte	0x6
 817 0268 67       		.byte	0x67
 818 0269 B2000000 		.4byte	0xb2
 819 026d 02       		.byte	0x2
 820 026e 23       		.byte	0x23
 821 026f 02       		.uleb128 0x2
 822 0270 0A       		.uleb128 0xa
 823 0271 65727200 		.ascii	"err\000"
 824 0275 06       		.byte	0x6
 825 0276 68       		.byte	0x68
 826 0277 B2000000 		.4byte	0xb2
 827 027b 02       		.byte	0x2
 828 027c 23       		.byte	0x23
 829 027d 04       		.uleb128 0x4
 830 027e 00       		.byte	0
 831 027f 08       		.uleb128 0x8
 832 0280 F6010000 		.4byte	.LASF51
 833 0284 12       		.byte	0x12
 834 0285 06       		.byte	0x6
 835 0286 6B       		.byte	0x6b
 836 0287 B6020000 		.4byte	0x2b6
 837 028b 0A       		.uleb128 0xa
 838 028c 73656D00 		.ascii	"sem\000"
 839 0290 06       		.byte	0x6
 840 0291 6C       		.byte	0x6c
 841 0292 48020000 		.4byte	0x248
 842 0296 02       		.byte	0x2
 843 0297 23       		.byte	0x23
 844 0298 00       		.uleb128 0
 845 0299 09       		.uleb128 0x9
 846 029a 37020000 		.4byte	.LASF52
 847 029e 06       		.byte	0x6
ARM GAS  /tmp/cc3n5Kbk.s 			page 16


 848 029f 6D       		.byte	0x6d
 849 02a0 48020000 		.4byte	0x248
 850 02a4 02       		.byte	0x2
 851 02a5 23       		.byte	0x23
 852 02a6 06       		.uleb128 0x6
 853 02a7 09       		.uleb128 0x9
 854 02a8 21000000 		.4byte	.LASF53
 855 02ac 06       		.byte	0x6
 856 02ad 6E       		.byte	0x6e
 857 02ae 48020000 		.4byte	0x248
 858 02b2 02       		.byte	0x2
 859 02b3 23       		.byte	0x23
 860 02b4 0C       		.uleb128 0xc
 861 02b5 00       		.byte	0
 862 02b6 0B       		.uleb128 0xb
 863 02b7 00000000 		.4byte	.LASF54
 864 02bb 5001     		.2byte	0x150
 865 02bd 06       		.byte	0x6
 866 02be 71       		.byte	0x71
 867 02bf 53030000 		.4byte	0x353
 868 02c3 09       		.uleb128 0x9
 869 02c4 81010000 		.4byte	.LASF55
 870 02c8 06       		.byte	0x6
 871 02c9 73       		.byte	0x73
 872 02ca 41010000 		.4byte	0x141
 873 02ce 02       		.byte	0x2
 874 02cf 23       		.byte	0x23
 875 02d0 00       		.uleb128 0
 876 02d1 09       		.uleb128 0x9
 877 02d2 38030000 		.4byte	.LASF56
 878 02d6 06       		.byte	0x6
 879 02d7 76       		.byte	0x76
 880 02d8 41010000 		.4byte	0x141
 881 02dc 02       		.byte	0x2
 882 02dd 23       		.byte	0x23
 883 02de 18       		.uleb128 0x18
 884 02df 09       		.uleb128 0x9
 885 02e0 26000000 		.4byte	.LASF57
 886 02e4 06       		.byte	0x6
 887 02e5 79       		.byte	0x79
 888 02e6 41010000 		.4byte	0x141
 889 02ea 02       		.byte	0x2
 890 02eb 23       		.byte	0x23
 891 02ec 30       		.uleb128 0x30
 892 02ed 0A       		.uleb128 0xa
 893 02ee 697000   		.ascii	"ip\000"
 894 02f1 06       		.byte	0x6
 895 02f2 7C       		.byte	0x7c
 896 02f3 41010000 		.4byte	0x141
 897 02f7 02       		.byte	0x2
 898 02f8 23       		.byte	0x23
 899 02f9 48       		.uleb128 0x48
 900 02fa 09       		.uleb128 0x9
 901 02fb 66030000 		.4byte	.LASF58
 902 02ff 06       		.byte	0x6
 903 0300 7F       		.byte	0x7f
 904 0301 41010000 		.4byte	0x141
ARM GAS  /tmp/cc3n5Kbk.s 			page 17


 905 0305 02       		.byte	0x2
 906 0306 23       		.byte	0x23
 907 0307 60       		.uleb128 0x60
 908 0308 0A       		.uleb128 0xa
 909 0309 75647000 		.ascii	"udp\000"
 910 030d 06       		.byte	0x6
 911 030e 85       		.byte	0x85
 912 030f 41010000 		.4byte	0x141
 913 0313 02       		.byte	0x2
 914 0314 23       		.byte	0x23
 915 0315 78       		.uleb128 0x78
 916 0316 0A       		.uleb128 0xa
 917 0317 74637000 		.ascii	"tcp\000"
 918 031b 06       		.byte	0x6
 919 031c 88       		.byte	0x88
 920 031d 41010000 		.4byte	0x141
 921 0321 03       		.byte	0x3
 922 0322 23       		.byte	0x23
 923 0323 9001     		.uleb128 0x90
 924 0325 0A       		.uleb128 0xa
 925 0326 6D656D00 		.ascii	"mem\000"
 926 032a 06       		.byte	0x6
 927 032b 8B       		.byte	0x8b
 928 032c F5010000 		.4byte	0x1f5
 929 0330 03       		.byte	0x3
 930 0331 23       		.byte	0x23
 931 0332 A801     		.uleb128 0xa8
 932 0334 09       		.uleb128 0x9
 933 0335 E1020000 		.4byte	.LASF59
 934 0339 06       		.byte	0x6
 935 033a 8E       		.byte	0x8e
 936 033b 53030000 		.4byte	0x353
 937 033f 03       		.byte	0x3
 938 0340 23       		.byte	0x23
 939 0341 B201     		.uleb128 0xb2
 940 0343 0A       		.uleb128 0xa
 941 0344 73797300 		.ascii	"sys\000"
 942 0348 06       		.byte	0x6
 943 0349 91       		.byte	0x91
 944 034a 7F020000 		.4byte	0x27f
 945 034e 03       		.byte	0x3
 946 034f 23       		.byte	0x23
 947 0350 BE02     		.uleb128 0x13e
 948 0352 00       		.byte	0
 949 0353 0C       		.uleb128 0xc
 950 0354 F5010000 		.4byte	0x1f5
 951 0358 63030000 		.4byte	0x363
 952 035c 0D       		.uleb128 0xd
 953 035d 99000000 		.4byte	0x99
 954 0361 0D       		.byte	0xd
 955 0362 00       		.byte	0
 956 0363 08       		.uleb128 0x8
 957 0364 E1020000 		.4byte	.LASF59
 958 0368 04       		.byte	0x4
 959 0369 01       		.byte	0x1
 960 036a 42       		.byte	0x42
 961 036b 7E030000 		.4byte	0x37e
ARM GAS  /tmp/cc3n5Kbk.s 			page 18


 962 036f 09       		.uleb128 0x9
 963 0370 6B030000 		.4byte	.LASF60
 964 0374 01       		.byte	0x1
 965 0375 43       		.byte	0x43
 966 0376 7E030000 		.4byte	0x37e
 967 037a 02       		.byte	0x2
 968 037b 23       		.byte	0x23
 969 037c 00       		.uleb128 0
 970 037d 00       		.byte	0
 971 037e 0E       		.uleb128 0xe
 972 037f 04       		.byte	0x4
 973 0380 63030000 		.4byte	0x363
 974 0384 0F       		.uleb128 0xf
 975 0385 01       		.byte	0x1
 976 0386 9D010000 		.4byte	.LASF61
 977 038a 01       		.byte	0x1
 978 038b 5201     		.2byte	0x152
 979 038d 01       		.byte	0x1
 980 038e 00000000 		.4byte	.LFB7
 981 0392 7C010000 		.4byte	.LFE7
 982 0396 00000000 		.4byte	.LLST0
 983 039a 01       		.byte	0x1
 984 039b CC030000 		.4byte	0x3cc
 985 039f 10       		.uleb128 0x10
 986 03a0 E1020000 		.4byte	.LASF59
 987 03a4 01       		.byte	0x1
 988 03a5 5401     		.2byte	0x154
 989 03a7 7E030000 		.4byte	0x37e
 990 03ab 20000000 		.4byte	.LLST1
 991 03af 11       		.uleb128 0x11
 992 03b0 6900     		.ascii	"i\000"
 993 03b2 01       		.byte	0x1
 994 03b3 5501     		.2byte	0x155
 995 03b5 B2000000 		.4byte	0xb2
 996 03b9 7D000000 		.4byte	.LLST2
 997 03bd 11       		.uleb128 0x11
 998 03be 6A00     		.ascii	"j\000"
 999 03c0 01       		.byte	0x1
 1000 03c1 5501     		.2byte	0x155
 1001 03c3 B2000000 		.4byte	0xb2
 1002 03c7 09010000 		.4byte	.LLST3
 1003 03cb 00       		.byte	0
 1004 03cc 12       		.uleb128 0x12
 1005 03cd 01       		.byte	0x1
 1006 03ce 3F030000 		.4byte	.LASF71
 1007 03d2 01       		.byte	0x1
 1008 03d3 8601     		.2byte	0x186
 1009 03d5 01       		.byte	0x1
 1010 03d6 97000000 		.4byte	0x97
 1011 03da 00000000 		.4byte	.LFB8
 1012 03de 70000000 		.4byte	.LFE8
 1013 03e2 33010000 		.4byte	.LLST4
 1014 03e6 01       		.byte	0x1
 1015 03e7 1E040000 		.4byte	0x41e
 1016 03eb 13       		.uleb128 0x13
 1017 03ec 17020000 		.4byte	.LASF63
 1018 03f0 01       		.byte	0x1
ARM GAS  /tmp/cc3n5Kbk.s 			page 19


 1019 03f1 8601     		.2byte	0x186
 1020 03f3 2B010000 		.4byte	0x12b
 1021 03f7 53010000 		.4byte	.LLST5
 1022 03fb 10       		.uleb128 0x10
 1023 03fc E1020000 		.4byte	.LASF59
 1024 0400 01       		.byte	0x1
 1025 0401 8B01     		.2byte	0x18b
 1026 0403 7E030000 		.4byte	0x37e
 1027 0407 A6010000 		.4byte	.LLST6
 1028 040b 14       		.uleb128 0x14
 1029 040c 42000000 		.4byte	.LVL27
 1030 0410 FF040000 		.4byte	0x4ff
 1031 0414 14       		.uleb128 0x14
 1032 0415 62000000 		.4byte	.LVL31
 1033 0419 FF040000 		.4byte	0x4ff
 1034 041d 00       		.byte	0
 1035 041e 0F       		.uleb128 0xf
 1036 041f 01       		.byte	0x1
 1037 0420 17000000 		.4byte	.LASF62
 1038 0424 01       		.byte	0x1
 1039 0425 B301     		.2byte	0x1b3
 1040 0427 01       		.byte	0x1
 1041 0428 00000000 		.4byte	.LFB9
 1042 042c 3C000000 		.4byte	.LFE9
 1043 0430 C4010000 		.4byte	.LLST7
 1044 0434 01       		.byte	0x1
 1045 0435 73040000 		.4byte	0x473
 1046 0439 13       		.uleb128 0x13
 1047 043a 17020000 		.4byte	.LASF63
 1048 043e 01       		.byte	0x1
 1049 043f B301     		.2byte	0x1b3
 1050 0441 2B010000 		.4byte	0x12b
 1051 0445 E4010000 		.4byte	.LLST8
 1052 0449 15       		.uleb128 0x15
 1053 044a 6D656D00 		.ascii	"mem\000"
 1054 044e 01       		.byte	0x1
 1055 044f B301     		.2byte	0x1b3
 1056 0451 97000000 		.4byte	0x97
 1057 0455 1E020000 		.4byte	.LLST9
 1058 0459 10       		.uleb128 0x10
 1059 045a E1020000 		.4byte	.LASF59
 1060 045e 01       		.byte	0x1
 1061 045f B501     		.2byte	0x1b5
 1062 0461 7E030000 		.4byte	0x37e
 1063 0465 52020000 		.4byte	.LLST10
 1064 0469 14       		.uleb128 0x14
 1065 046a 32000000 		.4byte	.LVL36
 1066 046e FF040000 		.4byte	0x4ff
 1067 0472 00       		.byte	0
 1068 0473 0C       		.uleb128 0xc
 1069 0474 7E030000 		.4byte	0x37e
 1070 0478 83040000 		.4byte	0x483
 1071 047c 0D       		.uleb128 0xd
 1072 047d 99000000 		.4byte	0x99
 1073 0481 0D       		.byte	0xd
 1074 0482 00       		.byte	0
 1075 0483 16       		.uleb128 0x16
ARM GAS  /tmp/cc3n5Kbk.s 			page 20


 1076 0484 5D030000 		.4byte	.LASF64
 1077 0488 01       		.byte	0x1
 1078 0489 75       		.byte	0x75
 1079 048a 73040000 		.4byte	0x473
 1080 048e 05       		.byte	0x5
 1081 048f 03       		.byte	0x3
 1082 0490 00000000 		.4byte	memp_tab
 1083 0494 0C       		.uleb128 0xc
 1084 0495 B2000000 		.4byte	0xb2
 1085 0499 A4040000 		.4byte	0x4a4
 1086 049d 0D       		.uleb128 0xd
 1087 049e 99000000 		.4byte	0x99
 1088 04a2 0D       		.byte	0xd
 1089 04a3 00       		.byte	0
 1090 04a4 16       		.uleb128 0x16
 1091 04a5 25020000 		.4byte	.LASF65
 1092 04a9 01       		.byte	0x1
 1093 04aa 81       		.byte	0x81
 1094 04ab B5040000 		.4byte	0x4b5
 1095 04af 05       		.byte	0x5
 1096 04b0 03       		.byte	0x3
 1097 04b1 00000000 		.4byte	memp_sizes
 1098 04b5 17       		.uleb128 0x17
 1099 04b6 94040000 		.4byte	0x494
 1100 04ba 16       		.uleb128 0x16
 1101 04bb 07000000 		.4byte	.LASF66
 1102 04bf 01       		.byte	0x1
 1103 04c0 89       		.byte	0x89
 1104 04c1 CB040000 		.4byte	0x4cb
 1105 04c5 05       		.byte	0x5
 1106 04c6 03       		.byte	0x3
 1107 04c7 00000000 		.4byte	memp_num
 1108 04cb 17       		.uleb128 0x17
 1109 04cc 94040000 		.4byte	0x494
 1110 04d0 0C       		.uleb128 0xc
 1111 04d1 A7000000 		.4byte	0xa7
 1112 04d5 E1040000 		.4byte	0x4e1
 1113 04d9 18       		.uleb128 0x18
 1114 04da 99000000 		.4byte	0x99
 1115 04de 1231     		.2byte	0x3112
 1116 04e0 00       		.byte	0
 1117 04e1 16       		.uleb128 0x16
 1118 04e2 6E000000 		.4byte	.LASF67
 1119 04e6 01       		.byte	0x1
 1120 04e7 AA       		.byte	0xaa
 1121 04e8 D0040000 		.4byte	0x4d0
 1122 04ec 05       		.byte	0x5
 1123 04ed 03       		.byte	0x3
 1124 04ee 00000000 		.4byte	memp_memory
 1125 04f2 19       		.uleb128 0x19
 1126 04f3 77020000 		.4byte	.LASF72
 1127 04f7 06       		.byte	0x6
 1128 04f8 95       		.byte	0x95
 1129 04f9 B6020000 		.4byte	0x2b6
 1130 04fd 01       		.byte	0x1
 1131 04fe 01       		.byte	0x1
 1132 04ff 1A       		.uleb128 0x1a
ARM GAS  /tmp/cc3n5Kbk.s 			page 21


 1133 0500 01       		.byte	0x1
 1134 0501 C5000000 		.4byte	.LASF73
 1135 0505 07       		.byte	0x7
 1136 0506 FA01     		.2byte	0x1fa
 1137 0508 01       		.byte	0x1
 1138 0509 01       		.byte	0x1
 1139 050a 00       		.byte	0
 1140              		.section	.debug_abbrev,"",%progbits
 1141              	.Ldebug_abbrev0:
 1142 0000 01       		.uleb128 0x1
 1143 0001 11       		.uleb128 0x11
 1144 0002 01       		.byte	0x1
 1145 0003 25       		.uleb128 0x25
 1146 0004 0E       		.uleb128 0xe
 1147 0005 13       		.uleb128 0x13
 1148 0006 0B       		.uleb128 0xb
 1149 0007 03       		.uleb128 0x3
 1150 0008 0E       		.uleb128 0xe
 1151 0009 1B       		.uleb128 0x1b
 1152 000a 0E       		.uleb128 0xe
 1153 000b 55       		.uleb128 0x55
 1154 000c 06       		.uleb128 0x6
 1155 000d 11       		.uleb128 0x11
 1156 000e 01       		.uleb128 0x1
 1157 000f 52       		.uleb128 0x52
 1158 0010 01       		.uleb128 0x1
 1159 0011 10       		.uleb128 0x10
 1160 0012 06       		.uleb128 0x6
 1161 0013 00       		.byte	0
 1162 0014 00       		.byte	0
 1163 0015 02       		.uleb128 0x2
 1164 0016 24       		.uleb128 0x24
 1165 0017 00       		.byte	0
 1166 0018 0B       		.uleb128 0xb
 1167 0019 0B       		.uleb128 0xb
 1168 001a 3E       		.uleb128 0x3e
 1169 001b 0B       		.uleb128 0xb
 1170 001c 03       		.uleb128 0x3
 1171 001d 08       		.uleb128 0x8
 1172 001e 00       		.byte	0
 1173 001f 00       		.byte	0
 1174 0020 03       		.uleb128 0x3
 1175 0021 24       		.uleb128 0x24
 1176 0022 00       		.byte	0
 1177 0023 0B       		.uleb128 0xb
 1178 0024 0B       		.uleb128 0xb
 1179 0025 3E       		.uleb128 0x3e
 1180 0026 0B       		.uleb128 0xb
 1181 0027 03       		.uleb128 0x3
 1182 0028 0E       		.uleb128 0xe
 1183 0029 00       		.byte	0
 1184 002a 00       		.byte	0
 1185 002b 04       		.uleb128 0x4
 1186 002c 16       		.uleb128 0x16
 1187 002d 00       		.byte	0
 1188 002e 03       		.uleb128 0x3
 1189 002f 0E       		.uleb128 0xe
ARM GAS  /tmp/cc3n5Kbk.s 			page 22


 1190 0030 3A       		.uleb128 0x3a
 1191 0031 0B       		.uleb128 0xb
 1192 0032 3B       		.uleb128 0x3b
 1193 0033 0B       		.uleb128 0xb
 1194 0034 49       		.uleb128 0x49
 1195 0035 13       		.uleb128 0x13
 1196 0036 00       		.byte	0
 1197 0037 00       		.byte	0
 1198 0038 05       		.uleb128 0x5
 1199 0039 0F       		.uleb128 0xf
 1200 003a 00       		.byte	0
 1201 003b 0B       		.uleb128 0xb
 1202 003c 0B       		.uleb128 0xb
 1203 003d 00       		.byte	0
 1204 003e 00       		.byte	0
 1205 003f 06       		.uleb128 0x6
 1206 0040 04       		.uleb128 0x4
 1207 0041 01       		.byte	0x1
 1208 0042 0B       		.uleb128 0xb
 1209 0043 0B       		.uleb128 0xb
 1210 0044 3A       		.uleb128 0x3a
 1211 0045 0B       		.uleb128 0xb
 1212 0046 3B       		.uleb128 0x3b
 1213 0047 0B       		.uleb128 0xb
 1214 0048 01       		.uleb128 0x1
 1215 0049 13       		.uleb128 0x13
 1216 004a 00       		.byte	0
 1217 004b 00       		.byte	0
 1218 004c 07       		.uleb128 0x7
 1219 004d 28       		.uleb128 0x28
 1220 004e 00       		.byte	0
 1221 004f 03       		.uleb128 0x3
 1222 0050 0E       		.uleb128 0xe
 1223 0051 1C       		.uleb128 0x1c
 1224 0052 0D       		.uleb128 0xd
 1225 0053 00       		.byte	0
 1226 0054 00       		.byte	0
 1227 0055 08       		.uleb128 0x8
 1228 0056 13       		.uleb128 0x13
 1229 0057 01       		.byte	0x1
 1230 0058 03       		.uleb128 0x3
 1231 0059 0E       		.uleb128 0xe
 1232 005a 0B       		.uleb128 0xb
 1233 005b 0B       		.uleb128 0xb
 1234 005c 3A       		.uleb128 0x3a
 1235 005d 0B       		.uleb128 0xb
 1236 005e 3B       		.uleb128 0x3b
 1237 005f 0B       		.uleb128 0xb
 1238 0060 01       		.uleb128 0x1
 1239 0061 13       		.uleb128 0x13
 1240 0062 00       		.byte	0
 1241 0063 00       		.byte	0
 1242 0064 09       		.uleb128 0x9
 1243 0065 0D       		.uleb128 0xd
 1244 0066 00       		.byte	0
 1245 0067 03       		.uleb128 0x3
 1246 0068 0E       		.uleb128 0xe
ARM GAS  /tmp/cc3n5Kbk.s 			page 23


 1247 0069 3A       		.uleb128 0x3a
 1248 006a 0B       		.uleb128 0xb
 1249 006b 3B       		.uleb128 0x3b
 1250 006c 0B       		.uleb128 0xb
 1251 006d 49       		.uleb128 0x49
 1252 006e 13       		.uleb128 0x13
 1253 006f 38       		.uleb128 0x38
 1254 0070 0A       		.uleb128 0xa
 1255 0071 00       		.byte	0
 1256 0072 00       		.byte	0
 1257 0073 0A       		.uleb128 0xa
 1258 0074 0D       		.uleb128 0xd
 1259 0075 00       		.byte	0
 1260 0076 03       		.uleb128 0x3
 1261 0077 08       		.uleb128 0x8
 1262 0078 3A       		.uleb128 0x3a
 1263 0079 0B       		.uleb128 0xb
 1264 007a 3B       		.uleb128 0x3b
 1265 007b 0B       		.uleb128 0xb
 1266 007c 49       		.uleb128 0x49
 1267 007d 13       		.uleb128 0x13
 1268 007e 38       		.uleb128 0x38
 1269 007f 0A       		.uleb128 0xa
 1270 0080 00       		.byte	0
 1271 0081 00       		.byte	0
 1272 0082 0B       		.uleb128 0xb
 1273 0083 13       		.uleb128 0x13
 1274 0084 01       		.byte	0x1
 1275 0085 03       		.uleb128 0x3
 1276 0086 0E       		.uleb128 0xe
 1277 0087 0B       		.uleb128 0xb
 1278 0088 05       		.uleb128 0x5
 1279 0089 3A       		.uleb128 0x3a
 1280 008a 0B       		.uleb128 0xb
 1281 008b 3B       		.uleb128 0x3b
 1282 008c 0B       		.uleb128 0xb
 1283 008d 01       		.uleb128 0x1
 1284 008e 13       		.uleb128 0x13
 1285 008f 00       		.byte	0
 1286 0090 00       		.byte	0
 1287 0091 0C       		.uleb128 0xc
 1288 0092 01       		.uleb128 0x1
 1289 0093 01       		.byte	0x1
 1290 0094 49       		.uleb128 0x49
 1291 0095 13       		.uleb128 0x13
 1292 0096 01       		.uleb128 0x1
 1293 0097 13       		.uleb128 0x13
 1294 0098 00       		.byte	0
 1295 0099 00       		.byte	0
 1296 009a 0D       		.uleb128 0xd
 1297 009b 21       		.uleb128 0x21
 1298 009c 00       		.byte	0
 1299 009d 49       		.uleb128 0x49
 1300 009e 13       		.uleb128 0x13
 1301 009f 2F       		.uleb128 0x2f
 1302 00a0 0B       		.uleb128 0xb
 1303 00a1 00       		.byte	0
ARM GAS  /tmp/cc3n5Kbk.s 			page 24


 1304 00a2 00       		.byte	0
 1305 00a3 0E       		.uleb128 0xe
 1306 00a4 0F       		.uleb128 0xf
 1307 00a5 00       		.byte	0
 1308 00a6 0B       		.uleb128 0xb
 1309 00a7 0B       		.uleb128 0xb
 1310 00a8 49       		.uleb128 0x49
 1311 00a9 13       		.uleb128 0x13
 1312 00aa 00       		.byte	0
 1313 00ab 00       		.byte	0
 1314 00ac 0F       		.uleb128 0xf
 1315 00ad 2E       		.uleb128 0x2e
 1316 00ae 01       		.byte	0x1
 1317 00af 3F       		.uleb128 0x3f
 1318 00b0 0C       		.uleb128 0xc
 1319 00b1 03       		.uleb128 0x3
 1320 00b2 0E       		.uleb128 0xe
 1321 00b3 3A       		.uleb128 0x3a
 1322 00b4 0B       		.uleb128 0xb
 1323 00b5 3B       		.uleb128 0x3b
 1324 00b6 05       		.uleb128 0x5
 1325 00b7 27       		.uleb128 0x27
 1326 00b8 0C       		.uleb128 0xc
 1327 00b9 11       		.uleb128 0x11
 1328 00ba 01       		.uleb128 0x1
 1329 00bb 12       		.uleb128 0x12
 1330 00bc 01       		.uleb128 0x1
 1331 00bd 40       		.uleb128 0x40
 1332 00be 06       		.uleb128 0x6
 1333 00bf 9742     		.uleb128 0x2117
 1334 00c1 0C       		.uleb128 0xc
 1335 00c2 01       		.uleb128 0x1
 1336 00c3 13       		.uleb128 0x13
 1337 00c4 00       		.byte	0
 1338 00c5 00       		.byte	0
 1339 00c6 10       		.uleb128 0x10
 1340 00c7 34       		.uleb128 0x34
 1341 00c8 00       		.byte	0
 1342 00c9 03       		.uleb128 0x3
 1343 00ca 0E       		.uleb128 0xe
 1344 00cb 3A       		.uleb128 0x3a
 1345 00cc 0B       		.uleb128 0xb
 1346 00cd 3B       		.uleb128 0x3b
 1347 00ce 05       		.uleb128 0x5
 1348 00cf 49       		.uleb128 0x49
 1349 00d0 13       		.uleb128 0x13
 1350 00d1 02       		.uleb128 0x2
 1351 00d2 06       		.uleb128 0x6
 1352 00d3 00       		.byte	0
 1353 00d4 00       		.byte	0
 1354 00d5 11       		.uleb128 0x11
 1355 00d6 34       		.uleb128 0x34
 1356 00d7 00       		.byte	0
 1357 00d8 03       		.uleb128 0x3
 1358 00d9 08       		.uleb128 0x8
 1359 00da 3A       		.uleb128 0x3a
 1360 00db 0B       		.uleb128 0xb
ARM GAS  /tmp/cc3n5Kbk.s 			page 25


 1361 00dc 3B       		.uleb128 0x3b
 1362 00dd 05       		.uleb128 0x5
 1363 00de 49       		.uleb128 0x49
 1364 00df 13       		.uleb128 0x13
 1365 00e0 02       		.uleb128 0x2
 1366 00e1 06       		.uleb128 0x6
 1367 00e2 00       		.byte	0
 1368 00e3 00       		.byte	0
 1369 00e4 12       		.uleb128 0x12
 1370 00e5 2E       		.uleb128 0x2e
 1371 00e6 01       		.byte	0x1
 1372 00e7 3F       		.uleb128 0x3f
 1373 00e8 0C       		.uleb128 0xc
 1374 00e9 03       		.uleb128 0x3
 1375 00ea 0E       		.uleb128 0xe
 1376 00eb 3A       		.uleb128 0x3a
 1377 00ec 0B       		.uleb128 0xb
 1378 00ed 3B       		.uleb128 0x3b
 1379 00ee 05       		.uleb128 0x5
 1380 00ef 27       		.uleb128 0x27
 1381 00f0 0C       		.uleb128 0xc
 1382 00f1 49       		.uleb128 0x49
 1383 00f2 13       		.uleb128 0x13
 1384 00f3 11       		.uleb128 0x11
 1385 00f4 01       		.uleb128 0x1
 1386 00f5 12       		.uleb128 0x12
 1387 00f6 01       		.uleb128 0x1
 1388 00f7 40       		.uleb128 0x40
 1389 00f8 06       		.uleb128 0x6
 1390 00f9 9742     		.uleb128 0x2117
 1391 00fb 0C       		.uleb128 0xc
 1392 00fc 01       		.uleb128 0x1
 1393 00fd 13       		.uleb128 0x13
 1394 00fe 00       		.byte	0
 1395 00ff 00       		.byte	0
 1396 0100 13       		.uleb128 0x13
 1397 0101 05       		.uleb128 0x5
 1398 0102 00       		.byte	0
 1399 0103 03       		.uleb128 0x3
 1400 0104 0E       		.uleb128 0xe
 1401 0105 3A       		.uleb128 0x3a
 1402 0106 0B       		.uleb128 0xb
 1403 0107 3B       		.uleb128 0x3b
 1404 0108 05       		.uleb128 0x5
 1405 0109 49       		.uleb128 0x49
 1406 010a 13       		.uleb128 0x13
 1407 010b 02       		.uleb128 0x2
 1408 010c 06       		.uleb128 0x6
 1409 010d 00       		.byte	0
 1410 010e 00       		.byte	0
 1411 010f 14       		.uleb128 0x14
 1412 0110 898201   		.uleb128 0x4109
 1413 0113 00       		.byte	0
 1414 0114 11       		.uleb128 0x11
 1415 0115 01       		.uleb128 0x1
 1416 0116 31       		.uleb128 0x31
 1417 0117 13       		.uleb128 0x13
ARM GAS  /tmp/cc3n5Kbk.s 			page 26


 1418 0118 00       		.byte	0
 1419 0119 00       		.byte	0
 1420 011a 15       		.uleb128 0x15
 1421 011b 05       		.uleb128 0x5
 1422 011c 00       		.byte	0
 1423 011d 03       		.uleb128 0x3
 1424 011e 08       		.uleb128 0x8
 1425 011f 3A       		.uleb128 0x3a
 1426 0120 0B       		.uleb128 0xb
 1427 0121 3B       		.uleb128 0x3b
 1428 0122 05       		.uleb128 0x5
 1429 0123 49       		.uleb128 0x49
 1430 0124 13       		.uleb128 0x13
 1431 0125 02       		.uleb128 0x2
 1432 0126 06       		.uleb128 0x6
 1433 0127 00       		.byte	0
 1434 0128 00       		.byte	0
 1435 0129 16       		.uleb128 0x16
 1436 012a 34       		.uleb128 0x34
 1437 012b 00       		.byte	0
 1438 012c 03       		.uleb128 0x3
 1439 012d 0E       		.uleb128 0xe
 1440 012e 3A       		.uleb128 0x3a
 1441 012f 0B       		.uleb128 0xb
 1442 0130 3B       		.uleb128 0x3b
 1443 0131 0B       		.uleb128 0xb
 1444 0132 49       		.uleb128 0x49
 1445 0133 13       		.uleb128 0x13
 1446 0134 02       		.uleb128 0x2
 1447 0135 0A       		.uleb128 0xa
 1448 0136 00       		.byte	0
 1449 0137 00       		.byte	0
 1450 0138 17       		.uleb128 0x17
 1451 0139 26       		.uleb128 0x26
 1452 013a 00       		.byte	0
 1453 013b 49       		.uleb128 0x49
 1454 013c 13       		.uleb128 0x13
 1455 013d 00       		.byte	0
 1456 013e 00       		.byte	0
 1457 013f 18       		.uleb128 0x18
 1458 0140 21       		.uleb128 0x21
 1459 0141 00       		.byte	0
 1460 0142 49       		.uleb128 0x49
 1461 0143 13       		.uleb128 0x13
 1462 0144 2F       		.uleb128 0x2f
 1463 0145 05       		.uleb128 0x5
 1464 0146 00       		.byte	0
 1465 0147 00       		.byte	0
 1466 0148 19       		.uleb128 0x19
 1467 0149 34       		.uleb128 0x34
 1468 014a 00       		.byte	0
 1469 014b 03       		.uleb128 0x3
 1470 014c 0E       		.uleb128 0xe
 1471 014d 3A       		.uleb128 0x3a
 1472 014e 0B       		.uleb128 0xb
 1473 014f 3B       		.uleb128 0x3b
 1474 0150 0B       		.uleb128 0xb
ARM GAS  /tmp/cc3n5Kbk.s 			page 27


 1475 0151 49       		.uleb128 0x49
 1476 0152 13       		.uleb128 0x13
 1477 0153 3F       		.uleb128 0x3f
 1478 0154 0C       		.uleb128 0xc
 1479 0155 3C       		.uleb128 0x3c
 1480 0156 0C       		.uleb128 0xc
 1481 0157 00       		.byte	0
 1482 0158 00       		.byte	0
 1483 0159 1A       		.uleb128 0x1a
 1484 015a 2E       		.uleb128 0x2e
 1485 015b 00       		.byte	0
 1486 015c 3F       		.uleb128 0x3f
 1487 015d 0C       		.uleb128 0xc
 1488 015e 03       		.uleb128 0x3
 1489 015f 0E       		.uleb128 0xe
 1490 0160 3A       		.uleb128 0x3a
 1491 0161 0B       		.uleb128 0xb
 1492 0162 3B       		.uleb128 0x3b
 1493 0163 05       		.uleb128 0x5
 1494 0164 27       		.uleb128 0x27
 1495 0165 0C       		.uleb128 0xc
 1496 0166 3C       		.uleb128 0x3c
 1497 0167 0C       		.uleb128 0xc
 1498 0168 00       		.byte	0
 1499 0169 00       		.byte	0
 1500 016a 00       		.byte	0
 1501              		.section	.debug_loc,"",%progbits
 1502              	.Ldebug_loc0:
 1503              	.LLST0:
 1504 0000 00000000 		.4byte	.LFB7
 1505 0004 06000000 		.4byte	.LCFI0
 1506 0008 0200     		.2byte	0x2
 1507 000a 7D       		.byte	0x7d
 1508 000b 00       		.sleb128 0
 1509 000c 06000000 		.4byte	.LCFI0
 1510 0010 7C010000 		.4byte	.LFE7
 1511 0014 0200     		.2byte	0x2
 1512 0016 7D       		.byte	0x7d
 1513 0017 1C       		.sleb128 28
 1514 0018 00000000 		.4byte	0
 1515 001c 00000000 		.4byte	0
 1516              	.LLST1:
 1517 0020 0C010000 		.4byte	.LVL10
 1518 0024 28010000 		.4byte	.LVL13
 1519 0028 0100     		.2byte	0x1
 1520 002a 55       		.byte	0x55
 1521 002b 32010000 		.4byte	.LVL15
 1522 002f 3A010000 		.4byte	.LVL17
 1523 0033 0100     		.2byte	0x1
 1524 0035 51       		.byte	0x51
 1525 0036 46010000 		.4byte	.LVL18
 1526 003a 50010000 		.4byte	.LVL19
 1527 003e 0100     		.2byte	0x1
 1528 0040 51       		.byte	0x51
 1529 0041 50010000 		.4byte	.LVL19
 1530 0045 54010000 		.4byte	.LVL20
 1531 0049 0600     		.2byte	0x6
ARM GAS  /tmp/cc3n5Kbk.s 			page 28


 1532 004b 73       		.byte	0x73
 1533 004c 00       		.sleb128 0
 1534 004d 72       		.byte	0x72
 1535 004e 00       		.sleb128 0
 1536 004f 22       		.byte	0x22
 1537 0050 9F       		.byte	0x9f
 1538 0051 54010000 		.4byte	.LVL20
 1539 0055 5A010000 		.4byte	.LVL21
 1540 0059 0F00     		.2byte	0xf
 1541 005b 7A       		.byte	0x7a
 1542 005c 00       		.sleb128 0
 1543 005d 76       		.byte	0x76
 1544 005e 00       		.sleb128 0
 1545 005f 22       		.byte	0x22
 1546 0060 94       		.byte	0x94
 1547 0061 02       		.byte	0x2
 1548 0062 0A       		.byte	0xa
 1549 0063 FFFF     		.2byte	0xffff
 1550 0065 1A       		.byte	0x1a
 1551 0066 73       		.byte	0x73
 1552 0067 00       		.sleb128 0
 1553 0068 22       		.byte	0x22
 1554 0069 9F       		.byte	0x9f
 1555 006a 5A010000 		.4byte	.LVL21
 1556 006e 7C010000 		.4byte	.LFE7
 1557 0072 0100     		.2byte	0x1
 1558 0074 55       		.byte	0x55
 1559 0075 00000000 		.4byte	0
 1560 0079 00000000 		.4byte	0
 1561              	.LLST2:
 1562 007d 00000000 		.4byte	.LVL0
 1563 0081 2C000000 		.4byte	.LVL1
 1564 0085 0200     		.2byte	0x2
 1565 0087 30       		.byte	0x30
 1566 0088 9F       		.byte	0x9f
 1567 0089 2C000000 		.4byte	.LVL1
 1568 008d 30000000 		.4byte	.LVL2
 1569 0091 0200     		.2byte	0x2
 1570 0093 31       		.byte	0x31
 1571 0094 9F       		.byte	0x9f
 1572 0095 30000000 		.4byte	.LVL2
 1573 0099 64000000 		.4byte	.LVL3
 1574 009d 0200     		.2byte	0x2
 1575 009f 33       		.byte	0x33
 1576 00a0 9F       		.byte	0x9f
 1577 00a1 64000000 		.4byte	.LVL3
 1578 00a5 74000000 		.4byte	.LVL4
 1579 00a9 0200     		.2byte	0x2
 1580 00ab 34       		.byte	0x34
 1581 00ac 9F       		.byte	0x9f
 1582 00ad 74000000 		.4byte	.LVL4
 1583 00b1 A8000000 		.4byte	.LVL5
 1584 00b5 0200     		.2byte	0x2
 1585 00b7 38       		.byte	0x38
 1586 00b8 9F       		.byte	0x9f
 1587 00b9 A8000000 		.4byte	.LVL5
 1588 00bd CC000000 		.4byte	.LVL6
ARM GAS  /tmp/cc3n5Kbk.s 			page 29


 1589 00c1 0200     		.2byte	0x2
 1590 00c3 39       		.byte	0x39
 1591 00c4 9F       		.byte	0x9f
 1592 00c5 CC000000 		.4byte	.LVL6
 1593 00c9 DC000000 		.4byte	.LVL7
 1594 00cd 0200     		.2byte	0x2
 1595 00cf 3A       		.byte	0x3a
 1596 00d0 9F       		.byte	0x9f
 1597 00d1 DC000000 		.4byte	.LVL7
 1598 00d5 EC000000 		.4byte	.LVL8
 1599 00d9 0200     		.2byte	0x2
 1600 00db 3B       		.byte	0x3b
 1601 00dc 9F       		.byte	0x9f
 1602 00dd EC000000 		.4byte	.LVL8
 1603 00e1 FC000000 		.4byte	.LVL9
 1604 00e5 0200     		.2byte	0x2
 1605 00e7 3C       		.byte	0x3c
 1606 00e8 9F       		.byte	0x9f
 1607 00e9 FC000000 		.4byte	.LVL9
 1608 00ed 0C010000 		.4byte	.LVL10
 1609 00f1 0200     		.2byte	0x2
 1610 00f3 3D       		.byte	0x3d
 1611 00f4 9F       		.byte	0x9f
 1612 00f5 0C010000 		.4byte	.LVL10
 1613 00f9 0E010000 		.4byte	.LVL11
 1614 00fd 0200     		.2byte	0x2
 1615 00ff 30       		.byte	0x30
 1616 0100 9F       		.byte	0x9f
 1617 0101 00000000 		.4byte	0
 1618 0105 00000000 		.4byte	0
 1619              	.LLST3:
 1620 0109 16010000 		.4byte	.LVL12
 1621 010d 2C010000 		.4byte	.LVL14
 1622 0111 0200     		.2byte	0x2
 1623 0113 30       		.byte	0x30
 1624 0114 9F       		.byte	0x9f
 1625 0115 2C010000 		.4byte	.LVL14
 1626 0119 32010000 		.4byte	.LVL15
 1627 011d 0100     		.2byte	0x1
 1628 011f 50       		.byte	0x50
 1629 0120 38010000 		.4byte	.LVL16
 1630 0124 3A010000 		.4byte	.LVL17
 1631 0128 0100     		.2byte	0x1
 1632 012a 50       		.byte	0x50
 1633 012b 00000000 		.4byte	0
 1634 012f 00000000 		.4byte	0
 1635              	.LLST4:
 1636 0133 00000000 		.4byte	.LFB8
 1637 0137 04000000 		.4byte	.LCFI1
 1638 013b 0200     		.2byte	0x2
 1639 013d 7D       		.byte	0x7d
 1640 013e 00       		.sleb128 0
 1641 013f 04000000 		.4byte	.LCFI1
 1642 0143 70000000 		.4byte	.LFE8
 1643 0147 0200     		.2byte	0x2
 1644 0149 7D       		.byte	0x7d
 1645 014a 10       		.sleb128 16
ARM GAS  /tmp/cc3n5Kbk.s 			page 30


 1646 014b 00000000 		.4byte	0
 1647 014f 00000000 		.4byte	0
 1648              	.LLST5:
 1649 0153 00000000 		.4byte	.LVL22
 1650 0157 26000000 		.4byte	.LVL24
 1651 015b 0100     		.2byte	0x1
 1652 015d 50       		.byte	0x50
 1653 015e 26000000 		.4byte	.LVL24
 1654 0162 46000000 		.4byte	.LVL28
 1655 0166 0400     		.2byte	0x4
 1656 0168 F3       		.byte	0xf3
 1657 0169 01       		.uleb128 0x1
 1658 016a 50       		.byte	0x50
 1659 016b 9F       		.byte	0x9f
 1660 016c 46000000 		.4byte	.LVL28
 1661 0170 4C000000 		.4byte	.LVL29
 1662 0174 0100     		.2byte	0x1
 1663 0176 50       		.byte	0x50
 1664 0177 4C000000 		.4byte	.LVL29
 1665 017b 5E000000 		.4byte	.LVL30
 1666 017f 0400     		.2byte	0x4
 1667 0181 F3       		.byte	0xf3
 1668 0182 01       		.uleb128 0x1
 1669 0183 50       		.byte	0x50
 1670 0184 9F       		.byte	0x9f
 1671 0185 5E000000 		.4byte	.LVL30
 1672 0189 61000000 		.4byte	.LVL31-1
 1673 018d 0100     		.2byte	0x1
 1674 018f 50       		.byte	0x50
 1675 0190 61000000 		.4byte	.LVL31-1
 1676 0194 70000000 		.4byte	.LFE8
 1677 0198 0400     		.2byte	0x4
 1678 019a F3       		.byte	0xf3
 1679 019b 01       		.uleb128 0x1
 1680 019c 50       		.byte	0x50
 1681 019d 9F       		.byte	0x9f
 1682 019e 00000000 		.4byte	0
 1683 01a2 00000000 		.4byte	0
 1684              	.LLST6:
 1685 01a6 0C000000 		.4byte	.LVL23
 1686 01aa 3A000000 		.4byte	.LVL25
 1687 01ae 0100     		.2byte	0x1
 1688 01b0 54       		.byte	0x54
 1689 01b1 3E000000 		.4byte	.LVL26
 1690 01b5 5E000000 		.4byte	.LVL30
 1691 01b9 0100     		.2byte	0x1
 1692 01bb 54       		.byte	0x54
 1693 01bc 00000000 		.4byte	0
 1694 01c0 00000000 		.4byte	0
 1695              	.LLST7:
 1696 01c4 00000000 		.4byte	.LFB9
 1697 01c8 02000000 		.4byte	.LCFI2
 1698 01cc 0200     		.2byte	0x2
 1699 01ce 7D       		.byte	0x7d
 1700 01cf 00       		.sleb128 0
 1701 01d0 02000000 		.4byte	.LCFI2
 1702 01d4 3C000000 		.4byte	.LFE9
ARM GAS  /tmp/cc3n5Kbk.s 			page 31


 1703 01d8 0200     		.2byte	0x2
 1704 01da 7D       		.byte	0x7d
 1705 01db 10       		.sleb128 16
 1706 01dc 00000000 		.4byte	0
 1707 01e0 00000000 		.4byte	0
 1708              	.LLST8:
 1709 01e4 00000000 		.4byte	.LVL32
 1710 01e8 0C000000 		.4byte	.LVL33
 1711 01ec 0100     		.2byte	0x1
 1712 01ee 50       		.byte	0x50
 1713 01ef 0C000000 		.4byte	.LVL33
 1714 01f3 2E000000 		.4byte	.LVL35
 1715 01f7 0400     		.2byte	0x4
 1716 01f9 F3       		.byte	0xf3
 1717 01fa 01       		.uleb128 0x1
 1718 01fb 50       		.byte	0x50
 1719 01fc 9F       		.byte	0x9f
 1720 01fd 2E000000 		.4byte	.LVL35
 1721 0201 31000000 		.4byte	.LVL36-1
 1722 0205 0100     		.2byte	0x1
 1723 0207 50       		.byte	0x50
 1724 0208 31000000 		.4byte	.LVL36-1
 1725 020c 3C000000 		.4byte	.LFE9
 1726 0210 0400     		.2byte	0x4
 1727 0212 F3       		.byte	0xf3
 1728 0213 01       		.uleb128 0x1
 1729 0214 50       		.byte	0x50
 1730 0215 9F       		.byte	0x9f
 1731 0216 00000000 		.4byte	0
 1732 021a 00000000 		.4byte	0
 1733              	.LLST9:
 1734 021e 00000000 		.4byte	.LVL32
 1735 0222 0C000000 		.4byte	.LVL33
 1736 0226 0100     		.2byte	0x1
 1737 0228 51       		.byte	0x51
 1738 0229 0C000000 		.4byte	.LVL33
 1739 022d 2E000000 		.4byte	.LVL35
 1740 0231 0100     		.2byte	0x1
 1741 0233 54       		.byte	0x54
 1742 0234 2E000000 		.4byte	.LVL35
 1743 0238 31000000 		.4byte	.LVL36-1
 1744 023c 0100     		.2byte	0x1
 1745 023e 51       		.byte	0x51
 1746 023f 31000000 		.4byte	.LVL36-1
 1747 0243 3C000000 		.4byte	.LFE9
 1748 0247 0100     		.2byte	0x1
 1749 0249 54       		.byte	0x54
 1750 024a 00000000 		.4byte	0
 1751 024e 00000000 		.4byte	0
 1752              	.LLST10:
 1753 0252 0C000000 		.4byte	.LVL33
 1754 0256 2C000000 		.4byte	.LVL34
 1755 025a 0100     		.2byte	0x1
 1756 025c 54       		.byte	0x54
 1757 025d 00000000 		.4byte	0
 1758 0261 00000000 		.4byte	0
 1759              		.section	.debug_aranges,"",%progbits
ARM GAS  /tmp/cc3n5Kbk.s 			page 32


 1760 0000 2C000000 		.4byte	0x2c
 1761 0004 0200     		.2byte	0x2
 1762 0006 00000000 		.4byte	.Ldebug_info0
 1763 000a 04       		.byte	0x4
 1764 000b 00       		.byte	0
 1765 000c 0000     		.2byte	0
 1766 000e 0000     		.2byte	0
 1767 0010 00000000 		.4byte	.LFB7
 1768 0014 7C010000 		.4byte	.LFE7-.LFB7
 1769 0018 00000000 		.4byte	.LFB8
 1770 001c 70000000 		.4byte	.LFE8-.LFB8
 1771 0020 00000000 		.4byte	.LFB9
 1772 0024 3C000000 		.4byte	.LFE9-.LFB9
 1773 0028 00000000 		.4byte	0
 1774 002c 00000000 		.4byte	0
 1775              		.section	.debug_ranges,"",%progbits
 1776              	.Ldebug_ranges0:
 1777 0000 00000000 		.4byte	.LFB7
 1778 0004 7C010000 		.4byte	.LFE7
 1779 0008 00000000 		.4byte	.LFB8
 1780 000c 70000000 		.4byte	.LFE8
 1781 0010 00000000 		.4byte	.LFB9
 1782 0014 3C000000 		.4byte	.LFE9
 1783 0018 00000000 		.4byte	0
 1784 001c 00000000 		.4byte	0
 1785              		.section	.debug_line,"",%progbits
 1786              	.Ldebug_line0:
 1787 0000 03020000 		.section	.debug_str,"MS",%progbits,1
 1787      02001F01 
 1787      00000201 
 1787      FB0E0D00 
 1787      01010101 
 1788              	.LASF54:
 1789 0000 73746174 		.ascii	"stats_\000"
 1789      735F00
 1790              	.LASF66:
 1791 0007 6D656D70 		.ascii	"memp_num\000"
 1791      5F6E756D 
 1791      00
 1792              	.LASF38:
 1793 0010 63686B65 		.ascii	"chkerr\000"
 1793      727200
 1794              	.LASF62:
 1795 0017 6D656D70 		.ascii	"memp_free\000"
 1795      5F667265 
 1795      6500
 1796              	.LASF53:
 1797 0021 6D626F78 		.ascii	"mbox\000"
 1797      00
 1798              	.LASF57:
 1799 0026 69705F66 		.ascii	"ip_frag\000"
 1799      72616700 
 1800              	.LASF3:
 1801 002e 73686F72 		.ascii	"short int\000"
 1801      7420696E 
 1801      7400
 1802              	.LASF33:
ARM GAS  /tmp/cc3n5Kbk.s 			page 33


 1803 0038 6D656D70 		.ascii	"memp_t\000"
 1803      5F7400
 1804              	.LASF22:
 1805 003f 4D454D50 		.ascii	"MEMP_TCP_SEG\000"
 1805      5F544350 
 1805      5F534547 
 1805      00
 1806              	.LASF45:
 1807 004c 73746174 		.ascii	"stats_proto\000"
 1807      735F7072 
 1807      6F746F00 
 1808              	.LASF13:
 1809 0058 73697A65 		.ascii	"sizetype\000"
 1809      74797065 
 1809      00
 1810              	.LASF19:
 1811 0061 4D454D50 		.ascii	"MEMP_UDP_PCB\000"
 1811      5F554450 
 1811      5F504342 
 1811      00
 1812              	.LASF67:
 1813 006e 6D656D70 		.ascii	"memp_memory\000"
 1813      5F6D656D 
 1813      6F727900 
 1814              	.LASF70:
 1815 007a 2F686F6D 		.ascii	"/home/witold/Dokumenty/arm/ChibiOS-master/demos/ARM"
 1815      652F7769 
 1815      746F6C64 
 1815      2F446F6B 
 1815      756D656E 
 1816 00ad 434D342D 		.ascii	"CM4-STM32F407-LWIP\000"
 1816      53544D33 
 1816      32463430 
 1816      372D4C57 
 1816      495000
 1817              	.LASF35:
 1818 00c0 786D6974 		.ascii	"xmit\000"
 1818      00
 1819              	.LASF73:
 1820 00c5 706F7274 		.ascii	"port_halt\000"
 1820      5F68616C 
 1820      7400
 1821              	.LASF46:
 1822 00cf 73746174 		.ascii	"stats_mem\000"
 1822      735F6D65 
 1822      6D00
 1823              	.LASF68:
 1824 00d9 474E5520 		.ascii	"GNU C 4.7.4 20130613 (release) [ARM/embedded-4_7-br"
 1824      4320342E 
 1824      372E3420 
 1824      32303133 
 1824      30363133 
 1825 010c 616E6368 		.ascii	"anch revision 200083]\000"
 1825      20726576 
 1825      6973696F 
 1825      6E203230 
 1825      30303833 
ARM GAS  /tmp/cc3n5Kbk.s 			page 34


 1826              	.LASF17:
 1827 0122 6D656D5F 		.ascii	"mem_ptr_t\000"
 1827      7074725F 
 1827      7400
 1828              	.LASF39:
 1829 012c 6C656E65 		.ascii	"lenerr\000"
 1829      727200
 1830              	.LASF29:
 1831 0133 4D454D50 		.ascii	"MEMP_SYS_TIMEOUT\000"
 1831      5F535953 
 1831      5F54494D 
 1831      454F5554 
 1831      00
 1832              	.LASF24:
 1833 0144 4D454D50 		.ascii	"MEMP_FRAG_PBUF\000"
 1833      5F465241 
 1833      475F5042 
 1833      554600
 1834              	.LASF4:
 1835 0153 75696E74 		.ascii	"uint8_t\000"
 1835      385F7400 
 1836              	.LASF44:
 1837 015b 63616368 		.ascii	"cachehit\000"
 1837      65686974 
 1837      00
 1838              	.LASF21:
 1839 0164 4D454D50 		.ascii	"MEMP_TCP_PCB_LISTEN\000"
 1839      5F544350 
 1839      5F504342 
 1839      5F4C4953 
 1839      54454E00 
 1840              	.LASF8:
 1841 0178 75696E74 		.ascii	"uint32_t\000"
 1841      33325F74 
 1841      00
 1842              	.LASF55:
 1843 0181 6C696E6B 		.ascii	"link\000"
 1843      00
 1844              	.LASF10:
 1845 0186 6C6F6E67 		.ascii	"long long int\000"
 1845      206C6F6E 
 1845      6720696E 
 1845      7400
 1846              	.LASF7:
 1847 0194 6C6F6E67 		.ascii	"long int\000"
 1847      20696E74 
 1847      00
 1848              	.LASF61:
 1849 019d 6D656D70 		.ascii	"memp_init\000"
 1849      5F696E69 
 1849      7400
 1850              	.LASF34:
 1851 01a7 6D656D5F 		.ascii	"mem_size_t\000"
 1851      73697A65 
 1851      5F7400
 1852              	.LASF40:
 1853 01b2 6D656D65 		.ascii	"memerr\000"
ARM GAS  /tmp/cc3n5Kbk.s 			page 35


 1853      727200
 1854              	.LASF37:
 1855 01b9 64726F70 		.ascii	"drop\000"
 1855      00
 1856              	.LASF28:
 1857 01be 4D454D50 		.ascii	"MEMP_TCPIP_MSG_INPKT\000"
 1857      5F544350 
 1857      49505F4D 
 1857      53475F49 
 1857      4E504B54 
 1858              	.LASF2:
 1859 01d3 756E7369 		.ascii	"unsigned char\000"
 1859      676E6564 
 1859      20636861 
 1859      7200
 1860              	.LASF32:
 1861 01e1 4D454D50 		.ascii	"MEMP_MAX\000"
 1861      5F4D4158 
 1861      00
 1862              	.LASF1:
 1863 01ea 7369676E 		.ascii	"signed char\000"
 1863      65642063 
 1863      68617200 
 1864              	.LASF51:
 1865 01f6 73746174 		.ascii	"stats_sys\000"
 1865      735F7379 
 1865      7300
 1866              	.LASF11:
 1867 0200 6C6F6E67 		.ascii	"long long unsigned int\000"
 1867      206C6F6E 
 1867      6720756E 
 1867      7369676E 
 1867      65642069 
 1868              	.LASF63:
 1869 0217 74797065 		.ascii	"type\000"
 1869      00
 1870              	.LASF5:
 1871 021c 75696E74 		.ascii	"uint16_t\000"
 1871      31365F74 
 1871      00
 1872              	.LASF65:
 1873 0225 6D656D70 		.ascii	"memp_sizes\000"
 1873      5F73697A 
 1873      657300
 1874              	.LASF43:
 1875 0230 6F707465 		.ascii	"opterr\000"
 1875      727200
 1876              	.LASF52:
 1877 0237 6D757465 		.ascii	"mutex\000"
 1877      7800
 1878              	.LASF6:
 1879 023d 73686F72 		.ascii	"short unsigned int\000"
 1879      7420756E 
 1879      7369676E 
 1879      65642069 
 1879      6E7400
 1880              	.LASF23:
ARM GAS  /tmp/cc3n5Kbk.s 			page 36


 1881 0250 4D454D50 		.ascii	"MEMP_REASSDATA\000"
 1881      5F524541 
 1881      53534441 
 1881      544100
 1882              	.LASF14:
 1883 025f 63686172 		.ascii	"char\000"
 1883      00
 1884              	.LASF27:
 1885 0264 4D454D50 		.ascii	"MEMP_TCPIP_MSG_API\000"
 1885      5F544350 
 1885      49505F4D 
 1885      53475F41 
 1885      504900
 1886              	.LASF72:
 1887 0277 6C776970 		.ascii	"lwip_stats\000"
 1887      5F737461 
 1887      747300
 1888              	.LASF42:
 1889 0282 70726F74 		.ascii	"proterr\000"
 1889      65727200 
 1890              	.LASF12:
 1891 028a 5F426F6F 		.ascii	"_Bool\000"
 1891      6C00
 1892              	.LASF49:
 1893 0290 696C6C65 		.ascii	"illegal\000"
 1893      67616C00 
 1894              	.LASF30:
 1895 0298 4D454D50 		.ascii	"MEMP_PBUF\000"
 1895      5F504255 
 1895      4600
 1896              	.LASF50:
 1897 02a2 73746174 		.ascii	"stats_syselem\000"
 1897      735F7379 
 1897      73656C65 
 1897      6D00
 1898              	.LASF9:
 1899 02b0 6C6F6E67 		.ascii	"long unsigned int\000"
 1899      20756E73 
 1899      69676E65 
 1899      6420696E 
 1899      7400
 1900              	.LASF69:
 1901 02c2 2E2E2F2E 		.ascii	"../../ext/lwip/src/core/memp.c\000"
 1901      2E2F6578 
 1901      742F6C77 
 1901      69702F73 
 1901      72632F63 
 1902              	.LASF59:
 1903 02e1 6D656D70 		.ascii	"memp\000"
 1903      00
 1904              	.LASF18:
 1905 02e6 4D454D50 		.ascii	"MEMP_RAW_PCB\000"
 1905      5F524157 
 1905      5F504342 
 1905      00
 1906              	.LASF41:
 1907 02f3 72746572 		.ascii	"rterr\000"
ARM GAS  /tmp/cc3n5Kbk.s 			page 37


 1907      7200
 1908              	.LASF15:
 1909 02f9 75385F74 		.ascii	"u8_t\000"
 1909      00
 1910              	.LASF16:
 1911 02fe 7531365F 		.ascii	"u16_t\000"
 1911      7400
 1912              	.LASF31:
 1913 0304 4D454D50 		.ascii	"MEMP_PBUF_POOL\000"
 1913      5F504255 
 1913      465F504F 
 1913      4F4C00
 1914              	.LASF48:
 1915 0313 75736564 		.ascii	"used\000"
 1915      00
 1916              	.LASF47:
 1917 0318 61766169 		.ascii	"avail\000"
 1917      6C00
 1918              	.LASF26:
 1919 031e 4D454D50 		.ascii	"MEMP_NETCONN\000"
 1919      5F4E4554 
 1919      434F4E4E 
 1919      00
 1920              	.LASF20:
 1921 032b 4D454D50 		.ascii	"MEMP_TCP_PCB\000"
 1921      5F544350 
 1921      5F504342 
 1921      00
 1922              	.LASF56:
 1923 0338 65746861 		.ascii	"etharp\000"
 1923      727000
 1924              	.LASF71:
 1925 033f 6D656D70 		.ascii	"memp_malloc\000"
 1925      5F6D616C 
 1925      6C6F6300 
 1926              	.LASF36:
 1927 034b 72656376 		.ascii	"recv\000"
 1927      00
 1928              	.LASF0:
 1929 0350 756E7369 		.ascii	"unsigned int\000"
 1929      676E6564 
 1929      20696E74 
 1929      00
 1930              	.LASF64:
 1931 035d 6D656D70 		.ascii	"memp_tab\000"
 1931      5F746162 
 1931      00
 1932              	.LASF58:
 1933 0366 69636D70 		.ascii	"icmp\000"
 1933      00
 1934              	.LASF60:
 1935 036b 6E657874 		.ascii	"next\000"
 1935      00
 1936              	.LASF25:
 1937 0370 4D454D50 		.ascii	"MEMP_NETBUF\000"
 1937      5F4E4554 
 1937      42554600 
ARM GAS  /tmp/cc3n5Kbk.s 			page 38


 1938              		.ident	"GCC: (GNU Tools for ARM Embedded Processors) 4.7.4 20130613 (release) [ARM/embedded-4_7-br
ARM GAS  /tmp/cc3n5Kbk.s 			page 39


DEFINED SYMBOLS
                            *ABS*:00000000 memp.c
     /tmp/cc3n5Kbk.s:19     .text.memp_init:00000000 $t
     /tmp/cc3n5Kbk.s:25     .text.memp_init:00000000 memp_init
     /tmp/cc3n5Kbk.s:259    .text.memp_init:00000168 $d
     /tmp/cc3n5Kbk.s:268    .text.memp_malloc:00000000 $t
     /tmp/cc3n5Kbk.s:274    .text.memp_malloc:00000000 memp_malloc
     /tmp/cc3n5Kbk.s:357    .text.memp_malloc:00000068 $d
     /tmp/cc3n5Kbk.s:363    .text.memp_free:00000000 $t
     /tmp/cc3n5Kbk.s:369    .text.memp_free:00000000 memp_free
     /tmp/cc3n5Kbk.s:423    .text.memp_free:00000034 $d
     /tmp/cc3n5Kbk.s:429    .rodata.memp_num:00000000 $d
     /tmp/cc3n5Kbk.s:433    .rodata.memp_num:00000000 memp_num
     /tmp/cc3n5Kbk.s:449    .bss.memp_memory:00000000 $d
     /tmp/cc3n5Kbk.s:453    .bss.memp_memory:00000000 memp_memory
     /tmp/cc3n5Kbk.s:456    .bss.memp_tab:00000000 $d
     /tmp/cc3n5Kbk.s:460    .bss.memp_tab:00000000 memp_tab
     /tmp/cc3n5Kbk.s:463    .rodata.memp_sizes:00000000 $d
     /tmp/cc3n5Kbk.s:467    .rodata.memp_sizes:00000000 memp_sizes
                     .debug_frame:00000010 $d
     /tmp/cc3n5Kbk.s:267    .text.memp_init:0000017c $t
     /tmp/cc3n5Kbk.s:428    .text.memp_free:0000003c $t

UNDEFINED SYMBOLS
lwip_stats
port_halt
