ARM GAS  /tmp/cc3n5Kbk.s 			page 1


   1              		.syntax unified
   2              		.cpu cortex-m4
   3              		.fpu softvfp
   4              		.eabi_attribute 20, 1
   5              		.eabi_attribute 21, 1
   6              		.eabi_attribute 23, 3
   7              		.eabi_attribute 24, 1
   8              		.eabi_attribute 25, 1
   9              		.eabi_attribute 26, 1
  10              		.eabi_attribute 30, 2
  11              		.eabi_attribute 34, 1
  12              		.eabi_attribute 18, 4
  13              		.thumb
  14              		.file	"memp.c"
  15              		.text
  16              	.Ltext0:
  17              		.cfi_sections	.debug_frame
  18              		.section	.text.memp_init,"ax",%progbits
  19              		.align	2
  20              		.p2align 4,,15
  21              		.global	memp_init
  22              		.thumb
  23              		.thumb_func
  24              		.type	memp_init, %function
  25              	memp_init:
  26              	.LFB7:
  27              		.file 1 "../../ext/lwip/src/core/memp.c"
  28              		.loc 1 339 0
  29              		.cfi_startproc
  30              		@ args = 0, pretend = 0, frame = 0
  31              		@ frame_needed = 0, uses_anonymous_args = 0
  32              		@ link register save eliminated.
  33              	.LVL0:
  34              		.loc 1 344 0
  35 0000 594B     		ldr	r3, .L16
  36              		.loc 1 339 0
  37 0002 2DE9F007 		push	{r4, r5, r6, r7, r8, r9, sl}
  38              	.LCFI0:
  39              		.cfi_def_cfa_offset 28
  40              		.cfi_offset 4, -28
  41              		.cfi_offset 5, -24
  42              		.cfi_offset 6, -20
  43              		.cfi_offset 7, -16
  44              		.cfi_offset 8, -12
  45              		.cfi_offset 9, -8
  46              		.cfi_offset 10, -4
  47              		.loc 1 347 0
  48 0006 0525     		movs	r5, #5
  49 0008 A3F8C650 		strh	r5, [r3, #198]	@ movhi
  50 000c A3F8E450 		strh	r5, [r3, #228]	@ movhi
  51 0010 0F25     		movs	r5, #15
  52 0012 A3F8EE50 		strh	r5, [r3, #238]	@ movhi
  53 0016 0225     		movs	r5, #2
  54              		.loc 1 344 0
  55 0018 0022     		movs	r2, #0
  56              		.loc 1 347 0
  57 001a 0424     		movs	r4, #4
ARM GAS  /tmp/cc3n5Kbk.s 			page 2


  58 001c 0820     		movs	r0, #8
  59 001e 1021     		movs	r1, #16
  60 0020 A3F8F850 		strh	r5, [r3, #248]	@ movhi
  61 0024 514F     		ldr	r7, .L16+4
  62              		.loc 1 351 0
  63 0026 524D     		ldr	r5, .L16+8
  64              		.loc 1 347 0
  65 0028 A3F8B240 		strh	r4, [r3, #178]	@ movhi
  66              	.LVL1:
  67 002c A3F8BC40 		strh	r4, [r3, #188]	@ movhi
  68              	.LVL2:
  69              		.loc 1 344 0
  70 0030 A3F8B420 		strh	r2, [r3, #180]	@ movhi
  71              		.loc 1 345 0
  72 0034 A3F8B620 		strh	r2, [r3, #182]	@ movhi
  73              		.loc 1 346 0
  74 0038 A3F8B820 		strh	r2, [r3, #184]	@ movhi
  75              		.loc 1 344 0
  76 003c A3F8BE20 		strh	r2, [r3, #190]	@ movhi
  77              		.loc 1 345 0
  78 0040 A3F8C020 		strh	r2, [r3, #192]	@ movhi
  79              		.loc 1 346 0
  80 0044 A3F8C220 		strh	r2, [r3, #194]	@ movhi
  81              		.loc 1 344 0
  82 0048 A3F8C820 		strh	r2, [r3, #200]	@ movhi
  83              		.loc 1 345 0
  84 004c A3F8CA20 		strh	r2, [r3, #202]	@ movhi
  85              		.loc 1 346 0
  86 0050 A3F8CC20 		strh	r2, [r3, #204]	@ movhi
  87              		.loc 1 344 0
  88 0054 A3F8D220 		strh	r2, [r3, #210]	@ movhi
  89              		.loc 1 345 0
  90 0058 A3F8D420 		strh	r2, [r3, #212]	@ movhi
  91              		.loc 1 346 0
  92 005c A3F8D620 		strh	r2, [r3, #214]	@ movhi
  93              		.loc 1 347 0
  94 0060 A3F8D000 		strh	r0, [r3, #208]	@ movhi
  95              	.LVL3:
  96              		.loc 1 344 0
  97 0064 A3F8DC20 		strh	r2, [r3, #220]	@ movhi
  98              		.loc 1 345 0
  99 0068 A3F8DE20 		strh	r2, [r3, #222]	@ movhi
 100              		.loc 1 346 0
 101 006c A3F8E020 		strh	r2, [r3, #224]	@ movhi
 102              		.loc 1 347 0
 103 0070 A3F8DA10 		strh	r1, [r3, #218]	@ movhi
 104              	.LVL4:
 105              		.loc 1 344 0
 106 0074 A3F8E620 		strh	r2, [r3, #230]	@ movhi
 107              		.loc 1 345 0
 108 0078 A3F8E820 		strh	r2, [r3, #232]	@ movhi
 109              		.loc 1 346 0
 110 007c A3F8EA20 		strh	r2, [r3, #234]	@ movhi
 111              		.loc 1 344 0
 112 0080 A3F8F020 		strh	r2, [r3, #240]	@ movhi
 113              		.loc 1 345 0
 114 0084 A3F8F220 		strh	r2, [r3, #242]	@ movhi
ARM GAS  /tmp/cc3n5Kbk.s 			page 3


 115              		.loc 1 346 0
 116 0088 A3F8F420 		strh	r2, [r3, #244]	@ movhi
 117              		.loc 1 344 0
 118 008c A3F8FA20 		strh	r2, [r3, #250]	@ movhi
 119              		.loc 1 345 0
 120 0090 A3F8FC20 		strh	r2, [r3, #252]	@ movhi
 121              		.loc 1 346 0
 122 0094 A3F8FE20 		strh	r2, [r3, #254]	@ movhi
 123 0098 DFF8D890 		ldr	r9, .L16+12
 124              		.loc 1 344 0
 125 009c A3F80421 		strh	r2, [r3, #260]	@ movhi
 126 00a0 DFF8D4A0 		ldr	sl, .L16+16
 127              		.loc 1 347 0
 128 00a4 A3F80241 		strh	r4, [r3, #258]	@ movhi
 129              	.LVL5:
 130 00a8 0324     		movs	r4, #3
 131              		.loc 1 338 0
 132 00aa 1646     		mov	r6, r2
 133              		.loc 1 351 0
 134 00ac 25F00305 		bic	r5, r5, #3
 135              		.loc 1 345 0
 136 00b0 A3F80621 		strh	r2, [r3, #262]	@ movhi
 137              		.loc 1 338 0
 138 00b4 07F13808 		add	r8, r7, #56
 139              		.loc 1 346 0
 140 00b8 A3F80821 		strh	r2, [r3, #264]	@ movhi
 141              		.loc 1 344 0
 142 00bc A3F80E21 		strh	r2, [r3, #270]	@ movhi
 143              		.loc 1 345 0
 144 00c0 A3F81021 		strh	r2, [r3, #272]	@ movhi
 145              		.loc 1 346 0
 146 00c4 A3F81221 		strh	r2, [r3, #274]	@ movhi
 147              		.loc 1 347 0
 148 00c8 A3F80C01 		strh	r0, [r3, #268]	@ movhi
 149              	.LVL6:
 150              		.loc 1 344 0
 151 00cc A3F81821 		strh	r2, [r3, #280]	@ movhi
 152              		.loc 1 345 0
 153 00d0 A3F81A21 		strh	r2, [r3, #282]	@ movhi
 154              		.loc 1 346 0
 155 00d4 A3F81C21 		strh	r2, [r3, #284]	@ movhi
 156              		.loc 1 347 0
 157 00d8 A3F81601 		strh	r0, [r3, #278]	@ movhi
 158              	.LVL7:
 159              		.loc 1 344 0
 160 00dc A3F82221 		strh	r2, [r3, #290]	@ movhi
 161              		.loc 1 345 0
 162 00e0 A3F82421 		strh	r2, [r3, #292]	@ movhi
 163              		.loc 1 346 0
 164 00e4 A3F82621 		strh	r2, [r3, #294]	@ movhi
 165              		.loc 1 347 0
 166 00e8 A3F82041 		strh	r4, [r3, #288]	@ movhi
 167              	.LVL8:
 168              		.loc 1 344 0
 169 00ec A3F82C21 		strh	r2, [r3, #300]	@ movhi
 170              		.loc 1 345 0
 171 00f0 A3F82E21 		strh	r2, [r3, #302]	@ movhi
ARM GAS  /tmp/cc3n5Kbk.s 			page 4


 172              		.loc 1 346 0
 173 00f4 A3F83021 		strh	r2, [r3, #304]	@ movhi
 174              		.loc 1 347 0
 175 00f8 A3F82A11 		strh	r1, [r3, #298]	@ movhi
 176              	.LVL9:
 177              		.loc 1 344 0
 178 00fc A3F83621 		strh	r2, [r3, #310]	@ movhi
 179              		.loc 1 345 0
 180 0100 A3F83821 		strh	r2, [r3, #312]	@ movhi
 181              		.loc 1 346 0
 182 0104 A3F83A21 		strh	r2, [r3, #314]	@ movhi
 183              		.loc 1 347 0
 184 0108 A3F83411 		strh	r1, [r3, #308]	@ movhi
 185              	.LVL10:
 186              		.loc 1 355 0
 187 010c 9446     		mov	ip, r2
 188              	.LVL11:
 189              	.L4:
 190              		.loc 1 360 0
 191 010e 39F80640 		ldrh	r4, [r9, r6]
 192              		.loc 1 355 0
 193 0112 47F804CB 		str	ip, [r7], #4
 194              	.LVL12:
 195              		.loc 1 360 0
 196 0116 04B3     		cbz	r4, .L2
 197 0118 0021     		movs	r1, #0
 198 011a 14F0010F 		tst	r4, #1
 199 011e 36F80A20 		ldrh	r2, [r6, sl]
 200 0122 2B46     		mov	r3, r5
 201 0124 0846     		mov	r0, r1
 202 0126 08D1     		bne	.L3
 203              	.LVL13:
 204              		.loc 1 361 0
 205 0128 2960     		str	r1, [r5, #0]
 206              		.loc 1 360 0
 207 012a 0120     		movs	r0, #1
 208              	.LVL14:
 209 012c 2946     		mov	r1, r5
 210              		.loc 1 363 0
 211 012e AB18     		adds	r3, r5, r2
 212 0130 03E0     		b	.L3
 213              	.LVL15:
 214              	.L5:
 215              		.loc 1 360 0
 216 0132 0130     		adds	r0, r0, #1
 217              		.loc 1 361 0
 218 0134 9B50     		str	r3, [r3, r2]
 219              		.loc 1 360 0
 220 0136 80B2     		uxth	r0, r0
 221              	.LVL16:
 222              		.loc 1 363 0
 223 0138 8B18     		adds	r3, r1, r2
 224              	.LVL17:
 225              	.L3:
 226              		.loc 1 360 0 discriminator 2
 227 013a 0130     		adds	r0, r0, #1
 228 013c 80B2     		uxth	r0, r0
ARM GAS  /tmp/cc3n5Kbk.s 			page 5


 229 013e A042     		cmp	r0, r4
 230              		.loc 1 361 0 discriminator 2
 231 0140 1960     		str	r1, [r3, #0]
 232              		.loc 1 363 0 discriminator 2
 233 0142 03EB0201 		add	r1, r3, r2
 234              	.LVL18:
 235              		.loc 1 360 0 discriminator 2
 236 0146 F4D1     		bne	.L5
 237              		.loc 1 338 0
 238 0148 013C     		subs	r4, r4, #1
 239 014a A4B2     		uxth	r4, r4
 240 014c 02FB0451 		mla	r1, r2, r4, r5
 241              	.LVL19:
 242 0150 04FB0222 		mla	r2, r4, r2, r2
 243              	.LVL20:
 244 0154 47F8041C 		str	r1, [r7, #-4]
 245              		.loc 1 363 0
 246 0158 AD18     		adds	r5, r5, r2
 247              	.LVL21:
 248              	.L2:
 249 015a 0236     		adds	r6, r6, #2
 250              		.loc 1 354 0
 251 015c 4745     		cmp	r7, r8
 252 015e D6D1     		bne	.L4
 253              		.loc 1 375 0
 254 0160 BDE8F007 		pop	{r4, r5, r6, r7, r8, r9, sl}
 255 0164 7047     		bx	lr
 256              	.L17:
 257 0166 00BF     		.align	2
 258              	.L16:
 259 0168 00000000 		.word	lwip_stats
 260 016c 00000000 		.word	.LANCHOR1
 261 0170 03000000 		.word	.LANCHOR0+3
 262 0174 00000000 		.word	.LANCHOR2
 263 0178 00000000 		.word	.LANCHOR3
 264              		.cfi_endproc
 265              	.LFE7:
 266              		.size	memp_init, .-memp_init
 267 017c AFF30080 		.section	.text.memp_malloc,"ax",%progbits
 268              		.align	2
 269              		.p2align 4,,15
 270              		.global	memp_malloc
 271              		.thumb
 272              		.thumb_func
 273              		.type	memp_malloc, %function
 274              	memp_malloc:
 275              	.LFB8:
 276              		.loc 1 394 0
 277              		.cfi_startproc
 278              		@ args = 0, pretend = 0, frame = 0
 279              		@ frame_needed = 0, uses_anonymous_args = 0
 280              	.LVL22:
 281              		.loc 1 398 0
 282 0000 0D28     		cmp	r0, #13
 283              		.loc 1 394 0
 284 0002 38B5     		push	{r3, r4, r5, lr}
 285              	.LCFI1:
ARM GAS  /tmp/cc3n5Kbk.s 			page 6


 286              		.cfi_def_cfa_offset 16
 287              		.cfi_offset 3, -16
 288              		.cfi_offset 4, -12
 289              		.cfi_offset 5, -8
 290              		.cfi_offset 14, -4
 291              		.loc 1 398 0
 292 0004 2BD8     		bhi	.L26
 293              		.loc 1 405 0
 294 0006 184A     		ldr	r2, .L28
 295 0008 52F82040 		ldr	r4, [r2, r0, lsl #2]
 296              	.LVL23:
 297              		.loc 1 407 0
 298 000c DCB1     		cbz	r4, .L21
 299              		.loc 1 414 0
 300 000e 174B     		ldr	r3, .L28+4
 301              		.loc 1 408 0
 302 0010 2168     		ldr	r1, [r4, #0]
 303              		.loc 1 414 0
 304 0012 00EB8005 		add	r5, r0, r0, lsl #2
 305 0016 03EB4503 		add	r3, r3, r5, lsl #1
 306              		.loc 1 408 0
 307 001a 42F82010 		str	r1, [r2, r0, lsl #2]
 308              		.loc 1 414 0
 309 001e B3F8B420 		ldrh	r2, [r3, #180]
 310 0022 B3F8B600 		ldrh	r0, [r3, #182]
 311              	.LVL24:
 312 0026 511C     		adds	r1, r2, #1
 313 0028 8AB2     		uxth	r2, r1
 314 002a 9042     		cmp	r0, r2
 315 002c A3F8B420 		strh	r2, [r3, #180]	@ movhi
 316 0030 38BF     		it	cc
 317 0032 A3F8B620 		strhcc	r2, [r3, #182]	@ movhi
 318              		.loc 1 415 0
 319 0036 A307     		lsls	r3, r4, #30
 320 0038 01D1     		bne	.L27
 321              	.LVL25:
 322              	.L20:
 323              		.loc 1 426 0
 324 003a 2046     		mov	r0, r4
 325 003c 38BD     		pop	{r3, r4, r5, pc}
 326              	.LVL26:
 327              	.L27:
 328              		.loc 1 415 0 discriminator 1
 329 003e FFF7FEFF 		bl	port_halt
 330              	.LVL27:
 331              		.loc 1 426 0 discriminator 1
 332 0042 2046     		mov	r0, r4
 333 0044 38BD     		pop	{r3, r4, r5, pc}
 334              	.LVL28:
 335              	.L21:
 336              		.loc 1 420 0
 337 0046 094B     		ldr	r3, .L28+4
 338 0048 00EB8000 		add	r0, r0, r0, lsl #2
 339              	.LVL29:
 340 004c 03EB4001 		add	r1, r3, r0, lsl #1
 341 0050 B1F8B820 		ldrh	r2, [r1, #184]
 342 0054 501C     		adds	r0, r2, #1
ARM GAS  /tmp/cc3n5Kbk.s 			page 7


 343 0056 A1F8B800 		strh	r0, [r1, #184]	@ movhi
 344              		.loc 1 426 0
 345 005a 2046     		mov	r0, r4
 346 005c 38BD     		pop	{r3, r4, r5, pc}
 347              	.LVL30:
 348              	.L26:
 349              		.loc 1 398 0 discriminator 1
 350 005e FFF7FEFF 		bl	port_halt
 351              	.LVL31:
 352 0062 0024     		movs	r4, #0
 353 0064 E9E7     		b	.L20
 354              	.L29:
 355 0066 00BF     		.align	2
 356              	.L28:
 357 0068 00000000 		.word	.LANCHOR1
 358 006c 00000000 		.word	lwip_stats
 359              		.cfi_endproc
 360              	.LFE8:
 361              		.size	memp_malloc, .-memp_malloc
 362              		.section	.text.memp_free,"ax",%progbits
 363              		.align	2
 364              		.p2align 4,,15
 365              		.global	memp_free
 366              		.thumb
 367              		.thumb_func
 368              		.type	memp_free, %function
 369              	memp_free:
 370              	.LFB9:
 371              		.loc 1 436 0
 372              		.cfi_startproc
 373              		@ args = 0, pretend = 0, frame = 0
 374              		@ frame_needed = 0, uses_anonymous_args = 0
 375              	.LVL32:
 376 0000 38B5     		push	{r3, r4, r5, lr}
 377              	.LCFI2:
 378              		.cfi_def_cfa_offset 16
 379              		.cfi_offset 3, -16
 380              		.cfi_offset 4, -12
 381              		.cfi_offset 5, -8
 382              		.cfi_offset 14, -4
 383              		.loc 1 440 0
 384 0002 0C46     		mov	r4, r1
 385              		.loc 1 436 0
 386 0004 0546     		mov	r5, r0
 387              		.loc 1 440 0
 388 0006 89B1     		cbz	r1, .L30
 389              		.loc 1 443 0
 390 0008 8A07     		lsls	r2, r1, #30
 391 000a 10D1     		bne	.L39
 392              	.LVL33:
 393              	.L32:
 394              		.loc 1 458 0
 395 000c 094A     		ldr	r2, .L40
 396              		.loc 1 460 0
 397 000e 0A4B     		ldr	r3, .L40+4
 398              		.loc 1 458 0
 399 0010 05EB8501 		add	r1, r5, r5, lsl #2
ARM GAS  /tmp/cc3n5Kbk.s 			page 8


 400 0014 02EB4102 		add	r2, r2, r1, lsl #1
 401              		.loc 1 460 0
 402 0018 53F82510 		ldr	r1, [r3, r5, lsl #2]
 403              		.loc 1 458 0
 404 001c B2F8B400 		ldrh	r0, [r2, #180]
 405 0020 0138     		subs	r0, r0, #1
 406 0022 A2F8B400 		strh	r0, [r2, #180]	@ movhi
 407              		.loc 1 460 0
 408 0026 2160     		str	r1, [r4, #0]
 409              		.loc 1 461 0
 410 0028 43F82540 		str	r4, [r3, r5, lsl #2]
 411              	.LVL34:
 412              	.L30:
 413 002c 38BD     		pop	{r3, r4, r5, pc}
 414              	.LVL35:
 415              	.L39:
 416              		.loc 1 443 0 discriminator 1
 417 002e FFF7FEFF 		bl	port_halt
 418              	.LVL36:
 419 0032 EBE7     		b	.L32
 420              	.L41:
 421              		.align	2
 422              	.L40:
 423 0034 00000000 		.word	lwip_stats
 424 0038 00000000 		.word	.LANCHOR1
 425              		.cfi_endproc
 426              	.LFE9:
 427              		.size	memp_free, .-memp_free
 428 003c AFF30080 		.section	.rodata.memp_num,"a",%progbits
 429              		.align	2
 430              		.set	.LANCHOR2,. + 0
 431              		.type	memp_num, %object
 432              		.size	memp_num, 28
 433              	memp_num:
 434 0000 0400     		.short	4
 435 0002 0400     		.short	4
 436 0004 0500     		.short	5
 437 0006 0800     		.short	8
 438 0008 1000     		.short	16
 439 000a 0500     		.short	5
 440 000c 0F00     		.short	15
 441 000e 0200     		.short	2
 442 0010 0400     		.short	4
 443 0012 0800     		.short	8
 444 0014 0800     		.short	8
 445 0016 0300     		.short	3
 446 0018 1000     		.short	16
 447 001a 1000     		.short	16
 448              		.section	.bss.memp_memory,"aw",%nobits
 449              		.align	2
 450              		.set	.LANCHOR0,. + 0
 451              		.type	memp_memory, %object
 452              		.size	memp_memory, 12563
 453              	memp_memory:
 454 0000 00000000 		.space	12563
 454      00000000 
 454      00000000 
ARM GAS  /tmp/cc3n5Kbk.s 			page 9


 454      00000000 
 454      00000000 
 455 3113 00       		.section	.bss.memp_tab,"aw",%nobits
 456              		.align	2
 457              		.set	.LANCHOR1,. + 0
 458              		.type	memp_tab, %object
 459              		.size	memp_tab, 56
 460              	memp_tab:
 461 0000 00000000 		.space	56
 461      00000000 
 461      00000000 
 461      00000000 
 461      00000000 
 462              		.section	.rodata.memp_sizes,"a",%progbits
 463              		.align	2
 464              		.set	.LANCHOR3,. + 0
 465              		.type	memp_sizes, %object
 466              		.size	memp_sizes, 28
 467              	memp_sizes:
 468 0000 1C00     		.short	28
 469 0002 2000     		.short	32
 470 0004 9800     		.short	152
 471 0006 1C00     		.short	28
 472 0008 1000     		.short	16
 473 000a 2000     		.short	32
 474 000c 1800     		.short	24
 475 000e 1000     		.short	16
 476 0010 2C00     		.short	44
 477 0012 1400     		.short	20
 478 0014 1400     		.short	20
 479 0016 1000     		.short	16
 480 0018 1000     		.short	16
 481 001a 6002     		.short	608
 482              		.text
 483              	.Letext0:
 484              		.file 2 "/usr/bin/../lib/gcc/arm-none-eabi/4.7.4/../../../../arm-none-eabi/include/stdint.h"
 485              		.file 3 "../../os/various/lwip_bindings/arch/cc.h"
 486              		.file 4 "../../ext/lwip/src/include/lwip/memp.h"
 487              		.file 5 "../../ext/lwip/src/include/lwip/mem.h"
 488              		.file 6 "../../ext/lwip/src/include/lwip/stats.h"
 489              		.file 7 "../../os/ports/GCC/ARMCMx/chcore_v7m.h"