ARM GAS  /tmp/ccHwIlCP.s 			page 1


   1              		.syntax unified
   2              		.cpu cortex-m4
   3              		.fpu softvfp
   4              		.eabi_attribute 20, 1
   5              		.eabi_attribute 21, 1
   6              		.eabi_attribute 23, 3
   7              		.eabi_attribute 24, 1
   8              		.eabi_attribute 25, 1
   9              		.eabi_attribute 26, 1
  10              		.eabi_attribute 30, 2
  11              		.eabi_attribute 34, 1
  12              		.eabi_attribute 18, 4
  13              		.thumb
  14              		.file	"netbuf.c"
  15              		.text
  16              	.Ltext0:
  17              		.cfi_sections	.debug_frame
  18              		.section	.text.netbuf_new,"ax",%progbits
  19              		.align	2
  20              		.p2align 4,,15
  21              		.global	netbuf_new
  22              		.thumb
  23              		.thumb_func
  24              		.type	netbuf_new, %function
  25              	netbuf_new:
  26              	.LFB7:
  27              		.file 1 "../../ext/lwip/src/api/netbuf.c"
  28              		.loc 1 57 0
  29              		.cfi_startproc
  30              		@ args = 0, pretend = 0, frame = 0
  31              		@ frame_needed = 0, uses_anonymous_args = 0
  32 0000 08B5     		push	{r3, lr}
  33              	.LCFI0:
  34              		.cfi_def_cfa_offset 8
  35              		.cfi_offset 3, -8
  36              		.cfi_offset 14, -4
  37              		.loc 1 60 0
  38 0002 0720     		movs	r0, #7
  39 0004 FFF7FEFF 		bl	memp_malloc
  40              	.LVL0:
  41              		.loc 1 61 0
  42 0008 20B1     		cbz	r0, .L2
  43              		.loc 1 62 0
  44 000a 0023     		movs	r3, #0
  45 000c 0360     		str	r3, [r0, #0]
  46              		.loc 1 63 0
  47 000e 4360     		str	r3, [r0, #4]
  48              		.loc 1 64 0
  49 0010 8360     		str	r3, [r0, #8]
  50              		.loc 1 65 0
  51 0012 8381     		strh	r3, [r0, #12]	@ movhi
  52              	.L2:
  53              		.loc 1 79 0
  54 0014 08BD     		pop	{r3, pc}
  55              		.cfi_endproc
  56              	.LFE7:
  57              		.size	netbuf_new, .-netbuf_new
ARM GAS  /tmp/ccHwIlCP.s 			page 2


  58 0016 00BFAFF3 		.section	.text.netbuf_delete,"ax",%progbits
  58      0080AFF3 
  58      0080
  59              		.align	2
  60              		.p2align 4,,15
  61              		.global	netbuf_delete
  62              		.thumb
  63              		.thumb_func
  64              		.type	netbuf_delete, %function
  65              	netbuf_delete:
  66              	.LFB8:
  67              		.loc 1 88 0
  68              		.cfi_startproc
  69              		@ args = 0, pretend = 0, frame = 0
  70              		@ frame_needed = 0, uses_anonymous_args = 0
  71              	.LVL1:
  72 0000 10B5     		push	{r4, lr}
  73              	.LCFI1:
  74              		.cfi_def_cfa_offset 8
  75              		.cfi_offset 4, -8
  76              		.cfi_offset 14, -4
  77              		.loc 1 89 0
  78 0002 0446     		mov	r4, r0
  79 0004 60B1     		cbz	r0, .L7
  80              		.loc 1 90 0
  81 0006 0068     		ldr	r0, [r0, #0]
  82              	.LVL2:
  83 0008 20B1     		cbz	r0, .L9
  84              		.loc 1 91 0
  85 000a FFF7FEFF 		bl	pbuf_free
  86              	.LVL3:
  87              		.loc 1 92 0
  88 000e 0023     		movs	r3, #0
  89 0010 6360     		str	r3, [r4, #4]
  90 0012 2360     		str	r3, [r4, #0]
  91              	.L9:
  92              		.loc 1 94 0
  93 0014 0720     		movs	r0, #7
  94 0016 2146     		mov	r1, r4
  95              		.loc 1 96 0
  96 0018 BDE81040 		pop	{r4, lr}
  97              		.loc 1 94 0
  98 001c FFF7FEBF 		b	memp_free
  99              	.LVL4:
 100              	.L7:
 101 0020 10BD     		pop	{r4, pc}
 102              		.cfi_endproc
 103              	.LFE8:
 104              		.size	netbuf_delete, .-netbuf_delete
 105 0022 00BFAFF3 		.section	.text.netbuf_alloc,"ax",%progbits
 105      0080AFF3 
 105      0080AFF3 
 105      0080
 106              		.align	2
 107              		.p2align 4,,15
 108              		.global	netbuf_alloc
 109              		.thumb
ARM GAS  /tmp/ccHwIlCP.s 			page 3


 110              		.thumb_func
 111              		.type	netbuf_alloc, %function
 112              	netbuf_alloc:
 113              	.LFB9:
 114              		.loc 1 108 0
 115              		.cfi_startproc
 116              		@ args = 0, pretend = 0, frame = 0
 117              		@ frame_needed = 0, uses_anonymous_args = 0
 118              	.LVL5:
 119 0000 38B5     		push	{r3, r4, r5, lr}
 120              	.LCFI2:
 121              		.cfi_def_cfa_offset 16
 122              		.cfi_offset 3, -16
 123              		.cfi_offset 4, -12
 124              		.cfi_offset 5, -8
 125              		.cfi_offset 14, -4
 126              		.loc 1 109 0
 127 0002 0446     		mov	r4, r0
 128              		.loc 1 108 0
 129 0004 0D46     		mov	r5, r1
 130              		.loc 1 109 0
 131 0006 A0B1     		cbz	r0, .L22
 132              		.loc 1 112 0
 133 0008 0068     		ldr	r0, [r0, #0]
 134              	.LVL6:
 135 000a 08B1     		cbz	r0, .L16
 136              		.loc 1 113 0
 137 000c FFF7FEFF 		bl	pbuf_free
 138              	.LVL7:
 139              	.L16:
 140              		.loc 1 115 0
 141 0010 0020     		movs	r0, #0
 142 0012 2946     		mov	r1, r5
 143 0014 0246     		mov	r2, r0
 144 0016 FFF7FEFF 		bl	pbuf_alloc
 145              	.LVL8:
 146 001a 2060     		str	r0, [r4, #0]
 147              		.loc 1 116 0
 148 001c 20B1     		cbz	r0, .L15
 149              		.loc 1 119 0
 150 001e 4289     		ldrh	r2, [r0, #10]
 151 0020 AA42     		cmp	r2, r5
 152 0022 02D3     		bcc	.L23
 153              	.L17:
 154              		.loc 1 121 0
 155 0024 6060     		str	r0, [r4, #4]
 156              		.loc 1 122 0
 157 0026 4068     		ldr	r0, [r0, #4]
 158              	.L15:
 159              		.loc 1 123 0
 160 0028 38BD     		pop	{r3, r4, r5, pc}
 161              	.L23:
 162              		.loc 1 119 0 discriminator 1
 163 002a FFF7FEFF 		bl	port_halt
 164              	.LVL9:
 165 002e 2068     		ldr	r0, [r4, #0]
 166 0030 F8E7     		b	.L17
ARM GAS  /tmp/ccHwIlCP.s 			page 4


 167              	.LVL10:
 168              	.L22:
 169              		.loc 1 109 0 discriminator 1
 170 0032 FFF7FEFF 		bl	port_halt
 171              	.LVL11:
 172 0036 2046     		mov	r0, r4
 173 0038 38BD     		pop	{r3, r4, r5, pc}
 174              		.cfi_endproc
 175              	.LFE9:
 176              		.size	netbuf_alloc, .-netbuf_alloc
 177 003a 00BFAFF3 		.section	.text.netbuf_free,"ax",%progbits
 177      0080
 178              		.align	2
 179              		.p2align 4,,15
 180              		.global	netbuf_free
 181              		.thumb
 182              		.thumb_func
 183              		.type	netbuf_free, %function
 184              	netbuf_free:
 185              	.LFB10:
 186              		.loc 1 132 0
 187              		.cfi_startproc
 188              		@ args = 0, pretend = 0, frame = 0
 189              		@ frame_needed = 0, uses_anonymous_args = 0
 190              	.LVL12:
 191 0000 10B5     		push	{r4, lr}
 192              	.LCFI3:
 193              		.cfi_def_cfa_offset 8
 194              		.cfi_offset 4, -8
 195              		.cfi_offset 14, -4
 196              		.loc 1 133 0
 197 0002 0446     		mov	r4, r0
 198 0004 38B1     		cbz	r0, .L30
 199              		.loc 1 134 0
 200 0006 0068     		ldr	r0, [r0, #0]
 201              	.LVL13:
 202 0008 08B1     		cbz	r0, .L26
 203              		.loc 1 135 0
 204 000a FFF7FEFF 		bl	pbuf_free
 205              	.LVL14:
 206              	.L26:
 207              		.loc 1 137 0
 208 000e 0023     		movs	r3, #0
 209 0010 6360     		str	r3, [r4, #4]
 210 0012 2360     		str	r3, [r4, #0]
 211 0014 10BD     		pop	{r4, pc}
 212              	.LVL15:
 213              	.L30:
 214              		.loc 1 138 0 discriminator 1
 215 0016 BDE81040 		pop	{r4, lr}
 216              		.loc 1 133 0 discriminator 1
 217 001a FFF7FEBF 		b	port_halt
 218              	.LVL16:
 219              		.cfi_endproc
 220              	.LFE10:
 221              		.size	netbuf_free, .-netbuf_free
 222 001e 00BF     		.section	.text.netbuf_ref,"ax",%progbits
ARM GAS  /tmp/ccHwIlCP.s 			page 5


 223              		.align	2
 224              		.p2align 4,,15
 225              		.global	netbuf_ref
 226              		.thumb
 227              		.thumb_func
 228              		.type	netbuf_ref, %function
 229              	netbuf_ref:
 230              	.LFB11:
 231              		.loc 1 151 0
 232              		.cfi_startproc
 233              		@ args = 0, pretend = 0, frame = 0
 234              		@ frame_needed = 0, uses_anonymous_args = 0
 235              	.LVL17:
 236 0000 70B5     		push	{r4, r5, r6, lr}
 237              	.LCFI4:
 238              		.cfi_def_cfa_offset 16
 239              		.cfi_offset 4, -16
 240              		.cfi_offset 5, -12
 241              		.cfi_offset 6, -8
 242              		.cfi_offset 14, -4
 243              		.loc 1 152 0
 244 0002 0446     		mov	r4, r0
 245              		.loc 1 151 0
 246 0004 0E46     		mov	r6, r1
 247 0006 1546     		mov	r5, r2
 248              		.loc 1 152 0
 249 0008 A8B1     		cbz	r0, .L39
 250              		.loc 1 153 0
 251 000a 0068     		ldr	r0, [r0, #0]
 252              	.LVL18:
 253 000c 08B1     		cbz	r0, .L34
 254              		.loc 1 154 0
 255 000e FFF7FEFF 		bl	pbuf_free
 256              	.LVL19:
 257              	.L34:
 258              		.loc 1 156 0
 259 0012 0020     		movs	r0, #0
 260 0014 0146     		mov	r1, r0
 261 0016 0222     		movs	r2, #2
 262 0018 FFF7FEFF 		bl	pbuf_alloc
 263              	.LVL20:
 264 001c 0346     		mov	r3, r0
 265 001e 2060     		str	r0, [r4, #0]
 266              		.loc 1 157 0
 267 0020 30B1     		cbz	r0, .L40
 268              		.loc 1 161 0
 269 0022 4660     		str	r6, [r0, #4]
 270              		.loc 1 162 0
 271 0024 0581     		strh	r5, [r0, #8]	@ movhi
 272 0026 4581     		strh	r5, [r0, #10]	@ movhi
 273              		.loc 1 164 0
 274 0028 0020     		movs	r0, #0
 275              		.loc 1 163 0
 276 002a 6360     		str	r3, [r4, #4]
 277              	.L33:
 278              		.loc 1 165 0
 279 002c 40B2     		sxtb	r0, r0
ARM GAS  /tmp/ccHwIlCP.s 			page 6


 280 002e 70BD     		pop	{r4, r5, r6, pc}
 281              	.L40:
 282              		.loc 1 158 0
 283 0030 6060     		str	r0, [r4, #4]
 284              		.loc 1 159 0
 285 0032 FF20     		movs	r0, #255
 286 0034 FAE7     		b	.L33
 287              	.LVL21:
 288              	.L39:
 289              		.loc 1 152 0 discriminator 1
 290 0036 FFF7FEFF 		bl	port_halt
 291              	.LVL22:
 292 003a F220     		movs	r0, #242
 293 003c F6E7     		b	.L33
 294              		.cfi_endproc
 295              	.LFE11:
 296              		.size	netbuf_ref, .-netbuf_ref
 297 003e 00BF     		.section	.text.netbuf_chain,"ax",%progbits
 298              		.align	2
 299              		.p2align 4,,15
 300              		.global	netbuf_chain
 301              		.thumb
 302              		.thumb_func
 303              		.type	netbuf_chain, %function
 304              	netbuf_chain:
 305              	.LFB12:
 306              		.loc 1 175 0
 307              		.cfi_startproc
 308              		@ args = 0, pretend = 0, frame = 0
 309              		@ frame_needed = 0, uses_anonymous_args = 0
 310              	.LVL23:
 311 0000 38B5     		push	{r3, r4, r5, lr}
 312              	.LCFI5:
 313              		.cfi_def_cfa_offset 16
 314              		.cfi_offset 3, -16
 315              		.cfi_offset 4, -12
 316              		.cfi_offset 5, -8
 317              		.cfi_offset 14, -4
 318              		.loc 1 176 0
 319 0002 0446     		mov	r4, r0
 320              		.loc 1 175 0
 321 0004 0D46     		mov	r5, r1
 322              		.loc 1 176 0
 323 0006 60B1     		cbz	r0, .L43
 324              		.loc 1 177 0
 325 0008 59B1     		cbz	r1, .L43
 326              		.loc 1 178 0
 327 000a 0068     		ldr	r0, [r0, #0]
 328              	.LVL24:
 329 000c 0968     		ldr	r1, [r1, #0]
 330              	.LVL25:
 331 000e FFF7FEFF 		bl	pbuf_cat
 332              	.LVL26:
 333              		.loc 1 179 0
 334 0012 2368     		ldr	r3, [r4, #0]
 335              		.loc 1 180 0
 336 0014 0720     		movs	r0, #7
ARM GAS  /tmp/ccHwIlCP.s 			page 7


 337 0016 2946     		mov	r1, r5
 338              		.loc 1 179 0
 339 0018 6360     		str	r3, [r4, #4]
 340              		.loc 1 181 0
 341 001a BDE83840 		pop	{r3, r4, r5, lr}
 342              		.loc 1 180 0
 343 001e FFF7FEBF 		b	memp_free
 344              	.LVL27:
 345              	.L43:
 346              		.loc 1 181 0 discriminator 1
 347 0022 BDE83840 		pop	{r3, r4, r5, lr}
 348              		.loc 1 176 0 discriminator 1
 349 0026 FFF7FEBF 		b	port_halt
 350              	.LVL28:
 351              		.cfi_endproc
 352              	.LFE12:
 353              		.size	netbuf_chain, .-netbuf_chain
 354 002a 00BFAFF3 		.section	.text.netbuf_data,"ax",%progbits
 354      0080
 355              		.align	2
 356              		.p2align 4,,15
 357              		.global	netbuf_data
 358              		.thumb
 359              		.thumb_func
 360              		.type	netbuf_data, %function
 361              	netbuf_data:
 362              	.LFB13:
 363              		.loc 1 194 0
 364              		.cfi_startproc
 365              		@ args = 0, pretend = 0, frame = 0
 366              		@ frame_needed = 0, uses_anonymous_args = 0
 367              	.LVL29:
 368 0000 08B5     		push	{r3, lr}
 369              	.LCFI6:
 370              		.cfi_def_cfa_offset 8
 371              		.cfi_offset 3, -8
 372              		.cfi_offset 14, -4
 373              		.loc 1 195 0
 374 0002 58B1     		cbz	r0, .L50
 375              		.loc 1 196 0
 376 0004 51B1     		cbz	r1, .L50
 377              		.loc 1 197 0
 378 0006 4AB1     		cbz	r2, .L50
 379              		.loc 1 199 0
 380 0008 4368     		ldr	r3, [r0, #4]
 381 000a 5BB1     		cbz	r3, .L51
 382              		.loc 1 202 0
 383 000c 5B68     		ldr	r3, [r3, #4]
 384 000e 0B60     		str	r3, [r1, #0]
 385              		.loc 1 203 0
 386 0010 4068     		ldr	r0, [r0, #4]
 387              	.LVL30:
 388 0012 4189     		ldrh	r1, [r0, #10]
 389              	.LVL31:
 390              		.loc 1 204 0
 391 0014 0023     		movs	r3, #0
 392              		.loc 1 203 0
ARM GAS  /tmp/ccHwIlCP.s 			page 8


 393 0016 1180     		strh	r1, [r2, #0]	@ movhi
 394              	.LVL32:
 395              	.L49:
 396              		.loc 1 205 0
 397 0018 58B2     		sxtb	r0, r3
 398 001a 08BD     		pop	{r3, pc}
 399              	.LVL33:
 400              	.L50:
 401              		.loc 1 195 0 discriminator 1
 402 001c FFF7FEFF 		bl	port_halt
 403              	.LVL34:
 404 0020 F223     		movs	r3, #242
 405 0022 F9E7     		b	.L49
 406              	.LVL35:
 407              	.L51:
 408              		.loc 1 200 0
 409 0024 FE23     		movs	r3, #254
 410 0026 F7E7     		b	.L49
 411              		.cfi_endproc
 412              	.LFE13:
 413              		.size	netbuf_data, .-netbuf_data
 414 0028 AFF30080 		.section	.text.netbuf_next,"ax",%progbits
 414      AFF30080 
 415              		.align	2
 416              		.p2align 4,,15
 417              		.global	netbuf_next
 418              		.thumb
 419              		.thumb_func
 420              		.type	netbuf_next, %function
 421              	netbuf_next:
 422              	.LFB14:
 423              		.loc 1 219 0
 424              		.cfi_startproc
 425              		@ args = 0, pretend = 0, frame = 0
 426              		@ frame_needed = 0, uses_anonymous_args = 0
 427              	.LVL36:
 428 0000 08B5     		push	{r3, lr}
 429              	.LCFI7:
 430              		.cfi_def_cfa_offset 8
 431              		.cfi_offset 3, -8
 432              		.cfi_offset 14, -4
 433              		.loc 1 220 0
 434 0002 60B1     		cbz	r0, .L62
 435              		.loc 1 221 0
 436 0004 4368     		ldr	r3, [r0, #4]
 437 0006 1968     		ldr	r1, [r3, #0]
 438 0008 39B1     		cbz	r1, .L61
 439              		.loc 1 225 0
 440 000a 0A68     		ldr	r2, [r1, #0]
 441              		.loc 1 224 0
 442 000c 4160     		str	r1, [r0, #4]
 443              		.loc 1 220 0
 444 000e D2F10100 		rsbs	r0, r2, #1
 445              	.LVL37:
 446 0012 38BF     		it	cc
 447 0014 0020     		movcc	r0, #0
 448              	.L60:
ARM GAS  /tmp/ccHwIlCP.s 			page 9


 449              		.loc 1 229 0
 450 0016 40B2     		sxtb	r0, r0
 451 0018 08BD     		pop	{r3, pc}
 452              	.LVL38:
 453              	.L61:
 454              		.loc 1 222 0
 455 001a FF20     		movs	r0, #255
 456              	.LVL39:
 457 001c FBE7     		b	.L60
 458              	.LVL40:
 459              	.L62:
 460              		.loc 1 220 0 discriminator 1
 461 001e FFF7FEFF 		bl	port_halt
 462              	.LVL41:
 463 0022 FF20     		movs	r0, #255
 464 0024 F7E7     		b	.L60
 465              		.cfi_endproc
 466              	.LFE14:
 467              		.size	netbuf_next, .-netbuf_next
 468 0026 00BFAFF3 		.section	.text.netbuf_first,"ax",%progbits
 468      0080AFF3 
 468      0080
 469              		.align	2
 470              		.p2align 4,,15
 471              		.global	netbuf_first
 472              		.thumb
 473              		.thumb_func
 474              		.type	netbuf_first, %function
 475              	netbuf_first:
 476              	.LFB15:
 477              		.loc 1 240 0
 478              		.cfi_startproc
 479              		@ args = 0, pretend = 0, frame = 0
 480              		@ frame_needed = 0, uses_anonymous_args = 0
 481              		@ link register save eliminated.
 482              	.LVL42:
 483              		.loc 1 241 0
 484 0000 10B1     		cbz	r0, .L65
 485              		.loc 1 242 0
 486 0002 0368     		ldr	r3, [r0, #0]
 487 0004 4360     		str	r3, [r0, #4]
 488 0006 7047     		bx	lr
 489              	.L65:
 490              		.loc 1 243 0 discriminator 1
 491              		.loc 1 241 0 discriminator 1
 492 0008 FFF7FEBF 		b	port_halt
 493              	.LVL43:
 494              		.cfi_endproc
 495              	.LFE15:
 496              		.size	netbuf_first, .-netbuf_first
 497 000c AFF30080 		.text
 498              	.Letext0:
 499              		.file 2 "/usr/bin/../lib/gcc/arm-none-eabi/4.7.4/../../../../arm-none-eabi/include/stdint.h"
 500              		.file 3 "../../os/various/lwip_bindings/arch/cc.h"
 501              		.file 4 "../../ext/lwip/src/include/lwip/err.h"
 502              		.file 5 "../../ext/lwip/src/include/lwip/pbuf.h"
 503              		.file 6 "../../ext/lwip/src/include/ipv4/lwip/ip_addr.h"
ARM GAS  /tmp/ccHwIlCP.s 			page 10


 504              		.file 7 "../../ext/lwip/src/include/lwip/netbuf.h"
 505              		.file 8 "../../ext/lwip/src/include/lwip/memp.h"
 506              		.file 9 "../../os/ports/GCC/ARMCMx/chcore_v7m.h"