ARM GAS  /tmp/ccHwIlCP.s 			page 1


   1              		.syntax unified
   2              		.cpu cortex-m4
   3              		.fpu softvfp
   4              		.eabi_attribute 20, 1
   5              		.eabi_attribute 21, 1
   6              		.eabi_attribute 23, 3
   7              		.eabi_attribute 24, 1
   8              		.eabi_attribute 25, 1
   9              		.eabi_attribute 26, 1
  10              		.eabi_attribute 30, 2
  11              		.eabi_attribute 34, 1
  12              		.eabi_attribute 18, 4
  13              		.thumb
  14              		.file	"netbuf.c"
  15              		.text
  16              	.Ltext0:
  17              		.cfi_sections	.debug_frame
  18              		.section	.text.netbuf_new,"ax",%progbits
  19              		.align	2
  20              		.p2align 4,,15
  21              		.global	netbuf_new
  22              		.thumb
  23              		.thumb_func
  24              		.type	netbuf_new, %function
  25              	netbuf_new:
  26              	.LFB7:
  27              		.file 1 "../../ext/lwip/src/api/netbuf.c"
  28              		.loc 1 57 0
  29              		.cfi_startproc
  30              		@ args = 0, pretend = 0, frame = 0
  31              		@ frame_needed = 0, uses_anonymous_args = 0
  32 0000 08B5     		push	{r3, lr}
  33              	.LCFI0:
  34              		.cfi_def_cfa_offset 8
  35              		.cfi_offset 3, -8
  36              		.cfi_offset 14, -4
  37              		.loc 1 60 0
  38 0002 0720     		movs	r0, #7
  39 0004 FFF7FEFF 		bl	memp_malloc
  40              	.LVL0:
  41              		.loc 1 61 0
  42 0008 20B1     		cbz	r0, .L2
  43              		.loc 1 62 0
  44 000a 0023     		movs	r3, #0
  45 000c 0360     		str	r3, [r0, #0]
  46              		.loc 1 63 0
  47 000e 4360     		str	r3, [r0, #4]
  48              		.loc 1 64 0
  49 0010 8360     		str	r3, [r0, #8]
  50              		.loc 1 65 0
  51 0012 8381     		strh	r3, [r0, #12]	@ movhi
  52              	.L2:
  53              		.loc 1 79 0
  54 0014 08BD     		pop	{r3, pc}
  55              		.cfi_endproc
  56              	.LFE7:
  57              		.size	netbuf_new, .-netbuf_new
ARM GAS  /tmp/ccHwIlCP.s 			page 2


  58 0016 00BFAFF3 		.section	.text.netbuf_delete,"ax",%progbits
  58      0080AFF3 
  58      0080
  59              		.align	2
  60              		.p2align 4,,15
  61              		.global	netbuf_delete
  62              		.thumb
  63              		.thumb_func
  64              		.type	netbuf_delete, %function
  65              	netbuf_delete:
  66              	.LFB8:
  67              		.loc 1 88 0
  68              		.cfi_startproc
  69              		@ args = 0, pretend = 0, frame = 0
  70              		@ frame_needed = 0, uses_anonymous_args = 0
  71              	.LVL1:
  72 0000 10B5     		push	{r4, lr}
  73              	.LCFI1:
  74              		.cfi_def_cfa_offset 8
  75              		.cfi_offset 4, -8
  76              		.cfi_offset 14, -4
  77              		.loc 1 89 0
  78 0002 0446     		mov	r4, r0
  79 0004 60B1     		cbz	r0, .L7
  80              		.loc 1 90 0
  81 0006 0068     		ldr	r0, [r0, #0]
  82              	.LVL2:
  83 0008 20B1     		cbz	r0, .L9
  84              		.loc 1 91 0
  85 000a FFF7FEFF 		bl	pbuf_free
  86              	.LVL3:
  87              		.loc 1 92 0
  88 000e 0023     		movs	r3, #0
  89 0010 6360     		str	r3, [r4, #4]
  90 0012 2360     		str	r3, [r4, #0]
  91              	.L9:
  92              		.loc 1 94 0
  93 0014 0720     		movs	r0, #7
  94 0016 2146     		mov	r1, r4
  95              		.loc 1 96 0
  96 0018 BDE81040 		pop	{r4, lr}
  97              		.loc 1 94 0
  98 001c FFF7FEBF 		b	memp_free
  99              	.LVL4:
 100              	.L7:
 101 0020 10BD     		pop	{r4, pc}
 102              		.cfi_endproc
 103              	.LFE8:
 104              		.size	netbuf_delete, .-netbuf_delete
 105 0022 00BFAFF3 		.section	.text.netbuf_alloc,"ax",%progbits
 105      0080AFF3 
 105      0080AFF3 
 105      0080
 106              		.align	2
 107              		.p2align 4,,15
 108              		.global	netbuf_alloc
 109              		.thumb
ARM GAS  /tmp/ccHwIlCP.s 			page 3


 110              		.thumb_func
 111              		.type	netbuf_alloc, %function
 112              	netbuf_alloc:
 113              	.LFB9:
 114              		.loc 1 108 0
 115              		.cfi_startproc
 116              		@ args = 0, pretend = 0, frame = 0
 117              		@ frame_needed = 0, uses_anonymous_args = 0
 118              	.LVL5:
 119 0000 38B5     		push	{r3, r4, r5, lr}
 120              	.LCFI2:
 121              		.cfi_def_cfa_offset 16
 122              		.cfi_offset 3, -16
 123              		.cfi_offset 4, -12
 124              		.cfi_offset 5, -8
 125              		.cfi_offset 14, -4
 126              		.loc 1 109 0
 127 0002 0446     		mov	r4, r0
 128              		.loc 1 108 0
 129 0004 0D46     		mov	r5, r1
 130              		.loc 1 109 0
 131 0006 A0B1     		cbz	r0, .L22
 132              		.loc 1 112 0
 133 0008 0068     		ldr	r0, [r0, #0]
 134              	.LVL6:
 135 000a 08B1     		cbz	r0, .L16
 136              		.loc 1 113 0
 137 000c FFF7FEFF 		bl	pbuf_free
 138              	.LVL7:
 139              	.L16:
 140              		.loc 1 115 0
 141 0010 0020     		movs	r0, #0
 142 0012 2946     		mov	r1, r5
 143 0014 0246     		mov	r2, r0
 144 0016 FFF7FEFF 		bl	pbuf_alloc
 145              	.LVL8:
 146 001a 2060     		str	r0, [r4, #0]
 147              		.loc 1 116 0
 148 001c 20B1     		cbz	r0, .L15
 149              		.loc 1 119 0
 150 001e 4289     		ldrh	r2, [r0, #10]
 151 0020 AA42     		cmp	r2, r5
 152 0022 02D3     		bcc	.L23
 153              	.L17:
 154              		.loc 1 121 0
 155 0024 6060     		str	r0, [r4, #4]
 156              		.loc 1 122 0
 157 0026 4068     		ldr	r0, [r0, #4]
 158              	.L15:
 159              		.loc 1 123 0
 160 0028 38BD     		pop	{r3, r4, r5, pc}
 161              	.L23:
 162              		.loc 1 119 0 discriminator 1
 163 002a FFF7FEFF 		bl	port_halt
 164              	.LVL9:
 165 002e 2068     		ldr	r0, [r4, #0]
 166 0030 F8E7     		b	.L17
ARM GAS  /tmp/ccHwIlCP.s 			page 4


 167              	.LVL10:
 168              	.L22:
 169              		.loc 1 109 0 discriminator 1
 170 0032 FFF7FEFF 		bl	port_halt
 171              	.LVL11:
 172 0036 2046     		mov	r0, r4
 173 0038 38BD     		pop	{r3, r4, r5, pc}
 174              		.cfi_endproc
 175              	.LFE9:
 176              		.size	netbuf_alloc, .-netbuf_alloc
 177 003a 00BFAFF3 		.section	.text.netbuf_free,"ax",%progbits
 177      0080
 178              		.align	2
 179              		.p2align 4,,15
 180              		.global	netbuf_free
 181              		.thumb
 182              		.thumb_func
 183              		.type	netbuf_free, %function
 184              	netbuf_free:
 185              	.LFB10:
 186              		.loc 1 132 0
 187              		.cfi_startproc
 188              		@ args = 0, pretend = 0, frame = 0
 189              		@ frame_needed = 0, uses_anonymous_args = 0
 190              	.LVL12:
 191 0000 10B5     		push	{r4, lr}
 192              	.LCFI3:
 193              		.cfi_def_cfa_offset 8
 194              		.cfi_offset 4, -8
 195              		.cfi_offset 14, -4
 196              		.loc 1 133 0
 197 0002 0446     		mov	r4, r0
 198 0004 38B1     		cbz	r0, .L30
 199              		.loc 1 134 0
 200 0006 0068     		ldr	r0, [r0, #0]
 201              	.LVL13:
 202 0008 08B1     		cbz	r0, .L26
 203              		.loc 1 135 0
 204 000a FFF7FEFF 		bl	pbuf_free
 205              	.LVL14:
 206              	.L26:
 207              		.loc 1 137 0
 208 000e 0023     		movs	r3, #0
 209 0010 6360     		str	r3, [r4, #4]
 210 0012 2360     		str	r3, [r4, #0]
 211 0014 10BD     		pop	{r4, pc}
 212              	.LVL15:
 213              	.L30:
 214              		.loc 1 138 0 discriminator 1
 215 0016 BDE81040 		pop	{r4, lr}
 216              		.loc 1 133 0 discriminator 1
 217 001a FFF7FEBF 		b	port_halt
 218              	.LVL16:
 219              		.cfi_endproc
 220              	.LFE10:
 221              		.size	netbuf_free, .-netbuf_free
 222 001e 00BF     		.section	.text.netbuf_ref,"ax",%progbits
ARM GAS  /tmp/ccHwIlCP.s 			page 5


 223              		.align	2
 224              		.p2align 4,,15
 225              		.global	netbuf_ref
 226              		.thumb
 227              		.thumb_func
 228              		.type	netbuf_ref, %function
 229              	netbuf_ref:
 230              	.LFB11:
 231              		.loc 1 151 0
 232              		.cfi_startproc
 233              		@ args = 0, pretend = 0, frame = 0
 234              		@ frame_needed = 0, uses_anonymous_args = 0
 235              	.LVL17:
 236 0000 70B5     		push	{r4, r5, r6, lr}
 237              	.LCFI4:
 238              		.cfi_def_cfa_offset 16
 239              		.cfi_offset 4, -16
 240              		.cfi_offset 5, -12
 241              		.cfi_offset 6, -8
 242              		.cfi_offset 14, -4
 243              		.loc 1 152 0
 244 0002 0446     		mov	r4, r0
 245              		.loc 1 151 0
 246 0004 0E46     		mov	r6, r1
 247 0006 1546     		mov	r5, r2
 248              		.loc 1 152 0
 249 0008 A8B1     		cbz	r0, .L39
 250              		.loc 1 153 0
 251 000a 0068     		ldr	r0, [r0, #0]
 252              	.LVL18:
 253 000c 08B1     		cbz	r0, .L34
 254              		.loc 1 154 0
 255 000e FFF7FEFF 		bl	pbuf_free
 256              	.LVL19:
 257              	.L34:
 258              		.loc 1 156 0
 259 0012 0020     		movs	r0, #0
 260 0014 0146     		mov	r1, r0
 261 0016 0222     		movs	r2, #2
 262 0018 FFF7FEFF 		bl	pbuf_alloc
 263              	.LVL20:
 264 001c 0346     		mov	r3, r0
 265 001e 2060     		str	r0, [r4, #0]
 266              		.loc 1 157 0
 267 0020 30B1     		cbz	r0, .L40
 268              		.loc 1 161 0
 269 0022 4660     		str	r6, [r0, #4]
 270              		.loc 1 162 0
 271 0024 0581     		strh	r5, [r0, #8]	@ movhi
 272 0026 4581     		strh	r5, [r0, #10]	@ movhi
 273              		.loc 1 164 0
 274 0028 0020     		movs	r0, #0
 275              		.loc 1 163 0
 276 002a 6360     		str	r3, [r4, #4]
 277              	.L33:
 278              		.loc 1 165 0
 279 002c 40B2     		sxtb	r0, r0
ARM GAS  /tmp/ccHwIlCP.s 			page 6


 280 002e 70BD     		pop	{r4, r5, r6, pc}
 281              	.L40:
 282              		.loc 1 158 0
 283 0030 6060     		str	r0, [r4, #4]
 284              		.loc 1 159 0
 285 0032 FF20     		movs	r0, #255
 286 0034 FAE7     		b	.L33
 287              	.LVL21:
 288              	.L39:
 289              		.loc 1 152 0 discriminator 1
 290 0036 FFF7FEFF 		bl	port_halt
 291              	.LVL22:
 292 003a F220     		movs	r0, #242
 293 003c F6E7     		b	.L33
 294              		.cfi_endproc
 295              	.LFE11:
 296              		.size	netbuf_ref, .-netbuf_ref
 297 003e 00BF     		.section	.text.netbuf_chain,"ax",%progbits
 298              		.align	2
 299              		.p2align 4,,15
 300              		.global	netbuf_chain
 301              		.thumb
 302              		.thumb_func
 303              		.type	netbuf_chain, %function
 304              	netbuf_chain:
 305              	.LFB12:
 306              		.loc 1 175 0
 307              		.cfi_startproc
 308              		@ args = 0, pretend = 0, frame = 0
 309              		@ frame_needed = 0, uses_anonymous_args = 0
 310              	.LVL23:
 311 0000 38B5     		push	{r3, r4, r5, lr}
 312              	.LCFI5:
 313              		.cfi_def_cfa_offset 16
 314              		.cfi_offset 3, -16
 315              		.cfi_offset 4, -12
 316              		.cfi_offset 5, -8
 317              		.cfi_offset 14, -4
 318              		.loc 1 176 0
 319 0002 0446     		mov	r4, r0
 320              		.loc 1 175 0
 321 0004 0D46     		mov	r5, r1
 322              		.loc 1 176 0
 323 0006 60B1     		cbz	r0, .L43
 324              		.loc 1 177 0
 325 0008 59B1     		cbz	r1, .L43
 326              		.loc 1 178 0
 327 000a 0068     		ldr	r0, [r0, #0]
 328              	.LVL24:
 329 000c 0968     		ldr	r1, [r1, #0]
 330              	.LVL25:
 331 000e FFF7FEFF 		bl	pbuf_cat
 332              	.LVL26:
 333              		.loc 1 179 0
 334 0012 2368     		ldr	r3, [r4, #0]
 335              		.loc 1 180 0
 336 0014 0720     		movs	r0, #7
ARM GAS  /tmp/ccHwIlCP.s 			page 7


 337 0016 2946     		mov	r1, r5
 338              		.loc 1 179 0
 339 0018 6360     		str	r3, [r4, #4]
 340              		.loc 1 181 0
 341 001a BDE83840 		pop	{r3, r4, r5, lr}
 342              		.loc 1 180 0
 343 001e FFF7FEBF 		b	memp_free
 344              	.LVL27:
 345              	.L43:
 346              		.loc 1 181 0 discriminator 1
 347 0022 BDE83840 		pop	{r3, r4, r5, lr}
 348              		.loc 1 176 0 discriminator 1
 349 0026 FFF7FEBF 		b	port_halt
 350              	.LVL28:
 351              		.cfi_endproc
 352              	.LFE12:
 353              		.size	netbuf_chain, .-netbuf_chain
 354 002a 00BFAFF3 		.section	.text.netbuf_data,"ax",%progbits
 354      0080
 355              		.align	2
 356              		.p2align 4,,15
 357              		.global	netbuf_data
 358              		.thumb
 359              		.thumb_func
 360              		.type	netbuf_data, %function
 361              	netbuf_data:
 362              	.LFB13:
 363              		.loc 1 194 0
 364              		.cfi_startproc
 365              		@ args = 0, pretend = 0, frame = 0
 366              		@ frame_needed = 0, uses_anonymous_args = 0
 367              	.LVL29:
 368 0000 08B5     		push	{r3, lr}
 369              	.LCFI6:
 370              		.cfi_def_cfa_offset 8
 371              		.cfi_offset 3, -8
 372              		.cfi_offset 14, -4
 373              		.loc 1 195 0
 374 0002 58B1     		cbz	r0, .L50
 375              		.loc 1 196 0
 376 0004 51B1     		cbz	r1, .L50
 377              		.loc 1 197 0
 378 0006 4AB1     		cbz	r2, .L50
 379              		.loc 1 199 0
 380 0008 4368     		ldr	r3, [r0, #4]
 381 000a 5BB1     		cbz	r3, .L51
 382              		.loc 1 202 0
 383 000c 5B68     		ldr	r3, [r3, #4]
 384 000e 0B60     		str	r3, [r1, #0]
 385              		.loc 1 203 0
 386 0010 4068     		ldr	r0, [r0, #4]
 387              	.LVL30:
 388 0012 4189     		ldrh	r1, [r0, #10]
 389              	.LVL31:
 390              		.loc 1 204 0
 391 0014 0023     		movs	r3, #0
 392              		.loc 1 203 0
ARM GAS  /tmp/ccHwIlCP.s 			page 8


 393 0016 1180     		strh	r1, [r2, #0]	@ movhi
 394              	.LVL32:
 395              	.L49:
 396              		.loc 1 205 0
 397 0018 58B2     		sxtb	r0, r3
 398 001a 08BD     		pop	{r3, pc}
 399              	.LVL33:
 400              	.L50:
 401              		.loc 1 195 0 discriminator 1
 402 001c FFF7FEFF 		bl	port_halt
 403              	.LVL34:
 404 0020 F223     		movs	r3, #242
 405 0022 F9E7     		b	.L49
 406              	.LVL35:
 407              	.L51:
 408              		.loc 1 200 0
 409 0024 FE23     		movs	r3, #254
 410 0026 F7E7     		b	.L49
 411              		.cfi_endproc
 412              	.LFE13:
 413              		.size	netbuf_data, .-netbuf_data
 414 0028 AFF30080 		.section	.text.netbuf_next,"ax",%progbits
 414      AFF30080 
 415              		.align	2
 416              		.p2align 4,,15
 417              		.global	netbuf_next
 418              		.thumb
 419              		.thumb_func
 420              		.type	netbuf_next, %function
 421              	netbuf_next:
 422              	.LFB14:
 423              		.loc 1 219 0
 424              		.cfi_startproc
 425              		@ args = 0, pretend = 0, frame = 0
 426              		@ frame_needed = 0, uses_anonymous_args = 0
 427              	.LVL36:
 428 0000 08B5     		push	{r3, lr}
 429              	.LCFI7:
 430              		.cfi_def_cfa_offset 8
 431              		.cfi_offset 3, -8
 432              		.cfi_offset 14, -4
 433              		.loc 1 220 0
 434 0002 60B1     		cbz	r0, .L62
 435              		.loc 1 221 0
 436 0004 4368     		ldr	r3, [r0, #4]
 437 0006 1968     		ldr	r1, [r3, #0]
 438 0008 39B1     		cbz	r1, .L61
 439              		.loc 1 225 0
 440 000a 0A68     		ldr	r2, [r1, #0]
 441              		.loc 1 224 0
 442 000c 4160     		str	r1, [r0, #4]
 443              		.loc 1 220 0
 444 000e D2F10100 		rsbs	r0, r2, #1
 445              	.LVL37:
 446 0012 38BF     		it	cc
 447 0014 0020     		movcc	r0, #0
 448              	.L60:
ARM GAS  /tmp/ccHwIlCP.s 			page 9


 449              		.loc 1 229 0
 450 0016 40B2     		sxtb	r0, r0
 451 0018 08BD     		pop	{r3, pc}
 452              	.LVL38:
 453              	.L61:
 454              		.loc 1 222 0
 455 001a FF20     		movs	r0, #255
 456              	.LVL39:
 457 001c FBE7     		b	.L60
 458              	.LVL40:
 459              	.L62:
 460              		.loc 1 220 0 discriminator 1
 461 001e FFF7FEFF 		bl	port_halt
 462              	.LVL41:
 463 0022 FF20     		movs	r0, #255
 464 0024 F7E7     		b	.L60
 465              		.cfi_endproc
 466              	.LFE14:
 467              		.size	netbuf_next, .-netbuf_next
 468 0026 00BFAFF3 		.section	.text.netbuf_first,"ax",%progbits
 468      0080AFF3 
 468      0080
 469              		.align	2
 470              		.p2align 4,,15
 471              		.global	netbuf_first
 472              		.thumb
 473              		.thumb_func
 474              		.type	netbuf_first, %function
 475              	netbuf_first:
 476              	.LFB15:
 477              		.loc 1 240 0
 478              		.cfi_startproc
 479              		@ args = 0, pretend = 0, frame = 0
 480              		@ frame_needed = 0, uses_anonymous_args = 0
 481              		@ link register save eliminated.
 482              	.LVL42:
 483              		.loc 1 241 0
 484 0000 10B1     		cbz	r0, .L65
 485              		.loc 1 242 0
 486 0002 0368     		ldr	r3, [r0, #0]
 487 0004 4360     		str	r3, [r0, #4]
 488 0006 7047     		bx	lr
 489              	.L65:
 490              		.loc 1 243 0 discriminator 1
 491              		.loc 1 241 0 discriminator 1
 492 0008 FFF7FEBF 		b	port_halt
 493              	.LVL43:
 494              		.cfi_endproc
 495              	.LFE15:
 496              		.size	netbuf_first, .-netbuf_first
 497 000c AFF30080 		.text
 498              	.Letext0:
 499              		.file 2 "/usr/bin/../lib/gcc/arm-none-eabi/4.7.4/../../../../arm-none-eabi/include/stdint.h"
 500              		.file 3 "../../os/various/lwip_bindings/arch/cc.h"
 501              		.file 4 "../../ext/lwip/src/include/lwip/err.h"
 502              		.file 5 "../../ext/lwip/src/include/lwip/pbuf.h"
 503              		.file 6 "../../ext/lwip/src/include/ipv4/lwip/ip_addr.h"
ARM GAS  /tmp/ccHwIlCP.s 			page 10


 504              		.file 7 "../../ext/lwip/src/include/lwip/netbuf.h"
 505              		.file 8 "../../ext/lwip/src/include/lwip/memp.h"
 506              		.file 9 "../../os/ports/GCC/ARMCMx/chcore_v7m.h"
 507              		.section	.debug_info,"",%progbits
 508              	.Ldebug_info0:
 509 0000 05060000 		.4byte	0x605
 510 0004 0200     		.2byte	0x2
 511 0006 00000000 		.4byte	.Ldebug_abbrev0
 512 000a 04       		.byte	0x4
 513 000b 01       		.uleb128 0x1
 514 000c D8000000 		.4byte	.LASF74
 515 0010 01       		.byte	0x1
 516 0011 00000000 		.4byte	.LASF75
 517 0015 88000000 		.4byte	.LASF76
 518 0019 00000000 		.4byte	.Ldebug_ranges0+0
 519 001d 00000000 		.4byte	0
 520 0021 00000000 		.4byte	0
 521 0025 00000000 		.4byte	.Ldebug_line0
 522 0029 02       		.uleb128 0x2
 523 002a 04       		.byte	0x4
 524 002b 05       		.byte	0x5
 525 002c 696E7400 		.ascii	"int\000"
 526 0030 03       		.uleb128 0x3
 527 0031 04       		.byte	0x4
 528 0032 07       		.byte	0x7
 529 0033 11020000 		.4byte	.LASF0
 530 0037 04       		.uleb128 0x4
 531 0038 40000000 		.4byte	.LASF2
 532 003c 02       		.byte	0x2
 533 003d 29       		.byte	0x29
 534 003e 42000000 		.4byte	0x42
 535 0042 03       		.uleb128 0x3
 536 0043 01       		.byte	0x1
 537 0044 06       		.byte	0x6
 538 0045 DF010000 		.4byte	.LASF1
 539 0049 04       		.uleb128 0x4
 540 004a 25030000 		.4byte	.LASF3
 541 004e 02       		.byte	0x2
 542 004f 2A       		.byte	0x2a
 543 0050 54000000 		.4byte	0x54
 544 0054 03       		.uleb128 0x3
 545 0055 01       		.byte	0x1
 546 0056 08       		.byte	0x8
 547 0057 C3010000 		.4byte	.LASF4
 548 005b 03       		.uleb128 0x3
 549 005c 02       		.byte	0x2
 550 005d 05       		.byte	0x5
 551 005e 61000000 		.4byte	.LASF5
 552 0062 04       		.uleb128 0x4
 553 0063 1E020000 		.4byte	.LASF6
 554 0067 02       		.byte	0x2
 555 0068 36       		.byte	0x36
 556 0069 6D000000 		.4byte	0x6d
 557 006d 03       		.uleb128 0x3
 558 006e 02       		.byte	0x2
 559 006f 07       		.byte	0x7
 560 0070 7A020000 		.4byte	.LASF7
ARM GAS  /tmp/ccHwIlCP.s 			page 11


 561 0074 03       		.uleb128 0x3
 562 0075 04       		.byte	0x4
 563 0076 05       		.byte	0x5
 564 0077 A2010000 		.4byte	.LASF8
 565 007b 04       		.uleb128 0x4
 566 007c 08020000 		.4byte	.LASF9
 567 0080 02       		.byte	0x2
 568 0081 50       		.byte	0x50
 569 0082 86000000 		.4byte	0x86
 570 0086 03       		.uleb128 0x3
 571 0087 04       		.byte	0x4
 572 0088 07       		.byte	0x7
 573 0089 DE020000 		.4byte	.LASF10
 574 008d 03       		.uleb128 0x3
 575 008e 08       		.byte	0x8
 576 008f 05       		.byte	0x5
 577 0090 71010000 		.4byte	.LASF11
 578 0094 03       		.uleb128 0x3
 579 0095 08       		.byte	0x8
 580 0096 07       		.byte	0x7
 581 0097 F1010000 		.4byte	.LASF12
 582 009b 03       		.uleb128 0x3
 583 009c 01       		.byte	0x1
 584 009d 02       		.byte	0x2
 585 009e 98020000 		.4byte	.LASF13
 586 00a2 05       		.uleb128 0x5
 587 00a3 04       		.byte	0x4
 588 00a4 03       		.uleb128 0x3
 589 00a5 04       		.byte	0x4
 590 00a6 07       		.byte	0x7
 591 00a7 7F000000 		.4byte	.LASF14
 592 00ab 03       		.uleb128 0x3
 593 00ac 01       		.byte	0x1
 594 00ad 08       		.byte	0x8
 595 00ae 5D020000 		.4byte	.LASF15
 596 00b2 04       		.uleb128 0x4
 597 00b3 1A030000 		.4byte	.LASF16
 598 00b7 03       		.byte	0x3
 599 00b8 38       		.byte	0x38
 600 00b9 49000000 		.4byte	0x49
 601 00bd 04       		.uleb128 0x4
 602 00be 6C010000 		.4byte	.LASF17
 603 00c2 03       		.byte	0x3
 604 00c3 39       		.byte	0x39
 605 00c4 37000000 		.4byte	0x37
 606 00c8 04       		.uleb128 0x4
 607 00c9 2D030000 		.4byte	.LASF18
 608 00cd 03       		.byte	0x3
 609 00ce 3A       		.byte	0x3a
 610 00cf 62000000 		.4byte	0x62
 611 00d3 04       		.uleb128 0x4
 612 00d4 1F030000 		.4byte	.LASF19
 613 00d8 03       		.byte	0x3
 614 00d9 3C       		.byte	0x3c
 615 00da 7B000000 		.4byte	0x7b
 616 00de 04       		.uleb128 0x4
 617 00df 57020000 		.4byte	.LASF20
ARM GAS  /tmp/ccHwIlCP.s 			page 12


 618 00e3 04       		.byte	0x4
 619 00e4 2F       		.byte	0x2f
 620 00e5 BD000000 		.4byte	0xbd
 621 00e9 06       		.uleb128 0x6
 622 00ea 01       		.byte	0x1
 623 00eb 05       		.byte	0x5
 624 00ec 32       		.byte	0x32
 625 00ed 0A010000 		.4byte	0x10a
 626 00f1 07       		.uleb128 0x7
 627 00f2 B5020000 		.4byte	.LASF21
 628 00f6 00       		.sleb128 0
 629 00f7 07       		.uleb128 0x7
 630 00f8 C4020000 		.4byte	.LASF22
 631 00fc 01       		.sleb128 1
 632 00fd 07       		.uleb128 0x7
 633 00fe CB030000 		.4byte	.LASF23
 634 0102 02       		.sleb128 2
 635 0103 07       		.uleb128 0x7
 636 0104 54010000 		.4byte	.LASF24
 637 0108 03       		.sleb128 3
 638 0109 00       		.byte	0
 639 010a 04       		.uleb128 0x4
 640 010b 27020000 		.4byte	.LASF25
 641 010f 05       		.byte	0x5
 642 0110 37       		.byte	0x37
 643 0111 E9000000 		.4byte	0xe9
 644 0115 06       		.uleb128 0x6
 645 0116 01       		.byte	0x1
 646 0117 05       		.byte	0x5
 647 0118 39       		.byte	0x39
 648 0119 36010000 		.4byte	0x136
 649 011d 07       		.uleb128 0x7
 650 011e 37010000 		.4byte	.LASF26
 651 0122 00       		.sleb128 0
 652 0123 07       		.uleb128 0x7
 653 0124 A9030000 		.4byte	.LASF27
 654 0128 01       		.sleb128 1
 655 0129 07       		.uleb128 0x7
 656 012a 98030000 		.4byte	.LASF28
 657 012e 02       		.sleb128 2
 658 012f 07       		.uleb128 0x7
 659 0130 32020000 		.4byte	.LASF29
 660 0134 03       		.sleb128 3
 661 0135 00       		.byte	0
 662 0136 04       		.uleb128 0x4
 663 0137 F0020000 		.4byte	.LASF30
 664 013b 05       		.byte	0x5
 665 013c 3E       		.byte	0x3e
 666 013d 15010000 		.4byte	0x115
 667 0141 08       		.uleb128 0x8
 668 0142 9D010000 		.4byte	.LASF36
 669 0146 10       		.byte	0x10
 670 0147 05       		.byte	0x5
 671 0148 4F       		.byte	0x4f
 672 0149 B0010000 		.4byte	0x1b0
 673 014d 09       		.uleb128 0x9
 674 014e BA030000 		.4byte	.LASF31
ARM GAS  /tmp/ccHwIlCP.s 			page 13


 675 0152 05       		.byte	0x5
 676 0153 51       		.byte	0x51
 677 0154 B0010000 		.4byte	0x1b0
 678 0158 02       		.byte	0x2
 679 0159 23       		.byte	0x23
 680 015a 00       		.uleb128 0
 681 015b 09       		.uleb128 0x9
 682 015c B2030000 		.4byte	.LASF32
 683 0160 05       		.byte	0x5
 684 0161 54       		.byte	0x54
 685 0162 A2000000 		.4byte	0xa2
 686 0166 02       		.byte	0x2
 687 0167 23       		.byte	0x23
 688 0168 04       		.uleb128 0x4
 689 0169 09       		.uleb128 0x9
 690 016a 6A030000 		.4byte	.LASF33
 691 016e 05       		.byte	0x5
 692 016f 5D       		.byte	0x5d
 693 0170 C8000000 		.4byte	0xc8
 694 0174 02       		.byte	0x2
 695 0175 23       		.byte	0x23
 696 0176 08       		.uleb128 0x8
 697 0177 0A       		.uleb128 0xa
 698 0178 6C656E00 		.ascii	"len\000"
 699 017c 05       		.byte	0x5
 700 017d 60       		.byte	0x60
 701 017e C8000000 		.4byte	0xc8
 702 0182 02       		.byte	0x2
 703 0183 23       		.byte	0x23
 704 0184 0A       		.uleb128 0xa
 705 0185 09       		.uleb128 0x9
 706 0186 62020000 		.4byte	.LASF34
 707 018a 05       		.byte	0x5
 708 018b 63       		.byte	0x63
 709 018c B2000000 		.4byte	0xb2
 710 0190 02       		.byte	0x2
 711 0191 23       		.byte	0x23
 712 0192 0C       		.uleb128 0xc
 713 0193 09       		.uleb128 0x9
 714 0194 EB010000 		.4byte	.LASF35
 715 0198 05       		.byte	0x5
 716 0199 66       		.byte	0x66
 717 019a B2000000 		.4byte	0xb2
 718 019e 02       		.byte	0x2
 719 019f 23       		.byte	0x23
 720 01a0 0D       		.uleb128 0xd
 721 01a1 0A       		.uleb128 0xa
 722 01a2 72656600 		.ascii	"ref\000"
 723 01a6 05       		.byte	0x5
 724 01a7 6D       		.byte	0x6d
 725 01a8 C8000000 		.4byte	0xc8
 726 01ac 02       		.byte	0x2
 727 01ad 23       		.byte	0x23
 728 01ae 0E       		.uleb128 0xe
 729 01af 00       		.byte	0
 730 01b0 0B       		.uleb128 0xb
 731 01b1 04       		.byte	0x4
ARM GAS  /tmp/ccHwIlCP.s 			page 14


 732 01b2 41010000 		.4byte	0x141
 733 01b6 08       		.uleb128 0x8
 734 01b7 A1030000 		.4byte	.LASF37
 735 01bb 04       		.byte	0x4
 736 01bc 06       		.byte	0x6
 737 01bd 2C       		.byte	0x2c
 738 01be D1010000 		.4byte	0x1d1
 739 01c2 09       		.uleb128 0x9
 740 01c3 B5010000 		.4byte	.LASF38
 741 01c7 06       		.byte	0x6
 742 01c8 2D       		.byte	0x2d
 743 01c9 D3000000 		.4byte	0xd3
 744 01cd 02       		.byte	0x2
 745 01ce 23       		.byte	0x23
 746 01cf 00       		.uleb128 0
 747 01d0 00       		.byte	0
 748 01d1 04       		.uleb128 0x4
 749 01d2 AB010000 		.4byte	.LASF39
 750 01d6 06       		.byte	0x6
 751 01d7 40       		.byte	0x40
 752 01d8 B6010000 		.4byte	0x1b6
 753 01dc 08       		.uleb128 0x8
 754 01dd 96010000 		.4byte	.LASF40
 755 01e1 10       		.byte	0x10
 756 01e2 07       		.byte	0x7
 757 01e3 30       		.byte	0x30
 758 01e4 1F020000 		.4byte	0x21f
 759 01e8 0A       		.uleb128 0xa
 760 01e9 7000     		.ascii	"p\000"
 761 01eb 07       		.byte	0x7
 762 01ec 31       		.byte	0x31
 763 01ed B0010000 		.4byte	0x1b0
 764 01f1 02       		.byte	0x2
 765 01f2 23       		.byte	0x23
 766 01f3 00       		.uleb128 0
 767 01f4 0A       		.uleb128 0xa
 768 01f5 70747200 		.ascii	"ptr\000"
 769 01f9 07       		.byte	0x7
 770 01fa 31       		.byte	0x31
 771 01fb B0010000 		.4byte	0x1b0
 772 01ff 02       		.byte	0x2
 773 0200 23       		.byte	0x23
 774 0201 04       		.uleb128 0x4
 775 0202 09       		.uleb128 0x9
 776 0203 B5010000 		.4byte	.LASF38
 777 0207 07       		.byte	0x7
 778 0208 32       		.byte	0x32
 779 0209 D1010000 		.4byte	0x1d1
 780 020d 02       		.byte	0x2
 781 020e 23       		.byte	0x23
 782 020f 08       		.uleb128 0x8
 783 0210 09       		.uleb128 0x9
 784 0211 CC020000 		.4byte	.LASF41
 785 0215 07       		.byte	0x7
 786 0216 33       		.byte	0x33
 787 0217 C8000000 		.4byte	0xc8
 788 021b 02       		.byte	0x2
ARM GAS  /tmp/ccHwIlCP.s 			page 15


 789 021c 23       		.byte	0x23
 790 021d 0C       		.uleb128 0xc
 791 021e 00       		.byte	0
 792 021f 06       		.uleb128 0x6
 793 0220 01       		.byte	0x1
 794 0221 08       		.byte	0x8
 795 0222 2B       		.byte	0x2b
 796 0223 82020000 		.4byte	0x282
 797 0227 07       		.uleb128 0x7
 798 0228 FA020000 		.4byte	.LASF42
 799 022c 00       		.sleb128 0
 800 022d 07       		.uleb128 0x7
 801 022e 8B030000 		.4byte	.LASF43
 802 0232 01       		.sleb128 1
 803 0233 07       		.uleb128 0x7
 804 0234 72030000 		.4byte	.LASF44
 805 0238 02       		.sleb128 2
 806 0239 07       		.uleb128 0x7
 807 023a 40010000 		.4byte	.LASF45
 808 023e 03       		.sleb128 3
 809 023f 07       		.uleb128 0x7
 810 0240 72000000 		.4byte	.LASF46
 811 0244 04       		.sleb128 4
 812 0245 07       		.uleb128 0x7
 813 0246 3C020000 		.4byte	.LASF47
 814 024a 05       		.sleb128 5
 815 024b 07       		.uleb128 0x7
 816 024c 5D010000 		.4byte	.LASF48
 817 0250 06       		.sleb128 6
 818 0251 07       		.uleb128 0x7
 819 0252 BF030000 		.4byte	.LASF49
 820 0256 07       		.sleb128 7
 821 0257 07       		.uleb128 0x7
 822 0258 54000000 		.4byte	.LASF50
 823 025c 08       		.sleb128 8
 824 025d 07       		.uleb128 0x7
 825 025e 67020000 		.4byte	.LASF51
 826 0262 09       		.sleb128 9
 827 0263 07       		.uleb128 0x7
 828 0264 4D030000 		.4byte	.LASF52
 829 0268 0A       		.sleb128 10
 830 0269 07       		.uleb128 0x7
 831 026a 21010000 		.4byte	.LASF53
 832 026e 0B       		.sleb128 11
 833 026f 07       		.uleb128 0x7
 834 0270 9E020000 		.4byte	.LASF54
 835 0274 0C       		.sleb128 12
 836 0275 07       		.uleb128 0x7
 837 0276 33030000 		.4byte	.LASF55
 838 027a 0D       		.sleb128 13
 839 027b 07       		.uleb128 0x7
 840 027c D6010000 		.4byte	.LASF56
 841 0280 0E       		.sleb128 14
 842 0281 00       		.byte	0
 843 0282 04       		.uleb128 0x4
 844 0283 6B000000 		.4byte	.LASF57
 845 0287 08       		.byte	0x8
ARM GAS  /tmp/ccHwIlCP.s 			page 16


 846 0288 2F       		.byte	0x2f
 847 0289 1F020000 		.4byte	0x21f
 848 028d 0C       		.uleb128 0xc
 849 028e 01       		.byte	0x1
 850 028f 42030000 		.4byte	.LASF58
 851 0293 01       		.byte	0x1
 852 0294 38       		.byte	0x38
 853 0295 01       		.byte	0x1
 854 0296 C8020000 		.4byte	0x2c8
 855 029a 00000000 		.4byte	.LFB7
 856 029e 16000000 		.4byte	.LFE7
 857 02a2 00000000 		.4byte	.LLST0
 858 02a6 01       		.byte	0x1
 859 02a7 C8020000 		.4byte	0x2c8
 860 02ab 0D       		.uleb128 0xd
 861 02ac 62756600 		.ascii	"buf\000"
 862 02b0 01       		.byte	0x1
 863 02b1 3A       		.byte	0x3a
 864 02b2 C8020000 		.4byte	0x2c8
 865 02b6 01       		.byte	0x1
 866 02b7 50       		.byte	0x50
 867 02b8 0E       		.uleb128 0xe
 868 02b9 08000000 		.4byte	.LVL0
 869 02bd 7D050000 		.4byte	0x57d
 870 02c1 0F       		.uleb128 0xf
 871 02c2 01       		.byte	0x1
 872 02c3 50       		.byte	0x50
 873 02c4 01       		.byte	0x1
 874 02c5 37       		.byte	0x37
 875 02c6 00       		.byte	0
 876 02c7 00       		.byte	0
 877 02c8 0B       		.uleb128 0xb
 878 02c9 04       		.byte	0x4
 879 02ca DC010000 		.4byte	0x1dc
 880 02ce 10       		.uleb128 0x10
 881 02cf 01       		.byte	0x1
 882 02d0 0C030000 		.4byte	.LASF61
 883 02d4 01       		.byte	0x1
 884 02d5 57       		.byte	0x57
 885 02d6 01       		.byte	0x1
 886 02d7 00000000 		.4byte	.LFB8
 887 02db 22000000 		.4byte	.LFE8
 888 02df 20000000 		.4byte	.LLST1
 889 02e3 01       		.byte	0x1
 890 02e4 17030000 		.4byte	0x317
 891 02e8 11       		.uleb128 0x11
 892 02e9 62756600 		.ascii	"buf\000"
 893 02ed 01       		.byte	0x1
 894 02ee 57       		.byte	0x57
 895 02ef C8020000 		.4byte	0x2c8
 896 02f3 40000000 		.4byte	.LLST2
 897 02f7 12       		.uleb128 0x12
 898 02f8 0E000000 		.4byte	.LVL3
 899 02fc 95050000 		.4byte	0x595
 900 0300 13       		.uleb128 0x13
 901 0301 20000000 		.4byte	.LVL4
 902 0305 01       		.byte	0x1
ARM GAS  /tmp/ccHwIlCP.s 			page 17


 903 0306 AD050000 		.4byte	0x5ad
 904 030a 0F       		.uleb128 0xf
 905 030b 01       		.byte	0x1
 906 030c 51       		.byte	0x51
 907 030d 02       		.byte	0x2
 908 030e 74       		.byte	0x74
 909 030f 00       		.sleb128 0
 910 0310 0F       		.uleb128 0xf
 911 0311 01       		.byte	0x1
 912 0312 50       		.byte	0x50
 913 0313 01       		.byte	0x1
 914 0314 37       		.byte	0x37
 915 0315 00       		.byte	0
 916 0316 00       		.byte	0
 917 0317 0C       		.uleb128 0xc
 918 0318 01       		.byte	0x1
 919 0319 47000000 		.4byte	.LASF59
 920 031d 01       		.byte	0x1
 921 031e 6B       		.byte	0x6b
 922 031f 01       		.byte	0x1
 923 0320 A2000000 		.4byte	0xa2
 924 0324 00000000 		.4byte	.LFB9
 925 0328 3A000000 		.4byte	.LFE9
 926 032c 69000000 		.4byte	.LLST3
 927 0330 01       		.byte	0x1
 928 0331 8D030000 		.4byte	0x38d
 929 0335 11       		.uleb128 0x11
 930 0336 62756600 		.ascii	"buf\000"
 931 033a 01       		.byte	0x1
 932 033b 6B       		.byte	0x6b
 933 033c C8020000 		.4byte	0x2c8
 934 0340 89000000 		.4byte	.LLST4
 935 0344 14       		.uleb128 0x14
 936 0345 07030000 		.4byte	.LASF60
 937 0349 01       		.byte	0x1
 938 034a 6B       		.byte	0x6b
 939 034b C8000000 		.4byte	0xc8
 940 034f BD000000 		.4byte	.LLST5
 941 0353 12       		.uleb128 0x12
 942 0354 10000000 		.4byte	.LVL7
 943 0358 95050000 		.4byte	0x595
 944 035c 15       		.uleb128 0x15
 945 035d 1A000000 		.4byte	.LVL8
 946 0361 C6050000 		.4byte	0x5c6
 947 0365 7A030000 		.4byte	0x37a
 948 0369 0F       		.uleb128 0xf
 949 036a 01       		.byte	0x1
 950 036b 52       		.byte	0x52
 951 036c 01       		.byte	0x1
 952 036d 30       		.byte	0x30
 953 036e 0F       		.uleb128 0xf
 954 036f 01       		.byte	0x1
 955 0370 51       		.byte	0x51
 956 0371 02       		.byte	0x2
 957 0372 75       		.byte	0x75
 958 0373 00       		.sleb128 0
 959 0374 0F       		.uleb128 0xf
ARM GAS  /tmp/ccHwIlCP.s 			page 18


 960 0375 01       		.byte	0x1
 961 0376 50       		.byte	0x50
 962 0377 01       		.byte	0x1
 963 0378 30       		.byte	0x30
 964 0379 00       		.byte	0
 965 037a 12       		.uleb128 0x12
 966 037b 2E000000 		.4byte	.LVL9
 967 037f E8050000 		.4byte	0x5e8
 968 0383 12       		.uleb128 0x12
 969 0384 36000000 		.4byte	.LVL11
 970 0388 E8050000 		.4byte	0x5e8
 971 038c 00       		.byte	0
 972 038d 10       		.uleb128 0x10
 973 038e 01       		.byte	0x1
 974 038f 4B020000 		.4byte	.LASF62
 975 0393 01       		.byte	0x1
 976 0394 83       		.byte	0x83
 977 0395 01       		.byte	0x1
 978 0396 00000000 		.4byte	.LFB10
 979 039a 1E000000 		.4byte	.LFE10
 980 039e F7000000 		.4byte	.LLST6
 981 03a2 01       		.byte	0x1
 982 03a3 CA030000 		.4byte	0x3ca
 983 03a7 11       		.uleb128 0x11
 984 03a8 62756600 		.ascii	"buf\000"
 985 03ac 01       		.byte	0x1
 986 03ad 83       		.byte	0x83
 987 03ae C8020000 		.4byte	0x2c8
 988 03b2 17010000 		.4byte	.LLST7
 989 03b6 12       		.uleb128 0x12
 990 03b7 0E000000 		.4byte	.LVL14
 991 03bb 95050000 		.4byte	0x595
 992 03bf 16       		.uleb128 0x16
 993 03c0 1E000000 		.4byte	.LVL16
 994 03c4 01       		.byte	0x1
 995 03c5 E8050000 		.4byte	0x5e8
 996 03c9 00       		.byte	0
 997 03ca 0C       		.uleb128 0xc
 998 03cb 01       		.byte	0x1
 999 03cc 8B010000 		.4byte	.LASF63
 1000 03d0 01       		.byte	0x1
 1001 03d1 96       		.byte	0x96
 1002 03d2 01       		.byte	0x1
 1003 03d3 DE000000 		.4byte	0xde
 1004 03d7 00000000 		.4byte	.LFB11
 1005 03db 3E000000 		.4byte	.LFE11
 1006 03df 4B010000 		.4byte	.LLST8
 1007 03e3 01       		.byte	0x1
 1008 03e4 45040000 		.4byte	0x445
 1009 03e8 11       		.uleb128 0x11
 1010 03e9 62756600 		.ascii	"buf\000"
 1011 03ed 01       		.byte	0x1
 1012 03ee 96       		.byte	0x96
 1013 03ef C8020000 		.4byte	0x2c8
 1014 03f3 6B010000 		.4byte	.LLST9
 1015 03f7 14       		.uleb128 0x14
 1016 03f8 62030000 		.4byte	.LASF64
ARM GAS  /tmp/ccHwIlCP.s 			page 19


 1017 03fc 01       		.byte	0x1
 1018 03fd 96       		.byte	0x96
 1019 03fe 45040000 		.4byte	0x445
 1020 0402 9F010000 		.4byte	.LLST10
 1021 0406 14       		.uleb128 0x14
 1022 0407 07030000 		.4byte	.LASF60
 1023 040b 01       		.byte	0x1
 1024 040c 96       		.byte	0x96
 1025 040d C8000000 		.4byte	0xc8
 1026 0411 D3010000 		.4byte	.LLST11
 1027 0415 12       		.uleb128 0x12
 1028 0416 12000000 		.4byte	.LVL19
 1029 041a 95050000 		.4byte	0x595
 1030 041e 15       		.uleb128 0x15
 1031 041f 1C000000 		.4byte	.LVL20
 1032 0423 C6050000 		.4byte	0x5c6
 1033 0427 3B040000 		.4byte	0x43b
 1034 042b 0F       		.uleb128 0xf
 1035 042c 01       		.byte	0x1
 1036 042d 52       		.byte	0x52
 1037 042e 01       		.byte	0x1
 1038 042f 32       		.byte	0x32
 1039 0430 0F       		.uleb128 0xf
 1040 0431 01       		.byte	0x1
 1041 0432 51       		.byte	0x51
 1042 0433 01       		.byte	0x1
 1043 0434 30       		.byte	0x30
 1044 0435 0F       		.uleb128 0xf
 1045 0436 01       		.byte	0x1
 1046 0437 50       		.byte	0x50
 1047 0438 01       		.byte	0x1
 1048 0439 30       		.byte	0x30
 1049 043a 00       		.byte	0
 1050 043b 12       		.uleb128 0x12
 1051 043c 3A000000 		.4byte	.LVL22
 1052 0440 E8050000 		.4byte	0x5e8
 1053 0444 00       		.byte	0
 1054 0445 0B       		.uleb128 0xb
 1055 0446 04       		.byte	0x4
 1056 0447 4B040000 		.4byte	0x44b
 1057 044b 17       		.uleb128 0x17
 1058 044c 10       		.uleb128 0x10
 1059 044d 01       		.byte	0x1
 1060 044e A8020000 		.4byte	.LASF65
 1061 0452 01       		.byte	0x1
 1062 0453 AE       		.byte	0xae
 1063 0454 01       		.byte	0x1
 1064 0455 00000000 		.4byte	.LFB12
 1065 0459 2A000000 		.4byte	.LFE12
 1066 045d 0D020000 		.4byte	.LLST12
 1067 0461 01       		.byte	0x1
 1068 0462 B2040000 		.4byte	0x4b2
 1069 0466 14       		.uleb128 0x14
 1070 0467 32010000 		.4byte	.LASF66
 1071 046b 01       		.byte	0x1
 1072 046c AE       		.byte	0xae
 1073 046d C8020000 		.4byte	0x2c8
ARM GAS  /tmp/ccHwIlCP.s 			page 20


 1074 0471 2D020000 		.4byte	.LLST13
 1075 0475 14       		.uleb128 0x14
 1076 0476 D1010000 		.4byte	.LASF67
 1077 047a 01       		.byte	0x1
 1078 047b AE       		.byte	0xae
 1079 047c C8020000 		.4byte	0x2c8
 1080 0480 61020000 		.4byte	.LLST14
 1081 0484 12       		.uleb128 0x12
 1082 0485 12000000 		.4byte	.LVL26
 1083 0489 F3050000 		.4byte	0x5f3
 1084 048d 18       		.uleb128 0x18
 1085 048e 22000000 		.4byte	.LVL27
 1086 0492 01       		.byte	0x1
 1087 0493 AD050000 		.4byte	0x5ad
 1088 0497 A7040000 		.4byte	0x4a7
 1089 049b 0F       		.uleb128 0xf
 1090 049c 01       		.byte	0x1
 1091 049d 51       		.byte	0x51
 1092 049e 02       		.byte	0x2
 1093 049f 75       		.byte	0x75
 1094 04a0 00       		.sleb128 0
 1095 04a1 0F       		.uleb128 0xf
 1096 04a2 01       		.byte	0x1
 1097 04a3 50       		.byte	0x50
 1098 04a4 01       		.byte	0x1
 1099 04a5 37       		.byte	0x37
 1100 04a6 00       		.byte	0
 1101 04a7 16       		.uleb128 0x16
 1102 04a8 2A000000 		.4byte	.LVL28
 1103 04ac 01       		.byte	0x1
 1104 04ad E8050000 		.4byte	0x5e8
 1105 04b1 00       		.byte	0
 1106 04b2 0C       		.uleb128 0xc
 1107 04b3 01       		.byte	0x1
 1108 04b4 34000000 		.4byte	.LASF68
 1109 04b8 01       		.byte	0x1
 1110 04b9 C1       		.byte	0xc1
 1111 04ba 01       		.byte	0x1
 1112 04bb DE000000 		.4byte	0xde
 1113 04bf 00000000 		.4byte	.LFB13
 1114 04c3 28000000 		.4byte	.LFE13
 1115 04c7 95020000 		.4byte	.LLST15
 1116 04cb 01       		.byte	0x1
 1117 04cc 07050000 		.4byte	0x507
 1118 04d0 11       		.uleb128 0x11
 1119 04d1 62756600 		.ascii	"buf\000"
 1120 04d5 01       		.byte	0x1
 1121 04d6 C1       		.byte	0xc1
 1122 04d7 C8020000 		.4byte	0x2c8
 1123 04db B5020000 		.4byte	.LLST16
 1124 04df 14       		.uleb128 0x14
 1125 04e0 62030000 		.4byte	.LASF64
 1126 04e4 01       		.byte	0x1
 1127 04e5 C1       		.byte	0xc1
 1128 04e6 07050000 		.4byte	0x507
 1129 04ea FA020000 		.4byte	.LLST17
 1130 04ee 11       		.uleb128 0x11
ARM GAS  /tmp/ccHwIlCP.s 			page 21


 1131 04ef 6C656E00 		.ascii	"len\000"
 1132 04f3 01       		.byte	0x1
 1133 04f4 C1       		.byte	0xc1
 1134 04f5 0D050000 		.4byte	0x50d
 1135 04f9 3F030000 		.4byte	.LLST18
 1136 04fd 12       		.uleb128 0x12
 1137 04fe 20000000 		.4byte	.LVL34
 1138 0502 E8050000 		.4byte	0x5e8
 1139 0506 00       		.byte	0
 1140 0507 0B       		.uleb128 0xb
 1141 0508 04       		.byte	0x4
 1142 0509 A2000000 		.4byte	0xa2
 1143 050d 0B       		.uleb128 0xb
 1144 050e 04       		.byte	0x4
 1145 050f C8000000 		.4byte	0xc8
 1146 0513 0C       		.uleb128 0xc
 1147 0514 01       		.byte	0x1
 1148 0515 7F010000 		.4byte	.LASF69
 1149 0519 01       		.byte	0x1
 1150 051a DA       		.byte	0xda
 1151 051b 01       		.byte	0x1
 1152 051c BD000000 		.4byte	0xbd
 1153 0520 00000000 		.4byte	.LFB14
 1154 0524 26000000 		.4byte	.LFE14
 1155 0528 84030000 		.4byte	.LLST19
 1156 052c 01       		.byte	0x1
 1157 052d 4A050000 		.4byte	0x54a
 1158 0531 11       		.uleb128 0x11
 1159 0532 62756600 		.ascii	"buf\000"
 1160 0536 01       		.byte	0x1
 1161 0537 DA       		.byte	0xda
 1162 0538 C8020000 		.4byte	0x2c8
 1163 053c A4030000 		.4byte	.LLST20
 1164 0540 12       		.uleb128 0x12
 1165 0541 22000000 		.4byte	.LVL41
 1166 0545 E8050000 		.4byte	0x5e8
 1167 0549 00       		.byte	0
 1168 054a 19       		.uleb128 0x19
 1169 054b 01       		.byte	0x1
 1170 054c D1020000 		.4byte	.LASF70
 1171 0550 01       		.byte	0x1
 1172 0551 EF       		.byte	0xef
 1173 0552 01       		.byte	0x1
 1174 0553 00000000 		.4byte	.LFB15
 1175 0557 0C000000 		.4byte	.LFE15
 1176 055b 02       		.byte	0x2
 1177 055c 7D       		.byte	0x7d
 1178 055d 00       		.sleb128 0
 1179 055e 01       		.byte	0x1
 1180 055f 7D050000 		.4byte	0x57d
 1181 0563 11       		.uleb128 0x11
 1182 0564 62756600 		.ascii	"buf\000"
 1183 0568 01       		.byte	0x1
 1184 0569 EF       		.byte	0xef
 1185 056a C8020000 		.4byte	0x2c8
 1186 056e F7030000 		.4byte	.LLST21
 1187 0572 16       		.uleb128 0x16
ARM GAS  /tmp/ccHwIlCP.s 			page 22


 1188 0573 0C000000 		.4byte	.LVL43
 1189 0577 01       		.byte	0x1
 1190 0578 E8050000 		.4byte	0x5e8
 1191 057c 00       		.byte	0
 1192 057d 1A       		.uleb128 0x1a
 1193 057e 01       		.byte	0x1
 1194 057f 7F030000 		.4byte	.LASF71
 1195 0583 08       		.byte	0x8
 1196 0584 6A       		.byte	0x6a
 1197 0585 01       		.byte	0x1
 1198 0586 A2000000 		.4byte	0xa2
 1199 058a 01       		.byte	0x1
 1200 058b 95050000 		.4byte	0x595
 1201 058f 1B       		.uleb128 0x1b
 1202 0590 82020000 		.4byte	0x282
 1203 0594 00       		.byte	0
 1204 0595 1A       		.uleb128 0x1a
 1205 0596 01       		.byte	0x1
 1206 0597 20000000 		.4byte	.LASF72
 1207 059b 05       		.byte	0x5
 1208 059c 9B       		.byte	0x9b
 1209 059d 01       		.byte	0x1
 1210 059e B2000000 		.4byte	0xb2
 1211 05a2 01       		.byte	0x1
 1212 05a3 AD050000 		.4byte	0x5ad
 1213 05a7 1B       		.uleb128 0x1b
 1214 05a8 B0010000 		.4byte	0x1b0
 1215 05ac 00       		.byte	0
 1216 05ad 1C       		.uleb128 0x1c
 1217 05ae 01       		.byte	0x1
 1218 05af 2A000000 		.4byte	.LASF77
 1219 05b3 08       		.byte	0x8
 1220 05b4 6C       		.byte	0x6c
 1221 05b5 01       		.byte	0x1
 1222 05b6 01       		.byte	0x1
 1223 05b7 C6050000 		.4byte	0x5c6
 1224 05bb 1B       		.uleb128 0x1b
 1225 05bc 82020000 		.4byte	0x282
 1226 05c0 1B       		.uleb128 0x1b
 1227 05c1 A2000000 		.4byte	0xa2
 1228 05c5 00       		.byte	0
 1229 05c6 1A       		.uleb128 0x1a
 1230 05c7 01       		.byte	0x1
 1231 05c8 8D020000 		.4byte	.LASF73
 1232 05cc 05       		.byte	0x5
 1233 05cd 92       		.byte	0x92
 1234 05ce 01       		.byte	0x1
 1235 05cf B0010000 		.4byte	0x1b0
 1236 05d3 01       		.byte	0x1
 1237 05d4 E8050000 		.4byte	0x5e8
 1238 05d8 1B       		.uleb128 0x1b
 1239 05d9 0A010000 		.4byte	0x10a
 1240 05dd 1B       		.uleb128 0x1b
 1241 05de C8000000 		.4byte	0xc8
 1242 05e2 1B       		.uleb128 0x1b
 1243 05e3 36010000 		.4byte	0x136
 1244 05e7 00       		.byte	0
ARM GAS  /tmp/ccHwIlCP.s 			page 23


 1245 05e8 1D       		.uleb128 0x1d
 1246 05e9 01       		.byte	0x1
 1247 05ea CE000000 		.4byte	.LASF78
 1248 05ee 09       		.byte	0x9
 1249 05ef FA01     		.2byte	0x1fa
 1250 05f1 01       		.byte	0x1
 1251 05f2 01       		.byte	0x1
 1252 05f3 1E       		.uleb128 0x1e
 1253 05f4 01       		.byte	0x1
 1254 05f5 BA010000 		.4byte	.LASF79
 1255 05f9 05       		.byte	0x5
 1256 05fa 9D       		.byte	0x9d
 1257 05fb 01       		.byte	0x1
 1258 05fc 01       		.byte	0x1
 1259 05fd 1B       		.uleb128 0x1b
 1260 05fe B0010000 		.4byte	0x1b0
 1261 0602 1B       		.uleb128 0x1b
 1262 0603 B0010000 		.4byte	0x1b0
 1263 0607 00       		.byte	0
 1264 0608 00       		.byte	0
 1265              		.section	.debug_abbrev,"",%progbits
 1266              	.Ldebug_abbrev0:
 1267 0000 01       		.uleb128 0x1
 1268 0001 11       		.uleb128 0x11
 1269 0002 01       		.byte	0x1
 1270 0003 25       		.uleb128 0x25
 1271 0004 0E       		.uleb128 0xe
 1272 0005 13       		.uleb128 0x13
 1273 0006 0B       		.uleb128 0xb
 1274 0007 03       		.uleb128 0x3
 1275 0008 0E       		.uleb128 0xe
 1276 0009 1B       		.uleb128 0x1b
 1277 000a 0E       		.uleb128 0xe
 1278 000b 55       		.uleb128 0x55
 1279 000c 06       		.uleb128 0x6
 1280 000d 11       		.uleb128 0x11
 1281 000e 01       		.uleb128 0x1
 1282 000f 52       		.uleb128 0x52
 1283 0010 01       		.uleb128 0x1
 1284 0011 10       		.uleb128 0x10
 1285 0012 06       		.uleb128 0x6
 1286 0013 00       		.byte	0
 1287 0014 00       		.byte	0
 1288 0015 02       		.uleb128 0x2
 1289 0016 24       		.uleb128 0x24
 1290 0017 00       		.byte	0
 1291 0018 0B       		.uleb128 0xb
 1292 0019 0B       		.uleb128 0xb
 1293 001a 3E       		.uleb128 0x3e
 1294 001b 0B       		.uleb128 0xb
 1295 001c 03       		.uleb128 0x3
 1296 001d 08       		.uleb128 0x8
 1297 001e 00       		.byte	0
 1298 001f 00       		.byte	0
 1299 0020 03       		.uleb128 0x3
 1300 0021 24       		.uleb128 0x24
 1301 0022 00       		.byte	0
ARM GAS  /tmp/ccHwIlCP.s 			page 24


 1302 0023 0B       		.uleb128 0xb
 1303 0024 0B       		.uleb128 0xb
 1304 0025 3E       		.uleb128 0x3e
 1305 0026 0B       		.uleb128 0xb
 1306 0027 03       		.uleb128 0x3
 1307 0028 0E       		.uleb128 0xe
 1308 0029 00       		.byte	0
 1309 002a 00       		.byte	0
 1310 002b 04       		.uleb128 0x4
 1311 002c 16       		.uleb128 0x16
 1312 002d 00       		.byte	0
 1313 002e 03       		.uleb128 0x3
 1314 002f 0E       		.uleb128 0xe
 1315 0030 3A       		.uleb128 0x3a
 1316 0031 0B       		.uleb128 0xb
 1317 0032 3B       		.uleb128 0x3b
 1318 0033 0B       		.uleb128 0xb
 1319 0034 49       		.uleb128 0x49
 1320 0035 13       		.uleb128 0x13
 1321 0036 00       		.byte	0
 1322 0037 00       		.byte	0
 1323 0038 05       		.uleb128 0x5
 1324 0039 0F       		.uleb128 0xf
 1325 003a 00       		.byte	0
 1326 003b 0B       		.uleb128 0xb
 1327 003c 0B       		.uleb128 0xb
 1328 003d 00       		.byte	0
 1329 003e 00       		.byte	0
 1330 003f 06       		.uleb128 0x6
 1331 0040 04       		.uleb128 0x4
 1332 0041 01       		.byte	0x1
 1333 0042 0B       		.uleb128 0xb
 1334 0043 0B       		.uleb128 0xb
 1335 0044 3A       		.uleb128 0x3a
 1336 0045 0B       		.uleb128 0xb
 1337 0046 3B       		.uleb128 0x3b
 1338 0047 0B       		.uleb128 0xb
 1339 0048 01       		.uleb128 0x1
 1340 0049 13       		.uleb128 0x13
 1341 004a 00       		.byte	0
 1342 004b 00       		.byte	0
 1343 004c 07       		.uleb128 0x7
 1344 004d 28       		.uleb128 0x28
 1345 004e 00       		.byte	0
 1346 004f 03       		.uleb128 0x3
 1347 0050 0E       		.uleb128 0xe
 1348 0051 1C       		.uleb128 0x1c
 1349 0052 0D       		.uleb128 0xd
 1350 0053 00       		.byte	0
 1351 0054 00       		.byte	0
 1352 0055 08       		.uleb128 0x8
 1353 0056 13       		.uleb128 0x13
 1354 0057 01       		.byte	0x1
 1355 0058 03       		.uleb128 0x3
 1356 0059 0E       		.uleb128 0xe
 1357 005a 0B       		.uleb128 0xb
 1358 005b 0B       		.uleb128 0xb
ARM GAS  /tmp/ccHwIlCP.s 			page 25


 1359 005c 3A       		.uleb128 0x3a
 1360 005d 0B       		.uleb128 0xb
 1361 005e 3B       		.uleb128 0x3b
 1362 005f 0B       		.uleb128 0xb
 1363 0060 01       		.uleb128 0x1
 1364 0061 13       		.uleb128 0x13
 1365 0062 00       		.byte	0
 1366 0063 00       		.byte	0
 1367 0064 09       		.uleb128 0x9
 1368 0065 0D       		.uleb128 0xd
 1369 0066 00       		.byte	0
 1370 0067 03       		.uleb128 0x3
 1371 0068 0E       		.uleb128 0xe
 1372 0069 3A       		.uleb128 0x3a
 1373 006a 0B       		.uleb128 0xb
 1374 006b 3B       		.uleb128 0x3b
 1375 006c 0B       		.uleb128 0xb
 1376 006d 49       		.uleb128 0x49
 1377 006e 13       		.uleb128 0x13
 1378 006f 38       		.uleb128 0x38
 1379 0070 0A       		.uleb128 0xa
 1380 0071 00       		.byte	0
 1381 0072 00       		.byte	0
 1382 0073 0A       		.uleb128 0xa
 1383 0074 0D       		.uleb128 0xd
 1384 0075 00       		.byte	0
 1385 0076 03       		.uleb128 0x3
 1386 0077 08       		.uleb128 0x8
 1387 0078 3A       		.uleb128 0x3a
 1388 0079 0B       		.uleb128 0xb
 1389 007a 3B       		.uleb128 0x3b
 1390 007b 0B       		.uleb128 0xb
 1391 007c 49       		.uleb128 0x49
 1392 007d 13       		.uleb128 0x13
 1393 007e 38       		.uleb128 0x38
 1394 007f 0A       		.uleb128 0xa
 1395 0080 00       		.byte	0
 1396 0081 00       		.byte	0
 1397 0082 0B       		.uleb128 0xb
 1398 0083 0F       		.uleb128 0xf
 1399 0084 00       		.byte	0
 1400 0085 0B       		.uleb128 0xb
 1401 0086 0B       		.uleb128 0xb
 1402 0087 49       		.uleb128 0x49
 1403 0088 13       		.uleb128 0x13
 1404 0089 00       		.byte	0
 1405 008a 00       		.byte	0
 1406 008b 0C       		.uleb128 0xc
 1407 008c 2E       		.uleb128 0x2e
 1408 008d 01       		.byte	0x1
 1409 008e 3F       		.uleb128 0x3f
 1410 008f 0C       		.uleb128 0xc
 1411 0090 03       		.uleb128 0x3
 1412 0091 0E       		.uleb128 0xe
 1413 0092 3A       		.uleb128 0x3a
 1414 0093 0B       		.uleb128 0xb
 1415 0094 3B       		.uleb128 0x3b
ARM GAS  /tmp/ccHwIlCP.s 			page 26


 1416 0095 0B       		.uleb128 0xb
 1417 0096 27       		.uleb128 0x27
 1418 0097 0C       		.uleb128 0xc
 1419 0098 49       		.uleb128 0x49
 1420 0099 13       		.uleb128 0x13
 1421 009a 11       		.uleb128 0x11
 1422 009b 01       		.uleb128 0x1
 1423 009c 12       		.uleb128 0x12
 1424 009d 01       		.uleb128 0x1
 1425 009e 40       		.uleb128 0x40
 1426 009f 06       		.uleb128 0x6
 1427 00a0 9742     		.uleb128 0x2117
 1428 00a2 0C       		.uleb128 0xc
 1429 00a3 01       		.uleb128 0x1
 1430 00a4 13       		.uleb128 0x13
 1431 00a5 00       		.byte	0
 1432 00a6 00       		.byte	0
 1433 00a7 0D       		.uleb128 0xd
 1434 00a8 34       		.uleb128 0x34
 1435 00a9 00       		.byte	0
 1436 00aa 03       		.uleb128 0x3
 1437 00ab 08       		.uleb128 0x8
 1438 00ac 3A       		.uleb128 0x3a
 1439 00ad 0B       		.uleb128 0xb
 1440 00ae 3B       		.uleb128 0x3b
 1441 00af 0B       		.uleb128 0xb
 1442 00b0 49       		.uleb128 0x49
 1443 00b1 13       		.uleb128 0x13
 1444 00b2 02       		.uleb128 0x2
 1445 00b3 0A       		.uleb128 0xa
 1446 00b4 00       		.byte	0
 1447 00b5 00       		.byte	0
 1448 00b6 0E       		.uleb128 0xe
 1449 00b7 898201   		.uleb128 0x4109
 1450 00ba 01       		.byte	0x1
 1451 00bb 11       		.uleb128 0x11
 1452 00bc 01       		.uleb128 0x1
 1453 00bd 31       		.uleb128 0x31
 1454 00be 13       		.uleb128 0x13
 1455 00bf 00       		.byte	0
 1456 00c0 00       		.byte	0
 1457 00c1 0F       		.uleb128 0xf
 1458 00c2 8A8201   		.uleb128 0x410a
 1459 00c5 00       		.byte	0
 1460 00c6 02       		.uleb128 0x2
 1461 00c7 0A       		.uleb128 0xa
 1462 00c8 9142     		.uleb128 0x2111
 1463 00ca 0A       		.uleb128 0xa
 1464 00cb 00       		.byte	0
 1465 00cc 00       		.byte	0
 1466 00cd 10       		.uleb128 0x10
 1467 00ce 2E       		.uleb128 0x2e
 1468 00cf 01       		.byte	0x1
 1469 00d0 3F       		.uleb128 0x3f
 1470 00d1 0C       		.uleb128 0xc
 1471 00d2 03       		.uleb128 0x3
 1472 00d3 0E       		.uleb128 0xe
ARM GAS  /tmp/ccHwIlCP.s 			page 27


 1473 00d4 3A       		.uleb128 0x3a
 1474 00d5 0B       		.uleb128 0xb
 1475 00d6 3B       		.uleb128 0x3b
 1476 00d7 0B       		.uleb128 0xb
 1477 00d8 27       		.uleb128 0x27
 1478 00d9 0C       		.uleb128 0xc
 1479 00da 11       		.uleb128 0x11
 1480 00db 01       		.uleb128 0x1
 1481 00dc 12       		.uleb128 0x12
 1482 00dd 01       		.uleb128 0x1
 1483 00de 40       		.uleb128 0x40
 1484 00df 06       		.uleb128 0x6
 1485 00e0 9742     		.uleb128 0x2117
 1486 00e2 0C       		.uleb128 0xc
 1487 00e3 01       		.uleb128 0x1
 1488 00e4 13       		.uleb128 0x13
 1489 00e5 00       		.byte	0
 1490 00e6 00       		.byte	0
 1491 00e7 11       		.uleb128 0x11
 1492 00e8 05       		.uleb128 0x5
 1493 00e9 00       		.byte	0
 1494 00ea 03       		.uleb128 0x3
 1495 00eb 08       		.uleb128 0x8
 1496 00ec 3A       		.uleb128 0x3a
 1497 00ed 0B       		.uleb128 0xb
 1498 00ee 3B       		.uleb128 0x3b
 1499 00ef 0B       		.uleb128 0xb
 1500 00f0 49       		.uleb128 0x49
 1501 00f1 13       		.uleb128 0x13
 1502 00f2 02       		.uleb128 0x2
 1503 00f3 06       		.uleb128 0x6
 1504 00f4 00       		.byte	0
 1505 00f5 00       		.byte	0
 1506 00f6 12       		.uleb128 0x12
 1507 00f7 898201   		.uleb128 0x4109
 1508 00fa 00       		.byte	0
 1509 00fb 11       		.uleb128 0x11
 1510 00fc 01       		.uleb128 0x1
 1511 00fd 31       		.uleb128 0x31
 1512 00fe 13       		.uleb128 0x13
 1513 00ff 00       		.byte	0
 1514 0100 00       		.byte	0
 1515 0101 13       		.uleb128 0x13
 1516 0102 898201   		.uleb128 0x4109
 1517 0105 01       		.byte	0x1
 1518 0106 11       		.uleb128 0x11
 1519 0107 01       		.uleb128 0x1
 1520 0108 9542     		.uleb128 0x2115
 1521 010a 0C       		.uleb128 0xc
 1522 010b 31       		.uleb128 0x31
 1523 010c 13       		.uleb128 0x13
 1524 010d 00       		.byte	0
 1525 010e 00       		.byte	0
 1526 010f 14       		.uleb128 0x14
 1527 0110 05       		.uleb128 0x5
 1528 0111 00       		.byte	0
 1529 0112 03       		.uleb128 0x3
ARM GAS  /tmp/ccHwIlCP.s 			page 28


 1530 0113 0E       		.uleb128 0xe
 1531 0114 3A       		.uleb128 0x3a
 1532 0115 0B       		.uleb128 0xb
 1533 0116 3B       		.uleb128 0x3b
 1534 0117 0B       		.uleb128 0xb
 1535 0118 49       		.uleb128 0x49
 1536 0119 13       		.uleb128 0x13
 1537 011a 02       		.uleb128 0x2
 1538 011b 06       		.uleb128 0x6
 1539 011c 00       		.byte	0
 1540 011d 00       		.byte	0
 1541 011e 15       		.uleb128 0x15
 1542 011f 898201   		.uleb128 0x4109
 1543 0122 01       		.byte	0x1
 1544 0123 11       		.uleb128 0x11
 1545 0124 01       		.uleb128 0x1
 1546 0125 31       		.uleb128 0x31
 1547 0126 13       		.uleb128 0x13
 1548 0127 01       		.uleb128 0x1
 1549 0128 13       		.uleb128 0x13
 1550 0129 00       		.byte	0
 1551 012a 00       		.byte	0
 1552 012b 16       		.uleb128 0x16
 1553 012c 898201   		.uleb128 0x4109
 1554 012f 00       		.byte	0
 1555 0130 11       		.uleb128 0x11
 1556 0131 01       		.uleb128 0x1
 1557 0132 9542     		.uleb128 0x2115
 1558 0134 0C       		.uleb128 0xc
 1559 0135 31       		.uleb128 0x31
 1560 0136 13       		.uleb128 0x13
 1561 0137 00       		.byte	0
 1562 0138 00       		.byte	0
 1563 0139 17       		.uleb128 0x17
 1564 013a 26       		.uleb128 0x26
 1565 013b 00       		.byte	0
 1566 013c 00       		.byte	0
 1567 013d 00       		.byte	0
 1568 013e 18       		.uleb128 0x18
 1569 013f 898201   		.uleb128 0x4109
 1570 0142 01       		.byte	0x1
 1571 0143 11       		.uleb128 0x11
 1572 0144 01       		.uleb128 0x1
 1573 0145 9542     		.uleb128 0x2115
 1574 0147 0C       		.uleb128 0xc
 1575 0148 31       		.uleb128 0x31
 1576 0149 13       		.uleb128 0x13
 1577 014a 01       		.uleb128 0x1
 1578 014b 13       		.uleb128 0x13
 1579 014c 00       		.byte	0
 1580 014d 00       		.byte	0
 1581 014e 19       		.uleb128 0x19
 1582 014f 2E       		.uleb128 0x2e
 1583 0150 01       		.byte	0x1
 1584 0151 3F       		.uleb128 0x3f
 1585 0152 0C       		.uleb128 0xc
 1586 0153 03       		.uleb128 0x3
ARM GAS  /tmp/ccHwIlCP.s 			page 29


 1587 0154 0E       		.uleb128 0xe
 1588 0155 3A       		.uleb128 0x3a
 1589 0156 0B       		.uleb128 0xb
 1590 0157 3B       		.uleb128 0x3b
 1591 0158 0B       		.uleb128 0xb
 1592 0159 27       		.uleb128 0x27
 1593 015a 0C       		.uleb128 0xc
 1594 015b 11       		.uleb128 0x11
 1595 015c 01       		.uleb128 0x1
 1596 015d 12       		.uleb128 0x12
 1597 015e 01       		.uleb128 0x1
 1598 015f 40       		.uleb128 0x40
 1599 0160 0A       		.uleb128 0xa
 1600 0161 9742     		.uleb128 0x2117
 1601 0163 0C       		.uleb128 0xc
 1602 0164 01       		.uleb128 0x1
 1603 0165 13       		.uleb128 0x13
 1604 0166 00       		.byte	0
 1605 0167 00       		.byte	0
 1606 0168 1A       		.uleb128 0x1a
 1607 0169 2E       		.uleb128 0x2e
 1608 016a 01       		.byte	0x1
 1609 016b 3F       		.uleb128 0x3f
 1610 016c 0C       		.uleb128 0xc
 1611 016d 03       		.uleb128 0x3
 1612 016e 0E       		.uleb128 0xe
 1613 016f 3A       		.uleb128 0x3a
 1614 0170 0B       		.uleb128 0xb
 1615 0171 3B       		.uleb128 0x3b
 1616 0172 0B       		.uleb128 0xb
 1617 0173 27       		.uleb128 0x27
 1618 0174 0C       		.uleb128 0xc
 1619 0175 49       		.uleb128 0x49
 1620 0176 13       		.uleb128 0x13
 1621 0177 3C       		.uleb128 0x3c
 1622 0178 0C       		.uleb128 0xc
 1623 0179 01       		.uleb128 0x1
 1624 017a 13       		.uleb128 0x13
 1625 017b 00       		.byte	0
 1626 017c 00       		.byte	0
 1627 017d 1B       		.uleb128 0x1b
 1628 017e 05       		.uleb128 0x5
 1629 017f 00       		.byte	0
 1630 0180 49       		.uleb128 0x49
 1631 0181 13       		.uleb128 0x13
 1632 0182 00       		.byte	0
 1633 0183 00       		.byte	0
 1634 0184 1C       		.uleb128 0x1c
 1635 0185 2E       		.uleb128 0x2e
 1636 0186 01       		.byte	0x1
 1637 0187 3F       		.uleb128 0x3f
 1638 0188 0C       		.uleb128 0xc
 1639 0189 03       		.uleb128 0x3
 1640 018a 0E       		.uleb128 0xe
 1641 018b 3A       		.uleb128 0x3a
 1642 018c 0B       		.uleb128 0xb
 1643 018d 3B       		.uleb128 0x3b
ARM GAS  /tmp/ccHwIlCP.s 			page 30


 1644 018e 0B       		.uleb128 0xb
 1645 018f 27       		.uleb128 0x27
 1646 0190 0C       		.uleb128 0xc
 1647 0191 3C       		.uleb128 0x3c
 1648 0192 0C       		.uleb128 0xc
 1649 0193 01       		.uleb128 0x1
 1650 0194 13       		.uleb128 0x13
 1651 0195 00       		.byte	0
 1652 0196 00       		.byte	0
 1653 0197 1D       		.uleb128 0x1d
 1654 0198 2E       		.uleb128 0x2e
 1655 0199 00       		.byte	0
 1656 019a 3F       		.uleb128 0x3f
 1657 019b 0C       		.uleb128 0xc
 1658 019c 03       		.uleb128 0x3
 1659 019d 0E       		.uleb128 0xe
 1660 019e 3A       		.uleb128 0x3a
 1661 019f 0B       		.uleb128 0xb
 1662 01a0 3B       		.uleb128 0x3b
 1663 01a1 05       		.uleb128 0x5
 1664 01a2 27       		.uleb128 0x27
 1665 01a3 0C       		.uleb128 0xc
 1666 01a4 3C       		.uleb128 0x3c
 1667 01a5 0C       		.uleb128 0xc
 1668 01a6 00       		.byte	0
 1669 01a7 00       		.byte	0
 1670 01a8 1E       		.uleb128 0x1e
 1671 01a9 2E       		.uleb128 0x2e
 1672 01aa 01       		.byte	0x1
 1673 01ab 3F       		.uleb128 0x3f
 1674 01ac 0C       		.uleb128 0xc
 1675 01ad 03       		.uleb128 0x3
 1676 01ae 0E       		.uleb128 0xe
 1677 01af 3A       		.uleb128 0x3a
 1678 01b0 0B       		.uleb128 0xb
 1679 01b1 3B       		.uleb128 0x3b
 1680 01b2 0B       		.uleb128 0xb
 1681 01b3 27       		.uleb128 0x27
 1682 01b4 0C       		.uleb128 0xc
 1683 01b5 3C       		.uleb128 0x3c
 1684 01b6 0C       		.uleb128 0xc
 1685 01b7 00       		.byte	0
 1686 01b8 00       		.byte	0
 1687 01b9 00       		.byte	0
 1688              		.section	.debug_loc,"",%progbits
 1689              	.Ldebug_loc0:
 1690              	.LLST0:
 1691 0000 00000000 		.4byte	.LFB7
 1692 0004 02000000 		.4byte	.LCFI0
 1693 0008 0200     		.2byte	0x2
 1694 000a 7D       		.byte	0x7d
 1695 000b 00       		.sleb128 0
 1696 000c 02000000 		.4byte	.LCFI0
 1697 0010 16000000 		.4byte	.LFE7
 1698 0014 0200     		.2byte	0x2
 1699 0016 7D       		.byte	0x7d
 1700 0017 08       		.sleb128 8
ARM GAS  /tmp/ccHwIlCP.s 			page 31


 1701 0018 00000000 		.4byte	0
 1702 001c 00000000 		.4byte	0
 1703              	.LLST1:
 1704 0020 00000000 		.4byte	.LFB8
 1705 0024 02000000 		.4byte	.LCFI1
 1706 0028 0200     		.2byte	0x2
 1707 002a 7D       		.byte	0x7d
 1708 002b 00       		.sleb128 0
 1709 002c 02000000 		.4byte	.LCFI1
 1710 0030 22000000 		.4byte	.LFE8
 1711 0034 0200     		.2byte	0x2
 1712 0036 7D       		.byte	0x7d
 1713 0037 08       		.sleb128 8
 1714 0038 00000000 		.4byte	0
 1715 003c 00000000 		.4byte	0
 1716              	.LLST2:
 1717 0040 00000000 		.4byte	.LVL1
 1718 0044 08000000 		.4byte	.LVL2
 1719 0048 0100     		.2byte	0x1
 1720 004a 50       		.byte	0x50
 1721 004b 08000000 		.4byte	.LVL2
 1722 004f 20000000 		.4byte	.LVL4
 1723 0053 0100     		.2byte	0x1
 1724 0055 54       		.byte	0x54
 1725 0056 20000000 		.4byte	.LVL4
 1726 005a 22000000 		.4byte	.LFE8
 1727 005e 0100     		.2byte	0x1
 1728 0060 50       		.byte	0x50
 1729 0061 00000000 		.4byte	0
 1730 0065 00000000 		.4byte	0
 1731              	.LLST3:
 1732 0069 00000000 		.4byte	.LFB9
 1733 006d 02000000 		.4byte	.LCFI2
 1734 0071 0200     		.2byte	0x2
 1735 0073 7D       		.byte	0x7d
 1736 0074 00       		.sleb128 0
 1737 0075 02000000 		.4byte	.LCFI2
 1738 0079 3A000000 		.4byte	.LFE9
 1739 007d 0200     		.2byte	0x2
 1740 007f 7D       		.byte	0x7d
 1741 0080 10       		.sleb128 16
 1742 0081 00000000 		.4byte	0
 1743 0085 00000000 		.4byte	0
 1744              	.LLST4:
 1745 0089 00000000 		.4byte	.LVL5
 1746 008d 0A000000 		.4byte	.LVL6
 1747 0091 0100     		.2byte	0x1
 1748 0093 50       		.byte	0x50
 1749 0094 0A000000 		.4byte	.LVL6
 1750 0098 32000000 		.4byte	.LVL10
 1751 009c 0100     		.2byte	0x1
 1752 009e 54       		.byte	0x54
 1753 009f 32000000 		.4byte	.LVL10
 1754 00a3 35000000 		.4byte	.LVL11-1
 1755 00a7 0100     		.2byte	0x1
 1756 00a9 50       		.byte	0x50
 1757 00aa 35000000 		.4byte	.LVL11-1
ARM GAS  /tmp/ccHwIlCP.s 			page 32


 1758 00ae 3A000000 		.4byte	.LFE9
 1759 00b2 0100     		.2byte	0x1
 1760 00b4 54       		.byte	0x54
 1761 00b5 00000000 		.4byte	0
 1762 00b9 00000000 		.4byte	0
 1763              	.LLST5:
 1764 00bd 00000000 		.4byte	.LVL5
 1765 00c1 0F000000 		.4byte	.LVL7-1
 1766 00c5 0100     		.2byte	0x1
 1767 00c7 51       		.byte	0x51
 1768 00c8 0F000000 		.4byte	.LVL7-1
 1769 00cc 32000000 		.4byte	.LVL10
 1770 00d0 0400     		.2byte	0x4
 1771 00d2 F3       		.byte	0xf3
 1772 00d3 01       		.uleb128 0x1
 1773 00d4 51       		.byte	0x51
 1774 00d5 9F       		.byte	0x9f
 1775 00d6 32000000 		.4byte	.LVL10
 1776 00da 35000000 		.4byte	.LVL11-1
 1777 00de 0100     		.2byte	0x1
 1778 00e0 51       		.byte	0x51
 1779 00e1 35000000 		.4byte	.LVL11-1
 1780 00e5 3A000000 		.4byte	.LFE9
 1781 00e9 0400     		.2byte	0x4
 1782 00eb F3       		.byte	0xf3
 1783 00ec 01       		.uleb128 0x1
 1784 00ed 51       		.byte	0x51
 1785 00ee 9F       		.byte	0x9f
 1786 00ef 00000000 		.4byte	0
 1787 00f3 00000000 		.4byte	0
 1788              	.LLST6:
 1789 00f7 00000000 		.4byte	.LFB10
 1790 00fb 02000000 		.4byte	.LCFI3
 1791 00ff 0200     		.2byte	0x2
 1792 0101 7D       		.byte	0x7d
 1793 0102 00       		.sleb128 0
 1794 0103 02000000 		.4byte	.LCFI3
 1795 0107 1E000000 		.4byte	.LFE10
 1796 010b 0200     		.2byte	0x2
 1797 010d 7D       		.byte	0x7d
 1798 010e 08       		.sleb128 8
 1799 010f 00000000 		.4byte	0
 1800 0113 00000000 		.4byte	0
 1801              	.LLST7:
 1802 0117 00000000 		.4byte	.LVL12
 1803 011b 08000000 		.4byte	.LVL13
 1804 011f 0100     		.2byte	0x1
 1805 0121 50       		.byte	0x50
 1806 0122 08000000 		.4byte	.LVL13
 1807 0126 16000000 		.4byte	.LVL15
 1808 012a 0100     		.2byte	0x1
 1809 012c 54       		.byte	0x54
 1810 012d 16000000 		.4byte	.LVL15
 1811 0131 1D000000 		.4byte	.LVL16-1
 1812 0135 0100     		.2byte	0x1
 1813 0137 50       		.byte	0x50
 1814 0138 1D000000 		.4byte	.LVL16-1
ARM GAS  /tmp/ccHwIlCP.s 			page 33


 1815 013c 1E000000 		.4byte	.LFE10
 1816 0140 0100     		.2byte	0x1
 1817 0142 54       		.byte	0x54
 1818 0143 00000000 		.4byte	0
 1819 0147 00000000 		.4byte	0
 1820              	.LLST8:
 1821 014b 00000000 		.4byte	.LFB11
 1822 014f 02000000 		.4byte	.LCFI4
 1823 0153 0200     		.2byte	0x2
 1824 0155 7D       		.byte	0x7d
 1825 0156 00       		.sleb128 0
 1826 0157 02000000 		.4byte	.LCFI4
 1827 015b 3E000000 		.4byte	.LFE11
 1828 015f 0200     		.2byte	0x2
 1829 0161 7D       		.byte	0x7d
 1830 0162 10       		.sleb128 16
 1831 0163 00000000 		.4byte	0
 1832 0167 00000000 		.4byte	0
 1833              	.LLST9:
 1834 016b 00000000 		.4byte	.LVL17
 1835 016f 0C000000 		.4byte	.LVL18
 1836 0173 0100     		.2byte	0x1
 1837 0175 50       		.byte	0x50
 1838 0176 0C000000 		.4byte	.LVL18
 1839 017a 36000000 		.4byte	.LVL21
 1840 017e 0100     		.2byte	0x1
 1841 0180 54       		.byte	0x54
 1842 0181 36000000 		.4byte	.LVL21
 1843 0185 39000000 		.4byte	.LVL22-1
 1844 0189 0100     		.2byte	0x1
 1845 018b 50       		.byte	0x50
 1846 018c 39000000 		.4byte	.LVL22-1
 1847 0190 3E000000 		.4byte	.LFE11
 1848 0194 0100     		.2byte	0x1
 1849 0196 54       		.byte	0x54
 1850 0197 00000000 		.4byte	0
 1851 019b 00000000 		.4byte	0
 1852              	.LLST10:
 1853 019f 00000000 		.4byte	.LVL17
 1854 01a3 11000000 		.4byte	.LVL19-1
 1855 01a7 0100     		.2byte	0x1
 1856 01a9 51       		.byte	0x51
 1857 01aa 11000000 		.4byte	.LVL19-1
 1858 01ae 36000000 		.4byte	.LVL21
 1859 01b2 0100     		.2byte	0x1
 1860 01b4 56       		.byte	0x56
 1861 01b5 36000000 		.4byte	.LVL21
 1862 01b9 39000000 		.4byte	.LVL22-1
 1863 01bd 0100     		.2byte	0x1
 1864 01bf 51       		.byte	0x51
 1865 01c0 39000000 		.4byte	.LVL22-1
 1866 01c4 3E000000 		.4byte	.LFE11
 1867 01c8 0100     		.2byte	0x1
 1868 01ca 56       		.byte	0x56
 1869 01cb 00000000 		.4byte	0
 1870 01cf 00000000 		.4byte	0
 1871              	.LLST11:
ARM GAS  /tmp/ccHwIlCP.s 			page 34


 1872 01d3 00000000 		.4byte	.LVL17
 1873 01d7 11000000 		.4byte	.LVL19-1
 1874 01db 0100     		.2byte	0x1
 1875 01dd 52       		.byte	0x52
 1876 01de 11000000 		.4byte	.LVL19-1
 1877 01e2 36000000 		.4byte	.LVL21
 1878 01e6 0400     		.2byte	0x4
 1879 01e8 F3       		.byte	0xf3
 1880 01e9 01       		.uleb128 0x1
 1881 01ea 52       		.byte	0x52
 1882 01eb 9F       		.byte	0x9f
 1883 01ec 36000000 		.4byte	.LVL21
 1884 01f0 39000000 		.4byte	.LVL22-1
 1885 01f4 0100     		.2byte	0x1
 1886 01f6 52       		.byte	0x52
 1887 01f7 39000000 		.4byte	.LVL22-1
 1888 01fb 3E000000 		.4byte	.LFE11
 1889 01ff 0400     		.2byte	0x4
 1890 0201 F3       		.byte	0xf3
 1891 0202 01       		.uleb128 0x1
 1892 0203 52       		.byte	0x52
 1893 0204 9F       		.byte	0x9f
 1894 0205 00000000 		.4byte	0
 1895 0209 00000000 		.4byte	0
 1896              	.LLST12:
 1897 020d 00000000 		.4byte	.LFB12
 1898 0211 02000000 		.4byte	.LCFI5
 1899 0215 0200     		.2byte	0x2
 1900 0217 7D       		.byte	0x7d
 1901 0218 00       		.sleb128 0
 1902 0219 02000000 		.4byte	.LCFI5
 1903 021d 2A000000 		.4byte	.LFE12
 1904 0221 0200     		.2byte	0x2
 1905 0223 7D       		.byte	0x7d
 1906 0224 10       		.sleb128 16
 1907 0225 00000000 		.4byte	0
 1908 0229 00000000 		.4byte	0
 1909              	.LLST13:
 1910 022d 00000000 		.4byte	.LVL23
 1911 0231 0C000000 		.4byte	.LVL24
 1912 0235 0100     		.2byte	0x1
 1913 0237 50       		.byte	0x50
 1914 0238 0C000000 		.4byte	.LVL24
 1915 023c 22000000 		.4byte	.LVL27
 1916 0240 0100     		.2byte	0x1
 1917 0242 54       		.byte	0x54
 1918 0243 22000000 		.4byte	.LVL27
 1919 0247 29000000 		.4byte	.LVL28-1
 1920 024b 0100     		.2byte	0x1
 1921 024d 50       		.byte	0x50
 1922 024e 29000000 		.4byte	.LVL28-1
 1923 0252 2A000000 		.4byte	.LFE12
 1924 0256 0100     		.2byte	0x1
 1925 0258 54       		.byte	0x54
 1926 0259 00000000 		.4byte	0
 1927 025d 00000000 		.4byte	0
 1928              	.LLST14:
ARM GAS  /tmp/ccHwIlCP.s 			page 35


 1929 0261 00000000 		.4byte	.LVL23
 1930 0265 0E000000 		.4byte	.LVL25
 1931 0269 0100     		.2byte	0x1
 1932 026b 51       		.byte	0x51
 1933 026c 0E000000 		.4byte	.LVL25
 1934 0270 22000000 		.4byte	.LVL27
 1935 0274 0100     		.2byte	0x1
 1936 0276 55       		.byte	0x55
 1937 0277 22000000 		.4byte	.LVL27
 1938 027b 29000000 		.4byte	.LVL28-1
 1939 027f 0100     		.2byte	0x1
 1940 0281 51       		.byte	0x51
 1941 0282 29000000 		.4byte	.LVL28-1
 1942 0286 2A000000 		.4byte	.LFE12
 1943 028a 0100     		.2byte	0x1
 1944 028c 55       		.byte	0x55
 1945 028d 00000000 		.4byte	0
 1946 0291 00000000 		.4byte	0
 1947              	.LLST15:
 1948 0295 00000000 		.4byte	.LFB13
 1949 0299 02000000 		.4byte	.LCFI6
 1950 029d 0200     		.2byte	0x2
 1951 029f 7D       		.byte	0x7d
 1952 02a0 00       		.sleb128 0
 1953 02a1 02000000 		.4byte	.LCFI6
 1954 02a5 28000000 		.4byte	.LFE13
 1955 02a9 0200     		.2byte	0x2
 1956 02ab 7D       		.byte	0x7d
 1957 02ac 08       		.sleb128 8
 1958 02ad 00000000 		.4byte	0
 1959 02b1 00000000 		.4byte	0
 1960              	.LLST16:
 1961 02b5 00000000 		.4byte	.LVL29
 1962 02b9 12000000 		.4byte	.LVL30
 1963 02bd 0100     		.2byte	0x1
 1964 02bf 50       		.byte	0x50
 1965 02c0 12000000 		.4byte	.LVL30
 1966 02c4 1C000000 		.4byte	.LVL33
 1967 02c8 0400     		.2byte	0x4
 1968 02ca F3       		.byte	0xf3
 1969 02cb 01       		.uleb128 0x1
 1970 02cc 50       		.byte	0x50
 1971 02cd 9F       		.byte	0x9f
 1972 02ce 1C000000 		.4byte	.LVL33
 1973 02d2 1F000000 		.4byte	.LVL34-1
 1974 02d6 0100     		.2byte	0x1
 1975 02d8 50       		.byte	0x50
 1976 02d9 1F000000 		.4byte	.LVL34-1
 1977 02dd 24000000 		.4byte	.LVL35
 1978 02e1 0400     		.2byte	0x4
 1979 02e3 F3       		.byte	0xf3
 1980 02e4 01       		.uleb128 0x1
 1981 02e5 50       		.byte	0x50
 1982 02e6 9F       		.byte	0x9f
 1983 02e7 24000000 		.4byte	.LVL35
 1984 02eb 28000000 		.4byte	.LFE13
 1985 02ef 0100     		.2byte	0x1
ARM GAS  /tmp/ccHwIlCP.s 			page 36


 1986 02f1 50       		.byte	0x50
 1987 02f2 00000000 		.4byte	0
 1988 02f6 00000000 		.4byte	0
 1989              	.LLST17:
 1990 02fa 00000000 		.4byte	.LVL29
 1991 02fe 14000000 		.4byte	.LVL31
 1992 0302 0100     		.2byte	0x1
 1993 0304 51       		.byte	0x51
 1994 0305 14000000 		.4byte	.LVL31
 1995 0309 1C000000 		.4byte	.LVL33
 1996 030d 0400     		.2byte	0x4
 1997 030f F3       		.byte	0xf3
 1998 0310 01       		.uleb128 0x1
 1999 0311 51       		.byte	0x51
 2000 0312 9F       		.byte	0x9f
 2001 0313 1C000000 		.4byte	.LVL33
 2002 0317 1F000000 		.4byte	.LVL34-1
 2003 031b 0100     		.2byte	0x1
 2004 031d 51       		.byte	0x51
 2005 031e 1F000000 		.4byte	.LVL34-1
 2006 0322 24000000 		.4byte	.LVL35
 2007 0326 0400     		.2byte	0x4
 2008 0328 F3       		.byte	0xf3
 2009 0329 01       		.uleb128 0x1
 2010 032a 51       		.byte	0x51
 2011 032b 9F       		.byte	0x9f
 2012 032c 24000000 		.4byte	.LVL35
 2013 0330 28000000 		.4byte	.LFE13
 2014 0334 0100     		.2byte	0x1
 2015 0336 51       		.byte	0x51
 2016 0337 00000000 		.4byte	0
 2017 033b 00000000 		.4byte	0
 2018              	.LLST18:
 2019 033f 00000000 		.4byte	.LVL29
 2020 0343 18000000 		.4byte	.LVL32
 2021 0347 0100     		.2byte	0x1
 2022 0349 52       		.byte	0x52
 2023 034a 18000000 		.4byte	.LVL32
 2024 034e 1C000000 		.4byte	.LVL33
 2025 0352 0400     		.2byte	0x4
 2026 0354 F3       		.byte	0xf3
 2027 0355 01       		.uleb128 0x1
 2028 0356 52       		.byte	0x52
 2029 0357 9F       		.byte	0x9f
 2030 0358 1C000000 		.4byte	.LVL33
 2031 035c 1F000000 		.4byte	.LVL34-1
 2032 0360 0100     		.2byte	0x1
 2033 0362 52       		.byte	0x52
 2034 0363 1F000000 		.4byte	.LVL34-1
 2035 0367 24000000 		.4byte	.LVL35
 2036 036b 0400     		.2byte	0x4
 2037 036d F3       		.byte	0xf3
 2038 036e 01       		.uleb128 0x1
 2039 036f 52       		.byte	0x52
 2040 0370 9F       		.byte	0x9f
 2041 0371 24000000 		.4byte	.LVL35
 2042 0375 28000000 		.4byte	.LFE13
ARM GAS  /tmp/ccHwIlCP.s 			page 37


 2043 0379 0100     		.2byte	0x1
 2044 037b 52       		.byte	0x52
 2045 037c 00000000 		.4byte	0
 2046 0380 00000000 		.4byte	0
 2047              	.LLST19:
 2048 0384 00000000 		.4byte	.LFB14
 2049 0388 02000000 		.4byte	.LCFI7
 2050 038c 0200     		.2byte	0x2
 2051 038e 7D       		.byte	0x7d
 2052 038f 00       		.sleb128 0
 2053 0390 02000000 		.4byte	.LCFI7
 2054 0394 26000000 		.4byte	.LFE14
 2055 0398 0200     		.2byte	0x2
 2056 039a 7D       		.byte	0x7d
 2057 039b 08       		.sleb128 8
 2058 039c 00000000 		.4byte	0
 2059 03a0 00000000 		.4byte	0
 2060              	.LLST20:
 2061 03a4 00000000 		.4byte	.LVL36
 2062 03a8 12000000 		.4byte	.LVL37
 2063 03ac 0100     		.2byte	0x1
 2064 03ae 50       		.byte	0x50
 2065 03af 12000000 		.4byte	.LVL37
 2066 03b3 1A000000 		.4byte	.LVL38
 2067 03b7 0400     		.2byte	0x4
 2068 03b9 F3       		.byte	0xf3
 2069 03ba 01       		.uleb128 0x1
 2070 03bb 50       		.byte	0x50
 2071 03bc 9F       		.byte	0x9f
 2072 03bd 1A000000 		.4byte	.LVL38
 2073 03c1 1C000000 		.4byte	.LVL39
 2074 03c5 0100     		.2byte	0x1
 2075 03c7 50       		.byte	0x50
 2076 03c8 1C000000 		.4byte	.LVL39
 2077 03cc 1E000000 		.4byte	.LVL40
 2078 03d0 0400     		.2byte	0x4
 2079 03d2 F3       		.byte	0xf3
 2080 03d3 01       		.uleb128 0x1
 2081 03d4 50       		.byte	0x50
 2082 03d5 9F       		.byte	0x9f
 2083 03d6 1E000000 		.4byte	.LVL40
 2084 03da 21000000 		.4byte	.LVL41-1
 2085 03de 0100     		.2byte	0x1
 2086 03e0 50       		.byte	0x50
 2087 03e1 21000000 		.4byte	.LVL41-1
 2088 03e5 26000000 		.4byte	.LFE14
 2089 03e9 0400     		.2byte	0x4
 2090 03eb F3       		.byte	0xf3
 2091 03ec 01       		.uleb128 0x1
 2092 03ed 50       		.byte	0x50
 2093 03ee 9F       		.byte	0x9f
 2094 03ef 00000000 		.4byte	0
 2095 03f3 00000000 		.4byte	0
 2096              	.LLST21:
 2097 03f7 00000000 		.4byte	.LVL42
 2098 03fb 0B000000 		.4byte	.LVL43-1
 2099 03ff 0100     		.2byte	0x1
ARM GAS  /tmp/ccHwIlCP.s 			page 38


 2100 0401 50       		.byte	0x50
 2101 0402 0B000000 		.4byte	.LVL43-1
 2102 0406 0C000000 		.4byte	.LFE15
 2103 040a 0400     		.2byte	0x4
 2104 040c F3       		.byte	0xf3
 2105 040d 01       		.uleb128 0x1
 2106 040e 50       		.byte	0x50
 2107 040f 9F       		.byte	0x9f
 2108 0410 00000000 		.4byte	0
 2109 0414 00000000 		.4byte	0
 2110              		.section	.debug_aranges,"",%progbits
 2111 0000 5C000000 		.4byte	0x5c
 2112 0004 0200     		.2byte	0x2
 2113 0006 00000000 		.4byte	.Ldebug_info0
 2114 000a 04       		.byte	0x4
 2115 000b 00       		.byte	0
 2116 000c 0000     		.2byte	0
 2117 000e 0000     		.2byte	0
 2118 0010 00000000 		.4byte	.LFB7
 2119 0014 16000000 		.4byte	.LFE7-.LFB7
 2120 0018 00000000 		.4byte	.LFB8
 2121 001c 22000000 		.4byte	.LFE8-.LFB8
 2122 0020 00000000 		.4byte	.LFB9
 2123 0024 3A000000 		.4byte	.LFE9-.LFB9
 2124 0028 00000000 		.4byte	.LFB10
 2125 002c 1E000000 		.4byte	.LFE10-.LFB10
 2126 0030 00000000 		.4byte	.LFB11
 2127 0034 3E000000 		.4byte	.LFE11-.LFB11
 2128 0038 00000000 		.4byte	.LFB12
 2129 003c 2A000000 		.4byte	.LFE12-.LFB12
 2130 0040 00000000 		.4byte	.LFB13
 2131 0044 28000000 		.4byte	.LFE13-.LFB13
 2132 0048 00000000 		.4byte	.LFB14
 2133 004c 26000000 		.4byte	.LFE14-.LFB14
 2134 0050 00000000 		.4byte	.LFB15
 2135 0054 0C000000 		.4byte	.LFE15-.LFB15
 2136 0058 00000000 		.4byte	0
 2137 005c 00000000 		.4byte	0
 2138              		.section	.debug_ranges,"",%progbits
 2139              	.Ldebug_ranges0:
 2140 0000 00000000 		.4byte	.LFB7
 2141 0004 16000000 		.4byte	.LFE7
 2142 0008 00000000 		.4byte	.LFB8
 2143 000c 22000000 		.4byte	.LFE8
 2144 0010 00000000 		.4byte	.LFB9
 2145 0014 3A000000 		.4byte	.LFE9
 2146 0018 00000000 		.4byte	.LFB10
 2147 001c 1E000000 		.4byte	.LFE10
 2148 0020 00000000 		.4byte	.LFB11
 2149 0024 3E000000 		.4byte	.LFE11
 2150 0028 00000000 		.4byte	.LFB12
 2151 002c 2A000000 		.4byte	.LFE12
 2152 0030 00000000 		.4byte	.LFB13
 2153 0034 28000000 		.4byte	.LFE13
 2154 0038 00000000 		.4byte	.LFB14
 2155 003c 26000000 		.4byte	.LFE14
 2156 0040 00000000 		.4byte	.LFB15
ARM GAS  /tmp/ccHwIlCP.s 			page 39


 2157 0044 0C000000 		.4byte	.LFE15
 2158 0048 00000000 		.4byte	0
 2159 004c 00000000 		.4byte	0
 2160              		.section	.debug_line,"",%progbits
 2161              	.Ldebug_line0:
 2162 0000 7F020000 		.section	.debug_str,"MS",%progbits,1
 2162      02005D01 
 2162      00000201 
 2162      FB0E0D00 
 2162      01010101 
 2163              	.LASF75:
 2164 0000 2E2E2F2E 		.ascii	"../../ext/lwip/src/api/netbuf.c\000"
 2164      2E2F6578 
 2164      742F6C77 
 2164      69702F73 
 2164      72632F61 
 2165              	.LASF72:
 2166 0020 70627566 		.ascii	"pbuf_free\000"
 2166      5F667265 
 2166      6500
 2167              	.LASF77:
 2168 002a 6D656D70 		.ascii	"memp_free\000"
 2168      5F667265 
 2168      6500
 2169              	.LASF68:
 2170 0034 6E657462 		.ascii	"netbuf_data\000"
 2170      75665F64 
 2170      61746100 
 2171              	.LASF2:
 2172 0040 696E7438 		.ascii	"int8_t\000"
 2172      5F7400
 2173              	.LASF59:
 2174 0047 6E657462 		.ascii	"netbuf_alloc\000"
 2174      75665F61 
 2174      6C6C6F63 
 2174      00
 2175              	.LASF50:
 2176 0054 4D454D50 		.ascii	"MEMP_NETCONN\000"
 2176      5F4E4554 
 2176      434F4E4E 
 2176      00
 2177              	.LASF5:
 2178 0061 73686F72 		.ascii	"short int\000"
 2178      7420696E 
 2178      7400
 2179              	.LASF57:
 2180 006b 6D656D70 		.ascii	"memp_t\000"
 2180      5F7400
 2181              	.LASF46:
 2182 0072 4D454D50 		.ascii	"MEMP_TCP_SEG\000"
 2182      5F544350 
 2182      5F534547 
 2182      00
 2183              	.LASF14:
 2184 007f 73697A65 		.ascii	"sizetype\000"
 2184      74797065 
 2184      00
ARM GAS  /tmp/ccHwIlCP.s 			page 40


 2185              	.LASF76:
 2186 0088 2F686F6D 		.ascii	"/home/witold/Dokumenty/arm/ChibiOS-master/demos/ARM"
 2186      652F7769 
 2186      746F6C64 
 2186      2F446F6B 
 2186      756D656E 
 2187 00bb 434D342D 		.ascii	"CM4-STM32F407-LWIP\000"
 2187      53544D33 
 2187      32463430 
 2187      372D4C57 
 2187      495000
 2188              	.LASF78:
 2189 00ce 706F7274 		.ascii	"port_halt\000"
 2189      5F68616C 
 2189      7400
 2190              	.LASF74:
 2191 00d8 474E5520 		.ascii	"GNU C 4.7.4 20130613 (release) [ARM/embedded-4_7-br"
 2191      4320342E 
 2191      372E3420 
 2191      32303133 
 2191      30363133 
 2192 010b 616E6368 		.ascii	"anch revision 200083]\000"
 2192      20726576 
 2192      6973696F 
 2192      6E203230 
 2192      30303833 
 2193              	.LASF53:
 2194 0121 4D454D50 		.ascii	"MEMP_SYS_TIMEOUT\000"
 2194      5F535953 
 2194      5F54494D 
 2194      454F5554 
 2194      00
 2195              	.LASF66:
 2196 0132 68656164 		.ascii	"head\000"
 2196      00
 2197              	.LASF26:
 2198 0137 50425546 		.ascii	"PBUF_RAM\000"
 2198      5F52414D 
 2198      00
 2199              	.LASF45:
 2200 0140 4D454D50 		.ascii	"MEMP_TCP_PCB_LISTEN\000"
 2200      5F544350 
 2200      5F504342 
 2200      5F4C4953 
 2200      54454E00 
 2201              	.LASF24:
 2202 0154 50425546 		.ascii	"PBUF_RAW\000"
 2202      5F524157 
 2202      00
 2203              	.LASF48:
 2204 015d 4D454D50 		.ascii	"MEMP_FRAG_PBUF\000"
 2204      5F465241 
 2204      475F5042 
 2204      554600
 2205              	.LASF17:
 2206 016c 73385F74 		.ascii	"s8_t\000"
 2206      00
ARM GAS  /tmp/ccHwIlCP.s 			page 41


 2207              	.LASF11:
 2208 0171 6C6F6E67 		.ascii	"long long int\000"
 2208      206C6F6E 
 2208      6720696E 
 2208      7400
 2209              	.LASF69:
 2210 017f 6E657462 		.ascii	"netbuf_next\000"
 2210      75665F6E 
 2210      65787400 
 2211              	.LASF63:
 2212 018b 6E657462 		.ascii	"netbuf_ref\000"
 2212      75665F72 
 2212      656600
 2213              	.LASF40:
 2214 0196 6E657462 		.ascii	"netbuf\000"
 2214      756600
 2215              	.LASF36:
 2216 019d 70627566 		.ascii	"pbuf\000"
 2216      00
 2217              	.LASF8:
 2218 01a2 6C6F6E67 		.ascii	"long int\000"
 2218      20696E74 
 2218      00
 2219              	.LASF39:
 2220 01ab 69705F61 		.ascii	"ip_addr_t\000"
 2220      6464725F 
 2220      7400
 2221              	.LASF38:
 2222 01b5 61646472 		.ascii	"addr\000"
 2222      00
 2223              	.LASF79:
 2224 01ba 70627566 		.ascii	"pbuf_cat\000"
 2224      5F636174 
 2224      00
 2225              	.LASF4:
 2226 01c3 756E7369 		.ascii	"unsigned char\000"
 2226      676E6564 
 2226      20636861 
 2226      7200
 2227              	.LASF67:
 2228 01d1 7461696C 		.ascii	"tail\000"
 2228      00
 2229              	.LASF56:
 2230 01d6 4D454D50 		.ascii	"MEMP_MAX\000"
 2230      5F4D4158 
 2230      00
 2231              	.LASF1:
 2232 01df 7369676E 		.ascii	"signed char\000"
 2232      65642063 
 2232      68617200 
 2233              	.LASF35:
 2234 01eb 666C6167 		.ascii	"flags\000"
 2234      7300
 2235              	.LASF12:
 2236 01f1 6C6F6E67 		.ascii	"long long unsigned int\000"
 2236      206C6F6E 
 2236      6720756E 
ARM GAS  /tmp/ccHwIlCP.s 			page 42


 2236      7369676E 
 2236      65642069 
 2237              	.LASF9:
 2238 0208 75696E74 		.ascii	"uint32_t\000"
 2238      33325F74 
 2238      00
 2239              	.LASF0:
 2240 0211 756E7369 		.ascii	"unsigned int\000"
 2240      676E6564 
 2240      20696E74 
 2240      00
 2241              	.LASF6:
 2242 021e 75696E74 		.ascii	"uint16_t\000"
 2242      31365F74 
 2242      00
 2243              	.LASF25:
 2244 0227 70627566 		.ascii	"pbuf_layer\000"
 2244      5F6C6179 
 2244      657200
 2245              	.LASF29:
 2246 0232 50425546 		.ascii	"PBUF_POOL\000"
 2246      5F504F4F 
 2246      4C00
 2247              	.LASF47:
 2248 023c 4D454D50 		.ascii	"MEMP_REASSDATA\000"
 2248      5F524541 
 2248      53534441 
 2248      544100
 2249              	.LASF62:
 2250 024b 6E657462 		.ascii	"netbuf_free\000"
 2250      75665F66 
 2250      72656500 
 2251              	.LASF20:
 2252 0257 6572725F 		.ascii	"err_t\000"
 2252      7400
 2253              	.LASF15:
 2254 025d 63686172 		.ascii	"char\000"
 2254      00
 2255              	.LASF34:
 2256 0262 74797065 		.ascii	"type\000"
 2256      00
 2257              	.LASF51:
 2258 0267 4D454D50 		.ascii	"MEMP_TCPIP_MSG_API\000"
 2258      5F544350 
 2258      49505F4D 
 2258      53475F41 
 2258      504900
 2259              	.LASF7:
 2260 027a 73686F72 		.ascii	"short unsigned int\000"
 2260      7420756E 
 2260      7369676E 
 2260      65642069 
 2260      6E7400
 2261              	.LASF73:
 2262 028d 70627566 		.ascii	"pbuf_alloc\000"
 2262      5F616C6C 
 2262      6F6300
ARM GAS  /tmp/ccHwIlCP.s 			page 43


 2263              	.LASF13:
 2264 0298 5F426F6F 		.ascii	"_Bool\000"
 2264      6C00
 2265              	.LASF54:
 2266 029e 4D454D50 		.ascii	"MEMP_PBUF\000"
 2266      5F504255 
 2266      4600
 2267              	.LASF65:
 2268 02a8 6E657462 		.ascii	"netbuf_chain\000"
 2268      75665F63 
 2268      6861696E 
 2268      00
 2269              	.LASF21:
 2270 02b5 50425546 		.ascii	"PBUF_TRANSPORT\000"
 2270      5F545241 
 2270      4E53504F 
 2270      525400
 2271              	.LASF22:
 2272 02c4 50425546 		.ascii	"PBUF_IP\000"
 2272      5F495000 
 2273              	.LASF41:
 2274 02cc 706F7274 		.ascii	"port\000"
 2274      00
 2275              	.LASF70:
 2276 02d1 6E657462 		.ascii	"netbuf_first\000"
 2276      75665F66 
 2276      69727374 
 2276      00
 2277              	.LASF10:
 2278 02de 6C6F6E67 		.ascii	"long unsigned int\000"
 2278      20756E73 
 2278      69676E65 
 2278      6420696E 
 2278      7400
 2279              	.LASF30:
 2280 02f0 70627566 		.ascii	"pbuf_type\000"
 2280      5F747970 
 2280      6500
 2281              	.LASF42:
 2282 02fa 4D454D50 		.ascii	"MEMP_RAW_PCB\000"
 2282      5F524157 
 2282      5F504342 
 2282      00
 2283              	.LASF60:
 2284 0307 73697A65 		.ascii	"size\000"
 2284      00
 2285              	.LASF61:
 2286 030c 6E657462 		.ascii	"netbuf_delete\000"
 2286      75665F64 
 2286      656C6574 
 2286      6500
 2287              	.LASF16:
 2288 031a 75385F74 		.ascii	"u8_t\000"
 2288      00
 2289              	.LASF19:
 2290 031f 7533325F 		.ascii	"u32_t\000"
 2290      7400
ARM GAS  /tmp/ccHwIlCP.s 			page 44


 2291              	.LASF3:
 2292 0325 75696E74 		.ascii	"uint8_t\000"
 2292      385F7400 
 2293              	.LASF18:
 2294 032d 7531365F 		.ascii	"u16_t\000"
 2294      7400
 2295              	.LASF55:
 2296 0333 4D454D50 		.ascii	"MEMP_PBUF_POOL\000"
 2296      5F504255 
 2296      465F504F 
 2296      4F4C00
 2297              	.LASF58:
 2298 0342 6E657462 		.ascii	"netbuf_new\000"
 2298      75665F6E 
 2298      657700
 2299              	.LASF52:
 2300 034d 4D454D50 		.ascii	"MEMP_TCPIP_MSG_INPKT\000"
 2300      5F544350 
 2300      49505F4D 
 2300      53475F49 
 2300      4E504B54 
 2301              	.LASF64:
 2302 0362 64617461 		.ascii	"dataptr\000"
 2302      70747200 
 2303              	.LASF33:
 2304 036a 746F745F 		.ascii	"tot_len\000"
 2304      6C656E00 
 2305              	.LASF44:
 2306 0372 4D454D50 		.ascii	"MEMP_TCP_PCB\000"
 2306      5F544350 
 2306      5F504342 
 2306      00
 2307              	.LASF71:
 2308 037f 6D656D70 		.ascii	"memp_malloc\000"
 2308      5F6D616C 
 2308      6C6F6300 
 2309              	.LASF43:
 2310 038b 4D454D50 		.ascii	"MEMP_UDP_PCB\000"
 2310      5F554450 
 2310      5F504342 
 2310      00
 2311              	.LASF28:
 2312 0398 50425546 		.ascii	"PBUF_REF\000"
 2312      5F524546 
 2312      00
 2313              	.LASF37:
 2314 03a1 69705F61 		.ascii	"ip_addr\000"
 2314      64647200 
 2315              	.LASF27:
 2316 03a9 50425546 		.ascii	"PBUF_ROM\000"
 2316      5F524F4D 
 2316      00
 2317              	.LASF32:
 2318 03b2 7061796C 		.ascii	"payload\000"
 2318      6F616400 
 2319              	.LASF31:
 2320 03ba 6E657874 		.ascii	"next\000"
ARM GAS  /tmp/ccHwIlCP.s 			page 45


 2320      00
 2321              	.LASF49:
 2322 03bf 4D454D50 		.ascii	"MEMP_NETBUF\000"
 2322      5F4E4554 
 2322      42554600 
 2323              	.LASF23:
 2324 03cb 50425546 		.ascii	"PBUF_LINK\000"
 2324      5F4C494E 
 2324      4B00
 2325              		.ident	"GCC: (GNU Tools for ARM Embedded Processors) 4.7.4 20130613 (release) [ARM/embedded-4_7-br
ARM GAS  /tmp/ccHwIlCP.s 			page 46


DEFINED SYMBOLS
                            *ABS*:00000000 netbuf.c
     /tmp/ccHwIlCP.s:19     .text.netbuf_new:00000000 $t
     /tmp/ccHwIlCP.s:25     .text.netbuf_new:00000000 netbuf_new
     /tmp/ccHwIlCP.s:59     .text.netbuf_delete:00000000 $t
     /tmp/ccHwIlCP.s:65     .text.netbuf_delete:00000000 netbuf_delete
     /tmp/ccHwIlCP.s:106    .text.netbuf_alloc:00000000 $t
     /tmp/ccHwIlCP.s:112    .text.netbuf_alloc:00000000 netbuf_alloc
     /tmp/ccHwIlCP.s:178    .text.netbuf_free:00000000 $t
     /tmp/ccHwIlCP.s:184    .text.netbuf_free:00000000 netbuf_free
     /tmp/ccHwIlCP.s:223    .text.netbuf_ref:00000000 $t
     /tmp/ccHwIlCP.s:229    .text.netbuf_ref:00000000 netbuf_ref
     /tmp/ccHwIlCP.s:298    .text.netbuf_chain:00000000 $t
     /tmp/ccHwIlCP.s:304    .text.netbuf_chain:00000000 netbuf_chain
     /tmp/ccHwIlCP.s:355    .text.netbuf_data:00000000 $t
     /tmp/ccHwIlCP.s:361    .text.netbuf_data:00000000 netbuf_data
     /tmp/ccHwIlCP.s:415    .text.netbuf_next:00000000 $t
     /tmp/ccHwIlCP.s:421    .text.netbuf_next:00000000 netbuf_next
     /tmp/ccHwIlCP.s:469    .text.netbuf_first:00000000 $t
     /tmp/ccHwIlCP.s:475    .text.netbuf_first:00000000 netbuf_first
                     .debug_frame:00000010 $d

UNDEFINED SYMBOLS
memp_malloc
pbuf_free
memp_free
pbuf_alloc
port_halt
pbuf_cat
