ARM GAS  /tmp/cc0LECFC.s 			page 1


   1              		.syntax unified
   2              		.cpu cortex-m4
   3              		.fpu softvfp
   4              		.eabi_attribute 20, 1
   5              		.eabi_attribute 21, 1
   6              		.eabi_attribute 23, 3
   7              		.eabi_attribute 24, 1
   8              		.eabi_attribute 25, 1
   9              		.eabi_attribute 26, 1
  10              		.eabi_attribute 30, 2
  11              		.eabi_attribute 34, 1
  12              		.eabi_attribute 18, 4
  13              		.thumb
  14              		.file	"netif.c"
  15              		.text
  16              	.Ltext0:
  17              		.cfi_sections	.debug_frame
  18              		.section	.text.netif_init,"ax",%progbits
  19              		.align	2
  20              		.p2align 4,,15
  21              		.global	netif_init
  22              		.thumb
  23              		.thumb_func
  24              		.type	netif_init, %function
  25              	netif_init:
  26              	.LFB7:
  27              		.file 1 "../../ext/lwip/src/core/netif.c"
  28              		.loc 1 107 0
  29              		.cfi_startproc
  30              		@ args = 0, pretend = 0, frame = 0
  31              		@ frame_needed = 0, uses_anonymous_args = 0
  32              		@ link register save eliminated.
  33 0000 7047     		bx	lr
  34              		.cfi_endproc
  35              	.LFE7:
  36              		.size	netif_init, .-netif_init
  37 0002 00BFAFF3 		.section	.text.netif_find,"ax",%progbits
  37      0080AFF3 
  37      0080AFF3 
  37      0080
  38              		.align	2
  39              		.p2align 4,,15
  40              		.global	netif_find
  41              		.thumb
  42              		.thumb_func
  43              		.type	netif_find, %function
  44              	netif_find:
  45              	.LFB11:
  46              		.loc 1 291 0
  47              		.cfi_startproc
  48              		@ args = 0, pretend = 0, frame = 0
  49              		@ frame_needed = 0, uses_anonymous_args = 0
  50              		@ link register save eliminated.
  51              	.LVL0:
  52              		.loc 1 291 0
  53 0000 10B4     		push	{r4}
  54              	.LCFI0:
ARM GAS  /tmp/cc0LECFC.s 			page 2


  55              		.cfi_def_cfa_offset 4
  56              		.cfi_offset 4, -4
  57              		.loc 1 295 0
  58 0002 C8B1     		cbz	r0, .L6
  59              		.loc 1 301 0
  60 0004 0D4B     		ldr	r3, .L13
  61              		.loc 1 299 0
  62 0006 8178     		ldrb	r1, [r0, #2]	@ zero_extendqisi2
  63              		.loc 1 301 0
  64 0008 1B68     		ldr	r3, [r3, #0]
  65              		.loc 1 299 0
  66 000a 3039     		subs	r1, r1, #48
  67 000c C9B2     		uxtb	r1, r1
  68              	.LVL1:
  69              		.loc 1 301 0
  70 000e 13B9     		cbnz	r3, .L9
  71 0010 0FE0     		b	.L3
  72              	.L4:
  73 0012 1B68     		ldr	r3, [r3, #0]
  74              	.LVL2:
  75 0014 6BB1     		cbz	r3, .L3
  76              	.L9:
  77              		.loc 1 302 0
  78 0016 93F82C20 		ldrb	r2, [r3, #44]	@ zero_extendqisi2
  79 001a 8A42     		cmp	r2, r1
  80 001c F9D1     		bne	.L4
  81              		.loc 1 302 0 is_stmt 0 discriminator 1
  82 001e 93F82A20 		ldrb	r2, [r3, #42]	@ zero_extendqisi2
  83 0022 0478     		ldrb	r4, [r0, #0]	@ zero_extendqisi2
  84 0024 9442     		cmp	r4, r2
  85 0026 F4D1     		bne	.L4
  86              		.loc 1 303 0 is_stmt 1
  87 0028 93F82B20 		ldrb	r2, [r3, #43]	@ zero_extendqisi2
  88 002c 4478     		ldrb	r4, [r0, #1]	@ zero_extendqisi2
  89 002e 9442     		cmp	r4, r2
  90 0030 EFD1     		bne	.L4
  91              	.LVL3:
  92              	.L3:
  93              		.loc 1 311 0
  94 0032 1846     		mov	r0, r3
  95              	.LVL4:
  96 0034 10BC     		pop	{r4}
  97 0036 7047     		bx	lr
  98              	.LVL5:
  99              	.L6:
 100              		.loc 1 296 0
 101 0038 0346     		mov	r3, r0
 102 003a FAE7     		b	.L3
 103              	.L14:
 104              		.align	2
 105              	.L13:
 106 003c 00000000 		.word	.LANCHOR0
 107              		.cfi_endproc
 108              	.LFE11:
 109              		.size	netif_find, .-netif_find
 110              		.section	.text.netif_set_ipaddr,"ax",%progbits
 111              		.align	2
ARM GAS  /tmp/cc0LECFC.s 			page 3


 112              		.p2align 4,,15
 113              		.global	netif_set_ipaddr
 114              		.thumb
 115              		.thumb_func
 116              		.type	netif_set_ipaddr, %function
 117              	netif_set_ipaddr:
 118              	.LFB12:
 119              		.loc 1 324 0
 120              		.cfi_startproc
 121              		@ args = 0, pretend = 0, frame = 0
 122              		@ frame_needed = 0, uses_anonymous_args = 0
 123              	.LVL6:
 124 0000 70B5     		push	{r4, r5, r6, lr}
 125              	.LCFI1:
 126              		.cfi_def_cfa_offset 16
 127              		.cfi_offset 4, -16
 128              		.cfi_offset 5, -12
 129              		.cfi_offset 6, -8
 130              		.cfi_offset 14, -4
 131              		.loc 1 332 0
 132 0002 0E46     		mov	r6, r1
 133              		.loc 1 324 0
 134 0004 0546     		mov	r5, r0
 135              		.loc 1 332 0
 136 0006 0029     		cmp	r1, #0
 137 0008 25D0     		beq	.L25
 138              		.loc 1 332 0 is_stmt 0 discriminator 1
 139 000a 0C68     		ldr	r4, [r1, #0]
 140 000c 4268     		ldr	r2, [r0, #4]
 141 000e 9442     		cmp	r4, r2
 142 0010 1FD0     		beq	.L16
 143              		.loc 1 335 0 is_stmt 1
 144 0012 124B     		ldr	r3, .L40
 145 0014 1868     		ldr	r0, [r3, #0]
 146              	.LVL7:
 147              		.loc 1 336 0
 148 0016 78B1     		cbz	r0, .L18
 149              		.loc 1 338 0
 150 0018 0468     		ldr	r4, [r0, #0]
 151 001a 9442     		cmp	r4, r2
 152 001c 05D0     		beq	.L38
 153              	.LVL8:
 154              	.L19:
 155              		.loc 1 350 0
 156 001e C068     		ldr	r0, [r0, #12]
 157              	.LVL9:
 158              		.loc 1 336 0
 159 0020 48B1     		cbz	r0, .L21
 160              	.L39:
 161 0022 6A68     		ldr	r2, [r5, #4]
 162              		.loc 1 338 0
 163 0024 0468     		ldr	r4, [r0, #0]
 164 0026 9442     		cmp	r4, r2
 165 0028 F9D1     		bne	.L19
 166              	.L38:
 167              	.LBB9:
 168              		.loc 1 345 0
ARM GAS  /tmp/cc0LECFC.s 			page 4


 169 002a C468     		ldr	r4, [r0, #12]
 170              	.LVL10:
 171              		.loc 1 347 0
 172 002c FFF7FEFF 		bl	tcp_abort
 173              	.LVL11:
 174              		.loc 1 348 0
 175 0030 2046     		mov	r0, r4
 176              	.LBE9:
 177              		.loc 1 336 0
 178 0032 0028     		cmp	r0, #0
 179 0034 F5D1     		bne	.L39
 180              	.LVL12:
 181              	.L21:
 182 0036 3468     		ldr	r4, [r6, #0]
 183              	.L18:
 184              		.loc 1 353 0
 185 0038 0948     		ldr	r0, .L40+4
 186              	.LVL13:
 187 003a 0368     		ldr	r3, [r0, #0]
 188              	.LVL14:
 189 003c 4BB1     		cbz	r3, .L16
 190              	.L32:
 191              		.loc 1 355 0
 192 003e 1A68     		ldr	r2, [r3, #0]
 193 0040 22B1     		cbz	r2, .L23
 194              		.loc 1 355 0 is_stmt 0 discriminator 1
 195 0042 6968     		ldr	r1, [r5, #4]
 196 0044 8A42     		cmp	r2, r1
 197              		.loc 1 359 0 is_stmt 1 discriminator 1
 198 0046 04BF     		itt	eq
 199 0048 1C60     		streq	r4, [r3, #0]
 200 004a 3468     		ldreq	r4, [r6, #0]
 201              	.L23:
 202              		.loc 1 353 0
 203 004c DB68     		ldr	r3, [r3, #12]
 204              	.LVL15:
 205 004e 002B     		cmp	r3, #0
 206 0050 F5D1     		bne	.L32
 207              	.LVL16:
 208              	.L16:
 209              		.loc 1 367 0 discriminator 3
 210 0052 6C60     		str	r4, [r5, #4]
 211 0054 70BD     		pop	{r4, r5, r6, pc}
 212              	.LVL17:
 213              	.L25:
 214              		.loc 1 367 0 is_stmt 0
 215 0056 0C46     		mov	r4, r1
 216 0058 6C60     		str	r4, [r5, #4]
 217 005a 70BD     		pop	{r4, r5, r6, pc}
 218              	.L41:
 219              		.align	2
 220              	.L40:
 221 005c 00000000 		.word	tcp_active_pcbs
 222 0060 00000000 		.word	tcp_listen_pcbs
 223              		.cfi_endproc
 224              	.LFE12:
 225              		.size	netif_set_ipaddr, .-netif_set_ipaddr
ARM GAS  /tmp/cc0LECFC.s 			page 5


 226 0064 AFF30080 		.section	.text.netif_set_addr,"ax",%progbits
 226      AFF30080 
 226      AFF30080 
 227              		.align	2
 228              		.p2align 4,,15
 229              		.global	netif_set_addr
 230              		.thumb
 231              		.thumb_func
 232              		.type	netif_set_addr, %function
 233              	netif_set_addr:
 234              	.LFB9:
 235              		.loc 1 223 0 is_stmt 1
 236              		.cfi_startproc
 237              		@ args = 0, pretend = 0, frame = 0
 238              		@ frame_needed = 0, uses_anonymous_args = 0
 239              	.LVL18:
 240 0000 70B5     		push	{r4, r5, r6, lr}
 241              	.LCFI2:
 242              		.cfi_def_cfa_offset 16
 243              		.cfi_offset 4, -16
 244              		.cfi_offset 5, -12
 245              		.cfi_offset 6, -8
 246              		.cfi_offset 14, -4
 247              		.loc 1 223 0
 248 0002 1546     		mov	r5, r2
 249 0004 0446     		mov	r4, r0
 250 0006 1E46     		mov	r6, r3
 251              		.loc 1 224 0
 252 0008 FFF7FEFF 		bl	netif_set_ipaddr
 253              	.LVL19:
 254              	.LBB10:
 255              	.LBB11:
 256              		.loc 1 413 0
 257 000c 05B1     		cbz	r5, .L43
 258 000e 2D68     		ldr	r5, [r5, #0]
 259              	.LVL20:
 260              	.L43:
 261 0010 A560     		str	r5, [r4, #8]
 262              	.LVL21:
 263              	.LBE11:
 264              	.LBE10:
 265              	.LBB12:
 266              	.LBB13:
 267              		.loc 1 390 0
 268 0012 06B1     		cbz	r6, .L44
 269 0014 3668     		ldr	r6, [r6, #0]
 270              	.LVL22:
 271              	.L44:
 272 0016 E660     		str	r6, [r4, #12]
 273 0018 70BD     		pop	{r4, r5, r6, pc}
 274              	.LBE13:
 275              	.LBE12:
 276              		.cfi_endproc
 277              	.LFE9:
 278              		.size	netif_set_addr, .-netif_set_addr
 279 001a 00BFAFF3 		.section	.text.netif_add,"ax",%progbits
 279      0080
ARM GAS  /tmp/cc0LECFC.s 			page 6


 280              		.align	2
 281              		.p2align 4,,15
 282              		.global	netif_add
 283              		.thumb
 284              		.thumb_func
 285              		.type	netif_add, %function
 286              	netif_add:
 287              	.LFB8:
 288              		.loc 1 141 0
 289              		.cfi_startproc
 290              		@ args = 12, pretend = 0, frame = 16
 291              		@ frame_needed = 0, uses_anonymous_args = 0
 292              	.LVL23:
 293 0000 F0B5     		push	{r4, r5, r6, r7, lr}
 294              	.LCFI3:
 295              		.cfi_def_cfa_offset 20
 296              		.cfi_offset 4, -20
 297              		.cfi_offset 5, -16
 298              		.cfi_offset 6, -12
 299              		.cfi_offset 7, -8
 300              		.cfi_offset 14, -4
 301 0002 85B0     		sub	sp, sp, #20
 302              	.LCFI4:
 303              		.cfi_def_cfa_offset 40
 304              		.loc 1 141 0
 305 0004 0446     		mov	r4, r0
 306 0006 0B9E     		ldr	r6, [sp, #44]
 307              		.loc 1 143 0
 308 0008 002E     		cmp	r6, #0
 309 000a 20D0     		beq	.L51
 310              	.LVL24:
 311              	.L48:
 312              		.loc 1 173 0
 313 000c 0A98     		ldr	r0, [sp, #40]
 314              		.loc 1 174 0
 315 000e 144F     		ldr	r7, .L52
 316              		.loc 1 175 0
 317 0010 0C9D     		ldr	r5, [sp, #48]
 318              		.loc 1 173 0
 319 0012 E061     		str	r0, [r4, #28]
 320              		.loc 1 174 0
 321 0014 3878     		ldrb	r0, [r7, #0]	@ zero_extendqisi2
 322              		.loc 1 175 0
 323 0016 2561     		str	r5, [r4, #16]
 324              		.loc 1 146 0
 325 0018 0025     		movs	r5, #0
 326              		.loc 1 174 0
 327 001a 00F1010E 		add	lr, r0, #1
 328 001e 84F82C00 		strb	r0, [r4, #44]
 329              		.loc 1 146 0
 330 0022 6560     		str	r5, [r4, #4]
 331              		.loc 1 181 0
 332 0024 2046     		mov	r0, r4
 333              		.loc 1 147 0
 334 0026 A560     		str	r5, [r4, #8]
 335              		.loc 1 148 0
 336 0028 E560     		str	r5, [r4, #12]
ARM GAS  /tmp/cc0LECFC.s 			page 7


 337              		.loc 1 149 0
 338 002a 84F82950 		strb	r5, [r4, #41]
 339              		.loc 1 174 0
 340 002e 87F800E0 		strb	lr, [r7, #0]
 341              		.loc 1 181 0
 342 0032 FFF7FEFF 		bl	netif_set_addr
 343              	.LVL25:
 344              		.loc 1 184 0
 345 0036 2046     		mov	r0, r4
 346 0038 B047     		blx	r6
 347              	.LVL26:
 348 003a 30B9     		cbnz	r0, .L50
 349              		.loc 1 189 0
 350 003c 094B     		ldr	r3, .L52+4
 351 003e 1A68     		ldr	r2, [r3, #0]
 352 0040 2260     		str	r2, [r4, #0]
 353              		.loc 1 190 0
 354 0042 1C60     		str	r4, [r3, #0]
 355              	.LVL27:
 356              	.L49:
 357              		.loc 1 209 0
 358 0044 2046     		mov	r0, r4
 359 0046 05B0     		add	sp, sp, #20
 360 0048 F0BD     		pop	{r4, r5, r6, r7, pc}
 361              	.LVL28:
 362              	.L50:
 363              		.loc 1 185 0
 364 004a 2C46     		mov	r4, r5
 365              	.LVL29:
 366 004c FAE7     		b	.L49
 367              	.LVL30:
 368              	.L51:
 369              		.loc 1 143 0 discriminator 1
 370 004e 0391     		str	r1, [sp, #12]
 371 0050 0292     		str	r2, [sp, #8]
 372 0052 0193     		str	r3, [sp, #4]
 373 0054 FFF7FEFF 		bl	port_halt
 374              	.LVL31:
 375 0058 019B     		ldr	r3, [sp, #4]
 376 005a 029A     		ldr	r2, [sp, #8]
 377 005c 0399     		ldr	r1, [sp, #12]
 378 005e D5E7     		b	.L48
 379              	.L53:
 380              		.align	2
 381              	.L52:
 382 0060 00000000 		.word	.LANCHOR1
 383 0064 00000000 		.word	.LANCHOR0
 384              		.cfi_endproc
 385              	.LFE8:
 386              		.size	netif_add, .-netif_add
 387 0068 AFF30080 		.section	.text.netif_set_gw,"ax",%progbits
 387      AFF30080 
 388              		.align	2
 389              		.p2align 4,,15
 390              		.global	netif_set_gw
 391              		.thumb
 392              		.thumb_func
ARM GAS  /tmp/cc0LECFC.s 			page 8


 393              		.type	netif_set_gw, %function
 394              	netif_set_gw:
 395              	.LFB13:
 396              		.loc 1 389 0
 397              		.cfi_startproc
 398              		@ args = 0, pretend = 0, frame = 0
 399              		@ frame_needed = 0, uses_anonymous_args = 0
 400              		@ link register save eliminated.
 401              	.LVL32:
 402              		.loc 1 390 0
 403 0000 01B1     		cbz	r1, .L55
 404              		.loc 1 390 0 is_stmt 0 discriminator 1
 405 0002 0968     		ldr	r1, [r1, #0]
 406              	.LVL33:
 407              	.L55:
 408              		.loc 1 390 0 discriminator 3
 409 0004 C160     		str	r1, [r0, #12]
 410 0006 7047     		bx	lr
 411              		.cfi_endproc
 412              	.LFE13:
 413              		.size	netif_set_gw, .-netif_set_gw
 414 0008 AFF30080 		.section	.text.netif_set_netmask,"ax",%progbits
 414      AFF30080 
 415              		.align	2
 416              		.p2align 4,,15
 417              		.global	netif_set_netmask
 418              		.thumb
 419              		.thumb_func
 420              		.type	netif_set_netmask, %function
 421              	netif_set_netmask:
 422              	.LFB14:
 423              		.loc 1 410 0 is_stmt 1
 424              		.cfi_startproc
 425              		@ args = 0, pretend = 0, frame = 0
 426              		@ frame_needed = 0, uses_anonymous_args = 0
 427              		@ link register save eliminated.
 428              	.LVL34:
 429              		.loc 1 413 0
 430 0000 01B1     		cbz	r1, .L58
 431              		.loc 1 413 0 is_stmt 0 discriminator 1
 432 0002 0968     		ldr	r1, [r1, #0]
 433              	.LVL35:
 434              	.L58:
 435              		.loc 1 413 0 discriminator 3
 436 0004 8160     		str	r1, [r0, #8]
 437 0006 7047     		bx	lr
 438              		.cfi_endproc
 439              	.LFE14:
 440              		.size	netif_set_netmask, .-netif_set_netmask
 441 0008 AFF30080 		.section	.text.netif_set_default,"ax",%progbits
 441      AFF30080 
 442              		.align	2
 443              		.p2align 4,,15
 444              		.global	netif_set_default
 445              		.thumb
 446              		.thumb_func
 447              		.type	netif_set_default, %function
ARM GAS  /tmp/cc0LECFC.s 			page 9


 448              	netif_set_default:
 449              	.LFB15:
 450              		.loc 1 431 0 is_stmt 1
 451              		.cfi_startproc
 452              		@ args = 0, pretend = 0, frame = 0
 453              		@ frame_needed = 0, uses_anonymous_args = 0
 454              		@ link register save eliminated.
 455              	.LVL36:
 456              		.loc 1 439 0
 457 0000 40F20003 		movw	r3, #:lower16:.LANCHOR2
 458 0004 C0F20003 		movt	r3, #:upper16:.LANCHOR2
 459 0008 1860     		str	r0, [r3, #0]
 460 000a 7047     		bx	lr
 461              		.cfi_endproc
 462              	.LFE15:
 463              		.size	netif_set_default, .-netif_set_default
 464 000c AFF30080 		.section	.text.netif_set_up,"ax",%progbits
 465              		.align	2
 466              		.p2align 4,,15
 467              		.global	netif_set_up
 468              		.thumb
 469              		.thumb_func
 470              		.type	netif_set_up, %function
 471              	netif_set_up:
 472              	.LFB16:
 473              		.loc 1 454 0
 474              		.cfi_startproc
 475              		@ args = 0, pretend = 0, frame = 0
 476              		@ frame_needed = 0, uses_anonymous_args = 0
 477              		@ link register save eliminated.
 478              	.LVL37:
 479              		.loc 1 455 0
 480 0000 90F82930 		ldrb	r3, [r0, #41]	@ zero_extendqisi2
 481 0004 DA07     		lsls	r2, r3, #31
 482 0006 07D4     		bmi	.L61
 483              		.loc 1 456 0
 484 0008 43F00102 		orr	r2, r3, #1
 485              		.loc 1 467 0
 486 000c 03F03003 		and	r3, r3, #48
 487 0010 302B     		cmp	r3, #48
 488              		.loc 1 456 0
 489 0012 80F82920 		strb	r2, [r0, #41]
 490              		.loc 1 467 0
 491 0016 00D0     		beq	.L65
 492              	.L61:
 493 0018 7047     		bx	lr
 494              	.L65:
 495              		.loc 1 468 0
 496 001a 011D     		adds	r1, r0, #4
 497              		.loc 1 480 0
 498              		.loc 1 468 0
 499 001c FFF7FEBF 		b	etharp_request
 500              	.LVL38:
 501              		.cfi_endproc
 502              	.LFE16:
 503              		.size	netif_set_up, .-netif_set_up
 504              		.section	.text.netif_set_down,"ax",%progbits
ARM GAS  /tmp/cc0LECFC.s 			page 10


 505              		.align	2
 506              		.p2align 4,,15
 507              		.global	netif_set_down
 508              		.thumb
 509              		.thumb_func
 510              		.type	netif_set_down, %function
 511              	netif_set_down:
 512              	.LFB17:
 513              		.loc 1 491 0
 514              		.cfi_startproc
 515              		@ args = 0, pretend = 0, frame = 0
 516              		@ frame_needed = 0, uses_anonymous_args = 0
 517              		@ link register save eliminated.
 518              	.LVL39:
 519              		.loc 1 492 0
 520 0000 90F82930 		ldrb	r3, [r0, #41]	@ zero_extendqisi2
 521 0004 D907     		lsls	r1, r3, #31
 522 0006 07D5     		bpl	.L66
 523              		.loc 1 499 0
 524 0008 03F02001 		and	r1, r3, #32
 525 000c C9B2     		uxtb	r1, r1
 526              		.loc 1 493 0
 527 000e 23F00103 		bic	r3, r3, #1
 528 0012 80F82930 		strb	r3, [r0, #41]
 529              		.loc 1 499 0
 530 0016 01B9     		cbnz	r1, .L73
 531              	.L66:
 532 0018 7047     		bx	lr
 533              	.L73:
 534              		.loc 1 505 0
 535              		.loc 1 500 0
 536 001a FFF7FEBF 		b	etharp_cleanup_netif
 537              	.LVL40:
 538              		.cfi_endproc
 539              	.LFE17:
 540              		.size	netif_set_down, .-netif_set_down
 541 001e 00BF     		.section	.text.netif_remove,"ax",%progbits
 542              		.align	2
 543              		.p2align 4,,15
 544              		.global	netif_remove
 545              		.thumb
 546              		.thumb_func
 547              		.type	netif_remove, %function
 548              	netif_remove:
 549              	.LFB10:
 550              		.loc 1 236 0
 551              		.cfi_startproc
 552              		@ args = 0, pretend = 0, frame = 0
 553              		@ frame_needed = 0, uses_anonymous_args = 0
 554              	.LVL41:
 555 0000 10B5     		push	{r4, lr}
 556              	.LCFI5:
 557              		.cfi_def_cfa_offset 8
 558              		.cfi_offset 4, -8
 559              		.cfi_offset 14, -4
 560              		.loc 1 237 0
 561 0002 0446     		mov	r4, r0
ARM GAS  /tmp/cc0LECFC.s 			page 11


 562 0004 E0B1     		cbz	r0, .L74
 563              		.loc 1 247 0
 564 0006 90F82930 		ldrb	r3, [r0, #41]	@ zero_extendqisi2
 565 000a DB07     		lsls	r3, r3, #31
 566 000c 19D4     		bmi	.L93
 567              	.LVL42:
 568              	.L77:
 569              		.loc 1 255 0
 570 000e 0E48     		ldr	r0, .L96
 571 0010 0268     		ldr	r2, [r0, #0]
 572 0012 A242     		cmp	r2, r4
 573 0014 0CD0     		beq	.L80
 574              	.LVL43:
 575              	.LBB14:
 576              		.loc 1 260 0 discriminator 1
 577 0016 9AB1     		cbz	r2, .L74
 578              		.loc 1 261 0
 579 0018 1068     		ldr	r0, [r2, #0]
 580 001a A042     		cmp	r0, r4
 581 001c 07D0     		beq	.L94
 582              	.LVL44:
 583              		.loc 1 260 0
 584 001e 28B1     		cbz	r0, .L95
 585              	.L82:
 586              		.loc 1 261 0
 587 0020 0168     		ldr	r1, [r0, #0]
 588 0022 A142     		cmp	r1, r4
 589 0024 04D0     		beq	.L80
 590 0026 0846     		mov	r0, r1
 591              	.LVL45:
 592              		.loc 1 260 0
 593 0028 0028     		cmp	r0, #0
 594 002a F9D1     		bne	.L82
 595              	.L95:
 596 002c 10BD     		pop	{r4, pc}
 597              	.LVL46:
 598              	.L94:
 599              		.loc 1 261 0
 600 002e 1046     		mov	r0, r2
 601              	.LVL47:
 602              	.L80:
 603              		.loc 1 262 0
 604 0030 2368     		ldr	r3, [r4, #0]
 605 0032 0360     		str	r3, [r0, #0]
 606              	.LBE14:
 607              		.loc 1 271 0
 608 0034 0548     		ldr	r0, .L96+4
 609 0036 0268     		ldr	r2, [r0, #0]
 610 0038 A242     		cmp	r2, r4
 611 003a 01D1     		bne	.L74
 612              	.LVL48:
 613              	.LBB15:
 614              	.LBB16:
 615              		.loc 1 439 0
 616 003c 0021     		movs	r1, #0
 617 003e 0160     		str	r1, [r0, #0]
 618              	.LVL49:
ARM GAS  /tmp/cc0LECFC.s 			page 12


 619              	.L74:
 620 0040 10BD     		pop	{r4, pc}
 621              	.LVL50:
 622              	.L93:
 623              	.LBE16:
 624              	.LBE15:
 625              		.loc 1 249 0
 626 0042 FFF7FEFF 		bl	netif_set_down
 627              	.LVL51:
 628 0046 E2E7     		b	.L77
 629              	.L97:
 630              		.align	2
 631              	.L96:
 632 0048 00000000 		.word	.LANCHOR0
 633 004c 00000000 		.word	.LANCHOR2
 634              		.cfi_endproc
 635              	.LFE10:
 636              		.size	netif_remove, .-netif_remove
 637              		.section	.text.netif_set_link_up,"ax",%progbits
 638              		.align	2
 639              		.p2align 4,,15
 640              		.global	netif_set_link_up
 641              		.thumb
 642              		.thumb_func
 643              		.type	netif_set_link_up, %function
 644              	netif_set_link_up:
 645              	.LFB18:
 646              		.loc 1 536 0
 647              		.cfi_startproc
 648              		@ args = 0, pretend = 0, frame = 0
 649              		@ frame_needed = 0, uses_anonymous_args = 0
 650              		@ link register save eliminated.
 651              	.LVL52:
 652              		.loc 1 537 0
 653 0000 90F82930 		ldrb	r3, [r0, #41]	@ zero_extendqisi2
 654 0004 03F01002 		and	r2, r3, #16
 655 0008 D2B2     		uxtb	r2, r2
 656 000a 3AB9     		cbnz	r2, .L98
 657              		.loc 1 538 0
 658 000c 43F01002 		orr	r2, r3, #16
 659              		.loc 1 555 0
 660 0010 03F02103 		and	r3, r3, #33
 661 0014 212B     		cmp	r3, #33
 662              		.loc 1 538 0
 663 0016 80F82920 		strb	r2, [r0, #41]
 664              		.loc 1 555 0
 665 001a 00D0     		beq	.L102
 666              	.L98:
 667 001c 7047     		bx	lr
 668              	.L102:
 669              		.loc 1 556 0
 670 001e 011D     		adds	r1, r0, #4
 671              		.loc 1 569 0
 672              		.loc 1 556 0
 673 0020 FFF7FEBF 		b	etharp_request
 674              	.LVL53:
 675              		.cfi_endproc
ARM GAS  /tmp/cc0LECFC.s 			page 13


 676              	.LFE18:
 677              		.size	netif_set_link_up, .-netif_set_link_up
 678 0024 AFF30080 		.section	.text.netif_set_link_down,"ax",%progbits
 678      AFF30080 
 678      AFF30080 
 679              		.align	2
 680              		.p2align 4,,15
 681              		.global	netif_set_link_down
 682              		.thumb
 683              		.thumb_func
 684              		.type	netif_set_link_down, %function
 685              	netif_set_link_down:
 686              	.LFB19:
 687              		.loc 1 575 0
 688              		.cfi_startproc
 689              		@ args = 0, pretend = 0, frame = 0
 690              		@ frame_needed = 0, uses_anonymous_args = 0
 691              		@ link register save eliminated.
 692              	.LVL54:
 693              		.loc 1 576 0
 694 0000 90F82930 		ldrb	r3, [r0, #41]	@ zero_extendqisi2
 695 0004 03F01002 		and	r2, r3, #16
 696 0008 D1B2     		uxtb	r1, r2
 697 000a 19B1     		cbz	r1, .L103
 698              		.loc 1 577 0
 699 000c 23F01003 		bic	r3, r3, #16
 700 0010 80F82930 		strb	r3, [r0, #41]
 701              	.L103:
 702 0014 7047     		bx	lr
 703              		.cfi_endproc
 704              	.LFE19:
 705              		.size	netif_set_link_down, .-netif_set_link_down
 706              		.global	netif_default
 707              		.global	netif_list
 708 0016 00BFAFF3 		.section	.bss.netif_list,"aw",%nobits
 708      0080AFF3 
 708      0080
 709              		.align	2
 710              		.set	.LANCHOR0,. + 0
 711              		.type	netif_list, %object
 712              		.size	netif_list, 4
 713              	netif_list:
 714 0000 00000000 		.space	4
 715              		.section	.bss.netif_default,"aw",%nobits
 716              		.align	2
 717              		.set	.LANCHOR2,. + 0
 718              		.type	netif_default, %object
 719              		.size	netif_default, 4
 720              	netif_default:
 721 0000 00000000 		.space	4
 722              		.section	.bss.netif_num,"aw",%nobits
 723              		.set	.LANCHOR1,. + 0
 724              		.type	netif_num, %object
 725              		.size	netif_num, 1
 726              	netif_num:
 727 0000 00       		.space	1
 728              		.text
ARM GAS  /tmp/cc0LECFC.s 			page 14


 729              	.Letext0:
 730              		.file 2 "/usr/bin/../lib/gcc/arm-none-eabi/4.7.4/../../../../arm-none-eabi/include/stdint.h"
 731              		.file 3 "../../os/various/lwip_bindings/arch/cc.h"
 732              		.file 4 "../../ext/lwip/src/include/ipv4/lwip/ip_addr.h"
 733              		.file 5 "../../ext/lwip/src/include/lwip/err.h"
 734              		.file 6 "../../ext/lwip/src/include/lwip/pbuf.h"
 735              		.file 7 "../../ext/lwip/src/include/lwip/netif.h"
 736              		.file 8 "../../ext/lwip/src/include/lwip/tcp.h"
 737              		.file 9 "../../ext/lwip/src/include/lwip/tcp_impl.h"
 738              		.file 10 "../../ext/lwip/src/include/lwip/memp.h"
 739              		.file 11 "../../os/ports/GCC/ARMCMx/chcore_v7m.h"
 740              		.file 12 "../../ext/lwip/src/include/netif/etharp.h"