ARM GAS  /tmp/cc0LECFC.s 			page 1


   1              		.syntax unified
   2              		.cpu cortex-m4
   3              		.fpu softvfp
   4              		.eabi_attribute 20, 1
   5              		.eabi_attribute 21, 1
   6              		.eabi_attribute 23, 3
   7              		.eabi_attribute 24, 1
   8              		.eabi_attribute 25, 1
   9              		.eabi_attribute 26, 1
  10              		.eabi_attribute 30, 2
  11              		.eabi_attribute 34, 1
  12              		.eabi_attribute 18, 4
  13              		.thumb
  14              		.file	"netif.c"
  15              		.text
  16              	.Ltext0:
  17              		.cfi_sections	.debug_frame
  18              		.section	.text.netif_init,"ax",%progbits
  19              		.align	2
  20              		.p2align 4,,15
  21              		.global	netif_init
  22              		.thumb
  23              		.thumb_func
  24              		.type	netif_init, %function
  25              	netif_init:
  26              	.LFB7:
  27              		.file 1 "../../ext/lwip/src/core/netif.c"
  28              		.loc 1 107 0
  29              		.cfi_startproc
  30              		@ args = 0, pretend = 0, frame = 0
  31              		@ frame_needed = 0, uses_anonymous_args = 0
  32              		@ link register save eliminated.
  33 0000 7047     		bx	lr
  34              		.cfi_endproc
  35              	.LFE7:
  36              		.size	netif_init, .-netif_init
  37 0002 00BFAFF3 		.section	.text.netif_find,"ax",%progbits
  37      0080AFF3 
  37      0080AFF3 
  37      0080
  38              		.align	2
  39              		.p2align 4,,15
  40              		.global	netif_find
  41              		.thumb
  42              		.thumb_func
  43              		.type	netif_find, %function
  44              	netif_find:
  45              	.LFB11:
  46              		.loc 1 291 0
  47              		.cfi_startproc
  48              		@ args = 0, pretend = 0, frame = 0
  49              		@ frame_needed = 0, uses_anonymous_args = 0
  50              		@ link register save eliminated.
  51              	.LVL0:
  52              		.loc 1 291 0
  53 0000 10B4     		push	{r4}
  54              	.LCFI0:
ARM GAS  /tmp/cc0LECFC.s 			page 2


  55              		.cfi_def_cfa_offset 4
  56              		.cfi_offset 4, -4
  57              		.loc 1 295 0
  58 0002 C8B1     		cbz	r0, .L6
  59              		.loc 1 301 0
  60 0004 0D4B     		ldr	r3, .L13
  61              		.loc 1 299 0
  62 0006 8178     		ldrb	r1, [r0, #2]	@ zero_extendqisi2
  63              		.loc 1 301 0
  64 0008 1B68     		ldr	r3, [r3, #0]
  65              		.loc 1 299 0
  66 000a 3039     		subs	r1, r1, #48
  67 000c C9B2     		uxtb	r1, r1
  68              	.LVL1:
  69              		.loc 1 301 0
  70 000e 13B9     		cbnz	r3, .L9
  71 0010 0FE0     		b	.L3
  72              	.L4:
  73 0012 1B68     		ldr	r3, [r3, #0]
  74              	.LVL2:
  75 0014 6BB1     		cbz	r3, .L3
  76              	.L9:
  77              		.loc 1 302 0
  78 0016 93F82C20 		ldrb	r2, [r3, #44]	@ zero_extendqisi2
  79 001a 8A42     		cmp	r2, r1
  80 001c F9D1     		bne	.L4
  81              		.loc 1 302 0 is_stmt 0 discriminator 1
  82 001e 93F82A20 		ldrb	r2, [r3, #42]	@ zero_extendqisi2
  83 0022 0478     		ldrb	r4, [r0, #0]	@ zero_extendqisi2
  84 0024 9442     		cmp	r4, r2
  85 0026 F4D1     		bne	.L4
  86              		.loc 1 303 0 is_stmt 1
  87 0028 93F82B20 		ldrb	r2, [r3, #43]	@ zero_extendqisi2
  88 002c 4478     		ldrb	r4, [r0, #1]	@ zero_extendqisi2
  89 002e 9442     		cmp	r4, r2
  90 0030 EFD1     		bne	.L4
  91              	.LVL3:
  92              	.L3:
  93              		.loc 1 311 0
  94 0032 1846     		mov	r0, r3
  95              	.LVL4:
  96 0034 10BC     		pop	{r4}
  97 0036 7047     		bx	lr
  98              	.LVL5:
  99              	.L6:
 100              		.loc 1 296 0
 101 0038 0346     		mov	r3, r0
 102 003a FAE7     		b	.L3
 103              	.L14:
 104              		.align	2
 105              	.L13:
 106 003c 00000000 		.word	.LANCHOR0
 107              		.cfi_endproc
 108              	.LFE11:
 109              		.size	netif_find, .-netif_find
 110              		.section	.text.netif_set_ipaddr,"ax",%progbits
 111              		.align	2
ARM GAS  /tmp/cc0LECFC.s 			page 3


 112              		.p2align 4,,15
 113              		.global	netif_set_ipaddr
 114              		.thumb
 115              		.thumb_func
 116              		.type	netif_set_ipaddr, %function
 117              	netif_set_ipaddr:
 118              	.LFB12:
 119              		.loc 1 324 0
 120              		.cfi_startproc
 121              		@ args = 0, pretend = 0, frame = 0
 122              		@ frame_needed = 0, uses_anonymous_args = 0
 123              	.LVL6:
 124 0000 70B5     		push	{r4, r5, r6, lr}
 125              	.LCFI1:
 126              		.cfi_def_cfa_offset 16
 127              		.cfi_offset 4, -16
 128              		.cfi_offset 5, -12
 129              		.cfi_offset 6, -8
 130              		.cfi_offset 14, -4
 131              		.loc 1 332 0
 132 0002 0E46     		mov	r6, r1
 133              		.loc 1 324 0
 134 0004 0546     		mov	r5, r0
 135              		.loc 1 332 0
 136 0006 0029     		cmp	r1, #0
 137 0008 25D0     		beq	.L25
 138              		.loc 1 332 0 is_stmt 0 discriminator 1
 139 000a 0C68     		ldr	r4, [r1, #0]
 140 000c 4268     		ldr	r2, [r0, #4]
 141 000e 9442     		cmp	r4, r2
 142 0010 1FD0     		beq	.L16
 143              		.loc 1 335 0 is_stmt 1
 144 0012 124B     		ldr	r3, .L40
 145 0014 1868     		ldr	r0, [r3, #0]
 146              	.LVL7:
 147              		.loc 1 336 0
 148 0016 78B1     		cbz	r0, .L18
 149              		.loc 1 338 0
 150 0018 0468     		ldr	r4, [r0, #0]
 151 001a 9442     		cmp	r4, r2
 152 001c 05D0     		beq	.L38
 153              	.LVL8:
 154              	.L19:
 155              		.loc 1 350 0
 156 001e C068     		ldr	r0, [r0, #12]
 157              	.LVL9:
 158              		.loc 1 336 0
 159 0020 48B1     		cbz	r0, .L21
 160              	.L39:
 161 0022 6A68     		ldr	r2, [r5, #4]
 162              		.loc 1 338 0
 163 0024 0468     		ldr	r4, [r0, #0]
 164 0026 9442     		cmp	r4, r2
 165 0028 F9D1     		bne	.L19
 166              	.L38:
 167              	.LBB9:
 168              		.loc 1 345 0
ARM GAS  /tmp/cc0LECFC.s 			page 4


 169 002a C468     		ldr	r4, [r0, #12]
 170              	.LVL10:
 171              		.loc 1 347 0
 172 002c FFF7FEFF 		bl	tcp_abort
 173              	.LVL11:
 174              		.loc 1 348 0
 175 0030 2046     		mov	r0, r4
 176              	.LBE9:
 177              		.loc 1 336 0
 178 0032 0028     		cmp	r0, #0
 179 0034 F5D1     		bne	.L39
 180              	.LVL12:
 181              	.L21:
 182 0036 3468     		ldr	r4, [r6, #0]
 183              	.L18:
 184              		.loc 1 353 0
 185 0038 0948     		ldr	r0, .L40+4
 186              	.LVL13:
 187 003a 0368     		ldr	r3, [r0, #0]
 188              	.LVL14:
 189 003c 4BB1     		cbz	r3, .L16
 190              	.L32:
 191              		.loc 1 355 0
 192 003e 1A68     		ldr	r2, [r3, #0]
 193 0040 22B1     		cbz	r2, .L23
 194              		.loc 1 355 0 is_stmt 0 discriminator 1
 195 0042 6968     		ldr	r1, [r5, #4]
 196 0044 8A42     		cmp	r2, r1
 197              		.loc 1 359 0 is_stmt 1 discriminator 1
 198 0046 04BF     		itt	eq
 199 0048 1C60     		streq	r4, [r3, #0]
 200 004a 3468     		ldreq	r4, [r6, #0]
 201              	.L23:
 202              		.loc 1 353 0
 203 004c DB68     		ldr	r3, [r3, #12]
 204              	.LVL15:
 205 004e 002B     		cmp	r3, #0
 206 0050 F5D1     		bne	.L32
 207              	.LVL16:
 208              	.L16:
 209              		.loc 1 367 0 discriminator 3
 210 0052 6C60     		str	r4, [r5, #4]
 211 0054 70BD     		pop	{r4, r5, r6, pc}
 212              	.LVL17:
 213              	.L25:
 214              		.loc 1 367 0 is_stmt 0
 215 0056 0C46     		mov	r4, r1
 216 0058 6C60     		str	r4, [r5, #4]
 217 005a 70BD     		pop	{r4, r5, r6, pc}
 218              	.L41:
 219              		.align	2
 220              	.L40:
 221 005c 00000000 		.word	tcp_active_pcbs
 222 0060 00000000 		.word	tcp_listen_pcbs
 223              		.cfi_endproc
 224              	.LFE12:
 225              		.size	netif_set_ipaddr, .-netif_set_ipaddr
ARM GAS  /tmp/cc0LECFC.s 			page 5


 226 0064 AFF30080 		.section	.text.netif_set_addr,"ax",%progbits
 226      AFF30080 
 226      AFF30080 
 227              		.align	2
 228              		.p2align 4,,15
 229              		.global	netif_set_addr
 230              		.thumb
 231              		.thumb_func
 232              		.type	netif_set_addr, %function
 233              	netif_set_addr:
 234              	.LFB9:
 235              		.loc 1 223 0 is_stmt 1
 236              		.cfi_startproc
 237              		@ args = 0, pretend = 0, frame = 0
 238              		@ frame_needed = 0, uses_anonymous_args = 0
 239              	.LVL18:
 240 0000 70B5     		push	{r4, r5, r6, lr}
 241              	.LCFI2:
 242              		.cfi_def_cfa_offset 16
 243              		.cfi_offset 4, -16
 244              		.cfi_offset 5, -12
 245              		.cfi_offset 6, -8
 246              		.cfi_offset 14, -4
 247              		.loc 1 223 0
 248 0002 1546     		mov	r5, r2
 249 0004 0446     		mov	r4, r0
 250 0006 1E46     		mov	r6, r3
 251              		.loc 1 224 0
 252 0008 FFF7FEFF 		bl	netif_set_ipaddr
 253              	.LVL19:
 254              	.LBB10:
 255              	.LBB11:
 256              		.loc 1 413 0
 257 000c 05B1     		cbz	r5, .L43
 258 000e 2D68     		ldr	r5, [r5, #0]
 259              	.LVL20:
 260              	.L43:
 261 0010 A560     		str	r5, [r4, #8]
 262              	.LVL21:
 263              	.LBE11:
 264              	.LBE10:
 265              	.LBB12:
 266              	.LBB13:
 267              		.loc 1 390 0
 268 0012 06B1     		cbz	r6, .L44
 269 0014 3668     		ldr	r6, [r6, #0]
 270              	.LVL22:
 271              	.L44:
 272 0016 E660     		str	r6, [r4, #12]
 273 0018 70BD     		pop	{r4, r5, r6, pc}
 274              	.LBE13:
 275              	.LBE12:
 276              		.cfi_endproc
 277              	.LFE9:
 278              		.size	netif_set_addr, .-netif_set_addr
 279 001a 00BFAFF3 		.section	.text.netif_add,"ax",%progbits
 279      0080
ARM GAS  /tmp/cc0LECFC.s 			page 6


 280              		.align	2
 281              		.p2align 4,,15
 282              		.global	netif_add
 283              		.thumb
 284              		.thumb_func
 285              		.type	netif_add, %function
 286              	netif_add:
 287              	.LFB8:
 288              		.loc 1 141 0
 289              		.cfi_startproc
 290              		@ args = 12, pretend = 0, frame = 16
 291              		@ frame_needed = 0, uses_anonymous_args = 0
 292              	.LVL23:
 293 0000 F0B5     		push	{r4, r5, r6, r7, lr}
 294              	.LCFI3:
 295              		.cfi_def_cfa_offset 20
 296              		.cfi_offset 4, -20
 297              		.cfi_offset 5, -16
 298              		.cfi_offset 6, -12
 299              		.cfi_offset 7, -8
 300              		.cfi_offset 14, -4
 301 0002 85B0     		sub	sp, sp, #20
 302              	.LCFI4:
 303              		.cfi_def_cfa_offset 40
 304              		.loc 1 141 0
 305 0004 0446     		mov	r4, r0
 306 0006 0B9E     		ldr	r6, [sp, #44]
 307              		.loc 1 143 0
 308 0008 002E     		cmp	r6, #0
 309 000a 20D0     		beq	.L51
 310              	.LVL24:
 311              	.L48:
 312              		.loc 1 173 0
 313 000c 0A98     		ldr	r0, [sp, #40]
 314              		.loc 1 174 0
 315 000e 144F     		ldr	r7, .L52
 316              		.loc 1 175 0
 317 0010 0C9D     		ldr	r5, [sp, #48]
 318              		.loc 1 173 0
 319 0012 E061     		str	r0, [r4, #28]
 320              		.loc 1 174 0
 321 0014 3878     		ldrb	r0, [r7, #0]	@ zero_extendqisi2
 322              		.loc 1 175 0
 323 0016 2561     		str	r5, [r4, #16]
 324              		.loc 1 146 0
 325 0018 0025     		movs	r5, #0
 326              		.loc 1 174 0
 327 001a 00F1010E 		add	lr, r0, #1
 328 001e 84F82C00 		strb	r0, [r4, #44]
 329              		.loc 1 146 0
 330 0022 6560     		str	r5, [r4, #4]
 331              		.loc 1 181 0
 332 0024 2046     		mov	r0, r4
 333              		.loc 1 147 0
 334 0026 A560     		str	r5, [r4, #8]
 335              		.loc 1 148 0
 336 0028 E560     		str	r5, [r4, #12]
ARM GAS  /tmp/cc0LECFC.s 			page 7


 337              		.loc 1 149 0
 338 002a 84F82950 		strb	r5, [r4, #41]
 339              		.loc 1 174 0
 340 002e 87F800E0 		strb	lr, [r7, #0]
 341              		.loc 1 181 0
 342 0032 FFF7FEFF 		bl	netif_set_addr
 343              	.LVL25:
 344              		.loc 1 184 0
 345 0036 2046     		mov	r0, r4
 346 0038 B047     		blx	r6
 347              	.LVL26:
 348 003a 30B9     		cbnz	r0, .L50
 349              		.loc 1 189 0
 350 003c 094B     		ldr	r3, .L52+4
 351 003e 1A68     		ldr	r2, [r3, #0]
 352 0040 2260     		str	r2, [r4, #0]
 353              		.loc 1 190 0
 354 0042 1C60     		str	r4, [r3, #0]
 355              	.LVL27:
 356              	.L49:
 357              		.loc 1 209 0
 358 0044 2046     		mov	r0, r4
 359 0046 05B0     		add	sp, sp, #20
 360 0048 F0BD     		pop	{r4, r5, r6, r7, pc}
 361              	.LVL28:
 362              	.L50:
 363              		.loc 1 185 0
 364 004a 2C46     		mov	r4, r5
 365              	.LVL29:
 366 004c FAE7     		b	.L49
 367              	.LVL30:
 368              	.L51:
 369              		.loc 1 143 0 discriminator 1
 370 004e 0391     		str	r1, [sp, #12]
 371 0050 0292     		str	r2, [sp, #8]
 372 0052 0193     		str	r3, [sp, #4]
 373 0054 FFF7FEFF 		bl	port_halt
 374              	.LVL31:
 375 0058 019B     		ldr	r3, [sp, #4]
 376 005a 029A     		ldr	r2, [sp, #8]
 377 005c 0399     		ldr	r1, [sp, #12]
 378 005e D5E7     		b	.L48
 379              	.L53:
 380              		.align	2
 381              	.L52:
 382 0060 00000000 		.word	.LANCHOR1
 383 0064 00000000 		.word	.LANCHOR0
 384              		.cfi_endproc
 385              	.LFE8:
 386              		.size	netif_add, .-netif_add
 387 0068 AFF30080 		.section	.text.netif_set_gw,"ax",%progbits
 387      AFF30080 
 388              		.align	2
 389              		.p2align 4,,15
 390              		.global	netif_set_gw
 391              		.thumb
 392              		.thumb_func
ARM GAS  /tmp/cc0LECFC.s 			page 8


 393              		.type	netif_set_gw, %function
 394              	netif_set_gw:
 395              	.LFB13:
 396              		.loc 1 389 0
 397              		.cfi_startproc
 398              		@ args = 0, pretend = 0, frame = 0
 399              		@ frame_needed = 0, uses_anonymous_args = 0
 400              		@ link register save eliminated.
 401              	.LVL32:
 402              		.loc 1 390 0
 403 0000 01B1     		cbz	r1, .L55
 404              		.loc 1 390 0 is_stmt 0 discriminator 1
 405 0002 0968     		ldr	r1, [r1, #0]
 406              	.LVL33:
 407              	.L55:
 408              		.loc 1 390 0 discriminator 3
 409 0004 C160     		str	r1, [r0, #12]
 410 0006 7047     		bx	lr
 411              		.cfi_endproc
 412              	.LFE13:
 413              		.size	netif_set_gw, .-netif_set_gw
 414 0008 AFF30080 		.section	.text.netif_set_netmask,"ax",%progbits
 414      AFF30080 
 415              		.align	2
 416              		.p2align 4,,15
 417              		.global	netif_set_netmask
 418              		.thumb
 419              		.thumb_func
 420              		.type	netif_set_netmask, %function
 421              	netif_set_netmask:
 422              	.LFB14:
 423              		.loc 1 410 0 is_stmt 1
 424              		.cfi_startproc
 425              		@ args = 0, pretend = 0, frame = 0
 426              		@ frame_needed = 0, uses_anonymous_args = 0
 427              		@ link register save eliminated.
 428              	.LVL34:
 429              		.loc 1 413 0
 430 0000 01B1     		cbz	r1, .L58
 431              		.loc 1 413 0 is_stmt 0 discriminator 1
 432 0002 0968     		ldr	r1, [r1, #0]
 433              	.LVL35:
 434              	.L58:
 435              		.loc 1 413 0 discriminator 3
 436 0004 8160     		str	r1, [r0, #8]
 437 0006 7047     		bx	lr
 438              		.cfi_endproc
 439              	.LFE14:
 440              		.size	netif_set_netmask, .-netif_set_netmask
 441 0008 AFF30080 		.section	.text.netif_set_default,"ax",%progbits
 441      AFF30080 
 442              		.align	2
 443              		.p2align 4,,15
 444              		.global	netif_set_default
 445              		.thumb
 446              		.thumb_func
 447              		.type	netif_set_default, %function
ARM GAS  /tmp/cc0LECFC.s 			page 9


 448              	netif_set_default:
 449              	.LFB15:
 450              		.loc 1 431 0 is_stmt 1
 451              		.cfi_startproc
 452              		@ args = 0, pretend = 0, frame = 0
 453              		@ frame_needed = 0, uses_anonymous_args = 0
 454              		@ link register save eliminated.
 455              	.LVL36:
 456              		.loc 1 439 0
 457 0000 40F20003 		movw	r3, #:lower16:.LANCHOR2
 458 0004 C0F20003 		movt	r3, #:upper16:.LANCHOR2
 459 0008 1860     		str	r0, [r3, #0]
 460 000a 7047     		bx	lr
 461              		.cfi_endproc
 462              	.LFE15:
 463              		.size	netif_set_default, .-netif_set_default
 464 000c AFF30080 		.section	.text.netif_set_up,"ax",%progbits
 465              		.align	2
 466              		.p2align 4,,15
 467              		.global	netif_set_up
 468              		.thumb
 469              		.thumb_func
 470              		.type	netif_set_up, %function
 471              	netif_set_up:
 472              	.LFB16:
 473              		.loc 1 454 0
 474              		.cfi_startproc
 475              		@ args = 0, pretend = 0, frame = 0
 476              		@ frame_needed = 0, uses_anonymous_args = 0
 477              		@ link register save eliminated.
 478              	.LVL37:
 479              		.loc 1 455 0
 480 0000 90F82930 		ldrb	r3, [r0, #41]	@ zero_extendqisi2
 481 0004 DA07     		lsls	r2, r3, #31
 482 0006 07D4     		bmi	.L61
 483              		.loc 1 456 0
 484 0008 43F00102 		orr	r2, r3, #1
 485              		.loc 1 467 0
 486 000c 03F03003 		and	r3, r3, #48
 487 0010 302B     		cmp	r3, #48
 488              		.loc 1 456 0
 489 0012 80F82920 		strb	r2, [r0, #41]
 490              		.loc 1 467 0
 491 0016 00D0     		beq	.L65
 492              	.L61:
 493 0018 7047     		bx	lr
 494              	.L65:
 495              		.loc 1 468 0
 496 001a 011D     		adds	r1, r0, #4
 497              		.loc 1 480 0
 498              		.loc 1 468 0
 499 001c FFF7FEBF 		b	etharp_request
 500              	.LVL38:
 501              		.cfi_endproc
 502              	.LFE16:
 503              		.size	netif_set_up, .-netif_set_up
 504              		.section	.text.netif_set_down,"ax",%progbits
ARM GAS  /tmp/cc0LECFC.s 			page 10


 505              		.align	2
 506              		.p2align 4,,15
 507              		.global	netif_set_down
 508              		.thumb
 509              		.thumb_func
 510              		.type	netif_set_down, %function
 511              	netif_set_down:
 512              	.LFB17:
 513              		.loc 1 491 0
 514              		.cfi_startproc
 515              		@ args = 0, pretend = 0, frame = 0
 516              		@ frame_needed = 0, uses_anonymous_args = 0
 517              		@ link register save eliminated.
 518              	.LVL39:
 519              		.loc 1 492 0
 520 0000 90F82930 		ldrb	r3, [r0, #41]	@ zero_extendqisi2
 521 0004 D907     		lsls	r1, r3, #31
 522 0006 07D5     		bpl	.L66
 523              		.loc 1 499 0
 524 0008 03F02001 		and	r1, r3, #32
 525 000c C9B2     		uxtb	r1, r1
 526              		.loc 1 493 0
 527 000e 23F00103 		bic	r3, r3, #1
 528 0012 80F82930 		strb	r3, [r0, #41]
 529              		.loc 1 499 0
 530 0016 01B9     		cbnz	r1, .L73
 531              	.L66:
 532 0018 7047     		bx	lr
 533              	.L73:
 534              		.loc 1 505 0
 535              		.loc 1 500 0
 536 001a FFF7FEBF 		b	etharp_cleanup_netif
 537              	.LVL40:
 538              		.cfi_endproc
 539              	.LFE17:
 540              		.size	netif_set_down, .-netif_set_down
 541 001e 00BF     		.section	.text.netif_remove,"ax",%progbits
 542              		.align	2
 543              		.p2align 4,,15
 544              		.global	netif_remove
 545              		.thumb
 546              		.thumb_func
 547              		.type	netif_remove, %function
 548              	netif_remove:
 549              	.LFB10:
 550              		.loc 1 236 0
 551              		.cfi_startproc
 552              		@ args = 0, pretend = 0, frame = 0
 553              		@ frame_needed = 0, uses_anonymous_args = 0
 554              	.LVL41:
 555 0000 10B5     		push	{r4, lr}
 556              	.LCFI5:
 557              		.cfi_def_cfa_offset 8
 558              		.cfi_offset 4, -8
 559              		.cfi_offset 14, -4
 560              		.loc 1 237 0
 561 0002 0446     		mov	r4, r0
ARM GAS  /tmp/cc0LECFC.s 			page 11


 562 0004 E0B1     		cbz	r0, .L74
 563              		.loc 1 247 0
 564 0006 90F82930 		ldrb	r3, [r0, #41]	@ zero_extendqisi2
 565 000a DB07     		lsls	r3, r3, #31
 566 000c 19D4     		bmi	.L93
 567              	.LVL42:
 568              	.L77:
 569              		.loc 1 255 0
 570 000e 0E48     		ldr	r0, .L96
 571 0010 0268     		ldr	r2, [r0, #0]
 572 0012 A242     		cmp	r2, r4
 573 0014 0CD0     		beq	.L80
 574              	.LVL43:
 575              	.LBB14:
 576              		.loc 1 260 0 discriminator 1
 577 0016 9AB1     		cbz	r2, .L74
 578              		.loc 1 261 0
 579 0018 1068     		ldr	r0, [r2, #0]
 580 001a A042     		cmp	r0, r4
 581 001c 07D0     		beq	.L94
 582              	.LVL44:
 583              		.loc 1 260 0
 584 001e 28B1     		cbz	r0, .L95
 585              	.L82:
 586              		.loc 1 261 0
 587 0020 0168     		ldr	r1, [r0, #0]
 588 0022 A142     		cmp	r1, r4
 589 0024 04D0     		beq	.L80
 590 0026 0846     		mov	r0, r1
 591              	.LVL45:
 592              		.loc 1 260 0
 593 0028 0028     		cmp	r0, #0
 594 002a F9D1     		bne	.L82
 595              	.L95:
 596 002c 10BD     		pop	{r4, pc}
 597              	.LVL46:
 598              	.L94:
 599              		.loc 1 261 0
 600 002e 1046     		mov	r0, r2
 601              	.LVL47:
 602              	.L80:
 603              		.loc 1 262 0
 604 0030 2368     		ldr	r3, [r4, #0]
 605 0032 0360     		str	r3, [r0, #0]
 606              	.LBE14:
 607              		.loc 1 271 0
 608 0034 0548     		ldr	r0, .L96+4
 609 0036 0268     		ldr	r2, [r0, #0]
 610 0038 A242     		cmp	r2, r4
 611 003a 01D1     		bne	.L74
 612              	.LVL48:
 613              	.LBB15:
 614              	.LBB16:
 615              		.loc 1 439 0
 616 003c 0021     		movs	r1, #0
 617 003e 0160     		str	r1, [r0, #0]
 618              	.LVL49:
ARM GAS  /tmp/cc0LECFC.s 			page 12


 619              	.L74:
 620 0040 10BD     		pop	{r4, pc}
 621              	.LVL50:
 622              	.L93:
 623              	.LBE16:
 624              	.LBE15:
 625              		.loc 1 249 0
 626 0042 FFF7FEFF 		bl	netif_set_down
 627              	.LVL51:
 628 0046 E2E7     		b	.L77
 629              	.L97:
 630              		.align	2
 631              	.L96:
 632 0048 00000000 		.word	.LANCHOR0
 633 004c 00000000 		.word	.LANCHOR2
 634              		.cfi_endproc
 635              	.LFE10:
 636              		.size	netif_remove, .-netif_remove
 637              		.section	.text.netif_set_link_up,"ax",%progbits
 638              		.align	2
 639              		.p2align 4,,15
 640              		.global	netif_set_link_up
 641              		.thumb
 642              		.thumb_func
 643              		.type	netif_set_link_up, %function
 644              	netif_set_link_up:
 645              	.LFB18:
 646              		.loc 1 536 0
 647              		.cfi_startproc
 648              		@ args = 0, pretend = 0, frame = 0
 649              		@ frame_needed = 0, uses_anonymous_args = 0
 650              		@ link register save eliminated.
 651              	.LVL52:
 652              		.loc 1 537 0
 653 0000 90F82930 		ldrb	r3, [r0, #41]	@ zero_extendqisi2
 654 0004 03F01002 		and	r2, r3, #16
 655 0008 D2B2     		uxtb	r2, r2
 656 000a 3AB9     		cbnz	r2, .L98
 657              		.loc 1 538 0
 658 000c 43F01002 		orr	r2, r3, #16
 659              		.loc 1 555 0
 660 0010 03F02103 		and	r3, r3, #33
 661 0014 212B     		cmp	r3, #33
 662              		.loc 1 538 0
 663 0016 80F82920 		strb	r2, [r0, #41]
 664              		.loc 1 555 0
 665 001a 00D0     		beq	.L102
 666              	.L98:
 667 001c 7047     		bx	lr
 668              	.L102:
 669              		.loc 1 556 0
 670 001e 011D     		adds	r1, r0, #4
 671              		.loc 1 569 0
 672              		.loc 1 556 0
 673 0020 FFF7FEBF 		b	etharp_request
 674              	.LVL53:
 675              		.cfi_endproc
ARM GAS  /tmp/cc0LECFC.s 			page 13


 676              	.LFE18:
 677              		.size	netif_set_link_up, .-netif_set_link_up
 678 0024 AFF30080 		.section	.text.netif_set_link_down,"ax",%progbits
 678      AFF30080 
 678      AFF30080 
 679              		.align	2
 680              		.p2align 4,,15
 681              		.global	netif_set_link_down
 682              		.thumb
 683              		.thumb_func
 684              		.type	netif_set_link_down, %function
 685              	netif_set_link_down:
 686              	.LFB19:
 687              		.loc 1 575 0
 688              		.cfi_startproc
 689              		@ args = 0, pretend = 0, frame = 0
 690              		@ frame_needed = 0, uses_anonymous_args = 0
 691              		@ link register save eliminated.
 692              	.LVL54:
 693              		.loc 1 576 0
 694 0000 90F82930 		ldrb	r3, [r0, #41]	@ zero_extendqisi2
 695 0004 03F01002 		and	r2, r3, #16
 696 0008 D1B2     		uxtb	r1, r2
 697 000a 19B1     		cbz	r1, .L103
 698              		.loc 1 577 0
 699 000c 23F01003 		bic	r3, r3, #16
 700 0010 80F82930 		strb	r3, [r0, #41]
 701              	.L103:
 702 0014 7047     		bx	lr
 703              		.cfi_endproc
 704              	.LFE19:
 705              		.size	netif_set_link_down, .-netif_set_link_down
 706              		.global	netif_default
 707              		.global	netif_list
 708 0016 00BFAFF3 		.section	.bss.netif_list,"aw",%nobits
 708      0080AFF3 
 708      0080
 709              		.align	2
 710              		.set	.LANCHOR0,. + 0
 711              		.type	netif_list, %object
 712              		.size	netif_list, 4
 713              	netif_list:
 714 0000 00000000 		.space	4
 715              		.section	.bss.netif_default,"aw",%nobits
 716              		.align	2
 717              		.set	.LANCHOR2,. + 0
 718              		.type	netif_default, %object
 719              		.size	netif_default, 4
 720              	netif_default:
 721 0000 00000000 		.space	4
 722              		.section	.bss.netif_num,"aw",%nobits
 723              		.set	.LANCHOR1,. + 0
 724              		.type	netif_num, %object
 725              		.size	netif_num, 1
 726              	netif_num:
 727 0000 00       		.space	1
 728              		.text
ARM GAS  /tmp/cc0LECFC.s 			page 14


 729              	.Letext0:
 730              		.file 2 "/usr/bin/../lib/gcc/arm-none-eabi/4.7.4/../../../../arm-none-eabi/include/stdint.h"
 731              		.file 3 "../../os/various/lwip_bindings/arch/cc.h"
 732              		.file 4 "../../ext/lwip/src/include/ipv4/lwip/ip_addr.h"
 733              		.file 5 "../../ext/lwip/src/include/lwip/err.h"
 734              		.file 6 "../../ext/lwip/src/include/lwip/pbuf.h"
 735              		.file 7 "../../ext/lwip/src/include/lwip/netif.h"
 736              		.file 8 "../../ext/lwip/src/include/lwip/tcp.h"
 737              		.file 9 "../../ext/lwip/src/include/lwip/tcp_impl.h"
 738              		.file 10 "../../ext/lwip/src/include/lwip/memp.h"
 739              		.file 11 "../../os/ports/GCC/ARMCMx/chcore_v7m.h"
 740              		.file 12 "../../ext/lwip/src/include/netif/etharp.h"
 741              		.section	.debug_info,"",%progbits
 742              	.Ldebug_info0:
 743 0000 C00E0000 		.4byte	0xec0
 744 0004 0200     		.2byte	0x2
 745 0006 00000000 		.4byte	.Ldebug_abbrev0
 746 000a 04       		.byte	0x4
 747 000b 01       		.uleb128 0x1
 748 000c 88060000 		.4byte	.LASF158
 749 0010 01       		.byte	0x1
 750 0011 80010000 		.4byte	.LASF159
 751 0015 11020000 		.4byte	.LASF160
 752 0019 00000000 		.4byte	.Ldebug_ranges0+0
 753 001d 00000000 		.4byte	0
 754 0021 00000000 		.4byte	0
 755 0025 00000000 		.4byte	.Ldebug_line0
 756 0029 02       		.uleb128 0x2
 757 002a 04       		.byte	0x4
 758 002b 05       		.byte	0x5
 759 002c 696E7400 		.ascii	"int\000"
 760 0030 03       		.uleb128 0x3
 761 0031 04       		.byte	0x4
 762 0032 07       		.byte	0x7
 763 0033 5C000000 		.4byte	.LASF0
 764 0037 04       		.uleb128 0x4
 765 0038 3C010000 		.4byte	.LASF2
 766 003c 02       		.byte	0x2
 767 003d 29       		.byte	0x29
 768 003e 42000000 		.4byte	0x42
 769 0042 03       		.uleb128 0x3
 770 0043 01       		.byte	0x1
 771 0044 06       		.byte	0x6
 772 0045 01070000 		.4byte	.LASF1
 773 0049 04       		.uleb128 0x4
 774 004a 36030000 		.4byte	.LASF3
 775 004e 02       		.byte	0x2
 776 004f 2A       		.byte	0x2a
 777 0050 54000000 		.4byte	0x54
 778 0054 03       		.uleb128 0x3
 779 0055 01       		.byte	0x1
 780 0056 08       		.byte	0x8
 781 0057 F8050000 		.4byte	.LASF4
 782 005b 04       		.uleb128 0x4
 783 005c 66010000 		.4byte	.LASF5
 784 0060 02       		.byte	0x2
 785 0061 35       		.byte	0x35
ARM GAS  /tmp/cc0LECFC.s 			page 15


 786 0062 66000000 		.4byte	0x66
 787 0066 03       		.uleb128 0x3
 788 0067 02       		.byte	0x2
 789 0068 05       		.byte	0x5
 790 0069 81040000 		.4byte	.LASF6
 791 006d 04       		.uleb128 0x4
 792 006e 4A040000 		.4byte	.LASF7
 793 0072 02       		.byte	0x2
 794 0073 36       		.byte	0x36
 795 0074 78000000 		.4byte	0x78
 796 0078 03       		.uleb128 0x3
 797 0079 02       		.byte	0x2
 798 007a 07       		.byte	0x7
 799 007b 15070000 		.4byte	.LASF8
 800 007f 03       		.uleb128 0x3
 801 0080 04       		.byte	0x4
 802 0081 05       		.byte	0x5
 803 0082 8B040000 		.4byte	.LASF9
 804 0086 04       		.uleb128 0x4
 805 0087 33010000 		.4byte	.LASF10
 806 008b 02       		.byte	0x2
 807 008c 50       		.byte	0x50
 808 008d 91000000 		.4byte	0x91
 809 0091 03       		.uleb128 0x3
 810 0092 04       		.byte	0x4
 811 0093 07       		.byte	0x7
 812 0094 BF050000 		.4byte	.LASF11
 813 0098 03       		.uleb128 0x3
 814 0099 08       		.byte	0x8
 815 009a 05       		.byte	0x5
 816 009b 94030000 		.4byte	.LASF12
 817 009f 03       		.uleb128 0x3
 818 00a0 08       		.byte	0x8
 819 00a1 07       		.byte	0x7
 820 00a2 A8010000 		.4byte	.LASF13
 821 00a6 03       		.uleb128 0x3
 822 00a7 01       		.byte	0x1
 823 00a8 02       		.byte	0x2
 824 00a9 9D020000 		.4byte	.LASF14
 825 00ad 05       		.uleb128 0x5
 826 00ae 04       		.byte	0x4
 827 00af 03       		.uleb128 0x3
 828 00b0 04       		.byte	0x4
 829 00b1 07       		.byte	0x7
 830 00b2 B6050000 		.4byte	.LASF15
 831 00b6 03       		.uleb128 0x3
 832 00b7 01       		.byte	0x1
 833 00b8 08       		.byte	0x8
 834 00b9 10030000 		.4byte	.LASF16
 835 00bd 04       		.uleb128 0x4
 836 00be D4030000 		.4byte	.LASF17
 837 00c2 03       		.byte	0x3
 838 00c3 38       		.byte	0x38
 839 00c4 49000000 		.4byte	0x49
 840 00c8 04       		.uleb128 0x4
 841 00c9 BC020000 		.4byte	.LASF18
 842 00cd 03       		.byte	0x3
ARM GAS  /tmp/cc0LECFC.s 			page 16


 843 00ce 39       		.byte	0x39
 844 00cf 37000000 		.4byte	0x37
 845 00d3 04       		.uleb128 0x4
 846 00d4 A2000000 		.4byte	.LASF19
 847 00d8 03       		.byte	0x3
 848 00d9 3A       		.byte	0x3a
 849 00da 6D000000 		.4byte	0x6d
 850 00de 04       		.uleb128 0x4
 851 00df D8050000 		.4byte	.LASF20
 852 00e3 03       		.byte	0x3
 853 00e4 3B       		.byte	0x3b
 854 00e5 5B000000 		.4byte	0x5b
 855 00e9 04       		.uleb128 0x4
 856 00ea 7B040000 		.4byte	.LASF21
 857 00ee 03       		.byte	0x3
 858 00ef 3C       		.byte	0x3c
 859 00f0 86000000 		.4byte	0x86
 860 00f4 06       		.uleb128 0x6
 861 00f5 5B070000 		.4byte	.LASF24
 862 00f9 04       		.byte	0x4
 863 00fa 04       		.byte	0x4
 864 00fb 2C       		.byte	0x2c
 865 00fc 0F010000 		.4byte	0x10f
 866 0100 07       		.uleb128 0x7
 867 0101 77060000 		.4byte	.LASF26
 868 0105 04       		.byte	0x4
 869 0106 2D       		.byte	0x2d
 870 0107 E9000000 		.4byte	0xe9
 871 010b 02       		.byte	0x2
 872 010c 23       		.byte	0x23
 873 010d 00       		.uleb128 0
 874 010e 00       		.byte	0
 875 010f 04       		.uleb128 0x4
 876 0110 3E070000 		.4byte	.LASF22
 877 0114 04       		.byte	0x4
 878 0115 40       		.byte	0x40
 879 0116 F4000000 		.4byte	0xf4
 880 011a 04       		.uleb128 0x4
 881 011b 7F000000 		.4byte	.LASF23
 882 011f 05       		.byte	0x5
 883 0120 2F       		.byte	0x2f
 884 0121 C8000000 		.4byte	0xc8
 885 0125 06       		.uleb128 0x6
 886 0126 3F060000 		.4byte	.LASF25
 887 012a 10       		.byte	0x10
 888 012b 06       		.byte	0x6
 889 012c 4F       		.byte	0x4f
 890 012d 94010000 		.4byte	0x194
 891 0131 07       		.uleb128 0x7
 892 0132 7A000000 		.4byte	.LASF27
 893 0136 06       		.byte	0x6
 894 0137 51       		.byte	0x51
 895 0138 94010000 		.4byte	0x194
 896 013c 02       		.byte	0x2
 897 013d 23       		.byte	0x23
 898 013e 00       		.uleb128 0
 899 013f 07       		.uleb128 0x7
ARM GAS  /tmp/cc0LECFC.s 			page 17


 900 0140 6F020000 		.4byte	.LASF28
 901 0144 06       		.byte	0x6
 902 0145 54       		.byte	0x54
 903 0146 AD000000 		.4byte	0xad
 904 014a 02       		.byte	0x2
 905 014b 23       		.byte	0x23
 906 014c 04       		.uleb128 0x4
 907 014d 07       		.uleb128 0x7
 908 014e 60020000 		.4byte	.LASF29
 909 0152 06       		.byte	0x6
 910 0153 5D       		.byte	0x5d
 911 0154 D3000000 		.4byte	0xd3
 912 0158 02       		.byte	0x2
 913 0159 23       		.byte	0x23
 914 015a 08       		.uleb128 0x8
 915 015b 08       		.uleb128 0x8
 916 015c 6C656E00 		.ascii	"len\000"
 917 0160 06       		.byte	0x6
 918 0161 60       		.byte	0x60
 919 0162 D3000000 		.4byte	0xd3
 920 0166 02       		.byte	0x2
 921 0167 23       		.byte	0x23
 922 0168 0A       		.uleb128 0xa
 923 0169 07       		.uleb128 0x7
 924 016a F3050000 		.4byte	.LASF30
 925 016e 06       		.byte	0x6
 926 016f 63       		.byte	0x63
 927 0170 BD000000 		.4byte	0xbd
 928 0174 02       		.byte	0x2
 929 0175 23       		.byte	0x23
 930 0176 0C       		.uleb128 0xc
 931 0177 07       		.uleb128 0x7
 932 0178 4C000000 		.4byte	.LASF31
 933 017c 06       		.byte	0x6
 934 017d 66       		.byte	0x66
 935 017e BD000000 		.4byte	0xbd
 936 0182 02       		.byte	0x2
 937 0183 23       		.byte	0x23
 938 0184 0D       		.uleb128 0xd
 939 0185 08       		.uleb128 0x8
 940 0186 72656600 		.ascii	"ref\000"
 941 018a 06       		.byte	0x6
 942 018b 6D       		.byte	0x6d
 943 018c D3000000 		.4byte	0xd3
 944 0190 02       		.byte	0x2
 945 0191 23       		.byte	0x23
 946 0192 0E       		.uleb128 0xe
 947 0193 00       		.byte	0
 948 0194 09       		.uleb128 0x9
 949 0195 04       		.byte	0x4
 950 0196 25010000 		.4byte	0x125
 951 019a 04       		.uleb128 0x4
 952 019b 60040000 		.4byte	.LASF32
 953 019f 07       		.byte	0x7
 954 01a0 66       		.byte	0x66
 955 01a1 A5010000 		.4byte	0x1a5
 956 01a5 09       		.uleb128 0x9
ARM GAS  /tmp/cc0LECFC.s 			page 18


 957 01a6 04       		.byte	0x4
 958 01a7 AB010000 		.4byte	0x1ab
 959 01ab 0A       		.uleb128 0xa
 960 01ac 01       		.byte	0x1
 961 01ad 1A010000 		.4byte	0x11a
 962 01b1 BB010000 		.4byte	0x1bb
 963 01b5 0B       		.uleb128 0xb
 964 01b6 BB010000 		.4byte	0x1bb
 965 01ba 00       		.byte	0
 966 01bb 09       		.uleb128 0x9
 967 01bc 04       		.byte	0x4
 968 01bd C1010000 		.4byte	0x1c1
 969 01c1 06       		.uleb128 0x6
 970 01c2 82060000 		.4byte	.LASF33
 971 01c6 30       		.byte	0x30
 972 01c7 07       		.byte	0x7
 973 01c8 88       		.byte	0x88
 974 01c9 91020000 		.4byte	0x291
 975 01cd 07       		.uleb128 0x7
 976 01ce 7A000000 		.4byte	.LASF27
 977 01d2 07       		.byte	0x7
 978 01d3 8A       		.byte	0x8a
 979 01d4 BB010000 		.4byte	0x1bb
 980 01d8 02       		.byte	0x2
 981 01d9 23       		.byte	0x23
 982 01da 00       		.uleb128 0
 983 01db 07       		.uleb128 0x7
 984 01dc 5B070000 		.4byte	.LASF24
 985 01e0 07       		.byte	0x7
 986 01e1 8D       		.byte	0x8d
 987 01e2 0F010000 		.4byte	0x10f
 988 01e6 02       		.byte	0x2
 989 01e7 23       		.byte	0x23
 990 01e8 04       		.uleb128 0x4
 991 01e9 07       		.uleb128 0x7
 992 01ea 8C030000 		.4byte	.LASF34
 993 01ee 07       		.byte	0x7
 994 01ef 8E       		.byte	0x8e
 995 01f0 0F010000 		.4byte	0x10f
 996 01f4 02       		.byte	0x2
 997 01f5 23       		.byte	0x23
 998 01f6 08       		.uleb128 0x8
 999 01f7 08       		.uleb128 0x8
 1000 01f8 677700   		.ascii	"gw\000"
 1001 01fb 07       		.byte	0x7
 1002 01fc 8F       		.byte	0x8f
 1003 01fd 0F010000 		.4byte	0x10f
 1004 0201 02       		.byte	0x2
 1005 0202 23       		.byte	0x23
 1006 0203 0C       		.uleb128 0xc
 1007 0204 07       		.uleb128 0x7
 1008 0205 2B000000 		.4byte	.LASF35
 1009 0209 07       		.byte	0x7
 1010 020a 93       		.byte	0x93
 1011 020b 91020000 		.4byte	0x291
 1012 020f 02       		.byte	0x2
 1013 0210 23       		.byte	0x23
ARM GAS  /tmp/cc0LECFC.s 			page 19


 1014 0211 10       		.uleb128 0x10
 1015 0212 07       		.uleb128 0x7
 1016 0213 8C020000 		.4byte	.LASF36
 1017 0217 07       		.byte	0x7
 1018 0218 97       		.byte	0x97
 1019 0219 B7020000 		.4byte	0x2b7
 1020 021d 02       		.byte	0x2
 1021 021e 23       		.byte	0x23
 1022 021f 14       		.uleb128 0x14
 1023 0220 07       		.uleb128 0x7
 1024 0221 85000000 		.4byte	.LASF37
 1025 0225 07       		.byte	0x7
 1026 0226 9B       		.byte	0x9b
 1027 0227 E8020000 		.4byte	0x2e8
 1028 022b 02       		.byte	0x2
 1029 022c 23       		.byte	0x23
 1030 022d 18       		.uleb128 0x18
 1031 022e 07       		.uleb128 0x7
 1032 022f 7C060000 		.4byte	.LASF38
 1033 0233 07       		.byte	0x7
 1034 0234 AC       		.byte	0xac
 1035 0235 AD000000 		.4byte	0xad
 1036 0239 02       		.byte	0x2
 1037 023a 23       		.byte	0x23
 1038 023b 1C       		.uleb128 0x1c
 1039 023c 08       		.uleb128 0x8
 1040 023d 6D747500 		.ascii	"mtu\000"
 1041 0241 07       		.byte	0x7
 1042 0242 BA       		.byte	0xba
 1043 0243 D3000000 		.4byte	0xd3
 1044 0247 02       		.byte	0x2
 1045 0248 23       		.byte	0x23
 1046 0249 20       		.uleb128 0x20
 1047 024a 07       		.uleb128 0x7
 1048 024b CF010000 		.4byte	.LASF39
 1049 024f 07       		.byte	0x7
 1050 0250 BC       		.byte	0xbc
 1051 0251 BD000000 		.4byte	0xbd
 1052 0255 02       		.byte	0x2
 1053 0256 23       		.byte	0x23
 1054 0257 22       		.uleb128 0x22
 1055 0258 07       		.uleb128 0x7
 1056 0259 79010000 		.4byte	.LASF40
 1057 025d 07       		.byte	0x7
 1058 025e BE       		.byte	0xbe
 1059 025f 0E030000 		.4byte	0x30e
 1060 0263 02       		.byte	0x2
 1061 0264 23       		.byte	0x23
 1062 0265 23       		.uleb128 0x23
 1063 0266 07       		.uleb128 0x7
 1064 0267 4C000000 		.4byte	.LASF31
 1065 026b 07       		.byte	0x7
 1066 026c C0       		.byte	0xc0
 1067 026d BD000000 		.4byte	0xbd
 1068 0271 02       		.byte	0x2
 1069 0272 23       		.byte	0x23
 1070 0273 29       		.uleb128 0x29
ARM GAS  /tmp/cc0LECFC.s 			page 20


 1071 0274 07       		.uleb128 0x7
 1072 0275 2F050000 		.4byte	.LASF41
 1073 0279 07       		.byte	0x7
 1074 027a C2       		.byte	0xc2
 1075 027b 1E030000 		.4byte	0x31e
 1076 027f 02       		.byte	0x2
 1077 0280 23       		.byte	0x23
 1078 0281 2A       		.uleb128 0x2a
 1079 0282 08       		.uleb128 0x8
 1080 0283 6E756D00 		.ascii	"num\000"
 1081 0287 07       		.byte	0x7
 1082 0288 C4       		.byte	0xc4
 1083 0289 BD000000 		.4byte	0xbd
 1084 028d 02       		.byte	0x2
 1085 028e 23       		.byte	0x23
 1086 028f 2C       		.uleb128 0x2c
 1087 0290 00       		.byte	0
 1088 0291 04       		.uleb128 0x4
 1089 0292 24010000 		.4byte	.LASF42
 1090 0296 07       		.byte	0x7
 1091 0297 6D       		.byte	0x6d
 1092 0298 9C020000 		.4byte	0x29c
 1093 029c 09       		.uleb128 0x9
 1094 029d 04       		.byte	0x4
 1095 029e A2020000 		.4byte	0x2a2
 1096 02a2 0A       		.uleb128 0xa
 1097 02a3 01       		.byte	0x1
 1098 02a4 1A010000 		.4byte	0x11a
 1099 02a8 B7020000 		.4byte	0x2b7
 1100 02ac 0B       		.uleb128 0xb
 1101 02ad 94010000 		.4byte	0x194
 1102 02b1 0B       		.uleb128 0xb
 1103 02b2 BB010000 		.4byte	0x1bb
 1104 02b6 00       		.byte	0
 1105 02b7 04       		.uleb128 0x4
 1106 02b8 DB000000 		.4byte	.LASF43
 1107 02bc 07       		.byte	0x7
 1108 02bd 76       		.byte	0x76
 1109 02be C2020000 		.4byte	0x2c2
 1110 02c2 09       		.uleb128 0x9
 1111 02c3 04       		.byte	0x4
 1112 02c4 C8020000 		.4byte	0x2c8
 1113 02c8 0A       		.uleb128 0xa
 1114 02c9 01       		.byte	0x1
 1115 02ca 1A010000 		.4byte	0x11a
 1116 02ce E2020000 		.4byte	0x2e2
 1117 02d2 0B       		.uleb128 0xb
 1118 02d3 BB010000 		.4byte	0x1bb
 1119 02d7 0B       		.uleb128 0xb
 1120 02d8 94010000 		.4byte	0x194
 1121 02dc 0B       		.uleb128 0xb
 1122 02dd E2020000 		.4byte	0x2e2
 1123 02e1 00       		.byte	0
 1124 02e2 09       		.uleb128 0x9
 1125 02e3 04       		.byte	0x4
 1126 02e4 0F010000 		.4byte	0x10f
 1127 02e8 04       		.uleb128 0x4
ARM GAS  /tmp/cc0LECFC.s 			page 21


 1128 02e9 41050000 		.4byte	.LASF44
 1129 02ed 07       		.byte	0x7
 1130 02ee 7E       		.byte	0x7e
 1131 02ef F3020000 		.4byte	0x2f3
 1132 02f3 09       		.uleb128 0x9
 1133 02f4 04       		.byte	0x4
 1134 02f5 F9020000 		.4byte	0x2f9
 1135 02f9 0A       		.uleb128 0xa
 1136 02fa 01       		.byte	0x1
 1137 02fb 1A010000 		.4byte	0x11a
 1138 02ff 0E030000 		.4byte	0x30e
 1139 0303 0B       		.uleb128 0xb
 1140 0304 BB010000 		.4byte	0x1bb
 1141 0308 0B       		.uleb128 0xb
 1142 0309 94010000 		.4byte	0x194
 1143 030d 00       		.byte	0
 1144 030e 0C       		.uleb128 0xc
 1145 030f BD000000 		.4byte	0xbd
 1146 0313 1E030000 		.4byte	0x31e
 1147 0317 0D       		.uleb128 0xd
 1148 0318 AF000000 		.4byte	0xaf
 1149 031c 05       		.byte	0x5
 1150 031d 00       		.byte	0
 1151 031e 0C       		.uleb128 0xc
 1152 031f B6000000 		.4byte	0xb6
 1153 0323 2E030000 		.4byte	0x32e
 1154 0327 0D       		.uleb128 0xd
 1155 0328 AF000000 		.4byte	0xaf
 1156 032c 01       		.byte	0x1
 1157 032d 00       		.byte	0
 1158 032e 04       		.uleb128 0x4
 1159 032f 3E000000 		.4byte	.LASF45
 1160 0333 08       		.byte	0x8
 1161 0334 3C       		.byte	0x3c
 1162 0335 39030000 		.4byte	0x339
 1163 0339 09       		.uleb128 0x9
 1164 033a 04       		.byte	0x4
 1165 033b 3F030000 		.4byte	0x33f
 1166 033f 0A       		.uleb128 0xa
 1167 0340 01       		.byte	0x1
 1168 0341 1A010000 		.4byte	0x11a
 1169 0345 59030000 		.4byte	0x359
 1170 0349 0B       		.uleb128 0xb
 1171 034a AD000000 		.4byte	0xad
 1172 034e 0B       		.uleb128 0xb
 1173 034f 59030000 		.4byte	0x359
 1174 0353 0B       		.uleb128 0xb
 1175 0354 1A010000 		.4byte	0x11a
 1176 0358 00       		.byte	0
 1177 0359 09       		.uleb128 0x9
 1178 035a 04       		.byte	0x4
 1179 035b 5F030000 		.4byte	0x35f
 1180 035f 06       		.uleb128 0x6
 1181 0360 0D070000 		.4byte	.LASF46
 1182 0364 98       		.byte	0x98
 1183 0365 08       		.byte	0x8
 1184 0366 A8       		.byte	0xa8
ARM GAS  /tmp/cc0LECFC.s 			page 22


 1185 0367 89060000 		.4byte	0x689
 1186 036b 07       		.uleb128 0x7
 1187 036c E7040000 		.4byte	.LASF47
 1188 0370 08       		.byte	0x8
 1189 0371 AA       		.byte	0xaa
 1190 0372 0F010000 		.4byte	0x10f
 1191 0376 02       		.byte	0x2
 1192 0377 23       		.byte	0x23
 1193 0378 00       		.uleb128 0
 1194 0379 07       		.uleb128 0x7
 1195 037a 34070000 		.4byte	.LASF48
 1196 037e 08       		.byte	0x8
 1197 037f AA       		.byte	0xaa
 1198 0380 0F010000 		.4byte	0x10f
 1199 0384 02       		.byte	0x2
 1200 0385 23       		.byte	0x23
 1201 0386 04       		.uleb128 0x4
 1202 0387 07       		.uleb128 0x7
 1203 0388 20000000 		.4byte	.LASF49
 1204 038c 08       		.byte	0x8
 1205 038d AA       		.byte	0xaa
 1206 038e BD000000 		.4byte	0xbd
 1207 0392 02       		.byte	0x2
 1208 0393 23       		.byte	0x23
 1209 0394 08       		.uleb128 0x8
 1210 0395 08       		.uleb128 0x8
 1211 0396 746F7300 		.ascii	"tos\000"
 1212 039a 08       		.byte	0x8
 1213 039b AA       		.byte	0xaa
 1214 039c BD000000 		.4byte	0xbd
 1215 03a0 02       		.byte	0x2
 1216 03a1 23       		.byte	0x23
 1217 03a2 09       		.uleb128 0x9
 1218 03a3 08       		.uleb128 0x8
 1219 03a4 74746C00 		.ascii	"ttl\000"
 1220 03a8 08       		.byte	0x8
 1221 03a9 AA       		.byte	0xaa
 1222 03aa BD000000 		.4byte	0xbd
 1223 03ae 02       		.byte	0x2
 1224 03af 23       		.byte	0x23
 1225 03b0 0A       		.uleb128 0xa
 1226 03b1 07       		.uleb128 0x7
 1227 03b2 7A000000 		.4byte	.LASF27
 1228 03b6 08       		.byte	0x8
 1229 03b7 AC       		.byte	0xac
 1230 03b8 59030000 		.4byte	0x359
 1231 03bc 02       		.byte	0x2
 1232 03bd 23       		.byte	0x23
 1233 03be 0C       		.uleb128 0xc
 1234 03bf 07       		.uleb128 0x7
 1235 03c0 4E060000 		.4byte	.LASF50
 1236 03c4 08       		.byte	0x8
 1237 03c5 AC       		.byte	0xac
 1238 03c6 AD000000 		.4byte	0xad
 1239 03ca 02       		.byte	0x2
 1240 03cb 23       		.byte	0x23
 1241 03cc 10       		.uleb128 0x10
ARM GAS  /tmp/cc0LECFC.s 			page 23


 1242 03cd 07       		.uleb128 0x7
 1243 03ce FA020000 		.4byte	.LASF51
 1244 03d2 08       		.byte	0x8
 1245 03d3 AC       		.byte	0xac
 1246 03d4 2E030000 		.4byte	0x32e
 1247 03d8 02       		.byte	0x2
 1248 03d9 23       		.byte	0x23
 1249 03da 14       		.uleb128 0x14
 1250 03db 07       		.uleb128 0x7
 1251 03dc 7C060000 		.4byte	.LASF38
 1252 03e0 08       		.byte	0x8
 1253 03e1 AC       		.byte	0xac
 1254 03e2 37070000 		.4byte	0x737
 1255 03e6 02       		.byte	0x2
 1256 03e7 23       		.byte	0x23
 1257 03e8 18       		.uleb128 0x18
 1258 03e9 07       		.uleb128 0x7
 1259 03ea F5020000 		.4byte	.LASF52
 1260 03ee 08       		.byte	0x8
 1261 03ef AC       		.byte	0xac
 1262 03f0 BD000000 		.4byte	0xbd
 1263 03f4 02       		.byte	0x2
 1264 03f5 23       		.byte	0x23
 1265 03f6 19       		.uleb128 0x19
 1266 03f7 07       		.uleb128 0x7
 1267 03f8 5B010000 		.4byte	.LASF53
 1268 03fc 08       		.byte	0x8
 1269 03fd AC       		.byte	0xac
 1270 03fe D3000000 		.4byte	0xd3
 1271 0402 02       		.byte	0x2
 1272 0403 23       		.byte	0x23
 1273 0404 1A       		.uleb128 0x1a
 1274 0405 07       		.uleb128 0x7
 1275 0406 D9030000 		.4byte	.LASF54
 1276 040a 08       		.byte	0x8
 1277 040b AF       		.byte	0xaf
 1278 040c D3000000 		.4byte	0xd3
 1279 0410 02       		.byte	0x2
 1280 0411 23       		.byte	0x23
 1281 0412 1C       		.uleb128 0x1c
 1282 0413 07       		.uleb128 0x7
 1283 0414 4C000000 		.4byte	.LASF31
 1284 0418 08       		.byte	0x8
 1285 0419 B1       		.byte	0xb1
 1286 041a BD000000 		.4byte	0xbd
 1287 041e 02       		.byte	0x2
 1288 041f 23       		.byte	0x23
 1289 0420 1E       		.uleb128 0x1e
 1290 0421 07       		.uleb128 0x7
 1291 0422 36000000 		.4byte	.LASF55
 1292 0426 08       		.byte	0x8
 1293 0427 BF       		.byte	0xbf
 1294 0428 BD000000 		.4byte	0xbd
 1295 042c 02       		.byte	0x2
 1296 042d 23       		.byte	0x23
 1297 042e 1F       		.uleb128 0x1f
 1298 042f 07       		.uleb128 0x7
ARM GAS  /tmp/cc0LECFC.s 			page 24


 1299 0430 84050000 		.4byte	.LASF56
 1300 0434 08       		.byte	0x8
 1301 0435 BF       		.byte	0xbf
 1302 0436 BD000000 		.4byte	0xbd
 1303 043a 02       		.byte	0x2
 1304 043b 23       		.byte	0x23
 1305 043c 20       		.uleb128 0x20
 1306 043d 07       		.uleb128 0x7
 1307 043e CF040000 		.4byte	.LASF57
 1308 0442 08       		.byte	0x8
 1309 0443 C0       		.byte	0xc0
 1310 0444 BD000000 		.4byte	0xbd
 1311 0448 02       		.byte	0x2
 1312 0449 23       		.byte	0x23
 1313 044a 21       		.uleb128 0x21
 1314 044b 08       		.uleb128 0x8
 1315 044c 746D7200 		.ascii	"tmr\000"
 1316 0450 08       		.byte	0x8
 1317 0451 C1       		.byte	0xc1
 1318 0452 E9000000 		.4byte	0xe9
 1319 0456 02       		.byte	0x2
 1320 0457 23       		.byte	0x23
 1321 0458 24       		.uleb128 0x24
 1322 0459 07       		.uleb128 0x7
 1323 045a EC010000 		.4byte	.LASF58
 1324 045e 08       		.byte	0x8
 1325 045f C4       		.byte	0xc4
 1326 0460 E9000000 		.4byte	0xe9
 1327 0464 02       		.byte	0x2
 1328 0465 23       		.byte	0x23
 1329 0466 28       		.uleb128 0x28
 1330 0467 07       		.uleb128 0x7
 1331 0468 9B040000 		.4byte	.LASF59
 1332 046c 08       		.byte	0x8
 1333 046d C5       		.byte	0xc5
 1334 046e D3000000 		.4byte	0xd3
 1335 0472 02       		.byte	0x2
 1336 0473 23       		.byte	0x23
 1337 0474 2C       		.uleb128 0x2c
 1338 0475 07       		.uleb128 0x7
 1339 0476 F5030000 		.4byte	.LASF60
 1340 047a 08       		.byte	0x8
 1341 047b C6       		.byte	0xc6
 1342 047c D3000000 		.4byte	0xd3
 1343 0480 02       		.byte	0x2
 1344 0481 23       		.byte	0x23
 1345 0482 2E       		.uleb128 0x2e
 1346 0483 07       		.uleb128 0x7
 1347 0484 B7000000 		.4byte	.LASF61
 1348 0488 08       		.byte	0x8
 1349 0489 C7       		.byte	0xc7
 1350 048a E9000000 		.4byte	0xe9
 1351 048e 02       		.byte	0x2
 1352 048f 23       		.byte	0x23
 1353 0490 30       		.uleb128 0x30
 1354 0491 07       		.uleb128 0x7
 1355 0492 C9010000 		.4byte	.LASF62
ARM GAS  /tmp/cc0LECFC.s 			page 25


 1356 0496 08       		.byte	0x8
 1357 0497 CA       		.byte	0xca
 1358 0498 DE000000 		.4byte	0xde
 1359 049c 02       		.byte	0x2
 1360 049d 23       		.byte	0x23
 1361 049e 34       		.uleb128 0x34
 1362 049f 08       		.uleb128 0x8
 1363 04a0 6D737300 		.ascii	"mss\000"
 1364 04a4 08       		.byte	0x8
 1365 04a5 CC       		.byte	0xcc
 1366 04a6 D3000000 		.4byte	0xd3
 1367 04aa 02       		.byte	0x2
 1368 04ab 23       		.byte	0x23
 1369 04ac 36       		.uleb128 0x36
 1370 04ad 07       		.uleb128 0x7
 1371 04ae A3040000 		.4byte	.LASF63
 1372 04b2 08       		.byte	0x8
 1373 04b3 CF       		.byte	0xcf
 1374 04b4 E9000000 		.4byte	0xe9
 1375 04b8 02       		.byte	0x2
 1376 04b9 23       		.byte	0x23
 1377 04ba 38       		.uleb128 0x38
 1378 04bb 07       		.uleb128 0x7
 1379 04bc CE020000 		.4byte	.LASF64
 1380 04c0 08       		.byte	0x8
 1381 04c1 D0       		.byte	0xd0
 1382 04c2 E9000000 		.4byte	0xe9
 1383 04c6 02       		.byte	0x2
 1384 04c7 23       		.byte	0x23
 1385 04c8 3C       		.uleb128 0x3c
 1386 04c9 08       		.uleb128 0x8
 1387 04ca 736100   		.ascii	"sa\000"
 1388 04cd 08       		.byte	0x8
 1389 04ce D1       		.byte	0xd1
 1390 04cf DE000000 		.4byte	0xde
 1391 04d3 02       		.byte	0x2
 1392 04d4 23       		.byte	0x23
 1393 04d5 40       		.uleb128 0x40
 1394 04d6 08       		.uleb128 0x8
 1395 04d7 737600   		.ascii	"sv\000"
 1396 04da 08       		.byte	0x8
 1397 04db D1       		.byte	0xd1
 1398 04dc DE000000 		.4byte	0xde
 1399 04e0 02       		.byte	0x2
 1400 04e1 23       		.byte	0x23
 1401 04e2 42       		.uleb128 0x42
 1402 04e3 08       		.uleb128 0x8
 1403 04e4 72746F00 		.ascii	"rto\000"
 1404 04e8 08       		.byte	0x8
 1405 04e9 D3       		.byte	0xd3
 1406 04ea DE000000 		.4byte	0xde
 1407 04ee 02       		.byte	0x2
 1408 04ef 23       		.byte	0x23
 1409 04f0 44       		.uleb128 0x44
 1410 04f1 07       		.uleb128 0x7
 1411 04f2 48070000 		.4byte	.LASF65
 1412 04f6 08       		.byte	0x8
ARM GAS  /tmp/cc0LECFC.s 			page 26


 1413 04f7 D4       		.byte	0xd4
 1414 04f8 BD000000 		.4byte	0xbd
 1415 04fc 02       		.byte	0x2
 1416 04fd 23       		.byte	0x23
 1417 04fe 46       		.uleb128 0x46
 1418 04ff 07       		.uleb128 0x7
 1419 0500 E4020000 		.4byte	.LASF66
 1420 0504 08       		.byte	0x8
 1421 0505 D7       		.byte	0xd7
 1422 0506 BD000000 		.4byte	0xbd
 1423 050a 02       		.byte	0x2
 1424 050b 23       		.byte	0x23
 1425 050c 47       		.uleb128 0x47
 1426 050d 07       		.uleb128 0x7
 1427 050e AB020000 		.4byte	.LASF67
 1428 0512 08       		.byte	0x8
 1429 0513 D8       		.byte	0xd8
 1430 0514 E9000000 		.4byte	0xe9
 1431 0518 02       		.byte	0x2
 1432 0519 23       		.byte	0x23
 1433 051a 48       		.uleb128 0x48
 1434 051b 07       		.uleb128 0x7
 1435 051c 43010000 		.4byte	.LASF68
 1436 0520 08       		.byte	0x8
 1437 0521 DB       		.byte	0xdb
 1438 0522 D3000000 		.4byte	0xd3
 1439 0526 02       		.byte	0x2
 1440 0527 23       		.byte	0x23
 1441 0528 4C       		.uleb128 0x4c
 1442 0529 07       		.uleb128 0x7
 1443 052a 64050000 		.4byte	.LASF69
 1444 052e 08       		.byte	0x8
 1445 052f DC       		.byte	0xdc
 1446 0530 D3000000 		.4byte	0xd3
 1447 0534 02       		.byte	0x2
 1448 0535 23       		.byte	0x23
 1449 0536 4E       		.uleb128 0x4e
 1450 0537 07       		.uleb128 0x7
 1451 0538 0F050000 		.4byte	.LASF70
 1452 053c 08       		.byte	0x8
 1453 053d DF       		.byte	0xdf
 1454 053e E9000000 		.4byte	0xe9
 1455 0542 02       		.byte	0x2
 1456 0543 23       		.byte	0x23
 1457 0544 50       		.uleb128 0x50
 1458 0545 07       		.uleb128 0x7
 1459 0546 3E030000 		.4byte	.LASF71
 1460 054a 08       		.byte	0x8
 1461 054b E0       		.byte	0xe0
 1462 054c E9000000 		.4byte	0xe9
 1463 0550 02       		.byte	0x2
 1464 0551 23       		.byte	0x23
 1465 0552 54       		.uleb128 0x54
 1466 0553 07       		.uleb128 0x7
 1467 0554 46030000 		.4byte	.LASF72
 1468 0558 08       		.byte	0x8
 1469 0559 E0       		.byte	0xe0
ARM GAS  /tmp/cc0LECFC.s 			page 27


 1470 055a E9000000 		.4byte	0xe9
 1471 055e 02       		.byte	0x2
 1472 055f 23       		.byte	0x23
 1473 0560 58       		.uleb128 0x58
 1474 0561 07       		.uleb128 0x7
 1475 0562 78030000 		.4byte	.LASF73
 1476 0566 08       		.byte	0x8
 1477 0567 E2       		.byte	0xe2
 1478 0568 E9000000 		.4byte	0xe9
 1479 056c 02       		.byte	0x2
 1480 056d 23       		.byte	0x23
 1481 056e 5C       		.uleb128 0x5c
 1482 056f 07       		.uleb128 0x7
 1483 0570 58040000 		.4byte	.LASF74
 1484 0574 08       		.byte	0x8
 1485 0575 E3       		.byte	0xe3
 1486 0576 D3000000 		.4byte	0xd3
 1487 057a 02       		.byte	0x2
 1488 057b 23       		.byte	0x23
 1489 057c 60       		.uleb128 0x60
 1490 057d 07       		.uleb128 0x7
 1491 057e 23050000 		.4byte	.LASF75
 1492 0582 08       		.byte	0x8
 1493 0583 E4       		.byte	0xe4
 1494 0584 D3000000 		.4byte	0xd3
 1495 0588 02       		.byte	0x2
 1496 0589 23       		.byte	0x23
 1497 058a 62       		.uleb128 0x62
 1498 058b 07       		.uleb128 0x7
 1499 058c 15030000 		.4byte	.LASF76
 1500 0590 08       		.byte	0x8
 1501 0591 E6       		.byte	0xe6
 1502 0592 D3000000 		.4byte	0xd3
 1503 0596 02       		.byte	0x2
 1504 0597 23       		.byte	0x23
 1505 0598 64       		.uleb128 0x64
 1506 0599 07       		.uleb128 0x7
 1507 059a 6D050000 		.4byte	.LASF77
 1508 059e 08       		.byte	0x8
 1509 059f E8       		.byte	0xe8
 1510 05a0 D3000000 		.4byte	0xd3
 1511 05a4 02       		.byte	0x2
 1512 05a5 23       		.byte	0x23
 1513 05a6 66       		.uleb128 0x66
 1514 05a7 07       		.uleb128 0x7
 1515 05a8 D1060000 		.4byte	.LASF78
 1516 05ac 08       		.byte	0x8
 1517 05ad EA       		.byte	0xea
 1518 05ae D3000000 		.4byte	0xd3
 1519 05b2 02       		.byte	0x2
 1520 05b3 23       		.byte	0x23
 1521 05b4 68       		.uleb128 0x68
 1522 05b5 07       		.uleb128 0x7
 1523 05b6 F0040000 		.4byte	.LASF79
 1524 05ba 08       		.byte	0x8
 1525 05bb EE       		.byte	0xee
 1526 05bc D3000000 		.4byte	0xd3
ARM GAS  /tmp/cc0LECFC.s 			page 28


 1527 05c0 02       		.byte	0x2
 1528 05c1 23       		.byte	0x23
 1529 05c2 6A       		.uleb128 0x6a
 1530 05c3 07       		.uleb128 0x7
 1531 05c4 94040000 		.4byte	.LASF80
 1532 05c8 08       		.byte	0x8
 1533 05c9 F2       		.byte	0xf2
 1534 05ca DD070000 		.4byte	0x7dd
 1535 05ce 02       		.byte	0x2
 1536 05cf 23       		.byte	0x23
 1537 05d0 6C       		.uleb128 0x6c
 1538 05d1 07       		.uleb128 0x7
 1539 05d2 09020000 		.4byte	.LASF81
 1540 05d6 08       		.byte	0x8
 1541 05d7 F3       		.byte	0xf3
 1542 05d8 DD070000 		.4byte	0x7dd
 1543 05dc 02       		.byte	0x2
 1544 05dd 23       		.byte	0x23
 1545 05de 70       		.uleb128 0x70
 1546 05df 07       		.uleb128 0x7
 1547 05e0 6E040000 		.4byte	.LASF82
 1548 05e4 08       		.byte	0x8
 1549 05e5 F5       		.byte	0xf5
 1550 05e6 DD070000 		.4byte	0x7dd
 1551 05ea 02       		.byte	0x2
 1552 05eb 23       		.byte	0x23
 1553 05ec 74       		.uleb128 0x74
 1554 05ed 07       		.uleb128 0x7
 1555 05ee DE050000 		.4byte	.LASF83
 1556 05f2 08       		.byte	0x8
 1557 05f3 F8       		.byte	0xf8
 1558 05f4 94010000 		.4byte	0x194
 1559 05f8 02       		.byte	0x2
 1560 05f9 23       		.byte	0x23
 1561 05fa 78       		.uleb128 0x78
 1562 05fb 07       		.uleb128 0x7
 1563 05fc 31030000 		.4byte	.LASF84
 1564 0600 08       		.byte	0x8
 1565 0601 FC       		.byte	0xfc
 1566 0602 B9060000 		.4byte	0x6b9
 1567 0606 02       		.byte	0x2
 1568 0607 23       		.byte	0x23
 1569 0608 7C       		.uleb128 0x7c
 1570 0609 07       		.uleb128 0x7
 1571 060a FC060000 		.4byte	.LASF85
 1572 060e 08       		.byte	0x8
 1573 060f FE       		.byte	0xfe
 1574 0610 89060000 		.4byte	0x689
 1575 0614 03       		.byte	0x3
 1576 0615 23       		.byte	0x23
 1577 0616 8001     		.uleb128 0x80
 1578 0618 0E       		.uleb128 0xe
 1579 0619 93020000 		.4byte	.LASF86
 1580 061d 08       		.byte	0x8
 1581 061e 0001     		.2byte	0x100
 1582 0620 2C070000 		.4byte	0x72c
 1583 0624 03       		.byte	0x3
ARM GAS  /tmp/cc0LECFC.s 			page 29


 1584 0625 23       		.byte	0x23
 1585 0626 8401     		.uleb128 0x84
 1586 0628 0E       		.uleb128 0xe
 1587 0629 0B030000 		.4byte	.LASF87
 1588 062d 08       		.byte	0x8
 1589 062e 0201     		.2byte	0x102
 1590 0630 E4060000 		.4byte	0x6e4
 1591 0634 03       		.byte	0x3
 1592 0635 23       		.byte	0x23
 1593 0636 8801     		.uleb128 0x88
 1594 0638 0E       		.uleb128 0xe
 1595 0639 53040000 		.4byte	.LASF88
 1596 063d 08       		.byte	0x8
 1597 063e 0401     		.2byte	0x104
 1598 0640 0A070000 		.4byte	0x70a
 1599 0644 03       		.byte	0x3
 1600 0645 23       		.byte	0x23
 1601 0646 8C01     		.uleb128 0x8c
 1602 0648 0E       		.uleb128 0xe
 1603 0649 44060000 		.4byte	.LASF89
 1604 064d 08       		.byte	0x8
 1605 064e 0D01     		.2byte	0x10d
 1606 0650 E9000000 		.4byte	0xe9
 1607 0654 03       		.byte	0x3
 1608 0655 23       		.byte	0x23
 1609 0656 9001     		.uleb128 0x90
 1610 0658 0E       		.uleb128 0xe
 1611 0659 28070000 		.4byte	.LASF90
 1612 065d 08       		.byte	0x8
 1613 065e 1401     		.2byte	0x114
 1614 0660 BD000000 		.4byte	0xbd
 1615 0664 03       		.byte	0x3
 1616 0665 23       		.byte	0x23
 1617 0666 9401     		.uleb128 0x94
 1618 0668 0E       		.uleb128 0xe
 1619 0669 B7030000 		.4byte	.LASF91
 1620 066d 08       		.byte	0x8
 1621 066e 1601     		.2byte	0x116
 1622 0670 BD000000 		.4byte	0xbd
 1623 0674 03       		.byte	0x3
 1624 0675 23       		.byte	0x23
 1625 0676 9501     		.uleb128 0x95
 1626 0678 0E       		.uleb128 0xe
 1627 0679 EB000000 		.4byte	.LASF92
 1628 067d 08       		.byte	0x8
 1629 067e 1901     		.2byte	0x119
 1630 0680 BD000000 		.4byte	0xbd
 1631 0684 03       		.byte	0x3
 1632 0685 23       		.byte	0x23
 1633 0686 9601     		.uleb128 0x96
 1634 0688 00       		.byte	0
 1635 0689 04       		.uleb128 0x4
 1636 068a 1A040000 		.4byte	.LASF93
 1637 068e 08       		.byte	0x8
 1638 068f 48       		.byte	0x48
 1639 0690 94060000 		.4byte	0x694
 1640 0694 09       		.uleb128 0x9
ARM GAS  /tmp/cc0LECFC.s 			page 30


 1641 0695 04       		.byte	0x4
 1642 0696 9A060000 		.4byte	0x69a
 1643 069a 0A       		.uleb128 0xa
 1644 069b 01       		.byte	0x1
 1645 069c 1A010000 		.4byte	0x11a
 1646 06a0 B9060000 		.4byte	0x6b9
 1647 06a4 0B       		.uleb128 0xb
 1648 06a5 AD000000 		.4byte	0xad
 1649 06a9 0B       		.uleb128 0xb
 1650 06aa 59030000 		.4byte	0x359
 1651 06ae 0B       		.uleb128 0xb
 1652 06af 94010000 		.4byte	0x194
 1653 06b3 0B       		.uleb128 0xb
 1654 06b4 1A010000 		.4byte	0x11a
 1655 06b8 00       		.byte	0
 1656 06b9 04       		.uleb128 0x4
 1657 06ba 08010000 		.4byte	.LASF94
 1658 06be 08       		.byte	0x8
 1659 06bf 56       		.byte	0x56
 1660 06c0 C4060000 		.4byte	0x6c4
 1661 06c4 09       		.uleb128 0x9
 1662 06c5 04       		.byte	0x4
 1663 06c6 CA060000 		.4byte	0x6ca
 1664 06ca 0A       		.uleb128 0xa
 1665 06cb 01       		.byte	0x1
 1666 06cc 1A010000 		.4byte	0x11a
 1667 06d0 E4060000 		.4byte	0x6e4
 1668 06d4 0B       		.uleb128 0xb
 1669 06d5 AD000000 		.4byte	0xad
 1670 06d9 0B       		.uleb128 0xb
 1671 06da 59030000 		.4byte	0x359
 1672 06de 0B       		.uleb128 0xb
 1673 06df D3000000 		.4byte	0xd3
 1674 06e3 00       		.byte	0
 1675 06e4 04       		.uleb128 0x4
 1676 06e5 3E040000 		.4byte	.LASF95
 1677 06e9 08       		.byte	0x8
 1678 06ea 62       		.byte	0x62
 1679 06eb EF060000 		.4byte	0x6ef
 1680 06ef 09       		.uleb128 0x9
 1681 06f0 04       		.byte	0x4
 1682 06f1 F5060000 		.4byte	0x6f5
 1683 06f5 0A       		.uleb128 0xa
 1684 06f6 01       		.byte	0x1
 1685 06f7 1A010000 		.4byte	0x11a
 1686 06fb 0A070000 		.4byte	0x70a
 1687 06ff 0B       		.uleb128 0xb
 1688 0700 AD000000 		.4byte	0xad
 1689 0704 0B       		.uleb128 0xb
 1690 0705 59030000 		.4byte	0x359
 1691 0709 00       		.byte	0
 1692 070a 04       		.uleb128 0x4
 1693 070b 4E030000 		.4byte	.LASF96
 1694 070f 08       		.byte	0x8
 1695 0710 6E       		.byte	0x6e
 1696 0711 15070000 		.4byte	0x715
 1697 0715 09       		.uleb128 0x9
ARM GAS  /tmp/cc0LECFC.s 			page 31


 1698 0716 04       		.byte	0x4
 1699 0717 1B070000 		.4byte	0x71b
 1700 071b 0F       		.uleb128 0xf
 1701 071c 01       		.byte	0x1
 1702 071d 2C070000 		.4byte	0x72c
 1703 0721 0B       		.uleb128 0xb
 1704 0722 AD000000 		.4byte	0xad
 1705 0726 0B       		.uleb128 0xb
 1706 0727 1A010000 		.4byte	0x11a
 1707 072b 00       		.byte	0
 1708 072c 04       		.uleb128 0x4
 1709 072d 69000000 		.4byte	.LASF97
 1710 0731 08       		.byte	0x8
 1711 0732 7C       		.byte	0x7c
 1712 0733 39030000 		.4byte	0x339
 1713 0737 10       		.uleb128 0x10
 1714 0738 BF010000 		.4byte	.LASF161
 1715 073c 01       		.byte	0x1
 1716 073d 08       		.byte	0x8
 1717 073e 7E       		.byte	0x7e
 1718 073f 86070000 		.4byte	0x786
 1719 0743 11       		.uleb128 0x11
 1720 0744 74040000 		.4byte	.LASF98
 1721 0748 00       		.sleb128 0
 1722 0749 11       		.uleb128 0x11
 1723 074a 65060000 		.4byte	.LASF99
 1724 074e 01       		.sleb128 1
 1725 074f 11       		.uleb128 0x11
 1726 0750 29060000 		.4byte	.LASF100
 1727 0754 02       		.sleb128 2
 1728 0755 11       		.uleb128 0x11
 1729 0756 52070000 		.4byte	.LASF101
 1730 075a 03       		.sleb128 3
 1731 075b 11       		.uleb128 0x11
 1732 075c 17050000 		.4byte	.LASF102
 1733 0760 04       		.sleb128 4
 1734 0761 11       		.uleb128 0x11
 1735 0762 06060000 		.4byte	.LASF103
 1736 0766 05       		.sleb128 5
 1737 0767 11       		.uleb128 0x11
 1738 0768 11060000 		.4byte	.LASF104
 1739 076c 06       		.sleb128 6
 1740 076d 11       		.uleb128 0x11
 1741 076e 1B030000 		.4byte	.LASF105
 1742 0772 07       		.sleb128 7
 1743 0773 11       		.uleb128 0x11
 1744 0774 A3020000 		.4byte	.LASF106
 1745 0778 08       		.sleb128 8
 1746 0779 11       		.uleb128 0x11
 1747 077a 57020000 		.4byte	.LASF107
 1748 077e 09       		.sleb128 9
 1749 077f 11       		.uleb128 0x11
 1750 0780 52000000 		.4byte	.LASF108
 1751 0784 0A       		.sleb128 10
 1752 0785 00       		.byte	0
 1753 0786 12       		.uleb128 0x12
 1754 0787 A0010000 		.4byte	.LASF109
ARM GAS  /tmp/cc0LECFC.s 			page 32


 1755 078b 10       		.byte	0x10
 1756 078c 09       		.byte	0x9
 1757 078d 1501     		.2byte	0x115
 1758 078f DD070000 		.4byte	0x7dd
 1759 0793 0E       		.uleb128 0xe
 1760 0794 7A000000 		.4byte	.LASF27
 1761 0798 09       		.byte	0x9
 1762 0799 1601     		.2byte	0x116
 1763 079b DD070000 		.4byte	0x7dd
 1764 079f 02       		.byte	0x2
 1765 07a0 23       		.byte	0x23
 1766 07a1 00       		.uleb128 0
 1767 07a2 13       		.uleb128 0x13
 1768 07a3 7000     		.ascii	"p\000"
 1769 07a5 09       		.byte	0x9
 1770 07a6 1701     		.2byte	0x117
 1771 07a8 94010000 		.4byte	0x194
 1772 07ac 02       		.byte	0x2
 1773 07ad 23       		.byte	0x23
 1774 07ae 04       		.uleb128 0x4
 1775 07af 13       		.uleb128 0x13
 1776 07b0 6C656E00 		.ascii	"len\000"
 1777 07b4 09       		.byte	0x9
 1778 07b5 1801     		.2byte	0x118
 1779 07b7 D3000000 		.4byte	0xd3
 1780 07bb 02       		.byte	0x2
 1781 07bc 23       		.byte	0x23
 1782 07bd 08       		.uleb128 0x8
 1783 07be 0E       		.uleb128 0xe
 1784 07bf 4C000000 		.4byte	.LASF31
 1785 07c3 09       		.byte	0x9
 1786 07c4 2201     		.2byte	0x122
 1787 07c6 BD000000 		.4byte	0xbd
 1788 07ca 02       		.byte	0x2
 1789 07cb 23       		.byte	0x23
 1790 07cc 0A       		.uleb128 0xa
 1791 07cd 0E       		.uleb128 0xe
 1792 07ce D1050000 		.4byte	.LASF110
 1793 07d2 09       		.byte	0x9
 1794 07d3 2701     		.2byte	0x127
 1795 07d5 19090000 		.4byte	0x919
 1796 07d9 02       		.byte	0x2
 1797 07da 23       		.byte	0x23
 1798 07db 0C       		.uleb128 0xc
 1799 07dc 00       		.byte	0
 1800 07dd 09       		.uleb128 0x9
 1801 07de 04       		.byte	0x4
 1802 07df 86070000 		.4byte	0x786
 1803 07e3 12       		.uleb128 0x12
 1804 07e4 A2030000 		.4byte	.LASF111
 1805 07e8 1C       		.byte	0x1c
 1806 07e9 08       		.byte	0x8
 1807 07ea 1C01     		.2byte	0x11c
 1808 07ec 96080000 		.4byte	0x896
 1809 07f0 0E       		.uleb128 0xe
 1810 07f1 E7040000 		.4byte	.LASF47
 1811 07f5 08       		.byte	0x8
ARM GAS  /tmp/cc0LECFC.s 			page 33


 1812 07f6 1E01     		.2byte	0x11e
 1813 07f8 0F010000 		.4byte	0x10f
 1814 07fc 02       		.byte	0x2
 1815 07fd 23       		.byte	0x23
 1816 07fe 00       		.uleb128 0
 1817 07ff 0E       		.uleb128 0xe
 1818 0800 34070000 		.4byte	.LASF48
 1819 0804 08       		.byte	0x8
 1820 0805 1E01     		.2byte	0x11e
 1821 0807 0F010000 		.4byte	0x10f
 1822 080b 02       		.byte	0x2
 1823 080c 23       		.byte	0x23
 1824 080d 04       		.uleb128 0x4
 1825 080e 0E       		.uleb128 0xe
 1826 080f 20000000 		.4byte	.LASF49
 1827 0813 08       		.byte	0x8
 1828 0814 1E01     		.2byte	0x11e
 1829 0816 BD000000 		.4byte	0xbd
 1830 081a 02       		.byte	0x2
 1831 081b 23       		.byte	0x23
 1832 081c 08       		.uleb128 0x8
 1833 081d 13       		.uleb128 0x13
 1834 081e 746F7300 		.ascii	"tos\000"
 1835 0822 08       		.byte	0x8
 1836 0823 1E01     		.2byte	0x11e
 1837 0825 BD000000 		.4byte	0xbd
 1838 0829 02       		.byte	0x2
 1839 082a 23       		.byte	0x23
 1840 082b 09       		.uleb128 0x9
 1841 082c 13       		.uleb128 0x13
 1842 082d 74746C00 		.ascii	"ttl\000"
 1843 0831 08       		.byte	0x8
 1844 0832 1E01     		.2byte	0x11e
 1845 0834 BD000000 		.4byte	0xbd
 1846 0838 02       		.byte	0x2
 1847 0839 23       		.byte	0x23
 1848 083a 0A       		.uleb128 0xa
 1849 083b 0E       		.uleb128 0xe
 1850 083c 7A000000 		.4byte	.LASF27
 1851 0840 08       		.byte	0x8
 1852 0841 2001     		.2byte	0x120
 1853 0843 96080000 		.4byte	0x896
 1854 0847 02       		.byte	0x2
 1855 0848 23       		.byte	0x23
 1856 0849 0C       		.uleb128 0xc
 1857 084a 0E       		.uleb128 0xe
 1858 084b 4E060000 		.4byte	.LASF50
 1859 084f 08       		.byte	0x8
 1860 0850 2001     		.2byte	0x120
 1861 0852 AD000000 		.4byte	0xad
 1862 0856 02       		.byte	0x2
 1863 0857 23       		.byte	0x23
 1864 0858 10       		.uleb128 0x10
 1865 0859 0E       		.uleb128 0xe
 1866 085a FA020000 		.4byte	.LASF51
 1867 085e 08       		.byte	0x8
 1868 085f 2001     		.2byte	0x120
ARM GAS  /tmp/cc0LECFC.s 			page 34


 1869 0861 2E030000 		.4byte	0x32e
 1870 0865 02       		.byte	0x2
 1871 0866 23       		.byte	0x23
 1872 0867 14       		.uleb128 0x14
 1873 0868 0E       		.uleb128 0xe
 1874 0869 7C060000 		.4byte	.LASF38
 1875 086d 08       		.byte	0x8
 1876 086e 2001     		.2byte	0x120
 1877 0870 37070000 		.4byte	0x737
 1878 0874 02       		.byte	0x2
 1879 0875 23       		.byte	0x23
 1880 0876 18       		.uleb128 0x18
 1881 0877 0E       		.uleb128 0xe
 1882 0878 F5020000 		.4byte	.LASF52
 1883 087c 08       		.byte	0x8
 1884 087d 2001     		.2byte	0x120
 1885 087f BD000000 		.4byte	0xbd
 1886 0883 02       		.byte	0x2
 1887 0884 23       		.byte	0x23
 1888 0885 19       		.uleb128 0x19
 1889 0886 0E       		.uleb128 0xe
 1890 0887 5B010000 		.4byte	.LASF53
 1891 088b 08       		.byte	0x8
 1892 088c 2001     		.2byte	0x120
 1893 088e D3000000 		.4byte	0xd3
 1894 0892 02       		.byte	0x2
 1895 0893 23       		.byte	0x23
 1896 0894 1A       		.uleb128 0x1a
 1897 0895 00       		.byte	0
 1898 0896 09       		.uleb128 0x9
 1899 0897 04       		.byte	0x4
 1900 0898 E3070000 		.4byte	0x7e3
 1901 089c 06       		.uleb128 0x6
 1902 089d EB050000 		.4byte	.LASF112
 1903 08a1 14       		.byte	0x14
 1904 08a2 09       		.byte	0x9
 1905 08a3 9F       		.byte	0x9f
 1906 08a4 19090000 		.4byte	0x919
 1907 08a8 08       		.uleb128 0x8
 1908 08a9 73726300 		.ascii	"src\000"
 1909 08ad 09       		.byte	0x9
 1910 08ae A0       		.byte	0xa0
 1911 08af D3000000 		.4byte	0xd3
 1912 08b3 02       		.byte	0x2
 1913 08b4 23       		.byte	0x23
 1914 08b5 00       		.uleb128 0
 1915 08b6 07       		.uleb128 0x7
 1916 08b7 4D070000 		.4byte	.LASF113
 1917 08bb 09       		.byte	0x9
 1918 08bc A1       		.byte	0xa1
 1919 08bd D3000000 		.4byte	0xd3
 1920 08c1 02       		.byte	0x2
 1921 08c2 23       		.byte	0x23
 1922 08c3 02       		.uleb128 0x2
 1923 08c4 07       		.uleb128 0x7
 1924 08c5 1E010000 		.4byte	.LASF114
 1925 08c9 09       		.byte	0x9
ARM GAS  /tmp/cc0LECFC.s 			page 35


 1926 08ca A2       		.byte	0xa2
 1927 08cb E9000000 		.4byte	0xe9
 1928 08cf 02       		.byte	0x2
 1929 08d0 23       		.byte	0x23
 1930 08d1 04       		.uleb128 0x4
 1931 08d2 07       		.uleb128 0x7
 1932 08d3 B1030000 		.4byte	.LASF115
 1933 08d7 09       		.byte	0x9
 1934 08d8 A3       		.byte	0xa3
 1935 08d9 E9000000 		.4byte	0xe9
 1936 08dd 02       		.byte	0x2
 1937 08de 23       		.byte	0x23
 1938 08df 08       		.uleb128 0x8
 1939 08e0 07       		.uleb128 0x7
 1940 08e1 9E050000 		.4byte	.LASF116
 1941 08e5 09       		.byte	0x9
 1942 08e6 A4       		.byte	0xa4
 1943 08e7 D3000000 		.4byte	0xd3
 1944 08eb 02       		.byte	0x2
 1945 08ec 23       		.byte	0x23
 1946 08ed 0C       		.uleb128 0xc
 1947 08ee 08       		.uleb128 0x8
 1948 08ef 776E6400 		.ascii	"wnd\000"
 1949 08f3 09       		.byte	0x9
 1950 08f4 A5       		.byte	0xa5
 1951 08f5 D3000000 		.4byte	0xd3
 1952 08f9 02       		.byte	0x2
 1953 08fa 23       		.byte	0x23
 1954 08fb 0E       		.uleb128 0xe
 1955 08fc 07       		.uleb128 0x7
 1956 08fd DE060000 		.4byte	.LASF117
 1957 0901 09       		.byte	0x9
 1958 0902 A6       		.byte	0xa6
 1959 0903 D3000000 		.4byte	0xd3
 1960 0907 02       		.byte	0x2
 1961 0908 23       		.byte	0x23
 1962 0909 10       		.uleb128 0x10
 1963 090a 07       		.uleb128 0x7
 1964 090b 31000000 		.4byte	.LASF118
 1965 090f 09       		.byte	0x9
 1966 0910 A7       		.byte	0xa7
 1967 0911 D3000000 		.4byte	0xd3
 1968 0915 02       		.byte	0x2
 1969 0916 23       		.byte	0x23
 1970 0917 12       		.uleb128 0x12
 1971 0918 00       		.byte	0
 1972 0919 09       		.uleb128 0x9
 1973 091a 04       		.byte	0x4
 1974 091b 9C080000 		.4byte	0x89c
 1975 091f 14       		.uleb128 0x14
 1976 0920 59030000 		.4byte	.LASF162
 1977 0924 04       		.byte	0x4
 1978 0925 09       		.byte	0x9
 1979 0926 3701     		.2byte	0x137
 1980 0928 45090000 		.4byte	0x945
 1981 092c 15       		.uleb128 0x15
 1982 092d 00000000 		.4byte	.LASF119
ARM GAS  /tmp/cc0LECFC.s 			page 36


 1983 0931 09       		.byte	0x9
 1984 0932 3801     		.2byte	0x138
 1985 0934 96080000 		.4byte	0x896
 1986 0938 15       		.uleb128 0x15
 1987 0939 63070000 		.4byte	.LASF120
 1988 093d 09       		.byte	0x9
 1989 093e 3901     		.2byte	0x139
 1990 0940 59030000 		.4byte	0x359
 1991 0944 00       		.byte	0
 1992 0945 16       		.uleb128 0x16
 1993 0946 01       		.byte	0x1
 1994 0947 0A       		.byte	0xa
 1995 0948 2B       		.byte	0x2b
 1996 0949 A8090000 		.4byte	0x9a8
 1997 094d 11       		.uleb128 0x11
 1998 094e 91050000 		.4byte	.LASF121
 1999 0952 00       		.sleb128 0
 2000 0953 11       		.uleb128 0x11
 2001 0954 DA040000 		.4byte	.LASF122
 2002 0958 01       		.sleb128 1
 2003 0959 11       		.uleb128 0x11
 2004 095a C7030000 		.4byte	.LASF123
 2005 095e 02       		.sleb128 2
 2006 095f 11       		.uleb128 0x11
 2007 0960 0C000000 		.4byte	.LASF124
 2008 0964 03       		.sleb128 3
 2009 0965 11       		.uleb128 0x11
 2010 0966 1C060000 		.4byte	.LASF125
 2011 096a 04       		.sleb128 4
 2012 096b 11       		.uleb128 0x11
 2013 096c 0B040000 		.4byte	.LASF126
 2014 0970 05       		.sleb128 5
 2015 0971 11       		.uleb128 0x11
 2016 0972 55050000 		.4byte	.LASF127
 2017 0976 06       		.sleb128 6
 2018 0977 11       		.uleb128 0x11
 2019 0978 80030000 		.4byte	.LASF128
 2020 097c 07       		.sleb128 7
 2021 097d 11       		.uleb128 0x11
 2022 097e C1020000 		.4byte	.LASF129
 2023 0982 08       		.sleb128 8
 2024 0983 11       		.uleb128 0x11
 2025 0984 48010000 		.4byte	.LASF130
 2026 0988 09       		.sleb128 9
 2027 0989 11       		.uleb128 0x11
 2028 098a F4010000 		.4byte	.LASF131
 2029 098e 0A       		.sleb128 10
 2030 098f 11       		.uleb128 0x11
 2031 0990 BE040000 		.4byte	.LASF132
 2032 0994 0B       		.sleb128 11
 2033 0995 11       		.uleb128 0x11
 2034 0996 01030000 		.4byte	.LASF133
 2035 099a 0C       		.sleb128 12
 2036 099b 11       		.uleb128 0x11
 2037 099c F9000000 		.4byte	.LASF134
 2038 09a0 0D       		.sleb128 13
 2039 09a1 11       		.uleb128 0x11
ARM GAS  /tmp/cc0LECFC.s 			page 37


 2040 09a2 B3020000 		.4byte	.LASF135
 2041 09a6 0E       		.sleb128 14
 2042 09a7 00       		.byte	0
 2043 09a8 17       		.uleb128 0x17
 2044 09a9 01       		.byte	0x1
 2045 09aa DA010000 		.4byte	.LASF136
 2046 09ae 01       		.byte	0x1
 2047 09af 9901     		.2byte	0x199
 2048 09b1 01       		.byte	0x1
 2049 09b2 01       		.byte	0x1
 2050 09b3 D0090000 		.4byte	0x9d0
 2051 09b7 18       		.uleb128 0x18
 2052 09b8 82060000 		.4byte	.LASF33
 2053 09bc 01       		.byte	0x1
 2054 09bd 9901     		.2byte	0x199
 2055 09bf BB010000 		.4byte	0x1bb
 2056 09c3 18       		.uleb128 0x18
 2057 09c4 8C030000 		.4byte	.LASF34
 2058 09c8 01       		.byte	0x1
 2059 09c9 9901     		.2byte	0x199
 2060 09cb E2020000 		.4byte	0x2e2
 2061 09cf 00       		.byte	0
 2062 09d0 17       		.uleb128 0x17
 2063 09d1 01       		.byte	0x1
 2064 09d2 32060000 		.4byte	.LASF137
 2065 09d6 01       		.byte	0x1
 2066 09d7 8401     		.2byte	0x184
 2067 09d9 01       		.byte	0x1
 2068 09da 01       		.byte	0x1
 2069 09db F7090000 		.4byte	0x9f7
 2070 09df 18       		.uleb128 0x18
 2071 09e0 82060000 		.4byte	.LASF33
 2072 09e4 01       		.byte	0x1
 2073 09e5 8401     		.2byte	0x184
 2074 09e7 BB010000 		.4byte	0x1bb
 2075 09eb 19       		.uleb128 0x19
 2076 09ec 677700   		.ascii	"gw\000"
 2077 09ef 01       		.byte	0x1
 2078 09f0 8401     		.2byte	0x184
 2079 09f2 E2020000 		.4byte	0x2e2
 2080 09f6 00       		.byte	0
 2081 09f7 17       		.uleb128 0x17
 2082 09f8 01       		.byte	0x1
 2083 09f9 90000000 		.4byte	.LASF138
 2084 09fd 01       		.byte	0x1
 2085 09fe AE01     		.2byte	0x1ae
 2086 0a00 01       		.byte	0x1
 2087 0a01 01       		.byte	0x1
 2088 0a02 130A0000 		.4byte	0xa13
 2089 0a06 18       		.uleb128 0x18
 2090 0a07 82060000 		.4byte	.LASF33
 2091 0a0b 01       		.byte	0x1
 2092 0a0c AE01     		.2byte	0x1ae
 2093 0a0e BB010000 		.4byte	0x1bb
 2094 0a12 00       		.byte	0
 2095 0a13 1A       		.uleb128 0x1a
 2096 0a14 01       		.byte	0x1
ARM GAS  /tmp/cc0LECFC.s 			page 38


 2097 0a15 6C060000 		.4byte	.LASF163
 2098 0a19 01       		.byte	0x1
 2099 0a1a 6A       		.byte	0x6a
 2100 0a1b 01       		.byte	0x1
 2101 0a1c 00000000 		.4byte	.LFB7
 2102 0a20 02000000 		.4byte	.LFE7
 2103 0a24 02       		.byte	0x2
 2104 0a25 7D       		.byte	0x7d
 2105 0a26 00       		.sleb128 0
 2106 0a27 01       		.byte	0x1
 2107 0a28 1B       		.uleb128 0x1b
 2108 0a29 01       		.byte	0x1
 2109 0a2a 26030000 		.4byte	.LASF143
 2110 0a2e 01       		.byte	0x1
 2111 0a2f 2201     		.2byte	0x122
 2112 0a31 01       		.byte	0x1
 2113 0a32 BB010000 		.4byte	0x1bb
 2114 0a36 00000000 		.4byte	.LFB11
 2115 0a3a 40000000 		.4byte	.LFE11
 2116 0a3e 00000000 		.4byte	.LLST0
 2117 0a42 01       		.byte	0x1
 2118 0a43 780A0000 		.4byte	0xa78
 2119 0a47 1C       		.uleb128 0x1c
 2120 0a48 2F050000 		.4byte	.LASF41
 2121 0a4c 01       		.byte	0x1
 2122 0a4d 2201     		.2byte	0x122
 2123 0a4f 780A0000 		.4byte	0xa78
 2124 0a53 20000000 		.4byte	.LLST1
 2125 0a57 1D       		.uleb128 0x1d
 2126 0a58 82060000 		.4byte	.LASF33
 2127 0a5c 01       		.byte	0x1
 2128 0a5d 2401     		.2byte	0x124
 2129 0a5f BB010000 		.4byte	0x1bb
 2130 0a63 4C000000 		.4byte	.LLST2
 2131 0a67 1E       		.uleb128 0x1e
 2132 0a68 6E756D00 		.ascii	"num\000"
 2133 0a6c 01       		.byte	0x1
 2134 0a6d 2501     		.2byte	0x125
 2135 0a6f BD000000 		.4byte	0xbd
 2136 0a73 5F000000 		.4byte	.LLST3
 2137 0a77 00       		.byte	0
 2138 0a78 09       		.uleb128 0x9
 2139 0a79 04       		.byte	0x4
 2140 0a7a B6000000 		.4byte	0xb6
 2141 0a7e 1F       		.uleb128 0x1f
 2142 0a7f 01       		.byte	0x1
 2143 0a80 CA000000 		.4byte	.LASF141
 2144 0a84 01       		.byte	0x1
 2145 0a85 4301     		.2byte	0x143
 2146 0a87 01       		.byte	0x1
 2147 0a88 00000000 		.4byte	.LFB12
 2148 0a8c 64000000 		.4byte	.LFE12
 2149 0a90 72000000 		.4byte	.LLST4
 2150 0a94 01       		.byte	0x1
 2151 0a95 FD0A0000 		.4byte	0xafd
 2152 0a99 1C       		.uleb128 0x1c
 2153 0a9a 82060000 		.4byte	.LASF33
ARM GAS  /tmp/cc0LECFC.s 			page 39


 2154 0a9e 01       		.byte	0x1
 2155 0a9f 4301     		.2byte	0x143
 2156 0aa1 BB010000 		.4byte	0x1bb
 2157 0aa5 92000000 		.4byte	.LLST5
 2158 0aa9 1C       		.uleb128 0x1c
 2159 0aaa 68020000 		.4byte	.LASF139
 2160 0aae 01       		.byte	0x1
 2161 0aaf 4301     		.2byte	0x143
 2162 0ab1 E2020000 		.4byte	0x2e2
 2163 0ab5 BB000000 		.4byte	.LLST6
 2164 0ab9 1E       		.uleb128 0x1e
 2165 0aba 70636200 		.ascii	"pcb\000"
 2166 0abe 01       		.byte	0x1
 2167 0abf 4801     		.2byte	0x148
 2168 0ac1 59030000 		.4byte	0x359
 2169 0ac5 E4000000 		.4byte	.LLST7
 2170 0ac9 1D       		.uleb128 0x1d
 2171 0aca E5060000 		.4byte	.LASF140
 2172 0ace 01       		.byte	0x1
 2173 0acf 4901     		.2byte	0x149
 2174 0ad1 96080000 		.4byte	0x896
 2175 0ad5 0D010000 		.4byte	.LLST8
 2176 0ad9 20       		.uleb128 0x20
 2177 0ada 2A000000 		.4byte	.LBB9
 2178 0ade 32000000 		.4byte	.LBE9
 2179 0ae2 1D       		.uleb128 0x1d
 2180 0ae3 7A000000 		.4byte	.LASF27
 2181 0ae7 01       		.byte	0x1
 2182 0ae8 5901     		.2byte	0x159
 2183 0aea 59030000 		.4byte	0x359
 2184 0aee 20010000 		.4byte	.LLST9
 2185 0af2 21       		.uleb128 0x21
 2186 0af3 30000000 		.4byte	.LVL11
 2187 0af7 760E0000 		.4byte	0xe76
 2188 0afb 00       		.byte	0
 2189 0afc 00       		.byte	0
 2190 0afd 22       		.uleb128 0x22
 2191 0afe 01       		.byte	0x1
 2192 0aff 75050000 		.4byte	.LASF142
 2193 0b03 01       		.byte	0x1
 2194 0b04 DD       		.byte	0xdd
 2195 0b05 01       		.byte	0x1
 2196 0b06 00000000 		.4byte	.LFB9
 2197 0b0a 1A000000 		.4byte	.LFE9
 2198 0b0e 33010000 		.4byte	.LLST10
 2199 0b12 01       		.byte	0x1
 2200 0b13 B20B0000 		.4byte	0xbb2
 2201 0b17 23       		.uleb128 0x23
 2202 0b18 82060000 		.4byte	.LASF33
 2203 0b1c 01       		.byte	0x1
 2204 0b1d DD       		.byte	0xdd
 2205 0b1e BB010000 		.4byte	0x1bb
 2206 0b22 53010000 		.4byte	.LLST11
 2207 0b26 23       		.uleb128 0x23
 2208 0b27 68020000 		.4byte	.LASF139
 2209 0b2b 01       		.byte	0x1
 2210 0b2c DD       		.byte	0xdd
ARM GAS  /tmp/cc0LECFC.s 			page 40


 2211 0b2d E2020000 		.4byte	0x2e2
 2212 0b31 71010000 		.4byte	.LLST12
 2213 0b35 23       		.uleb128 0x23
 2214 0b36 8C030000 		.4byte	.LASF34
 2215 0b3a 01       		.byte	0x1
 2216 0b3b DD       		.byte	0xdd
 2217 0b3c E2020000 		.4byte	0x2e2
 2218 0b40 92010000 		.4byte	.LLST13
 2219 0b44 24       		.uleb128 0x24
 2220 0b45 677700   		.ascii	"gw\000"
 2221 0b48 01       		.byte	0x1
 2222 0b49 DE       		.byte	0xde
 2223 0b4a E2020000 		.4byte	0x2e2
 2224 0b4e BE010000 		.4byte	.LLST14
 2225 0b52 25       		.uleb128 0x25
 2226 0b53 A8090000 		.4byte	0x9a8
 2227 0b57 0C000000 		.4byte	.LBB10
 2228 0b5b 12000000 		.4byte	.LBE10
 2229 0b5f 01       		.byte	0x1
 2230 0b60 E1       		.byte	0xe1
 2231 0b61 760B0000 		.4byte	0xb76
 2232 0b65 26       		.uleb128 0x26
 2233 0b66 C3090000 		.4byte	0x9c3
 2234 0b6a EA010000 		.4byte	.LLST15
 2235 0b6e 27       		.uleb128 0x27
 2236 0b6f B7090000 		.4byte	0x9b7
 2237 0b73 01       		.byte	0x1
 2238 0b74 54       		.byte	0x54
 2239 0b75 00       		.byte	0
 2240 0b76 25       		.uleb128 0x25
 2241 0b77 D0090000 		.4byte	0x9d0
 2242 0b7b 12000000 		.4byte	.LBB12
 2243 0b7f 1A000000 		.4byte	.LBE12
 2244 0b83 01       		.byte	0x1
 2245 0b84 E2       		.byte	0xe2
 2246 0b85 9A0B0000 		.4byte	0xb9a
 2247 0b89 26       		.uleb128 0x26
 2248 0b8a EB090000 		.4byte	0x9eb
 2249 0b8e 0B020000 		.4byte	.LLST16
 2250 0b92 27       		.uleb128 0x27
 2251 0b93 DF090000 		.4byte	0x9df
 2252 0b97 01       		.byte	0x1
 2253 0b98 54       		.byte	0x54
 2254 0b99 00       		.byte	0
 2255 0b9a 28       		.uleb128 0x28
 2256 0b9b 0C000000 		.4byte	.LVL19
 2257 0b9f 7E0A0000 		.4byte	0xa7e
 2258 0ba3 29       		.uleb128 0x29
 2259 0ba4 01       		.byte	0x1
 2260 0ba5 51       		.byte	0x51
 2261 0ba6 03       		.byte	0x3
 2262 0ba7 F3       		.byte	0xf3
 2263 0ba8 01       		.uleb128 0x1
 2264 0ba9 51       		.byte	0x51
 2265 0baa 29       		.uleb128 0x29
 2266 0bab 01       		.byte	0x1
 2267 0bac 50       		.byte	0x50
ARM GAS  /tmp/cc0LECFC.s 			page 41


 2268 0bad 02       		.byte	0x2
 2269 0bae 74       		.byte	0x74
 2270 0baf 00       		.sleb128 0
 2271 0bb0 00       		.byte	0
 2272 0bb1 00       		.byte	0
 2273 0bb2 2A       		.uleb128 0x2a
 2274 0bb3 01       		.byte	0x1
 2275 0bb4 01040000 		.4byte	.LASF144
 2276 0bb8 01       		.byte	0x1
 2277 0bb9 8B       		.byte	0x8b
 2278 0bba 01       		.byte	0x1
 2279 0bbb BB010000 		.4byte	0x1bb
 2280 0bbf 00000000 		.4byte	.LFB8
 2281 0bc3 68000000 		.4byte	.LFE8
 2282 0bc7 2C020000 		.4byte	.LLST17
 2283 0bcb 01       		.byte	0x1
 2284 0bcc 630C0000 		.4byte	0xc63
 2285 0bd0 23       		.uleb128 0x23
 2286 0bd1 82060000 		.4byte	.LASF33
 2287 0bd5 01       		.byte	0x1
 2288 0bd6 8B       		.byte	0x8b
 2289 0bd7 BB010000 		.4byte	0x1bb
 2290 0bdb 58020000 		.4byte	.LLST18
 2291 0bdf 23       		.uleb128 0x23
 2292 0be0 68020000 		.4byte	.LASF139
 2293 0be4 01       		.byte	0x1
 2294 0be5 8B       		.byte	0x8b
 2295 0be6 E2020000 		.4byte	0x2e2
 2296 0bea B3020000 		.4byte	.LLST19
 2297 0bee 23       		.uleb128 0x23
 2298 0bef 8C030000 		.4byte	.LASF34
 2299 0bf3 01       		.byte	0x1
 2300 0bf4 8B       		.byte	0x8b
 2301 0bf5 E2020000 		.4byte	0x2e2
 2302 0bf9 ED020000 		.4byte	.LLST20
 2303 0bfd 24       		.uleb128 0x24
 2304 0bfe 677700   		.ascii	"gw\000"
 2305 0c01 01       		.byte	0x1
 2306 0c02 8C       		.byte	0x8c
 2307 0c03 E2020000 		.4byte	0x2e2
 2308 0c07 27030000 		.4byte	.LLST21
 2309 0c0b 2B       		.uleb128 0x2b
 2310 0c0c 7C060000 		.4byte	.LASF38
 2311 0c10 01       		.byte	0x1
 2312 0c11 8C       		.byte	0x8c
 2313 0c12 AD000000 		.4byte	0xad
 2314 0c16 02       		.byte	0x2
 2315 0c17 91       		.byte	0x91
 2316 0c18 00       		.sleb128 0
 2317 0c19 2B       		.uleb128 0x2b
 2318 0c1a B1050000 		.4byte	.LASF145
 2319 0c1e 01       		.byte	0x1
 2320 0c1f 8C       		.byte	0x8c
 2321 0c20 9A010000 		.4byte	0x19a
 2322 0c24 02       		.byte	0x2
 2323 0c25 91       		.byte	0x91
 2324 0c26 04       		.sleb128 4
ARM GAS  /tmp/cc0LECFC.s 			page 42


 2325 0c27 2B       		.uleb128 0x2b
 2326 0c28 2B000000 		.4byte	.LASF35
 2327 0c2c 01       		.byte	0x1
 2328 0c2d 8C       		.byte	0x8c
 2329 0c2e 91020000 		.4byte	0x291
 2330 0c32 02       		.byte	0x2
 2331 0c33 91       		.byte	0x91
 2332 0c34 08       		.sleb128 8
 2333 0c35 2C       		.uleb128 0x2c
 2334 0c36 36000000 		.4byte	.LVL25
 2335 0c3a FD0A0000 		.4byte	0xafd
 2336 0c3e 490C0000 		.4byte	0xc49
 2337 0c42 29       		.uleb128 0x29
 2338 0c43 01       		.byte	0x1
 2339 0c44 50       		.byte	0x50
 2340 0c45 02       		.byte	0x2
 2341 0c46 74       		.byte	0x74
 2342 0c47 00       		.sleb128 0
 2343 0c48 00       		.byte	0
 2344 0c49 2D       		.uleb128 0x2d
 2345 0c4a 3A000000 		.4byte	.LVL26
 2346 0c4e 590C0000 		.4byte	0xc59
 2347 0c52 29       		.uleb128 0x29
 2348 0c53 01       		.byte	0x1
 2349 0c54 50       		.byte	0x50
 2350 0c55 02       		.byte	0x2
 2351 0c56 74       		.byte	0x74
 2352 0c57 00       		.sleb128 0
 2353 0c58 00       		.byte	0
 2354 0c59 21       		.uleb128 0x21
 2355 0c5a 58000000 		.4byte	.LVL31
 2356 0c5e 8B0E0000 		.4byte	0xe8b
 2357 0c62 00       		.byte	0
 2358 0c63 2E       		.uleb128 0x2e
 2359 0c64 D0090000 		.4byte	0x9d0
 2360 0c68 00000000 		.4byte	.LFB13
 2361 0c6c 08000000 		.4byte	.LFE13
 2362 0c70 02       		.byte	0x2
 2363 0c71 7D       		.byte	0x7d
 2364 0c72 00       		.sleb128 0
 2365 0c73 01       		.byte	0x1
 2366 0c74 890C0000 		.4byte	0xc89
 2367 0c78 27       		.uleb128 0x27
 2368 0c79 DF090000 		.4byte	0x9df
 2369 0c7d 01       		.byte	0x1
 2370 0c7e 50       		.byte	0x50
 2371 0c7f 26       		.uleb128 0x26
 2372 0c80 EB090000 		.4byte	0x9eb
 2373 0c84 61030000 		.4byte	.LLST22
 2374 0c88 00       		.byte	0
 2375 0c89 2E       		.uleb128 0x2e
 2376 0c8a A8090000 		.4byte	0x9a8
 2377 0c8e 00000000 		.4byte	.LFB14
 2378 0c92 08000000 		.4byte	.LFE14
 2379 0c96 02       		.byte	0x2
 2380 0c97 7D       		.byte	0x7d
 2381 0c98 00       		.sleb128 0
ARM GAS  /tmp/cc0LECFC.s 			page 43


 2382 0c99 01       		.byte	0x1
 2383 0c9a AF0C0000 		.4byte	0xcaf
 2384 0c9e 27       		.uleb128 0x27
 2385 0c9f B7090000 		.4byte	0x9b7
 2386 0ca3 01       		.byte	0x1
 2387 0ca4 50       		.byte	0x50
 2388 0ca5 26       		.uleb128 0x26
 2389 0ca6 C3090000 		.4byte	0x9c3
 2390 0caa 82030000 		.4byte	.LLST23
 2391 0cae 00       		.byte	0
 2392 0caf 2E       		.uleb128 0x2e
 2393 0cb0 F7090000 		.4byte	0x9f7
 2394 0cb4 00000000 		.4byte	.LFB15
 2395 0cb8 0C000000 		.4byte	.LFE15
 2396 0cbc 02       		.byte	0x2
 2397 0cbd 7D       		.byte	0x7d
 2398 0cbe 00       		.sleb128 0
 2399 0cbf 01       		.byte	0x1
 2400 0cc0 CC0C0000 		.4byte	0xccc
 2401 0cc4 27       		.uleb128 0x27
 2402 0cc5 060A0000 		.4byte	0xa06
 2403 0cc9 01       		.byte	0x1
 2404 0cca 50       		.byte	0x50
 2405 0ccb 00       		.byte	0
 2406 0ccc 2F       		.uleb128 0x2f
 2407 0ccd 01       		.byte	0x1
 2408 0cce 34050000 		.4byte	.LASF146
 2409 0cd2 01       		.byte	0x1
 2410 0cd3 C501     		.2byte	0x1c5
 2411 0cd5 01       		.byte	0x1
 2412 0cd6 00000000 		.4byte	.LFB16
 2413 0cda 20000000 		.4byte	.LFE16
 2414 0cde 02       		.byte	0x2
 2415 0cdf 7D       		.byte	0x7d
 2416 0ce0 00       		.sleb128 0
 2417 0ce1 01       		.byte	0x1
 2418 0ce2 120D0000 		.4byte	0xd12
 2419 0ce6 1C       		.uleb128 0x1c
 2420 0ce7 82060000 		.4byte	.LASF33
 2421 0ceb 01       		.byte	0x1
 2422 0cec C501     		.2byte	0x1c5
 2423 0cee BB010000 		.4byte	0x1bb
 2424 0cf2 A3030000 		.4byte	.LLST24
 2425 0cf6 30       		.uleb128 0x30
 2426 0cf7 20000000 		.4byte	.LVL38
 2427 0cfb 01       		.byte	0x1
 2428 0cfc 960E0000 		.4byte	0xe96
 2429 0d00 29       		.uleb128 0x29
 2430 0d01 01       		.byte	0x1
 2431 0d02 51       		.byte	0x51
 2432 0d03 05       		.byte	0x5
 2433 0d04 F3       		.byte	0xf3
 2434 0d05 01       		.uleb128 0x1
 2435 0d06 50       		.byte	0x50
 2436 0d07 23       		.byte	0x23
 2437 0d08 04       		.uleb128 0x4
 2438 0d09 29       		.uleb128 0x29
ARM GAS  /tmp/cc0LECFC.s 			page 44


 2439 0d0a 01       		.byte	0x1
 2440 0d0b 50       		.byte	0x50
 2441 0d0c 03       		.byte	0x3
 2442 0d0d F3       		.byte	0xf3
 2443 0d0e 01       		.uleb128 0x1
 2444 0d0f 50       		.byte	0x50
 2445 0d10 00       		.byte	0
 2446 0d11 00       		.byte	0
 2447 0d12 2F       		.uleb128 0x2f
 2448 0d13 01       		.byte	0x1
 2449 0d14 A8000000 		.4byte	.LASF147
 2450 0d18 01       		.byte	0x1
 2451 0d19 EA01     		.2byte	0x1ea
 2452 0d1b 01       		.byte	0x1
 2453 0d1c 00000000 		.4byte	.LFB17
 2454 0d20 1E000000 		.4byte	.LFE17
 2455 0d24 02       		.byte	0x2
 2456 0d25 7D       		.byte	0x7d
 2457 0d26 00       		.sleb128 0
 2458 0d27 01       		.byte	0x1
 2459 0d28 470D0000 		.4byte	0xd47
 2460 0d2c 1C       		.uleb128 0x1c
 2461 0d2d 82060000 		.4byte	.LASF33
 2462 0d31 01       		.byte	0x1
 2463 0d32 EA01     		.2byte	0x1ea
 2464 0d34 BB010000 		.4byte	0x1bb
 2465 0d38 C4030000 		.4byte	.LLST25
 2466 0d3c 31       		.uleb128 0x31
 2467 0d3d 1E000000 		.4byte	.LVL40
 2468 0d41 01       		.byte	0x1
 2469 0d42 B30E0000 		.4byte	0xeb3
 2470 0d46 00       		.byte	0
 2471 0d47 22       		.uleb128 0x22
 2472 0d48 01       		.byte	0x1
 2473 0d49 6B030000 		.4byte	.LASF148
 2474 0d4d 01       		.byte	0x1
 2475 0d4e EB       		.byte	0xeb
 2476 0d4f 01       		.byte	0x1
 2477 0d50 00000000 		.4byte	.LFB10
 2478 0d54 50000000 		.4byte	.LFE10
 2479 0d58 E5030000 		.4byte	.LLST26
 2480 0d5c 01       		.byte	0x1
 2481 0d5d B60D0000 		.4byte	0xdb6
 2482 0d61 23       		.uleb128 0x23
 2483 0d62 82060000 		.4byte	.LASF33
 2484 0d66 01       		.byte	0x1
 2485 0d67 EB       		.byte	0xeb
 2486 0d68 BB010000 		.4byte	0x1bb
 2487 0d6c 05040000 		.4byte	.LLST27
 2488 0d70 32       		.uleb128 0x32
 2489 0d71 16000000 		.4byte	.LBB14
 2490 0d75 34000000 		.4byte	.LBE14
 2491 0d79 8E0D0000 		.4byte	0xd8e
 2492 0d7d 1D       		.uleb128 0x1d
 2493 0d7e EC020000 		.4byte	.LASF149
 2494 0d82 01       		.byte	0x1
 2495 0d83 0301     		.2byte	0x103
ARM GAS  /tmp/cc0LECFC.s 			page 45


 2496 0d85 BB010000 		.4byte	0x1bb
 2497 0d89 39040000 		.4byte	.LLST28
 2498 0d8d 00       		.byte	0
 2499 0d8e 33       		.uleb128 0x33
 2500 0d8f F7090000 		.4byte	0x9f7
 2501 0d93 3C000000 		.4byte	.LBB15
 2502 0d97 42000000 		.4byte	.LBE15
 2503 0d9b 01       		.byte	0x1
 2504 0d9c 1101     		.2byte	0x111
 2505 0d9e AC0D0000 		.4byte	0xdac
 2506 0da2 26       		.uleb128 0x26
 2507 0da3 060A0000 		.4byte	0xa06
 2508 0da7 62040000 		.4byte	.LLST29
 2509 0dab 00       		.byte	0
 2510 0dac 21       		.uleb128 0x21
 2511 0dad 46000000 		.4byte	.LVL51
 2512 0db1 120D0000 		.4byte	0xd12
 2513 0db5 00       		.byte	0
 2514 0db6 2F       		.uleb128 0x2f
 2515 0db7 01       		.byte	0x1
 2516 0db8 EA060000 		.4byte	.LASF150
 2517 0dbc 01       		.byte	0x1
 2518 0dbd 1702     		.2byte	0x217
 2519 0dbf 01       		.byte	0x1
 2520 0dc0 00000000 		.4byte	.LFB18
 2521 0dc4 24000000 		.4byte	.LFE18
 2522 0dc8 02       		.byte	0x2
 2523 0dc9 7D       		.byte	0x7d
 2524 0dca 00       		.sleb128 0
 2525 0dcb 01       		.byte	0x1
 2526 0dcc FC0D0000 		.4byte	0xdfc
 2527 0dd0 1C       		.uleb128 0x1c
 2528 0dd1 82060000 		.4byte	.LASF33
 2529 0dd5 01       		.byte	0x1
 2530 0dd6 1702     		.2byte	0x217
 2531 0dd8 BB010000 		.4byte	0x1bb
 2532 0ddc 76040000 		.4byte	.LLST30
 2533 0de0 30       		.uleb128 0x30
 2534 0de1 24000000 		.4byte	.LVL53
 2535 0de5 01       		.byte	0x1
 2536 0de6 960E0000 		.4byte	0xe96
 2537 0dea 29       		.uleb128 0x29
 2538 0deb 01       		.byte	0x1
 2539 0dec 51       		.byte	0x51
 2540 0ded 05       		.byte	0x5
 2541 0dee F3       		.byte	0xf3
 2542 0def 01       		.uleb128 0x1
 2543 0df0 50       		.byte	0x50
 2544 0df1 23       		.byte	0x23
 2545 0df2 04       		.uleb128 0x4
 2546 0df3 29       		.uleb128 0x29
 2547 0df4 01       		.byte	0x1
 2548 0df5 50       		.byte	0x50
 2549 0df6 03       		.byte	0x3
 2550 0df7 F3       		.byte	0xf3
 2551 0df8 01       		.uleb128 0x1
 2552 0df9 50       		.byte	0x50
ARM GAS  /tmp/cc0LECFC.s 			page 46


 2553 0dfa 00       		.byte	0
 2554 0dfb 00       		.byte	0
 2555 0dfc 2F       		.uleb128 0x2f
 2556 0dfd 01       		.byte	0x1
 2557 0dfe AA040000 		.4byte	.LASF151
 2558 0e02 01       		.byte	0x1
 2559 0e03 3E02     		.2byte	0x23e
 2560 0e05 01       		.byte	0x1
 2561 0e06 00000000 		.4byte	.LFB19
 2562 0e0a 16000000 		.4byte	.LFE19
 2563 0e0e 02       		.byte	0x2
 2564 0e0f 7D       		.byte	0x7d
 2565 0e10 00       		.sleb128 0
 2566 0e11 01       		.byte	0x1
 2567 0e12 250E0000 		.4byte	0xe25
 2568 0e16 34       		.uleb128 0x34
 2569 0e17 82060000 		.4byte	.LASF33
 2570 0e1b 01       		.byte	0x1
 2571 0e1c 3E02     		.2byte	0x23e
 2572 0e1e BB010000 		.4byte	0x1bb
 2573 0e22 01       		.byte	0x1
 2574 0e23 50       		.byte	0x50
 2575 0e24 00       		.byte	0
 2576 0e25 35       		.uleb128 0x35
 2577 0e26 14010000 		.4byte	.LASF152
 2578 0e2a 01       		.byte	0x1
 2579 0e2b 4E       		.byte	0x4e
 2580 0e2c BD000000 		.4byte	0xbd
 2581 0e30 05       		.byte	0x5
 2582 0e31 03       		.byte	0x3
 2583 0e32 00000000 		.4byte	netif_num
 2584 0e36 36       		.uleb128 0x36
 2585 0e37 6E010000 		.4byte	.LASF153
 2586 0e3b 01       		.byte	0x1
 2587 0e3c 4B       		.byte	0x4b
 2588 0e3d BB010000 		.4byte	0x1bb
 2589 0e41 01       		.byte	0x1
 2590 0e42 05       		.byte	0x5
 2591 0e43 03       		.byte	0x3
 2592 0e44 00000000 		.4byte	netif_list
 2593 0e48 36       		.uleb128 0x36
 2594 0e49 30040000 		.4byte	.LASF154
 2595 0e4d 01       		.byte	0x1
 2596 0e4e 4C       		.byte	0x4c
 2597 0e4f BB010000 		.4byte	0x1bb
 2598 0e53 01       		.byte	0x1
 2599 0e54 05       		.byte	0x5
 2600 0e55 03       		.byte	0x3
 2601 0e56 00000000 		.4byte	netif_default
 2602 0e5a 37       		.uleb128 0x37
 2603 0e5b E5030000 		.4byte	.LASF155
 2604 0e5f 09       		.byte	0x9
 2605 0e60 3C01     		.2byte	0x13c
 2606 0e62 1F090000 		.4byte	0x91f
 2607 0e66 01       		.byte	0x1
 2608 0e67 01       		.byte	0x1
 2609 0e68 37       		.uleb128 0x37
ARM GAS  /tmp/cc0LECFC.s 			page 47


 2610 0e69 D4020000 		.4byte	.LASF156
 2611 0e6d 09       		.byte	0x9
 2612 0e6e 3D01     		.2byte	0x13d
 2613 0e70 59030000 		.4byte	0x359
 2614 0e74 01       		.byte	0x1
 2615 0e75 01       		.byte	0x1
 2616 0e76 38       		.uleb128 0x38
 2617 0e77 01       		.byte	0x1
 2618 0e78 26040000 		.4byte	.LASF157
 2619 0e7c 08       		.byte	0x8
 2620 0e7d 5E01     		.2byte	0x15e
 2621 0e7f 01       		.byte	0x1
 2622 0e80 01       		.byte	0x1
 2623 0e81 8B0E0000 		.4byte	0xe8b
 2624 0e85 0B       		.uleb128 0xb
 2625 0e86 59030000 		.4byte	0x359
 2626 0e8a 00       		.byte	0
 2627 0e8b 39       		.uleb128 0x39
 2628 0e8c 01       		.byte	0x1
 2629 0e8d 5B060000 		.4byte	.LASF164
 2630 0e91 0B       		.byte	0xb
 2631 0e92 FA01     		.2byte	0x1fa
 2632 0e94 01       		.byte	0x1
 2633 0e95 01       		.byte	0x1
 2634 0e96 3A       		.uleb128 0x3a
 2635 0e97 01       		.byte	0x1
 2636 0e98 00050000 		.4byte	.LASF165
 2637 0e9c 0C       		.byte	0xc
 2638 0e9d BB       		.byte	0xbb
 2639 0e9e 01       		.byte	0x1
 2640 0e9f 1A010000 		.4byte	0x11a
 2641 0ea3 01       		.byte	0x1
 2642 0ea4 B30E0000 		.4byte	0xeb3
 2643 0ea8 0B       		.uleb128 0xb
 2644 0ea9 BB010000 		.4byte	0x1bb
 2645 0ead 0B       		.uleb128 0xb
 2646 0eae E2020000 		.4byte	0x2e2
 2647 0eb2 00       		.byte	0
 2648 0eb3 3B       		.uleb128 0x3b
 2649 0eb4 01       		.byte	0x1
 2650 0eb5 77020000 		.4byte	.LASF166
 2651 0eb9 0C       		.byte	0xc
 2652 0eba C1       		.byte	0xc1
 2653 0ebb 01       		.byte	0x1
 2654 0ebc 01       		.byte	0x1
 2655 0ebd 0B       		.uleb128 0xb
 2656 0ebe BB010000 		.4byte	0x1bb
 2657 0ec2 00       		.byte	0
 2658 0ec3 00       		.byte	0
 2659              		.section	.debug_abbrev,"",%progbits
 2660              	.Ldebug_abbrev0:
 2661 0000 01       		.uleb128 0x1
 2662 0001 11       		.uleb128 0x11
 2663 0002 01       		.byte	0x1
 2664 0003 25       		.uleb128 0x25
 2665 0004 0E       		.uleb128 0xe
 2666 0005 13       		.uleb128 0x13
ARM GAS  /tmp/cc0LECFC.s 			page 48


 2667 0006 0B       		.uleb128 0xb
 2668 0007 03       		.uleb128 0x3
 2669 0008 0E       		.uleb128 0xe
 2670 0009 1B       		.uleb128 0x1b
 2671 000a 0E       		.uleb128 0xe
 2672 000b 55       		.uleb128 0x55
 2673 000c 06       		.uleb128 0x6
 2674 000d 11       		.uleb128 0x11
 2675 000e 01       		.uleb128 0x1
 2676 000f 52       		.uleb128 0x52
 2677 0010 01       		.uleb128 0x1
 2678 0011 10       		.uleb128 0x10
 2679 0012 06       		.uleb128 0x6
 2680 0013 00       		.byte	0
 2681 0014 00       		.byte	0
 2682 0015 02       		.uleb128 0x2
 2683 0016 24       		.uleb128 0x24
 2684 0017 00       		.byte	0
 2685 0018 0B       		.uleb128 0xb
 2686 0019 0B       		.uleb128 0xb
 2687 001a 3E       		.uleb128 0x3e
 2688 001b 0B       		.uleb128 0xb
 2689 001c 03       		.uleb128 0x3
 2690 001d 08       		.uleb128 0x8
 2691 001e 00       		.byte	0
 2692 001f 00       		.byte	0
 2693 0020 03       		.uleb128 0x3
 2694 0021 24       		.uleb128 0x24
 2695 0022 00       		.byte	0
 2696 0023 0B       		.uleb128 0xb
 2697 0024 0B       		.uleb128 0xb
 2698 0025 3E       		.uleb128 0x3e
 2699 0026 0B       		.uleb128 0xb
 2700 0027 03       		.uleb128 0x3
 2701 0028 0E       		.uleb128 0xe
 2702 0029 00       		.byte	0
 2703 002a 00       		.byte	0
 2704 002b 04       		.uleb128 0x4
 2705 002c 16       		.uleb128 0x16
 2706 002d 00       		.byte	0
 2707 002e 03       		.uleb128 0x3
 2708 002f 0E       		.uleb128 0xe
 2709 0030 3A       		.uleb128 0x3a
 2710 0031 0B       		.uleb128 0xb
 2711 0032 3B       		.uleb128 0x3b
 2712 0033 0B       		.uleb128 0xb
 2713 0034 49       		.uleb128 0x49
 2714 0035 13       		.uleb128 0x13
 2715 0036 00       		.byte	0
 2716 0037 00       		.byte	0
 2717 0038 05       		.uleb128 0x5
 2718 0039 0F       		.uleb128 0xf
 2719 003a 00       		.byte	0
 2720 003b 0B       		.uleb128 0xb
 2721 003c 0B       		.uleb128 0xb
 2722 003d 00       		.byte	0
 2723 003e 00       		.byte	0
ARM GAS  /tmp/cc0LECFC.s 			page 49


 2724 003f 06       		.uleb128 0x6
 2725 0040 13       		.uleb128 0x13
 2726 0041 01       		.byte	0x1
 2727 0042 03       		.uleb128 0x3
 2728 0043 0E       		.uleb128 0xe
 2729 0044 0B       		.uleb128 0xb
 2730 0045 0B       		.uleb128 0xb
 2731 0046 3A       		.uleb128 0x3a
 2732 0047 0B       		.uleb128 0xb
 2733 0048 3B       		.uleb128 0x3b
 2734 0049 0B       		.uleb128 0xb
 2735 004a 01       		.uleb128 0x1
 2736 004b 13       		.uleb128 0x13
 2737 004c 00       		.byte	0
 2738 004d 00       		.byte	0
 2739 004e 07       		.uleb128 0x7
 2740 004f 0D       		.uleb128 0xd
 2741 0050 00       		.byte	0
 2742 0051 03       		.uleb128 0x3
 2743 0052 0E       		.uleb128 0xe
 2744 0053 3A       		.uleb128 0x3a
 2745 0054 0B       		.uleb128 0xb
 2746 0055 3B       		.uleb128 0x3b
 2747 0056 0B       		.uleb128 0xb
 2748 0057 49       		.uleb128 0x49
 2749 0058 13       		.uleb128 0x13
 2750 0059 38       		.uleb128 0x38
 2751 005a 0A       		.uleb128 0xa
 2752 005b 00       		.byte	0
 2753 005c 00       		.byte	0
 2754 005d 08       		.uleb128 0x8
 2755 005e 0D       		.uleb128 0xd
 2756 005f 00       		.byte	0
 2757 0060 03       		.uleb128 0x3
 2758 0061 08       		.uleb128 0x8
 2759 0062 3A       		.uleb128 0x3a
 2760 0063 0B       		.uleb128 0xb
 2761 0064 3B       		.uleb128 0x3b
 2762 0065 0B       		.uleb128 0xb
 2763 0066 49       		.uleb128 0x49
 2764 0067 13       		.uleb128 0x13
 2765 0068 38       		.uleb128 0x38
 2766 0069 0A       		.uleb128 0xa
 2767 006a 00       		.byte	0
 2768 006b 00       		.byte	0
 2769 006c 09       		.uleb128 0x9
 2770 006d 0F       		.uleb128 0xf
 2771 006e 00       		.byte	0
 2772 006f 0B       		.uleb128 0xb
 2773 0070 0B       		.uleb128 0xb
 2774 0071 49       		.uleb128 0x49
 2775 0072 13       		.uleb128 0x13
 2776 0073 00       		.byte	0
 2777 0074 00       		.byte	0
 2778 0075 0A       		.uleb128 0xa
 2779 0076 15       		.uleb128 0x15
 2780 0077 01       		.byte	0x1
ARM GAS  /tmp/cc0LECFC.s 			page 50


 2781 0078 27       		.uleb128 0x27
 2782 0079 0C       		.uleb128 0xc
 2783 007a 49       		.uleb128 0x49
 2784 007b 13       		.uleb128 0x13
 2785 007c 01       		.uleb128 0x1
 2786 007d 13       		.uleb128 0x13
 2787 007e 00       		.byte	0
 2788 007f 00       		.byte	0
 2789 0080 0B       		.uleb128 0xb
 2790 0081 05       		.uleb128 0x5
 2791 0082 00       		.byte	0
 2792 0083 49       		.uleb128 0x49
 2793 0084 13       		.uleb128 0x13
 2794 0085 00       		.byte	0
 2795 0086 00       		.byte	0
 2796 0087 0C       		.uleb128 0xc
 2797 0088 01       		.uleb128 0x1
 2798 0089 01       		.byte	0x1
 2799 008a 49       		.uleb128 0x49
 2800 008b 13       		.uleb128 0x13
 2801 008c 01       		.uleb128 0x1
 2802 008d 13       		.uleb128 0x13
 2803 008e 00       		.byte	0
 2804 008f 00       		.byte	0
 2805 0090 0D       		.uleb128 0xd
 2806 0091 21       		.uleb128 0x21
 2807 0092 00       		.byte	0
 2808 0093 49       		.uleb128 0x49
 2809 0094 13       		.uleb128 0x13
 2810 0095 2F       		.uleb128 0x2f
 2811 0096 0B       		.uleb128 0xb
 2812 0097 00       		.byte	0
 2813 0098 00       		.byte	0
 2814 0099 0E       		.uleb128 0xe
 2815 009a 0D       		.uleb128 0xd
 2816 009b 00       		.byte	0
 2817 009c 03       		.uleb128 0x3
 2818 009d 0E       		.uleb128 0xe
 2819 009e 3A       		.uleb128 0x3a
 2820 009f 0B       		.uleb128 0xb
 2821 00a0 3B       		.uleb128 0x3b
 2822 00a1 05       		.uleb128 0x5
 2823 00a2 49       		.uleb128 0x49
 2824 00a3 13       		.uleb128 0x13
 2825 00a4 38       		.uleb128 0x38
 2826 00a5 0A       		.uleb128 0xa
 2827 00a6 00       		.byte	0
 2828 00a7 00       		.byte	0
 2829 00a8 0F       		.uleb128 0xf
 2830 00a9 15       		.uleb128 0x15
 2831 00aa 01       		.byte	0x1
 2832 00ab 27       		.uleb128 0x27
 2833 00ac 0C       		.uleb128 0xc
 2834 00ad 01       		.uleb128 0x1
 2835 00ae 13       		.uleb128 0x13
 2836 00af 00       		.byte	0
 2837 00b0 00       		.byte	0
ARM GAS  /tmp/cc0LECFC.s 			page 51


 2838 00b1 10       		.uleb128 0x10
 2839 00b2 04       		.uleb128 0x4
 2840 00b3 01       		.byte	0x1
 2841 00b4 03       		.uleb128 0x3
 2842 00b5 0E       		.uleb128 0xe
 2843 00b6 0B       		.uleb128 0xb
 2844 00b7 0B       		.uleb128 0xb
 2845 00b8 3A       		.uleb128 0x3a
 2846 00b9 0B       		.uleb128 0xb
 2847 00ba 3B       		.uleb128 0x3b
 2848 00bb 0B       		.uleb128 0xb
 2849 00bc 01       		.uleb128 0x1
 2850 00bd 13       		.uleb128 0x13
 2851 00be 00       		.byte	0
 2852 00bf 00       		.byte	0
 2853 00c0 11       		.uleb128 0x11
 2854 00c1 28       		.uleb128 0x28
 2855 00c2 00       		.byte	0
 2856 00c3 03       		.uleb128 0x3
 2857 00c4 0E       		.uleb128 0xe
 2858 00c5 1C       		.uleb128 0x1c
 2859 00c6 0D       		.uleb128 0xd
 2860 00c7 00       		.byte	0
 2861 00c8 00       		.byte	0
 2862 00c9 12       		.uleb128 0x12
 2863 00ca 13       		.uleb128 0x13
 2864 00cb 01       		.byte	0x1
 2865 00cc 03       		.uleb128 0x3
 2866 00cd 0E       		.uleb128 0xe
 2867 00ce 0B       		.uleb128 0xb
 2868 00cf 0B       		.uleb128 0xb
 2869 00d0 3A       		.uleb128 0x3a
 2870 00d1 0B       		.uleb128 0xb
 2871 00d2 3B       		.uleb128 0x3b
 2872 00d3 05       		.uleb128 0x5
 2873 00d4 01       		.uleb128 0x1
 2874 00d5 13       		.uleb128 0x13
 2875 00d6 00       		.byte	0
 2876 00d7 00       		.byte	0
 2877 00d8 13       		.uleb128 0x13
 2878 00d9 0D       		.uleb128 0xd
 2879 00da 00       		.byte	0
 2880 00db 03       		.uleb128 0x3
 2881 00dc 08       		.uleb128 0x8
 2882 00dd 3A       		.uleb128 0x3a
 2883 00de 0B       		.uleb128 0xb
 2884 00df 3B       		.uleb128 0x3b
 2885 00e0 05       		.uleb128 0x5
 2886 00e1 49       		.uleb128 0x49
 2887 00e2 13       		.uleb128 0x13
 2888 00e3 38       		.uleb128 0x38
 2889 00e4 0A       		.uleb128 0xa
 2890 00e5 00       		.byte	0
 2891 00e6 00       		.byte	0
 2892 00e7 14       		.uleb128 0x14
 2893 00e8 17       		.uleb128 0x17
 2894 00e9 01       		.byte	0x1
ARM GAS  /tmp/cc0LECFC.s 			page 52


 2895 00ea 03       		.uleb128 0x3
 2896 00eb 0E       		.uleb128 0xe
 2897 00ec 0B       		.uleb128 0xb
 2898 00ed 0B       		.uleb128 0xb
 2899 00ee 3A       		.uleb128 0x3a
 2900 00ef 0B       		.uleb128 0xb
 2901 00f0 3B       		.uleb128 0x3b
 2902 00f1 05       		.uleb128 0x5
 2903 00f2 01       		.uleb128 0x1
 2904 00f3 13       		.uleb128 0x13
 2905 00f4 00       		.byte	0
 2906 00f5 00       		.byte	0
 2907 00f6 15       		.uleb128 0x15
 2908 00f7 0D       		.uleb128 0xd
 2909 00f8 00       		.byte	0
 2910 00f9 03       		.uleb128 0x3
 2911 00fa 0E       		.uleb128 0xe
 2912 00fb 3A       		.uleb128 0x3a
 2913 00fc 0B       		.uleb128 0xb
 2914 00fd 3B       		.uleb128 0x3b
 2915 00fe 05       		.uleb128 0x5
 2916 00ff 49       		.uleb128 0x49
 2917 0100 13       		.uleb128 0x13
 2918 0101 00       		.byte	0
 2919 0102 00       		.byte	0
 2920 0103 16       		.uleb128 0x16
 2921 0104 04       		.uleb128 0x4
 2922 0105 01       		.byte	0x1
 2923 0106 0B       		.uleb128 0xb
 2924 0107 0B       		.uleb128 0xb
 2925 0108 3A       		.uleb128 0x3a
 2926 0109 0B       		.uleb128 0xb
 2927 010a 3B       		.uleb128 0x3b
 2928 010b 0B       		.uleb128 0xb
 2929 010c 01       		.uleb128 0x1
 2930 010d 13       		.uleb128 0x13
 2931 010e 00       		.byte	0
 2932 010f 00       		.byte	0
 2933 0110 17       		.uleb128 0x17
 2934 0111 2E       		.uleb128 0x2e
 2935 0112 01       		.byte	0x1
 2936 0113 3F       		.uleb128 0x3f
 2937 0114 0C       		.uleb128 0xc
 2938 0115 03       		.uleb128 0x3
 2939 0116 0E       		.uleb128 0xe
 2940 0117 3A       		.uleb128 0x3a
 2941 0118 0B       		.uleb128 0xb
 2942 0119 3B       		.uleb128 0x3b
 2943 011a 05       		.uleb128 0x5
 2944 011b 27       		.uleb128 0x27
 2945 011c 0C       		.uleb128 0xc
 2946 011d 20       		.uleb128 0x20
 2947 011e 0B       		.uleb128 0xb
 2948 011f 01       		.uleb128 0x1
 2949 0120 13       		.uleb128 0x13
 2950 0121 00       		.byte	0
 2951 0122 00       		.byte	0
ARM GAS  /tmp/cc0LECFC.s 			page 53


 2952 0123 18       		.uleb128 0x18
 2953 0124 05       		.uleb128 0x5
 2954 0125 00       		.byte	0
 2955 0126 03       		.uleb128 0x3
 2956 0127 0E       		.uleb128 0xe
 2957 0128 3A       		.uleb128 0x3a
 2958 0129 0B       		.uleb128 0xb
 2959 012a 3B       		.uleb128 0x3b
 2960 012b 05       		.uleb128 0x5
 2961 012c 49       		.uleb128 0x49
 2962 012d 13       		.uleb128 0x13
 2963 012e 00       		.byte	0
 2964 012f 00       		.byte	0
 2965 0130 19       		.uleb128 0x19
 2966 0131 05       		.uleb128 0x5
 2967 0132 00       		.byte	0
 2968 0133 03       		.uleb128 0x3
 2969 0134 08       		.uleb128 0x8
 2970 0135 3A       		.uleb128 0x3a
 2971 0136 0B       		.uleb128 0xb
 2972 0137 3B       		.uleb128 0x3b
 2973 0138 05       		.uleb128 0x5
 2974 0139 49       		.uleb128 0x49
 2975 013a 13       		.uleb128 0x13
 2976 013b 00       		.byte	0
 2977 013c 00       		.byte	0
 2978 013d 1A       		.uleb128 0x1a
 2979 013e 2E       		.uleb128 0x2e
 2980 013f 00       		.byte	0
 2981 0140 3F       		.uleb128 0x3f
 2982 0141 0C       		.uleb128 0xc
 2983 0142 03       		.uleb128 0x3
 2984 0143 0E       		.uleb128 0xe
 2985 0144 3A       		.uleb128 0x3a
 2986 0145 0B       		.uleb128 0xb
 2987 0146 3B       		.uleb128 0x3b
 2988 0147 0B       		.uleb128 0xb
 2989 0148 27       		.uleb128 0x27
 2990 0149 0C       		.uleb128 0xc
 2991 014a 11       		.uleb128 0x11
 2992 014b 01       		.uleb128 0x1
 2993 014c 12       		.uleb128 0x12
 2994 014d 01       		.uleb128 0x1
 2995 014e 40       		.uleb128 0x40
 2996 014f 0A       		.uleb128 0xa
 2997 0150 9742     		.uleb128 0x2117
 2998 0152 0C       		.uleb128 0xc
 2999 0153 00       		.byte	0
 3000 0154 00       		.byte	0
 3001 0155 1B       		.uleb128 0x1b
 3002 0156 2E       		.uleb128 0x2e
 3003 0157 01       		.byte	0x1
 3004 0158 3F       		.uleb128 0x3f
 3005 0159 0C       		.uleb128 0xc
 3006 015a 03       		.uleb128 0x3
 3007 015b 0E       		.uleb128 0xe
 3008 015c 3A       		.uleb128 0x3a
ARM GAS  /tmp/cc0LECFC.s 			page 54


 3009 015d 0B       		.uleb128 0xb
 3010 015e 3B       		.uleb128 0x3b
 3011 015f 05       		.uleb128 0x5
 3012 0160 27       		.uleb128 0x27
 3013 0161 0C       		.uleb128 0xc
 3014 0162 49       		.uleb128 0x49
 3015 0163 13       		.uleb128 0x13
 3016 0164 11       		.uleb128 0x11
 3017 0165 01       		.uleb128 0x1
 3018 0166 12       		.uleb128 0x12
 3019 0167 01       		.uleb128 0x1
 3020 0168 40       		.uleb128 0x40
 3021 0169 06       		.uleb128 0x6
 3022 016a 9742     		.uleb128 0x2117
 3023 016c 0C       		.uleb128 0xc
 3024 016d 01       		.uleb128 0x1
 3025 016e 13       		.uleb128 0x13
 3026 016f 00       		.byte	0
 3027 0170 00       		.byte	0
 3028 0171 1C       		.uleb128 0x1c
 3029 0172 05       		.uleb128 0x5
 3030 0173 00       		.byte	0
 3031 0174 03       		.uleb128 0x3
 3032 0175 0E       		.uleb128 0xe
 3033 0176 3A       		.uleb128 0x3a
 3034 0177 0B       		.uleb128 0xb
 3035 0178 3B       		.uleb128 0x3b
 3036 0179 05       		.uleb128 0x5
 3037 017a 49       		.uleb128 0x49
 3038 017b 13       		.uleb128 0x13
 3039 017c 02       		.uleb128 0x2
 3040 017d 06       		.uleb128 0x6
 3041 017e 00       		.byte	0
 3042 017f 00       		.byte	0
 3043 0180 1D       		.uleb128 0x1d
 3044 0181 34       		.uleb128 0x34
 3045 0182 00       		.byte	0
 3046 0183 03       		.uleb128 0x3
 3047 0184 0E       		.uleb128 0xe
 3048 0185 3A       		.uleb128 0x3a
 3049 0186 0B       		.uleb128 0xb
 3050 0187 3B       		.uleb128 0x3b
 3051 0188 05       		.uleb128 0x5
 3052 0189 49       		.uleb128 0x49
 3053 018a 13       		.uleb128 0x13
 3054 018b 02       		.uleb128 0x2
 3055 018c 06       		.uleb128 0x6
 3056 018d 00       		.byte	0
 3057 018e 00       		.byte	0
 3058 018f 1E       		.uleb128 0x1e
 3059 0190 34       		.uleb128 0x34
 3060 0191 00       		.byte	0
 3061 0192 03       		.uleb128 0x3
 3062 0193 08       		.uleb128 0x8
 3063 0194 3A       		.uleb128 0x3a
 3064 0195 0B       		.uleb128 0xb
 3065 0196 3B       		.uleb128 0x3b
ARM GAS  /tmp/cc0LECFC.s 			page 55


 3066 0197 05       		.uleb128 0x5
 3067 0198 49       		.uleb128 0x49
 3068 0199 13       		.uleb128 0x13
 3069 019a 02       		.uleb128 0x2
 3070 019b 06       		.uleb128 0x6
 3071 019c 00       		.byte	0
 3072 019d 00       		.byte	0
 3073 019e 1F       		.uleb128 0x1f
 3074 019f 2E       		.uleb128 0x2e
 3075 01a0 01       		.byte	0x1
 3076 01a1 3F       		.uleb128 0x3f
 3077 01a2 0C       		.uleb128 0xc
 3078 01a3 03       		.uleb128 0x3
 3079 01a4 0E       		.uleb128 0xe
 3080 01a5 3A       		.uleb128 0x3a
 3081 01a6 0B       		.uleb128 0xb
 3082 01a7 3B       		.uleb128 0x3b
 3083 01a8 05       		.uleb128 0x5
 3084 01a9 27       		.uleb128 0x27
 3085 01aa 0C       		.uleb128 0xc
 3086 01ab 11       		.uleb128 0x11
 3087 01ac 01       		.uleb128 0x1
 3088 01ad 12       		.uleb128 0x12
 3089 01ae 01       		.uleb128 0x1
 3090 01af 40       		.uleb128 0x40
 3091 01b0 06       		.uleb128 0x6
 3092 01b1 9742     		.uleb128 0x2117
 3093 01b3 0C       		.uleb128 0xc
 3094 01b4 01       		.uleb128 0x1
 3095 01b5 13       		.uleb128 0x13
 3096 01b6 00       		.byte	0
 3097 01b7 00       		.byte	0
 3098 01b8 20       		.uleb128 0x20
 3099 01b9 0B       		.uleb128 0xb
 3100 01ba 01       		.byte	0x1
 3101 01bb 11       		.uleb128 0x11
 3102 01bc 01       		.uleb128 0x1
 3103 01bd 12       		.uleb128 0x12
 3104 01be 01       		.uleb128 0x1
 3105 01bf 00       		.byte	0
 3106 01c0 00       		.byte	0
 3107 01c1 21       		.uleb128 0x21
 3108 01c2 898201   		.uleb128 0x4109
 3109 01c5 00       		.byte	0
 3110 01c6 11       		.uleb128 0x11
 3111 01c7 01       		.uleb128 0x1
 3112 01c8 31       		.uleb128 0x31
 3113 01c9 13       		.uleb128 0x13
 3114 01ca 00       		.byte	0
 3115 01cb 00       		.byte	0
 3116 01cc 22       		.uleb128 0x22
 3117 01cd 2E       		.uleb128 0x2e
 3118 01ce 01       		.byte	0x1
 3119 01cf 3F       		.uleb128 0x3f
 3120 01d0 0C       		.uleb128 0xc
 3121 01d1 03       		.uleb128 0x3
 3122 01d2 0E       		.uleb128 0xe
ARM GAS  /tmp/cc0LECFC.s 			page 56


 3123 01d3 3A       		.uleb128 0x3a
 3124 01d4 0B       		.uleb128 0xb
 3125 01d5 3B       		.uleb128 0x3b
 3126 01d6 0B       		.uleb128 0xb
 3127 01d7 27       		.uleb128 0x27
 3128 01d8 0C       		.uleb128 0xc
 3129 01d9 11       		.uleb128 0x11
 3130 01da 01       		.uleb128 0x1
 3131 01db 12       		.uleb128 0x12
 3132 01dc 01       		.uleb128 0x1
 3133 01dd 40       		.uleb128 0x40
 3134 01de 06       		.uleb128 0x6
 3135 01df 9742     		.uleb128 0x2117
 3136 01e1 0C       		.uleb128 0xc
 3137 01e2 01       		.uleb128 0x1
 3138 01e3 13       		.uleb128 0x13
 3139 01e4 00       		.byte	0
 3140 01e5 00       		.byte	0
 3141 01e6 23       		.uleb128 0x23
 3142 01e7 05       		.uleb128 0x5
 3143 01e8 00       		.byte	0
 3144 01e9 03       		.uleb128 0x3
 3145 01ea 0E       		.uleb128 0xe
 3146 01eb 3A       		.uleb128 0x3a
 3147 01ec 0B       		.uleb128 0xb
 3148 01ed 3B       		.uleb128 0x3b
 3149 01ee 0B       		.uleb128 0xb
 3150 01ef 49       		.uleb128 0x49
 3151 01f0 13       		.uleb128 0x13
 3152 01f1 02       		.uleb128 0x2
 3153 01f2 06       		.uleb128 0x6
 3154 01f3 00       		.byte	0
 3155 01f4 00       		.byte	0
 3156 01f5 24       		.uleb128 0x24
 3157 01f6 05       		.uleb128 0x5
 3158 01f7 00       		.byte	0
 3159 01f8 03       		.uleb128 0x3
 3160 01f9 08       		.uleb128 0x8
 3161 01fa 3A       		.uleb128 0x3a
 3162 01fb 0B       		.uleb128 0xb
 3163 01fc 3B       		.uleb128 0x3b
 3164 01fd 0B       		.uleb128 0xb
 3165 01fe 49       		.uleb128 0x49
 3166 01ff 13       		.uleb128 0x13
 3167 0200 02       		.uleb128 0x2
 3168 0201 06       		.uleb128 0x6
 3169 0202 00       		.byte	0
 3170 0203 00       		.byte	0
 3171 0204 25       		.uleb128 0x25
 3172 0205 1D       		.uleb128 0x1d
 3173 0206 01       		.byte	0x1
 3174 0207 31       		.uleb128 0x31
 3175 0208 13       		.uleb128 0x13
 3176 0209 11       		.uleb128 0x11
 3177 020a 01       		.uleb128 0x1
 3178 020b 12       		.uleb128 0x12
 3179 020c 01       		.uleb128 0x1
ARM GAS  /tmp/cc0LECFC.s 			page 57


 3180 020d 58       		.uleb128 0x58
 3181 020e 0B       		.uleb128 0xb
 3182 020f 59       		.uleb128 0x59
 3183 0210 0B       		.uleb128 0xb
 3184 0211 01       		.uleb128 0x1
 3185 0212 13       		.uleb128 0x13
 3186 0213 00       		.byte	0
 3187 0214 00       		.byte	0
 3188 0215 26       		.uleb128 0x26
 3189 0216 05       		.uleb128 0x5
 3190 0217 00       		.byte	0
 3191 0218 31       		.uleb128 0x31
 3192 0219 13       		.uleb128 0x13
 3193 021a 02       		.uleb128 0x2
 3194 021b 06       		.uleb128 0x6
 3195 021c 00       		.byte	0
 3196 021d 00       		.byte	0
 3197 021e 27       		.uleb128 0x27
 3198 021f 05       		.uleb128 0x5
 3199 0220 00       		.byte	0
 3200 0221 31       		.uleb128 0x31
 3201 0222 13       		.uleb128 0x13
 3202 0223 02       		.uleb128 0x2
 3203 0224 0A       		.uleb128 0xa
 3204 0225 00       		.byte	0
 3205 0226 00       		.byte	0
 3206 0227 28       		.uleb128 0x28
 3207 0228 898201   		.uleb128 0x4109
 3208 022b 01       		.byte	0x1
 3209 022c 11       		.uleb128 0x11
 3210 022d 01       		.uleb128 0x1
 3211 022e 31       		.uleb128 0x31
 3212 022f 13       		.uleb128 0x13
 3213 0230 00       		.byte	0
 3214 0231 00       		.byte	0
 3215 0232 29       		.uleb128 0x29
 3216 0233 8A8201   		.uleb128 0x410a
 3217 0236 00       		.byte	0
 3218 0237 02       		.uleb128 0x2
 3219 0238 0A       		.uleb128 0xa
 3220 0239 9142     		.uleb128 0x2111
 3221 023b 0A       		.uleb128 0xa
 3222 023c 00       		.byte	0
 3223 023d 00       		.byte	0
 3224 023e 2A       		.uleb128 0x2a
 3225 023f 2E       		.uleb128 0x2e
 3226 0240 01       		.byte	0x1
 3227 0241 3F       		.uleb128 0x3f
 3228 0242 0C       		.uleb128 0xc
 3229 0243 03       		.uleb128 0x3
 3230 0244 0E       		.uleb128 0xe
 3231 0245 3A       		.uleb128 0x3a
 3232 0246 0B       		.uleb128 0xb
 3233 0247 3B       		.uleb128 0x3b
 3234 0248 0B       		.uleb128 0xb
 3235 0249 27       		.uleb128 0x27
 3236 024a 0C       		.uleb128 0xc
ARM GAS  /tmp/cc0LECFC.s 			page 58


 3237 024b 49       		.uleb128 0x49
 3238 024c 13       		.uleb128 0x13
 3239 024d 11       		.uleb128 0x11
 3240 024e 01       		.uleb128 0x1
 3241 024f 12       		.uleb128 0x12
 3242 0250 01       		.uleb128 0x1
 3243 0251 40       		.uleb128 0x40
 3244 0252 06       		.uleb128 0x6
 3245 0253 9742     		.uleb128 0x2117
 3246 0255 0C       		.uleb128 0xc
 3247 0256 01       		.uleb128 0x1
 3248 0257 13       		.uleb128 0x13
 3249 0258 00       		.byte	0
 3250 0259 00       		.byte	0
 3251 025a 2B       		.uleb128 0x2b
 3252 025b 05       		.uleb128 0x5
 3253 025c 00       		.byte	0
 3254 025d 03       		.uleb128 0x3
 3255 025e 0E       		.uleb128 0xe
 3256 025f 3A       		.uleb128 0x3a
 3257 0260 0B       		.uleb128 0xb
 3258 0261 3B       		.uleb128 0x3b
 3259 0262 0B       		.uleb128 0xb
 3260 0263 49       		.uleb128 0x49
 3261 0264 13       		.uleb128 0x13
 3262 0265 02       		.uleb128 0x2
 3263 0266 0A       		.uleb128 0xa
 3264 0267 00       		.byte	0
 3265 0268 00       		.byte	0
 3266 0269 2C       		.uleb128 0x2c
 3267 026a 898201   		.uleb128 0x4109
 3268 026d 01       		.byte	0x1
 3269 026e 11       		.uleb128 0x11
 3270 026f 01       		.uleb128 0x1
 3271 0270 31       		.uleb128 0x31
 3272 0271 13       		.uleb128 0x13
 3273 0272 01       		.uleb128 0x1
 3274 0273 13       		.uleb128 0x13
 3275 0274 00       		.byte	0
 3276 0275 00       		.byte	0
 3277 0276 2D       		.uleb128 0x2d
 3278 0277 898201   		.uleb128 0x4109
 3279 027a 01       		.byte	0x1
 3280 027b 11       		.uleb128 0x11
 3281 027c 01       		.uleb128 0x1
 3282 027d 01       		.uleb128 0x1
 3283 027e 13       		.uleb128 0x13
 3284 027f 00       		.byte	0
 3285 0280 00       		.byte	0
 3286 0281 2E       		.uleb128 0x2e
 3287 0282 2E       		.uleb128 0x2e
 3288 0283 01       		.byte	0x1
 3289 0284 31       		.uleb128 0x31
 3290 0285 13       		.uleb128 0x13
 3291 0286 11       		.uleb128 0x11
 3292 0287 01       		.uleb128 0x1
 3293 0288 12       		.uleb128 0x12
ARM GAS  /tmp/cc0LECFC.s 			page 59


 3294 0289 01       		.uleb128 0x1
 3295 028a 40       		.uleb128 0x40
 3296 028b 0A       		.uleb128 0xa
 3297 028c 9742     		.uleb128 0x2117
 3298 028e 0C       		.uleb128 0xc
 3299 028f 01       		.uleb128 0x1
 3300 0290 13       		.uleb128 0x13
 3301 0291 00       		.byte	0
 3302 0292 00       		.byte	0
 3303 0293 2F       		.uleb128 0x2f
 3304 0294 2E       		.uleb128 0x2e
 3305 0295 01       		.byte	0x1
 3306 0296 3F       		.uleb128 0x3f
 3307 0297 0C       		.uleb128 0xc
 3308 0298 03       		.uleb128 0x3
 3309 0299 0E       		.uleb128 0xe
 3310 029a 3A       		.uleb128 0x3a
 3311 029b 0B       		.uleb128 0xb
 3312 029c 3B       		.uleb128 0x3b
 3313 029d 05       		.uleb128 0x5
 3314 029e 27       		.uleb128 0x27
 3315 029f 0C       		.uleb128 0xc
 3316 02a0 11       		.uleb128 0x11
 3317 02a1 01       		.uleb128 0x1
 3318 02a2 12       		.uleb128 0x12
 3319 02a3 01       		.uleb128 0x1
 3320 02a4 40       		.uleb128 0x40
 3321 02a5 0A       		.uleb128 0xa
 3322 02a6 9742     		.uleb128 0x2117
 3323 02a8 0C       		.uleb128 0xc
 3324 02a9 01       		.uleb128 0x1
 3325 02aa 13       		.uleb128 0x13
 3326 02ab 00       		.byte	0
 3327 02ac 00       		.byte	0
 3328 02ad 30       		.uleb128 0x30
 3329 02ae 898201   		.uleb128 0x4109
 3330 02b1 01       		.byte	0x1
 3331 02b2 11       		.uleb128 0x11
 3332 02b3 01       		.uleb128 0x1
 3333 02b4 9542     		.uleb128 0x2115
 3334 02b6 0C       		.uleb128 0xc
 3335 02b7 31       		.uleb128 0x31
 3336 02b8 13       		.uleb128 0x13
 3337 02b9 00       		.byte	0
 3338 02ba 00       		.byte	0
 3339 02bb 31       		.uleb128 0x31
 3340 02bc 898201   		.uleb128 0x4109
 3341 02bf 00       		.byte	0
 3342 02c0 11       		.uleb128 0x11
 3343 02c1 01       		.uleb128 0x1
 3344 02c2 9542     		.uleb128 0x2115
 3345 02c4 0C       		.uleb128 0xc
 3346 02c5 31       		.uleb128 0x31
 3347 02c6 13       		.uleb128 0x13
 3348 02c7 00       		.byte	0
 3349 02c8 00       		.byte	0
 3350 02c9 32       		.uleb128 0x32
ARM GAS  /tmp/cc0LECFC.s 			page 60


 3351 02ca 0B       		.uleb128 0xb
 3352 02cb 01       		.byte	0x1
 3353 02cc 11       		.uleb128 0x11
 3354 02cd 01       		.uleb128 0x1
 3355 02ce 12       		.uleb128 0x12
 3356 02cf 01       		.uleb128 0x1
 3357 02d0 01       		.uleb128 0x1
 3358 02d1 13       		.uleb128 0x13
 3359 02d2 00       		.byte	0
 3360 02d3 00       		.byte	0
 3361 02d4 33       		.uleb128 0x33
 3362 02d5 1D       		.uleb128 0x1d
 3363 02d6 01       		.byte	0x1
 3364 02d7 31       		.uleb128 0x31
 3365 02d8 13       		.uleb128 0x13
 3366 02d9 11       		.uleb128 0x11
 3367 02da 01       		.uleb128 0x1
 3368 02db 12       		.uleb128 0x12
 3369 02dc 01       		.uleb128 0x1
 3370 02dd 58       		.uleb128 0x58
 3371 02de 0B       		.uleb128 0xb
 3372 02df 59       		.uleb128 0x59
 3373 02e0 05       		.uleb128 0x5
 3374 02e1 01       		.uleb128 0x1
 3375 02e2 13       		.uleb128 0x13
 3376 02e3 00       		.byte	0
 3377 02e4 00       		.byte	0
 3378 02e5 34       		.uleb128 0x34
 3379 02e6 05       		.uleb128 0x5
 3380 02e7 00       		.byte	0
 3381 02e8 03       		.uleb128 0x3
 3382 02e9 0E       		.uleb128 0xe
 3383 02ea 3A       		.uleb128 0x3a
 3384 02eb 0B       		.uleb128 0xb
 3385 02ec 3B       		.uleb128 0x3b
 3386 02ed 05       		.uleb128 0x5
 3387 02ee 49       		.uleb128 0x49
 3388 02ef 13       		.uleb128 0x13
 3389 02f0 02       		.uleb128 0x2
 3390 02f1 0A       		.uleb128 0xa
 3391 02f2 00       		.byte	0
 3392 02f3 00       		.byte	0
 3393 02f4 35       		.uleb128 0x35
 3394 02f5 34       		.uleb128 0x34
 3395 02f6 00       		.byte	0
 3396 02f7 03       		.uleb128 0x3
 3397 02f8 0E       		.uleb128 0xe
 3398 02f9 3A       		.uleb128 0x3a
 3399 02fa 0B       		.uleb128 0xb
 3400 02fb 3B       		.uleb128 0x3b
 3401 02fc 0B       		.uleb128 0xb
 3402 02fd 49       		.uleb128 0x49
 3403 02fe 13       		.uleb128 0x13
 3404 02ff 02       		.uleb128 0x2
 3405 0300 0A       		.uleb128 0xa
 3406 0301 00       		.byte	0
 3407 0302 00       		.byte	0
ARM GAS  /tmp/cc0LECFC.s 			page 61


 3408 0303 36       		.uleb128 0x36
 3409 0304 34       		.uleb128 0x34
 3410 0305 00       		.byte	0
 3411 0306 03       		.uleb128 0x3
 3412 0307 0E       		.uleb128 0xe
 3413 0308 3A       		.uleb128 0x3a
 3414 0309 0B       		.uleb128 0xb
 3415 030a 3B       		.uleb128 0x3b
 3416 030b 0B       		.uleb128 0xb
 3417 030c 49       		.uleb128 0x49
 3418 030d 13       		.uleb128 0x13
 3419 030e 3F       		.uleb128 0x3f
 3420 030f 0C       		.uleb128 0xc
 3421 0310 02       		.uleb128 0x2
 3422 0311 0A       		.uleb128 0xa
 3423 0312 00       		.byte	0
 3424 0313 00       		.byte	0
 3425 0314 37       		.uleb128 0x37
 3426 0315 34       		.uleb128 0x34
 3427 0316 00       		.byte	0
 3428 0317 03       		.uleb128 0x3
 3429 0318 0E       		.uleb128 0xe
 3430 0319 3A       		.uleb128 0x3a
 3431 031a 0B       		.uleb128 0xb
 3432 031b 3B       		.uleb128 0x3b
 3433 031c 05       		.uleb128 0x5
 3434 031d 49       		.uleb128 0x49
 3435 031e 13       		.uleb128 0x13
 3436 031f 3F       		.uleb128 0x3f
 3437 0320 0C       		.uleb128 0xc
 3438 0321 3C       		.uleb128 0x3c
 3439 0322 0C       		.uleb128 0xc
 3440 0323 00       		.byte	0
 3441 0324 00       		.byte	0
 3442 0325 38       		.uleb128 0x38
 3443 0326 2E       		.uleb128 0x2e
 3444 0327 01       		.byte	0x1
 3445 0328 3F       		.uleb128 0x3f
 3446 0329 0C       		.uleb128 0xc
 3447 032a 03       		.uleb128 0x3
 3448 032b 0E       		.uleb128 0xe
 3449 032c 3A       		.uleb128 0x3a
 3450 032d 0B       		.uleb128 0xb
 3451 032e 3B       		.uleb128 0x3b
 3452 032f 05       		.uleb128 0x5
 3453 0330 27       		.uleb128 0x27
 3454 0331 0C       		.uleb128 0xc
 3455 0332 3C       		.uleb128 0x3c
 3456 0333 0C       		.uleb128 0xc
 3457 0334 01       		.uleb128 0x1
 3458 0335 13       		.uleb128 0x13
 3459 0336 00       		.byte	0
 3460 0337 00       		.byte	0
 3461 0338 39       		.uleb128 0x39
 3462 0339 2E       		.uleb128 0x2e
 3463 033a 00       		.byte	0
 3464 033b 3F       		.uleb128 0x3f
ARM GAS  /tmp/cc0LECFC.s 			page 62


 3465 033c 0C       		.uleb128 0xc
 3466 033d 03       		.uleb128 0x3
 3467 033e 0E       		.uleb128 0xe
 3468 033f 3A       		.uleb128 0x3a
 3469 0340 0B       		.uleb128 0xb
 3470 0341 3B       		.uleb128 0x3b
 3471 0342 05       		.uleb128 0x5
 3472 0343 27       		.uleb128 0x27
 3473 0344 0C       		.uleb128 0xc
 3474 0345 3C       		.uleb128 0x3c
 3475 0346 0C       		.uleb128 0xc
 3476 0347 00       		.byte	0
 3477 0348 00       		.byte	0
 3478 0349 3A       		.uleb128 0x3a
 3479 034a 2E       		.uleb128 0x2e
 3480 034b 01       		.byte	0x1
 3481 034c 3F       		.uleb128 0x3f
 3482 034d 0C       		.uleb128 0xc
 3483 034e 03       		.uleb128 0x3
 3484 034f 0E       		.uleb128 0xe
 3485 0350 3A       		.uleb128 0x3a
 3486 0351 0B       		.uleb128 0xb
 3487 0352 3B       		.uleb128 0x3b
 3488 0353 0B       		.uleb128 0xb
 3489 0354 27       		.uleb128 0x27
 3490 0355 0C       		.uleb128 0xc
 3491 0356 49       		.uleb128 0x49
 3492 0357 13       		.uleb128 0x13
 3493 0358 3C       		.uleb128 0x3c
 3494 0359 0C       		.uleb128 0xc
 3495 035a 01       		.uleb128 0x1
 3496 035b 13       		.uleb128 0x13
 3497 035c 00       		.byte	0
 3498 035d 00       		.byte	0
 3499 035e 3B       		.uleb128 0x3b
 3500 035f 2E       		.uleb128 0x2e
 3501 0360 01       		.byte	0x1
 3502 0361 3F       		.uleb128 0x3f
 3503 0362 0C       		.uleb128 0xc
 3504 0363 03       		.uleb128 0x3
 3505 0364 0E       		.uleb128 0xe
 3506 0365 3A       		.uleb128 0x3a
 3507 0366 0B       		.uleb128 0xb
 3508 0367 3B       		.uleb128 0x3b
 3509 0368 0B       		.uleb128 0xb
 3510 0369 27       		.uleb128 0x27
 3511 036a 0C       		.uleb128 0xc
 3512 036b 3C       		.uleb128 0x3c
 3513 036c 0C       		.uleb128 0xc
 3514 036d 00       		.byte	0
 3515 036e 00       		.byte	0
 3516 036f 00       		.byte	0
 3517              		.section	.debug_loc,"",%progbits
 3518              	.Ldebug_loc0:
 3519              	.LLST0:
 3520 0000 00000000 		.4byte	.LFB11
 3521 0004 02000000 		.4byte	.LCFI0
ARM GAS  /tmp/cc0LECFC.s 			page 63


 3522 0008 0200     		.2byte	0x2
 3523 000a 7D       		.byte	0x7d
 3524 000b 00       		.sleb128 0
 3525 000c 02000000 		.4byte	.LCFI0
 3526 0010 40000000 		.4byte	.LFE11
 3527 0014 0200     		.2byte	0x2
 3528 0016 7D       		.byte	0x7d
 3529 0017 04       		.sleb128 4
 3530 0018 00000000 		.4byte	0
 3531 001c 00000000 		.4byte	0
 3532              	.LLST1:
 3533 0020 00000000 		.4byte	.LVL0
 3534 0024 34000000 		.4byte	.LVL4
 3535 0028 0100     		.2byte	0x1
 3536 002a 50       		.byte	0x50
 3537 002b 34000000 		.4byte	.LVL4
 3538 002f 38000000 		.4byte	.LVL5
 3539 0033 0400     		.2byte	0x4
 3540 0035 F3       		.byte	0xf3
 3541 0036 01       		.uleb128 0x1
 3542 0037 50       		.byte	0x50
 3543 0038 9F       		.byte	0x9f
 3544 0039 38000000 		.4byte	.LVL5
 3545 003d 40000000 		.4byte	.LFE11
 3546 0041 0100     		.2byte	0x1
 3547 0043 50       		.byte	0x50
 3548 0044 00000000 		.4byte	0
 3549 0048 00000000 		.4byte	0
 3550              	.LLST2:
 3551 004c 0E000000 		.4byte	.LVL1
 3552 0050 32000000 		.4byte	.LVL3
 3553 0054 0100     		.2byte	0x1
 3554 0056 53       		.byte	0x53
 3555 0057 00000000 		.4byte	0
 3556 005b 00000000 		.4byte	0
 3557              	.LLST3:
 3558 005f 0E000000 		.4byte	.LVL1
 3559 0063 32000000 		.4byte	.LVL3
 3560 0067 0100     		.2byte	0x1
 3561 0069 51       		.byte	0x51
 3562 006a 00000000 		.4byte	0
 3563 006e 00000000 		.4byte	0
 3564              	.LLST4:
 3565 0072 00000000 		.4byte	.LFB12
 3566 0076 02000000 		.4byte	.LCFI1
 3567 007a 0200     		.2byte	0x2
 3568 007c 7D       		.byte	0x7d
 3569 007d 00       		.sleb128 0
 3570 007e 02000000 		.4byte	.LCFI1
 3571 0082 64000000 		.4byte	.LFE12
 3572 0086 0200     		.2byte	0x2
 3573 0088 7D       		.byte	0x7d
 3574 0089 10       		.sleb128 16
 3575 008a 00000000 		.4byte	0
 3576 008e 00000000 		.4byte	0
 3577              	.LLST5:
 3578 0092 00000000 		.4byte	.LVL6
ARM GAS  /tmp/cc0LECFC.s 			page 64


 3579 0096 16000000 		.4byte	.LVL7
 3580 009a 0100     		.2byte	0x1
 3581 009c 50       		.byte	0x50
 3582 009d 16000000 		.4byte	.LVL7
 3583 00a1 56000000 		.4byte	.LVL17
 3584 00a5 0100     		.2byte	0x1
 3585 00a7 55       		.byte	0x55
 3586 00a8 56000000 		.4byte	.LVL17
 3587 00ac 64000000 		.4byte	.LFE12
 3588 00b0 0100     		.2byte	0x1
 3589 00b2 50       		.byte	0x50
 3590 00b3 00000000 		.4byte	0
 3591 00b7 00000000 		.4byte	0
 3592              	.LLST6:
 3593 00bb 00000000 		.4byte	.LVL6
 3594 00bf 1E000000 		.4byte	.LVL8
 3595 00c3 0100     		.2byte	0x1
 3596 00c5 51       		.byte	0x51
 3597 00c6 1E000000 		.4byte	.LVL8
 3598 00ca 56000000 		.4byte	.LVL17
 3599 00ce 0100     		.2byte	0x1
 3600 00d0 56       		.byte	0x56
 3601 00d1 56000000 		.4byte	.LVL17
 3602 00d5 64000000 		.4byte	.LFE12
 3603 00d9 0100     		.2byte	0x1
 3604 00db 51       		.byte	0x51
 3605 00dc 00000000 		.4byte	0
 3606 00e0 00000000 		.4byte	0
 3607              	.LLST7:
 3608 00e4 16000000 		.4byte	.LVL7
 3609 00e8 2F000000 		.4byte	.LVL11-1
 3610 00ec 0100     		.2byte	0x1
 3611 00ee 50       		.byte	0x50
 3612 00ef 30000000 		.4byte	.LVL11
 3613 00f3 36000000 		.4byte	.LVL12
 3614 00f7 0100     		.2byte	0x1
 3615 00f9 54       		.byte	0x54
 3616 00fa 36000000 		.4byte	.LVL12
 3617 00fe 3A000000 		.4byte	.LVL13
 3618 0102 0100     		.2byte	0x1
 3619 0104 50       		.byte	0x50
 3620 0105 00000000 		.4byte	0
 3621 0109 00000000 		.4byte	0
 3622              	.LLST8:
 3623 010d 3C000000 		.4byte	.LVL14
 3624 0111 52000000 		.4byte	.LVL16
 3625 0115 0100     		.2byte	0x1
 3626 0117 53       		.byte	0x53
 3627 0118 00000000 		.4byte	0
 3628 011c 00000000 		.4byte	0
 3629              	.LLST9:
 3630 0120 2C000000 		.4byte	.LVL10
 3631 0124 36000000 		.4byte	.LVL12
 3632 0128 0100     		.2byte	0x1
 3633 012a 54       		.byte	0x54
 3634 012b 00000000 		.4byte	0
 3635 012f 00000000 		.4byte	0
ARM GAS  /tmp/cc0LECFC.s 			page 65


 3636              	.LLST10:
 3637 0133 00000000 		.4byte	.LFB9
 3638 0137 02000000 		.4byte	.LCFI2
 3639 013b 0200     		.2byte	0x2
 3640 013d 7D       		.byte	0x7d
 3641 013e 00       		.sleb128 0
 3642 013f 02000000 		.4byte	.LCFI2
 3643 0143 1A000000 		.4byte	.LFE9
 3644 0147 0200     		.2byte	0x2
 3645 0149 7D       		.byte	0x7d
 3646 014a 10       		.sleb128 16
 3647 014b 00000000 		.4byte	0
 3648 014f 00000000 		.4byte	0
 3649              	.LLST11:
 3650 0153 00000000 		.4byte	.LVL18
 3651 0157 0B000000 		.4byte	.LVL19-1
 3652 015b 0100     		.2byte	0x1
 3653 015d 50       		.byte	0x50
 3654 015e 0B000000 		.4byte	.LVL19-1
 3655 0162 1A000000 		.4byte	.LFE9
 3656 0166 0100     		.2byte	0x1
 3657 0168 54       		.byte	0x54
 3658 0169 00000000 		.4byte	0
 3659 016d 00000000 		.4byte	0
 3660              	.LLST12:
 3661 0171 00000000 		.4byte	.LVL18
 3662 0175 0B000000 		.4byte	.LVL19-1
 3663 0179 0100     		.2byte	0x1
 3664 017b 51       		.byte	0x51
 3665 017c 0B000000 		.4byte	.LVL19-1
 3666 0180 1A000000 		.4byte	.LFE9
 3667 0184 0400     		.2byte	0x4
 3668 0186 F3       		.byte	0xf3
 3669 0187 01       		.uleb128 0x1
 3670 0188 51       		.byte	0x51
 3671 0189 9F       		.byte	0x9f
 3672 018a 00000000 		.4byte	0
 3673 018e 00000000 		.4byte	0
 3674              	.LLST13:
 3675 0192 00000000 		.4byte	.LVL18
 3676 0196 0B000000 		.4byte	.LVL19-1
 3677 019a 0100     		.2byte	0x1
 3678 019c 52       		.byte	0x52
 3679 019d 0B000000 		.4byte	.LVL19-1
 3680 01a1 10000000 		.4byte	.LVL20
 3681 01a5 0100     		.2byte	0x1
 3682 01a7 55       		.byte	0x55
 3683 01a8 10000000 		.4byte	.LVL20
 3684 01ac 1A000000 		.4byte	.LFE9
 3685 01b0 0400     		.2byte	0x4
 3686 01b2 F3       		.byte	0xf3
 3687 01b3 01       		.uleb128 0x1
 3688 01b4 52       		.byte	0x52
 3689 01b5 9F       		.byte	0x9f
 3690 01b6 00000000 		.4byte	0
 3691 01ba 00000000 		.4byte	0
 3692              	.LLST14:
ARM GAS  /tmp/cc0LECFC.s 			page 66


 3693 01be 00000000 		.4byte	.LVL18
 3694 01c2 0B000000 		.4byte	.LVL19-1
 3695 01c6 0100     		.2byte	0x1
 3696 01c8 53       		.byte	0x53
 3697 01c9 0B000000 		.4byte	.LVL19-1
 3698 01cd 16000000 		.4byte	.LVL22
 3699 01d1 0100     		.2byte	0x1
 3700 01d3 56       		.byte	0x56
 3701 01d4 16000000 		.4byte	.LVL22
 3702 01d8 1A000000 		.4byte	.LFE9
 3703 01dc 0400     		.2byte	0x4
 3704 01de F3       		.byte	0xf3
 3705 01df 01       		.uleb128 0x1
 3706 01e0 53       		.byte	0x53
 3707 01e1 9F       		.byte	0x9f
 3708 01e2 00000000 		.4byte	0
 3709 01e6 00000000 		.4byte	0
 3710              	.LLST15:
 3711 01ea 0C000000 		.4byte	.LVL19
 3712 01ee 10000000 		.4byte	.LVL20
 3713 01f2 0100     		.2byte	0x1
 3714 01f4 55       		.byte	0x55
 3715 01f5 10000000 		.4byte	.LVL20
 3716 01f9 1A000000 		.4byte	.LFE9
 3717 01fd 0400     		.2byte	0x4
 3718 01ff F3       		.byte	0xf3
 3719 0200 01       		.uleb128 0x1
 3720 0201 52       		.byte	0x52
 3721 0202 9F       		.byte	0x9f
 3722 0203 00000000 		.4byte	0
 3723 0207 00000000 		.4byte	0
 3724              	.LLST16:
 3725 020b 12000000 		.4byte	.LVL21
 3726 020f 16000000 		.4byte	.LVL22
 3727 0213 0100     		.2byte	0x1
 3728 0215 56       		.byte	0x56
 3729 0216 16000000 		.4byte	.LVL22
 3730 021a 1A000000 		.4byte	.LFE9
 3731 021e 0400     		.2byte	0x4
 3732 0220 F3       		.byte	0xf3
 3733 0221 01       		.uleb128 0x1
 3734 0222 53       		.byte	0x53
 3735 0223 9F       		.byte	0x9f
 3736 0224 00000000 		.4byte	0
 3737 0228 00000000 		.4byte	0
 3738              	.LLST17:
 3739 022c 00000000 		.4byte	.LFB8
 3740 0230 02000000 		.4byte	.LCFI3
 3741 0234 0200     		.2byte	0x2
 3742 0236 7D       		.byte	0x7d
 3743 0237 00       		.sleb128 0
 3744 0238 02000000 		.4byte	.LCFI3
 3745 023c 04000000 		.4byte	.LCFI4
 3746 0240 0200     		.2byte	0x2
 3747 0242 7D       		.byte	0x7d
 3748 0243 14       		.sleb128 20
 3749 0244 04000000 		.4byte	.LCFI4
ARM GAS  /tmp/cc0LECFC.s 			page 67


 3750 0248 68000000 		.4byte	.LFE8
 3751 024c 0200     		.2byte	0x2
 3752 024e 7D       		.byte	0x7d
 3753 024f 28       		.sleb128 40
 3754 0250 00000000 		.4byte	0
 3755 0254 00000000 		.4byte	0
 3756              	.LLST18:
 3757 0258 00000000 		.4byte	.LVL23
 3758 025c 0C000000 		.4byte	.LVL24
 3759 0260 0100     		.2byte	0x1
 3760 0262 50       		.byte	0x50
 3761 0263 0C000000 		.4byte	.LVL24
 3762 0267 44000000 		.4byte	.LVL27
 3763 026b 0100     		.2byte	0x1
 3764 026d 54       		.byte	0x54
 3765 026e 44000000 		.4byte	.LVL27
 3766 0272 4A000000 		.4byte	.LVL28
 3767 0276 0400     		.2byte	0x4
 3768 0278 F3       		.byte	0xf3
 3769 0279 01       		.uleb128 0x1
 3770 027a 50       		.byte	0x50
 3771 027b 9F       		.byte	0x9f
 3772 027c 4A000000 		.4byte	.LVL28
 3773 0280 4C000000 		.4byte	.LVL29
 3774 0284 0100     		.2byte	0x1
 3775 0286 54       		.byte	0x54
 3776 0287 4C000000 		.4byte	.LVL29
 3777 028b 4E000000 		.4byte	.LVL30
 3778 028f 0400     		.2byte	0x4
 3779 0291 F3       		.byte	0xf3
 3780 0292 01       		.uleb128 0x1
 3781 0293 50       		.byte	0x50
 3782 0294 9F       		.byte	0x9f
 3783 0295 4E000000 		.4byte	.LVL30
 3784 0299 57000000 		.4byte	.LVL31-1
 3785 029d 0100     		.2byte	0x1
 3786 029f 50       		.byte	0x50
 3787 02a0 57000000 		.4byte	.LVL31-1
 3788 02a4 68000000 		.4byte	.LFE8
 3789 02a8 0100     		.2byte	0x1
 3790 02aa 54       		.byte	0x54
 3791 02ab 00000000 		.4byte	0
 3792 02af 00000000 		.4byte	0
 3793              	.LLST19:
 3794 02b3 00000000 		.4byte	.LVL23
 3795 02b7 0C000000 		.4byte	.LVL24
 3796 02bb 0100     		.2byte	0x1
 3797 02bd 51       		.byte	0x51
 3798 02be 0C000000 		.4byte	.LVL24
 3799 02c2 4E000000 		.4byte	.LVL30
 3800 02c6 0400     		.2byte	0x4
 3801 02c8 F3       		.byte	0xf3
 3802 02c9 01       		.uleb128 0x1
 3803 02ca 51       		.byte	0x51
 3804 02cb 9F       		.byte	0x9f
 3805 02cc 4E000000 		.4byte	.LVL30
 3806 02d0 57000000 		.4byte	.LVL31-1
ARM GAS  /tmp/cc0LECFC.s 			page 68


 3807 02d4 0100     		.2byte	0x1
 3808 02d6 51       		.byte	0x51
 3809 02d7 57000000 		.4byte	.LVL31-1
 3810 02db 68000000 		.4byte	.LFE8
 3811 02df 0400     		.2byte	0x4
 3812 02e1 F3       		.byte	0xf3
 3813 02e2 01       		.uleb128 0x1
 3814 02e3 51       		.byte	0x51
 3815 02e4 9F       		.byte	0x9f
 3816 02e5 00000000 		.4byte	0
 3817 02e9 00000000 		.4byte	0
 3818              	.LLST20:
 3819 02ed 00000000 		.4byte	.LVL23
 3820 02f1 0C000000 		.4byte	.LVL24
 3821 02f5 0100     		.2byte	0x1
 3822 02f7 52       		.byte	0x52
 3823 02f8 0C000000 		.4byte	.LVL24
 3824 02fc 4E000000 		.4byte	.LVL30
 3825 0300 0400     		.2byte	0x4
 3826 0302 F3       		.byte	0xf3
 3827 0303 01       		.uleb128 0x1
 3828 0304 52       		.byte	0x52
 3829 0305 9F       		.byte	0x9f
 3830 0306 4E000000 		.4byte	.LVL30
 3831 030a 57000000 		.4byte	.LVL31-1
 3832 030e 0100     		.2byte	0x1
 3833 0310 52       		.byte	0x52
 3834 0311 57000000 		.4byte	.LVL31-1
 3835 0315 68000000 		.4byte	.LFE8
 3836 0319 0400     		.2byte	0x4
 3837 031b F3       		.byte	0xf3
 3838 031c 01       		.uleb128 0x1
 3839 031d 52       		.byte	0x52
 3840 031e 9F       		.byte	0x9f
 3841 031f 00000000 		.4byte	0
 3842 0323 00000000 		.4byte	0
 3843              	.LLST21:
 3844 0327 00000000 		.4byte	.LVL23
 3845 032b 0C000000 		.4byte	.LVL24
 3846 032f 0100     		.2byte	0x1
 3847 0331 53       		.byte	0x53
 3848 0332 0C000000 		.4byte	.LVL24
 3849 0336 4E000000 		.4byte	.LVL30
 3850 033a 0400     		.2byte	0x4
 3851 033c F3       		.byte	0xf3
 3852 033d 01       		.uleb128 0x1
 3853 033e 53       		.byte	0x53
 3854 033f 9F       		.byte	0x9f
 3855 0340 4E000000 		.4byte	.LVL30
 3856 0344 57000000 		.4byte	.LVL31-1
 3857 0348 0100     		.2byte	0x1
 3858 034a 53       		.byte	0x53
 3859 034b 57000000 		.4byte	.LVL31-1
 3860 034f 68000000 		.4byte	.LFE8
 3861 0353 0400     		.2byte	0x4
 3862 0355 F3       		.byte	0xf3
 3863 0356 01       		.uleb128 0x1
ARM GAS  /tmp/cc0LECFC.s 			page 69


 3864 0357 53       		.byte	0x53
 3865 0358 9F       		.byte	0x9f
 3866 0359 00000000 		.4byte	0
 3867 035d 00000000 		.4byte	0
 3868              	.LLST22:
 3869 0361 00000000 		.4byte	.LVL32
 3870 0365 04000000 		.4byte	.LVL33
 3871 0369 0100     		.2byte	0x1
 3872 036b 51       		.byte	0x51
 3873 036c 04000000 		.4byte	.LVL33
 3874 0370 08000000 		.4byte	.LFE13
 3875 0374 0400     		.2byte	0x4
 3876 0376 F3       		.byte	0xf3
 3877 0377 01       		.uleb128 0x1
 3878 0378 51       		.byte	0x51
 3879 0379 9F       		.byte	0x9f
 3880 037a 00000000 		.4byte	0
 3881 037e 00000000 		.4byte	0
 3882              	.LLST23:
 3883 0382 00000000 		.4byte	.LVL34
 3884 0386 04000000 		.4byte	.LVL35
 3885 038a 0100     		.2byte	0x1
 3886 038c 51       		.byte	0x51
 3887 038d 04000000 		.4byte	.LVL35
 3888 0391 08000000 		.4byte	.LFE14
 3889 0395 0400     		.2byte	0x4
 3890 0397 F3       		.byte	0xf3
 3891 0398 01       		.uleb128 0x1
 3892 0399 51       		.byte	0x51
 3893 039a 9F       		.byte	0x9f
 3894 039b 00000000 		.4byte	0
 3895 039f 00000000 		.4byte	0
 3896              	.LLST24:
 3897 03a3 00000000 		.4byte	.LVL37
 3898 03a7 1F000000 		.4byte	.LVL38-1
 3899 03ab 0100     		.2byte	0x1
 3900 03ad 50       		.byte	0x50
 3901 03ae 1F000000 		.4byte	.LVL38-1
 3902 03b2 20000000 		.4byte	.LFE16
 3903 03b6 0400     		.2byte	0x4
 3904 03b8 F3       		.byte	0xf3
 3905 03b9 01       		.uleb128 0x1
 3906 03ba 50       		.byte	0x50
 3907 03bb 9F       		.byte	0x9f
 3908 03bc 00000000 		.4byte	0
 3909 03c0 00000000 		.4byte	0
 3910              	.LLST25:
 3911 03c4 00000000 		.4byte	.LVL39
 3912 03c8 1D000000 		.4byte	.LVL40-1
 3913 03cc 0100     		.2byte	0x1
 3914 03ce 50       		.byte	0x50
 3915 03cf 1D000000 		.4byte	.LVL40-1
 3916 03d3 1E000000 		.4byte	.LFE17
 3917 03d7 0400     		.2byte	0x4
 3918 03d9 F3       		.byte	0xf3
 3919 03da 01       		.uleb128 0x1
 3920 03db 50       		.byte	0x50
ARM GAS  /tmp/cc0LECFC.s 			page 70


 3921 03dc 9F       		.byte	0x9f
 3922 03dd 00000000 		.4byte	0
 3923 03e1 00000000 		.4byte	0
 3924              	.LLST26:
 3925 03e5 00000000 		.4byte	.LFB10
 3926 03e9 02000000 		.4byte	.LCFI5
 3927 03ed 0200     		.2byte	0x2
 3928 03ef 7D       		.byte	0x7d
 3929 03f0 00       		.sleb128 0
 3930 03f1 02000000 		.4byte	.LCFI5
 3931 03f5 50000000 		.4byte	.LFE10
 3932 03f9 0200     		.2byte	0x2
 3933 03fb 7D       		.byte	0x7d
 3934 03fc 08       		.sleb128 8
 3935 03fd 00000000 		.4byte	0
 3936 0401 00000000 		.4byte	0
 3937              	.LLST27:
 3938 0405 00000000 		.4byte	.LVL41
 3939 0409 0E000000 		.4byte	.LVL42
 3940 040d 0100     		.2byte	0x1
 3941 040f 50       		.byte	0x50
 3942 0410 0E000000 		.4byte	.LVL42
 3943 0414 42000000 		.4byte	.LVL50
 3944 0418 0100     		.2byte	0x1
 3945 041a 54       		.byte	0x54
 3946 041b 42000000 		.4byte	.LVL50
 3947 041f 45000000 		.4byte	.LVL51-1
 3948 0423 0100     		.2byte	0x1
 3949 0425 50       		.byte	0x50
 3950 0426 45000000 		.4byte	.LVL51-1
 3951 042a 50000000 		.4byte	.LFE10
 3952 042e 0100     		.2byte	0x1
 3953 0430 54       		.byte	0x54
 3954 0431 00000000 		.4byte	0
 3955 0435 00000000 		.4byte	0
 3956              	.LLST28:
 3957 0439 16000000 		.4byte	.LVL43
 3958 043d 1E000000 		.4byte	.LVL44
 3959 0441 0100     		.2byte	0x1
 3960 0443 52       		.byte	0x52
 3961 0444 1E000000 		.4byte	.LVL44
 3962 0448 2E000000 		.4byte	.LVL46
 3963 044c 0100     		.2byte	0x1
 3964 044e 50       		.byte	0x50
 3965 044f 2E000000 		.4byte	.LVL46
 3966 0453 30000000 		.4byte	.LVL47
 3967 0457 0100     		.2byte	0x1
 3968 0459 52       		.byte	0x52
 3969 045a 00000000 		.4byte	0
 3970 045e 00000000 		.4byte	0
 3971              	.LLST29:
 3972 0462 3C000000 		.4byte	.LVL48
 3973 0466 40000000 		.4byte	.LVL49
 3974 046a 0200     		.2byte	0x2
 3975 046c 30       		.byte	0x30
 3976 046d 9F       		.byte	0x9f
 3977 046e 00000000 		.4byte	0
ARM GAS  /tmp/cc0LECFC.s 			page 71


 3978 0472 00000000 		.4byte	0
 3979              	.LLST30:
 3980 0476 00000000 		.4byte	.LVL52
 3981 047a 23000000 		.4byte	.LVL53-1
 3982 047e 0100     		.2byte	0x1
 3983 0480 50       		.byte	0x50
 3984 0481 23000000 		.4byte	.LVL53-1
 3985 0485 24000000 		.4byte	.LFE18
 3986 0489 0400     		.2byte	0x4
 3987 048b F3       		.byte	0xf3
 3988 048c 01       		.uleb128 0x1
 3989 048d 50       		.byte	0x50
 3990 048e 9F       		.byte	0x9f
 3991 048f 00000000 		.4byte	0
 3992 0493 00000000 		.4byte	0
 3993              		.section	.debug_aranges,"",%progbits
 3994 0000 7C000000 		.4byte	0x7c
 3995 0004 0200     		.2byte	0x2
 3996 0006 00000000 		.4byte	.Ldebug_info0
 3997 000a 04       		.byte	0x4
 3998 000b 00       		.byte	0
 3999 000c 0000     		.2byte	0
 4000 000e 0000     		.2byte	0
 4001 0010 00000000 		.4byte	.LFB7
 4002 0014 02000000 		.4byte	.LFE7-.LFB7
 4003 0018 00000000 		.4byte	.LFB11
 4004 001c 40000000 		.4byte	.LFE11-.LFB11
 4005 0020 00000000 		.4byte	.LFB12
 4006 0024 64000000 		.4byte	.LFE12-.LFB12
 4007 0028 00000000 		.4byte	.LFB9
 4008 002c 1A000000 		.4byte	.LFE9-.LFB9
 4009 0030 00000000 		.4byte	.LFB8
 4010 0034 68000000 		.4byte	.LFE8-.LFB8
 4011 0038 00000000 		.4byte	.LFB13
 4012 003c 08000000 		.4byte	.LFE13-.LFB13
 4013 0040 00000000 		.4byte	.LFB14
 4014 0044 08000000 		.4byte	.LFE14-.LFB14
 4015 0048 00000000 		.4byte	.LFB15
 4016 004c 0C000000 		.4byte	.LFE15-.LFB15
 4017 0050 00000000 		.4byte	.LFB16
 4018 0054 20000000 		.4byte	.LFE16-.LFB16
 4019 0058 00000000 		.4byte	.LFB17
 4020 005c 1E000000 		.4byte	.LFE17-.LFB17
 4021 0060 00000000 		.4byte	.LFB10
 4022 0064 50000000 		.4byte	.LFE10-.LFB10
 4023 0068 00000000 		.4byte	.LFB18
 4024 006c 24000000 		.4byte	.LFE18-.LFB18
 4025 0070 00000000 		.4byte	.LFB19
 4026 0074 16000000 		.4byte	.LFE19-.LFB19
 4027 0078 00000000 		.4byte	0
 4028 007c 00000000 		.4byte	0
 4029              		.section	.debug_ranges,"",%progbits
 4030              	.Ldebug_ranges0:
 4031 0000 00000000 		.4byte	.LFB7
 4032 0004 02000000 		.4byte	.LFE7
 4033 0008 00000000 		.4byte	.LFB11
 4034 000c 40000000 		.4byte	.LFE11
ARM GAS  /tmp/cc0LECFC.s 			page 72


 4035 0010 00000000 		.4byte	.LFB12
 4036 0014 64000000 		.4byte	.LFE12
 4037 0018 00000000 		.4byte	.LFB9
 4038 001c 1A000000 		.4byte	.LFE9
 4039 0020 00000000 		.4byte	.LFB8
 4040 0024 68000000 		.4byte	.LFE8
 4041 0028 00000000 		.4byte	.LFB13
 4042 002c 08000000 		.4byte	.LFE13
 4043 0030 00000000 		.4byte	.LFB14
 4044 0034 08000000 		.4byte	.LFE14
 4045 0038 00000000 		.4byte	.LFB15
 4046 003c 0C000000 		.4byte	.LFE15
 4047 0040 00000000 		.4byte	.LFB16
 4048 0044 20000000 		.4byte	.LFE16
 4049 0048 00000000 		.4byte	.LFB17
 4050 004c 1E000000 		.4byte	.LFE17
 4051 0050 00000000 		.4byte	.LFB10
 4052 0054 50000000 		.4byte	.LFE10
 4053 0058 00000000 		.4byte	.LFB18
 4054 005c 24000000 		.4byte	.LFE18
 4055 0060 00000000 		.4byte	.LFB19
 4056 0064 16000000 		.4byte	.LFE19
 4057 0068 00000000 		.4byte	0
 4058 006c 00000000 		.4byte	0
 4059              		.section	.debug_line,"",%progbits
 4060              	.Ldebug_line0:
 4061 0000 5C030000 		.section	.debug_str,"MS",%progbits,1
 4061      0200A001 
 4061      00000201 
 4061      FB0E0D00 
 4061      01010101 
 4062              	.LASF119:
 4063 0000 6C697374 		.ascii	"listen_pcbs\000"
 4063      656E5F70 
 4063      63627300 
 4064              	.LASF124:
 4065 000c 4D454D50 		.ascii	"MEMP_TCP_PCB_LISTEN\000"
 4065      5F544350 
 4065      5F504342 
 4065      5F4C4953 
 4065      54454E00 
 4066              	.LASF49:
 4067 0020 736F5F6F 		.ascii	"so_options\000"
 4067      7074696F 
 4067      6E7300
 4068              	.LASF35:
 4069 002b 696E7075 		.ascii	"input\000"
 4069      7400
 4070              	.LASF118:
 4071 0031 75726770 		.ascii	"urgp\000"
 4071      00
 4072              	.LASF55:
 4073 0036 706F6C6C 		.ascii	"polltmr\000"
 4073      746D7200 
 4074              	.LASF45:
 4075 003e 7463705F 		.ascii	"tcp_accept_fn\000"
 4075      61636365 
ARM GAS  /tmp/cc0LECFC.s 			page 73


 4075      70745F66 
 4075      6E00
 4076              	.LASF31:
 4077 004c 666C6167 		.ascii	"flags\000"
 4077      7300
 4078              	.LASF108:
 4079 0052 54494D45 		.ascii	"TIME_WAIT\000"
 4079      5F574149 
 4079      5400
 4080              	.LASF0:
 4081 005c 756E7369 		.ascii	"unsigned int\000"
 4081      676E6564 
 4081      20696E74 
 4081      00
 4082              	.LASF97:
 4083 0069 7463705F 		.ascii	"tcp_connected_fn\000"
 4083      636F6E6E 
 4083      65637465 
 4083      645F666E 
 4083      00
 4084              	.LASF27:
 4085 007a 6E657874 		.ascii	"next\000"
 4085      00
 4086              	.LASF23:
 4087 007f 6572725F 		.ascii	"err_t\000"
 4087      7400
 4088              	.LASF37:
 4089 0085 6C696E6B 		.ascii	"linkoutput\000"
 4089      6F757470 
 4089      757400
 4090              	.LASF138:
 4091 0090 6E657469 		.ascii	"netif_set_default\000"
 4091      665F7365 
 4091      745F6465 
 4091      6661756C 
 4091      7400
 4092              	.LASF19:
 4093 00a2 7531365F 		.ascii	"u16_t\000"
 4093      7400
 4094              	.LASF147:
 4095 00a8 6E657469 		.ascii	"netif_set_down\000"
 4095      665F7365 
 4095      745F646F 
 4095      776E00
 4096              	.LASF61:
 4097 00b7 7263765F 		.ascii	"rcv_ann_right_edge\000"
 4097      616E6E5F 
 4097      72696768 
 4097      745F6564 
 4097      676500
 4098              	.LASF141:
 4099 00ca 6E657469 		.ascii	"netif_set_ipaddr\000"
 4099      665F7365 
 4099      745F6970 
 4099      61646472 
 4099      00
 4100              	.LASF43:
ARM GAS  /tmp/cc0LECFC.s 			page 74


 4101 00db 6E657469 		.ascii	"netif_output_fn\000"
 4101      665F6F75 
 4101      74707574 
 4101      5F666E00 
 4102              	.LASF92:
 4103 00eb 6B656570 		.ascii	"keep_cnt_sent\000"
 4103      5F636E74 
 4103      5F73656E 
 4103      7400
 4104              	.LASF134:
 4105 00f9 4D454D50 		.ascii	"MEMP_PBUF_POOL\000"
 4105      5F504255 
 4105      465F504F 
 4105      4F4C00
 4106              	.LASF94:
 4107 0108 7463705F 		.ascii	"tcp_sent_fn\000"
 4107      73656E74 
 4107      5F666E00 
 4108              	.LASF152:
 4109 0114 6E657469 		.ascii	"netif_num\000"
 4109      665F6E75 
 4109      6D00
 4110              	.LASF114:
 4111 011e 7365716E 		.ascii	"seqno\000"
 4111      6F00
 4112              	.LASF42:
 4113 0124 6E657469 		.ascii	"netif_input_fn\000"
 4113      665F696E 
 4113      7075745F 
 4113      666E00
 4114              	.LASF10:
 4115 0133 75696E74 		.ascii	"uint32_t\000"
 4115      33325F74 
 4115      00
 4116              	.LASF2:
 4117 013c 696E7438 		.ascii	"int8_t\000"
 4117      5F7400
 4118              	.LASF68:
 4119 0143 63776E64 		.ascii	"cwnd\000"
 4119      00
 4120              	.LASF130:
 4121 0148 4D454D50 		.ascii	"MEMP_TCPIP_MSG_API\000"
 4121      5F544350 
 4121      49505F4D 
 4121      53475F41 
 4121      504900
 4122              	.LASF53:
 4123 015b 6C6F6361 		.ascii	"local_port\000"
 4123      6C5F706F 
 4123      727400
 4124              	.LASF5:
 4125 0166 696E7431 		.ascii	"int16_t\000"
 4125      365F7400 
 4126              	.LASF153:
 4127 016e 6E657469 		.ascii	"netif_list\000"
 4127      665F6C69 
 4127      737400
ARM GAS  /tmp/cc0LECFC.s 			page 75


 4128              	.LASF40:
 4129 0179 68776164 		.ascii	"hwaddr\000"
 4129      647200
 4130              	.LASF159:
 4131 0180 2E2E2F2E 		.ascii	"../../ext/lwip/src/core/netif.c\000"
 4131      2E2F6578 
 4131      742F6C77 
 4131      69702F73 
 4131      72632F63 
 4132              	.LASF109:
 4133 01a0 7463705F 		.ascii	"tcp_seg\000"
 4133      73656700 
 4134              	.LASF13:
 4135 01a8 6C6F6E67 		.ascii	"long long unsigned int\000"
 4135      206C6F6E 
 4135      6720756E 
 4135      7369676E 
 4135      65642069 
 4136              	.LASF161:
 4137 01bf 7463705F 		.ascii	"tcp_state\000"
 4137      73746174 
 4137      6500
 4138              	.LASF62:
 4139 01c9 7274696D 		.ascii	"rtime\000"
 4139      6500
 4140              	.LASF39:
 4141 01cf 68776164 		.ascii	"hwaddr_len\000"
 4141      64725F6C 
 4141      656E00
 4142              	.LASF136:
 4143 01da 6E657469 		.ascii	"netif_set_netmask\000"
 4143      665F7365 
 4143      745F6E65 
 4143      746D6173 
 4143      6B00
 4144              	.LASF58:
 4145 01ec 7263765F 		.ascii	"rcv_nxt\000"
 4145      6E787400 
 4146              	.LASF131:
 4147 01f4 4D454D50 		.ascii	"MEMP_TCPIP_MSG_INPKT\000"
 4147      5F544350 
 4147      49505F4D 
 4147      53475F49 
 4147      4E504B54 
 4148              	.LASF81:
 4149 0209 756E6163 		.ascii	"unacked\000"
 4149      6B656400 
 4150              	.LASF160:
 4151 0211 2F686F6D 		.ascii	"/home/witold/Dokumenty/arm/ChibiOS-master/demos/ARM"
 4151      652F7769 
 4151      746F6C64 
 4151      2F446F6B 
 4151      756D656E 
 4152 0244 434D342D 		.ascii	"CM4-STM32F407-LWIP\000"
 4152      53544D33 
 4152      32463430 
 4152      372D4C57 
ARM GAS  /tmp/cc0LECFC.s 			page 76


 4152      495000
 4153              	.LASF107:
 4154 0257 4C415354 		.ascii	"LAST_ACK\000"
 4154      5F41434B 
 4154      00
 4155              	.LASF29:
 4156 0260 746F745F 		.ascii	"tot_len\000"
 4156      6C656E00 
 4157              	.LASF139:
 4158 0268 69706164 		.ascii	"ipaddr\000"
 4158      647200
 4159              	.LASF28:
 4160 026f 7061796C 		.ascii	"payload\000"
 4160      6F616400 
 4161              	.LASF166:
 4162 0277 65746861 		.ascii	"etharp_cleanup_netif\000"
 4162      72705F63 
 4162      6C65616E 
 4162      75705F6E 
 4162      65746966 
 4163              	.LASF36:
 4164 028c 6F757470 		.ascii	"output\000"
 4164      757400
 4165              	.LASF86:
 4166 0293 636F6E6E 		.ascii	"connected\000"
 4166      65637465 
 4166      6400
 4167              	.LASF14:
 4168 029d 5F426F6F 		.ascii	"_Bool\000"
 4168      6C00
 4169              	.LASF106:
 4170 02a3 434C4F53 		.ascii	"CLOSING\000"
 4170      494E4700 
 4171              	.LASF67:
 4172 02ab 6C617374 		.ascii	"lastack\000"
 4172      61636B00 
 4173              	.LASF135:
 4174 02b3 4D454D50 		.ascii	"MEMP_MAX\000"
 4174      5F4D4158 
 4174      00
 4175              	.LASF18:
 4176 02bc 73385F74 		.ascii	"s8_t\000"
 4176      00
 4177              	.LASF129:
 4178 02c1 4D454D50 		.ascii	"MEMP_NETCONN\000"
 4178      5F4E4554 
 4178      434F4E4E 
 4178      00
 4179              	.LASF64:
 4180 02ce 72747365 		.ascii	"rtseq\000"
 4180      7100
 4181              	.LASF156:
 4182 02d4 7463705F 		.ascii	"tcp_active_pcbs\000"
 4182      61637469 
 4182      76655F70 
 4182      63627300 
 4183              	.LASF66:
ARM GAS  /tmp/cc0LECFC.s 			page 77


 4184 02e4 64757061 		.ascii	"dupacks\000"
 4184      636B7300 
 4185              	.LASF149:
 4186 02ec 746D704E 		.ascii	"tmpNetif\000"
 4186      65746966 
 4186      00
 4187              	.LASF52:
 4188 02f5 7072696F 		.ascii	"prio\000"
 4188      00
 4189              	.LASF51:
 4190 02fa 61636365 		.ascii	"accept\000"
 4190      707400
 4191              	.LASF133:
 4192 0301 4D454D50 		.ascii	"MEMP_PBUF\000"
 4192      5F504255 
 4192      4600
 4193              	.LASF87:
 4194 030b 706F6C6C 		.ascii	"poll\000"
 4194      00
 4195              	.LASF16:
 4196 0310 63686172 		.ascii	"char\000"
 4196      00
 4197              	.LASF76:
 4198 0315 61636B65 		.ascii	"acked\000"
 4198      6400
 4199              	.LASF105:
 4200 031b 434C4F53 		.ascii	"CLOSE_WAIT\000"
 4200      455F5741 
 4200      495400
 4201              	.LASF143:
 4202 0326 6E657469 		.ascii	"netif_find\000"
 4202      665F6669 
 4202      6E6400
 4203              	.LASF84:
 4204 0331 73656E74 		.ascii	"sent\000"
 4204      00
 4205              	.LASF3:
 4206 0336 75696E74 		.ascii	"uint8_t\000"
 4206      385F7400 
 4207              	.LASF71:
 4208 033e 736E645F 		.ascii	"snd_wl1\000"
 4208      776C3100 
 4209              	.LASF72:
 4210 0346 736E645F 		.ascii	"snd_wl2\000"
 4210      776C3200 
 4211              	.LASF96:
 4212 034e 7463705F 		.ascii	"tcp_err_fn\000"
 4212      6572725F 
 4212      666E00
 4213              	.LASF162:
 4214 0359 7463705F 		.ascii	"tcp_listen_pcbs_t\000"
 4214      6C697374 
 4214      656E5F70 
 4214      6362735F 
 4214      7400
 4215              	.LASF148:
 4216 036b 6E657469 		.ascii	"netif_remove\000"
ARM GAS  /tmp/cc0LECFC.s 			page 78


 4216      665F7265 
 4216      6D6F7665 
 4216      00
 4217              	.LASF73:
 4218 0378 736E645F 		.ascii	"snd_lbb\000"
 4218      6C626200 
 4219              	.LASF128:
 4220 0380 4D454D50 		.ascii	"MEMP_NETBUF\000"
 4220      5F4E4554 
 4220      42554600 
 4221              	.LASF34:
 4222 038c 6E65746D 		.ascii	"netmask\000"
 4222      61736B00 
 4223              	.LASF12:
 4224 0394 6C6F6E67 		.ascii	"long long int\000"
 4224      206C6F6E 
 4224      6720696E 
 4224      7400
 4225              	.LASF111:
 4226 03a2 7463705F 		.ascii	"tcp_pcb_listen\000"
 4226      7063625F 
 4226      6C697374 
 4226      656E00
 4227              	.LASF115:
 4228 03b1 61636B6E 		.ascii	"ackno\000"
 4228      6F00
 4229              	.LASF91:
 4230 03b7 70657273 		.ascii	"persist_backoff\000"
 4230      6973745F 
 4230      6261636B 
 4230      6F666600 
 4231              	.LASF123:
 4232 03c7 4D454D50 		.ascii	"MEMP_TCP_PCB\000"
 4232      5F544350 
 4232      5F504342 
 4232      00
 4233              	.LASF17:
 4234 03d4 75385F74 		.ascii	"u8_t\000"
 4234      00
 4235              	.LASF54:
 4236 03d9 72656D6F 		.ascii	"remote_port\000"
 4236      74655F70 
 4236      6F727400 
 4237              	.LASF155:
 4238 03e5 7463705F 		.ascii	"tcp_listen_pcbs\000"
 4238      6C697374 
 4238      656E5F70 
 4238      63627300 
 4239              	.LASF60:
 4240 03f5 7263765F 		.ascii	"rcv_ann_wnd\000"
 4240      616E6E5F 
 4240      776E6400 
 4241              	.LASF144:
 4242 0401 6E657469 		.ascii	"netif_add\000"
 4242      665F6164 
 4242      6400
 4243              	.LASF126:
ARM GAS  /tmp/cc0LECFC.s 			page 79


 4244 040b 4D454D50 		.ascii	"MEMP_REASSDATA\000"
 4244      5F524541 
 4244      53534441 
 4244      544100
 4245              	.LASF93:
 4246 041a 7463705F 		.ascii	"tcp_recv_fn\000"
 4246      72656376 
 4246      5F666E00 
 4247              	.LASF157:
 4248 0426 7463705F 		.ascii	"tcp_abort\000"
 4248      61626F72 
 4248      7400
 4249              	.LASF154:
 4250 0430 6E657469 		.ascii	"netif_default\000"
 4250      665F6465 
 4250      6661756C 
 4250      7400
 4251              	.LASF95:
 4252 043e 7463705F 		.ascii	"tcp_poll_fn\000"
 4252      706F6C6C 
 4252      5F666E00 
 4253              	.LASF7:
 4254 044a 75696E74 		.ascii	"uint16_t\000"
 4254      31365F74 
 4254      00
 4255              	.LASF88:
 4256 0453 65727266 		.ascii	"errf\000"
 4256      00
 4257              	.LASF74:
 4258 0458 736E645F 		.ascii	"snd_wnd\000"
 4258      776E6400 
 4259              	.LASF32:
 4260 0460 6E657469 		.ascii	"netif_init_fn\000"
 4260      665F696E 
 4260      69745F66 
 4260      6E00
 4261              	.LASF82:
 4262 046e 6F6F7365 		.ascii	"ooseq\000"
 4262      7100
 4263              	.LASF98:
 4264 0474 434C4F53 		.ascii	"CLOSED\000"
 4264      454400
 4265              	.LASF21:
 4266 047b 7533325F 		.ascii	"u32_t\000"
 4266      7400
 4267              	.LASF6:
 4268 0481 73686F72 		.ascii	"short int\000"
 4268      7420696E 
 4268      7400
 4269              	.LASF9:
 4270 048b 6C6F6E67 		.ascii	"long int\000"
 4270      20696E74 
 4270      00
 4271              	.LASF80:
 4272 0494 756E7365 		.ascii	"unsent\000"
 4272      6E7400
 4273              	.LASF59:
ARM GAS  /tmp/cc0LECFC.s 			page 80


 4274 049b 7263765F 		.ascii	"rcv_wnd\000"
 4274      776E6400 
 4275              	.LASF63:
 4276 04a3 72747465 		.ascii	"rttest\000"
 4276      737400
 4277              	.LASF151:
 4278 04aa 6E657469 		.ascii	"netif_set_link_down\000"
 4278      665F7365 
 4278      745F6C69 
 4278      6E6B5F64 
 4278      6F776E00 
 4279              	.LASF132:
 4280 04be 4D454D50 		.ascii	"MEMP_SYS_TIMEOUT\000"
 4280      5F535953 
 4280      5F54494D 
 4280      454F5554 
 4280      00
 4281              	.LASF57:
 4282 04cf 6C617374 		.ascii	"last_timer\000"
 4282      5F74696D 
 4282      657200
 4283              	.LASF122:
 4284 04da 4D454D50 		.ascii	"MEMP_UDP_PCB\000"
 4284      5F554450 
 4284      5F504342 
 4284      00
 4285              	.LASF47:
 4286 04e7 6C6F6361 		.ascii	"local_ip\000"
 4286      6C5F6970 
 4286      00
 4287              	.LASF79:
 4288 04f0 756E7365 		.ascii	"unsent_oversize\000"
 4288      6E745F6F 
 4288      76657273 
 4288      697A6500 
 4289              	.LASF165:
 4290 0500 65746861 		.ascii	"etharp_request\000"
 4290      72705F72 
 4290      65717565 
 4290      737400
 4291              	.LASF70:
 4292 050f 736E645F 		.ascii	"snd_nxt\000"
 4292      6E787400 
 4293              	.LASF102:
 4294 0517 45535441 		.ascii	"ESTABLISHED\000"
 4294      424C4953 
 4294      48454400 
 4295              	.LASF75:
 4296 0523 736E645F 		.ascii	"snd_wnd_max\000"
 4296      776E645F 
 4296      6D617800 
 4297              	.LASF41:
 4298 052f 6E616D65 		.ascii	"name\000"
 4298      00
 4299              	.LASF146:
 4300 0534 6E657469 		.ascii	"netif_set_up\000"
 4300      665F7365 
ARM GAS  /tmp/cc0LECFC.s 			page 81


 4300      745F7570 
 4300      00
 4301              	.LASF44:
 4302 0541 6E657469 		.ascii	"netif_linkoutput_fn\000"
 4302      665F6C69 
 4302      6E6B6F75 
 4302      74707574 
 4302      5F666E00 
 4303              	.LASF127:
 4304 0555 4D454D50 		.ascii	"MEMP_FRAG_PBUF\000"
 4304      5F465241 
 4304      475F5042 
 4304      554600
 4305              	.LASF69:
 4306 0564 73737468 		.ascii	"ssthresh\000"
 4306      72657368 
 4306      00
 4307              	.LASF77:
 4308 056d 736E645F 		.ascii	"snd_buf\000"
 4308      62756600 
 4309              	.LASF142:
 4310 0575 6E657469 		.ascii	"netif_set_addr\000"
 4310      665F7365 
 4310      745F6164 
 4310      647200
 4311              	.LASF56:
 4312 0584 706F6C6C 		.ascii	"pollinterval\000"
 4312      696E7465 
 4312      7276616C 
 4312      00
 4313              	.LASF121:
 4314 0591 4D454D50 		.ascii	"MEMP_RAW_PCB\000"
 4314      5F524157 
 4314      5F504342 
 4314      00
 4315              	.LASF116:
 4316 059e 5F686472 		.ascii	"_hdrlen_rsvd_flags\000"
 4316      6C656E5F 
 4316      72737664 
 4316      5F666C61 
 4316      677300
 4317              	.LASF145:
 4318 05b1 696E6974 		.ascii	"init\000"
 4318      00
 4319              	.LASF15:
 4320 05b6 73697A65 		.ascii	"sizetype\000"
 4320      74797065 
 4320      00
 4321              	.LASF11:
 4322 05bf 6C6F6E67 		.ascii	"long unsigned int\000"
 4322      20756E73 
 4322      69676E65 
 4322      6420696E 
 4322      7400
 4323              	.LASF110:
 4324 05d1 74637068 		.ascii	"tcphdr\000"
 4324      647200
ARM GAS  /tmp/cc0LECFC.s 			page 82


 4325              	.LASF20:
 4326 05d8 7331365F 		.ascii	"s16_t\000"
 4326      7400
 4327              	.LASF83:
 4328 05de 72656675 		.ascii	"refused_data\000"
 4328      7365645F 
 4328      64617461 
 4328      00
 4329              	.LASF112:
 4330 05eb 7463705F 		.ascii	"tcp_hdr\000"
 4330      68647200 
 4331              	.LASF30:
 4332 05f3 74797065 		.ascii	"type\000"
 4332      00
 4333              	.LASF4:
 4334 05f8 756E7369 		.ascii	"unsigned char\000"
 4334      676E6564 
 4334      20636861 
 4334      7200
 4335              	.LASF103:
 4336 0606 46494E5F 		.ascii	"FIN_WAIT_1\000"
 4336      57414954 
 4336      5F3100
 4337              	.LASF104:
 4338 0611 46494E5F 		.ascii	"FIN_WAIT_2\000"
 4338      57414954 
 4338      5F3200
 4339              	.LASF125:
 4340 061c 4D454D50 		.ascii	"MEMP_TCP_SEG\000"
 4340      5F544350 
 4340      5F534547 
 4340      00
 4341              	.LASF100:
 4342 0629 53594E5F 		.ascii	"SYN_SENT\000"
 4342      53454E54 
 4342      00
 4343              	.LASF137:
 4344 0632 6E657469 		.ascii	"netif_set_gw\000"
 4344      665F7365 
 4344      745F6777 
 4344      00
 4345              	.LASF25:
 4346 063f 70627566 		.ascii	"pbuf\000"
 4346      00
 4347              	.LASF89:
 4348 0644 6B656570 		.ascii	"keep_idle\000"
 4348      5F69646C 
 4348      6500
 4349              	.LASF50:
 4350 064e 63616C6C 		.ascii	"callback_arg\000"
 4350      6261636B 
 4350      5F617267 
 4350      00
 4351              	.LASF164:
 4352 065b 706F7274 		.ascii	"port_halt\000"
 4352      5F68616C 
 4352      7400
ARM GAS  /tmp/cc0LECFC.s 			page 83


 4353              	.LASF99:
 4354 0665 4C495354 		.ascii	"LISTEN\000"
 4354      454E00
 4355              	.LASF163:
 4356 066c 6E657469 		.ascii	"netif_init\000"
 4356      665F696E 
 4356      697400
 4357              	.LASF26:
 4358 0677 61646472 		.ascii	"addr\000"
 4358      00
 4359              	.LASF38:
 4360 067c 73746174 		.ascii	"state\000"
 4360      6500
 4361              	.LASF33:
 4362 0682 6E657469 		.ascii	"netif\000"
 4362      6600
 4363              	.LASF158:
 4364 0688 474E5520 		.ascii	"GNU C 4.7.4 20130613 (release) [ARM/embedded-4_7-br"
 4364      4320342E 
 4364      372E3420 
 4364      32303133 
 4364      30363133 
 4365 06bb 616E6368 		.ascii	"anch revision 200083]\000"
 4365      20726576 
 4365      6973696F 
 4365      6E203230 
 4365      30303833 
 4366              	.LASF78:
 4367 06d1 736E645F 		.ascii	"snd_queuelen\000"
 4367      71756575 
 4367      656C656E 
 4367      00
 4368              	.LASF117:
 4369 06de 63686B73 		.ascii	"chksum\000"
 4369      756D00
 4370              	.LASF140:
 4371 06e5 6C706362 		.ascii	"lpcb\000"
 4371      00
 4372              	.LASF150:
 4373 06ea 6E657469 		.ascii	"netif_set_link_up\000"
 4373      665F7365 
 4373      745F6C69 
 4373      6E6B5F75 
 4373      7000
 4374              	.LASF85:
 4375 06fc 72656376 		.ascii	"recv\000"
 4375      00
 4376              	.LASF1:
 4377 0701 7369676E 		.ascii	"signed char\000"
 4377      65642063 
 4377      68617200 
 4378              	.LASF46:
 4379 070d 7463705F 		.ascii	"tcp_pcb\000"
 4379      70636200 
 4380              	.LASF8:
 4381 0715 73686F72 		.ascii	"short unsigned int\000"
 4381      7420756E 
ARM GAS  /tmp/cc0LECFC.s 			page 84


 4381      7369676E 
 4381      65642069 
 4381      6E7400
 4382              	.LASF90:
 4383 0728 70657273 		.ascii	"persist_cnt\000"
 4383      6973745F 
 4383      636E7400 
 4384              	.LASF48:
 4385 0734 72656D6F 		.ascii	"remote_ip\000"
 4385      74655F69 
 4385      7000
 4386              	.LASF22:
 4387 073e 69705F61 		.ascii	"ip_addr_t\000"
 4387      6464725F 
 4387      7400
 4388              	.LASF65:
 4389 0748 6E727478 		.ascii	"nrtx\000"
 4389      00
 4390              	.LASF113:
 4391 074d 64657374 		.ascii	"dest\000"
 4391      00
 4392              	.LASF101:
 4393 0752 53594E5F 		.ascii	"SYN_RCVD\000"
 4393      52435644 
 4393      00
 4394              	.LASF24:
 4395 075b 69705F61 		.ascii	"ip_addr\000"
 4395      64647200 
 4396              	.LASF120:
 4397 0763 70636273 		.ascii	"pcbs\000"
 4397      00
 4398              		.ident	"GCC: (GNU Tools for ARM Embedded Processors) 4.7.4 20130613 (release) [ARM/embedded-4_7-br
ARM GAS  /tmp/cc0LECFC.s 			page 85


DEFINED SYMBOLS
                            *ABS*:00000000 netif.c
     /tmp/cc0LECFC.s:19     .text.netif_init:00000000 $t
     /tmp/cc0LECFC.s:25     .text.netif_init:00000000 netif_init
     /tmp/cc0LECFC.s:38     .text.netif_find:00000000 $t
     /tmp/cc0LECFC.s:44     .text.netif_find:00000000 netif_find
     /tmp/cc0LECFC.s:106    .text.netif_find:0000003c $d
     /tmp/cc0LECFC.s:111    .text.netif_set_ipaddr:00000000 $t
     /tmp/cc0LECFC.s:117    .text.netif_set_ipaddr:00000000 netif_set_ipaddr
     /tmp/cc0LECFC.s:221    .text.netif_set_ipaddr:0000005c $d
     /tmp/cc0LECFC.s:227    .text.netif_set_addr:00000000 $t
     /tmp/cc0LECFC.s:233    .text.netif_set_addr:00000000 netif_set_addr
     /tmp/cc0LECFC.s:280    .text.netif_add:00000000 $t
     /tmp/cc0LECFC.s:286    .text.netif_add:00000000 netif_add
     /tmp/cc0LECFC.s:382    .text.netif_add:00000060 $d
     /tmp/cc0LECFC.s:388    .text.netif_set_gw:00000000 $t
     /tmp/cc0LECFC.s:394    .text.netif_set_gw:00000000 netif_set_gw
     /tmp/cc0LECFC.s:415    .text.netif_set_netmask:00000000 $t
     /tmp/cc0LECFC.s:421    .text.netif_set_netmask:00000000 netif_set_netmask
     /tmp/cc0LECFC.s:442    .text.netif_set_default:00000000 $t
     /tmp/cc0LECFC.s:448    .text.netif_set_default:00000000 netif_set_default
     /tmp/cc0LECFC.s:717    .bss.netif_default:00000000 .LANCHOR2
     /tmp/cc0LECFC.s:465    .text.netif_set_up:00000000 $t
     /tmp/cc0LECFC.s:471    .text.netif_set_up:00000000 netif_set_up
     /tmp/cc0LECFC.s:505    .text.netif_set_down:00000000 $t
     /tmp/cc0LECFC.s:511    .text.netif_set_down:00000000 netif_set_down
     /tmp/cc0LECFC.s:542    .text.netif_remove:00000000 $t
     /tmp/cc0LECFC.s:548    .text.netif_remove:00000000 netif_remove
     /tmp/cc0LECFC.s:632    .text.netif_remove:00000048 $d
     /tmp/cc0LECFC.s:638    .text.netif_set_link_up:00000000 $t
     /tmp/cc0LECFC.s:644    .text.netif_set_link_up:00000000 netif_set_link_up
     /tmp/cc0LECFC.s:679    .text.netif_set_link_down:00000000 $t
     /tmp/cc0LECFC.s:685    .text.netif_set_link_down:00000000 netif_set_link_down
     /tmp/cc0LECFC.s:720    .bss.netif_default:00000000 netif_default
     /tmp/cc0LECFC.s:713    .bss.netif_list:00000000 netif_list
     /tmp/cc0LECFC.s:709    .bss.netif_list:00000000 $d
     /tmp/cc0LECFC.s:716    .bss.netif_default:00000000 $d
     /tmp/cc0LECFC.s:726    .bss.netif_num:00000000 netif_num
     /tmp/cc0LECFC.s:727    .bss.netif_num:00000000 $d
                     .debug_frame:00000010 $d
     /tmp/cc0LECFC.s:226    .text.netif_set_ipaddr:00000064 $t
     /tmp/cc0LECFC.s:387    .text.netif_add:00000068 $t

UNDEFINED SYMBOLS
tcp_abort
tcp_active_pcbs
tcp_listen_pcbs
port_halt
etharp_request
etharp_cleanup_netif
