ARM GAS  /tmp/ccGvWwDb.s 			page 1


   1              		.syntax unified
   2              		.cpu cortex-m4
   3              		.fpu softvfp
   4              		.eabi_attribute 20, 1
   5              		.eabi_attribute 21, 1
   6              		.eabi_attribute 23, 3
   7              		.eabi_attribute 24, 1
   8              		.eabi_attribute 25, 1
   9              		.eabi_attribute 26, 1
  10              		.eabi_attribute 30, 2
  11              		.eabi_attribute 34, 1
  12              		.eabi_attribute 18, 4
  13              		.thumb
  14              		.file	"pbuf.c"
  15              		.text
  16              	.Ltext0:
  17              		.cfi_sections	.debug_frame
  18              		.section	.text.pbuf_free_ooseq_callback,"ax",%progbits
  19              		.align	2
  20              		.p2align 4,,15
  21              		.thumb
  22              		.thumb_func
  23              		.type	pbuf_free_ooseq_callback, %function
  24              	pbuf_free_ooseq_callback:
  25              	.LFB8:
  26              		.file 1 "../../ext/lwip/src/core/pbuf.c"
  27              		.loc 1 144 0
  28              		.cfi_startproc
  29              		@ args = 0, pretend = 0, frame = 0
  30              		@ frame_needed = 0, uses_anonymous_args = 0
  31              	.LVL0:
  32              	.LBB10:
  33              	.LBB11:
  34              		.loc 1 127 0
  35 0000 094B     		ldr	r3, .L17
  36              		.loc 1 124 0
  37 0002 0A48     		ldr	r0, .L17+4
  38              	.LVL1:
  39              	.LBE11:
  40              	.LBE10:
  41              		.loc 1 144 0
  42 0004 10B5     		push	{r4, lr}
  43              	.LCFI0:
  44              		.cfi_def_cfa_offset 8
  45              		.cfi_offset 4, -8
  46              		.cfi_offset 14, -4
  47              	.LBB13:
  48              	.LBB12:
  49              		.loc 1 127 0
  50 0006 1C68     		ldr	r4, [r3, #0]
  51              	.LVL2:
  52              		.loc 1 124 0
  53 0008 0022     		movs	r2, #0
  54 000a 0270     		strb	r2, [r0, #0]
  55              		.loc 1 127 0
  56 000c 14B9     		cbnz	r4, .L6
  57 000e 09E0     		b	.L1
ARM GAS  /tmp/ccGvWwDb.s 			page 2


  58              	.L11:
  59 0010 E468     		ldr	r4, [r4, #12]
  60              	.LVL3:
  61 0012 3CB1     		cbz	r4, .L1
  62              	.L6:
  63              		.loc 1 128 0
  64 0014 606F     		ldr	r0, [r4, #116]
  65 0016 0028     		cmp	r0, #0
  66 0018 FAD0     		beq	.L11
  67              		.loc 1 131 0
  68 001a FFF7FEFF 		bl	tcp_segs_free
  69              	.LVL4:
  70              		.loc 1 132 0
  71 001e 0021     		movs	r1, #0
  72 0020 6167     		str	r1, [r4, #116]
  73 0022 10BD     		pop	{r4, pc}
  74              	.L1:
  75 0024 10BD     		pop	{r4, pc}
  76              	.L18:
  77 0026 00BF     		.align	2
  78              	.L17:
  79 0028 00000000 		.word	tcp_active_pcbs
  80 002c 00000000 		.word	.LANCHOR0
  81              	.LBE12:
  82              	.LBE13:
  83              		.cfi_endproc
  84              	.LFE8:
  85              		.size	pbuf_free_ooseq_callback, .-pbuf_free_ooseq_callback
  86              		.section	.text.pbuf_pool_is_empty,"ax",%progbits
  87              		.align	2
  88              		.p2align 4,,15
  89              		.thumb
  90              		.thumb_func
  91              		.type	pbuf_pool_is_empty, %function
  92              	pbuf_pool_is_empty:
  93              	.LFB9:
  94              		.loc 1 153 0
  95              		.cfi_startproc
  96              		@ args = 0, pretend = 0, frame = 0
  97              		@ frame_needed = 0, uses_anonymous_args = 0
  98 0000 38B5     		push	{r3, r4, r5, lr}
  99              	.LCFI1:
 100              		.cfi_def_cfa_offset 16
 101              		.cfi_offset 3, -16
 102              		.cfi_offset 4, -12
 103              		.cfi_offset 5, -8
 104              		.cfi_offset 14, -4
 105              		.loc 1 163 0
 106 0002 074C     		ldr	r4, .L27
 107 0004 2578     		ldrb	r5, [r4, #0]	@ zero_extendqisi2
 108              	.LVL5:
 109              		.loc 1 164 0
 110 0006 0123     		movs	r3, #1
 111 0008 2370     		strb	r3, [r4, #0]
 112              		.loc 1 167 0
 113 000a 2946     		mov	r1, r5
 114 000c 05B1     		cbz	r5, .L26
ARM GAS  /tmp/ccGvWwDb.s 			page 3


 115              	.L19:
 116 000e 38BD     		pop	{r3, r4, r5, pc}
 117              	.LVL6:
 118              	.L26:
 119              	.LBB16:
 120              	.LBB17:
 121              		.loc 1 169 0
 122 0010 0448     		ldr	r0, .L27+4
 123 0012 2A46     		mov	r2, r5
 124 0014 FFF7FEFF 		bl	tcpip_callback_with_block
 125              	.LVL7:
 126 0018 0028     		cmp	r0, #0
 127 001a F8D0     		beq	.L19
 128 001c 2570     		strb	r5, [r4, #0]
 129 001e 38BD     		pop	{r3, r4, r5, pc}
 130              	.L28:
 131              		.align	2
 132              	.L27:
 133 0020 00000000 		.word	.LANCHOR0
 134 0024 00000000 		.word	pbuf_free_ooseq_callback
 135              	.LBE17:
 136              	.LBE16:
 137              		.cfi_endproc
 138              	.LFE9:
 139              		.size	pbuf_pool_is_empty, .-pbuf_pool_is_empty
 140 0028 AFF30080 		.section	.text.pbuf_alloced_custom,"ax",%progbits
 140      AFF30080 
 141              		.align	2
 142              		.p2align 4,,15
 143              		.global	pbuf_alloced_custom
 144              		.thumb
 145              		.thumb_func
 146              		.type	pbuf_alloced_custom, %function
 147              	pbuf_alloced_custom:
 148              	.LFB11:
 149              		.loc 1 369 0
 150              		.cfi_startproc
 151              		@ args = 8, pretend = 0, frame = 0
 152              		@ frame_needed = 0, uses_anonymous_args = 0
 153              	.LVL8:
 154 0000 70B5     		push	{r4, r5, r6, lr}
 155              	.LCFI2:
 156              		.cfi_def_cfa_offset 16
 157              		.cfi_offset 4, -16
 158              		.cfi_offset 5, -12
 159              		.cfi_offset 6, -8
 160              		.cfi_offset 14, -4
 161              		.loc 1 369 0
 162 0002 049C     		ldr	r4, [sp, #16]
 163              		.loc 1 374 0
 164 0004 0328     		cmp	r0, #3
 165 0006 24D8     		bhi	.L30
 166 0008 DFE800F0 		tbb	[pc, r0]
 167              	.L35:
 168 000c 20       		.byte	(.L31-.L35)/2
 169 000d 1D       		.byte	(.L39-.L35)/2
 170 000e 1A       		.byte	(.L33-.L35)/2
ARM GAS  /tmp/ccGvWwDb.s 			page 4


 171 000f 02       		.byte	(.L34-.L35)/2
 172              		.align	1
 173              	.L34:
 174              	.LVL9:
 175              		.loc 1 389 0
 176 0010 0025     		movs	r5, #0
 177 0012 0326     		movs	r6, #3
 178              	.LVL10:
 179              	.L32:
 180              		.loc 1 395 0
 181 0014 BDF81400 		ldrh	r0, [sp, #20]
 182              	.LVL11:
 183 0018 4D19     		adds	r5, r1, r5
 184 001a 8542     		cmp	r5, r0
 185              		.loc 1 397 0
 186 001c 4FF00000 		mov	r0, #0
 187              		.loc 1 395 0
 188 0020 1DDC     		bgt	.L40
 189              		.loc 1 400 0
 190 0022 1860     		str	r0, [r3, #0]
 191              		.loc 1 401 0
 192 0024 CCB1     		cbz	r4, .L37
 193              		.loc 1 402 0
 194 0026 26F00306 		bic	r6, r6, #3
 195 002a A419     		adds	r4, r4, r6
 196 002c 5C60     		str	r4, [r3, #4]
 197              	.L38:
 198              		.loc 1 406 0
 199 002e 0220     		movs	r0, #2
 200              		.loc 1 408 0
 201 0030 1A73     		strb	r2, [r3, #12]
 202              		.loc 1 409 0
 203 0032 0122     		movs	r2, #1
 204              	.LVL12:
 205              		.loc 1 406 0
 206 0034 5873     		strb	r0, [r3, #13]
 207              		.loc 1 407 0
 208 0036 1981     		strh	r1, [r3, #8]	@ movhi
 209 0038 5981     		strh	r1, [r3, #10]	@ movhi
 210              		.loc 1 409 0
 211 003a DA81     		strh	r2, [r3, #14]	@ movhi
 212              		.loc 1 410 0
 213 003c 1846     		mov	r0, r3
 214 003e 70BD     		pop	{r4, r5, r6, pc}
 215              	.LVL13:
 216              	.L33:
 217              		.loc 1 386 0
 218 0040 1025     		movs	r5, #16
 219 0042 1126     		movs	r6, #17
 220 0044 E6E7     		b	.L32
 221              	.LVL14:
 222              	.L39:
 223              		.loc 1 374 0
 224 0046 2425     		movs	r5, #36
 225 0048 2526     		movs	r6, #37
 226 004a E3E7     		b	.L32
 227              	.L31:
ARM GAS  /tmp/ccGvWwDb.s 			page 5


 228 004c 3825     		movs	r5, #56
 229 004e 3926     		movs	r6, #57
 230 0050 E0E7     		b	.L32
 231              	.L30:
 232              		.loc 1 391 0 discriminator 1
 233 0052 FFF7FEFF 		bl	port_halt
 234              	.LVL15:
 235              		.loc 1 392 0 discriminator 1
 236 0056 0020     		movs	r0, #0
 237 0058 70BD     		pop	{r4, r5, r6, pc}
 238              	.LVL16:
 239              	.L37:
 240              		.loc 1 404 0
 241 005a 5C60     		str	r4, [r3, #4]
 242 005c E7E7     		b	.L38
 243              	.L40:
 244              		.loc 1 411 0
 245 005e 70BD     		pop	{r4, r5, r6, pc}
 246              		.cfi_endproc
 247              	.LFE11:
 248              		.size	pbuf_alloced_custom, .-pbuf_alloced_custom
 249              		.section	.text.pbuf_header,"ax",%progbits
 250              		.align	2
 251              		.p2align 4,,15
 252              		.global	pbuf_header
 253              		.thumb
 254              		.thumb_func
 255              		.type	pbuf_header, %function
 256              	pbuf_header:
 257              	.LFB13:
 258              		.loc 1 512 0
 259              		.cfi_startproc
 260              		@ args = 0, pretend = 0, frame = 8
 261              		@ frame_needed = 0, uses_anonymous_args = 0
 262              	.LVL17:
 263 0000 10B5     		push	{r4, lr}
 264              	.LCFI3:
 265              		.cfi_def_cfa_offset 8
 266              		.cfi_offset 4, -8
 267              		.cfi_offset 14, -4
 268 0002 82B0     		sub	sp, sp, #8
 269              	.LCFI4:
 270              		.cfi_def_cfa_offset 16
 271              		.loc 1 517 0
 272 0004 0028     		cmp	r0, #0
 273 0006 28D0     		beq	.L63
 274              		.loc 1 518 0
 275 0008 0029     		cmp	r1, #0
 276 000a 1AD0     		beq	.L62
 277              		.loc 1 522 0
 278 000c 1CDB     		blt	.L64
 279              		.loc 1 527 0
 280 000e 8CB2     		uxth	r4, r1
 281              	.LVL18:
 282              	.L45:
 283              		.loc 1 540 0
 284 0010 037B     		ldrb	r3, [r0, #12]	@ zero_extendqisi2
ARM GAS  /tmp/ccGvWwDb.s 			page 6


 285              	.LVL19:
 286              		.loc 1 542 0
 287 0012 4268     		ldr	r2, [r0, #4]
 288              	.LVL20:
 289              		.loc 1 545 0
 290 0014 43B1     		cbz	r3, .L46
 291              		.loc 1 545 0 is_stmt 0 discriminator 1
 292 0016 032B     		cmp	r3, #3
 293 0018 06D0     		beq	.L46
 294              		.loc 1 559 0 is_stmt 1
 295 001a 013B     		subs	r3, r3, #1
 296 001c 012B     		cmp	r3, #1
 297 001e 18D8     		bhi	.L49
 298              		.loc 1 561 0
 299 0020 0029     		cmp	r1, #0
 300 0022 1FDB     		blt	.L65
 301              	.LVL21:
 302              	.L54:
 303              		.loc 1 567 0
 304 0024 0120     		movs	r0, #1
 305              	.LVL22:
 306 0026 0DE0     		b	.L59
 307              	.LVL23:
 308              	.L46:
 309              		.loc 1 547 0
 310 0028 521A     		subs	r2, r2, r1
 311              	.LVL24:
 312              		.loc 1 549 0
 313 002a 00F11003 		add	r3, r0, #16
 314 002e 9A42     		cmp	r2, r3
 315 0030 F8D3     		bcc	.L54
 316              		.loc 1 547 0
 317 0032 4260     		str	r2, [r0, #4]
 318              	.L50:
 319              		.loc 1 575 0
 320 0034 4389     		ldrh	r3, [r0, #10]
 321              		.loc 1 576 0
 322 0036 0289     		ldrh	r2, [r0, #8]
 323              		.loc 1 575 0
 324 0038 89B2     		uxth	r1, r1
 325 003a CB18     		adds	r3, r1, r3
 326              		.loc 1 576 0
 327 003c 8A18     		adds	r2, r1, r2
 328              		.loc 1 575 0
 329 003e 4381     		strh	r3, [r0, #10]	@ movhi
 330              		.loc 1 576 0
 331 0040 0281     		strh	r2, [r0, #8]	@ movhi
 332              	.LVL25:
 333              	.L62:
 334              		.loc 1 581 0
 335 0042 0020     		movs	r0, #0
 336              	.LVL26:
 337              	.L59:
 338              		.loc 1 582 0
 339 0044 02B0     		add	sp, sp, #8
 340 0046 10BD     		pop	{r4, pc}
 341              	.LVL27:
ARM GAS  /tmp/ccGvWwDb.s 			page 7


 342              	.L64:
 343              		.loc 1 523 0
 344 0048 4C42     		negs	r4, r1
 345              		.loc 1 525 0
 346 004a 4389     		ldrh	r3, [r0, #10]
 347              		.loc 1 523 0
 348 004c A4B2     		uxth	r4, r4
 349              	.LVL28:
 350              		.loc 1 525 0
 351 004e A342     		cmp	r3, r4
 352 0050 DED2     		bcs	.L45
 353              	.LVL29:
 354              	.L49:
 355              		.loc 1 525 0 is_stmt 0 discriminator 1
 356 0052 FFF7FEFF 		bl	port_halt
 357              	.LVL30:
 358 0056 0120     		movs	r0, #1
 359 0058 F4E7     		b	.L59
 360              	.LVL31:
 361              	.L63:
 362              		.loc 1 517 0 is_stmt 1 discriminator 1
 363 005a 0190     		str	r0, [sp, #4]
 364 005c FFF7FEFF 		bl	port_halt
 365              	.LVL32:
 366              		.loc 1 519 0 discriminator 1
 367 0060 0198     		ldr	r0, [sp, #4]
 368 0062 EFE7     		b	.L59
 369              	.LVL33:
 370              	.L65:
 371              		.loc 1 561 0 discriminator 1
 372 0064 4389     		ldrh	r3, [r0, #10]
 373 0066 A342     		cmp	r3, r4
 374 0068 DCD3     		bcc	.L54
 375              		.loc 1 563 0
 376 006a 521A     		subs	r2, r2, r1
 377              	.LVL34:
 378 006c 4260     		str	r2, [r0, #4]
 379 006e E1E7     		b	.L50
 380              		.cfi_endproc
 381              	.LFE13:
 382              		.size	pbuf_header, .-pbuf_header
 383              		.section	.text.pbuf_free,"ax",%progbits
 384              		.align	2
 385              		.p2align 4,,15
 386              		.global	pbuf_free
 387              		.thumb
 388              		.thumb_func
 389              		.type	pbuf_free, %function
 390              	pbuf_free:
 391              	.LFB14:
 392              		.loc 1 619 0
 393              		.cfi_startproc
 394              		@ args = 0, pretend = 0, frame = 0
 395              		@ frame_needed = 0, uses_anonymous_args = 0
 396              	.LVL35:
 397 0000 70B5     		push	{r4, r5, r6, lr}
 398              	.LCFI5:
ARM GAS  /tmp/ccGvWwDb.s 			page 8


 399              		.cfi_def_cfa_offset 16
 400              		.cfi_offset 4, -16
 401              		.cfi_offset 5, -12
 402              		.cfi_offset 6, -8
 403              		.cfi_offset 14, -4
 404              		.loc 1 624 0
 405 0002 0446     		mov	r4, r0
 406 0004 0028     		cmp	r0, #0
 407 0006 3FD0     		beq	.L78
 408              		.loc 1 635 0
 409 0008 037B     		ldrb	r3, [r0, #12]	@ zero_extendqisi2
 410 000a 032B     		cmp	r3, #3
 411 000c 2BD8     		bhi	.L79
 412              	.LVL36:
 413              	.L69:
 414              		.loc 1 619 0 discriminator 1
 415 000e 0025     		movs	r5, #0
 416              	.LVL37:
 417              	.L76:
 418              	.LBB18:
 419              		.loc 1 650 0
 420 0010 E089     		ldrh	r0, [r4, #14]
 421 0012 28B1     		cbz	r0, .L80
 422              		.loc 1 652 0
 423 0014 411E     		subs	r1, r0, #1
 424 0016 8AB2     		uxth	r2, r1
 425 0018 E281     		strh	r2, [r4, #14]	@ movhi
 426              	.LVL38:
 427              		.loc 1 655 0
 428 001a 4AB1     		cbz	r2, .L81
 429              	.LVL39:
 430              	.L68:
 431              	.LBE18:
 432              		.loc 1 694 0
 433 001c 2846     		mov	r0, r5
 434 001e 70BD     		pop	{r4, r5, r6, pc}
 435              	.L80:
 436              	.LBB21:
 437              		.loc 1 650 0 discriminator 1
 438 0020 FFF7FEFF 		bl	port_halt
 439              	.LVL40:
 440 0024 E089     		ldrh	r0, [r4, #14]
 441              		.loc 1 652 0 discriminator 1
 442 0026 411E     		subs	r1, r0, #1
 443 0028 8AB2     		uxth	r2, r1
 444 002a E281     		strh	r2, [r4, #14]	@ movhi
 445              	.LVL41:
 446              		.loc 1 655 0 discriminator 1
 447 002c 002A     		cmp	r2, #0
 448 002e F5D1     		bne	.L68
 449              	.LVL42:
 450              	.L81:
 451              		.loc 1 662 0
 452 0030 637B     		ldrb	r3, [r4, #13]	@ zero_extendqisi2
 453              		.loc 1 657 0
 454 0032 2668     		ldr	r6, [r4, #0]
 455              	.LVL43:
ARM GAS  /tmp/ccGvWwDb.s 			page 9


 456              		.loc 1 659 0
 457 0034 207B     		ldrb	r0, [r4, #12]	@ zero_extendqisi2
 458              	.LVL44:
 459              		.loc 1 662 0
 460 0036 03F00201 		and	r1, r3, #2
 461 003a CAB2     		uxtb	r2, r1
 462 003c 52B1     		cbz	r2, .L71
 463              	.LVL45:
 464              	.LBB19:
 465              		.loc 1 664 0
 466 003e 2169     		ldr	r1, [r4, #16]
 467 0040 F1B1     		cbz	r1, .L82
 468              	.LVL46:
 469              	.L72:
 470              		.loc 1 665 0
 471 0042 2046     		mov	r0, r4
 472 0044 8847     		blx	r1
 473              	.LVL47:
 474              	.L73:
 475              	.LBE19:
 476              		.loc 1 680 0
 477 0046 0135     		adds	r5, r5, #1
 478              	.LBE21:
 479              		.loc 1 642 0
 480 0048 3446     		mov	r4, r6
 481              	.LBB22:
 482              		.loc 1 680 0
 483 004a EDB2     		uxtb	r5, r5
 484              	.LVL48:
 485              	.LBE22:
 486              		.loc 1 642 0
 487 004c 002E     		cmp	r6, #0
 488 004e DFD1     		bne	.L76
 489              	.LVL49:
 490              		.loc 1 694 0
 491 0050 2846     		mov	r0, r5
 492 0052 70BD     		pop	{r4, r5, r6, pc}
 493              	.LVL50:
 494              	.L71:
 495              	.LBB23:
 496              		.loc 1 670 0
 497 0054 0328     		cmp	r0, #3
 498 0056 0ED0     		beq	.L83
 499              		.loc 1 673 0
 500 0058 431E     		subs	r3, r0, #1
 501 005a 012B     		cmp	r3, #1
 502 005c 06D9     		bls	.L84
 503              		.loc 1 677 0
 504 005e 2046     		mov	r0, r4
 505              	.LVL51:
 506 0060 FFF7FEFF 		bl	mem_free
 507              	.LVL52:
 508 0064 EFE7     		b	.L73
 509              	.LVL53:
 510              	.L79:
 511              	.LBE23:
 512              		.loc 1 635 0 discriminator 1
ARM GAS  /tmp/ccGvWwDb.s 			page 10


 513 0066 FFF7FEFF 		bl	port_halt
 514              	.LVL54:
 515 006a D0E7     		b	.L69
 516              	.LVL55:
 517              	.L84:
 518              	.LBB24:
 519              		.loc 1 674 0
 520 006c 0C20     		movs	r0, #12
 521              	.LVL56:
 522 006e 2146     		mov	r1, r4
 523 0070 FFF7FEFF 		bl	memp_free
 524              	.LVL57:
 525 0074 E7E7     		b	.L73
 526              	.LVL58:
 527              	.L83:
 528              		.loc 1 671 0
 529 0076 0D20     		movs	r0, #13
 530              	.LVL59:
 531 0078 2146     		mov	r1, r4
 532 007a FFF7FEFF 		bl	memp_free
 533              	.LVL60:
 534 007e E2E7     		b	.L73
 535              	.LVL61:
 536              	.L82:
 537              	.LBB20:
 538              		.loc 1 664 0 discriminator 1
 539 0080 FFF7FEFF 		bl	port_halt
 540              	.LVL62:
 541 0084 2169     		ldr	r1, [r4, #16]
 542 0086 DCE7     		b	.L72
 543              	.LVL63:
 544              	.L78:
 545              	.LBE20:
 546              	.LBE24:
 547              		.loc 1 625 0 discriminator 1
 548 0088 FFF7FEFF 		bl	port_halt
 549              	.LVL64:
 550              		.loc 1 629 0 discriminator 1
 551 008c 2546     		mov	r5, r4
 552 008e C5E7     		b	.L68
 553              		.cfi_endproc
 554              	.LFE14:
 555              		.size	pbuf_free, .-pbuf_free
 556              		.section	.text.pbuf_realloc,"ax",%progbits
 557              		.align	2
 558              		.p2align 4,,15
 559              		.global	pbuf_realloc
 560              		.thumb
 561              		.thumb_func
 562              		.type	pbuf_realloc, %function
 563              	pbuf_realloc:
 564              	.LFB12:
 565              		.loc 1 431 0
 566              		.cfi_startproc
 567              		@ args = 0, pretend = 0, frame = 8
 568              		@ frame_needed = 0, uses_anonymous_args = 0
 569              	.LVL65:
ARM GAS  /tmp/ccGvWwDb.s 			page 11


 570 0000 F0B5     		push	{r4, r5, r6, r7, lr}
 571              	.LCFI6:
 572              		.cfi_def_cfa_offset 20
 573              		.cfi_offset 4, -20
 574              		.cfi_offset 5, -16
 575              		.cfi_offset 6, -12
 576              		.cfi_offset 7, -8
 577              		.cfi_offset 14, -4
 578 0002 83B0     		sub	sp, sp, #12
 579              	.LCFI7:
 580              		.cfi_def_cfa_offset 32
 581              		.loc 1 436 0
 582 0004 0028     		cmp	r0, #0
 583 0006 45D0     		beq	.L113
 584              	.LVL66:
 585              	.L86:
 586              		.loc 1 437 0
 587 0008 037B     		ldrb	r3, [r0, #12]	@ zero_extendqisi2
 588 000a 032B     		cmp	r3, #3
 589 000c 03D0     		beq	.L87
 590              		.loc 1 437 0 is_stmt 0 discriminator 1
 591 000e 012B     		cmp	r3, #1
 592 0010 01D0     		beq	.L87
 593              		.loc 1 437 0 discriminator 2
 594 0012 002B     		cmp	r3, #0
 595 0014 32D1     		bne	.L114
 596              	.L87:
 597              		.loc 1 443 0 is_stmt 1
 598 0016 0689     		ldrh	r6, [r0, #8]
 599 0018 8E42     		cmp	r6, r1
 600 001a 2DD9     		bls	.L85
 601              		.loc 1 450 0
 602 001c 8E1B     		subs	r6, r1, r6
 603              	.LVL67:
 604              		.loc 1 456 0
 605 001e 0D46     		mov	r5, r1
 606 0020 0446     		mov	r4, r0
 607              		.loc 1 460 0
 608 0022 4FF6FE77 		movw	r7, #65534
 609              		.loc 1 456 0
 610 0026 05E0     		b	.L112
 611              	.LVL68:
 612              	.L90:
 613              		.loc 1 461 0
 614 0028 2389     		ldrh	r3, [r4, #8]
 615 002a F018     		adds	r0, r6, r3
 616 002c 2081     		strh	r0, [r4, #8]	@ movhi
 617              		.loc 1 463 0
 618 002e 2468     		ldr	r4, [r4, #0]
 619              	.LVL69:
 620              		.loc 1 464 0
 621 0030 002C     		cmp	r4, #0
 622 0032 2CD0     		beq	.L115
 623              	.LVL70:
 624              	.L112:
 625              		.loc 1 456 0 discriminator 1
 626 0034 6089     		ldrh	r0, [r4, #10]
ARM GAS  /tmp/ccGvWwDb.s 			page 12


 627 0036 8542     		cmp	r5, r0
 628              		.loc 1 458 0 discriminator 1
 629 0038 C0EB0502 		rsb	r2, r0, r5
 630              		.loc 1 456 0 discriminator 1
 631 003c 05D9     		bls	.L116
 632              		.loc 1 460 0
 633 003e BE42     		cmp	r6, r7
 634              		.loc 1 458 0
 635 0040 95B2     		uxth	r5, r2
 636              	.LVL71:
 637              		.loc 1 460 0
 638 0042 F1DD     		ble	.L90
 639              		.loc 1 460 0 is_stmt 0 discriminator 1
 640 0044 FFF7FEFF 		bl	port_halt
 641              	.LVL72:
 642 0048 EEE7     		b	.L90
 643              	.L116:
 644              		.loc 1 471 0 is_stmt 1
 645 004a 217B     		ldrb	r1, [r4, #12]	@ zero_extendqisi2
 646 004c 61B9     		cbnz	r1, .L93
 647              		.loc 1 471 0 is_stmt 0 discriminator 1
 648 004e 8542     		cmp	r5, r0
 649 0050 0AD0     		beq	.L93
 650              		.loc 1 473 0 is_stmt 1
 651 0052 6368     		ldr	r3, [r4, #4]
 652 0054 181B     		subs	r0, r3, r4
 653 0056 2A18     		adds	r2, r5, r0
 654 0058 91B2     		uxth	r1, r2
 655 005a 2046     		mov	r0, r4
 656 005c FFF7FEFF 		bl	mem_trim
 657              	.LVL73:
 658              		.loc 1 474 0
 659 0060 0446     		mov	r4, r0
 660 0062 08B9     		cbnz	r0, .L93
 661              		.loc 1 474 0 is_stmt 0 discriminator 1
 662 0064 FFF7FEFF 		bl	port_halt
 663              	.LVL74:
 664              	.L93:
 665              		.loc 1 481 0 is_stmt 1
 666 0068 2068     		ldr	r0, [r4, #0]
 667              		.loc 1 477 0
 668 006a 6581     		strh	r5, [r4, #10]	@ movhi
 669              		.loc 1 478 0
 670 006c 2581     		strh	r5, [r4, #8]	@ movhi
 671              		.loc 1 481 0
 672 006e 08B1     		cbz	r0, .L94
 673              		.loc 1 483 0
 674 0070 FFF7FEFF 		bl	pbuf_free
 675              	.LVL75:
 676              	.L94:
 677              		.loc 1 486 0
 678 0074 0021     		movs	r1, #0
 679 0076 2160     		str	r1, [r4, #0]
 680              	.LVL76:
 681              	.L85:
 682              		.loc 1 488 0
 683 0078 03B0     		add	sp, sp, #12
ARM GAS  /tmp/ccGvWwDb.s 			page 13


 684 007a F0BD     		pop	{r4, r5, r6, r7, pc}
 685              	.L114:
 686              		.loc 1 437 0 discriminator 3
 687 007c 022B     		cmp	r3, #2
 688 007e CAD0     		beq	.L87
 689              		.loc 1 437 0 is_stmt 0 discriminator 4
 690 0080 0190     		str	r0, [sp, #4]
 691 0082 0091     		str	r1, [sp, #0]
 692 0084 FFF7FEFF 		bl	port_halt
 693              	.LVL77:
 694 0088 0099     		ldr	r1, [sp, #0]
 695 008a 0198     		ldr	r0, [sp, #4]
 696 008c C3E7     		b	.L87
 697              	.LVL78:
 698              	.L115:
 699              		.loc 1 464 0 is_stmt 1 discriminator 1
 700 008e FFF7FEFF 		bl	port_halt
 701              	.LVL79:
 702 0092 CFE7     		b	.L112
 703              	.LVL80:
 704              	.L113:
 705              		.loc 1 436 0 discriminator 1
 706 0094 0190     		str	r0, [sp, #4]
 707 0096 0091     		str	r1, [sp, #0]
 708 0098 FFF7FEFF 		bl	port_halt
 709              	.LVL81:
 710 009c 0099     		ldr	r1, [sp, #0]
 711 009e 0198     		ldr	r0, [sp, #4]
 712 00a0 B2E7     		b	.L86
 713              		.cfi_endproc
 714              	.LFE12:
 715              		.size	pbuf_realloc, .-pbuf_realloc
 716 00a2 00BFAFF3 		.section	.text.pbuf_alloc,"ax",%progbits
 716      0080AFF3 
 716      0080AFF3 
 716      0080
 717              		.align	2
 718              		.p2align 4,,15
 719              		.global	pbuf_alloc
 720              		.thumb
 721              		.thumb_func
 722              		.type	pbuf_alloc, %function
 723              	pbuf_alloc:
 724              	.LFB10:
 725              		.loc 1 208 0
 726              		.cfi_startproc
 727              		@ args = 0, pretend = 0, frame = 8
 728              		@ frame_needed = 0, uses_anonymous_args = 0
 729              	.LVL82:
 730 0000 2DE9F04F 		push	{r4, r5, r6, r7, r8, r9, sl, fp, lr}
 731              	.LCFI8:
 732              		.cfi_def_cfa_offset 36
 733              		.cfi_offset 4, -36
 734              		.cfi_offset 5, -32
 735              		.cfi_offset 6, -28
 736              		.cfi_offset 7, -24
 737              		.cfi_offset 8, -20
ARM GAS  /tmp/ccGvWwDb.s 			page 14


 738              		.cfi_offset 9, -16
 739              		.cfi_offset 10, -12
 740              		.cfi_offset 11, -8
 741              		.cfi_offset 14, -4
 742 0004 0C46     		mov	r4, r1
 743 0006 83B0     		sub	sp, sp, #12
 744              	.LCFI9:
 745              		.cfi_def_cfa_offset 48
 746              		.loc 1 215 0
 747 0008 0328     		cmp	r0, #3
 748 000a 03D8     		bhi	.L125
 749 000c DFE800F0 		tbb	[pc, r0]
 750              	.L123:
 751 0010 A4       		.byte	(.L119-.L123)/2
 752 0011 A2       		.byte	(.L141-.L123)/2
 753 0012 A0       		.byte	(.L121-.L123)/2
 754 0013 09       		.byte	(.L122-.L123)/2
 755              		.align	1
 756              	.L125:
 757              		.loc 1 340 0 discriminator 1
 758 0014 FFF7FEFF 		bl	port_halt
 759              	.LVL83:
 760              	.L150:
 761              		.loc 1 341 0 discriminator 1
 762 0018 0025     		movs	r5, #0
 763              	.L124:
 764              		.loc 1 349 0
 765 001a 2846     		mov	r0, r5
 766 001c 03B0     		add	sp, sp, #12
 767 001e BDE8F08F 		pop	{r4, r5, r6, r7, r8, r9, sl, fp, pc}
 768              	.LVL84:
 769              	.L122:
 770              		.loc 1 229 0
 771 0022 0026     		movs	r6, #0
 772              	.LVL85:
 773              	.L120:
 774              		.loc 1 236 0
 775 0024 032A     		cmp	r2, #3
 776 0026 F5D8     		bhi	.L125
 777 0028 DFE802F0 		tbb	[pc, r2]
 778              	.L129:
 779 002c 72       		.byte	(.L126-.L129)/2
 780 002d 63       		.byte	(.L127-.L129)/2
 781 002e 63       		.byte	(.L127-.L129)/2
 782 002f 02       		.byte	(.L128-.L129)/2
 783              		.align	1
 784              	.L128:
 785              		.loc 1 239 0
 786 0030 0D20     		movs	r0, #13
 787              	.LVL86:
 788 0032 FFF7FEFF 		bl	memp_malloc
 789              	.LVL87:
 790              		.loc 1 241 0
 791 0036 0546     		mov	r5, r0
 792 0038 0028     		cmp	r0, #0
 793 003a 00F0A080 		beq	.L151
 794              		.loc 1 255 0
ARM GAS  /tmp/ccGvWwDb.s 			page 15


 795 003e F31C     		adds	r3, r6, #3
 796              		.loc 1 249 0
 797 0040 8619     		adds	r6, r0, r6
 798              	.LVL88:
 799              		.loc 1 255 0
 800 0042 23F00300 		bic	r0, r3, #3
 801              	.LVL89:
 802              		.loc 1 249 0
 803 0046 1336     		adds	r6, r6, #19
 804              		.loc 1 255 0
 805 0048 C0F51472 		rsb	r2, r0, #592
 806 004c A242     		cmp	r2, r4
 807 004e A8BF     		it	ge
 808 0050 2246     		movge	r2, r4
 809              		.loc 1 249 0
 810 0052 26F00306 		bic	r6, r6, #3
 811              		.loc 1 256 0
 812 0056 B318     		adds	r3, r6, r2
 813              	.LVL90:
 814 0058 05F51878 		add	r8, r5, #608
 815              		.loc 1 255 0
 816 005c 91B2     		uxth	r1, r2
 817              		.loc 1 245 0
 818 005e 0320     		movs	r0, #3
 819              		.loc 1 246 0
 820 0060 0022     		movs	r2, #0
 821              		.loc 1 256 0
 822 0062 9845     		cmp	r8, r3
 823              		.loc 1 245 0
 824 0064 2873     		strb	r0, [r5, #12]
 825              		.loc 1 249 0
 826 0066 85E84400 		stmia	r5, {r2, r6}
 827              		.loc 1 253 0
 828 006a 2C81     		strh	r4, [r5, #8]	@ movhi
 829              		.loc 1 255 0
 830 006c 6981     		strh	r1, [r5, #10]	@ movhi
 831              		.loc 1 256 0
 832 006e C0F08280 		bcc	.L152
 833              	.L131:
 834              		.loc 1 269 0
 835 0072 C1EB040B 		rsb	fp, r1, r4
 836              		.loc 1 262 0
 837 0076 0122     		movs	r2, #1
 838              		.loc 1 271 0
 839 0078 BBF1000F 		cmp	fp, #0
 840              		.loc 1 262 0
 841 007c EA81     		strh	r2, [r5, #14]	@ movhi
 842              	.LVL91:
 843              		.loc 1 271 0
 844 007e 62DD     		ble	.L132
 845 0080 2F46     		mov	r7, r5
 846              		.loc 1 280 0
 847 0082 4FF0030A 		mov	sl, #3
 848              		.loc 1 281 0
 849 0086 0026     		movs	r6, #0
 850              		.loc 1 286 0
 851 0088 4FF6FF79 		movw	r9, #65535
ARM GAS  /tmp/ccGvWwDb.s 			page 16


 852 008c 1BE0     		b	.L138
 853              	.LVL92:
 854              	.L134:
 855              		.loc 1 289 0
 856 008e 40F24F27 		movw	r7, #591
 857              	.LVL93:
 858              		.loc 1 287 0
 859 0092 0381     		strh	r3, [r0, #8]	@ movhi
 860              		.loc 1 289 0
 861 0094 BB42     		cmp	r3, r7
 862 0096 88BF     		it	hi
 863 0098 4FF41473 		movhi	r3, #592
 864              	.LVL94:
 865              	.L135:
 866              		.loc 1 290 0 discriminator 3
 867 009c 04F11000 		add	r0, r4, #16
 868              		.loc 1 291 0 discriminator 3
 869 00a0 10F0030F 		tst	r0, #3
 870              		.loc 1 289 0 discriminator 3
 871 00a4 6381     		strh	r3, [r4, #10]	@ movhi
 872              		.loc 1 290 0 discriminator 3
 873 00a6 6060     		str	r0, [r4, #4]
 874 00a8 2746     		mov	r7, r4
 875              		.loc 1 291 0 discriminator 3
 876 00aa 5AD1     		bne	.L153
 877              	.L136:
 878              		.loc 1 293 0
 879 00ac 6989     		ldrh	r1, [r5, #10]
 880 00ae 6A68     		ldr	r2, [r5, #4]
 881 00b0 5318     		adds	r3, r2, r1
 882 00b2 9845     		cmp	r8, r3
 883 00b4 52D3     		bcc	.L154
 884              	.L137:
 885              		.loc 1 298 0
 886 00b6 6089     		ldrh	r0, [r4, #10]
 887 00b8 C0EB0B0B 		rsb	fp, r0, fp
 888              	.LVL95:
 889              		.loc 1 296 0
 890 00bc 0121     		movs	r1, #1
 891              		.loc 1 271 0
 892 00be BBF1000F 		cmp	fp, #0
 893              		.loc 1 296 0
 894 00c2 E181     		strh	r1, [r4, #14]	@ movhi
 895              		.loc 1 271 0
 896 00c4 3FDD     		ble	.L132
 897              	.LVL96:
 898              	.L138:
 899              		.loc 1 272 0
 900 00c6 0D20     		movs	r0, #13
 901 00c8 FFF7FEFF 		bl	memp_malloc
 902              	.LVL97:
 903              		.loc 1 287 0
 904 00cc 1FFA8BF3 		uxth	r3, fp
 905              		.loc 1 273 0
 906 00d0 0446     		mov	r4, r0
 907 00d2 0028     		cmp	r0, #0
 908 00d4 48D0     		beq	.L155
ARM GAS  /tmp/ccGvWwDb.s 			page 17


 909              		.loc 1 286 0
 910 00d6 CB45     		cmp	fp, r9
 911              		.loc 1 282 0
 912 00d8 0660     		str	r6, [r0, #0]
 913              		.loc 1 280 0
 914 00da 80F80CA0 		strb	sl, [r0, #12]
 915              		.loc 1 284 0
 916 00de 3860     		str	r0, [r7, #0]
 917              		.loc 1 281 0
 918 00e0 4673     		strb	r6, [r0, #13]
 919              		.loc 1 286 0
 920 00e2 D4D1     		bne	.L134
 921              		.loc 1 286 0 is_stmt 0 discriminator 1
 922 00e4 FFF7FEFF 		bl	port_halt
 923              	.LVL98:
 924              		.loc 1 287 0 is_stmt 1 discriminator 1
 925 00e8 A4F808B0 		strh	fp, [r4, #8]	@ movhi
 926              		.loc 1 289 0 discriminator 1
 927 00ec 4FF41473 		mov	r3, #592
 928 00f0 D4E7     		b	.L135
 929              	.LVL99:
 930              	.L127:
 931              		.loc 1 326 0
 932 00f2 0C20     		movs	r0, #12
 933              	.LVL100:
 934 00f4 0192     		str	r2, [sp, #4]
 935 00f6 FFF7FEFF 		bl	memp_malloc
 936              	.LVL101:
 937              		.loc 1 327 0
 938 00fa 019A     		ldr	r2, [sp, #4]
 939 00fc 0546     		mov	r5, r0
 940 00fe 0028     		cmp	r0, #0
 941 0100 8AD0     		beq	.L150
 942              		.loc 1 334 0
 943 0102 0023     		movs	r3, #0
 944 0104 4360     		str	r3, [r0, #4]
 945              		.loc 1 335 0
 946 0106 0481     		strh	r4, [r0, #8]	@ movhi
 947 0108 4481     		strh	r4, [r0, #10]	@ movhi
 948              		.loc 1 336 0
 949 010a 0360     		str	r3, [r0, #0]
 950              		.loc 1 337 0
 951 010c 0273     		strb	r2, [r0, #12]
 952              		.loc 1 338 0
 953 010e 1AE0     		b	.L132
 954              	.LVL102:
 955              	.L126:
 956              		.loc 1 308 0
 957 0110 06F11305 		add	r5, r6, #19
 958 0114 E01C     		adds	r0, r4, #3
 959              	.LVL103:
 960 0116 25F00301 		bic	r1, r5, #3
 961              	.LVL104:
 962 011a 20F00302 		bic	r2, r0, #3
 963              	.LVL105:
 964 011e 8B18     		adds	r3, r1, r2
 965 0120 4FF6FC70 		movw	r0, #65532
ARM GAS  /tmp/ccGvWwDb.s 			page 18


 966 0124 1840     		ands	r0, r0, r3
 967 0126 FFF7FEFF 		bl	mem_malloc
 968              	.LVL106:
 969              		.loc 1 309 0
 970 012a 0546     		mov	r5, r0
 971 012c 0028     		cmp	r0, #0
 972 012e 3FF473AF 		beq	.L150
 973              		.loc 1 313 0
 974 0132 8619     		adds	r6, r0, r6
 975              	.LVL107:
 976 0134 1336     		adds	r6, r6, #19
 977              		.loc 1 315 0
 978 0136 0020     		movs	r0, #0
 979              	.LVL108:
 980              		.loc 1 313 0
 981 0138 26F00306 		bic	r6, r6, #3
 982 013c 6E60     		str	r6, [r5, #4]
 983              		.loc 1 314 0
 984 013e 2C81     		strh	r4, [r5, #8]	@ movhi
 985 0140 6C81     		strh	r4, [r5, #10]	@ movhi
 986              		.loc 1 315 0
 987 0142 2860     		str	r0, [r5, #0]
 988              		.loc 1 316 0
 989 0144 2873     		strb	r0, [r5, #12]
 990              	.L132:
 991              		.loc 1 344 0
 992 0146 0121     		movs	r1, #1
 993              		.loc 1 346 0
 994 0148 0022     		movs	r2, #0
 995              		.loc 1 344 0
 996 014a E981     		strh	r1, [r5, #14]	@ movhi
 997              		.loc 1 346 0
 998 014c 6A73     		strb	r2, [r5, #13]
 999              		.loc 1 348 0
 1000 014e 64E7     		b	.L124
 1001              	.LVL109:
 1002              	.L121:
 1003              		.loc 1 226 0
 1004 0150 0E26     		movs	r6, #14
 1005              		.loc 1 227 0
 1006 0152 67E7     		b	.L120
 1007              	.LVL110:
 1008              	.L141:
 1009              		.loc 1 222 0
 1010 0154 2226     		movs	r6, #34
 1011 0156 65E7     		b	.L120
 1012              	.L119:
 1013              		.loc 1 218 0
 1014 0158 3626     		movs	r6, #54
 1015 015a 63E7     		b	.L120
 1016              	.LVL111:
 1017              	.L154:
 1018              		.loc 1 293 0 discriminator 1
 1019 015c FFF7FEFF 		bl	port_halt
 1020              	.LVL112:
 1021 0160 A9E7     		b	.L137
 1022              	.L153:
ARM GAS  /tmp/ccGvWwDb.s 			page 19


 1023              		.loc 1 291 0 discriminator 1
 1024 0162 FFF7FEFF 		bl	port_halt
 1025              	.LVL113:
 1026 0166 A1E7     		b	.L136
 1027              	.LVL114:
 1028              	.L155:
 1029              		.loc 1 274 0
 1030 0168 FFF7FEFF 		bl	pbuf_pool_is_empty
 1031              	.LVL115:
 1032              		.loc 1 276 0
 1033 016c 2846     		mov	r0, r5
 1034 016e FFF7FEFF 		bl	pbuf_free
 1035              	.LVL116:
 1036              		.loc 1 278 0
 1037 0172 2546     		mov	r5, r4
 1038              	.LVL117:
 1039 0174 51E7     		b	.L124
 1040              	.LVL118:
 1041              	.L152:
 1042              		.loc 1 256 0 discriminator 1
 1043 0176 FFF7FEFF 		bl	port_halt
 1044              	.LVL119:
 1045 017a 6989     		ldrh	r1, [r5, #10]
 1046 017c 79E7     		b	.L131
 1047              	.LVL120:
 1048              	.L151:
 1049              		.loc 1 242 0
 1050 017e FFF7FEFF 		bl	pbuf_pool_is_empty
 1051              	.LVL121:
 1052              		.loc 1 243 0
 1053 0182 4AE7     		b	.L124
 1054              		.cfi_endproc
 1055              	.LFE10:
 1056              		.size	pbuf_alloc, .-pbuf_alloc
 1057 0184 AFF30080 		.section	.text.pbuf_clen,"ax",%progbits
 1057      AFF30080 
 1057      AFF30080 
 1058              		.align	2
 1059              		.p2align 4,,15
 1060              		.global	pbuf_clen
 1061              		.thumb
 1062              		.thumb_func
 1063              		.type	pbuf_clen, %function
 1064              	pbuf_clen:
 1065              	.LFB15:
 1066              		.loc 1 705 0
 1067              		.cfi_startproc
 1068              		@ args = 0, pretend = 0, frame = 0
 1069              		@ frame_needed = 0, uses_anonymous_args = 0
 1070              		@ link register save eliminated.
 1071              	.LVL122:
 1072              		.loc 1 709 0
 1073 0000 0346     		mov	r3, r0
 1074 0002 30B1     		cbz	r0, .L159
 1075 0004 0020     		movs	r0, #0
 1076              	.LVL123:
 1077              	.L158:
ARM GAS  /tmp/ccGvWwDb.s 			page 20


 1078              		.loc 1 711 0
 1079 0006 1B68     		ldr	r3, [r3, #0]
 1080              	.LVL124:
 1081              		.loc 1 710 0
 1082 0008 0130     		adds	r0, r0, #1
 1083 000a C0B2     		uxtb	r0, r0
 1084              	.LVL125:
 1085              		.loc 1 709 0
 1086 000c 002B     		cmp	r3, #0
 1087 000e FAD1     		bne	.L158
 1088 0010 7047     		bx	lr
 1089              	.LVL126:
 1090              	.L159:
 1091              		.loc 1 714 0
 1092 0012 7047     		bx	lr
 1093              		.cfi_endproc
 1094              	.LFE15:
 1095              		.size	pbuf_clen, .-pbuf_clen
 1096 0014 AFF30080 		.section	.text.pbuf_ref,"ax",%progbits
 1096      AFF30080 
 1096      AFF30080 
 1097              		.align	2
 1098              		.p2align 4,,15
 1099              		.global	pbuf_ref
 1100              		.thumb
 1101              		.thumb_func
 1102              		.type	pbuf_ref, %function
 1103              	pbuf_ref:
 1104              	.LFB16:
 1105              		.loc 1 724 0
 1106              		.cfi_startproc
 1107              		@ args = 0, pretend = 0, frame = 0
 1108              		@ frame_needed = 0, uses_anonymous_args = 0
 1109              		@ link register save eliminated.
 1110              	.LVL127:
 1111              		.loc 1 727 0
 1112 0000 10B1     		cbz	r0, .L161
 1113              		.loc 1 729 0
 1114 0002 C389     		ldrh	r3, [r0, #14]
 1115 0004 591C     		adds	r1, r3, #1
 1116 0006 C181     		strh	r1, [r0, #14]	@ movhi
 1117              	.L161:
 1118 0008 7047     		bx	lr
 1119              		.cfi_endproc
 1120              	.LFE16:
 1121              		.size	pbuf_ref, .-pbuf_ref
 1122 000a 00BFAFF3 		.section	.text.pbuf_cat,"ax",%progbits
 1122      0080
 1123              		.align	2
 1124              		.p2align 4,,15
 1125              		.global	pbuf_cat
 1126              		.thumb
 1127              		.thumb_func
 1128              		.type	pbuf_cat, %function
 1129              	pbuf_cat:
 1130              	.LFB17:
 1131              		.loc 1 746 0
ARM GAS  /tmp/ccGvWwDb.s 			page 21


 1132              		.cfi_startproc
 1133              		@ args = 0, pretend = 0, frame = 0
 1134              		@ frame_needed = 0, uses_anonymous_args = 0
 1135              	.LVL128:
 1136 0000 70B5     		push	{r4, r5, r6, lr}
 1137              	.LCFI10:
 1138              		.cfi_def_cfa_offset 16
 1139              		.cfi_offset 4, -16
 1140              		.cfi_offset 5, -12
 1141              		.cfi_offset 6, -8
 1142              		.cfi_offset 14, -4
 1143              		.loc 1 746 0
 1144 0002 0E46     		mov	r6, r1
 1145              		.loc 1 749 0
 1146 0004 E0B1     		cbz	r0, .L167
 1147              		.loc 1 749 0 is_stmt 0 discriminator 2
 1148 0006 D9B1     		cbz	r1, .L167
 1149              	.LVL129:
 1150              		.loc 1 753 0 is_stmt 1 discriminator 1
 1151 0008 0468     		ldr	r4, [r0, #0]
 1152 000a 0CB9     		cbnz	r4, .L170
 1153 000c 1CE0     		b	.L184
 1154              	.LVL130:
 1155              	.L173:
 1156              		.loc 1 753 0 is_stmt 0
 1157 000e 1C46     		mov	r4, r3
 1158              	.L170:
 1159              		.loc 1 755 0 is_stmt 1 discriminator 2
 1160 0010 0289     		ldrh	r2, [r0, #8]
 1161 0012 3589     		ldrh	r5, [r6, #8]
 1162              		.loc 1 753 0 discriminator 2
 1163 0014 2368     		ldr	r3, [r4, #0]
 1164              		.loc 1 755 0 discriminator 2
 1165 0016 A918     		adds	r1, r5, r2
 1166 0018 0181     		strh	r1, [r0, #8]	@ movhi
 1167              	.LVL131:
 1168 001a 2046     		mov	r0, r4
 1169              		.loc 1 753 0 discriminator 2
 1170 001c 002B     		cmp	r3, #0
 1171 001e F6D1     		bne	.L173
 1172              	.LVL132:
 1173              	.L169:
 1174              		.loc 1 758 0
 1175 0020 2089     		ldrh	r0, [r4, #8]
 1176              	.LVL133:
 1177 0022 6289     		ldrh	r2, [r4, #10]
 1178 0024 9042     		cmp	r0, r2
 1179 0026 01D0     		beq	.L171
 1180              		.loc 1 758 0 is_stmt 0 discriminator 1
 1181 0028 FFF7FEFF 		bl	port_halt
 1182              	.LVL134:
 1183              	.L171:
 1184              		.loc 1 759 0 is_stmt 1
 1185 002c 2368     		ldr	r3, [r4, #0]
 1186 002e 0BB1     		cbz	r3, .L172
 1187              		.loc 1 759 0 is_stmt 0 discriminator 1
 1188 0030 FFF7FEFF 		bl	port_halt
ARM GAS  /tmp/ccGvWwDb.s 			page 22


 1189              	.LVL135:
 1190              	.L172:
 1191              		.loc 1 761 0 is_stmt 1
 1192 0034 3189     		ldrh	r1, [r6, #8]
 1193 0036 2089     		ldrh	r0, [r4, #8]
 1194              		.loc 1 763 0
 1195 0038 2660     		str	r6, [r4, #0]
 1196              		.loc 1 761 0
 1197 003a 0A18     		adds	r2, r1, r0
 1198 003c 2281     		strh	r2, [r4, #8]	@ movhi
 1199 003e 70BD     		pop	{r4, r5, r6, pc}
 1200              	.LVL136:
 1201              	.L167:
 1202              		.loc 1 767 0 discriminator 1
 1203 0040 BDE87040 		pop	{r4, r5, r6, lr}
 1204              		.loc 1 749 0 discriminator 1
 1205 0044 FFF7FEBF 		b	port_halt
 1206              	.LVL137:
 1207              	.L184:
 1208              		.loc 1 753 0
 1209 0048 0446     		mov	r4, r0
 1210 004a E9E7     		b	.L169
 1211              		.cfi_endproc
 1212              	.LFE17:
 1213              		.size	pbuf_cat, .-pbuf_cat
 1214 004c AFF30080 		.section	.text.pbuf_chain,"ax",%progbits
 1215              		.align	2
 1216              		.p2align 4,,15
 1217              		.global	pbuf_chain
 1218              		.thumb
 1219              		.thumb_func
 1220              		.type	pbuf_chain, %function
 1221              	pbuf_chain:
 1222              	.LFB18:
 1223              		.loc 1 787 0
 1224              		.cfi_startproc
 1225              		@ args = 0, pretend = 0, frame = 0
 1226              		@ frame_needed = 0, uses_anonymous_args = 0
 1227              	.LVL138:
 1228 0000 10B5     		push	{r4, lr}
 1229              	.LCFI11:
 1230              		.cfi_def_cfa_offset 8
 1231              		.cfi_offset 4, -8
 1232              		.cfi_offset 14, -4
 1233              		.loc 1 787 0
 1234 0002 0C46     		mov	r4, r1
 1235              		.loc 1 788 0
 1236 0004 FFF7FEFF 		bl	pbuf_cat
 1237              	.LVL139:
 1238              	.LBB25:
 1239              	.LBB26:
 1240              		.loc 1 727 0
 1241 0008 14B1     		cbz	r4, .L185
 1242              		.loc 1 729 0
 1243 000a E389     		ldrh	r3, [r4, #14]
 1244 000c 581C     		adds	r0, r3, #1
 1245 000e E081     		strh	r0, [r4, #14]	@ movhi
ARM GAS  /tmp/ccGvWwDb.s 			page 23


 1246              	.L185:
 1247 0010 10BD     		pop	{r4, pc}
 1248              	.LBE26:
 1249              	.LBE25:
 1250              		.cfi_endproc
 1251              	.LFE18:
 1252              		.size	pbuf_chain, .-pbuf_chain
 1253 0012 00BFAFF3 		.section	.text.pbuf_dechain,"ax",%progbits
 1253      0080AFF3 
 1253      0080AFF3 
 1253      0080
 1254              		.align	2
 1255              		.p2align 4,,15
 1256              		.global	pbuf_dechain
 1257              		.thumb
 1258              		.thumb_func
 1259              		.type	pbuf_dechain, %function
 1260              	pbuf_dechain:
 1261              	.LFB19:
 1262              		.loc 1 804 0
 1263              		.cfi_startproc
 1264              		@ args = 0, pretend = 0, frame = 0
 1265              		@ frame_needed = 0, uses_anonymous_args = 0
 1266              	.LVL140:
 1267 0000 70B5     		push	{r4, r5, r6, lr}
 1268              	.LCFI12:
 1269              		.cfi_def_cfa_offset 16
 1270              		.cfi_offset 4, -16
 1271              		.cfi_offset 5, -12
 1272              		.cfi_offset 6, -8
 1273              		.cfi_offset 14, -4
 1274              		.loc 1 808 0
 1275 0002 0568     		ldr	r5, [r0, #0]
 1276              	.LVL141:
 1277              		.loc 1 804 0
 1278 0004 0446     		mov	r4, r0
 1279              		.loc 1 810 0
 1280 0006 EDB1     		cbz	r5, .L195
 1281              		.loc 1 812 0
 1282 0008 0289     		ldrh	r2, [r0, #8]
 1283 000a 4389     		ldrh	r3, [r0, #10]
 1284 000c 2989     		ldrh	r1, [r5, #8]
 1285 000e D61A     		subs	r6, r2, r3
 1286 0010 B142     		cmp	r1, r6
 1287 0012 04D0     		beq	.L192
 1288              		.loc 1 812 0 is_stmt 0 discriminator 1
 1289 0014 FFF7FEFF 		bl	port_halt
 1290              	.LVL142:
 1291 0018 2089     		ldrh	r0, [r4, #8]
 1292 001a 6389     		ldrh	r3, [r4, #10]
 1293 001c C61A     		subs	r6, r0, r3
 1294              	.L192:
 1295              		.loc 1 816 0 is_stmt 1
 1296 001e 0022     		movs	r2, #0
 1297              		.loc 1 814 0
 1298 0020 2E81     		strh	r6, [r5, #8]	@ movhi
 1299              		.loc 1 816 0
ARM GAS  /tmp/ccGvWwDb.s 			page 24


 1300 0022 2260     		str	r2, [r4, #0]
 1301              		.loc 1 818 0
 1302 0024 2381     		strh	r3, [r4, #8]	@ movhi
 1303              		.loc 1 821 0
 1304 0026 2846     		mov	r0, r5
 1305 0028 FFF7FEFF 		bl	pbuf_free
 1306              	.LVL143:
 1307 002c 0646     		mov	r6, r0
 1308              	.LVL144:
 1309              	.L191:
 1310              		.loc 1 829 0
 1311 002e 2189     		ldrh	r1, [r4, #8]
 1312 0030 6089     		ldrh	r0, [r4, #10]
 1313 0032 8142     		cmp	r1, r0
 1314 0034 01D0     		beq	.L193
 1315              		.loc 1 829 0 is_stmt 0 discriminator 1
 1316 0036 FFF7FEFF 		bl	port_halt
 1317              	.LVL145:
 1318              	.L193:
 1319              		.loc 1 831 0 is_stmt 1
 1320 003a 002E     		cmp	r6, #0
 1321 003c 0CBF     		ite	eq
 1322 003e 2846     		moveq	r0, r5
 1323 0040 0020     		movne	r0, #0
 1324 0042 70BD     		pop	{r4, r5, r6, pc}
 1325              	.LVL146:
 1326              	.L195:
 1327              		.loc 1 806 0
 1328 0044 0126     		movs	r6, #1
 1329 0046 F2E7     		b	.L191
 1330              		.cfi_endproc
 1331              	.LFE19:
 1332              		.size	pbuf_dechain, .-pbuf_dechain
 1333 0048 AFF30080 		.section	.text.pbuf_copy,"ax",%progbits
 1333      AFF30080 
 1334              		.align	2
 1335              		.p2align 4,,15
 1336              		.global	pbuf_copy
 1337              		.thumb
 1338              		.thumb_func
 1339              		.type	pbuf_copy, %function
 1340              	pbuf_copy:
 1341              	.LFB20:
 1342              		.loc 1 853 0
 1343              		.cfi_startproc
 1344              		@ args = 0, pretend = 0, frame = 0
 1345              		@ frame_needed = 0, uses_anonymous_args = 0
 1346              	.LVL147:
 1347 0000 2DE9F041 		push	{r4, r5, r6, r7, r8, lr}
 1348              	.LCFI13:
 1349              		.cfi_def_cfa_offset 24
 1350              		.cfi_offset 4, -24
 1351              		.cfi_offset 5, -20
 1352              		.cfi_offset 6, -16
 1353              		.cfi_offset 7, -12
 1354              		.cfi_offset 8, -8
 1355              		.cfi_offset 14, -4
ARM GAS  /tmp/ccGvWwDb.s 			page 25


 1356              		.loc 1 860 0
 1357 0004 0546     		mov	r5, r0
 1358              		.loc 1 853 0
 1359 0006 0C46     		mov	r4, r1
 1360              		.loc 1 860 0
 1361 0008 0028     		cmp	r0, #0
 1362 000a 52D0     		beq	.L199
 1363              		.loc 1 860 0 is_stmt 0 discriminator 2
 1364 000c 0029     		cmp	r1, #0
 1365 000e 50D0     		beq	.L199
 1366              		.loc 1 860 0 discriminator 3
 1367 0010 0289     		ldrh	r2, [r0, #8]
 1368 0012 0B89     		ldrh	r3, [r1, #8]
 1369 0014 9A42     		cmp	r2, r3
 1370 0016 4CD3     		bcc	.L199
 1371              		.loc 1 860 0
 1372 0018 0026     		movs	r6, #0
 1373 001a 3746     		mov	r7, r6
 1374              	.LVL148:
 1375              	.L200:
 1376              		.loc 1 867 0 is_stmt 1
 1377 001c 6889     		ldrh	r0, [r5, #10]
 1378 001e B4F80A80 		ldrh	r8, [r4, #10]
 1379              		.loc 1 874 0
 1380 0022 6A68     		ldr	r2, [r5, #4]
 1381 0024 6368     		ldr	r3, [r4, #4]
 1382              		.loc 1 867 0
 1383 0026 C6EB0808 		rsb	r8, r6, r8
 1384 002a C11B     		subs	r1, r0, r7
 1385 002c 4145     		cmp	r1, r8
 1386              		.loc 1 872 0
 1387 002e B4BF     		ite	lt
 1388 0030 1FFA81F8 		uxthlt	r8, r1
 1389              		.loc 1 869 0
 1390 0034 1FFA88F8 		uxthge	r8, r8
 1391              	.LVL149:
 1392              		.loc 1 874 0
 1393 0038 D019     		adds	r0, r2, r7
 1394 003a 9919     		adds	r1, r3, r6
 1395 003c 4246     		mov	r2, r8
 1396 003e FFF7FEFF 		bl	memcpy
 1397              	.LVL150:
 1398              		.loc 1 875 0
 1399 0042 4744     		add	r7, r8, r7
 1400              	.LVL151:
 1401              		.loc 1 877 0
 1402 0044 6889     		ldrh	r0, [r5, #10]
 1403              		.loc 1 875 0
 1404 0046 BFB2     		uxth	r7, r7
 1405              	.LVL152:
 1406              		.loc 1 876 0
 1407 0048 4644     		add	r6, r8, r6
 1408              	.LVL153:
 1409              		.loc 1 877 0
 1410 004a B842     		cmp	r0, r7
 1411              		.loc 1 876 0
 1412 004c B6B2     		uxth	r6, r6
ARM GAS  /tmp/ccGvWwDb.s 			page 26


 1413              	.LVL154:
 1414              		.loc 1 877 0
 1415 004e 27D3     		bcc	.L227
 1416              	.L204:
 1417              		.loc 1 878 0
 1418 0050 6189     		ldrh	r1, [r4, #10]
 1419 0052 8E42     		cmp	r6, r1
 1420 0054 20D8     		bhi	.L228
 1421              	.L205:
 1422              		.loc 1 884 0
 1423 0056 6A89     		ldrh	r2, [r5, #10]
 1424              		.loc 1 879 0
 1425 0058 8E42     		cmp	r6, r1
 1426              	.LVL155:
 1427              		.loc 1 882 0
 1428 005a 24BF     		itt	cs
 1429 005c 2468     		ldrcs	r4, [r4, #0]
 1430              	.LVL156:
 1431              		.loc 1 881 0
 1432 005e 0026     		movcs	r6, #0
 1433              	.LVL157:
 1434              		.loc 1 884 0
 1435 0060 BA42     		cmp	r2, r7
 1436 0062 0ED0     		beq	.L229
 1437              	.LVL158:
 1438              	.L207:
 1439              		.loc 1 891 0
 1440 0064 1CB1     		cbz	r4, .L208
 1441              		.loc 1 891 0 is_stmt 0 discriminator 1
 1442 0066 6089     		ldrh	r0, [r4, #10]
 1443 0068 2389     		ldrh	r3, [r4, #8]
 1444 006a 9842     		cmp	r0, r3
 1445 006c 1BD0     		beq	.L230
 1446              	.L208:
 1447              		.loc 1 896 0 is_stmt 1 discriminator 1
 1448 006e 6A89     		ldrh	r2, [r5, #10]
 1449 0070 2889     		ldrh	r0, [r5, #8]
 1450 0072 8242     		cmp	r2, r0
 1451 0074 09D0     		beq	.L231
 1452              	.L209:
 1453              		.loc 1 901 0
 1454 0076 002C     		cmp	r4, #0
 1455 0078 D0D1     		bne	.L200
 1456              	.LVL159:
 1457              	.L226:
 1458              		.loc 1 903 0
 1459 007a 2146     		mov	r1, r4
 1460              	.LVL160:
 1461              	.L201:
 1462              		.loc 1 904 0
 1463 007c 48B2     		sxtb	r0, r1
 1464 007e BDE8F081 		pop	{r4, r5, r6, r7, r8, pc}
 1465              	.LVL161:
 1466              	.L229:
 1467              		.loc 1 887 0
 1468 0082 2D68     		ldr	r5, [r5, #0]
 1469              	.LVL162:
ARM GAS  /tmp/ccGvWwDb.s 			page 27


 1470              		.loc 1 888 0
 1471 0084 9DB1     		cbz	r5, .L232
 1472              		.loc 1 886 0
 1473 0086 0027     		movs	r7, #0
 1474 0088 ECE7     		b	.L207
 1475              	.LVL163:
 1476              	.L231:
 1477              		.loc 1 898 0
 1478 008a 2B68     		ldr	r3, [r5, #0]
 1479 008c 002B     		cmp	r3, #0
 1480 008e F2D0     		beq	.L209
 1481              	.L210:
 1482              		.loc 1 893 0 discriminator 1
 1483 0090 FFF7FEFF 		bl	port_halt
 1484              	.LVL164:
 1485 0094 FA21     		movs	r1, #250
 1486 0096 F1E7     		b	.L201
 1487              	.L228:
 1488              		.loc 1 878 0 discriminator 1
 1489 0098 FFF7FEFF 		bl	port_halt
 1490              	.LVL165:
 1491 009c 6189     		ldrh	r1, [r4, #10]
 1492 009e DAE7     		b	.L205
 1493              	.L227:
 1494              		.loc 1 877 0 discriminator 1
 1495 00a0 FFF7FEFF 		bl	port_halt
 1496              	.LVL166:
 1497 00a4 D4E7     		b	.L204
 1498              	.L230:
 1499              		.loc 1 893 0
 1500 00a6 2168     		ldr	r1, [r4, #0]
 1501 00a8 0029     		cmp	r1, #0
 1502 00aa E0D0     		beq	.L208
 1503 00ac F0E7     		b	.L210
 1504              	.LVL167:
 1505              	.L232:
 1506              		.loc 1 888 0 discriminator 1
 1507 00ae 002C     		cmp	r4, #0
 1508 00b0 E3D0     		beq	.L226
 1509              	.LVL168:
 1510              	.L199:
 1511              		.loc 1 860 0 discriminator 1
 1512 00b2 FFF7FEFF 		bl	port_halt
 1513              	.LVL169:
 1514 00b6 F221     		movs	r1, #242
 1515 00b8 E0E7     		b	.L201
 1516              		.cfi_endproc
 1517              	.LFE20:
 1518              		.size	pbuf_copy, .-pbuf_copy
 1519 00ba 00BFAFF3 		.section	.text.pbuf_copy_partial,"ax",%progbits
 1519      0080
 1520              		.align	2
 1521              		.p2align 4,,15
 1522              		.global	pbuf_copy_partial
 1523              		.thumb
 1524              		.thumb_func
 1525              		.type	pbuf_copy_partial, %function
ARM GAS  /tmp/ccGvWwDb.s 			page 28


 1526              	pbuf_copy_partial:
 1527              	.LFB21:
 1528              		.loc 1 919 0
 1529              		.cfi_startproc
 1530              		@ args = 0, pretend = 0, frame = 0
 1531              		@ frame_needed = 0, uses_anonymous_args = 0
 1532              	.LVL170:
 1533 0000 2DE9F843 		push	{r3, r4, r5, r6, r7, r8, r9, lr}
 1534              	.LCFI14:
 1535              		.cfi_def_cfa_offset 32
 1536              		.cfi_offset 3, -32
 1537              		.cfi_offset 4, -28
 1538              		.cfi_offset 5, -24
 1539              		.cfi_offset 6, -20
 1540              		.cfi_offset 7, -16
 1541              		.cfi_offset 8, -12
 1542              		.cfi_offset 9, -8
 1543              		.cfi_offset 14, -4
 1544              		.loc 1 919 0
 1545 0004 8846     		mov	r8, r1
 1546 0006 1646     		mov	r6, r2
 1547              		.loc 1 925 0
 1548 0008 0028     		cmp	r0, #0
 1549 000a 2CD0     		beq	.L236
 1550              		.loc 1 926 0
 1551 000c 0029     		cmp	r1, #0
 1552 000e 2AD0     		beq	.L236
 1553              	.LVL171:
 1554              		.loc 1 935 0 discriminator 1
 1555 0010 002A     		cmp	r2, #0
 1556 0012 2DD0     		beq	.L241
 1557              		.loc 1 935 0 is_stmt 0
 1558 0014 4FF00009 		mov	r9, #0
 1559 0018 0446     		mov	r4, r0
 1560 001a 4F46     		mov	r7, r9
 1561 001c 06E0     		b	.L240
 1562              	.LVL172:
 1563              	.L249:
 1564              		.loc 1 936 0 is_stmt 1 discriminator 1
 1565 001e 9D42     		cmp	r5, r3
 1566 0020 09D8     		bhi	.L238
 1567              		.loc 1 938 0
 1568 0022 5B1B     		subs	r3, r3, r5
 1569 0024 9BB2     		uxth	r3, r3
 1570              	.LVL173:
 1571              		.loc 1 935 0
 1572 0026 2468     		ldr	r4, [r4, #0]
 1573              	.LVL174:
 1574 0028 D6B1     		cbz	r6, .L235
 1575              	.LVL175:
 1576              	.L250:
 1577              		.loc 1 935 0 is_stmt 0 discriminator 2
 1578 002a CCB1     		cbz	r4, .L235
 1579              	.L240:
 1580              		.loc 1 945 0 is_stmt 1
 1581 002c 08EB0700 		add	r0, r8, r7
 1582              		.loc 1 936 0
ARM GAS  /tmp/ccGvWwDb.s 			page 29


 1583 0030 6589     		ldrh	r5, [r4, #10]
 1584 0032 002B     		cmp	r3, #0
 1585 0034 F3D1     		bne	.L249
 1586              	.L238:
 1587              		.loc 1 941 0
 1588 0036 ED1A     		subs	r5, r5, r3
 1589 0038 ADB2     		uxth	r5, r5
 1590              	.LVL176:
 1591 003a B542     		cmp	r5, r6
 1592 003c 28BF     		it	cs
 1593 003e 3546     		movcs	r5, r6
 1594              	.LVL177:
 1595              		.loc 1 945 0
 1596 0040 6168     		ldr	r1, [r4, #4]
 1597              		.loc 1 948 0
 1598 0042 761B     		subs	r6, r6, r5
 1599              		.loc 1 945 0
 1600 0044 C918     		adds	r1, r1, r3
 1601 0046 2A46     		mov	r2, r5
 1602              		.loc 1 946 0
 1603 0048 A944     		add	r9, r5, r9
 1604              		.loc 1 947 0
 1605 004a EF19     		adds	r7, r5, r7
 1606              		.loc 1 948 0
 1607 004c B6B2     		uxth	r6, r6
 1608              		.loc 1 945 0
 1609 004e FFF7FEFF 		bl	memcpy
 1610              	.LVL178:
 1611              		.loc 1 946 0
 1612 0052 1FFA89F9 		uxth	r9, r9
 1613              	.LVL179:
 1614              		.loc 1 947 0
 1615 0056 BFB2     		uxth	r7, r7
 1616              	.LVL180:
 1617              		.loc 1 949 0
 1618 0058 0023     		movs	r3, #0
 1619              	.LVL181:
 1620              		.loc 1 935 0
 1621 005a 2468     		ldr	r4, [r4, #0]
 1622              	.LVL182:
 1623 005c 002E     		cmp	r6, #0
 1624 005e E4D1     		bne	.L250
 1625              	.LVL183:
 1626              	.L235:
 1627              		.loc 1 953 0
 1628 0060 4846     		mov	r0, r9
 1629 0062 BDE8F883 		pop	{r3, r4, r5, r6, r7, r8, r9, pc}
 1630              	.LVL184:
 1631              	.L236:
 1632              		.loc 1 925 0 discriminator 1
 1633 0066 FFF7FEFF 		bl	port_halt
 1634              	.LVL185:
 1635 006a 4FF00009 		mov	r9, #0
 1636 006e F7E7     		b	.L235
 1637              	.LVL186:
 1638              	.L241:
 1639              		.loc 1 935 0
ARM GAS  /tmp/ccGvWwDb.s 			page 30


 1640 0070 9146     		mov	r9, r2
 1641 0072 F5E7     		b	.L235
 1642              		.cfi_endproc
 1643              	.LFE21:
 1644              		.size	pbuf_copy_partial, .-pbuf_copy_partial
 1645 0074 AFF30080 		.section	.text.pbuf_take,"ax",%progbits
 1645      AFF30080 
 1645      AFF30080 
 1646              		.align	2
 1647              		.p2align 4,,15
 1648              		.global	pbuf_take
 1649              		.thumb
 1650              		.thumb_func
 1651              		.type	pbuf_take, %function
 1652              	pbuf_take:
 1653              	.LFB22:
 1654              		.loc 1 967 0
 1655              		.cfi_startproc
 1656              		@ args = 0, pretend = 0, frame = 0
 1657              		@ frame_needed = 0, uses_anonymous_args = 0
 1658              	.LVL187:
 1659 0000 2DE9F843 		push	{r3, r4, r5, r6, r7, r8, r9, lr}
 1660              	.LCFI15:
 1661              		.cfi_def_cfa_offset 32
 1662              		.cfi_offset 3, -32
 1663              		.cfi_offset 4, -28
 1664              		.cfi_offset 5, -24
 1665              		.cfi_offset 6, -20
 1666              		.cfi_offset 7, -16
 1667              		.cfi_offset 8, -12
 1668              		.cfi_offset 9, -8
 1669              		.cfi_offset 14, -4
 1670              		.loc 1 967 0
 1671 0004 8846     		mov	r8, r1
 1672 0006 9146     		mov	r9, r2
 1673              	.LVL188:
 1674              		.loc 1 973 0
 1675 0008 E0B1     		cbz	r0, .L254
 1676              		.loc 1 974 0
 1677 000a D9B1     		cbz	r1, .L254
 1678              		.loc 1 976 0 discriminator 1
 1679 000c 0389     		ldrh	r3, [r0, #8]
 1680 000e 9342     		cmp	r3, r2
 1681 0010 25D3     		bcc	.L259
 1682              	.LVL189:
 1683              		.loc 1 981 0 discriminator 1
 1684 0012 02B3     		cbz	r2, .L258
 1685              		.loc 1 981 0 is_stmt 0
 1686 0014 0446     		mov	r4, r0
 1687 0016 1546     		mov	r5, r2
 1688 0018 0027     		movs	r7, #0
 1689 001a 00E0     		b	.L266
 1690              	.LVL190:
 1691              	.L257:
 1692              		.loc 1 982 0 is_stmt 1
 1693 001c C4B1     		cbz	r4, .L267
 1694              	.LVL191:
ARM GAS  /tmp/ccGvWwDb.s 			page 31


 1695              	.L266:
 1696              		.loc 1 984 0
 1697 001e 6689     		ldrh	r6, [r4, #10]
 1698              		.loc 1 989 0
 1699 0020 6068     		ldr	r0, [r4, #4]
 1700 0022 B542     		cmp	r5, r6
 1701 0024 38BF     		it	cc
 1702 0026 2E46     		movcc	r6, r5
 1703              	.LVL192:
 1704              		.loc 1 990 0
 1705 0028 AD1B     		subs	r5, r5, r6
 1706              		.loc 1 989 0
 1707 002a 08EB0701 		add	r1, r8, r7
 1708 002e 3246     		mov	r2, r6
 1709              		.loc 1 991 0
 1710 0030 F719     		adds	r7, r6, r7
 1711              		.loc 1 990 0
 1712 0032 ADB2     		uxth	r5, r5
 1713              		.loc 1 989 0
 1714 0034 FFF7FEFF 		bl	memcpy
 1715              	.LVL193:
 1716              		.loc 1 991 0
 1717 0038 BFB2     		uxth	r7, r7
 1718              	.LVL194:
 1719              		.loc 1 981 0
 1720 003a 2468     		ldr	r4, [r4, #0]
 1721              	.LVL195:
 1722 003c 002D     		cmp	r5, #0
 1723 003e EDD1     		bne	.L257
 1724              		.loc 1 993 0
 1725 0040 B945     		cmp	r9, r7
 1726 0042 08D0     		beq	.L258
 1727              	.LVL196:
 1728              	.L254:
 1729              		.loc 1 973 0 discriminator 1
 1730 0044 FFF7FEFF 		bl	port_halt
 1731              	.LVL197:
 1732 0048 0020     		movs	r0, #0
 1733              	.L253:
 1734              		.loc 1 995 0
 1735 004a 40B2     		sxtb	r0, r0
 1736 004c BDE8F883 		pop	{r3, r4, r5, r6, r7, r8, r9, pc}
 1737              	.LVL198:
 1738              	.L267:
 1739              		.loc 1 982 0 discriminator 1
 1740 0050 FFF7FEFF 		bl	port_halt
 1741              	.LVL199:
 1742 0054 E3E7     		b	.L266
 1743              	.LVL200:
 1744              	.L258:
 1745              		.loc 1 994 0
 1746 0056 0020     		movs	r0, #0
 1747              		.loc 1 995 0
 1748 0058 40B2     		sxtb	r0, r0
 1749 005a BDE8F883 		pop	{r3, r4, r5, r6, r7, r8, r9, pc}
 1750              	.LVL201:
 1751              	.L259:
ARM GAS  /tmp/ccGvWwDb.s 			page 32


 1752              		.loc 1 977 0
 1753 005e F220     		movs	r0, #242
 1754              	.LVL202:
 1755 0060 F3E7     		b	.L253
 1756              		.cfi_endproc
 1757              	.LFE22:
 1758              		.size	pbuf_take, .-pbuf_take
 1759 0062 00BFAFF3 		.section	.text.pbuf_coalesce,"ax",%progbits
 1759      0080AFF3 
 1759      0080AFF3 
 1759      0080
 1760              		.align	2
 1761              		.p2align 4,,15
 1762              		.global	pbuf_coalesce
 1763              		.thumb
 1764              		.thumb_func
 1765              		.type	pbuf_coalesce, %function
 1766              	pbuf_coalesce:
 1767              	.LFB23:
 1768              		.loc 1 1011 0
 1769              		.cfi_startproc
 1770              		@ args = 0, pretend = 0, frame = 0
 1771              		@ frame_needed = 0, uses_anonymous_args = 0
 1772              	.LVL203:
 1773 0000 38B5     		push	{r3, r4, r5, lr}
 1774              	.LCFI16:
 1775              		.cfi_def_cfa_offset 16
 1776              		.cfi_offset 3, -16
 1777              		.cfi_offset 4, -12
 1778              		.cfi_offset 5, -8
 1779              		.cfi_offset 14, -4
 1780              		.loc 1 1014 0
 1781 0002 0368     		ldr	r3, [r0, #0]
 1782              		.loc 1 1011 0
 1783 0004 0446     		mov	r4, r0
 1784              		.loc 1 1014 0
 1785 0006 73B1     		cbz	r3, .L270
 1786              		.loc 1 1017 0
 1787 0008 0846     		mov	r0, r1
 1788              	.LVL204:
 1789 000a 0022     		movs	r2, #0
 1790 000c 2189     		ldrh	r1, [r4, #8]
 1791              	.LVL205:
 1792 000e FFF7FEFF 		bl	pbuf_alloc
 1793              	.LVL206:
 1794              		.loc 1 1018 0
 1795 0012 0546     		mov	r5, r0
 1796 0014 38B1     		cbz	r0, .L270
 1797              		.loc 1 1022 0
 1798 0016 2146     		mov	r1, r4
 1799 0018 FFF7FEFF 		bl	pbuf_copy
 1800              	.LVL207:
 1801              		.loc 1 1023 0
 1802 001c 28B9     		cbnz	r0, .L279
 1803              	.LVL208:
 1804              	.L272:
 1805              		.loc 1 1024 0
ARM GAS  /tmp/ccGvWwDb.s 			page 33


 1806 001e 2046     		mov	r0, r4
 1807 0020 FFF7FEFF 		bl	pbuf_free
 1808              	.LVL209:
 1809              		.loc 1 1025 0
 1810 0024 2C46     		mov	r4, r5
 1811              	.LVL210:
 1812              	.L270:
 1813              		.loc 1 1026 0
 1814 0026 2046     		mov	r0, r4
 1815 0028 38BD     		pop	{r3, r4, r5, pc}
 1816              	.LVL211:
 1817              	.L279:
 1818              		.loc 1 1023 0 discriminator 1
 1819 002a FFF7FEFF 		bl	port_halt
 1820              	.LVL212:
 1821 002e F6E7     		b	.L272
 1822              		.cfi_endproc
 1823              	.LFE23:
 1824              		.size	pbuf_coalesce, .-pbuf_coalesce
 1825              		.section	.text.pbuf_get_at,"ax",%progbits
 1826              		.align	2
 1827              		.p2align 4,,15
 1828              		.global	pbuf_get_at
 1829              		.thumb
 1830              		.thumb_func
 1831              		.type	pbuf_get_at, %function
 1832              	pbuf_get_at:
 1833              	.LFB24:
 1834              		.loc 1 1078 0
 1835              		.cfi_startproc
 1836              		@ args = 0, pretend = 0, frame = 0
 1837              		@ frame_needed = 0, uses_anonymous_args = 0
 1838              		@ link register save eliminated.
 1839              	.LVL213:
 1840              		.loc 1 1083 0
 1841 0000 58B1     		cbz	r0, .L288
 1842 0002 4389     		ldrh	r3, [r0, #10]
 1843 0004 9942     		cmp	r1, r3
 1844 0006 03D2     		bcs	.L283
 1845 0008 08E0     		b	.L282
 1846              	.LVL214:
 1847              	.L289:
 1848              		.loc 1 1083 0 is_stmt 0 discriminator 2
 1849 000a 4389     		ldrh	r3, [r0, #10]
 1850 000c 8B42     		cmp	r3, r1
 1851 000e 05D8     		bhi	.L282
 1852              	.LVL215:
 1853              	.L283:
 1854              		.loc 1 1085 0 is_stmt 1
 1855 0010 0068     		ldr	r0, [r0, #0]
 1856              	.LVL216:
 1857              		.loc 1 1084 0
 1858 0012 C91A     		subs	r1, r1, r3
 1859 0014 89B2     		uxth	r1, r1
 1860              	.LVL217:
 1861              		.loc 1 1083 0
 1862 0016 0028     		cmp	r0, #0
ARM GAS  /tmp/ccGvWwDb.s 			page 34


 1863 0018 F7D1     		bne	.L289
 1864              	.LVL218:
 1865              	.L288:
 1866              		.loc 1 1092 0
 1867 001a 7047     		bx	lr
 1868              	.L282:
 1869              		.loc 1 1089 0
 1870 001c 4068     		ldr	r0, [r0, #4]
 1871              	.LVL219:
 1872 001e 405C     		ldrb	r0, [r0, r1]	@ zero_extendqisi2
 1873              		.loc 1 1092 0
 1874 0020 7047     		bx	lr
 1875              		.cfi_endproc
 1876              	.LFE24:
 1877              		.size	pbuf_get_at, .-pbuf_get_at
 1878 0022 00BFAFF3 		.section	.text.pbuf_memcmp,"ax",%progbits
 1878      0080AFF3 
 1878      0080AFF3 
 1878      0080
 1879              		.align	2
 1880              		.p2align 4,,15
 1881              		.global	pbuf_memcmp
 1882              		.thumb
 1883              		.thumb_func
 1884              		.type	pbuf_memcmp, %function
 1885              	pbuf_memcmp:
 1886              	.LFB25:
 1887              		.loc 1 1105 0
 1888              		.cfi_startproc
 1889              		@ args = 0, pretend = 0, frame = 0
 1890              		@ frame_needed = 0, uses_anonymous_args = 0
 1891              		@ link register save eliminated.
 1892              	.LVL220:
 1893 0000 F0B4     		push	{r4, r5, r6, r7}
 1894              	.LCFI17:
 1895              		.cfi_def_cfa_offset 16
 1896              		.cfi_offset 4, -16
 1897              		.cfi_offset 5, -12
 1898              		.cfi_offset 6, -8
 1899              		.cfi_offset 7, -4
 1900              		.loc 1 1110 0
 1901 0002 58B1     		cbz	r0, .L304
 1902 0004 4489     		ldrh	r4, [r0, #10]
 1903 0006 A142     		cmp	r1, r4
 1904 0008 03D2     		bcs	.L293
 1905 000a 0BE0     		b	.L292
 1906              	.LVL221:
 1907              	.L310:
 1908              		.loc 1 1110 0 is_stmt 0 discriminator 2
 1909 000c 4489     		ldrh	r4, [r0, #10]
 1910 000e 8C42     		cmp	r4, r1
 1911 0010 08D8     		bhi	.L292
 1912              	.LVL222:
 1913              	.L293:
 1914              		.loc 1 1112 0 is_stmt 1
 1915 0012 0068     		ldr	r0, [r0, #0]
 1916              	.LVL223:
ARM GAS  /tmp/ccGvWwDb.s 			page 35


 1917              		.loc 1 1111 0
 1918 0014 091B     		subs	r1, r1, r4
 1919 0016 89B2     		uxth	r1, r1
 1920              	.LVL224:
 1921              		.loc 1 1110 0
 1922 0018 0028     		cmp	r0, #0
 1923 001a F7D1     		bne	.L310
 1924              	.LVL225:
 1925              	.L304:
 1926              		.loc 1 1126 0
 1927 001c 4FF6FF70 		movw	r0, #65535
 1928              	.LVL226:
 1929              	.L309:
 1930              		.loc 1 1127 0
 1931 0020 F0BC     		pop	{r4, r5, r6, r7}
 1932 0022 7047     		bx	lr
 1933              	.LVL227:
 1934              	.L292:
 1935              	.LBB27:
 1936              		.loc 1 1117 0
 1937 0024 23B3     		cbz	r3, .L311
 1938 0026 0027     		movs	r7, #0
 1939 0028 BC46     		mov	ip, r7
 1940              	.LVL228:
 1941              	.L299:
 1942              	.LBE27:
 1943              		.loc 1 1104 0
 1944 002a 01EB0C05 		add	r5, r1, ip
 1945 002e ADB2     		uxth	r5, r5
 1946              	.LVL229:
 1947              	.LBB38:
 1948 0030 0446     		mov	r4, r0
 1949              	.LVL230:
 1950              	.L294:
 1951              	.LBB28:
 1952              	.LBB29:
 1953              	.LBB30:
 1954              		.loc 1 1083 0
 1955 0032 6689     		ldrh	r6, [r4, #10]
 1956 0034 AE42     		cmp	r6, r5
 1957 0036 0ED8     		bhi	.L312
 1958              		.loc 1 1085 0
 1959 0038 2468     		ldr	r4, [r4, #0]
 1960              	.LVL231:
 1961              		.loc 1 1084 0
 1962 003a AD1B     		subs	r5, r5, r6
 1963 003c ADB2     		uxth	r5, r5
 1964              	.LVL232:
 1965              		.loc 1 1083 0
 1966 003e 002C     		cmp	r4, #0
 1967 0040 F7D1     		bne	.L294
 1968              	.LVL233:
 1969              	.L295:
 1970              	.LBE30:
 1971              	.LBE29:
 1972              		.loc 1 1120 0
 1973 0042 D55D     		ldrb	r5, [r2, r7]	@ zero_extendqisi2
ARM GAS  /tmp/ccGvWwDb.s 			page 36


 1974 0044 A542     		cmp	r5, r4
 1975 0046 0CD1     		bne	.L313
 1976              	.LVL234:
 1977              	.L298:
 1978 0048 0137     		adds	r7, r7, #1
 1979              	.LBE28:
 1980              		.loc 1 1117 0
 1981 004a 1FFA87FC 		uxth	ip, r7
 1982              	.LVL235:
 1983 004e 6345     		cmp	r3, ip
 1984 0050 EBD8     		bhi	.L299
 1985              		.loc 1 1124 0
 1986 0052 0020     		movs	r0, #0
 1987              	.LVL236:
 1988 0054 E4E7     		b	.L309
 1989              	.LVL237:
 1990              	.L312:
 1991              	.LBB37:
 1992              	.LBB34:
 1993              	.LBB31:
 1994              		.loc 1 1088 0
 1995 0056 B542     		cmp	r5, r6
 1996 0058 07D3     		bcc	.L300
 1997              	.LBE31:
 1998              	.LBE34:
 1999              		.loc 1 1120 0
 2000 005a D55D     		ldrb	r5, [r2, r7]	@ zero_extendqisi2
 2001              	.LBB35:
 2002              	.LBB32:
 2003              		.loc 1 1091 0
 2004 005c 0024     		movs	r4, #0
 2005              	.LVL238:
 2006              	.LBE32:
 2007              	.LBE35:
 2008              		.loc 1 1120 0
 2009 005e A542     		cmp	r5, r4
 2010 0060 F2D0     		beq	.L298
 2011              	.LVL239:
 2012              	.L313:
 2013              		.loc 1 1121 0
 2014 0062 0CF10100 		add	r0, ip, #1
 2015              	.LVL240:
 2016 0066 80B2     		uxth	r0, r0
 2017 0068 DAE7     		b	.L309
 2018              	.LVL241:
 2019              	.L300:
 2020              	.LBB36:
 2021              	.LBB33:
 2022              		.loc 1 1089 0
 2023 006a 6468     		ldr	r4, [r4, #4]
 2024              	.LVL242:
 2025 006c 645D     		ldrb	r4, [r4, r5]	@ zero_extendqisi2
 2026 006e E8E7     		b	.L295
 2027              	.LVL243:
 2028              	.L311:
 2029              	.LBE33:
 2030              	.LBE36:
ARM GAS  /tmp/ccGvWwDb.s 			page 37


 2031              	.LBE37:
 2032              		.loc 1 1124 0
 2033 0070 1846     		mov	r0, r3
 2034              	.LVL244:
 2035 0072 D5E7     		b	.L309
 2036              	.LBE38:
 2037              		.cfi_endproc
 2038              	.LFE25:
 2039              		.size	pbuf_memcmp, .-pbuf_memcmp
 2040 0074 AFF30080 		.section	.text.pbuf_memfind,"ax",%progbits
 2040      AFF30080 
 2040      AFF30080 
 2041              		.align	2
 2042              		.p2align 4,,15
 2043              		.global	pbuf_memfind
 2044              		.thumb
 2045              		.thumb_func
 2046              		.type	pbuf_memfind, %function
 2047              	pbuf_memfind:
 2048              	.LFB26:
 2049              		.loc 1 1141 0
 2050              		.cfi_startproc
 2051              		@ args = 0, pretend = 0, frame = 0
 2052              		@ frame_needed = 0, uses_anonymous_args = 0
 2053              	.LVL245:
 2054 0000 2DE9F843 		push	{r3, r4, r5, r6, r7, r8, r9, lr}
 2055              	.LCFI18:
 2056              		.cfi_def_cfa_offset 32
 2057              		.cfi_offset 3, -32
 2058              		.cfi_offset 4, -28
 2059              		.cfi_offset 5, -24
 2060              		.cfi_offset 6, -20
 2061              		.cfi_offset 7, -16
 2062              		.cfi_offset 8, -12
 2063              		.cfi_offset 9, -8
 2064              		.cfi_offset 14, -4
 2065              		.loc 1 1143 0
 2066 0004 B0F80890 		ldrh	r9, [r0, #8]
 2067              	.LVL246:
 2068              		.loc 1 1141 0
 2069 0008 1646     		mov	r6, r2
 2070              		.loc 1 1144 0
 2071 000a D218     		adds	r2, r2, r3
 2072              	.LVL247:
 2073 000c 9145     		cmp	r9, r2
 2074              		.loc 1 1141 0
 2075 000e 0746     		mov	r7, r0
 2076 0010 8846     		mov	r8, r1
 2077              		.loc 1 1144 0
 2078 0012 04DA     		bge	.L324
 2079              	.LVL248:
 2080              	.L318:
 2081              		.loc 1 1154 0
 2082 0014 4FF6FF74 		movw	r4, #65535
 2083              		.loc 1 1155 0
 2084 0018 2046     		mov	r0, r4
 2085 001a BDE8F883 		pop	{r3, r4, r5, r6, r7, r8, r9, pc}
ARM GAS  /tmp/ccGvWwDb.s 			page 38


 2086              	.LVL249:
 2087              	.L324:
 2088              		.loc 1 1143 0 discriminator 1
 2089 001e C6EB0909 		rsb	r9, r6, r9
 2090              	.LVL250:
 2091 0022 1FFA89F9 		uxth	r9, r9
 2092              	.LVL251:
 2093              		.loc 1 1145 0 discriminator 1
 2094 0026 9945     		cmp	r9, r3
 2095 0028 F4D3     		bcc	.L318
 2096              		.loc 1 1145 0 is_stmt 0
 2097 002a 1C46     		mov	r4, r3
 2098 002c 02E0     		b	.L316
 2099              	.LVL252:
 2100              	.L325:
 2101              	.LBB39:
 2102              		.loc 1 1150 0 is_stmt 1
 2103 002e ACB2     		uxth	r4, r5
 2104              	.LVL253:
 2105              	.LBE39:
 2106              		.loc 1 1145 0
 2107 0030 A145     		cmp	r9, r4
 2108 0032 EFD3     		bcc	.L318
 2109              	.LVL254:
 2110              	.L316:
 2111              	.LBB40:
 2112              		.loc 1 1146 0
 2113 0034 2146     		mov	r1, r4
 2114 0036 3846     		mov	r0, r7
 2115 0038 4246     		mov	r2, r8
 2116 003a 3346     		mov	r3, r6
 2117 003c FFF7FEFF 		bl	pbuf_memcmp
 2118              	.LVL255:
 2119              		.loc 1 1150 0
 2120 0040 2518     		adds	r5, r4, r0
 2121              		.loc 1 1147 0
 2122 0042 0028     		cmp	r0, #0
 2123 0044 F3D1     		bne	.L325
 2124              	.LBE40:
 2125              		.loc 1 1155 0
 2126 0046 2046     		mov	r0, r4
 2127              	.LVL256:
 2128 0048 BDE8F883 		pop	{r3, r4, r5, r6, r7, r8, r9, pc}
 2129              		.cfi_endproc
 2130              	.LFE26:
 2131              		.size	pbuf_memfind, .-pbuf_memfind
 2132 004c AFF30080 		.section	.text.pbuf_strstr,"ax",%progbits
 2133              		.align	2
 2134              		.p2align 4,,15
 2135              		.global	pbuf_strstr
 2136              		.thumb
 2137              		.thumb_func
 2138              		.type	pbuf_strstr, %function
 2139              	pbuf_strstr:
 2140              	.LFB27:
 2141              		.loc 1 1169 0
 2142              		.cfi_startproc
ARM GAS  /tmp/ccGvWwDb.s 			page 39


 2143              		@ args = 0, pretend = 0, frame = 8
 2144              		@ frame_needed = 0, uses_anonymous_args = 0
 2145              	.LVL257:
 2146 0000 30B5     		push	{r4, r5, lr}
 2147              	.LCFI19:
 2148              		.cfi_def_cfa_offset 12
 2149              		.cfi_offset 4, -12
 2150              		.cfi_offset 5, -8
 2151              		.cfi_offset 14, -4
 2152 0002 0446     		mov	r4, r0
 2153 0004 83B0     		sub	sp, sp, #12
 2154              	.LCFI20:
 2155              		.cfi_def_cfa_offset 24
 2156              		.loc 1 1171 0
 2157 0006 09B1     		cbz	r1, .L329
 2158              		.loc 1 1171 0 is_stmt 0 discriminator 1
 2159 0008 0B78     		ldrb	r3, [r1, #0]	@ zero_extendqisi2
 2160 000a 1BB9     		cbnz	r3, .L332
 2161              	.L329:
 2162              		.loc 1 1172 0 is_stmt 1
 2163 000c 4FF6FF70 		movw	r0, #65535
 2164              	.LVL258:
 2165              	.L327:
 2166              		.loc 1 1179 0
 2167 0010 03B0     		add	sp, sp, #12
 2168 0012 30BD     		pop	{r4, r5, pc}
 2169              	.LVL259:
 2170              	.L332:
 2171              		.loc 1 1171 0 discriminator 1
 2172 0014 0089     		ldrh	r0, [r0, #8]
 2173              	.LVL260:
 2174 0016 4FF6FF75 		movw	r5, #65535
 2175 001a A842     		cmp	r0, r5
 2176 001c F8D0     		beq	.L327
 2177              		.loc 1 1174 0
 2178 001e 0846     		mov	r0, r1
 2179 0020 0191     		str	r1, [sp, #4]
 2180 0022 FFF7FEFF 		bl	strlen
 2181              	.LVL261:
 2182 0026 0246     		mov	r2, r0
 2183              	.LVL262:
 2184              		.loc 1 1175 0
 2185 0028 4FF6FE70 		movw	r0, #65534
 2186              	.LVL263:
 2187 002c 8242     		cmp	r2, r0
 2188 002e 0199     		ldr	r1, [sp, #4]
 2189 0030 01D9     		bls	.L333
 2190              	.LVL264:
 2191              		.loc 1 1172 0
 2192 0032 2846     		mov	r0, r5
 2193 0034 ECE7     		b	.L327
 2194              	.L333:
 2195              		.loc 1 1178 0
 2196 0036 2046     		mov	r0, r4
 2197 0038 92B2     		uxth	r2, r2
 2198              	.LVL265:
 2199 003a 0023     		movs	r3, #0
ARM GAS  /tmp/ccGvWwDb.s 			page 40


 2200              		.loc 1 1179 0
 2201 003c 03B0     		add	sp, sp, #12
 2202 003e BDE83040 		pop	{r4, r5, lr}
 2203              		.loc 1 1178 0
 2204 0042 FFF7FEBF 		b	pbuf_memfind
 2205              	.LVL266:
 2206              		.cfi_endproc
 2207              	.LFE27:
 2208              		.size	pbuf_strstr, .-pbuf_strstr
 2209              		.global	pbuf_free_ooseq_pending
 2210 0046 00BFAFF3 		.section	.bss.pbuf_free_ooseq_pending,"aw",%nobits
 2210      0080AFF3 
 2210      0080
 2211              		.set	.LANCHOR0,. + 0
 2212              		.type	pbuf_free_ooseq_pending, %object
 2213              		.size	pbuf_free_ooseq_pending, 1
 2214              	pbuf_free_ooseq_pending:
 2215 0000 00       		.space	1
 2216              		.text
 2217              	.Letext0:
 2218              		.file 2 "/usr/bin/../lib/gcc/arm-none-eabi/4.7.4/include/stddef.h"
 2219              		.file 3 "/usr/bin/../lib/gcc/arm-none-eabi/4.7.4/../../../../arm-none-eabi/include/stdint.h"
 2220              		.file 4 "../../os/various/lwip_bindings/arch/cc.h"
 2221              		.file 5 "../../ext/lwip/src/include/lwip/mem.h"
 2222              		.file 6 "../../ext/lwip/src/include/lwip/memp.h"
 2223              		.file 7 "../../ext/lwip/src/include/lwip/err.h"
 2224              		.file 8 "../../ext/lwip/src/include/lwip/pbuf.h"
 2225              		.file 9 "../../ext/lwip/src/include/ipv4/lwip/ip_addr.h"
 2226              		.file 10 "../../ext/lwip/src/include/lwip/tcp.h"
 2227              		.file 11 "../../ext/lwip/src/include/lwip/tcp_impl.h"
 2228              		.file 12 "../../ext/lwip/src/include/lwip/tcpip.h"
 2229              		.file 13 "/usr/bin/../lib/gcc/arm-none-eabi/4.7.4/../../../../arm-none-eabi/include/string.h"
 2230              		.file 14 "../../os/ports/GCC/ARMCMx/chcore_v7m.h"