ARM GAS  /tmp/ccemB5pS.s 			page 1


   1              		.syntax unified
   2              		.cpu cortex-m4
   3              		.fpu softvfp
   4              		.eabi_attribute 20, 1
   5              		.eabi_attribute 21, 1
   6              		.eabi_attribute 23, 3
   7              		.eabi_attribute 24, 1
   8              		.eabi_attribute 25, 1
   9              		.eabi_attribute 26, 1
  10              		.eabi_attribute 30, 2
  11              		.eabi_attribute 34, 1
  12              		.eabi_attribute 18, 4
  13              		.thumb
  14              		.file	"sys.c"
  15              		.text
  16              	.Ltext0:
  17              		.cfi_sections	.debug_frame
  18              		.section	.text.sys_msleep,"ax",%progbits
  19              		.align	2
  20              		.p2align 4,,15
  21              		.global	sys_msleep
  22              		.thumb
  23              		.thumb_func
  24              		.type	sys_msleep, %function
  25              	sys_msleep:
  26              	.LFB7:
  27              		.file 1 "../../ext/lwip/src/core/sys.c"
  28              		.loc 1 56 0
  29              		.cfi_startproc
  30              		@ args = 0, pretend = 0, frame = 8
  31              		@ frame_needed = 0, uses_anonymous_args = 0
  32              	.LVL0:
  33 0000 10B5     		push	{r4, lr}
  34              	.LCFI0:
  35              		.cfi_def_cfa_offset 8
  36              		.cfi_offset 4, -8
  37              		.cfi_offset 14, -4
  38              		.loc 1 57 0
  39 0002 0446     		mov	r4, r0
  40              		.loc 1 56 0
  41 0004 82B0     		sub	sp, sp, #8
  42              	.LCFI1:
  43              		.cfi_def_cfa_offset 16
  44              		.loc 1 57 0
  45 0006 08B9     		cbnz	r0, .L8
  46              	.LVL1:
  47              	.L1:
  48              		.loc 1 65 0
  49 0008 02B0     		add	sp, sp, #8
  50 000a 10BD     		pop	{r4, pc}
  51              	.LVL2:
  52              	.L8:
  53              	.LBB2:
  54              		.loc 1 59 0
  55 000c 01A8     		add	r0, sp, #4
  56              	.LVL3:
  57 000e 0021     		movs	r1, #0
ARM GAS  /tmp/ccemB5pS.s 			page 2


  58 0010 FFF7FEFF 		bl	sys_sem_new
  59              	.LVL4:
  60              		.loc 1 60 0
  61 0014 0028     		cmp	r0, #0
  62 0016 F7D1     		bne	.L1
  63              		.loc 1 61 0
  64 0018 01A8     		add	r0, sp, #4
  65              	.LVL5:
  66 001a 2146     		mov	r1, r4
  67 001c FFF7FEFF 		bl	sys_arch_sem_wait
  68              	.LVL6:
  69              		.loc 1 62 0
  70 0020 01A8     		add	r0, sp, #4
  71 0022 FFF7FEFF 		bl	sys_sem_free
  72              	.LVL7:
  73 0026 EFE7     		b	.L1
  74              	.LBE2:
  75              		.cfi_endproc
  76              	.LFE7:
  77              		.size	sys_msleep, .-sys_msleep
  78 0028 AFF30080 		.text
  78      AFF30080 
  79              	.Letext0:
  80              		.file 2 "/usr/bin/../lib/gcc/arm-none-eabi/4.7.4/../../../../arm-none-eabi/include/stdint.h"
  81              		.file 3 "../../os/ports/GCC/ARMCMx/chtypes.h"
  82              		.file 4 "../../os/kernel/include/chlists.h"
  83              		.file 5 "../../os/kernel/include/chthreads.h"
  84              		.file 6 "../../os/ports/GCC/ARMCMx/chcore_v7m.h"
  85              		.file 7 "../../os/kernel/include/chsem.h"
  86              		.file 8 "../../os/kernel/include/chmtx.h"
  87              		.file 9 "../../os/various/lwip_bindings/arch/cc.h"
  88              		.file 10 "../../ext/lwip/src/include/lwip/err.h"
  89              		.file 11 "../../os/various/lwip_bindings/arch/sys_arch.h"
  90              		.file 12 "../../ext/lwip/src/include/lwip/sys.h"
  91              		.section	.debug_info,"",%progbits
  92              	.Ldebug_info0:
  93 0000 3D050000 		.4byte	0x53d
  94 0004 0200     		.2byte	0x2
  95 0006 00000000 		.4byte	.Ldebug_abbrev0
  96 000a 04       		.byte	0x4
  97 000b 01       		.uleb128 0x1
  98 000c 60010000 		.4byte	.LASF69
  99 0010 01       		.byte	0x1
 100 0011 68000000 		.4byte	.LASF70
 101 0015 8F020000 		.4byte	.LASF71
 102 0019 00000000 		.4byte	.Ldebug_ranges0+0
 103 001d 00000000 		.4byte	0
 104 0021 00000000 		.4byte	0
 105 0025 00000000 		.4byte	.Ldebug_line0
 106 0029 02       		.uleb128 0x2
 107 002a 04       		.byte	0x4
 108 002b 05       		.byte	0x5
 109 002c 696E7400 		.ascii	"int\000"
 110 0030 03       		.uleb128 0x3
 111 0031 04       		.byte	0x4
 112 0032 07       		.byte	0x7
 113 0033 E3000000 		.4byte	.LASF0
ARM GAS  /tmp/ccemB5pS.s 			page 3


 114 0037 04       		.uleb128 0x4
 115 0038 DC020000 		.4byte	.LASF2
 116 003c 02       		.byte	0x2
 117 003d 29       		.byte	0x29
 118 003e 42000000 		.4byte	0x42
 119 0042 03       		.uleb128 0x3
 120 0043 01       		.byte	0x1
 121 0044 06       		.byte	0x6
 122 0045 5C000000 		.4byte	.LASF1
 123 0049 04       		.uleb128 0x4
 124 004a 0B030000 		.4byte	.LASF3
 125 004e 02       		.byte	0x2
 126 004f 2A       		.byte	0x2a
 127 0050 54000000 		.4byte	0x54
 128 0054 03       		.uleb128 0x3
 129 0055 01       		.byte	0x1
 130 0056 08       		.byte	0x8
 131 0057 04020000 		.4byte	.LASF4
 132 005b 03       		.uleb128 0x3
 133 005c 02       		.byte	0x2
 134 005d 05       		.byte	0x5
 135 005e 1C020000 		.4byte	.LASF5
 136 0062 03       		.uleb128 0x3
 137 0063 02       		.byte	0x2
 138 0064 07       		.byte	0x7
 139 0065 21010000 		.4byte	.LASF6
 140 0069 04       		.uleb128 0x4
 141 006a FC010000 		.4byte	.LASF7
 142 006e 02       		.byte	0x2
 143 006f 4F       		.byte	0x4f
 144 0070 74000000 		.4byte	0x74
 145 0074 03       		.uleb128 0x3
 146 0075 04       		.byte	0x4
 147 0076 05       		.byte	0x5
 148 0077 A0000000 		.4byte	.LASF8
 149 007b 04       		.uleb128 0x4
 150 007c 65020000 		.4byte	.LASF9
 151 0080 02       		.byte	0x2
 152 0081 50       		.byte	0x50
 153 0082 86000000 		.4byte	0x86
 154 0086 03       		.uleb128 0x3
 155 0087 04       		.byte	0x4
 156 0088 07       		.byte	0x7
 157 0089 FB000000 		.4byte	.LASF10
 158 008d 03       		.uleb128 0x3
 159 008e 08       		.byte	0x8
 160 008f 05       		.byte	0x5
 161 0090 4E000000 		.4byte	.LASF11
 162 0094 03       		.uleb128 0x3
 163 0095 08       		.byte	0x8
 164 0096 07       		.byte	0x7
 165 0097 1D000000 		.4byte	.LASF12
 166 009b 03       		.uleb128 0x3
 167 009c 01       		.byte	0x1
 168 009d 02       		.byte	0x2
 169 009e F6010000 		.4byte	.LASF13
 170 00a2 04       		.uleb128 0x4
ARM GAS  /tmp/ccemB5pS.s 			page 4


 171 00a3 3A010000 		.4byte	.LASF14
 172 00a7 03       		.byte	0x3
 173 00a8 25       		.byte	0x25
 174 00a9 49000000 		.4byte	0x49
 175 00ad 04       		.uleb128 0x4
 176 00ae A9000000 		.4byte	.LASF15
 177 00b2 03       		.byte	0x3
 178 00b3 26       		.byte	0x26
 179 00b4 49000000 		.4byte	0x49
 180 00b8 04       		.uleb128 0x4
 181 00b9 DF010000 		.4byte	.LASF16
 182 00bd 03       		.byte	0x3
 183 00be 27       		.byte	0x27
 184 00bf 49000000 		.4byte	0x49
 185 00c3 04       		.uleb128 0x4
 186 00c4 96000000 		.4byte	.LASF17
 187 00c8 03       		.byte	0x3
 188 00c9 28       		.byte	0x28
 189 00ca 49000000 		.4byte	0x49
 190 00ce 04       		.uleb128 0x4
 191 00cf EE010000 		.4byte	.LASF18
 192 00d3 03       		.byte	0x3
 193 00d4 29       		.byte	0x29
 194 00d5 7B000000 		.4byte	0x7b
 195 00d9 04       		.uleb128 0x4
 196 00da 34010000 		.4byte	.LASF19
 197 00de 03       		.byte	0x3
 198 00df 2A       		.byte	0x2a
 199 00e0 69000000 		.4byte	0x69
 200 00e4 04       		.uleb128 0x4
 201 00e5 4E010000 		.4byte	.LASF20
 202 00e9 03       		.byte	0x3
 203 00ea 2C       		.byte	0x2c
 204 00eb 7B000000 		.4byte	0x7b
 205 00ef 04       		.uleb128 0x4
 206 00f0 7A020000 		.4byte	.LASF21
 207 00f4 03       		.byte	0x3
 208 00f5 2E       		.byte	0x2e
 209 00f6 7B000000 		.4byte	0x7b
 210 00fa 04       		.uleb128 0x4
 211 00fb DD000000 		.4byte	.LASF22
 212 00ff 03       		.byte	0x3
 213 0100 2F       		.byte	0x2f
 214 0101 69000000 		.4byte	0x69
 215 0105 04       		.uleb128 0x4
 216 0106 4E020000 		.4byte	.LASF23
 217 010a 04       		.byte	0x4
 218 010b 23       		.byte	0x23
 219 010c 10010000 		.4byte	0x110
 220 0110 05       		.uleb128 0x5
 221 0111 4E020000 		.4byte	.LASF23
 222 0115 48       		.byte	0x48
 223 0116 05       		.byte	0x5
 224 0117 57       		.byte	0x57
 225 0118 35020000 		.4byte	0x235
 226 011c 06       		.uleb128 0x6
 227 011d 3F020000 		.4byte	.LASF24
ARM GAS  /tmp/ccemB5pS.s 			page 5


 228 0121 05       		.byte	0x5
 229 0122 58       		.byte	0x58
 230 0123 5A020000 		.4byte	0x25a
 231 0127 02       		.byte	0x2
 232 0128 23       		.byte	0x23
 233 0129 00       		.uleb128 0
 234 012a 06       		.uleb128 0x6
 235 012b E7010000 		.4byte	.LASF25
 236 012f 05       		.byte	0x5
 237 0130 5A       		.byte	0x5a
 238 0131 5A020000 		.4byte	0x25a
 239 0135 02       		.byte	0x2
 240 0136 23       		.byte	0x23
 241 0137 04       		.uleb128 0x4
 242 0138 06       		.uleb128 0x6
 243 0139 3D000000 		.4byte	.LASF26
 244 013d 05       		.byte	0x5
 245 013e 5C       		.byte	0x5c
 246 013f CE000000 		.4byte	0xce
 247 0143 02       		.byte	0x2
 248 0144 23       		.byte	0x23
 249 0145 08       		.uleb128 0x8
 250 0146 06       		.uleb128 0x6
 251 0147 29030000 		.4byte	.LASF27
 252 014b 05       		.byte	0x5
 253 014c 5D       		.byte	0x5d
 254 014d 28030000 		.4byte	0x328
 255 0151 02       		.byte	0x2
 256 0152 23       		.byte	0x23
 257 0153 0C       		.uleb128 0xc
 258 0154 06       		.uleb128 0x6
 259 0155 B2000000 		.4byte	.LASF28
 260 0159 05       		.byte	0x5
 261 015a 5F       		.byte	0x5f
 262 015b 5A020000 		.4byte	0x25a
 263 015f 02       		.byte	0x2
 264 0160 23       		.byte	0x23
 265 0161 10       		.uleb128 0x10
 266 0162 06       		.uleb128 0x6
 267 0163 CA010000 		.4byte	.LASF29
 268 0167 05       		.byte	0x5
 269 0168 60       		.byte	0x60
 270 0169 5A020000 		.4byte	0x25a
 271 016d 02       		.byte	0x2
 272 016e 23       		.byte	0x23
 273 016f 14       		.uleb128 0x14
 274 0170 06       		.uleb128 0x6
 275 0171 1A030000 		.4byte	.LASF30
 276 0175 05       		.byte	0x5
 277 0176 67       		.byte	0x67
 278 0177 08040000 		.4byte	0x408
 279 017b 02       		.byte	0x2
 280 017c 23       		.byte	0x23
 281 017d 18       		.uleb128 0x18
 282 017e 06       		.uleb128 0x6
 283 017f 26020000 		.4byte	.LASF31
 284 0183 05       		.byte	0x5
ARM GAS  /tmp/ccemB5pS.s 			page 6


 285 0184 72       		.byte	0x72
 286 0185 AD000000 		.4byte	0xad
 287 0189 02       		.byte	0x2
 288 018a 23       		.byte	0x23
 289 018b 1C       		.uleb128 0x1c
 290 018c 06       		.uleb128 0x6
 291 018d 46020000 		.4byte	.LASF32
 292 0191 05       		.byte	0x5
 293 0192 76       		.byte	0x76
 294 0193 A2000000 		.4byte	0xa2
 295 0197 02       		.byte	0x2
 296 0198 23       		.byte	0x23
 297 0199 1D       		.uleb128 0x1d
 298 019a 06       		.uleb128 0x6
 299 019b 04030000 		.4byte	.LASF33
 300 019f 05       		.byte	0x5
 301 01a0 7B       		.byte	0x7b
 302 01a1 B8000000 		.4byte	0xb8
 303 01a5 02       		.byte	0x2
 304 01a6 23       		.byte	0x23
 305 01a7 1E       		.uleb128 0x1e
 306 01a8 06       		.uleb128 0x6
 307 01a9 2E020000 		.4byte	.LASF34
 308 01ad 05       		.byte	0x5
 309 01ae 81       		.byte	0x81
 310 01af C3000000 		.4byte	0xc3
 311 01b3 02       		.byte	0x2
 312 01b4 23       		.byte	0x23
 313 01b5 1F       		.uleb128 0x1f
 314 01b6 06       		.uleb128 0x6
 315 01b7 D5020000 		.4byte	.LASF35
 316 01bb 05       		.byte	0x5
 317 01bc 88       		.byte	0x88
 318 01bd 52030000 		.4byte	0x352
 319 01c1 02       		.byte	0x2
 320 01c2 23       		.byte	0x23
 321 01c3 20       		.uleb128 0x20
 322 01c4 07       		.uleb128 0x7
 323 01c5 705F7500 		.ascii	"p_u\000"
 324 01c9 05       		.byte	0x5
 325 01ca AD       		.byte	0xad
 326 01cb D3030000 		.4byte	0x3d3
 327 01cf 02       		.byte	0x2
 328 01d0 23       		.byte	0x23
 329 01d1 24       		.uleb128 0x24
 330 01d2 06       		.uleb128 0x6
 331 01d3 2F030000 		.4byte	.LASF36
 332 01d7 05       		.byte	0x5
 333 01d8 B2       		.byte	0xb2
 334 01d9 82020000 		.4byte	0x282
 335 01dd 02       		.byte	0x2
 336 01de 23       		.byte	0x23
 337 01df 28       		.uleb128 0x28
 338 01e0 06       		.uleb128 0x6
 339 01e1 E3020000 		.4byte	.LASF37
 340 01e5 05       		.byte	0x5
 341 01e6 B8       		.byte	0xb8
ARM GAS  /tmp/ccemB5pS.s 			page 7


 342 01e7 60020000 		.4byte	0x260
 343 01eb 02       		.byte	0x2
 344 01ec 23       		.byte	0x23
 345 01ed 2C       		.uleb128 0x2c
 346 01ee 06       		.uleb128 0x6
 347 01ef 07000000 		.4byte	.LASF38
 348 01f3 05       		.byte	0x5
 349 01f4 BC       		.byte	0xbc
 350 01f5 D9000000 		.4byte	0xd9
 351 01f9 02       		.byte	0x2
 352 01fa 23       		.byte	0x23
 353 01fb 34       		.uleb128 0x34
 354 01fc 06       		.uleb128 0x6
 355 01fd 5A020000 		.4byte	.LASF39
 356 0201 05       		.byte	0x5
 357 0202 C2       		.byte	0xc2
 358 0203 E4000000 		.4byte	0xe4
 359 0207 02       		.byte	0x2
 360 0208 23       		.byte	0x23
 361 0209 38       		.uleb128 0x38
 362 020a 06       		.uleb128 0x6
 363 020b 12020000 		.4byte	.LASF40
 364 020f 05       		.byte	0x5
 365 0210 C9       		.byte	0xc9
 366 0211 1A040000 		.4byte	0x41a
 367 0215 02       		.byte	0x2
 368 0216 23       		.byte	0x23
 369 0217 3C       		.uleb128 0x3c
 370 0218 06       		.uleb128 0x6
 371 0219 84020000 		.4byte	.LASF41
 372 021d 05       		.byte	0x5
 373 021e CD       		.byte	0xcd
 374 021f CE000000 		.4byte	0xce
 375 0223 02       		.byte	0x2
 376 0224 23       		.byte	0x23
 377 0225 40       		.uleb128 0x40
 378 0226 06       		.uleb128 0x6
 379 0227 86000000 		.4byte	.LASF42
 380 022b 05       		.byte	0x5
 381 022c D3       		.byte	0xd3
 382 022d 98020000 		.4byte	0x298
 383 0231 02       		.byte	0x2
 384 0232 23       		.byte	0x23
 385 0233 44       		.uleb128 0x44
 386 0234 00       		.byte	0
 387 0235 08       		.uleb128 0x8
 388 0236 08       		.byte	0x8
 389 0237 04       		.byte	0x4
 390 0238 5A       		.byte	0x5a
 391 0239 5A020000 		.4byte	0x25a
 392 023d 06       		.uleb128 0x6
 393 023e 3F020000 		.4byte	.LASF24
 394 0242 04       		.byte	0x4
 395 0243 5B       		.byte	0x5b
 396 0244 5A020000 		.4byte	0x25a
 397 0248 02       		.byte	0x2
 398 0249 23       		.byte	0x23
ARM GAS  /tmp/ccemB5pS.s 			page 8


 399 024a 00       		.uleb128 0
 400 024b 06       		.uleb128 0x6
 401 024c E7010000 		.4byte	.LASF25
 402 0250 04       		.byte	0x4
 403 0251 5D       		.byte	0x5d
 404 0252 5A020000 		.4byte	0x25a
 405 0256 02       		.byte	0x2
 406 0257 23       		.byte	0x23
 407 0258 04       		.uleb128 0x4
 408 0259 00       		.byte	0
 409 025a 09       		.uleb128 0x9
 410 025b 04       		.byte	0x4
 411 025c 05010000 		.4byte	0x105
 412 0260 04       		.uleb128 0x4
 413 0261 D2010000 		.4byte	.LASF43
 414 0265 04       		.byte	0x4
 415 0266 5F       		.byte	0x5f
 416 0267 35020000 		.4byte	0x235
 417 026b 08       		.uleb128 0x8
 418 026c 04       		.byte	0x4
 419 026d 04       		.byte	0x4
 420 026e 64       		.byte	0x64
 421 026f 82020000 		.4byte	0x282
 422 0273 06       		.uleb128 0x6
 423 0274 3F020000 		.4byte	.LASF24
 424 0278 04       		.byte	0x4
 425 0279 66       		.byte	0x66
 426 027a 5A020000 		.4byte	0x25a
 427 027e 02       		.byte	0x2
 428 027f 23       		.byte	0x23
 429 0280 00       		.uleb128 0
 430 0281 00       		.byte	0
 431 0282 04       		.uleb128 0x4
 432 0283 42010000 		.4byte	.LASF44
 433 0287 04       		.byte	0x4
 434 0288 69       		.byte	0x69
 435 0289 6B020000 		.4byte	0x26b
 436 028d 04       		.uleb128 0x4
 437 028e D4000000 		.4byte	.LASF45
 438 0292 06       		.byte	0x6
 439 0293 DE       		.byte	0xde
 440 0294 98020000 		.4byte	0x298
 441 0298 0A       		.uleb128 0xa
 442 0299 04       		.byte	0x4
 443 029a 0B       		.uleb128 0xb
 444 029b 00000000 		.4byte	.LASF46
 445 029f 24       		.byte	0x24
 446 02a0 06       		.byte	0x6
 447 02a1 0501     		.2byte	0x105
 448 02a3 28030000 		.4byte	0x328
 449 02a7 0C       		.uleb128 0xc
 450 02a8 723400   		.ascii	"r4\000"
 451 02ab 06       		.byte	0x6
 452 02ac 1801     		.2byte	0x118
 453 02ae 8D020000 		.4byte	0x28d
 454 02b2 02       		.byte	0x2
 455 02b3 23       		.byte	0x23
ARM GAS  /tmp/ccemB5pS.s 			page 9


 456 02b4 00       		.uleb128 0
 457 02b5 0C       		.uleb128 0xc
 458 02b6 723500   		.ascii	"r5\000"
 459 02b9 06       		.byte	0x6
 460 02ba 1901     		.2byte	0x119
 461 02bc 8D020000 		.4byte	0x28d
 462 02c0 02       		.byte	0x2
 463 02c1 23       		.byte	0x23
 464 02c2 04       		.uleb128 0x4
 465 02c3 0C       		.uleb128 0xc
 466 02c4 723600   		.ascii	"r6\000"
 467 02c7 06       		.byte	0x6
 468 02c8 1A01     		.2byte	0x11a
 469 02ca 8D020000 		.4byte	0x28d
 470 02ce 02       		.byte	0x2
 471 02cf 23       		.byte	0x23
 472 02d0 08       		.uleb128 0x8
 473 02d1 0C       		.uleb128 0xc
 474 02d2 723700   		.ascii	"r7\000"
 475 02d5 06       		.byte	0x6
 476 02d6 1B01     		.2byte	0x11b
 477 02d8 8D020000 		.4byte	0x28d
 478 02dc 02       		.byte	0x2
 479 02dd 23       		.byte	0x23
 480 02de 0C       		.uleb128 0xc
 481 02df 0C       		.uleb128 0xc
 482 02e0 723800   		.ascii	"r8\000"
 483 02e3 06       		.byte	0x6
 484 02e4 1C01     		.2byte	0x11c
 485 02e6 8D020000 		.4byte	0x28d
 486 02ea 02       		.byte	0x2
 487 02eb 23       		.byte	0x23
 488 02ec 10       		.uleb128 0x10
 489 02ed 0C       		.uleb128 0xc
 490 02ee 723900   		.ascii	"r9\000"
 491 02f1 06       		.byte	0x6
 492 02f2 1D01     		.2byte	0x11d
 493 02f4 8D020000 		.4byte	0x28d
 494 02f8 02       		.byte	0x2
 495 02f9 23       		.byte	0x23
 496 02fa 14       		.uleb128 0x14
 497 02fb 0C       		.uleb128 0xc
 498 02fc 72313000 		.ascii	"r10\000"
 499 0300 06       		.byte	0x6
 500 0301 1E01     		.2byte	0x11e
 501 0303 8D020000 		.4byte	0x28d
 502 0307 02       		.byte	0x2
 503 0308 23       		.byte	0x23
 504 0309 18       		.uleb128 0x18
 505 030a 0C       		.uleb128 0xc
 506 030b 72313100 		.ascii	"r11\000"
 507 030f 06       		.byte	0x6
 508 0310 1F01     		.2byte	0x11f
 509 0312 8D020000 		.4byte	0x28d
 510 0316 02       		.byte	0x2
 511 0317 23       		.byte	0x23
 512 0318 1C       		.uleb128 0x1c
ARM GAS  /tmp/ccemB5pS.s 			page 10


 513 0319 0C       		.uleb128 0xc
 514 031a 6C7200   		.ascii	"lr\000"
 515 031d 06       		.byte	0x6
 516 031e 2001     		.2byte	0x120
 517 0320 8D020000 		.4byte	0x28d
 518 0324 02       		.byte	0x2
 519 0325 23       		.byte	0x23
 520 0326 20       		.uleb128 0x20
 521 0327 00       		.byte	0
 522 0328 0B       		.uleb128 0xb
 523 0329 19010000 		.4byte	.LASF47
 524 032d 04       		.byte	0x4
 525 032e 06       		.byte	0x6
 526 032f 2A01     		.2byte	0x12a
 527 0331 45030000 		.4byte	0x345
 528 0335 0C       		.uleb128 0xc
 529 0336 72313300 		.ascii	"r13\000"
 530 033a 06       		.byte	0x6
 531 033b 2B01     		.2byte	0x12b
 532 033d 45030000 		.4byte	0x345
 533 0341 02       		.byte	0x2
 534 0342 23       		.byte	0x23
 535 0343 00       		.uleb128 0
 536 0344 00       		.byte	0
 537 0345 09       		.uleb128 0x9
 538 0346 04       		.byte	0x4
 539 0347 9A020000 		.4byte	0x29a
 540 034b 03       		.uleb128 0x3
 541 034c 04       		.byte	0x4
 542 034d 07       		.byte	0x7
 543 034e C1010000 		.4byte	.LASF48
 544 0352 0D       		.uleb128 0xd
 545 0353 EF000000 		.4byte	0xef
 546 0357 05       		.uleb128 0x5
 547 0358 EE020000 		.4byte	.LASF49
 548 035c 0C       		.byte	0xc
 549 035d 07       		.byte	0x7
 550 035e 25       		.byte	0x25
 551 035f 80030000 		.4byte	0x380
 552 0363 06       		.uleb128 0x6
 553 0364 BA000000 		.4byte	.LASF50
 554 0368 07       		.byte	0x7
 555 0369 26       		.byte	0x26
 556 036a 60020000 		.4byte	0x260
 557 036e 02       		.byte	0x2
 558 036f 23       		.byte	0x23
 559 0370 00       		.uleb128 0
 560 0371 06       		.uleb128 0x6
 561 0372 13010000 		.4byte	.LASF51
 562 0376 07       		.byte	0x7
 563 0377 28       		.byte	0x28
 564 0378 FA000000 		.4byte	0xfa
 565 037c 02       		.byte	0x2
 566 037d 23       		.byte	0x23
 567 037e 08       		.uleb128 0x8
 568 037f 00       		.byte	0
 569 0380 04       		.uleb128 0x4
ARM GAS  /tmp/ccemB5pS.s 			page 11


 570 0381 EE020000 		.4byte	.LASF49
 571 0385 07       		.byte	0x7
 572 0386 29       		.byte	0x29
 573 0387 57030000 		.4byte	0x357
 574 038b 05       		.uleb128 0x5
 575 038c 5A010000 		.4byte	.LASF52
 576 0390 10       		.byte	0x10
 577 0391 08       		.byte	0x8
 578 0392 25       		.byte	0x25
 579 0393 C2030000 		.4byte	0x3c2
 580 0397 06       		.uleb128 0x6
 581 0398 8E000000 		.4byte	.LASF53
 582 039c 08       		.byte	0x8
 583 039d 26       		.byte	0x26
 584 039e 60020000 		.4byte	0x260
 585 03a2 02       		.byte	0x2
 586 03a3 23       		.byte	0x23
 587 03a4 00       		.uleb128 0
 588 03a5 06       		.uleb128 0x6
 589 03a6 21030000 		.4byte	.LASF54
 590 03aa 08       		.byte	0x8
 591 03ab 28       		.byte	0x28
 592 03ac 5A020000 		.4byte	0x25a
 593 03b0 02       		.byte	0x2
 594 03b1 23       		.byte	0x23
 595 03b2 08       		.uleb128 0x8
 596 03b3 06       		.uleb128 0x6
 597 03b4 73020000 		.4byte	.LASF55
 598 03b8 08       		.byte	0x8
 599 03b9 2A       		.byte	0x2a
 600 03ba C2030000 		.4byte	0x3c2
 601 03be 02       		.byte	0x2
 602 03bf 23       		.byte	0x23
 603 03c0 0C       		.uleb128 0xc
 604 03c1 00       		.byte	0
 605 03c2 09       		.uleb128 0x9
 606 03c3 04       		.byte	0x4
 607 03c4 8B030000 		.4byte	0x38b
 608 03c8 04       		.uleb128 0x4
 609 03c9 5A010000 		.4byte	.LASF52
 610 03cd 08       		.byte	0x8
 611 03ce 2C       		.byte	0x2c
 612 03cf 8B030000 		.4byte	0x38b
 613 03d3 0E       		.uleb128 0xe
 614 03d4 04       		.byte	0x4
 615 03d5 05       		.byte	0x5
 616 03d6 8F       		.byte	0x8f
 617 03d7 08040000 		.4byte	0x408
 618 03db 0F       		.uleb128 0xf
 619 03dc 0D000000 		.4byte	.LASF56
 620 03e0 05       		.byte	0x5
 621 03e1 96       		.byte	0x96
 622 03e2 D9000000 		.4byte	0xd9
 623 03e6 0F       		.uleb128 0xf
 624 03e7 34000000 		.4byte	.LASF57
 625 03eb 05       		.byte	0x5
 626 03ec 9D       		.byte	0x9d
ARM GAS  /tmp/ccemB5pS.s 			page 12


 627 03ed D9000000 		.4byte	0xd9
 628 03f1 0F       		.uleb128 0xf
 629 03f2 13030000 		.4byte	.LASF58
 630 03f6 05       		.byte	0x5
 631 03f7 A4       		.byte	0xa4
 632 03f8 98020000 		.4byte	0x298
 633 03fc 0F       		.uleb128 0xf
 634 03fd 38020000 		.4byte	.LASF59
 635 0401 05       		.byte	0x5
 636 0402 AB       		.byte	0xab
 637 0403 E4000000 		.4byte	0xe4
 638 0407 00       		.byte	0
 639 0408 09       		.uleb128 0x9
 640 0409 04       		.byte	0x4
 641 040a 0E040000 		.4byte	0x40e
 642 040e 10       		.uleb128 0x10
 643 040f 13040000 		.4byte	0x413
 644 0413 03       		.uleb128 0x3
 645 0414 01       		.byte	0x1
 646 0415 08       		.byte	0x8
 647 0416 6E020000 		.4byte	.LASF60
 648 041a 09       		.uleb128 0x9
 649 041b 04       		.byte	0x4
 650 041c C8030000 		.4byte	0x3c8
 651 0420 04       		.uleb128 0x4
 652 0421 BC010000 		.4byte	.LASF61
 653 0425 09       		.byte	0x9
 654 0426 38       		.byte	0x38
 655 0427 49000000 		.4byte	0x49
 656 042b 04       		.uleb128 0x4
 657 042c 55020000 		.4byte	.LASF62
 658 0430 09       		.byte	0x9
 659 0431 39       		.byte	0x39
 660 0432 37000000 		.4byte	0x37
 661 0436 04       		.uleb128 0x4
 662 0437 0D010000 		.4byte	.LASF63
 663 043b 09       		.byte	0x9
 664 043c 3C       		.byte	0x3c
 665 043d 7B000000 		.4byte	0x7b
 666 0441 04       		.uleb128 0x4
 667 0442 B6010000 		.4byte	.LASF64
 668 0446 0A       		.byte	0xa
 669 0447 2F       		.byte	0x2f
 670 0448 2B040000 		.4byte	0x42b
 671 044c 04       		.uleb128 0x4
 672 044d 44000000 		.4byte	.LASF65
 673 0451 0B       		.byte	0xb
 674 0452 38       		.byte	0x38
 675 0453 57040000 		.4byte	0x457
 676 0457 09       		.uleb128 0x9
 677 0458 04       		.byte	0x4
 678 0459 80030000 		.4byte	0x380
 679 045d 11       		.uleb128 0x11
 680 045e 01       		.byte	0x1
 681 045f F0000000 		.4byte	.LASF72
 682 0463 01       		.byte	0x1
 683 0464 37       		.byte	0x37
ARM GAS  /tmp/ccemB5pS.s 			page 13


 684 0465 01       		.byte	0x1
 685 0466 00000000 		.4byte	.LFB7
 686 046a 28000000 		.4byte	.LFE7
 687 046e 00000000 		.4byte	.LLST0
 688 0472 01       		.byte	0x1
 689 0473 F0040000 		.4byte	0x4f0
 690 0477 12       		.uleb128 0x12
 691 0478 6D7300   		.ascii	"ms\000"
 692 047b 01       		.byte	0x1
 693 047c 37       		.byte	0x37
 694 047d 36040000 		.4byte	0x436
 695 0481 2C000000 		.4byte	.LLST1
 696 0485 13       		.uleb128 0x13
 697 0486 0C000000 		.4byte	.LBB2
 698 048a 28000000 		.4byte	.LBE2
 699 048e 14       		.uleb128 0x14
 700 048f 14000000 		.4byte	.LASF66
 701 0493 01       		.byte	0x1
 702 0494 3A       		.byte	0x3a
 703 0495 4C040000 		.4byte	0x44c
 704 0499 02       		.byte	0x2
 705 049a 91       		.byte	0x91
 706 049b 74       		.sleb128 -12
 707 049c 15       		.uleb128 0x15
 708 049d 65727200 		.ascii	"err\000"
 709 04a1 01       		.byte	0x1
 710 04a2 3B       		.byte	0x3b
 711 04a3 41040000 		.4byte	0x441
 712 04a7 60000000 		.4byte	.LLST2
 713 04ab 16       		.uleb128 0x16
 714 04ac 14000000 		.4byte	.LVL4
 715 04b0 F0040000 		.4byte	0x4f0
 716 04b4 C4040000 		.4byte	0x4c4
 717 04b8 17       		.uleb128 0x17
 718 04b9 01       		.byte	0x1
 719 04ba 51       		.byte	0x51
 720 04bb 01       		.byte	0x1
 721 04bc 30       		.byte	0x30
 722 04bd 17       		.uleb128 0x17
 723 04be 01       		.byte	0x1
 724 04bf 50       		.byte	0x50
 725 04c0 02       		.byte	0x2
 726 04c1 91       		.byte	0x91
 727 04c2 74       		.sleb128 -12
 728 04c3 00       		.byte	0
 729 04c4 16       		.uleb128 0x16
 730 04c5 20000000 		.4byte	.LVL6
 731 04c9 13050000 		.4byte	0x513
 732 04cd DE040000 		.4byte	0x4de
 733 04d1 17       		.uleb128 0x17
 734 04d2 01       		.byte	0x1
 735 04d3 51       		.byte	0x51
 736 04d4 02       		.byte	0x2
 737 04d5 74       		.byte	0x74
 738 04d6 00       		.sleb128 0
 739 04d7 17       		.uleb128 0x17
 740 04d8 01       		.byte	0x1
ARM GAS  /tmp/ccemB5pS.s 			page 14


 741 04d9 50       		.byte	0x50
 742 04da 02       		.byte	0x2
 743 04db 91       		.byte	0x91
 744 04dc 74       		.sleb128 -12
 745 04dd 00       		.byte	0
 746 04de 18       		.uleb128 0x18
 747 04df 26000000 		.4byte	.LVL7
 748 04e3 30050000 		.4byte	0x530
 749 04e7 17       		.uleb128 0x17
 750 04e8 01       		.byte	0x1
 751 04e9 50       		.byte	0x50
 752 04ea 02       		.byte	0x2
 753 04eb 91       		.byte	0x91
 754 04ec 74       		.sleb128 -12
 755 04ed 00       		.byte	0
 756 04ee 00       		.byte	0
 757 04ef 00       		.byte	0
 758 04f0 19       		.uleb128 0x19
 759 04f1 01       		.byte	0x1
 760 04f2 F8020000 		.4byte	.LASF67
 761 04f6 0C       		.byte	0xc
 762 04f7 8B       		.byte	0x8b
 763 04f8 01       		.byte	0x1
 764 04f9 41040000 		.4byte	0x441
 765 04fd 01       		.byte	0x1
 766 04fe 0D050000 		.4byte	0x50d
 767 0502 1A       		.uleb128 0x1a
 768 0503 0D050000 		.4byte	0x50d
 769 0507 1A       		.uleb128 0x1a
 770 0508 20040000 		.4byte	0x420
 771 050c 00       		.byte	0
 772 050d 09       		.uleb128 0x9
 773 050e 04       		.byte	0x4
 774 050f 4C040000 		.4byte	0x44c
 775 0513 19       		.uleb128 0x19
 776 0514 01       		.byte	0x1
 777 0515 C2000000 		.4byte	.LASF68
 778 0519 0C       		.byte	0xc
 779 051a 97       		.byte	0x97
 780 051b 01       		.byte	0x1
 781 051c 36040000 		.4byte	0x436
 782 0520 01       		.byte	0x1
 783 0521 30050000 		.4byte	0x530
 784 0525 1A       		.uleb128 0x1a
 785 0526 0D050000 		.4byte	0x50d
 786 052a 1A       		.uleb128 0x1a
 787 052b 36040000 		.4byte	0x436
 788 052f 00       		.byte	0
 789 0530 1B       		.uleb128 0x1b
 790 0531 01       		.byte	0x1
 791 0532 A9010000 		.4byte	.LASF73
 792 0536 0C       		.byte	0xc
 793 0537 9A       		.byte	0x9a
 794 0538 01       		.byte	0x1
 795 0539 01       		.byte	0x1
 796 053a 1A       		.uleb128 0x1a
 797 053b 0D050000 		.4byte	0x50d
ARM GAS  /tmp/ccemB5pS.s 			page 15


 798 053f 00       		.byte	0
 799 0540 00       		.byte	0
 800              		.section	.debug_abbrev,"",%progbits
 801              	.Ldebug_abbrev0:
 802 0000 01       		.uleb128 0x1
 803 0001 11       		.uleb128 0x11
 804 0002 01       		.byte	0x1
 805 0003 25       		.uleb128 0x25
 806 0004 0E       		.uleb128 0xe
 807 0005 13       		.uleb128 0x13
 808 0006 0B       		.uleb128 0xb
 809 0007 03       		.uleb128 0x3
 810 0008 0E       		.uleb128 0xe
 811 0009 1B       		.uleb128 0x1b
 812 000a 0E       		.uleb128 0xe
 813 000b 55       		.uleb128 0x55
 814 000c 06       		.uleb128 0x6
 815 000d 11       		.uleb128 0x11
 816 000e 01       		.uleb128 0x1
 817 000f 52       		.uleb128 0x52
 818 0010 01       		.uleb128 0x1
 819 0011 10       		.uleb128 0x10
 820 0012 06       		.uleb128 0x6
 821 0013 00       		.byte	0
 822 0014 00       		.byte	0
 823 0015 02       		.uleb128 0x2
 824 0016 24       		.uleb128 0x24
 825 0017 00       		.byte	0
 826 0018 0B       		.uleb128 0xb
 827 0019 0B       		.uleb128 0xb
 828 001a 3E       		.uleb128 0x3e
 829 001b 0B       		.uleb128 0xb
 830 001c 03       		.uleb128 0x3
 831 001d 08       		.uleb128 0x8
 832 001e 00       		.byte	0
 833 001f 00       		.byte	0
 834 0020 03       		.uleb128 0x3
 835 0021 24       		.uleb128 0x24
 836 0022 00       		.byte	0
 837 0023 0B       		.uleb128 0xb
 838 0024 0B       		.uleb128 0xb
 839 0025 3E       		.uleb128 0x3e
 840 0026 0B       		.uleb128 0xb
 841 0027 03       		.uleb128 0x3
 842 0028 0E       		.uleb128 0xe
 843 0029 00       		.byte	0
 844 002a 00       		.byte	0
 845 002b 04       		.uleb128 0x4
 846 002c 16       		.uleb128 0x16
 847 002d 00       		.byte	0
 848 002e 03       		.uleb128 0x3
 849 002f 0E       		.uleb128 0xe
 850 0030 3A       		.uleb128 0x3a
 851 0031 0B       		.uleb128 0xb
 852 0032 3B       		.uleb128 0x3b
 853 0033 0B       		.uleb128 0xb
 854 0034 49       		.uleb128 0x49
ARM GAS  /tmp/ccemB5pS.s 			page 16


 855 0035 13       		.uleb128 0x13
 856 0036 00       		.byte	0
 857 0037 00       		.byte	0
 858 0038 05       		.uleb128 0x5
 859 0039 13       		.uleb128 0x13
 860 003a 01       		.byte	0x1
 861 003b 03       		.uleb128 0x3
 862 003c 0E       		.uleb128 0xe
 863 003d 0B       		.uleb128 0xb
 864 003e 0B       		.uleb128 0xb
 865 003f 3A       		.uleb128 0x3a
 866 0040 0B       		.uleb128 0xb
 867 0041 3B       		.uleb128 0x3b
 868 0042 0B       		.uleb128 0xb
 869 0043 01       		.uleb128 0x1
 870 0044 13       		.uleb128 0x13
 871 0045 00       		.byte	0
 872 0046 00       		.byte	0
 873 0047 06       		.uleb128 0x6
 874 0048 0D       		.uleb128 0xd
 875 0049 00       		.byte	0
 876 004a 03       		.uleb128 0x3
 877 004b 0E       		.uleb128 0xe
 878 004c 3A       		.uleb128 0x3a
 879 004d 0B       		.uleb128 0xb
 880 004e 3B       		.uleb128 0x3b
 881 004f 0B       		.uleb128 0xb
 882 0050 49       		.uleb128 0x49
 883 0051 13       		.uleb128 0x13
 884 0052 38       		.uleb128 0x38
 885 0053 0A       		.uleb128 0xa
 886 0054 00       		.byte	0
 887 0055 00       		.byte	0
 888 0056 07       		.uleb128 0x7
 889 0057 0D       		.uleb128 0xd
 890 0058 00       		.byte	0
 891 0059 03       		.uleb128 0x3
 892 005a 08       		.uleb128 0x8
 893 005b 3A       		.uleb128 0x3a
 894 005c 0B       		.uleb128 0xb
 895 005d 3B       		.uleb128 0x3b
 896 005e 0B       		.uleb128 0xb
 897 005f 49       		.uleb128 0x49
 898 0060 13       		.uleb128 0x13
 899 0061 38       		.uleb128 0x38
 900 0062 0A       		.uleb128 0xa
 901 0063 00       		.byte	0
 902 0064 00       		.byte	0
 903 0065 08       		.uleb128 0x8
 904 0066 13       		.uleb128 0x13
 905 0067 01       		.byte	0x1
 906 0068 0B       		.uleb128 0xb
 907 0069 0B       		.uleb128 0xb
 908 006a 3A       		.uleb128 0x3a
 909 006b 0B       		.uleb128 0xb
 910 006c 3B       		.uleb128 0x3b
 911 006d 0B       		.uleb128 0xb
ARM GAS  /tmp/ccemB5pS.s 			page 17


 912 006e 01       		.uleb128 0x1
 913 006f 13       		.uleb128 0x13
 914 0070 00       		.byte	0
 915 0071 00       		.byte	0
 916 0072 09       		.uleb128 0x9
 917 0073 0F       		.uleb128 0xf
 918 0074 00       		.byte	0
 919 0075 0B       		.uleb128 0xb
 920 0076 0B       		.uleb128 0xb
 921 0077 49       		.uleb128 0x49
 922 0078 13       		.uleb128 0x13
 923 0079 00       		.byte	0
 924 007a 00       		.byte	0
 925 007b 0A       		.uleb128 0xa
 926 007c 0F       		.uleb128 0xf
 927 007d 00       		.byte	0
 928 007e 0B       		.uleb128 0xb
 929 007f 0B       		.uleb128 0xb
 930 0080 00       		.byte	0
 931 0081 00       		.byte	0
 932 0082 0B       		.uleb128 0xb
 933 0083 13       		.uleb128 0x13
 934 0084 01       		.byte	0x1
 935 0085 03       		.uleb128 0x3
 936 0086 0E       		.uleb128 0xe
 937 0087 0B       		.uleb128 0xb
 938 0088 0B       		.uleb128 0xb
 939 0089 3A       		.uleb128 0x3a
 940 008a 0B       		.uleb128 0xb
 941 008b 3B       		.uleb128 0x3b
 942 008c 05       		.uleb128 0x5
 943 008d 01       		.uleb128 0x1
 944 008e 13       		.uleb128 0x13
 945 008f 00       		.byte	0
 946 0090 00       		.byte	0
 947 0091 0C       		.uleb128 0xc
 948 0092 0D       		.uleb128 0xd
 949 0093 00       		.byte	0
 950 0094 03       		.uleb128 0x3
 951 0095 08       		.uleb128 0x8
 952 0096 3A       		.uleb128 0x3a
 953 0097 0B       		.uleb128 0xb
 954 0098 3B       		.uleb128 0x3b
 955 0099 05       		.uleb128 0x5
 956 009a 49       		.uleb128 0x49
 957 009b 13       		.uleb128 0x13
 958 009c 38       		.uleb128 0x38
 959 009d 0A       		.uleb128 0xa
 960 009e 00       		.byte	0
 961 009f 00       		.byte	0
 962 00a0 0D       		.uleb128 0xd
 963 00a1 35       		.uleb128 0x35
 964 00a2 00       		.byte	0
 965 00a3 49       		.uleb128 0x49
 966 00a4 13       		.uleb128 0x13
 967 00a5 00       		.byte	0
 968 00a6 00       		.byte	0
ARM GAS  /tmp/ccemB5pS.s 			page 18


 969 00a7 0E       		.uleb128 0xe
 970 00a8 17       		.uleb128 0x17
 971 00a9 01       		.byte	0x1
 972 00aa 0B       		.uleb128 0xb
 973 00ab 0B       		.uleb128 0xb
 974 00ac 3A       		.uleb128 0x3a
 975 00ad 0B       		.uleb128 0xb
 976 00ae 3B       		.uleb128 0x3b
 977 00af 0B       		.uleb128 0xb
 978 00b0 01       		.uleb128 0x1
 979 00b1 13       		.uleb128 0x13
 980 00b2 00       		.byte	0
 981 00b3 00       		.byte	0
 982 00b4 0F       		.uleb128 0xf
 983 00b5 0D       		.uleb128 0xd
 984 00b6 00       		.byte	0
 985 00b7 03       		.uleb128 0x3
 986 00b8 0E       		.uleb128 0xe
 987 00b9 3A       		.uleb128 0x3a
 988 00ba 0B       		.uleb128 0xb
 989 00bb 3B       		.uleb128 0x3b
 990 00bc 0B       		.uleb128 0xb
 991 00bd 49       		.uleb128 0x49
 992 00be 13       		.uleb128 0x13
 993 00bf 00       		.byte	0
 994 00c0 00       		.byte	0
 995 00c1 10       		.uleb128 0x10
 996 00c2 26       		.uleb128 0x26
 997 00c3 00       		.byte	0
 998 00c4 49       		.uleb128 0x49
 999 00c5 13       		.uleb128 0x13
 1000 00c6 00       		.byte	0
 1001 00c7 00       		.byte	0
 1002 00c8 11       		.uleb128 0x11
 1003 00c9 2E       		.uleb128 0x2e
 1004 00ca 01       		.byte	0x1
 1005 00cb 3F       		.uleb128 0x3f
 1006 00cc 0C       		.uleb128 0xc
 1007 00cd 03       		.uleb128 0x3
 1008 00ce 0E       		.uleb128 0xe
 1009 00cf 3A       		.uleb128 0x3a
 1010 00d0 0B       		.uleb128 0xb
 1011 00d1 3B       		.uleb128 0x3b
 1012 00d2 0B       		.uleb128 0xb
 1013 00d3 27       		.uleb128 0x27
 1014 00d4 0C       		.uleb128 0xc
 1015 00d5 11       		.uleb128 0x11
 1016 00d6 01       		.uleb128 0x1
 1017 00d7 12       		.uleb128 0x12
 1018 00d8 01       		.uleb128 0x1
 1019 00d9 40       		.uleb128 0x40
 1020 00da 06       		.uleb128 0x6
 1021 00db 9742     		.uleb128 0x2117
 1022 00dd 0C       		.uleb128 0xc
 1023 00de 01       		.uleb128 0x1
 1024 00df 13       		.uleb128 0x13
 1025 00e0 00       		.byte	0
ARM GAS  /tmp/ccemB5pS.s 			page 19


 1026 00e1 00       		.byte	0
 1027 00e2 12       		.uleb128 0x12
 1028 00e3 05       		.uleb128 0x5
 1029 00e4 00       		.byte	0
 1030 00e5 03       		.uleb128 0x3
 1031 00e6 08       		.uleb128 0x8
 1032 00e7 3A       		.uleb128 0x3a
 1033 00e8 0B       		.uleb128 0xb
 1034 00e9 3B       		.uleb128 0x3b
 1035 00ea 0B       		.uleb128 0xb
 1036 00eb 49       		.uleb128 0x49
 1037 00ec 13       		.uleb128 0x13
 1038 00ed 02       		.uleb128 0x2
 1039 00ee 06       		.uleb128 0x6
 1040 00ef 00       		.byte	0
 1041 00f0 00       		.byte	0
 1042 00f1 13       		.uleb128 0x13
 1043 00f2 0B       		.uleb128 0xb
 1044 00f3 01       		.byte	0x1
 1045 00f4 11       		.uleb128 0x11
 1046 00f5 01       		.uleb128 0x1
 1047 00f6 12       		.uleb128 0x12
 1048 00f7 01       		.uleb128 0x1
 1049 00f8 00       		.byte	0
 1050 00f9 00       		.byte	0
 1051 00fa 14       		.uleb128 0x14
 1052 00fb 34       		.uleb128 0x34
 1053 00fc 00       		.byte	0
 1054 00fd 03       		.uleb128 0x3
 1055 00fe 0E       		.uleb128 0xe
 1056 00ff 3A       		.uleb128 0x3a
 1057 0100 0B       		.uleb128 0xb
 1058 0101 3B       		.uleb128 0x3b
 1059 0102 0B       		.uleb128 0xb
 1060 0103 49       		.uleb128 0x49
 1061 0104 13       		.uleb128 0x13
 1062 0105 02       		.uleb128 0x2
 1063 0106 0A       		.uleb128 0xa
 1064 0107 00       		.byte	0
 1065 0108 00       		.byte	0
 1066 0109 15       		.uleb128 0x15
 1067 010a 34       		.uleb128 0x34
 1068 010b 00       		.byte	0
 1069 010c 03       		.uleb128 0x3
 1070 010d 08       		.uleb128 0x8
 1071 010e 3A       		.uleb128 0x3a
 1072 010f 0B       		.uleb128 0xb
 1073 0110 3B       		.uleb128 0x3b
 1074 0111 0B       		.uleb128 0xb
 1075 0112 49       		.uleb128 0x49
 1076 0113 13       		.uleb128 0x13
 1077 0114 02       		.uleb128 0x2
 1078 0115 06       		.uleb128 0x6
 1079 0116 00       		.byte	0
 1080 0117 00       		.byte	0
 1081 0118 16       		.uleb128 0x16
 1082 0119 898201   		.uleb128 0x4109
ARM GAS  /tmp/ccemB5pS.s 			page 20


 1083 011c 01       		.byte	0x1
 1084 011d 11       		.uleb128 0x11
 1085 011e 01       		.uleb128 0x1
 1086 011f 31       		.uleb128 0x31
 1087 0120 13       		.uleb128 0x13
 1088 0121 01       		.uleb128 0x1
 1089 0122 13       		.uleb128 0x13
 1090 0123 00       		.byte	0
 1091 0124 00       		.byte	0
 1092 0125 17       		.uleb128 0x17
 1093 0126 8A8201   		.uleb128 0x410a
 1094 0129 00       		.byte	0
 1095 012a 02       		.uleb128 0x2
 1096 012b 0A       		.uleb128 0xa
 1097 012c 9142     		.uleb128 0x2111
 1098 012e 0A       		.uleb128 0xa
 1099 012f 00       		.byte	0
 1100 0130 00       		.byte	0
 1101 0131 18       		.uleb128 0x18
 1102 0132 898201   		.uleb128 0x4109
 1103 0135 01       		.byte	0x1
 1104 0136 11       		.uleb128 0x11
 1105 0137 01       		.uleb128 0x1
 1106 0138 31       		.uleb128 0x31
 1107 0139 13       		.uleb128 0x13
 1108 013a 00       		.byte	0
 1109 013b 00       		.byte	0
 1110 013c 19       		.uleb128 0x19
 1111 013d 2E       		.uleb128 0x2e
 1112 013e 01       		.byte	0x1
 1113 013f 3F       		.uleb128 0x3f
 1114 0140 0C       		.uleb128 0xc
 1115 0141 03       		.uleb128 0x3
 1116 0142 0E       		.uleb128 0xe
 1117 0143 3A       		.uleb128 0x3a
 1118 0144 0B       		.uleb128 0xb
 1119 0145 3B       		.uleb128 0x3b
 1120 0146 0B       		.uleb128 0xb
 1121 0147 27       		.uleb128 0x27
 1122 0148 0C       		.uleb128 0xc
 1123 0149 49       		.uleb128 0x49
 1124 014a 13       		.uleb128 0x13
 1125 014b 3C       		.uleb128 0x3c
 1126 014c 0C       		.uleb128 0xc
 1127 014d 01       		.uleb128 0x1
 1128 014e 13       		.uleb128 0x13
 1129 014f 00       		.byte	0
 1130 0150 00       		.byte	0
 1131 0151 1A       		.uleb128 0x1a
 1132 0152 05       		.uleb128 0x5
 1133 0153 00       		.byte	0
 1134 0154 49       		.uleb128 0x49
 1135 0155 13       		.uleb128 0x13
 1136 0156 00       		.byte	0
 1137 0157 00       		.byte	0
 1138 0158 1B       		.uleb128 0x1b
 1139 0159 2E       		.uleb128 0x2e
ARM GAS  /tmp/ccemB5pS.s 			page 21


 1140 015a 01       		.byte	0x1
 1141 015b 3F       		.uleb128 0x3f
 1142 015c 0C       		.uleb128 0xc
 1143 015d 03       		.uleb128 0x3
 1144 015e 0E       		.uleb128 0xe
 1145 015f 3A       		.uleb128 0x3a
 1146 0160 0B       		.uleb128 0xb
 1147 0161 3B       		.uleb128 0x3b
 1148 0162 0B       		.uleb128 0xb
 1149 0163 27       		.uleb128 0x27
 1150 0164 0C       		.uleb128 0xc
 1151 0165 3C       		.uleb128 0x3c
 1152 0166 0C       		.uleb128 0xc
 1153 0167 00       		.byte	0
 1154 0168 00       		.byte	0
 1155 0169 00       		.byte	0
 1156              		.section	.debug_loc,"",%progbits
 1157              	.Ldebug_loc0:
 1158              	.LLST0:
 1159 0000 00000000 		.4byte	.LFB7
 1160 0004 02000000 		.4byte	.LCFI0
 1161 0008 0200     		.2byte	0x2
 1162 000a 7D       		.byte	0x7d
 1163 000b 00       		.sleb128 0
 1164 000c 02000000 		.4byte	.LCFI0
 1165 0010 06000000 		.4byte	.LCFI1
 1166 0014 0200     		.2byte	0x2
 1167 0016 7D       		.byte	0x7d
 1168 0017 08       		.sleb128 8
 1169 0018 06000000 		.4byte	.LCFI1
 1170 001c 28000000 		.4byte	.LFE7
 1171 0020 0200     		.2byte	0x2
 1172 0022 7D       		.byte	0x7d
 1173 0023 10       		.sleb128 16
 1174 0024 00000000 		.4byte	0
 1175 0028 00000000 		.4byte	0
 1176              	.LLST1:
 1177 002c 00000000 		.4byte	.LVL0
 1178 0030 08000000 		.4byte	.LVL1
 1179 0034 0100     		.2byte	0x1
 1180 0036 50       		.byte	0x50
 1181 0037 08000000 		.4byte	.LVL1
 1182 003b 0C000000 		.4byte	.LVL2
 1183 003f 0100     		.2byte	0x1
 1184 0041 54       		.byte	0x54
 1185 0042 0C000000 		.4byte	.LVL2
 1186 0046 0E000000 		.4byte	.LVL3
 1187 004a 0100     		.2byte	0x1
 1188 004c 50       		.byte	0x50
 1189 004d 0E000000 		.4byte	.LVL3
 1190 0051 28000000 		.4byte	.LFE7
 1191 0055 0100     		.2byte	0x1
 1192 0057 54       		.byte	0x54
 1193 0058 00000000 		.4byte	0
 1194 005c 00000000 		.4byte	0
 1195              	.LLST2:
 1196 0060 14000000 		.4byte	.LVL4
ARM GAS  /tmp/ccemB5pS.s 			page 22


 1197 0064 1A000000 		.4byte	.LVL5
 1198 0068 0100     		.2byte	0x1
 1199 006a 50       		.byte	0x50
 1200 006b 00000000 		.4byte	0
 1201 006f 00000000 		.4byte	0
 1202              		.section	.debug_aranges,"",%progbits
 1203 0000 1C000000 		.4byte	0x1c
 1204 0004 0200     		.2byte	0x2
 1205 0006 00000000 		.4byte	.Ldebug_info0
 1206 000a 04       		.byte	0x4
 1207 000b 00       		.byte	0
 1208 000c 0000     		.2byte	0
 1209 000e 0000     		.2byte	0
 1210 0010 00000000 		.4byte	.LFB7
 1211 0014 28000000 		.4byte	.LFE7-.LFB7
 1212 0018 00000000 		.4byte	0
 1213 001c 00000000 		.4byte	0
 1214              		.section	.debug_ranges,"",%progbits
 1215              	.Ldebug_ranges0:
 1216 0000 00000000 		.4byte	.LFB7
 1217 0004 28000000 		.4byte	.LFE7
 1218 0008 00000000 		.4byte	0
 1219 000c 00000000 		.4byte	0
 1220              		.section	.debug_line,"",%progbits
 1221              	.Ldebug_line0:
 1222 0000 96010000 		.section	.debug_str,"MS",%progbits,1
 1222      02007701 
 1222      00000201 
 1222      FB0E0D00 
 1222      01010101 
 1223              	.LASF46:
 1224 0000 696E7463 		.ascii	"intctx\000"
 1224      747800
 1225              	.LASF38:
 1226 0007 705F6D73 		.ascii	"p_msg\000"
 1226      6700
 1227              	.LASF56:
 1228 000d 7264796D 		.ascii	"rdymsg\000"
 1228      736700
 1229              	.LASF66:
 1230 0014 64656C61 		.ascii	"delaysem\000"
 1230      7973656D 
 1230      00
 1231              	.LASF12:
 1232 001d 6C6F6E67 		.ascii	"long long unsigned int\000"
 1232      206C6F6E 
 1232      6720756E 
 1232      7369676E 
 1232      65642069 
 1233              	.LASF57:
 1234 0034 65786974 		.ascii	"exitcode\000"
 1234      636F6465 
 1234      00
 1235              	.LASF26:
 1236 003d 705F7072 		.ascii	"p_prio\000"
 1236      696F00
 1237              	.LASF65:
ARM GAS  /tmp/ccemB5pS.s 			page 23


 1238 0044 7379735F 		.ascii	"sys_sem_t\000"
 1238      73656D5F 
 1238      7400
 1239              	.LASF11:
 1240 004e 6C6F6E67 		.ascii	"long long int\000"
 1240      206C6F6E 
 1240      6720696E 
 1240      7400
 1241              	.LASF1:
 1242 005c 7369676E 		.ascii	"signed char\000"
 1242      65642063 
 1242      68617200 
 1243              	.LASF70:
 1244 0068 2E2E2F2E 		.ascii	"../../ext/lwip/src/core/sys.c\000"
 1244      2E2F6578 
 1244      742F6C77 
 1244      69702F73 
 1244      72632F63 
 1245              	.LASF42:
 1246 0086 705F6D70 		.ascii	"p_mpool\000"
 1246      6F6F6C00 
 1247              	.LASF53:
 1248 008e 6D5F7175 		.ascii	"m_queue\000"
 1248      65756500 
 1249              	.LASF17:
 1250 0096 74736C69 		.ascii	"tslices_t\000"
 1250      6365735F 
 1250      7400
 1251              	.LASF8:
 1252 00a0 6C6F6E67 		.ascii	"long int\000"
 1252      20696E74 
 1252      00
 1253              	.LASF15:
 1254 00a9 74737461 		.ascii	"tstate_t\000"
 1254      74655F74 
 1254      00
 1255              	.LASF28:
 1256 00b2 705F6E65 		.ascii	"p_newer\000"
 1256      77657200 
 1257              	.LASF50:
 1258 00ba 735F7175 		.ascii	"s_queue\000"
 1258      65756500 
 1259              	.LASF68:
 1260 00c2 7379735F 		.ascii	"sys_arch_sem_wait\000"
 1260      61726368 
 1260      5F73656D 
 1260      5F776169 
 1260      7400
 1261              	.LASF45:
 1262 00d4 72656761 		.ascii	"regarm_t\000"
 1262      726D5F74 
 1262      00
 1263              	.LASF22:
 1264 00dd 636E745F 		.ascii	"cnt_t\000"
 1264      7400
 1265              	.LASF0:
 1266 00e3 756E7369 		.ascii	"unsigned int\000"
ARM GAS  /tmp/ccemB5pS.s 			page 24


 1266      676E6564 
 1266      20696E74 
 1266      00
 1267              	.LASF72:
 1268 00f0 7379735F 		.ascii	"sys_msleep\000"
 1268      6D736C65 
 1268      657000
 1269              	.LASF10:
 1270 00fb 6C6F6E67 		.ascii	"long unsigned int\000"
 1270      20756E73 
 1270      69676E65 
 1270      6420696E 
 1270      7400
 1271              	.LASF63:
 1272 010d 7533325F 		.ascii	"u32_t\000"
 1272      7400
 1273              	.LASF51:
 1274 0113 735F636E 		.ascii	"s_cnt\000"
 1274      7400
 1275              	.LASF47:
 1276 0119 636F6E74 		.ascii	"context\000"
 1276      65787400 
 1277              	.LASF6:
 1278 0121 73686F72 		.ascii	"short unsigned int\000"
 1278      7420756E 
 1278      7369676E 
 1278      65642069 
 1278      6E7400
 1279              	.LASF19:
 1280 0134 6D73675F 		.ascii	"msg_t\000"
 1280      7400
 1281              	.LASF14:
 1282 013a 746D6F64 		.ascii	"tmode_t\000"
 1282      655F7400 
 1283              	.LASF44:
 1284 0142 54687265 		.ascii	"ThreadsList\000"
 1284      6164734C 
 1284      69737400 
 1285              	.LASF20:
 1286 014e 6576656E 		.ascii	"eventmask_t\000"
 1286      746D6173 
 1286      6B5F7400 
 1287              	.LASF52:
 1288 015a 4D757465 		.ascii	"Mutex\000"
 1288      7800
 1289              	.LASF69:
 1290 0160 474E5520 		.ascii	"GNU C 4.7.4 20130613 (release) [ARM/embedded-4_7-br"
 1290      4320342E 
 1290      372E3420 
 1290      32303133 
 1290      30363133 
 1291 0193 616E6368 		.ascii	"anch revision 200083]\000"
 1291      20726576 
 1291      6973696F 
 1291      6E203230 
 1291      30303833 
 1292              	.LASF73:
ARM GAS  /tmp/ccemB5pS.s 			page 25


 1293 01a9 7379735F 		.ascii	"sys_sem_free\000"
 1293      73656D5F 
 1293      66726565 
 1293      00
 1294              	.LASF64:
 1295 01b6 6572725F 		.ascii	"err_t\000"
 1295      7400
 1296              	.LASF61:
 1297 01bc 75385F74 		.ascii	"u8_t\000"
 1297      00
 1298              	.LASF48:
 1299 01c1 73697A65 		.ascii	"sizetype\000"
 1299      74797065 
 1299      00
 1300              	.LASF29:
 1301 01ca 705F6F6C 		.ascii	"p_older\000"
 1301      64657200 
 1302              	.LASF43:
 1303 01d2 54687265 		.ascii	"ThreadsQueue\000"
 1303      61647351 
 1303      75657565 
 1303      00
 1304              	.LASF16:
 1305 01df 74726566 		.ascii	"trefs_t\000"
 1305      735F7400 
 1306              	.LASF25:
 1307 01e7 705F7072 		.ascii	"p_prev\000"
 1307      657600
 1308              	.LASF18:
 1309 01ee 74707269 		.ascii	"tprio_t\000"
 1309      6F5F7400 
 1310              	.LASF13:
 1311 01f6 5F426F6F 		.ascii	"_Bool\000"
 1311      6C00
 1312              	.LASF7:
 1313 01fc 696E7433 		.ascii	"int32_t\000"
 1313      325F7400 
 1314              	.LASF4:
 1315 0204 756E7369 		.ascii	"unsigned char\000"
 1315      676E6564 
 1315      20636861 
 1315      7200
 1316              	.LASF40:
 1317 0212 705F6D74 		.ascii	"p_mtxlist\000"
 1317      786C6973 
 1317      7400
 1318              	.LASF5:
 1319 021c 73686F72 		.ascii	"short int\000"
 1319      7420696E 
 1319      7400
 1320              	.LASF31:
 1321 0226 705F7374 		.ascii	"p_state\000"
 1321      61746500 
 1322              	.LASF34:
 1323 022e 705F7072 		.ascii	"p_preempt\000"
 1323      65656D70 
 1323      7400
ARM GAS  /tmp/ccemB5pS.s 			page 26


 1324              	.LASF59:
 1325 0238 65776D61 		.ascii	"ewmask\000"
 1325      736B00
 1326              	.LASF24:
 1327 023f 705F6E65 		.ascii	"p_next\000"
 1327      787400
 1328              	.LASF32:
 1329 0246 705F666C 		.ascii	"p_flags\000"
 1329      61677300 
 1330              	.LASF23:
 1331 024e 54687265 		.ascii	"Thread\000"
 1331      616400
 1332              	.LASF62:
 1333 0255 73385F74 		.ascii	"s8_t\000"
 1333      00
 1334              	.LASF39:
 1335 025a 705F6570 		.ascii	"p_epending\000"
 1335      656E6469 
 1335      6E6700
 1336              	.LASF9:
 1337 0265 75696E74 		.ascii	"uint32_t\000"
 1337      33325F74 
 1337      00
 1338              	.LASF60:
 1339 026e 63686172 		.ascii	"char\000"
 1339      00
 1340              	.LASF55:
 1341 0273 6D5F6E65 		.ascii	"m_next\000"
 1341      787400
 1342              	.LASF21:
 1343 027a 73797374 		.ascii	"systime_t\000"
 1343      696D655F 
 1343      7400
 1344              	.LASF41:
 1345 0284 705F7265 		.ascii	"p_realprio\000"
 1345      616C7072 
 1345      696F00
 1346              	.LASF71:
 1347 028f 2F686F6D 		.ascii	"/home/witold/Dokumenty/arm/ChibiOS-master/demos/ARM"
 1347      652F7769 
 1347      746F6C64 
 1347      2F446F6B 
 1347      756D656E 
 1348 02c2 434D342D 		.ascii	"CM4-STM32F407-LWIP\000"
 1348      53544D33 
 1348      32463430 
 1348      372D4C57 
 1348      495000
 1349              	.LASF35:
 1350 02d5 705F7469 		.ascii	"p_time\000"
 1350      6D6500
 1351              	.LASF2:
 1352 02dc 696E7438 		.ascii	"int8_t\000"
 1352      5F7400
 1353              	.LASF37:
 1354 02e3 705F6D73 		.ascii	"p_msgqueue\000"
 1354      67717565 
ARM GAS  /tmp/ccemB5pS.s 			page 27


 1354      756500
 1355              	.LASF49:
 1356 02ee 53656D61 		.ascii	"Semaphore\000"
 1356      70686F72 
 1356      6500
 1357              	.LASF67:
 1358 02f8 7379735F 		.ascii	"sys_sem_new\000"
 1358      73656D5F 
 1358      6E657700 
 1359              	.LASF33:
 1360 0304 705F7265 		.ascii	"p_refs\000"
 1360      667300
 1361              	.LASF3:
 1362 030b 75696E74 		.ascii	"uint8_t\000"
 1362      385F7400 
 1363              	.LASF58:
 1364 0313 77746F62 		.ascii	"wtobjp\000"
 1364      6A7000
 1365              	.LASF30:
 1366 031a 705F6E61 		.ascii	"p_name\000"
 1366      6D6500
 1367              	.LASF54:
 1368 0321 6D5F6F77 		.ascii	"m_owner\000"
 1368      6E657200 
 1369              	.LASF27:
 1370 0329 705F6374 		.ascii	"p_ctx\000"
 1370      7800
 1371              	.LASF36:
 1372 032f 705F7761 		.ascii	"p_waiting\000"
 1372      6974696E 
 1372      6700
 1373              		.ident	"GCC: (GNU Tools for ARM Embedded Processors) 4.7.4 20130613 (release) [ARM/embedded-4_7-br
ARM GAS  /tmp/ccemB5pS.s 			page 28


DEFINED SYMBOLS
                            *ABS*:00000000 sys.c
     /tmp/ccemB5pS.s:19     .text.sys_msleep:00000000 $t
     /tmp/ccemB5pS.s:25     .text.sys_msleep:00000000 sys_msleep
                     .debug_frame:00000010 $d

UNDEFINED SYMBOLS
sys_sem_new
sys_arch_sem_wait
sys_sem_free
