ARM GAS  /tmp/cc2uzJbB.s 			page 1


   1              		.syntax unified
   2              		.cpu cortex-m4
   3              		.fpu softvfp
   4              		.eabi_attribute 20, 1
   5              		.eabi_attribute 21, 1
   6              		.eabi_attribute 23, 3
   7              		.eabi_attribute 24, 1
   8              		.eabi_attribute 25, 1
   9              		.eabi_attribute 26, 1
  10              		.eabi_attribute 30, 2
  11              		.eabi_attribute 34, 1
  12              		.eabi_attribute 18, 4
  13              		.thumb
  14              		.file	"udp.c"
  15              		.text
  16              	.Ltext0:
  17              		.cfi_sections	.debug_frame
  18              		.section	.text.udp_init,"ax",%progbits
  19              		.align	2
  20              		.p2align 4,,15
  21              		.global	udp_init
  22              		.thumb
  23              		.thumb_func
  24              		.type	udp_init, %function
  25              	udp_init:
  26              	.LFB7:
  27              		.file 1 "../../ext/lwip/src/core/udp.c"
  28              		.loc 1 87 0
  29              		.cfi_startproc
  30              		@ args = 0, pretend = 0, frame = 0
  31              		@ frame_needed = 0, uses_anonymous_args = 0
  32              		@ link register save eliminated.
  33 0000 7047     		bx	lr
  34              		.cfi_endproc
  35              	.LFE7:
  36              		.size	udp_init, .-udp_init
  37 0002 00BFAFF3 		.section	.text.udp_input,"ax",%progbits
  37      0080AFF3 
  37      0080AFF3 
  37      0080
  38              		.align	2
  39              		.p2align 4,,15
  40              		.global	udp_input
  41              		.thumb
  42              		.thumb_func
  43              		.type	udp_input, %function
  44              	udp_input:
  45              	.LFB9:
  46              		.loc 1 152 0
  47              		.cfi_startproc
  48              		@ args = 0, pretend = 0, frame = 16
  49              		@ frame_needed = 0, uses_anonymous_args = 0
  50              	.LVL0:
  51              		.loc 1 152 0
  52 0000 2DE9F04F 		push	{r4, r5, r6, r7, r8, r9, sl, fp, lr}
  53              	.LCFI0:
  54              		.cfi_def_cfa_offset 36
ARM GAS  /tmp/cc2uzJbB.s 			page 2


  55              		.cfi_offset 4, -36
  56              		.cfi_offset 5, -32
  57              		.cfi_offset 6, -28
  58              		.cfi_offset 7, -24
  59              		.cfi_offset 8, -20
  60              		.cfi_offset 9, -16
  61              		.cfi_offset 10, -12
  62              		.cfi_offset 11, -8
  63              		.cfi_offset 14, -4
  64              		.loc 1 163 0
  65 0004 8D4E     		ldr	r6, .L67
  66              		.loc 1 165 0
  67 0006 D0F80490 		ldr	r9, [r0, #4]
  68              	.LVL1:
  69              		.loc 1 163 0
  70 000a B6F87A30 		ldrh	r3, [r6, #122]
  71              		.loc 1 169 0
  72 000e 0289     		ldrh	r2, [r0, #8]
  73              		.loc 1 163 0
  74 0010 5C1C     		adds	r4, r3, #1
  75 0012 A6F87A40 		strh	r4, [r6, #122]	@ movhi
  76              		.loc 1 169 0
  77 0016 99F80030 		ldrb	r3, [r9, #0]	@ zero_extendqisi2
  78 001a 03F00F03 		and	r3, r3, #15
  79 001e 9C1C     		adds	r4, r3, #2
  80 0020 B2EB840F 		cmp	r2, r4, lsl #2
  81              		.loc 1 152 0
  82 0024 87B0     		sub	sp, sp, #28
  83              	.LCFI1:
  84              		.cfi_def_cfa_offset 64
  85              		.loc 1 152 0
  86 0026 0746     		mov	r7, r0
  87 0028 8B46     		mov	fp, r1
  88              		.loc 1 169 0
  89 002a 05DB     		blt	.L4
  90              		.loc 1 169 0 is_stmt 0 discriminator 1
  91 002c 9900     		lsls	r1, r3, #2
  92              	.LVL2:
  93 002e 4942     		negs	r1, r1
  94 0030 FFF7FEFF 		bl	pbuf_header
  95              	.LVL3:
  96 0034 0446     		mov	r4, r0
  97 0036 78B1     		cbz	r0, .L59
  98              	.L4:
  99              		.loc 1 173 0 is_stmt 1
 100 0038 B6F88200 		ldrh	r0, [r6, #130]
 101              		.loc 1 174 0
 102 003c B6F87E30 		ldrh	r3, [r6, #126]
 103              		.loc 1 173 0
 104 0040 421C     		adds	r2, r0, #1
 105              		.loc 1 174 0
 106 0042 591C     		adds	r1, r3, #1
 107              		.loc 1 176 0
 108 0044 3846     		mov	r0, r7
 109              		.loc 1 173 0
 110 0046 A6F88220 		strh	r2, [r6, #130]	@ movhi
 111              		.loc 1 174 0
ARM GAS  /tmp/cc2uzJbB.s 			page 3


 112 004a A6F87E10 		strh	r1, [r6, #126]	@ movhi
 113              		.loc 1 433 0
 114 004e 07B0     		add	sp, sp, #28
 115 0050 BDE8F04F 		pop	{r4, r5, r6, r7, r8, r9, sl, fp, lr}
 116              		.loc 1 176 0
 117 0054 FFF7FEBF 		b	pbuf_free
 118              	.LVL4:
 119              	.L59:
 120              		.loc 1 183 0
 121 0058 40F20005 		movw	r5, #:lower16:current_iphdr_dest
 122              		.loc 1 180 0
 123 005c 7868     		ldr	r0, [r7, #4]
 124              		.loc 1 183 0
 125 005e C0F20005 		movt	r5, #:upper16:current_iphdr_dest
 126 0062 5946     		mov	r1, fp
 127              		.loc 1 180 0
 128 0064 0490     		str	r0, [sp, #16]
 129              	.LVL5:
 130              		.loc 1 183 0
 131 0066 2868     		ldr	r0, [r5, #0]
 132              	.LVL6:
 133 0068 FFF7FEFF 		bl	ip4_addr_isbroadcast
 134              	.LVL7:
 135              		.loc 1 188 0
 136 006c DDF810C0 		ldr	ip, [sp, #16]
 137              		.loc 1 183 0
 138 0070 8046     		mov	r8, r0
 139              	.LVL8:
 140              		.loc 1 188 0
 141 0072 BCF80000 		ldrh	r0, [ip, #0]	@ unaligned
 142              	.LVL9:
 143 0076 FFF7FEFF 		bl	lwip_ntohs
 144              	.LVL10:
 145              		.loc 1 189 0
 146 007a 049A     		ldr	r2, [sp, #16]
 147              		.loc 1 188 0
 148 007c 8246     		mov	sl, r0
 149              	.LVL11:
 150              		.loc 1 189 0
 151 007e 5088     		ldrh	r0, [r2, #2]	@ unaligned
 152              	.LVL12:
 153 0080 FFF7FEFF 		bl	lwip_ntohs
 154              	.LVL13:
 155              		.loc 1 229 0
 156 0084 40F20003 		movw	r3, #:lower16:.LANCHOR0
 157 0088 C0F20003 		movt	r3, #:upper16:.LANCHOR0
 158              		.loc 1 189 0
 159 008c 0546     		mov	r5, r0
 160              	.LVL14:
 161              		.loc 1 229 0
 162 008e 1968     		ldr	r1, [r3, #0]
 163 0090 0591     		str	r1, [sp, #20]
 164              	.LVL15:
 165 0092 0029     		cmp	r1, #0
 166 0094 73D0     		beq	.L5
 167              		.loc 1 244 0
 168 0096 40F20000 		movw	r0, #:lower16:current_iphdr_dest
ARM GAS  /tmp/cc2uzJbB.s 			page 4


 169              	.LVL16:
 170 009a C0F20000 		movt	r0, #:upper16:current_iphdr_dest
 171              		.loc 1 269 0
 172 009e 684A     		ldr	r2, .L67+4
 173              		.loc 1 244 0
 174 00a0 D0F800E0 		ldr	lr, [r0, #0]
 175              		.loc 1 269 0
 176 00a4 1168     		ldr	r1, [r2, #0]
 177              	.LVL17:
 178 00a6 0297     		str	r7, [sp, #8]
 179              		.loc 1 224 0
 180 00a8 2246     		mov	r2, r4
 181 00aa 4046     		mov	r0, r8
 182              		.loc 1 269 0
 183 00ac 059C     		ldr	r4, [sp, #20]
 184              		.loc 1 222 0
 185 00ae 1346     		mov	r3, r2
 186 00b0 F046     		mov	r8, lr
 187              	.LVL18:
 188 00b2 04E0     		b	.L16
 189              	.LVL19:
 190              	.L6:
 191              		.loc 1 229 0
 192 00b4 E768     		ldr	r7, [r4, #12]
 193              	.LVL20:
 194 00b6 2346     		mov	r3, r4
 195 00b8 002F     		cmp	r7, #0
 196 00ba 5CD0     		beq	.L60
 197              	.LVL21:
 198 00bc 3C46     		mov	r4, r7
 199              	.LVL22:
 200              	.L16:
 201              		.loc 1 241 0
 202 00be 678A     		ldrh	r7, [r4, #18]
 203 00c0 AF42     		cmp	r7, r5
 204 00c2 F7D1     		bne	.L6
 205              		.loc 1 242 0
 206 00c4 0028     		cmp	r0, #0
 207 00c6 48D0     		beq	.L61
 208              		.loc 1 244 0
 209 00c8 D4F800C0 		ldr	ip, [r4, #0]
 210              		.loc 1 243 0
 211 00cc C445     		cmp	ip, r8
 212 00ce 09D0     		beq	.L8
 213              		.loc 1 254 0
 214 00d0 BCF1000F 		cmp	ip, #0
 215 00d4 06D0     		beq	.L8
 216              		.loc 1 254 0 is_stmt 0 discriminator 1
 217 00d6 DBF80870 		ldr	r7, [fp, #8]
 218              		.loc 1 255 0 is_stmt 1 discriminator 1
 219 00da 8CEA080E 		eor	lr, ip, r8
 220              		.loc 1 254 0 discriminator 1
 221 00de 1EEA070F 		tst	lr, r7
 222 00e2 E7D1     		bne	.L6
 223              	.L8:
 224              	.LVL23:
 225              		.loc 1 258 0
ARM GAS  /tmp/cc2uzJbB.s 			page 5


 226 00e4 002A     		cmp	r2, #0
 227 00e6 3ED0     		beq	.L62
 228              	.L10:
 229              	.LVL24:
 230              		.loc 1 266 0
 231 00e8 A78A     		ldrh	r7, [r4, #20]
 232 00ea 5745     		cmp	r7, sl
 233 00ec E2D1     		bne	.L6
 234              		.loc 1 268 0
 235 00ee 6768     		ldr	r7, [r4, #4]
 236 00f0 0FB1     		cbz	r7, .L57
 237              		.loc 1 268 0 is_stmt 0 discriminator 1
 238 00f2 8F42     		cmp	r7, r1
 239 00f4 DED1     		bne	.L6
 240              	.L57:
 241 00f6 8046     		mov	r8, r0
 242 00f8 029F     		ldr	r7, [sp, #8]
 243              		.loc 1 271 0 is_stmt 1
 244 00fa 002B     		cmp	r3, #0
 245 00fc 00F0A480 		beq	.L63
 246              		.loc 1 276 0
 247 0100 40F2000E 		movw	lr, #:lower16:.LANCHOR0
 248              		.loc 1 274 0
 249 0104 E068     		ldr	r0, [r4, #12]
 250              	.LVL25:
 251              		.loc 1 275 0
 252 0106 0599     		ldr	r1, [sp, #20]
 253              		.loc 1 274 0
 254 0108 D860     		str	r0, [r3, #12]
 255              		.loc 1 276 0
 256 010a C0F2000E 		movt	lr, #:upper16:.LANCHOR0
 257              		.loc 1 275 0
 258 010e E160     		str	r1, [r4, #12]
 259              		.loc 1 276 0
 260 0110 CEF80040 		str	r4, [lr, #0]
 261              	.LVL26:
 262              	.L26:
 263              		.loc 1 328 0
 264 0114 049A     		ldr	r2, [sp, #16]
 265 0116 D388     		ldrh	r3, [r2, #6]	@ unaligned
 266 0118 4BB1     		cbz	r3, .L19
 267              		.loc 1 329 0
 268 011a 3889     		ldrh	r0, [r7, #8]
 269 011c 4849     		ldr	r1, .L67+4
 270 011e 0090     		str	r0, [sp, #0]
 271 0120 484A     		ldr	r2, .L67+8
 272 0122 3846     		mov	r0, r7
 273 0124 1123     		movs	r3, #17
 274 0126 FFF7FEFF 		bl	inet_chksum_pseudo
 275              	.LVL27:
 276 012a 0028     		cmp	r0, #0
 277 012c 75D1     		bne	.L64
 278              	.L19:
 279              		.loc 1 342 0
 280 012e 3846     		mov	r0, r7
 281 0130 6FF00701 		mvn	r1, #7
 282 0134 FFF7FEFF 		bl	pbuf_header
ARM GAS  /tmp/cc2uzJbB.s 			page 6


 283              	.LVL28:
 284 0138 0028     		cmp	r0, #0
 285 013a 32D1     		bne	.L65
 286              		.loc 1 350 0
 287 013c 002C     		cmp	r4, #0
 288 013e 3DD0     		beq	.L21
 289              		.loc 1 401 0
 290 0140 A569     		ldr	r5, [r4, #24]
 291              	.LVL29:
 292 0142 002D     		cmp	r5, #0
 293 0144 25D0     		beq	.L18
 294              	.L22:
 295              		.loc 1 403 0
 296 0146 E069     		ldr	r0, [r4, #28]
 297 0148 3D4B     		ldr	r3, .L67+4
 298 014a CDF800A0 		str	sl, [sp, #0]
 299 014e 2146     		mov	r1, r4
 300 0150 3A46     		mov	r2, r7
 301 0152 A847     		blx	r5
 302              	.LVL30:
 303              		.loc 1 433 0
 304 0154 07B0     		add	sp, sp, #28
 305 0156 BDE8F08F 		pop	{r4, r5, r6, r7, r8, r9, sl, fp, pc}
 306              	.LVL31:
 307              	.L61:
 308              		.loc 1 243 0
 309 015a 2768     		ldr	r7, [r4, #0]
 310 015c 002F     		cmp	r7, #0
 311 015e C1D0     		beq	.L8
 312 0160 4745     		cmp	r7, r8
 313 0162 A7D1     		bne	.L6
 314 0164 BEE7     		b	.L8
 315              	.LVL32:
 316              	.L62:
 317              		.loc 1 259 0 discriminator 1
 318 0166 277C     		ldrb	r7, [r4, #16]	@ zero_extendqisi2
 319              		.loc 1 258 0 discriminator 1
 320 0168 07F00407 		and	r7, r7, #4
 321 016c FFB2     		uxtb	r7, r7
 322 016e 002F     		cmp	r7, #0
 323 0170 08BF     		it	eq
 324 0172 2246     		moveq	r2, r4
 325 0174 B8E7     		b	.L10
 326              	.LVL33:
 327              	.L60:
 328 0176 8046     		mov	r8, r0
 329 0178 029F     		ldr	r7, [sp, #8]
 330              		.loc 1 291 0
 331 017a 002A     		cmp	r2, #0
 332 017c 6AD1     		bne	.L31
 333              	.LVL34:
 334              	.L5:
 335              		.loc 1 291 0 is_stmt 0 discriminator 1
 336 017e 40F2000C 		movw	ip, #:lower16:current_iphdr_dest
 337 0182 C0F2000C 		movt	ip, #:upper16:current_iphdr_dest
 338 0186 DBF80400 		ldr	r0, [fp, #4]
 339 018a DCF80010 		ldr	r1, [ip, #0]
ARM GAS  /tmp/cc2uzJbB.s 			page 7


 340 018e 8842     		cmp	r0, r1
 341 0190 05D0     		beq	.L66
 342              	.LVL35:
 343              	.L18:
 344              		.loc 1 406 0 is_stmt 1
 345 0192 3846     		mov	r0, r7
 346              		.loc 1 433 0
 347 0194 07B0     		add	sp, sp, #28
 348 0196 BDE8F04F 		pop	{r4, r5, r6, r7, r8, r9, sl, fp, lr}
 349              		.loc 1 406 0
 350 019a FFF7FEBF 		b	pbuf_free
 351              	.LVL36:
 352              	.L66:
 353              		.loc 1 291 0
 354 019e 0024     		movs	r4, #0
 355 01a0 B8E7     		b	.L26
 356              	.L65:
 357              		.loc 1 344 0 discriminator 1
 358 01a2 FFF7FEFF 		bl	port_halt
 359              	.LVL37:
 360              		.loc 1 345 0 discriminator 1
 361 01a6 B6F87E30 		ldrh	r3, [r6, #126]
 362              		.loc 1 347 0 discriminator 1
 363 01aa 3846     		mov	r0, r7
 364              		.loc 1 345 0 discriminator 1
 365 01ac 591C     		adds	r1, r3, #1
 366 01ae A6F87E10 		strh	r1, [r6, #126]	@ movhi
 367              		.loc 1 433 0 discriminator 1
 368 01b2 07B0     		add	sp, sp, #28
 369 01b4 BDE8F04F 		pop	{r4, r5, r6, r7, r8, r9, sl, fp, lr}
 370              		.loc 1 347 0 discriminator 1
 371 01b8 FFF7FEBF 		b	pbuf_free
 372              	.LVL38:
 373              	.L21:
 374              		.loc 1 415 0
 375 01bc B8F1000F 		cmp	r8, #0
 376 01c0 1BD1     		bne	.L23
 377              		.loc 1 416 0 discriminator 1
 378 01c2 40F2000C 		movw	ip, #:lower16:current_iphdr_dest
 379 01c6 C0F2000C 		movt	ip, #:upper16:current_iphdr_dest
 380 01ca DCF80010 		ldr	r1, [ip, #0]
 381 01ce 01F0F002 		and	r2, r1, #240
 382              		.loc 1 415 0 discriminator 1
 383 01d2 E02A     		cmp	r2, #224
 384 01d4 11D0     		beq	.L23
 385              		.loc 1 418 0
 386 01d6 99F80030 		ldrb	r3, [r9, #0]	@ zero_extendqisi2
 387 01da 03F00F00 		and	r0, r3, #15
 388 01de 811C     		adds	r1, r0, #2
 389 01e0 8900     		lsls	r1, r1, #2
 390 01e2 3846     		mov	r0, r7
 391 01e4 FFF7FEFF 		bl	pbuf_header
 392              	.LVL39:
 393              		.loc 1 419 0
 394 01e8 7A68     		ldr	r2, [r7, #4]
 395 01ea 4A45     		cmp	r2, r9
 396 01ec 01D0     		beq	.L24
ARM GAS  /tmp/cc2uzJbB.s 			page 8


 397              		.loc 1 419 0 is_stmt 0 discriminator 1
 398 01ee FFF7FEFF 		bl	port_halt
 399              	.LVL40:
 400              	.L24:
 401              		.loc 1 420 0 is_stmt 1
 402 01f2 3846     		mov	r0, r7
 403 01f4 0321     		movs	r1, #3
 404 01f6 FFF7FEFF 		bl	icmp_dest_unreach
 405              	.LVL41:
 406              	.L23:
 407              		.loc 1 423 0
 408 01fa B6F88800 		ldrh	r0, [r6, #136]
 409              		.loc 1 424 0
 410 01fe B6F87E30 		ldrh	r3, [r6, #126]
 411              		.loc 1 423 0
 412 0202 411C     		adds	r1, r0, #1
 413              		.loc 1 424 0
 414 0204 5A1C     		adds	r2, r3, #1
 415              		.loc 1 426 0
 416 0206 3846     		mov	r0, r7
 417              		.loc 1 423 0
 418 0208 A6F88810 		strh	r1, [r6, #136]	@ movhi
 419              		.loc 1 424 0
 420 020c A6F87E20 		strh	r2, [r6, #126]	@ movhi
 421              		.loc 1 433 0
 422 0210 07B0     		add	sp, sp, #28
 423 0212 BDE8F04F 		pop	{r4, r5, r6, r7, r8, r9, sl, fp, lr}
 424              		.loc 1 426 0
 425 0216 FFF7FEBF 		b	pbuf_free
 426              	.LVL42:
 427              	.L64:
 428              		.loc 1 333 0
 429 021a B6F88000 		ldrh	r0, [r6, #128]
 430              		.loc 1 334 0
 431 021e B6F87E30 		ldrh	r3, [r6, #126]
 432              		.loc 1 333 0
 433 0222 421C     		adds	r2, r0, #1
 434              		.loc 1 334 0
 435 0224 591C     		adds	r1, r3, #1
 436              		.loc 1 336 0
 437 0226 3846     		mov	r0, r7
 438              		.loc 1 333 0
 439 0228 A6F88020 		strh	r2, [r6, #128]	@ movhi
 440              		.loc 1 334 0
 441 022c A6F87E10 		strh	r1, [r6, #126]	@ movhi
 442              		.loc 1 433 0
 443 0230 07B0     		add	sp, sp, #28
 444 0232 BDE8F04F 		pop	{r4, r5, r6, r7, r8, r9, sl, fp, lr}
 445              		.loc 1 336 0
 446 0236 FFF7FEBF 		b	pbuf_free
 447              	.LVL43:
 448              	.L68:
 449 023a 00BF     		.align	2
 450              	.L67:
 451 023c 00000000 		.word	lwip_stats
 452 0240 00000000 		.word	current_iphdr_src
 453 0244 00000000 		.word	current_iphdr_dest
ARM GAS  /tmp/cc2uzJbB.s 			page 9


 454              	.LVL44:
 455              	.L63:
 456              		.loc 1 278 0
 457 0248 B6F88E20 		ldrh	r2, [r6, #142]
 458              	.LVL45:
 459 024c 531C     		adds	r3, r2, #1
 460 024e A6F88E30 		strh	r3, [r6, #142]	@ movhi
 461              	.LVL46:
 462 0252 5FE7     		b	.L26
 463              	.LVL47:
 464              	.L31:
 465              		.loc 1 291 0
 466 0254 1446     		mov	r4, r2
 467 0256 5DE7     		b	.L26
 468              		.cfi_endproc
 469              	.LFE9:
 470              		.size	udp_input, .-udp_input
 471 0258 AFF30080 		.section	.text.udp_bind,"ax",%progbits
 471      AFF30080 
 472              		.align	2
 473              		.p2align 4,,15
 474              		.global	udp_bind
 475              		.thumb
 476              		.thumb_func
 477              		.type	udp_bind, %function
 478              	udp_bind:
 479              	.LFB13:
 480              		.loc 1 767 0
 481              		.cfi_startproc
 482              		@ args = 0, pretend = 0, frame = 0
 483              		@ frame_needed = 0, uses_anonymous_args = 0
 484              	.LVL48:
 485 0000 2DE9F041 		push	{r4, r5, r6, r7, r8, lr}
 486              	.LCFI2:
 487              		.cfi_def_cfa_offset 24
 488              		.cfi_offset 4, -24
 489              		.cfi_offset 5, -20
 490              		.cfi_offset 6, -16
 491              		.cfi_offset 7, -12
 492              		.cfi_offset 8, -8
 493              		.cfi_offset 14, -4
 494              		.loc 1 777 0
 495 0004 DFF8C080 		ldr	r8, .L107+4
 496 0008 D8F80040 		ldr	r4, [r8, #0]
 497              	.LVL49:
 498              		.loc 1 767 0
 499 000c 0546     		mov	r5, r0
 500 000e 0F46     		mov	r7, r1
 501 0010 1646     		mov	r6, r2
 502              		.loc 1 777 0
 503 0012 002C     		cmp	r4, #0
 504 0014 53D0     		beq	.L87
 505 0016 0021     		movs	r1, #0
 506              	.LVL50:
 507 0018 01E0     		b	.L76
 508              	.LVL51:
 509              	.L72:
ARM GAS  /tmp/cc2uzJbB.s 			page 10


 510 001a E468     		ldr	r4, [r4, #12]
 511              	.LVL52:
 512 001c A4B1     		cbz	r4, .L70
 513              	.LVL53:
 514              	.L76:
 515              		.loc 1 779 0
 516 001e A542     		cmp	r5, r4
 517 0020 0DD0     		beq	.L104
 518              		.loc 1 796 0
 519 0022 638A     		ldrh	r3, [r4, #18]
 520 0024 B342     		cmp	r3, r6
 521 0026 F8D1     		bne	.L72
 522              		.loc 1 798 0 discriminator 1
 523 0028 2068     		ldr	r0, [r4, #0]
 524 002a 20B1     		cbz	r0, .L75
 525 002c 1FB1     		cbz	r7, .L75
 526              		.loc 1 799 0
 527 002e 3A68     		ldr	r2, [r7, #0]
 528 0030 0AB1     		cbz	r2, .L75
 529              		.loc 1 799 0 is_stmt 0 discriminator 1
 530 0032 9042     		cmp	r0, r2
 531 0034 F1D1     		bne	.L72
 532              	.LVL54:
 533              	.L75:
 534              	.LBB4:
 535              	.LBB5:
 536              		.loc 1 804 0 is_stmt 1
 537 0036 F821     		movs	r1, #248
 538              	.LBE5:
 539              	.LBE4:
 540              		.loc 1 834 0
 541 0038 48B2     		sxtb	r0, r1
 542 003a BDE8F081 		pop	{r4, r5, r6, r7, r8, pc}
 543              	.LVL55:
 544              	.L104:
 545              		.loc 1 781 0
 546 003e 89B9     		cbnz	r1, .L105
 547              		.loc 1 777 0
 548 0040 E468     		ldr	r4, [r4, #12]
 549              	.LVL56:
 550              		.loc 1 783 0
 551 0042 0121     		movs	r1, #1
 552              	.LVL57:
 553              		.loc 1 777 0
 554 0044 002C     		cmp	r4, #0
 555 0046 EAD1     		bne	.L76
 556              	.LVL58:
 557              	.L70:
 558              		.loc 1 809 0
 559 0048 07B1     		cbz	r7, .L77
 560              		.loc 1 809 0 is_stmt 0 discriminator 1
 561 004a 3F68     		ldr	r7, [r7, #0]
 562              	.LVL59:
 563              	.L77:
 564              		.loc 1 809 0 discriminator 3
 565 004c 2F60     		str	r7, [r5, #0]
 566              		.loc 1 812 0 is_stmt 1 discriminator 3
ARM GAS  /tmp/cc2uzJbB.s 			page 11


 567 004e 8EB1     		cbz	r6, .L106
 568              	.LVL60:
 569              	.L78:
 570              		.loc 1 820 0
 571 0050 6E82     		strh	r6, [r5, #18]	@ movhi
 572              		.loc 1 823 0
 573 0052 59B9     		cbnz	r1, .L91
 574              		.loc 1 825 0
 575 0054 D8F80000 		ldr	r0, [r8, #0]
 576              		.loc 1 826 0
 577 0058 C8F80050 		str	r5, [r8, #0]
 578              		.loc 1 825 0
 579 005c E860     		str	r0, [r5, #12]
 580              		.loc 1 834 0
 581 005e 48B2     		sxtb	r0, r1
 582 0060 BDE8F081 		pop	{r4, r5, r6, r7, r8, pc}
 583              	.LVL61:
 584              	.L105:
 585              		.loc 1 781 0 discriminator 1
 586 0064 FFF7FEFF 		bl	port_halt
 587              	.LVL62:
 588              		.loc 1 783 0 discriminator 1
 589 0068 0121     		movs	r1, #1
 590 006a D6E7     		b	.L72
 591              	.LVL63:
 592              	.L91:
 593              		.loc 1 833 0
 594 006c 0021     		movs	r1, #0
 595              		.loc 1 834 0
 596 006e 48B2     		sxtb	r0, r1
 597 0070 BDE8F081 		pop	{r4, r5, r6, r7, r8, pc}
 598              	.LVL64:
 599              	.L106:
 600 0074 134F     		ldr	r7, .L107
 601 0076 D8F80000 		ldr	r0, [r8, #0]
 602 007a 3E88     		ldrh	r6, [r7, #0]
 603              		.loc 1 812 0
 604 007c 4FF48044 		mov	r4, #16384
 605              	.LVL65:
 606              	.LBB8:
 607              	.LBB6:
 608              		.loc 1 105 0
 609 0080 4FF6FF7C 		movw	ip, #65535
 610              	.L85:
 611 0084 731C     		adds	r3, r6, #1
 612 0086 9AB2     		uxth	r2, r3
 613 0088 6645     		cmp	r6, ip
 614 008a 14BF     		ite	ne
 615 008c 1646     		movne	r6, r2
 616 008e 4FF44046 		moveq	r6, #49152
 617              	.LVL66:
 618              		.loc 1 109 0
 619 0092 50B1     		cbz	r0, .L103
 620              		.loc 1 110 0
 621 0094 438A     		ldrh	r3, [r0, #18]
 622 0096 B342     		cmp	r3, r6
 623 0098 0BD0     		beq	.L82
ARM GAS  /tmp/cc2uzJbB.s 			page 12


 624 009a 0346     		mov	r3, r0
 625 009c 02E0     		b	.L84
 626              	.LVL67:
 627              	.L86:
 628 009e 5A8A     		ldrh	r2, [r3, #18]
 629 00a0 B242     		cmp	r2, r6
 630 00a2 06D0     		beq	.L82
 631              	.L84:
 632              		.loc 1 109 0
 633 00a4 DB68     		ldr	r3, [r3, #12]
 634              	.LVL68:
 635 00a6 002B     		cmp	r3, #0
 636 00a8 F9D1     		bne	.L86
 637              	.LVL69:
 638              	.L103:
 639 00aa 3E80     		strh	r6, [r7, #0]	@ movhi
 640              	.LBE6:
 641              	.LBE8:
 642              		.loc 1 814 0
 643 00ac 002E     		cmp	r6, #0
 644 00ae CFD1     		bne	.L78
 645 00b0 C1E7     		b	.L75
 646              	.LVL70:
 647              	.L82:
 648 00b2 013C     		subs	r4, r4, #1
 649 00b4 A4B2     		uxth	r4, r4
 650              	.LBB9:
 651              	.LBB7:
 652              		.loc 1 111 0
 653 00b6 002C     		cmp	r4, #0
 654 00b8 E4D1     		bne	.L85
 655 00ba 3E80     		strh	r6, [r7, #0]	@ movhi
 656 00bc BBE7     		b	.L75
 657              	.LVL71:
 658              	.L87:
 659              	.LBE7:
 660              	.LBE9:
 661              		.loc 1 775 0
 662 00be 2146     		mov	r1, r4
 663              	.LVL72:
 664 00c0 C2E7     		b	.L70
 665              	.L108:
 666 00c2 00BF     		.align	2
 667              	.L107:
 668 00c4 00000000 		.word	.LANCHOR1
 669 00c8 00000000 		.word	.LANCHOR0
 670              		.cfi_endproc
 671              	.LFE13:
 672              		.size	udp_bind, .-udp_bind
 673 00cc AFF30080 		.section	.text.udp_sendto_if,"ax",%progbits
 674              		.align	2
 675              		.p2align 4,,15
 676              		.global	udp_sendto_if
 677              		.thumb
 678              		.thumb_func
 679              		.type	udp_sendto_if, %function
 680              	udp_sendto_if:
ARM GAS  /tmp/cc2uzJbB.s 			page 13


 681              	.LFB12:
 682              		.loc 1 551 0
 683              		.cfi_startproc
 684              		@ args = 4, pretend = 0, frame = 0
 685              		@ frame_needed = 0, uses_anonymous_args = 0
 686              	.LVL73:
 687 0000 2DE9F047 		push	{r4, r5, r6, r7, r8, r9, sl, lr}
 688              	.LCFI3:
 689              		.cfi_def_cfa_offset 32
 690              		.cfi_offset 4, -32
 691              		.cfi_offset 5, -28
 692              		.cfi_offset 6, -24
 693              		.cfi_offset 7, -20
 694              		.cfi_offset 8, -16
 695              		.cfi_offset 9, -12
 696              		.cfi_offset 10, -8
 697              		.cfi_offset 14, -4
 698              		.loc 1 578 0
 699 0004 458A     		ldrh	r5, [r0, #18]
 700              		.loc 1 551 0
 701 0006 84B0     		sub	sp, sp, #16
 702              	.LCFI4:
 703              		.cfi_def_cfa_offset 48
 704              		.loc 1 551 0
 705 0008 0446     		mov	r4, r0
 706 000a 0F46     		mov	r7, r1
 707 000c DDF83080 		ldr	r8, [sp, #48]
 708 0010 9246     		mov	sl, r2
 709 0012 9946     		mov	r9, r3
 710              		.loc 1 578 0
 711 0014 35B9     		cbnz	r5, .L114
 712              		.loc 1 580 0
 713 0016 0146     		mov	r1, r0
 714              	.LVL74:
 715 0018 2A46     		mov	r2, r5
 716              	.LVL75:
 717 001a FFF7FEFF 		bl	udp_bind
 718              	.LVL76:
 719              		.loc 1 581 0
 720 001e 0646     		mov	r6, r0
 721 0020 0028     		cmp	r0, #0
 722 0022 39D1     		bne	.L113
 723              	.LVL77:
 724              	.L114:
 725              		.loc 1 588 0
 726 0024 3846     		mov	r0, r7
 727 0026 0821     		movs	r1, #8
 728 0028 FFF7FEFF 		bl	pbuf_header
 729              	.LVL78:
 730 002c 0028     		cmp	r0, #0
 731 002e 42D1     		bne	.L111
 732 0030 3D46     		mov	r5, r7
 733              	.L112:
 734              	.LVL79:
 735              		.loc 1 609 0
 736 0032 6889     		ldrh	r0, [r5, #10]
 737 0034 0728     		cmp	r0, #7
ARM GAS  /tmp/cc2uzJbB.s 			page 14


 738 0036 4CD9     		bls	.L128
 739              	.L115:
 740              		.loc 1 613 0
 741 0038 608A     		ldrh	r0, [r4, #18]
 742              		.loc 1 612 0
 743 003a 6E68     		ldr	r6, [r5, #4]
 744              	.LVL80:
 745              		.loc 1 613 0
 746 003c FFF7FEFF 		bl	lwip_htons
 747              	.LVL81:
 748 0040 3080     		strh	r0, [r6, #0]	@ unaligned
 749              		.loc 1 614 0
 750 0042 4846     		mov	r0, r9
 751 0044 FFF7FEFF 		bl	lwip_htons
 752              	.LVL82:
 753              		.loc 1 616 0
 754 0048 0021     		movs	r1, #0
 755              		.loc 1 614 0
 756 004a 7080     		strh	r0, [r6, #2]	@ unaligned
 757              		.loc 1 616 0
 758 004c B171     		strb	r1, [r6, #6]
 759 004e F171     		strb	r1, [r6, #7]
 760              		.loc 1 627 0
 761 0050 2368     		ldr	r3, [r4, #0]
 762 0052 002B     		cmp	r3, #0
 763 0054 24D1     		bne	.L116
 764              		.loc 1 629 0
 765 0056 08F10409 		add	r9, r8, #4
 766              	.LVL83:
 767              	.L117:
 768              		.loc 1 699 0
 769 005a 2889     		ldrh	r0, [r5, #8]
 770 005c FFF7FEFF 		bl	lwip_htons
 771              	.LVL84:
 772 0060 B080     		strh	r0, [r6, #4]	@ unaligned
 773              		.loc 1 702 0
 774 0062 207C     		ldrb	r0, [r4, #16]	@ zero_extendqisi2
 775 0064 C307     		lsls	r3, r0, #31
 776 0066 39D5     		bpl	.L129
 777              	.L119:
 778              		.loc 1 728 0
 779 0068 667A     		ldrb	r6, [r4, #9]	@ zero_extendqisi2
 780              	.LVL85:
 781 006a A37A     		ldrb	r3, [r4, #10]	@ zero_extendqisi2
 782 006c 0096     		str	r6, [sp, #0]
 783 006e 1122     		movs	r2, #17
 784 0070 0192     		str	r2, [sp, #4]
 785 0072 CDF80880 		str	r8, [sp, #8]
 786 0076 2846     		mov	r0, r5
 787 0078 4946     		mov	r1, r9
 788 007a 5246     		mov	r2, sl
 789 007c FFF7FEFF 		bl	ip_output_if
 790              	.LVL86:
 791              		.loc 1 735 0
 792 0080 BD42     		cmp	r5, r7
 793              		.loc 1 728 0
 794 0082 0646     		mov	r6, r0
ARM GAS  /tmp/cc2uzJbB.s 			page 15


 795              	.LVL87:
 796              		.loc 1 735 0
 797 0084 02D0     		beq	.L121
 798              		.loc 1 737 0
 799 0086 2846     		mov	r0, r5
 800              	.LVL88:
 801 0088 FFF7FEFF 		bl	pbuf_free
 802              	.LVL89:
 803              	.L121:
 804              		.loc 1 742 0
 805 008c 1D48     		ldr	r0, .L130
 806 008e B0F87810 		ldrh	r1, [r0, #120]
 807 0092 4B1C     		adds	r3, r1, #1
 808 0094 A0F87830 		strh	r3, [r0, #120]	@ movhi
 809              	.LVL90:
 810              	.L113:
 811              		.loc 1 744 0
 812 0098 70B2     		sxtb	r0, r6
 813 009a 04B0     		add	sp, sp, #16
 814 009c BDE8F087 		pop	{r4, r5, r6, r7, r8, r9, sl, pc}
 815              	.LVL91:
 816              	.L116:
 817              		.loc 1 633 0
 818 00a0 D8F80420 		ldr	r2, [r8, #4]
 819 00a4 9342     		cmp	r3, r2
 820 00a6 28D0     		beq	.L118
 821              		.loc 1 635 0
 822 00a8 BD42     		cmp	r5, r7
 823 00aa 15D0     		beq	.L123
 824              		.loc 1 637 0
 825 00ac 2846     		mov	r0, r5
 826 00ae FFF7FEFF 		bl	pbuf_free
 827              	.LVL92:
 828              		.loc 1 641 0
 829 00b2 FA26     		movs	r6, #250
 830              	.LVL93:
 831 00b4 F0E7     		b	.L113
 832              	.LVL94:
 833              	.L111:
 834              		.loc 1 590 0
 835 00b6 0120     		movs	r0, #1
 836 00b8 0821     		movs	r1, #8
 837 00ba 0022     		movs	r2, #0
 838 00bc FFF7FEFF 		bl	pbuf_alloc
 839              	.LVL95:
 840              		.loc 1 592 0
 841 00c0 0546     		mov	r5, r0
 842 00c2 E0B1     		cbz	r0, .L122
 843              		.loc 1 596 0
 844 00c4 3B89     		ldrh	r3, [r7, #8]
 845 00c6 002B     		cmp	r3, #0
 846 00c8 B3D0     		beq	.L112
 847              		.loc 1 598 0
 848 00ca 3946     		mov	r1, r7
 849 00cc FFF7FEFF 		bl	pbuf_chain
 850              	.LVL96:
 851 00d0 AFE7     		b	.L112
ARM GAS  /tmp/cc2uzJbB.s 			page 16


 852              	.L128:
 853              		.loc 1 609 0 discriminator 1
 854 00d2 FFF7FEFF 		bl	port_halt
 855              	.LVL97:
 856 00d6 AFE7     		b	.L115
 857              	.LVL98:
 858              	.L123:
 859              		.loc 1 641 0
 860 00d8 FA26     		movs	r6, #250
 861              	.LVL99:
 862 00da DDE7     		b	.L113
 863              	.LVL100:
 864              	.L129:
 865              	.LBB10:
 866              		.loc 1 714 0
 867 00dc 2989     		ldrh	r1, [r5, #8]
 868 00de 1123     		movs	r3, #17
 869 00e0 0091     		str	r1, [sp, #0]
 870 00e2 2846     		mov	r0, r5
 871 00e4 4946     		mov	r1, r9
 872 00e6 5246     		mov	r2, sl
 873 00e8 FFF7FEFF 		bl	inet_chksum_pseudo
 874              	.LVL101:
 875              		.loc 1 719 0
 876 00ec 4FF6FF73 		movw	r3, #65535
 877              		.loc 1 721 0
 878 00f0 0028     		cmp	r0, #0
 879 00f2 08BF     		it	eq
 880 00f4 1846     		moveq	r0, r3
 881              	.LVL102:
 882 00f6 F080     		strh	r0, [r6, #6]	@ unaligned
 883 00f8 B6E7     		b	.L119
 884              	.LVL103:
 885              	.L118:
 886              	.LBE10:
 887              		.loc 1 627 0
 888 00fa A146     		mov	r9, r4
 889 00fc ADE7     		b	.L117
 890              	.LVL104:
 891              	.L122:
 892              		.loc 1 594 0
 893 00fe FF26     		movs	r6, #255
 894 0100 CAE7     		b	.L113
 895              	.L131:
 896 0102 00BF     		.align	2
 897              	.L130:
 898 0104 00000000 		.word	lwip_stats
 899              		.cfi_endproc
 900              	.LFE12:
 901              		.size	udp_sendto_if, .-udp_sendto_if
 902 0108 AFF30080 		.section	.text.udp_sendto,"ax",%progbits
 902      AFF30080 
 903              		.align	2
 904              		.p2align 4,,15
 905              		.global	udp_sendto
 906              		.thumb
 907              		.thumb_func
ARM GAS  /tmp/cc2uzJbB.s 			page 17


 908              		.type	udp_sendto, %function
 909              	udp_sendto:
 910              	.LFB11:
 911              		.loc 1 493 0
 912              		.cfi_startproc
 913              		@ args = 0, pretend = 0, frame = 0
 914              		@ frame_needed = 0, uses_anonymous_args = 0
 915              	.LVL105:
 916 0000 F0B5     		push	{r4, r5, r6, r7, lr}
 917              	.LCFI5:
 918              		.cfi_def_cfa_offset 20
 919              		.cfi_offset 4, -20
 920              		.cfi_offset 5, -16
 921              		.cfi_offset 6, -12
 922              		.cfi_offset 7, -8
 923              		.cfi_offset 14, -4
 924 0002 0546     		mov	r5, r0
 925 0004 83B0     		sub	sp, sp, #12
 926              	.LCFI6:
 927              		.cfi_def_cfa_offset 32
 928              		.loc 1 512 0
 929 0006 1046     		mov	r0, r2
 930              	.LVL106:
 931              		.loc 1 493 0
 932 0008 1446     		mov	r4, r2
 933 000a 0F46     		mov	r7, r1
 934 000c 1E46     		mov	r6, r3
 935              		.loc 1 512 0
 936 000e FFF7FEFF 		bl	ip_route
 937              	.LVL107:
 938              		.loc 1 516 0
 939 0012 48B1     		cbz	r0, .L135
 940              		.loc 1 525 0
 941 0014 0090     		str	r0, [sp, #0]
 942 0016 3946     		mov	r1, r7
 943 0018 2846     		mov	r0, r5
 944              	.LVL108:
 945 001a 2246     		mov	r2, r4
 946 001c 3346     		mov	r3, r6
 947 001e FFF7FEFF 		bl	udp_sendto_if
 948              	.LVL109:
 949              	.L134:
 950              		.loc 1 527 0
 951 0022 40B2     		sxtb	r0, r0
 952 0024 03B0     		add	sp, sp, #12
 953 0026 F0BD     		pop	{r4, r5, r6, r7, pc}
 954              	.LVL110:
 955              	.L135:
 956              		.loc 1 519 0
 957 0028 034B     		ldr	r3, .L136
 958 002a B3F88620 		ldrh	r2, [r3, #134]
 959 002e 501C     		adds	r0, r2, #1
 960              	.LVL111:
 961 0030 A3F88600 		strh	r0, [r3, #134]	@ movhi
 962              		.loc 1 520 0
 963 0034 FC20     		movs	r0, #252
 964 0036 F4E7     		b	.L134
ARM GAS  /tmp/cc2uzJbB.s 			page 18


 965              	.L137:
 966              		.align	2
 967              	.L136:
 968 0038 00000000 		.word	lwip_stats
 969              		.cfi_endproc
 970              	.LFE11:
 971              		.size	udp_sendto, .-udp_sendto
 972 003c AFF30080 		.section	.text.udp_send,"ax",%progbits
 973              		.align	2
 974              		.p2align 4,,15
 975              		.global	udp_send
 976              		.thumb
 977              		.thumb_func
 978              		.type	udp_send, %function
 979              	udp_send:
 980              	.LFB10:
 981              		.loc 1 455 0
 982              		.cfi_startproc
 983              		@ args = 0, pretend = 0, frame = 0
 984              		@ frame_needed = 0, uses_anonymous_args = 0
 985              		@ link register save eliminated.
 986              	.LVL112:
 987              		.loc 1 457 0
 988 0000 838A     		ldrh	r3, [r0, #20]
 989 0002 021D     		adds	r2, r0, #4
 990              		.loc 1 458 0
 991              		.loc 1 457 0
 992 0004 FFF7FEBF 		b	udp_sendto
 993              	.LVL113:
 994              		.cfi_endproc
 995              	.LFE10:
 996              		.size	udp_send, .-udp_send
 997 0008 AFF30080 		.section	.text.udp_connect,"ax",%progbits
 997      AFF30080 
 998              		.align	2
 999              		.p2align 4,,15
 1000              		.global	udp_connect
 1001              		.thumb
 1002              		.thumb_func
 1003              		.type	udp_connect, %function
 1004              	udp_connect:
 1005              	.LFB14:
 1006              		.loc 1 854 0
 1007              		.cfi_startproc
 1008              		@ args = 0, pretend = 0, frame = 0
 1009              		@ frame_needed = 0, uses_anonymous_args = 0
 1010              	.LVL114:
 1011              		.loc 1 857 0
 1012 0000 438A     		ldrh	r3, [r0, #18]
 1013              		.loc 1 854 0
 1014 0002 70B5     		push	{r4, r5, r6, lr}
 1015              	.LCFI7:
 1016              		.cfi_def_cfa_offset 16
 1017              		.cfi_offset 4, -16
 1018              		.cfi_offset 5, -12
 1019              		.cfi_offset 6, -8
 1020              		.cfi_offset 14, -4
ARM GAS  /tmp/cc2uzJbB.s 			page 19


 1021              		.loc 1 854 0
 1022 0004 0446     		mov	r4, r0
 1023 0006 0D46     		mov	r5, r1
 1024 0008 1646     		mov	r6, r2
 1025              		.loc 1 857 0
 1026 000a C3B1     		cbz	r3, .L140
 1027              	.LVL115:
 1028              	.L144:
 1029              		.loc 1 864 0
 1030 000c 05B1     		cbz	r5, .L142
 1031              		.loc 1 864 0 is_stmt 0 discriminator 1
 1032 000e 2D68     		ldr	r5, [r5, #0]
 1033              	.LVL116:
 1034              	.L142:
 1035              		.loc 1 893 0 is_stmt 1 discriminator 3
 1036 0010 1049     		ldr	r1, .L154
 1037              		.loc 1 866 0 discriminator 3
 1038 0012 227C     		ldrb	r2, [r4, #16]	@ zero_extendqisi2
 1039              		.loc 1 893 0 discriminator 3
 1040 0014 0868     		ldr	r0, [r1, #0]
 1041              	.LVL117:
 1042              		.loc 1 864 0 discriminator 3
 1043 0016 6560     		str	r5, [r4, #4]
 1044              		.loc 1 866 0 discriminator 3
 1045 0018 42F00403 		orr	r3, r2, #4
 1046              		.loc 1 865 0 discriminator 3
 1047 001c A682     		strh	r6, [r4, #20]	@ movhi
 1048              		.loc 1 866 0 discriminator 3
 1049 001e 2374     		strb	r3, [r4, #16]
 1050              		.loc 1 893 0 discriminator 3
 1051 0020 40B1     		cbz	r0, .L145
 1052              		.loc 1 894 0
 1053 0022 8442     		cmp	r4, r0
 1054 0024 13D0     		beq	.L150
 1055 0026 0246     		mov	r2, r0
 1056 0028 01E0     		b	.L147
 1057              	.LVL118:
 1058              	.L148:
 1059 002a 9442     		cmp	r4, r2
 1060 002c 0FD0     		beq	.L150
 1061              	.L147:
 1062              		.loc 1 893 0
 1063 002e D268     		ldr	r2, [r2, #12]
 1064              	.LVL119:
 1065 0030 002A     		cmp	r2, #0
 1066 0032 FAD1     		bne	.L148
 1067              	.LVL120:
 1068              	.L145:
 1069              		.loc 1 900 0
 1070 0034 E060     		str	r0, [r4, #12]
 1071              		.loc 1 902 0
 1072 0036 0020     		movs	r0, #0
 1073              		.loc 1 901 0
 1074 0038 0C60     		str	r4, [r1, #0]
 1075              		.loc 1 903 0
 1076 003a 40B2     		sxtb	r0, r0
 1077 003c 70BD     		pop	{r4, r5, r6, pc}
ARM GAS  /tmp/cc2uzJbB.s 			page 20


 1078              	.LVL121:
 1079              	.L140:
 1080              	.LBB11:
 1081              		.loc 1 858 0
 1082 003e 0146     		mov	r1, r0
 1083              	.LVL122:
 1084 0040 1A46     		mov	r2, r3
 1085              	.LVL123:
 1086 0042 FFF7FEFF 		bl	udp_bind
 1087              	.LVL124:
 1088              		.loc 1 859 0
 1089 0046 0028     		cmp	r0, #0
 1090 0048 E0D0     		beq	.L144
 1091              	.LBE11:
 1092              		.loc 1 903 0
 1093 004a 40B2     		sxtb	r0, r0
 1094 004c 70BD     		pop	{r4, r5, r6, pc}
 1095              	.LVL125:
 1096              	.L150:
 1097              		.loc 1 896 0
 1098 004e 0020     		movs	r0, #0
 1099              		.loc 1 903 0
 1100 0050 40B2     		sxtb	r0, r0
 1101 0052 70BD     		pop	{r4, r5, r6, pc}
 1102              	.L155:
 1103              		.align	2
 1104              	.L154:
 1105 0054 00000000 		.word	.LANCHOR0
 1106              		.cfi_endproc
 1107              	.LFE14:
 1108              		.size	udp_connect, .-udp_connect
 1109 0058 AFF30080 		.section	.text.udp_disconnect,"ax",%progbits
 1109      AFF30080 
 1110              		.align	2
 1111              		.p2align 4,,15
 1112              		.global	udp_disconnect
 1113              		.thumb
 1114              		.thumb_func
 1115              		.type	udp_disconnect, %function
 1116              	udp_disconnect:
 1117              	.LFB15:
 1118              		.loc 1 912 0
 1119              		.cfi_startproc
 1120              		@ args = 0, pretend = 0, frame = 0
 1121              		@ frame_needed = 0, uses_anonymous_args = 0
 1122              		@ link register save eliminated.
 1123              	.LVL126:
 1124              		.loc 1 917 0
 1125 0000 027C     		ldrb	r2, [r0, #16]	@ zero_extendqisi2
 1126              		.loc 1 914 0
 1127 0002 0023     		movs	r3, #0
 1128              		.loc 1 917 0
 1129 0004 22F00401 		bic	r1, r2, #4
 1130              		.loc 1 914 0
 1131 0008 4360     		str	r3, [r0, #4]
 1132              		.loc 1 915 0
 1133 000a 8382     		strh	r3, [r0, #20]	@ movhi
ARM GAS  /tmp/cc2uzJbB.s 			page 21


 1134              		.loc 1 917 0
 1135 000c 0174     		strb	r1, [r0, #16]
 1136 000e 7047     		bx	lr
 1137              		.cfi_endproc
 1138              	.LFE15:
 1139              		.size	udp_disconnect, .-udp_disconnect
 1140              		.section	.text.udp_recv,"ax",%progbits
 1141              		.align	2
 1142              		.p2align 4,,15
 1143              		.global	udp_recv
 1144              		.thumb
 1145              		.thumb_func
 1146              		.type	udp_recv, %function
 1147              	udp_recv:
 1148              	.LFB16:
 1149              		.loc 1 931 0
 1150              		.cfi_startproc
 1151              		@ args = 0, pretend = 0, frame = 0
 1152              		@ frame_needed = 0, uses_anonymous_args = 0
 1153              		@ link register save eliminated.
 1154              	.LVL127:
 1155              		.loc 1 933 0
 1156 0000 8161     		str	r1, [r0, #24]
 1157              		.loc 1 934 0
 1158 0002 C261     		str	r2, [r0, #28]
 1159 0004 7047     		bx	lr
 1160              		.cfi_endproc
 1161              	.LFE16:
 1162              		.size	udp_recv, .-udp_recv
 1163              		.section	.text.udp_remove,"ax",%progbits
 1164              		.align	2
 1165              		.p2align 4,,15
 1166              		.global	udp_remove
 1167              		.thumb
 1168              		.thumb_func
 1169              		.type	udp_remove, %function
 1170              	udp_remove:
 1171              	.LFB17:
 1172              		.loc 1 947 0
 1173              		.cfi_startproc
 1174              		@ args = 0, pretend = 0, frame = 0
 1175              		@ frame_needed = 0, uses_anonymous_args = 0
 1176              		@ link register save eliminated.
 1177              	.LVL128:
 1178              		.loc 1 952 0
 1179 0000 0B4B     		ldr	r3, .L173
 1180 0002 1A68     		ldr	r2, [r3, #0]
 1181 0004 8242     		cmp	r2, r0
 1182              		.loc 1 947 0
 1183 0006 0146     		mov	r1, r0
 1184              		.loc 1 952 0
 1185 0008 0FD0     		beq	.L159
 1186              	.LVL129:
 1187              		.loc 1 957 0 discriminator 1
 1188 000a 1AB9     		cbnz	r2, .L170
 1189 000c 05E0     		b	.L162
 1190              	.LVL130:
ARM GAS  /tmp/cc2uzJbB.s 			page 22


 1191              	.L172:
 1192              		.loc 1 959 0 discriminator 1
 1193 000e 8142     		cmp	r1, r0
 1194 0010 06D0     		beq	.L171
 1195              	.L163:
 1196              		.loc 1 947 0
 1197 0012 0246     		mov	r2, r0
 1198              	.L170:
 1199              		.loc 1 959 0
 1200 0014 D068     		ldr	r0, [r2, #12]
 1201 0016 0028     		cmp	r0, #0
 1202 0018 F9D1     		bne	.L172
 1203              	.L162:
 1204              		.loc 1 965 0
 1205 001a 0120     		movs	r0, #1
 1206              		.loc 1 966 0
 1207              		.loc 1 965 0
 1208 001c FFF7FEBF 		b	memp_free
 1209              	.LVL131:
 1210              	.L171:
 1211              		.loc 1 961 0
 1212 0020 C868     		ldr	r0, [r1, #12]
 1213 0022 D060     		str	r0, [r2, #12]
 1214              	.LVL132:
 1215              		.loc 1 957 0
 1216 0024 0028     		cmp	r0, #0
 1217 0026 F4D1     		bne	.L163
 1218 0028 F7E7     		b	.L162
 1219              	.LVL133:
 1220              	.L159:
 1221              		.loc 1 954 0
 1222 002a C068     		ldr	r0, [r0, #12]
 1223              	.LVL134:
 1224 002c 1860     		str	r0, [r3, #0]
 1225 002e F4E7     		b	.L162
 1226              	.L174:
 1227              		.align	2
 1228              	.L173:
 1229 0030 00000000 		.word	.LANCHOR0
 1230              		.cfi_endproc
 1231              	.LFE17:
 1232              		.size	udp_remove, .-udp_remove
 1233 0034 AFF30080 		.section	.text.udp_new,"ax",%progbits
 1233      AFF30080 
 1233      AFF30080 
 1234              		.align	2
 1235              		.p2align 4,,15
 1236              		.global	udp_new
 1237              		.thumb
 1238              		.thumb_func
 1239              		.type	udp_new, %function
 1240              	udp_new:
 1241              	.LFB18:
 1242              		.loc 1 978 0
 1243              		.cfi_startproc
 1244              		@ args = 0, pretend = 0, frame = 0
 1245              		@ frame_needed = 0, uses_anonymous_args = 0
ARM GAS  /tmp/cc2uzJbB.s 			page 23


 1246 0000 10B5     		push	{r4, lr}
 1247              	.LCFI8:
 1248              		.cfi_def_cfa_offset 8
 1249              		.cfi_offset 4, -8
 1250              		.cfi_offset 14, -4
 1251              		.loc 1 980 0
 1252 0002 0120     		movs	r0, #1
 1253 0004 FFF7FEFF 		bl	memp_malloc
 1254              	.LVL135:
 1255              		.loc 1 982 0
 1256 0008 0446     		mov	r4, r0
 1257 000a 28B1     		cbz	r0, .L176
 1258              		.loc 1 987 0
 1259 000c 0021     		movs	r1, #0
 1260 000e 2022     		movs	r2, #32
 1261 0010 FFF7FEFF 		bl	memset
 1262              	.LVL136:
 1263              		.loc 1 988 0
 1264 0014 FF23     		movs	r3, #255
 1265 0016 A372     		strb	r3, [r4, #10]
 1266              	.L176:
 1267              		.loc 1 991 0
 1268 0018 2046     		mov	r0, r4
 1269 001a 10BD     		pop	{r4, pc}
 1270              		.cfi_endproc
 1271              	.LFE18:
 1272              		.size	udp_new, .-udp_new
 1273              		.global	udp_pcbs
 1274 001c AFF30080 		.section	.bss.udp_pcbs,"aw",%nobits
 1275              		.align	2
 1276              		.set	.LANCHOR0,. + 0
 1277              		.type	udp_pcbs, %object
 1278              		.size	udp_pcbs, 4
 1279              	udp_pcbs:
 1280 0000 00000000 		.space	4
 1281              		.section	.data.udp_port,"aw",%progbits
 1282              		.align	1
 1283              		.set	.LANCHOR1,. + 0
 1284              		.type	udp_port, %object
 1285              		.size	udp_port, 2
 1286              	udp_port:
 1287 0000 00C0     		.short	-16384
 1288              		.text
 1289              	.Letext0:
 1290              		.file 2 "/usr/bin/../lib/gcc/arm-none-eabi/4.7.4/../../../../arm-none-eabi/include/stdint.h"
 1291              		.file 3 "../../os/various/lwip_bindings/arch/cc.h"
 1292              		.file 4 "../../ext/lwip/src/include/lwip/err.h"
 1293              		.file 5 "../../ext/lwip/src/include/lwip/pbuf.h"
 1294              		.file 6 "../../ext/lwip/src/include/ipv4/lwip/ip_addr.h"
 1295              		.file 7 "../../ext/lwip/src/include/lwip/netif.h"
 1296              		.file 8 "../../ext/lwip/src/include/ipv4/lwip/ip.h"
 1297              		.file 9 "../../ext/lwip/src/include/lwip/udp.h"
 1298              		.file 10 "../../ext/lwip/src/include/lwip/memp.h"
 1299              		.file 11 "../../ext/lwip/src/include/lwip/mem.h"
 1300              		.file 12 "../../ext/lwip/src/include/lwip/stats.h"
 1301              		.file 13 "../../ext/lwip/src/include/lwip/def.h"
 1302              		.file 14 "../../ext/lwip/src/include/ipv4/lwip/inet_chksum.h"
ARM GAS  /tmp/cc2uzJbB.s 			page 24


 1303              		.file 15 "../../ext/lwip/src/include/ipv4/lwip/icmp.h"
 1304              		.file 16 "../../os/ports/GCC/ARMCMx/chcore_v7m.h"